ARM GAS  C:\Users\jsyoon\AppData\Local\Temp\ccJfYAGa.s 			page 1


   1              		.syntax unified
   2              		.cpu cortex-m4
   3              		.eabi_attribute 27, 3
   4              		.eabi_attribute 28, 1
   5              		.fpu fpv4-sp-d16
   6              		.eabi_attribute 20, 1
   7              		.eabi_attribute 21, 1
   8              		.eabi_attribute 23, 3
   9              		.eabi_attribute 24, 1
  10              		.eabi_attribute 25, 1
  11              		.eabi_attribute 26, 1
  12              		.eabi_attribute 30, 2
  13              		.eabi_attribute 34, 1
  14              		.eabi_attribute 18, 4
  15              		.thumb
  16              		.file	"chqueues.c"
  17              		.text
  18              	.Ltext0:
  19              		.cfi_sections	.debug_frame
  20              		.section	.text.qwait,"ax",%progbits
  21              		.align	2
  22              		.p2align 4,,15
  23              		.thumb
  24              		.thumb_func
  25              		.type	qwait, %function
  26              	qwait:
  27              	.LFB7:
  28              		.file 1 "ChibiOS_2.6.6/os/kernel/src/chqueues.c"
  29              		.loc 1 70 0
  30              		.cfi_startproc
  31              		@ args = 0, pretend = 0, frame = 0
  32              		@ frame_needed = 0, uses_anonymous_args = 0
  33              		@ link register save eliminated.
  34              	.LVL0:
  35 0000 10B4     		push	{r4}
  36              		.cfi_def_cfa_offset 4
  37              		.cfi_offset 4, -4
  38              		.loc 1 70 0
  39 0002 0246     		mov	r2, r0
  40              		.loc 1 72 0
  41 0004 61B1     		cbz	r1, .L2
  42              		.loc 1 74 0
  43 0006 094B     		ldr	r3, .L4
  44 0008 9B69     		ldr	r3, [r3, #24]
  45 000a 5862     		str	r0, [r3, #36]
  46              	.LVL1:
  47              	.LBB12:
  48              	.LBB13:
  49              		.file 2 "ChibiOS_2.6.6/os/kernel/include/chinline.h"
  50              		.loc 2 55 0
  51 000c 4468     		ldr	r4, [r0, #4]
  52              	.LBE13:
  53              	.LBE12:
  54              		.loc 1 76 0
  55 000e 0D20     		movs	r0, #13
  56              	.LVL2:
  57              	.LBB15:
ARM GAS  C:\Users\jsyoon\AppData\Local\Temp\ccJfYAGa.s 			page 2


  58              	.LBB14:
  59              		.loc 2 55 0
  60 0010 83E81400 		stmia	r3, {r2, r4}
  61              		.loc 2 56 0
  62 0014 5360     		str	r3, [r2, #4]
  63 0016 2360     		str	r3, [r4]
  64              	.LBE14:
  65              	.LBE15:
  66              		.loc 1 77 0
  67 0018 5DF8044B 		ldr	r4, [sp], #4
  68              		.loc 1 76 0
  69 001c FFF7FEBF 		b	chSchGoSleepTimeoutS
  70              	.LVL3:
  71              	.L2:
  72              		.loc 1 77 0
  73 0020 4FF0FF30 		mov	r0, #-1
  74              	.LVL4:
  75 0024 5DF8044B 		ldr	r4, [sp], #4
  76 0028 7047     		bx	lr
  77              	.L5:
  78 002a 00BF     		.align	2
  79              	.L4:
  80 002c 00000000 		.word	rlist
  81              		.cfi_endproc
  82              	.LFE7:
  83              		.size	qwait, .-qwait
  84              		.section	.text.chIQInit,"ax",%progbits
  85              		.align	2
  86              		.p2align 4,,15
  87              		.global	chIQInit
  88              		.thumb
  89              		.thumb_func
  90              		.type	chIQInit, %function
  91              	chIQInit:
  92              	.LFB8:
  93              		.loc 1 96 0
  94              		.cfi_startproc
  95              		@ args = 4, pretend = 0, frame = 0
  96              		@ frame_needed = 0, uses_anonymous_args = 0
  97              		@ link register save eliminated.
  98              	.LVL5:
  99 0000 30B4     		push	{r4, r5}
 100              		.cfi_def_cfa_offset 8
 101              		.cfi_offset 4, -8
 102              		.cfi_offset 5, -4
 103              		.loc 1 96 0
 104 0002 029C     		ldr	r4, [sp, #8]
 105              		.loc 1 103 0
 106 0004 0462     		str	r4, [r0, #32]
 107              		.loc 1 99 0
 108 0006 0025     		movs	r5, #0
 109              		.loc 1 101 0
 110 0008 0A44     		add	r2, r2, r1
 111              	.LVL6:
 112              		.loc 1 99 0
 113 000a 8560     		str	r5, [r0, #8]
 114              		.loc 1 101 0
ARM GAS  C:\Users\jsyoon\AppData\Local\Temp\ccJfYAGa.s 			page 3


 115 000c 0261     		str	r2, [r0, #16]
 116              		.loc 1 98 0
 117 000e 4060     		str	r0, [r0, #4]
 118 0010 0060     		str	r0, [r0]
 119              		.loc 1 100 0
 120 0012 4161     		str	r1, [r0, #20]
 121 0014 8161     		str	r1, [r0, #24]
 122 0016 C160     		str	r1, [r0, #12]
 123              		.loc 1 102 0
 124 0018 C361     		str	r3, [r0, #28]
 125              		.loc 1 104 0
 126 001a 30BC     		pop	{r4, r5}
 127              	.LVL7:
 128 001c 7047     		bx	lr
 129              		.cfi_endproc
 130              	.LFE8:
 131              		.size	chIQInit, .-chIQInit
 132 001e 00BF     		.section	.text.chIQResetI,"ax",%progbits
 133              		.align	2
 134              		.p2align 4,,15
 135              		.global	chIQResetI
 136              		.thumb
 137              		.thumb_func
 138              		.type	chIQResetI, %function
 139              	chIQResetI:
 140              	.LFB9:
 141              		.loc 1 117 0
 142              		.cfi_startproc
 143              		@ args = 0, pretend = 0, frame = 0
 144              		@ frame_needed = 0, uses_anonymous_args = 0
 145              	.LVL8:
 146 0000 38B5     		push	{r3, r4, r5, lr}
 147              		.cfi_def_cfa_offset 16
 148              		.cfi_offset 3, -16
 149              		.cfi_offset 4, -12
 150              		.cfi_offset 5, -8
 151              		.cfi_offset 14, -4
 152              		.loc 1 117 0
 153 0002 0446     		mov	r4, r0
 154              		.loc 1 123 0
 155 0004 0068     		ldr	r0, [r0]
 156              	.LVL9:
 157              		.loc 1 121 0
 158 0006 E368     		ldr	r3, [r4, #12]
 159 0008 6361     		str	r3, [r4, #20]
 160              		.loc 1 122 0
 161 000a 0022     		movs	r2, #0
 162              		.loc 1 123 0
 163 000c A042     		cmp	r0, r4
 164              		.loc 1 122 0
 165 000e A260     		str	r2, [r4, #8]
 166              		.loc 1 121 0
 167 0010 A361     		str	r3, [r4, #24]
 168              		.loc 1 123 0
 169 0012 0AD0     		beq	.L7
 170              		.loc 1 124 0
 171 0014 6FF00105 		mvn	r5, #1
ARM GAS  C:\Users\jsyoon\AppData\Local\Temp\ccJfYAGa.s 			page 4


 172              	.L10:
 173              	.LVL10:
 174              	.LBB16:
 175              	.LBB17:
 176              		.loc 2 62 0
 177 0018 0368     		ldr	r3, [r0]
 178 001a 2360     		str	r3, [r4]
 179 001c 5C60     		str	r4, [r3, #4]
 180              	.LBE17:
 181              	.LBE16:
 182              		.loc 1 124 0
 183 001e FFF7FEFF 		bl	chSchReadyI
 184              	.LVL11:
 185 0022 4562     		str	r5, [r0, #36]
 186              		.loc 1 123 0
 187 0024 2068     		ldr	r0, [r4]
 188 0026 A042     		cmp	r0, r4
 189 0028 F6D1     		bne	.L10
 190              	.LVL12:
 191              	.L7:
 192 002a 38BD     		pop	{r3, r4, r5, pc}
 193              		.cfi_endproc
 194              	.LFE9:
 195              		.size	chIQResetI, .-chIQResetI
 196 002c AFF30080 		.section	.text.chIQPutI,"ax",%progbits
 197              		.align	2
 198              		.p2align 4,,15
 199              		.global	chIQPutI
 200              		.thumb
 201              		.thumb_func
 202              		.type	chIQPutI, %function
 203              	chIQPutI:
 204              	.LFB10:
 205              		.loc 1 140 0
 206              		.cfi_startproc
 207              		@ args = 0, pretend = 0, frame = 0
 208              		@ frame_needed = 0, uses_anonymous_args = 0
 209              	.LVL13:
 210 0000 0346     		mov	r3, r0
 211              		.loc 1 144 0
 212 0002 4269     		ldr	r2, [r0, #20]
 213 0004 8069     		ldr	r0, [r0, #24]
 214              	.LVL14:
 215 0006 8242     		cmp	r2, r0
 216              		.loc 1 140 0
 217 0008 10B5     		push	{r4, lr}
 218              		.cfi_def_cfa_offset 8
 219              		.cfi_offset 4, -8
 220              		.cfi_offset 14, -4
 221              		.loc 1 144 0
 222 000a 9868     		ldr	r0, [r3, #8]
 223 000c 1BD0     		beq	.L20
 224              	.L14:
 225              		.loc 1 148 0
 226 000e 541C     		adds	r4, r2, #1
 227              		.loc 1 147 0
 228 0010 0130     		adds	r0, r0, #1
ARM GAS  C:\Users\jsyoon\AppData\Local\Temp\ccJfYAGa.s 			page 5


 229              		.loc 1 148 0
 230 0012 5C61     		str	r4, [r3, #20]
 231              		.loc 1 147 0
 232 0014 9860     		str	r0, [r3, #8]
 233              		.loc 1 148 0
 234 0016 1170     		strb	r1, [r2]
 235              		.loc 1 149 0
 236 0018 5969     		ldr	r1, [r3, #20]
 237              	.LVL15:
 238 001a 1A69     		ldr	r2, [r3, #16]
 239              	.LVL16:
 240 001c 9142     		cmp	r1, r2
 241 001e 0BD2     		bcs	.L15
 242              		.loc 1 152 0
 243 0020 1868     		ldr	r0, [r3]
 244 0022 9842     		cmp	r0, r3
 245 0024 0DD0     		beq	.L18
 246              	.LVL17:
 247              	.L21:
 248              	.LBB18:
 249              	.LBB19:
 250              		.loc 2 62 0
 251 0026 0268     		ldr	r2, [r0]
 252 0028 1A60     		str	r2, [r3]
 253 002a 5360     		str	r3, [r2, #4]
 254              	.LBE19:
 255              	.LBE18:
 256              		.loc 1 153 0
 257 002c FFF7FEFF 		bl	chSchReadyI
 258              	.LVL18:
 259 0030 0023     		movs	r3, #0
 260 0032 4362     		str	r3, [r0, #36]
 261              		.loc 1 155 0
 262 0034 1846     		mov	r0, r3
 263 0036 10BD     		pop	{r4, pc}
 264              	.LVL19:
 265              	.L15:
 266              		.loc 1 152 0
 267 0038 1868     		ldr	r0, [r3]
 268              		.loc 1 150 0
 269 003a DA68     		ldr	r2, [r3, #12]
 270 003c 5A61     		str	r2, [r3, #20]
 271              	.LVL20:
 272              		.loc 1 152 0
 273 003e 9842     		cmp	r0, r3
 274 0040 F1D1     		bne	.L21
 275              	.L18:
 276              		.loc 1 155 0
 277 0042 0020     		movs	r0, #0
 278 0044 10BD     		pop	{r4, pc}
 279              	.LVL21:
 280              	.L20:
 281              		.loc 1 144 0 discriminator 1
 282 0046 0028     		cmp	r0, #0
 283 0048 E1D0     		beq	.L14
 284              		.loc 1 145 0
 285 004a 6FF00300 		mvn	r0, #3
ARM GAS  C:\Users\jsyoon\AppData\Local\Temp\ccJfYAGa.s 			page 6


 286 004e 10BD     		pop	{r4, pc}
 287              		.cfi_endproc
 288              	.LFE10:
 289              		.size	chIQPutI, .-chIQPutI
 290              		.section	.text.chIQGetTimeout,"ax",%progbits
 291              		.align	2
 292              		.p2align 4,,15
 293              		.global	chIQGetTimeout
 294              		.thumb
 295              		.thumb_func
 296              		.type	chIQGetTimeout, %function
 297              	chIQGetTimeout:
 298              	.LFB11:
 299              		.loc 1 178 0
 300              		.cfi_startproc
 301              		@ args = 0, pretend = 0, frame = 0
 302              		@ frame_needed = 0, uses_anonymous_args = 0
 303              	.LVL22:
 304 0000 38B5     		push	{r3, r4, r5, lr}
 305              		.cfi_def_cfa_offset 16
 306              		.cfi_offset 3, -16
 307              		.cfi_offset 4, -12
 308              		.cfi_offset 5, -8
 309              		.cfi_offset 14, -4
 310              		.loc 1 178 0
 311 0002 0D46     		mov	r5, r1
 312 0004 0446     		mov	r4, r0
 313              		.loc 1 181 0
 314              	@ 181 "ChibiOS_2.6.6/os/kernel/src/chqueues.c" 1
 315 0006 72B6     		cpsid   i
 316              	@ 0 "" 2
 317              		.loc 1 182 0
 318              		.thumb
 319 0008 C369     		ldr	r3, [r0, #28]
 320 000a 2BB1     		cbz	r3, .L25
 321              		.loc 1 183 0
 322 000c 9847     		blx	r3
 323              	.LVL23:
 324 000e 03E0     		b	.L25
 325              	.LVL24:
 326              	.L27:
 327              	.LBB20:
 328              		.loc 1 187 0
 329 0010 FFF7FEFF 		bl	qwait
 330              	.LVL25:
 331 0014 0028     		cmp	r0, #0
 332 0016 10DB     		blt	.L28
 333              	.LVL26:
 334              	.L25:
 335              	.LBE20:
 336              		.loc 1 185 0 discriminator 1
 337 0018 A368     		ldr	r3, [r4, #8]
 338              	.LBB21:
 339              		.loc 1 187 0 discriminator 1
 340 001a 2046     		mov	r0, r4
 341 001c 2946     		mov	r1, r5
 342              	.LBE21:
ARM GAS  C:\Users\jsyoon\AppData\Local\Temp\ccJfYAGa.s 			page 7


 343              		.loc 1 185 0 discriminator 1
 344 001e 002B     		cmp	r3, #0
 345 0020 F6D0     		beq	.L27
 346              	.LVL27:
 347              		.loc 1 194 0
 348 0022 A169     		ldr	r1, [r4, #24]
 349              	.LVL28:
 350              		.loc 1 195 0
 351 0024 2569     		ldr	r5, [r4, #16]
 352              	.LVL29:
 353              		.loc 1 194 0
 354 0026 4A1C     		adds	r2, r1, #1
 355              		.loc 1 193 0
 356 0028 013B     		subs	r3, r3, #1
 357              		.loc 1 195 0
 358 002a AA42     		cmp	r2, r5
 359              		.loc 1 193 0
 360 002c A360     		str	r3, [r4, #8]
 361              		.loc 1 194 0
 362 002e A261     		str	r2, [r4, #24]
 363              		.loc 1 196 0
 364 0030 28BF     		it	cs
 365 0032 E368     		ldrcs	r3, [r4, #12]
 366              		.loc 1 194 0
 367 0034 0878     		ldrb	r0, [r1]	@ zero_extendqisi2
 368              	.LVL30:
 369              		.loc 1 196 0
 370 0036 28BF     		it	cs
 371 0038 A361     		strcs	r3, [r4, #24]
 372              	.LVL31:
 373              	.L28:
 374              		.loc 1 198 0
 375              	@ 198 "ChibiOS_2.6.6/os/kernel/src/chqueues.c" 1
 376 003a 62B6     		cpsie   i
 377              	@ 0 "" 2
 378              		.loc 1 200 0
 379              		.thumb
 380 003c 38BD     		pop	{r3, r4, r5, pc}
 381              		.cfi_endproc
 382              	.LFE11:
 383              		.size	chIQGetTimeout, .-chIQGetTimeout
 384 003e 00BF     		.section	.text.chIQReadTimeout,"ax",%progbits
 385              		.align	2
 386              		.p2align 4,,15
 387              		.global	chIQReadTimeout
 388              		.thumb
 389              		.thumb_func
 390              		.type	chIQReadTimeout, %function
 391              	chIQReadTimeout:
 392              	.LFB12:
 393              		.loc 1 227 0
 394              		.cfi_startproc
 395              		@ args = 0, pretend = 0, frame = 0
 396              		@ frame_needed = 0, uses_anonymous_args = 0
 397              	.LVL32:
 398 0000 2DE9F047 		push	{r4, r5, r6, r7, r8, r9, r10, lr}
 399              		.cfi_def_cfa_offset 32
ARM GAS  C:\Users\jsyoon\AppData\Local\Temp\ccJfYAGa.s 			page 8


 400              		.cfi_offset 4, -32
 401              		.cfi_offset 5, -28
 402              		.cfi_offset 6, -24
 403              		.cfi_offset 7, -20
 404              		.cfi_offset 8, -16
 405              		.cfi_offset 9, -12
 406              		.cfi_offset 10, -8
 407              		.cfi_offset 14, -4
 408              		.loc 1 227 0
 409 0004 0446     		mov	r4, r0
 410 0006 1E46     		mov	r6, r3
 411              		.loc 1 228 0
 412 0008 D0F81C80 		ldr	r8, [r0, #28]
 413              	.LVL33:
 414              		.loc 1 233 0
 415              	@ 233 "ChibiOS_2.6.6/os/kernel/src/chqueues.c" 1
 416 000c 72B6     		cpsid   i
 417              	@ 0 "" 2
 418              		.loc 1 229 0
 419              		.thumb
 420 000e 4FF00009 		mov	r9, #0
 421 0012 01EB020A 		add	r10, r1, r2
 422 0016 4F1C     		adds	r7, r1, #1
 423              	.LVL34:
 424              	.L39:
 425              		.loc 1 235 0
 426 0018 B8F1000F 		cmp	r8, #0
 427 001c 05D0     		beq	.L35
 428              		.loc 1 236 0
 429 001e 2046     		mov	r0, r4
 430              	.LVL35:
 431 0020 C047     		blx	r8
 432              	.LVL36:
 433 0022 02E0     		b	.L35
 434              	.LVL37:
 435              	.L37:
 436              		.loc 1 239 0
 437 0024 FFF7FEFF 		bl	qwait
 438              	.LVL38:
 439 0028 D0B9     		cbnz	r0, .L43
 440              	.L35:
 441              		.loc 1 238 0 discriminator 1
 442 002a A568     		ldr	r5, [r4, #8]
 443              		.loc 1 239 0 discriminator 1
 444 002c 2046     		mov	r0, r4
 445 002e 3146     		mov	r1, r6
 446              		.loc 1 238 0 discriminator 1
 447 0030 002D     		cmp	r5, #0
 448 0032 F7D0     		beq	.L37
 449              	.LVL39:
 450              		.loc 1 246 0
 451 0034 A369     		ldr	r3, [r4, #24]
 452              		.loc 1 245 0
 453 0036 013D     		subs	r5, r5, #1
 454              		.loc 1 246 0
 455 0038 5A1C     		adds	r2, r3, #1
 456 003a A261     		str	r2, [r4, #24]
ARM GAS  C:\Users\jsyoon\AppData\Local\Temp\ccJfYAGa.s 			page 9


 457              		.loc 1 245 0
 458 003c A560     		str	r5, [r4, #8]
 459              	.LVL40:
 460              		.loc 1 246 0
 461 003e 1B78     		ldrb	r3, [r3]	@ zero_extendqisi2
 462 0040 07F8013C 		strb	r3, [r7, #-1]
 463              		.loc 1 247 0
 464 0044 2369     		ldr	r3, [r4, #16]
 465 0046 A269     		ldr	r2, [r4, #24]
 466 0048 9A42     		cmp	r2, r3
 467              		.loc 1 248 0
 468 004a 24BF     		itt	cs
 469 004c E368     		ldrcs	r3, [r4, #12]
 470 004e A361     		strcs	r3, [r4, #24]
 471              		.loc 1 250 0
 472              	@ 250 "ChibiOS_2.6.6/os/kernel/src/chqueues.c" 1
 473 0050 62B6     		cpsie   i
 474              	@ 0 "" 2
 475              		.loc 1 252 0
 476              		.thumb
 477 0052 5745     		cmp	r7, r10
 478              		.loc 1 251 0
 479 0054 09F10109 		add	r9, r9, #1
 480              	.LVL41:
 481              		.loc 1 252 0
 482 0058 03D0     		beq	.L36
 483              		.loc 1 255 0
 484              	@ 255 "ChibiOS_2.6.6/os/kernel/src/chqueues.c" 1
 485 005a 72B6     		cpsid   i
 486              	@ 0 "" 2
 487              		.thumb
 488 005c 0137     		adds	r7, r7, #1
 489              		.loc 1 256 0
 490 005e DBE7     		b	.L39
 491              	.LVL42:
 492              	.L43:
 493              		.loc 1 240 0
 494              	@ 240 "ChibiOS_2.6.6/os/kernel/src/chqueues.c" 1
 495 0060 62B6     		cpsie   i
 496              	@ 0 "" 2
 497              	.LVL43:
 498              		.thumb
 499              	.L36:
 500              		.loc 1 257 0
 501 0062 4846     		mov	r0, r9
 502 0064 BDE8F087 		pop	{r4, r5, r6, r7, r8, r9, r10, pc}
 503              		.cfi_endproc
 504              	.LFE12:
 505              		.size	chIQReadTimeout, .-chIQReadTimeout
 506 0068 AFF30080 		.section	.text.chOQInit,"ax",%progbits
 506      AFF30080 
 507              		.align	2
 508              		.p2align 4,,15
 509              		.global	chOQInit
 510              		.thumb
 511              		.thumb_func
 512              		.type	chOQInit, %function
ARM GAS  C:\Users\jsyoon\AppData\Local\Temp\ccJfYAGa.s 			page 10


 513              	chOQInit:
 514              	.LFB13:
 515              		.loc 1 276 0
 516              		.cfi_startproc
 517              		@ args = 4, pretend = 0, frame = 0
 518              		@ frame_needed = 0, uses_anonymous_args = 0
 519              		@ link register save eliminated.
 520              	.LVL44:
 521 0000 30B4     		push	{r4, r5}
 522              		.cfi_def_cfa_offset 8
 523              		.cfi_offset 4, -8
 524              		.cfi_offset 5, -4
 525              		.loc 1 276 0
 526 0002 029C     		ldr	r4, [sp, #8]
 527              		.loc 1 283 0
 528 0004 0462     		str	r4, [r0, #32]
 529              		.loc 1 281 0
 530 0006 8D18     		adds	r5, r1, r2
 531 0008 0561     		str	r5, [r0, #16]
 532              		.loc 1 278 0
 533 000a 4060     		str	r0, [r0, #4]
 534 000c 0060     		str	r0, [r0]
 535              		.loc 1 279 0
 536 000e 8260     		str	r2, [r0, #8]
 537              		.loc 1 280 0
 538 0010 4161     		str	r1, [r0, #20]
 539 0012 8161     		str	r1, [r0, #24]
 540 0014 C160     		str	r1, [r0, #12]
 541              		.loc 1 282 0
 542 0016 C361     		str	r3, [r0, #28]
 543              		.loc 1 284 0
 544 0018 30BC     		pop	{r4, r5}
 545              	.LVL45:
 546 001a 7047     		bx	lr
 547              		.cfi_endproc
 548              	.LFE13:
 549              		.size	chOQInit, .-chOQInit
 550 001c AFF30080 		.section	.text.chOQResetI,"ax",%progbits
 551              		.align	2
 552              		.p2align 4,,15
 553              		.global	chOQResetI
 554              		.thumb
 555              		.thumb_func
 556              		.type	chOQResetI, %function
 557              	chOQResetI:
 558              	.LFB14:
 559              		.loc 1 297 0
 560              		.cfi_startproc
 561              		@ args = 0, pretend = 0, frame = 0
 562              		@ frame_needed = 0, uses_anonymous_args = 0
 563              	.LVL46:
 564 0000 38B5     		push	{r3, r4, r5, lr}
 565              		.cfi_def_cfa_offset 16
 566              		.cfi_offset 3, -16
 567              		.cfi_offset 4, -12
 568              		.cfi_offset 5, -8
 569              		.cfi_offset 14, -4
ARM GAS  C:\Users\jsyoon\AppData\Local\Temp\ccJfYAGa.s 			page 11


 570              		.loc 1 302 0
 571 0002 0269     		ldr	r2, [r0, #16]
 572              		.loc 1 301 0
 573 0004 C368     		ldr	r3, [r0, #12]
 574              		.loc 1 297 0
 575 0006 0446     		mov	r4, r0
 576              		.loc 1 303 0
 577 0008 0068     		ldr	r0, [r0]
 578              	.LVL47:
 579              		.loc 1 301 0
 580 000a 6361     		str	r3, [r4, #20]
 581              		.loc 1 302 0
 582 000c D21A     		subs	r2, r2, r3
 583              		.loc 1 303 0
 584 000e A042     		cmp	r0, r4
 585              		.loc 1 301 0
 586 0010 A361     		str	r3, [r4, #24]
 587              		.loc 1 302 0
 588 0012 A260     		str	r2, [r4, #8]
 589              		.loc 1 303 0
 590 0014 0AD0     		beq	.L45
 591              		.loc 1 304 0
 592 0016 6FF00105 		mvn	r5, #1
 593              	.L48:
 594              	.LVL48:
 595              	.LBB22:
 596              	.LBB23:
 597              		.loc 2 62 0
 598 001a 0368     		ldr	r3, [r0]
 599 001c 2360     		str	r3, [r4]
 600 001e 5C60     		str	r4, [r3, #4]
 601              	.LBE23:
 602              	.LBE22:
 603              		.loc 1 304 0
 604 0020 FFF7FEFF 		bl	chSchReadyI
 605              	.LVL49:
 606 0024 4562     		str	r5, [r0, #36]
 607              		.loc 1 303 0
 608 0026 2068     		ldr	r0, [r4]
 609 0028 A042     		cmp	r0, r4
 610 002a F6D1     		bne	.L48
 611              	.LVL50:
 612              	.L45:
 613 002c 38BD     		pop	{r3, r4, r5, pc}
 614              		.cfi_endproc
 615              	.LFE14:
 616              		.size	chOQResetI, .-chOQResetI
 617 002e 00BF     		.section	.text.chOQPutTimeout,"ax",%progbits
 618              		.align	2
 619              		.p2align 4,,15
 620              		.global	chOQPutTimeout
 621              		.thumb
 622              		.thumb_func
 623              		.type	chOQPutTimeout, %function
 624              	chOQPutTimeout:
 625              	.LFB15:
 626              		.loc 1 329 0
ARM GAS  C:\Users\jsyoon\AppData\Local\Temp\ccJfYAGa.s 			page 12


 627              		.cfi_startproc
 628              		@ args = 0, pretend = 0, frame = 0
 629              		@ frame_needed = 0, uses_anonymous_args = 0
 630              	.LVL51:
 631 0000 70B5     		push	{r4, r5, r6, lr}
 632              		.cfi_def_cfa_offset 16
 633              		.cfi_offset 4, -16
 634              		.cfi_offset 5, -12
 635              		.cfi_offset 6, -8
 636              		.cfi_offset 14, -4
 637              		.loc 1 329 0
 638 0002 0446     		mov	r4, r0
 639 0004 0E46     		mov	r6, r1
 640 0006 1546     		mov	r5, r2
 641              		.loc 1 331 0
 642              	@ 331 "ChibiOS_2.6.6/os/kernel/src/chqueues.c" 1
 643 0008 72B6     		cpsid   i
 644              	@ 0 "" 2
 645              		.loc 1 332 0
 646              		.thumb
 647 000a 03E0     		b	.L50
 648              	.LVL52:
 649              	.L53:
 650              	.LBB24:
 651              		.loc 1 335 0
 652 000c FFF7FEFF 		bl	qwait
 653              	.LVL53:
 654 0010 0028     		cmp	r0, #0
 655 0012 17DB     		blt	.L59
 656              	.LVL54:
 657              	.L50:
 658              	.LBE24:
 659              		.loc 1 332 0 discriminator 1
 660 0014 A368     		ldr	r3, [r4, #8]
 661              	.LBB25:
 662              		.loc 1 335 0 discriminator 1
 663 0016 2046     		mov	r0, r4
 664 0018 2946     		mov	r1, r5
 665              	.LBE25:
 666              		.loc 1 332 0 discriminator 1
 667 001a 002B     		cmp	r3, #0
 668 001c F6D0     		beq	.L53
 669              	.LVL55:
 670              		.loc 1 342 0
 671 001e 6269     		ldr	r2, [r4, #20]
 672              		.loc 1 341 0
 673 0020 013B     		subs	r3, r3, #1
 674              		.loc 1 342 0
 675 0022 511C     		adds	r1, r2, #1
 676              	.LVL56:
 677 0024 6161     		str	r1, [r4, #20]
 678              		.loc 1 341 0
 679 0026 A360     		str	r3, [r4, #8]
 680              		.loc 1 342 0
 681 0028 1670     		strb	r6, [r2]
 682              		.loc 1 343 0
 683 002a 2369     		ldr	r3, [r4, #16]
ARM GAS  C:\Users\jsyoon\AppData\Local\Temp\ccJfYAGa.s 			page 13


 684 002c 6269     		ldr	r2, [r4, #20]
 685 002e 9A42     		cmp	r2, r3
 686              		.loc 1 344 0
 687 0030 24BF     		itt	cs
 688 0032 E368     		ldrcs	r3, [r4, #12]
 689 0034 6361     		strcs	r3, [r4, #20]
 690              		.loc 1 346 0
 691 0036 E369     		ldr	r3, [r4, #28]
 692 0038 0BB1     		cbz	r3, .L55
 693              		.loc 1 347 0
 694 003a 2046     		mov	r0, r4
 695              	.LVL57:
 696 003c 9847     		blx	r3
 697              	.LVL58:
 698              	.L55:
 699              		.loc 1 349 0
 700              	@ 349 "ChibiOS_2.6.6/os/kernel/src/chqueues.c" 1
 701 003e 62B6     		cpsie   i
 702              	@ 0 "" 2
 703              		.loc 1 350 0
 704              		.thumb
 705 0040 0020     		movs	r0, #0
 706              		.loc 1 351 0
 707 0042 70BD     		pop	{r4, r5, r6, pc}
 708              	.LVL59:
 709              	.L59:
 710              	.LBB26:
 711              		.loc 1 336 0
 712              	@ 336 "ChibiOS_2.6.6/os/kernel/src/chqueues.c" 1
 713 0044 62B6     		cpsie   i
 714              	@ 0 "" 2
 715              		.loc 1 337 0
 716              		.thumb
 717 0046 70BD     		pop	{r4, r5, r6, pc}
 718              	.LBE26:
 719              		.cfi_endproc
 720              	.LFE15:
 721              		.size	chOQPutTimeout, .-chOQPutTimeout
 722 0048 AFF30080 		.section	.text.chOQGetI,"ax",%progbits
 722      AFF30080 
 723              		.align	2
 724              		.p2align 4,,15
 725              		.global	chOQGetI
 726              		.thumb
 727              		.thumb_func
 728              		.type	chOQGetI, %function
 729              	chOQGetI:
 730              	.LFB16:
 731              		.loc 1 363 0
 732              		.cfi_startproc
 733              		@ args = 0, pretend = 0, frame = 0
 734              		@ frame_needed = 0, uses_anonymous_args = 0
 735              	.LVL60:
 736              		.loc 1 368 0
 737 0000 4169     		ldr	r1, [r0, #20]
 738 0002 8269     		ldr	r2, [r0, #24]
 739 0004 9142     		cmp	r1, r2
ARM GAS  C:\Users\jsyoon\AppData\Local\Temp\ccJfYAGa.s 			page 14


 740              		.loc 1 363 0
 741 0006 10B5     		push	{r4, lr}
 742              		.cfi_def_cfa_offset 8
 743              		.cfi_offset 4, -8
 744              		.cfi_offset 14, -4
 745              		.loc 1 363 0
 746 0008 0346     		mov	r3, r0
 747              		.loc 1 368 0
 748 000a 8168     		ldr	r1, [r0, #8]
 749 000c 16D0     		beq	.L69
 750              	.L63:
 751              		.loc 1 373 0
 752 000e 1869     		ldr	r0, [r3, #16]
 753              	.LVL61:
 754              		.loc 1 371 0
 755 0010 4C1C     		adds	r4, r1, #1
 756              		.loc 1 372 0
 757 0012 511C     		adds	r1, r2, #1
 758              		.loc 1 371 0
 759 0014 9C60     		str	r4, [r3, #8]
 760              		.loc 1 372 0
 761 0016 9961     		str	r1, [r3, #24]
 762              		.loc 1 373 0
 763 0018 8142     		cmp	r1, r0
 764              		.loc 1 372 0
 765 001a 1478     		ldrb	r4, [r2]	@ zero_extendqisi2
 766              	.LVL62:
 767              		.loc 1 373 0
 768 001c 0BD2     		bcs	.L65
 769              	.LVL63:
 770              	.L66:
 771              		.loc 1 376 0
 772 001e 1868     		ldr	r0, [r3]
 773 0020 9842     		cmp	r0, r3
 774 0022 06D0     		beq	.L64
 775              	.LVL64:
 776              	.LBB27:
 777              	.LBB28:
 778              		.loc 2 62 0
 779 0024 0268     		ldr	r2, [r0]
 780 0026 1A60     		str	r2, [r3]
 781 0028 5360     		str	r3, [r2, #4]
 782              	.LBE28:
 783              	.LBE27:
 784              		.loc 1 377 0
 785 002a FFF7FEFF 		bl	chSchReadyI
 786              	.LVL65:
 787 002e 0023     		movs	r3, #0
 788 0030 4362     		str	r3, [r0, #36]
 789              	.LVL66:
 790              	.L64:
 791              		.loc 1 379 0
 792 0032 2046     		mov	r0, r4
 793 0034 10BD     		pop	{r4, pc}
 794              	.LVL67:
 795              	.L65:
 796              		.loc 1 374 0
ARM GAS  C:\Users\jsyoon\AppData\Local\Temp\ccJfYAGa.s 			page 15


 797 0036 DA68     		ldr	r2, [r3, #12]
 798              	.LVL68:
 799 0038 9A61     		str	r2, [r3, #24]
 800              	.LVL69:
 801 003a F0E7     		b	.L66
 802              	.LVL70:
 803              	.L69:
 804              		.loc 1 368 0 discriminator 1
 805 003c 0029     		cmp	r1, #0
 806 003e E6D0     		beq	.L63
 807              		.loc 1 369 0
 808 0040 6FF00200 		mvn	r0, #2
 809              	.LVL71:
 810 0044 10BD     		pop	{r4, pc}
 811              		.cfi_endproc
 812              	.LFE16:
 813              		.size	chOQGetI, .-chOQGetI
 814 0046 00BFAFF3 		.section	.text.chOQWriteTimeout,"ax",%progbits
 814      0080AFF3 
 814      0080
 815              		.align	2
 816              		.p2align 4,,15
 817              		.global	chOQWriteTimeout
 818              		.thumb
 819              		.thumb_func
 820              		.type	chOQWriteTimeout, %function
 821              	chOQWriteTimeout:
 822              	.LFB17:
 823              		.loc 1 407 0
 824              		.cfi_startproc
 825              		@ args = 0, pretend = 0, frame = 0
 826              		@ frame_needed = 0, uses_anonymous_args = 0
 827              	.LVL72:
 828 0000 2DE9F84F 		push	{r3, r4, r5, r6, r7, r8, r9, r10, fp, lr}
 829              		.cfi_def_cfa_offset 40
 830              		.cfi_offset 3, -40
 831              		.cfi_offset 4, -36
 832              		.cfi_offset 5, -32
 833              		.cfi_offset 6, -28
 834              		.cfi_offset 7, -24
 835              		.cfi_offset 8, -20
 836              		.cfi_offset 9, -16
 837              		.cfi_offset 10, -12
 838              		.cfi_offset 11, -8
 839              		.cfi_offset 14, -4
 840              		.loc 1 407 0
 841 0004 0446     		mov	r4, r0
 842 0006 0E46     		mov	r6, r1
 843 0008 1746     		mov	r7, r2
 844 000a 9A46     		mov	r10, r3
 845              		.loc 1 408 0
 846 000c D0F81C90 		ldr	r9, [r0, #28]
 847              	.LVL73:
 848              		.loc 1 413 0
 849              	@ 413 "ChibiOS_2.6.6/os/kernel/src/chqueues.c" 1
 850 0010 72B6     		cpsid   i
 851              	@ 0 "" 2
ARM GAS  C:\Users\jsyoon\AppData\Local\Temp\ccJfYAGa.s 			page 16


 852              		.loc 1 409 0
 853              		.thumb
 854 0012 4FF00008 		mov	r8, #0
 855              	.LVL74:
 856              	.L71:
 857              		.loc 1 415 0 discriminator 1
 858 0016 A568     		ldr	r5, [r4, #8]
 859              		.loc 1 422 0 discriminator 1
 860 0018 06F1010B 		add	fp, r6, #1
 861              	.LVL75:
 862              		.loc 1 427 0 discriminator 1
 863 001c 2046     		mov	r0, r4
 864              		.loc 1 421 0 discriminator 1
 865 001e 6B1E     		subs	r3, r5, #1
 866              		.loc 1 415 0 discriminator 1
 867 0020 BDB1     		cbz	r5, .L74
 868              	.LVL76:
 869              		.loc 1 422 0
 870 0022 6269     		ldr	r2, [r4, #20]
 871              		.loc 1 421 0
 872 0024 A360     		str	r3, [r4, #8]
 873              		.loc 1 422 0
 874 0026 531C     		adds	r3, r2, #1
 875 0028 6361     		str	r3, [r4, #20]
 876 002a 3378     		ldrb	r3, [r6]	@ zero_extendqisi2
 877 002c 1370     		strb	r3, [r2]
 878              		.loc 1 423 0
 879 002e 2369     		ldr	r3, [r4, #16]
 880 0030 6269     		ldr	r2, [r4, #20]
 881 0032 9A42     		cmp	r2, r3
 882              		.loc 1 424 0
 883 0034 24BF     		itt	cs
 884 0036 E368     		ldrcs	r3, [r4, #12]
 885 0038 6361     		strcs	r3, [r4, #20]
 886              		.loc 1 426 0
 887 003a B9F1000F 		cmp	r9, #0
 888 003e 00D0     		beq	.L76
 889              		.loc 1 427 0
 890 0040 C847     		blx	r9
 891              	.LVL77:
 892              	.L76:
 893              		.loc 1 429 0
 894              	@ 429 "ChibiOS_2.6.6/os/kernel/src/chqueues.c" 1
 895 0042 62B6     		cpsie   i
 896              	@ 0 "" 2
 897              		.loc 1 431 0
 898              		.thumb
 899 0044 013F     		subs	r7, r7, #1
 900              	.LVL78:
 901              		.loc 1 430 0
 902 0046 08F10108 		add	r8, r8, #1
 903              	.LVL79:
 904              		.loc 1 431 0
 905 004a 09D0     		beq	.L73
 906              		.loc 1 433 0
 907              	@ 433 "ChibiOS_2.6.6/os/kernel/src/chqueues.c" 1
 908 004c 72B6     		cpsid   i
ARM GAS  C:\Users\jsyoon\AppData\Local\Temp\ccJfYAGa.s 			page 17


 909              	@ 0 "" 2
 910              		.loc 1 422 0
 911              		.thumb
 912 004e 5E46     		mov	r6, fp
 913              		.loc 1 434 0
 914 0050 E1E7     		b	.L71
 915              	.LVL80:
 916              	.L74:
 917              		.loc 1 416 0
 918 0052 2046     		mov	r0, r4
 919              	.LVL81:
 920 0054 5146     		mov	r1, r10
 921 0056 FFF7FEFF 		bl	qwait
 922              	.LVL82:
 923 005a 0028     		cmp	r0, #0
 924 005c DBD0     		beq	.L71
 925              		.loc 1 417 0
 926              	@ 417 "ChibiOS_2.6.6/os/kernel/src/chqueues.c" 1
 927 005e 62B6     		cpsie   i
 928              	@ 0 "" 2
 929              	.LVL83:
 930              		.thumb
 931              	.L73:
 932              		.loc 1 435 0
 933 0060 4046     		mov	r0, r8
 934 0062 BDE8F88F 		pop	{r3, r4, r5, r6, r7, r8, r9, r10, fp, pc}
 935              		.cfi_endproc
 936              	.LFE17:
 937              		.size	chOQWriteTimeout, .-chOQWriteTimeout
 938 0066 00BFAFF3 		.text
 938      0080AFF3 
 938      0080
 939              	.Letext0:
 940              		.file 3 "c:\\crosstools\\gcc-arm-embedded\\4.8_2014q2\\lib\\gcc\\arm-none-eabi\\4.8.4\\include\\st
 941              		.file 4 "c:\\crosstools\\gcc-arm-embedded\\4.8_2014q2\\arm-none-eabi\\include\\machine\\_default_t
 942              		.file 5 "c:\\crosstools\\gcc-arm-embedded\\4.8_2014q2\\arm-none-eabi\\include\\stdint.h"
 943              		.file 6 "ChibiOS_2.6.6/os/ports/GCC/ARMCMx/chtypes.h"
 944              		.file 7 "ChibiOS_2.6.6/os/kernel/include/chlists.h"
 945              		.file 8 "ChibiOS_2.6.6/os/kernel/include/chthreads.h"
 946              		.file 9 "ChibiOS_2.6.6/os/ports/GCC/ARMCMx/chcore_v7m.h"
 947              		.file 10 "ChibiOS_2.6.6/os/kernel/include/chschd.h"
 948              		.file 11 "ChibiOS_2.6.6/os/kernel/include/chmtx.h"
 949              		.file 12 "ChibiOS_2.6.6/os/kernel/include/chqueues.h"
 950              		.section	.debug_info,"",%progbits
 951              	.Ldebug_info0:
 952 0000 120B0000 		.4byte	0xb12
 953 0004 0400     		.2byte	0x4
 954 0006 00000000 		.4byte	.Ldebug_abbrev0
 955 000a 04       		.byte	0x4
 956 000b 01       		.uleb128 0x1
 957 000c 23010000 		.4byte	.LASF95
 958 0010 01       		.byte	0x1
 959 0011 B3020000 		.4byte	.LASF96
 960 0015 D8000000 		.4byte	.LASF97
 961 0019 50000000 		.4byte	.Ldebug_ranges0+0x50
 962 001d 00000000 		.4byte	0
 963 0021 00000000 		.4byte	.Ldebug_line0
ARM GAS  C:\Users\jsyoon\AppData\Local\Temp\ccJfYAGa.s 			page 18


 964 0025 02       		.uleb128 0x2
 965 0026 04       		.byte	0x4
 966 0027 05       		.byte	0x5
 967 0028 696E7400 		.ascii	"int\000"
 968 002c 03       		.uleb128 0x3
 969 002d 21000000 		.4byte	.LASF2
 970 0031 03       		.byte	0x3
 971 0032 D4       		.byte	0xd4
 972 0033 37000000 		.4byte	0x37
 973 0037 04       		.uleb128 0x4
 974 0038 04       		.byte	0x4
 975 0039 07       		.byte	0x7
 976 003a 89020000 		.4byte	.LASF0
 977 003e 04       		.uleb128 0x4
 978 003f 01       		.byte	0x1
 979 0040 06       		.byte	0x6
 980 0041 A5000000 		.4byte	.LASF1
 981 0045 03       		.uleb128 0x3
 982 0046 44000000 		.4byte	.LASF3
 983 004a 04       		.byte	0x4
 984 004b 1C       		.byte	0x1c
 985 004c 50000000 		.4byte	0x50
 986 0050 04       		.uleb128 0x4
 987 0051 01       		.byte	0x1
 988 0052 08       		.byte	0x8
 989 0053 D3030000 		.4byte	.LASF4
 990 0057 04       		.uleb128 0x4
 991 0058 02       		.byte	0x2
 992 0059 05       		.byte	0x5
 993 005a EB030000 		.4byte	.LASF5
 994 005e 04       		.uleb128 0x4
 995 005f 02       		.byte	0x2
 996 0060 07       		.byte	0x7
 997 0061 E7020000 		.4byte	.LASF6
 998 0065 03       		.uleb128 0x3
 999 0066 85040000 		.4byte	.LASF7
 1000 006a 04       		.byte	0x4
 1001 006b 37       		.byte	0x37
 1002 006c 70000000 		.4byte	0x70
 1003 0070 04       		.uleb128 0x4
 1004 0071 04       		.byte	0x4
 1005 0072 05       		.byte	0x5
 1006 0073 08010000 		.4byte	.LASF8
 1007 0077 03       		.uleb128 0x3
 1008 0078 58020000 		.4byte	.LASF9
 1009 007c 04       		.byte	0x4
 1010 007d 38       		.byte	0x38
 1011 007e 82000000 		.4byte	0x82
 1012 0082 04       		.uleb128 0x4
 1013 0083 04       		.byte	0x4
 1014 0084 07       		.byte	0x7
 1015 0085 A1020000 		.4byte	.LASF10
 1016 0089 04       		.uleb128 0x4
 1017 008a 08       		.byte	0x8
 1018 008b 05       		.byte	0x5
 1019 008c 97000000 		.4byte	.LASF11
 1020 0090 04       		.uleb128 0x4
ARM GAS  C:\Users\jsyoon\AppData\Local\Temp\ccJfYAGa.s 			page 19


 1021 0091 08       		.byte	0x8
 1022 0092 07       		.byte	0x7
 1023 0093 5E000000 		.4byte	.LASF12
 1024 0097 03       		.uleb128 0x3
 1025 0098 D9040000 		.4byte	.LASF13
 1026 009c 05       		.byte	0x5
 1027 009d 2A       		.byte	0x2a
 1028 009e 45000000 		.4byte	0x45
 1029 00a2 03       		.uleb128 0x3
 1030 00a3 CB030000 		.4byte	.LASF14
 1031 00a7 05       		.byte	0x5
 1032 00a8 41       		.byte	0x41
 1033 00a9 65000000 		.4byte	0x65
 1034 00ad 03       		.uleb128 0x3
 1035 00ae 3B040000 		.4byte	.LASF15
 1036 00b2 05       		.byte	0x5
 1037 00b3 42       		.byte	0x42
 1038 00b4 77000000 		.4byte	0x77
 1039 00b8 03       		.uleb128 0x3
 1040 00b9 B9000000 		.4byte	.LASF16
 1041 00bd 06       		.byte	0x6
 1042 00be 2B       		.byte	0x2b
 1043 00bf C3000000 		.4byte	0xc3
 1044 00c3 04       		.uleb128 0x4
 1045 00c4 01       		.byte	0x1
 1046 00c5 02       		.byte	0x2
 1047 00c6 C5030000 		.4byte	.LASF17
 1048 00ca 03       		.uleb128 0x3
 1049 00cb 08030000 		.4byte	.LASF18
 1050 00cf 06       		.byte	0x6
 1051 00d0 2C       		.byte	0x2c
 1052 00d1 97000000 		.4byte	0x97
 1053 00d5 03       		.uleb128 0x3
 1054 00d6 11010000 		.4byte	.LASF19
 1055 00da 06       		.byte	0x6
 1056 00db 2D       		.byte	0x2d
 1057 00dc 97000000 		.4byte	0x97
 1058 00e0 03       		.uleb128 0x3
 1059 00e1 9C030000 		.4byte	.LASF20
 1060 00e5 06       		.byte	0x6
 1061 00e6 2E       		.byte	0x2e
 1062 00e7 97000000 		.4byte	0x97
 1063 00eb 03       		.uleb128 0x3
 1064 00ec C8000000 		.4byte	.LASF21
 1065 00f0 06       		.byte	0x6
 1066 00f1 2F       		.byte	0x2f
 1067 00f2 97000000 		.4byte	0x97
 1068 00f6 03       		.uleb128 0x3
 1069 00f7 B5030000 		.4byte	.LASF22
 1070 00fb 06       		.byte	0x6
 1071 00fc 30       		.byte	0x30
 1072 00fd AD000000 		.4byte	0xad
 1073 0101 03       		.uleb128 0x3
 1074 0102 FA020000 		.4byte	.LASF23
 1075 0106 06       		.byte	0x6
 1076 0107 31       		.byte	0x31
 1077 0108 A2000000 		.4byte	0xa2
ARM GAS  C:\Users\jsyoon\AppData\Local\Temp\ccJfYAGa.s 			page 20


 1078 010c 03       		.uleb128 0x3
 1079 010d 1C030000 		.4byte	.LASF24
 1080 0111 06       		.byte	0x6
 1081 0112 33       		.byte	0x33
 1082 0113 AD000000 		.4byte	0xad
 1083 0117 03       		.uleb128 0x3
 1084 0118 70040000 		.4byte	.LASF25
 1085 011c 06       		.byte	0x6
 1086 011d 35       		.byte	0x35
 1087 011e AD000000 		.4byte	0xad
 1088 0122 03       		.uleb128 0x3
 1089 0123 29040000 		.4byte	.LASF26
 1090 0127 07       		.byte	0x7
 1091 0128 2A       		.byte	0x2a
 1092 0129 2D010000 		.4byte	0x12d
 1093 012d 05       		.uleb128 0x5
 1094 012e 29040000 		.4byte	.LASF26
 1095 0132 48       		.byte	0x48
 1096 0133 08       		.byte	0x8
 1097 0134 5E       		.byte	0x5e
 1098 0135 2A020000 		.4byte	0x22a
 1099 0139 06       		.uleb128 0x6
 1100 013a 15040000 		.4byte	.LASF27
 1101 013e 08       		.byte	0x8
 1102 013f 5F       		.byte	0x5f
 1103 0140 4B020000 		.4byte	0x24b
 1104 0144 00       		.byte	0
 1105 0145 06       		.uleb128 0x6
 1106 0146 AE030000 		.4byte	.LASF28
 1107 014a 08       		.byte	0x8
 1108 014b 61       		.byte	0x61
 1109 014c 4B020000 		.4byte	0x24b
 1110 0150 04       		.byte	0x4
 1111 0151 06       		.uleb128 0x6
 1112 0152 86000000 		.4byte	.LASF29
 1113 0156 08       		.byte	0x8
 1114 0157 63       		.byte	0x63
 1115 0158 F6000000 		.4byte	0xf6
 1116 015c 08       		.byte	0x8
 1117 015d 06       		.uleb128 0x6
 1118 015e 13050000 		.4byte	.LASF30
 1119 0162 08       		.byte	0x8
 1120 0163 64       		.byte	0x64
 1121 0164 D5030000 		.4byte	0x3d5
 1122 0168 0C       		.byte	0xc
 1123 0169 06       		.uleb128 0x6
 1124 016a 47020000 		.4byte	.LASF31
 1125 016e 08       		.byte	0x8
 1126 016f 66       		.byte	0x66
 1127 0170 4B020000 		.4byte	0x24b
 1128 0174 10       		.byte	0x10
 1129 0175 06       		.uleb128 0x6
 1130 0176 62030000 		.4byte	.LASF32
 1131 017a 08       		.byte	0x8
 1132 017b 67       		.byte	0x67
 1133 017c 4B020000 		.4byte	0x24b
 1134 0180 14       		.byte	0x14
ARM GAS  C:\Users\jsyoon\AppData\Local\Temp\ccJfYAGa.s 			page 21


 1135 0181 06       		.uleb128 0x6
 1136 0182 E8040000 		.4byte	.LASF33
 1137 0186 08       		.byte	0x8
 1138 0187 6E       		.byte	0x6e
 1139 0188 D5040000 		.4byte	0x4d5
 1140 018c 18       		.byte	0x18
 1141 018d 06       		.uleb128 0x6
 1142 018e F5030000 		.4byte	.LASF34
 1143 0192 08       		.byte	0x8
 1144 0193 79       		.byte	0x79
 1145 0194 D5000000 		.4byte	0xd5
 1146 0198 1C       		.byte	0x1c
 1147 0199 06       		.uleb128 0x6
 1148 019a 21040000 		.4byte	.LASF35
 1149 019e 08       		.byte	0x8
 1150 019f 7D       		.byte	0x7d
 1151 01a0 CA000000 		.4byte	0xca
 1152 01a4 1D       		.byte	0x1d
 1153 01a5 06       		.uleb128 0x6
 1154 01a6 B9040000 		.4byte	.LASF36
 1155 01aa 08       		.byte	0x8
 1156 01ab 82       		.byte	0x82
 1157 01ac E0000000 		.4byte	0xe0
 1158 01b0 1E       		.byte	0x1e
 1159 01b1 06       		.uleb128 0x6
 1160 01b2 FD030000 		.4byte	.LASF37
 1161 01b6 08       		.byte	0x8
 1162 01b7 88       		.byte	0x88
 1163 01b8 EB000000 		.4byte	0xeb
 1164 01bc 1F       		.byte	0x1f
 1165 01bd 06       		.uleb128 0x6
 1166 01be 9A040000 		.4byte	.LASF38
 1167 01c2 08       		.byte	0x8
 1168 01c3 8F       		.byte	0x8f
 1169 01c4 FD030000 		.4byte	0x3fd
 1170 01c8 20       		.byte	0x20
 1171 01c9 07       		.uleb128 0x7
 1172 01ca 705F7500 		.ascii	"p_u\000"
 1173 01ce 08       		.byte	0x8
 1174 01cf B4       		.byte	0xb4
 1175 01d0 A0040000 		.4byte	0x4a0
 1176 01d4 24       		.byte	0x24
 1177 01d5 06       		.uleb128 0x6
 1178 01d6 19050000 		.4byte	.LASF39
 1179 01da 08       		.byte	0x8
 1180 01db B9       		.byte	0xb9
 1181 01dc 71020000 		.4byte	0x271
 1182 01e0 28       		.byte	0x28
 1183 01e1 06       		.uleb128 0x6
 1184 01e2 A8040000 		.4byte	.LASF40
 1185 01e6 08       		.byte	0x8
 1186 01e7 BF       		.byte	0xbf
 1187 01e8 51020000 		.4byte	0x251
 1188 01ec 2C       		.byte	0x2c
 1189 01ed 06       		.uleb128 0x6
 1190 01ee 09000000 		.4byte	.LASF41
 1191 01f2 08       		.byte	0x8
ARM GAS  C:\Users\jsyoon\AppData\Local\Temp\ccJfYAGa.s 			page 22


 1192 01f3 C3       		.byte	0xc3
 1193 01f4 01010000 		.4byte	0x101
 1194 01f8 34       		.byte	0x34
 1195 01f9 06       		.uleb128 0x6
 1196 01fa 30040000 		.4byte	.LASF42
 1197 01fe 08       		.byte	0x8
 1198 01ff C9       		.byte	0xc9
 1199 0200 0C010000 		.4byte	0x10c
 1200 0204 38       		.byte	0x38
 1201 0205 06       		.uleb128 0x6
 1202 0206 E1030000 		.4byte	.LASF43
 1203 020a 08       		.byte	0x8
 1204 020b D0       		.byte	0xd0
 1205 020c E7040000 		.4byte	0x4e7
 1206 0210 3C       		.byte	0x3c
 1207 0211 06       		.uleb128 0x6
 1208 0212 7A040000 		.4byte	.LASF44
 1209 0216 08       		.byte	0x8
 1210 0217 D4       		.byte	0xd4
 1211 0218 F6000000 		.4byte	0xf6
 1212 021c 40       		.byte	0x40
 1213 021d 06       		.uleb128 0x6
 1214 021e B1000000 		.4byte	.LASF45
 1215 0222 08       		.byte	0x8
 1216 0223 DA       		.byte	0xda
 1217 0224 87020000 		.4byte	0x287
 1218 0228 44       		.byte	0x44
 1219 0229 00       		.byte	0
 1220 022a 08       		.uleb128 0x8
 1221 022b 08       		.byte	0x8
 1222 022c 07       		.byte	0x7
 1223 022d 61       		.byte	0x61
 1224 022e 4B020000 		.4byte	0x24b
 1225 0232 06       		.uleb128 0x6
 1226 0233 15040000 		.4byte	.LASF27
 1227 0237 07       		.byte	0x7
 1228 0238 62       		.byte	0x62
 1229 0239 4B020000 		.4byte	0x24b
 1230 023d 00       		.byte	0
 1231 023e 06       		.uleb128 0x6
 1232 023f AE030000 		.4byte	.LASF28
 1233 0243 07       		.byte	0x7
 1234 0244 64       		.byte	0x64
 1235 0245 4B020000 		.4byte	0x24b
 1236 0249 04       		.byte	0x4
 1237 024a 00       		.byte	0
 1238 024b 09       		.uleb128 0x9
 1239 024c 04       		.byte	0x4
 1240 024d 22010000 		.4byte	0x122
 1241 0251 03       		.uleb128 0x3
 1242 0252 78030000 		.4byte	.LASF46
 1243 0256 07       		.byte	0x7
 1244 0257 66       		.byte	0x66
 1245 0258 2A020000 		.4byte	0x22a
 1246 025c 08       		.uleb128 0x8
 1247 025d 04       		.byte	0x4
 1248 025e 07       		.byte	0x7
ARM GAS  C:\Users\jsyoon\AppData\Local\Temp\ccJfYAGa.s 			page 23


 1249 025f 6B       		.byte	0x6b
 1250 0260 71020000 		.4byte	0x271
 1251 0264 06       		.uleb128 0x6
 1252 0265 15040000 		.4byte	.LASF27
 1253 0269 07       		.byte	0x7
 1254 026a 6D       		.byte	0x6d
 1255 026b 4B020000 		.4byte	0x24b
 1256 026f 00       		.byte	0
 1257 0270 00       		.byte	0
 1258 0271 03       		.uleb128 0x3
 1259 0272 10030000 		.4byte	.LASF47
 1260 0276 07       		.byte	0x7
 1261 0277 70       		.byte	0x70
 1262 0278 5C020000 		.4byte	0x25c
 1263 027c 03       		.uleb128 0x3
 1264 027d 63020000 		.4byte	.LASF48
 1265 0281 09       		.byte	0x9
 1266 0282 E5       		.byte	0xe5
 1267 0283 87020000 		.4byte	0x287
 1268 0287 0A       		.uleb128 0xa
 1269 0288 04       		.byte	0x4
 1270 0289 0B       		.uleb128 0xb
 1271 028a A1040000 		.4byte	.LASF49
 1272 028e 64       		.byte	0x64
 1273 028f 09       		.byte	0x9
 1274 0290 0C01     		.2byte	0x10c
 1275 0292 D5030000 		.4byte	0x3d5
 1276 0296 0C       		.uleb128 0xc
 1277 0297 73313600 		.ascii	"s16\000"
 1278 029b 09       		.byte	0x9
 1279 029c 0E01     		.2byte	0x10e
 1280 029e 7C020000 		.4byte	0x27c
 1281 02a2 00       		.byte	0
 1282 02a3 0C       		.uleb128 0xc
 1283 02a4 73313700 		.ascii	"s17\000"
 1284 02a8 09       		.byte	0x9
 1285 02a9 0F01     		.2byte	0x10f
 1286 02ab 7C020000 		.4byte	0x27c
 1287 02af 04       		.byte	0x4
 1288 02b0 0C       		.uleb128 0xc
 1289 02b1 73313800 		.ascii	"s18\000"
 1290 02b5 09       		.byte	0x9
 1291 02b6 1001     		.2byte	0x110
 1292 02b8 7C020000 		.4byte	0x27c
 1293 02bc 08       		.byte	0x8
 1294 02bd 0C       		.uleb128 0xc
 1295 02be 73313900 		.ascii	"s19\000"
 1296 02c2 09       		.byte	0x9
 1297 02c3 1101     		.2byte	0x111
 1298 02c5 7C020000 		.4byte	0x27c
 1299 02c9 0C       		.byte	0xc
 1300 02ca 0C       		.uleb128 0xc
 1301 02cb 73323000 		.ascii	"s20\000"
 1302 02cf 09       		.byte	0x9
 1303 02d0 1201     		.2byte	0x112
 1304 02d2 7C020000 		.4byte	0x27c
 1305 02d6 10       		.byte	0x10
ARM GAS  C:\Users\jsyoon\AppData\Local\Temp\ccJfYAGa.s 			page 24


 1306 02d7 0C       		.uleb128 0xc
 1307 02d8 73323100 		.ascii	"s21\000"
 1308 02dc 09       		.byte	0x9
 1309 02dd 1301     		.2byte	0x113
 1310 02df 7C020000 		.4byte	0x27c
 1311 02e3 14       		.byte	0x14
 1312 02e4 0C       		.uleb128 0xc
 1313 02e5 73323200 		.ascii	"s22\000"
 1314 02e9 09       		.byte	0x9
 1315 02ea 1401     		.2byte	0x114
 1316 02ec 7C020000 		.4byte	0x27c
 1317 02f0 18       		.byte	0x18
 1318 02f1 0C       		.uleb128 0xc
 1319 02f2 73323300 		.ascii	"s23\000"
 1320 02f6 09       		.byte	0x9
 1321 02f7 1501     		.2byte	0x115
 1322 02f9 7C020000 		.4byte	0x27c
 1323 02fd 1C       		.byte	0x1c
 1324 02fe 0C       		.uleb128 0xc
 1325 02ff 73323400 		.ascii	"s24\000"
 1326 0303 09       		.byte	0x9
 1327 0304 1601     		.2byte	0x116
 1328 0306 7C020000 		.4byte	0x27c
 1329 030a 20       		.byte	0x20
 1330 030b 0C       		.uleb128 0xc
 1331 030c 73323500 		.ascii	"s25\000"
 1332 0310 09       		.byte	0x9
 1333 0311 1701     		.2byte	0x117
 1334 0313 7C020000 		.4byte	0x27c
 1335 0317 24       		.byte	0x24
 1336 0318 0C       		.uleb128 0xc
 1337 0319 73323600 		.ascii	"s26\000"
 1338 031d 09       		.byte	0x9
 1339 031e 1801     		.2byte	0x118
 1340 0320 7C020000 		.4byte	0x27c
 1341 0324 28       		.byte	0x28
 1342 0325 0C       		.uleb128 0xc
 1343 0326 73323700 		.ascii	"s27\000"
 1344 032a 09       		.byte	0x9
 1345 032b 1901     		.2byte	0x119
 1346 032d 7C020000 		.4byte	0x27c
 1347 0331 2C       		.byte	0x2c
 1348 0332 0C       		.uleb128 0xc
 1349 0333 73323800 		.ascii	"s28\000"
 1350 0337 09       		.byte	0x9
 1351 0338 1A01     		.2byte	0x11a
 1352 033a 7C020000 		.4byte	0x27c
 1353 033e 30       		.byte	0x30
 1354 033f 0C       		.uleb128 0xc
 1355 0340 73323900 		.ascii	"s29\000"
 1356 0344 09       		.byte	0x9
 1357 0345 1B01     		.2byte	0x11b
 1358 0347 7C020000 		.4byte	0x27c
 1359 034b 34       		.byte	0x34
 1360 034c 0C       		.uleb128 0xc
 1361 034d 73333000 		.ascii	"s30\000"
 1362 0351 09       		.byte	0x9
ARM GAS  C:\Users\jsyoon\AppData\Local\Temp\ccJfYAGa.s 			page 25


 1363 0352 1C01     		.2byte	0x11c
 1364 0354 7C020000 		.4byte	0x27c
 1365 0358 38       		.byte	0x38
 1366 0359 0C       		.uleb128 0xc
 1367 035a 73333100 		.ascii	"s31\000"
 1368 035e 09       		.byte	0x9
 1369 035f 1D01     		.2byte	0x11d
 1370 0361 7C020000 		.4byte	0x27c
 1371 0365 3C       		.byte	0x3c
 1372 0366 0C       		.uleb128 0xc
 1373 0367 723400   		.ascii	"r4\000"
 1374 036a 09       		.byte	0x9
 1375 036b 1F01     		.2byte	0x11f
 1376 036d 7C020000 		.4byte	0x27c
 1377 0371 40       		.byte	0x40
 1378 0372 0C       		.uleb128 0xc
 1379 0373 723500   		.ascii	"r5\000"
 1380 0376 09       		.byte	0x9
 1381 0377 2001     		.2byte	0x120
 1382 0379 7C020000 		.4byte	0x27c
 1383 037d 44       		.byte	0x44
 1384 037e 0C       		.uleb128 0xc
 1385 037f 723600   		.ascii	"r6\000"
 1386 0382 09       		.byte	0x9
 1387 0383 2101     		.2byte	0x121
 1388 0385 7C020000 		.4byte	0x27c
 1389 0389 48       		.byte	0x48
 1390 038a 0C       		.uleb128 0xc
 1391 038b 723700   		.ascii	"r7\000"
 1392 038e 09       		.byte	0x9
 1393 038f 2201     		.2byte	0x122
 1394 0391 7C020000 		.4byte	0x27c
 1395 0395 4C       		.byte	0x4c
 1396 0396 0C       		.uleb128 0xc
 1397 0397 723800   		.ascii	"r8\000"
 1398 039a 09       		.byte	0x9
 1399 039b 2301     		.2byte	0x123
 1400 039d 7C020000 		.4byte	0x27c
 1401 03a1 50       		.byte	0x50
 1402 03a2 0C       		.uleb128 0xc
 1403 03a3 723900   		.ascii	"r9\000"
 1404 03a6 09       		.byte	0x9
 1405 03a7 2401     		.2byte	0x124
 1406 03a9 7C020000 		.4byte	0x27c
 1407 03ad 54       		.byte	0x54
 1408 03ae 0C       		.uleb128 0xc
 1409 03af 72313000 		.ascii	"r10\000"
 1410 03b3 09       		.byte	0x9
 1411 03b4 2501     		.2byte	0x125
 1412 03b6 7C020000 		.4byte	0x27c
 1413 03ba 58       		.byte	0x58
 1414 03bb 0C       		.uleb128 0xc
 1415 03bc 72313100 		.ascii	"r11\000"
 1416 03c0 09       		.byte	0x9
 1417 03c1 2601     		.2byte	0x126
 1418 03c3 7C020000 		.4byte	0x27c
 1419 03c7 5C       		.byte	0x5c
ARM GAS  C:\Users\jsyoon\AppData\Local\Temp\ccJfYAGa.s 			page 26


 1420 03c8 0C       		.uleb128 0xc
 1421 03c9 6C7200   		.ascii	"lr\000"
 1422 03cc 09       		.byte	0x9
 1423 03cd 2701     		.2byte	0x127
 1424 03cf 7C020000 		.4byte	0x27c
 1425 03d3 60       		.byte	0x60
 1426 03d4 00       		.byte	0
 1427 03d5 0B       		.uleb128 0xb
 1428 03d6 DA020000 		.4byte	.LASF50
 1429 03da 04       		.byte	0x4
 1430 03db 09       		.byte	0x9
 1431 03dc 3101     		.2byte	0x131
 1432 03de F0030000 		.4byte	0x3f0
 1433 03e2 0C       		.uleb128 0xc
 1434 03e3 72313300 		.ascii	"r13\000"
 1435 03e7 09       		.byte	0x9
 1436 03e8 3201     		.2byte	0x132
 1437 03ea F0030000 		.4byte	0x3f0
 1438 03ee 00       		.byte	0
 1439 03ef 00       		.byte	0
 1440 03f0 09       		.uleb128 0x9
 1441 03f1 04       		.byte	0x4
 1442 03f2 89020000 		.4byte	0x289
 1443 03f6 04       		.uleb128 0x4
 1444 03f7 04       		.byte	0x4
 1445 03f8 07       		.byte	0x7
 1446 03f9 4F030000 		.4byte	.LASF51
 1447 03fd 0D       		.uleb128 0xd
 1448 03fe 17010000 		.4byte	0x117
 1449 0402 08       		.uleb128 0x8
 1450 0403 1C       		.byte	0x1c
 1451 0404 0A       		.byte	0xa
 1452 0405 5E       		.byte	0x5e
 1453 0406 53040000 		.4byte	0x453
 1454 040a 06       		.uleb128 0x6
 1455 040b 44040000 		.4byte	.LASF52
 1456 040f 0A       		.byte	0xa
 1457 0410 5F       		.byte	0x5f
 1458 0411 51020000 		.4byte	0x251
 1459 0415 00       		.byte	0
 1460 0416 06       		.uleb128 0x6
 1461 0417 07040000 		.4byte	.LASF53
 1462 041b 0A       		.byte	0xa
 1463 041c 60       		.byte	0x60
 1464 041d F6000000 		.4byte	0xf6
 1465 0421 08       		.byte	0x8
 1466 0422 06       		.uleb128 0x6
 1467 0423 72030000 		.4byte	.LASF54
 1468 0427 0A       		.byte	0xa
 1469 0428 62       		.byte	0x62
 1470 0429 D5030000 		.4byte	0x3d5
 1471 042d 0C       		.byte	0xc
 1472 042e 06       		.uleb128 0x6
 1473 042f 00030000 		.4byte	.LASF55
 1474 0433 0A       		.byte	0xa
 1475 0434 65       		.byte	0x65
 1476 0435 4B020000 		.4byte	0x24b
ARM GAS  C:\Users\jsyoon\AppData\Local\Temp\ccJfYAGa.s 			page 27


 1477 0439 10       		.byte	0x10
 1478 043a 06       		.uleb128 0x6
 1479 043b 94030000 		.4byte	.LASF56
 1480 043f 0A       		.byte	0xa
 1481 0440 66       		.byte	0x66
 1482 0441 4B020000 		.4byte	0x24b
 1483 0445 14       		.byte	0x14
 1484 0446 06       		.uleb128 0x6
 1485 0447 8A030000 		.4byte	.LASF57
 1486 044b 0A       		.byte	0xa
 1487 044c 69       		.byte	0x69
 1488 044d 4B020000 		.4byte	0x24b
 1489 0451 18       		.byte	0x18
 1490 0452 00       		.byte	0
 1491 0453 03       		.uleb128 0x3
 1492 0454 C0040000 		.4byte	.LASF58
 1493 0458 0A       		.byte	0xa
 1494 0459 6B       		.byte	0x6b
 1495 045a 02040000 		.4byte	0x402
 1496 045e 05       		.uleb128 0x5
 1497 045f 33030000 		.4byte	.LASF59
 1498 0463 10       		.byte	0x10
 1499 0464 0B       		.byte	0xb
 1500 0465 2C       		.byte	0x2c
 1501 0466 8F040000 		.4byte	0x48f
 1502 046a 06       		.uleb128 0x6
 1503 046b C0000000 		.4byte	.LASF60
 1504 046f 0B       		.byte	0xb
 1505 0470 2D       		.byte	0x2d
 1506 0471 51020000 		.4byte	0x251
 1507 0475 00       		.byte	0
 1508 0476 06       		.uleb128 0x6
 1509 0477 0B050000 		.4byte	.LASF61
 1510 047b 0B       		.byte	0xb
 1511 047c 2F       		.byte	0x2f
 1512 047d 4B020000 		.4byte	0x24b
 1513 0481 08       		.byte	0x8
 1514 0482 06       		.uleb128 0x6
 1515 0483 69040000 		.4byte	.LASF62
 1516 0487 0B       		.byte	0xb
 1517 0488 31       		.byte	0x31
 1518 0489 8F040000 		.4byte	0x48f
 1519 048d 0C       		.byte	0xc
 1520 048e 00       		.byte	0
 1521 048f 09       		.uleb128 0x9
 1522 0490 04       		.byte	0x4
 1523 0491 5E040000 		.4byte	0x45e
 1524 0495 03       		.uleb128 0x3
 1525 0496 33030000 		.4byte	.LASF59
 1526 049a 0B       		.byte	0xb
 1527 049b 33       		.byte	0x33
 1528 049c 5E040000 		.4byte	0x45e
 1529 04a0 0E       		.uleb128 0xe
 1530 04a1 04       		.byte	0x4
 1531 04a2 08       		.byte	0x8
 1532 04a3 96       		.byte	0x96
 1533 04a4 D5040000 		.4byte	0x4d5
ARM GAS  C:\Users\jsyoon\AppData\Local\Temp\ccJfYAGa.s 			page 28


 1534 04a8 0F       		.uleb128 0xf
 1535 04a9 28000000 		.4byte	.LASF63
 1536 04ad 08       		.byte	0x8
 1537 04ae 9D       		.byte	0x9d
 1538 04af 01010000 		.4byte	0x101
 1539 04b3 0F       		.uleb128 0xf
 1540 04b4 4F020000 		.4byte	.LASF64
 1541 04b8 08       		.byte	0x8
 1542 04b9 A4       		.byte	0xa4
 1543 04ba 01010000 		.4byte	0x101
 1544 04be 0F       		.uleb128 0xf
 1545 04bf E1040000 		.4byte	.LASF65
 1546 04c3 08       		.byte	0x8
 1547 04c4 AB       		.byte	0xab
 1548 04c5 87020000 		.4byte	0x287
 1549 04c9 0F       		.uleb128 0xf
 1550 04ca 0E040000 		.4byte	.LASF66
 1551 04ce 08       		.byte	0x8
 1552 04cf B2       		.byte	0xb2
 1553 04d0 0C010000 		.4byte	0x10c
 1554 04d4 00       		.byte	0
 1555 04d5 09       		.uleb128 0x9
 1556 04d6 04       		.byte	0x4
 1557 04d7 DB040000 		.4byte	0x4db
 1558 04db 10       		.uleb128 0x10
 1559 04dc E0040000 		.4byte	0x4e0
 1560 04e0 04       		.uleb128 0x4
 1561 04e1 01       		.byte	0x1
 1562 04e2 08       		.byte	0x8
 1563 04e3 4C040000 		.4byte	.LASF67
 1564 04e7 09       		.uleb128 0x9
 1565 04e8 04       		.byte	0x4
 1566 04e9 95040000 		.4byte	0x495
 1567 04ed 03       		.uleb128 0x3
 1568 04ee 39030000 		.4byte	.LASF68
 1569 04f2 0C       		.byte	0xc
 1570 04f3 37       		.byte	0x37
 1571 04f4 F8040000 		.4byte	0x4f8
 1572 04f8 05       		.uleb128 0x5
 1573 04f9 39030000 		.4byte	.LASF68
 1574 04fd 24       		.byte	0x24
 1575 04fe 0C       		.byte	0xc
 1576 04ff 45       		.byte	0x45
 1577 0500 65050000 		.4byte	0x565
 1578 0504 06       		.uleb128 0x6
 1579 0505 8D000000 		.4byte	.LASF69
 1580 0509 0C       		.byte	0xc
 1581 050a 46       		.byte	0x46
 1582 050b 51020000 		.4byte	0x251
 1583 050f 00       		.byte	0
 1584 0510 06       		.uleb128 0x6
 1585 0511 58030000 		.4byte	.LASF70
 1586 0515 0C       		.byte	0xc
 1587 0516 47       		.byte	0x47
 1588 0517 2C000000 		.4byte	0x2c
 1589 051b 08       		.byte	0x8
 1590 051c 06       		.uleb128 0x6
ARM GAS  C:\Users\jsyoon\AppData\Local\Temp\ccJfYAGa.s 			page 29


 1591 051d 46030000 		.4byte	.LASF71
 1592 0521 0C       		.byte	0xc
 1593 0522 48       		.byte	0x48
 1594 0523 87050000 		.4byte	0x587
 1595 0527 0C       		.byte	0xc
 1596 0528 06       		.uleb128 0x6
 1597 0529 B3040000 		.4byte	.LASF72
 1598 052d 0C       		.byte	0xc
 1599 052e 49       		.byte	0x49
 1600 052f 87050000 		.4byte	0x587
 1601 0533 10       		.byte	0x10
 1602 0534 06       		.uleb128 0x6
 1603 0535 6A030000 		.4byte	.LASF73
 1604 0539 0C       		.byte	0xc
 1605 053a 4B       		.byte	0x4b
 1606 053b 87050000 		.4byte	0x587
 1607 053f 14       		.byte	0x14
 1608 0540 06       		.uleb128 0x6
 1609 0541 BD030000 		.4byte	.LASF74
 1610 0545 0C       		.byte	0xc
 1611 0546 4C       		.byte	0x4c
 1612 0547 87050000 		.4byte	0x587
 1613 054b 18       		.byte	0x18
 1614 054c 06       		.uleb128 0x6
 1615 054d CA040000 		.4byte	.LASF75
 1616 0551 0C       		.byte	0xc
 1617 0552 4D       		.byte	0x4d
 1618 0553 65050000 		.4byte	0x565
 1619 0557 1C       		.byte	0x1c
 1620 0558 06       		.uleb128 0x6
 1621 0559 04050000 		.4byte	.LASF76
 1622 055d 0C       		.byte	0xc
 1623 055e 4E       		.byte	0x4e
 1624 055f 87020000 		.4byte	0x287
 1625 0563 20       		.byte	0x20
 1626 0564 00       		.byte	0
 1627 0565 03       		.uleb128 0x3
 1628 0566 A4030000 		.4byte	.LASF77
 1629 056a 0C       		.byte	0xc
 1630 056b 3A       		.byte	0x3a
 1631 056c 70050000 		.4byte	0x570
 1632 0570 09       		.uleb128 0x9
 1633 0571 04       		.byte	0x4
 1634 0572 76050000 		.4byte	0x576
 1635 0576 11       		.uleb128 0x11
 1636 0577 81050000 		.4byte	0x581
 1637 057b 12       		.uleb128 0x12
 1638 057c 81050000 		.4byte	0x581
 1639 0580 00       		.byte	0
 1640 0581 09       		.uleb128 0x9
 1641 0582 04       		.byte	0x4
 1642 0583 ED040000 		.4byte	0x4ed
 1643 0587 09       		.uleb128 0x9
 1644 0588 04       		.byte	0x4
 1645 0589 97000000 		.4byte	0x97
 1646 058d 03       		.uleb128 0x3
 1647 058e 28030000 		.4byte	.LASF78
ARM GAS  C:\Users\jsyoon\AppData\Local\Temp\ccJfYAGa.s 			page 30


 1648 0592 0C       		.byte	0xc
 1649 0593 82       		.byte	0x82
 1650 0594 ED040000 		.4byte	0x4ed
 1651 0598 03       		.uleb128 0x3
 1652 0599 38000000 		.4byte	.LASF79
 1653 059d 0C       		.byte	0xc
 1654 059e F5       		.byte	0xf5
 1655 059f ED040000 		.4byte	0x4ed
 1656 05a3 09       		.uleb128 0x9
 1657 05a4 04       		.byte	0x4
 1658 05a5 A9050000 		.4byte	0x5a9
 1659 05a9 10       		.uleb128 0x10
 1660 05aa 97000000 		.4byte	0x97
 1661 05ae 13       		.uleb128 0x13
 1662 05af 0F000000 		.4byte	.LASF98
 1663 05b3 02       		.byte	0x2
 1664 05b4 34       		.byte	0x34
 1665 05b5 03       		.byte	0x3
 1666 05b6 D0050000 		.4byte	0x5d0
 1667 05ba 14       		.uleb128 0x14
 1668 05bb 747000   		.ascii	"tp\000"
 1669 05be 02       		.byte	0x2
 1670 05bf 34       		.byte	0x34
 1671 05c0 4B020000 		.4byte	0x24b
 1672 05c4 14       		.uleb128 0x14
 1673 05c5 74717000 		.ascii	"tqp\000"
 1674 05c9 02       		.byte	0x2
 1675 05ca 34       		.byte	0x34
 1676 05cb D0050000 		.4byte	0x5d0
 1677 05cf 00       		.byte	0
 1678 05d0 09       		.uleb128 0x9
 1679 05d1 04       		.byte	0x4
 1680 05d2 51020000 		.4byte	0x251
 1681 05d6 15       		.uleb128 0x15
 1682 05d7 51040000 		.4byte	.LASF99
 1683 05db 02       		.byte	0x2
 1684 05dc 3B       		.byte	0x3b
 1685 05dd 4B020000 		.4byte	0x24b
 1686 05e1 03       		.byte	0x3
 1687 05e2 FC050000 		.4byte	0x5fc
 1688 05e6 14       		.uleb128 0x14
 1689 05e7 74717000 		.ascii	"tqp\000"
 1690 05eb 02       		.byte	0x2
 1691 05ec 3B       		.byte	0x3b
 1692 05ed D0050000 		.4byte	0x5d0
 1693 05f1 16       		.uleb128 0x16
 1694 05f2 747000   		.ascii	"tp\000"
 1695 05f5 02       		.byte	0x2
 1696 05f6 3C       		.byte	0x3c
 1697 05f7 4B020000 		.4byte	0x24b
 1698 05fb 00       		.byte	0
 1699 05fc 17       		.uleb128 0x17
 1700 05fd D2000000 		.4byte	.LASF100
 1701 0601 01       		.byte	0x1
 1702 0602 46       		.byte	0x46
 1703 0603 01010000 		.4byte	0x101
 1704 0607 00000000 		.4byte	.LFB7
ARM GAS  C:\Users\jsyoon\AppData\Local\Temp\ccJfYAGa.s 			page 31


 1705 060b 30000000 		.4byte	.LFE7-.LFB7
 1706 060f 01       		.uleb128 0x1
 1707 0610 9C       		.byte	0x9c
 1708 0611 6F060000 		.4byte	0x66f
 1709 0615 18       		.uleb128 0x18
 1710 0616 717000   		.ascii	"qp\000"
 1711 0619 01       		.byte	0x1
 1712 061a 46       		.byte	0x46
 1713 061b 81050000 		.4byte	0x581
 1714 061f 00000000 		.4byte	.LLST0
 1715 0623 19       		.uleb128 0x19
 1716 0624 85030000 		.4byte	.LASF80
 1717 0628 01       		.byte	0x1
 1718 0629 46       		.byte	0x46
 1719 062a 17010000 		.4byte	0x117
 1720 062e 42000000 		.4byte	.LLST1
 1721 0632 1A       		.uleb128 0x1a
 1722 0633 AE050000 		.4byte	0x5ae
 1723 0637 0C000000 		.4byte	.LBB12
 1724 063b 00000000 		.4byte	.Ldebug_ranges0+0
 1725 063f 01       		.byte	0x1
 1726 0640 4B       		.byte	0x4b
 1727 0641 58060000 		.4byte	0x658
 1728 0645 1B       		.uleb128 0x1b
 1729 0646 C4050000 		.4byte	0x5c4
 1730 064a 6E000000 		.4byte	.LLST2
 1731 064e 1B       		.uleb128 0x1b
 1732 064f BA050000 		.4byte	0x5ba
 1733 0653 9A000000 		.4byte	.LLST3
 1734 0657 00       		.byte	0
 1735 0658 1C       		.uleb128 0x1c
 1736 0659 20000000 		.4byte	.LVL3
 1737 065d EA0A0000 		.4byte	0xaea
 1738 0661 1D       		.uleb128 0x1d
 1739 0662 01       		.uleb128 0x1
 1740 0663 51       		.byte	0x51
 1741 0664 03       		.uleb128 0x3
 1742 0665 F3       		.byte	0xf3
 1743 0666 01       		.uleb128 0x1
 1744 0667 51       		.byte	0x51
 1745 0668 1D       		.uleb128 0x1d
 1746 0669 01       		.uleb128 0x1
 1747 066a 50       		.byte	0x50
 1748 066b 01       		.uleb128 0x1
 1749 066c 3D       		.byte	0x3d
 1750 066d 00       		.byte	0
 1751 066e 00       		.byte	0
 1752 066f 1E       		.uleb128 0x1e
 1753 0670 2F000000 		.4byte	.LASF84
 1754 0674 01       		.byte	0x1
 1755 0675 5F       		.byte	0x5f
 1756 0676 00000000 		.4byte	.LFB8
 1757 067a 1E000000 		.4byte	.LFE8-.LFB8
 1758 067e 01       		.uleb128 0x1
 1759 067f 9C       		.byte	0x9c
 1760 0680 C9060000 		.4byte	0x6c9
 1761 0684 1F       		.uleb128 0x1f
ARM GAS  C:\Users\jsyoon\AppData\Local\Temp\ccJfYAGa.s 			page 32


 1762 0685 69717000 		.ascii	"iqp\000"
 1763 0689 01       		.byte	0x1
 1764 068a 5F       		.byte	0x5f
 1765 068b C9060000 		.4byte	0x6c9
 1766 068f 01       		.uleb128 0x1
 1767 0690 50       		.byte	0x50
 1768 0691 1F       		.uleb128 0x1f
 1769 0692 627000   		.ascii	"bp\000"
 1770 0695 01       		.byte	0x1
 1771 0696 5F       		.byte	0x5f
 1772 0697 87050000 		.4byte	0x587
 1773 069b 01       		.uleb128 0x1
 1774 069c 51       		.byte	0x51
 1775 069d 19       		.uleb128 0x19
 1776 069e E2020000 		.4byte	.LASF81
 1777 06a2 01       		.byte	0x1
 1778 06a3 5F       		.byte	0x5f
 1779 06a4 2C000000 		.4byte	0x2c
 1780 06a8 AD000000 		.4byte	.LLST4
 1781 06ac 20       		.uleb128 0x20
 1782 06ad 1C040000 		.4byte	.LASF82
 1783 06b1 01       		.byte	0x1
 1784 06b2 5F       		.byte	0x5f
 1785 06b3 65050000 		.4byte	0x565
 1786 06b7 01       		.uleb128 0x1
 1787 06b8 53       		.byte	0x53
 1788 06b9 19       		.uleb128 0x19
 1789 06ba 6C020000 		.4byte	.LASF83
 1790 06be 01       		.byte	0x1
 1791 06bf 60       		.byte	0x60
 1792 06c0 87020000 		.4byte	0x287
 1793 06c4 CE000000 		.4byte	.LLST5
 1794 06c8 00       		.byte	0
 1795 06c9 09       		.uleb128 0x9
 1796 06ca 04       		.byte	0x4
 1797 06cb 8D050000 		.4byte	0x58d
 1798 06cf 1E       		.uleb128 0x1e
 1799 06d0 96020000 		.4byte	.LASF85
 1800 06d4 01       		.byte	0x1
 1801 06d5 75       		.byte	0x75
 1802 06d6 00000000 		.4byte	.LFB9
 1803 06da 2C000000 		.4byte	.LFE9-.LFB9
 1804 06de 01       		.uleb128 0x1
 1805 06df 9C       		.byte	0x9c
 1806 06e0 2D070000 		.4byte	0x72d
 1807 06e4 18       		.uleb128 0x18
 1808 06e5 69717000 		.ascii	"iqp\000"
 1809 06e9 01       		.byte	0x1
 1810 06ea 75       		.byte	0x75
 1811 06eb C9060000 		.4byte	0x6c9
 1812 06ef EE000000 		.4byte	.LLST6
 1813 06f3 21       		.uleb128 0x21
 1814 06f4 D6050000 		.4byte	0x5d6
 1815 06f8 18000000 		.4byte	.LBB16
 1816 06fc 06000000 		.4byte	.LBE16-.LBB16
 1817 0700 01       		.byte	0x1
 1818 0701 7C       		.byte	0x7c
ARM GAS  C:\Users\jsyoon\AppData\Local\Temp\ccJfYAGa.s 			page 33


 1819 0702 23070000 		.4byte	0x723
 1820 0706 1B       		.uleb128 0x1b
 1821 0707 E6050000 		.4byte	0x5e6
 1822 070b 0C010000 		.4byte	.LLST7
 1823 070f 22       		.uleb128 0x22
 1824 0710 18000000 		.4byte	.LBB17
 1825 0714 06000000 		.4byte	.LBE17-.LBB17
 1826 0718 23       		.uleb128 0x23
 1827 0719 F1050000 		.4byte	0x5f1
 1828 071d 1F010000 		.4byte	.LLST8
 1829 0721 00       		.byte	0
 1830 0722 00       		.byte	0
 1831 0723 24       		.uleb128 0x24
 1832 0724 22000000 		.4byte	.LVL11
 1833 0728 040B0000 		.4byte	0xb04
 1834 072c 00       		.byte	0
 1835 072d 25       		.uleb128 0x25
 1836 072e 80020000 		.4byte	.LASF86
 1837 0732 01       		.byte	0x1
 1838 0733 8C       		.byte	0x8c
 1839 0734 01010000 		.4byte	0x101
 1840 0738 00000000 		.4byte	.LFB10
 1841 073c 50000000 		.4byte	.LFE10-.LFB10
 1842 0740 01       		.uleb128 0x1
 1843 0741 9C       		.byte	0x9c
 1844 0742 9C070000 		.4byte	0x79c
 1845 0746 18       		.uleb128 0x18
 1846 0747 69717000 		.ascii	"iqp\000"
 1847 074b 01       		.byte	0x1
 1848 074c 8C       		.byte	0x8c
 1849 074d C9060000 		.4byte	0x6c9
 1850 0751 32010000 		.4byte	.LLST9
 1851 0755 18       		.uleb128 0x18
 1852 0756 6200     		.ascii	"b\000"
 1853 0758 01       		.byte	0x1
 1854 0759 8C       		.byte	0x8c
 1855 075a 97000000 		.4byte	0x97
 1856 075e 69010000 		.4byte	.LLST10
 1857 0762 21       		.uleb128 0x21
 1858 0763 D6050000 		.4byte	0x5d6
 1859 0767 26000000 		.4byte	.LBB18
 1860 076b 06000000 		.4byte	.LBE18-.LBB18
 1861 076f 01       		.byte	0x1
 1862 0770 99       		.byte	0x99
 1863 0771 92070000 		.4byte	0x792
 1864 0775 1B       		.uleb128 0x1b
 1865 0776 E6050000 		.4byte	0x5e6
 1866 077a C7010000 		.4byte	.LLST11
 1867 077e 22       		.uleb128 0x22
 1868 077f 26000000 		.4byte	.LBB19
 1869 0783 06000000 		.4byte	.LBE19-.LBB19
 1870 0787 23       		.uleb128 0x23
 1871 0788 F1050000 		.4byte	0x5f1
 1872 078c E8010000 		.4byte	.LLST12
 1873 0790 00       		.byte	0
 1874 0791 00       		.byte	0
 1875 0792 24       		.uleb128 0x24
ARM GAS  C:\Users\jsyoon\AppData\Local\Temp\ccJfYAGa.s 			page 34


 1876 0793 30000000 		.4byte	.LVL18
 1877 0797 040B0000 		.4byte	0xb04
 1878 079b 00       		.byte	0
 1879 079c 25       		.uleb128 0x25
 1880 079d 23050000 		.4byte	.LASF87
 1881 07a1 01       		.byte	0x1
 1882 07a2 B2       		.byte	0xb2
 1883 07a3 01010000 		.4byte	0x101
 1884 07a7 00000000 		.4byte	.LFB11
 1885 07ab 3E000000 		.4byte	.LFE11-.LFB11
 1886 07af 01       		.uleb128 0x1
 1887 07b0 9C       		.byte	0x9c
 1888 07b1 0F080000 		.4byte	0x80f
 1889 07b5 18       		.uleb128 0x18
 1890 07b6 69717000 		.ascii	"iqp\000"
 1891 07ba 01       		.byte	0x1
 1892 07bb B2       		.byte	0xb2
 1893 07bc C9060000 		.4byte	0x6c9
 1894 07c0 FB010000 		.4byte	.LLST13
 1895 07c4 19       		.uleb128 0x19
 1896 07c5 85030000 		.4byte	.LASF80
 1897 07c9 01       		.byte	0x1
 1898 07ca B2       		.byte	0xb2
 1899 07cb 17010000 		.4byte	0x117
 1900 07cf 45020000 		.4byte	.LLST14
 1901 07d3 26       		.uleb128 0x26
 1902 07d4 6200     		.ascii	"b\000"
 1903 07d6 01       		.byte	0x1
 1904 07d7 B3       		.byte	0xb3
 1905 07d8 97000000 		.4byte	0x97
 1906 07dc 9D020000 		.4byte	.LLST15
 1907 07e0 27       		.uleb128 0x27
 1908 07e1 18000000 		.4byte	.Ldebug_ranges0+0x18
 1909 07e5 02080000 		.4byte	0x802
 1910 07e9 26       		.uleb128 0x26
 1911 07ea 6D736700 		.ascii	"msg\000"
 1912 07ee 01       		.byte	0x1
 1913 07ef BA       		.byte	0xba
 1914 07f0 01010000 		.4byte	0x101
 1915 07f4 B1020000 		.4byte	.LLST16
 1916 07f8 24       		.uleb128 0x24
 1917 07f9 14000000 		.4byte	.LVL25
 1918 07fd FC050000 		.4byte	0x5fc
 1919 0801 00       		.byte	0
 1920 0802 28       		.uleb128 0x28
 1921 0803 0E000000 		.4byte	.LVL23
 1922 0807 1D       		.uleb128 0x1d
 1923 0808 01       		.uleb128 0x1
 1924 0809 50       		.byte	0x50
 1925 080a 02       		.uleb128 0x2
 1926 080b 74       		.byte	0x74
 1927 080c 00       		.sleb128 0
 1928 080d 00       		.byte	0
 1929 080e 00       		.byte	0
 1930 080f 25       		.uleb128 0x25
 1931 0810 4E000000 		.4byte	.LASF88
 1932 0814 01       		.byte	0x1
ARM GAS  C:\Users\jsyoon\AppData\Local\Temp\ccJfYAGa.s 			page 35


 1933 0815 E2       		.byte	0xe2
 1934 0816 2C000000 		.4byte	0x2c
 1935 081a 00000000 		.4byte	.LFB12
 1936 081e 68000000 		.4byte	.LFE12-.LFB12
 1937 0822 01       		.uleb128 0x1
 1938 0823 9C       		.byte	0x9c
 1939 0824 95080000 		.4byte	0x895
 1940 0828 18       		.uleb128 0x18
 1941 0829 69717000 		.ascii	"iqp\000"
 1942 082d 01       		.byte	0x1
 1943 082e E2       		.byte	0xe2
 1944 082f C9060000 		.4byte	0x6c9
 1945 0833 C4020000 		.4byte	.LLST17
 1946 0837 18       		.uleb128 0x18
 1947 0838 627000   		.ascii	"bp\000"
 1948 083b 01       		.byte	0x1
 1949 083c E2       		.byte	0xe2
 1950 083d 87050000 		.4byte	0x587
 1951 0841 0E030000 		.4byte	.LLST18
 1952 0845 18       		.uleb128 0x18
 1953 0846 6E00     		.ascii	"n\000"
 1954 0848 01       		.byte	0x1
 1955 0849 E3       		.byte	0xe3
 1956 084a 2C000000 		.4byte	0x2c
 1957 084e 67030000 		.4byte	.LLST19
 1958 0852 19       		.uleb128 0x19
 1959 0853 85030000 		.4byte	.LASF80
 1960 0857 01       		.byte	0x1
 1961 0858 E3       		.byte	0xe3
 1962 0859 17010000 		.4byte	0x117
 1963 085d 8B030000 		.4byte	.LLST20
 1964 0861 29       		.uleb128 0x29
 1965 0862 6E667900 		.ascii	"nfy\000"
 1966 0866 01       		.byte	0x1
 1967 0867 E4       		.byte	0xe4
 1968 0868 65050000 		.4byte	0x565
 1969 086c 01       		.uleb128 0x1
 1970 086d 58       		.byte	0x58
 1971 086e 26       		.uleb128 0x26
 1972 086f 7200     		.ascii	"r\000"
 1973 0871 01       		.byte	0x1
 1974 0872 E5       		.byte	0xe5
 1975 0873 2C000000 		.4byte	0x2c
 1976 0877 D5030000 		.4byte	.LLST21
 1977 087b 2A       		.uleb128 0x2a
 1978 087c 22000000 		.4byte	.LVL36
 1979 0880 8B080000 		.4byte	0x88b
 1980 0884 1D       		.uleb128 0x1d
 1981 0885 01       		.uleb128 0x1
 1982 0886 50       		.byte	0x50
 1983 0887 02       		.uleb128 0x2
 1984 0888 74       		.byte	0x74
 1985 0889 00       		.sleb128 0
 1986 088a 00       		.byte	0
 1987 088b 24       		.uleb128 0x24
 1988 088c 28000000 		.4byte	.LVL38
 1989 0890 FC050000 		.4byte	0x5fc
ARM GAS  C:\Users\jsyoon\AppData\Local\Temp\ccJfYAGa.s 			page 36


 1990 0894 00       		.byte	0
 1991 0895 2B       		.uleb128 0x2b
 1992 0896 00000000 		.4byte	.LASF89
 1993 089a 01       		.byte	0x1
 1994 089b 1301     		.2byte	0x113
 1995 089d 00000000 		.4byte	.LFB13
 1996 08a1 1C000000 		.4byte	.LFE13-.LFB13
 1997 08a5 01       		.uleb128 0x1
 1998 08a6 9C       		.byte	0x9c
 1999 08a7 F3080000 		.4byte	0x8f3
 2000 08ab 2C       		.uleb128 0x2c
 2001 08ac 6F717000 		.ascii	"oqp\000"
 2002 08b0 01       		.byte	0x1
 2003 08b1 1301     		.2byte	0x113
 2004 08b3 F3080000 		.4byte	0x8f3
 2005 08b7 01       		.uleb128 0x1
 2006 08b8 50       		.byte	0x50
 2007 08b9 2C       		.uleb128 0x2c
 2008 08ba 627000   		.ascii	"bp\000"
 2009 08bd 01       		.byte	0x1
 2010 08be 1301     		.2byte	0x113
 2011 08c0 87050000 		.4byte	0x587
 2012 08c4 01       		.uleb128 0x1
 2013 08c5 51       		.byte	0x51
 2014 08c6 2D       		.uleb128 0x2d
 2015 08c7 E2020000 		.4byte	.LASF81
 2016 08cb 01       		.byte	0x1
 2017 08cc 1301     		.2byte	0x113
 2018 08ce 2C000000 		.4byte	0x2c
 2019 08d2 01       		.uleb128 0x1
 2020 08d3 52       		.byte	0x52
 2021 08d4 2D       		.uleb128 0x2d
 2022 08d5 1C000000 		.4byte	.LASF90
 2023 08d9 01       		.byte	0x1
 2024 08da 1301     		.2byte	0x113
 2025 08dc 65050000 		.4byte	0x565
 2026 08e0 01       		.uleb128 0x1
 2027 08e1 53       		.byte	0x53
 2028 08e2 2E       		.uleb128 0x2e
 2029 08e3 6C020000 		.4byte	.LASF83
 2030 08e7 01       		.byte	0x1
 2031 08e8 1401     		.2byte	0x114
 2032 08ea 87020000 		.4byte	0x287
 2033 08ee F4030000 		.4byte	.LLST22
 2034 08f2 00       		.byte	0
 2035 08f3 09       		.uleb128 0x9
 2036 08f4 04       		.byte	0x4
 2037 08f5 98050000 		.4byte	0x598
 2038 08f9 2B       		.uleb128 0x2b
 2039 08fa 8F040000 		.4byte	.LASF91
 2040 08fe 01       		.byte	0x1
 2041 08ff 2901     		.2byte	0x129
 2042 0901 00000000 		.4byte	.LFB14
 2043 0905 2E000000 		.4byte	.LFE14-.LFB14
 2044 0909 01       		.uleb128 0x1
 2045 090a 9C       		.byte	0x9c
 2046 090b 5A090000 		.4byte	0x95a
ARM GAS  C:\Users\jsyoon\AppData\Local\Temp\ccJfYAGa.s 			page 37


 2047 090f 2F       		.uleb128 0x2f
 2048 0910 6F717000 		.ascii	"oqp\000"
 2049 0914 01       		.byte	0x1
 2050 0915 2901     		.2byte	0x129
 2051 0917 F3080000 		.4byte	0x8f3
 2052 091b 14040000 		.4byte	.LLST23
 2053 091f 30       		.uleb128 0x30
 2054 0920 D6050000 		.4byte	0x5d6
 2055 0924 1A000000 		.4byte	.LBB22
 2056 0928 06000000 		.4byte	.LBE22-.LBB22
 2057 092c 01       		.byte	0x1
 2058 092d 3001     		.2byte	0x130
 2059 092f 50090000 		.4byte	0x950
 2060 0933 1B       		.uleb128 0x1b
 2061 0934 E6050000 		.4byte	0x5e6
 2062 0938 32040000 		.4byte	.LLST24
 2063 093c 22       		.uleb128 0x22
 2064 093d 1A000000 		.4byte	.LBB23
 2065 0941 06000000 		.4byte	.LBE23-.LBB23
 2066 0945 23       		.uleb128 0x23
 2067 0946 F1050000 		.4byte	0x5f1
 2068 094a 45040000 		.4byte	.LLST25
 2069 094e 00       		.byte	0
 2070 094f 00       		.byte	0
 2071 0950 24       		.uleb128 0x24
 2072 0951 24000000 		.4byte	.LVL49
 2073 0955 040B0000 		.4byte	0xb04
 2074 0959 00       		.byte	0
 2075 095a 31       		.uleb128 0x31
 2076 095b 71020000 		.4byte	.LASF92
 2077 095f 01       		.byte	0x1
 2078 0960 4901     		.2byte	0x149
 2079 0962 01010000 		.4byte	0x101
 2080 0966 00000000 		.4byte	.LFB15
 2081 096a 48000000 		.4byte	.LFE15-.LFB15
 2082 096e 01       		.uleb128 0x1
 2083 096f 9C       		.byte	0x9c
 2084 0970 D2090000 		.4byte	0x9d2
 2085 0974 2F       		.uleb128 0x2f
 2086 0975 6F717000 		.ascii	"oqp\000"
 2087 0979 01       		.byte	0x1
 2088 097a 4901     		.2byte	0x149
 2089 097c F3080000 		.4byte	0x8f3
 2090 0980 58040000 		.4byte	.LLST26
 2091 0984 2F       		.uleb128 0x2f
 2092 0985 6200     		.ascii	"b\000"
 2093 0987 01       		.byte	0x1
 2094 0988 4901     		.2byte	0x149
 2095 098a 97000000 		.4byte	0x97
 2096 098e 8C040000 		.4byte	.LLST27
 2097 0992 2E       		.uleb128 0x2e
 2098 0993 85030000 		.4byte	.LASF80
 2099 0997 01       		.byte	0x1
 2100 0998 4901     		.2byte	0x149
 2101 099a 17010000 		.4byte	0x117
 2102 099e AD040000 		.4byte	.LLST28
 2103 09a2 27       		.uleb128 0x27
ARM GAS  C:\Users\jsyoon\AppData\Local\Temp\ccJfYAGa.s 			page 38


 2104 09a3 30000000 		.4byte	.Ldebug_ranges0+0x30
 2105 09a7 C5090000 		.4byte	0x9c5
 2106 09ab 32       		.uleb128 0x32
 2107 09ac 6D736700 		.ascii	"msg\000"
 2108 09b0 01       		.byte	0x1
 2109 09b1 4D01     		.2byte	0x14d
 2110 09b3 01010000 		.4byte	0x101
 2111 09b7 EC040000 		.4byte	.LLST29
 2112 09bb 24       		.uleb128 0x24
 2113 09bc 10000000 		.4byte	.LVL53
 2114 09c0 FC050000 		.4byte	0x5fc
 2115 09c4 00       		.byte	0
 2116 09c5 28       		.uleb128 0x28
 2117 09c6 3E000000 		.4byte	.LVL58
 2118 09ca 1D       		.uleb128 0x1d
 2119 09cb 01       		.uleb128 0x1
 2120 09cc 50       		.byte	0x50
 2121 09cd 02       		.uleb128 0x2
 2122 09ce 74       		.byte	0x74
 2123 09cf 00       		.sleb128 0
 2124 09d0 00       		.byte	0
 2125 09d1 00       		.byte	0
 2126 09d2 31       		.uleb128 0x31
 2127 09d3 1A010000 		.4byte	.LASF93
 2128 09d7 01       		.byte	0x1
 2129 09d8 6B01     		.2byte	0x16b
 2130 09da 01010000 		.4byte	0x101
 2131 09de 00000000 		.4byte	.LFB16
 2132 09e2 46000000 		.4byte	.LFE16-.LFB16
 2133 09e6 01       		.uleb128 0x1
 2134 09e7 9C       		.byte	0x9c
 2135 09e8 450A0000 		.4byte	0xa45
 2136 09ec 2F       		.uleb128 0x2f
 2137 09ed 6F717000 		.ascii	"oqp\000"
 2138 09f1 01       		.byte	0x1
 2139 09f2 6B01     		.2byte	0x16b
 2140 09f4 F3080000 		.4byte	0x8f3
 2141 09f8 0A050000 		.4byte	.LLST30
 2142 09fc 32       		.uleb128 0x32
 2143 09fd 6200     		.ascii	"b\000"
 2144 09ff 01       		.byte	0x1
 2145 0a00 6C01     		.2byte	0x16c
 2146 0a02 97000000 		.4byte	0x97
 2147 0a06 57050000 		.4byte	.LLST31
 2148 0a0a 30       		.uleb128 0x30
 2149 0a0b D6050000 		.4byte	0x5d6
 2150 0a0f 24000000 		.4byte	.LBB27
 2151 0a13 06000000 		.4byte	.LBE27-.LBB27
 2152 0a17 01       		.byte	0x1
 2153 0a18 7901     		.2byte	0x179
 2154 0a1a 3B0A0000 		.4byte	0xa3b
 2155 0a1e 1B       		.uleb128 0x1b
 2156 0a1f E6050000 		.4byte	0x5e6
 2157 0a23 99050000 		.4byte	.LLST32
 2158 0a27 22       		.uleb128 0x22
 2159 0a28 24000000 		.4byte	.LBB28
 2160 0a2c 06000000 		.4byte	.LBE28-.LBB28
ARM GAS  C:\Users\jsyoon\AppData\Local\Temp\ccJfYAGa.s 			page 39


 2161 0a30 23       		.uleb128 0x23
 2162 0a31 F1050000 		.4byte	0x5f1
 2163 0a35 BA050000 		.4byte	.LLST33
 2164 0a39 00       		.byte	0
 2165 0a3a 00       		.byte	0
 2166 0a3b 24       		.uleb128 0x24
 2167 0a3c 2E000000 		.4byte	.LVL65
 2168 0a40 040B0000 		.4byte	0xb04
 2169 0a44 00       		.byte	0
 2170 0a45 31       		.uleb128 0x31
 2171 0a46 75000000 		.4byte	.LASF94
 2172 0a4a 01       		.byte	0x1
 2173 0a4b 9601     		.2byte	0x196
 2174 0a4d 2C000000 		.4byte	0x2c
 2175 0a51 00000000 		.4byte	.LFB17
 2176 0a55 66000000 		.4byte	.LFE17-.LFB17
 2177 0a59 01       		.uleb128 0x1
 2178 0a5a 9C       		.byte	0x9c
 2179 0a5b DF0A0000 		.4byte	0xadf
 2180 0a5f 2F       		.uleb128 0x2f
 2181 0a60 6F717000 		.ascii	"oqp\000"
 2182 0a64 01       		.byte	0x1
 2183 0a65 9601     		.2byte	0x196
 2184 0a67 F3080000 		.4byte	0x8f3
 2185 0a6b CD050000 		.4byte	.LLST34
 2186 0a6f 2F       		.uleb128 0x2f
 2187 0a70 627000   		.ascii	"bp\000"
 2188 0a73 01       		.byte	0x1
 2189 0a74 9601     		.2byte	0x196
 2190 0a76 A3050000 		.4byte	0x5a3
 2191 0a7a 17060000 		.4byte	.LLST35
 2192 0a7e 2F       		.uleb128 0x2f
 2193 0a7f 6E00     		.ascii	"n\000"
 2194 0a81 01       		.byte	0x1
 2195 0a82 9701     		.2byte	0x197
 2196 0a84 2C000000 		.4byte	0x2c
 2197 0a88 40060000 		.4byte	.LLST36
 2198 0a8c 2E       		.uleb128 0x2e
 2199 0a8d 85030000 		.4byte	.LASF80
 2200 0a91 01       		.byte	0x1
 2201 0a92 9701     		.2byte	0x197
 2202 0a94 17010000 		.4byte	0x117
 2203 0a98 76060000 		.4byte	.LLST37
 2204 0a9c 33       		.uleb128 0x33
 2205 0a9d 6E667900 		.ascii	"nfy\000"
 2206 0aa1 01       		.byte	0x1
 2207 0aa2 9801     		.2byte	0x198
 2208 0aa4 65050000 		.4byte	0x565
 2209 0aa8 01       		.uleb128 0x1
 2210 0aa9 59       		.byte	0x59
 2211 0aaa 32       		.uleb128 0x32
 2212 0aab 7700     		.ascii	"w\000"
 2213 0aad 01       		.byte	0x1
 2214 0aae 9901     		.2byte	0x199
 2215 0ab0 2C000000 		.4byte	0x2c
 2216 0ab4 94060000 		.4byte	.LLST38
 2217 0ab8 2A       		.uleb128 0x2a
ARM GAS  C:\Users\jsyoon\AppData\Local\Temp\ccJfYAGa.s 			page 40


 2218 0ab9 42000000 		.4byte	.LVL77
 2219 0abd C80A0000 		.4byte	0xac8
 2220 0ac1 1D       		.uleb128 0x1d
 2221 0ac2 01       		.uleb128 0x1
 2222 0ac3 50       		.byte	0x50
 2223 0ac4 02       		.uleb128 0x2
 2224 0ac5 74       		.byte	0x74
 2225 0ac6 00       		.sleb128 0
 2226 0ac7 00       		.byte	0
 2227 0ac8 34       		.uleb128 0x34
 2228 0ac9 5A000000 		.4byte	.LVL82
 2229 0acd FC050000 		.4byte	0x5fc
 2230 0ad1 1D       		.uleb128 0x1d
 2231 0ad2 01       		.uleb128 0x1
 2232 0ad3 51       		.byte	0x51
 2233 0ad4 02       		.uleb128 0x2
 2234 0ad5 7A       		.byte	0x7a
 2235 0ad6 00       		.sleb128 0
 2236 0ad7 1D       		.uleb128 0x1d
 2237 0ad8 01       		.uleb128 0x1
 2238 0ad9 50       		.byte	0x50
 2239 0ada 02       		.uleb128 0x2
 2240 0adb 74       		.byte	0x74
 2241 0adc 00       		.sleb128 0
 2242 0add 00       		.byte	0
 2243 0ade 00       		.byte	0
 2244 0adf 35       		.uleb128 0x35
 2245 0ae0 D3040000 		.4byte	.LASF101
 2246 0ae4 0A       		.byte	0xa
 2247 0ae5 6F       		.byte	0x6f
 2248 0ae6 53040000 		.4byte	0x453
 2249 0aea 36       		.uleb128 0x36
 2250 0aeb EF040000 		.4byte	.LASF102
 2251 0aef 0A       		.byte	0xa
 2252 0af0 96       		.byte	0x96
 2253 0af1 01010000 		.4byte	0x101
 2254 0af5 040B0000 		.4byte	0xb04
 2255 0af9 12       		.uleb128 0x12
 2256 0afa D5000000 		.4byte	0xd5
 2257 0afe 12       		.uleb128 0x12
 2258 0aff 17010000 		.4byte	0x117
 2259 0b03 00       		.byte	0
 2260 0b04 37       		.uleb128 0x37
 2261 0b05 5D040000 		.4byte	.LASF103
 2262 0b09 0A       		.byte	0xa
 2263 0b0a 90       		.byte	0x90
 2264 0b0b 4B020000 		.4byte	0x24b
 2265 0b0f 12       		.uleb128 0x12
 2266 0b10 4B020000 		.4byte	0x24b
 2267 0b14 00       		.byte	0
 2268 0b15 00       		.byte	0
 2269              		.section	.debug_abbrev,"",%progbits
 2270              	.Ldebug_abbrev0:
 2271 0000 01       		.uleb128 0x1
 2272 0001 11       		.uleb128 0x11
 2273 0002 01       		.byte	0x1
 2274 0003 25       		.uleb128 0x25
ARM GAS  C:\Users\jsyoon\AppData\Local\Temp\ccJfYAGa.s 			page 41


 2275 0004 0E       		.uleb128 0xe
 2276 0005 13       		.uleb128 0x13
 2277 0006 0B       		.uleb128 0xb
 2278 0007 03       		.uleb128 0x3
 2279 0008 0E       		.uleb128 0xe
 2280 0009 1B       		.uleb128 0x1b
 2281 000a 0E       		.uleb128 0xe
 2282 000b 55       		.uleb128 0x55
 2283 000c 17       		.uleb128 0x17
 2284 000d 11       		.uleb128 0x11
 2285 000e 01       		.uleb128 0x1
 2286 000f 10       		.uleb128 0x10
 2287 0010 17       		.uleb128 0x17
 2288 0011 00       		.byte	0
 2289 0012 00       		.byte	0
 2290 0013 02       		.uleb128 0x2
 2291 0014 24       		.uleb128 0x24
 2292 0015 00       		.byte	0
 2293 0016 0B       		.uleb128 0xb
 2294 0017 0B       		.uleb128 0xb
 2295 0018 3E       		.uleb128 0x3e
 2296 0019 0B       		.uleb128 0xb
 2297 001a 03       		.uleb128 0x3
 2298 001b 08       		.uleb128 0x8
 2299 001c 00       		.byte	0
 2300 001d 00       		.byte	0
 2301 001e 03       		.uleb128 0x3
 2302 001f 16       		.uleb128 0x16
 2303 0020 00       		.byte	0
 2304 0021 03       		.uleb128 0x3
 2305 0022 0E       		.uleb128 0xe
 2306 0023 3A       		.uleb128 0x3a
 2307 0024 0B       		.uleb128 0xb
 2308 0025 3B       		.uleb128 0x3b
 2309 0026 0B       		.uleb128 0xb
 2310 0027 49       		.uleb128 0x49
 2311 0028 13       		.uleb128 0x13
 2312 0029 00       		.byte	0
 2313 002a 00       		.byte	0
 2314 002b 04       		.uleb128 0x4
 2315 002c 24       		.uleb128 0x24
 2316 002d 00       		.byte	0
 2317 002e 0B       		.uleb128 0xb
 2318 002f 0B       		.uleb128 0xb
 2319 0030 3E       		.uleb128 0x3e
 2320 0031 0B       		.uleb128 0xb
 2321 0032 03       		.uleb128 0x3
 2322 0033 0E       		.uleb128 0xe
 2323 0034 00       		.byte	0
 2324 0035 00       		.byte	0
 2325 0036 05       		.uleb128 0x5
 2326 0037 13       		.uleb128 0x13
 2327 0038 01       		.byte	0x1
 2328 0039 03       		.uleb128 0x3
 2329 003a 0E       		.uleb128 0xe
 2330 003b 0B       		.uleb128 0xb
 2331 003c 0B       		.uleb128 0xb
ARM GAS  C:\Users\jsyoon\AppData\Local\Temp\ccJfYAGa.s 			page 42


 2332 003d 3A       		.uleb128 0x3a
 2333 003e 0B       		.uleb128 0xb
 2334 003f 3B       		.uleb128 0x3b
 2335 0040 0B       		.uleb128 0xb
 2336 0041 01       		.uleb128 0x1
 2337 0042 13       		.uleb128 0x13
 2338 0043 00       		.byte	0
 2339 0044 00       		.byte	0
 2340 0045 06       		.uleb128 0x6
 2341 0046 0D       		.uleb128 0xd
 2342 0047 00       		.byte	0
 2343 0048 03       		.uleb128 0x3
 2344 0049 0E       		.uleb128 0xe
 2345 004a 3A       		.uleb128 0x3a
 2346 004b 0B       		.uleb128 0xb
 2347 004c 3B       		.uleb128 0x3b
 2348 004d 0B       		.uleb128 0xb
 2349 004e 49       		.uleb128 0x49
 2350 004f 13       		.uleb128 0x13
 2351 0050 38       		.uleb128 0x38
 2352 0051 0B       		.uleb128 0xb
 2353 0052 00       		.byte	0
 2354 0053 00       		.byte	0
 2355 0054 07       		.uleb128 0x7
 2356 0055 0D       		.uleb128 0xd
 2357 0056 00       		.byte	0
 2358 0057 03       		.uleb128 0x3
 2359 0058 08       		.uleb128 0x8
 2360 0059 3A       		.uleb128 0x3a
 2361 005a 0B       		.uleb128 0xb
 2362 005b 3B       		.uleb128 0x3b
 2363 005c 0B       		.uleb128 0xb
 2364 005d 49       		.uleb128 0x49
 2365 005e 13       		.uleb128 0x13
 2366 005f 38       		.uleb128 0x38
 2367 0060 0B       		.uleb128 0xb
 2368 0061 00       		.byte	0
 2369 0062 00       		.byte	0
 2370 0063 08       		.uleb128 0x8
 2371 0064 13       		.uleb128 0x13
 2372 0065 01       		.byte	0x1
 2373 0066 0B       		.uleb128 0xb
 2374 0067 0B       		.uleb128 0xb
 2375 0068 3A       		.uleb128 0x3a
 2376 0069 0B       		.uleb128 0xb
 2377 006a 3B       		.uleb128 0x3b
 2378 006b 0B       		.uleb128 0xb
 2379 006c 01       		.uleb128 0x1
 2380 006d 13       		.uleb128 0x13
 2381 006e 00       		.byte	0
 2382 006f 00       		.byte	0
 2383 0070 09       		.uleb128 0x9
 2384 0071 0F       		.uleb128 0xf
 2385 0072 00       		.byte	0
 2386 0073 0B       		.uleb128 0xb
 2387 0074 0B       		.uleb128 0xb
 2388 0075 49       		.uleb128 0x49
ARM GAS  C:\Users\jsyoon\AppData\Local\Temp\ccJfYAGa.s 			page 43


 2389 0076 13       		.uleb128 0x13
 2390 0077 00       		.byte	0
 2391 0078 00       		.byte	0
 2392 0079 0A       		.uleb128 0xa
 2393 007a 0F       		.uleb128 0xf
 2394 007b 00       		.byte	0
 2395 007c 0B       		.uleb128 0xb
 2396 007d 0B       		.uleb128 0xb
 2397 007e 00       		.byte	0
 2398 007f 00       		.byte	0
 2399 0080 0B       		.uleb128 0xb
 2400 0081 13       		.uleb128 0x13
 2401 0082 01       		.byte	0x1
 2402 0083 03       		.uleb128 0x3
 2403 0084 0E       		.uleb128 0xe
 2404 0085 0B       		.uleb128 0xb
 2405 0086 0B       		.uleb128 0xb
 2406 0087 3A       		.uleb128 0x3a
 2407 0088 0B       		.uleb128 0xb
 2408 0089 3B       		.uleb128 0x3b
 2409 008a 05       		.uleb128 0x5
 2410 008b 01       		.uleb128 0x1
 2411 008c 13       		.uleb128 0x13
 2412 008d 00       		.byte	0
 2413 008e 00       		.byte	0
 2414 008f 0C       		.uleb128 0xc
 2415 0090 0D       		.uleb128 0xd
 2416 0091 00       		.byte	0
 2417 0092 03       		.uleb128 0x3
 2418 0093 08       		.uleb128 0x8
 2419 0094 3A       		.uleb128 0x3a
 2420 0095 0B       		.uleb128 0xb
 2421 0096 3B       		.uleb128 0x3b
 2422 0097 05       		.uleb128 0x5
 2423 0098 49       		.uleb128 0x49
 2424 0099 13       		.uleb128 0x13
 2425 009a 38       		.uleb128 0x38
 2426 009b 0B       		.uleb128 0xb
 2427 009c 00       		.byte	0
 2428 009d 00       		.byte	0
 2429 009e 0D       		.uleb128 0xd
 2430 009f 35       		.uleb128 0x35
 2431 00a0 00       		.byte	0
 2432 00a1 49       		.uleb128 0x49
 2433 00a2 13       		.uleb128 0x13
 2434 00a3 00       		.byte	0
 2435 00a4 00       		.byte	0
 2436 00a5 0E       		.uleb128 0xe
 2437 00a6 17       		.uleb128 0x17
 2438 00a7 01       		.byte	0x1
 2439 00a8 0B       		.uleb128 0xb
 2440 00a9 0B       		.uleb128 0xb
 2441 00aa 3A       		.uleb128 0x3a
 2442 00ab 0B       		.uleb128 0xb
 2443 00ac 3B       		.uleb128 0x3b
 2444 00ad 0B       		.uleb128 0xb
 2445 00ae 01       		.uleb128 0x1
ARM GAS  C:\Users\jsyoon\AppData\Local\Temp\ccJfYAGa.s 			page 44


 2446 00af 13       		.uleb128 0x13
 2447 00b0 00       		.byte	0
 2448 00b1 00       		.byte	0
 2449 00b2 0F       		.uleb128 0xf
 2450 00b3 0D       		.uleb128 0xd
 2451 00b4 00       		.byte	0
 2452 00b5 03       		.uleb128 0x3
 2453 00b6 0E       		.uleb128 0xe
 2454 00b7 3A       		.uleb128 0x3a
 2455 00b8 0B       		.uleb128 0xb
 2456 00b9 3B       		.uleb128 0x3b
 2457 00ba 0B       		.uleb128 0xb
 2458 00bb 49       		.uleb128 0x49
 2459 00bc 13       		.uleb128 0x13
 2460 00bd 00       		.byte	0
 2461 00be 00       		.byte	0
 2462 00bf 10       		.uleb128 0x10
 2463 00c0 26       		.uleb128 0x26
 2464 00c1 00       		.byte	0
 2465 00c2 49       		.uleb128 0x49
 2466 00c3 13       		.uleb128 0x13
 2467 00c4 00       		.byte	0
 2468 00c5 00       		.byte	0
 2469 00c6 11       		.uleb128 0x11
 2470 00c7 15       		.uleb128 0x15
 2471 00c8 01       		.byte	0x1
 2472 00c9 27       		.uleb128 0x27
 2473 00ca 19       		.uleb128 0x19
 2474 00cb 01       		.uleb128 0x1
 2475 00cc 13       		.uleb128 0x13
 2476 00cd 00       		.byte	0
 2477 00ce 00       		.byte	0
 2478 00cf 12       		.uleb128 0x12
 2479 00d0 05       		.uleb128 0x5
 2480 00d1 00       		.byte	0
 2481 00d2 49       		.uleb128 0x49
 2482 00d3 13       		.uleb128 0x13
 2483 00d4 00       		.byte	0
 2484 00d5 00       		.byte	0
 2485 00d6 13       		.uleb128 0x13
 2486 00d7 2E       		.uleb128 0x2e
 2487 00d8 01       		.byte	0x1
 2488 00d9 03       		.uleb128 0x3
 2489 00da 0E       		.uleb128 0xe
 2490 00db 3A       		.uleb128 0x3a
 2491 00dc 0B       		.uleb128 0xb
 2492 00dd 3B       		.uleb128 0x3b
 2493 00de 0B       		.uleb128 0xb
 2494 00df 27       		.uleb128 0x27
 2495 00e0 19       		.uleb128 0x19
 2496 00e1 20       		.uleb128 0x20
 2497 00e2 0B       		.uleb128 0xb
 2498 00e3 01       		.uleb128 0x1
 2499 00e4 13       		.uleb128 0x13
 2500 00e5 00       		.byte	0
 2501 00e6 00       		.byte	0
 2502 00e7 14       		.uleb128 0x14
ARM GAS  C:\Users\jsyoon\AppData\Local\Temp\ccJfYAGa.s 			page 45


 2503 00e8 05       		.uleb128 0x5
 2504 00e9 00       		.byte	0
 2505 00ea 03       		.uleb128 0x3
 2506 00eb 08       		.uleb128 0x8
 2507 00ec 3A       		.uleb128 0x3a
 2508 00ed 0B       		.uleb128 0xb
 2509 00ee 3B       		.uleb128 0x3b
 2510 00ef 0B       		.uleb128 0xb
 2511 00f0 49       		.uleb128 0x49
 2512 00f1 13       		.uleb128 0x13
 2513 00f2 00       		.byte	0
 2514 00f3 00       		.byte	0
 2515 00f4 15       		.uleb128 0x15
 2516 00f5 2E       		.uleb128 0x2e
 2517 00f6 01       		.byte	0x1
 2518 00f7 03       		.uleb128 0x3
 2519 00f8 0E       		.uleb128 0xe
 2520 00f9 3A       		.uleb128 0x3a
 2521 00fa 0B       		.uleb128 0xb
 2522 00fb 3B       		.uleb128 0x3b
 2523 00fc 0B       		.uleb128 0xb
 2524 00fd 27       		.uleb128 0x27
 2525 00fe 19       		.uleb128 0x19
 2526 00ff 49       		.uleb128 0x49
 2527 0100 13       		.uleb128 0x13
 2528 0101 20       		.uleb128 0x20
 2529 0102 0B       		.uleb128 0xb
 2530 0103 01       		.uleb128 0x1
 2531 0104 13       		.uleb128 0x13
 2532 0105 00       		.byte	0
 2533 0106 00       		.byte	0
 2534 0107 16       		.uleb128 0x16
 2535 0108 34       		.uleb128 0x34
 2536 0109 00       		.byte	0
 2537 010a 03       		.uleb128 0x3
 2538 010b 08       		.uleb128 0x8
 2539 010c 3A       		.uleb128 0x3a
 2540 010d 0B       		.uleb128 0xb
 2541 010e 3B       		.uleb128 0x3b
 2542 010f 0B       		.uleb128 0xb
 2543 0110 49       		.uleb128 0x49
 2544 0111 13       		.uleb128 0x13
 2545 0112 00       		.byte	0
 2546 0113 00       		.byte	0
 2547 0114 17       		.uleb128 0x17
 2548 0115 2E       		.uleb128 0x2e
 2549 0116 01       		.byte	0x1
 2550 0117 03       		.uleb128 0x3
 2551 0118 0E       		.uleb128 0xe
 2552 0119 3A       		.uleb128 0x3a
 2553 011a 0B       		.uleb128 0xb
 2554 011b 3B       		.uleb128 0x3b
 2555 011c 0B       		.uleb128 0xb
 2556 011d 27       		.uleb128 0x27
 2557 011e 19       		.uleb128 0x19
 2558 011f 49       		.uleb128 0x49
 2559 0120 13       		.uleb128 0x13
ARM GAS  C:\Users\jsyoon\AppData\Local\Temp\ccJfYAGa.s 			page 46


 2560 0121 11       		.uleb128 0x11
 2561 0122 01       		.uleb128 0x1
 2562 0123 12       		.uleb128 0x12
 2563 0124 06       		.uleb128 0x6
 2564 0125 40       		.uleb128 0x40
 2565 0126 18       		.uleb128 0x18
 2566 0127 9742     		.uleb128 0x2117
 2567 0129 19       		.uleb128 0x19
 2568 012a 01       		.uleb128 0x1
 2569 012b 13       		.uleb128 0x13
 2570 012c 00       		.byte	0
 2571 012d 00       		.byte	0
 2572 012e 18       		.uleb128 0x18
 2573 012f 05       		.uleb128 0x5
 2574 0130 00       		.byte	0
 2575 0131 03       		.uleb128 0x3
 2576 0132 08       		.uleb128 0x8
 2577 0133 3A       		.uleb128 0x3a
 2578 0134 0B       		.uleb128 0xb
 2579 0135 3B       		.uleb128 0x3b
 2580 0136 0B       		.uleb128 0xb
 2581 0137 49       		.uleb128 0x49
 2582 0138 13       		.uleb128 0x13
 2583 0139 02       		.uleb128 0x2
 2584 013a 17       		.uleb128 0x17
 2585 013b 00       		.byte	0
 2586 013c 00       		.byte	0
 2587 013d 19       		.uleb128 0x19
 2588 013e 05       		.uleb128 0x5
 2589 013f 00       		.byte	0
 2590 0140 03       		.uleb128 0x3
 2591 0141 0E       		.uleb128 0xe
 2592 0142 3A       		.uleb128 0x3a
 2593 0143 0B       		.uleb128 0xb
 2594 0144 3B       		.uleb128 0x3b
 2595 0145 0B       		.uleb128 0xb
 2596 0146 49       		.uleb128 0x49
 2597 0147 13       		.uleb128 0x13
 2598 0148 02       		.uleb128 0x2
 2599 0149 17       		.uleb128 0x17
 2600 014a 00       		.byte	0
 2601 014b 00       		.byte	0
 2602 014c 1A       		.uleb128 0x1a
 2603 014d 1D       		.uleb128 0x1d
 2604 014e 01       		.byte	0x1
 2605 014f 31       		.uleb128 0x31
 2606 0150 13       		.uleb128 0x13
 2607 0151 52       		.uleb128 0x52
 2608 0152 01       		.uleb128 0x1
 2609 0153 55       		.uleb128 0x55
 2610 0154 17       		.uleb128 0x17
 2611 0155 58       		.uleb128 0x58
 2612 0156 0B       		.uleb128 0xb
 2613 0157 59       		.uleb128 0x59
 2614 0158 0B       		.uleb128 0xb
 2615 0159 01       		.uleb128 0x1
 2616 015a 13       		.uleb128 0x13
ARM GAS  C:\Users\jsyoon\AppData\Local\Temp\ccJfYAGa.s 			page 47


 2617 015b 00       		.byte	0
 2618 015c 00       		.byte	0
 2619 015d 1B       		.uleb128 0x1b
 2620 015e 05       		.uleb128 0x5
 2621 015f 00       		.byte	0
 2622 0160 31       		.uleb128 0x31
 2623 0161 13       		.uleb128 0x13
 2624 0162 02       		.uleb128 0x2
 2625 0163 17       		.uleb128 0x17
 2626 0164 00       		.byte	0
 2627 0165 00       		.byte	0
 2628 0166 1C       		.uleb128 0x1c
 2629 0167 898201   		.uleb128 0x4109
 2630 016a 01       		.byte	0x1
 2631 016b 11       		.uleb128 0x11
 2632 016c 01       		.uleb128 0x1
 2633 016d 9542     		.uleb128 0x2115
 2634 016f 19       		.uleb128 0x19
 2635 0170 31       		.uleb128 0x31
 2636 0171 13       		.uleb128 0x13
 2637 0172 00       		.byte	0
 2638 0173 00       		.byte	0
 2639 0174 1D       		.uleb128 0x1d
 2640 0175 8A8201   		.uleb128 0x410a
 2641 0178 00       		.byte	0
 2642 0179 02       		.uleb128 0x2
 2643 017a 18       		.uleb128 0x18
 2644 017b 9142     		.uleb128 0x2111
 2645 017d 18       		.uleb128 0x18
 2646 017e 00       		.byte	0
 2647 017f 00       		.byte	0
 2648 0180 1E       		.uleb128 0x1e
 2649 0181 2E       		.uleb128 0x2e
 2650 0182 01       		.byte	0x1
 2651 0183 3F       		.uleb128 0x3f
 2652 0184 19       		.uleb128 0x19
 2653 0185 03       		.uleb128 0x3
 2654 0186 0E       		.uleb128 0xe
 2655 0187 3A       		.uleb128 0x3a
 2656 0188 0B       		.uleb128 0xb
 2657 0189 3B       		.uleb128 0x3b
 2658 018a 0B       		.uleb128 0xb
 2659 018b 27       		.uleb128 0x27
 2660 018c 19       		.uleb128 0x19
 2661 018d 11       		.uleb128 0x11
 2662 018e 01       		.uleb128 0x1
 2663 018f 12       		.uleb128 0x12
 2664 0190 06       		.uleb128 0x6
 2665 0191 40       		.uleb128 0x40
 2666 0192 18       		.uleb128 0x18
 2667 0193 9742     		.uleb128 0x2117
 2668 0195 19       		.uleb128 0x19
 2669 0196 01       		.uleb128 0x1
 2670 0197 13       		.uleb128 0x13
 2671 0198 00       		.byte	0
 2672 0199 00       		.byte	0
 2673 019a 1F       		.uleb128 0x1f
ARM GAS  C:\Users\jsyoon\AppData\Local\Temp\ccJfYAGa.s 			page 48


 2674 019b 05       		.uleb128 0x5
 2675 019c 00       		.byte	0
 2676 019d 03       		.uleb128 0x3
 2677 019e 08       		.uleb128 0x8
 2678 019f 3A       		.uleb128 0x3a
 2679 01a0 0B       		.uleb128 0xb
 2680 01a1 3B       		.uleb128 0x3b
 2681 01a2 0B       		.uleb128 0xb
 2682 01a3 49       		.uleb128 0x49
 2683 01a4 13       		.uleb128 0x13
 2684 01a5 02       		.uleb128 0x2
 2685 01a6 18       		.uleb128 0x18
 2686 01a7 00       		.byte	0
 2687 01a8 00       		.byte	0
 2688 01a9 20       		.uleb128 0x20
 2689 01aa 05       		.uleb128 0x5
 2690 01ab 00       		.byte	0
 2691 01ac 03       		.uleb128 0x3
 2692 01ad 0E       		.uleb128 0xe
 2693 01ae 3A       		.uleb128 0x3a
 2694 01af 0B       		.uleb128 0xb
 2695 01b0 3B       		.uleb128 0x3b
 2696 01b1 0B       		.uleb128 0xb
 2697 01b2 49       		.uleb128 0x49
 2698 01b3 13       		.uleb128 0x13
 2699 01b4 02       		.uleb128 0x2
 2700 01b5 18       		.uleb128 0x18
 2701 01b6 00       		.byte	0
 2702 01b7 00       		.byte	0
 2703 01b8 21       		.uleb128 0x21
 2704 01b9 1D       		.uleb128 0x1d
 2705 01ba 01       		.byte	0x1
 2706 01bb 31       		.uleb128 0x31
 2707 01bc 13       		.uleb128 0x13
 2708 01bd 11       		.uleb128 0x11
 2709 01be 01       		.uleb128 0x1
 2710 01bf 12       		.uleb128 0x12
 2711 01c0 06       		.uleb128 0x6
 2712 01c1 58       		.uleb128 0x58
 2713 01c2 0B       		.uleb128 0xb
 2714 01c3 59       		.uleb128 0x59
 2715 01c4 0B       		.uleb128 0xb
 2716 01c5 01       		.uleb128 0x1
 2717 01c6 13       		.uleb128 0x13
 2718 01c7 00       		.byte	0
 2719 01c8 00       		.byte	0
 2720 01c9 22       		.uleb128 0x22
 2721 01ca 0B       		.uleb128 0xb
 2722 01cb 01       		.byte	0x1
 2723 01cc 11       		.uleb128 0x11
 2724 01cd 01       		.uleb128 0x1
 2725 01ce 12       		.uleb128 0x12
 2726 01cf 06       		.uleb128 0x6
 2727 01d0 00       		.byte	0
 2728 01d1 00       		.byte	0
 2729 01d2 23       		.uleb128 0x23
 2730 01d3 34       		.uleb128 0x34
ARM GAS  C:\Users\jsyoon\AppData\Local\Temp\ccJfYAGa.s 			page 49


 2731 01d4 00       		.byte	0
 2732 01d5 31       		.uleb128 0x31
 2733 01d6 13       		.uleb128 0x13
 2734 01d7 02       		.uleb128 0x2
 2735 01d8 17       		.uleb128 0x17
 2736 01d9 00       		.byte	0
 2737 01da 00       		.byte	0
 2738 01db 24       		.uleb128 0x24
 2739 01dc 898201   		.uleb128 0x4109
 2740 01df 00       		.byte	0
 2741 01e0 11       		.uleb128 0x11
 2742 01e1 01       		.uleb128 0x1
 2743 01e2 31       		.uleb128 0x31
 2744 01e3 13       		.uleb128 0x13
 2745 01e4 00       		.byte	0
 2746 01e5 00       		.byte	0
 2747 01e6 25       		.uleb128 0x25
 2748 01e7 2E       		.uleb128 0x2e
 2749 01e8 01       		.byte	0x1
 2750 01e9 3F       		.uleb128 0x3f
 2751 01ea 19       		.uleb128 0x19
 2752 01eb 03       		.uleb128 0x3
 2753 01ec 0E       		.uleb128 0xe
 2754 01ed 3A       		.uleb128 0x3a
 2755 01ee 0B       		.uleb128 0xb
 2756 01ef 3B       		.uleb128 0x3b
 2757 01f0 0B       		.uleb128 0xb
 2758 01f1 27       		.uleb128 0x27
 2759 01f2 19       		.uleb128 0x19
 2760 01f3 49       		.uleb128 0x49
 2761 01f4 13       		.uleb128 0x13
 2762 01f5 11       		.uleb128 0x11
 2763 01f6 01       		.uleb128 0x1
 2764 01f7 12       		.uleb128 0x12
 2765 01f8 06       		.uleb128 0x6
 2766 01f9 40       		.uleb128 0x40
 2767 01fa 18       		.uleb128 0x18
 2768 01fb 9742     		.uleb128 0x2117
 2769 01fd 19       		.uleb128 0x19
 2770 01fe 01       		.uleb128 0x1
 2771 01ff 13       		.uleb128 0x13
 2772 0200 00       		.byte	0
 2773 0201 00       		.byte	0
 2774 0202 26       		.uleb128 0x26
 2775 0203 34       		.uleb128 0x34
 2776 0204 00       		.byte	0
 2777 0205 03       		.uleb128 0x3
 2778 0206 08       		.uleb128 0x8
 2779 0207 3A       		.uleb128 0x3a
 2780 0208 0B       		.uleb128 0xb
 2781 0209 3B       		.uleb128 0x3b
 2782 020a 0B       		.uleb128 0xb
 2783 020b 49       		.uleb128 0x49
 2784 020c 13       		.uleb128 0x13
 2785 020d 02       		.uleb128 0x2
 2786 020e 17       		.uleb128 0x17
 2787 020f 00       		.byte	0
ARM GAS  C:\Users\jsyoon\AppData\Local\Temp\ccJfYAGa.s 			page 50


 2788 0210 00       		.byte	0
 2789 0211 27       		.uleb128 0x27
 2790 0212 0B       		.uleb128 0xb
 2791 0213 01       		.byte	0x1
 2792 0214 55       		.uleb128 0x55
 2793 0215 17       		.uleb128 0x17
 2794 0216 01       		.uleb128 0x1
 2795 0217 13       		.uleb128 0x13
 2796 0218 00       		.byte	0
 2797 0219 00       		.byte	0
 2798 021a 28       		.uleb128 0x28
 2799 021b 898201   		.uleb128 0x4109
 2800 021e 01       		.byte	0x1
 2801 021f 11       		.uleb128 0x11
 2802 0220 01       		.uleb128 0x1
 2803 0221 00       		.byte	0
 2804 0222 00       		.byte	0
 2805 0223 29       		.uleb128 0x29
 2806 0224 34       		.uleb128 0x34
 2807 0225 00       		.byte	0
 2808 0226 03       		.uleb128 0x3
 2809 0227 08       		.uleb128 0x8
 2810 0228 3A       		.uleb128 0x3a
 2811 0229 0B       		.uleb128 0xb
 2812 022a 3B       		.uleb128 0x3b
 2813 022b 0B       		.uleb128 0xb
 2814 022c 49       		.uleb128 0x49
 2815 022d 13       		.uleb128 0x13
 2816 022e 02       		.uleb128 0x2
 2817 022f 18       		.uleb128 0x18
 2818 0230 00       		.byte	0
 2819 0231 00       		.byte	0
 2820 0232 2A       		.uleb128 0x2a
 2821 0233 898201   		.uleb128 0x4109
 2822 0236 01       		.byte	0x1
 2823 0237 11       		.uleb128 0x11
 2824 0238 01       		.uleb128 0x1
 2825 0239 01       		.uleb128 0x1
 2826 023a 13       		.uleb128 0x13
 2827 023b 00       		.byte	0
 2828 023c 00       		.byte	0
 2829 023d 2B       		.uleb128 0x2b
 2830 023e 2E       		.uleb128 0x2e
 2831 023f 01       		.byte	0x1
 2832 0240 3F       		.uleb128 0x3f
 2833 0241 19       		.uleb128 0x19
 2834 0242 03       		.uleb128 0x3
 2835 0243 0E       		.uleb128 0xe
 2836 0244 3A       		.uleb128 0x3a
 2837 0245 0B       		.uleb128 0xb
 2838 0246 3B       		.uleb128 0x3b
 2839 0247 05       		.uleb128 0x5
 2840 0248 27       		.uleb128 0x27
 2841 0249 19       		.uleb128 0x19
 2842 024a 11       		.uleb128 0x11
 2843 024b 01       		.uleb128 0x1
 2844 024c 12       		.uleb128 0x12
ARM GAS  C:\Users\jsyoon\AppData\Local\Temp\ccJfYAGa.s 			page 51


 2845 024d 06       		.uleb128 0x6
 2846 024e 40       		.uleb128 0x40
 2847 024f 18       		.uleb128 0x18
 2848 0250 9742     		.uleb128 0x2117
 2849 0252 19       		.uleb128 0x19
 2850 0253 01       		.uleb128 0x1
 2851 0254 13       		.uleb128 0x13
 2852 0255 00       		.byte	0
 2853 0256 00       		.byte	0
 2854 0257 2C       		.uleb128 0x2c
 2855 0258 05       		.uleb128 0x5
 2856 0259 00       		.byte	0
 2857 025a 03       		.uleb128 0x3
 2858 025b 08       		.uleb128 0x8
 2859 025c 3A       		.uleb128 0x3a
 2860 025d 0B       		.uleb128 0xb
 2861 025e 3B       		.uleb128 0x3b
 2862 025f 05       		.uleb128 0x5
 2863 0260 49       		.uleb128 0x49
 2864 0261 13       		.uleb128 0x13
 2865 0262 02       		.uleb128 0x2
 2866 0263 18       		.uleb128 0x18
 2867 0264 00       		.byte	0
 2868 0265 00       		.byte	0
 2869 0266 2D       		.uleb128 0x2d
 2870 0267 05       		.uleb128 0x5
 2871 0268 00       		.byte	0
 2872 0269 03       		.uleb128 0x3
 2873 026a 0E       		.uleb128 0xe
 2874 026b 3A       		.uleb128 0x3a
 2875 026c 0B       		.uleb128 0xb
 2876 026d 3B       		.uleb128 0x3b
 2877 026e 05       		.uleb128 0x5
 2878 026f 49       		.uleb128 0x49
 2879 0270 13       		.uleb128 0x13
 2880 0271 02       		.uleb128 0x2
 2881 0272 18       		.uleb128 0x18
 2882 0273 00       		.byte	0
 2883 0274 00       		.byte	0
 2884 0275 2E       		.uleb128 0x2e
 2885 0276 05       		.uleb128 0x5
 2886 0277 00       		.byte	0
 2887 0278 03       		.uleb128 0x3
 2888 0279 0E       		.uleb128 0xe
 2889 027a 3A       		.uleb128 0x3a
 2890 027b 0B       		.uleb128 0xb
 2891 027c 3B       		.uleb128 0x3b
 2892 027d 05       		.uleb128 0x5
 2893 027e 49       		.uleb128 0x49
 2894 027f 13       		.uleb128 0x13
 2895 0280 02       		.uleb128 0x2
 2896 0281 17       		.uleb128 0x17
 2897 0282 00       		.byte	0
 2898 0283 00       		.byte	0
 2899 0284 2F       		.uleb128 0x2f
 2900 0285 05       		.uleb128 0x5
 2901 0286 00       		.byte	0
ARM GAS  C:\Users\jsyoon\AppData\Local\Temp\ccJfYAGa.s 			page 52


 2902 0287 03       		.uleb128 0x3
 2903 0288 08       		.uleb128 0x8
 2904 0289 3A       		.uleb128 0x3a
 2905 028a 0B       		.uleb128 0xb
 2906 028b 3B       		.uleb128 0x3b
 2907 028c 05       		.uleb128 0x5
 2908 028d 49       		.uleb128 0x49
 2909 028e 13       		.uleb128 0x13
 2910 028f 02       		.uleb128 0x2
 2911 0290 17       		.uleb128 0x17
 2912 0291 00       		.byte	0
 2913 0292 00       		.byte	0
 2914 0293 30       		.uleb128 0x30
 2915 0294 1D       		.uleb128 0x1d
 2916 0295 01       		.byte	0x1
 2917 0296 31       		.uleb128 0x31
 2918 0297 13       		.uleb128 0x13
 2919 0298 11       		.uleb128 0x11
 2920 0299 01       		.uleb128 0x1
 2921 029a 12       		.uleb128 0x12
 2922 029b 06       		.uleb128 0x6
 2923 029c 58       		.uleb128 0x58
 2924 029d 0B       		.uleb128 0xb
 2925 029e 59       		.uleb128 0x59
 2926 029f 05       		.uleb128 0x5
 2927 02a0 01       		.uleb128 0x1
 2928 02a1 13       		.uleb128 0x13
 2929 02a2 00       		.byte	0
 2930 02a3 00       		.byte	0
 2931 02a4 31       		.uleb128 0x31
 2932 02a5 2E       		.uleb128 0x2e
 2933 02a6 01       		.byte	0x1
 2934 02a7 3F       		.uleb128 0x3f
 2935 02a8 19       		.uleb128 0x19
 2936 02a9 03       		.uleb128 0x3
 2937 02aa 0E       		.uleb128 0xe
 2938 02ab 3A       		.uleb128 0x3a
 2939 02ac 0B       		.uleb128 0xb
 2940 02ad 3B       		.uleb128 0x3b
 2941 02ae 05       		.uleb128 0x5
 2942 02af 27       		.uleb128 0x27
 2943 02b0 19       		.uleb128 0x19
 2944 02b1 49       		.uleb128 0x49
 2945 02b2 13       		.uleb128 0x13
 2946 02b3 11       		.uleb128 0x11
 2947 02b4 01       		.uleb128 0x1
 2948 02b5 12       		.uleb128 0x12
 2949 02b6 06       		.uleb128 0x6
 2950 02b7 40       		.uleb128 0x40
 2951 02b8 18       		.uleb128 0x18
 2952 02b9 9742     		.uleb128 0x2117
 2953 02bb 19       		.uleb128 0x19
 2954 02bc 01       		.uleb128 0x1
 2955 02bd 13       		.uleb128 0x13
 2956 02be 00       		.byte	0
 2957 02bf 00       		.byte	0
 2958 02c0 32       		.uleb128 0x32
ARM GAS  C:\Users\jsyoon\AppData\Local\Temp\ccJfYAGa.s 			page 53


 2959 02c1 34       		.uleb128 0x34
 2960 02c2 00       		.byte	0
 2961 02c3 03       		.uleb128 0x3
 2962 02c4 08       		.uleb128 0x8
 2963 02c5 3A       		.uleb128 0x3a
 2964 02c6 0B       		.uleb128 0xb
 2965 02c7 3B       		.uleb128 0x3b
 2966 02c8 05       		.uleb128 0x5
 2967 02c9 49       		.uleb128 0x49
 2968 02ca 13       		.uleb128 0x13
 2969 02cb 02       		.uleb128 0x2
 2970 02cc 17       		.uleb128 0x17
 2971 02cd 00       		.byte	0
 2972 02ce 00       		.byte	0
 2973 02cf 33       		.uleb128 0x33
 2974 02d0 34       		.uleb128 0x34
 2975 02d1 00       		.byte	0
 2976 02d2 03       		.uleb128 0x3
 2977 02d3 08       		.uleb128 0x8
 2978 02d4 3A       		.uleb128 0x3a
 2979 02d5 0B       		.uleb128 0xb
 2980 02d6 3B       		.uleb128 0x3b
 2981 02d7 05       		.uleb128 0x5
 2982 02d8 49       		.uleb128 0x49
 2983 02d9 13       		.uleb128 0x13
 2984 02da 02       		.uleb128 0x2
 2985 02db 18       		.uleb128 0x18
 2986 02dc 00       		.byte	0
 2987 02dd 00       		.byte	0
 2988 02de 34       		.uleb128 0x34
 2989 02df 898201   		.uleb128 0x4109
 2990 02e2 01       		.byte	0x1
 2991 02e3 11       		.uleb128 0x11
 2992 02e4 01       		.uleb128 0x1
 2993 02e5 31       		.uleb128 0x31
 2994 02e6 13       		.uleb128 0x13
 2995 02e7 00       		.byte	0
 2996 02e8 00       		.byte	0
 2997 02e9 35       		.uleb128 0x35
 2998 02ea 34       		.uleb128 0x34
 2999 02eb 00       		.byte	0
 3000 02ec 03       		.uleb128 0x3
 3001 02ed 0E       		.uleb128 0xe
 3002 02ee 3A       		.uleb128 0x3a
 3003 02ef 0B       		.uleb128 0xb
 3004 02f0 3B       		.uleb128 0x3b
 3005 02f1 0B       		.uleb128 0xb
 3006 02f2 49       		.uleb128 0x49
 3007 02f3 13       		.uleb128 0x13
 3008 02f4 3F       		.uleb128 0x3f
 3009 02f5 19       		.uleb128 0x19
 3010 02f6 3C       		.uleb128 0x3c
 3011 02f7 19       		.uleb128 0x19
 3012 02f8 00       		.byte	0
 3013 02f9 00       		.byte	0
 3014 02fa 36       		.uleb128 0x36
 3015 02fb 2E       		.uleb128 0x2e
ARM GAS  C:\Users\jsyoon\AppData\Local\Temp\ccJfYAGa.s 			page 54


 3016 02fc 01       		.byte	0x1
 3017 02fd 3F       		.uleb128 0x3f
 3018 02fe 19       		.uleb128 0x19
 3019 02ff 03       		.uleb128 0x3
 3020 0300 0E       		.uleb128 0xe
 3021 0301 3A       		.uleb128 0x3a
 3022 0302 0B       		.uleb128 0xb
 3023 0303 3B       		.uleb128 0x3b
 3024 0304 0B       		.uleb128 0xb
 3025 0305 27       		.uleb128 0x27
 3026 0306 19       		.uleb128 0x19
 3027 0307 49       		.uleb128 0x49
 3028 0308 13       		.uleb128 0x13
 3029 0309 3C       		.uleb128 0x3c
 3030 030a 19       		.uleb128 0x19
 3031 030b 01       		.uleb128 0x1
 3032 030c 13       		.uleb128 0x13
 3033 030d 00       		.byte	0
 3034 030e 00       		.byte	0
 3035 030f 37       		.uleb128 0x37
 3036 0310 2E       		.uleb128 0x2e
 3037 0311 01       		.byte	0x1
 3038 0312 3F       		.uleb128 0x3f
 3039 0313 19       		.uleb128 0x19
 3040 0314 03       		.uleb128 0x3
 3041 0315 0E       		.uleb128 0xe
 3042 0316 3A       		.uleb128 0x3a
 3043 0317 0B       		.uleb128 0xb
 3044 0318 3B       		.uleb128 0x3b
 3045 0319 0B       		.uleb128 0xb
 3046 031a 27       		.uleb128 0x27
 3047 031b 19       		.uleb128 0x19
 3048 031c 49       		.uleb128 0x49
 3049 031d 13       		.uleb128 0x13
 3050 031e 3C       		.uleb128 0x3c
 3051 031f 19       		.uleb128 0x19
 3052 0320 00       		.byte	0
 3053 0321 00       		.byte	0
 3054 0322 00       		.byte	0
 3055              		.section	.debug_loc,"",%progbits
 3056              	.Ldebug_loc0:
 3057              	.LLST0:
 3058 0000 00000000 		.4byte	.LVL0
 3059 0004 10000000 		.4byte	.LVL2
 3060 0008 0100     		.2byte	0x1
 3061 000a 50       		.byte	0x50
 3062 000b 10000000 		.4byte	.LVL2
 3063 000f 1F000000 		.4byte	.LVL3-1
 3064 0013 0100     		.2byte	0x1
 3065 0015 52       		.byte	0x52
 3066 0016 1F000000 		.4byte	.LVL3-1
 3067 001a 20000000 		.4byte	.LVL3
 3068 001e 0400     		.2byte	0x4
 3069 0020 F3       		.byte	0xf3
 3070 0021 01       		.uleb128 0x1
 3071 0022 50       		.byte	0x50
 3072 0023 9F       		.byte	0x9f
ARM GAS  C:\Users\jsyoon\AppData\Local\Temp\ccJfYAGa.s 			page 55


 3073 0024 20000000 		.4byte	.LVL3
 3074 0028 24000000 		.4byte	.LVL4
 3075 002c 0100     		.2byte	0x1
 3076 002e 50       		.byte	0x50
 3077 002f 24000000 		.4byte	.LVL4
 3078 0033 30000000 		.4byte	.LFE7
 3079 0037 0100     		.2byte	0x1
 3080 0039 52       		.byte	0x52
 3081 003a 00000000 		.4byte	0
 3082 003e 00000000 		.4byte	0
 3083              	.LLST1:
 3084 0042 00000000 		.4byte	.LVL0
 3085 0046 1F000000 		.4byte	.LVL3-1
 3086 004a 0100     		.2byte	0x1
 3087 004c 51       		.byte	0x51
 3088 004d 1F000000 		.4byte	.LVL3-1
 3089 0051 20000000 		.4byte	.LVL3
 3090 0055 0400     		.2byte	0x4
 3091 0057 F3       		.byte	0xf3
 3092 0058 01       		.uleb128 0x1
 3093 0059 51       		.byte	0x51
 3094 005a 9F       		.byte	0x9f
 3095 005b 20000000 		.4byte	.LVL3
 3096 005f 30000000 		.4byte	.LFE7
 3097 0063 0100     		.2byte	0x1
 3098 0065 51       		.byte	0x51
 3099 0066 00000000 		.4byte	0
 3100 006a 00000000 		.4byte	0
 3101              	.LLST2:
 3102 006e 0C000000 		.4byte	.LVL1
 3103 0072 10000000 		.4byte	.LVL2
 3104 0076 0100     		.2byte	0x1
 3105 0078 50       		.byte	0x50
 3106 0079 10000000 		.4byte	.LVL2
 3107 007d 1F000000 		.4byte	.LVL3-1
 3108 0081 0100     		.2byte	0x1
 3109 0083 52       		.byte	0x52
 3110 0084 1F000000 		.4byte	.LVL3-1
 3111 0088 20000000 		.4byte	.LVL3
 3112 008c 0400     		.2byte	0x4
 3113 008e F3       		.byte	0xf3
 3114 008f 01       		.uleb128 0x1
 3115 0090 50       		.byte	0x50
 3116 0091 9F       		.byte	0x9f
 3117 0092 00000000 		.4byte	0
 3118 0096 00000000 		.4byte	0
 3119              	.LLST3:
 3120 009a 0C000000 		.4byte	.LVL1
 3121 009e 1F000000 		.4byte	.LVL3-1
 3122 00a2 0100     		.2byte	0x1
 3123 00a4 53       		.byte	0x53
 3124 00a5 00000000 		.4byte	0
 3125 00a9 00000000 		.4byte	0
 3126              	.LLST4:
 3127 00ad 00000000 		.4byte	.LVL5
 3128 00b1 0A000000 		.4byte	.LVL6
 3129 00b5 0100     		.2byte	0x1
ARM GAS  C:\Users\jsyoon\AppData\Local\Temp\ccJfYAGa.s 			page 56


 3130 00b7 52       		.byte	0x52
 3131 00b8 0A000000 		.4byte	.LVL6
 3132 00bc 1E000000 		.4byte	.LFE8
 3133 00c0 0400     		.2byte	0x4
 3134 00c2 F3       		.byte	0xf3
 3135 00c3 01       		.uleb128 0x1
 3136 00c4 52       		.byte	0x52
 3137 00c5 9F       		.byte	0x9f
 3138 00c6 00000000 		.4byte	0
 3139 00ca 00000000 		.4byte	0
 3140              	.LLST5:
 3141 00ce 00000000 		.4byte	.LVL5
 3142 00d2 1C000000 		.4byte	.LVL7
 3143 00d6 0200     		.2byte	0x2
 3144 00d8 91       		.byte	0x91
 3145 00d9 00       		.sleb128 0
 3146 00da 1C000000 		.4byte	.LVL7
 3147 00de 1E000000 		.4byte	.LFE8
 3148 00e2 0200     		.2byte	0x2
 3149 00e4 7D       		.byte	0x7d
 3150 00e5 00       		.sleb128 0
 3151 00e6 00000000 		.4byte	0
 3152 00ea 00000000 		.4byte	0
 3153              	.LLST6:
 3154 00ee 00000000 		.4byte	.LVL8
 3155 00f2 06000000 		.4byte	.LVL9
 3156 00f6 0100     		.2byte	0x1
 3157 00f8 50       		.byte	0x50
 3158 00f9 06000000 		.4byte	.LVL9
 3159 00fd 2C000000 		.4byte	.LFE9
 3160 0101 0100     		.2byte	0x1
 3161 0103 54       		.byte	0x54
 3162 0104 00000000 		.4byte	0
 3163 0108 00000000 		.4byte	0
 3164              	.LLST7:
 3165 010c 18000000 		.4byte	.LVL10
 3166 0110 2A000000 		.4byte	.LVL12
 3167 0114 0100     		.2byte	0x1
 3168 0116 54       		.byte	0x54
 3169 0117 00000000 		.4byte	0
 3170 011b 00000000 		.4byte	0
 3171              	.LLST8:
 3172 011f 18000000 		.4byte	.LVL10
 3173 0123 21000000 		.4byte	.LVL11-1
 3174 0127 0100     		.2byte	0x1
 3175 0129 50       		.byte	0x50
 3176 012a 00000000 		.4byte	0
 3177 012e 00000000 		.4byte	0
 3178              	.LLST9:
 3179 0132 00000000 		.4byte	.LVL13
 3180 0136 06000000 		.4byte	.LVL14
 3181 013a 0100     		.2byte	0x1
 3182 013c 50       		.byte	0x50
 3183 013d 06000000 		.4byte	.LVL14
 3184 0141 2F000000 		.4byte	.LVL18-1
 3185 0145 0100     		.2byte	0x1
 3186 0147 53       		.byte	0x53
ARM GAS  C:\Users\jsyoon\AppData\Local\Temp\ccJfYAGa.s 			page 57


 3187 0148 2F000000 		.4byte	.LVL18-1
 3188 014c 38000000 		.4byte	.LVL19
 3189 0150 0400     		.2byte	0x4
 3190 0152 F3       		.byte	0xf3
 3191 0153 01       		.uleb128 0x1
 3192 0154 50       		.byte	0x50
 3193 0155 9F       		.byte	0x9f
 3194 0156 38000000 		.4byte	.LVL19
 3195 015a 50000000 		.4byte	.LFE10
 3196 015e 0100     		.2byte	0x1
 3197 0160 53       		.byte	0x53
 3198 0161 00000000 		.4byte	0
 3199 0165 00000000 		.4byte	0
 3200              	.LLST10:
 3201 0169 00000000 		.4byte	.LVL13
 3202 016d 1A000000 		.4byte	.LVL15
 3203 0171 0100     		.2byte	0x1
 3204 0173 51       		.byte	0x51
 3205 0174 1A000000 		.4byte	.LVL15
 3206 0178 1C000000 		.4byte	.LVL16
 3207 017c 0200     		.2byte	0x2
 3208 017e 72       		.byte	0x72
 3209 017f 00       		.sleb128 0
 3210 0180 1C000000 		.4byte	.LVL16
 3211 0184 26000000 		.4byte	.LVL17
 3212 0188 0200     		.2byte	0x2
 3213 018a 74       		.byte	0x74
 3214 018b 7F       		.sleb128 -1
 3215 018c 26000000 		.4byte	.LVL17
 3216 0190 38000000 		.4byte	.LVL19
 3217 0194 0400     		.2byte	0x4
 3218 0196 F3       		.byte	0xf3
 3219 0197 01       		.uleb128 0x1
 3220 0198 51       		.byte	0x51
 3221 0199 9F       		.byte	0x9f
 3222 019a 38000000 		.4byte	.LVL19
 3223 019e 3E000000 		.4byte	.LVL20
 3224 01a2 0200     		.2byte	0x2
 3225 01a4 74       		.byte	0x74
 3226 01a5 7F       		.sleb128 -1
 3227 01a6 3E000000 		.4byte	.LVL20
 3228 01aa 46000000 		.4byte	.LVL21
 3229 01ae 0400     		.2byte	0x4
 3230 01b0 F3       		.byte	0xf3
 3231 01b1 01       		.uleb128 0x1
 3232 01b2 51       		.byte	0x51
 3233 01b3 9F       		.byte	0x9f
 3234 01b4 46000000 		.4byte	.LVL21
 3235 01b8 50000000 		.4byte	.LFE10
 3236 01bc 0100     		.2byte	0x1
 3237 01be 51       		.byte	0x51
 3238 01bf 00000000 		.4byte	0
 3239 01c3 00000000 		.4byte	0
 3240              	.LLST11:
 3241 01c7 26000000 		.4byte	.LVL17
 3242 01cb 2F000000 		.4byte	.LVL18-1
 3243 01cf 0100     		.2byte	0x1
ARM GAS  C:\Users\jsyoon\AppData\Local\Temp\ccJfYAGa.s 			page 58


 3244 01d1 53       		.byte	0x53
 3245 01d2 2F000000 		.4byte	.LVL18-1
 3246 01d6 38000000 		.4byte	.LVL19
 3247 01da 0400     		.2byte	0x4
 3248 01dc F3       		.byte	0xf3
 3249 01dd 01       		.uleb128 0x1
 3250 01de 50       		.byte	0x50
 3251 01df 9F       		.byte	0x9f
 3252 01e0 00000000 		.4byte	0
 3253 01e4 00000000 		.4byte	0
 3254              	.LLST12:
 3255 01e8 26000000 		.4byte	.LVL17
 3256 01ec 2F000000 		.4byte	.LVL18-1
 3257 01f0 0100     		.2byte	0x1
 3258 01f2 50       		.byte	0x50
 3259 01f3 00000000 		.4byte	0
 3260 01f7 00000000 		.4byte	0
 3261              	.LLST13:
 3262 01fb 00000000 		.4byte	.LVL22
 3263 01ff 0D000000 		.4byte	.LVL23-1
 3264 0203 0100     		.2byte	0x1
 3265 0205 50       		.byte	0x50
 3266 0206 0D000000 		.4byte	.LVL23-1
 3267 020a 10000000 		.4byte	.LVL24
 3268 020e 0100     		.2byte	0x1
 3269 0210 54       		.byte	0x54
 3270 0211 10000000 		.4byte	.LVL24
 3271 0215 13000000 		.4byte	.LVL25-1
 3272 0219 0100     		.2byte	0x1
 3273 021b 50       		.byte	0x50
 3274 021c 13000000 		.4byte	.LVL25-1
 3275 0220 22000000 		.4byte	.LVL27
 3276 0224 0100     		.2byte	0x1
 3277 0226 54       		.byte	0x54
 3278 0227 22000000 		.4byte	.LVL27
 3279 022b 36000000 		.4byte	.LVL30
 3280 022f 0100     		.2byte	0x1
 3281 0231 50       		.byte	0x50
 3282 0232 36000000 		.4byte	.LVL30
 3283 0236 3E000000 		.4byte	.LFE11
 3284 023a 0100     		.2byte	0x1
 3285 023c 54       		.byte	0x54
 3286 023d 00000000 		.4byte	0
 3287 0241 00000000 		.4byte	0
 3288              	.LLST14:
 3289 0245 00000000 		.4byte	.LVL22
 3290 0249 0D000000 		.4byte	.LVL23-1
 3291 024d 0100     		.2byte	0x1
 3292 024f 51       		.byte	0x51
 3293 0250 0D000000 		.4byte	.LVL23-1
 3294 0254 10000000 		.4byte	.LVL24
 3295 0258 0100     		.2byte	0x1
 3296 025a 55       		.byte	0x55
 3297 025b 10000000 		.4byte	.LVL24
 3298 025f 13000000 		.4byte	.LVL25-1
 3299 0263 0100     		.2byte	0x1
 3300 0265 51       		.byte	0x51
ARM GAS  C:\Users\jsyoon\AppData\Local\Temp\ccJfYAGa.s 			page 59


 3301 0266 13000000 		.4byte	.LVL25-1
 3302 026a 22000000 		.4byte	.LVL27
 3303 026e 0100     		.2byte	0x1
 3304 0270 55       		.byte	0x55
 3305 0271 22000000 		.4byte	.LVL27
 3306 0275 24000000 		.4byte	.LVL28
 3307 0279 0100     		.2byte	0x1
 3308 027b 51       		.byte	0x51
 3309 027c 24000000 		.4byte	.LVL28
 3310 0280 26000000 		.4byte	.LVL29
 3311 0284 0100     		.2byte	0x1
 3312 0286 55       		.byte	0x55
 3313 0287 26000000 		.4byte	.LVL29
 3314 028b 3E000000 		.4byte	.LFE11
 3315 028f 0400     		.2byte	0x4
 3316 0291 F3       		.byte	0xf3
 3317 0292 01       		.uleb128 0x1
 3318 0293 51       		.byte	0x51
 3319 0294 9F       		.byte	0x9f
 3320 0295 00000000 		.4byte	0
 3321 0299 00000000 		.4byte	0
 3322              	.LLST15:
 3323 029d 36000000 		.4byte	.LVL30
 3324 02a1 3A000000 		.4byte	.LVL31
 3325 02a5 0200     		.2byte	0x2
 3326 02a7 71       		.byte	0x71
 3327 02a8 00       		.sleb128 0
 3328 02a9 00000000 		.4byte	0
 3329 02ad 00000000 		.4byte	0
 3330              	.LLST16:
 3331 02b1 14000000 		.4byte	.LVL25
 3332 02b5 18000000 		.4byte	.LVL26
 3333 02b9 0100     		.2byte	0x1
 3334 02bb 50       		.byte	0x50
 3335 02bc 00000000 		.4byte	0
 3336 02c0 00000000 		.4byte	0
 3337              	.LLST17:
 3338 02c4 00000000 		.4byte	.LVL32
 3339 02c8 20000000 		.4byte	.LVL35
 3340 02cc 0100     		.2byte	0x1
 3341 02ce 50       		.byte	0x50
 3342 02cf 20000000 		.4byte	.LVL35
 3343 02d3 24000000 		.4byte	.LVL37
 3344 02d7 0100     		.2byte	0x1
 3345 02d9 54       		.byte	0x54
 3346 02da 24000000 		.4byte	.LVL37
 3347 02de 27000000 		.4byte	.LVL38-1
 3348 02e2 0100     		.2byte	0x1
 3349 02e4 50       		.byte	0x50
 3350 02e5 27000000 		.4byte	.LVL38-1
 3351 02e9 34000000 		.4byte	.LVL39
 3352 02ed 0100     		.2byte	0x1
 3353 02ef 54       		.byte	0x54
 3354 02f0 34000000 		.4byte	.LVL39
 3355 02f4 60000000 		.4byte	.LVL42
 3356 02f8 0100     		.2byte	0x1
 3357 02fa 50       		.byte	0x50
ARM GAS  C:\Users\jsyoon\AppData\Local\Temp\ccJfYAGa.s 			page 60


 3358 02fb 60000000 		.4byte	.LVL42
 3359 02ff 68000000 		.4byte	.LFE12
 3360 0303 0100     		.2byte	0x1
 3361 0305 54       		.byte	0x54
 3362 0306 00000000 		.4byte	0
 3363 030a 00000000 		.4byte	0
 3364              	.LLST18:
 3365 030e 00000000 		.4byte	.LVL32
 3366 0312 18000000 		.4byte	.LVL34
 3367 0316 0100     		.2byte	0x1
 3368 0318 51       		.byte	0x51
 3369 0319 18000000 		.4byte	.LVL34
 3370 031d 3E000000 		.4byte	.LVL40
 3371 0321 0700     		.2byte	0x7
 3372 0323 F3       		.byte	0xf3
 3373 0324 01       		.uleb128 0x1
 3374 0325 51       		.byte	0x51
 3375 0326 79       		.byte	0x79
 3376 0327 00       		.sleb128 0
 3377 0328 22       		.byte	0x22
 3378 0329 9F       		.byte	0x9f
 3379 032a 3E000000 		.4byte	.LVL40
 3380 032e 58000000 		.4byte	.LVL41
 3381 0332 0900     		.2byte	0x9
 3382 0334 F3       		.byte	0xf3
 3383 0335 01       		.uleb128 0x1
 3384 0336 51       		.byte	0x51
 3385 0337 79       		.byte	0x79
 3386 0338 00       		.sleb128 0
 3387 0339 22       		.byte	0x22
 3388 033a 23       		.byte	0x23
 3389 033b 01       		.uleb128 0x1
 3390 033c 9F       		.byte	0x9f
 3391 033d 58000000 		.4byte	.LVL41
 3392 0341 60000000 		.4byte	.LVL42
 3393 0345 0700     		.2byte	0x7
 3394 0347 79       		.byte	0x79
 3395 0348 00       		.sleb128 0
 3396 0349 F3       		.byte	0xf3
 3397 034a 01       		.uleb128 0x1
 3398 034b 51       		.byte	0x51
 3399 034c 22       		.byte	0x22
 3400 034d 9F       		.byte	0x9f
 3401 034e 60000000 		.4byte	.LVL42
 3402 0352 62000000 		.4byte	.LVL43
 3403 0356 0700     		.2byte	0x7
 3404 0358 F3       		.byte	0xf3
 3405 0359 01       		.uleb128 0x1
 3406 035a 51       		.byte	0x51
 3407 035b 79       		.byte	0x79
 3408 035c 00       		.sleb128 0
 3409 035d 22       		.byte	0x22
 3410 035e 9F       		.byte	0x9f
 3411 035f 00000000 		.4byte	0
 3412 0363 00000000 		.4byte	0
 3413              	.LLST19:
 3414 0367 00000000 		.4byte	.LVL32
ARM GAS  C:\Users\jsyoon\AppData\Local\Temp\ccJfYAGa.s 			page 61


 3415 036b 18000000 		.4byte	.LVL34
 3416 036f 0100     		.2byte	0x1
 3417 0371 52       		.byte	0x52
 3418 0372 18000000 		.4byte	.LVL34
 3419 0376 62000000 		.4byte	.LVL43
 3420 037a 0700     		.2byte	0x7
 3421 037c F3       		.byte	0xf3
 3422 037d 01       		.uleb128 0x1
 3423 037e 52       		.byte	0x52
 3424 037f 79       		.byte	0x79
 3425 0380 00       		.sleb128 0
 3426 0381 1C       		.byte	0x1c
 3427 0382 9F       		.byte	0x9f
 3428 0383 00000000 		.4byte	0
 3429 0387 00000000 		.4byte	0
 3430              	.LLST20:
 3431 038b 00000000 		.4byte	.LVL32
 3432 038f 18000000 		.4byte	.LVL34
 3433 0393 0100     		.2byte	0x1
 3434 0395 53       		.byte	0x53
 3435 0396 18000000 		.4byte	.LVL34
 3436 039a 24000000 		.4byte	.LVL37
 3437 039e 0100     		.2byte	0x1
 3438 03a0 56       		.byte	0x56
 3439 03a1 24000000 		.4byte	.LVL37
 3440 03a5 27000000 		.4byte	.LVL38-1
 3441 03a9 0100     		.2byte	0x1
 3442 03ab 51       		.byte	0x51
 3443 03ac 27000000 		.4byte	.LVL38-1
 3444 03b0 34000000 		.4byte	.LVL39
 3445 03b4 0100     		.2byte	0x1
 3446 03b6 56       		.byte	0x56
 3447 03b7 34000000 		.4byte	.LVL39
 3448 03bb 60000000 		.4byte	.LVL42
 3449 03bf 0100     		.2byte	0x1
 3450 03c1 51       		.byte	0x51
 3451 03c2 60000000 		.4byte	.LVL42
 3452 03c6 68000000 		.4byte	.LFE12
 3453 03ca 0100     		.2byte	0x1
 3454 03cc 56       		.byte	0x56
 3455 03cd 00000000 		.4byte	0
 3456 03d1 00000000 		.4byte	0
 3457              	.LLST21:
 3458 03d5 0C000000 		.4byte	.LVL33
 3459 03d9 18000000 		.4byte	.LVL34
 3460 03dd 0200     		.2byte	0x2
 3461 03df 30       		.byte	0x30
 3462 03e0 9F       		.byte	0x9f
 3463 03e1 18000000 		.4byte	.LVL34
 3464 03e5 68000000 		.4byte	.LFE12
 3465 03e9 0100     		.2byte	0x1
 3466 03eb 59       		.byte	0x59
 3467 03ec 00000000 		.4byte	0
 3468 03f0 00000000 		.4byte	0
 3469              	.LLST22:
 3470 03f4 00000000 		.4byte	.LVL44
 3471 03f8 1A000000 		.4byte	.LVL45
ARM GAS  C:\Users\jsyoon\AppData\Local\Temp\ccJfYAGa.s 			page 62


 3472 03fc 0200     		.2byte	0x2
 3473 03fe 91       		.byte	0x91
 3474 03ff 00       		.sleb128 0
 3475 0400 1A000000 		.4byte	.LVL45
 3476 0404 1C000000 		.4byte	.LFE13
 3477 0408 0200     		.2byte	0x2
 3478 040a 7D       		.byte	0x7d
 3479 040b 00       		.sleb128 0
 3480 040c 00000000 		.4byte	0
 3481 0410 00000000 		.4byte	0
 3482              	.LLST23:
 3483 0414 00000000 		.4byte	.LVL46
 3484 0418 0A000000 		.4byte	.LVL47
 3485 041c 0100     		.2byte	0x1
 3486 041e 50       		.byte	0x50
 3487 041f 0A000000 		.4byte	.LVL47
 3488 0423 2E000000 		.4byte	.LFE14
 3489 0427 0100     		.2byte	0x1
 3490 0429 54       		.byte	0x54
 3491 042a 00000000 		.4byte	0
 3492 042e 00000000 		.4byte	0
 3493              	.LLST24:
 3494 0432 1A000000 		.4byte	.LVL48
 3495 0436 2C000000 		.4byte	.LVL50
 3496 043a 0100     		.2byte	0x1
 3497 043c 54       		.byte	0x54
 3498 043d 00000000 		.4byte	0
 3499 0441 00000000 		.4byte	0
 3500              	.LLST25:
 3501 0445 1A000000 		.4byte	.LVL48
 3502 0449 23000000 		.4byte	.LVL49-1
 3503 044d 0100     		.2byte	0x1
 3504 044f 50       		.byte	0x50
 3505 0450 00000000 		.4byte	0
 3506 0454 00000000 		.4byte	0
 3507              	.LLST26:
 3508 0458 00000000 		.4byte	.LVL51
 3509 045c 0F000000 		.4byte	.LVL53-1
 3510 0460 0100     		.2byte	0x1
 3511 0462 50       		.byte	0x50
 3512 0463 0F000000 		.4byte	.LVL53-1
 3513 0467 1E000000 		.4byte	.LVL55
 3514 046b 0100     		.2byte	0x1
 3515 046d 54       		.byte	0x54
 3516 046e 1E000000 		.4byte	.LVL55
 3517 0472 3C000000 		.4byte	.LVL57
 3518 0476 0100     		.2byte	0x1
 3519 0478 50       		.byte	0x50
 3520 0479 3C000000 		.4byte	.LVL57
 3521 047d 48000000 		.4byte	.LFE15
 3522 0481 0100     		.2byte	0x1
 3523 0483 54       		.byte	0x54
 3524 0484 00000000 		.4byte	0
 3525 0488 00000000 		.4byte	0
 3526              	.LLST27:
 3527 048c 00000000 		.4byte	.LVL51
 3528 0490 0C000000 		.4byte	.LVL52
ARM GAS  C:\Users\jsyoon\AppData\Local\Temp\ccJfYAGa.s 			page 63


 3529 0494 0100     		.2byte	0x1
 3530 0496 51       		.byte	0x51
 3531 0497 0C000000 		.4byte	.LVL52
 3532 049b 48000000 		.4byte	.LFE15
 3533 049f 0400     		.2byte	0x4
 3534 04a1 F3       		.byte	0xf3
 3535 04a2 01       		.uleb128 0x1
 3536 04a3 51       		.byte	0x51
 3537 04a4 9F       		.byte	0x9f
 3538 04a5 00000000 		.4byte	0
 3539 04a9 00000000 		.4byte	0
 3540              	.LLST28:
 3541 04ad 00000000 		.4byte	.LVL51
 3542 04b1 0C000000 		.4byte	.LVL52
 3543 04b5 0100     		.2byte	0x1
 3544 04b7 52       		.byte	0x52
 3545 04b8 0C000000 		.4byte	.LVL52
 3546 04bc 0F000000 		.4byte	.LVL53-1
 3547 04c0 0100     		.2byte	0x1
 3548 04c2 51       		.byte	0x51
 3549 04c3 0F000000 		.4byte	.LVL53-1
 3550 04c7 1E000000 		.4byte	.LVL55
 3551 04cb 0100     		.2byte	0x1
 3552 04cd 55       		.byte	0x55
 3553 04ce 1E000000 		.4byte	.LVL55
 3554 04d2 24000000 		.4byte	.LVL56
 3555 04d6 0100     		.2byte	0x1
 3556 04d8 51       		.byte	0x51
 3557 04d9 24000000 		.4byte	.LVL56
 3558 04dd 48000000 		.4byte	.LFE15
 3559 04e1 0100     		.2byte	0x1
 3560 04e3 55       		.byte	0x55
 3561 04e4 00000000 		.4byte	0
 3562 04e8 00000000 		.4byte	0
 3563              	.LLST29:
 3564 04ec 10000000 		.4byte	.LVL53
 3565 04f0 14000000 		.4byte	.LVL54
 3566 04f4 0100     		.2byte	0x1
 3567 04f6 50       		.byte	0x50
 3568 04f7 44000000 		.4byte	.LVL59
 3569 04fb 48000000 		.4byte	.LFE15
 3570 04ff 0100     		.2byte	0x1
 3571 0501 50       		.byte	0x50
 3572 0502 00000000 		.4byte	0
 3573 0506 00000000 		.4byte	0
 3574              	.LLST30:
 3575 050a 00000000 		.4byte	.LVL60
 3576 050e 10000000 		.4byte	.LVL61
 3577 0512 0100     		.2byte	0x1
 3578 0514 50       		.byte	0x50
 3579 0515 10000000 		.4byte	.LVL61
 3580 0519 2D000000 		.4byte	.LVL65-1
 3581 051d 0100     		.2byte	0x1
 3582 051f 53       		.byte	0x53
 3583 0520 2D000000 		.4byte	.LVL65-1
 3584 0524 36000000 		.4byte	.LVL67
 3585 0528 0400     		.2byte	0x4
ARM GAS  C:\Users\jsyoon\AppData\Local\Temp\ccJfYAGa.s 			page 64


 3586 052a F3       		.byte	0xf3
 3587 052b 01       		.uleb128 0x1
 3588 052c 50       		.byte	0x50
 3589 052d 9F       		.byte	0x9f
 3590 052e 36000000 		.4byte	.LVL67
 3591 0532 3C000000 		.4byte	.LVL70
 3592 0536 0100     		.2byte	0x1
 3593 0538 53       		.byte	0x53
 3594 0539 3C000000 		.4byte	.LVL70
 3595 053d 44000000 		.4byte	.LVL71
 3596 0541 0100     		.2byte	0x1
 3597 0543 50       		.byte	0x50
 3598 0544 44000000 		.4byte	.LVL71
 3599 0548 46000000 		.4byte	.LFE16
 3600 054c 0100     		.2byte	0x1
 3601 054e 53       		.byte	0x53
 3602 054f 00000000 		.4byte	0
 3603 0553 00000000 		.4byte	0
 3604              	.LLST31:
 3605 0557 1C000000 		.4byte	.LVL62
 3606 055b 1E000000 		.4byte	.LVL63
 3607 055f 0200     		.2byte	0x2
 3608 0561 72       		.byte	0x72
 3609 0562 00       		.sleb128 0
 3610 0563 1E000000 		.4byte	.LVL63
 3611 0567 36000000 		.4byte	.LVL67
 3612 056b 0100     		.2byte	0x1
 3613 056d 54       		.byte	0x54
 3614 056e 36000000 		.4byte	.LVL67
 3615 0572 38000000 		.4byte	.LVL68
 3616 0576 0200     		.2byte	0x2
 3617 0578 72       		.byte	0x72
 3618 0579 00       		.sleb128 0
 3619 057a 38000000 		.4byte	.LVL68
 3620 057e 3A000000 		.4byte	.LVL69
 3621 0582 0200     		.2byte	0x2
 3622 0584 71       		.byte	0x71
 3623 0585 7F       		.sleb128 -1
 3624 0586 3A000000 		.4byte	.LVL69
 3625 058a 3C000000 		.4byte	.LVL70
 3626 058e 0100     		.2byte	0x1
 3627 0590 54       		.byte	0x54
 3628 0591 00000000 		.4byte	0
 3629 0595 00000000 		.4byte	0
 3630              	.LLST32:
 3631 0599 24000000 		.4byte	.LVL64
 3632 059d 2D000000 		.4byte	.LVL65-1
 3633 05a1 0100     		.2byte	0x1
 3634 05a3 53       		.byte	0x53
 3635 05a4 2D000000 		.4byte	.LVL65-1
 3636 05a8 32000000 		.4byte	.LVL66
 3637 05ac 0400     		.2byte	0x4
 3638 05ae F3       		.byte	0xf3
 3639 05af 01       		.uleb128 0x1
 3640 05b0 50       		.byte	0x50
 3641 05b1 9F       		.byte	0x9f
 3642 05b2 00000000 		.4byte	0
ARM GAS  C:\Users\jsyoon\AppData\Local\Temp\ccJfYAGa.s 			page 65


 3643 05b6 00000000 		.4byte	0
 3644              	.LLST33:
 3645 05ba 24000000 		.4byte	.LVL64
 3646 05be 2D000000 		.4byte	.LVL65-1
 3647 05c2 0100     		.2byte	0x1
 3648 05c4 50       		.byte	0x50
 3649 05c5 00000000 		.4byte	0
 3650 05c9 00000000 		.4byte	0
 3651              	.LLST34:
 3652 05cd 00000000 		.4byte	.LVL72
 3653 05d1 16000000 		.4byte	.LVL74
 3654 05d5 0100     		.2byte	0x1
 3655 05d7 50       		.byte	0x50
 3656 05d8 16000000 		.4byte	.LVL74
 3657 05dc 22000000 		.4byte	.LVL76
 3658 05e0 0100     		.2byte	0x1
 3659 05e2 54       		.byte	0x54
 3660 05e3 22000000 		.4byte	.LVL76
 3661 05e7 41000000 		.4byte	.LVL77-1
 3662 05eb 0100     		.2byte	0x1
 3663 05ed 50       		.byte	0x50
 3664 05ee 41000000 		.4byte	.LVL77-1
 3665 05f2 52000000 		.4byte	.LVL80
 3666 05f6 0100     		.2byte	0x1
 3667 05f8 54       		.byte	0x54
 3668 05f9 52000000 		.4byte	.LVL80
 3669 05fd 54000000 		.4byte	.LVL81
 3670 0601 0100     		.2byte	0x1
 3671 0603 50       		.byte	0x50
 3672 0604 54000000 		.4byte	.LVL81
 3673 0608 66000000 		.4byte	.LFE17
 3674 060c 0100     		.2byte	0x1
 3675 060e 54       		.byte	0x54
 3676 060f 00000000 		.4byte	0
 3677 0613 00000000 		.4byte	0
 3678              	.LLST35:
 3679 0617 00000000 		.4byte	.LVL72
 3680 061b 16000000 		.4byte	.LVL74
 3681 061f 0100     		.2byte	0x1
 3682 0621 51       		.byte	0x51
 3683 0622 16000000 		.4byte	.LVL74
 3684 0626 1C000000 		.4byte	.LVL75
 3685 062a 0100     		.2byte	0x1
 3686 062c 56       		.byte	0x56
 3687 062d 1C000000 		.4byte	.LVL75
 3688 0631 66000000 		.4byte	.LFE17
 3689 0635 0100     		.2byte	0x1
 3690 0637 5B       		.byte	0x5b
 3691 0638 00000000 		.4byte	0
 3692 063c 00000000 		.4byte	0
 3693              	.LLST36:
 3694 0640 00000000 		.4byte	.LVL72
 3695 0644 16000000 		.4byte	.LVL74
 3696 0648 0100     		.2byte	0x1
 3697 064a 52       		.byte	0x52
 3698 064b 16000000 		.4byte	.LVL74
 3699 064f 46000000 		.4byte	.LVL78
ARM GAS  C:\Users\jsyoon\AppData\Local\Temp\ccJfYAGa.s 			page 66


 3700 0653 0100     		.2byte	0x1
 3701 0655 57       		.byte	0x57
 3702 0656 46000000 		.4byte	.LVL78
 3703 065a 4A000000 		.4byte	.LVL79
 3704 065e 0300     		.2byte	0x3
 3705 0660 77       		.byte	0x77
 3706 0661 01       		.sleb128 1
 3707 0662 9F       		.byte	0x9f
 3708 0663 52000000 		.4byte	.LVL80
 3709 0667 60000000 		.4byte	.LVL83
 3710 066b 0100     		.2byte	0x1
 3711 066d 57       		.byte	0x57
 3712 066e 00000000 		.4byte	0
 3713 0672 00000000 		.4byte	0
 3714              	.LLST37:
 3715 0676 00000000 		.4byte	.LVL72
 3716 067a 16000000 		.4byte	.LVL74
 3717 067e 0100     		.2byte	0x1
 3718 0680 53       		.byte	0x53
 3719 0681 16000000 		.4byte	.LVL74
 3720 0685 66000000 		.4byte	.LFE17
 3721 0689 0100     		.2byte	0x1
 3722 068b 5A       		.byte	0x5a
 3723 068c 00000000 		.4byte	0
 3724 0690 00000000 		.4byte	0
 3725              	.LLST38:
 3726 0694 10000000 		.4byte	.LVL73
 3727 0698 16000000 		.4byte	.LVL74
 3728 069c 0200     		.2byte	0x2
 3729 069e 30       		.byte	0x30
 3730 069f 9F       		.byte	0x9f
 3731 06a0 16000000 		.4byte	.LVL74
 3732 06a4 66000000 		.4byte	.LFE17
 3733 06a8 0100     		.2byte	0x1
 3734 06aa 58       		.byte	0x58
 3735 06ab 00000000 		.4byte	0
 3736 06af 00000000 		.4byte	0
 3737              		.section	.debug_aranges,"",%progbits
 3738 0000 6C000000 		.4byte	0x6c
 3739 0004 0200     		.2byte	0x2
 3740 0006 00000000 		.4byte	.Ldebug_info0
 3741 000a 04       		.byte	0x4
 3742 000b 00       		.byte	0
 3743 000c 0000     		.2byte	0
 3744 000e 0000     		.2byte	0
 3745 0010 00000000 		.4byte	.LFB7
 3746 0014 30000000 		.4byte	.LFE7-.LFB7
 3747 0018 00000000 		.4byte	.LFB8
 3748 001c 1E000000 		.4byte	.LFE8-.LFB8
 3749 0020 00000000 		.4byte	.LFB9
 3750 0024 2C000000 		.4byte	.LFE9-.LFB9
 3751 0028 00000000 		.4byte	.LFB10
 3752 002c 50000000 		.4byte	.LFE10-.LFB10
 3753 0030 00000000 		.4byte	.LFB11
 3754 0034 3E000000 		.4byte	.LFE11-.LFB11
 3755 0038 00000000 		.4byte	.LFB12
 3756 003c 68000000 		.4byte	.LFE12-.LFB12
ARM GAS  C:\Users\jsyoon\AppData\Local\Temp\ccJfYAGa.s 			page 67


 3757 0040 00000000 		.4byte	.LFB13
 3758 0044 1C000000 		.4byte	.LFE13-.LFB13
 3759 0048 00000000 		.4byte	.LFB14
 3760 004c 2E000000 		.4byte	.LFE14-.LFB14
 3761 0050 00000000 		.4byte	.LFB15
 3762 0054 48000000 		.4byte	.LFE15-.LFB15
 3763 0058 00000000 		.4byte	.LFB16
 3764 005c 46000000 		.4byte	.LFE16-.LFB16
 3765 0060 00000000 		.4byte	.LFB17
 3766 0064 66000000 		.4byte	.LFE17-.LFB17
 3767 0068 00000000 		.4byte	0
 3768 006c 00000000 		.4byte	0
 3769              		.section	.debug_ranges,"",%progbits
 3770              	.Ldebug_ranges0:
 3771 0000 0C000000 		.4byte	.LBB12
 3772 0004 0E000000 		.4byte	.LBE12
 3773 0008 10000000 		.4byte	.LBB15
 3774 000c 18000000 		.4byte	.LBE15
 3775 0010 00000000 		.4byte	0
 3776 0014 00000000 		.4byte	0
 3777 0018 10000000 		.4byte	.LBB20
 3778 001c 18000000 		.4byte	.LBE20
 3779 0020 1A000000 		.4byte	.LBB21
 3780 0024 1E000000 		.4byte	.LBE21
 3781 0028 00000000 		.4byte	0
 3782 002c 00000000 		.4byte	0
 3783 0030 0C000000 		.4byte	.LBB24
 3784 0034 14000000 		.4byte	.LBE24
 3785 0038 16000000 		.4byte	.LBB25
 3786 003c 1A000000 		.4byte	.LBE25
 3787 0040 44000000 		.4byte	.LBB26
 3788 0044 48000000 		.4byte	.LBE26
 3789 0048 00000000 		.4byte	0
 3790 004c 00000000 		.4byte	0
 3791 0050 00000000 		.4byte	.LFB7
 3792 0054 30000000 		.4byte	.LFE7
 3793 0058 00000000 		.4byte	.LFB8
 3794 005c 1E000000 		.4byte	.LFE8
 3795 0060 00000000 		.4byte	.LFB9
 3796 0064 2C000000 		.4byte	.LFE9
 3797 0068 00000000 		.4byte	.LFB10
 3798 006c 50000000 		.4byte	.LFE10
 3799 0070 00000000 		.4byte	.LFB11
 3800 0074 3E000000 		.4byte	.LFE11
 3801 0078 00000000 		.4byte	.LFB12
 3802 007c 68000000 		.4byte	.LFE12
 3803 0080 00000000 		.4byte	.LFB13
 3804 0084 1C000000 		.4byte	.LFE13
 3805 0088 00000000 		.4byte	.LFB14
 3806 008c 2E000000 		.4byte	.LFE14
 3807 0090 00000000 		.4byte	.LFB15
 3808 0094 48000000 		.4byte	.LFE15
 3809 0098 00000000 		.4byte	.LFB16
 3810 009c 46000000 		.4byte	.LFE16
 3811 00a0 00000000 		.4byte	.LFB17
 3812 00a4 66000000 		.4byte	.LFE17
 3813 00a8 00000000 		.4byte	0
ARM GAS  C:\Users\jsyoon\AppData\Local\Temp\ccJfYAGa.s 			page 68


 3814 00ac 00000000 		.4byte	0
 3815              		.section	.debug_line,"",%progbits
 3816              	.Ldebug_line0:
 3817 0000 EB030000 		.section	.debug_str,"MS",%progbits,1
 3817      0200ED01 
 3817      00000201 
 3817      FB0E0D00 
 3817      01010101 
 3818              	.LASF89:
 3819 0000 63684F51 		.ascii	"chOQInit\000"
 3819      496E6974 
 3819      00
 3820              	.LASF41:
 3821 0009 705F6D73 		.ascii	"p_msg\000"
 3821      6700
 3822              	.LASF98:
 3823 000f 71756575 		.ascii	"queue_insert\000"
 3823      655F696E 
 3823      73657274 
 3823      00
 3824              	.LASF90:
 3825 001c 6F6E6679 		.ascii	"onfy\000"
 3825      00
 3826              	.LASF2:
 3827 0021 73697A65 		.ascii	"size_t\000"
 3827      5F7400
 3828              	.LASF63:
 3829 0028 7264796D 		.ascii	"rdymsg\000"
 3829      736700
 3830              	.LASF84:
 3831 002f 63684951 		.ascii	"chIQInit\000"
 3831      496E6974 
 3831      00
 3832              	.LASF79:
 3833 0038 4F757470 		.ascii	"OutputQueue\000"
 3833      75745175 
 3833      65756500 
 3834              	.LASF3:
 3835 0044 5F5F7569 		.ascii	"__uint8_t\000"
 3835      6E74385F 
 3835      7400
 3836              	.LASF88:
 3837 004e 63684951 		.ascii	"chIQReadTimeout\000"
 3837      52656164 
 3837      54696D65 
 3837      6F757400 
 3838              	.LASF12:
 3839 005e 6C6F6E67 		.ascii	"long long unsigned int\000"
 3839      206C6F6E 
 3839      6720756E 
 3839      7369676E 
 3839      65642069 
 3840              	.LASF94:
 3841 0075 63684F51 		.ascii	"chOQWriteTimeout\000"
 3841      57726974 
 3841      6554696D 
 3841      656F7574 
ARM GAS  C:\Users\jsyoon\AppData\Local\Temp\ccJfYAGa.s 			page 69


 3841      00
 3842              	.LASF29:
 3843 0086 705F7072 		.ascii	"p_prio\000"
 3843      696F00
 3844              	.LASF69:
 3845 008d 715F7761 		.ascii	"q_waiting\000"
 3845      6974696E 
 3845      6700
 3846              	.LASF11:
 3847 0097 6C6F6E67 		.ascii	"long long int\000"
 3847      206C6F6E 
 3847      6720696E 
 3847      7400
 3848              	.LASF1:
 3849 00a5 7369676E 		.ascii	"signed char\000"
 3849      65642063 
 3849      68617200 
 3850              	.LASF45:
 3851 00b1 705F6D70 		.ascii	"p_mpool\000"
 3851      6F6F6C00 
 3852              	.LASF16:
 3853 00b9 626F6F6C 		.ascii	"bool_t\000"
 3853      5F7400
 3854              	.LASF60:
 3855 00c0 6D5F7175 		.ascii	"m_queue\000"
 3855      65756500 
 3856              	.LASF21:
 3857 00c8 74736C69 		.ascii	"tslices_t\000"
 3857      6365735F 
 3857      7400
 3858              	.LASF100:
 3859 00d2 71776169 		.ascii	"qwait\000"
 3859      7400
 3860              	.LASF97:
 3861 00d8 453A5C4D 		.ascii	"E:\\Maker\\BLDC\\test_eval\\try2\\OROCA-BLDC_R15080"
 3861      616B6572 
 3861      5C424C44 
 3861      435C7465 
 3861      73745F65 
 3862 0106 3700     		.ascii	"7\000"
 3863              	.LASF8:
 3864 0108 6C6F6E67 		.ascii	"long int\000"
 3864      20696E74 
 3864      00
 3865              	.LASF19:
 3866 0111 74737461 		.ascii	"tstate_t\000"
 3866      74655F74 
 3866      00
 3867              	.LASF93:
 3868 011a 63684F51 		.ascii	"chOQGetI\000"
 3868      47657449 
 3868      00
 3869              	.LASF95:
 3870 0123 474E5520 		.ascii	"GNU C 4.8.4 20140526 (release) [ARM/embedded-4_8-br"
 3870      4320342E 
 3870      382E3420 
 3870      32303134 
ARM GAS  C:\Users\jsyoon\AppData\Local\Temp\ccJfYAGa.s 			page 70


 3870      30353236 
 3871 0156 616E6368 		.ascii	"anch revision 211358] -mcpu=cortex-m4 -mfloat-abi=h"
 3871      20726576 
 3871      6973696F 
 3871      6E203231 
 3871      31333538 
 3872 0189 61726420 		.ascii	"ard -mfpu=fpv4-sp-d16 -mno-thumb-interwork -mthumb "
 3872      2D6D6670 
 3872      753D6670 
 3872      76342D73 
 3872      702D6431 
 3873 01bc 2D676764 		.ascii	"-ggdb -O2 -std=gnu99 -fomit-frame-pointer -falign-f"
 3873      62202D4F 
 3873      32202D73 
 3873      74643D67 
 3873      6E753939 
 3874 01ef 756E6374 		.ascii	"unctions=16 -ffunction-sections -fdata-sections -fn"
 3874      696F6E73 
 3874      3D313620 
 3874      2D666675 
 3874      6E637469 
 3875 0222 6F2D636F 		.ascii	"o-common -fsingle-precision-constant\000"
 3875      6D6D6F6E 
 3875      202D6673 
 3875      696E676C 
 3875      652D7072 
 3876              	.LASF31:
 3877 0247 705F6E65 		.ascii	"p_newer\000"
 3877      77657200 
 3878              	.LASF64:
 3879 024f 65786974 		.ascii	"exitcode\000"
 3879      636F6465 
 3879      00
 3880              	.LASF9:
 3881 0258 5F5F7569 		.ascii	"__uint32_t\000"
 3881      6E743332 
 3881      5F7400
 3882              	.LASF48:
 3883 0263 72656761 		.ascii	"regarm_t\000"
 3883      726D5F74 
 3883      00
 3884              	.LASF83:
 3885 026c 6C696E6B 		.ascii	"link\000"
 3885      00
 3886              	.LASF92:
 3887 0271 63684F51 		.ascii	"chOQPutTimeout\000"
 3887      50757454 
 3887      696D656F 
 3887      757400
 3888              	.LASF86:
 3889 0280 63684951 		.ascii	"chIQPutI\000"
 3889      50757449 
 3889      00
 3890              	.LASF0:
 3891 0289 756E7369 		.ascii	"unsigned int\000"
 3891      676E6564 
 3891      20696E74 
ARM GAS  C:\Users\jsyoon\AppData\Local\Temp\ccJfYAGa.s 			page 71


 3891      00
 3892              	.LASF85:
 3893 0296 63684951 		.ascii	"chIQResetI\000"
 3893      52657365 
 3893      744900
 3894              	.LASF10:
 3895 02a1 6C6F6E67 		.ascii	"long unsigned int\000"
 3895      20756E73 
 3895      69676E65 
 3895      6420696E 
 3895      7400
 3896              	.LASF96:
 3897 02b3 43686962 		.ascii	"ChibiOS_2.6.6/os/kernel/src/chqueues.c\000"
 3897      694F535F 
 3897      322E362E 
 3897      362F6F73 
 3897      2F6B6572 
 3898              	.LASF50:
 3899 02da 636F6E74 		.ascii	"context\000"
 3899      65787400 
 3900              	.LASF81:
 3901 02e2 73697A65 		.ascii	"size\000"
 3901      00
 3902              	.LASF6:
 3903 02e7 73686F72 		.ascii	"short unsigned int\000"
 3903      7420756E 
 3903      7369676E 
 3903      65642069 
 3903      6E7400
 3904              	.LASF23:
 3905 02fa 6D73675F 		.ascii	"msg_t\000"
 3905      7400
 3906              	.LASF55:
 3907 0300 725F6E65 		.ascii	"r_newer\000"
 3907      77657200 
 3908              	.LASF18:
 3909 0308 746D6F64 		.ascii	"tmode_t\000"
 3909      655F7400 
 3910              	.LASF47:
 3911 0310 54687265 		.ascii	"ThreadsList\000"
 3911      6164734C 
 3911      69737400 
 3912              	.LASF24:
 3913 031c 6576656E 		.ascii	"eventmask_t\000"
 3913      746D6173 
 3913      6B5F7400 
 3914              	.LASF78:
 3915 0328 496E7075 		.ascii	"InputQueue\000"
 3915      74517565 
 3915      756500
 3916              	.LASF59:
 3917 0333 4D757465 		.ascii	"Mutex\000"
 3917      7800
 3918              	.LASF68:
 3919 0339 47656E65 		.ascii	"GenericQueue\000"
 3919      72696351 
 3919      75657565 
ARM GAS  C:\Users\jsyoon\AppData\Local\Temp\ccJfYAGa.s 			page 72


 3919      00
 3920              	.LASF71:
 3921 0346 715F6275 		.ascii	"q_buffer\000"
 3921      66666572 
 3921      00
 3922              	.LASF51:
 3923 034f 73697A65 		.ascii	"sizetype\000"
 3923      74797065 
 3923      00
 3924              	.LASF70:
 3925 0358 715F636F 		.ascii	"q_counter\000"
 3925      756E7465 
 3925      7200
 3926              	.LASF32:
 3927 0362 705F6F6C 		.ascii	"p_older\000"
 3927      64657200 
 3928              	.LASF73:
 3929 036a 715F7772 		.ascii	"q_wrptr\000"
 3929      70747200 
 3930              	.LASF54:
 3931 0372 725F6374 		.ascii	"r_ctx\000"
 3931      7800
 3932              	.LASF46:
 3933 0378 54687265 		.ascii	"ThreadsQueue\000"
 3933      61647351 
 3933      75657565 
 3933      00
 3934              	.LASF80:
 3935 0385 74696D65 		.ascii	"time\000"
 3935      00
 3936              	.LASF57:
 3937 038a 725F6375 		.ascii	"r_current\000"
 3937      7272656E 
 3937      7400
 3938              	.LASF56:
 3939 0394 725F6F6C 		.ascii	"r_older\000"
 3939      64657200 
 3940              	.LASF20:
 3941 039c 74726566 		.ascii	"trefs_t\000"
 3941      735F7400 
 3942              	.LASF77:
 3943 03a4 716E6F74 		.ascii	"qnotify_t\000"
 3943      6966795F 
 3943      7400
 3944              	.LASF28:
 3945 03ae 705F7072 		.ascii	"p_prev\000"
 3945      657600
 3946              	.LASF22:
 3947 03b5 74707269 		.ascii	"tprio_t\000"
 3947      6F5F7400 
 3948              	.LASF74:
 3949 03bd 715F7264 		.ascii	"q_rdptr\000"
 3949      70747200 
 3950              	.LASF17:
 3951 03c5 5F426F6F 		.ascii	"_Bool\000"
 3951      6C00
 3952              	.LASF14:
ARM GAS  C:\Users\jsyoon\AppData\Local\Temp\ccJfYAGa.s 			page 73


 3953 03cb 696E7433 		.ascii	"int32_t\000"
 3953      325F7400 
 3954              	.LASF4:
 3955 03d3 756E7369 		.ascii	"unsigned char\000"
 3955      676E6564 
 3955      20636861 
 3955      7200
 3956              	.LASF43:
 3957 03e1 705F6D74 		.ascii	"p_mtxlist\000"
 3957      786C6973 
 3957      7400
 3958              	.LASF5:
 3959 03eb 73686F72 		.ascii	"short int\000"
 3959      7420696E 
 3959      7400
 3960              	.LASF34:
 3961 03f5 705F7374 		.ascii	"p_state\000"
 3961      61746500 
 3962              	.LASF37:
 3963 03fd 705F7072 		.ascii	"p_preempt\000"
 3963      65656D70 
 3963      7400
 3964              	.LASF53:
 3965 0407 725F7072 		.ascii	"r_prio\000"
 3965      696F00
 3966              	.LASF66:
 3967 040e 65776D61 		.ascii	"ewmask\000"
 3967      736B00
 3968              	.LASF27:
 3969 0415 705F6E65 		.ascii	"p_next\000"
 3969      787400
 3970              	.LASF82:
 3971 041c 696E6679 		.ascii	"infy\000"
 3971      00
 3972              	.LASF35:
 3973 0421 705F666C 		.ascii	"p_flags\000"
 3973      61677300 
 3974              	.LASF26:
 3975 0429 54687265 		.ascii	"Thread\000"
 3975      616400
 3976              	.LASF42:
 3977 0430 705F6570 		.ascii	"p_epending\000"
 3977      656E6469 
 3977      6E6700
 3978              	.LASF15:
 3979 043b 75696E74 		.ascii	"uint32_t\000"
 3979      33325F74 
 3979      00
 3980              	.LASF52:
 3981 0444 725F7175 		.ascii	"r_queue\000"
 3981      65756500 
 3982              	.LASF67:
 3983 044c 63686172 		.ascii	"char\000"
 3983      00
 3984              	.LASF99:
 3985 0451 6669666F 		.ascii	"fifo_remove\000"
 3985      5F72656D 
ARM GAS  C:\Users\jsyoon\AppData\Local\Temp\ccJfYAGa.s 			page 74


 3985      6F766500 
 3986              	.LASF103:
 3987 045d 63685363 		.ascii	"chSchReadyI\000"
 3987      68526561 
 3987      64794900 
 3988              	.LASF62:
 3989 0469 6D5F6E65 		.ascii	"m_next\000"
 3989      787400
 3990              	.LASF25:
 3991 0470 73797374 		.ascii	"systime_t\000"
 3991      696D655F 
 3991      7400
 3992              	.LASF44:
 3993 047a 705F7265 		.ascii	"p_realprio\000"
 3993      616C7072 
 3993      696F00
 3994              	.LASF7:
 3995 0485 5F5F696E 		.ascii	"__int32_t\000"
 3995      7433325F 
 3995      7400
 3996              	.LASF91:
 3997 048f 63684F51 		.ascii	"chOQResetI\000"
 3997      52657365 
 3997      744900
 3998              	.LASF38:
 3999 049a 705F7469 		.ascii	"p_time\000"
 3999      6D6500
 4000              	.LASF49:
 4001 04a1 696E7463 		.ascii	"intctx\000"
 4001      747800
 4002              	.LASF40:
 4003 04a8 705F6D73 		.ascii	"p_msgqueue\000"
 4003      67717565 
 4003      756500
 4004              	.LASF72:
 4005 04b3 715F746F 		.ascii	"q_top\000"
 4005      7000
 4006              	.LASF36:
 4007 04b9 705F7265 		.ascii	"p_refs\000"
 4007      667300
 4008              	.LASF58:
 4009 04c0 52656164 		.ascii	"ReadyList\000"
 4009      794C6973 
 4009      7400
 4010              	.LASF75:
 4011 04ca 715F6E6F 		.ascii	"q_notify\000"
 4011      74696679 
 4011      00
 4012              	.LASF101:
 4013 04d3 726C6973 		.ascii	"rlist\000"
 4013      7400
 4014              	.LASF13:
 4015 04d9 75696E74 		.ascii	"uint8_t\000"
 4015      385F7400 
 4016              	.LASF65:
 4017 04e1 77746F62 		.ascii	"wtobjp\000"
 4017      6A7000
ARM GAS  C:\Users\jsyoon\AppData\Local\Temp\ccJfYAGa.s 			page 75


 4018              	.LASF33:
 4019 04e8 705F6E61 		.ascii	"p_name\000"
 4019      6D6500
 4020              	.LASF102:
 4021 04ef 63685363 		.ascii	"chSchGoSleepTimeoutS\000"
 4021      68476F53 
 4021      6C656570 
 4021      54696D65 
 4021      6F757453 
 4022              	.LASF76:
 4023 0504 715F6C69 		.ascii	"q_link\000"
 4023      6E6B00
 4024              	.LASF61:
 4025 050b 6D5F6F77 		.ascii	"m_owner\000"
 4025      6E657200 
 4026              	.LASF30:
 4027 0513 705F6374 		.ascii	"p_ctx\000"
 4027      7800
 4028              	.LASF39:
 4029 0519 705F7761 		.ascii	"p_waiting\000"
 4029      6974696E 
 4029      6700
 4030              	.LASF87:
 4031 0523 63684951 		.ascii	"chIQGetTimeout\000"
 4031      47657454 
 4031      696D656F 
 4031      757400
 4032              		.ident	"GCC: (GNU Tools for ARM Embedded Processors) 4.8.4 20140526 (release) [ARM/embedded-4_8-br
ARM GAS  C:\Users\jsyoon\AppData\Local\Temp\ccJfYAGa.s 			page 76


DEFINED SYMBOLS
                            *ABS*:00000000 chqueues.c
C:\Users\jsyoon\AppData\Local\Temp\ccJfYAGa.s:21     .text.qwait:00000000 $t
C:\Users\jsyoon\AppData\Local\Temp\ccJfYAGa.s:26     .text.qwait:00000000 qwait
C:\Users\jsyoon\AppData\Local\Temp\ccJfYAGa.s:80     .text.qwait:0000002c $d
C:\Users\jsyoon\AppData\Local\Temp\ccJfYAGa.s:85     .text.chIQInit:00000000 $t
C:\Users\jsyoon\AppData\Local\Temp\ccJfYAGa.s:91     .text.chIQInit:00000000 chIQInit
C:\Users\jsyoon\AppData\Local\Temp\ccJfYAGa.s:133    .text.chIQResetI:00000000 $t
C:\Users\jsyoon\AppData\Local\Temp\ccJfYAGa.s:139    .text.chIQResetI:00000000 chIQResetI
C:\Users\jsyoon\AppData\Local\Temp\ccJfYAGa.s:197    .text.chIQPutI:00000000 $t
C:\Users\jsyoon\AppData\Local\Temp\ccJfYAGa.s:203    .text.chIQPutI:00000000 chIQPutI
C:\Users\jsyoon\AppData\Local\Temp\ccJfYAGa.s:291    .text.chIQGetTimeout:00000000 $t
C:\Users\jsyoon\AppData\Local\Temp\ccJfYAGa.s:297    .text.chIQGetTimeout:00000000 chIQGetTimeout
C:\Users\jsyoon\AppData\Local\Temp\ccJfYAGa.s:385    .text.chIQReadTimeout:00000000 $t
C:\Users\jsyoon\AppData\Local\Temp\ccJfYAGa.s:391    .text.chIQReadTimeout:00000000 chIQReadTimeout
C:\Users\jsyoon\AppData\Local\Temp\ccJfYAGa.s:507    .text.chOQInit:00000000 $t
C:\Users\jsyoon\AppData\Local\Temp\ccJfYAGa.s:513    .text.chOQInit:00000000 chOQInit
C:\Users\jsyoon\AppData\Local\Temp\ccJfYAGa.s:551    .text.chOQResetI:00000000 $t
C:\Users\jsyoon\AppData\Local\Temp\ccJfYAGa.s:557    .text.chOQResetI:00000000 chOQResetI
C:\Users\jsyoon\AppData\Local\Temp\ccJfYAGa.s:618    .text.chOQPutTimeout:00000000 $t
C:\Users\jsyoon\AppData\Local\Temp\ccJfYAGa.s:624    .text.chOQPutTimeout:00000000 chOQPutTimeout
C:\Users\jsyoon\AppData\Local\Temp\ccJfYAGa.s:723    .text.chOQGetI:00000000 $t
C:\Users\jsyoon\AppData\Local\Temp\ccJfYAGa.s:729    .text.chOQGetI:00000000 chOQGetI
C:\Users\jsyoon\AppData\Local\Temp\ccJfYAGa.s:815    .text.chOQWriteTimeout:00000000 $t
C:\Users\jsyoon\AppData\Local\Temp\ccJfYAGa.s:821    .text.chOQWriteTimeout:00000000 chOQWriteTimeout
                     .debug_frame:00000010 $d

UNDEFINED SYMBOLS
chSchGoSleepTimeoutS
rlist
chSchReadyI
