ARM GAS  C:\Users\jsyoon\AppData\Local\Temp\ccJfYAGa.s 			page 1


   1              		.syntax unified
   2              		.cpu cortex-m4
   3              		.eabi_attribute 27, 3
   4              		.eabi_attribute 28, 1
   5              		.fpu fpv4-sp-d16
   6              		.eabi_attribute 20, 1
   7              		.eabi_attribute 21, 1
   8              		.eabi_attribute 23, 3
   9              		.eabi_attribute 24, 1
  10              		.eabi_attribute 25, 1
  11              		.eabi_attribute 26, 1
  12              		.eabi_attribute 30, 2
  13              		.eabi_attribute 34, 1
  14              		.eabi_attribute 18, 4
  15              		.thumb
  16              		.file	"chqueues.c"
  17              		.text
  18              	.Ltext0:
  19              		.cfi_sections	.debug_frame
  20              		.section	.text.qwait,"ax",%progbits
  21              		.align	2
  22              		.p2align 4,,15
  23              		.thumb
  24              		.thumb_func
  25              		.type	qwait, %function
  26              	qwait:
  27              	.LFB7:
  28              		.file 1 "ChibiOS_2.6.6/os/kernel/src/chqueues.c"
  29              		.loc 1 70 0
  30              		.cfi_startproc
  31              		@ args = 0, pretend = 0, frame = 0
  32              		@ frame_needed = 0, uses_anonymous_args = 0
  33              		@ link register save eliminated.
  34              	.LVL0:
  35 0000 10B4     		push	{r4}
  36              		.cfi_def_cfa_offset 4
  37              		.cfi_offset 4, -4
  38              		.loc 1 70 0
  39 0002 0246     		mov	r2, r0
  40              		.loc 1 72 0
  41 0004 61B1     		cbz	r1, .L2
  42              		.loc 1 74 0
  43 0006 094B     		ldr	r3, .L4
  44 0008 9B69     		ldr	r3, [r3, #24]
  45 000a 5862     		str	r0, [r3, #36]
  46              	.LVL1:
  47              	.LBB12:
  48              	.LBB13:
  49              		.file 2 "ChibiOS_2.6.6/os/kernel/include/chinline.h"
  50              		.loc 2 55 0
  51 000c 4468     		ldr	r4, [r0, #4]
  52              	.LBE13:
  53              	.LBE12:
  54              		.loc 1 76 0
  55 000e 0D20     		movs	r0, #13
  56              	.LVL2:
  57              	.LBB15:
ARM GAS  C:\Users\jsyoon\AppData\Local\Temp\ccJfYAGa.s 			page 2


  58              	.LBB14:
  59              		.loc 2 55 0
  60 0010 83E81400 		stmia	r3, {r2, r4}
  61              		.loc 2 56 0
  62 0014 5360     		str	r3, [r2, #4]
  63 0016 2360     		str	r3, [r4]
  64              	.LBE14:
  65              	.LBE15:
  66              		.loc 1 77 0
  67 0018 5DF8044B 		ldr	r4, [sp], #4
  68              		.loc 1 76 0
  69 001c FFF7FEBF 		b	chSchGoSleepTimeoutS
  70              	.LVL3:
  71              	.L2:
  72              		.loc 1 77 0
  73 0020 4FF0FF30 		mov	r0, #-1
  74              	.LVL4:
  75 0024 5DF8044B 		ldr	r4, [sp], #4
  76 0028 7047     		bx	lr
  77              	.L5:
  78 002a 00BF     		.align	2
  79              	.L4:
  80 002c 00000000 		.word	rlist
  81              		.cfi_endproc
  82              	.LFE7:
  83              		.size	qwait, .-qwait
  84              		.section	.text.chIQInit,"ax",%progbits
  85              		.align	2
  86              		.p2align 4,,15
  87              		.global	chIQInit
  88              		.thumb
  89              		.thumb_func
  90              		.type	chIQInit, %function
  91              	chIQInit:
  92              	.LFB8:
  93              		.loc 1 96 0
  94              		.cfi_startproc
  95              		@ args = 4, pretend = 0, frame = 0
  96              		@ frame_needed = 0, uses_anonymous_args = 0
  97              		@ link register save eliminated.
  98              	.LVL5:
  99 0000 30B4     		push	{r4, r5}
 100              		.cfi_def_cfa_offset 8
 101              		.cfi_offset 4, -8
 102              		.cfi_offset 5, -4
 103              		.loc 1 96 0
 104 0002 029C     		ldr	r4, [sp, #8]
 105              		.loc 1 103 0
 106 0004 0462     		str	r4, [r0, #32]
 107              		.loc 1 99 0
 108 0006 0025     		movs	r5, #0
 109              		.loc 1 101 0
 110 0008 0A44     		add	r2, r2, r1
 111              	.LVL6:
 112              		.loc 1 99 0
 113 000a 8560     		str	r5, [r0, #8]
 114              		.loc 1 101 0
ARM GAS  C:\Users\jsyoon\AppData\Local\Temp\ccJfYAGa.s 			page 3


 115 000c 0261     		str	r2, [r0, #16]
 116              		.loc 1 98 0
 117 000e 4060     		str	r0, [r0, #4]
 118 0010 0060     		str	r0, [r0]
 119              		.loc 1 100 0
 120 0012 4161     		str	r1, [r0, #20]
 121 0014 8161     		str	r1, [r0, #24]
 122 0016 C160     		str	r1, [r0, #12]
 123              		.loc 1 102 0
 124 0018 C361     		str	r3, [r0, #28]
 125              		.loc 1 104 0
 126 001a 30BC     		pop	{r4, r5}
 127              	.LVL7:
 128 001c 7047     		bx	lr
 129              		.cfi_endproc
 130              	.LFE8:
 131              		.size	chIQInit, .-chIQInit
 132 001e 00BF     		.section	.text.chIQResetI,"ax",%progbits
 133              		.align	2
 134              		.p2align 4,,15
 135              		.global	chIQResetI
 136              		.thumb
 137              		.thumb_func
 138              		.type	chIQResetI, %function
 139              	chIQResetI:
 140              	.LFB9:
 141              		.loc 1 117 0
 142              		.cfi_startproc
 143              		@ args = 0, pretend = 0, frame = 0
 144              		@ frame_needed = 0, uses_anonymous_args = 0
 145              	.LVL8:
 146 0000 38B5     		push	{r3, r4, r5, lr}
 147              		.cfi_def_cfa_offset 16
 148              		.cfi_offset 3, -16
 149              		.cfi_offset 4, -12
 150              		.cfi_offset 5, -8
 151              		.cfi_offset 14, -4
 152              		.loc 1 117 0
 153 0002 0446     		mov	r4, r0
 154              		.loc 1 123 0
 155 0004 0068     		ldr	r0, [r0]
 156              	.LVL9:
 157              		.loc 1 121 0
 158 0006 E368     		ldr	r3, [r4, #12]
 159 0008 6361     		str	r3, [r4, #20]
 160              		.loc 1 122 0
 161 000a 0022     		movs	r2, #0
 162              		.loc 1 123 0
 163 000c A042     		cmp	r0, r4
 164              		.loc 1 122 0
 165 000e A260     		str	r2, [r4, #8]
 166              		.loc 1 121 0
 167 0010 A361     		str	r3, [r4, #24]
 168              		.loc 1 123 0
 169 0012 0AD0     		beq	.L7
 170              		.loc 1 124 0
 171 0014 6FF00105 		mvn	r5, #1
ARM GAS  C:\Users\jsyoon\AppData\Local\Temp\ccJfYAGa.s 			page 4


 172              	.L10:
 173              	.LVL10:
 174              	.LBB16:
 175              	.LBB17:
 176              		.loc 2 62 0
 177 0018 0368     		ldr	r3, [r0]
 178 001a 2360     		str	r3, [r4]
 179 001c 5C60     		str	r4, [r3, #4]
 180              	.LBE17:
 181              	.LBE16:
 182              		.loc 1 124 0
 183 001e FFF7FEFF 		bl	chSchReadyI
 184              	.LVL11:
 185 0022 4562     		str	r5, [r0, #36]
 186              		.loc 1 123 0
 187 0024 2068     		ldr	r0, [r4]
 188 0026 A042     		cmp	r0, r4
 189 0028 F6D1     		bne	.L10
 190              	.LVL12:
 191              	.L7:
 192 002a 38BD     		pop	{r3, r4, r5, pc}
 193              		.cfi_endproc
 194              	.LFE9:
 195              		.size	chIQResetI, .-chIQResetI
 196 002c AFF30080 		.section	.text.chIQPutI,"ax",%progbits
 197              		.align	2
 198              		.p2align 4,,15
 199              		.global	chIQPutI
 200              		.thumb
 201              		.thumb_func
 202              		.type	chIQPutI, %function
 203              	chIQPutI:
 204              	.LFB10:
 205              		.loc 1 140 0
 206              		.cfi_startproc
 207              		@ args = 0, pretend = 0, frame = 0
 208              		@ frame_needed = 0, uses_anonymous_args = 0
 209              	.LVL13:
 210 0000 0346     		mov	r3, r0
 211              		.loc 1 144 0
 212 0002 4269     		ldr	r2, [r0, #20]
 213 0004 8069     		ldr	r0, [r0, #24]
 214              	.LVL14:
 215 0006 8242     		cmp	r2, r0
 216              		.loc 1 140 0
 217 0008 10B5     		push	{r4, lr}
 218              		.cfi_def_cfa_offset 8
 219              		.cfi_offset 4, -8
 220              		.cfi_offset 14, -4
 221              		.loc 1 144 0
 222 000a 9868     		ldr	r0, [r3, #8]
 223 000c 1BD0     		beq	.L20
 224              	.L14:
 225              		.loc 1 148 0
 226 000e 541C     		adds	r4, r2, #1
 227              		.loc 1 147 0
 228 0010 0130     		adds	r0, r0, #1
ARM GAS  C:\Users\jsyoon\AppData\Local\Temp\ccJfYAGa.s 			page 5


 229              		.loc 1 148 0
 230 0012 5C61     		str	r4, [r3, #20]
 231              		.loc 1 147 0
 232 0014 9860     		str	r0, [r3, #8]
 233              		.loc 1 148 0
 234 0016 1170     		strb	r1, [r2]
 235              		.loc 1 149 0
 236 0018 5969     		ldr	r1, [r3, #20]
 237              	.LVL15:
 238 001a 1A69     		ldr	r2, [r3, #16]
 239              	.LVL16:
 240 001c 9142     		cmp	r1, r2
 241 001e 0BD2     		bcs	.L15
 242              		.loc 1 152 0
 243 0020 1868     		ldr	r0, [r3]
 244 0022 9842     		cmp	r0, r3
 245 0024 0DD0     		beq	.L18
 246              	.LVL17:
 247              	.L21:
 248              	.LBB18:
 249              	.LBB19:
 250              		.loc 2 62 0
 251 0026 0268     		ldr	r2, [r0]
 252 0028 1A60     		str	r2, [r3]
 253 002a 5360     		str	r3, [r2, #4]
 254              	.LBE19:
 255              	.LBE18:
 256              		.loc 1 153 0
 257 002c FFF7FEFF 		bl	chSchReadyI
 258              	.LVL18:
 259 0030 0023     		movs	r3, #0
 260 0032 4362     		str	r3, [r0, #36]
 261              		.loc 1 155 0
 262 0034 1846     		mov	r0, r3
 263 0036 10BD     		pop	{r4, pc}
 264              	.LVL19:
 265              	.L15:
 266              		.loc 1 152 0
 267 0038 1868     		ldr	r0, [r3]
 268              		.loc 1 150 0
 269 003a DA68     		ldr	r2, [r3, #12]
 270 003c 5A61     		str	r2, [r3, #20]
 271              	.LVL20:
 272              		.loc 1 152 0
 273 003e 9842     		cmp	r0, r3
 274 0040 F1D1     		bne	.L21
 275              	.L18:
 276              		.loc 1 155 0
 277 0042 0020     		movs	r0, #0
 278 0044 10BD     		pop	{r4, pc}
 279              	.LVL21:
 280              	.L20:
 281              		.loc 1 144 0 discriminator 1
 282 0046 0028     		cmp	r0, #0
 283 0048 E1D0     		beq	.L14
 284              		.loc 1 145 0
 285 004a 6FF00300 		mvn	r0, #3
ARM GAS  C:\Users\jsyoon\AppData\Local\Temp\ccJfYAGa.s 			page 6


 286 004e 10BD     		pop	{r4, pc}
 287              		.cfi_endproc
 288              	.LFE10:
 289              		.size	chIQPutI, .-chIQPutI
 290              		.section	.text.chIQGetTimeout,"ax",%progbits
 291              		.align	2
 292              		.p2align 4,,15
 293              		.global	chIQGetTimeout
 294              		.thumb
 295              		.thumb_func
 296              		.type	chIQGetTimeout, %function
 297              	chIQGetTimeout:
 298              	.LFB11:
 299              		.loc 1 178 0
 300              		.cfi_startproc
 301              		@ args = 0, pretend = 0, frame = 0
 302              		@ frame_needed = 0, uses_anonymous_args = 0
 303              	.LVL22:
 304 0000 38B5     		push	{r3, r4, r5, lr}
 305              		.cfi_def_cfa_offset 16
 306              		.cfi_offset 3, -16
 307              		.cfi_offset 4, -12
 308              		.cfi_offset 5, -8
 309              		.cfi_offset 14, -4
 310              		.loc 1 178 0
 311 0002 0D46     		mov	r5, r1
 312 0004 0446     		mov	r4, r0
 313              		.loc 1 181 0
 314              	@ 181 "ChibiOS_2.6.6/os/kernel/src/chqueues.c" 1
 315 0006 72B6     		cpsid   i
 316              	@ 0 "" 2
 317              		.loc 1 182 0
 318              		.thumb
 319 0008 C369     		ldr	r3, [r0, #28]
 320 000a 2BB1     		cbz	r3, .L25
 321              		.loc 1 183 0
 322 000c 9847     		blx	r3
 323              	.LVL23:
 324 000e 03E0     		b	.L25
 325              	.LVL24:
 326              	.L27:
 327              	.LBB20:
 328              		.loc 1 187 0
 329 0010 FFF7FEFF 		bl	qwait
 330              	.LVL25:
 331 0014 0028     		cmp	r0, #0
 332 0016 10DB     		blt	.L28
 333              	.LVL26:
 334              	.L25:
 335              	.LBE20:
 336              		.loc 1 185 0 discriminator 1
 337 0018 A368     		ldr	r3, [r4, #8]
 338              	.LBB21:
 339              		.loc 1 187 0 discriminator 1
 340 001a 2046     		mov	r0, r4
 341 001c 2946     		mov	r1, r5
 342              	.LBE21:
ARM GAS  C:\Users\jsyoon\AppData\Local\Temp\ccJfYAGa.s 			page 7


 343              		.loc 1 185 0 discriminator 1
 344 001e 002B     		cmp	r3, #0
 345 0020 F6D0     		beq	.L27
 346              	.LVL27:
 347              		.loc 1 194 0
 348 0022 A169     		ldr	r1, [r4, #24]
 349              	.LVL28:
 350              		.loc 1 195 0
 351 0024 2569     		ldr	r5, [r4, #16]
 352              	.LVL29:
 353              		.loc 1 194 0
 354 0026 4A1C     		adds	r2, r1, #1
 355              		.loc 1 193 0
 356 0028 013B     		subs	r3, r3, #1
 357              		.loc 1 195 0
 358 002a AA42     		cmp	r2, r5
 359              		.loc 1 193 0
 360 002c A360     		str	r3, [r4, #8]
 361              		.loc 1 194 0
 362 002e A261     		str	r2, [r4, #24]
 363              		.loc 1 196 0
 364 0030 28BF     		it	cs
 365 0032 E368     		ldrcs	r3, [r4, #12]
 366              		.loc 1 194 0
 367 0034 0878     		ldrb	r0, [r1]	@ zero_extendqisi2
 368              	.LVL30:
 369              		.loc 1 196 0
 370 0036 28BF     		it	cs
 371 0038 A361     		strcs	r3, [r4, #24]
 372              	.LVL31:
 373              	.L28:
 374              		.loc 1 198 0
 375              	@ 198 "ChibiOS_2.6.6/os/kernel/src/chqueues.c" 1
 376 003a 62B6     		cpsie   i
 377              	@ 0 "" 2
 378              		.loc 1 200 0
 379              		.thumb
 380 003c 38BD     		pop	{r3, r4, r5, pc}
 381              		.cfi_endproc
 382              	.LFE11:
 383              		.size	chIQGetTimeout, .-chIQGetTimeout
 384 003e 00BF     		.section	.text.chIQReadTimeout,"ax",%progbits
 385              		.align	2
 386              		.p2align 4,,15
 387              		.global	chIQReadTimeout
 388              		.thumb
 389              		.thumb_func
 390              		.type	chIQReadTimeout, %function
 391              	chIQReadTimeout:
 392              	.LFB12:
 393              		.loc 1 227 0
 394              		.cfi_startproc
 395              		@ args = 0, pretend = 0, frame = 0
 396              		@ frame_needed = 0, uses_anonymous_args = 0
 397              	.LVL32:
 398 0000 2DE9F047 		push	{r4, r5, r6, r7, r8, r9, r10, lr}
 399              		.cfi_def_cfa_offset 32
ARM GAS  C:\Users\jsyoon\AppData\Local\Temp\ccJfYAGa.s 			page 8


 400              		.cfi_offset 4, -32
 401              		.cfi_offset 5, -28
 402              		.cfi_offset 6, -24
 403              		.cfi_offset 7, -20
 404              		.cfi_offset 8, -16
 405              		.cfi_offset 9, -12
 406              		.cfi_offset 10, -8
 407              		.cfi_offset 14, -4
 408              		.loc 1 227 0
 409 0004 0446     		mov	r4, r0
 410 0006 1E46     		mov	r6, r3
 411              		.loc 1 228 0
 412 0008 D0F81C80 		ldr	r8, [r0, #28]
 413              	.LVL33:
 414              		.loc 1 233 0
 415              	@ 233 "ChibiOS_2.6.6/os/kernel/src/chqueues.c" 1
 416 000c 72B6     		cpsid   i
 417              	@ 0 "" 2
 418              		.loc 1 229 0
 419              		.thumb
 420 000e 4FF00009 		mov	r9, #0
 421 0012 01EB020A 		add	r10, r1, r2
 422 0016 4F1C     		adds	r7, r1, #1
 423              	.LVL34:
 424              	.L39:
 425              		.loc 1 235 0
 426 0018 B8F1000F 		cmp	r8, #0
 427 001c 05D0     		beq	.L35
 428              		.loc 1 236 0
 429 001e 2046     		mov	r0, r4
 430              	.LVL35:
 431 0020 C047     		blx	r8
 432              	.LVL36:
 433 0022 02E0     		b	.L35
 434              	.LVL37:
 435              	.L37:
 436              		.loc 1 239 0
 437 0024 FFF7FEFF 		bl	qwait
 438              	.LVL38:
 439 0028 D0B9     		cbnz	r0, .L43
 440              	.L35:
 441              		.loc 1 238 0 discriminator 1
 442 002a A568     		ldr	r5, [r4, #8]
 443              		.loc 1 239 0 discriminator 1
 444 002c 2046     		mov	r0, r4
 445 002e 3146     		mov	r1, r6
 446              		.loc 1 238 0 discriminator 1
 447 0030 002D     		cmp	r5, #0
 448 0032 F7D0     		beq	.L37
 449              	.LVL39:
 450              		.loc 1 246 0
 451 0034 A369     		ldr	r3, [r4, #24]
 452              		.loc 1 245 0
 453 0036 013D     		subs	r5, r5, #1
 454              		.loc 1 246 0
 455 0038 5A1C     		adds	r2, r3, #1
 456 003a A261     		str	r2, [r4, #24]
ARM GAS  C:\Users\jsyoon\AppData\Local\Temp\ccJfYAGa.s 			page 9


 457              		.loc 1 245 0
 458 003c A560     		str	r5, [r4, #8]
 459              	.LVL40:
 460              		.loc 1 246 0
 461 003e 1B78     		ldrb	r3, [r3]	@ zero_extendqisi2
 462 0040 07F8013C 		strb	r3, [r7, #-1]
 463              		.loc 1 247 0
 464 0044 2369     		ldr	r3, [r4, #16]
 465 0046 A269     		ldr	r2, [r4, #24]
 466 0048 9A42     		cmp	r2, r3
 467              		.loc 1 248 0
 468 004a 24BF     		itt	cs
 469 004c E368     		ldrcs	r3, [r4, #12]
 470 004e A361     		strcs	r3, [r4, #24]
 471              		.loc 1 250 0
 472              	@ 250 "ChibiOS_2.6.6/os/kernel/src/chqueues.c" 1
 473 0050 62B6     		cpsie   i
 474              	@ 0 "" 2
 475              		.loc 1 252 0
 476              		.thumb
 477 0052 5745     		cmp	r7, r10
 478              		.loc 1 251 0
 479 0054 09F10109 		add	r9, r9, #1
 480              	.LVL41:
 481              		.loc 1 252 0
 482 0058 03D0     		beq	.L36
 483              		.loc 1 255 0
 484              	@ 255 "ChibiOS_2.6.6/os/kernel/src/chqueues.c" 1
 485 005a 72B6     		cpsid   i
 486              	@ 0 "" 2
 487              		.thumb
 488 005c 0137     		adds	r7, r7, #1
 489              		.loc 1 256 0
 490 005e DBE7     		b	.L39
 491              	.LVL42:
 492              	.L43:
 493              		.loc 1 240 0
 494              	@ 240 "ChibiOS_2.6.6/os/kernel/src/chqueues.c" 1
 495 0060 62B6     		cpsie   i
 496              	@ 0 "" 2
 497              	.LVL43:
 498              		.thumb
 499              	.L36:
 500              		.loc 1 257 0
 501 0062 4846     		mov	r0, r9
 502 0064 BDE8F087 		pop	{r4, r5, r6, r7, r8, r9, r10, pc}
 503              		.cfi_endproc
 504              	.LFE12:
 505              		.size	chIQReadTimeout, .-chIQReadTimeout
 506 0068 AFF30080 		.section	.text.chOQInit,"ax",%progbits
 506      AFF30080 
 507              		.align	2
 508              		.p2align 4,,15
 509              		.global	chOQInit
 510              		.thumb
 511              		.thumb_func
 512              		.type	chOQInit, %function
ARM GAS  C:\Users\jsyoon\AppData\Local\Temp\ccJfYAGa.s 			page 10


 513              	chOQInit:
 514              	.LFB13:
 515              		.loc 1 276 0
 516              		.cfi_startproc
 517              		@ args = 4, pretend = 0, frame = 0
 518              		@ frame_needed = 0, uses_anonymous_args = 0
 519              		@ link register save eliminated.
 520              	.LVL44:
 521 0000 30B4     		push	{r4, r5}
 522              		.cfi_def_cfa_offset 8
 523              		.cfi_offset 4, -8
 524              		.cfi_offset 5, -4
 525              		.loc 1 276 0
 526 0002 029C     		ldr	r4, [sp, #8]
 527              		.loc 1 283 0
 528 0004 0462     		str	r4, [r0, #32]
 529              		.loc 1 281 0
 530 0006 8D18     		adds	r5, r1, r2
 531 0008 0561     		str	r5, [r0, #16]
 532              		.loc 1 278 0
 533 000a 4060     		str	r0, [r0, #4]
 534 000c 0060     		str	r0, [r0]
 535              		.loc 1 279 0
 536 000e 8260     		str	r2, [r0, #8]
 537              		.loc 1 280 0
 538 0010 4161     		str	r1, [r0, #20]
 539 0012 8161     		str	r1, [r0, #24]
 540 0014 C160     		str	r1, [r0, #12]
 541              		.loc 1 282 0
 542 0016 C361     		str	r3, [r0, #28]
 543              		.loc 1 284 0
 544 0018 30BC     		pop	{r4, r5}
 545              	.LVL45:
 546 001a 7047     		bx	lr
 547              		.cfi_endproc
 548              	.LFE13:
 549              		.size	chOQInit, .-chOQInit
 550 001c AFF30080 		.section	.text.chOQResetI,"ax",%progbits
 551              		.align	2
 552              		.p2align 4,,15
 553              		.global	chOQResetI
 554              		.thumb
 555              		.thumb_func
 556              		.type	chOQResetI, %function
 557              	chOQResetI:
 558              	.LFB14:
 559              		.loc 1 297 0
 560              		.cfi_startproc
 561              		@ args = 0, pretend = 0, frame = 0
 562              		@ frame_needed = 0, uses_anonymous_args = 0
 563              	.LVL46:
 564 0000 38B5     		push	{r3, r4, r5, lr}
 565              		.cfi_def_cfa_offset 16
 566              		.cfi_offset 3, -16
 567              		.cfi_offset 4, -12
 568              		.cfi_offset 5, -8
 569              		.cfi_offset 14, -4
ARM GAS  C:\Users\jsyoon\AppData\Local\Temp\ccJfYAGa.s 			page 11


 570              		.loc 1 302 0
 571 0002 0269     		ldr	r2, [r0, #16]
 572              		.loc 1 301 0
 573 0004 C368     		ldr	r3, [r0, #12]
 574              		.loc 1 297 0
 575 0006 0446     		mov	r4, r0
 576              		.loc 1 303 0
 577 0008 0068     		ldr	r0, [r0]
 578              	.LVL47:
 579              		.loc 1 301 0
 580 000a 6361     		str	r3, [r4, #20]
 581              		.loc 1 302 0
 582 000c D21A     		subs	r2, r2, r3
 583              		.loc 1 303 0
 584 000e A042     		cmp	r0, r4
 585              		.loc 1 301 0
 586 0010 A361     		str	r3, [r4, #24]
 587              		.loc 1 302 0
 588 0012 A260     		str	r2, [r4, #8]
 589              		.loc 1 303 0
 590 0014 0AD0     		beq	.L45
 591              		.loc 1 304 0
 592 0016 6FF00105 		mvn	r5, #1
 593              	.L48:
 594              	.LVL48:
 595              	.LBB22:
 596              	.LBB23:
 597              		.loc 2 62 0
 598 001a 0368     		ldr	r3, [r0]
 599 001c 2360     		str	r3, [r4]
 600 001e 5C60     		str	r4, [r3, #4]
 601              	.LBE23:
 602              	.LBE22:
 603              		.loc 1 304 0
 604 0020 FFF7FEFF 		bl	chSchReadyI
 605              	.LVL49:
 606 0024 4562     		str	r5, [r0, #36]
 607              		.loc 1 303 0
 608 0026 2068     		ldr	r0, [r4]
 609 0028 A042     		cmp	r0, r4
 610 002a F6D1     		bne	.L48
 611              	.LVL50:
 612              	.L45:
 613 002c 38BD     		pop	{r3, r4, r5, pc}
 614              		.cfi_endproc
 615              	.LFE14:
 616              		.size	chOQResetI, .-chOQResetI
 617 002e 00BF     		.section	.text.chOQPutTimeout,"ax",%progbits
 618              		.align	2
 619              		.p2align 4,,15
 620              		.global	chOQPutTimeout
 621              		.thumb
 622              		.thumb_func
 623              		.type	chOQPutTimeout, %function
 624              	chOQPutTimeout:
 625              	.LFB15:
 626              		.loc 1 329 0
ARM GAS  C:\Users\jsyoon\AppData\Local\Temp\ccJfYAGa.s 			page 12


 627              		.cfi_startproc
 628              		@ args = 0, pretend = 0, frame = 0
 629              		@ frame_needed = 0, uses_anonymous_args = 0
 630              	.LVL51:
 631 0000 70B5     		push	{r4, r5, r6, lr}
 632              		.cfi_def_cfa_offset 16
 633              		.cfi_offset 4, -16
 634              		.cfi_offset 5, -12
 635              		.cfi_offset 6, -8
 636              		.cfi_offset 14, -4
 637              		.loc 1 329 0
 638 0002 0446     		mov	r4, r0
 639 0004 0E46     		mov	r6, r1
 640 0006 1546     		mov	r5, r2
 641              		.loc 1 331 0
 642              	@ 331 "ChibiOS_2.6.6/os/kernel/src/chqueues.c" 1
 643 0008 72B6     		cpsid   i
 644              	@ 0 "" 2
 645              		.loc 1 332 0
 646              		.thumb
 647 000a 03E0     		b	.L50
 648              	.LVL52:
 649              	.L53:
 650              	.LBB24:
 651              		.loc 1 335 0
 652 000c FFF7FEFF 		bl	qwait
 653              	.LVL53:
 654 0010 0028     		cmp	r0, #0
 655 0012 17DB     		blt	.L59
 656              	.LVL54:
 657              	.L50:
 658              	.LBE24:
 659              		.loc 1 332 0 discriminator 1
 660 0014 A368     		ldr	r3, [r4, #8]
 661              	.LBB25:
 662              		.loc 1 335 0 discriminator 1
 663 0016 2046     		mov	r0, r4
 664 0018 2946     		mov	r1, r5
 665              	.LBE25:
 666              		.loc 1 332 0 discriminator 1
 667 001a 002B     		cmp	r3, #0
 668 001c F6D0     		beq	.L53
 669              	.LVL55:
 670              		.loc 1 342 0
 671 001e 6269     		ldr	r2, [r4, #20]
 672              		.loc 1 341 0
 673 0020 013B     		subs	r3, r3, #1
 674              		.loc 1 342 0
 675 0022 511C     		adds	r1, r2, #1
 676              	.LVL56:
 677 0024 6161     		str	r1, [r4, #20]
 678              		.loc 1 341 0
 679 0026 A360     		str	r3, [r4, #8]
 680              		.loc 1 342 0
 681 0028 1670     		strb	r6, [r2]
 682              		.loc 1 343 0
 683 002a 2369     		ldr	r3, [r4, #16]
ARM GAS  C:\Users\jsyoon\AppData\Local\Temp\ccJfYAGa.s 			page 13


 684 002c 6269     		ldr	r2, [r4, #20]
 685 002e 9A42     		cmp	r2, r3
 686              		.loc 1 344 0
 687 0030 24BF     		itt	cs
 688 0032 E368     		ldrcs	r3, [r4, #12]
 689 0034 6361     		strcs	r3, [r4, #20]
 690              		.loc 1 346 0
 691 0036 E369     		ldr	r3, [r4, #28]
 692 0038 0BB1     		cbz	r3, .L55
 693              		.loc 1 347 0
 694 003a 2046     		mov	r0, r4
 695              	.LVL57:
 696 003c 9847     		blx	r3
 697              	.LVL58:
 698              	.L55:
 699              		.loc 1 349 0
 700              	@ 349 "ChibiOS_2.6.6/os/kernel/src/chqueues.c" 1
 701 003e 62B6     		cpsie   i
 702              	@ 0 "" 2
 703              		.loc 1 350 0
 704              		.thumb
 705 0040 0020     		movs	r0, #0
 706              		.loc 1 351 0
 707 0042 70BD     		pop	{r4, r5, r6, pc}
 708              	.LVL59:
 709              	.L59:
 710              	.LBB26:
 711              		.loc 1 336 0
 712              	@ 336 "ChibiOS_2.6.6/os/kernel/src/chqueues.c" 1
 713 0044 62B6     		cpsie   i
 714              	@ 0 "" 2
 715              		.loc 1 337 0
 716              		.thumb
 717 0046 70BD     		pop	{r4, r5, r6, pc}
 718              	.LBE26:
 719              		.cfi_endproc
 720              	.LFE15:
 721              		.size	chOQPutTimeout, .-chOQPutTimeout
 722 0048 AFF30080 		.section	.text.chOQGetI,"ax",%progbits
 722      AFF30080 
 723              		.align	2
 724              		.p2align 4,,15
 725              		.global	chOQGetI
 726              		.thumb
 727              		.thumb_func
 728              		.type	chOQGetI, %function
 729              	chOQGetI:
 730              	.LFB16:
 731              		.loc 1 363 0
 732              		.cfi_startproc
 733              		@ args = 0, pretend = 0, frame = 0
 734              		@ frame_needed = 0, uses_anonymous_args = 0
 735              	.LVL60:
 736              		.loc 1 368 0
 737 0000 4169     		ldr	r1, [r0, #20]
 738 0002 8269     		ldr	r2, [r0, #24]
 739 0004 9142     		cmp	r1, r2
ARM GAS  C:\Users\jsyoon\AppData\Local\Temp\ccJfYAGa.s 			page 14


 740              		.loc 1 363 0
 741 0006 10B5     		push	{r4, lr}
 742              		.cfi_def_cfa_offset 8
 743              		.cfi_offset 4, -8
 744              		.cfi_offset 14, -4
 745              		.loc 1 363 0
 746 0008 0346     		mov	r3, r0
 747              		.loc 1 368 0
 748 000a 8168     		ldr	r1, [r0, #8]
 749 000c 16D0     		beq	.L69
 750              	.L63:
 751              		.loc 1 373 0
 752 000e 1869     		ldr	r0, [r3, #16]
 753              	.LVL61:
 754              		.loc 1 371 0
 755 0010 4C1C     		adds	r4, r1, #1
 756              		.loc 1 372 0
 757 0012 511C     		adds	r1, r2, #1
 758              		.loc 1 371 0
 759 0014 9C60     		str	r4, [r3, #8]
 760              		.loc 1 372 0
 761 0016 9961     		str	r1, [r3, #24]
 762              		.loc 1 373 0
 763 0018 8142     		cmp	r1, r0
 764              		.loc 1 372 0
 765 001a 1478     		ldrb	r4, [r2]	@ zero_extendqisi2
 766              	.LVL62:
 767              		.loc 1 373 0
 768 001c 0BD2     		bcs	.L65
 769              	.LVL63:
 770              	.L66:
 771              		.loc 1 376 0
 772 001e 1868     		ldr	r0, [r3]
 773 0020 9842     		cmp	r0, r3
 774 0022 06D0     		beq	.L64
 775              	.LVL64:
 776              	.LBB27:
 777              	.LBB28:
 778              		.loc 2 62 0
 779 0024 0268     		ldr	r2, [r0]
 780 0026 1A60     		str	r2, [r3]
 781 0028 5360     		str	r3, [r2, #4]
 782              	.LBE28:
 783              	.LBE27:
 784              		.loc 1 377 0
 785 002a FFF7FEFF 		bl	chSchReadyI
 786              	.LVL65:
 787 002e 0023     		movs	r3, #0
 788 0030 4362     		str	r3, [r0, #36]
 789              	.LVL66:
 790              	.L64:
 791              		.loc 1 379 0
 792 0032 2046     		mov	r0, r4
 793 0034 10BD     		pop	{r4, pc}
 794              	.LVL67:
 795              	.L65:
 796              		.loc 1 374 0
ARM GAS  C:\Users\jsyoon\AppData\Local\Temp\ccJfYAGa.s 			page 15


 797 0036 DA68     		ldr	r2, [r3, #12]
 798              	.LVL68:
 799 0038 9A61     		str	r2, [r3, #24]
 800              	.LVL69:
 801 003a F0E7     		b	.L66
 802              	.LVL70:
 803              	.L69:
 804              		.loc 1 368 0 discriminator 1
 805 003c 0029     		cmp	r1, #0
 806 003e E6D0     		beq	.L63
 807              		.loc 1 369 0
 808 0040 6FF00200 		mvn	r0, #2
 809              	.LVL71:
 810 0044 10BD     		pop	{r4, pc}
 811              		.cfi_endproc
 812              	.LFE16:
 813              		.size	chOQGetI, .-chOQGetI
 814 0046 00BFAFF3 		.section	.text.chOQWriteTimeout,"ax",%progbits
 814      0080AFF3 
 814      0080
 815              		.align	2
 816              		.p2align 4,,15
 817              		.global	chOQWriteTimeout
 818              		.thumb
 819              		.thumb_func
 820              		.type	chOQWriteTimeout, %function
 821              	chOQWriteTimeout:
 822              	.LFB17:
 823              		.loc 1 407 0
 824              		.cfi_startproc
 825              		@ args = 0, pretend = 0, frame = 0
 826              		@ frame_needed = 0, uses_anonymous_args = 0
 827              	.LVL72:
 828 0000 2DE9F84F 		push	{r3, r4, r5, r6, r7, r8, r9, r10, fp, lr}
 829              		.cfi_def_cfa_offset 40
 830              		.cfi_offset 3, -40
 831              		.cfi_offset 4, -36
 832              		.cfi_offset 5, -32
 833              		.cfi_offset 6, -28
 834              		.cfi_offset 7, -24
 835              		.cfi_offset 8, -20
 836              		.cfi_offset 9, -16
 837              		.cfi_offset 10, -12
 838              		.cfi_offset 11, -8
 839              		.cfi_offset 14, -4
 840              		.loc 1 407 0
 841 0004 0446     		mov	r4, r0
 842 0006 0E46     		mov	r6, r1
 843 0008 1746     		mov	r7, r2
 844 000a 9A46     		mov	r10, r3
 845              		.loc 1 408 0
 846 000c D0F81C90 		ldr	r9, [r0, #28]
 847              	.LVL73:
 848              		.loc 1 413 0
 849              	@ 413 "ChibiOS_2.6.6/os/kernel/src/chqueues.c" 1
 850 0010 72B6     		cpsid   i
 851              	@ 0 "" 2
ARM GAS  C:\Users\jsyoon\AppData\Local\Temp\ccJfYAGa.s 			page 16


 852              		.loc 1 409 0
 853              		.thumb
 854 0012 4FF00008 		mov	r8, #0
 855              	.LVL74:
 856              	.L71:
 857              		.loc 1 415 0 discriminator 1
 858 0016 A568     		ldr	r5, [r4, #8]
 859              		.loc 1 422 0 discriminator 1
 860 0018 06F1010B 		add	fp, r6, #1
 861              	.LVL75:
 862              		.loc 1 427 0 discriminator 1
 863 001c 2046     		mov	r0, r4
 864              		.loc 1 421 0 discriminator 1
 865 001e 6B1E     		subs	r3, r5, #1
 866              		.loc 1 415 0 discriminator 1
 867 0020 BDB1     		cbz	r5, .L74
 868              	.LVL76:
 869              		.loc 1 422 0
 870 0022 6269     		ldr	r2, [r4, #20]
 871              		.loc 1 421 0
 872 0024 A360     		str	r3, [r4, #8]
 873              		.loc 1 422 0
 874 0026 531C     		adds	r3, r2, #1
 875 0028 6361     		str	r3, [r4, #20]
 876 002a 3378     		ldrb	r3, [r6]	@ zero_extendqisi2
 877 002c 1370     		strb	r3, [r2]
 878              		.loc 1 423 0
 879 002e 2369     		ldr	r3, [r4, #16]
 880 0030 6269     		ldr	r2, [r4, #20]
 881 0032 9A42     		cmp	r2, r3
 882              		.loc 1 424 0
 883 0034 24BF     		itt	cs
 884 0036 E368     		ldrcs	r3, [r4, #12]
 885 0038 6361     		strcs	r3, [r4, #20]
 886              		.loc 1 426 0
 887 003a B9F1000F 		cmp	r9, #0
 888 003e 00D0     		beq	.L76
 889              		.loc 1 427 0
 890 0040 C847     		blx	r9
 891              	.LVL77:
 892              	.L76:
 893              		.loc 1 429 0
 894              	@ 429 "ChibiOS_2.6.6/os/kernel/src/chqueues.c" 1
 895 0042 62B6     		cpsie   i
 896              	@ 0 "" 2
 897              		.loc 1 431 0
 898              		.thumb
 899 0044 013F     		subs	r7, r7, #1
 900              	.LVL78:
 901              		.loc 1 430 0
 902 0046 08F10108 		add	r8, r8, #1
 903              	.LVL79:
 904              		.loc 1 431 0
 905 004a 09D0     		beq	.L73
 906              		.loc 1 433 0
 907              	@ 433 "ChibiOS_2.6.6/os/kernel/src/chqueues.c" 1
 908 004c 72B6     		cpsid   i
ARM GAS  C:\Users\jsyoon\AppData\Local\Temp\ccJfYAGa.s 			page 17


 909              	@ 0 "" 2
 910              		.loc 1 422 0
 911              		.thumb
 912 004e 5E46     		mov	r6, fp
 913              		.loc 1 434 0
 914 0050 E1E7     		b	.L71
 915              	.LVL80:
 916              	.L74:
 917              		.loc 1 416 0
 918 0052 2046     		mov	r0, r4
 919              	.LVL81:
 920 0054 5146     		mov	r1, r10
 921 0056 FFF7FEFF 		bl	qwait
 922              	.LVL82:
 923 005a 0028     		cmp	r0, #0
 924 005c DBD0     		beq	.L71
 925              		.loc 1 417 0
 926              	@ 417 "ChibiOS_2.6.6/os/kernel/src/chqueues.c" 1
 927 005e 62B6     		cpsie   i
 928              	@ 0 "" 2
 929              	.LVL83:
 930              		.thumb
 931              	.L73:
 932              		.loc 1 435 0
 933 0060 4046     		mov	r0, r8
 934 0062 BDE8F88F 		pop	{r3, r4, r5, r6, r7, r8, r9, r10, fp, pc}
 935              		.cfi_endproc
 936              	.LFE17:
 937              		.size	chOQWriteTimeout, .-chOQWriteTimeout
 938 0066 00BFAFF3 		.text
 938      0080AFF3 
 938      0080
 939              	.Letext0:
 940              		.file 3 "c:\\crosstools\\gcc-arm-embedded\\4.8_2014q2\\lib\\gcc\\arm-none-eabi\\4.8.4\\include\\st
 941              		.file 4 "c:\\crosstools\\gcc-arm-embedded\\4.8_2014q2\\arm-none-eabi\\include\\machine\\_default_t
 942              		.file 5 "c:\\crosstools\\gcc-arm-embedded\\4.8_2014q2\\arm-none-eabi\\include\\stdint.h"
 943              		.file 6 "ChibiOS_2.6.6/os/ports/GCC/ARMCMx/chtypes.h"
 944              		.file 7 "ChibiOS_2.6.6/os/kernel/include/chlists.h"
 945              		.file 8 "ChibiOS_2.6.6/os/kernel/include/chthreads.h"
 946              		.file 9 "ChibiOS_2.6.6/os/ports/GCC/ARMCMx/chcore_v7m.h"
 947              		.file 10 "ChibiOS_2.6.6/os/kernel/include/chschd.h"
 948              		.file 11 "ChibiOS_2.6.6/os/kernel/include/chmtx.h"
 949              		.file 12 "ChibiOS_2.6.6/os/kernel/include/chqueues.h"