ARM GAS  C:\Users\jsyoon\AppData\Local\Temp\cc0ZuLTt.s 			page 1


   1              		.syntax unified
   2              		.cpu cortex-m4
   3              		.eabi_attribute 27, 3
   4              		.eabi_attribute 28, 1
   5              		.fpu fpv4-sp-d16
   6              		.eabi_attribute 20, 1
   7              		.eabi_attribute 21, 1
   8              		.eabi_attribute 23, 3
   9              		.eabi_attribute 24, 1
  10              		.eabi_attribute 25, 1
  11              		.eabi_attribute 26, 1
  12              		.eabi_attribute 30, 2
  13              		.eabi_attribute 34, 1
  14              		.eabi_attribute 18, 4
  15              		.thumb
  16              		.file	"chschd.c"
  17              		.text
  18              	.Ltext0:
  19              		.cfi_sections	.debug_frame
  20              		.section	.text.wakeup,"ax",%progbits
  21              		.align	2
  22              		.p2align 4,,15
  23              		.thumb
  24              		.thumb_func
  25              		.type	wakeup, %function
  26              	wakeup:
  27              	.LFB10:
  28              		.file 1 "ChibiOS_2.6.6/os/kernel/src/chschd.c"
  29              		.loc 1 136 0
  30              		.cfi_startproc
  31              		@ args = 0, pretend = 0, frame = 0
  32              		@ frame_needed = 0, uses_anonymous_args = 0
  33              		@ link register save eliminated.
  34              	.LVL0:
  35 0000 10B4     		push	{r4}
  36              		.cfi_def_cfa_offset 4
  37              		.cfi_offset 4, -4
  38              		.loc 1 139 0
  39              	@ 139 "ChibiOS_2.6.6/os/kernel/src/chschd.c" 1
  40 0002 72B6     		cpsid   i
  41              	@ 0 "" 2
  42              		.loc 1 140 0
  43              		.thumb
  44 0004 037F     		ldrb	r3, [r0, #28]	@ zero_extendqisi2
  45 0006 0D2B     		cmp	r3, #13
  46 0008 11D8     		bhi	.L2
  47 000a DFE803F0 		tbb	[pc, r3]
  48              	.L4:
  49 000e 20       		.byte	(.L10-.L4)/2
  50 000f 10       		.byte	(.L2-.L4)/2
  51 0010 10       		.byte	(.L2-.L4)/2
  52 0011 07       		.byte	(.L5-.L4)/2
  53 0012 10       		.byte	(.L2-.L4)/2
  54 0013 0B       		.byte	(.L6-.L4)/2
  55 0014 10       		.byte	(.L2-.L4)/2
  56 0015 10       		.byte	(.L2-.L4)/2
  57 0016 10       		.byte	(.L2-.L4)/2
ARM GAS  C:\Users\jsyoon\AppData\Local\Temp\cc0ZuLTt.s 			page 2


  58 0017 10       		.byte	(.L2-.L4)/2
  59 0018 10       		.byte	(.L2-.L4)/2
  60 0019 10       		.byte	(.L2-.L4)/2
  61 001a 10       		.byte	(.L2-.L4)/2
  62 001b 0B       		.byte	(.L6-.L4)/2
  63              		.p2align 1
  64              	.L5:
  65              		.loc 1 150 0
  66 001c 436A     		ldr	r3, [r0, #36]
  67 001e 9A68     		ldr	r2, [r3, #8]
  68 0020 0132     		adds	r2, r2, #1
  69 0022 9A60     		str	r2, [r3, #8]
  70              	.L6:
  71              	.LVL1:
  72              	.LBB19:
  73              	.LBB20:
  74              		.file 2 "ChibiOS_2.6.6/os/kernel/include/chinline.h"
  75              		.loc 2 75 0
  76 0024 90E80C00 		ldmia	r0, {r2, r3}
  77 0028 1A60     		str	r2, [r3]
  78              		.loc 2 76 0
  79 002a 0268     		ldr	r2, [r0]
  80 002c 5360     		str	r3, [r2, #4]
  81              	.LVL2:
  82              	.L2:
  83              	.LBE20:
  84              	.LBE19:
  85              		.loc 1 163 0
  86 002e 4FF0FF34 		mov	r4, #-1
  87              	.LBB21:
  88              	.LBB22:
  89              		.loc 1 92 0
  90 0032 0022     		movs	r2, #0
  91 0034 8168     		ldr	r1, [r0, #8]
  92              		.loc 1 93 0
  93 0036 084B     		ldr	r3, .L12
  94              	.LBE22:
  95              	.LBE21:
  96              		.loc 1 163 0
  97 0038 4462     		str	r4, [r0, #36]
  98              	.LVL3:
  99              	.LBB24:
 100              	.LBB23:
 101              		.loc 1 92 0
 102 003a 0277     		strb	r2, [r0, #28]
 103              	.LVL4:
 104              	.L9:
 105              		.loc 1 95 0
 106 003c 1B68     		ldr	r3, [r3]
 107              	.LVL5:
 108              		.loc 1 96 0
 109 003e 9A68     		ldr	r2, [r3, #8]
 110 0040 8A42     		cmp	r2, r1
 111 0042 FBD2     		bcs	.L9
 112              		.loc 1 99 0
 113 0044 5A68     		ldr	r2, [r3, #4]
 114 0046 4260     		str	r2, [r0, #4]
ARM GAS  C:\Users\jsyoon\AppData\Local\Temp\cc0ZuLTt.s 			page 3


 115              		.loc 1 98 0
 116 0048 0360     		str	r3, [r0]
 117              		.loc 1 100 0
 118 004a 5860     		str	r0, [r3, #4]
 119 004c 1060     		str	r0, [r2]
 120              	.LVL6:
 121              	.L10:
 122              	.LBE23:
 123              	.LBE24:
 124              		.loc 1 165 0
 125              	@ 165 "ChibiOS_2.6.6/os/kernel/src/chschd.c" 1
 126 004e 62B6     		cpsie   i
 127              	@ 0 "" 2
 128              		.loc 1 166 0
 129              		.thumb
 130 0050 5DF8044B 		ldr	r4, [sp], #4
 131 0054 7047     		bx	lr
 132              	.L13:
 133 0056 00BF     		.align	2
 134              	.L12:
 135 0058 00000000 		.word	.LANCHOR0
 136              		.cfi_endproc
 137              	.LFE10:
 138              		.size	wakeup, .-wakeup
 139 005c AFF30080 		.section	.text._scheduler_init,"ax",%progbits
 140              		.align	2
 141              		.p2align 4,,15
 142              		.global	_scheduler_init
 143              		.thumb
 144              		.thumb_func
 145              		.type	_scheduler_init, %function
 146              	_scheduler_init:
 147              	.LFB7:
 148              		.loc 1 55 0
 149              		.cfi_startproc
 150              		@ args = 0, pretend = 0, frame = 0
 151              		@ frame_needed = 0, uses_anonymous_args = 0
 152              		@ link register save eliminated.
 153              		.loc 1 57 0
 154 0000 034B     		ldr	r3, .L15
 155              		.loc 1 58 0
 156 0002 0022     		movs	r2, #0
 157              		.loc 1 57 0
 158 0004 5B60     		str	r3, [r3, #4]
 159 0006 1B60     		str	r3, [r3]
 160              		.loc 1 60 0
 161 0008 5B61     		str	r3, [r3, #20]
 162 000a 1B61     		str	r3, [r3, #16]
 163              		.loc 1 58 0
 164 000c 9A60     		str	r2, [r3, #8]
 165 000e 7047     		bx	lr
 166              	.L16:
 167              		.align	2
 168              	.L15:
 169 0010 00000000 		.word	.LANCHOR0
 170              		.cfi_endproc
 171              	.LFE7:
ARM GAS  C:\Users\jsyoon\AppData\Local\Temp\cc0ZuLTt.s 			page 4


 172              		.size	_scheduler_init, .-_scheduler_init
 173 0014 AFF30080 		.section	.text.chSchReadyI,"ax",%progbits
 173      AFF30080 
 173      AFF30080 
 174              		.align	2
 175              		.p2align 4,,15
 176              		.global	chSchReadyI
 177              		.thumb
 178              		.thumb_func
 179              		.type	chSchReadyI, %function
 180              	chSchReadyI:
 181              	.LFB8:
 182              		.loc 1 81 0
 183              		.cfi_startproc
 184              		@ args = 0, pretend = 0, frame = 0
 185              		@ frame_needed = 0, uses_anonymous_args = 0
 186              		@ link register save eliminated.
 187              	.LVL7:
 188              		.loc 1 92 0
 189 0000 0022     		movs	r2, #0
 190 0002 8168     		ldr	r1, [r0, #8]
 191              		.loc 1 93 0
 192 0004 084B     		ldr	r3, .L20
 193              		.loc 1 81 0
 194 0006 10B4     		push	{r4}
 195              		.cfi_def_cfa_offset 4
 196              		.cfi_offset 4, -4
 197              		.loc 1 81 0
 198 0008 0446     		mov	r4, r0
 199              		.loc 1 92 0
 200 000a 0277     		strb	r2, [r0, #28]
 201              	.LVL8:
 202              	.L19:
 203              		.loc 1 95 0 discriminator 1
 204 000c 1B68     		ldr	r3, [r3]
 205              	.LVL9:
 206              		.loc 1 96 0 discriminator 1
 207 000e 9A68     		ldr	r2, [r3, #8]
 208 0010 8A42     		cmp	r2, r1
 209 0012 FBD2     		bcs	.L19
 210              		.loc 1 99 0
 211 0014 5A68     		ldr	r2, [r3, #4]
 212 0016 6260     		str	r2, [r4, #4]
 213              		.loc 1 98 0
 214 0018 2360     		str	r3, [r4]
 215              		.loc 1 102 0
 216 001a 2046     		mov	r0, r4
 217              	.LVL10:
 218              		.loc 1 100 0
 219 001c 5C60     		str	r4, [r3, #4]
 220 001e 1460     		str	r4, [r2]
 221              		.loc 1 102 0
 222 0020 5DF8044B 		ldr	r4, [sp], #4
 223              	.LVL11:
 224 0024 7047     		bx	lr
 225              	.L21:
 226 0026 00BF     		.align	2
ARM GAS  C:\Users\jsyoon\AppData\Local\Temp\cc0ZuLTt.s 			page 5


 227              	.L20:
 228 0028 00000000 		.word	.LANCHOR0
 229              		.cfi_endproc
 230              	.LFE8:
 231              		.size	chSchReadyI, .-chSchReadyI
 232 002c AFF30080 		.section	.text.chSchGoSleepS,"ax",%progbits
 233              		.align	2
 234              		.p2align 4,,15
 235              		.global	chSchGoSleepS
 236              		.thumb
 237              		.thumb_func
 238              		.type	chSchGoSleepS, %function
 239              	chSchGoSleepS:
 240              	.LFB9:
 241              		.loc 1 115 0
 242              		.cfi_startproc
 243              		@ args = 0, pretend = 0, frame = 0
 244              		@ frame_needed = 0, uses_anonymous_args = 0
 245              		@ link register save eliminated.
 246              	.LVL12:
 247              		.loc 1 120 0
 248 0000 084B     		ldr	r3, .L23
 249              		.loc 1 115 0
 250 0002 30B4     		push	{r4, r5}
 251              		.cfi_def_cfa_offset 8
 252              		.cfi_offset 4, -8
 253              		.cfi_offset 5, -4
 254              	.LBB25:
 255              	.LBB26:
 256              		.loc 2 60 0
 257 0004 1A68     		ldr	r2, [r3]
 258              	.LBE26:
 259              	.LBE25:
 260              		.loc 1 120 0
 261 0006 9969     		ldr	r1, [r3, #24]
 262              	.LVL13:
 263              	.LBB30:
 264              	.LBB27:
 265              		.loc 2 62 0
 266 0008 1468     		ldr	r4, [r2]
 267              	.LBE27:
 268              	.LBE30:
 269              		.loc 1 120 0
 270 000a 0877     		strb	r0, [r1, #28]
 271              		.loc 1 127 0
 272 000c 0125     		movs	r5, #1
 273              		.loc 1 124 0
 274 000e 0420     		movs	r0, #4
 275              	.LVL14:
 276 0010 C877     		strb	r0, [r1, #31]
 277              	.LVL15:
 278              	.LBB31:
 279              	.LBB28:
 280              		.loc 2 62 0
 281 0012 6360     		str	r3, [r4, #4]
 282              	.LBE28:
 283              	.LBE31:
ARM GAS  C:\Users\jsyoon\AppData\Local\Temp\cc0ZuLTt.s 			page 6


 284              		.loc 1 127 0
 285 0014 1577     		strb	r5, [r2, #28]
 286              	.LVL16:
 287              	.LBB32:
 288              	.LBB29:
 289              		.loc 2 62 0
 290 0016 1C60     		str	r4, [r3]
 291              	.LBE29:
 292              	.LBE32:
 293              		.loc 1 128 0
 294 0018 1046     		mov	r0, r2
 295              		.loc 1 129 0
 296 001a 30BC     		pop	{r4, r5}
 297              		.loc 1 126 0
 298 001c 9A61     		str	r2, [r3, #24]
 299              		.loc 1 128 0
 300 001e FFF7FEBF 		b	_port_switch
 301              	.LVL17:
 302              	.L24:
 303 0022 00BF     		.align	2
 304              	.L23:
 305 0024 00000000 		.word	.LANCHOR0
 306              		.cfi_endproc
 307              	.LFE9:
 308              		.size	chSchGoSleepS, .-chSchGoSleepS
 309 0028 AFF30080 		.section	.text.chSchGoSleepTimeoutS,"ax",%progbits
 309      AFF30080 
 310              		.align	2
 311              		.p2align 4,,15
 312              		.global	chSchGoSleepTimeoutS
 313              		.thumb
 314              		.thumb_func
 315              		.type	chSchGoSleepTimeoutS, %function
 316              	chSchGoSleepTimeoutS:
 317              	.LFB11:
 318              		.loc 1 189 0
 319              		.cfi_startproc
 320              		@ args = 0, pretend = 0, frame = 24
 321              		@ frame_needed = 0, uses_anonymous_args = 0
 322              	.LVL18:
 323 0000 30B5     		push	{r4, r5, lr}
 324              		.cfi_def_cfa_offset 12
 325              		.cfi_offset 4, -12
 326              		.cfi_offset 5, -8
 327              		.cfi_offset 14, -4
 328              		.loc 1 193 0
 329 0002 4B1C     		adds	r3, r1, #1
 330              		.loc 1 189 0
 331 0004 87B0     		sub	sp, sp, #28
 332              		.cfi_def_cfa_offset 40
 333              		.loc 1 189 0
 334 0006 0546     		mov	r5, r0
 335              		.loc 1 193 0
 336 0008 11D0     		beq	.L26
 337              	.LBB33:
 338              		.loc 1 196 0
 339 000a 0C4C     		ldr	r4, .L32
ARM GAS  C:\Users\jsyoon\AppData\Local\Temp\cc0ZuLTt.s 			page 7


 340 000c 0C4A     		ldr	r2, .L32+4
 341 000e A369     		ldr	r3, [r4, #24]
 342 0010 01A8     		add	r0, sp, #4
 343              	.LVL19:
 344 0012 FFF7FEFF 		bl	chVTSetI
 345              	.LVL20:
 346              		.loc 1 197 0
 347 0016 2846     		mov	r0, r5
 348 0018 FFF7FEFF 		bl	chSchGoSleepS
 349              	.LVL21:
 350              		.loc 1 198 0
 351 001c 049B     		ldr	r3, [sp, #16]
 352 001e 13B1     		cbz	r3, .L28
 353              		.loc 1 199 0
 354 0020 01A8     		add	r0, sp, #4
 355 0022 FFF7FEFF 		bl	chVTResetI
 356              	.LVL22:
 357              	.L28:
 358              	.LBE33:
 359              		.loc 1 203 0
 360 0026 A369     		ldr	r3, [r4, #24]
 361              		.loc 1 204 0
 362 0028 586A     		ldr	r0, [r3, #36]
 363 002a 07B0     		add	sp, sp, #28
 364              		@ sp needed
 365 002c 30BD     		pop	{r4, r5, pc}
 366              	.LVL23:
 367              	.L26:
 368 002e 034C     		ldr	r4, .L32
 369              		.loc 1 202 0
 370 0030 FFF7FEFF 		bl	chSchGoSleepS
 371              	.LVL24:
 372              		.loc 1 203 0
 373 0034 A369     		ldr	r3, [r4, #24]
 374              		.loc 1 204 0
 375 0036 586A     		ldr	r0, [r3, #36]
 376 0038 07B0     		add	sp, sp, #28
 377              		@ sp needed
 378 003a 30BD     		pop	{r4, r5, pc}
 379              	.L33:
 380              		.align	2
 381              	.L32:
 382 003c 00000000 		.word	.LANCHOR0
 383 0040 00000000 		.word	wakeup
 384              		.cfi_endproc
 385              	.LFE11:
 386              		.size	chSchGoSleepTimeoutS, .-chSchGoSleepTimeoutS
 387 0044 AFF30080 		.section	.text.chSchWakeupS,"ax",%progbits
 387      AFF30080 
 387      AFF30080 
 388              		.align	2
 389              		.p2align 4,,15
 390              		.global	chSchWakeupS
 391              		.thumb
 392              		.thumb_func
 393              		.type	chSchWakeupS, %function
 394              	chSchWakeupS:
ARM GAS  C:\Users\jsyoon\AppData\Local\Temp\cc0ZuLTt.s 			page 8


 395              	.LFB12:
 396              		.loc 1 225 0
 397              		.cfi_startproc
 398              		@ args = 0, pretend = 0, frame = 0
 399              		@ frame_needed = 0, uses_anonymous_args = 0
 400              		@ link register save eliminated.
 401              	.LVL25:
 402              		.loc 1 234 0
 403 0000 DFF858C0 		ldr	ip, .L42
 404              		.loc 1 225 0
 405 0004 F0B4     		push	{r4, r5, r6, r7}
 406              		.cfi_def_cfa_offset 16
 407              		.cfi_offset 4, -16
 408              		.cfi_offset 5, -12
 409              		.cfi_offset 6, -8
 410              		.cfi_offset 7, -4
 411              		.loc 1 234 0
 412 0006 DCF81870 		ldr	r7, [ip, #24]
 413 000a 8568     		ldr	r5, [r0, #8]
 414 000c BC68     		ldr	r4, [r7, #8]
 415              		.loc 1 229 0
 416 000e 4162     		str	r1, [r0, #36]
 417              		.loc 1 234 0
 418 0010 A542     		cmp	r5, r4
 419              		.loc 1 225 0
 420 0012 0646     		mov	r6, r0
 421              		.loc 1 234 0
 422 0014 0DD8     		bhi	.L35
 423              	.LVL26:
 424              	.LBB34:
 425              	.LBB35:
 426              		.loc 1 92 0
 427 0016 0022     		movs	r2, #0
 428              		.loc 1 93 0
 429 0018 6346     		mov	r3, ip
 430              		.loc 1 92 0
 431 001a 0277     		strb	r2, [r0, #28]
 432              	.LVL27:
 433              	.L37:
 434              		.loc 1 95 0
 435 001c 1B68     		ldr	r3, [r3]
 436              	.LVL28:
 437              		.loc 1 96 0
 438 001e 9A68     		ldr	r2, [r3, #8]
 439 0020 9542     		cmp	r5, r2
 440 0022 FBD9     		bls	.L37
 441              		.loc 1 99 0
 442 0024 5A68     		ldr	r2, [r3, #4]
 443 0026 7260     		str	r2, [r6, #4]
 444              		.loc 1 98 0
 445 0028 3360     		str	r3, [r6]
 446              		.loc 1 100 0
 447 002a 5E60     		str	r6, [r3, #4]
 448 002c 1660     		str	r6, [r2]
 449              	.LBE35:
 450              	.LBE34:
 451              		.loc 1 242 0
ARM GAS  C:\Users\jsyoon\AppData\Local\Temp\cc0ZuLTt.s 			page 9


 452 002e F0BC     		pop	{r4, r5, r6, r7}
 453 0030 7047     		bx	lr
 454              	.LVL29:
 455              	.L35:
 456              	.LBB36:
 457              	.LBB37:
 458              	.LBB38:
 459              		.loc 1 92 0
 460 0032 0023     		movs	r3, #0
 461 0034 3B77     		strb	r3, [r7, #28]
 462              	.LVL30:
 463              		.loc 1 93 0
 464 0036 6346     		mov	r3, ip
 465              	.LVL31:
 466              	.L40:
 467              		.loc 1 95 0
 468 0038 1B68     		ldr	r3, [r3]
 469              	.LVL32:
 470              		.loc 1 96 0
 471 003a 9A68     		ldr	r2, [r3, #8]
 472 003c 9442     		cmp	r4, r2
 473 003e FBD9     		bls	.L40
 474              		.loc 1 99 0
 475 0040 5A68     		ldr	r2, [r3, #4]
 476 0042 7A60     		str	r2, [r7, #4]
 477              	.LBE38:
 478              	.LBE37:
 479              		.loc 1 239 0
 480 0044 0124     		movs	r4, #1
 481              	.LBB40:
 482              	.LBB39:
 483              		.loc 1 98 0
 484 0046 3B60     		str	r3, [r7]
 485              		.loc 1 100 0
 486 0048 5F60     		str	r7, [r3, #4]
 487 004a 1760     		str	r7, [r2]
 488              	.LBE39:
 489              	.LBE40:
 490              		.loc 1 239 0
 491 004c 3477     		strb	r4, [r6, #28]
 492              		.loc 1 240 0
 493 004e 3946     		mov	r1, r7
 494              	.LVL33:
 495 0050 3046     		mov	r0, r6
 496              	.LVL34:
 497              		.loc 1 238 0
 498 0052 CCF81860 		str	r6, [ip, #24]
 499              	.LBE36:
 500              		.loc 1 242 0
 501 0056 F0BC     		pop	{r4, r5, r6, r7}
 502              	.LVL35:
 503              	.LBB41:
 504              		.loc 1 240 0
 505 0058 FFF7FEBF 		b	_port_switch
 506              	.LVL36:
 507              	.L43:
 508              		.align	2
ARM GAS  C:\Users\jsyoon\AppData\Local\Temp\cc0ZuLTt.s 			page 10


 509              	.L42:
 510 005c 00000000 		.word	.LANCHOR0
 511              	.LBE41:
 512              		.cfi_endproc
 513              	.LFE12:
 514              		.size	chSchWakeupS, .-chSchWakeupS
 515              		.section	.text.chSchDoRescheduleBehind,"ax",%progbits
 516              		.align	2
 517              		.p2align 4,,15
 518              		.global	chSchDoRescheduleBehind
 519              		.thumb
 520              		.thumb_func
 521              		.type	chSchDoRescheduleBehind, %function
 522              	chSchDoRescheduleBehind:
 523              	.LFB14:
 524              		.loc 1 304 0
 525              		.cfi_startproc
 526              		@ args = 0, pretend = 0, frame = 0
 527              		@ frame_needed = 0, uses_anonymous_args = 0
 528              		@ link register save eliminated.
 529              		.loc 1 307 0
 530 0000 0E4A     		ldr	r2, .L48
 531              	.LBB42:
 532              	.LBB43:
 533              		.loc 2 60 0
 534 0002 1068     		ldr	r0, [r2]
 535              	.LBE43:
 536              	.LBE42:
 537              		.loc 1 304 0
 538 0004 F0B4     		push	{r4, r5, r6, r7}
 539              		.cfi_def_cfa_offset 16
 540              		.cfi_offset 4, -16
 541              		.cfi_offset 5, -12
 542              		.cfi_offset 6, -8
 543              		.cfi_offset 7, -4
 544              	.LBB47:
 545              	.LBB44:
 546              		.loc 2 62 0
 547 0006 0368     		ldr	r3, [r0]
 548              	.LBE44:
 549              	.LBE47:
 550              		.loc 1 307 0
 551 0008 9569     		ldr	r5, [r2, #24]
 552              	.LVL37:
 553              	.LBB48:
 554              	.LBB45:
 555              		.loc 2 62 0
 556 000a 1360     		str	r3, [r2]
 557              	.LBE45:
 558              	.LBE48:
 559              		.loc 1 310 0
 560 000c 0127     		movs	r7, #1
 561              		.loc 1 312 0
 562 000e 0426     		movs	r6, #4
 563              	.LBB49:
 564              	.LBB50:
 565              		.loc 1 92 0
ARM GAS  C:\Users\jsyoon\AppData\Local\Temp\cc0ZuLTt.s 			page 11


 566 0010 0021     		movs	r1, #0
 567 0012 AC68     		ldr	r4, [r5, #8]
 568              	.LBE50:
 569              	.LBE49:
 570              	.LBB54:
 571              	.LBB46:
 572              		.loc 2 62 0
 573 0014 5A60     		str	r2, [r3, #4]
 574              	.LBE46:
 575              	.LBE54:
 576              		.loc 1 310 0
 577 0016 0777     		strb	r7, [r0, #28]
 578              	.LBB55:
 579              	.LBB51:
 580              		.loc 1 92 0
 581 0018 0346     		mov	r3, r0
 582              	.LBE51:
 583              	.LBE55:
 584              		.loc 1 309 0
 585 001a 9061     		str	r0, [r2, #24]
 586              		.loc 1 312 0
 587 001c EE77     		strb	r6, [r5, #31]
 588              	.LVL38:
 589              	.LBB56:
 590              	.LBB52:
 591              		.loc 1 92 0
 592 001e 2977     		strb	r1, [r5, #28]
 593              	.LVL39:
 594 0020 00E0     		b	.L46
 595              	.LVL40:
 596              	.L47:
 597 0022 1B68     		ldr	r3, [r3]
 598              	.LVL41:
 599              	.L46:
 600              		.loc 1 96 0
 601 0024 9A68     		ldr	r2, [r3, #8]
 602 0026 A242     		cmp	r2, r4
 603 0028 FBD2     		bcs	.L47
 604              		.loc 1 99 0
 605 002a 5A68     		ldr	r2, [r3, #4]
 606 002c 6A60     		str	r2, [r5, #4]
 607              		.loc 1 98 0
 608 002e 2B60     		str	r3, [r5]
 609              	.LBE52:
 610              	.LBE56:
 611              		.loc 1 315 0
 612 0030 2946     		mov	r1, r5
 613              	.LBB57:
 614              	.LBB53:
 615              		.loc 1 100 0
 616 0032 5D60     		str	r5, [r3, #4]
 617 0034 1560     		str	r5, [r2]
 618              	.LBE53:
 619              	.LBE57:
 620              		.loc 1 316 0
 621 0036 F0BC     		pop	{r4, r5, r6, r7}
 622              	.LVL42:
ARM GAS  C:\Users\jsyoon\AppData\Local\Temp\cc0ZuLTt.s 			page 12


 623              		.loc 1 315 0
 624 0038 FFF7FEBF 		b	_port_switch
 625              	.LVL43:
 626              	.L49:
 627              		.align	2
 628              	.L48:
 629 003c 00000000 		.word	.LANCHOR0
 630              		.cfi_endproc
 631              	.LFE14:
 632              		.size	chSchDoRescheduleBehind, .-chSchDoRescheduleBehind
 633              		.section	.text.chSchDoRescheduleAhead,"ax",%progbits
 634              		.align	2
 635              		.p2align 4,,15
 636              		.global	chSchDoRescheduleAhead
 637              		.thumb
 638              		.thumb_func
 639              		.type	chSchDoRescheduleAhead, %function
 640              	chSchDoRescheduleAhead:
 641              	.LFB15:
 642              		.loc 1 329 0
 643              		.cfi_startproc
 644              		@ args = 0, pretend = 0, frame = 0
 645              		@ frame_needed = 0, uses_anonymous_args = 0
 646              		@ link register save eliminated.
 647              		.loc 1 332 0
 648 0000 0D4A     		ldr	r2, .L54
 649              	.LBB58:
 650              	.LBB59:
 651              		.loc 2 60 0
 652 0002 1068     		ldr	r0, [r2]
 653              	.LBE59:
 654              	.LBE58:
 655              		.loc 1 329 0
 656 0004 70B4     		push	{r4, r5, r6}
 657              		.cfi_def_cfa_offset 12
 658              		.cfi_offset 4, -12
 659              		.cfi_offset 5, -8
 660              		.cfi_offset 6, -4
 661              	.LBB63:
 662              	.LBB60:
 663              		.loc 2 62 0
 664 0006 0368     		ldr	r3, [r0]
 665              	.LBE60:
 666              	.LBE63:
 667              		.loc 1 332 0
 668 0008 9569     		ldr	r5, [r2, #24]
 669              	.LVL44:
 670              	.LBB64:
 671              	.LBB61:
 672              		.loc 2 62 0
 673 000a 1360     		str	r3, [r2]
 674              	.LBE61:
 675              	.LBE64:
 676              		.loc 1 335 0
 677 000c 0126     		movs	r6, #1
 678              		.loc 1 337 0
 679 000e 0021     		movs	r1, #0
ARM GAS  C:\Users\jsyoon\AppData\Local\Temp\cc0ZuLTt.s 			page 13


 680 0010 AC68     		ldr	r4, [r5, #8]
 681              	.LBB65:
 682              	.LBB62:
 683              		.loc 2 62 0
 684 0012 5A60     		str	r2, [r3, #4]
 685              	.LBE62:
 686              	.LBE65:
 687              		.loc 1 335 0
 688 0014 0677     		strb	r6, [r0, #28]
 689              		.loc 1 337 0
 690 0016 0346     		mov	r3, r0
 691              		.loc 1 334 0
 692 0018 9061     		str	r0, [r2, #24]
 693              		.loc 1 337 0
 694 001a 2977     		strb	r1, [r5, #28]
 695              	.LVL45:
 696 001c 00E0     		b	.L52
 697              	.LVL46:
 698              	.L53:
 699 001e 1B68     		ldr	r3, [r3]
 700              	.LVL47:
 701              	.L52:
 702              		.loc 1 341 0 discriminator 1
 703 0020 9A68     		ldr	r2, [r3, #8]
 704 0022 A242     		cmp	r2, r4
 705 0024 FBD8     		bhi	.L53
 706              		.loc 1 344 0
 707 0026 5A68     		ldr	r2, [r3, #4]
 708 0028 6A60     		str	r2, [r5, #4]
 709              		.loc 1 343 0
 710 002a 2B60     		str	r3, [r5]
 711              		.loc 1 347 0
 712 002c 2946     		mov	r1, r5
 713              		.loc 1 345 0
 714 002e 5D60     		str	r5, [r3, #4]
 715 0030 1560     		str	r5, [r2]
 716              		.loc 1 348 0
 717 0032 70BC     		pop	{r4, r5, r6}
 718              	.LVL48:
 719              		.loc 1 347 0
 720 0034 FFF7FEBF 		b	_port_switch
 721              	.LVL49:
 722              	.L55:
 723              		.align	2
 724              	.L54:
 725 0038 00000000 		.word	.LANCHOR0
 726              		.cfi_endproc
 727              	.LFE15:
 728              		.size	chSchDoRescheduleAhead, .-chSchDoRescheduleAhead
 729 003c AFF30080 		.section	.text.chSchRescheduleS,"ax",%progbits
 730              		.align	2
 731              		.p2align 4,,15
 732              		.global	chSchRescheduleS
 733              		.thumb
 734              		.thumb_func
 735              		.type	chSchRescheduleS, %function
 736              	chSchRescheduleS:
ARM GAS  C:\Users\jsyoon\AppData\Local\Temp\cc0ZuLTt.s 			page 14


 737              	.LFB13:
 738              		.loc 1 253 0
 739              		.cfi_startproc
 740              		@ args = 0, pretend = 0, frame = 0
 741              		@ frame_needed = 0, uses_anonymous_args = 0
 742              		@ link register save eliminated.
 743              		.loc 1 257 0
 744 0000 044B     		ldr	r3, .L59
 745 0002 1A68     		ldr	r2, [r3]
 746 0004 9B69     		ldr	r3, [r3, #24]
 747 0006 9268     		ldr	r2, [r2, #8]
 748 0008 9B68     		ldr	r3, [r3, #8]
 749 000a 9A42     		cmp	r2, r3
 750 000c 00D8     		bhi	.L58
 751 000e 7047     		bx	lr
 752              	.L58:
 753              		.loc 1 258 0
 754 0010 FFF7FEBF 		b	chSchDoRescheduleAhead
 755              	.LVL50:
 756              	.L60:
 757              		.align	2
 758              	.L59:
 759 0014 00000000 		.word	.LANCHOR0
 760              		.cfi_endproc
 761              	.LFE13:
 762              		.size	chSchRescheduleS, .-chSchRescheduleS
 763 0018 AFF30080 		.section	.text.chSchDoReschedule,"ax",%progbits
 763      AFF30080 
 764              		.align	2
 765              		.p2align 4,,15
 766              		.global	chSchDoReschedule
 767              		.thumb
 768              		.thumb_func
 769              		.type	chSchDoReschedule, %function
 770              	chSchDoReschedule:
 771              	.LFB16:
 772              		.loc 1 362 0
 773              		.cfi_startproc
 774              		@ args = 0, pretend = 0, frame = 0
 775              		@ frame_needed = 0, uses_anonymous_args = 0
 776              		@ link register save eliminated.
 777              		.loc 1 367 0
 778 0000 034B     		ldr	r3, .L64
 779 0002 9B69     		ldr	r3, [r3, #24]
 780 0004 DB7F     		ldrb	r3, [r3, #31]	@ zero_extendqisi2
 781 0006 0BB1     		cbz	r3, .L63
 782              		.loc 1 375 0
 783 0008 FFF7FEBF 		b	chSchDoRescheduleAhead
 784              	.LVL51:
 785              	.L63:
 786              		.loc 1 370 0
 787 000c FFF7FEBF 		b	chSchDoRescheduleBehind
 788              	.LVL52:
 789              	.L65:
 790              		.align	2
 791              	.L64:
 792 0010 00000000 		.word	.LANCHOR0
ARM GAS  C:\Users\jsyoon\AppData\Local\Temp\cc0ZuLTt.s 			page 15


 793              		.cfi_endproc
 794              	.LFE16:
 795              		.size	chSchDoReschedule, .-chSchDoReschedule
 796              		.global	rlist
 797 0014 AFF30080 		.section	.bss.rlist,"aw",%nobits
 797      AFF30080 
 797      AFF30080 
 798              		.align	2
 799              		.set	.LANCHOR0,. + 0
 800              		.type	rlist, %object
 801              		.size	rlist, 28
 802              	rlist:
 803 0000 00000000 		.space	28
 803      00000000 
 803      00000000 
 803      00000000 
 803      00000000 
 804              		.text
 805              	.Letext0:
 806              		.file 3 "c:\\crosstools\\gcc-arm-embedded\\4.8_2014q2\\arm-none-eabi\\include\\machine\\_default_t
 807              		.file 4 "c:\\crosstools\\gcc-arm-embedded\\4.8_2014q2\\arm-none-eabi\\include\\stdint.h"
 808              		.file 5 "ChibiOS_2.6.6/os/ports/GCC/ARMCMx/chtypes.h"
 809              		.file 6 "ChibiOS_2.6.6/os/kernel/include/chlists.h"
 810              		.file 7 "ChibiOS_2.6.6/os/kernel/include/chthreads.h"
 811              		.file 8 "ChibiOS_2.6.6/os/ports/GCC/ARMCMx/chcore_v7m.h"
 812              		.file 9 "ChibiOS_2.6.6/os/kernel/include/chvt.h"
 813              		.file 10 "ChibiOS_2.6.6/os/kernel/include/chschd.h"
 814              		.file 11 "ChibiOS_2.6.6/os/kernel/include/chsem.h"
 815              		.file 12 "ChibiOS_2.6.6/os/kernel/include/chmtx.h"