ARM GAS  C:\Users\jsyoon\AppData\Local\Temp\cc5Dm9fT.s 			page 1


   1              		.syntax unified
   2              		.cpu cortex-m4
   3              		.eabi_attribute 27, 3
   4              		.eabi_attribute 28, 1
   5              		.fpu fpv4-sp-d16
   6              		.eabi_attribute 20, 1
   7              		.eabi_attribute 21, 1
   8              		.eabi_attribute 23, 3
   9              		.eabi_attribute 24, 1
  10              		.eabi_attribute 25, 1
  11              		.eabi_attribute 26, 1
  12              		.eabi_attribute 30, 2
  13              		.eabi_attribute 34, 1
  14              		.eabi_attribute 18, 4
  15              		.thumb
  16              		.file	"chsem.c"
  17              		.text
  18              	.Ltext0:
  19              		.cfi_sections	.debug_frame
  20              		.section	.text.chSemInit,"ax",%progbits
  21              		.align	2
  22              		.p2align 4,,15
  23              		.global	chSemInit
  24              		.thumb
  25              		.thumb_func
  26              		.type	chSemInit, %function
  27              	chSemInit:
  28              	.LFB7:
  29              		.file 1 "ChibiOS_2.6.6/os/kernel/src/chsem.c"
  30              		.loc 1 86 0
  31              		.cfi_startproc
  32              		@ args = 0, pretend = 0, frame = 0
  33              		@ frame_needed = 0, uses_anonymous_args = 0
  34              		@ link register save eliminated.
  35              	.LVL0:
  36              		.loc 1 90 0
  37 0000 4060     		str	r0, [r0, #4]
  38 0002 0060     		str	r0, [r0]
  39              		.loc 1 91 0
  40 0004 8160     		str	r1, [r0, #8]
  41 0006 7047     		bx	lr
  42              		.cfi_endproc
  43              	.LFE7:
  44              		.size	chSemInit, .-chSemInit
  45 0008 AFF30080 		.section	.text.chSemResetI,"ax",%progbits
  45      AFF30080 
  46              		.align	2
  47              		.p2align 4,,15
  48              		.global	chSemResetI
  49              		.thumb
  50              		.thumb_func
  51              		.type	chSemResetI, %function
  52              	chSemResetI:
  53              	.LFB9:
  54              		.loc 1 136 0
  55              		.cfi_startproc
  56              		@ args = 0, pretend = 0, frame = 0
ARM GAS  C:\Users\jsyoon\AppData\Local\Temp\cc5Dm9fT.s 			page 2


  57              		@ frame_needed = 0, uses_anonymous_args = 0
  58              	.LVL1:
  59 0000 70B5     		push	{r4, r5, r6, lr}
  60              		.cfi_def_cfa_offset 16
  61              		.cfi_offset 4, -16
  62              		.cfi_offset 5, -12
  63              		.cfi_offset 6, -8
  64              		.cfi_offset 14, -4
  65              		.loc 1 141 0
  66 0002 8568     		ldr	r5, [r0, #8]
  67              	.LVL2:
  68              		.loc 1 147 0
  69 0004 8160     		str	r1, [r0, #8]
  70              		.loc 1 148 0
  71 0006 0135     		adds	r5, r5, #1
  72              	.LVL3:
  73 0008 002D     		cmp	r5, #0
  74              		.loc 1 136 0
  75 000a 0446     		mov	r4, r0
  76              		.loc 1 148 0
  77 000c 0BDC     		bgt	.L2
  78              		.loc 1 149 0
  79 000e 6FF00106 		mvn	r6, #1
  80              	.LVL4:
  81              	.L5:
  82              	.LBB20:
  83              	.LBB21:
  84              		.file 2 "ChibiOS_2.6.6/os/kernel/include/chinline.h"
  85              		.loc 2 67 0
  86 0012 6068     		ldr	r0, [r4, #4]
  87              	.LVL5:
  88              		.loc 2 69 0
  89 0014 4368     		ldr	r3, [r0, #4]
  90 0016 6360     		str	r3, [r4, #4]
  91 0018 1C60     		str	r4, [r3]
  92              	.LBE21:
  93              	.LBE20:
  94              		.loc 1 149 0
  95 001a FFF7FEFF 		bl	chSchReadyI
  96              	.LVL6:
  97              		.loc 1 148 0
  98 001e 0135     		adds	r5, r5, #1
  99              	.LVL7:
 100 0020 012D     		cmp	r5, #1
 101              		.loc 1 149 0
 102 0022 4662     		str	r6, [r0, #36]
 103              	.LVL8:
 104              		.loc 1 148 0
 105 0024 F5D1     		bne	.L5
 106              	.LVL9:
 107              	.L2:
 108 0026 70BD     		pop	{r4, r5, r6, pc}
 109              		.cfi_endproc
 110              	.LFE9:
 111              		.size	chSemResetI, .-chSemResetI
 112 0028 AFF30080 		.section	.text.chSemReset,"ax",%progbits
 112      AFF30080 
ARM GAS  C:\Users\jsyoon\AppData\Local\Temp\cc5Dm9fT.s 			page 3


 113              		.align	2
 114              		.p2align 4,,15
 115              		.global	chSemReset
 116              		.thumb
 117              		.thumb_func
 118              		.type	chSemReset, %function
 119              	chSemReset:
 120              	.LFB8:
 121              		.loc 1 109 0
 122              		.cfi_startproc
 123              		@ args = 0, pretend = 0, frame = 0
 124              		@ frame_needed = 0, uses_anonymous_args = 0
 125              	.LVL10:
 126 0000 08B5     		push	{r3, lr}
 127              		.cfi_def_cfa_offset 8
 128              		.cfi_offset 3, -8
 129              		.cfi_offset 14, -4
 130              		.loc 1 111 0
 131              	@ 111 "ChibiOS_2.6.6/os/kernel/src/chsem.c" 1
 132 0002 72B6     		cpsid   i
 133              	@ 0 "" 2
 134              		.loc 1 112 0
 135              		.thumb
 136 0004 FFF7FEFF 		bl	chSemResetI
 137              	.LVL11:
 138              		.loc 1 113 0
 139 0008 FFF7FEFF 		bl	chSchRescheduleS
 140              	.LVL12:
 141              		.loc 1 114 0
 142              	@ 114 "ChibiOS_2.6.6/os/kernel/src/chsem.c" 1
 143 000c 62B6     		cpsie   i
 144              	@ 0 "" 2
 145              		.thumb
 146 000e 08BD     		pop	{r3, pc}
 147              		.cfi_endproc
 148              	.LFE8:
 149              		.size	chSemReset, .-chSemReset
 150              		.section	.text.chSemWaitS,"ax",%progbits
 151              		.align	2
 152              		.p2align 4,,15
 153              		.global	chSemWaitS
 154              		.thumb
 155              		.thumb_func
 156              		.type	chSemWaitS, %function
 157              	chSemWaitS:
 158              	.LFB11:
 159              		.loc 1 185 0
 160              		.cfi_startproc
 161              		@ args = 0, pretend = 0, frame = 0
 162              		@ frame_needed = 0, uses_anonymous_args = 0
 163              	.LVL13:
 164              		.loc 1 194 0
 165 0000 8268     		ldr	r2, [r0, #8]
 166 0002 013A     		subs	r2, r2, #1
 167 0004 002A     		cmp	r2, #0
 168              		.loc 1 185 0
 169 0006 10B5     		push	{r4, lr}
ARM GAS  C:\Users\jsyoon\AppData\Local\Temp\cc5Dm9fT.s 			page 4


 170              		.cfi_def_cfa_offset 8
 171              		.cfi_offset 4, -8
 172              		.cfi_offset 14, -4
 173              		.loc 1 185 0
 174 0008 0346     		mov	r3, r0
 175              		.loc 1 194 0
 176 000a 8260     		str	r2, [r0, #8]
 177 000c 01DB     		blt	.L14
 178              		.loc 1 200 0
 179 000e 0020     		movs	r0, #0
 180              	.LVL14:
 181              		.loc 1 201 0
 182 0010 10BD     		pop	{r4, pc}
 183              	.LVL15:
 184              	.L14:
 185              		.loc 1 195 0
 186 0012 074C     		ldr	r4, .L15
 187 0014 A269     		ldr	r2, [r4, #24]
 188 0016 5062     		str	r0, [r2, #36]
 189              	.LVL16:
 190              	.LBB22:
 191              	.LBB23:
 192              		.loc 2 55 0
 193 0018 4168     		ldr	r1, [r0, #4]
 194 001a 5160     		str	r1, [r2, #4]
 195              		.loc 2 54 0
 196 001c 1060     		str	r0, [r2]
 197              		.loc 2 56 0
 198 001e 5A60     		str	r2, [r3, #4]
 199              	.LVL17:
 200              	.LBE23:
 201              	.LBE22:
 202              		.loc 1 197 0
 203 0020 0320     		movs	r0, #3
 204              	.LVL18:
 205              	.LBB25:
 206              	.LBB24:
 207              		.loc 2 56 0
 208 0022 0A60     		str	r2, [r1]
 209              	.LVL19:
 210              	.LBE24:
 211              	.LBE25:
 212              		.loc 1 197 0
 213 0024 FFF7FEFF 		bl	chSchGoSleepS
 214              	.LVL20:
 215              		.loc 1 198 0
 216 0028 A369     		ldr	r3, [r4, #24]
 217 002a 586A     		ldr	r0, [r3, #36]
 218 002c 10BD     		pop	{r4, pc}
 219              	.L16:
 220 002e 00BF     		.align	2
 221              	.L15:
 222 0030 00000000 		.word	rlist
 223              		.cfi_endproc
 224              	.LFE11:
 225              		.size	chSemWaitS, .-chSemWaitS
 226 0034 AFF30080 		.section	.text.chSemWait,"ax",%progbits
ARM GAS  C:\Users\jsyoon\AppData\Local\Temp\cc5Dm9fT.s 			page 5


 226      AFF30080 
 226      AFF30080 
 227              		.align	2
 228              		.p2align 4,,15
 229              		.global	chSemWait
 230              		.thumb
 231              		.thumb_func
 232              		.type	chSemWait, %function
 233              	chSemWait:
 234              	.LFB10:
 235              		.loc 1 164 0
 236              		.cfi_startproc
 237              		@ args = 0, pretend = 0, frame = 0
 238              		@ frame_needed = 0, uses_anonymous_args = 0
 239              	.LVL21:
 240 0000 08B5     		push	{r3, lr}
 241              		.cfi_def_cfa_offset 8
 242              		.cfi_offset 3, -8
 243              		.cfi_offset 14, -4
 244              		.loc 1 167 0
 245              	@ 167 "ChibiOS_2.6.6/os/kernel/src/chsem.c" 1
 246 0002 72B6     		cpsid   i
 247              	@ 0 "" 2
 248              		.loc 1 168 0
 249              		.thumb
 250 0004 FFF7FEFF 		bl	chSemWaitS
 251              	.LVL22:
 252              		.loc 1 169 0
 253              	@ 169 "ChibiOS_2.6.6/os/kernel/src/chsem.c" 1
 254 0008 62B6     		cpsie   i
 255              	@ 0 "" 2
 256              		.loc 1 171 0
 257              		.thumb
 258 000a 08BD     		pop	{r3, pc}
 259              		.cfi_endproc
 260              	.LFE10:
 261              		.size	chSemWait, .-chSemWait
 262 000c AFF30080 		.section	.text.chSemWaitTimeoutS,"ax",%progbits
 263              		.align	2
 264              		.p2align 4,,15
 265              		.global	chSemWaitTimeoutS
 266              		.thumb
 267              		.thumb_func
 268              		.type	chSemWaitTimeoutS, %function
 269              	chSemWaitTimeoutS:
 270              	.LFB13:
 271              		.loc 1 250 0
 272              		.cfi_startproc
 273              		@ args = 0, pretend = 0, frame = 0
 274              		@ frame_needed = 0, uses_anonymous_args = 0
 275              		@ link register save eliminated.
 276              	.LVL23:
 277 0000 0346     		mov	r3, r0
 278              		.loc 1 254 0
 279 0002 8068     		ldr	r0, [r0, #8]
 280              	.LVL24:
 281              		.loc 1 259 0
ARM GAS  C:\Users\jsyoon\AppData\Local\Temp\cc5Dm9fT.s 			page 6


 282 0004 421E     		subs	r2, r0, #1
 283 0006 002A     		cmp	r2, #0
 284              		.loc 1 250 0
 285 0008 10B4     		push	{r4}
 286              		.cfi_def_cfa_offset 4
 287              		.cfi_offset 4, -4
 288              		.loc 1 259 0
 289 000a 9A60     		str	r2, [r3, #8]
 290 000c 03DB     		blt	.L22
 291              		.loc 1 268 0
 292 000e 0020     		movs	r0, #0
 293              	.L19:
 294              		.loc 1 269 0
 295 0010 5DF8044B 		ldr	r4, [sp], #4
 296 0014 7047     		bx	lr
 297              	.L22:
 298              		.loc 1 260 0
 299 0016 61B1     		cbz	r1, .L23
 300              		.loc 1 264 0
 301 0018 084A     		ldr	r2, .L24
 302 001a 9269     		ldr	r2, [r2, #24]
 303 001c 5362     		str	r3, [r2, #36]
 304              	.LVL25:
 305              	.LBB26:
 306              	.LBB27:
 307              		.loc 2 55 0
 308 001e 5C68     		ldr	r4, [r3, #4]
 309              	.LBE27:
 310              	.LBE26:
 311              		.loc 1 266 0
 312 0020 0320     		movs	r0, #3
 313              	.LBB29:
 314              	.LBB28:
 315              		.loc 2 55 0
 316 0022 82E81800 		stmia	r2, {r3, r4}
 317              		.loc 2 56 0
 318 0026 5A60     		str	r2, [r3, #4]
 319              	.LVL26:
 320 0028 2260     		str	r2, [r4]
 321              	.LVL27:
 322              	.LBE28:
 323              	.LBE29:
 324              		.loc 1 269 0
 325 002a 5DF8044B 		ldr	r4, [sp], #4
 326              		.loc 1 266 0
 327 002e FFF7FEBF 		b	chSchGoSleepTimeoutS
 328              	.LVL28:
 329              	.L23:
 330              		.loc 1 261 0
 331 0032 9860     		str	r0, [r3, #8]
 332              		.loc 1 262 0
 333 0034 4FF0FF30 		mov	r0, #-1
 334 0038 EAE7     		b	.L19
 335              	.L25:
 336 003a 00BF     		.align	2
 337              	.L24:
 338 003c 00000000 		.word	rlist
ARM GAS  C:\Users\jsyoon\AppData\Local\Temp\cc5Dm9fT.s 			page 7


 339              		.cfi_endproc
 340              	.LFE13:
 341              		.size	chSemWaitTimeoutS, .-chSemWaitTimeoutS
 342              		.section	.text.chSemWaitTimeout,"ax",%progbits
 343              		.align	2
 344              		.p2align 4,,15
 345              		.global	chSemWaitTimeout
 346              		.thumb
 347              		.thumb_func
 348              		.type	chSemWaitTimeout, %function
 349              	chSemWaitTimeout:
 350              	.LFB12:
 351              		.loc 1 222 0
 352              		.cfi_startproc
 353              		@ args = 0, pretend = 0, frame = 0
 354              		@ frame_needed = 0, uses_anonymous_args = 0
 355              	.LVL29:
 356 0000 08B5     		push	{r3, lr}
 357              		.cfi_def_cfa_offset 8
 358              		.cfi_offset 3, -8
 359              		.cfi_offset 14, -4
 360              		.loc 1 225 0
 361              	@ 225 "ChibiOS_2.6.6/os/kernel/src/chsem.c" 1
 362 0002 72B6     		cpsid   i
 363              	@ 0 "" 2
 364              		.loc 1 226 0
 365              		.thumb
 366 0004 FFF7FEFF 		bl	chSemWaitTimeoutS
 367              	.LVL30:
 368              		.loc 1 227 0
 369              	@ 227 "ChibiOS_2.6.6/os/kernel/src/chsem.c" 1
 370 0008 62B6     		cpsie   i
 371              	@ 0 "" 2
 372              		.loc 1 229 0
 373              		.thumb
 374 000a 08BD     		pop	{r3, pc}
 375              		.cfi_endproc
 376              	.LFE12:
 377              		.size	chSemWaitTimeout, .-chSemWaitTimeout
 378 000c AFF30080 		.section	.text.chSemSignal,"ax",%progbits
 379              		.align	2
 380              		.p2align 4,,15
 381              		.global	chSemSignal
 382              		.thumb
 383              		.thumb_func
 384              		.type	chSemSignal, %function
 385              	chSemSignal:
 386              	.LFB14:
 387              		.loc 1 278 0
 388              		.cfi_startproc
 389              		@ args = 0, pretend = 0, frame = 0
 390              		@ frame_needed = 0, uses_anonymous_args = 0
 391              	.LVL31:
 392 0000 08B5     		push	{r3, lr}
 393              		.cfi_def_cfa_offset 8
 394              		.cfi_offset 3, -8
 395              		.cfi_offset 14, -4
ARM GAS  C:\Users\jsyoon\AppData\Local\Temp\cc5Dm9fT.s 			page 8


 396              		.loc 1 278 0
 397 0002 0346     		mov	r3, r0
 398              		.loc 1 286 0
 399              	@ 286 "ChibiOS_2.6.6/os/kernel/src/chsem.c" 1
 400 0004 72B6     		cpsid   i
 401              	@ 0 "" 2
 402              		.loc 1 287 0
 403              		.thumb
 404 0006 8268     		ldr	r2, [r0, #8]
 405 0008 0132     		adds	r2, r2, #1
 406 000a 002A     		cmp	r2, #0
 407 000c 8260     		str	r2, [r0, #8]
 408 000e 01DD     		ble	.L29
 409              		.loc 1 289 0
 410              	@ 289 "ChibiOS_2.6.6/os/kernel/src/chsem.c" 1
 411 0010 62B6     		cpsie   i
 412              	@ 0 "" 2
 413              		.thumb
 414 0012 08BD     		pop	{r3, pc}
 415              	.L29:
 416              	.LVL32:
 417              	.LBB30:
 418              	.LBB31:
 419              		.loc 2 60 0
 420 0014 0068     		ldr	r0, [r0]
 421              	.LVL33:
 422              		.loc 2 62 0
 423 0016 0268     		ldr	r2, [r0]
 424 0018 1A60     		str	r2, [r3]
 425              	.LBE31:
 426              	.LBE30:
 427              		.loc 1 288 0
 428 001a 0021     		movs	r1, #0
 429              	.LBB33:
 430              	.LBB32:
 431              		.loc 2 62 0
 432 001c 5360     		str	r3, [r2, #4]
 433              	.LBE32:
 434              	.LBE33:
 435              		.loc 1 288 0
 436 001e FFF7FEFF 		bl	chSchWakeupS
 437              	.LVL34:
 438              		.loc 1 289 0
 439              	@ 289 "ChibiOS_2.6.6/os/kernel/src/chsem.c" 1
 440 0022 62B6     		cpsie   i
 441              	@ 0 "" 2
 442              		.thumb
 443 0024 08BD     		pop	{r3, pc}
 444              		.cfi_endproc
 445              	.LFE14:
 446              		.size	chSemSignal, .-chSemSignal
 447 0026 00BFAFF3 		.section	.text.chSemSignalI,"ax",%progbits
 447      0080AFF3 
 447      0080
 448              		.align	2
 449              		.p2align 4,,15
 450              		.global	chSemSignalI
ARM GAS  C:\Users\jsyoon\AppData\Local\Temp\cc5Dm9fT.s 			page 9


 451              		.thumb
 452              		.thumb_func
 453              		.type	chSemSignalI, %function
 454              	chSemSignalI:
 455              	.LFB15:
 456              		.loc 1 303 0
 457              		.cfi_startproc
 458              		@ args = 0, pretend = 0, frame = 0
 459              		@ frame_needed = 0, uses_anonymous_args = 0
 460              		@ link register save eliminated.
 461              	.LVL35:
 462              		.loc 1 312 0
 463 0000 8368     		ldr	r3, [r0, #8]
 464 0002 0133     		adds	r3, r3, #1
 465 0004 002B     		cmp	r3, #0
 466 0006 8360     		str	r3, [r0, #8]
 467 0008 00DD     		ble	.L32
 468 000a 7047     		bx	lr
 469              	.L32:
 470              	.LVL36:
 471              	.LBB34:
 472              	.LBB35:
 473              	.LBB36:
 474              		.loc 2 60 0
 475 000c 0368     		ldr	r3, [r0]
 476              	.LVL37:
 477              		.loc 2 62 0
 478 000e 1A68     		ldr	r2, [r3]
 479 0010 0260     		str	r2, [r0]
 480              	.LBE36:
 481              	.LBE35:
 482              		.loc 1 316 0
 483 0012 0021     		movs	r1, #0
 484              	.LBB38:
 485              	.LBB37:
 486              		.loc 2 62 0
 487 0014 5060     		str	r0, [r2, #4]
 488              	.LBE37:
 489              	.LBE38:
 490              		.loc 1 317 0
 491 0016 1846     		mov	r0, r3
 492              	.LVL38:
 493              		.loc 1 316 0
 494 0018 5962     		str	r1, [r3, #36]
 495              		.loc 1 317 0
 496 001a FFF7FEBF 		b	chSchReadyI
 497              	.LVL39:
 498              	.LBE34:
 499              		.cfi_endproc
 500              	.LFE15:
 501              		.size	chSemSignalI, .-chSemSignalI
 502 001e 00BF     		.section	.text.chSemAddCounterI,"ax",%progbits
 503              		.align	2
 504              		.p2align 4,,15
 505              		.global	chSemAddCounterI
 506              		.thumb
 507              		.thumb_func
ARM GAS  C:\Users\jsyoon\AppData\Local\Temp\cc5Dm9fT.s 			page 10


 508              		.type	chSemAddCounterI, %function
 509              	chSemAddCounterI:
 510              	.LFB16:
 511              		.loc 1 334 0
 512              		.cfi_startproc
 513              		@ args = 0, pretend = 0, frame = 0
 514              		@ frame_needed = 0, uses_anonymous_args = 0
 515              	.LVL40:
 516 0000 70B5     		push	{r4, r5, r6, lr}
 517              		.cfi_def_cfa_offset 16
 518              		.cfi_offset 4, -16
 519              		.cfi_offset 5, -12
 520              		.cfi_offset 6, -8
 521              		.cfi_offset 14, -4
 522              		.loc 1 343 0
 523 0002 0C1E     		subs	r4, r1, #0
 524              		.loc 1 334 0
 525 0004 0546     		mov	r5, r0
 526              		.loc 1 343 0
 527 0006 11DD     		ble	.L33
 528              		.loc 1 345 0
 529 0008 0026     		movs	r6, #0
 530 000a 01E0     		b	.L37
 531              	.LVL41:
 532              	.L35:
 533              		.loc 1 343 0
 534 000c 013C     		subs	r4, r4, #1
 535              	.LVL42:
 536 000e 0DD0     		beq	.L33
 537              	.LVL43:
 538              	.L37:
 539              		.loc 1 344 0
 540 0010 AB68     		ldr	r3, [r5, #8]
 541 0012 0133     		adds	r3, r3, #1
 542 0014 002B     		cmp	r3, #0
 543 0016 AB60     		str	r3, [r5, #8]
 544 0018 F8DC     		bgt	.L35
 545              	.LVL44:
 546              	.LBB39:
 547              	.LBB40:
 548              		.loc 2 60 0
 549 001a 2868     		ldr	r0, [r5]
 550              	.LVL45:
 551              		.loc 2 62 0
 552 001c 0368     		ldr	r3, [r0]
 553 001e 2B60     		str	r3, [r5]
 554 0020 5D60     		str	r5, [r3, #4]
 555              	.LBE40:
 556              	.LBE39:
 557              		.loc 1 345 0
 558 0022 FFF7FEFF 		bl	chSchReadyI
 559              	.LVL46:
 560              		.loc 1 343 0
 561 0026 013C     		subs	r4, r4, #1
 562              	.LVL47:
 563              		.loc 1 345 0
 564 0028 4662     		str	r6, [r0, #36]
ARM GAS  C:\Users\jsyoon\AppData\Local\Temp\cc5Dm9fT.s 			page 11


 565              	.LVL48:
 566              		.loc 1 343 0
 567 002a F1D1     		bne	.L37
 568              	.LVL49:
 569              	.L33:
 570 002c 70BD     		pop	{r4, r5, r6, pc}
 571              		.cfi_endproc
 572              	.LFE16:
 573              		.size	chSemAddCounterI, .-chSemAddCounterI
 574 002e 00BF     		.section	.text.chSemSignalWait,"ax",%progbits
 575              		.align	2
 576              		.p2align 4,,15
 577              		.global	chSemSignalWait
 578              		.thumb
 579              		.thumb_func
 580              		.type	chSemSignalWait, %function
 581              	chSemSignalWait:
 582              	.LFB17:
 583              		.loc 1 366 0
 584              		.cfi_startproc
 585              		@ args = 0, pretend = 0, frame = 8
 586              		@ frame_needed = 0, uses_anonymous_args = 0
 587              	.LVL50:
 588 0000 10B5     		push	{r4, lr}
 589              		.cfi_def_cfa_offset 8
 590              		.cfi_offset 4, -8
 591              		.cfi_offset 14, -4
 592 0002 0346     		mov	r3, r0
 593 0004 82B0     		sub	sp, sp, #8
 594              		.cfi_def_cfa_offset 16
 595              		.loc 1 379 0
 596              	@ 379 "ChibiOS_2.6.6/os/kernel/src/chsem.c" 1
 597 0006 72B6     		cpsid   i
 598              	@ 0 "" 2
 599              		.loc 1 380 0
 600              		.thumb
 601 0008 8268     		ldr	r2, [r0, #8]
 602 000a 0132     		adds	r2, r2, #1
 603 000c 002A     		cmp	r2, #0
 604 000e 8260     		str	r2, [r0, #8]
 605 0010 19DD     		ble	.L45
 606              	.LVL51:
 607              	.L42:
 608              		.loc 1 382 0
 609 0012 8B68     		ldr	r3, [r1, #8]
 610 0014 013B     		subs	r3, r3, #1
 611 0016 002B     		cmp	r3, #0
 612 0018 8B60     		str	r3, [r1, #8]
 613 001a 05DB     		blt	.L46
 614              		.loc 1 390 0
 615 001c FFF7FEFF 		bl	chSchRescheduleS
 616              	.LVL52:
 617              		.loc 1 391 0
 618 0020 0020     		movs	r0, #0
 619              	.LVL53:
 620              		.loc 1 393 0
 621              	@ 393 "ChibiOS_2.6.6/os/kernel/src/chsem.c" 1
ARM GAS  C:\Users\jsyoon\AppData\Local\Temp\cc5Dm9fT.s 			page 12


 622 0022 62B6     		cpsie   i
 623              	@ 0 "" 2
 624              		.loc 1 395 0
 625              		.thumb
 626 0024 02B0     		add	sp, sp, #8
 627              		@ sp needed
 628 0026 10BD     		pop	{r4, pc}
 629              	.LVL54:
 630              	.L46:
 631              	.LBB41:
 632              		.loc 1 383 0
 633 0028 0C4A     		ldr	r2, .L47
 634              	.LBB42:
 635              	.LBB43:
 636              		.loc 2 55 0
 637 002a 4B68     		ldr	r3, [r1, #4]
 638              	.LBE43:
 639              	.LBE42:
 640              		.loc 1 383 0
 641 002c 9469     		ldr	r4, [r2, #24]
 642              	.LVL55:
 643              		.loc 1 386 0
 644 002e 0320     		movs	r0, #3
 645              	.LBB45:
 646              	.LBB44:
 647              		.loc 2 55 0
 648 0030 84E80A00 		stmia	r4, {r1, r3}
 649              		.loc 2 56 0
 650 0034 4C60     		str	r4, [r1, #4]
 651 0036 1C60     		str	r4, [r3]
 652              	.LBE44:
 653              	.LBE45:
 654              		.loc 1 385 0
 655 0038 6162     		str	r1, [r4, #36]
 656              		.loc 1 386 0
 657 003a FFF7FEFF 		bl	chSchGoSleepS
 658              	.LVL56:
 659              		.loc 1 387 0
 660 003e 606A     		ldr	r0, [r4, #36]
 661              	.LVL57:
 662              	.LBE41:
 663              		.loc 1 393 0
 664              	@ 393 "ChibiOS_2.6.6/os/kernel/src/chsem.c" 1
 665 0040 62B6     		cpsie   i
 666              	@ 0 "" 2
 667              		.loc 1 395 0
 668              		.thumb
 669 0042 02B0     		add	sp, sp, #8
 670              		@ sp needed
 671 0044 10BD     		pop	{r4, pc}
 672              	.LVL58:
 673              	.L45:
 674              	.LBB46:
 675              	.LBB47:
 676              		.loc 2 60 0
 677 0046 0068     		ldr	r0, [r0]
 678              	.LVL59:
ARM GAS  C:\Users\jsyoon\AppData\Local\Temp\cc5Dm9fT.s 			page 13


 679              		.loc 2 62 0
 680 0048 0268     		ldr	r2, [r0]
 681 004a 1A60     		str	r2, [r3]
 682 004c 5360     		str	r3, [r2, #4]
 683              	.LBE47:
 684              	.LBE46:
 685              		.loc 1 381 0
 686 004e 0191     		str	r1, [sp, #4]
 687 0050 FFF7FEFF 		bl	chSchReadyI
 688              	.LVL60:
 689 0054 0023     		movs	r3, #0
 690 0056 4362     		str	r3, [r0, #36]
 691 0058 0199     		ldr	r1, [sp, #4]
 692 005a DAE7     		b	.L42
 693              	.L48:
 694              		.align	2
 695              	.L47:
 696 005c 00000000 		.word	rlist
 697              		.cfi_endproc
 698              	.LFE17:
 699              		.size	chSemSignalWait, .-chSemSignalWait
 700              		.text
 701              	.Letext0:
 702              		.file 3 "c:\\crosstools\\gcc-arm-embedded\\4.8_2014q2\\arm-none-eabi\\include\\machine\\_default_t
 703              		.file 4 "c:\\crosstools\\gcc-arm-embedded\\4.8_2014q2\\arm-none-eabi\\include\\stdint.h"
 704              		.file 5 "ChibiOS_2.6.6/os/ports/GCC/ARMCMx/chtypes.h"
 705              		.file 6 "ChibiOS_2.6.6/os/kernel/include/chlists.h"
 706              		.file 7 "ChibiOS_2.6.6/os/kernel/include/chthreads.h"
 707              		.file 8 "ChibiOS_2.6.6/os/ports/GCC/ARMCMx/chcore_v7m.h"
 708              		.file 9 "ChibiOS_2.6.6/os/kernel/include/chschd.h"
 709              		.file 10 "ChibiOS_2.6.6/os/kernel/include/chsem.h"
 710              		.file 11 "ChibiOS_2.6.6/os/kernel/include/chmtx.h"