ARM GAS  C:\Users\jsyoon\AppData\Local\Temp\cc5Dm9fT.s 			page 1


   1              		.syntax unified
   2              		.cpu cortex-m4
   3              		.eabi_attribute 27, 3
   4              		.eabi_attribute 28, 1
   5              		.fpu fpv4-sp-d16
   6              		.eabi_attribute 20, 1
   7              		.eabi_attribute 21, 1
   8              		.eabi_attribute 23, 3
   9              		.eabi_attribute 24, 1
  10              		.eabi_attribute 25, 1
  11              		.eabi_attribute 26, 1
  12              		.eabi_attribute 30, 2
  13              		.eabi_attribute 34, 1
  14              		.eabi_attribute 18, 4
  15              		.thumb
  16              		.file	"chsem.c"
  17              		.text
  18              	.Ltext0:
  19              		.cfi_sections	.debug_frame
  20              		.section	.text.chSemInit,"ax",%progbits
  21              		.align	2
  22              		.p2align 4,,15
  23              		.global	chSemInit
  24              		.thumb
  25              		.thumb_func
  26              		.type	chSemInit, %function
  27              	chSemInit:
  28              	.LFB7:
  29              		.file 1 "ChibiOS_2.6.6/os/kernel/src/chsem.c"
  30              		.loc 1 86 0
  31              		.cfi_startproc
  32              		@ args = 0, pretend = 0, frame = 0
  33              		@ frame_needed = 0, uses_anonymous_args = 0
  34              		@ link register save eliminated.
  35              	.LVL0:
  36              		.loc 1 90 0
  37 0000 4060     		str	r0, [r0, #4]
  38 0002 0060     		str	r0, [r0]
  39              		.loc 1 91 0
  40 0004 8160     		str	r1, [r0, #8]
  41 0006 7047     		bx	lr
  42              		.cfi_endproc
  43              	.LFE7:
  44              		.size	chSemInit, .-chSemInit
  45 0008 AFF30080 		.section	.text.chSemResetI,"ax",%progbits
  45      AFF30080 
  46              		.align	2
  47              		.p2align 4,,15
  48              		.global	chSemResetI
  49              		.thumb
  50              		.thumb_func
  51              		.type	chSemResetI, %function
  52              	chSemResetI:
  53              	.LFB9:
  54              		.loc 1 136 0
  55              		.cfi_startproc
  56              		@ args = 0, pretend = 0, frame = 0
ARM GAS  C:\Users\jsyoon\AppData\Local\Temp\cc5Dm9fT.s 			page 2


  57              		@ frame_needed = 0, uses_anonymous_args = 0
  58              	.LVL1:
  59 0000 70B5     		push	{r4, r5, r6, lr}
  60              		.cfi_def_cfa_offset 16
  61              		.cfi_offset 4, -16
  62              		.cfi_offset 5, -12
  63              		.cfi_offset 6, -8
  64              		.cfi_offset 14, -4
  65              		.loc 1 141 0
  66 0002 8568     		ldr	r5, [r0, #8]
  67              	.LVL2:
  68              		.loc 1 147 0
  69 0004 8160     		str	r1, [r0, #8]
  70              		.loc 1 148 0
  71 0006 0135     		adds	r5, r5, #1
  72              	.LVL3:
  73 0008 002D     		cmp	r5, #0
  74              		.loc 1 136 0
  75 000a 0446     		mov	r4, r0
  76              		.loc 1 148 0
  77 000c 0BDC     		bgt	.L2
  78              		.loc 1 149 0
  79 000e 6FF00106 		mvn	r6, #1
  80              	.LVL4:
  81              	.L5:
  82              	.LBB20:
  83              	.LBB21:
  84              		.file 2 "ChibiOS_2.6.6/os/kernel/include/chinline.h"
  85              		.loc 2 67 0
  86 0012 6068     		ldr	r0, [r4, #4]
  87              	.LVL5:
  88              		.loc 2 69 0
  89 0014 4368     		ldr	r3, [r0, #4]
  90 0016 6360     		str	r3, [r4, #4]
  91 0018 1C60     		str	r4, [r3]
  92              	.LBE21:
  93              	.LBE20:
  94              		.loc 1 149 0
  95 001a FFF7FEFF 		bl	chSchReadyI
  96              	.LVL6:
  97              		.loc 1 148 0
  98 001e 0135     		adds	r5, r5, #1
  99              	.LVL7:
 100 0020 012D     		cmp	r5, #1
 101              		.loc 1 149 0
 102 0022 4662     		str	r6, [r0, #36]
 103              	.LVL8:
 104              		.loc 1 148 0
 105 0024 F5D1     		bne	.L5
 106              	.LVL9:
 107              	.L2:
 108 0026 70BD     		pop	{r4, r5, r6, pc}
 109              		.cfi_endproc
 110              	.LFE9:
 111              		.size	chSemResetI, .-chSemResetI
 112 0028 AFF30080 		.section	.text.chSemReset,"ax",%progbits
 112      AFF30080 
ARM GAS  C:\Users\jsyoon\AppData\Local\Temp\cc5Dm9fT.s 			page 3


 113              		.align	2
 114              		.p2align 4,,15
 115              		.global	chSemReset
 116              		.thumb
 117              		.thumb_func
 118              		.type	chSemReset, %function
 119              	chSemReset:
 120              	.LFB8:
 121              		.loc 1 109 0
 122              		.cfi_startproc
 123              		@ args = 0, pretend = 0, frame = 0
 124              		@ frame_needed = 0, uses_anonymous_args = 0
 125              	.LVL10:
 126 0000 08B5     		push	{r3, lr}
 127              		.cfi_def_cfa_offset 8
 128              		.cfi_offset 3, -8
 129              		.cfi_offset 14, -4
 130              		.loc 1 111 0
 131              	@ 111 "ChibiOS_2.6.6/os/kernel/src/chsem.c" 1
 132 0002 72B6     		cpsid   i
 133              	@ 0 "" 2
 134              		.loc 1 112 0
 135              		.thumb
 136 0004 FFF7FEFF 		bl	chSemResetI
 137              	.LVL11:
 138              		.loc 1 113 0
 139 0008 FFF7FEFF 		bl	chSchRescheduleS
 140              	.LVL12:
 141              		.loc 1 114 0
 142              	@ 114 "ChibiOS_2.6.6/os/kernel/src/chsem.c" 1
 143 000c 62B6     		cpsie   i
 144              	@ 0 "" 2
 145              		.thumb
 146 000e 08BD     		pop	{r3, pc}
 147              		.cfi_endproc
 148              	.LFE8:
 149              		.size	chSemReset, .-chSemReset
 150              		.section	.text.chSemWaitS,"ax",%progbits
 151              		.align	2
 152              		.p2align 4,,15
 153              		.global	chSemWaitS
 154              		.thumb
 155              		.thumb_func
 156              		.type	chSemWaitS, %function
 157              	chSemWaitS:
 158              	.LFB11:
 159              		.loc 1 185 0
 160              		.cfi_startproc
 161              		@ args = 0, pretend = 0, frame = 0
 162              		@ frame_needed = 0, uses_anonymous_args = 0
 163              	.LVL13:
 164              		.loc 1 194 0
 165 0000 8268     		ldr	r2, [r0, #8]
 166 0002 013A     		subs	r2, r2, #1
 167 0004 002A     		cmp	r2, #0
 168              		.loc 1 185 0
 169 0006 10B5     		push	{r4, lr}
ARM GAS  C:\Users\jsyoon\AppData\Local\Temp\cc5Dm9fT.s 			page 4


 170              		.cfi_def_cfa_offset 8
 171              		.cfi_offset 4, -8
 172              		.cfi_offset 14, -4
 173              		.loc 1 185 0
 174 0008 0346     		mov	r3, r0
 175              		.loc 1 194 0
 176 000a 8260     		str	r2, [r0, #8]
 177 000c 01DB     		blt	.L14
 178              		.loc 1 200 0
 179 000e 0020     		movs	r0, #0
 180              	.LVL14:
 181              		.loc 1 201 0
 182 0010 10BD     		pop	{r4, pc}
 183              	.LVL15:
 184              	.L14:
 185              		.loc 1 195 0
 186 0012 074C     		ldr	r4, .L15
 187 0014 A269     		ldr	r2, [r4, #24]
 188 0016 5062     		str	r0, [r2, #36]
 189              	.LVL16:
 190              	.LBB22:
 191              	.LBB23:
 192              		.loc 2 55 0
 193 0018 4168     		ldr	r1, [r0, #4]
 194 001a 5160     		str	r1, [r2, #4]
 195              		.loc 2 54 0
 196 001c 1060     		str	r0, [r2]
 197              		.loc 2 56 0
 198 001e 5A60     		str	r2, [r3, #4]
 199              	.LVL17:
 200              	.LBE23:
 201              	.LBE22:
 202              		.loc 1 197 0
 203 0020 0320     		movs	r0, #3
 204              	.LVL18:
 205              	.LBB25:
 206              	.LBB24:
 207              		.loc 2 56 0
 208 0022 0A60     		str	r2, [r1]
 209              	.LVL19:
 210              	.LBE24:
 211              	.LBE25:
 212              		.loc 1 197 0
 213 0024 FFF7FEFF 		bl	chSchGoSleepS
 214              	.LVL20:
 215              		.loc 1 198 0
 216 0028 A369     		ldr	r3, [r4, #24]
 217 002a 586A     		ldr	r0, [r3, #36]
 218 002c 10BD     		pop	{r4, pc}
 219              	.L16:
 220 002e 00BF     		.align	2
 221              	.L15:
 222 0030 00000000 		.word	rlist
 223              		.cfi_endproc
 224              	.LFE11:
 225              		.size	chSemWaitS, .-chSemWaitS
 226 0034 AFF30080 		.section	.text.chSemWait,"ax",%progbits
ARM GAS  C:\Users\jsyoon\AppData\Local\Temp\cc5Dm9fT.s 			page 5


 226      AFF30080 
 226      AFF30080 
 227              		.align	2
 228              		.p2align 4,,15
 229              		.global	chSemWait
 230              		.thumb
 231              		.thumb_func
 232              		.type	chSemWait, %function
 233              	chSemWait:
 234              	.LFB10:
 235              		.loc 1 164 0
 236              		.cfi_startproc
 237              		@ args = 0, pretend = 0, frame = 0
 238              		@ frame_needed = 0, uses_anonymous_args = 0
 239              	.LVL21:
 240 0000 08B5     		push	{r3, lr}
 241              		.cfi_def_cfa_offset 8
 242              		.cfi_offset 3, -8
 243              		.cfi_offset 14, -4
 244              		.loc 1 167 0
 245              	@ 167 "ChibiOS_2.6.6/os/kernel/src/chsem.c" 1
 246 0002 72B6     		cpsid   i
 247              	@ 0 "" 2
 248              		.loc 1 168 0
 249              		.thumb
 250 0004 FFF7FEFF 		bl	chSemWaitS
 251              	.LVL22:
 252              		.loc 1 169 0
 253              	@ 169 "ChibiOS_2.6.6/os/kernel/src/chsem.c" 1
 254 0008 62B6     		cpsie   i
 255              	@ 0 "" 2
 256              		.loc 1 171 0
 257              		.thumb
 258 000a 08BD     		pop	{r3, pc}
 259              		.cfi_endproc
 260              	.LFE10:
 261              		.size	chSemWait, .-chSemWait
 262 000c AFF30080 		.section	.text.chSemWaitTimeoutS,"ax",%progbits
 263              		.align	2
 264              		.p2align 4,,15
 265              		.global	chSemWaitTimeoutS
 266              		.thumb
 267              		.thumb_func
 268              		.type	chSemWaitTimeoutS, %function
 269              	chSemWaitTimeoutS:
 270              	.LFB13:
 271              		.loc 1 250 0
 272              		.cfi_startproc
 273              		@ args = 0, pretend = 0, frame = 0
 274              		@ frame_needed = 0, uses_anonymous_args = 0
 275              		@ link register save eliminated.
 276              	.LVL23:
 277 0000 0346     		mov	r3, r0
 278              		.loc 1 254 0
 279 0002 8068     		ldr	r0, [r0, #8]
 280              	.LVL24:
 281              		.loc 1 259 0
ARM GAS  C:\Users\jsyoon\AppData\Local\Temp\cc5Dm9fT.s 			page 6


 282 0004 421E     		subs	r2, r0, #1
 283 0006 002A     		cmp	r2, #0
 284              		.loc 1 250 0
 285 0008 10B4     		push	{r4}
 286              		.cfi_def_cfa_offset 4
 287              		.cfi_offset 4, -4
 288              		.loc 1 259 0
 289 000a 9A60     		str	r2, [r3, #8]
 290 000c 03DB     		blt	.L22
 291              		.loc 1 268 0
 292 000e 0020     		movs	r0, #0
 293              	.L19:
 294              		.loc 1 269 0
 295 0010 5DF8044B 		ldr	r4, [sp], #4
 296 0014 7047     		bx	lr
 297              	.L22:
 298              		.loc 1 260 0
 299 0016 61B1     		cbz	r1, .L23
 300              		.loc 1 264 0
 301 0018 084A     		ldr	r2, .L24
 302 001a 9269     		ldr	r2, [r2, #24]
 303 001c 5362     		str	r3, [r2, #36]
 304              	.LVL25:
 305              	.LBB26:
 306              	.LBB27:
 307              		.loc 2 55 0
 308 001e 5C68     		ldr	r4, [r3, #4]
 309              	.LBE27:
 310              	.LBE26:
 311              		.loc 1 266 0
 312 0020 0320     		movs	r0, #3
 313              	.LBB29:
 314              	.LBB28:
 315              		.loc 2 55 0
 316 0022 82E81800 		stmia	r2, {r3, r4}
 317              		.loc 2 56 0
 318 0026 5A60     		str	r2, [r3, #4]
 319              	.LVL26:
 320 0028 2260     		str	r2, [r4]
 321              	.LVL27:
 322              	.LBE28:
 323              	.LBE29:
 324              		.loc 1 269 0
 325 002a 5DF8044B 		ldr	r4, [sp], #4
 326              		.loc 1 266 0
 327 002e FFF7FEBF 		b	chSchGoSleepTimeoutS
 328              	.LVL28:
 329              	.L23:
 330              		.loc 1 261 0
 331 0032 9860     		str	r0, [r3, #8]
 332              		.loc 1 262 0
 333 0034 4FF0FF30 		mov	r0, #-1
 334 0038 EAE7     		b	.L19
 335              	.L25:
 336 003a 00BF     		.align	2
 337              	.L24:
 338 003c 00000000 		.word	rlist
ARM GAS  C:\Users\jsyoon\AppData\Local\Temp\cc5Dm9fT.s 			page 7


 339              		.cfi_endproc
 340              	.LFE13:
 341              		.size	chSemWaitTimeoutS, .-chSemWaitTimeoutS
 342              		.section	.text.chSemWaitTimeout,"ax",%progbits
 343              		.align	2
 344              		.p2align 4,,15
 345              		.global	chSemWaitTimeout
 346              		.thumb
 347              		.thumb_func
 348              		.type	chSemWaitTimeout, %function
 349              	chSemWaitTimeout:
 350              	.LFB12:
 351              		.loc 1 222 0
 352              		.cfi_startproc
 353              		@ args = 0, pretend = 0, frame = 0
 354              		@ frame_needed = 0, uses_anonymous_args = 0
 355              	.LVL29:
 356 0000 08B5     		push	{r3, lr}
 357              		.cfi_def_cfa_offset 8
 358              		.cfi_offset 3, -8
 359              		.cfi_offset 14, -4
 360              		.loc 1 225 0
 361              	@ 225 "ChibiOS_2.6.6/os/kernel/src/chsem.c" 1
 362 0002 72B6     		cpsid   i
 363              	@ 0 "" 2
 364              		.loc 1 226 0
 365              		.thumb
 366 0004 FFF7FEFF 		bl	chSemWaitTimeoutS
 367              	.LVL30:
 368              		.loc 1 227 0
 369              	@ 227 "ChibiOS_2.6.6/os/kernel/src/chsem.c" 1
 370 0008 62B6     		cpsie   i
 371              	@ 0 "" 2
 372              		.loc 1 229 0
 373              		.thumb
 374 000a 08BD     		pop	{r3, pc}
 375              		.cfi_endproc
 376              	.LFE12:
 377              		.size	chSemWaitTimeout, .-chSemWaitTimeout
 378 000c AFF30080 		.section	.text.chSemSignal,"ax",%progbits
 379              		.align	2
 380              		.p2align 4,,15
 381              		.global	chSemSignal
 382              		.thumb
 383              		.thumb_func
 384              		.type	chSemSignal, %function
 385              	chSemSignal:
 386              	.LFB14:
 387              		.loc 1 278 0
 388              		.cfi_startproc
 389              		@ args = 0, pretend = 0, frame = 0
 390              		@ frame_needed = 0, uses_anonymous_args = 0
 391              	.LVL31:
 392 0000 08B5     		push	{r3, lr}
 393              		.cfi_def_cfa_offset 8
 394              		.cfi_offset 3, -8
 395              		.cfi_offset 14, -4
ARM GAS  C:\Users\jsyoon\AppData\Local\Temp\cc5Dm9fT.s 			page 8


 396              		.loc 1 278 0
 397 0002 0346     		mov	r3, r0
 398              		.loc 1 286 0
 399              	@ 286 "ChibiOS_2.6.6/os/kernel/src/chsem.c" 1
 400 0004 72B6     		cpsid   i
 401              	@ 0 "" 2
 402              		.loc 1 287 0
 403              		.thumb
 404 0006 8268     		ldr	r2, [r0, #8]
 405 0008 0132     		adds	r2, r2, #1
 406 000a 002A     		cmp	r2, #0
 407 000c 8260     		str	r2, [r0, #8]
 408 000e 01DD     		ble	.L29
 409              		.loc 1 289 0
 410              	@ 289 "ChibiOS_2.6.6/os/kernel/src/chsem.c" 1
 411 0010 62B6     		cpsie   i
 412              	@ 0 "" 2
 413              		.thumb
 414 0012 08BD     		pop	{r3, pc}
 415              	.L29:
 416              	.LVL32:
 417              	.LBB30:
 418              	.LBB31:
 419              		.loc 2 60 0
 420 0014 0068     		ldr	r0, [r0]
 421              	.LVL33:
 422              		.loc 2 62 0
 423 0016 0268     		ldr	r2, [r0]
 424 0018 1A60     		str	r2, [r3]
 425              	.LBE31:
 426              	.LBE30:
 427              		.loc 1 288 0
 428 001a 0021     		movs	r1, #0
 429              	.LBB33:
 430              	.LBB32:
 431              		.loc 2 62 0
 432 001c 5360     		str	r3, [r2, #4]
 433              	.LBE32:
 434              	.LBE33:
 435              		.loc 1 288 0
 436 001e FFF7FEFF 		bl	chSchWakeupS
 437              	.LVL34:
 438              		.loc 1 289 0
 439              	@ 289 "ChibiOS_2.6.6/os/kernel/src/chsem.c" 1
 440 0022 62B6     		cpsie   i
 441              	@ 0 "" 2
 442              		.thumb
 443 0024 08BD     		pop	{r3, pc}
 444              		.cfi_endproc
 445              	.LFE14:
 446              		.size	chSemSignal, .-chSemSignal
 447 0026 00BFAFF3 		.section	.text.chSemSignalI,"ax",%progbits
 447      0080AFF3 
 447      0080
 448              		.align	2
 449              		.p2align 4,,15
 450              		.global	chSemSignalI
ARM GAS  C:\Users\jsyoon\AppData\Local\Temp\cc5Dm9fT.s 			page 9


 451              		.thumb
 452              		.thumb_func
 453              		.type	chSemSignalI, %function
 454              	chSemSignalI:
 455              	.LFB15:
 456              		.loc 1 303 0
 457              		.cfi_startproc
 458              		@ args = 0, pretend = 0, frame = 0
 459              		@ frame_needed = 0, uses_anonymous_args = 0
 460              		@ link register save eliminated.
 461              	.LVL35:
 462              		.loc 1 312 0
 463 0000 8368     		ldr	r3, [r0, #8]
 464 0002 0133     		adds	r3, r3, #1
 465 0004 002B     		cmp	r3, #0
 466 0006 8360     		str	r3, [r0, #8]
 467 0008 00DD     		ble	.L32
 468 000a 7047     		bx	lr
 469              	.L32:
 470              	.LVL36:
 471              	.LBB34:
 472              	.LBB35:
 473              	.LBB36:
 474              		.loc 2 60 0
 475 000c 0368     		ldr	r3, [r0]
 476              	.LVL37:
 477              		.loc 2 62 0
 478 000e 1A68     		ldr	r2, [r3]
 479 0010 0260     		str	r2, [r0]
 480              	.LBE36:
 481              	.LBE35:
 482              		.loc 1 316 0
 483 0012 0021     		movs	r1, #0
 484              	.LBB38:
 485              	.LBB37:
 486              		.loc 2 62 0
 487 0014 5060     		str	r0, [r2, #4]
 488              	.LBE37:
 489              	.LBE38:
 490              		.loc 1 317 0
 491 0016 1846     		mov	r0, r3
 492              	.LVL38:
 493              		.loc 1 316 0
 494 0018 5962     		str	r1, [r3, #36]
 495              		.loc 1 317 0
 496 001a FFF7FEBF 		b	chSchReadyI
 497              	.LVL39:
 498              	.LBE34:
 499              		.cfi_endproc
 500              	.LFE15:
 501              		.size	chSemSignalI, .-chSemSignalI
 502 001e 00BF     		.section	.text.chSemAddCounterI,"ax",%progbits
 503              		.align	2
 504              		.p2align 4,,15
 505              		.global	chSemAddCounterI
 506              		.thumb
 507              		.thumb_func
ARM GAS  C:\Users\jsyoon\AppData\Local\Temp\cc5Dm9fT.s 			page 10


 508              		.type	chSemAddCounterI, %function
 509              	chSemAddCounterI:
 510              	.LFB16:
 511              		.loc 1 334 0
 512              		.cfi_startproc
 513              		@ args = 0, pretend = 0, frame = 0
 514              		@ frame_needed = 0, uses_anonymous_args = 0
 515              	.LVL40:
 516 0000 70B5     		push	{r4, r5, r6, lr}
 517              		.cfi_def_cfa_offset 16
 518              		.cfi_offset 4, -16
 519              		.cfi_offset 5, -12
 520              		.cfi_offset 6, -8
 521              		.cfi_offset 14, -4
 522              		.loc 1 343 0
 523 0002 0C1E     		subs	r4, r1, #0
 524              		.loc 1 334 0
 525 0004 0546     		mov	r5, r0
 526              		.loc 1 343 0
 527 0006 11DD     		ble	.L33
 528              		.loc 1 345 0
 529 0008 0026     		movs	r6, #0
 530 000a 01E0     		b	.L37
 531              	.LVL41:
 532              	.L35:
 533              		.loc 1 343 0
 534 000c 013C     		subs	r4, r4, #1
 535              	.LVL42:
 536 000e 0DD0     		beq	.L33
 537              	.LVL43:
 538              	.L37:
 539              		.loc 1 344 0
 540 0010 AB68     		ldr	r3, [r5, #8]
 541 0012 0133     		adds	r3, r3, #1
 542 0014 002B     		cmp	r3, #0
 543 0016 AB60     		str	r3, [r5, #8]
 544 0018 F8DC     		bgt	.L35
 545              	.LVL44:
 546              	.LBB39:
 547              	.LBB40:
 548              		.loc 2 60 0
 549 001a 2868     		ldr	r0, [r5]
 550              	.LVL45:
 551              		.loc 2 62 0
 552 001c 0368     		ldr	r3, [r0]
 553 001e 2B60     		str	r3, [r5]
 554 0020 5D60     		str	r5, [r3, #4]
 555              	.LBE40:
 556              	.LBE39:
 557              		.loc 1 345 0
 558 0022 FFF7FEFF 		bl	chSchReadyI
 559              	.LVL46:
 560              		.loc 1 343 0
 561 0026 013C     		subs	r4, r4, #1
 562              	.LVL47:
 563              		.loc 1 345 0
 564 0028 4662     		str	r6, [r0, #36]
ARM GAS  C:\Users\jsyoon\AppData\Local\Temp\cc5Dm9fT.s 			page 11


 565              	.LVL48:
 566              		.loc 1 343 0
 567 002a F1D1     		bne	.L37
 568              	.LVL49:
 569              	.L33:
 570 002c 70BD     		pop	{r4, r5, r6, pc}
 571              		.cfi_endproc
 572              	.LFE16:
 573              		.size	chSemAddCounterI, .-chSemAddCounterI
 574 002e 00BF     		.section	.text.chSemSignalWait,"ax",%progbits
 575              		.align	2
 576              		.p2align 4,,15
 577              		.global	chSemSignalWait
 578              		.thumb
 579              		.thumb_func
 580              		.type	chSemSignalWait, %function
 581              	chSemSignalWait:
 582              	.LFB17:
 583              		.loc 1 366 0
 584              		.cfi_startproc
 585              		@ args = 0, pretend = 0, frame = 8
 586              		@ frame_needed = 0, uses_anonymous_args = 0
 587              	.LVL50:
 588 0000 10B5     		push	{r4, lr}
 589              		.cfi_def_cfa_offset 8
 590              		.cfi_offset 4, -8
 591              		.cfi_offset 14, -4
 592 0002 0346     		mov	r3, r0
 593 0004 82B0     		sub	sp, sp, #8
 594              		.cfi_def_cfa_offset 16
 595              		.loc 1 379 0
 596              	@ 379 "ChibiOS_2.6.6/os/kernel/src/chsem.c" 1
 597 0006 72B6     		cpsid   i
 598              	@ 0 "" 2
 599              		.loc 1 380 0
 600              		.thumb
 601 0008 8268     		ldr	r2, [r0, #8]
 602 000a 0132     		adds	r2, r2, #1
 603 000c 002A     		cmp	r2, #0
 604 000e 8260     		str	r2, [r0, #8]
 605 0010 19DD     		ble	.L45
 606              	.LVL51:
 607              	.L42:
 608              		.loc 1 382 0
 609 0012 8B68     		ldr	r3, [r1, #8]
 610 0014 013B     		subs	r3, r3, #1
 611 0016 002B     		cmp	r3, #0
 612 0018 8B60     		str	r3, [r1, #8]
 613 001a 05DB     		blt	.L46
 614              		.loc 1 390 0
 615 001c FFF7FEFF 		bl	chSchRescheduleS
 616              	.LVL52:
 617              		.loc 1 391 0
 618 0020 0020     		movs	r0, #0
 619              	.LVL53:
 620              		.loc 1 393 0
 621              	@ 393 "ChibiOS_2.6.6/os/kernel/src/chsem.c" 1
ARM GAS  C:\Users\jsyoon\AppData\Local\Temp\cc5Dm9fT.s 			page 12


 622 0022 62B6     		cpsie   i
 623              	@ 0 "" 2
 624              		.loc 1 395 0
 625              		.thumb
 626 0024 02B0     		add	sp, sp, #8
 627              		@ sp needed
 628 0026 10BD     		pop	{r4, pc}
 629              	.LVL54:
 630              	.L46:
 631              	.LBB41:
 632              		.loc 1 383 0
 633 0028 0C4A     		ldr	r2, .L47
 634              	.LBB42:
 635              	.LBB43:
 636              		.loc 2 55 0
 637 002a 4B68     		ldr	r3, [r1, #4]
 638              	.LBE43:
 639              	.LBE42:
 640              		.loc 1 383 0
 641 002c 9469     		ldr	r4, [r2, #24]
 642              	.LVL55:
 643              		.loc 1 386 0
 644 002e 0320     		movs	r0, #3
 645              	.LBB45:
 646              	.LBB44:
 647              		.loc 2 55 0
 648 0030 84E80A00 		stmia	r4, {r1, r3}
 649              		.loc 2 56 0
 650 0034 4C60     		str	r4, [r1, #4]
 651 0036 1C60     		str	r4, [r3]
 652              	.LBE44:
 653              	.LBE45:
 654              		.loc 1 385 0
 655 0038 6162     		str	r1, [r4, #36]
 656              		.loc 1 386 0
 657 003a FFF7FEFF 		bl	chSchGoSleepS
 658              	.LVL56:
 659              		.loc 1 387 0
 660 003e 606A     		ldr	r0, [r4, #36]
 661              	.LVL57:
 662              	.LBE41:
 663              		.loc 1 393 0
 664              	@ 393 "ChibiOS_2.6.6/os/kernel/src/chsem.c" 1
 665 0040 62B6     		cpsie   i
 666              	@ 0 "" 2
 667              		.loc 1 395 0
 668              		.thumb
 669 0042 02B0     		add	sp, sp, #8
 670              		@ sp needed
 671 0044 10BD     		pop	{r4, pc}
 672              	.LVL58:
 673              	.L45:
 674              	.LBB46:
 675              	.LBB47:
 676              		.loc 2 60 0
 677 0046 0068     		ldr	r0, [r0]
 678              	.LVL59:
ARM GAS  C:\Users\jsyoon\AppData\Local\Temp\cc5Dm9fT.s 			page 13


 679              		.loc 2 62 0
 680 0048 0268     		ldr	r2, [r0]
 681 004a 1A60     		str	r2, [r3]
 682 004c 5360     		str	r3, [r2, #4]
 683              	.LBE47:
 684              	.LBE46:
 685              		.loc 1 381 0
 686 004e 0191     		str	r1, [sp, #4]
 687 0050 FFF7FEFF 		bl	chSchReadyI
 688              	.LVL60:
 689 0054 0023     		movs	r3, #0
 690 0056 4362     		str	r3, [r0, #36]
 691 0058 0199     		ldr	r1, [sp, #4]
 692 005a DAE7     		b	.L42
 693              	.L48:
 694              		.align	2
 695              	.L47:
 696 005c 00000000 		.word	rlist
 697              		.cfi_endproc
 698              	.LFE17:
 699              		.size	chSemSignalWait, .-chSemSignalWait
 700              		.text
 701              	.Letext0:
 702              		.file 3 "c:\\crosstools\\gcc-arm-embedded\\4.8_2014q2\\arm-none-eabi\\include\\machine\\_default_t
 703              		.file 4 "c:\\crosstools\\gcc-arm-embedded\\4.8_2014q2\\arm-none-eabi\\include\\stdint.h"
 704              		.file 5 "ChibiOS_2.6.6/os/ports/GCC/ARMCMx/chtypes.h"
 705              		.file 6 "ChibiOS_2.6.6/os/kernel/include/chlists.h"
 706              		.file 7 "ChibiOS_2.6.6/os/kernel/include/chthreads.h"
 707              		.file 8 "ChibiOS_2.6.6/os/ports/GCC/ARMCMx/chcore_v7m.h"
 708              		.file 9 "ChibiOS_2.6.6/os/kernel/include/chschd.h"
 709              		.file 10 "ChibiOS_2.6.6/os/kernel/include/chsem.h"
 710              		.file 11 "ChibiOS_2.6.6/os/kernel/include/chmtx.h"
 711              		.section	.debug_info,"",%progbits
 712              	.Ldebug_info0:
 713 0000 7A0A0000 		.4byte	0xa7a
 714 0004 0400     		.2byte	0x4
 715 0006 00000000 		.4byte	.Ldebug_abbrev0
 716 000a 04       		.byte	0x4
 717 000b 01       		.uleb128 0x1
 718 000c E6000000 		.4byte	.LASF86
 719 0010 01       		.byte	0x1
 720 0011 D7030000 		.4byte	.LASF87
 721 0015 A4000000 		.4byte	.LASF88
 722 0019 78000000 		.4byte	.Ldebug_ranges0+0x78
 723 001d 00000000 		.4byte	0
 724 0021 00000000 		.4byte	.Ldebug_line0
 725 0025 02       		.uleb128 0x2
 726 0026 04       		.byte	0x4
 727 0027 05       		.byte	0x5
 728 0028 696E7400 		.ascii	"int\000"
 729 002c 03       		.uleb128 0x3
 730 002d 04       		.byte	0x4
 731 002e 07       		.byte	0x7
 732 002f 4E020000 		.4byte	.LASF0
 733 0033 03       		.uleb128 0x3
 734 0034 01       		.byte	0x1
 735 0035 06       		.byte	0x6
ARM GAS  C:\Users\jsyoon\AppData\Local\Temp\cc5Dm9fT.s 			page 14


 736 0036 6E000000 		.4byte	.LASF1
 737 003a 04       		.uleb128 0x4
 738 003b 27000000 		.4byte	.LASF5
 739 003f 03       		.byte	0x3
 740 0040 1C       		.byte	0x1c
 741 0041 45000000 		.4byte	0x45
 742 0045 03       		.uleb128 0x3
 743 0046 01       		.byte	0x1
 744 0047 08       		.byte	0x8
 745 0048 4A030000 		.4byte	.LASF2
 746 004c 03       		.uleb128 0x3
 747 004d 02       		.byte	0x2
 748 004e 05       		.byte	0x5
 749 004f 62030000 		.4byte	.LASF3
 750 0053 03       		.uleb128 0x3
 751 0054 02       		.byte	0x2
 752 0055 07       		.byte	0x7
 753 0056 98020000 		.4byte	.LASF4
 754 005a 04       		.uleb128 0x4
 755 005b 46040000 		.4byte	.LASF6
 756 005f 03       		.byte	0x3
 757 0060 37       		.byte	0x37
 758 0061 65000000 		.4byte	0x65
 759 0065 03       		.uleb128 0x3
 760 0066 04       		.byte	0x4
 761 0067 05       		.byte	0x5
 762 0068 D4000000 		.4byte	.LASF7
 763 006c 04       		.uleb128 0x4
 764 006d 34020000 		.4byte	.LASF8
 765 0071 03       		.byte	0x3
 766 0072 38       		.byte	0x38
 767 0073 77000000 		.4byte	0x77
 768 0077 03       		.uleb128 0x3
 769 0078 04       		.byte	0x4
 770 0079 07       		.byte	0x7
 771 007a 6C020000 		.4byte	.LASF9
 772 007e 03       		.uleb128 0x3
 773 007f 08       		.byte	0x8
 774 0080 05       		.byte	0x5
 775 0081 60000000 		.4byte	.LASF10
 776 0085 03       		.uleb128 0x3
 777 0086 08       		.byte	0x8
 778 0087 07       		.byte	0x7
 779 0088 31000000 		.4byte	.LASF11
 780 008c 04       		.uleb128 0x4
 781 008d B9040000 		.4byte	.LASF12
 782 0091 04       		.byte	0x4
 783 0092 2A       		.byte	0x2a
 784 0093 3A000000 		.4byte	0x3a
 785 0097 04       		.uleb128 0x4
 786 0098 42030000 		.4byte	.LASF13
 787 009c 04       		.byte	0x4
 788 009d 41       		.byte	0x41
 789 009e 5A000000 		.4byte	0x5a
 790 00a2 04       		.uleb128 0x4
 791 00a3 C6030000 		.4byte	.LASF14
 792 00a7 04       		.byte	0x4
ARM GAS  C:\Users\jsyoon\AppData\Local\Temp\cc5Dm9fT.s 			page 15


 793 00a8 42       		.byte	0x42
 794 00a9 6C000000 		.4byte	0x6c
 795 00ad 03       		.uleb128 0x3
 796 00ae 01       		.byte	0x1
 797 00af 02       		.byte	0x2
 798 00b0 3C030000 		.4byte	.LASF15
 799 00b4 04       		.uleb128 0x4
 800 00b5 C4020000 		.4byte	.LASF16
 801 00b9 05       		.byte	0x5
 802 00ba 2C       		.byte	0x2c
 803 00bb 8C000000 		.4byte	0x8c
 804 00bf 04       		.uleb128 0x4
 805 00c0 DD000000 		.4byte	.LASF17
 806 00c4 05       		.byte	0x5
 807 00c5 2D       		.byte	0x2d
 808 00c6 8C000000 		.4byte	0x8c
 809 00ca 04       		.uleb128 0x4
 810 00cb 25030000 		.4byte	.LASF18
 811 00cf 05       		.byte	0x5
 812 00d0 2E       		.byte	0x2e
 813 00d1 8C000000 		.4byte	0x8c
 814 00d5 04       		.uleb128 0x4
 815 00d6 9A000000 		.4byte	.LASF19
 816 00da 05       		.byte	0x5
 817 00db 2F       		.byte	0x2f
 818 00dc 8C000000 		.4byte	0x8c
 819 00e0 04       		.uleb128 0x4
 820 00e1 34030000 		.4byte	.LASF20
 821 00e5 05       		.byte	0x5
 822 00e6 30       		.byte	0x30
 823 00e7 A2000000 		.4byte	0xa2
 824 00eb 04       		.uleb128 0x4
 825 00ec B6020000 		.4byte	.LASF21
 826 00f0 05       		.byte	0x5
 827 00f1 31       		.byte	0x31
 828 00f2 97000000 		.4byte	0x97
 829 00f6 04       		.uleb128 0x4
 830 00f7 D8020000 		.4byte	.LASF22
 831 00fb 05       		.byte	0x5
 832 00fc 33       		.byte	0x33
 833 00fd A2000000 		.4byte	0xa2
 834 0101 04       		.uleb128 0x4
 835 0102 31040000 		.4byte	.LASF23
 836 0106 05       		.byte	0x5
 837 0107 35       		.byte	0x35
 838 0108 A2000000 		.4byte	0xa2
 839 010c 04       		.uleb128 0x4
 840 010d 48020000 		.4byte	.LASF24
 841 0111 05       		.byte	0x5
 842 0112 36       		.byte	0x36
 843 0113 97000000 		.4byte	0x97
 844 0117 04       		.uleb128 0x4
 845 0118 A6030000 		.4byte	.LASF25
 846 011c 06       		.byte	0x6
 847 011d 2A       		.byte	0x2a
 848 011e 22010000 		.4byte	0x122
 849 0122 05       		.uleb128 0x5
ARM GAS  C:\Users\jsyoon\AppData\Local\Temp\cc5Dm9fT.s 			page 16


 850 0123 A6030000 		.4byte	.LASF25
 851 0127 48       		.byte	0x48
 852 0128 07       		.byte	0x7
 853 0129 5E       		.byte	0x5e
 854 012a 1F020000 		.4byte	0x21f
 855 012e 06       		.uleb128 0x6
 856 012f 8C030000 		.4byte	.LASF26
 857 0133 07       		.byte	0x7
 858 0134 5F       		.byte	0x5f
 859 0135 40020000 		.4byte	0x240
 860 0139 00       		.byte	0
 861 013a 06       		.uleb128 0x6
 862 013b 2D030000 		.4byte	.LASF27
 863 013f 07       		.byte	0x7
 864 0140 61       		.byte	0x61
 865 0141 40020000 		.4byte	0x240
 866 0145 04       		.byte	0x4
 867 0146 06       		.uleb128 0x6
 868 0147 59000000 		.4byte	.LASF28
 869 014b 07       		.byte	0x7
 870 014c 63       		.byte	0x63
 871 014d E0000000 		.4byte	0xe0
 872 0151 08       		.byte	0x8
 873 0152 06       		.uleb128 0x6
 874 0153 EC040000 		.4byte	.LASF29
 875 0157 07       		.byte	0x7
 876 0158 64       		.byte	0x64
 877 0159 CA030000 		.4byte	0x3ca
 878 015d 0C       		.byte	0xc
 879 015e 06       		.uleb128 0x6
 880 015f 0A020000 		.4byte	.LASF30
 881 0163 07       		.byte	0x7
 882 0164 66       		.byte	0x66
 883 0165 40020000 		.4byte	0x240
 884 0169 10       		.byte	0x10
 885 016a 06       		.uleb128 0x6
 886 016b F3020000 		.4byte	.LASF31
 887 016f 07       		.byte	0x7
 888 0170 67       		.byte	0x67
 889 0171 40020000 		.4byte	0x240
 890 0175 14       		.byte	0x14
 891 0176 06       		.uleb128 0x6
 892 0177 C8040000 		.4byte	.LASF32
 893 017b 07       		.byte	0x7
 894 017c 6E       		.byte	0x6e
 895 017d FA040000 		.4byte	0x4fa
 896 0181 18       		.byte	0x18
 897 0182 06       		.uleb128 0x6
 898 0183 6C030000 		.4byte	.LASF33
 899 0187 07       		.byte	0x7
 900 0188 79       		.byte	0x79
 901 0189 BF000000 		.4byte	0xbf
 902 018d 1C       		.byte	0x1c
 903 018e 06       		.uleb128 0x6
 904 018f 93030000 		.4byte	.LASF34
 905 0193 07       		.byte	0x7
 906 0194 7D       		.byte	0x7d
ARM GAS  C:\Users\jsyoon\AppData\Local\Temp\cc5Dm9fT.s 			page 17


 907 0195 B4000000 		.4byte	0xb4
 908 0199 1D       		.byte	0x1d
 909 019a 06       		.uleb128 0x6
 910 019b 96040000 		.4byte	.LASF35
 911 019f 07       		.byte	0x7
 912 01a0 82       		.byte	0x82
 913 01a1 CA000000 		.4byte	0xca
 914 01a5 1E       		.byte	0x1e
 915 01a6 06       		.uleb128 0x6
 916 01a7 74030000 		.4byte	.LASF36
 917 01ab 07       		.byte	0x7
 918 01ac 88       		.byte	0x88
 919 01ad D5000000 		.4byte	0xd5
 920 01b1 1F       		.byte	0x1f
 921 01b2 06       		.uleb128 0x6
 922 01b3 5A040000 		.4byte	.LASF37
 923 01b7 07       		.byte	0x7
 924 01b8 8F       		.byte	0x8f
 925 01b9 F2030000 		.4byte	0x3f2
 926 01bd 20       		.byte	0x20
 927 01be 07       		.uleb128 0x7
 928 01bf 705F7500 		.ascii	"p_u\000"
 929 01c3 07       		.byte	0x7
 930 01c4 B4       		.byte	0xb4
 931 01c5 C5040000 		.4byte	0x4c5
 932 01c9 24       		.byte	0x24
 933 01ca 06       		.uleb128 0x6
 934 01cb F2040000 		.4byte	.LASF38
 935 01cf 07       		.byte	0x7
 936 01d0 B9       		.byte	0xb9
 937 01d1 66020000 		.4byte	0x266
 938 01d5 28       		.byte	0x28
 939 01d6 06       		.uleb128 0x6
 940 01d7 74040000 		.4byte	.LASF39
 941 01db 07       		.byte	0x7
 942 01dc BF       		.byte	0xbf
 943 01dd 46020000 		.4byte	0x246
 944 01e1 2C       		.byte	0x2c
 945 01e2 06       		.uleb128 0x6
 946 01e3 00000000 		.4byte	.LASF40
 947 01e7 07       		.byte	0x7
 948 01e8 C3       		.byte	0xc3
 949 01e9 EB000000 		.4byte	0xeb
 950 01ed 34       		.byte	0x34
 951 01ee 06       		.uleb128 0x6
 952 01ef BB030000 		.4byte	.LASF41
 953 01f3 07       		.byte	0x7
 954 01f4 C9       		.byte	0xc9
 955 01f5 F6000000 		.4byte	0xf6
 956 01f9 38       		.byte	0x38
 957 01fa 06       		.uleb128 0x6
 958 01fb 58030000 		.4byte	.LASF42
 959 01ff 07       		.byte	0x7
 960 0200 D0       		.byte	0xd0
 961 0201 0C050000 		.4byte	0x50c
 962 0205 3C       		.byte	0x3c
 963 0206 06       		.uleb128 0x6
ARM GAS  C:\Users\jsyoon\AppData\Local\Temp\cc5Dm9fT.s 			page 18


 964 0207 3B040000 		.4byte	.LASF43
 965 020b 07       		.byte	0x7
 966 020c D4       		.byte	0xd4
 967 020d E0000000 		.4byte	0xe0
 968 0211 40       		.byte	0x40
 969 0212 06       		.uleb128 0x6
 970 0213 8A000000 		.4byte	.LASF44
 971 0217 07       		.byte	0x7
 972 0218 DA       		.byte	0xda
 973 0219 7C020000 		.4byte	0x27c
 974 021d 44       		.byte	0x44
 975 021e 00       		.byte	0
 976 021f 08       		.uleb128 0x8
 977 0220 08       		.byte	0x8
 978 0221 06       		.byte	0x6
 979 0222 61       		.byte	0x61
 980 0223 40020000 		.4byte	0x240
 981 0227 06       		.uleb128 0x6
 982 0228 8C030000 		.4byte	.LASF26
 983 022c 06       		.byte	0x6
 984 022d 62       		.byte	0x62
 985 022e 40020000 		.4byte	0x240
 986 0232 00       		.byte	0
 987 0233 06       		.uleb128 0x6
 988 0234 2D030000 		.4byte	.LASF27
 989 0238 06       		.byte	0x6
 990 0239 64       		.byte	0x64
 991 023a 40020000 		.4byte	0x240
 992 023e 04       		.byte	0x4
 993 023f 00       		.byte	0
 994 0240 09       		.uleb128 0x9
 995 0241 04       		.byte	0x4
 996 0242 17010000 		.4byte	0x117
 997 0246 04       		.uleb128 0x4
 998 0247 01030000 		.4byte	.LASF45
 999 024b 06       		.byte	0x6
 1000 024c 66       		.byte	0x66
 1001 024d 1F020000 		.4byte	0x21f
 1002 0251 08       		.uleb128 0x8
 1003 0252 04       		.byte	0x4
 1004 0253 06       		.byte	0x6
 1005 0254 6B       		.byte	0x6b
 1006 0255 66020000 		.4byte	0x266
 1007 0259 06       		.uleb128 0x6
 1008 025a 8C030000 		.4byte	.LASF26
 1009 025e 06       		.byte	0x6
 1010 025f 6D       		.byte	0x6d
 1011 0260 40020000 		.4byte	0x240
 1012 0264 00       		.byte	0
 1013 0265 00       		.byte	0
 1014 0266 04       		.uleb128 0x4
 1015 0267 CC020000 		.4byte	.LASF46
 1016 026b 06       		.byte	0x6
 1017 026c 70       		.byte	0x70
 1018 026d 51020000 		.4byte	0x251
 1019 0271 04       		.uleb128 0x4
 1020 0272 3F020000 		.4byte	.LASF47
ARM GAS  C:\Users\jsyoon\AppData\Local\Temp\cc5Dm9fT.s 			page 19


 1021 0276 08       		.byte	0x8
 1022 0277 E5       		.byte	0xe5
 1023 0278 7C020000 		.4byte	0x27c
 1024 027c 0A       		.uleb128 0xa
 1025 027d 04       		.byte	0x4
 1026 027e 0B       		.uleb128 0xb
 1027 027f 6D040000 		.4byte	.LASF48
 1028 0283 64       		.byte	0x64
 1029 0284 08       		.byte	0x8
 1030 0285 0C01     		.2byte	0x10c
 1031 0287 CA030000 		.4byte	0x3ca
 1032 028b 0C       		.uleb128 0xc
 1033 028c 73313600 		.ascii	"s16\000"
 1034 0290 08       		.byte	0x8
 1035 0291 0E01     		.2byte	0x10e
 1036 0293 71020000 		.4byte	0x271
 1037 0297 00       		.byte	0
 1038 0298 0C       		.uleb128 0xc
 1039 0299 73313700 		.ascii	"s17\000"
 1040 029d 08       		.byte	0x8
 1041 029e 0F01     		.2byte	0x10f
 1042 02a0 71020000 		.4byte	0x271
 1043 02a4 04       		.byte	0x4
 1044 02a5 0C       		.uleb128 0xc
 1045 02a6 73313800 		.ascii	"s18\000"
 1046 02aa 08       		.byte	0x8
 1047 02ab 1001     		.2byte	0x110
 1048 02ad 71020000 		.4byte	0x271
 1049 02b1 08       		.byte	0x8
 1050 02b2 0C       		.uleb128 0xc
 1051 02b3 73313900 		.ascii	"s19\000"
 1052 02b7 08       		.byte	0x8
 1053 02b8 1101     		.2byte	0x111
 1054 02ba 71020000 		.4byte	0x271
 1055 02be 0C       		.byte	0xc
 1056 02bf 0C       		.uleb128 0xc
 1057 02c0 73323000 		.ascii	"s20\000"
 1058 02c4 08       		.byte	0x8
 1059 02c5 1201     		.2byte	0x112
 1060 02c7 71020000 		.4byte	0x271
 1061 02cb 10       		.byte	0x10
 1062 02cc 0C       		.uleb128 0xc
 1063 02cd 73323100 		.ascii	"s21\000"
 1064 02d1 08       		.byte	0x8
 1065 02d2 1301     		.2byte	0x113
 1066 02d4 71020000 		.4byte	0x271
 1067 02d8 14       		.byte	0x14
 1068 02d9 0C       		.uleb128 0xc
 1069 02da 73323200 		.ascii	"s22\000"
 1070 02de 08       		.byte	0x8
 1071 02df 1401     		.2byte	0x114
 1072 02e1 71020000 		.4byte	0x271
 1073 02e5 18       		.byte	0x18
 1074 02e6 0C       		.uleb128 0xc
 1075 02e7 73323300 		.ascii	"s23\000"
 1076 02eb 08       		.byte	0x8
 1077 02ec 1501     		.2byte	0x115
ARM GAS  C:\Users\jsyoon\AppData\Local\Temp\cc5Dm9fT.s 			page 20


 1078 02ee 71020000 		.4byte	0x271
 1079 02f2 1C       		.byte	0x1c
 1080 02f3 0C       		.uleb128 0xc
 1081 02f4 73323400 		.ascii	"s24\000"
 1082 02f8 08       		.byte	0x8
 1083 02f9 1601     		.2byte	0x116
 1084 02fb 71020000 		.4byte	0x271
 1085 02ff 20       		.byte	0x20
 1086 0300 0C       		.uleb128 0xc
 1087 0301 73323500 		.ascii	"s25\000"
 1088 0305 08       		.byte	0x8
 1089 0306 1701     		.2byte	0x117
 1090 0308 71020000 		.4byte	0x271
 1091 030c 24       		.byte	0x24
 1092 030d 0C       		.uleb128 0xc
 1093 030e 73323600 		.ascii	"s26\000"
 1094 0312 08       		.byte	0x8
 1095 0313 1801     		.2byte	0x118
 1096 0315 71020000 		.4byte	0x271
 1097 0319 28       		.byte	0x28
 1098 031a 0C       		.uleb128 0xc
 1099 031b 73323700 		.ascii	"s27\000"
 1100 031f 08       		.byte	0x8
 1101 0320 1901     		.2byte	0x119
 1102 0322 71020000 		.4byte	0x271
 1103 0326 2C       		.byte	0x2c
 1104 0327 0C       		.uleb128 0xc
 1105 0328 73323800 		.ascii	"s28\000"
 1106 032c 08       		.byte	0x8
 1107 032d 1A01     		.2byte	0x11a
 1108 032f 71020000 		.4byte	0x271
 1109 0333 30       		.byte	0x30
 1110 0334 0C       		.uleb128 0xc
 1111 0335 73323900 		.ascii	"s29\000"
 1112 0339 08       		.byte	0x8
 1113 033a 1B01     		.2byte	0x11b
 1114 033c 71020000 		.4byte	0x271
 1115 0340 34       		.byte	0x34
 1116 0341 0C       		.uleb128 0xc
 1117 0342 73333000 		.ascii	"s30\000"
 1118 0346 08       		.byte	0x8
 1119 0347 1C01     		.2byte	0x11c
 1120 0349 71020000 		.4byte	0x271
 1121 034d 38       		.byte	0x38
 1122 034e 0C       		.uleb128 0xc
 1123 034f 73333100 		.ascii	"s31\000"
 1124 0353 08       		.byte	0x8
 1125 0354 1D01     		.2byte	0x11d
 1126 0356 71020000 		.4byte	0x271
 1127 035a 3C       		.byte	0x3c
 1128 035b 0C       		.uleb128 0xc
 1129 035c 723400   		.ascii	"r4\000"
 1130 035f 08       		.byte	0x8
 1131 0360 1F01     		.2byte	0x11f
 1132 0362 71020000 		.4byte	0x271
 1133 0366 40       		.byte	0x40
 1134 0367 0C       		.uleb128 0xc
ARM GAS  C:\Users\jsyoon\AppData\Local\Temp\cc5Dm9fT.s 			page 21


 1135 0368 723500   		.ascii	"r5\000"
 1136 036b 08       		.byte	0x8
 1137 036c 2001     		.2byte	0x120
 1138 036e 71020000 		.4byte	0x271
 1139 0372 44       		.byte	0x44
 1140 0373 0C       		.uleb128 0xc
 1141 0374 723600   		.ascii	"r6\000"
 1142 0377 08       		.byte	0x8
 1143 0378 2101     		.2byte	0x121
 1144 037a 71020000 		.4byte	0x271
 1145 037e 48       		.byte	0x48
 1146 037f 0C       		.uleb128 0xc
 1147 0380 723700   		.ascii	"r7\000"
 1148 0383 08       		.byte	0x8
 1149 0384 2201     		.2byte	0x122
 1150 0386 71020000 		.4byte	0x271
 1151 038a 4C       		.byte	0x4c
 1152 038b 0C       		.uleb128 0xc
 1153 038c 723800   		.ascii	"r8\000"
 1154 038f 08       		.byte	0x8
 1155 0390 2301     		.2byte	0x123
 1156 0392 71020000 		.4byte	0x271
 1157 0396 50       		.byte	0x50
 1158 0397 0C       		.uleb128 0xc
 1159 0398 723900   		.ascii	"r9\000"
 1160 039b 08       		.byte	0x8
 1161 039c 2401     		.2byte	0x124
 1162 039e 71020000 		.4byte	0x271
 1163 03a2 54       		.byte	0x54
 1164 03a3 0C       		.uleb128 0xc
 1165 03a4 72313000 		.ascii	"r10\000"
 1166 03a8 08       		.byte	0x8
 1167 03a9 2501     		.2byte	0x125
 1168 03ab 71020000 		.4byte	0x271
 1169 03af 58       		.byte	0x58
 1170 03b0 0C       		.uleb128 0xc
 1171 03b1 72313100 		.ascii	"r11\000"
 1172 03b5 08       		.byte	0x8
 1173 03b6 2601     		.2byte	0x126
 1174 03b8 71020000 		.4byte	0x271
 1175 03bc 5C       		.byte	0x5c
 1176 03bd 0C       		.uleb128 0xc
 1177 03be 6C7200   		.ascii	"lr\000"
 1178 03c1 08       		.byte	0x8
 1179 03c2 2701     		.2byte	0x127
 1180 03c4 71020000 		.4byte	0x271
 1181 03c8 60       		.byte	0x60
 1182 03c9 00       		.byte	0
 1183 03ca 0B       		.uleb128 0xb
 1184 03cb 90020000 		.4byte	.LASF49
 1185 03cf 04       		.byte	0x4
 1186 03d0 08       		.byte	0x8
 1187 03d1 3101     		.2byte	0x131
 1188 03d3 E5030000 		.4byte	0x3e5
 1189 03d7 0C       		.uleb128 0xc
 1190 03d8 72313300 		.ascii	"r13\000"
 1191 03dc 08       		.byte	0x8
ARM GAS  C:\Users\jsyoon\AppData\Local\Temp\cc5Dm9fT.s 			page 22


 1192 03dd 3201     		.2byte	0x132
 1193 03df E5030000 		.4byte	0x3e5
 1194 03e3 00       		.byte	0
 1195 03e4 00       		.byte	0
 1196 03e5 09       		.uleb128 0x9
 1197 03e6 04       		.byte	0x4
 1198 03e7 7E020000 		.4byte	0x27e
 1199 03eb 03       		.uleb128 0x3
 1200 03ec 04       		.byte	0x4
 1201 03ed 07       		.byte	0x7
 1202 03ee EA020000 		.4byte	.LASF50
 1203 03f2 0D       		.uleb128 0xd
 1204 03f3 01010000 		.4byte	0x101
 1205 03f7 08       		.uleb128 0x8
 1206 03f8 1C       		.byte	0x1c
 1207 03f9 09       		.byte	0x9
 1208 03fa 5E       		.byte	0x5e
 1209 03fb 48040000 		.4byte	0x448
 1210 03ff 06       		.uleb128 0x6
 1211 0400 CF030000 		.4byte	.LASF51
 1212 0404 09       		.byte	0x9
 1213 0405 5F       		.byte	0x5f
 1214 0406 46020000 		.4byte	0x246
 1215 040a 00       		.byte	0
 1216 040b 06       		.uleb128 0x6
 1217 040c 7E030000 		.4byte	.LASF52
 1218 0410 09       		.byte	0x9
 1219 0411 60       		.byte	0x60
 1220 0412 E0000000 		.4byte	0xe0
 1221 0416 08       		.byte	0x8
 1222 0417 06       		.uleb128 0x6
 1223 0418 FB020000 		.4byte	.LASF53
 1224 041c 09       		.byte	0x9
 1225 041d 62       		.byte	0x62
 1226 041e CA030000 		.4byte	0x3ca
 1227 0422 0C       		.byte	0xc
 1228 0423 06       		.uleb128 0x6
 1229 0424 BC020000 		.4byte	.LASF54
 1230 0428 09       		.byte	0x9
 1231 0429 65       		.byte	0x65
 1232 042a 40020000 		.4byte	0x240
 1233 042e 10       		.byte	0x10
 1234 042f 06       		.uleb128 0x6
 1235 0430 1D030000 		.4byte	.LASF55
 1236 0434 09       		.byte	0x9
 1237 0435 66       		.byte	0x66
 1238 0436 40020000 		.4byte	0x240
 1239 043a 14       		.byte	0x14
 1240 043b 06       		.uleb128 0x6
 1241 043c 13030000 		.4byte	.LASF56
 1242 0440 09       		.byte	0x9
 1243 0441 69       		.byte	0x69
 1244 0442 40020000 		.4byte	0x240
 1245 0446 18       		.byte	0x18
 1246 0447 00       		.byte	0
 1247 0448 04       		.uleb128 0x4
 1248 0449 9D040000 		.4byte	.LASF57
ARM GAS  C:\Users\jsyoon\AppData\Local\Temp\cc5Dm9fT.s 			page 23


 1249 044d 09       		.byte	0x9
 1250 044e 6B       		.byte	0x6b
 1251 044f F7030000 		.4byte	0x3f7
 1252 0453 05       		.uleb128 0x5
 1253 0454 8C040000 		.4byte	.LASF58
 1254 0458 0C       		.byte	0xc
 1255 0459 0A       		.byte	0xa
 1256 045a 2C       		.byte	0x2c
 1257 045b 78040000 		.4byte	0x478
 1258 045f 06       		.uleb128 0x6
 1259 0460 12020000 		.4byte	.LASF59
 1260 0464 0A       		.byte	0xa
 1261 0465 2D       		.byte	0x2d
 1262 0466 46020000 		.4byte	0x246
 1263 046a 00       		.byte	0
 1264 046b 06       		.uleb128 0x6
 1265 046c 8A020000 		.4byte	.LASF60
 1266 0470 0A       		.byte	0xa
 1267 0471 2F       		.byte	0x2f
 1268 0472 0C010000 		.4byte	0x10c
 1269 0476 08       		.byte	0x8
 1270 0477 00       		.byte	0
 1271 0478 04       		.uleb128 0x4
 1272 0479 8C040000 		.4byte	.LASF58
 1273 047d 0A       		.byte	0xa
 1274 047e 30       		.byte	0x30
 1275 047f 53040000 		.4byte	0x453
 1276 0483 05       		.uleb128 0x5
 1277 0484 E4020000 		.4byte	.LASF61
 1278 0488 10       		.byte	0x10
 1279 0489 0B       		.byte	0xb
 1280 048a 2C       		.byte	0x2c
 1281 048b B4040000 		.4byte	0x4b4
 1282 048f 06       		.uleb128 0x6
 1283 0490 92000000 		.4byte	.LASF62
 1284 0494 0B       		.byte	0xb
 1285 0495 2D       		.byte	0x2d
 1286 0496 46020000 		.4byte	0x246
 1287 049a 00       		.byte	0
 1288 049b 06       		.uleb128 0x6
 1289 049c E4040000 		.4byte	.LASF63
 1290 04a0 0B       		.byte	0xb
 1291 04a1 2F       		.byte	0x2f
 1292 04a2 40020000 		.4byte	0x240
 1293 04a6 08       		.byte	0x8
 1294 04a7 06       		.uleb128 0x6
 1295 04a8 2A040000 		.4byte	.LASF64
 1296 04ac 0B       		.byte	0xb
 1297 04ad 31       		.byte	0x31
 1298 04ae B4040000 		.4byte	0x4b4
 1299 04b2 0C       		.byte	0xc
 1300 04b3 00       		.byte	0
 1301 04b4 09       		.uleb128 0x9
 1302 04b5 04       		.byte	0x4
 1303 04b6 83040000 		.4byte	0x483
 1304 04ba 04       		.uleb128 0x4
 1305 04bb E4020000 		.4byte	.LASF61
ARM GAS  C:\Users\jsyoon\AppData\Local\Temp\cc5Dm9fT.s 			page 24


 1306 04bf 0B       		.byte	0xb
 1307 04c0 33       		.byte	0x33
 1308 04c1 83040000 		.4byte	0x483
 1309 04c5 0E       		.uleb128 0xe
 1310 04c6 04       		.byte	0x4
 1311 04c7 07       		.byte	0x7
 1312 04c8 96       		.byte	0x96
 1313 04c9 FA040000 		.4byte	0x4fa
 1314 04cd 0F       		.uleb128 0xf
 1315 04ce 20000000 		.4byte	.LASF65
 1316 04d2 07       		.byte	0x7
 1317 04d3 9D       		.byte	0x9d
 1318 04d4 EB000000 		.4byte	0xeb
 1319 04d8 0F       		.uleb128 0xf
 1320 04d9 1A020000 		.4byte	.LASF66
 1321 04dd 07       		.byte	0x7
 1322 04de A4       		.byte	0xa4
 1323 04df EB000000 		.4byte	0xeb
 1324 04e3 0F       		.uleb128 0xf
 1325 04e4 C1040000 		.4byte	.LASF67
 1326 04e8 07       		.byte	0x7
 1327 04e9 AB       		.byte	0xab
 1328 04ea 7C020000 		.4byte	0x27c
 1329 04ee 0F       		.uleb128 0xf
 1330 04ef 85030000 		.4byte	.LASF68
 1331 04f3 07       		.byte	0x7
 1332 04f4 B2       		.byte	0xb2
 1333 04f5 F6000000 		.4byte	0xf6
 1334 04f9 00       		.byte	0
 1335 04fa 09       		.uleb128 0x9
 1336 04fb 04       		.byte	0x4
 1337 04fc 00050000 		.4byte	0x500
 1338 0500 10       		.uleb128 0x10
 1339 0501 05050000 		.4byte	0x505
 1340 0505 03       		.uleb128 0x3
 1341 0506 01       		.byte	0x1
 1342 0507 08       		.byte	0x8
 1343 0508 FB030000 		.4byte	.LASF69
 1344 050c 09       		.uleb128 0x9
 1345 050d 04       		.byte	0x4
 1346 050e BA040000 		.4byte	0x4ba
 1347 0512 11       		.uleb128 0x11
 1348 0513 61040000 		.4byte	.LASF70
 1349 0517 02       		.byte	0x2
 1350 0518 42       		.byte	0x42
 1351 0519 40020000 		.4byte	0x240
 1352 051d 03       		.byte	0x3
 1353 051e 38050000 		.4byte	0x538
 1354 0522 12       		.uleb128 0x12
 1355 0523 74717000 		.ascii	"tqp\000"
 1356 0527 02       		.byte	0x2
 1357 0528 42       		.byte	0x42
 1358 0529 38050000 		.4byte	0x538
 1359 052d 13       		.uleb128 0x13
 1360 052e 747000   		.ascii	"tp\000"
 1361 0531 02       		.byte	0x2
 1362 0532 43       		.byte	0x43
ARM GAS  C:\Users\jsyoon\AppData\Local\Temp\cc5Dm9fT.s 			page 25


 1363 0533 40020000 		.4byte	0x240
 1364 0537 00       		.byte	0
 1365 0538 09       		.uleb128 0x9
 1366 0539 04       		.byte	0x4
 1367 053a 46020000 		.4byte	0x246
 1368 053e 14       		.uleb128 0x14
 1369 053f 06000000 		.4byte	.LASF89
 1370 0543 02       		.byte	0x2
 1371 0544 34       		.byte	0x34
 1372 0545 03       		.byte	0x3
 1373 0546 60050000 		.4byte	0x560
 1374 054a 12       		.uleb128 0x12
 1375 054b 747000   		.ascii	"tp\000"
 1376 054e 02       		.byte	0x2
 1377 054f 34       		.byte	0x34
 1378 0550 40020000 		.4byte	0x240
 1379 0554 12       		.uleb128 0x12
 1380 0555 74717000 		.ascii	"tqp\000"
 1381 0559 02       		.byte	0x2
 1382 055a 34       		.byte	0x34
 1383 055b 38050000 		.4byte	0x538
 1384 055f 00       		.byte	0
 1385 0560 11       		.uleb128 0x11
 1386 0561 00040000 		.4byte	.LASF71
 1387 0565 02       		.byte	0x2
 1388 0566 3B       		.byte	0x3b
 1389 0567 40020000 		.4byte	0x240
 1390 056b 03       		.byte	0x3
 1391 056c 86050000 		.4byte	0x586
 1392 0570 12       		.uleb128 0x12
 1393 0571 74717000 		.ascii	"tqp\000"
 1394 0575 02       		.byte	0x2
 1395 0576 3B       		.byte	0x3b
 1396 0577 38050000 		.4byte	0x538
 1397 057b 13       		.uleb128 0x13
 1398 057c 747000   		.ascii	"tp\000"
 1399 057f 02       		.byte	0x2
 1400 0580 3C       		.byte	0x3c
 1401 0581 40020000 		.4byte	0x240
 1402 0585 00       		.byte	0
 1403 0586 15       		.uleb128 0x15
 1404 0587 FC040000 		.4byte	.LASF72
 1405 058b 01       		.byte	0x1
 1406 058c 56       		.byte	0x56
 1407 058d 00000000 		.4byte	.LFB7
 1408 0591 08000000 		.4byte	.LFE7-.LFB7
 1409 0595 01       		.uleb128 0x1
 1410 0596 9C       		.byte	0x9c
 1411 0597 B3050000 		.4byte	0x5b3
 1412 059b 16       		.uleb128 0x16
 1413 059c 737000   		.ascii	"sp\000"
 1414 059f 01       		.byte	0x1
 1415 05a0 56       		.byte	0x56
 1416 05a1 B3050000 		.4byte	0x5b3
 1417 05a5 01       		.uleb128 0x1
 1418 05a6 50       		.byte	0x50
 1419 05a7 16       		.uleb128 0x16
ARM GAS  C:\Users\jsyoon\AppData\Local\Temp\cc5Dm9fT.s 			page 26


 1420 05a8 6E00     		.ascii	"n\000"
 1421 05aa 01       		.byte	0x1
 1422 05ab 56       		.byte	0x56
 1423 05ac 0C010000 		.4byte	0x10c
 1424 05b0 01       		.uleb128 0x1
 1425 05b1 51       		.byte	0x51
 1426 05b2 00       		.byte	0
 1427 05b3 09       		.uleb128 0x9
 1428 05b4 04       		.byte	0x4
 1429 05b5 78040000 		.4byte	0x478
 1430 05b9 15       		.uleb128 0x15
 1431 05ba A7040000 		.4byte	.LASF73
 1432 05be 01       		.byte	0x1
 1433 05bf 88       		.byte	0x88
 1434 05c0 00000000 		.4byte	.LFB9
 1435 05c4 28000000 		.4byte	.LFE9-.LFB9
 1436 05c8 01       		.uleb128 0x1
 1437 05c9 9C       		.byte	0x9c
 1438 05ca 32060000 		.4byte	0x632
 1439 05ce 17       		.uleb128 0x17
 1440 05cf 737000   		.ascii	"sp\000"
 1441 05d2 01       		.byte	0x1
 1442 05d3 88       		.byte	0x88
 1443 05d4 B3050000 		.4byte	0x5b3
 1444 05d8 00000000 		.4byte	.LLST0
 1445 05dc 17       		.uleb128 0x17
 1446 05dd 6E00     		.ascii	"n\000"
 1447 05df 01       		.byte	0x1
 1448 05e0 88       		.byte	0x88
 1449 05e1 0C010000 		.4byte	0x10c
 1450 05e5 1E000000 		.4byte	.LLST1
 1451 05e9 18       		.uleb128 0x18
 1452 05ea 636E7400 		.ascii	"cnt\000"
 1453 05ee 01       		.byte	0x1
 1454 05ef 89       		.byte	0x89
 1455 05f0 0C010000 		.4byte	0x10c
 1456 05f4 3F000000 		.4byte	.LLST2
 1457 05f8 19       		.uleb128 0x19
 1458 05f9 12050000 		.4byte	0x512
 1459 05fd 12000000 		.4byte	.LBB20
 1460 0601 08000000 		.4byte	.LBE20-.LBB20
 1461 0605 01       		.byte	0x1
 1462 0606 95       		.byte	0x95
 1463 0607 28060000 		.4byte	0x628
 1464 060b 1A       		.uleb128 0x1a
 1465 060c 22050000 		.4byte	0x522
 1466 0610 6A000000 		.4byte	.LLST3
 1467 0614 1B       		.uleb128 0x1b
 1468 0615 12000000 		.4byte	.LBB21
 1469 0619 08000000 		.4byte	.LBE21-.LBB21
 1470 061d 1C       		.uleb128 0x1c
 1471 061e 2D050000 		.4byte	0x52d
 1472 0622 7D000000 		.4byte	.LLST4
 1473 0626 00       		.byte	0
 1474 0627 00       		.byte	0
 1475 0628 1D       		.uleb128 0x1d
 1476 0629 1E000000 		.4byte	.LVL6
ARM GAS  C:\Users\jsyoon\AppData\Local\Temp\cc5Dm9fT.s 			page 27


 1477 062d 240A0000 		.4byte	0xa24
 1478 0631 00       		.byte	0
 1479 0632 15       		.uleb128 0x15
 1480 0633 AB020000 		.4byte	.LASF74
 1481 0637 01       		.byte	0x1
 1482 0638 6D       		.byte	0x6d
 1483 0639 00000000 		.4byte	.LFB8
 1484 063d 10000000 		.4byte	.LFE8-.LFB8
 1485 0641 01       		.uleb128 0x1
 1486 0642 9C       		.byte	0x9c
 1487 0643 88060000 		.4byte	0x688
 1488 0647 17       		.uleb128 0x17
 1489 0648 737000   		.ascii	"sp\000"
 1490 064b 01       		.byte	0x1
 1491 064c 6D       		.byte	0x6d
 1492 064d B3050000 		.4byte	0x5b3
 1493 0651 90000000 		.4byte	.LLST5
 1494 0655 17       		.uleb128 0x17
 1495 0656 6E00     		.ascii	"n\000"
 1496 0658 01       		.byte	0x1
 1497 0659 6D       		.byte	0x6d
 1498 065a 0C010000 		.4byte	0x10c
 1499 065e B1000000 		.4byte	.LLST6
 1500 0662 1E       		.uleb128 0x1e
 1501 0663 08000000 		.4byte	.LVL11
 1502 0667 B9050000 		.4byte	0x5b9
 1503 066b 7E060000 		.4byte	0x67e
 1504 066f 1F       		.uleb128 0x1f
 1505 0670 01       		.uleb128 0x1
 1506 0671 51       		.byte	0x51
 1507 0672 03       		.uleb128 0x3
 1508 0673 F3       		.byte	0xf3
 1509 0674 01       		.uleb128 0x1
 1510 0675 51       		.byte	0x51
 1511 0676 1F       		.uleb128 0x1f
 1512 0677 01       		.uleb128 0x1
 1513 0678 50       		.byte	0x50
 1514 0679 03       		.uleb128 0x3
 1515 067a F3       		.byte	0xf3
 1516 067b 01       		.uleb128 0x1
 1517 067c 50       		.byte	0x50
 1518 067d 00       		.byte	0
 1519 067e 1D       		.uleb128 0x1d
 1520 067f 0C000000 		.4byte	.LVL12
 1521 0683 390A0000 		.4byte	0xa39
 1522 0687 00       		.byte	0
 1523 0688 20       		.uleb128 0x20
 1524 0689 9B030000 		.4byte	.LASF75
 1525 068d 01       		.byte	0x1
 1526 068e B9       		.byte	0xb9
 1527 068f EB000000 		.4byte	0xeb
 1528 0693 00000000 		.4byte	.LFB11
 1529 0697 34000000 		.4byte	.LFE11-.LFB11
 1530 069b 01       		.uleb128 0x1
 1531 069c 9C       		.byte	0x9c
 1532 069d E5060000 		.4byte	0x6e5
 1533 06a1 17       		.uleb128 0x17
ARM GAS  C:\Users\jsyoon\AppData\Local\Temp\cc5Dm9fT.s 			page 28


 1534 06a2 737000   		.ascii	"sp\000"
 1535 06a5 01       		.byte	0x1
 1536 06a6 B9       		.byte	0xb9
 1537 06a7 B3050000 		.4byte	0x5b3
 1538 06ab D2000000 		.4byte	.LLST7
 1539 06af 21       		.uleb128 0x21
 1540 06b0 3E050000 		.4byte	0x53e
 1541 06b4 18000000 		.4byte	.LBB22
 1542 06b8 00000000 		.4byte	.Ldebug_ranges0+0
 1543 06bc 01       		.byte	0x1
 1544 06bd C4       		.byte	0xc4
 1545 06be D5060000 		.4byte	0x6d5
 1546 06c2 1A       		.uleb128 0x1a
 1547 06c3 54050000 		.4byte	0x554
 1548 06c7 14010000 		.4byte	.LLST8
 1549 06cb 1A       		.uleb128 0x1a
 1550 06cc 4A050000 		.4byte	0x54a
 1551 06d0 4D010000 		.4byte	.LLST9
 1552 06d4 00       		.byte	0
 1553 06d5 22       		.uleb128 0x22
 1554 06d6 28000000 		.4byte	.LVL20
 1555 06da 400A0000 		.4byte	0xa40
 1556 06de 1F       		.uleb128 0x1f
 1557 06df 01       		.uleb128 0x1
 1558 06e0 50       		.byte	0x50
 1559 06e1 01       		.uleb128 0x1
 1560 06e2 33       		.byte	0x33
 1561 06e3 00       		.byte	0
 1562 06e4 00       		.byte	0
 1563 06e5 20       		.uleb128 0x20
 1564 06e6 50040000 		.4byte	.LASF76
 1565 06ea 01       		.byte	0x1
 1566 06eb A4       		.byte	0xa4
 1567 06ec EB000000 		.4byte	0xeb
 1568 06f0 00000000 		.4byte	.LFB10
 1569 06f4 0C000000 		.4byte	.LFE10-.LFB10
 1570 06f8 01       		.uleb128 0x1
 1571 06f9 9C       		.byte	0x9c
 1572 06fa 2B070000 		.4byte	0x72b
 1573 06fe 17       		.uleb128 0x17
 1574 06ff 737000   		.ascii	"sp\000"
 1575 0702 01       		.byte	0x1
 1576 0703 A4       		.byte	0xa4
 1577 0704 B3050000 		.4byte	0x5b3
 1578 0708 60010000 		.4byte	.LLST10
 1579 070c 23       		.uleb128 0x23
 1580 070d 6D736700 		.ascii	"msg\000"
 1581 0711 01       		.byte	0x1
 1582 0712 A5       		.byte	0xa5
 1583 0713 EB000000 		.4byte	0xeb
 1584 0717 01       		.uleb128 0x1
 1585 0718 50       		.byte	0x50
 1586 0719 22       		.uleb128 0x22
 1587 071a 08000000 		.4byte	.LVL22
 1588 071e 88060000 		.4byte	0x688
 1589 0722 1F       		.uleb128 0x1f
 1590 0723 01       		.uleb128 0x1
ARM GAS  C:\Users\jsyoon\AppData\Local\Temp\cc5Dm9fT.s 			page 29


 1591 0724 50       		.byte	0x50
 1592 0725 03       		.uleb128 0x3
 1593 0726 F3       		.byte	0xf3
 1594 0727 01       		.uleb128 0x1
 1595 0728 50       		.byte	0x50
 1596 0729 00       		.byte	0
 1597 072a 00       		.byte	0
 1598 072b 20       		.uleb128 0x20
 1599 072c 0C040000 		.4byte	.LASF77
 1600 0730 01       		.byte	0x1
 1601 0731 FA       		.byte	0xfa
 1602 0732 EB000000 		.4byte	0xeb
 1603 0736 00000000 		.4byte	.LFB13
 1604 073a 40000000 		.4byte	.LFE13-.LFB13
 1605 073e 01       		.uleb128 0x1
 1606 073f 9C       		.byte	0x9c
 1607 0740 98070000 		.4byte	0x798
 1608 0744 17       		.uleb128 0x17
 1609 0745 737000   		.ascii	"sp\000"
 1610 0748 01       		.byte	0x1
 1611 0749 FA       		.byte	0xfa
 1612 074a B3050000 		.4byte	0x5b3
 1613 074e 81010000 		.4byte	.LLST11
 1614 0752 24       		.uleb128 0x24
 1615 0753 0E030000 		.4byte	.LASF78
 1616 0757 01       		.byte	0x1
 1617 0758 FA       		.byte	0xfa
 1618 0759 01010000 		.4byte	0x101
 1619 075d B8010000 		.4byte	.LLST12
 1620 0761 25       		.uleb128 0x25
 1621 0762 3E050000 		.4byte	0x53e
 1622 0766 1E000000 		.4byte	.LBB26
 1623 076a 18000000 		.4byte	.Ldebug_ranges0+0x18
 1624 076e 01       		.byte	0x1
 1625 076f 0901     		.2byte	0x109
 1626 0771 88070000 		.4byte	0x788
 1627 0775 1A       		.uleb128 0x1a
 1628 0776 54050000 		.4byte	0x554
 1629 077a E4010000 		.4byte	.LLST13
 1630 077e 1A       		.uleb128 0x1a
 1631 077f 4A050000 		.4byte	0x54a
 1632 0783 1D020000 		.4byte	.LLST14
 1633 0787 00       		.byte	0
 1634 0788 26       		.uleb128 0x26
 1635 0789 32000000 		.4byte	.LVL28
 1636 078d 510A0000 		.4byte	0xa51
 1637 0791 1F       		.uleb128 0x1f
 1638 0792 01       		.uleb128 0x1
 1639 0793 50       		.byte	0x50
 1640 0794 01       		.uleb128 0x1
 1641 0795 33       		.byte	0x33
 1642 0796 00       		.byte	0
 1643 0797 00       		.byte	0
 1644 0798 20       		.uleb128 0x20
 1645 0799 5B020000 		.4byte	.LASF79
 1646 079d 01       		.byte	0x1
 1647 079e DE       		.byte	0xde
ARM GAS  C:\Users\jsyoon\AppData\Local\Temp\cc5Dm9fT.s 			page 30


 1648 079f EB000000 		.4byte	0xeb
 1649 07a3 00000000 		.4byte	.LFB12
 1650 07a7 0C000000 		.4byte	.LFE12-.LFB12
 1651 07ab 01       		.uleb128 0x1
 1652 07ac 9C       		.byte	0x9c
 1653 07ad F4070000 		.4byte	0x7f4
 1654 07b1 17       		.uleb128 0x17
 1655 07b2 737000   		.ascii	"sp\000"
 1656 07b5 01       		.byte	0x1
 1657 07b6 DE       		.byte	0xde
 1658 07b7 B3050000 		.4byte	0x5b3
 1659 07bb 30020000 		.4byte	.LLST15
 1660 07bf 24       		.uleb128 0x24
 1661 07c0 0E030000 		.4byte	.LASF78
 1662 07c4 01       		.byte	0x1
 1663 07c5 DE       		.byte	0xde
 1664 07c6 01010000 		.4byte	0x101
 1665 07ca 51020000 		.4byte	.LLST16
 1666 07ce 23       		.uleb128 0x23
 1667 07cf 6D736700 		.ascii	"msg\000"
 1668 07d3 01       		.byte	0x1
 1669 07d4 DF       		.byte	0xdf
 1670 07d5 EB000000 		.4byte	0xeb
 1671 07d9 01       		.uleb128 0x1
 1672 07da 50       		.byte	0x50
 1673 07db 22       		.uleb128 0x22
 1674 07dc 08000000 		.4byte	.LVL30
 1675 07e0 2B070000 		.4byte	0x72b
 1676 07e4 1F       		.uleb128 0x1f
 1677 07e5 01       		.uleb128 0x1
 1678 07e6 51       		.byte	0x51
 1679 07e7 03       		.uleb128 0x3
 1680 07e8 F3       		.byte	0xf3
 1681 07e9 01       		.uleb128 0x1
 1682 07ea 51       		.byte	0x51
 1683 07eb 1F       		.uleb128 0x1f
 1684 07ec 01       		.uleb128 0x1
 1685 07ed 50       		.byte	0x50
 1686 07ee 03       		.uleb128 0x3
 1687 07ef F3       		.byte	0xf3
 1688 07f0 01       		.uleb128 0x1
 1689 07f1 50       		.byte	0x50
 1690 07f2 00       		.byte	0
 1691 07f3 00       		.byte	0
 1692 07f4 27       		.uleb128 0x27
 1693 07f5 7E020000 		.4byte	.LASF80
 1694 07f9 01       		.byte	0x1
 1695 07fa 1601     		.2byte	0x116
 1696 07fc 00000000 		.4byte	.LFB14
 1697 0800 26000000 		.4byte	.LFE14-.LFB14
 1698 0804 01       		.uleb128 0x1
 1699 0805 9C       		.byte	0x9c
 1700 0806 56080000 		.4byte	0x856
 1701 080a 28       		.uleb128 0x28
 1702 080b 737000   		.ascii	"sp\000"
 1703 080e 01       		.byte	0x1
 1704 080f 1601     		.2byte	0x116
ARM GAS  C:\Users\jsyoon\AppData\Local\Temp\cc5Dm9fT.s 			page 31


 1705 0811 B3050000 		.4byte	0x5b3
 1706 0815 72020000 		.4byte	.LLST17
 1707 0819 25       		.uleb128 0x25
 1708 081a 60050000 		.4byte	0x560
 1709 081e 14000000 		.4byte	.LBB30
 1710 0822 30000000 		.4byte	.Ldebug_ranges0+0x30
 1711 0826 01       		.byte	0x1
 1712 0827 2001     		.2byte	0x120
 1713 0829 46080000 		.4byte	0x846
 1714 082d 1A       		.uleb128 0x1a
 1715 082e 70050000 		.4byte	0x570
 1716 0832 9E020000 		.4byte	.LLST18
 1717 0836 29       		.uleb128 0x29
 1718 0837 30000000 		.4byte	.Ldebug_ranges0+0x30
 1719 083b 1C       		.uleb128 0x1c
 1720 083c 7B050000 		.4byte	0x57b
 1721 0840 CA020000 		.4byte	.LLST19
 1722 0844 00       		.byte	0
 1723 0845 00       		.byte	0
 1724 0846 22       		.uleb128 0x22
 1725 0847 22000000 		.4byte	.LVL34
 1726 084b 6B0A0000 		.4byte	0xa6b
 1727 084f 1F       		.uleb128 0x1f
 1728 0850 01       		.uleb128 0x1
 1729 0851 51       		.byte	0x51
 1730 0852 01       		.uleb128 0x1
 1731 0853 30       		.byte	0x30
 1732 0854 00       		.byte	0
 1733 0855 00       		.byte	0
 1734 0856 27       		.uleb128 0x27
 1735 0857 13000000 		.4byte	.LASF81
 1736 085b 01       		.byte	0x1
 1737 085c 2F01     		.2byte	0x12f
 1738 085e 00000000 		.4byte	.LFB15
 1739 0862 1E000000 		.4byte	.LFE15-.LFB15
 1740 0866 01       		.uleb128 0x1
 1741 0867 9C       		.byte	0x9c
 1742 0868 C9080000 		.4byte	0x8c9
 1743 086c 28       		.uleb128 0x28
 1744 086d 737000   		.ascii	"sp\000"
 1745 0870 01       		.byte	0x1
 1746 0871 2F01     		.2byte	0x12f
 1747 0873 B3050000 		.4byte	0x5b3
 1748 0877 DD020000 		.4byte	.LLST20
 1749 087b 1B       		.uleb128 0x1b
 1750 087c 0C000000 		.4byte	.LBB34
 1751 0880 12000000 		.4byte	.LBE34-.LBB34
 1752 0884 2A       		.uleb128 0x2a
 1753 0885 747000   		.ascii	"tp\000"
 1754 0888 01       		.byte	0x1
 1755 0889 3B01     		.2byte	0x13b
 1756 088b 40020000 		.4byte	0x240
 1757 088f 01       		.uleb128 0x1
 1758 0890 53       		.byte	0x53
 1759 0891 25       		.uleb128 0x25
 1760 0892 60050000 		.4byte	0x560
 1761 0896 0C000000 		.4byte	.LBB35
ARM GAS  C:\Users\jsyoon\AppData\Local\Temp\cc5Dm9fT.s 			page 32


 1762 089a 48000000 		.4byte	.Ldebug_ranges0+0x48
 1763 089e 01       		.byte	0x1
 1764 089f 3B01     		.2byte	0x13b
 1765 08a1 BE080000 		.4byte	0x8be
 1766 08a5 1A       		.uleb128 0x1a
 1767 08a6 70050000 		.4byte	0x570
 1768 08aa 0A030000 		.4byte	.LLST21
 1769 08ae 29       		.uleb128 0x29
 1770 08af 48000000 		.4byte	.Ldebug_ranges0+0x48
 1771 08b3 1C       		.uleb128 0x1c
 1772 08b4 7B050000 		.4byte	0x57b
 1773 08b8 37030000 		.4byte	.LLST22
 1774 08bc 00       		.byte	0
 1775 08bd 00       		.byte	0
 1776 08be 2B       		.uleb128 0x2b
 1777 08bf 1E000000 		.4byte	.LVL39
 1778 08c3 240A0000 		.4byte	0xa24
 1779 08c7 00       		.byte	0
 1780 08c8 00       		.byte	0
 1781 08c9 27       		.uleb128 0x27
 1782 08ca 48000000 		.4byte	.LASF82
 1783 08ce 01       		.byte	0x1
 1784 08cf 4E01     		.2byte	0x14e
 1785 08d1 00000000 		.4byte	.LFB16
 1786 08d5 2E000000 		.4byte	.LFE16-.LFB16
 1787 08d9 01       		.uleb128 0x1
 1788 08da 9C       		.byte	0x9c
 1789 08db 37090000 		.4byte	0x937
 1790 08df 28       		.uleb128 0x28
 1791 08e0 737000   		.ascii	"sp\000"
 1792 08e3 01       		.byte	0x1
 1793 08e4 4E01     		.2byte	0x14e
 1794 08e6 B3050000 		.4byte	0x5b3
 1795 08ea 4A030000 		.4byte	.LLST23
 1796 08ee 28       		.uleb128 0x28
 1797 08ef 6E00     		.ascii	"n\000"
 1798 08f1 01       		.byte	0x1
 1799 08f2 4E01     		.2byte	0x14e
 1800 08f4 0C010000 		.4byte	0x10c
 1801 08f8 68030000 		.4byte	.LLST24
 1802 08fc 2C       		.uleb128 0x2c
 1803 08fd 60050000 		.4byte	0x560
 1804 0901 1A000000 		.4byte	.LBB39
 1805 0905 08000000 		.4byte	.LBE39-.LBB39
 1806 0909 01       		.byte	0x1
 1807 090a 5901     		.2byte	0x159
 1808 090c 2D090000 		.4byte	0x92d
 1809 0910 1A       		.uleb128 0x1a
 1810 0911 70050000 		.4byte	0x570
 1811 0915 A0030000 		.4byte	.LLST25
 1812 0919 1B       		.uleb128 0x1b
 1813 091a 1A000000 		.4byte	.LBB40
 1814 091e 08000000 		.4byte	.LBE40-.LBB40
 1815 0922 1C       		.uleb128 0x1c
 1816 0923 7B050000 		.4byte	0x57b
 1817 0927 B3030000 		.4byte	.LLST26
 1818 092b 00       		.byte	0
ARM GAS  C:\Users\jsyoon\AppData\Local\Temp\cc5Dm9fT.s 			page 33


 1819 092c 00       		.byte	0
 1820 092d 1D       		.uleb128 0x1d
 1821 092e 26000000 		.4byte	.LVL46
 1822 0932 240A0000 		.4byte	0xa24
 1823 0936 00       		.byte	0
 1824 0937 2D       		.uleb128 0x2d
 1825 0938 7A000000 		.4byte	.LASF83
 1826 093c 01       		.byte	0x1
 1827 093d 6E01     		.2byte	0x16e
 1828 093f EB000000 		.4byte	0xeb
 1829 0943 00000000 		.4byte	.LFB17
 1830 0947 60000000 		.4byte	.LFE17-.LFB17
 1831 094b 01       		.uleb128 0x1
 1832 094c 9C       		.byte	0x9c
 1833 094d 190A0000 		.4byte	0xa19
 1834 0951 28       		.uleb128 0x28
 1835 0952 73707300 		.ascii	"sps\000"
 1836 0956 01       		.byte	0x1
 1837 0957 6E01     		.2byte	0x16e
 1838 0959 B3050000 		.4byte	0x5b3
 1839 095d C6030000 		.4byte	.LLST27
 1840 0961 28       		.uleb128 0x28
 1841 0962 73707700 		.ascii	"spw\000"
 1842 0966 01       		.byte	0x1
 1843 0967 6E01     		.2byte	0x16e
 1844 0969 B3050000 		.4byte	0x5b3
 1845 096d 0B040000 		.4byte	.LLST28
 1846 0971 2E       		.uleb128 0x2e
 1847 0972 6D736700 		.ascii	"msg\000"
 1848 0976 01       		.byte	0x1
 1849 0977 6F01     		.2byte	0x16f
 1850 0979 EB000000 		.4byte	0xeb
 1851 097d 45040000 		.4byte	.LLST29
 1852 0981 2F       		.uleb128 0x2f
 1853 0982 28000000 		.4byte	.LBB41
 1854 0986 18000000 		.4byte	.LBE41-.LBB41
 1855 098a D5090000 		.4byte	0x9d5
 1856 098e 2E       		.uleb128 0x2e
 1857 098f 63747000 		.ascii	"ctp\000"
 1858 0993 01       		.byte	0x1
 1859 0994 7F01     		.2byte	0x17f
 1860 0996 40020000 		.4byte	0x240
 1861 099a 6F040000 		.4byte	.LLST30
 1862 099e 25       		.uleb128 0x25
 1863 099f 3E050000 		.4byte	0x53e
 1864 09a3 2A000000 		.4byte	.LBB42
 1865 09a7 60000000 		.4byte	.Ldebug_ranges0+0x60
 1866 09ab 01       		.byte	0x1
 1867 09ac 8001     		.2byte	0x180
 1868 09ae C5090000 		.4byte	0x9c5
 1869 09b2 1A       		.uleb128 0x1a
 1870 09b3 54050000 		.4byte	0x554
 1871 09b7 82040000 		.4byte	.LLST31
 1872 09bb 1A       		.uleb128 0x1a
 1873 09bc 4A050000 		.4byte	0x54a
 1874 09c0 6F040000 		.4byte	.LLST30
 1875 09c4 00       		.byte	0
ARM GAS  C:\Users\jsyoon\AppData\Local\Temp\cc5Dm9fT.s 			page 34


 1876 09c5 22       		.uleb128 0x22
 1877 09c6 3E000000 		.4byte	.LVL56
 1878 09ca 400A0000 		.4byte	0xa40
 1879 09ce 1F       		.uleb128 0x1f
 1880 09cf 01       		.uleb128 0x1
 1881 09d0 50       		.byte	0x50
 1882 09d1 01       		.uleb128 0x1
 1883 09d2 33       		.byte	0x33
 1884 09d3 00       		.byte	0
 1885 09d4 00       		.byte	0
 1886 09d5 2C       		.uleb128 0x2c
 1887 09d6 60050000 		.4byte	0x560
 1888 09da 46000000 		.4byte	.LBB46
 1889 09de 08000000 		.4byte	.LBE46-.LBB46
 1890 09e2 01       		.byte	0x1
 1891 09e3 7D01     		.2byte	0x17d
 1892 09e5 060A0000 		.4byte	0xa06
 1893 09e9 1A       		.uleb128 0x1a
 1894 09ea 70050000 		.4byte	0x570
 1895 09ee 95040000 		.4byte	.LLST33
 1896 09f2 1B       		.uleb128 0x1b
 1897 09f3 46000000 		.4byte	.LBB47
 1898 09f7 08000000 		.4byte	.LBE47-.LBB47
 1899 09fb 1C       		.uleb128 0x1c
 1900 09fc 7B050000 		.4byte	0x57b
 1901 0a00 C1040000 		.4byte	.LLST34
 1902 0a04 00       		.byte	0
 1903 0a05 00       		.byte	0
 1904 0a06 1D       		.uleb128 0x1d
 1905 0a07 20000000 		.4byte	.LVL52
 1906 0a0b 390A0000 		.4byte	0xa39
 1907 0a0f 1D       		.uleb128 0x1d
 1908 0a10 54000000 		.4byte	.LVL60
 1909 0a14 240A0000 		.4byte	0xa24
 1910 0a18 00       		.byte	0
 1911 0a19 30       		.uleb128 0x30
 1912 0a1a B3040000 		.4byte	.LASF90
 1913 0a1e 09       		.byte	0x9
 1914 0a1f 6F       		.byte	0x6f
 1915 0a20 48040000 		.4byte	0x448
 1916 0a24 31       		.uleb128 0x31
 1917 0a25 1E040000 		.4byte	.LASF84
 1918 0a29 09       		.byte	0x9
 1919 0a2a 90       		.byte	0x90
 1920 0a2b 40020000 		.4byte	0x240
 1921 0a2f 390A0000 		.4byte	0xa39
 1922 0a33 32       		.uleb128 0x32
 1923 0a34 40020000 		.4byte	0x240
 1924 0a38 00       		.byte	0
 1925 0a39 33       		.uleb128 0x33
 1926 0a3a 23020000 		.4byte	.LASF91
 1927 0a3e 09       		.byte	0x9
 1928 0a3f 9C       		.byte	0x9c
 1929 0a40 34       		.uleb128 0x34
 1930 0a41 AD030000 		.4byte	.LASF92
 1931 0a45 09       		.byte	0x9
 1932 0a46 93       		.byte	0x93
ARM GAS  C:\Users\jsyoon\AppData\Local\Temp\cc5Dm9fT.s 			page 35


 1933 0a47 510A0000 		.4byte	0xa51
 1934 0a4b 32       		.uleb128 0x32
 1935 0a4c BF000000 		.4byte	0xbf
 1936 0a50 00       		.byte	0
 1937 0a51 31       		.uleb128 0x31
 1938 0a52 CF040000 		.4byte	.LASF85
 1939 0a56 09       		.byte	0x9
 1940 0a57 96       		.byte	0x96
 1941 0a58 EB000000 		.4byte	0xeb
 1942 0a5c 6B0A0000 		.4byte	0xa6b
 1943 0a60 32       		.uleb128 0x32
 1944 0a61 BF000000 		.4byte	0xbf
 1945 0a65 32       		.uleb128 0x32
 1946 0a66 01010000 		.4byte	0x101
 1947 0a6a 00       		.byte	0
 1948 0a6b 35       		.uleb128 0x35
 1949 0a6c 7F040000 		.4byte	.LASF93
 1950 0a70 09       		.byte	0x9
 1951 0a71 99       		.byte	0x99
 1952 0a72 32       		.uleb128 0x32
 1953 0a73 40020000 		.4byte	0x240
 1954 0a77 32       		.uleb128 0x32
 1955 0a78 EB000000 		.4byte	0xeb
 1956 0a7c 00       		.byte	0
 1957 0a7d 00       		.byte	0
 1958              		.section	.debug_abbrev,"",%progbits
 1959              	.Ldebug_abbrev0:
 1960 0000 01       		.uleb128 0x1
 1961 0001 11       		.uleb128 0x11
 1962 0002 01       		.byte	0x1
 1963 0003 25       		.uleb128 0x25
 1964 0004 0E       		.uleb128 0xe
 1965 0005 13       		.uleb128 0x13
 1966 0006 0B       		.uleb128 0xb
 1967 0007 03       		.uleb128 0x3
 1968 0008 0E       		.uleb128 0xe
 1969 0009 1B       		.uleb128 0x1b
 1970 000a 0E       		.uleb128 0xe
 1971 000b 55       		.uleb128 0x55
 1972 000c 17       		.uleb128 0x17
 1973 000d 11       		.uleb128 0x11
 1974 000e 01       		.uleb128 0x1
 1975 000f 10       		.uleb128 0x10
 1976 0010 17       		.uleb128 0x17
 1977 0011 00       		.byte	0
 1978 0012 00       		.byte	0
 1979 0013 02       		.uleb128 0x2
 1980 0014 24       		.uleb128 0x24
 1981 0015 00       		.byte	0
 1982 0016 0B       		.uleb128 0xb
 1983 0017 0B       		.uleb128 0xb
 1984 0018 3E       		.uleb128 0x3e
 1985 0019 0B       		.uleb128 0xb
 1986 001a 03       		.uleb128 0x3
 1987 001b 08       		.uleb128 0x8
 1988 001c 00       		.byte	0
 1989 001d 00       		.byte	0
ARM GAS  C:\Users\jsyoon\AppData\Local\Temp\cc5Dm9fT.s 			page 36


 1990 001e 03       		.uleb128 0x3
 1991 001f 24       		.uleb128 0x24
 1992 0020 00       		.byte	0
 1993 0021 0B       		.uleb128 0xb
 1994 0022 0B       		.uleb128 0xb
 1995 0023 3E       		.uleb128 0x3e
 1996 0024 0B       		.uleb128 0xb
 1997 0025 03       		.uleb128 0x3
 1998 0026 0E       		.uleb128 0xe
 1999 0027 00       		.byte	0
 2000 0028 00       		.byte	0
 2001 0029 04       		.uleb128 0x4
 2002 002a 16       		.uleb128 0x16
 2003 002b 00       		.byte	0
 2004 002c 03       		.uleb128 0x3
 2005 002d 0E       		.uleb128 0xe
 2006 002e 3A       		.uleb128 0x3a
 2007 002f 0B       		.uleb128 0xb
 2008 0030 3B       		.uleb128 0x3b
 2009 0031 0B       		.uleb128 0xb
 2010 0032 49       		.uleb128 0x49
 2011 0033 13       		.uleb128 0x13
 2012 0034 00       		.byte	0
 2013 0035 00       		.byte	0
 2014 0036 05       		.uleb128 0x5
 2015 0037 13       		.uleb128 0x13
 2016 0038 01       		.byte	0x1
 2017 0039 03       		.uleb128 0x3
 2018 003a 0E       		.uleb128 0xe
 2019 003b 0B       		.uleb128 0xb
 2020 003c 0B       		.uleb128 0xb
 2021 003d 3A       		.uleb128 0x3a
 2022 003e 0B       		.uleb128 0xb
 2023 003f 3B       		.uleb128 0x3b
 2024 0040 0B       		.uleb128 0xb
 2025 0041 01       		.uleb128 0x1
 2026 0042 13       		.uleb128 0x13
 2027 0043 00       		.byte	0
 2028 0044 00       		.byte	0
 2029 0045 06       		.uleb128 0x6
 2030 0046 0D       		.uleb128 0xd
 2031 0047 00       		.byte	0
 2032 0048 03       		.uleb128 0x3
 2033 0049 0E       		.uleb128 0xe
 2034 004a 3A       		.uleb128 0x3a
 2035 004b 0B       		.uleb128 0xb
 2036 004c 3B       		.uleb128 0x3b
 2037 004d 0B       		.uleb128 0xb
 2038 004e 49       		.uleb128 0x49
 2039 004f 13       		.uleb128 0x13
 2040 0050 38       		.uleb128 0x38
 2041 0051 0B       		.uleb128 0xb
 2042 0052 00       		.byte	0
 2043 0053 00       		.byte	0
 2044 0054 07       		.uleb128 0x7
 2045 0055 0D       		.uleb128 0xd
 2046 0056 00       		.byte	0
ARM GAS  C:\Users\jsyoon\AppData\Local\Temp\cc5Dm9fT.s 			page 37


 2047 0057 03       		.uleb128 0x3
 2048 0058 08       		.uleb128 0x8
 2049 0059 3A       		.uleb128 0x3a
 2050 005a 0B       		.uleb128 0xb
 2051 005b 3B       		.uleb128 0x3b
 2052 005c 0B       		.uleb128 0xb
 2053 005d 49       		.uleb128 0x49
 2054 005e 13       		.uleb128 0x13
 2055 005f 38       		.uleb128 0x38
 2056 0060 0B       		.uleb128 0xb
 2057 0061 00       		.byte	0
 2058 0062 00       		.byte	0
 2059 0063 08       		.uleb128 0x8
 2060 0064 13       		.uleb128 0x13
 2061 0065 01       		.byte	0x1
 2062 0066 0B       		.uleb128 0xb
 2063 0067 0B       		.uleb128 0xb
 2064 0068 3A       		.uleb128 0x3a
 2065 0069 0B       		.uleb128 0xb
 2066 006a 3B       		.uleb128 0x3b
 2067 006b 0B       		.uleb128 0xb
 2068 006c 01       		.uleb128 0x1
 2069 006d 13       		.uleb128 0x13
 2070 006e 00       		.byte	0
 2071 006f 00       		.byte	0
 2072 0070 09       		.uleb128 0x9
 2073 0071 0F       		.uleb128 0xf
 2074 0072 00       		.byte	0
 2075 0073 0B       		.uleb128 0xb
 2076 0074 0B       		.uleb128 0xb
 2077 0075 49       		.uleb128 0x49
 2078 0076 13       		.uleb128 0x13
 2079 0077 00       		.byte	0
 2080 0078 00       		.byte	0
 2081 0079 0A       		.uleb128 0xa
 2082 007a 0F       		.uleb128 0xf
 2083 007b 00       		.byte	0
 2084 007c 0B       		.uleb128 0xb
 2085 007d 0B       		.uleb128 0xb
 2086 007e 00       		.byte	0
 2087 007f 00       		.byte	0
 2088 0080 0B       		.uleb128 0xb
 2089 0081 13       		.uleb128 0x13
 2090 0082 01       		.byte	0x1
 2091 0083 03       		.uleb128 0x3
 2092 0084 0E       		.uleb128 0xe
 2093 0085 0B       		.uleb128 0xb
 2094 0086 0B       		.uleb128 0xb
 2095 0087 3A       		.uleb128 0x3a
 2096 0088 0B       		.uleb128 0xb
 2097 0089 3B       		.uleb128 0x3b
 2098 008a 05       		.uleb128 0x5
 2099 008b 01       		.uleb128 0x1
 2100 008c 13       		.uleb128 0x13
 2101 008d 00       		.byte	0
 2102 008e 00       		.byte	0
 2103 008f 0C       		.uleb128 0xc
ARM GAS  C:\Users\jsyoon\AppData\Local\Temp\cc5Dm9fT.s 			page 38


 2104 0090 0D       		.uleb128 0xd
 2105 0091 00       		.byte	0
 2106 0092 03       		.uleb128 0x3
 2107 0093 08       		.uleb128 0x8
 2108 0094 3A       		.uleb128 0x3a
 2109 0095 0B       		.uleb128 0xb
 2110 0096 3B       		.uleb128 0x3b
 2111 0097 05       		.uleb128 0x5
 2112 0098 49       		.uleb128 0x49
 2113 0099 13       		.uleb128 0x13
 2114 009a 38       		.uleb128 0x38
 2115 009b 0B       		.uleb128 0xb
 2116 009c 00       		.byte	0
 2117 009d 00       		.byte	0
 2118 009e 0D       		.uleb128 0xd
 2119 009f 35       		.uleb128 0x35
 2120 00a0 00       		.byte	0
 2121 00a1 49       		.uleb128 0x49
 2122 00a2 13       		.uleb128 0x13
 2123 00a3 00       		.byte	0
 2124 00a4 00       		.byte	0
 2125 00a5 0E       		.uleb128 0xe
 2126 00a6 17       		.uleb128 0x17
 2127 00a7 01       		.byte	0x1
 2128 00a8 0B       		.uleb128 0xb
 2129 00a9 0B       		.uleb128 0xb
 2130 00aa 3A       		.uleb128 0x3a
 2131 00ab 0B       		.uleb128 0xb
 2132 00ac 3B       		.uleb128 0x3b
 2133 00ad 0B       		.uleb128 0xb
 2134 00ae 01       		.uleb128 0x1
 2135 00af 13       		.uleb128 0x13
 2136 00b0 00       		.byte	0
 2137 00b1 00       		.byte	0
 2138 00b2 0F       		.uleb128 0xf
 2139 00b3 0D       		.uleb128 0xd
 2140 00b4 00       		.byte	0
 2141 00b5 03       		.uleb128 0x3
 2142 00b6 0E       		.uleb128 0xe
 2143 00b7 3A       		.uleb128 0x3a
 2144 00b8 0B       		.uleb128 0xb
 2145 00b9 3B       		.uleb128 0x3b
 2146 00ba 0B       		.uleb128 0xb
 2147 00bb 49       		.uleb128 0x49
 2148 00bc 13       		.uleb128 0x13
 2149 00bd 00       		.byte	0
 2150 00be 00       		.byte	0
 2151 00bf 10       		.uleb128 0x10
 2152 00c0 26       		.uleb128 0x26
 2153 00c1 00       		.byte	0
 2154 00c2 49       		.uleb128 0x49
 2155 00c3 13       		.uleb128 0x13
 2156 00c4 00       		.byte	0
 2157 00c5 00       		.byte	0
 2158 00c6 11       		.uleb128 0x11
 2159 00c7 2E       		.uleb128 0x2e
 2160 00c8 01       		.byte	0x1
ARM GAS  C:\Users\jsyoon\AppData\Local\Temp\cc5Dm9fT.s 			page 39


 2161 00c9 03       		.uleb128 0x3
 2162 00ca 0E       		.uleb128 0xe
 2163 00cb 3A       		.uleb128 0x3a
 2164 00cc 0B       		.uleb128 0xb
 2165 00cd 3B       		.uleb128 0x3b
 2166 00ce 0B       		.uleb128 0xb
 2167 00cf 27       		.uleb128 0x27
 2168 00d0 19       		.uleb128 0x19
 2169 00d1 49       		.uleb128 0x49
 2170 00d2 13       		.uleb128 0x13
 2171 00d3 20       		.uleb128 0x20
 2172 00d4 0B       		.uleb128 0xb
 2173 00d5 01       		.uleb128 0x1
 2174 00d6 13       		.uleb128 0x13
 2175 00d7 00       		.byte	0
 2176 00d8 00       		.byte	0
 2177 00d9 12       		.uleb128 0x12
 2178 00da 05       		.uleb128 0x5
 2179 00db 00       		.byte	0
 2180 00dc 03       		.uleb128 0x3
 2181 00dd 08       		.uleb128 0x8
 2182 00de 3A       		.uleb128 0x3a
 2183 00df 0B       		.uleb128 0xb
 2184 00e0 3B       		.uleb128 0x3b
 2185 00e1 0B       		.uleb128 0xb
 2186 00e2 49       		.uleb128 0x49
 2187 00e3 13       		.uleb128 0x13
 2188 00e4 00       		.byte	0
 2189 00e5 00       		.byte	0
 2190 00e6 13       		.uleb128 0x13
 2191 00e7 34       		.uleb128 0x34
 2192 00e8 00       		.byte	0
 2193 00e9 03       		.uleb128 0x3
 2194 00ea 08       		.uleb128 0x8
 2195 00eb 3A       		.uleb128 0x3a
 2196 00ec 0B       		.uleb128 0xb
 2197 00ed 3B       		.uleb128 0x3b
 2198 00ee 0B       		.uleb128 0xb
 2199 00ef 49       		.uleb128 0x49
 2200 00f0 13       		.uleb128 0x13
 2201 00f1 00       		.byte	0
 2202 00f2 00       		.byte	0
 2203 00f3 14       		.uleb128 0x14
 2204 00f4 2E       		.uleb128 0x2e
 2205 00f5 01       		.byte	0x1
 2206 00f6 03       		.uleb128 0x3
 2207 00f7 0E       		.uleb128 0xe
 2208 00f8 3A       		.uleb128 0x3a
 2209 00f9 0B       		.uleb128 0xb
 2210 00fa 3B       		.uleb128 0x3b
 2211 00fb 0B       		.uleb128 0xb
 2212 00fc 27       		.uleb128 0x27
 2213 00fd 19       		.uleb128 0x19
 2214 00fe 20       		.uleb128 0x20
 2215 00ff 0B       		.uleb128 0xb
 2216 0100 01       		.uleb128 0x1
 2217 0101 13       		.uleb128 0x13
ARM GAS  C:\Users\jsyoon\AppData\Local\Temp\cc5Dm9fT.s 			page 40


 2218 0102 00       		.byte	0
 2219 0103 00       		.byte	0
 2220 0104 15       		.uleb128 0x15
 2221 0105 2E       		.uleb128 0x2e
 2222 0106 01       		.byte	0x1
 2223 0107 3F       		.uleb128 0x3f
 2224 0108 19       		.uleb128 0x19
 2225 0109 03       		.uleb128 0x3
 2226 010a 0E       		.uleb128 0xe
 2227 010b 3A       		.uleb128 0x3a
 2228 010c 0B       		.uleb128 0xb
 2229 010d 3B       		.uleb128 0x3b
 2230 010e 0B       		.uleb128 0xb
 2231 010f 27       		.uleb128 0x27
 2232 0110 19       		.uleb128 0x19
 2233 0111 11       		.uleb128 0x11
 2234 0112 01       		.uleb128 0x1
 2235 0113 12       		.uleb128 0x12
 2236 0114 06       		.uleb128 0x6
 2237 0115 40       		.uleb128 0x40
 2238 0116 18       		.uleb128 0x18
 2239 0117 9742     		.uleb128 0x2117
 2240 0119 19       		.uleb128 0x19
 2241 011a 01       		.uleb128 0x1
 2242 011b 13       		.uleb128 0x13
 2243 011c 00       		.byte	0
 2244 011d 00       		.byte	0
 2245 011e 16       		.uleb128 0x16
 2246 011f 05       		.uleb128 0x5
 2247 0120 00       		.byte	0
 2248 0121 03       		.uleb128 0x3
 2249 0122 08       		.uleb128 0x8
 2250 0123 3A       		.uleb128 0x3a
 2251 0124 0B       		.uleb128 0xb
 2252 0125 3B       		.uleb128 0x3b
 2253 0126 0B       		.uleb128 0xb
 2254 0127 49       		.uleb128 0x49
 2255 0128 13       		.uleb128 0x13
 2256 0129 02       		.uleb128 0x2
 2257 012a 18       		.uleb128 0x18
 2258 012b 00       		.byte	0
 2259 012c 00       		.byte	0
 2260 012d 17       		.uleb128 0x17
 2261 012e 05       		.uleb128 0x5
 2262 012f 00       		.byte	0
 2263 0130 03       		.uleb128 0x3
 2264 0131 08       		.uleb128 0x8
 2265 0132 3A       		.uleb128 0x3a
 2266 0133 0B       		.uleb128 0xb
 2267 0134 3B       		.uleb128 0x3b
 2268 0135 0B       		.uleb128 0xb
 2269 0136 49       		.uleb128 0x49
 2270 0137 13       		.uleb128 0x13
 2271 0138 02       		.uleb128 0x2
 2272 0139 17       		.uleb128 0x17
 2273 013a 00       		.byte	0
 2274 013b 00       		.byte	0
ARM GAS  C:\Users\jsyoon\AppData\Local\Temp\cc5Dm9fT.s 			page 41


 2275 013c 18       		.uleb128 0x18
 2276 013d 34       		.uleb128 0x34
 2277 013e 00       		.byte	0
 2278 013f 03       		.uleb128 0x3
 2279 0140 08       		.uleb128 0x8
 2280 0141 3A       		.uleb128 0x3a
 2281 0142 0B       		.uleb128 0xb
 2282 0143 3B       		.uleb128 0x3b
 2283 0144 0B       		.uleb128 0xb
 2284 0145 49       		.uleb128 0x49
 2285 0146 13       		.uleb128 0x13
 2286 0147 02       		.uleb128 0x2
 2287 0148 17       		.uleb128 0x17
 2288 0149 00       		.byte	0
 2289 014a 00       		.byte	0
 2290 014b 19       		.uleb128 0x19
 2291 014c 1D       		.uleb128 0x1d
 2292 014d 01       		.byte	0x1
 2293 014e 31       		.uleb128 0x31
 2294 014f 13       		.uleb128 0x13
 2295 0150 11       		.uleb128 0x11
 2296 0151 01       		.uleb128 0x1
 2297 0152 12       		.uleb128 0x12
 2298 0153 06       		.uleb128 0x6
 2299 0154 58       		.uleb128 0x58
 2300 0155 0B       		.uleb128 0xb
 2301 0156 59       		.uleb128 0x59
 2302 0157 0B       		.uleb128 0xb
 2303 0158 01       		.uleb128 0x1
 2304 0159 13       		.uleb128 0x13
 2305 015a 00       		.byte	0
 2306 015b 00       		.byte	0
 2307 015c 1A       		.uleb128 0x1a
 2308 015d 05       		.uleb128 0x5
 2309 015e 00       		.byte	0
 2310 015f 31       		.uleb128 0x31
 2311 0160 13       		.uleb128 0x13
 2312 0161 02       		.uleb128 0x2
 2313 0162 17       		.uleb128 0x17
 2314 0163 00       		.byte	0
 2315 0164 00       		.byte	0
 2316 0165 1B       		.uleb128 0x1b
 2317 0166 0B       		.uleb128 0xb
 2318 0167 01       		.byte	0x1
 2319 0168 11       		.uleb128 0x11
 2320 0169 01       		.uleb128 0x1
 2321 016a 12       		.uleb128 0x12
 2322 016b 06       		.uleb128 0x6
 2323 016c 00       		.byte	0
 2324 016d 00       		.byte	0
 2325 016e 1C       		.uleb128 0x1c
 2326 016f 34       		.uleb128 0x34
 2327 0170 00       		.byte	0
 2328 0171 31       		.uleb128 0x31
 2329 0172 13       		.uleb128 0x13
 2330 0173 02       		.uleb128 0x2
 2331 0174 17       		.uleb128 0x17
ARM GAS  C:\Users\jsyoon\AppData\Local\Temp\cc5Dm9fT.s 			page 42


 2332 0175 00       		.byte	0
 2333 0176 00       		.byte	0
 2334 0177 1D       		.uleb128 0x1d
 2335 0178 898201   		.uleb128 0x4109
 2336 017b 00       		.byte	0
 2337 017c 11       		.uleb128 0x11
 2338 017d 01       		.uleb128 0x1
 2339 017e 31       		.uleb128 0x31
 2340 017f 13       		.uleb128 0x13
 2341 0180 00       		.byte	0
 2342 0181 00       		.byte	0
 2343 0182 1E       		.uleb128 0x1e
 2344 0183 898201   		.uleb128 0x4109
 2345 0186 01       		.byte	0x1
 2346 0187 11       		.uleb128 0x11
 2347 0188 01       		.uleb128 0x1
 2348 0189 31       		.uleb128 0x31
 2349 018a 13       		.uleb128 0x13
 2350 018b 01       		.uleb128 0x1
 2351 018c 13       		.uleb128 0x13
 2352 018d 00       		.byte	0
 2353 018e 00       		.byte	0
 2354 018f 1F       		.uleb128 0x1f
 2355 0190 8A8201   		.uleb128 0x410a
 2356 0193 00       		.byte	0
 2357 0194 02       		.uleb128 0x2
 2358 0195 18       		.uleb128 0x18
 2359 0196 9142     		.uleb128 0x2111
 2360 0198 18       		.uleb128 0x18
 2361 0199 00       		.byte	0
 2362 019a 00       		.byte	0
 2363 019b 20       		.uleb128 0x20
 2364 019c 2E       		.uleb128 0x2e
 2365 019d 01       		.byte	0x1
 2366 019e 3F       		.uleb128 0x3f
 2367 019f 19       		.uleb128 0x19
 2368 01a0 03       		.uleb128 0x3
 2369 01a1 0E       		.uleb128 0xe
 2370 01a2 3A       		.uleb128 0x3a
 2371 01a3 0B       		.uleb128 0xb
 2372 01a4 3B       		.uleb128 0x3b
 2373 01a5 0B       		.uleb128 0xb
 2374 01a6 27       		.uleb128 0x27
 2375 01a7 19       		.uleb128 0x19
 2376 01a8 49       		.uleb128 0x49
 2377 01a9 13       		.uleb128 0x13
 2378 01aa 11       		.uleb128 0x11
 2379 01ab 01       		.uleb128 0x1
 2380 01ac 12       		.uleb128 0x12
 2381 01ad 06       		.uleb128 0x6
 2382 01ae 40       		.uleb128 0x40
 2383 01af 18       		.uleb128 0x18
 2384 01b0 9742     		.uleb128 0x2117
 2385 01b2 19       		.uleb128 0x19
 2386 01b3 01       		.uleb128 0x1
 2387 01b4 13       		.uleb128 0x13
 2388 01b5 00       		.byte	0
ARM GAS  C:\Users\jsyoon\AppData\Local\Temp\cc5Dm9fT.s 			page 43


 2389 01b6 00       		.byte	0
 2390 01b7 21       		.uleb128 0x21
 2391 01b8 1D       		.uleb128 0x1d
 2392 01b9 01       		.byte	0x1
 2393 01ba 31       		.uleb128 0x31
 2394 01bb 13       		.uleb128 0x13
 2395 01bc 52       		.uleb128 0x52
 2396 01bd 01       		.uleb128 0x1
 2397 01be 55       		.uleb128 0x55
 2398 01bf 17       		.uleb128 0x17
 2399 01c0 58       		.uleb128 0x58
 2400 01c1 0B       		.uleb128 0xb
 2401 01c2 59       		.uleb128 0x59
 2402 01c3 0B       		.uleb128 0xb
 2403 01c4 01       		.uleb128 0x1
 2404 01c5 13       		.uleb128 0x13
 2405 01c6 00       		.byte	0
 2406 01c7 00       		.byte	0
 2407 01c8 22       		.uleb128 0x22
 2408 01c9 898201   		.uleb128 0x4109
 2409 01cc 01       		.byte	0x1
 2410 01cd 11       		.uleb128 0x11
 2411 01ce 01       		.uleb128 0x1
 2412 01cf 31       		.uleb128 0x31
 2413 01d0 13       		.uleb128 0x13
 2414 01d1 00       		.byte	0
 2415 01d2 00       		.byte	0
 2416 01d3 23       		.uleb128 0x23
 2417 01d4 34       		.uleb128 0x34
 2418 01d5 00       		.byte	0
 2419 01d6 03       		.uleb128 0x3
 2420 01d7 08       		.uleb128 0x8
 2421 01d8 3A       		.uleb128 0x3a
 2422 01d9 0B       		.uleb128 0xb
 2423 01da 3B       		.uleb128 0x3b
 2424 01db 0B       		.uleb128 0xb
 2425 01dc 49       		.uleb128 0x49
 2426 01dd 13       		.uleb128 0x13
 2427 01de 02       		.uleb128 0x2
 2428 01df 18       		.uleb128 0x18
 2429 01e0 00       		.byte	0
 2430 01e1 00       		.byte	0
 2431 01e2 24       		.uleb128 0x24
 2432 01e3 05       		.uleb128 0x5
 2433 01e4 00       		.byte	0
 2434 01e5 03       		.uleb128 0x3
 2435 01e6 0E       		.uleb128 0xe
 2436 01e7 3A       		.uleb128 0x3a
 2437 01e8 0B       		.uleb128 0xb
 2438 01e9 3B       		.uleb128 0x3b
 2439 01ea 0B       		.uleb128 0xb
 2440 01eb 49       		.uleb128 0x49
 2441 01ec 13       		.uleb128 0x13
 2442 01ed 02       		.uleb128 0x2
 2443 01ee 17       		.uleb128 0x17
 2444 01ef 00       		.byte	0
 2445 01f0 00       		.byte	0
ARM GAS  C:\Users\jsyoon\AppData\Local\Temp\cc5Dm9fT.s 			page 44


 2446 01f1 25       		.uleb128 0x25
 2447 01f2 1D       		.uleb128 0x1d
 2448 01f3 01       		.byte	0x1
 2449 01f4 31       		.uleb128 0x31
 2450 01f5 13       		.uleb128 0x13
 2451 01f6 52       		.uleb128 0x52
 2452 01f7 01       		.uleb128 0x1
 2453 01f8 55       		.uleb128 0x55
 2454 01f9 17       		.uleb128 0x17
 2455 01fa 58       		.uleb128 0x58
 2456 01fb 0B       		.uleb128 0xb
 2457 01fc 59       		.uleb128 0x59
 2458 01fd 05       		.uleb128 0x5
 2459 01fe 01       		.uleb128 0x1
 2460 01ff 13       		.uleb128 0x13
 2461 0200 00       		.byte	0
 2462 0201 00       		.byte	0
 2463 0202 26       		.uleb128 0x26
 2464 0203 898201   		.uleb128 0x4109
 2465 0206 01       		.byte	0x1
 2466 0207 11       		.uleb128 0x11
 2467 0208 01       		.uleb128 0x1
 2468 0209 9542     		.uleb128 0x2115
 2469 020b 19       		.uleb128 0x19
 2470 020c 31       		.uleb128 0x31
 2471 020d 13       		.uleb128 0x13
 2472 020e 00       		.byte	0
 2473 020f 00       		.byte	0
 2474 0210 27       		.uleb128 0x27
 2475 0211 2E       		.uleb128 0x2e
 2476 0212 01       		.byte	0x1
 2477 0213 3F       		.uleb128 0x3f
 2478 0214 19       		.uleb128 0x19
 2479 0215 03       		.uleb128 0x3
 2480 0216 0E       		.uleb128 0xe
 2481 0217 3A       		.uleb128 0x3a
 2482 0218 0B       		.uleb128 0xb
 2483 0219 3B       		.uleb128 0x3b
 2484 021a 05       		.uleb128 0x5
 2485 021b 27       		.uleb128 0x27
 2486 021c 19       		.uleb128 0x19
 2487 021d 11       		.uleb128 0x11
 2488 021e 01       		.uleb128 0x1
 2489 021f 12       		.uleb128 0x12
 2490 0220 06       		.uleb128 0x6
 2491 0221 40       		.uleb128 0x40
 2492 0222 18       		.uleb128 0x18
 2493 0223 9742     		.uleb128 0x2117
 2494 0225 19       		.uleb128 0x19
 2495 0226 01       		.uleb128 0x1
 2496 0227 13       		.uleb128 0x13
 2497 0228 00       		.byte	0
 2498 0229 00       		.byte	0
 2499 022a 28       		.uleb128 0x28
 2500 022b 05       		.uleb128 0x5
 2501 022c 00       		.byte	0
 2502 022d 03       		.uleb128 0x3
ARM GAS  C:\Users\jsyoon\AppData\Local\Temp\cc5Dm9fT.s 			page 45


 2503 022e 08       		.uleb128 0x8
 2504 022f 3A       		.uleb128 0x3a
 2505 0230 0B       		.uleb128 0xb
 2506 0231 3B       		.uleb128 0x3b
 2507 0232 05       		.uleb128 0x5
 2508 0233 49       		.uleb128 0x49
 2509 0234 13       		.uleb128 0x13
 2510 0235 02       		.uleb128 0x2
 2511 0236 17       		.uleb128 0x17
 2512 0237 00       		.byte	0
 2513 0238 00       		.byte	0
 2514 0239 29       		.uleb128 0x29
 2515 023a 0B       		.uleb128 0xb
 2516 023b 01       		.byte	0x1
 2517 023c 55       		.uleb128 0x55
 2518 023d 17       		.uleb128 0x17
 2519 023e 00       		.byte	0
 2520 023f 00       		.byte	0
 2521 0240 2A       		.uleb128 0x2a
 2522 0241 34       		.uleb128 0x34
 2523 0242 00       		.byte	0
 2524 0243 03       		.uleb128 0x3
 2525 0244 08       		.uleb128 0x8
 2526 0245 3A       		.uleb128 0x3a
 2527 0246 0B       		.uleb128 0xb
 2528 0247 3B       		.uleb128 0x3b
 2529 0248 05       		.uleb128 0x5
 2530 0249 49       		.uleb128 0x49
 2531 024a 13       		.uleb128 0x13
 2532 024b 02       		.uleb128 0x2
 2533 024c 18       		.uleb128 0x18
 2534 024d 00       		.byte	0
 2535 024e 00       		.byte	0
 2536 024f 2B       		.uleb128 0x2b
 2537 0250 898201   		.uleb128 0x4109
 2538 0253 00       		.byte	0
 2539 0254 11       		.uleb128 0x11
 2540 0255 01       		.uleb128 0x1
 2541 0256 9542     		.uleb128 0x2115
 2542 0258 19       		.uleb128 0x19
 2543 0259 31       		.uleb128 0x31
 2544 025a 13       		.uleb128 0x13
 2545 025b 00       		.byte	0
 2546 025c 00       		.byte	0
 2547 025d 2C       		.uleb128 0x2c
 2548 025e 1D       		.uleb128 0x1d
 2549 025f 01       		.byte	0x1
 2550 0260 31       		.uleb128 0x31
 2551 0261 13       		.uleb128 0x13
 2552 0262 11       		.uleb128 0x11
 2553 0263 01       		.uleb128 0x1
 2554 0264 12       		.uleb128 0x12
 2555 0265 06       		.uleb128 0x6
 2556 0266 58       		.uleb128 0x58
 2557 0267 0B       		.uleb128 0xb
 2558 0268 59       		.uleb128 0x59
 2559 0269 05       		.uleb128 0x5
ARM GAS  C:\Users\jsyoon\AppData\Local\Temp\cc5Dm9fT.s 			page 46


 2560 026a 01       		.uleb128 0x1
 2561 026b 13       		.uleb128 0x13
 2562 026c 00       		.byte	0
 2563 026d 00       		.byte	0
 2564 026e 2D       		.uleb128 0x2d
 2565 026f 2E       		.uleb128 0x2e
 2566 0270 01       		.byte	0x1
 2567 0271 3F       		.uleb128 0x3f
 2568 0272 19       		.uleb128 0x19
 2569 0273 03       		.uleb128 0x3
 2570 0274 0E       		.uleb128 0xe
 2571 0275 3A       		.uleb128 0x3a
 2572 0276 0B       		.uleb128 0xb
 2573 0277 3B       		.uleb128 0x3b
 2574 0278 05       		.uleb128 0x5
 2575 0279 27       		.uleb128 0x27
 2576 027a 19       		.uleb128 0x19
 2577 027b 49       		.uleb128 0x49
 2578 027c 13       		.uleb128 0x13
 2579 027d 11       		.uleb128 0x11
 2580 027e 01       		.uleb128 0x1
 2581 027f 12       		.uleb128 0x12
 2582 0280 06       		.uleb128 0x6
 2583 0281 40       		.uleb128 0x40
 2584 0282 18       		.uleb128 0x18
 2585 0283 9742     		.uleb128 0x2117
 2586 0285 19       		.uleb128 0x19
 2587 0286 01       		.uleb128 0x1
 2588 0287 13       		.uleb128 0x13
 2589 0288 00       		.byte	0
 2590 0289 00       		.byte	0
 2591 028a 2E       		.uleb128 0x2e
 2592 028b 34       		.uleb128 0x34
 2593 028c 00       		.byte	0
 2594 028d 03       		.uleb128 0x3
 2595 028e 08       		.uleb128 0x8
 2596 028f 3A       		.uleb128 0x3a
 2597 0290 0B       		.uleb128 0xb
 2598 0291 3B       		.uleb128 0x3b
 2599 0292 05       		.uleb128 0x5
 2600 0293 49       		.uleb128 0x49
 2601 0294 13       		.uleb128 0x13
 2602 0295 02       		.uleb128 0x2
 2603 0296 17       		.uleb128 0x17
 2604 0297 00       		.byte	0
 2605 0298 00       		.byte	0
 2606 0299 2F       		.uleb128 0x2f
 2607 029a 0B       		.uleb128 0xb
 2608 029b 01       		.byte	0x1
 2609 029c 11       		.uleb128 0x11
 2610 029d 01       		.uleb128 0x1
 2611 029e 12       		.uleb128 0x12
 2612 029f 06       		.uleb128 0x6
 2613 02a0 01       		.uleb128 0x1
 2614 02a1 13       		.uleb128 0x13
 2615 02a2 00       		.byte	0
 2616 02a3 00       		.byte	0
ARM GAS  C:\Users\jsyoon\AppData\Local\Temp\cc5Dm9fT.s 			page 47


 2617 02a4 30       		.uleb128 0x30
 2618 02a5 34       		.uleb128 0x34
 2619 02a6 00       		.byte	0
 2620 02a7 03       		.uleb128 0x3
 2621 02a8 0E       		.uleb128 0xe
 2622 02a9 3A       		.uleb128 0x3a
 2623 02aa 0B       		.uleb128 0xb
 2624 02ab 3B       		.uleb128 0x3b
 2625 02ac 0B       		.uleb128 0xb
 2626 02ad 49       		.uleb128 0x49
 2627 02ae 13       		.uleb128 0x13
 2628 02af 3F       		.uleb128 0x3f
 2629 02b0 19       		.uleb128 0x19
 2630 02b1 3C       		.uleb128 0x3c
 2631 02b2 19       		.uleb128 0x19
 2632 02b3 00       		.byte	0
 2633 02b4 00       		.byte	0
 2634 02b5 31       		.uleb128 0x31
 2635 02b6 2E       		.uleb128 0x2e
 2636 02b7 01       		.byte	0x1
 2637 02b8 3F       		.uleb128 0x3f
 2638 02b9 19       		.uleb128 0x19
 2639 02ba 03       		.uleb128 0x3
 2640 02bb 0E       		.uleb128 0xe
 2641 02bc 3A       		.uleb128 0x3a
 2642 02bd 0B       		.uleb128 0xb
 2643 02be 3B       		.uleb128 0x3b
 2644 02bf 0B       		.uleb128 0xb
 2645 02c0 27       		.uleb128 0x27
 2646 02c1 19       		.uleb128 0x19
 2647 02c2 49       		.uleb128 0x49
 2648 02c3 13       		.uleb128 0x13
 2649 02c4 3C       		.uleb128 0x3c
 2650 02c5 19       		.uleb128 0x19
 2651 02c6 01       		.uleb128 0x1
 2652 02c7 13       		.uleb128 0x13
 2653 02c8 00       		.byte	0
 2654 02c9 00       		.byte	0
 2655 02ca 32       		.uleb128 0x32
 2656 02cb 05       		.uleb128 0x5
 2657 02cc 00       		.byte	0
 2658 02cd 49       		.uleb128 0x49
 2659 02ce 13       		.uleb128 0x13
 2660 02cf 00       		.byte	0
 2661 02d0 00       		.byte	0
 2662 02d1 33       		.uleb128 0x33
 2663 02d2 2E       		.uleb128 0x2e
 2664 02d3 00       		.byte	0
 2665 02d4 3F       		.uleb128 0x3f
 2666 02d5 19       		.uleb128 0x19
 2667 02d6 03       		.uleb128 0x3
 2668 02d7 0E       		.uleb128 0xe
 2669 02d8 3A       		.uleb128 0x3a
 2670 02d9 0B       		.uleb128 0xb
 2671 02da 3B       		.uleb128 0x3b
 2672 02db 0B       		.uleb128 0xb
 2673 02dc 27       		.uleb128 0x27
ARM GAS  C:\Users\jsyoon\AppData\Local\Temp\cc5Dm9fT.s 			page 48


 2674 02dd 19       		.uleb128 0x19
 2675 02de 3C       		.uleb128 0x3c
 2676 02df 19       		.uleb128 0x19
 2677 02e0 00       		.byte	0
 2678 02e1 00       		.byte	0
 2679 02e2 34       		.uleb128 0x34
 2680 02e3 2E       		.uleb128 0x2e
 2681 02e4 01       		.byte	0x1
 2682 02e5 3F       		.uleb128 0x3f
 2683 02e6 19       		.uleb128 0x19
 2684 02e7 03       		.uleb128 0x3
 2685 02e8 0E       		.uleb128 0xe
 2686 02e9 3A       		.uleb128 0x3a
 2687 02ea 0B       		.uleb128 0xb
 2688 02eb 3B       		.uleb128 0x3b
 2689 02ec 0B       		.uleb128 0xb
 2690 02ed 27       		.uleb128 0x27
 2691 02ee 19       		.uleb128 0x19
 2692 02ef 3C       		.uleb128 0x3c
 2693 02f0 19       		.uleb128 0x19
 2694 02f1 01       		.uleb128 0x1
 2695 02f2 13       		.uleb128 0x13
 2696 02f3 00       		.byte	0
 2697 02f4 00       		.byte	0
 2698 02f5 35       		.uleb128 0x35
 2699 02f6 2E       		.uleb128 0x2e
 2700 02f7 01       		.byte	0x1
 2701 02f8 3F       		.uleb128 0x3f
 2702 02f9 19       		.uleb128 0x19
 2703 02fa 03       		.uleb128 0x3
 2704 02fb 0E       		.uleb128 0xe
 2705 02fc 3A       		.uleb128 0x3a
 2706 02fd 0B       		.uleb128 0xb
 2707 02fe 3B       		.uleb128 0x3b
 2708 02ff 0B       		.uleb128 0xb
 2709 0300 27       		.uleb128 0x27
 2710 0301 19       		.uleb128 0x19
 2711 0302 3C       		.uleb128 0x3c
 2712 0303 19       		.uleb128 0x19
 2713 0304 00       		.byte	0
 2714 0305 00       		.byte	0
 2715 0306 00       		.byte	0
 2716              		.section	.debug_loc,"",%progbits
 2717              	.Ldebug_loc0:
 2718              	.LLST0:
 2719 0000 00000000 		.4byte	.LVL1
 2720 0004 12000000 		.4byte	.LVL4
 2721 0008 0100     		.2byte	0x1
 2722 000a 50       		.byte	0x50
 2723 000b 12000000 		.4byte	.LVL4
 2724 000f 28000000 		.4byte	.LFE9
 2725 0013 0100     		.2byte	0x1
 2726 0015 54       		.byte	0x54
 2727 0016 00000000 		.4byte	0
 2728 001a 00000000 		.4byte	0
 2729              	.LLST1:
 2730 001e 00000000 		.4byte	.LVL1
ARM GAS  C:\Users\jsyoon\AppData\Local\Temp\cc5Dm9fT.s 			page 49


 2731 0022 12000000 		.4byte	.LVL4
 2732 0026 0100     		.2byte	0x1
 2733 0028 51       		.byte	0x51
 2734 0029 12000000 		.4byte	.LVL4
 2735 002d 28000000 		.4byte	.LFE9
 2736 0031 0400     		.2byte	0x4
 2737 0033 F3       		.byte	0xf3
 2738 0034 01       		.uleb128 0x1
 2739 0035 51       		.byte	0x51
 2740 0036 9F       		.byte	0x9f
 2741 0037 00000000 		.4byte	0
 2742 003b 00000000 		.4byte	0
 2743              	.LLST2:
 2744 003f 04000000 		.4byte	.LVL2
 2745 0043 20000000 		.4byte	.LVL7
 2746 0047 0100     		.2byte	0x1
 2747 0049 55       		.byte	0x55
 2748 004a 20000000 		.4byte	.LVL7
 2749 004e 24000000 		.4byte	.LVL8
 2750 0052 0300     		.2byte	0x3
 2751 0054 75       		.byte	0x75
 2752 0055 7F       		.sleb128 -1
 2753 0056 9F       		.byte	0x9f
 2754 0057 24000000 		.4byte	.LVL8
 2755 005b 28000000 		.4byte	.LFE9
 2756 005f 0100     		.2byte	0x1
 2757 0061 55       		.byte	0x55
 2758 0062 00000000 		.4byte	0
 2759 0066 00000000 		.4byte	0
 2760              	.LLST3:
 2761 006a 12000000 		.4byte	.LVL4
 2762 006e 26000000 		.4byte	.LVL9
 2763 0072 0100     		.2byte	0x1
 2764 0074 54       		.byte	0x54
 2765 0075 00000000 		.4byte	0
 2766 0079 00000000 		.4byte	0
 2767              	.LLST4:
 2768 007d 14000000 		.4byte	.LVL5
 2769 0081 1D000000 		.4byte	.LVL6-1
 2770 0085 0100     		.2byte	0x1
 2771 0087 50       		.byte	0x50
 2772 0088 00000000 		.4byte	0
 2773 008c 00000000 		.4byte	0
 2774              	.LLST5:
 2775 0090 00000000 		.4byte	.LVL10
 2776 0094 07000000 		.4byte	.LVL11-1
 2777 0098 0100     		.2byte	0x1
 2778 009a 50       		.byte	0x50
 2779 009b 07000000 		.4byte	.LVL11-1
 2780 009f 10000000 		.4byte	.LFE8
 2781 00a3 0400     		.2byte	0x4
 2782 00a5 F3       		.byte	0xf3
 2783 00a6 01       		.uleb128 0x1
 2784 00a7 50       		.byte	0x50
 2785 00a8 9F       		.byte	0x9f
 2786 00a9 00000000 		.4byte	0
 2787 00ad 00000000 		.4byte	0
ARM GAS  C:\Users\jsyoon\AppData\Local\Temp\cc5Dm9fT.s 			page 50


 2788              	.LLST6:
 2789 00b1 00000000 		.4byte	.LVL10
 2790 00b5 07000000 		.4byte	.LVL11-1
 2791 00b9 0100     		.2byte	0x1
 2792 00bb 51       		.byte	0x51
 2793 00bc 07000000 		.4byte	.LVL11-1
 2794 00c0 10000000 		.4byte	.LFE8
 2795 00c4 0400     		.2byte	0x4
 2796 00c6 F3       		.byte	0xf3
 2797 00c7 01       		.uleb128 0x1
 2798 00c8 51       		.byte	0x51
 2799 00c9 9F       		.byte	0x9f
 2800 00ca 00000000 		.4byte	0
 2801 00ce 00000000 		.4byte	0
 2802              	.LLST7:
 2803 00d2 00000000 		.4byte	.LVL13
 2804 00d6 10000000 		.4byte	.LVL14
 2805 00da 0100     		.2byte	0x1
 2806 00dc 50       		.byte	0x50
 2807 00dd 10000000 		.4byte	.LVL14
 2808 00e1 12000000 		.4byte	.LVL15
 2809 00e5 0100     		.2byte	0x1
 2810 00e7 53       		.byte	0x53
 2811 00e8 12000000 		.4byte	.LVL15
 2812 00ec 22000000 		.4byte	.LVL18
 2813 00f0 0100     		.2byte	0x1
 2814 00f2 50       		.byte	0x50
 2815 00f3 22000000 		.4byte	.LVL18
 2816 00f7 27000000 		.4byte	.LVL20-1
 2817 00fb 0100     		.2byte	0x1
 2818 00fd 53       		.byte	0x53
 2819 00fe 27000000 		.4byte	.LVL20-1
 2820 0102 34000000 		.4byte	.LFE11
 2821 0106 0400     		.2byte	0x4
 2822 0108 F3       		.byte	0xf3
 2823 0109 01       		.uleb128 0x1
 2824 010a 50       		.byte	0x50
 2825 010b 9F       		.byte	0x9f
 2826 010c 00000000 		.4byte	0
 2827 0110 00000000 		.4byte	0
 2828              	.LLST8:
 2829 0114 18000000 		.4byte	.LVL16
 2830 0118 20000000 		.4byte	.LVL17
 2831 011c 0200     		.2byte	0x2
 2832 011e 72       		.byte	0x72
 2833 011f 24       		.sleb128 36
 2834 0120 20000000 		.4byte	.LVL17
 2835 0124 24000000 		.4byte	.LVL19
 2836 0128 0200     		.2byte	0x2
 2837 012a 72       		.byte	0x72
 2838 012b 00       		.sleb128 0
 2839 012c 24000000 		.4byte	.LVL19
 2840 0130 27000000 		.4byte	.LVL20-1
 2841 0134 0100     		.2byte	0x1
 2842 0136 53       		.byte	0x53
 2843 0137 27000000 		.4byte	.LVL20-1
 2844 013b 34000000 		.4byte	.LFE11
ARM GAS  C:\Users\jsyoon\AppData\Local\Temp\cc5Dm9fT.s 			page 51


 2845 013f 0400     		.2byte	0x4
 2846 0141 F3       		.byte	0xf3
 2847 0142 01       		.uleb128 0x1
 2848 0143 50       		.byte	0x50
 2849 0144 9F       		.byte	0x9f
 2850 0145 00000000 		.4byte	0
 2851 0149 00000000 		.4byte	0
 2852              	.LLST9:
 2853 014d 18000000 		.4byte	.LVL16
 2854 0151 27000000 		.4byte	.LVL20-1
 2855 0155 0100     		.2byte	0x1
 2856 0157 52       		.byte	0x52
 2857 0158 00000000 		.4byte	0
 2858 015c 00000000 		.4byte	0
 2859              	.LLST10:
 2860 0160 00000000 		.4byte	.LVL21
 2861 0164 07000000 		.4byte	.LVL22-1
 2862 0168 0100     		.2byte	0x1
 2863 016a 50       		.byte	0x50
 2864 016b 07000000 		.4byte	.LVL22-1
 2865 016f 0C000000 		.4byte	.LFE10
 2866 0173 0400     		.2byte	0x4
 2867 0175 F3       		.byte	0xf3
 2868 0176 01       		.uleb128 0x1
 2869 0177 50       		.byte	0x50
 2870 0178 9F       		.byte	0x9f
 2871 0179 00000000 		.4byte	0
 2872 017d 00000000 		.4byte	0
 2873              	.LLST11:
 2874 0181 00000000 		.4byte	.LVL23
 2875 0185 04000000 		.4byte	.LVL24
 2876 0189 0100     		.2byte	0x1
 2877 018b 50       		.byte	0x50
 2878 018c 04000000 		.4byte	.LVL24
 2879 0190 31000000 		.4byte	.LVL28-1
 2880 0194 0100     		.2byte	0x1
 2881 0196 53       		.byte	0x53
 2882 0197 31000000 		.4byte	.LVL28-1
 2883 019b 32000000 		.4byte	.LVL28
 2884 019f 0400     		.2byte	0x4
 2885 01a1 F3       		.byte	0xf3
 2886 01a2 01       		.uleb128 0x1
 2887 01a3 50       		.byte	0x50
 2888 01a4 9F       		.byte	0x9f
 2889 01a5 32000000 		.4byte	.LVL28
 2890 01a9 40000000 		.4byte	.LFE13
 2891 01ad 0100     		.2byte	0x1
 2892 01af 53       		.byte	0x53
 2893 01b0 00000000 		.4byte	0
 2894 01b4 00000000 		.4byte	0
 2895              	.LLST12:
 2896 01b8 00000000 		.4byte	.LVL23
 2897 01bc 31000000 		.4byte	.LVL28-1
 2898 01c0 0100     		.2byte	0x1
 2899 01c2 51       		.byte	0x51
 2900 01c3 31000000 		.4byte	.LVL28-1
 2901 01c7 32000000 		.4byte	.LVL28
ARM GAS  C:\Users\jsyoon\AppData\Local\Temp\cc5Dm9fT.s 			page 52


 2902 01cb 0400     		.2byte	0x4
 2903 01cd F3       		.byte	0xf3
 2904 01ce 01       		.uleb128 0x1
 2905 01cf 51       		.byte	0x51
 2906 01d0 9F       		.byte	0x9f
 2907 01d1 32000000 		.4byte	.LVL28
 2908 01d5 40000000 		.4byte	.LFE13
 2909 01d9 0100     		.2byte	0x1
 2910 01db 51       		.byte	0x51
 2911 01dc 00000000 		.4byte	0
 2912 01e0 00000000 		.4byte	0
 2913              	.LLST13:
 2914 01e4 1E000000 		.4byte	.LVL25
 2915 01e8 28000000 		.4byte	.LVL26
 2916 01ec 0200     		.2byte	0x2
 2917 01ee 72       		.byte	0x72
 2918 01ef 24       		.sleb128 36
 2919 01f0 28000000 		.4byte	.LVL26
 2920 01f4 2A000000 		.4byte	.LVL27
 2921 01f8 0200     		.2byte	0x2
 2922 01fa 72       		.byte	0x72
 2923 01fb 00       		.sleb128 0
 2924 01fc 2A000000 		.4byte	.LVL27
 2925 0200 31000000 		.4byte	.LVL28-1
 2926 0204 0100     		.2byte	0x1
 2927 0206 53       		.byte	0x53
 2928 0207 31000000 		.4byte	.LVL28-1
 2929 020b 32000000 		.4byte	.LVL28
 2930 020f 0400     		.2byte	0x4
 2931 0211 F3       		.byte	0xf3
 2932 0212 01       		.uleb128 0x1
 2933 0213 50       		.byte	0x50
 2934 0214 9F       		.byte	0x9f
 2935 0215 00000000 		.4byte	0
 2936 0219 00000000 		.4byte	0
 2937              	.LLST14:
 2938 021d 1E000000 		.4byte	.LVL25
 2939 0221 31000000 		.4byte	.LVL28-1
 2940 0225 0100     		.2byte	0x1
 2941 0227 52       		.byte	0x52
 2942 0228 00000000 		.4byte	0
 2943 022c 00000000 		.4byte	0
 2944              	.LLST15:
 2945 0230 00000000 		.4byte	.LVL29
 2946 0234 07000000 		.4byte	.LVL30-1
 2947 0238 0100     		.2byte	0x1
 2948 023a 50       		.byte	0x50
 2949 023b 07000000 		.4byte	.LVL30-1
 2950 023f 0C000000 		.4byte	.LFE12
 2951 0243 0400     		.2byte	0x4
 2952 0245 F3       		.byte	0xf3
 2953 0246 01       		.uleb128 0x1
 2954 0247 50       		.byte	0x50
 2955 0248 9F       		.byte	0x9f
 2956 0249 00000000 		.4byte	0
 2957 024d 00000000 		.4byte	0
 2958              	.LLST16:
ARM GAS  C:\Users\jsyoon\AppData\Local\Temp\cc5Dm9fT.s 			page 53


 2959 0251 00000000 		.4byte	.LVL29
 2960 0255 07000000 		.4byte	.LVL30-1
 2961 0259 0100     		.2byte	0x1
 2962 025b 51       		.byte	0x51
 2963 025c 07000000 		.4byte	.LVL30-1
 2964 0260 0C000000 		.4byte	.LFE12
 2965 0264 0400     		.2byte	0x4
 2966 0266 F3       		.byte	0xf3
 2967 0267 01       		.uleb128 0x1
 2968 0268 51       		.byte	0x51
 2969 0269 9F       		.byte	0x9f
 2970 026a 00000000 		.4byte	0
 2971 026e 00000000 		.4byte	0
 2972              	.LLST17:
 2973 0272 00000000 		.4byte	.LVL31
 2974 0276 16000000 		.4byte	.LVL33
 2975 027a 0100     		.2byte	0x1
 2976 027c 50       		.byte	0x50
 2977 027d 16000000 		.4byte	.LVL33
 2978 0281 21000000 		.4byte	.LVL34-1
 2979 0285 0100     		.2byte	0x1
 2980 0287 53       		.byte	0x53
 2981 0288 21000000 		.4byte	.LVL34-1
 2982 028c 26000000 		.4byte	.LFE14
 2983 0290 0400     		.2byte	0x4
 2984 0292 F3       		.byte	0xf3
 2985 0293 01       		.uleb128 0x1
 2986 0294 50       		.byte	0x50
 2987 0295 9F       		.byte	0x9f
 2988 0296 00000000 		.4byte	0
 2989 029a 00000000 		.4byte	0
 2990              	.LLST18:
 2991 029e 14000000 		.4byte	.LVL32
 2992 02a2 16000000 		.4byte	.LVL33
 2993 02a6 0100     		.2byte	0x1
 2994 02a8 50       		.byte	0x50
 2995 02a9 16000000 		.4byte	.LVL33
 2996 02ad 21000000 		.4byte	.LVL34-1
 2997 02b1 0100     		.2byte	0x1
 2998 02b3 53       		.byte	0x53
 2999 02b4 21000000 		.4byte	.LVL34-1
 3000 02b8 26000000 		.4byte	.LFE14
 3001 02bc 0400     		.2byte	0x4
 3002 02be F3       		.byte	0xf3
 3003 02bf 01       		.uleb128 0x1
 3004 02c0 50       		.byte	0x50
 3005 02c1 9F       		.byte	0x9f
 3006 02c2 00000000 		.4byte	0
 3007 02c6 00000000 		.4byte	0
 3008              	.LLST19:
 3009 02ca 16000000 		.4byte	.LVL33
 3010 02ce 21000000 		.4byte	.LVL34-1
 3011 02d2 0100     		.2byte	0x1
 3012 02d4 50       		.byte	0x50
 3013 02d5 00000000 		.4byte	0
 3014 02d9 00000000 		.4byte	0
 3015              	.LLST20:
ARM GAS  C:\Users\jsyoon\AppData\Local\Temp\cc5Dm9fT.s 			page 54


 3016 02dd 00000000 		.4byte	.LVL35
 3017 02e1 18000000 		.4byte	.LVL38
 3018 02e5 0100     		.2byte	0x1
 3019 02e7 50       		.byte	0x50
 3020 02e8 18000000 		.4byte	.LVL38
 3021 02ec 1D000000 		.4byte	.LVL39-1
 3022 02f0 0200     		.2byte	0x2
 3023 02f2 72       		.byte	0x72
 3024 02f3 04       		.sleb128 4
 3025 02f4 1D000000 		.4byte	.LVL39-1
 3026 02f8 1E000000 		.4byte	.LFE15
 3027 02fc 0400     		.2byte	0x4
 3028 02fe F3       		.byte	0xf3
 3029 02ff 01       		.uleb128 0x1
 3030 0300 50       		.byte	0x50
 3031 0301 9F       		.byte	0x9f
 3032 0302 00000000 		.4byte	0
 3033 0306 00000000 		.4byte	0
 3034              	.LLST21:
 3035 030a 0C000000 		.4byte	.LVL36
 3036 030e 18000000 		.4byte	.LVL38
 3037 0312 0100     		.2byte	0x1
 3038 0314 50       		.byte	0x50
 3039 0315 18000000 		.4byte	.LVL38
 3040 0319 1D000000 		.4byte	.LVL39-1
 3041 031d 0200     		.2byte	0x2
 3042 031f 72       		.byte	0x72
 3043 0320 04       		.sleb128 4
 3044 0321 1D000000 		.4byte	.LVL39-1
 3045 0325 1E000000 		.4byte	.LFE15
 3046 0329 0400     		.2byte	0x4
 3047 032b F3       		.byte	0xf3
 3048 032c 01       		.uleb128 0x1
 3049 032d 50       		.byte	0x50
 3050 032e 9F       		.byte	0x9f
 3051 032f 00000000 		.4byte	0
 3052 0333 00000000 		.4byte	0
 3053              	.LLST22:
 3054 0337 0E000000 		.4byte	.LVL37
 3055 033b 1D000000 		.4byte	.LVL39-1
 3056 033f 0100     		.2byte	0x1
 3057 0341 53       		.byte	0x53
 3058 0342 00000000 		.4byte	0
 3059 0346 00000000 		.4byte	0
 3060              	.LLST23:
 3061 034a 00000000 		.4byte	.LVL40
 3062 034e 0C000000 		.4byte	.LVL41
 3063 0352 0100     		.2byte	0x1
 3064 0354 50       		.byte	0x50
 3065 0355 0C000000 		.4byte	.LVL41
 3066 0359 2E000000 		.4byte	.LFE16
 3067 035d 0100     		.2byte	0x1
 3068 035f 55       		.byte	0x55
 3069 0360 00000000 		.4byte	0
 3070 0364 00000000 		.4byte	0
 3071              	.LLST24:
 3072 0368 00000000 		.4byte	.LVL40
ARM GAS  C:\Users\jsyoon\AppData\Local\Temp\cc5Dm9fT.s 			page 55


 3073 036c 0C000000 		.4byte	.LVL41
 3074 0370 0100     		.2byte	0x1
 3075 0372 51       		.byte	0x51
 3076 0373 0C000000 		.4byte	.LVL41
 3077 0377 0E000000 		.4byte	.LVL42
 3078 037b 0300     		.2byte	0x3
 3079 037d 74       		.byte	0x74
 3080 037e 7F       		.sleb128 -1
 3081 037f 9F       		.byte	0x9f
 3082 0380 0E000000 		.4byte	.LVL42
 3083 0384 28000000 		.4byte	.LVL47
 3084 0388 0100     		.2byte	0x1
 3085 038a 54       		.byte	0x54
 3086 038b 28000000 		.4byte	.LVL47
 3087 038f 2A000000 		.4byte	.LVL48
 3088 0393 0300     		.2byte	0x3
 3089 0395 74       		.byte	0x74
 3090 0396 01       		.sleb128 1
 3091 0397 9F       		.byte	0x9f
 3092 0398 00000000 		.4byte	0
 3093 039c 00000000 		.4byte	0
 3094              	.LLST25:
 3095 03a0 1A000000 		.4byte	.LVL44
 3096 03a4 2C000000 		.4byte	.LVL49
 3097 03a8 0100     		.2byte	0x1
 3098 03aa 55       		.byte	0x55
 3099 03ab 00000000 		.4byte	0
 3100 03af 00000000 		.4byte	0
 3101              	.LLST26:
 3102 03b3 1C000000 		.4byte	.LVL45
 3103 03b7 25000000 		.4byte	.LVL46-1
 3104 03bb 0100     		.2byte	0x1
 3105 03bd 50       		.byte	0x50
 3106 03be 00000000 		.4byte	0
 3107 03c2 00000000 		.4byte	0
 3108              	.LLST27:
 3109 03c6 00000000 		.4byte	.LVL50
 3110 03ca 12000000 		.4byte	.LVL51
 3111 03ce 0100     		.2byte	0x1
 3112 03d0 50       		.byte	0x50
 3113 03d1 12000000 		.4byte	.LVL51
 3114 03d5 46000000 		.4byte	.LVL58
 3115 03d9 0400     		.2byte	0x4
 3116 03db F3       		.byte	0xf3
 3117 03dc 01       		.uleb128 0x1
 3118 03dd 50       		.byte	0x50
 3119 03de 9F       		.byte	0x9f
 3120 03df 46000000 		.4byte	.LVL58
 3121 03e3 48000000 		.4byte	.LVL59
 3122 03e7 0100     		.2byte	0x1
 3123 03e9 50       		.byte	0x50
 3124 03ea 48000000 		.4byte	.LVL59
 3125 03ee 53000000 		.4byte	.LVL60-1
 3126 03f2 0100     		.2byte	0x1
 3127 03f4 53       		.byte	0x53
 3128 03f5 53000000 		.4byte	.LVL60-1
 3129 03f9 60000000 		.4byte	.LFE17
ARM GAS  C:\Users\jsyoon\AppData\Local\Temp\cc5Dm9fT.s 			page 56


 3130 03fd 0400     		.2byte	0x4
 3131 03ff F3       		.byte	0xf3
 3132 0400 01       		.uleb128 0x1
 3133 0401 50       		.byte	0x50
 3134 0402 9F       		.byte	0x9f
 3135 0403 00000000 		.4byte	0
 3136 0407 00000000 		.4byte	0
 3137              	.LLST28:
 3138 040b 00000000 		.4byte	.LVL50
 3139 040f 12000000 		.4byte	.LVL51
 3140 0413 0100     		.2byte	0x1
 3141 0415 51       		.byte	0x51
 3142 0416 12000000 		.4byte	.LVL51
 3143 041a 46000000 		.4byte	.LVL58
 3144 041e 0400     		.2byte	0x4
 3145 0420 F3       		.byte	0xf3
 3146 0421 01       		.uleb128 0x1
 3147 0422 51       		.byte	0x51
 3148 0423 9F       		.byte	0x9f
 3149 0424 46000000 		.4byte	.LVL58
 3150 0428 53000000 		.4byte	.LVL60-1
 3151 042c 0100     		.2byte	0x1
 3152 042e 51       		.byte	0x51
 3153 042f 53000000 		.4byte	.LVL60-1
 3154 0433 60000000 		.4byte	.LFE17
 3155 0437 0400     		.2byte	0x4
 3156 0439 F3       		.byte	0xf3
 3157 043a 01       		.uleb128 0x1
 3158 043b 51       		.byte	0x51
 3159 043c 9F       		.byte	0x9f
 3160 043d 00000000 		.4byte	0
 3161 0441 00000000 		.4byte	0
 3162              	.LLST29:
 3163 0445 20000000 		.4byte	.LVL52
 3164 0449 22000000 		.4byte	.LVL53
 3165 044d 0200     		.2byte	0x2
 3166 044f 30       		.byte	0x30
 3167 0450 9F       		.byte	0x9f
 3168 0451 22000000 		.4byte	.LVL53
 3169 0455 28000000 		.4byte	.LVL54
 3170 0459 0100     		.2byte	0x1
 3171 045b 50       		.byte	0x50
 3172 045c 40000000 		.4byte	.LVL57
 3173 0460 46000000 		.4byte	.LVL58
 3174 0464 0100     		.2byte	0x1
 3175 0466 50       		.byte	0x50
 3176 0467 00000000 		.4byte	0
 3177 046b 00000000 		.4byte	0
 3178              	.LLST30:
 3179 046f 2E000000 		.4byte	.LVL55
 3180 0473 46000000 		.4byte	.LVL58
 3181 0477 0100     		.2byte	0x1
 3182 0479 54       		.byte	0x54
 3183 047a 00000000 		.4byte	0
 3184 047e 00000000 		.4byte	0
 3185              	.LLST31:
 3186 0482 2E000000 		.4byte	.LVL55
ARM GAS  C:\Users\jsyoon\AppData\Local\Temp\cc5Dm9fT.s 			page 57


 3187 0486 3D000000 		.4byte	.LVL56-1
 3188 048a 0100     		.2byte	0x1
 3189 048c 51       		.byte	0x51
 3190 048d 00000000 		.4byte	0
 3191 0491 00000000 		.4byte	0
 3192              	.LLST33:
 3193 0495 46000000 		.4byte	.LVL58
 3194 0499 48000000 		.4byte	.LVL59
 3195 049d 0100     		.2byte	0x1
 3196 049f 50       		.byte	0x50
 3197 04a0 48000000 		.4byte	.LVL59
 3198 04a4 53000000 		.4byte	.LVL60-1
 3199 04a8 0100     		.2byte	0x1
 3200 04aa 53       		.byte	0x53
 3201 04ab 53000000 		.4byte	.LVL60-1
 3202 04af 60000000 		.4byte	.LFE17
 3203 04b3 0400     		.2byte	0x4
 3204 04b5 F3       		.byte	0xf3
 3205 04b6 01       		.uleb128 0x1
 3206 04b7 50       		.byte	0x50
 3207 04b8 9F       		.byte	0x9f
 3208 04b9 00000000 		.4byte	0
 3209 04bd 00000000 		.4byte	0
 3210              	.LLST34:
 3211 04c1 48000000 		.4byte	.LVL59
 3212 04c5 53000000 		.4byte	.LVL60-1
 3213 04c9 0100     		.2byte	0x1
 3214 04cb 50       		.byte	0x50
 3215 04cc 00000000 		.4byte	0
 3216 04d0 00000000 		.4byte	0
 3217              		.section	.debug_aranges,"",%progbits
 3218 0000 6C000000 		.4byte	0x6c
 3219 0004 0200     		.2byte	0x2
 3220 0006 00000000 		.4byte	.Ldebug_info0
 3221 000a 04       		.byte	0x4
 3222 000b 00       		.byte	0
 3223 000c 0000     		.2byte	0
 3224 000e 0000     		.2byte	0
 3225 0010 00000000 		.4byte	.LFB7
 3226 0014 08000000 		.4byte	.LFE7-.LFB7
 3227 0018 00000000 		.4byte	.LFB9
 3228 001c 28000000 		.4byte	.LFE9-.LFB9
 3229 0020 00000000 		.4byte	.LFB8
 3230 0024 10000000 		.4byte	.LFE8-.LFB8
 3231 0028 00000000 		.4byte	.LFB11
 3232 002c 34000000 		.4byte	.LFE11-.LFB11
 3233 0030 00000000 		.4byte	.LFB10
 3234 0034 0C000000 		.4byte	.LFE10-.LFB10
 3235 0038 00000000 		.4byte	.LFB13
 3236 003c 40000000 		.4byte	.LFE13-.LFB13
 3237 0040 00000000 		.4byte	.LFB12
 3238 0044 0C000000 		.4byte	.LFE12-.LFB12
 3239 0048 00000000 		.4byte	.LFB14
 3240 004c 26000000 		.4byte	.LFE14-.LFB14
 3241 0050 00000000 		.4byte	.LFB15
 3242 0054 1E000000 		.4byte	.LFE15-.LFB15
 3243 0058 00000000 		.4byte	.LFB16
ARM GAS  C:\Users\jsyoon\AppData\Local\Temp\cc5Dm9fT.s 			page 58


 3244 005c 2E000000 		.4byte	.LFE16-.LFB16
 3245 0060 00000000 		.4byte	.LFB17
 3246 0064 60000000 		.4byte	.LFE17-.LFB17
 3247 0068 00000000 		.4byte	0
 3248 006c 00000000 		.4byte	0
 3249              		.section	.debug_ranges,"",%progbits
 3250              	.Ldebug_ranges0:
 3251 0000 18000000 		.4byte	.LBB22
 3252 0004 20000000 		.4byte	.LBE22
 3253 0008 22000000 		.4byte	.LBB25
 3254 000c 24000000 		.4byte	.LBE25
 3255 0010 00000000 		.4byte	0
 3256 0014 00000000 		.4byte	0
 3257 0018 1E000000 		.4byte	.LBB26
 3258 001c 20000000 		.4byte	.LBE26
 3259 0020 22000000 		.4byte	.LBB29
 3260 0024 2A000000 		.4byte	.LBE29
 3261 0028 00000000 		.4byte	0
 3262 002c 00000000 		.4byte	0
 3263 0030 14000000 		.4byte	.LBB30
 3264 0034 1A000000 		.4byte	.LBE30
 3265 0038 1C000000 		.4byte	.LBB33
 3266 003c 1E000000 		.4byte	.LBE33
 3267 0040 00000000 		.4byte	0
 3268 0044 00000000 		.4byte	0
 3269 0048 0C000000 		.4byte	.LBB35
 3270 004c 12000000 		.4byte	.LBE35
 3271 0050 14000000 		.4byte	.LBB38
 3272 0054 16000000 		.4byte	.LBE38
 3273 0058 00000000 		.4byte	0
 3274 005c 00000000 		.4byte	0
 3275 0060 2A000000 		.4byte	.LBB42
 3276 0064 2C000000 		.4byte	.LBE42
 3277 0068 30000000 		.4byte	.LBB45
 3278 006c 38000000 		.4byte	.LBE45
 3279 0070 00000000 		.4byte	0
 3280 0074 00000000 		.4byte	0
 3281 0078 00000000 		.4byte	.LFB7
 3282 007c 08000000 		.4byte	.LFE7
 3283 0080 00000000 		.4byte	.LFB9
 3284 0084 28000000 		.4byte	.LFE9
 3285 0088 00000000 		.4byte	.LFB8
 3286 008c 10000000 		.4byte	.LFE8
 3287 0090 00000000 		.4byte	.LFB11
 3288 0094 34000000 		.4byte	.LFE11
 3289 0098 00000000 		.4byte	.LFB10
 3290 009c 0C000000 		.4byte	.LFE10
 3291 00a0 00000000 		.4byte	.LFB13
 3292 00a4 40000000 		.4byte	.LFE13
 3293 00a8 00000000 		.4byte	.LFB12
 3294 00ac 0C000000 		.4byte	.LFE12
 3295 00b0 00000000 		.4byte	.LFB14
 3296 00b4 26000000 		.4byte	.LFE14
 3297 00b8 00000000 		.4byte	.LFB15
 3298 00bc 1E000000 		.4byte	.LFE15
 3299 00c0 00000000 		.4byte	.LFB16
 3300 00c4 2E000000 		.4byte	.LFE16
ARM GAS  C:\Users\jsyoon\AppData\Local\Temp\cc5Dm9fT.s 			page 59


 3301 00c8 00000000 		.4byte	.LFB17
 3302 00cc 60000000 		.4byte	.LFE17
 3303 00d0 00000000 		.4byte	0
 3304 00d4 00000000 		.4byte	0
 3305              		.section	.debug_line,"",%progbits
 3306              	.Ldebug_line0:
 3307 0000 50030000 		.section	.debug_str,"MS",%progbits,1
 3307      02008D01 
 3307      00000201 
 3307      FB0E0D00 
 3307      01010101 
 3308              	.LASF40:
 3309 0000 705F6D73 		.ascii	"p_msg\000"
 3309      6700
 3310              	.LASF89:
 3311 0006 71756575 		.ascii	"queue_insert\000"
 3311      655F696E 
 3311      73657274 
 3311      00
 3312              	.LASF81:
 3313 0013 63685365 		.ascii	"chSemSignalI\000"
 3313      6D536967 
 3313      6E616C49 
 3313      00
 3314              	.LASF65:
 3315 0020 7264796D 		.ascii	"rdymsg\000"
 3315      736700
 3316              	.LASF5:
 3317 0027 5F5F7569 		.ascii	"__uint8_t\000"
 3317      6E74385F 
 3317      7400
 3318              	.LASF11:
 3319 0031 6C6F6E67 		.ascii	"long long unsigned int\000"
 3319      206C6F6E 
 3319      6720756E 
 3319      7369676E 
 3319      65642069 
 3320              	.LASF82:
 3321 0048 63685365 		.ascii	"chSemAddCounterI\000"
 3321      6D416464 
 3321      436F756E 
 3321      74657249 
 3321      00
 3322              	.LASF28:
 3323 0059 705F7072 		.ascii	"p_prio\000"
 3323      696F00
 3324              	.LASF10:
 3325 0060 6C6F6E67 		.ascii	"long long int\000"
 3325      206C6F6E 
 3325      6720696E 
 3325      7400
 3326              	.LASF1:
 3327 006e 7369676E 		.ascii	"signed char\000"
 3327      65642063 
 3327      68617200 
 3328              	.LASF83:
 3329 007a 63685365 		.ascii	"chSemSignalWait\000"
ARM GAS  C:\Users\jsyoon\AppData\Local\Temp\cc5Dm9fT.s 			page 60


 3329      6D536967 
 3329      6E616C57 
 3329      61697400 
 3330              	.LASF44:
 3331 008a 705F6D70 		.ascii	"p_mpool\000"
 3331      6F6F6C00 
 3332              	.LASF62:
 3333 0092 6D5F7175 		.ascii	"m_queue\000"
 3333      65756500 
 3334              	.LASF19:
 3335 009a 74736C69 		.ascii	"tslices_t\000"
 3335      6365735F 
 3335      7400
 3336              	.LASF88:
 3337 00a4 453A5C4D 		.ascii	"E:\\Maker\\BLDC\\test_eval\\try2\\OROCA-BLDC_R15080"
 3337      616B6572 
 3337      5C424C44 
 3337      435C7465 
 3337      73745F65 
 3338 00d2 3700     		.ascii	"7\000"
 3339              	.LASF7:
 3340 00d4 6C6F6E67 		.ascii	"long int\000"
 3340      20696E74 
 3340      00
 3341              	.LASF17:
 3342 00dd 74737461 		.ascii	"tstate_t\000"
 3342      74655F74 
 3342      00
 3343              	.LASF86:
 3344 00e6 474E5520 		.ascii	"GNU C 4.8.4 20140526 (release) [ARM/embedded-4_8-br"
 3344      4320342E 
 3344      382E3420 
 3344      32303134 
 3344      30353236 
 3345 0119 616E6368 		.ascii	"anch revision 211358] -mcpu=cortex-m4 -mfloat-abi=h"
 3345      20726576 
 3345      6973696F 
 3345      6E203231 
 3345      31333538 
 3346 014c 61726420 		.ascii	"ard -mfpu=fpv4-sp-d16 -mno-thumb-interwork -mthumb "
 3346      2D6D6670 
 3346      753D6670 
 3346      76342D73 
 3346      702D6431 
 3347 017f 2D676764 		.ascii	"-ggdb -O2 -std=gnu99 -fomit-frame-pointer -falign-f"
 3347      62202D4F 
 3347      32202D73 
 3347      74643D67 
 3347      6E753939 
 3348 01b2 756E6374 		.ascii	"unctions=16 -ffunction-sections -fdata-sections -fn"
 3348      696F6E73 
 3348      3D313620 
 3348      2D666675 
 3348      6E637469 
 3349 01e5 6F2D636F 		.ascii	"o-common -fsingle-precision-constant\000"
 3349      6D6D6F6E 
 3349      202D6673 
ARM GAS  C:\Users\jsyoon\AppData\Local\Temp\cc5Dm9fT.s 			page 61


 3349      696E676C 
 3349      652D7072 
 3350              	.LASF30:
 3351 020a 705F6E65 		.ascii	"p_newer\000"
 3351      77657200 
 3352              	.LASF59:
 3353 0212 735F7175 		.ascii	"s_queue\000"
 3353      65756500 
 3354              	.LASF66:
 3355 021a 65786974 		.ascii	"exitcode\000"
 3355      636F6465 
 3355      00
 3356              	.LASF91:
 3357 0223 63685363 		.ascii	"chSchRescheduleS\000"
 3357      68526573 
 3357      63686564 
 3357      756C6553 
 3357      00
 3358              	.LASF8:
 3359 0234 5F5F7569 		.ascii	"__uint32_t\000"
 3359      6E743332 
 3359      5F7400
 3360              	.LASF47:
 3361 023f 72656761 		.ascii	"regarm_t\000"
 3361      726D5F74 
 3361      00
 3362              	.LASF24:
 3363 0248 636E745F 		.ascii	"cnt_t\000"
 3363      7400
 3364              	.LASF0:
 3365 024e 756E7369 		.ascii	"unsigned int\000"
 3365      676E6564 
 3365      20696E74 
 3365      00
 3366              	.LASF79:
 3367 025b 63685365 		.ascii	"chSemWaitTimeout\000"
 3367      6D576169 
 3367      7454696D 
 3367      656F7574 
 3367      00
 3368              	.LASF9:
 3369 026c 6C6F6E67 		.ascii	"long unsigned int\000"
 3369      20756E73 
 3369      69676E65 
 3369      6420696E 
 3369      7400
 3370              	.LASF80:
 3371 027e 63685365 		.ascii	"chSemSignal\000"
 3371      6D536967 
 3371      6E616C00 
 3372              	.LASF60:
 3373 028a 735F636E 		.ascii	"s_cnt\000"
 3373      7400
 3374              	.LASF49:
 3375 0290 636F6E74 		.ascii	"context\000"
 3375      65787400 
 3376              	.LASF4:
ARM GAS  C:\Users\jsyoon\AppData\Local\Temp\cc5Dm9fT.s 			page 62


 3377 0298 73686F72 		.ascii	"short unsigned int\000"
 3377      7420756E 
 3377      7369676E 
 3377      65642069 
 3377      6E7400
 3378              	.LASF74:
 3379 02ab 63685365 		.ascii	"chSemReset\000"
 3379      6D526573 
 3379      657400
 3380              	.LASF21:
 3381 02b6 6D73675F 		.ascii	"msg_t\000"
 3381      7400
 3382              	.LASF54:
 3383 02bc 725F6E65 		.ascii	"r_newer\000"
 3383      77657200 
 3384              	.LASF16:
 3385 02c4 746D6F64 		.ascii	"tmode_t\000"
 3385      655F7400 
 3386              	.LASF46:
 3387 02cc 54687265 		.ascii	"ThreadsList\000"
 3387      6164734C 
 3387      69737400 
 3388              	.LASF22:
 3389 02d8 6576656E 		.ascii	"eventmask_t\000"
 3389      746D6173 
 3389      6B5F7400 
 3390              	.LASF61:
 3391 02e4 4D757465 		.ascii	"Mutex\000"
 3391      7800
 3392              	.LASF50:
 3393 02ea 73697A65 		.ascii	"sizetype\000"
 3393      74797065 
 3393      00
 3394              	.LASF31:
 3395 02f3 705F6F6C 		.ascii	"p_older\000"
 3395      64657200 
 3396              	.LASF53:
 3397 02fb 725F6374 		.ascii	"r_ctx\000"
 3397      7800
 3398              	.LASF45:
 3399 0301 54687265 		.ascii	"ThreadsQueue\000"
 3399      61647351 
 3399      75657565 
 3399      00
 3400              	.LASF78:
 3401 030e 74696D65 		.ascii	"time\000"
 3401      00
 3402              	.LASF56:
 3403 0313 725F6375 		.ascii	"r_current\000"
 3403      7272656E 
 3403      7400
 3404              	.LASF55:
 3405 031d 725F6F6C 		.ascii	"r_older\000"
 3405      64657200 
 3406              	.LASF18:
 3407 0325 74726566 		.ascii	"trefs_t\000"
 3407      735F7400 
ARM GAS  C:\Users\jsyoon\AppData\Local\Temp\cc5Dm9fT.s 			page 63


 3408              	.LASF27:
 3409 032d 705F7072 		.ascii	"p_prev\000"
 3409      657600
 3410              	.LASF20:
 3411 0334 74707269 		.ascii	"tprio_t\000"
 3411      6F5F7400 
 3412              	.LASF15:
 3413 033c 5F426F6F 		.ascii	"_Bool\000"
 3413      6C00
 3414              	.LASF13:
 3415 0342 696E7433 		.ascii	"int32_t\000"
 3415      325F7400 
 3416              	.LASF2:
 3417 034a 756E7369 		.ascii	"unsigned char\000"
 3417      676E6564 
 3417      20636861 
 3417      7200
 3418              	.LASF42:
 3419 0358 705F6D74 		.ascii	"p_mtxlist\000"
 3419      786C6973 
 3419      7400
 3420              	.LASF3:
 3421 0362 73686F72 		.ascii	"short int\000"
 3421      7420696E 
 3421      7400
 3422              	.LASF33:
 3423 036c 705F7374 		.ascii	"p_state\000"
 3423      61746500 
 3424              	.LASF36:
 3425 0374 705F7072 		.ascii	"p_preempt\000"
 3425      65656D70 
 3425      7400
 3426              	.LASF52:
 3427 037e 725F7072 		.ascii	"r_prio\000"
 3427      696F00
 3428              	.LASF68:
 3429 0385 65776D61 		.ascii	"ewmask\000"
 3429      736B00
 3430              	.LASF26:
 3431 038c 705F6E65 		.ascii	"p_next\000"
 3431      787400
 3432              	.LASF34:
 3433 0393 705F666C 		.ascii	"p_flags\000"
 3433      61677300 
 3434              	.LASF75:
 3435 039b 63685365 		.ascii	"chSemWaitS\000"
 3435      6D576169 
 3435      745300
 3436              	.LASF25:
 3437 03a6 54687265 		.ascii	"Thread\000"
 3437      616400
 3438              	.LASF92:
 3439 03ad 63685363 		.ascii	"chSchGoSleepS\000"
 3439      68476F53 
 3439      6C656570 
 3439      5300
 3440              	.LASF41:
ARM GAS  C:\Users\jsyoon\AppData\Local\Temp\cc5Dm9fT.s 			page 64


 3441 03bb 705F6570 		.ascii	"p_epending\000"
 3441      656E6469 
 3441      6E6700
 3442              	.LASF14:
 3443 03c6 75696E74 		.ascii	"uint32_t\000"
 3443      33325F74 
 3443      00
 3444              	.LASF51:
 3445 03cf 725F7175 		.ascii	"r_queue\000"
 3445      65756500 
 3446              	.LASF87:
 3447 03d7 43686962 		.ascii	"ChibiOS_2.6.6/os/kernel/src/chsem.c\000"
 3447      694F535F 
 3447      322E362E 
 3447      362F6F73 
 3447      2F6B6572 
 3448              	.LASF69:
 3449 03fb 63686172 		.ascii	"char\000"
 3449      00
 3450              	.LASF71:
 3451 0400 6669666F 		.ascii	"fifo_remove\000"
 3451      5F72656D 
 3451      6F766500 
 3452              	.LASF77:
 3453 040c 63685365 		.ascii	"chSemWaitTimeoutS\000"
 3453      6D576169 
 3453      7454696D 
 3453      656F7574 
 3453      5300
 3454              	.LASF84:
 3455 041e 63685363 		.ascii	"chSchReadyI\000"
 3455      68526561 
 3455      64794900 
 3456              	.LASF64:
 3457 042a 6D5F6E65 		.ascii	"m_next\000"
 3457      787400
 3458              	.LASF23:
 3459 0431 73797374 		.ascii	"systime_t\000"
 3459      696D655F 
 3459      7400
 3460              	.LASF43:
 3461 043b 705F7265 		.ascii	"p_realprio\000"
 3461      616C7072 
 3461      696F00
 3462              	.LASF6:
 3463 0446 5F5F696E 		.ascii	"__int32_t\000"
 3463      7433325F 
 3463      7400
 3464              	.LASF76:
 3465 0450 63685365 		.ascii	"chSemWait\000"
 3465      6D576169 
 3465      7400
 3466              	.LASF37:
 3467 045a 705F7469 		.ascii	"p_time\000"
 3467      6D6500
 3468              	.LASF70:
 3469 0461 6C69666F 		.ascii	"lifo_remove\000"
ARM GAS  C:\Users\jsyoon\AppData\Local\Temp\cc5Dm9fT.s 			page 65


 3469      5F72656D 
 3469      6F766500 
 3470              	.LASF48:
 3471 046d 696E7463 		.ascii	"intctx\000"
 3471      747800
 3472              	.LASF39:
 3473 0474 705F6D73 		.ascii	"p_msgqueue\000"
 3473      67717565 
 3473      756500
 3474              	.LASF93:
 3475 047f 63685363 		.ascii	"chSchWakeupS\000"
 3475      6857616B 
 3475      65757053 
 3475      00
 3476              	.LASF58:
 3477 048c 53656D61 		.ascii	"Semaphore\000"
 3477      70686F72 
 3477      6500
 3478              	.LASF35:
 3479 0496 705F7265 		.ascii	"p_refs\000"
 3479      667300
 3480              	.LASF57:
 3481 049d 52656164 		.ascii	"ReadyList\000"
 3481      794C6973 
 3481      7400
 3482              	.LASF73:
 3483 04a7 63685365 		.ascii	"chSemResetI\000"
 3483      6D526573 
 3483      65744900 
 3484              	.LASF90:
 3485 04b3 726C6973 		.ascii	"rlist\000"
 3485      7400
 3486              	.LASF12:
 3487 04b9 75696E74 		.ascii	"uint8_t\000"
 3487      385F7400 
 3488              	.LASF67:
 3489 04c1 77746F62 		.ascii	"wtobjp\000"
 3489      6A7000
 3490              	.LASF32:
 3491 04c8 705F6E61 		.ascii	"p_name\000"
 3491      6D6500
 3492              	.LASF85:
 3493 04cf 63685363 		.ascii	"chSchGoSleepTimeoutS\000"
 3493      68476F53 
 3493      6C656570 
 3493      54696D65 
 3493      6F757453 
 3494              	.LASF63:
 3495 04e4 6D5F6F77 		.ascii	"m_owner\000"
 3495      6E657200 
 3496              	.LASF29:
 3497 04ec 705F6374 		.ascii	"p_ctx\000"
 3497      7800
 3498              	.LASF38:
 3499 04f2 705F7761 		.ascii	"p_waiting\000"
 3499      6974696E 
 3499      6700
ARM GAS  C:\Users\jsyoon\AppData\Local\Temp\cc5Dm9fT.s 			page 66


 3500              	.LASF72:
 3501 04fc 63685365 		.ascii	"chSemInit\000"
 3501      6D496E69 
 3501      7400
 3502              		.ident	"GCC: (GNU Tools for ARM Embedded Processors) 4.8.4 20140526 (release) [ARM/embedded-4_8-br
ARM GAS  C:\Users\jsyoon\AppData\Local\Temp\cc5Dm9fT.s 			page 67


DEFINED SYMBOLS
                            *ABS*:00000000 chsem.c
C:\Users\jsyoon\AppData\Local\Temp\cc5Dm9fT.s:21     .text.chSemInit:00000000 $t
C:\Users\jsyoon\AppData\Local\Temp\cc5Dm9fT.s:27     .text.chSemInit:00000000 chSemInit
C:\Users\jsyoon\AppData\Local\Temp\cc5Dm9fT.s:46     .text.chSemResetI:00000000 $t
C:\Users\jsyoon\AppData\Local\Temp\cc5Dm9fT.s:52     .text.chSemResetI:00000000 chSemResetI
C:\Users\jsyoon\AppData\Local\Temp\cc5Dm9fT.s:113    .text.chSemReset:00000000 $t
C:\Users\jsyoon\AppData\Local\Temp\cc5Dm9fT.s:119    .text.chSemReset:00000000 chSemReset
C:\Users\jsyoon\AppData\Local\Temp\cc5Dm9fT.s:151    .text.chSemWaitS:00000000 $t
C:\Users\jsyoon\AppData\Local\Temp\cc5Dm9fT.s:157    .text.chSemWaitS:00000000 chSemWaitS
C:\Users\jsyoon\AppData\Local\Temp\cc5Dm9fT.s:222    .text.chSemWaitS:00000030 $d
C:\Users\jsyoon\AppData\Local\Temp\cc5Dm9fT.s:227    .text.chSemWait:00000000 $t
C:\Users\jsyoon\AppData\Local\Temp\cc5Dm9fT.s:233    .text.chSemWait:00000000 chSemWait
C:\Users\jsyoon\AppData\Local\Temp\cc5Dm9fT.s:263    .text.chSemWaitTimeoutS:00000000 $t
C:\Users\jsyoon\AppData\Local\Temp\cc5Dm9fT.s:269    .text.chSemWaitTimeoutS:00000000 chSemWaitTimeoutS
C:\Users\jsyoon\AppData\Local\Temp\cc5Dm9fT.s:338    .text.chSemWaitTimeoutS:0000003c $d
C:\Users\jsyoon\AppData\Local\Temp\cc5Dm9fT.s:343    .text.chSemWaitTimeout:00000000 $t
C:\Users\jsyoon\AppData\Local\Temp\cc5Dm9fT.s:349    .text.chSemWaitTimeout:00000000 chSemWaitTimeout
C:\Users\jsyoon\AppData\Local\Temp\cc5Dm9fT.s:379    .text.chSemSignal:00000000 $t
C:\Users\jsyoon\AppData\Local\Temp\cc5Dm9fT.s:385    .text.chSemSignal:00000000 chSemSignal
C:\Users\jsyoon\AppData\Local\Temp\cc5Dm9fT.s:448    .text.chSemSignalI:00000000 $t
C:\Users\jsyoon\AppData\Local\Temp\cc5Dm9fT.s:454    .text.chSemSignalI:00000000 chSemSignalI
C:\Users\jsyoon\AppData\Local\Temp\cc5Dm9fT.s:503    .text.chSemAddCounterI:00000000 $t
C:\Users\jsyoon\AppData\Local\Temp\cc5Dm9fT.s:509    .text.chSemAddCounterI:00000000 chSemAddCounterI
C:\Users\jsyoon\AppData\Local\Temp\cc5Dm9fT.s:575    .text.chSemSignalWait:00000000 $t
C:\Users\jsyoon\AppData\Local\Temp\cc5Dm9fT.s:581    .text.chSemSignalWait:00000000 chSemSignalWait
C:\Users\jsyoon\AppData\Local\Temp\cc5Dm9fT.s:696    .text.chSemSignalWait:0000005c $d
                     .debug_frame:00000010 $d
C:\Users\jsyoon\AppData\Local\Temp\cc5Dm9fT.s:226    .text.chSemWaitS:00000034 $t

UNDEFINED SYMBOLS
chSchReadyI
chSchRescheduleS
chSchGoSleepS
rlist
chSchGoSleepTimeoutS
chSchWakeupS
