ARM GAS  C:\Users\jsyoon\AppData\Local\Temp\ccWNUfOW.s 			page 1


   1              		.syntax unified
   2              		.cpu cortex-m4
   3              		.eabi_attribute 27, 3
   4              		.eabi_attribute 28, 1
   5              		.fpu fpv4-sp-d16
   6              		.eabi_attribute 20, 1
   7              		.eabi_attribute 21, 1
   8              		.eabi_attribute 23, 3
   9              		.eabi_attribute 24, 1
  10              		.eabi_attribute 25, 1
  11              		.eabi_attribute 26, 1
  12              		.eabi_attribute 30, 2
  13              		.eabi_attribute 34, 1
  14              		.eabi_attribute 18, 4
  15              		.thumb
  16              		.file	"chthreads.c"
  17              		.text
  18              	.Ltext0:
  19              		.cfi_sections	.debug_frame
  20              		.section	.text._thread_init,"ax",%progbits
  21              		.align	2
  22              		.p2align 4,,15
  23              		.global	_thread_init
  24              		.thumb
  25              		.thumb_func
  26              		.type	_thread_init, %function
  27              	_thread_init:
  28              	.LFB7:
  29              		.file 1 "ChibiOS_2.6.6/os/kernel/src/chthreads.c"
  30              		.loc 1 76 0
  31              		.cfi_startproc
  32              		@ args = 0, pretend = 0, frame = 0
  33              		@ frame_needed = 0, uses_anonymous_args = 0
  34              		@ link register save eliminated.
  35              	.LVL0:
  36 0000 2DE9F003 		push	{r4, r5, r6, r7, r8, r9}
  37              		.cfi_def_cfa_offset 24
  38              		.cfi_offset 4, -24
  39              		.cfi_offset 5, -20
  40              		.cfi_offset 6, -16
  41              		.cfi_offset 7, -12
  42              		.cfi_offset 8, -8
  43              		.cfi_offset 9, -4
  44              		.loc 1 99 0
  45 0004 114C     		ldr	r4, .L2
  46              		.loc 1 85 0
  47 0006 0164     		str	r1, [r0, #64]
  48              		.loc 1 99 0
  49 0008 6569     		ldr	r5, [r4, #20]
  50 000a 4561     		str	r5, [r0, #20]
  51              		.loc 1 80 0
  52 000c 0022     		movs	r2, #0
  53              		.loc 1 105 0
  54 000e 00F12C06 		add	r6, r0, #44
  55              		.loc 1 79 0
  56 0012 4FF00209 		mov	r9, #2
  57              		.loc 1 82 0
ARM GAS  C:\Users\jsyoon\AppData\Local\Temp\ccWNUfOW.s 			page 2


  58 0016 4FF00408 		mov	r8, #4
  59              		.loc 1 102 0
  60 001a 00F12807 		add	r7, r0, #40
  61              		.loc 1 95 0
  62 001e 4FF0010C 		mov	ip, #1
  63              		.loc 1 99 0
  64 0022 0461     		str	r4, [r0, #16]
  65              		.loc 1 78 0
  66 0024 8160     		str	r1, [r0, #8]
  67              		.loc 1 79 0
  68 0026 80F81C90 		strb	r9, [r0, #28]
  69              		.loc 1 99 0
  70 002a 6061     		str	r0, [r4, #20]
  71              		.loc 1 82 0
  72 002c 80F81F80 		strb	r8, [r0, #31]
  73              		.loc 1 95 0
  74 0030 80F81EC0 		strb	ip, [r0, #30]
  75              		.loc 1 80 0
  76 0034 4277     		strb	r2, [r0, #29]
  77              		.loc 1 86 0
  78 0036 C263     		str	r2, [r0, #60]
  79              		.loc 1 89 0
  80 0038 8263     		str	r2, [r0, #56]
  81              		.loc 1 92 0
  82 003a 0262     		str	r2, [r0, #32]
  83              		.loc 1 98 0
  84 003c 8261     		str	r2, [r0, #24]
  85              		.loc 1 99 0
  86 003e 2861     		str	r0, [r5, #16]
  87              		.loc 1 102 0
  88 0040 8762     		str	r7, [r0, #40]
  89              		.loc 1 105 0
  90 0042 0663     		str	r6, [r0, #48]
  91 0044 C662     		str	r6, [r0, #44]
  92              		.loc 1 114 0
  93 0046 BDE8F003 		pop	{r4, r5, r6, r7, r8, r9}
  94 004a 7047     		bx	lr
  95              	.L3:
  96              		.align	2
  97              	.L2:
  98 004c 00000000 		.word	rlist
  99              		.cfi_endproc
 100              	.LFE7:
 101              		.size	_thread_init, .-_thread_init
 102              		.section	.text.chThdCreateI,"ax",%progbits
 103              		.align	2
 104              		.p2align 4,,15
 105              		.global	chThdCreateI
 106              		.thumb
 107              		.thumb_func
 108              		.type	chThdCreateI, %function
 109              	chThdCreateI:
 110              	.LFB8:
 111              		.loc 1 158 0
 112              		.cfi_startproc
 113              		@ args = 4, pretend = 0, frame = 0
 114              		@ frame_needed = 0, uses_anonymous_args = 0
ARM GAS  C:\Users\jsyoon\AppData\Local\Temp\ccWNUfOW.s 			page 3


 115              		@ link register save eliminated.
 116              	.LVL1:
 117 0000 2DE9F00F 		push	{r4, r5, r6, r7, r8, r9, r10, fp}
 118              		.cfi_def_cfa_offset 32
 119              		.cfi_offset 4, -32
 120              		.cfi_offset 5, -28
 121              		.cfi_offset 6, -24
 122              		.cfi_offset 7, -20
 123              		.cfi_offset 8, -16
 124              		.cfi_offset 9, -12
 125              		.cfi_offset 10, -8
 126              		.cfi_offset 11, -4
 127              	.LBB12:
 128              	.LBB13:
 129              		.loc 1 99 0
 130 0004 174D     		ldr	r5, .L5
 131              	.LBE13:
 132              	.LBE12:
 133              		.loc 1 158 0
 134 0006 089E     		ldr	r6, [sp, #32]
 135              	.LBB18:
 136              	.LBB14:
 137              		.loc 1 99 0
 138 0008 6F69     		ldr	r7, [r5, #20]
 139              	.LBE14:
 140              	.LBE18:
 141              		.loc 1 167 0
 142 000a DFF85CC0 		ldr	ip, .L5+4
 143 000e 6439     		subs	r1, r1, #100
 144              	.LVL2:
 145 0010 0144     		add	r1, r1, r0
 146              	.LVL3:
 147 0012 C160     		str	r1, [r0, #12]
 148              	.LBB19:
 149              	.LBB15:
 150              		.loc 1 79 0
 151 0014 4FF0020B 		mov	fp, #2
 152              	.LBE15:
 153              	.LBE19:
 154              		.loc 1 167 0
 155 0018 0B64     		str	r3, [r1, #64]
 156 001a 4E64     		str	r6, [r1, #68]
 157              	.LBB20:
 158              	.LBB16:
 159              		.loc 1 80 0
 160 001c 0023     		movs	r3, #0
 161              	.LVL4:
 162              		.loc 1 105 0
 163 001e 00F12C06 		add	r6, r0, #44
 164              		.loc 1 82 0
 165 0022 4FF0040A 		mov	r10, #4
 166              		.loc 1 95 0
 167 0026 4FF00109 		mov	r9, #1
 168              		.loc 1 102 0
 169 002a 00F12808 		add	r8, r0, #40
 170              	.LBE16:
 171              	.LBE20:
ARM GAS  C:\Users\jsyoon\AppData\Local\Temp\ccWNUfOW.s 			page 4


 172              		.loc 1 167 0
 173 002e C1F860C0 		str	ip, [r1, #96]
 174              	.LVL5:
 175              	.LBB21:
 176              	.LBB17:
 177              		.loc 1 99 0
 178 0032 0561     		str	r5, [r0, #16]
 179 0034 4761     		str	r7, [r0, #20]
 180              		.loc 1 78 0
 181 0036 8260     		str	r2, [r0, #8]
 182              		.loc 1 79 0
 183 0038 80F81CB0 		strb	fp, [r0, #28]
 184              	.LVL6:
 185              		.loc 1 82 0
 186 003c 80F81FA0 		strb	r10, [r0, #31]
 187              		.loc 1 95 0
 188 0040 80F81E90 		strb	r9, [r0, #30]
 189              		.loc 1 99 0
 190 0044 6861     		str	r0, [r5, #20]
 191              		.loc 1 85 0
 192 0046 0264     		str	r2, [r0, #64]
 193              		.loc 1 80 0
 194 0048 4377     		strb	r3, [r0, #29]
 195              		.loc 1 86 0
 196 004a C363     		str	r3, [r0, #60]
 197              		.loc 1 89 0
 198 004c 8363     		str	r3, [r0, #56]
 199              		.loc 1 92 0
 200 004e 0362     		str	r3, [r0, #32]
 201              		.loc 1 98 0
 202 0050 8361     		str	r3, [r0, #24]
 203              		.loc 1 99 0
 204 0052 3861     		str	r0, [r7, #16]
 205              		.loc 1 102 0
 206 0054 C0F82880 		str	r8, [r0, #40]
 207              		.loc 1 105 0
 208 0058 0663     		str	r6, [r0, #48]
 209 005a C662     		str	r6, [r0, #44]
 210              	.LBE17:
 211              	.LBE21:
 212              		.loc 1 169 0
 213 005c BDE8F00F 		pop	{r4, r5, r6, r7, r8, r9, r10, fp}
 214              	.LVL7:
 215 0060 7047     		bx	lr
 216              	.L6:
 217 0062 00BF     		.align	2
 218              	.L5:
 219 0064 00000000 		.word	rlist
 220 0068 00000000 		.word	_port_thread_start
 221              		.cfi_endproc
 222              	.LFE8:
 223              		.size	chThdCreateI, .-chThdCreateI
 224 006c AFF30080 		.section	.text.chThdCreateStatic,"ax",%progbits
 225              		.align	2
 226              		.p2align 4,,15
 227              		.global	chThdCreateStatic
 228              		.thumb
ARM GAS  C:\Users\jsyoon\AppData\Local\Temp\ccWNUfOW.s 			page 5


 229              		.thumb_func
 230              		.type	chThdCreateStatic, %function
 231              	chThdCreateStatic:
 232              	.LFB9:
 233              		.loc 1 188 0
 234              		.cfi_startproc
 235              		@ args = 4, pretend = 0, frame = 0
 236              		@ frame_needed = 0, uses_anonymous_args = 0
 237              	.LVL8:
 238 0000 2DE9F84F 		push	{r3, r4, r5, r6, r7, r8, r9, r10, fp, lr}
 239              		.cfi_def_cfa_offset 40
 240              		.cfi_offset 3, -40
 241              		.cfi_offset 4, -36
 242              		.cfi_offset 5, -32
 243              		.cfi_offset 6, -28
 244              		.cfi_offset 7, -24
 245              		.cfi_offset 8, -20
 246              		.cfi_offset 9, -16
 247              		.cfi_offset 10, -12
 248              		.cfi_offset 11, -8
 249              		.cfi_offset 14, -4
 250              		.loc 1 188 0
 251 0004 0446     		mov	r4, r0
 252              		.loc 1 199 0
 253              	@ 199 "ChibiOS_2.6.6/os/kernel/src/chthreads.c" 1
 254 0006 72B6     		cpsid   i
 255              	@ 0 "" 2
 256              	.LVL9:
 257              		.thumb
 258              	.LBB22:
 259              	.LBB23:
 260              	.LBB24:
 261              	.LBB25:
 262              		.loc 1 99 0
 263 0008 1A4E     		ldr	r6, .L8
 264              	.LBE25:
 265              	.LBE24:
 266              		.loc 1 167 0
 267 000a 0A9F     		ldr	r7, [sp, #40]
 268              	.LBB31:
 269              	.LBB26:
 270              		.loc 1 99 0
 271 000c D6F814E0 		ldr	lr, [r6, #20]
 272              	.LBE26:
 273              	.LBE31:
 274              		.loc 1 167 0
 275 0010 DFF864B0 		ldr	fp, .L8+4
 276 0014 6439     		subs	r1, r1, #100
 277              	.LVL10:
 278 0016 0144     		add	r1, r1, r0
 279              	.LVL11:
 280 0018 C160     		str	r1, [r0, #12]
 281              	.LBB32:
 282              	.LBB27:
 283              		.loc 1 80 0
 284 001a 0025     		movs	r5, #0
 285              	.LBE27:
ARM GAS  C:\Users\jsyoon\AppData\Local\Temp\ccWNUfOW.s 			page 6


 286              	.LBE32:
 287              		.loc 1 167 0
 288 001c 0B64     		str	r3, [r1, #64]
 289              	.LBB33:
 290              	.LBB28:
 291              		.loc 1 102 0
 292 001e 00F1280C 		add	ip, r0, #40
 293              		.loc 1 105 0
 294 0022 00F12C03 		add	r3, r0, #44
 295              	.LVL12:
 296              		.loc 1 79 0
 297 0026 4FF0020A 		mov	r10, #2
 298              		.loc 1 82 0
 299 002a 4FF00409 		mov	r9, #4
 300              		.loc 1 95 0
 301 002e 4FF00108 		mov	r8, #1
 302              	.LBE28:
 303              	.LBE33:
 304              		.loc 1 167 0
 305 0032 4F64     		str	r7, [r1, #68]
 306 0034 C1F860B0 		str	fp, [r1, #96]
 307              	.LVL13:
 308              	.LBB34:
 309              	.LBB29:
 310              		.loc 1 78 0
 311 0038 8260     		str	r2, [r0, #8]
 312              		.loc 1 99 0
 313 003a 0661     		str	r6, [r0, #16]
 314 003c C0F814E0 		str	lr, [r0, #20]
 315              		.loc 1 85 0
 316 0040 0264     		str	r2, [r0, #64]
 317              		.loc 1 79 0
 318 0042 80F81CA0 		strb	r10, [r0, #28]
 319              	.LVL14:
 320              		.loc 1 82 0
 321 0046 80F81F90 		strb	r9, [r0, #31]
 322              		.loc 1 95 0
 323 004a 80F81E80 		strb	r8, [r0, #30]
 324              		.loc 1 80 0
 325 004e 4577     		strb	r5, [r0, #29]
 326              		.loc 1 99 0
 327 0050 7061     		str	r0, [r6, #20]
 328              		.loc 1 86 0
 329 0052 C563     		str	r5, [r0, #60]
 330              		.loc 1 89 0
 331 0054 8563     		str	r5, [r0, #56]
 332              		.loc 1 92 0
 333 0056 0562     		str	r5, [r0, #32]
 334              		.loc 1 98 0
 335 0058 8561     		str	r5, [r0, #24]
 336              	.LBE29:
 337              	.LBE34:
 338              	.LBE23:
 339              	.LBE22:
 340              		.loc 1 200 0
 341 005a 2946     		mov	r1, r5
 342              	.LBB37:
ARM GAS  C:\Users\jsyoon\AppData\Local\Temp\ccWNUfOW.s 			page 7


 343              	.LBB36:
 344              	.LBB35:
 345              	.LBB30:
 346              		.loc 1 99 0
 347 005c CEF81000 		str	r0, [lr, #16]
 348              		.loc 1 102 0
 349 0060 C0F828C0 		str	ip, [r0, #40]
 350              		.loc 1 105 0
 351 0064 0363     		str	r3, [r0, #48]
 352 0066 C362     		str	r3, [r0, #44]
 353              	.LBE30:
 354              	.LBE35:
 355              	.LBE36:
 356              	.LBE37:
 357              		.loc 1 200 0
 358 0068 FFF7FEFF 		bl	chSchWakeupS
 359              	.LVL15:
 360              		.loc 1 201 0
 361              	@ 201 "ChibiOS_2.6.6/os/kernel/src/chthreads.c" 1
 362 006c 62B6     		cpsie   i
 363              	@ 0 "" 2
 364              		.loc 1 203 0
 365              		.thumb
 366 006e 2046     		mov	r0, r4
 367 0070 BDE8F88F 		pop	{r3, r4, r5, r6, r7, r8, r9, r10, fp, pc}
 368              	.LVL16:
 369              	.L9:
 370              		.align	2
 371              	.L8:
 372 0074 00000000 		.word	rlist
 373 0078 00000000 		.word	_port_thread_start
 374              		.cfi_endproc
 375              	.LFE9:
 376              		.size	chThdCreateStatic, .-chThdCreateStatic
 377 007c AFF30080 		.section	.text.chThdSetPriority,"ax",%progbits
 378              		.align	2
 379              		.p2align 4,,15
 380              		.global	chThdSetPriority
 381              		.thumb
 382              		.thumb_func
 383              		.type	chThdSetPriority, %function
 384              	chThdSetPriority:
 385              	.LFB10:
 386              		.loc 1 217 0
 387              		.cfi_startproc
 388              		@ args = 0, pretend = 0, frame = 0
 389              		@ frame_needed = 0, uses_anonymous_args = 0
 390              	.LVL17:
 391 0000 10B5     		push	{r4, lr}
 392              		.cfi_def_cfa_offset 8
 393              		.cfi_offset 4, -8
 394              		.cfi_offset 14, -4
 395              		.loc 1 222 0
 396              	@ 222 "ChibiOS_2.6.6/os/kernel/src/chthreads.c" 1
 397 0002 72B6     		cpsid   i
 398              	@ 0 "" 2
 399              		.loc 1 224 0
ARM GAS  C:\Users\jsyoon\AppData\Local\Temp\ccWNUfOW.s 			page 8


 400              		.thumb
 401 0004 074B     		ldr	r3, .L14
 402 0006 9B69     		ldr	r3, [r3, #24]
 403 0008 1C6C     		ldr	r4, [r3, #64]
 404              	.LVL18:
 405              		.loc 1 225 0
 406 000a 9968     		ldr	r1, [r3, #8]
 407 000c 8C42     		cmp	r4, r1
 408 000e 01D0     		beq	.L11
 409              		.loc 1 225 0 is_stmt 0 discriminator 1
 410 0010 8142     		cmp	r1, r0
 411 0012 00D2     		bcs	.L12
 412              	.L11:
 413              		.loc 1 226 0 is_stmt 1
 414 0014 9860     		str	r0, [r3, #8]
 415              	.L12:
 416              		.loc 1 227 0
 417 0016 1864     		str	r0, [r3, #64]
 418              		.loc 1 232 0
 419 0018 FFF7FEFF 		bl	chSchRescheduleS
 420              	.LVL19:
 421              		.loc 1 233 0
 422              	@ 233 "ChibiOS_2.6.6/os/kernel/src/chthreads.c" 1
 423 001c 62B6     		cpsie   i
 424              	@ 0 "" 2
 425              		.loc 1 235 0
 426              		.thumb
 427 001e 2046     		mov	r0, r4
 428 0020 10BD     		pop	{r4, pc}
 429              	.LVL20:
 430              	.L15:
 431 0022 00BF     		.align	2
 432              	.L14:
 433 0024 00000000 		.word	rlist
 434              		.cfi_endproc
 435              	.LFE10:
 436              		.size	chThdSetPriority, .-chThdSetPriority
 437 0028 AFF30080 		.section	.text.chThdResume,"ax",%progbits
 437      AFF30080 
 438              		.align	2
 439              		.p2align 4,,15
 440              		.global	chThdResume
 441              		.thumb
 442              		.thumb_func
 443              		.type	chThdResume, %function
 444              	chThdResume:
 445              	.LFB11:
 446              		.loc 1 250 0
 447              		.cfi_startproc
 448              		@ args = 0, pretend = 0, frame = 0
 449              		@ frame_needed = 0, uses_anonymous_args = 0
 450              	.LVL21:
 451 0000 10B5     		push	{r4, lr}
 452              		.cfi_def_cfa_offset 8
 453              		.cfi_offset 4, -8
 454              		.cfi_offset 14, -4
 455              		.loc 1 250 0
ARM GAS  C:\Users\jsyoon\AppData\Local\Temp\ccWNUfOW.s 			page 9


 456 0002 0446     		mov	r4, r0
 457              		.loc 1 252 0
 458              	@ 252 "ChibiOS_2.6.6/os/kernel/src/chthreads.c" 1
 459 0004 72B6     		cpsid   i
 460              	@ 0 "" 2
 461              		.loc 1 256 0
 462              		.thumb
 463 0006 0021     		movs	r1, #0
 464 0008 FFF7FEFF 		bl	chSchWakeupS
 465              	.LVL22:
 466              		.loc 1 257 0
 467              	@ 257 "ChibiOS_2.6.6/os/kernel/src/chthreads.c" 1
 468 000c 62B6     		cpsie   i
 469              	@ 0 "" 2
 470              		.loc 1 259 0
 471              		.thumb
 472 000e 2046     		mov	r0, r4
 473 0010 10BD     		pop	{r4, pc}
 474              		.cfi_endproc
 475              	.LFE11:
 476              		.size	chThdResume, .-chThdResume
 477 0012 00BFAFF3 		.section	.text.chThdTerminate,"ax",%progbits
 477      0080AFF3 
 477      0080AFF3 
 477      0080
 478              		.align	2
 479              		.p2align 4,,15
 480              		.global	chThdTerminate
 481              		.thumb
 482              		.thumb_func
 483              		.type	chThdTerminate, %function
 484              	chThdTerminate:
 485              	.LFB12:
 486              		.loc 1 273 0
 487              		.cfi_startproc
 488              		@ args = 0, pretend = 0, frame = 0
 489              		@ frame_needed = 0, uses_anonymous_args = 0
 490              		@ link register save eliminated.
 491              	.LVL23:
 492              		.loc 1 275 0
 493              	@ 275 "ChibiOS_2.6.6/os/kernel/src/chthreads.c" 1
 494 0000 72B6     		cpsid   i
 495              	@ 0 "" 2
 496              		.loc 1 276 0
 497              		.thumb
 498 0002 437F     		ldrb	r3, [r0, #29]	@ zero_extendqisi2
 499 0004 43F00403 		orr	r3, r3, #4
 500 0008 4377     		strb	r3, [r0, #29]
 501              		.loc 1 277 0
 502              	@ 277 "ChibiOS_2.6.6/os/kernel/src/chthreads.c" 1
 503 000a 62B6     		cpsie   i
 504              	@ 0 "" 2
 505              		.thumb
 506 000c 7047     		bx	lr
 507              		.cfi_endproc
 508              	.LFE12:
 509              		.size	chThdTerminate, .-chThdTerminate
ARM GAS  C:\Users\jsyoon\AppData\Local\Temp\ccWNUfOW.s 			page 10


 510 000e 00BF     		.section	.text.chThdSleep,"ax",%progbits
 511              		.align	2
 512              		.p2align 4,,15
 513              		.global	chThdSleep
 514              		.thumb
 515              		.thumb_func
 516              		.type	chThdSleep, %function
 517              	chThdSleep:
 518              	.LFB13:
 519              		.loc 1 292 0
 520              		.cfi_startproc
 521              		@ args = 0, pretend = 0, frame = 0
 522              		@ frame_needed = 0, uses_anonymous_args = 0
 523              	.LVL24:
 524 0000 08B5     		push	{r3, lr}
 525              		.cfi_def_cfa_offset 8
 526              		.cfi_offset 3, -8
 527              		.cfi_offset 14, -4
 528              		.loc 1 292 0
 529 0002 0146     		mov	r1, r0
 530              		.loc 1 296 0
 531              	@ 296 "ChibiOS_2.6.6/os/kernel/src/chthreads.c" 1
 532 0004 72B6     		cpsid   i
 533              	@ 0 "" 2
 534              		.loc 1 297 0
 535              		.thumb
 536 0006 0620     		movs	r0, #6
 537              	.LVL25:
 538 0008 FFF7FEFF 		bl	chSchGoSleepTimeoutS
 539              	.LVL26:
 540              		.loc 1 298 0
 541              	@ 298 "ChibiOS_2.6.6/os/kernel/src/chthreads.c" 1
 542 000c 62B6     		cpsie   i
 543              	@ 0 "" 2
 544              		.thumb
 545 000e 08BD     		pop	{r3, pc}
 546              		.cfi_endproc
 547              	.LFE13:
 548              		.size	chThdSleep, .-chThdSleep
 549              		.section	.text.chThdSleepUntil,"ax",%progbits
 550              		.align	2
 551              		.p2align 4,,15
 552              		.global	chThdSleepUntil
 553              		.thumb
 554              		.thumb_func
 555              		.type	chThdSleepUntil, %function
 556              	chThdSleepUntil:
 557              	.LFB14:
 558              		.loc 1 309 0
 559              		.cfi_startproc
 560              		@ args = 0, pretend = 0, frame = 0
 561              		@ frame_needed = 0, uses_anonymous_args = 0
 562              	.LVL27:
 563 0000 08B5     		push	{r3, lr}
 564              		.cfi_def_cfa_offset 8
 565              		.cfi_offset 3, -8
 566              		.cfi_offset 14, -4
ARM GAS  C:\Users\jsyoon\AppData\Local\Temp\ccWNUfOW.s 			page 11


 567              		.loc 1 311 0
 568              	@ 311 "ChibiOS_2.6.6/os/kernel/src/chthreads.c" 1
 569 0002 72B6     		cpsid   i
 570              	@ 0 "" 2
 571              		.loc 1 312 0
 572              		.thumb
 573 0004 044B     		ldr	r3, .L24
 574 0006 DB68     		ldr	r3, [r3, #12]
 575              	.LVL28:
 576 0008 C11A     		subs	r1, r0, r3
 577              	.LVL29:
 578 000a 02D0     		beq	.L20
 579              		.loc 1 313 0
 580 000c 0620     		movs	r0, #6
 581 000e FFF7FEFF 		bl	chSchGoSleepTimeoutS
 582              	.LVL30:
 583              	.L20:
 584              		.loc 1 314 0
 585              	@ 314 "ChibiOS_2.6.6/os/kernel/src/chthreads.c" 1
 586 0012 62B6     		cpsie   i
 587              	@ 0 "" 2
 588              		.thumb
 589 0014 08BD     		pop	{r3, pc}
 590              	.L25:
 591 0016 00BF     		.align	2
 592              	.L24:
 593 0018 00000000 		.word	vtlist
 594              		.cfi_endproc
 595              	.LFE14:
 596              		.size	chThdSleepUntil, .-chThdSleepUntil
 597 001c AFF30080 		.section	.text.chThdYield,"ax",%progbits
 598              		.align	2
 599              		.p2align 4,,15
 600              		.global	chThdYield
 601              		.thumb
 602              		.thumb_func
 603              		.type	chThdYield, %function
 604              	chThdYield:
 605              	.LFB15:
 606              		.loc 1 324 0
 607              		.cfi_startproc
 608              		@ args = 0, pretend = 0, frame = 0
 609              		@ frame_needed = 0, uses_anonymous_args = 0
 610 0000 08B5     		push	{r3, lr}
 611              		.cfi_def_cfa_offset 8
 612              		.cfi_offset 3, -8
 613              		.cfi_offset 14, -4
 614              		.loc 1 326 0
 615              	@ 326 "ChibiOS_2.6.6/os/kernel/src/chthreads.c" 1
 616 0002 72B6     		cpsid   i
 617              	@ 0 "" 2
 618              		.loc 1 327 0
 619              		.thumb
 620 0004 054B     		ldr	r3, .L28
 621 0006 1A68     		ldr	r2, [r3]
 622 0008 9B69     		ldr	r3, [r3, #24]
 623 000a 9268     		ldr	r2, [r2, #8]
ARM GAS  C:\Users\jsyoon\AppData\Local\Temp\ccWNUfOW.s 			page 12


 624 000c 9B68     		ldr	r3, [r3, #8]
 625 000e 9A42     		cmp	r2, r3
 626 0010 01D3     		bcc	.L27
 627              		.loc 1 327 0 is_stmt 0 discriminator 1
 628 0012 FFF7FEFF 		bl	chSchDoRescheduleBehind
 629              	.LVL31:
 630              	.L27:
 631              		.loc 1 328 0 is_stmt 1
 632              	@ 328 "ChibiOS_2.6.6/os/kernel/src/chthreads.c" 1
 633 0016 62B6     		cpsie   i
 634              	@ 0 "" 2
 635              		.thumb
 636 0018 08BD     		pop	{r3, pc}
 637              	.L29:
 638 001a 00BF     		.align	2
 639              	.L28:
 640 001c 00000000 		.word	rlist
 641              		.cfi_endproc
 642              	.LFE15:
 643              		.size	chThdYield, .-chThdYield
 644              		.section	.text.chThdExitS,"ax",%progbits
 645              		.align	2
 646              		.p2align 4,,15
 647              		.global	chThdExitS
 648              		.thumb
 649              		.thumb_func
 650              		.type	chThdExitS, %function
 651              	chThdExitS:
 652              	.LFB17:
 653              		.loc 1 366 0
 654              		.cfi_startproc
 655              		@ args = 0, pretend = 0, frame = 0
 656              		@ frame_needed = 0, uses_anonymous_args = 0
 657              	.LVL32:
 658 0000 38B5     		push	{r3, r4, r5, lr}
 659              		.cfi_def_cfa_offset 16
 660              		.cfi_offset 3, -16
 661              		.cfi_offset 4, -12
 662              		.cfi_offset 5, -8
 663              		.cfi_offset 14, -4
 664              		.loc 1 367 0
 665 0002 0E4B     		ldr	r3, .L36
 666 0004 9C69     		ldr	r4, [r3, #24]
 667              	.LVL33:
 668              		.loc 1 374 0
 669 0006 2546     		mov	r5, r4
 670              		.loc 1 369 0
 671 0008 6062     		str	r0, [r4, #36]
 672              		.loc 1 374 0
 673 000a 55F8280F 		ldr	r0, [r5, #40]!
 674              	.LVL34:
 675 000e A842     		cmp	r0, r5
 676 0010 06D0     		beq	.L34
 677              	.LVL35:
 678              	.L35:
 679              	.LBB38:
 680              	.LBB39:
ARM GAS  C:\Users\jsyoon\AppData\Local\Temp\ccWNUfOW.s 			page 13


 681              		.file 2 "ChibiOS_2.6.6/os/kernel/include/chinline.h"
 682              		.loc 2 89 0
 683 0012 0368     		ldr	r3, [r0]
 684 0014 A362     		str	r3, [r4, #40]
 685              	.LBE39:
 686              	.LBE38:
 687              		.loc 1 375 0
 688 0016 FFF7FEFF 		bl	chSchReadyI
 689              	.LVL36:
 690              		.loc 1 374 0
 691 001a A06A     		ldr	r0, [r4, #40]
 692 001c A842     		cmp	r0, r5
 693 001e F8D1     		bne	.L35
 694              	.LVL37:
 695              	.L34:
 696              		.loc 1 380 0
 697 0020 637F     		ldrb	r3, [r4, #29]	@ zero_extendqisi2
 698 0022 9B07     		lsls	r3, r3, #30
 699 0024 04D1     		bne	.L33
 700              		.loc 1 381 0
 701 0026 6369     		ldr	r3, [r4, #20]
 702 0028 2269     		ldr	r2, [r4, #16]
 703 002a 1A61     		str	r2, [r3, #16]
 704 002c 2269     		ldr	r2, [r4, #16]
 705 002e 5361     		str	r3, [r2, #20]
 706              	.L33:
 707              		.loc 1 383 0
 708 0030 0E20     		movs	r0, #14
 709              		.loc 1 386 0
 710 0032 BDE83840 		pop	{r3, r4, r5, lr}
 711              	.LVL38:
 712              		.loc 1 383 0
 713 0036 FFF7FEBF 		b	chSchGoSleepS
 714              	.LVL39:
 715              	.L37:
 716 003a 00BF     		.align	2
 717              	.L36:
 718 003c 00000000 		.word	rlist
 719              		.cfi_endproc
 720              	.LFE17:
 721              		.size	chThdExitS, .-chThdExitS
 722              		.section	.text.chThdExit,"ax",%progbits
 723              		.align	2
 724              		.p2align 4,,15
 725              		.global	chThdExit
 726              		.thumb
 727              		.thumb_func
 728              		.type	chThdExit, %function
 729              	chThdExit:
 730              	.LFB16:
 731              		.loc 1 345 0
 732              		.cfi_startproc
 733              		@ args = 0, pretend = 0, frame = 0
 734              		@ frame_needed = 0, uses_anonymous_args = 0
 735              		@ link register save eliminated.
 736              	.LVL40:
 737              		.loc 1 347 0
ARM GAS  C:\Users\jsyoon\AppData\Local\Temp\ccWNUfOW.s 			page 14


 738              	@ 347 "ChibiOS_2.6.6/os/kernel/src/chthreads.c" 1
 739 0000 72B6     		cpsid   i
 740              	@ 0 "" 2
 741              		.loc 1 348 0
 742              		.thumb
 743 0002 FFF7FEBF 		b	chThdExitS
 744              	.LVL41:
 745              		.cfi_endproc
 746              	.LFE16:
 747              		.size	chThdExit, .-chThdExit
 748 0006 00BFAFF3 		.section	.text.chThdWait,"ax",%progbits
 748      0080AFF3 
 748      0080
 749              		.align	2
 750              		.p2align 4,,15
 751              		.global	chThdWait
 752              		.thumb
 753              		.thumb_func
 754              		.type	chThdWait, %function
 755              	chThdWait:
 756              	.LFB18:
 757              		.loc 1 420 0
 758              		.cfi_startproc
 759              		@ args = 0, pretend = 0, frame = 0
 760              		@ frame_needed = 0, uses_anonymous_args = 0
 761              	.LVL42:
 762 0000 38B5     		push	{r3, r4, r5, lr}
 763              		.cfi_def_cfa_offset 16
 764              		.cfi_offset 3, -16
 765              		.cfi_offset 4, -12
 766              		.cfi_offset 5, -8
 767              		.cfi_offset 14, -4
 768              		.loc 1 420 0
 769 0002 0446     		mov	r4, r0
 770              		.loc 1 425 0
 771              	@ 425 "ChibiOS_2.6.6/os/kernel/src/chthreads.c" 1
 772 0004 72B6     		cpsid   i
 773              	@ 0 "" 2
 774              		.loc 1 430 0
 775              		.thumb
 776 0006 037F     		ldrb	r3, [r0, #28]	@ zero_extendqisi2
 777 0008 0E2B     		cmp	r3, #14
 778 000a 07D0     		beq	.L40
 779              		.loc 1 431 0
 780 000c 074B     		ldr	r3, .L44
 781              	.LBB40:
 782              	.LBB41:
 783              		.loc 2 82 0
 784 000e 826A     		ldr	r2, [r0, #40]
 785              	.LBE41:
 786              	.LBE40:
 787              		.loc 1 431 0
 788 0010 9B69     		ldr	r3, [r3, #24]
 789              	.LVL43:
 790              		.loc 1 432 0
 791 0012 0720     		movs	r0, #7
 792              	.LVL44:
ARM GAS  C:\Users\jsyoon\AppData\Local\Temp\ccWNUfOW.s 			page 15


 793              	.LBB43:
 794              	.LBB42:
 795              		.loc 2 82 0
 796 0014 1A60     		str	r2, [r3]
 797              		.loc 2 83 0
 798 0016 A362     		str	r3, [r4, #40]
 799              	.LBE42:
 800              	.LBE43:
 801              		.loc 1 432 0
 802 0018 FFF7FEFF 		bl	chSchGoSleepS
 803              	.LVL45:
 804              	.L40:
 805              		.loc 1 434 0
 806 001c 656A     		ldr	r5, [r4, #36]
 807              	.LVL46:
 808              		.loc 1 435 0
 809              	@ 435 "ChibiOS_2.6.6/os/kernel/src/chthreads.c" 1
 810 001e 62B6     		cpsie   i
 811              	@ 0 "" 2
 812              		.loc 1 437 0
 813              		.thumb
 814 0020 2046     		mov	r0, r4
 815 0022 FFF7FEFF 		bl	chThdRelease
 816              	.LVL47:
 817              		.loc 1 440 0
 818 0026 2846     		mov	r0, r5
 819 0028 38BD     		pop	{r3, r4, r5, pc}
 820              	.LVL48:
 821              	.L45:
 822 002a 00BF     		.align	2
 823              	.L44:
 824 002c 00000000 		.word	rlist
 825              		.cfi_endproc
 826              	.LFE18:
 827              		.size	chThdWait, .-chThdWait
 828              		.text
 829              	.Letext0:
 830              		.file 3 "c:\\crosstools\\gcc-arm-embedded\\4.8_2014q2\\lib\\gcc\\arm-none-eabi\\4.8.4\\include\\st
 831              		.file 4 "c:\\crosstools\\gcc-arm-embedded\\4.8_2014q2\\arm-none-eabi\\include\\machine\\_default_t
 832              		.file 5 "c:\\crosstools\\gcc-arm-embedded\\4.8_2014q2\\arm-none-eabi\\include\\stdint.h"
 833              		.file 6 "ChibiOS_2.6.6/os/ports/GCC/ARMCMx/chtypes.h"
 834              		.file 7 "ChibiOS_2.6.6/os/kernel/include/chlists.h"
 835              		.file 8 "ChibiOS_2.6.6/os/kernel/include/chthreads.h"
 836              		.file 9 "ChibiOS_2.6.6/os/ports/GCC/ARMCMx/chcore_v7m.h"
 837              		.file 10 "ChibiOS_2.6.6/os/kernel/include/chvt.h"
 838              		.file 11 "ChibiOS_2.6.6/os/kernel/include/chschd.h"
 839              		.file 12 "ChibiOS_2.6.6/os/kernel/include/chmtx.h"
 840              		.file 13 "ChibiOS_2.6.6/os/kernel/include/chdynamic.h"