ARM GAS  C:\Users\jsyoon\AppData\Local\Temp\ccWY3jAf.s 			page 1


   1              		.syntax unified
   2              		.cpu cortex-m4
   3              		.eabi_attribute 27, 3
   4              		.eabi_attribute 28, 1
   5              		.fpu fpv4-sp-d16
   6              		.eabi_attribute 20, 1
   7              		.eabi_attribute 21, 1
   8              		.eabi_attribute 23, 3
   9              		.eabi_attribute 24, 1
  10              		.eabi_attribute 25, 1
  11              		.eabi_attribute 26, 1
  12              		.eabi_attribute 30, 2
  13              		.eabi_attribute 34, 1
  14              		.eabi_attribute 18, 4
  15              		.thumb
  16              		.file	"comm_usb.c"
  17              		.text
  18              	.Ltext0:
  19              		.cfi_sections	.debug_frame
  20              		.section	.text.serial_process_thread,"ax",%progbits
  21              		.align	2
  22              		.p2align 4,,15
  23              		.thumb
  24              		.thumb_func
  25              		.type	serial_process_thread, %function
  26              	serial_process_thread:
  27              	.LFB119:
  28              		.file 1 "comm_usb.c"
  29              		.loc 1 82 0
  30              		.cfi_startproc
  31              		@ args = 0, pretend = 0, frame = 0
  32              		@ frame_needed = 0, uses_anonymous_args = 0
  33              	.LVL0:
  34 0000 2DE9F843 		push	{r3, r4, r5, r6, r7, r8, r9, lr}
  35              		.cfi_def_cfa_offset 32
  36              		.cfi_offset 3, -32
  37              		.cfi_offset 4, -28
  38              		.cfi_offset 5, -24
  39              		.cfi_offset 6, -20
  40              		.cfi_offset 7, -16
  41              		.cfi_offset 8, -12
  42              		.cfi_offset 9, -8
  43              		.cfi_offset 14, -4
  44              		.loc 1 85 0
  45 0004 114B     		ldr	r3, .L8
  46              		.loc 1 87 0
  47 0006 124A     		ldr	r2, .L8+4
  48              		.loc 1 85 0
  49 0008 9B69     		ldr	r3, [r3, #24]
  50 000a 124C     		ldr	r4, .L8+8
  51 000c 1249     		ldr	r1, .L8+12
  52 000e 134E     		ldr	r6, .L8+16
  53 0010 DFF84C90 		ldr	r9, .L8+20
  54 0014 9961     		str	r1, [r3, #24]
  55              		.loc 1 87 0
  56 0016 1360     		str	r3, [r2]
  57              		.loc 1 93 0
ARM GAS  C:\Users\jsyoon\AppData\Local\Temp\ccWY3jAf.s 			page 2


  58 0018 A046     		mov	r8, r4
  59              	.LVL1:
  60              	.L6:
  61              		.loc 1 90 0
  62 001a 0120     		movs	r0, #1
  63 001c FFF7FEFF 		bl	chEvtWaitAny
  64              	.LVL2:
  65              		.loc 1 93 0
  66 0020 0027     		movs	r7, #0
  67              	.L2:
  68 0022 2368     		ldr	r3, [r4]
  69              	.L4:
  70              		.loc 1 92 0 discriminator 1
  71 0024 D9F80020 		ldr	r2, [r9]
  72 0028 9A42     		cmp	r2, r3
  73              		.loc 1 93 0 discriminator 1
  74 002a 03F10105 		add	r5, r3, #1
  75 002e 4FF00001 		mov	r1, #0
  76              		.loc 1 92 0 discriminator 1
  77 0032 F2D0     		beq	.L6
  78              		.loc 1 93 0
  79 0034 F05C     		ldrb	r0, [r6, r3]	@ zero_extendqisi2
  80 0036 2560     		str	r5, [r4]
  81 0038 FFF7FEFF 		bl	packet_process_byte
  82              	.LVL3:
  83              		.loc 1 95 0
  84 003c 2368     		ldr	r3, [r4]
  85 003e B3F5006F 		cmp	r3, #2048
  86 0042 EFD1     		bne	.L4
  87              		.loc 1 96 0
  88 0044 C8F80070 		str	r7, [r8]
  89 0048 EBE7     		b	.L2
  90              	.L9:
  91 004a 00BF     		.align	2
  92              	.L8:
  93 004c 00000000 		.word	rlist
  94 0050 00000000 		.word	.LANCHOR0
  95 0054 00000000 		.word	.LANCHOR1
  96 0058 00000000 		.word	.LC0
  97 005c 00000000 		.word	.LANCHOR2
  98 0060 00000000 		.word	.LANCHOR3
  99              		.cfi_endproc
 100              	.LFE119:
 101              		.size	serial_process_thread, .-serial_process_thread
 102 0064 AFF30080 		.section	.text.serial_read_thread,"ax",%progbits
 102      AFF30080 
 102      AFF30080 
 103              		.align	2
 104              		.p2align 4,,15
 105              		.thumb
 106              		.thumb_func
 107              		.type	serial_read_thread, %function
 108              	serial_read_thread:
 109              	.LFB118:
 110              		.loc 1 50 0
 111              		.cfi_startproc
 112              		@ args = 0, pretend = 0, frame = 128
ARM GAS  C:\Users\jsyoon\AppData\Local\Temp\ccWY3jAf.s 			page 3


 113              		@ frame_needed = 0, uses_anonymous_args = 0
 114              	.LVL4:
 115 0000 2DE9F041 		push	{r4, r5, r6, r7, r8, lr}
 116              		.cfi_def_cfa_offset 24
 117              		.cfi_offset 4, -24
 118              		.cfi_offset 5, -20
 119              		.cfi_offset 6, -16
 120              		.cfi_offset 7, -12
 121              		.cfi_offset 8, -8
 122              		.cfi_offset 14, -4
 123              		.loc 1 53 0
 124 0004 134B     		ldr	r3, .L19
 125 0006 144A     		ldr	r2, .L19+4
 126 0008 9B69     		ldr	r3, [r3, #24]
 127 000a 144E     		ldr	r6, .L19+8
 128 000c 144D     		ldr	r5, .L19+12
 129 000e DFF85880 		ldr	r8, .L19+20
 130 0012 144F     		ldr	r7, .L19+16
 131 0014 9A61     		str	r2, [r3, #24]
 132              	.LVL5:
 133              		.loc 1 50 0
 134 0016 A0B0     		sub	sp, sp, #128
 135              		.cfi_def_cfa_offset 152
 136              	.LVL6:
 137              	.L12:
 138              		.loc 1 61 0
 139 0018 3368     		ldr	r3, [r6]
 140 001a 1048     		ldr	r0, .L19+8
 141 001c 5B68     		ldr	r3, [r3, #4]
 142 001e 6946     		mov	r1, sp
 143 0020 0122     		movs	r2, #1
 144 0022 9847     		blx	r3
 145              	.LVL7:
 146              		.loc 1 63 0
 147 0024 0028     		cmp	r0, #0
 148 0026 F7DD     		ble	.L12
 149 0028 2A68     		ldr	r2, [r5]
 150 002a 0023     		movs	r3, #0
 151              	.LVL8:
 152              	.L15:
 153              		.loc 1 64 0
 154 002c 511C     		adds	r1, r2, #1
 155              		.loc 1 66 0
 156 002e B1F5006F 		cmp	r1, #2048
 157              		.loc 1 64 0
 158 0032 1DF80340 		ldrb	r4, [sp, r3]	@ zero_extendqisi2
 159 0036 08F80240 		strb	r4, [r8, r2]
 160              		.loc 1 63 0
 161 003a 03F10103 		add	r3, r3, #1
 162              	.LVL9:
 163              		.loc 1 66 0
 164 003e 14BF     		ite	ne
 165 0040 0A46     		movne	r2, r1
 166 0042 0022     		moveq	r2, #0
 167              	.LVL10:
 168              		.loc 1 63 0
 169 0044 8342     		cmp	r3, r0
ARM GAS  C:\Users\jsyoon\AppData\Local\Temp\ccWY3jAf.s 			page 4


 170 0046 F1DB     		blt	.L15
 171              		.loc 1 74 0
 172 0048 3868     		ldr	r0, [r7]
 173              	.LVL11:
 174 004a 2A60     		str	r2, [r5]
 175 004c 0121     		movs	r1, #1
 176 004e FFF7FEFF 		bl	chEvtSignal
 177              	.LVL12:
 178 0052 E1E7     		b	.L12
 179              	.L20:
 180              		.align	2
 181              	.L19:
 182 0054 00000000 		.word	rlist
 183 0058 14000000 		.word	.LC1
 184 005c 00000000 		.word	SDU1
 185 0060 00000000 		.word	.LANCHOR3
 186 0064 00000000 		.word	.LANCHOR0
 187 0068 00000000 		.word	.LANCHOR2
 188              		.cfi_endproc
 189              	.LFE118:
 190              		.size	serial_read_thread, .-serial_read_thread
 191 006c AFF30080 		.section	.text.process_packet,"ax",%progbits
 192              		.align	2
 193              		.p2align 4,,15
 194              		.thumb
 195              		.thumb_func
 196              		.type	process_packet, %function
 197              	process_packet:
 198              	.LFB120:
 199              		.loc 1 104 0
 200              		.cfi_startproc
 201              		@ args = 0, pretend = 0, frame = 0
 202              		@ frame_needed = 0, uses_anonymous_args = 0
 203              	.LVL13:
 204 0000 38B5     		push	{r3, r4, r5, lr}
 205              		.cfi_def_cfa_offset 16
 206              		.cfi_offset 3, -16
 207              		.cfi_offset 4, -12
 208              		.cfi_offset 5, -8
 209              		.cfi_offset 14, -4
 210              		.loc 1 104 0
 211 0002 0446     		mov	r4, r0
 212 0004 0D46     		mov	r5, r1
 213              		.loc 1 105 0
 214 0006 0448     		ldr	r0, .L22
 215              	.LVL14:
 216 0008 FFF7FEFF 		bl	commands_set_send_func
 217              	.LVL15:
 218              		.loc 1 106 0
 219 000c 2046     		mov	r0, r4
 220 000e 2946     		mov	r1, r5
 221              		.loc 1 107 0
 222 0010 BDE83840 		pop	{r3, r4, r5, lr}
 223              	.LVL16:
 224              		.loc 1 106 0
 225 0014 FFF7FEBF 		b	commands_process_packet
 226              	.LVL17:
ARM GAS  C:\Users\jsyoon\AppData\Local\Temp\ccWY3jAf.s 			page 5


 227              	.L23:
 228              		.align	2
 229              	.L22:
 230 0018 00000000 		.word	send_packet_wrapper
 231              		.cfi_endproc
 232              	.LFE120:
 233              		.size	process_packet, .-process_packet
 234 001c AFF30080 		.section	.text.send_packet_wrapper,"ax",%progbits
 235              		.align	2
 236              		.p2align 4,,15
 237              		.thumb
 238              		.thumb_func
 239              		.type	send_packet_wrapper, %function
 240              	send_packet_wrapper:
 241              	.LFB121:
 242              		.loc 1 109 0
 243              		.cfi_startproc
 244              		@ args = 0, pretend = 0, frame = 0
 245              		@ frame_needed = 0, uses_anonymous_args = 0
 246              		@ link register save eliminated.
 247              	.LVL18:
 248              		.loc 1 110 0
 249 0000 0022     		movs	r2, #0
 250 0002 FFF7FEBF 		b	packet_send_packet
 251              	.LVL19:
 252              		.cfi_endproc
 253              	.LFE121:
 254              		.size	send_packet_wrapper, .-send_packet_wrapper
 255 0006 00BFAFF3 		.section	.text.send_packet,"ax",%progbits
 255      0080AFF3 
 255      0080
 256              		.align	2
 257              		.p2align 4,,15
 258              		.thumb
 259              		.thumb_func
 260              		.type	send_packet, %function
 261              	send_packet:
 262              	.LFB122:
 263              		.loc 1 113 0
 264              		.cfi_startproc
 265              		@ args = 0, pretend = 0, frame = 0
 266              		@ frame_needed = 0, uses_anonymous_args = 0
 267              	.LVL20:
 268 0000 70B5     		push	{r4, r5, r6, lr}
 269              		.cfi_def_cfa_offset 16
 270              		.cfi_offset 4, -16
 271              		.cfi_offset 5, -12
 272              		.cfi_offset 6, -8
 273              		.cfi_offset 14, -4
 274              		.loc 1 113 0
 275 0002 0646     		mov	r6, r0
 276              		.loc 1 114 0
 277 0004 0648     		ldr	r0, .L26
 278              	.LVL21:
 279              		.loc 1 113 0
 280 0006 0D46     		mov	r5, r1
 281              		.loc 1 114 0
ARM GAS  C:\Users\jsyoon\AppData\Local\Temp\ccWY3jAf.s 			page 6


 282 0008 FFF7FEFF 		bl	chMtxLock
 283              	.LVL22:
 284              		.loc 1 115 0
 285 000c 0548     		ldr	r0, .L26+4
 286 000e 0468     		ldr	r4, [r0]
 287 0010 3146     		mov	r1, r6
 288 0012 2A46     		mov	r2, r5
 289 0014 2468     		ldr	r4, [r4]
 290 0016 A047     		blx	r4
 291              	.LVL23:
 292              		.loc 1 117 0
 293 0018 BDE87040 		pop	{r4, r5, r6, lr}
 294              	.LVL24:
 295              		.loc 1 116 0
 296 001c FFF7FEBF 		b	chMtxUnlock
 297              	.LVL25:
 298              	.L27:
 299              		.align	2
 300              	.L26:
 301 0020 00000000 		.word	.LANCHOR4
 302 0024 00000000 		.word	SDU1
 303              		.cfi_endproc
 304              	.LFE122:
 305              		.size	send_packet, .-send_packet
 306 0028 AFF30080 		.section	.text.comm_usb_init,"ax",%progbits
 306      AFF30080 
 307              		.align	2
 308              		.p2align 4,,15
 309              		.global	comm_usb_init
 310              		.thumb
 311              		.thumb_func
 312              		.type	comm_usb_init, %function
 313              	comm_usb_init:
 314              	.LFB123:
 315              		.loc 1 119 0
 316              		.cfi_startproc
 317              		@ args = 0, pretend = 0, frame = 0
 318              		@ frame_needed = 0, uses_anonymous_args = 0
 319 0000 10B5     		push	{r4, lr}
 320              		.cfi_def_cfa_offset 8
 321              		.cfi_offset 4, -8
 322              		.cfi_offset 14, -4
 323 0002 82B0     		sub	sp, sp, #8
 324              		.cfi_def_cfa_offset 16
 325              		.loc 1 120 0
 326 0004 FFF7FEFF 		bl	myUSBinit
 327              	.LVL26:
 328              		.loc 1 121 0
 329 0008 0D49     		ldr	r1, .L29
 330 000a 0E48     		ldr	r0, .L29+4
 331 000c 0022     		movs	r2, #0
 332 000e FFF7FEFF 		bl	packet_init
 333              	.LVL27:
 334              		.loc 1 126 0
 335 0012 0024     		movs	r4, #0
 336              		.loc 1 123 0
 337 0014 0C48     		ldr	r0, .L29+8
ARM GAS  C:\Users\jsyoon\AppData\Local\Temp\ccWY3jAf.s 			page 7


 338 0016 FFF7FEFF 		bl	chMtxInit
 339              	.LVL28:
 340              		.loc 1 126 0
 341 001a 0094     		str	r4, [sp]
 342 001c 0B4B     		ldr	r3, .L29+12
 343 001e 0C48     		ldr	r0, .L29+16
 344 0020 4FF46671 		mov	r1, #920
 345 0024 4022     		movs	r2, #64
 346 0026 FFF7FEFF 		bl	chThdCreateStatic
 347              	.LVL29:
 348              		.loc 1 127 0
 349 002a 0094     		str	r4, [sp]
 350 002c 094B     		ldr	r3, .L29+20
 351 002e 0A48     		ldr	r0, .L29+24
 352 0030 41F29811 		movw	r1, #4504
 353 0034 4022     		movs	r2, #64
 354 0036 FFF7FEFF 		bl	chThdCreateStatic
 355              	.LVL30:
 356              		.loc 1 128 0
 357 003a 02B0     		add	sp, sp, #8
 358              		@ sp needed
 359 003c 10BD     		pop	{r4, pc}
 360              	.L30:
 361 003e 00BF     		.align	2
 362              	.L29:
 363 0040 00000000 		.word	process_packet
 364 0044 00000000 		.word	send_packet
 365 0048 00000000 		.word	.LANCHOR4
 366 004c 00000000 		.word	serial_read_thread
 367 0050 00000000 		.word	.LANCHOR5
 368 0054 00000000 		.word	serial_process_thread
 369 0058 00000000 		.word	.LANCHOR6
 370              		.cfi_endproc
 371              	.LFE123:
 372              		.size	comm_usb_init, .-comm_usb_init
 373 005c AFF30080 		.section	.bss.serial_rx_write_pos,"aw",%nobits
 374              		.align	2
 375              		.set	.LANCHOR3,. + 0
 376              		.type	serial_rx_write_pos, %object
 377              		.size	serial_rx_write_pos, 4
 378              	serial_rx_write_pos:
 379 0000 00000000 		.space	4
 380              		.section	.bss.send_mutex,"aw",%nobits
 381              		.align	2
 382              		.set	.LANCHOR4,. + 0
 383              		.type	send_mutex, %object
 384              		.size	send_mutex, 16
 385              	send_mutex:
 386 0000 00000000 		.space	16
 386      00000000 
 386      00000000 
 386      00000000 
 387              		.section	.bss.serial_process_thread_wa,"aw",%nobits
 388              		.align	3
 389              		.set	.LANCHOR6,. + 0
 390              		.type	serial_process_thread_wa, %object
 391              		.size	serial_process_thread_wa, 4504
ARM GAS  C:\Users\jsyoon\AppData\Local\Temp\ccWY3jAf.s 			page 8


 392              	serial_process_thread_wa:
 393 0000 00000000 		.space	4504
 393      00000000 
 393      00000000 
 393      00000000 
 393      00000000 
 394              		.section	.bss.serial_rx_buffer,"aw",%nobits
 395              		.align	2
 396              		.set	.LANCHOR2,. + 0
 397              		.type	serial_rx_buffer, %object
 398              		.size	serial_rx_buffer, 2048
 399              	serial_rx_buffer:
 400 0000 00000000 		.space	2048
 400      00000000 
 400      00000000 
 400      00000000 
 400      00000000 
 401              		.section	.rodata.str1.4,"aMS",%progbits,1
 402              		.align	2
 403              	.LC0:
 404 0000 5553422D 		.ascii	"USB-Serial process\000"
 404      53657269 
 404      616C2070 
 404      726F6365 
 404      737300
 405 0013 00       		.space	1
 406              	.LC1:
 407 0014 5553422D 		.ascii	"USB-Serial read\000"
 407      53657269 
 407      616C2072 
 407      65616400 
 408              		.section	.bss.serial_read_thread_wa,"aw",%nobits
 409              		.align	3
 410              		.set	.LANCHOR5,. + 0
 411              		.type	serial_read_thread_wa, %object
 412              		.size	serial_read_thread_wa, 920
 413              	serial_read_thread_wa:
 414 0000 00000000 		.space	920
 414      00000000 
 414      00000000 
 414      00000000 
 414      00000000 
 415              		.section	.bss.serial_rx_read_pos,"aw",%nobits
 416              		.align	2
 417              		.set	.LANCHOR1,. + 0
 418              		.type	serial_rx_read_pos, %object
 419              		.size	serial_rx_read_pos, 4
 420              	serial_rx_read_pos:
 421 0000 00000000 		.space	4
 422              		.section	.bss.process_tp,"aw",%nobits
 423              		.align	2
 424              		.set	.LANCHOR0,. + 0
 425              		.type	process_tp, %object
 426              		.size	process_tp, 4
 427              	process_tp:
 428 0000 00000000 		.space	4
 429              		.text
ARM GAS  C:\Users\jsyoon\AppData\Local\Temp\ccWY3jAf.s 			page 9


 430              	.Letext0:
 431              		.file 2 "c:\\crosstools\\gcc-arm-embedded\\4.8_2014q2\\lib\\gcc\\arm-none-eabi\\4.8.4\\include\\st
 432              		.file 3 "c:\\crosstools\\gcc-arm-embedded\\4.8_2014q2\\arm-none-eabi\\include\\machine\\_default_t
 433              		.file 4 "c:\\crosstools\\gcc-arm-embedded\\4.8_2014q2\\arm-none-eabi\\include\\stdint.h"
 434              		.file 5 "ChibiOS_2.6.6/os/ports/GCC/ARMCMx/chtypes.h"
 435              		.file 6 "ChibiOS_2.6.6/os/kernel/include/chlists.h"
 436              		.file 7 "ChibiOS_2.6.6/os/kernel/include/chthreads.h"
 437              		.file 8 "ChibiOS_2.6.6/os/ports/GCC/ARMCMx/chcore_v7m.h"
 438              		.file 9 "ChibiOS_2.6.6/os/kernel/include/chschd.h"
 439              		.file 10 "ChibiOS_2.6.6/os/kernel/include/chmtx.h"
 440              		.file 11 "ChibiOS_2.6.6/os/kernel/include/chevents.h"
 441              		.file 12 "ChibiOS_2.6.6/os/kernel/include/chqueues.h"
 442              		.file 13 "ChibiOS_2.6.6/os/hal/include/usb.h"
 443              		.file 14 "ChibiOS_2.6.6/os/hal/platforms/STM32/OTGv1/usb_lld.h"
 444              		.file 15 "ChibiOS_2.6.6/os/hal/platforms/STM32/OTGv1/stm32_otg.h"
 445              		.file 16 "ChibiOS_2.6.6/os/hal/include/serial_usb.h"
 446              		.file 17 "ChibiOS_2.6.6/os/ports/common/ARMCMx/CMSIS/include/core_cm4.h"
 447              		.file 18 "myUSB.h"
 448              		.file 19 "packet.h"
 449              		.file 20 "commands.h"
 450              		.section	.debug_info,"",%progbits
 451              	.Ldebug_info0:
 452 0000 83180000 		.4byte	0x1883
 453 0004 0400     		.2byte	0x4
 454 0006 00000000 		.4byte	.Ldebug_abbrev0
 455 000a 04       		.byte	0x4
 456 000b 01       		.uleb128 0x1
 457 000c BF050000 		.4byte	.LASF304
 458 0010 01       		.byte	0x1
 459 0011 BC080000 		.4byte	.LASF305
 460 0015 54070000 		.4byte	.LASF306
 461 0019 00000000 		.4byte	.Ldebug_ranges0+0
 462 001d 00000000 		.4byte	0
 463 0021 00000000 		.4byte	.Ldebug_line0
 464 0025 02       		.uleb128 0x2
 465 0026 04       		.byte	0x4
 466 0027 05       		.byte	0x5
 467 0028 696E7400 		.ascii	"int\000"
 468 002c 03       		.uleb128 0x3
 469 002d F5030000 		.4byte	.LASF2
 470 0031 02       		.byte	0x2
 471 0032 D4       		.byte	0xd4
 472 0033 37000000 		.4byte	0x37
 473 0037 04       		.uleb128 0x4
 474 0038 04       		.byte	0x4
 475 0039 07       		.byte	0x7
 476 003a 08010000 		.4byte	.LASF0
 477 003e 04       		.uleb128 0x4
 478 003f 01       		.byte	0x1
 479 0040 06       		.byte	0x6
 480 0041 69020000 		.4byte	.LASF1
 481 0045 03       		.uleb128 0x3
 482 0046 E7090000 		.4byte	.LASF3
 483 004a 03       		.byte	0x3
 484 004b 1C       		.byte	0x1c
 485 004c 50000000 		.4byte	0x50
 486 0050 04       		.uleb128 0x4
ARM GAS  C:\Users\jsyoon\AppData\Local\Temp\ccWY3jAf.s 			page 10


 487 0051 01       		.byte	0x1
 488 0052 08       		.byte	0x8
 489 0053 FC0A0000 		.4byte	.LASF4
 490 0057 04       		.uleb128 0x4
 491 0058 02       		.byte	0x2
 492 0059 05       		.byte	0x5
 493 005a 1F000000 		.4byte	.LASF5
 494 005e 03       		.uleb128 0x3
 495 005f 67030000 		.4byte	.LASF6
 496 0063 03       		.byte	0x3
 497 0064 26       		.byte	0x26
 498 0065 69000000 		.4byte	0x69
 499 0069 04       		.uleb128 0x4
 500 006a 02       		.byte	0x2
 501 006b 07       		.byte	0x7
 502 006c 6A0C0000 		.4byte	.LASF7
 503 0070 03       		.uleb128 0x3
 504 0071 D9040000 		.4byte	.LASF8
 505 0075 03       		.byte	0x3
 506 0076 37       		.byte	0x37
 507 0077 7B000000 		.4byte	0x7b
 508 007b 04       		.uleb128 0x4
 509 007c 04       		.byte	0x4
 510 007d 05       		.byte	0x5
 511 007e 53090000 		.4byte	.LASF9
 512 0082 03       		.uleb128 0x3
 513 0083 1A0B0000 		.4byte	.LASF10
 514 0087 03       		.byte	0x3
 515 0088 38       		.byte	0x38
 516 0089 8D000000 		.4byte	0x8d
 517 008d 04       		.uleb128 0x4
 518 008e 04       		.byte	0x4
 519 008f 07       		.byte	0x7
 520 0090 890A0000 		.4byte	.LASF11
 521 0094 04       		.uleb128 0x4
 522 0095 08       		.byte	0x8
 523 0096 05       		.byte	0x5
 524 0097 EE060000 		.4byte	.LASF12
 525 009b 03       		.uleb128 0x3
 526 009c 4C040000 		.4byte	.LASF13
 527 00a0 03       		.byte	0x3
 528 00a1 4E       		.byte	0x4e
 529 00a2 A6000000 		.4byte	0xa6
 530 00a6 04       		.uleb128 0x4
 531 00a7 08       		.byte	0x8
 532 00a8 07       		.byte	0x7
 533 00a9 00030000 		.4byte	.LASF14
 534 00ad 03       		.uleb128 0x3
 535 00ae 40050000 		.4byte	.LASF15
 536 00b2 04       		.byte	0x4
 537 00b3 2A       		.byte	0x2a
 538 00b4 45000000 		.4byte	0x45
 539 00b8 03       		.uleb128 0x3
 540 00b9 AB080000 		.4byte	.LASF16
 541 00bd 04       		.byte	0x4
 542 00be 36       		.byte	0x36
 543 00bf 5E000000 		.4byte	0x5e
ARM GAS  C:\Users\jsyoon\AppData\Local\Temp\ccWY3jAf.s 			page 11


 544 00c3 03       		.uleb128 0x3
 545 00c4 D50A0000 		.4byte	.LASF17
 546 00c8 04       		.byte	0x4
 547 00c9 41       		.byte	0x41
 548 00ca 70000000 		.4byte	0x70
 549 00ce 03       		.uleb128 0x3
 550 00cf 85020000 		.4byte	.LASF18
 551 00d3 04       		.byte	0x4
 552 00d4 42       		.byte	0x42
 553 00d5 82000000 		.4byte	0x82
 554 00d9 03       		.uleb128 0x3
 555 00da C5090000 		.4byte	.LASF19
 556 00de 04       		.byte	0x4
 557 00df 4E       		.byte	0x4e
 558 00e0 9B000000 		.4byte	0x9b
 559 00e4 03       		.uleb128 0x3
 560 00e5 84070000 		.4byte	.LASF20
 561 00e9 05       		.byte	0x5
 562 00ea 2B       		.byte	0x2b
 563 00eb EF000000 		.4byte	0xef
 564 00ef 04       		.uleb128 0x4
 565 00f0 01       		.byte	0x1
 566 00f1 02       		.byte	0x2
 567 00f2 1A040000 		.4byte	.LASF21
 568 00f6 03       		.uleb128 0x3
 569 00f7 60080000 		.4byte	.LASF22
 570 00fb 05       		.byte	0x5
 571 00fc 2C       		.byte	0x2c
 572 00fd AD000000 		.4byte	0xad
 573 0101 03       		.uleb128 0x3
 574 0102 0B050000 		.4byte	.LASF23
 575 0106 05       		.byte	0x5
 576 0107 2D       		.byte	0x2d
 577 0108 AD000000 		.4byte	0xad
 578 010c 03       		.uleb128 0x3
 579 010d 730A0000 		.4byte	.LASF24
 580 0111 05       		.byte	0x5
 581 0112 2E       		.byte	0x2e
 582 0113 AD000000 		.4byte	0xad
 583 0117 03       		.uleb128 0x3
 584 0118 FE070000 		.4byte	.LASF25
 585 011c 05       		.byte	0x5
 586 011d 2F       		.byte	0x2f
 587 011e AD000000 		.4byte	0xad
 588 0122 03       		.uleb128 0x3
 589 0123 D1020000 		.4byte	.LASF26
 590 0127 05       		.byte	0x5
 591 0128 30       		.byte	0x30
 592 0129 CE000000 		.4byte	0xce
 593 012d 03       		.uleb128 0x3
 594 012e 31070000 		.4byte	.LASF27
 595 0132 05       		.byte	0x5
 596 0133 31       		.byte	0x31
 597 0134 C3000000 		.4byte	0xc3
 598 0138 03       		.uleb128 0x3
 599 0139 97020000 		.4byte	.LASF28
 600 013d 05       		.byte	0x5
ARM GAS  C:\Users\jsyoon\AppData\Local\Temp\ccWY3jAf.s 			page 12


 601 013e 33       		.byte	0x33
 602 013f CE000000 		.4byte	0xce
 603 0143 03       		.uleb128 0x3
 604 0144 95050000 		.4byte	.LASF29
 605 0148 05       		.byte	0x5
 606 0149 34       		.byte	0x34
 607 014a CE000000 		.4byte	0xce
 608 014e 03       		.uleb128 0x3
 609 014f AE000000 		.4byte	.LASF30
 610 0153 05       		.byte	0x5
 611 0154 35       		.byte	0x35
 612 0155 CE000000 		.4byte	0xce
 613 0159 03       		.uleb128 0x3
 614 015a 04050000 		.4byte	.LASF31
 615 015e 06       		.byte	0x6
 616 015f 2A       		.byte	0x2a
 617 0160 64010000 		.4byte	0x164
 618 0164 05       		.uleb128 0x5
 619 0165 04050000 		.4byte	.LASF31
 620 0169 48       		.byte	0x48
 621 016a 07       		.byte	0x7
 622 016b 5E       		.byte	0x5e
 623 016c 61020000 		.4byte	0x261
 624 0170 06       		.uleb128 0x6
 625 0171 AF090000 		.4byte	.LASF32
 626 0175 07       		.byte	0x7
 627 0176 5F       		.byte	0x5f
 628 0177 82020000 		.4byte	0x282
 629 017b 00       		.byte	0
 630 017c 06       		.uleb128 0x6
 631 017d 98090000 		.4byte	.LASF33
 632 0181 07       		.byte	0x7
 633 0182 61       		.byte	0x61
 634 0183 82020000 		.4byte	0x282
 635 0187 04       		.byte	0x4
 636 0188 06       		.uleb128 0x6
 637 0189 50000000 		.4byte	.LASF34
 638 018d 07       		.byte	0x7
 639 018e 63       		.byte	0x63
 640 018f 22010000 		.4byte	0x122
 641 0193 08       		.byte	0x8
 642 0194 06       		.uleb128 0x6
 643 0195 CE090000 		.4byte	.LASF35
 644 0199 07       		.byte	0x7
 645 019a 64       		.byte	0x64
 646 019b 17040000 		.4byte	0x417
 647 019f 0C       		.byte	0xc
 648 01a0 06       		.uleb128 0x6
 649 01a1 79030000 		.4byte	.LASF36
 650 01a5 07       		.byte	0x7
 651 01a6 66       		.byte	0x66
 652 01a7 82020000 		.4byte	0x282
 653 01ab 10       		.byte	0x10
 654 01ac 06       		.uleb128 0x6
 655 01ad 21050000 		.4byte	.LASF37
 656 01b1 07       		.byte	0x7
 657 01b2 67       		.byte	0x67
ARM GAS  C:\Users\jsyoon\AppData\Local\Temp\ccWY3jAf.s 			page 13


 658 01b3 82020000 		.4byte	0x282
 659 01b7 14       		.byte	0x14
 660 01b8 06       		.uleb128 0x6
 661 01b9 99040000 		.4byte	.LASF38
 662 01bd 07       		.byte	0x7
 663 01be 6E       		.byte	0x6e
 664 01bf 8E050000 		.4byte	0x58e
 665 01c3 18       		.byte	0x18
 666 01c4 06       		.uleb128 0x6
 667 01c5 29050000 		.4byte	.LASF39
 668 01c9 07       		.byte	0x7
 669 01ca 79       		.byte	0x79
 670 01cb 01010000 		.4byte	0x101
 671 01cf 1C       		.byte	0x1c
 672 01d0 06       		.uleb128 0x6
 673 01d1 D1040000 		.4byte	.LASF40
 674 01d5 07       		.byte	0x7
 675 01d6 7D       		.byte	0x7d
 676 01d7 F6000000 		.4byte	0xf6
 677 01db 1D       		.byte	0x1d
 678 01dc 06       		.uleb128 0x6
 679 01dd 420B0000 		.4byte	.LASF41
 680 01e1 07       		.byte	0x7
 681 01e2 82       		.byte	0x82
 682 01e3 0C010000 		.4byte	0x10c
 683 01e7 1E       		.byte	0x1e
 684 01e8 06       		.uleb128 0x6
 685 01e9 990B0000 		.4byte	.LASF42
 686 01ed 07       		.byte	0x7
 687 01ee 88       		.byte	0x88
 688 01ef 17010000 		.4byte	0x117
 689 01f3 1F       		.byte	0x1f
 690 01f4 06       		.uleb128 0x6
 691 01f5 29000000 		.4byte	.LASF43
 692 01f9 07       		.byte	0x7
 693 01fa 8F       		.byte	0x8f
 694 01fb 44040000 		.4byte	0x444
 695 01ff 20       		.byte	0x20
 696 0200 07       		.uleb128 0x7
 697 0201 705F7500 		.ascii	"p_u\000"
 698 0205 07       		.byte	0x7
 699 0206 B4       		.byte	0xb4
 700 0207 59050000 		.4byte	0x559
 701 020b 24       		.byte	0x24
 702 020c 06       		.uleb128 0x6
 703 020d 1D010000 		.4byte	.LASF44
 704 0211 07       		.byte	0x7
 705 0212 B9       		.byte	0xb9
 706 0213 A8020000 		.4byte	0x2a8
 707 0217 28       		.byte	0x28
 708 0218 06       		.uleb128 0x6
 709 0219 F2000000 		.4byte	.LASF45
 710 021d 07       		.byte	0x7
 711 021e BF       		.byte	0xbf
 712 021f 88020000 		.4byte	0x288
 713 0223 2C       		.byte	0x2c
 714 0224 06       		.uleb128 0x6
ARM GAS  C:\Users\jsyoon\AppData\Local\Temp\ccWY3jAf.s 			page 14


 715 0225 52080000 		.4byte	.LASF46
 716 0229 07       		.byte	0x7
 717 022a C3       		.byte	0xc3
 718 022b 2D010000 		.4byte	0x12d
 719 022f 34       		.byte	0x34
 720 0230 06       		.uleb128 0x6
 721 0231 E10B0000 		.4byte	.LASF47
 722 0235 07       		.byte	0x7
 723 0236 C9       		.byte	0xc9
 724 0237 38010000 		.4byte	0x138
 725 023b 38       		.byte	0x38
 726 023c 06       		.uleb128 0x6
 727 023d 66050000 		.4byte	.LASF48
 728 0241 07       		.byte	0x7
 729 0242 D0       		.byte	0xd0
 730 0243 A0050000 		.4byte	0x5a0
 731 0247 3C       		.byte	0x3c
 732 0248 06       		.uleb128 0x6
 733 0249 13090000 		.4byte	.LASF49
 734 024d 07       		.byte	0x7
 735 024e D4       		.byte	0xd4
 736 024f 22010000 		.4byte	0x122
 737 0253 40       		.byte	0x40
 738 0254 06       		.uleb128 0x6
 739 0255 5E050000 		.4byte	.LASF50
 740 0259 07       		.byte	0x7
 741 025a DA       		.byte	0xda
 742 025b BE020000 		.4byte	0x2be
 743 025f 44       		.byte	0x44
 744 0260 00       		.byte	0
 745 0261 08       		.uleb128 0x8
 746 0262 08       		.byte	0x8
 747 0263 06       		.byte	0x6
 748 0264 61       		.byte	0x61
 749 0265 82020000 		.4byte	0x282
 750 0269 06       		.uleb128 0x6
 751 026a AF090000 		.4byte	.LASF32
 752 026e 06       		.byte	0x6
 753 026f 62       		.byte	0x62
 754 0270 82020000 		.4byte	0x282
 755 0274 00       		.byte	0
 756 0275 06       		.uleb128 0x6
 757 0276 98090000 		.4byte	.LASF33
 758 027a 06       		.byte	0x6
 759 027b 64       		.byte	0x64
 760 027c 82020000 		.4byte	0x282
 761 0280 04       		.byte	0x4
 762 0281 00       		.byte	0
 763 0282 09       		.uleb128 0x9
 764 0283 04       		.byte	0x4
 765 0284 59010000 		.4byte	0x159
 766 0288 03       		.uleb128 0x3
 767 0289 730D0000 		.4byte	.LASF51
 768 028d 06       		.byte	0x6
 769 028e 66       		.byte	0x66
 770 028f 61020000 		.4byte	0x261
 771 0293 08       		.uleb128 0x8
ARM GAS  C:\Users\jsyoon\AppData\Local\Temp\ccWY3jAf.s 			page 15


 772 0294 04       		.byte	0x4
 773 0295 06       		.byte	0x6
 774 0296 6B       		.byte	0x6b
 775 0297 A8020000 		.4byte	0x2a8
 776 029b 06       		.uleb128 0x6
 777 029c AF090000 		.4byte	.LASF32
 778 02a0 06       		.byte	0x6
 779 02a1 6D       		.byte	0x6d
 780 02a2 82020000 		.4byte	0x282
 781 02a6 00       		.byte	0
 782 02a7 00       		.byte	0
 783 02a8 03       		.uleb128 0x3
 784 02a9 00000000 		.4byte	.LASF52
 785 02ad 06       		.byte	0x6
 786 02ae 70       		.byte	0x70
 787 02af 93020000 		.4byte	0x293
 788 02b3 03       		.uleb128 0x3
 789 02b4 40000000 		.4byte	.LASF53
 790 02b8 08       		.byte	0x8
 791 02b9 E5       		.byte	0xe5
 792 02ba BE020000 		.4byte	0x2be
 793 02be 0A       		.uleb128 0xa
 794 02bf 04       		.byte	0x4
 795 02c0 03       		.uleb128 0x3
 796 02c1 830C0000 		.4byte	.LASF54
 797 02c5 08       		.byte	0x8
 798 02c6 EB       		.byte	0xeb
 799 02c7 D9000000 		.4byte	0xd9
 800 02cb 0B       		.uleb128 0xb
 801 02cc D5080000 		.4byte	.LASF55
 802 02d0 64       		.byte	0x64
 803 02d1 08       		.byte	0x8
 804 02d2 0C01     		.2byte	0x10c
 805 02d4 17040000 		.4byte	0x417
 806 02d8 0C       		.uleb128 0xc
 807 02d9 73313600 		.ascii	"s16\000"
 808 02dd 08       		.byte	0x8
 809 02de 0E01     		.2byte	0x10e
 810 02e0 B3020000 		.4byte	0x2b3
 811 02e4 00       		.byte	0
 812 02e5 0C       		.uleb128 0xc
 813 02e6 73313700 		.ascii	"s17\000"
 814 02ea 08       		.byte	0x8
 815 02eb 0F01     		.2byte	0x10f
 816 02ed B3020000 		.4byte	0x2b3
 817 02f1 04       		.byte	0x4
 818 02f2 0C       		.uleb128 0xc
 819 02f3 73313800 		.ascii	"s18\000"
 820 02f7 08       		.byte	0x8
 821 02f8 1001     		.2byte	0x110
 822 02fa B3020000 		.4byte	0x2b3
 823 02fe 08       		.byte	0x8
 824 02ff 0C       		.uleb128 0xc
 825 0300 73313900 		.ascii	"s19\000"
 826 0304 08       		.byte	0x8
 827 0305 1101     		.2byte	0x111
 828 0307 B3020000 		.4byte	0x2b3
ARM GAS  C:\Users\jsyoon\AppData\Local\Temp\ccWY3jAf.s 			page 16


 829 030b 0C       		.byte	0xc
 830 030c 0C       		.uleb128 0xc
 831 030d 73323000 		.ascii	"s20\000"
 832 0311 08       		.byte	0x8
 833 0312 1201     		.2byte	0x112
 834 0314 B3020000 		.4byte	0x2b3
 835 0318 10       		.byte	0x10
 836 0319 0C       		.uleb128 0xc
 837 031a 73323100 		.ascii	"s21\000"
 838 031e 08       		.byte	0x8
 839 031f 1301     		.2byte	0x113
 840 0321 B3020000 		.4byte	0x2b3
 841 0325 14       		.byte	0x14
 842 0326 0C       		.uleb128 0xc
 843 0327 73323200 		.ascii	"s22\000"
 844 032b 08       		.byte	0x8
 845 032c 1401     		.2byte	0x114
 846 032e B3020000 		.4byte	0x2b3
 847 0332 18       		.byte	0x18
 848 0333 0C       		.uleb128 0xc
 849 0334 73323300 		.ascii	"s23\000"
 850 0338 08       		.byte	0x8
 851 0339 1501     		.2byte	0x115
 852 033b B3020000 		.4byte	0x2b3
 853 033f 1C       		.byte	0x1c
 854 0340 0C       		.uleb128 0xc
 855 0341 73323400 		.ascii	"s24\000"
 856 0345 08       		.byte	0x8
 857 0346 1601     		.2byte	0x116
 858 0348 B3020000 		.4byte	0x2b3
 859 034c 20       		.byte	0x20
 860 034d 0C       		.uleb128 0xc
 861 034e 73323500 		.ascii	"s25\000"
 862 0352 08       		.byte	0x8
 863 0353 1701     		.2byte	0x117
 864 0355 B3020000 		.4byte	0x2b3
 865 0359 24       		.byte	0x24
 866 035a 0C       		.uleb128 0xc
 867 035b 73323600 		.ascii	"s26\000"
 868 035f 08       		.byte	0x8
 869 0360 1801     		.2byte	0x118
 870 0362 B3020000 		.4byte	0x2b3
 871 0366 28       		.byte	0x28
 872 0367 0C       		.uleb128 0xc
 873 0368 73323700 		.ascii	"s27\000"
 874 036c 08       		.byte	0x8
 875 036d 1901     		.2byte	0x119
 876 036f B3020000 		.4byte	0x2b3
 877 0373 2C       		.byte	0x2c
 878 0374 0C       		.uleb128 0xc
 879 0375 73323800 		.ascii	"s28\000"
 880 0379 08       		.byte	0x8
 881 037a 1A01     		.2byte	0x11a
 882 037c B3020000 		.4byte	0x2b3
 883 0380 30       		.byte	0x30
 884 0381 0C       		.uleb128 0xc
 885 0382 73323900 		.ascii	"s29\000"
ARM GAS  C:\Users\jsyoon\AppData\Local\Temp\ccWY3jAf.s 			page 17


 886 0386 08       		.byte	0x8
 887 0387 1B01     		.2byte	0x11b
 888 0389 B3020000 		.4byte	0x2b3
 889 038d 34       		.byte	0x34
 890 038e 0C       		.uleb128 0xc
 891 038f 73333000 		.ascii	"s30\000"
 892 0393 08       		.byte	0x8
 893 0394 1C01     		.2byte	0x11c
 894 0396 B3020000 		.4byte	0x2b3
 895 039a 38       		.byte	0x38
 896 039b 0C       		.uleb128 0xc
 897 039c 73333100 		.ascii	"s31\000"
 898 03a0 08       		.byte	0x8
 899 03a1 1D01     		.2byte	0x11d
 900 03a3 B3020000 		.4byte	0x2b3
 901 03a7 3C       		.byte	0x3c
 902 03a8 0C       		.uleb128 0xc
 903 03a9 723400   		.ascii	"r4\000"
 904 03ac 08       		.byte	0x8
 905 03ad 1F01     		.2byte	0x11f
 906 03af B3020000 		.4byte	0x2b3
 907 03b3 40       		.byte	0x40
 908 03b4 0C       		.uleb128 0xc
 909 03b5 723500   		.ascii	"r5\000"
 910 03b8 08       		.byte	0x8
 911 03b9 2001     		.2byte	0x120
 912 03bb B3020000 		.4byte	0x2b3
 913 03bf 44       		.byte	0x44
 914 03c0 0C       		.uleb128 0xc
 915 03c1 723600   		.ascii	"r6\000"
 916 03c4 08       		.byte	0x8
 917 03c5 2101     		.2byte	0x121
 918 03c7 B3020000 		.4byte	0x2b3
 919 03cb 48       		.byte	0x48
 920 03cc 0C       		.uleb128 0xc
 921 03cd 723700   		.ascii	"r7\000"
 922 03d0 08       		.byte	0x8
 923 03d1 2201     		.2byte	0x122
 924 03d3 B3020000 		.4byte	0x2b3
 925 03d7 4C       		.byte	0x4c
 926 03d8 0C       		.uleb128 0xc
 927 03d9 723800   		.ascii	"r8\000"
 928 03dc 08       		.byte	0x8
 929 03dd 2301     		.2byte	0x123
 930 03df B3020000 		.4byte	0x2b3
 931 03e3 50       		.byte	0x50
 932 03e4 0C       		.uleb128 0xc
 933 03e5 723900   		.ascii	"r9\000"
 934 03e8 08       		.byte	0x8
 935 03e9 2401     		.2byte	0x124
 936 03eb B3020000 		.4byte	0x2b3
 937 03ef 54       		.byte	0x54
 938 03f0 0C       		.uleb128 0xc
 939 03f1 72313000 		.ascii	"r10\000"
 940 03f5 08       		.byte	0x8
 941 03f6 2501     		.2byte	0x125
 942 03f8 B3020000 		.4byte	0x2b3
ARM GAS  C:\Users\jsyoon\AppData\Local\Temp\ccWY3jAf.s 			page 18


 943 03fc 58       		.byte	0x58
 944 03fd 0C       		.uleb128 0xc
 945 03fe 72313100 		.ascii	"r11\000"
 946 0402 08       		.byte	0x8
 947 0403 2601     		.2byte	0x126
 948 0405 B3020000 		.4byte	0x2b3
 949 0409 5C       		.byte	0x5c
 950 040a 0C       		.uleb128 0xc
 951 040b 6C7200   		.ascii	"lr\000"
 952 040e 08       		.byte	0x8
 953 040f 2701     		.2byte	0x127
 954 0411 B3020000 		.4byte	0x2b3
 955 0415 60       		.byte	0x60
 956 0416 00       		.byte	0
 957 0417 0B       		.uleb128 0xb
 958 0418 37070000 		.4byte	.LASF56
 959 041c 04       		.byte	0x4
 960 041d 08       		.byte	0x8
 961 041e 3101     		.2byte	0x131
 962 0420 32040000 		.4byte	0x432
 963 0424 0C       		.uleb128 0xc
 964 0425 72313300 		.ascii	"r13\000"
 965 0429 08       		.byte	0x8
 966 042a 3201     		.2byte	0x132
 967 042c 32040000 		.4byte	0x432
 968 0430 00       		.byte	0
 969 0431 00       		.byte	0
 970 0432 09       		.uleb128 0x9
 971 0433 04       		.byte	0x4
 972 0434 CB020000 		.4byte	0x2cb
 973 0438 0D       		.uleb128 0xd
 974 0439 CE000000 		.4byte	0xce
 975 043d 04       		.uleb128 0x4
 976 043e 04       		.byte	0x4
 977 043f 07       		.byte	0x7
 978 0440 6A0A0000 		.4byte	.LASF57
 979 0444 0D       		.uleb128 0xd
 980 0445 4E010000 		.4byte	0x14e
 981 0449 08       		.uleb128 0x8
 982 044a 1C       		.byte	0x1c
 983 044b 09       		.byte	0x9
 984 044c 5E       		.byte	0x5e
 985 044d 9A040000 		.4byte	0x49a
 986 0451 06       		.uleb128 0x6
 987 0452 500D0000 		.4byte	.LASF58
 988 0456 09       		.byte	0x9
 989 0457 5F       		.byte	0x5f
 990 0458 88020000 		.4byte	0x288
 991 045c 00       		.byte	0
 992 045d 06       		.uleb128 0x6
 993 045e A3020000 		.4byte	.LASF59
 994 0462 09       		.byte	0x9
 995 0463 60       		.byte	0x60
 996 0464 22010000 		.4byte	0x122
 997 0468 08       		.byte	0x8
 998 0469 06       		.uleb128 0x6
 999 046a 7D0C0000 		.4byte	.LASF60
ARM GAS  C:\Users\jsyoon\AppData\Local\Temp\ccWY3jAf.s 			page 19


 1000 046e 09       		.byte	0x9
 1001 046f 62       		.byte	0x62
 1002 0470 17040000 		.4byte	0x417
 1003 0474 0C       		.byte	0xc
 1004 0475 06       		.uleb128 0x6
 1005 0476 E3040000 		.4byte	.LASF61
 1006 047a 09       		.byte	0x9
 1007 047b 65       		.byte	0x65
 1008 047c 82020000 		.4byte	0x282
 1009 0480 10       		.byte	0x10
 1010 0481 06       		.uleb128 0x6
 1011 0482 08080000 		.4byte	.LASF62
 1012 0486 09       		.byte	0x9
 1013 0487 66       		.byte	0x66
 1014 0488 82020000 		.4byte	0x282
 1015 048c 14       		.byte	0x14
 1016 048d 06       		.uleb128 0x6
 1017 048e 36090000 		.4byte	.LASF63
 1018 0492 09       		.byte	0x9
 1019 0493 69       		.byte	0x69
 1020 0494 82020000 		.4byte	0x282
 1021 0498 18       		.byte	0x18
 1022 0499 00       		.byte	0
 1023 049a 03       		.uleb128 0x3
 1024 049b 490B0000 		.4byte	.LASF64
 1025 049f 09       		.byte	0x9
 1026 04a0 6B       		.byte	0x6b
 1027 04a1 49040000 		.4byte	0x449
 1028 04a5 05       		.uleb128 0x5
 1029 04a6 7C040000 		.4byte	.LASF65
 1030 04aa 10       		.byte	0x10
 1031 04ab 0A       		.byte	0xa
 1032 04ac 2C       		.byte	0x2c
 1033 04ad D6040000 		.4byte	0x4d6
 1034 04b1 06       		.uleb128 0x6
 1035 04b2 4B090000 		.4byte	.LASF66
 1036 04b6 0A       		.byte	0xa
 1037 04b7 2D       		.byte	0x2d
 1038 04b8 88020000 		.4byte	0x288
 1039 04bc 00       		.byte	0
 1040 04bd 06       		.uleb128 0x6
 1041 04be A7090000 		.4byte	.LASF67
 1042 04c2 0A       		.byte	0xa
 1043 04c3 2F       		.byte	0x2f
 1044 04c4 82020000 		.4byte	0x282
 1045 04c8 08       		.byte	0x8
 1046 04c9 06       		.uleb128 0x6
 1047 04ca 240C0000 		.4byte	.LASF68
 1048 04ce 0A       		.byte	0xa
 1049 04cf 31       		.byte	0x31
 1050 04d0 D6040000 		.4byte	0x4d6
 1051 04d4 0C       		.byte	0xc
 1052 04d5 00       		.byte	0
 1053 04d6 09       		.uleb128 0x9
 1054 04d7 04       		.byte	0x4
 1055 04d8 A5040000 		.4byte	0x4a5
 1056 04dc 03       		.uleb128 0x3
ARM GAS  C:\Users\jsyoon\AppData\Local\Temp\ccWY3jAf.s 			page 20


 1057 04dd 7C040000 		.4byte	.LASF65
 1058 04e1 0A       		.byte	0xa
 1059 04e2 33       		.byte	0x33
 1060 04e3 A5040000 		.4byte	0x4a5
 1061 04e7 03       		.uleb128 0x3
 1062 04e8 7B0A0000 		.4byte	.LASF69
 1063 04ec 0B       		.byte	0xb
 1064 04ed 2C       		.byte	0x2c
 1065 04ee F2040000 		.4byte	0x4f2
 1066 04f2 05       		.uleb128 0x5
 1067 04f3 7B0A0000 		.4byte	.LASF69
 1068 04f7 10       		.byte	0x10
 1069 04f8 0B       		.byte	0xb
 1070 04f9 31       		.byte	0x31
 1071 04fa 2F050000 		.4byte	0x52f
 1072 04fe 06       		.uleb128 0x6
 1073 04ff 4A080000 		.4byte	.LASF70
 1074 0503 0B       		.byte	0xb
 1075 0504 32       		.byte	0x32
 1076 0505 2F050000 		.4byte	0x52f
 1077 0509 00       		.byte	0
 1078 050a 06       		.uleb128 0x6
 1079 050b DF0C0000 		.4byte	.LASF71
 1080 050f 0B       		.byte	0xb
 1081 0510 35       		.byte	0x35
 1082 0511 82020000 		.4byte	0x282
 1083 0515 04       		.byte	0x4
 1084 0516 06       		.uleb128 0x6
 1085 0517 51010000 		.4byte	.LASF72
 1086 051b 0B       		.byte	0xb
 1087 051c 37       		.byte	0x37
 1088 051d 38010000 		.4byte	0x138
 1089 0521 08       		.byte	0x8
 1090 0522 06       		.uleb128 0x6
 1091 0523 580D0000 		.4byte	.LASF73
 1092 0527 0B       		.byte	0xb
 1093 0528 3A       		.byte	0x3a
 1094 0529 43010000 		.4byte	0x143
 1095 052d 0C       		.byte	0xc
 1096 052e 00       		.byte	0
 1097 052f 09       		.uleb128 0x9
 1098 0530 04       		.byte	0x4
 1099 0531 E7040000 		.4byte	0x4e7
 1100 0535 05       		.uleb128 0x5
 1101 0536 E9030000 		.4byte	.LASF74
 1102 053a 04       		.byte	0x4
 1103 053b 0B       		.byte	0xb
 1104 053c 41       		.byte	0x41
 1105 053d 4E050000 		.4byte	0x54e
 1106 0541 06       		.uleb128 0x6
 1107 0542 58080000 		.4byte	.LASF75
 1108 0546 0B       		.byte	0xb
 1109 0547 42       		.byte	0x42
 1110 0548 2F050000 		.4byte	0x52f
 1111 054c 00       		.byte	0
 1112 054d 00       		.byte	0
 1113 054e 03       		.uleb128 0x3
ARM GAS  C:\Users\jsyoon\AppData\Local\Temp\ccWY3jAf.s 			page 21


 1114 054f E9030000 		.4byte	.LASF74
 1115 0553 0B       		.byte	0xb
 1116 0554 45       		.byte	0x45
 1117 0555 35050000 		.4byte	0x535
 1118 0559 0E       		.uleb128 0xe
 1119 055a 04       		.byte	0x4
 1120 055b 07       		.byte	0x7
 1121 055c 96       		.byte	0x96
 1122 055d 8E050000 		.4byte	0x58e
 1123 0561 0F       		.uleb128 0xf
 1124 0562 FC030000 		.4byte	.LASF76
 1125 0566 07       		.byte	0x7
 1126 0567 9D       		.byte	0x9d
 1127 0568 2D010000 		.4byte	0x12d
 1128 056c 0F       		.uleb128 0xf
 1129 056d 610D0000 		.4byte	.LASF77
 1130 0571 07       		.byte	0x7
 1131 0572 A4       		.byte	0xa4
 1132 0573 2D010000 		.4byte	0x12d
 1133 0577 0F       		.uleb128 0xf
 1134 0578 82010000 		.4byte	.LASF78
 1135 057c 07       		.byte	0x7
 1136 057d AB       		.byte	0xab
 1137 057e BE020000 		.4byte	0x2be
 1138 0582 0F       		.uleb128 0xf
 1139 0583 BA010000 		.4byte	.LASF79
 1140 0587 07       		.byte	0x7
 1141 0588 B2       		.byte	0xb2
 1142 0589 38010000 		.4byte	0x138
 1143 058d 00       		.byte	0
 1144 058e 09       		.uleb128 0x9
 1145 058f 04       		.byte	0x4
 1146 0590 94050000 		.4byte	0x594
 1147 0594 10       		.uleb128 0x10
 1148 0595 99050000 		.4byte	0x599
 1149 0599 04       		.uleb128 0x4
 1150 059a 01       		.byte	0x1
 1151 059b 08       		.byte	0x8
 1152 059c CC040000 		.4byte	.LASF80
 1153 05a0 09       		.uleb128 0x9
 1154 05a1 04       		.byte	0x4
 1155 05a2 DC040000 		.4byte	0x4dc
 1156 05a6 03       		.uleb128 0x3
 1157 05a7 E8020000 		.4byte	.LASF81
 1158 05ab 07       		.byte	0x7
 1159 05ac E5       		.byte	0xe5
 1160 05ad B1050000 		.4byte	0x5b1
 1161 05b1 09       		.uleb128 0x9
 1162 05b2 04       		.byte	0x4
 1163 05b3 B7050000 		.4byte	0x5b7
 1164 05b7 11       		.uleb128 0x11
 1165 05b8 2D010000 		.4byte	0x12d
 1166 05bc C6050000 		.4byte	0x5c6
 1167 05c0 12       		.uleb128 0x12
 1168 05c1 BE020000 		.4byte	0x2be
 1169 05c5 00       		.byte	0
 1170 05c6 03       		.uleb128 0x3
ARM GAS  C:\Users\jsyoon\AppData\Local\Temp\ccWY3jAf.s 			page 22


 1171 05c7 70080000 		.4byte	.LASF82
 1172 05cb 0C       		.byte	0xc
 1173 05cc 37       		.byte	0x37
 1174 05cd D1050000 		.4byte	0x5d1
 1175 05d1 05       		.uleb128 0x5
 1176 05d2 70080000 		.4byte	.LASF82
 1177 05d6 24       		.byte	0x24
 1178 05d7 0C       		.byte	0xc
 1179 05d8 45       		.byte	0x45
 1180 05d9 3E060000 		.4byte	0x63e
 1181 05dd 06       		.uleb128 0x6
 1182 05de 8A030000 		.4byte	.LASF83
 1183 05e2 0C       		.byte	0xc
 1184 05e3 46       		.byte	0x46
 1185 05e4 88020000 		.4byte	0x288
 1186 05e8 00       		.byte	0
 1187 05e9 06       		.uleb128 0x6
 1188 05ea 4D0A0000 		.4byte	.LASF84
 1189 05ee 0C       		.byte	0xc
 1190 05ef 47       		.byte	0x47
 1191 05f0 2C000000 		.4byte	0x2c
 1192 05f4 08       		.byte	0x8
 1193 05f5 06       		.uleb128 0x6
 1194 05f6 800D0000 		.4byte	.LASF85
 1195 05fa 0C       		.byte	0xc
 1196 05fb 48       		.byte	0x48
 1197 05fc 60060000 		.4byte	0x660
 1198 0600 0C       		.byte	0xc
 1199 0601 06       		.uleb128 0x6
 1200 0602 5C0A0000 		.4byte	.LASF86
 1201 0606 0C       		.byte	0xc
 1202 0607 49       		.byte	0x49
 1203 0608 60060000 		.4byte	0x660
 1204 060c 10       		.byte	0x10
 1205 060d 06       		.uleb128 0x6
 1206 060e F4040000 		.4byte	.LASF87
 1207 0612 0C       		.byte	0xc
 1208 0613 4B       		.byte	0x4b
 1209 0614 60060000 		.4byte	0x660
 1210 0618 14       		.byte	0x14
 1211 0619 06       		.uleb128 0x6
 1212 061a 27010000 		.4byte	.LASF88
 1213 061e 0C       		.byte	0xc
 1214 061f 4C       		.byte	0x4c
 1215 0620 60060000 		.4byte	0x660
 1216 0624 18       		.byte	0x18
 1217 0625 06       		.uleb128 0x6
 1218 0626 F9090000 		.4byte	.LASF89
 1219 062a 0C       		.byte	0xc
 1220 062b 4D       		.byte	0x4d
 1221 062c 3E060000 		.4byte	0x63e
 1222 0630 1C       		.byte	0x1c
 1223 0631 06       		.uleb128 0x6
 1224 0632 1E090000 		.4byte	.LASF90
 1225 0636 0C       		.byte	0xc
 1226 0637 4E       		.byte	0x4e
 1227 0638 BE020000 		.4byte	0x2be
ARM GAS  C:\Users\jsyoon\AppData\Local\Temp\ccWY3jAf.s 			page 23


 1228 063c 20       		.byte	0x20
 1229 063d 00       		.byte	0
 1230 063e 03       		.uleb128 0x3
 1231 063f 47010000 		.4byte	.LASF91
 1232 0643 0C       		.byte	0xc
 1233 0644 3A       		.byte	0x3a
 1234 0645 49060000 		.4byte	0x649
 1235 0649 09       		.uleb128 0x9
 1236 064a 04       		.byte	0x4
 1237 064b 4F060000 		.4byte	0x64f
 1238 064f 13       		.uleb128 0x13
 1239 0650 5A060000 		.4byte	0x65a
 1240 0654 12       		.uleb128 0x12
 1241 0655 5A060000 		.4byte	0x65a
 1242 0659 00       		.byte	0
 1243 065a 09       		.uleb128 0x9
 1244 065b 04       		.byte	0x4
 1245 065c C6050000 		.4byte	0x5c6
 1246 0660 09       		.uleb128 0x9
 1247 0661 04       		.byte	0x4
 1248 0662 AD000000 		.4byte	0xad
 1249 0666 03       		.uleb128 0x3
 1250 0667 8E040000 		.4byte	.LASF92
 1251 066b 0C       		.byte	0xc
 1252 066c 82       		.byte	0x82
 1253 066d C6050000 		.4byte	0x5c6
 1254 0671 03       		.uleb128 0x3
 1255 0672 82040000 		.4byte	.LASF93
 1256 0676 0C       		.byte	0xc
 1257 0677 F5       		.byte	0xf5
 1258 0678 C6050000 		.4byte	0x5c6
 1259 067c 11       		.uleb128 0x11
 1260 067d 2C000000 		.4byte	0x2c
 1261 0681 95060000 		.4byte	0x695
 1262 0685 12       		.uleb128 0x12
 1263 0686 BE020000 		.4byte	0x2be
 1264 068a 12       		.uleb128 0x12
 1265 068b 95060000 		.4byte	0x695
 1266 068f 12       		.uleb128 0x12
 1267 0690 2C000000 		.4byte	0x2c
 1268 0694 00       		.byte	0
 1269 0695 09       		.uleb128 0x9
 1270 0696 04       		.byte	0x4
 1271 0697 9B060000 		.4byte	0x69b
 1272 069b 10       		.uleb128 0x10
 1273 069c AD000000 		.4byte	0xad
 1274 06a0 09       		.uleb128 0x9
 1275 06a1 04       		.byte	0x4
 1276 06a2 7C060000 		.4byte	0x67c
 1277 06a6 11       		.uleb128 0x11
 1278 06a7 2C000000 		.4byte	0x2c
 1279 06ab BF060000 		.4byte	0x6bf
 1280 06af 12       		.uleb128 0x12
 1281 06b0 BE020000 		.4byte	0x2be
 1282 06b4 12       		.uleb128 0x12
 1283 06b5 60060000 		.4byte	0x660
 1284 06b9 12       		.uleb128 0x12
ARM GAS  C:\Users\jsyoon\AppData\Local\Temp\ccWY3jAf.s 			page 24


 1285 06ba 2C000000 		.4byte	0x2c
 1286 06be 00       		.byte	0
 1287 06bf 09       		.uleb128 0x9
 1288 06c0 04       		.byte	0x4
 1289 06c1 A6060000 		.4byte	0x6a6
 1290 06c5 11       		.uleb128 0x11
 1291 06c6 2D010000 		.4byte	0x12d
 1292 06ca D9060000 		.4byte	0x6d9
 1293 06ce 12       		.uleb128 0x12
 1294 06cf BE020000 		.4byte	0x2be
 1295 06d3 12       		.uleb128 0x12
 1296 06d4 AD000000 		.4byte	0xad
 1297 06d8 00       		.byte	0
 1298 06d9 09       		.uleb128 0x9
 1299 06da 04       		.byte	0x4
 1300 06db C5060000 		.4byte	0x6c5
 1301 06df 14       		.uleb128 0x14
 1302 06e0 CE000000 		.4byte	0xce
 1303 06e4 EF060000 		.4byte	0x6ef
 1304 06e8 15       		.uleb128 0x15
 1305 06e9 3D040000 		.4byte	0x43d
 1306 06ed 0E       		.byte	0xe
 1307 06ee 00       		.byte	0
 1308 06ef 0D       		.uleb128 0xd
 1309 06f0 C3000000 		.4byte	0xc3
 1310 06f4 11       		.uleb128 0x11
 1311 06f5 2D010000 		.4byte	0x12d
 1312 06f9 0D070000 		.4byte	0x70d
 1313 06fd 12       		.uleb128 0x12
 1314 06fe BE020000 		.4byte	0x2be
 1315 0702 12       		.uleb128 0x12
 1316 0703 AD000000 		.4byte	0xad
 1317 0707 12       		.uleb128 0x12
 1318 0708 4E010000 		.4byte	0x14e
 1319 070c 00       		.byte	0
 1320 070d 09       		.uleb128 0x9
 1321 070e 04       		.byte	0x4
 1322 070f F4060000 		.4byte	0x6f4
 1323 0713 11       		.uleb128 0x11
 1324 0714 2D010000 		.4byte	0x12d
 1325 0718 27070000 		.4byte	0x727
 1326 071c 12       		.uleb128 0x12
 1327 071d BE020000 		.4byte	0x2be
 1328 0721 12       		.uleb128 0x12
 1329 0722 4E010000 		.4byte	0x14e
 1330 0726 00       		.byte	0
 1331 0727 09       		.uleb128 0x9
 1332 0728 04       		.byte	0x4
 1333 0729 13070000 		.4byte	0x713
 1334 072d 11       		.uleb128 0x11
 1335 072e 2C000000 		.4byte	0x2c
 1336 0732 4B070000 		.4byte	0x74b
 1337 0736 12       		.uleb128 0x12
 1338 0737 BE020000 		.4byte	0x2be
 1339 073b 12       		.uleb128 0x12
 1340 073c 95060000 		.4byte	0x695
 1341 0740 12       		.uleb128 0x12
ARM GAS  C:\Users\jsyoon\AppData\Local\Temp\ccWY3jAf.s 			page 25


 1342 0741 2C000000 		.4byte	0x2c
 1343 0745 12       		.uleb128 0x12
 1344 0746 4E010000 		.4byte	0x14e
 1345 074a 00       		.byte	0
 1346 074b 09       		.uleb128 0x9
 1347 074c 04       		.byte	0x4
 1348 074d 2D070000 		.4byte	0x72d
 1349 0751 11       		.uleb128 0x11
 1350 0752 2C000000 		.4byte	0x2c
 1351 0756 6F070000 		.4byte	0x76f
 1352 075a 12       		.uleb128 0x12
 1353 075b BE020000 		.4byte	0x2be
 1354 075f 12       		.uleb128 0x12
 1355 0760 60060000 		.4byte	0x660
 1356 0764 12       		.uleb128 0x12
 1357 0765 2C000000 		.4byte	0x2c
 1358 0769 12       		.uleb128 0x12
 1359 076a 4E010000 		.4byte	0x14e
 1360 076e 00       		.byte	0
 1361 076f 09       		.uleb128 0x9
 1362 0770 04       		.byte	0x4
 1363 0771 51070000 		.4byte	0x751
 1364 0775 14       		.uleb128 0x14
 1365 0776 AD000000 		.4byte	0xad
 1366 077a 85070000 		.4byte	0x785
 1367 077e 15       		.uleb128 0x15
 1368 077f 3D040000 		.4byte	0x43d
 1369 0783 07       		.byte	0x7
 1370 0784 00       		.byte	0
 1371 0785 03       		.uleb128 0x3
 1372 0786 570C0000 		.4byte	.LASF94
 1373 078a 0D       		.byte	0xd
 1374 078b E9       		.byte	0xe9
 1375 078c 90070000 		.4byte	0x790
 1376 0790 16       		.uleb128 0x16
 1377 0791 570C0000 		.4byte	.LASF94
 1378 0795 8002     		.2byte	0x280
 1379 0797 0E       		.byte	0xe
 1380 0798 7201     		.2byte	0x172
 1381 079a BD080000 		.4byte	0x8bd
 1382 079e 17       		.uleb128 0x17
 1383 079f D30B0000 		.4byte	.LASF95
 1384 07a3 0E       		.byte	0xe
 1385 07a4 7601     		.2byte	0x176
 1386 07a6 EF080000 		.4byte	0x8ef
 1387 07aa 00       		.byte	0
 1388 07ab 17       		.uleb128 0x17
 1389 07ac F6080000 		.4byte	.LASF96
 1390 07b0 0E       		.byte	0xe
 1391 07b1 7A01     		.2byte	0x17a
 1392 07b3 0A120000 		.4byte	0x120a
 1393 07b7 04       		.byte	0x4
 1394 07b8 17       		.uleb128 0x17
 1395 07b9 32030000 		.4byte	.LASF97
 1396 07bd 0E       		.byte	0xe
 1397 07be 7E01     		.2byte	0x17e
 1398 07c0 B8000000 		.4byte	0xb8
ARM GAS  C:\Users\jsyoon\AppData\Local\Temp\ccWY3jAf.s 			page 26


 1399 07c4 08       		.byte	0x8
 1400 07c5 17       		.uleb128 0x17
 1401 07c6 51030000 		.4byte	.LASF98
 1402 07ca 0E       		.byte	0xe
 1403 07cb 8201     		.2byte	0x182
 1404 07cd B8000000 		.4byte	0xb8
 1405 07d1 0A       		.byte	0xa
 1406 07d2 0C       		.uleb128 0xc
 1407 07d3 65706300 		.ascii	"epc\000"
 1408 07d7 0E       		.byte	0xe
 1409 07d8 8601     		.2byte	0x186
 1410 07da 15120000 		.4byte	0x1215
 1411 07de 0C       		.byte	0xc
 1412 07df 17       		.uleb128 0x17
 1413 07e0 A8070000 		.4byte	.LASF99
 1414 07e4 0E       		.byte	0xe
 1415 07e5 8D01     		.2byte	0x18d
 1416 07e7 30120000 		.4byte	0x1230
 1417 07eb 1C       		.byte	0x1c
 1418 07ec 17       		.uleb128 0x17
 1419 07ed 40090000 		.4byte	.LASF100
 1420 07f1 0E       		.byte	0xe
 1421 07f2 9401     		.2byte	0x194
 1422 07f4 30120000 		.4byte	0x1230
 1423 07f8 28       		.byte	0x28
 1424 07f9 17       		.uleb128 0x17
 1425 07fa 7D080000 		.4byte	.LASF101
 1426 07fe 0E       		.byte	0xe
 1427 07ff 9801     		.2byte	0x198
 1428 0801 2E090000 		.4byte	0x92e
 1429 0805 34       		.byte	0x34
 1430 0806 17       		.uleb128 0x17
 1431 0807 14050000 		.4byte	.LASF102
 1432 080b 0E       		.byte	0xe
 1433 080c 9C01     		.2byte	0x19c
 1434 080e 60060000 		.4byte	0x660
 1435 0812 38       		.byte	0x38
 1436 0813 17       		.uleb128 0x17
 1437 0814 3F070000 		.4byte	.LASF103
 1438 0818 0E       		.byte	0xe
 1439 0819 A001     		.2byte	0x1a0
 1440 081b 2C000000 		.4byte	0x2c
 1441 081f 3C       		.byte	0x3c
 1442 0820 17       		.uleb128 0x17
 1443 0821 89010000 		.4byte	.LASF104
 1444 0825 0E       		.byte	0xe
 1445 0826 A401     		.2byte	0x1a4
 1446 0828 A4090000 		.4byte	0x9a4
 1447 082c 40       		.byte	0x40
 1448 082d 17       		.uleb128 0x17
 1449 082e E2020000 		.4byte	.LASF105
 1450 0832 0E       		.byte	0xe
 1451 0833 A801     		.2byte	0x1a8
 1452 0835 75070000 		.4byte	0x775
 1453 0839 44       		.byte	0x44
 1454 083a 17       		.uleb128 0x17
 1455 083b 48050000 		.4byte	.LASF106
ARM GAS  C:\Users\jsyoon\AppData\Local\Temp\ccWY3jAf.s 			page 27


 1456 083f 0E       		.byte	0xe
 1457 0840 AC01     		.2byte	0x1ac
 1458 0842 B8000000 		.4byte	0xb8
 1459 0846 4C       		.byte	0x4c
 1460 0847 17       		.uleb128 0x17
 1461 0848 9B0A0000 		.4byte	.LASF107
 1462 084c 0E       		.byte	0xe
 1463 084d B001     		.2byte	0x1b0
 1464 084f AD000000 		.4byte	0xad
 1465 0853 4E       		.byte	0x4e
 1466 0854 17       		.uleb128 0x17
 1467 0855 15080000 		.4byte	.LASF108
 1468 0859 0E       		.byte	0xe
 1469 085a B401     		.2byte	0x1b4
 1470 085c AD000000 		.4byte	0xad
 1471 0860 4F       		.byte	0x4f
 1472 0861 0C       		.uleb128 0xc
 1473 0862 6F746700 		.ascii	"otg\000"
 1474 0866 0E       		.byte	0xe
 1475 0867 BC01     		.2byte	0x1bc
 1476 0869 40120000 		.4byte	0x1240
 1477 086d 50       		.byte	0x50
 1478 086e 17       		.uleb128 0x17
 1479 086f 8E0C0000 		.4byte	.LASF109
 1480 0873 0E       		.byte	0xe
 1481 0874 C001     		.2byte	0x1c0
 1482 0876 46120000 		.4byte	0x1246
 1483 087a 54       		.byte	0x54
 1484 087b 17       		.uleb128 0x17
 1485 087c 130B0000 		.4byte	.LASF110
 1486 0880 0E       		.byte	0xe
 1487 0881 C401     		.2byte	0x1c4
 1488 0883 CE000000 		.4byte	0xce
 1489 0887 58       		.byte	0x58
 1490 0888 17       		.uleb128 0x17
 1491 0889 6D0B0000 		.4byte	.LASF111
 1492 088d 0E       		.byte	0xe
 1493 088e C801     		.2byte	0x1c8
 1494 0890 CE000000 		.4byte	0xce
 1495 0894 5C       		.byte	0x5c
 1496 0895 17       		.uleb128 0x17
 1497 0896 B5020000 		.4byte	.LASF112
 1498 089a 0E       		.byte	0xe
 1499 089b CC01     		.2byte	0x1cc
 1500 089d 82020000 		.4byte	0x282
 1501 08a1 60       		.byte	0x60
 1502 08a2 17       		.uleb128 0x17
 1503 08a3 CE010000 		.4byte	.LASF113
 1504 08a7 0E       		.byte	0xe
 1505 08a8 D001     		.2byte	0x1d0
 1506 08aa 82020000 		.4byte	0x282
 1507 08ae 64       		.byte	0x64
 1508 08af 17       		.uleb128 0x17
 1509 08b0 F40C0000 		.4byte	.LASF114
 1510 08b4 0E       		.byte	0xe
 1511 08b5 D401     		.2byte	0x1d4
 1512 08b7 51120000 		.4byte	0x1251
ARM GAS  C:\Users\jsyoon\AppData\Local\Temp\ccWY3jAf.s 			page 28


 1513 08bb 68       		.byte	0x68
 1514 08bc 00       		.byte	0
 1515 08bd 03       		.uleb128 0x3
 1516 08be 530B0000 		.4byte	.LASF115
 1517 08c2 0D       		.byte	0xd
 1518 08c3 EE       		.byte	0xee
 1519 08c4 AD000000 		.4byte	0xad
 1520 08c8 18       		.uleb128 0x18
 1521 08c9 01       		.byte	0x1
 1522 08ca 0D       		.byte	0xd
 1523 08cb F3       		.byte	0xf3
 1524 08cc EF080000 		.4byte	0x8ef
 1525 08d0 19       		.uleb128 0x19
 1526 08d1 5C000000 		.4byte	.LASF116
 1527 08d5 00       		.sleb128 0
 1528 08d6 19       		.uleb128 0x19
 1529 08d7 6A0D0000 		.4byte	.LASF117
 1530 08db 01       		.sleb128 1
 1531 08dc 19       		.uleb128 0x19
 1532 08dd 7C000000 		.4byte	.LASF118
 1533 08e1 02       		.sleb128 2
 1534 08e2 19       		.uleb128 0x19
 1535 08e3 DA090000 		.4byte	.LASF119
 1536 08e7 03       		.sleb128 3
 1537 08e8 19       		.uleb128 0x19
 1538 08e9 0F040000 		.4byte	.LASF120
 1539 08ed 04       		.sleb128 4
 1540 08ee 00       		.byte	0
 1541 08ef 03       		.uleb128 0x3
 1542 08f0 B4050000 		.4byte	.LASF121
 1543 08f4 0D       		.byte	0xd
 1544 08f5 F9       		.byte	0xf9
 1545 08f6 C8080000 		.4byte	0x8c8
 1546 08fa 1A       		.uleb128 0x1a
 1547 08fb 01       		.byte	0x1
 1548 08fc 0D       		.byte	0xd
 1549 08fd 0701     		.2byte	0x107
 1550 08ff 2E090000 		.4byte	0x92e
 1551 0903 19       		.uleb128 0x19
 1552 0904 1A020000 		.4byte	.LASF122
 1553 0908 00       		.sleb128 0
 1554 0909 19       		.uleb128 0x19
 1555 090a FD000000 		.4byte	.LASF123
 1556 090e 01       		.sleb128 1
 1557 090f 19       		.uleb128 0x19
 1558 0910 97080000 		.4byte	.LASF124
 1559 0914 02       		.sleb128 2
 1560 0915 19       		.uleb128 0x19
 1561 0916 5F040000 		.4byte	.LASF125
 1562 091a 03       		.sleb128 3
 1563 091b 19       		.uleb128 0x19
 1564 091c 1B0D0000 		.4byte	.LASF126
 1565 0920 04       		.sleb128 4
 1566 0921 19       		.uleb128 0x19
 1567 0922 C50C0000 		.4byte	.LASF127
 1568 0926 05       		.sleb128 5
 1569 0927 19       		.uleb128 0x19
ARM GAS  C:\Users\jsyoon\AppData\Local\Temp\ccWY3jAf.s 			page 29


 1570 0928 2E0B0000 		.4byte	.LASF128
 1571 092c 06       		.sleb128 6
 1572 092d 00       		.byte	0
 1573 092e 1B       		.uleb128 0x1b
 1574 092f 2D0D0000 		.4byte	.LASF129
 1575 0933 0D       		.byte	0xd
 1576 0934 0F01     		.2byte	0x10f
 1577 0936 FA080000 		.4byte	0x8fa
 1578 093a 1A       		.uleb128 0x1a
 1579 093b 01       		.byte	0x1
 1580 093c 0D       		.byte	0xd
 1581 093d 1401     		.2byte	0x114
 1582 093f 68090000 		.4byte	0x968
 1583 0943 19       		.uleb128 0x19
 1584 0944 E8010000 		.4byte	.LASF130
 1585 0948 00       		.sleb128 0
 1586 0949 19       		.uleb128 0x19
 1587 094a B1040000 		.4byte	.LASF131
 1588 094e 01       		.sleb128 1
 1589 094f 19       		.uleb128 0x19
 1590 0950 3B0D0000 		.4byte	.LASF132
 1591 0954 02       		.sleb128 2
 1592 0955 19       		.uleb128 0x19
 1593 0956 9C000000 		.4byte	.LASF133
 1594 095a 03       		.sleb128 3
 1595 095b 19       		.uleb128 0x19
 1596 095c C20B0000 		.4byte	.LASF134
 1597 0960 04       		.sleb128 4
 1598 0961 19       		.uleb128 0x19
 1599 0962 EC070000 		.4byte	.LASF135
 1600 0966 05       		.sleb128 5
 1601 0967 00       		.byte	0
 1602 0968 1B       		.uleb128 0x1b
 1603 0969 070D0000 		.4byte	.LASF136
 1604 096d 0D       		.byte	0xd
 1605 096e 1B01     		.2byte	0x11b
 1606 0970 3A090000 		.4byte	0x93a
 1607 0974 1C       		.uleb128 0x1c
 1608 0975 08       		.byte	0x8
 1609 0976 0D       		.byte	0xd
 1610 0977 2001     		.2byte	0x120
 1611 0979 98090000 		.4byte	0x998
 1612 097d 17       		.uleb128 0x17
 1613 097e 92010000 		.4byte	.LASF137
 1614 0982 0D       		.byte	0xd
 1615 0983 2401     		.2byte	0x124
 1616 0985 2C000000 		.4byte	0x2c
 1617 0989 00       		.byte	0
 1618 098a 17       		.uleb128 0x17
 1619 098b AC0B0000 		.4byte	.LASF138
 1620 098f 0D       		.byte	0xd
 1621 0990 2801     		.2byte	0x128
 1622 0992 95060000 		.4byte	0x695
 1623 0996 04       		.byte	0x4
 1624 0997 00       		.byte	0
 1625 0998 1B       		.uleb128 0x1b
 1626 0999 C7080000 		.4byte	.LASF139
ARM GAS  C:\Users\jsyoon\AppData\Local\Temp\ccWY3jAf.s 			page 30


 1627 099d 0D       		.byte	0xd
 1628 099e 2901     		.2byte	0x129
 1629 09a0 74090000 		.4byte	0x974
 1630 09a4 1B       		.uleb128 0x1b
 1631 09a5 2B0C0000 		.4byte	.LASF140
 1632 09a9 0D       		.byte	0xd
 1633 09aa 3101     		.2byte	0x131
 1634 09ac B0090000 		.4byte	0x9b0
 1635 09b0 09       		.uleb128 0x9
 1636 09b1 04       		.byte	0x4
 1637 09b2 B6090000 		.4byte	0x9b6
 1638 09b6 13       		.uleb128 0x13
 1639 09b7 C1090000 		.4byte	0x9c1
 1640 09bb 12       		.uleb128 0x12
 1641 09bc C1090000 		.4byte	0x9c1
 1642 09c0 00       		.byte	0
 1643 09c1 09       		.uleb128 0x9
 1644 09c2 04       		.byte	0x4
 1645 09c3 85070000 		.4byte	0x785
 1646 09c7 1B       		.uleb128 0x1b
 1647 09c8 070A0000 		.4byte	.LASF141
 1648 09cc 0D       		.byte	0xd
 1649 09cd 3A01     		.2byte	0x13a
 1650 09cf D3090000 		.4byte	0x9d3
 1651 09d3 09       		.uleb128 0x9
 1652 09d4 04       		.byte	0x4
 1653 09d5 D9090000 		.4byte	0x9d9
 1654 09d9 13       		.uleb128 0x13
 1655 09da E9090000 		.4byte	0x9e9
 1656 09de 12       		.uleb128 0x12
 1657 09df C1090000 		.4byte	0x9c1
 1658 09e3 12       		.uleb128 0x12
 1659 09e4 BD080000 		.4byte	0x8bd
 1660 09e8 00       		.byte	0
 1661 09e9 1B       		.uleb128 0x1b
 1662 09ea 9A010000 		.4byte	.LASF142
 1663 09ee 0D       		.byte	0xd
 1664 09ef 4301     		.2byte	0x143
 1665 09f1 F5090000 		.4byte	0x9f5
 1666 09f5 09       		.uleb128 0x9
 1667 09f6 04       		.byte	0x4
 1668 09f7 FB090000 		.4byte	0x9fb
 1669 09fb 13       		.uleb128 0x13
 1670 09fc 0B0A0000 		.4byte	0xa0b
 1671 0a00 12       		.uleb128 0x12
 1672 0a01 C1090000 		.4byte	0x9c1
 1673 0a05 12       		.uleb128 0x12
 1674 0a06 68090000 		.4byte	0x968
 1675 0a0a 00       		.byte	0
 1676 0a0b 1B       		.uleb128 0x1b
 1677 0a0c 8F0D0000 		.4byte	.LASF143
 1678 0a10 0D       		.byte	0xd
 1679 0a11 4F01     		.2byte	0x14f
 1680 0a13 170A0000 		.4byte	0xa17
 1681 0a17 09       		.uleb128 0x9
 1682 0a18 04       		.byte	0x4
 1683 0a19 1D0A0000 		.4byte	0xa1d
ARM GAS  C:\Users\jsyoon\AppData\Local\Temp\ccWY3jAf.s 			page 31


 1684 0a1d 11       		.uleb128 0x11
 1685 0a1e E4000000 		.4byte	0xe4
 1686 0a22 2C0A0000 		.4byte	0xa2c
 1687 0a26 12       		.uleb128 0x12
 1688 0a27 C1090000 		.4byte	0x9c1
 1689 0a2b 00       		.byte	0
 1690 0a2c 1B       		.uleb128 0x1b
 1691 0a2d 85090000 		.4byte	.LASF144
 1692 0a31 0D       		.byte	0xd
 1693 0a32 5401     		.2byte	0x154
 1694 0a34 380A0000 		.4byte	0xa38
 1695 0a38 09       		.uleb128 0x9
 1696 0a39 04       		.byte	0x4
 1697 0a3a 3E0A0000 		.4byte	0xa3e
 1698 0a3e 11       		.uleb128 0x11
 1699 0a3f 5C0A0000 		.4byte	0xa5c
 1700 0a43 5C0A0000 		.4byte	0xa5c
 1701 0a47 12       		.uleb128 0x12
 1702 0a48 C1090000 		.4byte	0x9c1
 1703 0a4c 12       		.uleb128 0x12
 1704 0a4d AD000000 		.4byte	0xad
 1705 0a51 12       		.uleb128 0x12
 1706 0a52 AD000000 		.4byte	0xad
 1707 0a56 12       		.uleb128 0x12
 1708 0a57 B8000000 		.4byte	0xb8
 1709 0a5b 00       		.byte	0
 1710 0a5c 09       		.uleb128 0x9
 1711 0a5d 04       		.byte	0x4
 1712 0a5e 620A0000 		.4byte	0xa62
 1713 0a62 10       		.uleb128 0x10
 1714 0a63 98090000 		.4byte	0x998
 1715 0a67 08       		.uleb128 0x8
 1716 0a68 20       		.byte	0x20
 1717 0a69 0F       		.byte	0xf
 1718 0a6a 35       		.byte	0x35
 1719 0a6b D00A0000 		.4byte	0xad0
 1720 0a6f 06       		.uleb128 0x6
 1721 0a70 45040000 		.4byte	.LASF145
 1722 0a74 0F       		.byte	0xf
 1723 0a75 36       		.byte	0x36
 1724 0a76 38040000 		.4byte	0x438
 1725 0a7a 00       		.byte	0
 1726 0a7b 06       		.uleb128 0x6
 1727 0a7c 770B0000 		.4byte	.LASF146
 1728 0a80 0F       		.byte	0xf
 1729 0a81 38       		.byte	0x38
 1730 0a82 38040000 		.4byte	0x438
 1731 0a86 04       		.byte	0x4
 1732 0a87 06       		.uleb128 0x6
 1733 0a88 25090000 		.4byte	.LASF147
 1734 0a8c 0F       		.byte	0xf
 1735 0a8d 39       		.byte	0x39
 1736 0a8e 38040000 		.4byte	0x438
 1737 0a92 08       		.byte	0x8
 1738 0a93 06       		.uleb128 0x6
 1739 0a94 96070000 		.4byte	.LASF148
 1740 0a98 0F       		.byte	0xf
ARM GAS  C:\Users\jsyoon\AppData\Local\Temp\ccWY3jAf.s 			page 32


 1741 0a99 3A       		.byte	0x3a
 1742 0a9a 38040000 		.4byte	0x438
 1743 0a9e 0C       		.byte	0xc
 1744 0a9f 06       		.uleb128 0x6
 1745 0aa0 BF000000 		.4byte	.LASF149
 1746 0aa4 0F       		.byte	0xf
 1747 0aa5 3C       		.byte	0x3c
 1748 0aa6 38040000 		.4byte	0x438
 1749 0aaa 10       		.byte	0x10
 1750 0aab 06       		.uleb128 0x6
 1751 0aac 2F010000 		.4byte	.LASF150
 1752 0ab0 0F       		.byte	0xf
 1753 0ab1 3E       		.byte	0x3e
 1754 0ab2 38040000 		.4byte	0x438
 1755 0ab6 14       		.byte	0x14
 1756 0ab7 06       		.uleb128 0x6
 1757 0ab8 3F010000 		.4byte	.LASF151
 1758 0abc 0F       		.byte	0xf
 1759 0abd 3F       		.byte	0x3f
 1760 0abe 38040000 		.4byte	0x438
 1761 0ac2 18       		.byte	0x18
 1762 0ac3 06       		.uleb128 0x6
 1763 0ac4 C6010000 		.4byte	.LASF152
 1764 0ac8 0F       		.byte	0xf
 1765 0ac9 40       		.byte	0x40
 1766 0aca 38040000 		.4byte	0x438
 1767 0ace 1C       		.byte	0x1c
 1768 0acf 00       		.byte	0
 1769 0ad0 03       		.uleb128 0x3
 1770 0ad1 C6070000 		.4byte	.LASF153
 1771 0ad5 0F       		.byte	0xf
 1772 0ad6 41       		.byte	0x41
 1773 0ad7 670A0000 		.4byte	0xa67
 1774 0adb 08       		.uleb128 0x8
 1775 0adc 20       		.byte	0x20
 1776 0add 0F       		.byte	0xf
 1777 0ade 46       		.byte	0x46
 1778 0adf 440B0000 		.4byte	0xb44
 1779 0ae3 06       		.uleb128 0x6
 1780 0ae4 7D090000 		.4byte	.LASF154
 1781 0ae8 0F       		.byte	0xf
 1782 0ae9 47       		.byte	0x47
 1783 0aea 38040000 		.4byte	0x438
 1784 0aee 00       		.byte	0
 1785 0aef 06       		.uleb128 0x6
 1786 0af0 70000000 		.4byte	.LASF155
 1787 0af4 0F       		.byte	0xf
 1788 0af5 49       		.byte	0x49
 1789 0af6 38040000 		.4byte	0x438
 1790 0afa 04       		.byte	0x4
 1791 0afb 06       		.uleb128 0x6
 1792 0afc D90B0000 		.4byte	.LASF156
 1793 0b00 0F       		.byte	0xf
 1794 0b01 4A       		.byte	0x4a
 1795 0b02 38040000 		.4byte	0x438
 1796 0b06 08       		.byte	0x8
 1797 0b07 06       		.uleb128 0x6
ARM GAS  C:\Users\jsyoon\AppData\Local\Temp\ccWY3jAf.s 			page 33


 1798 0b08 C6000000 		.4byte	.LASF157
 1799 0b0c 0F       		.byte	0xf
 1800 0b0d 4C       		.byte	0x4c
 1801 0b0e 38040000 		.4byte	0x438
 1802 0b12 0C       		.byte	0xc
 1803 0b13 06       		.uleb128 0x6
 1804 0b14 16000000 		.4byte	.LASF158
 1805 0b18 0F       		.byte	0xf
 1806 0b19 4D       		.byte	0x4d
 1807 0b1a 38040000 		.4byte	0x438
 1808 0b1e 10       		.byte	0x10
 1809 0b1f 06       		.uleb128 0x6
 1810 0b20 2F010000 		.4byte	.LASF150
 1811 0b24 0F       		.byte	0xf
 1812 0b25 4F       		.byte	0x4f
 1813 0b26 38040000 		.4byte	0x438
 1814 0b2a 14       		.byte	0x14
 1815 0b2b 06       		.uleb128 0x6
 1816 0b2c B2070000 		.4byte	.LASF159
 1817 0b30 0F       		.byte	0xf
 1818 0b31 50       		.byte	0x50
 1819 0b32 38040000 		.4byte	0x438
 1820 0b36 18       		.byte	0x18
 1821 0b37 06       		.uleb128 0x6
 1822 0b38 65010000 		.4byte	.LASF160
 1823 0b3c 0F       		.byte	0xf
 1824 0b3d 52       		.byte	0x52
 1825 0b3e 38040000 		.4byte	0x438
 1826 0b42 1C       		.byte	0x1c
 1827 0b43 00       		.byte	0
 1828 0b44 03       		.uleb128 0x3
 1829 0b45 B3030000 		.4byte	.LASF161
 1830 0b49 0F       		.byte	0xf
 1831 0b4a 53       		.byte	0x53
 1832 0b4b DB0A0000 		.4byte	0xadb
 1833 0b4f 08       		.uleb128 0x8
 1834 0b50 20       		.byte	0x20
 1835 0b51 0F       		.byte	0xf
 1836 0b52 58       		.byte	0x58
 1837 0b53 B80B0000 		.4byte	0xbb8
 1838 0b57 06       		.uleb128 0x6
 1839 0b58 0A070000 		.4byte	.LASF162
 1840 0b5c 0F       		.byte	0xf
 1841 0b5d 59       		.byte	0x59
 1842 0b5e 38040000 		.4byte	0x438
 1843 0b62 00       		.byte	0
 1844 0b63 06       		.uleb128 0x6
 1845 0b64 70000000 		.4byte	.LASF155
 1846 0b68 0F       		.byte	0xf
 1847 0b69 5B       		.byte	0x5b
 1848 0b6a 38040000 		.4byte	0x438
 1849 0b6e 04       		.byte	0x4
 1850 0b6f 06       		.uleb128 0x6
 1851 0b70 FC060000 		.4byte	.LASF163
 1852 0b74 0F       		.byte	0xf
 1853 0b75 5C       		.byte	0x5c
 1854 0b76 38040000 		.4byte	0x438
ARM GAS  C:\Users\jsyoon\AppData\Local\Temp\ccWY3jAf.s 			page 34


 1855 0b7a 08       		.byte	0x8
 1856 0b7b 06       		.uleb128 0x6
 1857 0b7c C6000000 		.4byte	.LASF157
 1858 0b80 0F       		.byte	0xf
 1859 0b81 5E       		.byte	0x5e
 1860 0b82 38040000 		.4byte	0x438
 1861 0b86 0C       		.byte	0xc
 1862 0b87 06       		.uleb128 0x6
 1863 0b88 81030000 		.4byte	.LASF164
 1864 0b8c 0F       		.byte	0xf
 1865 0b8d 5F       		.byte	0x5f
 1866 0b8e 38040000 		.4byte	0x438
 1867 0b92 10       		.byte	0x10
 1868 0b93 06       		.uleb128 0x6
 1869 0b94 2F010000 		.4byte	.LASF150
 1870 0b98 0F       		.byte	0xf
 1871 0b99 61       		.byte	0x61
 1872 0b9a 38040000 		.4byte	0x438
 1873 0b9e 14       		.byte	0x14
 1874 0b9f 06       		.uleb128 0x6
 1875 0ba0 3F010000 		.4byte	.LASF151
 1876 0ba4 0F       		.byte	0xf
 1877 0ba5 62       		.byte	0x62
 1878 0ba6 38040000 		.4byte	0x438
 1879 0baa 18       		.byte	0x18
 1880 0bab 06       		.uleb128 0x6
 1881 0bac 65010000 		.4byte	.LASF160
 1882 0bb0 0F       		.byte	0xf
 1883 0bb1 63       		.byte	0x63
 1884 0bb2 38040000 		.4byte	0x438
 1885 0bb6 1C       		.byte	0x1c
 1886 0bb7 00       		.byte	0
 1887 0bb8 03       		.uleb128 0x3
 1888 0bb9 DD0A0000 		.4byte	.LASF165
 1889 0bbd 0F       		.byte	0xf
 1890 0bbe 64       		.byte	0x64
 1891 0bbf 4F0B0000 		.4byte	0xb4f
 1892 0bc3 1D       		.uleb128 0x1d
 1893 0bc4 00100100 		.4byte	0x11000
 1894 0bc8 0F       		.byte	0xf
 1895 0bc9 69       		.byte	0x69
 1896 0bca A00E0000 		.4byte	0xea0
 1897 0bce 06       		.uleb128 0x6
 1898 0bcf 3C0A0000 		.4byte	.LASF166
 1899 0bd3 0F       		.byte	0xf
 1900 0bd4 6A       		.byte	0x6a
 1901 0bd5 38040000 		.4byte	0x438
 1902 0bd9 00       		.byte	0
 1903 0bda 06       		.uleb128 0x6
 1904 0bdb 200A0000 		.4byte	.LASF167
 1905 0bdf 0F       		.byte	0xf
 1906 0be0 6B       		.byte	0x6b
 1907 0be1 38040000 		.4byte	0x438
 1908 0be5 04       		.byte	0x4
 1909 0be6 06       		.uleb128 0x6
 1910 0be7 B4080000 		.4byte	.LASF168
 1911 0beb 0F       		.byte	0xf
ARM GAS  C:\Users\jsyoon\AppData\Local\Temp\ccWY3jAf.s 			page 35


 1912 0bec 6C       		.byte	0x6c
 1913 0bed 38040000 		.4byte	0x438
 1914 0bf1 08       		.byte	0x8
 1915 0bf2 06       		.uleb128 0x6
 1916 0bf3 E0010000 		.4byte	.LASF169
 1917 0bf7 0F       		.byte	0xf
 1918 0bf8 6D       		.byte	0x6d
 1919 0bf9 38040000 		.4byte	0x438
 1920 0bfd 0C       		.byte	0xc
 1921 0bfe 06       		.uleb128 0x6
 1922 0bff FC040000 		.4byte	.LASF170
 1923 0c03 0F       		.byte	0xf
 1924 0c04 6E       		.byte	0x6e
 1925 0c05 38040000 		.4byte	0x438
 1926 0c09 10       		.byte	0x10
 1927 0c0a 06       		.uleb128 0x6
 1928 0c0b 37010000 		.4byte	.LASF171
 1929 0c0f 0F       		.byte	0xf
 1930 0c10 6F       		.byte	0x6f
 1931 0c11 38040000 		.4byte	0x438
 1932 0c15 14       		.byte	0x14
 1933 0c16 06       		.uleb128 0x6
 1934 0c17 DC080000 		.4byte	.LASF172
 1935 0c1b 0F       		.byte	0xf
 1936 0c1c 70       		.byte	0x70
 1937 0c1d 38040000 		.4byte	0x438
 1938 0c21 18       		.byte	0x18
 1939 0c22 06       		.uleb128 0x6
 1940 0c23 AB0A0000 		.4byte	.LASF173
 1941 0c27 0F       		.byte	0xf
 1942 0c28 71       		.byte	0x71
 1943 0c29 38040000 		.4byte	0x438
 1944 0c2d 1C       		.byte	0x1c
 1945 0c2e 06       		.uleb128 0x6
 1946 0c2f A30A0000 		.4byte	.LASF174
 1947 0c33 0F       		.byte	0xf
 1948 0c34 73       		.byte	0x73
 1949 0c35 38040000 		.4byte	0x438
 1950 0c39 20       		.byte	0x20
 1951 0c3a 06       		.uleb128 0x6
 1952 0c3b 2A030000 		.4byte	.LASF175
 1953 0c3f 0F       		.byte	0xf
 1954 0c40 75       		.byte	0x75
 1955 0c41 38040000 		.4byte	0x438
 1956 0c45 24       		.byte	0x24
 1957 0c46 06       		.uleb128 0x6
 1958 0c47 170A0000 		.4byte	.LASF176
 1959 0c4b 0F       		.byte	0xf
 1960 0c4c 76       		.byte	0x76
 1961 0c4d 38040000 		.4byte	0x438
 1962 0c51 28       		.byte	0x28
 1963 0c52 06       		.uleb128 0x6
 1964 0c53 DB070000 		.4byte	.LASF177
 1965 0c57 0F       		.byte	0xf
 1966 0c58 78       		.byte	0x78
 1967 0c59 38040000 		.4byte	0x438
 1968 0c5d 2C       		.byte	0x2c
ARM GAS  C:\Users\jsyoon\AppData\Local\Temp\ccWY3jAf.s 			page 36


 1969 0c5e 06       		.uleb128 0x6
 1970 0c5f C9020000 		.4byte	.LASF178
 1971 0c63 0F       		.byte	0xf
 1972 0c64 7A       		.byte	0x7a
 1973 0c65 38040000 		.4byte	0x438
 1974 0c69 30       		.byte	0x30
 1975 0c6a 06       		.uleb128 0x6
 1976 0c6b 15010000 		.4byte	.LASF179
 1977 0c6f 0F       		.byte	0xf
 1978 0c70 7B       		.byte	0x7b
 1979 0c71 38040000 		.4byte	0x438
 1980 0c75 34       		.byte	0x34
 1981 0c76 06       		.uleb128 0x6
 1982 0c77 59010000 		.4byte	.LASF180
 1983 0c7b 0F       		.byte	0xf
 1984 0c7c 7C       		.byte	0x7c
 1985 0c7d 38040000 		.4byte	0x438
 1986 0c81 38       		.byte	0x38
 1987 0c82 07       		.uleb128 0x7
 1988 0c83 43494400 		.ascii	"CID\000"
 1989 0c87 0F       		.byte	0xf
 1990 0c88 7D       		.byte	0x7d
 1991 0c89 38040000 		.4byte	0x438
 1992 0c8d 3C       		.byte	0x3c
 1993 0c8e 06       		.uleb128 0x6
 1994 0c8f 57040000 		.4byte	.LASF181
 1995 0c93 0F       		.byte	0xf
 1996 0c94 7E       		.byte	0x7e
 1997 0c95 B00E0000 		.4byte	0xeb0
 1998 0c99 40       		.byte	0x40
 1999 0c9a 1E       		.uleb128 0x1e
 2000 0c9b E4080000 		.4byte	.LASF182
 2001 0c9f 0F       		.byte	0xf
 2002 0ca0 7F       		.byte	0x7f
 2003 0ca1 38040000 		.4byte	0x438
 2004 0ca5 0001     		.2byte	0x100
 2005 0ca7 1E       		.uleb128 0x1e
 2006 0ca8 F10B0000 		.4byte	.LASF183
 2007 0cac 0F       		.byte	0xf
 2008 0cad 81       		.byte	0x81
 2009 0cae B50E0000 		.4byte	0xeb5
 2010 0cb2 0401     		.2byte	0x104
 2011 0cb4 1E       		.uleb128 0x1e
 2012 0cb5 75020000 		.4byte	.LASF184
 2013 0cb9 0F       		.byte	0xf
 2014 0cba 83       		.byte	0x83
 2015 0cbb CA0E0000 		.4byte	0xeca
 2016 0cbf 4001     		.2byte	0x140
 2017 0cc1 1E       		.uleb128 0x1e
 2018 0cc2 2D040000 		.4byte	.LASF185
 2019 0cc6 0F       		.byte	0xf
 2020 0cc7 84       		.byte	0x84
 2021 0cc8 38040000 		.4byte	0x438
 2022 0ccc 0004     		.2byte	0x400
 2023 0cce 1E       		.uleb128 0x1e
 2024 0ccf EC0B0000 		.4byte	.LASF186
 2025 0cd3 0F       		.byte	0xf
ARM GAS  C:\Users\jsyoon\AppData\Local\Temp\ccWY3jAf.s 			page 37


 2026 0cd4 85       		.byte	0x85
 2027 0cd5 38040000 		.4byte	0x438
 2028 0cd9 0404     		.2byte	0x404
 2029 0cdb 1E       		.uleb128 0x1e
 2030 0cdc 3C0B0000 		.4byte	.LASF187
 2031 0ce0 0F       		.byte	0xf
 2032 0ce1 86       		.byte	0x86
 2033 0ce2 38040000 		.4byte	0x438
 2034 0ce6 0804     		.2byte	0x408
 2035 0ce8 1E       		.uleb128 0x1e
 2036 0ce9 B1010000 		.4byte	.LASF188
 2037 0ced 0F       		.byte	0xf
 2038 0cee 88       		.byte	0x88
 2039 0cef 38040000 		.4byte	0x438
 2040 0cf3 0C04     		.2byte	0x40c
 2041 0cf5 1E       		.uleb128 0x1e
 2042 0cf6 E4070000 		.4byte	.LASF189
 2043 0cfa 0F       		.byte	0xf
 2044 0cfb 89       		.byte	0x89
 2045 0cfc 38040000 		.4byte	0x438
 2046 0d00 1004     		.2byte	0x410
 2047 0d02 1E       		.uleb128 0x1e
 2048 0d03 44070000 		.4byte	.LASF190
 2049 0d07 0F       		.byte	0xf
 2050 0d08 8B       		.byte	0x8b
 2051 0d09 38040000 		.4byte	0x438
 2052 0d0d 1404     		.2byte	0x414
 2053 0d0f 1E       		.uleb128 0x1e
 2054 0d10 C3040000 		.4byte	.LASF191
 2055 0d14 0F       		.byte	0xf
 2056 0d15 8D       		.byte	0x8d
 2057 0d16 38040000 		.4byte	0x438
 2058 0d1a 1804     		.2byte	0x418
 2059 0d1c 1E       		.uleb128 0x1e
 2060 0d1d 8E020000 		.4byte	.LASF192
 2061 0d21 0F       		.byte	0xf
 2062 0d22 8F       		.byte	0x8f
 2063 0d23 DF0E0000 		.4byte	0xedf
 2064 0d27 1C04     		.2byte	0x41c
 2065 0d29 1E       		.uleb128 0x1e
 2066 0d2a 9B030000 		.4byte	.LASF193
 2067 0d2e 0F       		.byte	0xf
 2068 0d2f 90       		.byte	0x90
 2069 0d30 38040000 		.4byte	0x438
 2070 0d34 4004     		.2byte	0x440
 2071 0d36 1E       		.uleb128 0x1e
 2072 0d37 C5030000 		.4byte	.LASF194
 2073 0d3b 0F       		.byte	0xf
 2074 0d3c 92       		.byte	0x92
 2075 0d3d F40E0000 		.4byte	0xef4
 2076 0d41 4404     		.2byte	0x444
 2077 0d43 1F       		.uleb128 0x1f
 2078 0d44 686300   		.ascii	"hc\000"
 2079 0d47 0F       		.byte	0xf
 2080 0d48 93       		.byte	0x93
 2081 0d49 F90E0000 		.4byte	0xef9
 2082 0d4d 0005     		.2byte	0x500
ARM GAS  C:\Users\jsyoon\AppData\Local\Temp\ccWY3jAf.s 			page 38


 2083 0d4f 1E       		.uleb128 0x1e
 2084 0d50 AA030000 		.4byte	.LASF195
 2085 0d54 0F       		.byte	0xf
 2086 0d55 94       		.byte	0x94
 2087 0d56 190F0000 		.4byte	0xf19
 2088 0d5a 0007     		.2byte	0x700
 2089 0d5c 1E       		.uleb128 0x1e
 2090 0d5d 57000000 		.4byte	.LASF196
 2091 0d61 0F       		.byte	0xf
 2092 0d62 95       		.byte	0x95
 2093 0d63 38040000 		.4byte	0x438
 2094 0d67 0008     		.2byte	0x800
 2095 0d69 1E       		.uleb128 0x1e
 2096 0d6a F90B0000 		.4byte	.LASF197
 2097 0d6e 0F       		.byte	0xf
 2098 0d6f 96       		.byte	0x96
 2099 0d70 38040000 		.4byte	0x438
 2100 0d74 0408     		.2byte	0x804
 2101 0d76 1E       		.uleb128 0x1e
 2102 0d77 CE030000 		.4byte	.LASF198
 2103 0d7b 0F       		.byte	0xf
 2104 0d7c 97       		.byte	0x97
 2105 0d7d 38040000 		.4byte	0x438
 2106 0d81 0808     		.2byte	0x808
 2107 0d83 1E       		.uleb128 0x1e
 2108 0d84 BC090000 		.4byte	.LASF199
 2109 0d88 0F       		.byte	0xf
 2110 0d89 98       		.byte	0x98
 2111 0d8a 38040000 		.4byte	0x438
 2112 0d8e 0C08     		.2byte	0x80c
 2113 0d90 1E       		.uleb128 0x1e
 2114 0d91 620A0000 		.4byte	.LASF200
 2115 0d95 0F       		.byte	0xf
 2116 0d96 99       		.byte	0x99
 2117 0d97 38040000 		.4byte	0x438
 2118 0d9b 1008     		.2byte	0x810
 2119 0d9d 1E       		.uleb128 0x1e
 2120 0d9e A9040000 		.4byte	.LASF201
 2121 0da2 0F       		.byte	0xf
 2122 0da3 9B       		.byte	0x9b
 2123 0da4 38040000 		.4byte	0x438
 2124 0da8 1408     		.2byte	0x814
 2125 0daa 1E       		.uleb128 0x1e
 2126 0dab BF0C0000 		.4byte	.LASF202
 2127 0daf 0F       		.byte	0xf
 2128 0db0 9D       		.byte	0x9d
 2129 0db1 38040000 		.4byte	0x438
 2130 0db5 1808     		.2byte	0x818
 2131 0db7 1E       		.uleb128 0x1e
 2132 0db8 440A0000 		.4byte	.LASF203
 2133 0dbc 0F       		.byte	0xf
 2134 0dbd 9F       		.byte	0x9f
 2135 0dbe 38040000 		.4byte	0x438
 2136 0dc2 1C08     		.2byte	0x81c
 2137 0dc4 1E       		.uleb128 0x1e
 2138 0dc5 0A0B0000 		.4byte	.LASF204
 2139 0dc9 0F       		.byte	0xf
ARM GAS  C:\Users\jsyoon\AppData\Local\Temp\ccWY3jAf.s 			page 39


 2140 0dca A1       		.byte	0xa1
 2141 0dcb 38040000 		.4byte	0x438
 2142 0dcf 2008     		.2byte	0x820
 2143 0dd1 1E       		.uleb128 0x1e
 2144 0dd2 250B0000 		.4byte	.LASF205
 2145 0dd6 0F       		.byte	0xf
 2146 0dd7 A2       		.byte	0xa2
 2147 0dd8 38040000 		.4byte	0x438
 2148 0ddc 2408     		.2byte	0x824
 2149 0dde 1E       		.uleb128 0x1e
 2150 0ddf D7010000 		.4byte	.LASF206
 2151 0de3 0F       		.byte	0xf
 2152 0de4 A3       		.byte	0xa3
 2153 0de5 38040000 		.4byte	0x438
 2154 0de9 2808     		.2byte	0x828
 2155 0deb 1E       		.uleb128 0x1e
 2156 0dec 2D080000 		.4byte	.LASF207
 2157 0df0 0F       		.byte	0xf
 2158 0df1 A5       		.byte	0xa5
 2159 0df2 38040000 		.4byte	0x438
 2160 0df6 2C08     		.2byte	0x82c
 2161 0df8 1E       		.uleb128 0x1e
 2162 0df9 130C0000 		.4byte	.LASF208
 2163 0dfd 0F       		.byte	0xf
 2164 0dfe A7       		.byte	0xa7
 2165 0dff 38040000 		.4byte	0x438
 2166 0e03 3008     		.2byte	0x830
 2167 0e05 1E       		.uleb128 0x1e
 2168 0e06 AA020000 		.4byte	.LASF209
 2169 0e0a 0F       		.byte	0xf
 2170 0e0b A8       		.byte	0xa8
 2171 0e0c 38040000 		.4byte	0x438
 2172 0e10 3408     		.2byte	0x834
 2173 0e12 1E       		.uleb128 0x1e
 2174 0e13 A0040000 		.4byte	.LASF210
 2175 0e17 0F       		.byte	0xf
 2176 0e18 AA       		.byte	0xaa
 2177 0e19 38040000 		.4byte	0x438
 2178 0e1d 3808     		.2byte	0x838
 2179 0e1f 1E       		.uleb128 0x1e
 2180 0e20 610C0000 		.4byte	.LASF211
 2181 0e24 0F       		.byte	0xf
 2182 0e25 AB       		.byte	0xab
 2183 0e26 38040000 		.4byte	0x438
 2184 0e2a 3C08     		.2byte	0x83c
 2185 0e2c 1E       		.uleb128 0x1e
 2186 0e2d 120D0000 		.4byte	.LASF212
 2187 0e31 0F       		.byte	0xf
 2188 0e32 AC       		.byte	0xac
 2189 0e33 2E0F0000 		.4byte	0xf2e
 2190 0e37 4008     		.2byte	0x840
 2191 0e39 1E       		.uleb128 0x1e
 2192 0e3a D9020000 		.4byte	.LASF213
 2193 0e3e 0F       		.byte	0xf
 2194 0e3f AD       		.byte	0xad
 2195 0e40 330F0000 		.4byte	0xf33
 2196 0e44 8008     		.2byte	0x880
ARM GAS  C:\Users\jsyoon\AppData\Local\Temp\ccWY3jAf.s 			page 40


 2197 0e46 1E       		.uleb128 0x1e
 2198 0e47 EB0C0000 		.4byte	.LASF214
 2199 0e4b 0F       		.byte	0xf
 2200 0e4c AE       		.byte	0xae
 2201 0e4d 380F0000 		.4byte	0xf38
 2202 0e51 C008     		.2byte	0x8c0
 2203 0e53 1F       		.uleb128 0x1f
 2204 0e54 696500   		.ascii	"ie\000"
 2205 0e57 0F       		.byte	0xf
 2206 0e58 AF       		.byte	0xaf
 2207 0e59 3D0F0000 		.4byte	0xf3d
 2208 0e5d 0009     		.2byte	0x900
 2209 0e5f 1F       		.uleb128 0x1f
 2210 0e60 6F6500   		.ascii	"oe\000"
 2211 0e63 0F       		.byte	0xf
 2212 0e64 B0       		.byte	0xb0
 2213 0e65 4D0F0000 		.4byte	0xf4d
 2214 0e69 000B     		.2byte	0xb00
 2215 0e6b 1E       		.uleb128 0x1e
 2216 0e6c 4F050000 		.4byte	.LASF215
 2217 0e70 0F       		.byte	0xf
 2218 0e71 B1       		.byte	0xb1
 2219 0e72 5D0F0000 		.4byte	0xf5d
 2220 0e76 000D     		.2byte	0xd00
 2221 0e78 1E       		.uleb128 0x1e
 2222 0e79 1C0C0000 		.4byte	.LASF216
 2223 0e7d 0F       		.byte	0xf
 2224 0e7e B2       		.byte	0xb2
 2225 0e7f 38040000 		.4byte	0x438
 2226 0e83 000E     		.2byte	0xe00
 2227 0e85 1E       		.uleb128 0x1e
 2228 0e86 A30B0000 		.4byte	.LASF217
 2229 0e8a 0F       		.byte	0xf
 2230 0e8b B4       		.byte	0xb4
 2231 0e8c 720F0000 		.4byte	0xf72
 2232 0e90 040E     		.2byte	0xe04
 2233 0e92 1E       		.uleb128 0x1e
 2234 0e93 10080000 		.4byte	.LASF218
 2235 0e97 0F       		.byte	0xf
 2236 0e98 B5       		.byte	0xb5
 2237 0e99 8E0F0000 		.4byte	0xf8e
 2238 0e9d 0010     		.2byte	0x1000
 2239 0e9f 00       		.byte	0
 2240 0ea0 14       		.uleb128 0x14
 2241 0ea1 CE000000 		.4byte	0xce
 2242 0ea5 B00E0000 		.4byte	0xeb0
 2243 0ea9 15       		.uleb128 0x15
 2244 0eaa 3D040000 		.4byte	0x43d
 2245 0eae 2F       		.byte	0x2f
 2246 0eaf 00       		.byte	0
 2247 0eb0 0D       		.uleb128 0xd
 2248 0eb1 A00E0000 		.4byte	0xea0
 2249 0eb5 0D       		.uleb128 0xd
 2250 0eb6 DF060000 		.4byte	0x6df
 2251 0eba 14       		.uleb128 0x14
 2252 0ebb CE000000 		.4byte	0xce
 2253 0ebf CA0E0000 		.4byte	0xeca
ARM GAS  C:\Users\jsyoon\AppData\Local\Temp\ccWY3jAf.s 			page 41


 2254 0ec3 15       		.uleb128 0x15
 2255 0ec4 3D040000 		.4byte	0x43d
 2256 0ec8 AF       		.byte	0xaf
 2257 0ec9 00       		.byte	0
 2258 0eca 0D       		.uleb128 0xd
 2259 0ecb BA0E0000 		.4byte	0xeba
 2260 0ecf 14       		.uleb128 0x14
 2261 0ed0 CE000000 		.4byte	0xce
 2262 0ed4 DF0E0000 		.4byte	0xedf
 2263 0ed8 15       		.uleb128 0x15
 2264 0ed9 3D040000 		.4byte	0x43d
 2265 0edd 08       		.byte	0x8
 2266 0ede 00       		.byte	0
 2267 0edf 0D       		.uleb128 0xd
 2268 0ee0 CF0E0000 		.4byte	0xecf
 2269 0ee4 14       		.uleb128 0x14
 2270 0ee5 CE000000 		.4byte	0xce
 2271 0ee9 F40E0000 		.4byte	0xef4
 2272 0eed 15       		.uleb128 0x15
 2273 0eee 3D040000 		.4byte	0x43d
 2274 0ef2 2E       		.byte	0x2e
 2275 0ef3 00       		.byte	0
 2276 0ef4 0D       		.uleb128 0xd
 2277 0ef5 E40E0000 		.4byte	0xee4
 2278 0ef9 14       		.uleb128 0x14
 2279 0efa D00A0000 		.4byte	0xad0
 2280 0efe 090F0000 		.4byte	0xf09
 2281 0f02 15       		.uleb128 0x15
 2282 0f03 3D040000 		.4byte	0x43d
 2283 0f07 0F       		.byte	0xf
 2284 0f08 00       		.byte	0
 2285 0f09 14       		.uleb128 0x14
 2286 0f0a CE000000 		.4byte	0xce
 2287 0f0e 190F0000 		.4byte	0xf19
 2288 0f12 15       		.uleb128 0x15
 2289 0f13 3D040000 		.4byte	0x43d
 2290 0f17 3F       		.byte	0x3f
 2291 0f18 00       		.byte	0
 2292 0f19 0D       		.uleb128 0xd
 2293 0f1a 090F0000 		.4byte	0xf09
 2294 0f1e 14       		.uleb128 0x14
 2295 0f1f CE000000 		.4byte	0xce
 2296 0f23 2E0F0000 		.4byte	0xf2e
 2297 0f27 15       		.uleb128 0x15
 2298 0f28 3D040000 		.4byte	0x43d
 2299 0f2c 0F       		.byte	0xf
 2300 0f2d 00       		.byte	0
 2301 0f2e 0D       		.uleb128 0xd
 2302 0f2f 1E0F0000 		.4byte	0xf1e
 2303 0f33 0D       		.uleb128 0xd
 2304 0f34 1E0F0000 		.4byte	0xf1e
 2305 0f38 0D       		.uleb128 0xd
 2306 0f39 1E0F0000 		.4byte	0xf1e
 2307 0f3d 14       		.uleb128 0x14
 2308 0f3e 440B0000 		.4byte	0xb44
 2309 0f42 4D0F0000 		.4byte	0xf4d
 2310 0f46 15       		.uleb128 0x15
ARM GAS  C:\Users\jsyoon\AppData\Local\Temp\ccWY3jAf.s 			page 42


 2311 0f47 3D040000 		.4byte	0x43d
 2312 0f4b 0F       		.byte	0xf
 2313 0f4c 00       		.byte	0
 2314 0f4d 14       		.uleb128 0x14
 2315 0f4e B80B0000 		.4byte	0xbb8
 2316 0f52 5D0F0000 		.4byte	0xf5d
 2317 0f56 15       		.uleb128 0x15
 2318 0f57 3D040000 		.4byte	0x43d
 2319 0f5b 0F       		.byte	0xf
 2320 0f5c 00       		.byte	0
 2321 0f5d 0D       		.uleb128 0xd
 2322 0f5e 090F0000 		.4byte	0xf09
 2323 0f62 14       		.uleb128 0x14
 2324 0f63 CE000000 		.4byte	0xce
 2325 0f67 720F0000 		.4byte	0xf72
 2326 0f6b 15       		.uleb128 0x15
 2327 0f6c 3D040000 		.4byte	0x43d
 2328 0f70 7E       		.byte	0x7e
 2329 0f71 00       		.byte	0
 2330 0f72 0D       		.uleb128 0xd
 2331 0f73 620F0000 		.4byte	0xf62
 2332 0f77 14       		.uleb128 0x14
 2333 0f78 CE000000 		.4byte	0xce
 2334 0f7c 8E0F0000 		.4byte	0xf8e
 2335 0f80 15       		.uleb128 0x15
 2336 0f81 3D040000 		.4byte	0x43d
 2337 0f85 0F       		.byte	0xf
 2338 0f86 20       		.uleb128 0x20
 2339 0f87 3D040000 		.4byte	0x43d
 2340 0f8b FF03     		.2byte	0x3ff
 2341 0f8d 00       		.byte	0
 2342 0f8e 0D       		.uleb128 0xd
 2343 0f8f 770F0000 		.4byte	0xf77
 2344 0f93 03       		.uleb128 0x3
 2345 0f94 F00A0000 		.4byte	.LASF219
 2346 0f98 0F       		.byte	0xf
 2347 0f99 B6       		.byte	0xb6
 2348 0f9a C30B0000 		.4byte	0xbc3
 2349 0f9e 08       		.uleb128 0x8
 2350 0f9f 0C       		.byte	0xc
 2351 0fa0 0E       		.byte	0xe
 2352 0fa1 C1       		.byte	0xc1
 2353 0fa2 CB0F0000 		.4byte	0xfcb
 2354 0fa6 06       		.uleb128 0x6
 2355 0fa7 20040000 		.4byte	.LASF220
 2356 0fab 0E       		.byte	0xe
 2357 0fac C2       		.byte	0xc2
 2358 0fad CE000000 		.4byte	0xce
 2359 0fb1 00       		.byte	0
 2360 0fb2 06       		.uleb128 0x6
 2361 0fb3 6D010000 		.4byte	.LASF221
 2362 0fb7 0E       		.byte	0xe
 2363 0fb8 C3       		.byte	0xc3
 2364 0fb9 CE000000 		.4byte	0xce
 2365 0fbd 04       		.byte	0x4
 2366 0fbe 06       		.uleb128 0x6
 2367 0fbf 30020000 		.4byte	.LASF222
ARM GAS  C:\Users\jsyoon\AppData\Local\Temp\ccWY3jAf.s 			page 43


 2368 0fc3 0E       		.byte	0xe
 2369 0fc4 C4       		.byte	0xc4
 2370 0fc5 CE000000 		.4byte	0xce
 2371 0fc9 08       		.byte	0x8
 2372 0fca 00       		.byte	0
 2373 0fcb 03       		.uleb128 0x3
 2374 0fcc 12070000 		.4byte	.LASF223
 2375 0fd0 0E       		.byte	0xe
 2376 0fd1 C5       		.byte	0xc5
 2377 0fd2 9E0F0000 		.4byte	0xf9e
 2378 0fd6 08       		.uleb128 0x8
 2379 0fd7 04       		.byte	0x4
 2380 0fd8 0E       		.byte	0xe
 2381 0fd9 D8       		.byte	0xd8
 2382 0fda EB0F0000 		.4byte	0xfeb
 2383 0fde 06       		.uleb128 0x6
 2384 0fdf B6090000 		.4byte	.LASF224
 2385 0fe3 0E       		.byte	0xe
 2386 0fe4 DC       		.byte	0xdc
 2387 0fe5 95060000 		.4byte	0x695
 2388 0fe9 00       		.byte	0
 2389 0fea 00       		.byte	0
 2390 0feb 08       		.uleb128 0x8
 2391 0fec 04       		.byte	0x4
 2392 0fed 0E       		.byte	0xe
 2393 0fee DE       		.byte	0xde
 2394 0fef 00100000 		.4byte	0x1000
 2395 0ff3 06       		.uleb128 0x6
 2396 0ff4 F1090000 		.4byte	.LASF225
 2397 0ff8 0E       		.byte	0xe
 2398 0ff9 E2       		.byte	0xe2
 2399 0ffa 00100000 		.4byte	0x1000
 2400 0ffe 00       		.byte	0
 2401 0fff 00       		.byte	0
 2402 1000 09       		.uleb128 0x9
 2403 1001 04       		.byte	0x4
 2404 1002 71060000 		.4byte	0x671
 2405 1006 0E       		.uleb128 0xe
 2406 1007 04       		.byte	0x4
 2407 1008 0E       		.byte	0xe
 2408 1009 D7       		.byte	0xd7
 2409 100a 25100000 		.4byte	0x1025
 2410 100e 0F       		.uleb128 0xf
 2411 100f 72030000 		.4byte	.LASF226
 2412 1013 0E       		.byte	0xe
 2413 1014 DD       		.byte	0xdd
 2414 1015 D60F0000 		.4byte	0xfd6
 2415 1019 0F       		.uleb128 0xf
 2416 101a CF0A0000 		.4byte	.LASF227
 2417 101e 0E       		.byte	0xe
 2418 101f E3       		.byte	0xe3
 2419 1020 EB0F0000 		.4byte	0xfeb
 2420 1024 00       		.byte	0
 2421 1025 08       		.uleb128 0x8
 2422 1026 14       		.byte	0x14
 2423 1027 0E       		.byte	0xe
 2424 1028 CA       		.byte	0xca
ARM GAS  C:\Users\jsyoon\AppData\Local\Temp\ccWY3jAf.s 			page 44


 2425 1029 6A100000 		.4byte	0x106a
 2426 102d 06       		.uleb128 0x6
 2427 102e 9F070000 		.4byte	.LASF228
 2428 1032 0E       		.byte	0xe
 2429 1033 CE       		.byte	0xce
 2430 1034 E4000000 		.4byte	0xe4
 2431 1038 00       		.byte	0
 2432 1039 06       		.uleb128 0x6
 2433 103a 49000000 		.4byte	.LASF229
 2434 103e 0E       		.byte	0xe
 2435 103f D2       		.byte	0xd2
 2436 1040 2C000000 		.4byte	0x2c
 2437 1044 04       		.byte	0x4
 2438 1045 06       		.uleb128 0x6
 2439 1046 17030000 		.4byte	.LASF230
 2440 104a 0E       		.byte	0xe
 2441 104b D6       		.byte	0xd6
 2442 104c 2C000000 		.4byte	0x2c
 2443 1050 08       		.byte	0x8
 2444 1051 06       		.uleb128 0x6
 2445 1052 C1010000 		.4byte	.LASF231
 2446 1056 0E       		.byte	0xe
 2447 1057 E4       		.byte	0xe4
 2448 1058 06100000 		.4byte	0x1006
 2449 105c 0C       		.byte	0xc
 2450 105d 06       		.uleb128 0x6
 2451 105e 650B0000 		.4byte	.LASF232
 2452 1062 0E       		.byte	0xe
 2453 1063 E8       		.byte	0xe8
 2454 1064 2C000000 		.4byte	0x2c
 2455 1068 10       		.byte	0x10
 2456 1069 00       		.byte	0
 2457 106a 03       		.uleb128 0x3
 2458 106b 440C0000 		.4byte	.LASF233
 2459 106f 0E       		.byte	0xe
 2460 1070 E9       		.byte	0xe9
 2461 1071 25100000 		.4byte	0x1025
 2462 1075 08       		.uleb128 0x8
 2463 1076 04       		.byte	0x4
 2464 1077 0E       		.byte	0xe
 2465 1078 FC       		.byte	0xfc
 2466 1079 8B100000 		.4byte	0x108b
 2467 107d 17       		.uleb128 0x17
 2468 107e 890D0000 		.4byte	.LASF234
 2469 1082 0E       		.byte	0xe
 2470 1083 0001     		.2byte	0x100
 2471 1085 60060000 		.4byte	0x660
 2472 1089 00       		.byte	0
 2473 108a 00       		.byte	0
 2474 108b 1C       		.uleb128 0x1c
 2475 108c 04       		.byte	0x4
 2476 108d 0E       		.byte	0xe
 2477 108e 0201     		.2byte	0x102
 2478 1090 A2100000 		.4byte	0x10a2
 2479 1094 17       		.uleb128 0x17
 2480 1095 68080000 		.4byte	.LASF235
 2481 1099 0E       		.byte	0xe
ARM GAS  C:\Users\jsyoon\AppData\Local\Temp\ccWY3jAf.s 			page 45


 2482 109a 0601     		.2byte	0x106
 2483 109c A2100000 		.4byte	0x10a2
 2484 10a0 00       		.byte	0
 2485 10a1 00       		.byte	0
 2486 10a2 09       		.uleb128 0x9
 2487 10a3 04       		.byte	0x4
 2488 10a4 66060000 		.4byte	0x666
 2489 10a8 0E       		.uleb128 0xe
 2490 10a9 04       		.byte	0x4
 2491 10aa 0E       		.byte	0xe
 2492 10ab FB       		.byte	0xfb
 2493 10ac C9100000 		.4byte	0x10c9
 2494 10b0 21       		.uleb128 0x21
 2495 10b1 72030000 		.4byte	.LASF226
 2496 10b5 0E       		.byte	0xe
 2497 10b6 0101     		.2byte	0x101
 2498 10b8 75100000 		.4byte	0x1075
 2499 10bc 21       		.uleb128 0x21
 2500 10bd CF0A0000 		.4byte	.LASF227
 2501 10c1 0E       		.byte	0xe
 2502 10c2 0701     		.2byte	0x107
 2503 10c4 8B100000 		.4byte	0x108b
 2504 10c8 00       		.byte	0
 2505 10c9 08       		.uleb128 0x8
 2506 10ca 14       		.byte	0x14
 2507 10cb 0E       		.byte	0xe
 2508 10cc EE       		.byte	0xee
 2509 10cd 10110000 		.4byte	0x1110
 2510 10d1 06       		.uleb128 0x6
 2511 10d2 B30A0000 		.4byte	.LASF236
 2512 10d6 0E       		.byte	0xe
 2513 10d7 F2       		.byte	0xf2
 2514 10d8 E4000000 		.4byte	0xe4
 2515 10dc 00       		.byte	0
 2516 10dd 06       		.uleb128 0x6
 2517 10de 0C020000 		.4byte	.LASF237
 2518 10e2 0E       		.byte	0xe
 2519 10e3 F6       		.byte	0xf6
 2520 10e4 2C000000 		.4byte	0x2c
 2521 10e8 04       		.byte	0x4
 2522 10e9 06       		.uleb128 0x6
 2523 10ea D90C0000 		.4byte	.LASF238
 2524 10ee 0E       		.byte	0xe
 2525 10ef FA       		.byte	0xfa
 2526 10f0 2C000000 		.4byte	0x2c
 2527 10f4 08       		.byte	0x8
 2528 10f5 17       		.uleb128 0x17
 2529 10f6 C1010000 		.4byte	.LASF231
 2530 10fa 0E       		.byte	0xe
 2531 10fb 0801     		.2byte	0x108
 2532 10fd A8100000 		.4byte	0x10a8
 2533 1101 0C       		.byte	0xc
 2534 1102 17       		.uleb128 0x17
 2535 1103 650B0000 		.4byte	.LASF232
 2536 1107 0E       		.byte	0xe
 2537 1108 0C01     		.2byte	0x10c
 2538 110a 2C000000 		.4byte	0x2c
ARM GAS  C:\Users\jsyoon\AppData\Local\Temp\ccWY3jAf.s 			page 46


 2539 110e 10       		.byte	0x10
 2540 110f 00       		.byte	0
 2541 1110 1B       		.uleb128 0x1b
 2542 1111 5C090000 		.4byte	.LASF239
 2543 1115 0E       		.byte	0xe
 2544 1116 0D01     		.2byte	0x10d
 2545 1118 C9100000 		.4byte	0x10c9
 2546 111c 1C       		.uleb128 0x1c
 2547 111d 24       		.byte	0x24
 2548 111e 0E       		.byte	0xe
 2549 111f 1301     		.2byte	0x113
 2550 1121 A8110000 		.4byte	0x11a8
 2551 1125 17       		.uleb128 0x17
 2552 1126 7A010000 		.4byte	.LASF240
 2553 112a 0E       		.byte	0xe
 2554 112b 1701     		.2byte	0x117
 2555 112d CE000000 		.4byte	0xce
 2556 1131 00       		.byte	0
 2557 1132 17       		.uleb128 0x17
 2558 1133 7E0B0000 		.4byte	.LASF241
 2559 1137 0E       		.byte	0xe
 2560 1138 2201     		.2byte	0x122
 2561 113a C7090000 		.4byte	0x9c7
 2562 113e 04       		.byte	0x4
 2563 113f 17       		.uleb128 0x17
 2564 1140 58050000 		.4byte	.LASF242
 2565 1144 0E       		.byte	0xe
 2566 1145 2801     		.2byte	0x128
 2567 1147 C7090000 		.4byte	0x9c7
 2568 114b 08       		.byte	0x8
 2569 114c 17       		.uleb128 0x17
 2570 114d 94030000 		.4byte	.LASF243
 2571 1151 0E       		.byte	0xe
 2572 1152 2E01     		.2byte	0x12e
 2573 1154 C7090000 		.4byte	0x9c7
 2574 1158 0C       		.byte	0xc
 2575 1159 17       		.uleb128 0x17
 2576 115a FC0C0000 		.4byte	.LASF244
 2577 115e 0E       		.byte	0xe
 2578 115f 3401     		.2byte	0x134
 2579 1161 B8000000 		.4byte	0xb8
 2580 1165 10       		.byte	0x10
 2581 1166 17       		.uleb128 0x17
 2582 1167 070C0000 		.4byte	.LASF245
 2583 116b 0E       		.byte	0xe
 2584 116c 3A01     		.2byte	0x13a
 2585 116e B8000000 		.4byte	0xb8
 2586 1172 12       		.byte	0x12
 2587 1173 17       		.uleb128 0x17
 2588 1174 EB040000 		.4byte	.LASF246
 2589 1178 0E       		.byte	0xe
 2590 1179 3F01     		.2byte	0x13f
 2591 117b A8110000 		.4byte	0x11a8
 2592 117f 14       		.byte	0x14
 2593 1180 17       		.uleb128 0x17
 2594 1181 4A070000 		.4byte	.LASF247
 2595 1185 0E       		.byte	0xe
ARM GAS  C:\Users\jsyoon\AppData\Local\Temp\ccWY3jAf.s 			page 47


 2596 1186 4401     		.2byte	0x144
 2597 1188 AE110000 		.4byte	0x11ae
 2598 118c 18       		.byte	0x18
 2599 118d 17       		.uleb128 0x17
 2600 118e 980C0000 		.4byte	.LASF248
 2601 1192 0E       		.byte	0xe
 2602 1193 4B01     		.2byte	0x14b
 2603 1195 B8000000 		.4byte	0xb8
 2604 1199 1C       		.byte	0x1c
 2605 119a 17       		.uleb128 0x17
 2606 119b 23080000 		.4byte	.LASF249
 2607 119f 0E       		.byte	0xe
 2608 11a0 5101     		.2byte	0x151
 2609 11a2 60060000 		.4byte	0x660
 2610 11a6 20       		.byte	0x20
 2611 11a7 00       		.byte	0
 2612 11a8 09       		.uleb128 0x9
 2613 11a9 04       		.byte	0x4
 2614 11aa 6A100000 		.4byte	0x106a
 2615 11ae 09       		.uleb128 0x9
 2616 11af 04       		.byte	0x4
 2617 11b0 10110000 		.4byte	0x1110
 2618 11b4 1B       		.uleb128 0x1b
 2619 11b5 3F030000 		.4byte	.LASF250
 2620 11b9 0E       		.byte	0xe
 2621 11ba 5201     		.2byte	0x152
 2622 11bc 1C110000 		.4byte	0x111c
 2623 11c0 1C       		.uleb128 0x1c
 2624 11c1 10       		.byte	0x10
 2625 11c2 0E       		.byte	0xe
 2626 11c3 5701     		.2byte	0x157
 2627 11c5 FE110000 		.4byte	0x11fe
 2628 11c9 17       		.uleb128 0x17
 2629 11ca FE0B0000 		.4byte	.LASF251
 2630 11ce 0E       		.byte	0xe
 2631 11cf 5C01     		.2byte	0x15c
 2632 11d1 E9090000 		.4byte	0x9e9
 2633 11d5 00       		.byte	0
 2634 11d6 17       		.uleb128 0x17
 2635 11d7 870B0000 		.4byte	.LASF252
 2636 11db 0E       		.byte	0xe
 2637 11dc 6101     		.2byte	0x161
 2638 11de 2C0A0000 		.4byte	0xa2c
 2639 11e2 04       		.byte	0x4
 2640 11e3 17       		.uleb128 0x17
 2641 11e4 E1000000 		.4byte	.LASF253
 2642 11e8 0E       		.byte	0xe
 2643 11e9 6701     		.2byte	0x167
 2644 11eb 0B0A0000 		.4byte	0xa0b
 2645 11ef 08       		.byte	0x8
 2646 11f0 17       		.uleb128 0x17
 2647 11f1 BA070000 		.4byte	.LASF254
 2648 11f5 0E       		.byte	0xe
 2649 11f6 6B01     		.2byte	0x16b
 2650 11f8 A4090000 		.4byte	0x9a4
 2651 11fc 0C       		.byte	0xc
 2652 11fd 00       		.byte	0
ARM GAS  C:\Users\jsyoon\AppData\Local\Temp\ccWY3jAf.s 			page 48


 2653 11fe 1B       		.uleb128 0x1b
 2654 11ff 86080000 		.4byte	.LASF255
 2655 1203 0E       		.byte	0xe
 2656 1204 6D01     		.2byte	0x16d
 2657 1206 C0110000 		.4byte	0x11c0
 2658 120a 09       		.uleb128 0x9
 2659 120b 04       		.byte	0x4
 2660 120c 10120000 		.4byte	0x1210
 2661 1210 10       		.uleb128 0x10
 2662 1211 FE110000 		.4byte	0x11fe
 2663 1215 14       		.uleb128 0x14
 2664 1216 25120000 		.4byte	0x1225
 2665 121a 25120000 		.4byte	0x1225
 2666 121e 15       		.uleb128 0x15
 2667 121f 3D040000 		.4byte	0x43d
 2668 1223 03       		.byte	0x3
 2669 1224 00       		.byte	0
 2670 1225 09       		.uleb128 0x9
 2671 1226 04       		.byte	0x4
 2672 1227 2B120000 		.4byte	0x122b
 2673 122b 10       		.uleb128 0x10
 2674 122c B4110000 		.4byte	0x11b4
 2675 1230 14       		.uleb128 0x14
 2676 1231 BE020000 		.4byte	0x2be
 2677 1235 40120000 		.4byte	0x1240
 2678 1239 15       		.uleb128 0x15
 2679 123a 3D040000 		.4byte	0x43d
 2680 123e 02       		.byte	0x2
 2681 123f 00       		.byte	0
 2682 1240 09       		.uleb128 0x9
 2683 1241 04       		.byte	0x4
 2684 1242 930F0000 		.4byte	0xf93
 2685 1246 09       		.uleb128 0x9
 2686 1247 04       		.byte	0x4
 2687 1248 4C120000 		.4byte	0x124c
 2688 124c 10       		.uleb128 0x10
 2689 124d CB0F0000 		.4byte	0xfcb
 2690 1251 14       		.uleb128 0x14
 2691 1252 C0020000 		.4byte	0x2c0
 2692 1256 61120000 		.4byte	0x1261
 2693 125a 15       		.uleb128 0x15
 2694 125b 3D040000 		.4byte	0x43d
 2695 125f 42       		.byte	0x42
 2696 1260 00       		.byte	0
 2697 1261 18       		.uleb128 0x18
 2698 1262 01       		.byte	0x1
 2699 1263 10       		.byte	0x10
 2700 1264 83       		.byte	0x83
 2701 1265 7C120000 		.4byte	0x127c
 2702 1269 19       		.uleb128 0x19
 2703 126a E3060000 		.4byte	.LASF256
 2704 126e 00       		.sleb128 0
 2705 126f 19       		.uleb128 0x19
 2706 1270 73040000 		.4byte	.LASF257
 2707 1274 01       		.sleb128 1
 2708 1275 19       		.uleb128 0x19
 2709 1276 0C000000 		.4byte	.LASF258
ARM GAS  C:\Users\jsyoon\AppData\Local\Temp\ccWY3jAf.s 			page 49


 2710 127a 02       		.sleb128 2
 2711 127b 00       		.byte	0
 2712 127c 03       		.uleb128 0x3
 2713 127d 8B070000 		.4byte	.LASF259
 2714 1281 10       		.byte	0x10
 2715 1282 87       		.byte	0x87
 2716 1283 61120000 		.4byte	0x1261
 2717 1287 03       		.uleb128 0x3
 2718 1288 30000000 		.4byte	.LASF260
 2719 128c 10       		.byte	0x10
 2720 128d 8C       		.byte	0x8c
 2721 128e 92120000 		.4byte	0x1292
 2722 1292 22       		.uleb128 0x22
 2723 1293 30000000 		.4byte	.LASF260
 2724 1297 5802     		.2byte	0x258
 2725 1299 10       		.byte	0x10
 2726 129a CF       		.byte	0xcf
 2727 129b 00130000 		.4byte	0x1300
 2728 129f 07       		.uleb128 0x7
 2729 12a0 766D7400 		.ascii	"vmt\000"
 2730 12a4 10       		.byte	0x10
 2731 12a5 D1       		.byte	0xd1
 2732 12a6 B1130000 		.4byte	0x13b1
 2733 12aa 00       		.byte	0
 2734 12ab 06       		.uleb128 0x6
 2735 12ac C3020000 		.4byte	.LASF261
 2736 12b0 10       		.byte	0x10
 2737 12b1 D2       		.byte	0xd2
 2738 12b2 4E050000 		.4byte	0x54e
 2739 12b6 04       		.byte	0x4
 2740 12b7 06       		.uleb128 0x6
 2741 12b8 D30B0000 		.4byte	.LASF95
 2742 12bc 10       		.byte	0x10
 2743 12bd D2       		.byte	0xd2
 2744 12be 7C120000 		.4byte	0x127c
 2745 12c2 08       		.byte	0x8
 2746 12c3 06       		.uleb128 0x6
 2747 12c4 7E020000 		.4byte	.LASF262
 2748 12c8 10       		.byte	0x10
 2749 12c9 D2       		.byte	0xd2
 2750 12ca 66060000 		.4byte	0x666
 2751 12ce 0C       		.byte	0xc
 2752 12cf 06       		.uleb128 0x6
 2753 12d0 90080000 		.4byte	.LASF263
 2754 12d4 10       		.byte	0x10
 2755 12d5 D2       		.byte	0xd2
 2756 12d6 71060000 		.4byte	0x671
 2757 12da 30       		.byte	0x30
 2758 12db 07       		.uleb128 0x7
 2759 12dc 696200   		.ascii	"ib\000"
 2760 12df 10       		.byte	0x10
 2761 12e0 D2       		.byte	0xd2
 2762 12e1 BC130000 		.4byte	0x13bc
 2763 12e5 54       		.byte	0x54
 2764 12e6 1F       		.uleb128 0x1f
 2765 12e7 6F6200   		.ascii	"ob\000"
 2766 12ea 10       		.byte	0x10
ARM GAS  C:\Users\jsyoon\AppData\Local\Temp\ccWY3jAf.s 			page 50


 2767 12eb D2       		.byte	0xd2
 2768 12ec BC130000 		.4byte	0x13bc
 2769 12f0 5401     		.2byte	0x154
 2770 12f2 1E       		.uleb128 0x1e
 2771 12f3 F6080000 		.4byte	.LASF96
 2772 12f7 10       		.byte	0x10
 2773 12f8 D2       		.byte	0xd2
 2774 12f9 CC130000 		.4byte	0x13cc
 2775 12fd 5402     		.2byte	0x254
 2776 12ff 00       		.byte	0
 2777 1300 08       		.uleb128 0x8
 2778 1301 08       		.byte	0x8
 2779 1302 10       		.byte	0x10
 2780 1303 93       		.byte	0x93
 2781 1304 39130000 		.4byte	0x1339
 2782 1308 06       		.uleb128 0x6
 2783 1309 C1070000 		.4byte	.LASF264
 2784 130d 10       		.byte	0x10
 2785 130e 97       		.byte	0x97
 2786 130f C1090000 		.4byte	0x9c1
 2787 1313 00       		.byte	0
 2788 1314 06       		.uleb128 0x6
 2789 1315 9F090000 		.4byte	.LASF265
 2790 1319 10       		.byte	0x10
 2791 131a 9B       		.byte	0x9b
 2792 131b BD080000 		.4byte	0x8bd
 2793 131f 04       		.byte	0x4
 2794 1320 06       		.uleb128 0x6
 2795 1321 67000000 		.4byte	.LASF266
 2796 1325 10       		.byte	0x10
 2797 1326 9F       		.byte	0x9f
 2798 1327 BD080000 		.4byte	0x8bd
 2799 132b 05       		.byte	0x5
 2800 132c 06       		.uleb128 0x6
 2801 132d 260D0000 		.4byte	.LASF267
 2802 1331 10       		.byte	0x10
 2803 1332 A3       		.byte	0xa3
 2804 1333 BD080000 		.4byte	0x8bd
 2805 1337 06       		.byte	0x6
 2806 1338 00       		.byte	0
 2807 1339 03       		.uleb128 0x3
 2808 133a F0020000 		.4byte	.LASF268
 2809 133e 10       		.byte	0x10
 2810 133f A4       		.byte	0xa4
 2811 1340 00130000 		.4byte	0x1300
 2812 1344 05       		.uleb128 0x5
 2813 1345 32040000 		.4byte	.LASF269
 2814 1349 20       		.byte	0x20
 2815 134a 10       		.byte	0x10
 2816 134b C4       		.byte	0xc4
 2817 134c B1130000 		.4byte	0x13b1
 2818 1350 06       		.uleb128 0x6
 2819 1351 04070000 		.4byte	.LASF270
 2820 1355 10       		.byte	0x10
 2821 1356 C5       		.byte	0xc5
 2822 1357 A0060000 		.4byte	0x6a0
 2823 135b 00       		.byte	0
ARM GAS  C:\Users\jsyoon\AppData\Local\Temp\ccWY3jAf.s 			page 51


 2824 135c 06       		.uleb128 0x6
 2825 135d 020A0000 		.4byte	.LASF271
 2826 1361 10       		.byte	0x10
 2827 1362 C5       		.byte	0xc5
 2828 1363 BF060000 		.4byte	0x6bf
 2829 1367 04       		.byte	0x4
 2830 1368 07       		.uleb128 0x7
 2831 1369 70757400 		.ascii	"put\000"
 2832 136d 10       		.byte	0x10
 2833 136e C5       		.byte	0xc5
 2834 136f D9060000 		.4byte	0x6d9
 2835 1373 08       		.byte	0x8
 2836 1374 07       		.uleb128 0x7
 2837 1375 67657400 		.ascii	"get\000"
 2838 1379 10       		.byte	0x10
 2839 137a C5       		.byte	0xc5
 2840 137b B1050000 		.4byte	0x5b1
 2841 137f 0C       		.byte	0xc
 2842 1380 06       		.uleb128 0x6
 2843 1381 E4030000 		.4byte	.LASF272
 2844 1385 10       		.byte	0x10
 2845 1386 C5       		.byte	0xc5
 2846 1387 0D070000 		.4byte	0x70d
 2847 138b 10       		.byte	0x10
 2848 138c 06       		.uleb128 0x6
 2849 138d 570A0000 		.4byte	.LASF273
 2850 1391 10       		.byte	0x10
 2851 1392 C5       		.byte	0xc5
 2852 1393 27070000 		.4byte	0x727
 2853 1397 14       		.byte	0x14
 2854 1398 06       		.uleb128 0x6
 2855 1399 13020000 		.4byte	.LASF274
 2856 139d 10       		.byte	0x10
 2857 139e C5       		.byte	0xc5
 2858 139f 4B070000 		.4byte	0x74b
 2859 13a3 18       		.byte	0x18
 2860 13a4 06       		.uleb128 0x6
 2861 13a5 5F010000 		.4byte	.LASF275
 2862 13a9 10       		.byte	0x10
 2863 13aa C5       		.byte	0xc5
 2864 13ab 6F070000 		.4byte	0x76f
 2865 13af 1C       		.byte	0x1c
 2866 13b0 00       		.byte	0
 2867 13b1 09       		.uleb128 0x9
 2868 13b2 04       		.byte	0x4
 2869 13b3 B7130000 		.4byte	0x13b7
 2870 13b7 10       		.uleb128 0x10
 2871 13b8 44130000 		.4byte	0x1344
 2872 13bc 14       		.uleb128 0x14
 2873 13bd AD000000 		.4byte	0xad
 2874 13c1 CC130000 		.4byte	0x13cc
 2875 13c5 15       		.uleb128 0x15
 2876 13c6 3D040000 		.4byte	0x43d
 2877 13ca FF       		.byte	0xff
 2878 13cb 00       		.byte	0
 2879 13cc 09       		.uleb128 0x9
 2880 13cd 04       		.byte	0x4
ARM GAS  C:\Users\jsyoon\AppData\Local\Temp\ccWY3jAf.s 			page 52


 2881 13ce D2130000 		.4byte	0x13d2
 2882 13d2 10       		.uleb128 0x10
 2883 13d3 39130000 		.4byte	0x1339
 2884 13d7 04       		.uleb128 0x4
 2885 13d8 04       		.byte	0x4
 2886 13d9 04       		.byte	0x4
 2887 13da BD020000 		.4byte	.LASF276
 2888 13de 23       		.uleb128 0x23
 2889 13df FD080000 		.4byte	.LASF277
 2890 13e3 01       		.byte	0x1
 2891 13e4 52       		.byte	0x52
 2892 13e5 2D010000 		.4byte	0x12d
 2893 13e9 00000000 		.4byte	.LFB119
 2894 13ed 64000000 		.4byte	.LFE119-.LFB119
 2895 13f1 01       		.uleb128 0x1
 2896 13f2 9C       		.byte	0x9c
 2897 13f3 2A140000 		.4byte	0x142a
 2898 13f7 24       		.uleb128 0x24
 2899 13f8 61726700 		.ascii	"arg\000"
 2900 13fc 01       		.byte	0x1
 2901 13fd 52       		.byte	0x52
 2902 13fe BE020000 		.4byte	0x2be
 2903 1402 00000000 		.4byte	.LLST0
 2904 1406 25       		.uleb128 0x25
 2905 1407 20000000 		.4byte	.LVL2
 2906 140b 78170000 		.4byte	0x1778
 2907 140f 19140000 		.4byte	0x1419
 2908 1413 26       		.uleb128 0x26
 2909 1414 01       		.uleb128 0x1
 2910 1415 50       		.byte	0x50
 2911 1416 01       		.uleb128 0x1
 2912 1417 31       		.byte	0x31
 2913 1418 00       		.byte	0
 2914 1419 27       		.uleb128 0x27
 2915 141a 3C000000 		.4byte	.LVL3
 2916 141e 8D170000 		.4byte	0x178d
 2917 1422 26       		.uleb128 0x26
 2918 1423 01       		.uleb128 0x1
 2919 1424 51       		.byte	0x51
 2920 1425 02       		.uleb128 0x2
 2921 1426 77       		.byte	0x77
 2922 1427 00       		.sleb128 0
 2923 1428 00       		.byte	0
 2924 1429 00       		.byte	0
 2925 142a 23       		.uleb128 0x23
 2926 142b 56020000 		.4byte	.LASF278
 2927 142f 01       		.byte	0x1
 2928 1430 32       		.byte	0x32
 2929 1431 2D010000 		.4byte	0x12d
 2930 1435 00000000 		.4byte	.LFB118
 2931 1439 6C000000 		.4byte	.LFE118-.LFB118
 2932 143d 01       		.uleb128 0x1
 2933 143e 9C       		.byte	0x9c
 2934 143f B7140000 		.4byte	0x14b7
 2935 1443 24       		.uleb128 0x24
 2936 1444 61726700 		.ascii	"arg\000"
 2937 1448 01       		.byte	0x1
ARM GAS  C:\Users\jsyoon\AppData\Local\Temp\ccWY3jAf.s 			page 53


 2938 1449 32       		.byte	0x32
 2939 144a BE020000 		.4byte	0x2be
 2940 144e 21000000 		.4byte	.LLST1
 2941 1452 28       		.uleb128 0x28
 2942 1453 B8000000 		.4byte	.LASF279
 2943 1457 01       		.byte	0x1
 2944 1458 37       		.byte	0x37
 2945 1459 B7140000 		.4byte	0x14b7
 2946 145d 03       		.uleb128 0x3
 2947 145e 91       		.byte	0x91
 2948 145f E87E     		.sleb128 -152
 2949 1461 29       		.uleb128 0x29
 2950 1462 6900     		.ascii	"i\000"
 2951 1464 01       		.byte	0x1
 2952 1465 38       		.byte	0x38
 2953 1466 25000000 		.4byte	0x25
 2954 146a 42000000 		.4byte	.LLST2
 2955 146e 29       		.uleb128 0x29
 2956 146f 6C656E00 		.ascii	"len\000"
 2957 1473 01       		.byte	0x1
 2958 1474 39       		.byte	0x39
 2959 1475 25000000 		.4byte	0x25
 2960 1479 79000000 		.4byte	.LLST3
 2961 147d 2A       		.uleb128 0x2a
 2962 147e ED080000 		.4byte	.LASF280
 2963 1482 01       		.byte	0x1
 2964 1483 3A       		.byte	0x3a
 2965 1484 25000000 		.4byte	0x25
 2966 1488 8C000000 		.4byte	.LLST4
 2967 148c 2B       		.uleb128 0x2b
 2968 148d 24000000 		.4byte	.LVL7
 2969 1491 A7140000 		.4byte	0x14a7
 2970 1495 26       		.uleb128 0x26
 2971 1496 01       		.uleb128 0x1
 2972 1497 52       		.byte	0x52
 2973 1498 01       		.uleb128 0x1
 2974 1499 31       		.byte	0x31
 2975 149a 26       		.uleb128 0x26
 2976 149b 01       		.uleb128 0x1
 2977 149c 51       		.byte	0x51
 2978 149d 02       		.uleb128 0x2
 2979 149e 7D       		.byte	0x7d
 2980 149f 00       		.sleb128 0
 2981 14a0 26       		.uleb128 0x26
 2982 14a1 01       		.uleb128 0x1
 2983 14a2 50       		.byte	0x50
 2984 14a3 02       		.uleb128 0x2
 2985 14a4 76       		.byte	0x76
 2986 14a5 00       		.sleb128 0
 2987 14a6 00       		.byte	0
 2988 14a7 27       		.uleb128 0x27
 2989 14a8 52000000 		.4byte	.LVL12
 2990 14ac A3170000 		.4byte	0x17a3
 2991 14b0 26       		.uleb128 0x26
 2992 14b1 01       		.uleb128 0x1
 2993 14b2 51       		.byte	0x51
 2994 14b3 01       		.uleb128 0x1
ARM GAS  C:\Users\jsyoon\AppData\Local\Temp\ccWY3jAf.s 			page 54


 2995 14b4 31       		.byte	0x31
 2996 14b5 00       		.byte	0
 2997 14b6 00       		.byte	0
 2998 14b7 14       		.uleb128 0x14
 2999 14b8 AD000000 		.4byte	0xad
 3000 14bc C7140000 		.4byte	0x14c7
 3001 14c0 15       		.uleb128 0x15
 3002 14c1 3D040000 		.4byte	0x43d
 3003 14c5 7F       		.byte	0x7f
 3004 14c6 00       		.byte	0
 3005 14c7 2C       		.uleb128 0x2c
 3006 14c8 31050000 		.4byte	.LASF282
 3007 14cc 01       		.byte	0x1
 3008 14cd 68       		.byte	0x68
 3009 14ce 00000000 		.4byte	.LFB120
 3010 14d2 1C000000 		.4byte	.LFE120-.LFB120
 3011 14d6 01       		.uleb128 0x1
 3012 14d7 9C       		.byte	0x9c
 3013 14d8 2A150000 		.4byte	0x152a
 3014 14dc 2D       		.uleb128 0x2d
 3015 14dd 1C050000 		.4byte	.LASF281
 3016 14e1 01       		.byte	0x1
 3017 14e2 68       		.byte	0x68
 3018 14e3 2A150000 		.4byte	0x152a
 3019 14e7 B8000000 		.4byte	.LLST5
 3020 14eb 24       		.uleb128 0x24
 3021 14ec 6C656E00 		.ascii	"len\000"
 3022 14f0 01       		.byte	0x1
 3023 14f1 68       		.byte	0x68
 3024 14f2 37000000 		.4byte	0x37
 3025 14f6 EF000000 		.4byte	.LLST6
 3026 14fa 25       		.uleb128 0x25
 3027 14fb 0C000000 		.4byte	.LVL15
 3028 14ff B9170000 		.4byte	0x17b9
 3029 1503 11150000 		.4byte	0x1511
 3030 1507 26       		.uleb128 0x26
 3031 1508 01       		.uleb128 0x1
 3032 1509 50       		.byte	0x50
 3033 150a 05       		.uleb128 0x5
 3034 150b 03       		.byte	0x3
 3035 150c 00000000 		.4byte	send_packet_wrapper
 3036 1510 00       		.byte	0
 3037 1511 2E       		.uleb128 0x2e
 3038 1512 18000000 		.4byte	.LVL17
 3039 1516 E0170000 		.4byte	0x17e0
 3040 151a 26       		.uleb128 0x26
 3041 151b 01       		.uleb128 0x1
 3042 151c 51       		.byte	0x51
 3043 151d 03       		.uleb128 0x3
 3044 151e F3       		.byte	0xf3
 3045 151f 01       		.uleb128 0x1
 3046 1520 51       		.byte	0x51
 3047 1521 26       		.uleb128 0x26
 3048 1522 01       		.uleb128 0x1
 3049 1523 50       		.byte	0x50
 3050 1524 03       		.uleb128 0x3
 3051 1525 F3       		.byte	0xf3
ARM GAS  C:\Users\jsyoon\AppData\Local\Temp\ccWY3jAf.s 			page 55


 3052 1526 01       		.uleb128 0x1
 3053 1527 50       		.byte	0x50
 3054 1528 00       		.byte	0
 3055 1529 00       		.byte	0
 3056 152a 09       		.uleb128 0x9
 3057 152b 04       		.byte	0x4
 3058 152c 50000000 		.4byte	0x50
 3059 1530 2C       		.uleb128 0x2c
 3060 1531 280A0000 		.4byte	.LASF283
 3061 1535 01       		.byte	0x1
 3062 1536 6D       		.byte	0x6d
 3063 1537 00000000 		.4byte	.LFB121
 3064 153b 06000000 		.4byte	.LFE121-.LFB121
 3065 153f 01       		.uleb128 0x1
 3066 1540 9C       		.byte	0x9c
 3067 1541 81150000 		.4byte	0x1581
 3068 1545 2D       		.uleb128 0x2d
 3069 1546 1C050000 		.4byte	.LASF281
 3070 154a 01       		.byte	0x1
 3071 154b 6D       		.byte	0x6d
 3072 154c 2A150000 		.4byte	0x152a
 3073 1550 26010000 		.4byte	.LLST7
 3074 1554 24       		.uleb128 0x24
 3075 1555 6C656E00 		.ascii	"len\000"
 3076 1559 01       		.byte	0x1
 3077 155a 6D       		.byte	0x6d
 3078 155b 37000000 		.4byte	0x37
 3079 155f 47010000 		.4byte	.LLST8
 3080 1563 2E       		.uleb128 0x2e
 3081 1564 06000000 		.4byte	.LVL19
 3082 1568 F6170000 		.4byte	0x17f6
 3083 156c 26       		.uleb128 0x26
 3084 156d 01       		.uleb128 0x1
 3085 156e 52       		.byte	0x52
 3086 156f 01       		.uleb128 0x1
 3087 1570 30       		.byte	0x30
 3088 1571 26       		.uleb128 0x26
 3089 1572 01       		.uleb128 0x1
 3090 1573 51       		.byte	0x51
 3091 1574 03       		.uleb128 0x3
 3092 1575 F3       		.byte	0xf3
 3093 1576 01       		.uleb128 0x1
 3094 1577 51       		.byte	0x51
 3095 1578 26       		.uleb128 0x26
 3096 1579 01       		.uleb128 0x1
 3097 157a 50       		.byte	0x50
 3098 157b 03       		.uleb128 0x3
 3099 157c F3       		.byte	0xf3
 3100 157d 01       		.uleb128 0x1
 3101 157e 50       		.byte	0x50
 3102 157f 00       		.byte	0
 3103 1580 00       		.byte	0
 3104 1581 2C       		.uleb128 0x2c
 3105 1582 5B030000 		.4byte	.LASF284
 3106 1586 01       		.byte	0x1
 3107 1587 71       		.byte	0x71
 3108 1588 00000000 		.4byte	.LFB122
ARM GAS  C:\Users\jsyoon\AppData\Local\Temp\ccWY3jAf.s 			page 56


 3109 158c 28000000 		.4byte	.LFE122-.LFB122
 3110 1590 01       		.uleb128 0x1
 3111 1591 9C       		.byte	0x9c
 3112 1592 EE150000 		.4byte	0x15ee
 3113 1596 2D       		.uleb128 0x2d
 3114 1597 B8000000 		.4byte	.LASF279
 3115 159b 01       		.byte	0x1
 3116 159c 71       		.byte	0x71
 3117 159d 2A150000 		.4byte	0x152a
 3118 15a1 68010000 		.4byte	.LLST9
 3119 15a5 24       		.uleb128 0x24
 3120 15a6 6C656E00 		.ascii	"len\000"
 3121 15aa 01       		.byte	0x1
 3122 15ab 71       		.byte	0x71
 3123 15ac 37000000 		.4byte	0x37
 3124 15b0 94010000 		.4byte	.LLST10
 3125 15b4 25       		.uleb128 0x25
 3126 15b5 0C000000 		.4byte	.LVL22
 3127 15b9 11180000 		.4byte	0x1811
 3128 15bd CB150000 		.4byte	0x15cb
 3129 15c1 26       		.uleb128 0x26
 3130 15c2 01       		.uleb128 0x1
 3131 15c3 50       		.byte	0x50
 3132 15c4 05       		.uleb128 0x5
 3133 15c5 03       		.byte	0x3
 3134 15c6 00000000 		.4byte	.LANCHOR4
 3135 15ca 00       		.byte	0
 3136 15cb 2F       		.uleb128 0x2f
 3137 15cc 18000000 		.4byte	.LVL23
 3138 15d0 02       		.uleb128 0x2
 3139 15d1 74       		.byte	0x74
 3140 15d2 00       		.sleb128 0
 3141 15d3 E4150000 		.4byte	0x15e4
 3142 15d7 26       		.uleb128 0x26
 3143 15d8 01       		.uleb128 0x1
 3144 15d9 52       		.byte	0x52
 3145 15da 02       		.uleb128 0x2
 3146 15db 75       		.byte	0x75
 3147 15dc 00       		.sleb128 0
 3148 15dd 26       		.uleb128 0x26
 3149 15de 01       		.uleb128 0x1
 3150 15df 51       		.byte	0x51
 3151 15e0 02       		.uleb128 0x2
 3152 15e1 76       		.byte	0x76
 3153 15e2 00       		.sleb128 0
 3154 15e3 00       		.byte	0
 3155 15e4 30       		.uleb128 0x30
 3156 15e5 20000000 		.4byte	.LVL25
 3157 15e9 22180000 		.4byte	0x1822
 3158 15ed 00       		.byte	0
 3159 15ee 31       		.uleb128 0x31
 3160 15ef 87050000 		.4byte	.LASF307
 3161 15f3 01       		.byte	0x1
 3162 15f4 77       		.byte	0x77
 3163 15f5 00000000 		.4byte	.LFB123
 3164 15f9 5C000000 		.4byte	.LFE123-.LFB123
 3165 15fd 01       		.uleb128 0x1
ARM GAS  C:\Users\jsyoon\AppData\Local\Temp\ccWY3jAf.s 			page 57


 3166 15fe 9C       		.byte	0x9c
 3167 15ff AD160000 		.4byte	0x16ad
 3168 1603 32       		.uleb128 0x32
 3169 1604 08000000 		.4byte	.LVL26
 3170 1608 2D180000 		.4byte	0x182d
 3171 160c 25       		.uleb128 0x25
 3172 160d 12000000 		.4byte	.LVL27
 3173 1611 34180000 		.4byte	0x1834
 3174 1615 31160000 		.4byte	0x1631
 3175 1619 26       		.uleb128 0x26
 3176 161a 01       		.uleb128 0x1
 3177 161b 52       		.byte	0x52
 3178 161c 01       		.uleb128 0x1
 3179 161d 30       		.byte	0x30
 3180 161e 26       		.uleb128 0x26
 3181 161f 01       		.uleb128 0x1
 3182 1620 51       		.byte	0x51
 3183 1621 05       		.uleb128 0x5
 3184 1622 03       		.byte	0x3
 3185 1623 00000000 		.4byte	process_packet
 3186 1627 26       		.uleb128 0x26
 3187 1628 01       		.uleb128 0x1
 3188 1629 50       		.byte	0x50
 3189 162a 05       		.uleb128 0x5
 3190 162b 03       		.byte	0x3
 3191 162c 00000000 		.4byte	send_packet
 3192 1630 00       		.byte	0
 3193 1631 25       		.uleb128 0x25
 3194 1632 1A000000 		.4byte	.LVL28
 3195 1636 4F180000 		.4byte	0x184f
 3196 163a 48160000 		.4byte	0x1648
 3197 163e 26       		.uleb128 0x26
 3198 163f 01       		.uleb128 0x1
 3199 1640 50       		.byte	0x50
 3200 1641 05       		.uleb128 0x5
 3201 1642 03       		.byte	0x3
 3202 1643 00000000 		.4byte	.LANCHOR4
 3203 1647 00       		.byte	0
 3204 1648 25       		.uleb128 0x25
 3205 1649 2A000000 		.4byte	.LVL29
 3206 164d 60180000 		.4byte	0x1860
 3207 1651 7C160000 		.4byte	0x167c
 3208 1655 26       		.uleb128 0x26
 3209 1656 01       		.uleb128 0x1
 3210 1657 53       		.byte	0x53
 3211 1658 05       		.uleb128 0x5
 3212 1659 03       		.byte	0x3
 3213 165a 00000000 		.4byte	serial_read_thread
 3214 165e 26       		.uleb128 0x26
 3215 165f 01       		.uleb128 0x1
 3216 1660 52       		.byte	0x52
 3217 1661 02       		.uleb128 0x2
 3218 1662 08       		.byte	0x8
 3219 1663 40       		.byte	0x40
 3220 1664 26       		.uleb128 0x26
 3221 1665 01       		.uleb128 0x1
 3222 1666 51       		.byte	0x51
ARM GAS  C:\Users\jsyoon\AppData\Local\Temp\ccWY3jAf.s 			page 58


 3223 1667 03       		.uleb128 0x3
 3224 1668 0A       		.byte	0xa
 3225 1669 9803     		.2byte	0x398
 3226 166b 26       		.uleb128 0x26
 3227 166c 01       		.uleb128 0x1
 3228 166d 50       		.byte	0x50
 3229 166e 05       		.uleb128 0x5
 3230 166f 03       		.byte	0x3
 3231 1670 00000000 		.4byte	.LANCHOR5
 3232 1674 26       		.uleb128 0x26
 3233 1675 02       		.uleb128 0x2
 3234 1676 7D       		.byte	0x7d
 3235 1677 00       		.sleb128 0
 3236 1678 02       		.uleb128 0x2
 3237 1679 74       		.byte	0x74
 3238 167a 00       		.sleb128 0
 3239 167b 00       		.byte	0
 3240 167c 27       		.uleb128 0x27
 3241 167d 3A000000 		.4byte	.LVL30
 3242 1681 60180000 		.4byte	0x1860
 3243 1685 26       		.uleb128 0x26
 3244 1686 01       		.uleb128 0x1
 3245 1687 53       		.byte	0x53
 3246 1688 05       		.uleb128 0x5
 3247 1689 03       		.byte	0x3
 3248 168a 00000000 		.4byte	serial_process_thread
 3249 168e 26       		.uleb128 0x26
 3250 168f 01       		.uleb128 0x1
 3251 1690 52       		.byte	0x52
 3252 1691 02       		.uleb128 0x2
 3253 1692 08       		.byte	0x8
 3254 1693 40       		.byte	0x40
 3255 1694 26       		.uleb128 0x26
 3256 1695 01       		.uleb128 0x1
 3257 1696 51       		.byte	0x51
 3258 1697 03       		.uleb128 0x3
 3259 1698 0A       		.byte	0xa
 3260 1699 9811     		.2byte	0x1198
 3261 169b 26       		.uleb128 0x26
 3262 169c 01       		.uleb128 0x1
 3263 169d 50       		.byte	0x50
 3264 169e 05       		.uleb128 0x5
 3265 169f 03       		.byte	0x3
 3266 16a0 00000000 		.4byte	.LANCHOR6
 3267 16a4 26       		.uleb128 0x26
 3268 16a5 02       		.uleb128 0x2
 3269 16a6 7D       		.byte	0x7d
 3270 16a7 00       		.sleb128 0
 3271 16a8 02       		.uleb128 0x2
 3272 16a9 74       		.byte	0x74
 3273 16aa 00       		.sleb128 0
 3274 16ab 00       		.byte	0
 3275 16ac 00       		.byte	0
 3276 16ad 14       		.uleb128 0x14
 3277 16ae AD000000 		.4byte	0xad
 3278 16b2 BE160000 		.4byte	0x16be
 3279 16b6 20       		.uleb128 0x20
ARM GAS  C:\Users\jsyoon\AppData\Local\Temp\ccWY3jAf.s 			page 59


 3280 16b7 3D040000 		.4byte	0x43d
 3281 16bb FF07     		.2byte	0x7ff
 3282 16bd 00       		.byte	0
 3283 16be 28       		.uleb128 0x28
 3284 16bf D3030000 		.4byte	.LASF285
 3285 16c3 01       		.byte	0x1
 3286 16c4 25       		.byte	0x25
 3287 16c5 AD160000 		.4byte	0x16ad
 3288 16c9 05       		.uleb128 0x5
 3289 16ca 03       		.byte	0x3
 3290 16cb 00000000 		.4byte	serial_rx_buffer
 3291 16cf 28       		.uleb128 0x28
 3292 16d0 BC0A0000 		.4byte	.LASF286
 3293 16d4 01       		.byte	0x1
 3294 16d5 26       		.byte	0x26
 3295 16d6 25000000 		.4byte	0x25
 3296 16da 05       		.uleb128 0x5
 3297 16db 03       		.byte	0x3
 3298 16dc 00000000 		.4byte	serial_rx_read_pos
 3299 16e0 28       		.uleb128 0x28
 3300 16e1 F8010000 		.4byte	.LASF287
 3301 16e5 01       		.byte	0x1
 3302 16e6 27       		.byte	0x27
 3303 16e7 25000000 		.4byte	0x25
 3304 16eb 05       		.uleb128 0x5
 3305 16ec 03       		.byte	0x3
 3306 16ed 00000000 		.4byte	serial_rx_write_pos
 3307 16f1 14       		.uleb128 0x14
 3308 16f2 C0020000 		.4byte	0x2c0
 3309 16f6 01170000 		.4byte	0x1701
 3310 16fa 15       		.uleb128 0x15
 3311 16fb 3D040000 		.4byte	0x43d
 3312 16ff 72       		.byte	0x72
 3313 1700 00       		.byte	0
 3314 1701 28       		.uleb128 0x28
 3315 1702 86000000 		.4byte	.LASF288
 3316 1706 01       		.byte	0x1
 3317 1707 28       		.byte	0x28
 3318 1708 F1160000 		.4byte	0x16f1
 3319 170c 05       		.uleb128 0x5
 3320 170d 03       		.byte	0x3
 3321 170e 00000000 		.4byte	serial_read_thread_wa
 3322 1712 14       		.uleb128 0x14
 3323 1713 C0020000 		.4byte	0x2c0
 3324 1717 23170000 		.4byte	0x1723
 3325 171b 20       		.uleb128 0x20
 3326 171c 3D040000 		.4byte	0x43d
 3327 1720 3202     		.2byte	0x232
 3328 1722 00       		.byte	0
 3329 1723 28       		.uleb128 0x28
 3330 1724 A60C0000 		.4byte	.LASF289
 3331 1728 01       		.byte	0x1
 3332 1729 29       		.byte	0x29
 3333 172a 12170000 		.4byte	0x1712
 3334 172e 05       		.uleb128 0x5
 3335 172f 03       		.byte	0x3
 3336 1730 00000000 		.4byte	serial_process_thread_wa
ARM GAS  C:\Users\jsyoon\AppData\Local\Temp\ccWY3jAf.s 			page 60


 3337 1734 28       		.uleb128 0x28
 3338 1735 390C0000 		.4byte	.LASF290
 3339 1739 01       		.byte	0x1
 3340 173a 2A       		.byte	0x2a
 3341 173b DC040000 		.4byte	0x4dc
 3342 173f 05       		.uleb128 0x5
 3343 1740 03       		.byte	0x3
 3344 1741 00000000 		.4byte	send_mutex
 3345 1745 28       		.uleb128 0x28
 3346 1746 2B090000 		.4byte	.LASF291
 3347 174a 01       		.byte	0x1
 3348 174b 2B       		.byte	0x2b
 3349 174c 82020000 		.4byte	0x282
 3350 1750 05       		.uleb128 0x5
 3351 1751 03       		.byte	0x3
 3352 1752 00000000 		.4byte	process_tp
 3353 1756 33       		.uleb128 0x33
 3354 1757 D4090000 		.4byte	.LASF292
 3355 175b 09       		.byte	0x9
 3356 175c 6F       		.byte	0x6f
 3357 175d 9A040000 		.4byte	0x49a
 3358 1761 34       		.uleb128 0x34
 3359 1762 70090000 		.4byte	.LASF293
 3360 1766 11       		.byte	0x11
 3361 1767 9806     		.2byte	0x698
 3362 1769 EF060000 		.4byte	0x6ef
 3363 176d 33       		.uleb128 0x33
 3364 176e 77000000 		.4byte	.LASF294
 3365 1772 12       		.byte	0x12
 3366 1773 03       		.byte	0x3
 3367 1774 87120000 		.4byte	0x1287
 3368 1778 35       		.uleb128 0x35
 3369 1779 1D030000 		.4byte	.LASF308
 3370 177d 0B       		.byte	0xb
 3371 177e BE       		.byte	0xbe
 3372 177f 38010000 		.4byte	0x138
 3373 1783 8D170000 		.4byte	0x178d
 3374 1787 12       		.uleb128 0x12
 3375 1788 38010000 		.4byte	0x138
 3376 178c 00       		.byte	0
 3377 178d 36       		.uleb128 0x36
 3378 178e CD000000 		.4byte	.LASF295
 3379 1792 13       		.byte	0x13
 3380 1793 26       		.byte	0x26
 3381 1794 A3170000 		.4byte	0x17a3
 3382 1798 12       		.uleb128 0x12
 3383 1799 AD000000 		.4byte	0xad
 3384 179d 12       		.uleb128 0x12
 3385 179e 25000000 		.4byte	0x25
 3386 17a2 00       		.byte	0
 3387 17a3 36       		.uleb128 0x36
 3388 17a4 B60B0000 		.4byte	.LASF296
 3389 17a8 0B       		.byte	0xb
 3390 17a9 B7       		.byte	0xb7
 3391 17aa B9170000 		.4byte	0x17b9
 3392 17ae 12       		.uleb128 0x12
 3393 17af 82020000 		.4byte	0x282
ARM GAS  C:\Users\jsyoon\AppData\Local\Temp\ccWY3jAf.s 			page 61


 3394 17b3 12       		.uleb128 0x12
 3395 17b4 38010000 		.4byte	0x138
 3396 17b8 00       		.byte	0
 3397 17b9 36       		.uleb128 0x36
 3398 17ba 70050000 		.4byte	.LASF297
 3399 17be 14       		.byte	0x14
 3400 17bf 20       		.byte	0x20
 3401 17c0 CA170000 		.4byte	0x17ca
 3402 17c4 12       		.uleb128 0x12
 3403 17c5 CA170000 		.4byte	0x17ca
 3404 17c9 00       		.byte	0
 3405 17ca 09       		.uleb128 0x9
 3406 17cb 04       		.byte	0x4
 3407 17cc D0170000 		.4byte	0x17d0
 3408 17d0 13       		.uleb128 0x13
 3409 17d1 E0170000 		.4byte	0x17e0
 3410 17d5 12       		.uleb128 0x12
 3411 17d6 2A150000 		.4byte	0x152a
 3412 17da 12       		.uleb128 0x12
 3413 17db 37000000 		.4byte	0x37
 3414 17df 00       		.byte	0
 3415 17e0 36       		.uleb128 0x36
 3416 17e1 3E020000 		.4byte	.LASF298
 3417 17e5 14       		.byte	0x14
 3418 17e6 22       		.byte	0x22
 3419 17e7 F6170000 		.4byte	0x17f6
 3420 17eb 12       		.uleb128 0x12
 3421 17ec 2A150000 		.4byte	0x152a
 3422 17f0 12       		.uleb128 0x12
 3423 17f1 37000000 		.4byte	0x37
 3424 17f5 00       		.byte	0
 3425 17f6 36       		.uleb128 0x36
 3426 17f7 A1050000 		.4byte	.LASF299
 3427 17fb 13       		.byte	0x13
 3428 17fc 28       		.byte	0x28
 3429 17fd 11180000 		.4byte	0x1811
 3430 1801 12       		.uleb128 0x12
 3431 1802 2A150000 		.4byte	0x152a
 3432 1806 12       		.uleb128 0x12
 3433 1807 37000000 		.4byte	0x37
 3434 180b 12       		.uleb128 0x12
 3435 180c 25000000 		.4byte	0x25
 3436 1810 00       		.byte	0
 3437 1811 36       		.uleb128 0x36
 3438 1812 5B0B0000 		.4byte	.LASF300
 3439 1816 0A       		.byte	0xa
 3440 1817 39       		.byte	0x39
 3441 1818 22180000 		.4byte	0x1822
 3442 181c 12       		.uleb128 0x12
 3443 181d A0050000 		.4byte	0x5a0
 3444 1821 00       		.byte	0
 3445 1822 37       		.uleb128 0x37
 3446 1823 25070000 		.4byte	.LASF309
 3447 1827 0A       		.byte	0xa
 3448 1828 3D       		.byte	0x3d
 3449 1829 A0050000 		.4byte	0x5a0
 3450 182d 38       		.uleb128 0x38
ARM GAS  C:\Users\jsyoon\AppData\Local\Temp\ccWY3jAf.s 			page 62


 3451 182e A7010000 		.4byte	.LASF310
 3452 1832 12       		.byte	0x12
 3453 1833 05       		.byte	0x5
 3454 1834 36       		.uleb128 0x36
 3455 1835 03040000 		.4byte	.LASF301
 3456 1839 13       		.byte	0x13
 3457 183a 24       		.byte	0x24
 3458 183b 4F180000 		.4byte	0x184f
 3459 183f 12       		.uleb128 0x12
 3460 1840 CA170000 		.4byte	0x17ca
 3461 1844 12       		.uleb128 0x12
 3462 1845 CA170000 		.4byte	0x17ca
 3463 1849 12       		.uleb128 0x12
 3464 184a 25000000 		.4byte	0x25
 3465 184e 00       		.byte	0
 3466 184f 36       		.uleb128 0x36
 3467 1850 A0030000 		.4byte	.LASF302
 3468 1854 0A       		.byte	0xa
 3469 1855 38       		.byte	0x38
 3470 1856 60180000 		.4byte	0x1860
 3471 185a 12       		.uleb128 0x12
 3472 185b A0050000 		.4byte	0x5a0
 3473 185f 00       		.byte	0
 3474 1860 39       		.uleb128 0x39
 3475 1861 38080000 		.4byte	.LASF303
 3476 1865 07       		.byte	0x7
 3477 1866 7001     		.2byte	0x170
 3478 1868 82020000 		.4byte	0x282
 3479 186c 12       		.uleb128 0x12
 3480 186d BE020000 		.4byte	0x2be
 3481 1871 12       		.uleb128 0x12
 3482 1872 2C000000 		.4byte	0x2c
 3483 1876 12       		.uleb128 0x12
 3484 1877 22010000 		.4byte	0x122
 3485 187b 12       		.uleb128 0x12
 3486 187c A6050000 		.4byte	0x5a6
 3487 1880 12       		.uleb128 0x12
 3488 1881 BE020000 		.4byte	0x2be
 3489 1885 00       		.byte	0
 3490 1886 00       		.byte	0
 3491              		.section	.debug_abbrev,"",%progbits
 3492              	.Ldebug_abbrev0:
 3493 0000 01       		.uleb128 0x1
 3494 0001 11       		.uleb128 0x11
 3495 0002 01       		.byte	0x1
 3496 0003 25       		.uleb128 0x25
 3497 0004 0E       		.uleb128 0xe
 3498 0005 13       		.uleb128 0x13
 3499 0006 0B       		.uleb128 0xb
 3500 0007 03       		.uleb128 0x3
 3501 0008 0E       		.uleb128 0xe
 3502 0009 1B       		.uleb128 0x1b
 3503 000a 0E       		.uleb128 0xe
 3504 000b 55       		.uleb128 0x55
 3505 000c 17       		.uleb128 0x17
 3506 000d 11       		.uleb128 0x11
 3507 000e 01       		.uleb128 0x1
ARM GAS  C:\Users\jsyoon\AppData\Local\Temp\ccWY3jAf.s 			page 63


 3508 000f 10       		.uleb128 0x10
 3509 0010 17       		.uleb128 0x17
 3510 0011 00       		.byte	0
 3511 0012 00       		.byte	0
 3512 0013 02       		.uleb128 0x2
 3513 0014 24       		.uleb128 0x24
 3514 0015 00       		.byte	0
 3515 0016 0B       		.uleb128 0xb
 3516 0017 0B       		.uleb128 0xb
 3517 0018 3E       		.uleb128 0x3e
 3518 0019 0B       		.uleb128 0xb
 3519 001a 03       		.uleb128 0x3
 3520 001b 08       		.uleb128 0x8
 3521 001c 00       		.byte	0
 3522 001d 00       		.byte	0
 3523 001e 03       		.uleb128 0x3
 3524 001f 16       		.uleb128 0x16
 3525 0020 00       		.byte	0
 3526 0021 03       		.uleb128 0x3
 3527 0022 0E       		.uleb128 0xe
 3528 0023 3A       		.uleb128 0x3a
 3529 0024 0B       		.uleb128 0xb
 3530 0025 3B       		.uleb128 0x3b
 3531 0026 0B       		.uleb128 0xb
 3532 0027 49       		.uleb128 0x49
 3533 0028 13       		.uleb128 0x13
 3534 0029 00       		.byte	0
 3535 002a 00       		.byte	0
 3536 002b 04       		.uleb128 0x4
 3537 002c 24       		.uleb128 0x24
 3538 002d 00       		.byte	0
 3539 002e 0B       		.uleb128 0xb
 3540 002f 0B       		.uleb128 0xb
 3541 0030 3E       		.uleb128 0x3e
 3542 0031 0B       		.uleb128 0xb
 3543 0032 03       		.uleb128 0x3
 3544 0033 0E       		.uleb128 0xe
 3545 0034 00       		.byte	0
 3546 0035 00       		.byte	0
 3547 0036 05       		.uleb128 0x5
 3548 0037 13       		.uleb128 0x13
 3549 0038 01       		.byte	0x1
 3550 0039 03       		.uleb128 0x3
 3551 003a 0E       		.uleb128 0xe
 3552 003b 0B       		.uleb128 0xb
 3553 003c 0B       		.uleb128 0xb
 3554 003d 3A       		.uleb128 0x3a
 3555 003e 0B       		.uleb128 0xb
 3556 003f 3B       		.uleb128 0x3b
 3557 0040 0B       		.uleb128 0xb
 3558 0041 01       		.uleb128 0x1
 3559 0042 13       		.uleb128 0x13
 3560 0043 00       		.byte	0
 3561 0044 00       		.byte	0
 3562 0045 06       		.uleb128 0x6
 3563 0046 0D       		.uleb128 0xd
 3564 0047 00       		.byte	0
ARM GAS  C:\Users\jsyoon\AppData\Local\Temp\ccWY3jAf.s 			page 64


 3565 0048 03       		.uleb128 0x3
 3566 0049 0E       		.uleb128 0xe
 3567 004a 3A       		.uleb128 0x3a
 3568 004b 0B       		.uleb128 0xb
 3569 004c 3B       		.uleb128 0x3b
 3570 004d 0B       		.uleb128 0xb
 3571 004e 49       		.uleb128 0x49
 3572 004f 13       		.uleb128 0x13
 3573 0050 38       		.uleb128 0x38
 3574 0051 0B       		.uleb128 0xb
 3575 0052 00       		.byte	0
 3576 0053 00       		.byte	0
 3577 0054 07       		.uleb128 0x7
 3578 0055 0D       		.uleb128 0xd
 3579 0056 00       		.byte	0
 3580 0057 03       		.uleb128 0x3
 3581 0058 08       		.uleb128 0x8
 3582 0059 3A       		.uleb128 0x3a
 3583 005a 0B       		.uleb128 0xb
 3584 005b 3B       		.uleb128 0x3b
 3585 005c 0B       		.uleb128 0xb
 3586 005d 49       		.uleb128 0x49
 3587 005e 13       		.uleb128 0x13
 3588 005f 38       		.uleb128 0x38
 3589 0060 0B       		.uleb128 0xb
 3590 0061 00       		.byte	0
 3591 0062 00       		.byte	0
 3592 0063 08       		.uleb128 0x8
 3593 0064 13       		.uleb128 0x13
 3594 0065 01       		.byte	0x1
 3595 0066 0B       		.uleb128 0xb
 3596 0067 0B       		.uleb128 0xb
 3597 0068 3A       		.uleb128 0x3a
 3598 0069 0B       		.uleb128 0xb
 3599 006a 3B       		.uleb128 0x3b
 3600 006b 0B       		.uleb128 0xb
 3601 006c 01       		.uleb128 0x1
 3602 006d 13       		.uleb128 0x13
 3603 006e 00       		.byte	0
 3604 006f 00       		.byte	0
 3605 0070 09       		.uleb128 0x9
 3606 0071 0F       		.uleb128 0xf
 3607 0072 00       		.byte	0
 3608 0073 0B       		.uleb128 0xb
 3609 0074 0B       		.uleb128 0xb
 3610 0075 49       		.uleb128 0x49
 3611 0076 13       		.uleb128 0x13
 3612 0077 00       		.byte	0
 3613 0078 00       		.byte	0
 3614 0079 0A       		.uleb128 0xa
 3615 007a 0F       		.uleb128 0xf
 3616 007b 00       		.byte	0
 3617 007c 0B       		.uleb128 0xb
 3618 007d 0B       		.uleb128 0xb
 3619 007e 00       		.byte	0
 3620 007f 00       		.byte	0
 3621 0080 0B       		.uleb128 0xb
ARM GAS  C:\Users\jsyoon\AppData\Local\Temp\ccWY3jAf.s 			page 65


 3622 0081 13       		.uleb128 0x13
 3623 0082 01       		.byte	0x1
 3624 0083 03       		.uleb128 0x3
 3625 0084 0E       		.uleb128 0xe
 3626 0085 0B       		.uleb128 0xb
 3627 0086 0B       		.uleb128 0xb
 3628 0087 3A       		.uleb128 0x3a
 3629 0088 0B       		.uleb128 0xb
 3630 0089 3B       		.uleb128 0x3b
 3631 008a 05       		.uleb128 0x5
 3632 008b 01       		.uleb128 0x1
 3633 008c 13       		.uleb128 0x13
 3634 008d 00       		.byte	0
 3635 008e 00       		.byte	0
 3636 008f 0C       		.uleb128 0xc
 3637 0090 0D       		.uleb128 0xd
 3638 0091 00       		.byte	0
 3639 0092 03       		.uleb128 0x3
 3640 0093 08       		.uleb128 0x8
 3641 0094 3A       		.uleb128 0x3a
 3642 0095 0B       		.uleb128 0xb
 3643 0096 3B       		.uleb128 0x3b
 3644 0097 05       		.uleb128 0x5
 3645 0098 49       		.uleb128 0x49
 3646 0099 13       		.uleb128 0x13
 3647 009a 38       		.uleb128 0x38
 3648 009b 0B       		.uleb128 0xb
 3649 009c 00       		.byte	0
 3650 009d 00       		.byte	0
 3651 009e 0D       		.uleb128 0xd
 3652 009f 35       		.uleb128 0x35
 3653 00a0 00       		.byte	0
 3654 00a1 49       		.uleb128 0x49
 3655 00a2 13       		.uleb128 0x13
 3656 00a3 00       		.byte	0
 3657 00a4 00       		.byte	0
 3658 00a5 0E       		.uleb128 0xe
 3659 00a6 17       		.uleb128 0x17
 3660 00a7 01       		.byte	0x1
 3661 00a8 0B       		.uleb128 0xb
 3662 00a9 0B       		.uleb128 0xb
 3663 00aa 3A       		.uleb128 0x3a
 3664 00ab 0B       		.uleb128 0xb
 3665 00ac 3B       		.uleb128 0x3b
 3666 00ad 0B       		.uleb128 0xb
 3667 00ae 01       		.uleb128 0x1
 3668 00af 13       		.uleb128 0x13
 3669 00b0 00       		.byte	0
 3670 00b1 00       		.byte	0
 3671 00b2 0F       		.uleb128 0xf
 3672 00b3 0D       		.uleb128 0xd
 3673 00b4 00       		.byte	0
 3674 00b5 03       		.uleb128 0x3
 3675 00b6 0E       		.uleb128 0xe
 3676 00b7 3A       		.uleb128 0x3a
 3677 00b8 0B       		.uleb128 0xb
 3678 00b9 3B       		.uleb128 0x3b
ARM GAS  C:\Users\jsyoon\AppData\Local\Temp\ccWY3jAf.s 			page 66


 3679 00ba 0B       		.uleb128 0xb
 3680 00bb 49       		.uleb128 0x49
 3681 00bc 13       		.uleb128 0x13
 3682 00bd 00       		.byte	0
 3683 00be 00       		.byte	0
 3684 00bf 10       		.uleb128 0x10
 3685 00c0 26       		.uleb128 0x26
 3686 00c1 00       		.byte	0
 3687 00c2 49       		.uleb128 0x49
 3688 00c3 13       		.uleb128 0x13
 3689 00c4 00       		.byte	0
 3690 00c5 00       		.byte	0
 3691 00c6 11       		.uleb128 0x11
 3692 00c7 15       		.uleb128 0x15
 3693 00c8 01       		.byte	0x1
 3694 00c9 27       		.uleb128 0x27
 3695 00ca 19       		.uleb128 0x19
 3696 00cb 49       		.uleb128 0x49
 3697 00cc 13       		.uleb128 0x13
 3698 00cd 01       		.uleb128 0x1
 3699 00ce 13       		.uleb128 0x13
 3700 00cf 00       		.byte	0
 3701 00d0 00       		.byte	0
 3702 00d1 12       		.uleb128 0x12
 3703 00d2 05       		.uleb128 0x5
 3704 00d3 00       		.byte	0
 3705 00d4 49       		.uleb128 0x49
 3706 00d5 13       		.uleb128 0x13
 3707 00d6 00       		.byte	0
 3708 00d7 00       		.byte	0
 3709 00d8 13       		.uleb128 0x13
 3710 00d9 15       		.uleb128 0x15
 3711 00da 01       		.byte	0x1
 3712 00db 27       		.uleb128 0x27
 3713 00dc 19       		.uleb128 0x19
 3714 00dd 01       		.uleb128 0x1
 3715 00de 13       		.uleb128 0x13
 3716 00df 00       		.byte	0
 3717 00e0 00       		.byte	0
 3718 00e1 14       		.uleb128 0x14
 3719 00e2 01       		.uleb128 0x1
 3720 00e3 01       		.byte	0x1
 3721 00e4 49       		.uleb128 0x49
 3722 00e5 13       		.uleb128 0x13
 3723 00e6 01       		.uleb128 0x1
 3724 00e7 13       		.uleb128 0x13
 3725 00e8 00       		.byte	0
 3726 00e9 00       		.byte	0
 3727 00ea 15       		.uleb128 0x15
 3728 00eb 21       		.uleb128 0x21
 3729 00ec 00       		.byte	0
 3730 00ed 49       		.uleb128 0x49
 3731 00ee 13       		.uleb128 0x13
 3732 00ef 2F       		.uleb128 0x2f
 3733 00f0 0B       		.uleb128 0xb
 3734 00f1 00       		.byte	0
 3735 00f2 00       		.byte	0
ARM GAS  C:\Users\jsyoon\AppData\Local\Temp\ccWY3jAf.s 			page 67


 3736 00f3 16       		.uleb128 0x16
 3737 00f4 13       		.uleb128 0x13
 3738 00f5 01       		.byte	0x1
 3739 00f6 03       		.uleb128 0x3
 3740 00f7 0E       		.uleb128 0xe
 3741 00f8 0B       		.uleb128 0xb
 3742 00f9 05       		.uleb128 0x5
 3743 00fa 3A       		.uleb128 0x3a
 3744 00fb 0B       		.uleb128 0xb
 3745 00fc 3B       		.uleb128 0x3b
 3746 00fd 05       		.uleb128 0x5
 3747 00fe 01       		.uleb128 0x1
 3748 00ff 13       		.uleb128 0x13
 3749 0100 00       		.byte	0
 3750 0101 00       		.byte	0
 3751 0102 17       		.uleb128 0x17
 3752 0103 0D       		.uleb128 0xd
 3753 0104 00       		.byte	0
 3754 0105 03       		.uleb128 0x3
 3755 0106 0E       		.uleb128 0xe
 3756 0107 3A       		.uleb128 0x3a
 3757 0108 0B       		.uleb128 0xb
 3758 0109 3B       		.uleb128 0x3b
 3759 010a 05       		.uleb128 0x5
 3760 010b 49       		.uleb128 0x49
 3761 010c 13       		.uleb128 0x13
 3762 010d 38       		.uleb128 0x38
 3763 010e 0B       		.uleb128 0xb
 3764 010f 00       		.byte	0
 3765 0110 00       		.byte	0
 3766 0111 18       		.uleb128 0x18
 3767 0112 04       		.uleb128 0x4
 3768 0113 01       		.byte	0x1
 3769 0114 0B       		.uleb128 0xb
 3770 0115 0B       		.uleb128 0xb
 3771 0116 3A       		.uleb128 0x3a
 3772 0117 0B       		.uleb128 0xb
 3773 0118 3B       		.uleb128 0x3b
 3774 0119 0B       		.uleb128 0xb
 3775 011a 01       		.uleb128 0x1
 3776 011b 13       		.uleb128 0x13
 3777 011c 00       		.byte	0
 3778 011d 00       		.byte	0
 3779 011e 19       		.uleb128 0x19
 3780 011f 28       		.uleb128 0x28
 3781 0120 00       		.byte	0
 3782 0121 03       		.uleb128 0x3
 3783 0122 0E       		.uleb128 0xe
 3784 0123 1C       		.uleb128 0x1c
 3785 0124 0D       		.uleb128 0xd
 3786 0125 00       		.byte	0
 3787 0126 00       		.byte	0
 3788 0127 1A       		.uleb128 0x1a
 3789 0128 04       		.uleb128 0x4
 3790 0129 01       		.byte	0x1
 3791 012a 0B       		.uleb128 0xb
 3792 012b 0B       		.uleb128 0xb
ARM GAS  C:\Users\jsyoon\AppData\Local\Temp\ccWY3jAf.s 			page 68


 3793 012c 3A       		.uleb128 0x3a
 3794 012d 0B       		.uleb128 0xb
 3795 012e 3B       		.uleb128 0x3b
 3796 012f 05       		.uleb128 0x5
 3797 0130 01       		.uleb128 0x1
 3798 0131 13       		.uleb128 0x13
 3799 0132 00       		.byte	0
 3800 0133 00       		.byte	0
 3801 0134 1B       		.uleb128 0x1b
 3802 0135 16       		.uleb128 0x16
 3803 0136 00       		.byte	0
 3804 0137 03       		.uleb128 0x3
 3805 0138 0E       		.uleb128 0xe
 3806 0139 3A       		.uleb128 0x3a
 3807 013a 0B       		.uleb128 0xb
 3808 013b 3B       		.uleb128 0x3b
 3809 013c 05       		.uleb128 0x5
 3810 013d 49       		.uleb128 0x49
 3811 013e 13       		.uleb128 0x13
 3812 013f 00       		.byte	0
 3813 0140 00       		.byte	0
 3814 0141 1C       		.uleb128 0x1c
 3815 0142 13       		.uleb128 0x13
 3816 0143 01       		.byte	0x1
 3817 0144 0B       		.uleb128 0xb
 3818 0145 0B       		.uleb128 0xb
 3819 0146 3A       		.uleb128 0x3a
 3820 0147 0B       		.uleb128 0xb
 3821 0148 3B       		.uleb128 0x3b
 3822 0149 05       		.uleb128 0x5
 3823 014a 01       		.uleb128 0x1
 3824 014b 13       		.uleb128 0x13
 3825 014c 00       		.byte	0
 3826 014d 00       		.byte	0
 3827 014e 1D       		.uleb128 0x1d
 3828 014f 13       		.uleb128 0x13
 3829 0150 01       		.byte	0x1
 3830 0151 0B       		.uleb128 0xb
 3831 0152 06       		.uleb128 0x6
 3832 0153 3A       		.uleb128 0x3a
 3833 0154 0B       		.uleb128 0xb
 3834 0155 3B       		.uleb128 0x3b
 3835 0156 0B       		.uleb128 0xb
 3836 0157 01       		.uleb128 0x1
 3837 0158 13       		.uleb128 0x13
 3838 0159 00       		.byte	0
 3839 015a 00       		.byte	0
 3840 015b 1E       		.uleb128 0x1e
 3841 015c 0D       		.uleb128 0xd
 3842 015d 00       		.byte	0
 3843 015e 03       		.uleb128 0x3
 3844 015f 0E       		.uleb128 0xe
 3845 0160 3A       		.uleb128 0x3a
 3846 0161 0B       		.uleb128 0xb
 3847 0162 3B       		.uleb128 0x3b
 3848 0163 0B       		.uleb128 0xb
 3849 0164 49       		.uleb128 0x49
ARM GAS  C:\Users\jsyoon\AppData\Local\Temp\ccWY3jAf.s 			page 69


 3850 0165 13       		.uleb128 0x13
 3851 0166 38       		.uleb128 0x38
 3852 0167 05       		.uleb128 0x5
 3853 0168 00       		.byte	0
 3854 0169 00       		.byte	0
 3855 016a 1F       		.uleb128 0x1f
 3856 016b 0D       		.uleb128 0xd
 3857 016c 00       		.byte	0
 3858 016d 03       		.uleb128 0x3
 3859 016e 08       		.uleb128 0x8
 3860 016f 3A       		.uleb128 0x3a
 3861 0170 0B       		.uleb128 0xb
 3862 0171 3B       		.uleb128 0x3b
 3863 0172 0B       		.uleb128 0xb
 3864 0173 49       		.uleb128 0x49
 3865 0174 13       		.uleb128 0x13
 3866 0175 38       		.uleb128 0x38
 3867 0176 05       		.uleb128 0x5
 3868 0177 00       		.byte	0
 3869 0178 00       		.byte	0
 3870 0179 20       		.uleb128 0x20
 3871 017a 21       		.uleb128 0x21
 3872 017b 00       		.byte	0
 3873 017c 49       		.uleb128 0x49
 3874 017d 13       		.uleb128 0x13
 3875 017e 2F       		.uleb128 0x2f
 3876 017f 05       		.uleb128 0x5
 3877 0180 00       		.byte	0
 3878 0181 00       		.byte	0
 3879 0182 21       		.uleb128 0x21
 3880 0183 0D       		.uleb128 0xd
 3881 0184 00       		.byte	0
 3882 0185 03       		.uleb128 0x3
 3883 0186 0E       		.uleb128 0xe
 3884 0187 3A       		.uleb128 0x3a
 3885 0188 0B       		.uleb128 0xb
 3886 0189 3B       		.uleb128 0x3b
 3887 018a 05       		.uleb128 0x5
 3888 018b 49       		.uleb128 0x49
 3889 018c 13       		.uleb128 0x13
 3890 018d 00       		.byte	0
 3891 018e 00       		.byte	0
 3892 018f 22       		.uleb128 0x22
 3893 0190 13       		.uleb128 0x13
 3894 0191 01       		.byte	0x1
 3895 0192 03       		.uleb128 0x3
 3896 0193 0E       		.uleb128 0xe
 3897 0194 0B       		.uleb128 0xb
 3898 0195 05       		.uleb128 0x5
 3899 0196 3A       		.uleb128 0x3a
 3900 0197 0B       		.uleb128 0xb
 3901 0198 3B       		.uleb128 0x3b
 3902 0199 0B       		.uleb128 0xb
 3903 019a 01       		.uleb128 0x1
 3904 019b 13       		.uleb128 0x13
 3905 019c 00       		.byte	0
 3906 019d 00       		.byte	0
ARM GAS  C:\Users\jsyoon\AppData\Local\Temp\ccWY3jAf.s 			page 70


 3907 019e 23       		.uleb128 0x23
 3908 019f 2E       		.uleb128 0x2e
 3909 01a0 01       		.byte	0x1
 3910 01a1 03       		.uleb128 0x3
 3911 01a2 0E       		.uleb128 0xe
 3912 01a3 3A       		.uleb128 0x3a
 3913 01a4 0B       		.uleb128 0xb
 3914 01a5 3B       		.uleb128 0x3b
 3915 01a6 0B       		.uleb128 0xb
 3916 01a7 27       		.uleb128 0x27
 3917 01a8 19       		.uleb128 0x19
 3918 01a9 49       		.uleb128 0x49
 3919 01aa 13       		.uleb128 0x13
 3920 01ab 11       		.uleb128 0x11
 3921 01ac 01       		.uleb128 0x1
 3922 01ad 12       		.uleb128 0x12
 3923 01ae 06       		.uleb128 0x6
 3924 01af 40       		.uleb128 0x40
 3925 01b0 18       		.uleb128 0x18
 3926 01b1 9742     		.uleb128 0x2117
 3927 01b3 19       		.uleb128 0x19
 3928 01b4 01       		.uleb128 0x1
 3929 01b5 13       		.uleb128 0x13
 3930 01b6 00       		.byte	0
 3931 01b7 00       		.byte	0
 3932 01b8 24       		.uleb128 0x24
 3933 01b9 05       		.uleb128 0x5
 3934 01ba 00       		.byte	0
 3935 01bb 03       		.uleb128 0x3
 3936 01bc 08       		.uleb128 0x8
 3937 01bd 3A       		.uleb128 0x3a
 3938 01be 0B       		.uleb128 0xb
 3939 01bf 3B       		.uleb128 0x3b
 3940 01c0 0B       		.uleb128 0xb
 3941 01c1 49       		.uleb128 0x49
 3942 01c2 13       		.uleb128 0x13
 3943 01c3 02       		.uleb128 0x2
 3944 01c4 17       		.uleb128 0x17
 3945 01c5 00       		.byte	0
 3946 01c6 00       		.byte	0
 3947 01c7 25       		.uleb128 0x25
 3948 01c8 898201   		.uleb128 0x4109
 3949 01cb 01       		.byte	0x1
 3950 01cc 11       		.uleb128 0x11
 3951 01cd 01       		.uleb128 0x1
 3952 01ce 31       		.uleb128 0x31
 3953 01cf 13       		.uleb128 0x13
 3954 01d0 01       		.uleb128 0x1
 3955 01d1 13       		.uleb128 0x13
 3956 01d2 00       		.byte	0
 3957 01d3 00       		.byte	0
 3958 01d4 26       		.uleb128 0x26
 3959 01d5 8A8201   		.uleb128 0x410a
 3960 01d8 00       		.byte	0
 3961 01d9 02       		.uleb128 0x2
 3962 01da 18       		.uleb128 0x18
 3963 01db 9142     		.uleb128 0x2111
ARM GAS  C:\Users\jsyoon\AppData\Local\Temp\ccWY3jAf.s 			page 71


 3964 01dd 18       		.uleb128 0x18
 3965 01de 00       		.byte	0
 3966 01df 00       		.byte	0
 3967 01e0 27       		.uleb128 0x27
 3968 01e1 898201   		.uleb128 0x4109
 3969 01e4 01       		.byte	0x1
 3970 01e5 11       		.uleb128 0x11
 3971 01e6 01       		.uleb128 0x1
 3972 01e7 31       		.uleb128 0x31
 3973 01e8 13       		.uleb128 0x13
 3974 01e9 00       		.byte	0
 3975 01ea 00       		.byte	0
 3976 01eb 28       		.uleb128 0x28
 3977 01ec 34       		.uleb128 0x34
 3978 01ed 00       		.byte	0
 3979 01ee 03       		.uleb128 0x3
 3980 01ef 0E       		.uleb128 0xe
 3981 01f0 3A       		.uleb128 0x3a
 3982 01f1 0B       		.uleb128 0xb
 3983 01f2 3B       		.uleb128 0x3b
 3984 01f3 0B       		.uleb128 0xb
 3985 01f4 49       		.uleb128 0x49
 3986 01f5 13       		.uleb128 0x13
 3987 01f6 02       		.uleb128 0x2
 3988 01f7 18       		.uleb128 0x18
 3989 01f8 00       		.byte	0
 3990 01f9 00       		.byte	0
 3991 01fa 29       		.uleb128 0x29
 3992 01fb 34       		.uleb128 0x34
 3993 01fc 00       		.byte	0
 3994 01fd 03       		.uleb128 0x3
 3995 01fe 08       		.uleb128 0x8
 3996 01ff 3A       		.uleb128 0x3a
 3997 0200 0B       		.uleb128 0xb
 3998 0201 3B       		.uleb128 0x3b
 3999 0202 0B       		.uleb128 0xb
 4000 0203 49       		.uleb128 0x49
 4001 0204 13       		.uleb128 0x13
 4002 0205 02       		.uleb128 0x2
 4003 0206 17       		.uleb128 0x17
 4004 0207 00       		.byte	0
 4005 0208 00       		.byte	0
 4006 0209 2A       		.uleb128 0x2a
 4007 020a 34       		.uleb128 0x34
 4008 020b 00       		.byte	0
 4009 020c 03       		.uleb128 0x3
 4010 020d 0E       		.uleb128 0xe
 4011 020e 3A       		.uleb128 0x3a
 4012 020f 0B       		.uleb128 0xb
 4013 0210 3B       		.uleb128 0x3b
 4014 0211 0B       		.uleb128 0xb
 4015 0212 49       		.uleb128 0x49
 4016 0213 13       		.uleb128 0x13
 4017 0214 02       		.uleb128 0x2
 4018 0215 17       		.uleb128 0x17
 4019 0216 00       		.byte	0
 4020 0217 00       		.byte	0
ARM GAS  C:\Users\jsyoon\AppData\Local\Temp\ccWY3jAf.s 			page 72


 4021 0218 2B       		.uleb128 0x2b
 4022 0219 898201   		.uleb128 0x4109
 4023 021c 01       		.byte	0x1
 4024 021d 11       		.uleb128 0x11
 4025 021e 01       		.uleb128 0x1
 4026 021f 01       		.uleb128 0x1
 4027 0220 13       		.uleb128 0x13
 4028 0221 00       		.byte	0
 4029 0222 00       		.byte	0
 4030 0223 2C       		.uleb128 0x2c
 4031 0224 2E       		.uleb128 0x2e
 4032 0225 01       		.byte	0x1
 4033 0226 03       		.uleb128 0x3
 4034 0227 0E       		.uleb128 0xe
 4035 0228 3A       		.uleb128 0x3a
 4036 0229 0B       		.uleb128 0xb
 4037 022a 3B       		.uleb128 0x3b
 4038 022b 0B       		.uleb128 0xb
 4039 022c 27       		.uleb128 0x27
 4040 022d 19       		.uleb128 0x19
 4041 022e 11       		.uleb128 0x11
 4042 022f 01       		.uleb128 0x1
 4043 0230 12       		.uleb128 0x12
 4044 0231 06       		.uleb128 0x6
 4045 0232 40       		.uleb128 0x40
 4046 0233 18       		.uleb128 0x18
 4047 0234 9742     		.uleb128 0x2117
 4048 0236 19       		.uleb128 0x19
 4049 0237 01       		.uleb128 0x1
 4050 0238 13       		.uleb128 0x13
 4051 0239 00       		.byte	0
 4052 023a 00       		.byte	0
 4053 023b 2D       		.uleb128 0x2d
 4054 023c 05       		.uleb128 0x5
 4055 023d 00       		.byte	0
 4056 023e 03       		.uleb128 0x3
 4057 023f 0E       		.uleb128 0xe
 4058 0240 3A       		.uleb128 0x3a
 4059 0241 0B       		.uleb128 0xb
 4060 0242 3B       		.uleb128 0x3b
 4061 0243 0B       		.uleb128 0xb
 4062 0244 49       		.uleb128 0x49
 4063 0245 13       		.uleb128 0x13
 4064 0246 02       		.uleb128 0x2
 4065 0247 17       		.uleb128 0x17
 4066 0248 00       		.byte	0
 4067 0249 00       		.byte	0
 4068 024a 2E       		.uleb128 0x2e
 4069 024b 898201   		.uleb128 0x4109
 4070 024e 01       		.byte	0x1
 4071 024f 11       		.uleb128 0x11
 4072 0250 01       		.uleb128 0x1
 4073 0251 9542     		.uleb128 0x2115
 4074 0253 19       		.uleb128 0x19
 4075 0254 31       		.uleb128 0x31
 4076 0255 13       		.uleb128 0x13
 4077 0256 00       		.byte	0
ARM GAS  C:\Users\jsyoon\AppData\Local\Temp\ccWY3jAf.s 			page 73


 4078 0257 00       		.byte	0
 4079 0258 2F       		.uleb128 0x2f
 4080 0259 898201   		.uleb128 0x4109
 4081 025c 01       		.byte	0x1
 4082 025d 11       		.uleb128 0x11
 4083 025e 01       		.uleb128 0x1
 4084 025f 9342     		.uleb128 0x2113
 4085 0261 18       		.uleb128 0x18
 4086 0262 01       		.uleb128 0x1
 4087 0263 13       		.uleb128 0x13
 4088 0264 00       		.byte	0
 4089 0265 00       		.byte	0
 4090 0266 30       		.uleb128 0x30
 4091 0267 898201   		.uleb128 0x4109
 4092 026a 00       		.byte	0
 4093 026b 11       		.uleb128 0x11
 4094 026c 01       		.uleb128 0x1
 4095 026d 9542     		.uleb128 0x2115
 4096 026f 19       		.uleb128 0x19
 4097 0270 31       		.uleb128 0x31
 4098 0271 13       		.uleb128 0x13
 4099 0272 00       		.byte	0
 4100 0273 00       		.byte	0
 4101 0274 31       		.uleb128 0x31
 4102 0275 2E       		.uleb128 0x2e
 4103 0276 01       		.byte	0x1
 4104 0277 3F       		.uleb128 0x3f
 4105 0278 19       		.uleb128 0x19
 4106 0279 03       		.uleb128 0x3
 4107 027a 0E       		.uleb128 0xe
 4108 027b 3A       		.uleb128 0x3a
 4109 027c 0B       		.uleb128 0xb
 4110 027d 3B       		.uleb128 0x3b
 4111 027e 0B       		.uleb128 0xb
 4112 027f 27       		.uleb128 0x27
 4113 0280 19       		.uleb128 0x19
 4114 0281 11       		.uleb128 0x11
 4115 0282 01       		.uleb128 0x1
 4116 0283 12       		.uleb128 0x12
 4117 0284 06       		.uleb128 0x6
 4118 0285 40       		.uleb128 0x40
 4119 0286 18       		.uleb128 0x18
 4120 0287 9742     		.uleb128 0x2117
 4121 0289 19       		.uleb128 0x19
 4122 028a 01       		.uleb128 0x1
 4123 028b 13       		.uleb128 0x13
 4124 028c 00       		.byte	0
 4125 028d 00       		.byte	0
 4126 028e 32       		.uleb128 0x32
 4127 028f 898201   		.uleb128 0x4109
 4128 0292 00       		.byte	0
 4129 0293 11       		.uleb128 0x11
 4130 0294 01       		.uleb128 0x1
 4131 0295 31       		.uleb128 0x31
 4132 0296 13       		.uleb128 0x13
 4133 0297 00       		.byte	0
 4134 0298 00       		.byte	0
ARM GAS  C:\Users\jsyoon\AppData\Local\Temp\ccWY3jAf.s 			page 74


 4135 0299 33       		.uleb128 0x33
 4136 029a 34       		.uleb128 0x34
 4137 029b 00       		.byte	0
 4138 029c 03       		.uleb128 0x3
 4139 029d 0E       		.uleb128 0xe
 4140 029e 3A       		.uleb128 0x3a
 4141 029f 0B       		.uleb128 0xb
 4142 02a0 3B       		.uleb128 0x3b
 4143 02a1 0B       		.uleb128 0xb
 4144 02a2 49       		.uleb128 0x49
 4145 02a3 13       		.uleb128 0x13
 4146 02a4 3F       		.uleb128 0x3f
 4147 02a5 19       		.uleb128 0x19
 4148 02a6 3C       		.uleb128 0x3c
 4149 02a7 19       		.uleb128 0x19
 4150 02a8 00       		.byte	0
 4151 02a9 00       		.byte	0
 4152 02aa 34       		.uleb128 0x34
 4153 02ab 34       		.uleb128 0x34
 4154 02ac 00       		.byte	0
 4155 02ad 03       		.uleb128 0x3
 4156 02ae 0E       		.uleb128 0xe
 4157 02af 3A       		.uleb128 0x3a
 4158 02b0 0B       		.uleb128 0xb
 4159 02b1 3B       		.uleb128 0x3b
 4160 02b2 05       		.uleb128 0x5
 4161 02b3 49       		.uleb128 0x49
 4162 02b4 13       		.uleb128 0x13
 4163 02b5 3F       		.uleb128 0x3f
 4164 02b6 19       		.uleb128 0x19
 4165 02b7 3C       		.uleb128 0x3c
 4166 02b8 19       		.uleb128 0x19
 4167 02b9 00       		.byte	0
 4168 02ba 00       		.byte	0
 4169 02bb 35       		.uleb128 0x35
 4170 02bc 2E       		.uleb128 0x2e
 4171 02bd 01       		.byte	0x1
 4172 02be 3F       		.uleb128 0x3f
 4173 02bf 19       		.uleb128 0x19
 4174 02c0 03       		.uleb128 0x3
 4175 02c1 0E       		.uleb128 0xe
 4176 02c2 3A       		.uleb128 0x3a
 4177 02c3 0B       		.uleb128 0xb
 4178 02c4 3B       		.uleb128 0x3b
 4179 02c5 0B       		.uleb128 0xb
 4180 02c6 27       		.uleb128 0x27
 4181 02c7 19       		.uleb128 0x19
 4182 02c8 49       		.uleb128 0x49
 4183 02c9 13       		.uleb128 0x13
 4184 02ca 3C       		.uleb128 0x3c
 4185 02cb 19       		.uleb128 0x19
 4186 02cc 01       		.uleb128 0x1
 4187 02cd 13       		.uleb128 0x13
 4188 02ce 00       		.byte	0
 4189 02cf 00       		.byte	0
 4190 02d0 36       		.uleb128 0x36
 4191 02d1 2E       		.uleb128 0x2e
ARM GAS  C:\Users\jsyoon\AppData\Local\Temp\ccWY3jAf.s 			page 75


 4192 02d2 01       		.byte	0x1
 4193 02d3 3F       		.uleb128 0x3f
 4194 02d4 19       		.uleb128 0x19
 4195 02d5 03       		.uleb128 0x3
 4196 02d6 0E       		.uleb128 0xe
 4197 02d7 3A       		.uleb128 0x3a
 4198 02d8 0B       		.uleb128 0xb
 4199 02d9 3B       		.uleb128 0x3b
 4200 02da 0B       		.uleb128 0xb
 4201 02db 27       		.uleb128 0x27
 4202 02dc 19       		.uleb128 0x19
 4203 02dd 3C       		.uleb128 0x3c
 4204 02de 19       		.uleb128 0x19
 4205 02df 01       		.uleb128 0x1
 4206 02e0 13       		.uleb128 0x13
 4207 02e1 00       		.byte	0
 4208 02e2 00       		.byte	0
 4209 02e3 37       		.uleb128 0x37
 4210 02e4 2E       		.uleb128 0x2e
 4211 02e5 00       		.byte	0
 4212 02e6 3F       		.uleb128 0x3f
 4213 02e7 19       		.uleb128 0x19
 4214 02e8 03       		.uleb128 0x3
 4215 02e9 0E       		.uleb128 0xe
 4216 02ea 3A       		.uleb128 0x3a
 4217 02eb 0B       		.uleb128 0xb
 4218 02ec 3B       		.uleb128 0x3b
 4219 02ed 0B       		.uleb128 0xb
 4220 02ee 27       		.uleb128 0x27
 4221 02ef 19       		.uleb128 0x19
 4222 02f0 49       		.uleb128 0x49
 4223 02f1 13       		.uleb128 0x13
 4224 02f2 3C       		.uleb128 0x3c
 4225 02f3 19       		.uleb128 0x19
 4226 02f4 00       		.byte	0
 4227 02f5 00       		.byte	0
 4228 02f6 38       		.uleb128 0x38
 4229 02f7 2E       		.uleb128 0x2e
 4230 02f8 00       		.byte	0
 4231 02f9 3F       		.uleb128 0x3f
 4232 02fa 19       		.uleb128 0x19
 4233 02fb 03       		.uleb128 0x3
 4234 02fc 0E       		.uleb128 0xe
 4235 02fd 3A       		.uleb128 0x3a
 4236 02fe 0B       		.uleb128 0xb
 4237 02ff 3B       		.uleb128 0x3b
 4238 0300 0B       		.uleb128 0xb
 4239 0301 27       		.uleb128 0x27
 4240 0302 19       		.uleb128 0x19
 4241 0303 3C       		.uleb128 0x3c
 4242 0304 19       		.uleb128 0x19
 4243 0305 00       		.byte	0
 4244 0306 00       		.byte	0
 4245 0307 39       		.uleb128 0x39
 4246 0308 2E       		.uleb128 0x2e
 4247 0309 01       		.byte	0x1
 4248 030a 3F       		.uleb128 0x3f
ARM GAS  C:\Users\jsyoon\AppData\Local\Temp\ccWY3jAf.s 			page 76


 4249 030b 19       		.uleb128 0x19
 4250 030c 03       		.uleb128 0x3
 4251 030d 0E       		.uleb128 0xe
 4252 030e 3A       		.uleb128 0x3a
 4253 030f 0B       		.uleb128 0xb
 4254 0310 3B       		.uleb128 0x3b
 4255 0311 05       		.uleb128 0x5
 4256 0312 27       		.uleb128 0x27
 4257 0313 19       		.uleb128 0x19
 4258 0314 49       		.uleb128 0x49
 4259 0315 13       		.uleb128 0x13
 4260 0316 3C       		.uleb128 0x3c
 4261 0317 19       		.uleb128 0x19
 4262 0318 00       		.byte	0
 4263 0319 00       		.byte	0
 4264 031a 00       		.byte	0
 4265              		.section	.debug_loc,"",%progbits
 4266              	.Ldebug_loc0:
 4267              	.LLST0:
 4268 0000 00000000 		.4byte	.LVL0
 4269 0004 1A000000 		.4byte	.LVL1
 4270 0008 0100     		.2byte	0x1
 4271 000a 50       		.byte	0x50
 4272 000b 1A000000 		.4byte	.LVL1
 4273 000f 64000000 		.4byte	.LFE119
 4274 0013 0400     		.2byte	0x4
 4275 0015 F3       		.byte	0xf3
 4276 0016 01       		.uleb128 0x1
 4277 0017 50       		.byte	0x50
 4278 0018 9F       		.byte	0x9f
 4279 0019 00000000 		.4byte	0
 4280 001d 00000000 		.4byte	0
 4281              	.LLST1:
 4282 0021 00000000 		.4byte	.LVL4
 4283 0025 18000000 		.4byte	.LVL6
 4284 0029 0100     		.2byte	0x1
 4285 002b 50       		.byte	0x50
 4286 002c 18000000 		.4byte	.LVL6
 4287 0030 6C000000 		.4byte	.LFE118
 4288 0034 0400     		.2byte	0x4
 4289 0036 F3       		.byte	0xf3
 4290 0037 01       		.uleb128 0x1
 4291 0038 50       		.byte	0x50
 4292 0039 9F       		.byte	0x9f
 4293 003a 00000000 		.4byte	0
 4294 003e 00000000 		.4byte	0
 4295              	.LLST2:
 4296 0042 24000000 		.4byte	.LVL7
 4297 0046 2C000000 		.4byte	.LVL8
 4298 004a 0200     		.2byte	0x2
 4299 004c 30       		.byte	0x30
 4300 004d 9F       		.byte	0x9f
 4301 004e 2C000000 		.4byte	.LVL8
 4302 0052 3E000000 		.4byte	.LVL9
 4303 0056 0100     		.2byte	0x1
 4304 0058 53       		.byte	0x53
 4305 0059 3E000000 		.4byte	.LVL9
ARM GAS  C:\Users\jsyoon\AppData\Local\Temp\ccWY3jAf.s 			page 77


 4306 005d 44000000 		.4byte	.LVL10
 4307 0061 0300     		.2byte	0x3
 4308 0063 73       		.byte	0x73
 4309 0064 7F       		.sleb128 -1
 4310 0065 9F       		.byte	0x9f
 4311 0066 44000000 		.4byte	.LVL10
 4312 006a 51000000 		.4byte	.LVL12-1
 4313 006e 0100     		.2byte	0x1
 4314 0070 53       		.byte	0x53
 4315 0071 00000000 		.4byte	0
 4316 0075 00000000 		.4byte	0
 4317              	.LLST3:
 4318 0079 24000000 		.4byte	.LVL7
 4319 007d 4A000000 		.4byte	.LVL11
 4320 0081 0100     		.2byte	0x1
 4321 0083 50       		.byte	0x50
 4322 0084 00000000 		.4byte	0
 4323 0088 00000000 		.4byte	0
 4324              	.LLST4:
 4325 008c 16000000 		.4byte	.LVL5
 4326 0090 44000000 		.4byte	.LVL10
 4327 0094 0200     		.2byte	0x2
 4328 0096 30       		.byte	0x30
 4329 0097 9F       		.byte	0x9f
 4330 0098 44000000 		.4byte	.LVL10
 4331 009c 52000000 		.4byte	.LVL12
 4332 00a0 0200     		.2byte	0x2
 4333 00a2 31       		.byte	0x31
 4334 00a3 9F       		.byte	0x9f
 4335 00a4 52000000 		.4byte	.LVL12
 4336 00a8 6C000000 		.4byte	.LFE118
 4337 00ac 0200     		.2byte	0x2
 4338 00ae 30       		.byte	0x30
 4339 00af 9F       		.byte	0x9f
 4340 00b0 00000000 		.4byte	0
 4341 00b4 00000000 		.4byte	0
 4342              	.LLST5:
 4343 00b8 00000000 		.4byte	.LVL13
 4344 00bc 08000000 		.4byte	.LVL14
 4345 00c0 0100     		.2byte	0x1
 4346 00c2 50       		.byte	0x50
 4347 00c3 08000000 		.4byte	.LVL14
 4348 00c7 14000000 		.4byte	.LVL16
 4349 00cb 0100     		.2byte	0x1
 4350 00cd 54       		.byte	0x54
 4351 00ce 14000000 		.4byte	.LVL16
 4352 00d2 17000000 		.4byte	.LVL17-1
 4353 00d6 0100     		.2byte	0x1
 4354 00d8 50       		.byte	0x50
 4355 00d9 17000000 		.4byte	.LVL17-1
 4356 00dd 1C000000 		.4byte	.LFE120
 4357 00e1 0400     		.2byte	0x4
 4358 00e3 F3       		.byte	0xf3
 4359 00e4 01       		.uleb128 0x1
 4360 00e5 50       		.byte	0x50
 4361 00e6 9F       		.byte	0x9f
 4362 00e7 00000000 		.4byte	0
ARM GAS  C:\Users\jsyoon\AppData\Local\Temp\ccWY3jAf.s 			page 78


 4363 00eb 00000000 		.4byte	0
 4364              	.LLST6:
 4365 00ef 00000000 		.4byte	.LVL13
 4366 00f3 0B000000 		.4byte	.LVL15-1
 4367 00f7 0100     		.2byte	0x1
 4368 00f9 51       		.byte	0x51
 4369 00fa 0B000000 		.4byte	.LVL15-1
 4370 00fe 14000000 		.4byte	.LVL16
 4371 0102 0100     		.2byte	0x1
 4372 0104 55       		.byte	0x55
 4373 0105 14000000 		.4byte	.LVL16
 4374 0109 17000000 		.4byte	.LVL17-1
 4375 010d 0100     		.2byte	0x1
 4376 010f 51       		.byte	0x51
 4377 0110 17000000 		.4byte	.LVL17-1
 4378 0114 1C000000 		.4byte	.LFE120
 4379 0118 0400     		.2byte	0x4
 4380 011a F3       		.byte	0xf3
 4381 011b 01       		.uleb128 0x1
 4382 011c 51       		.byte	0x51
 4383 011d 9F       		.byte	0x9f
 4384 011e 00000000 		.4byte	0
 4385 0122 00000000 		.4byte	0
 4386              	.LLST7:
 4387 0126 00000000 		.4byte	.LVL18
 4388 012a 05000000 		.4byte	.LVL19-1
 4389 012e 0100     		.2byte	0x1
 4390 0130 50       		.byte	0x50
 4391 0131 05000000 		.4byte	.LVL19-1
 4392 0135 06000000 		.4byte	.LFE121
 4393 0139 0400     		.2byte	0x4
 4394 013b F3       		.byte	0xf3
 4395 013c 01       		.uleb128 0x1
 4396 013d 50       		.byte	0x50
 4397 013e 9F       		.byte	0x9f
 4398 013f 00000000 		.4byte	0
 4399 0143 00000000 		.4byte	0
 4400              	.LLST8:
 4401 0147 00000000 		.4byte	.LVL18
 4402 014b 05000000 		.4byte	.LVL19-1
 4403 014f 0100     		.2byte	0x1
 4404 0151 51       		.byte	0x51
 4405 0152 05000000 		.4byte	.LVL19-1
 4406 0156 06000000 		.4byte	.LFE121
 4407 015a 0400     		.2byte	0x4
 4408 015c F3       		.byte	0xf3
 4409 015d 01       		.uleb128 0x1
 4410 015e 51       		.byte	0x51
 4411 015f 9F       		.byte	0x9f
 4412 0160 00000000 		.4byte	0
 4413 0164 00000000 		.4byte	0
 4414              	.LLST9:
 4415 0168 00000000 		.4byte	.LVL20
 4416 016c 06000000 		.4byte	.LVL21
 4417 0170 0100     		.2byte	0x1
 4418 0172 50       		.byte	0x50
 4419 0173 06000000 		.4byte	.LVL21
ARM GAS  C:\Users\jsyoon\AppData\Local\Temp\ccWY3jAf.s 			page 79


 4420 0177 1C000000 		.4byte	.LVL24
 4421 017b 0100     		.2byte	0x1
 4422 017d 56       		.byte	0x56
 4423 017e 1C000000 		.4byte	.LVL24
 4424 0182 28000000 		.4byte	.LFE122
 4425 0186 0400     		.2byte	0x4
 4426 0188 F3       		.byte	0xf3
 4427 0189 01       		.uleb128 0x1
 4428 018a 50       		.byte	0x50
 4429 018b 9F       		.byte	0x9f
 4430 018c 00000000 		.4byte	0
 4431 0190 00000000 		.4byte	0
 4432              	.LLST10:
 4433 0194 00000000 		.4byte	.LVL20
 4434 0198 0B000000 		.4byte	.LVL22-1
 4435 019c 0100     		.2byte	0x1
 4436 019e 51       		.byte	0x51
 4437 019f 0B000000 		.4byte	.LVL22-1
 4438 01a3 1C000000 		.4byte	.LVL24
 4439 01a7 0100     		.2byte	0x1
 4440 01a9 55       		.byte	0x55
 4441 01aa 1C000000 		.4byte	.LVL24
 4442 01ae 28000000 		.4byte	.LFE122
 4443 01b2 0400     		.2byte	0x4
 4444 01b4 F3       		.byte	0xf3
 4445 01b5 01       		.uleb128 0x1
 4446 01b6 51       		.byte	0x51
 4447 01b7 9F       		.byte	0x9f
 4448 01b8 00000000 		.4byte	0
 4449 01bc 00000000 		.4byte	0
 4450              		.section	.debug_aranges,"",%progbits
 4451 0000 44000000 		.4byte	0x44
 4452 0004 0200     		.2byte	0x2
 4453 0006 00000000 		.4byte	.Ldebug_info0
 4454 000a 04       		.byte	0x4
 4455 000b 00       		.byte	0
 4456 000c 0000     		.2byte	0
 4457 000e 0000     		.2byte	0
 4458 0010 00000000 		.4byte	.LFB119
 4459 0014 64000000 		.4byte	.LFE119-.LFB119
 4460 0018 00000000 		.4byte	.LFB118
 4461 001c 6C000000 		.4byte	.LFE118-.LFB118
 4462 0020 00000000 		.4byte	.LFB120
 4463 0024 1C000000 		.4byte	.LFE120-.LFB120
 4464 0028 00000000 		.4byte	.LFB121
 4465 002c 06000000 		.4byte	.LFE121-.LFB121
 4466 0030 00000000 		.4byte	.LFB122
 4467 0034 28000000 		.4byte	.LFE122-.LFB122
 4468 0038 00000000 		.4byte	.LFB123
 4469 003c 5C000000 		.4byte	.LFE123-.LFB123
 4470 0040 00000000 		.4byte	0
 4471 0044 00000000 		.4byte	0
 4472              		.section	.debug_ranges,"",%progbits
 4473              	.Ldebug_ranges0:
 4474 0000 00000000 		.4byte	.LFB119
 4475 0004 64000000 		.4byte	.LFE119
 4476 0008 00000000 		.4byte	.LFB118
ARM GAS  C:\Users\jsyoon\AppData\Local\Temp\ccWY3jAf.s 			page 80


 4477 000c 6C000000 		.4byte	.LFE118
 4478 0010 00000000 		.4byte	.LFB120
 4479 0014 1C000000 		.4byte	.LFE120
 4480 0018 00000000 		.4byte	.LFB121
 4481 001c 06000000 		.4byte	.LFE121
 4482 0020 00000000 		.4byte	.LFB122
 4483 0024 28000000 		.4byte	.LFE122
 4484 0028 00000000 		.4byte	.LFB123
 4485 002c 5C000000 		.4byte	.LFE123
 4486 0030 00000000 		.4byte	0
 4487 0034 00000000 		.4byte	0
 4488              		.section	.debug_line,"",%progbits
 4489              	.Ldebug_line0:
 4490 0000 54030000 		.section	.debug_str,"MS",%progbits,1
 4490      0200B402 
 4490      00000201 
 4490      FB0E0D00 
 4490      01010101 
 4491              	.LASF52:
 4492 0000 54687265 		.ascii	"ThreadsList\000"
 4492      6164734C 
 4492      69737400 
 4493              	.LASF258:
 4494 000c 5344555F 		.ascii	"SDU_READY\000"
 4494      52454144 
 4494      5900
 4495              	.LASF158:
 4496 0016 44494550 		.ascii	"DIEPTSIZ\000"
 4496      5453495A 
 4496      00
 4497              	.LASF5:
 4498 001f 73686F72 		.ascii	"short int\000"
 4498      7420696E 
 4498      7400
 4499              	.LASF43:
 4500 0029 705F7469 		.ascii	"p_time\000"
 4500      6D6500
 4501              	.LASF260:
 4502 0030 53657269 		.ascii	"SerialUSBDriver\000"
 4502      616C5553 
 4502      42447269 
 4502      76657200 
 4503              	.LASF53:
 4504 0040 72656761 		.ascii	"regarm_t\000"
 4504      726D5F74 
 4504      00
 4505              	.LASF229:
 4506 0049 74787369 		.ascii	"txsize\000"
 4506      7A6500
 4507              	.LASF34:
 4508 0050 705F7072 		.ascii	"p_prio\000"
 4508      696F00
 4509              	.LASF196:
 4510 0057 44434647 		.ascii	"DCFG\000"
 4510      00
 4511              	.LASF116:
 4512 005c 5553425F 		.ascii	"USB_UNINIT\000"
ARM GAS  C:\Users\jsyoon\AppData\Local\Temp\ccWY3jAf.s 			page 81


 4512      554E494E 
 4512      495400
 4513              	.LASF266:
 4514 0067 62756C6B 		.ascii	"bulk_out\000"
 4514      5F6F7574 
 4514      00
 4515              	.LASF155:
 4516 0070 72657376 		.ascii	"resvd4\000"
 4516      643400
 4517              	.LASF294:
 4518 0077 53445531 		.ascii	"SDU1\000"
 4518      00
 4519              	.LASF118:
 4520 007c 5553425F 		.ascii	"USB_READY\000"
 4520      52454144 
 4520      5900
 4521              	.LASF288:
 4522 0086 73657269 		.ascii	"serial_read_thread_wa\000"
 4522      616C5F72 
 4522      6561645F 
 4522      74687265 
 4522      61645F77 
 4523              	.LASF133:
 4524 009c 5553425F 		.ascii	"USB_EVENT_SUSPEND\000"
 4524      4556454E 
 4524      545F5355 
 4524      5350454E 
 4524      4400
 4525              	.LASF30:
 4526 00ae 73797374 		.ascii	"systime_t\000"
 4526      696D655F 
 4526      7400
 4527              	.LASF279:
 4528 00b8 62756666 		.ascii	"buffer\000"
 4528      657200
 4529              	.LASF149:
 4530 00bf 48435453 		.ascii	"HCTSIZ\000"
 4530      495A00
 4531              	.LASF157:
 4532 00c6 72657376 		.ascii	"resvdC\000"
 4532      644300
 4533              	.LASF295:
 4534 00cd 7061636B 		.ascii	"packet_process_byte\000"
 4534      65745F70 
 4534      726F6365 
 4534      73735F62 
 4534      79746500 
 4535              	.LASF253:
 4536 00e1 72657175 		.ascii	"requests_hook_cb\000"
 4536      65737473 
 4536      5F686F6F 
 4536      6B5F6362 
 4536      00
 4537              	.LASF45:
 4538 00f2 705F6D73 		.ascii	"p_msgqueue\000"
 4538      67717565 
 4538      756500
ARM GAS  C:\Users\jsyoon\AppData\Local\Temp\ccWY3jAf.s 			page 82


 4539              	.LASF123:
 4540 00fd 5553425F 		.ascii	"USB_EP0_TX\000"
 4540      4550305F 
 4540      545800
 4541              	.LASF0:
 4542 0108 756E7369 		.ascii	"unsigned int\000"
 4542      676E6564 
 4542      20696E74 
 4542      00
 4543              	.LASF179:
 4544 0115 72657376 		.ascii	"resvd34\000"
 4544      64333400 
 4545              	.LASF44:
 4546 011d 705F7761 		.ascii	"p_waiting\000"
 4546      6974696E 
 4546      6700
 4547              	.LASF88:
 4548 0127 715F7264 		.ascii	"q_rdptr\000"
 4548      70747200 
 4549              	.LASF150:
 4550 012f 72657376 		.ascii	"resvd14\000"
 4550      64313400 
 4551              	.LASF171:
 4552 0137 47494E54 		.ascii	"GINTSTS\000"
 4552      53545300 
 4553              	.LASF151:
 4554 013f 72657376 		.ascii	"resvd18\000"
 4554      64313800 
 4555              	.LASF91:
 4556 0147 716E6F74 		.ascii	"qnotify_t\000"
 4556      6966795F 
 4556      7400
 4557              	.LASF72:
 4558 0151 656C5F6D 		.ascii	"el_mask\000"
 4558      61736B00 
 4559              	.LASF180:
 4560 0159 47434346 		.ascii	"GCCFG\000"
 4560      4700
 4561              	.LASF275:
 4562 015f 72656164 		.ascii	"readt\000"
 4562      7400
 4563              	.LASF160:
 4564 0165 72657376 		.ascii	"resvd1C\000"
 4564      64314300 
 4565              	.LASF221:
 4566 016d 6F74675F 		.ascii	"otg_ram_size\000"
 4566      72616D5F 
 4566      73697A65 
 4566      00
 4567              	.LASF240:
 4568 017a 65705F6D 		.ascii	"ep_mode\000"
 4568      6F646500 
 4569              	.LASF78:
 4570 0182 77746F62 		.ascii	"wtobjp\000"
 4570      6A7000
 4571              	.LASF104:
 4572 0189 65703065 		.ascii	"ep0endcb\000"
ARM GAS  C:\Users\jsyoon\AppData\Local\Temp\ccWY3jAf.s 			page 83


 4572      6E646362 
 4572      00
 4573              	.LASF137:
 4574 0192 75645F73 		.ascii	"ud_size\000"
 4574      697A6500 
 4575              	.LASF142:
 4576 019a 75736265 		.ascii	"usbeventcb_t\000"
 4576      76656E74 
 4576      63625F74 
 4576      00
 4577              	.LASF310:
 4578 01a7 6D795553 		.ascii	"myUSBinit\000"
 4578      42696E69 
 4578      7400
 4579              	.LASF188:
 4580 01b1 72657376 		.ascii	"resvd40C\000"
 4580      64343043 
 4580      00
 4581              	.LASF79:
 4582 01ba 65776D61 		.ascii	"ewmask\000"
 4582      736B00
 4583              	.LASF231:
 4584 01c1 6D6F6465 		.ascii	"mode\000"
 4584      00
 4585              	.LASF152:
 4586 01c6 72657376 		.ascii	"resvd1c\000"
 4586      64316300 
 4587              	.LASF113:
 4588 01ce 7468645F 		.ascii	"thd_wait\000"
 4588      77616974 
 4588      00
 4589              	.LASF206:
 4590 01d7 44564255 		.ascii	"DVBUSDIS\000"
 4590      53444953 
 4590      00
 4591              	.LASF169:
 4592 01e0 47555342 		.ascii	"GUSBCFG\000"
 4592      43464700 
 4593              	.LASF130:
 4594 01e8 5553425F 		.ascii	"USB_EVENT_RESET\000"
 4594      4556454E 
 4594      545F5245 
 4594      53455400 
 4595              	.LASF287:
 4596 01f8 73657269 		.ascii	"serial_rx_write_pos\000"
 4596      616C5F72 
 4596      785F7772 
 4596      6974655F 
 4596      706F7300 
 4597              	.LASF237:
 4598 020c 72787369 		.ascii	"rxsize\000"
 4598      7A6500
 4599              	.LASF274:
 4600 0213 77726974 		.ascii	"writet\000"
 4600      657400
 4601              	.LASF122:
 4602 021a 5553425F 		.ascii	"USB_EP0_WAITING_SETUP\000"
ARM GAS  C:\Users\jsyoon\AppData\Local\Temp\ccWY3jAf.s 			page 84


 4602      4550305F 
 4602      57414954 
 4602      494E475F 
 4602      53455455 
 4603              	.LASF222:
 4604 0230 6E756D5F 		.ascii	"num_endpoints\000"
 4604      656E6470 
 4604      6F696E74 
 4604      7300
 4605              	.LASF298:
 4606 023e 636F6D6D 		.ascii	"commands_process_packet\000"
 4606      616E6473 
 4606      5F70726F 
 4606      63657373 
 4606      5F706163 
 4607              	.LASF278:
 4608 0256 73657269 		.ascii	"serial_read_thread\000"
 4608      616C5F72 
 4608      6561645F 
 4608      74687265 
 4608      616400
 4609              	.LASF1:
 4610 0269 7369676E 		.ascii	"signed char\000"
 4610      65642063 
 4610      68617200 
 4611              	.LASF184:
 4612 0275 72657376 		.ascii	"resvd140\000"
 4612      64313430 
 4612      00
 4613              	.LASF262:
 4614 027e 69717565 		.ascii	"iqueue\000"
 4614      756500
 4615              	.LASF18:
 4616 0285 75696E74 		.ascii	"uint32_t\000"
 4616      33325F74 
 4616      00
 4617              	.LASF192:
 4618 028e 72657376 		.ascii	"resvd41C\000"
 4618      64343143 
 4618      00
 4619              	.LASF28:
 4620 0297 6576656E 		.ascii	"eventmask_t\000"
 4620      746D6173 
 4620      6B5F7400 
 4621              	.LASF59:
 4622 02a3 725F7072 		.ascii	"r_prio\000"
 4622      696F00
 4623              	.LASF209:
 4624 02aa 44494550 		.ascii	"DIEPEMPMSK\000"
 4624      454D504D 
 4624      534B00
 4625              	.LASF112:
 4626 02b5 7468645F 		.ascii	"thd_ptr\000"
 4626      70747200 
 4627              	.LASF276:
 4628 02bd 666C6F61 		.ascii	"float\000"
 4628      7400
ARM GAS  C:\Users\jsyoon\AppData\Local\Temp\ccWY3jAf.s 			page 85


 4629              	.LASF261:
 4630 02c3 6576656E 		.ascii	"event\000"
 4630      7400
 4631              	.LASF178:
 4632 02c9 72657376 		.ascii	"resvd30\000"
 4632      64333000 
 4633              	.LASF26:
 4634 02d1 74707269 		.ascii	"tprio_t\000"
 4634      6F5F7400 
 4635              	.LASF213:
 4636 02d9 72657376 		.ascii	"resvd880\000"
 4636      64383830 
 4636      00
 4637              	.LASF105:
 4638 02e2 73657475 		.ascii	"setup\000"
 4638      7000
 4639              	.LASF81:
 4640 02e8 7466756E 		.ascii	"tfunc_t\000"
 4640      635F7400 
 4641              	.LASF268:
 4642 02f0 53657269 		.ascii	"SerialUSBConfig\000"
 4642      616C5553 
 4642      42436F6E 
 4642      66696700 
 4643              	.LASF14:
 4644 0300 6C6F6E67 		.ascii	"long long unsigned int\000"
 4644      206C6F6E 
 4644      6720756E 
 4644      7369676E 
 4644      65642069 
 4645              	.LASF230:
 4646 0317 7478636E 		.ascii	"txcnt\000"
 4646      7400
 4647              	.LASF308:
 4648 031d 63684576 		.ascii	"chEvtWaitAny\000"
 4648      74576169 
 4648      74416E79 
 4648      00
 4649              	.LASF175:
 4650 032a 47525846 		.ascii	"GRXFSIZ\000"
 4650      53495A00 
 4651              	.LASF97:
 4652 0332 7472616E 		.ascii	"transmitting\000"
 4652      736D6974 
 4652      74696E67 
 4652      00
 4653              	.LASF250:
 4654 033f 55534245 		.ascii	"USBEndpointConfig\000"
 4654      6E64706F 
 4654      696E7443 
 4654      6F6E6669 
 4654      6700
 4655              	.LASF98:
 4656 0351 72656365 		.ascii	"receiving\000"
 4656      6976696E 
 4656      6700
 4657              	.LASF284:
ARM GAS  C:\Users\jsyoon\AppData\Local\Temp\ccWY3jAf.s 			page 86


 4658 035b 73656E64 		.ascii	"send_packet\000"
 4658      5F706163 
 4658      6B657400 
 4659              	.LASF6:
 4660 0367 5F5F7569 		.ascii	"__uint16_t\000"
 4660      6E743136 
 4660      5F7400
 4661              	.LASF226:
 4662 0372 6C696E65 		.ascii	"linear\000"
 4662      617200
 4663              	.LASF36:
 4664 0379 705F6E65 		.ascii	"p_newer\000"
 4664      77657200 
 4665              	.LASF164:
 4666 0381 444F4550 		.ascii	"DOEPTSIZ\000"
 4666      5453495A 
 4666      00
 4667              	.LASF83:
 4668 038a 715F7761 		.ascii	"q_waiting\000"
 4668      6974696E 
 4668      6700
 4669              	.LASF243:
 4670 0394 6F75745F 		.ascii	"out_cb\000"
 4670      636200
 4671              	.LASF193:
 4672 039b 48505254 		.ascii	"HPRT\000"
 4672      00
 4673              	.LASF302:
 4674 03a0 63684D74 		.ascii	"chMtxInit\000"
 4674      78496E69 
 4674      7400
 4675              	.LASF195:
 4676 03aa 72657376 		.ascii	"resvd700\000"
 4676      64373030 
 4676      00
 4677              	.LASF161:
 4678 03b3 73746D33 		.ascii	"stm32_otg_in_ep_t\000"
 4678      325F6F74 
 4678      675F696E 
 4678      5F65705F 
 4678      7400
 4679              	.LASF194:
 4680 03c5 72657376 		.ascii	"resvd444\000"
 4680      64343434 
 4680      00
 4681              	.LASF198:
 4682 03ce 44535453 		.ascii	"DSTS\000"
 4682      00
 4683              	.LASF285:
 4684 03d3 73657269 		.ascii	"serial_rx_buffer\000"
 4684      616C5F72 
 4684      785F6275 
 4684      66666572 
 4684      00
 4685              	.LASF272:
 4686 03e4 70757474 		.ascii	"putt\000"
 4686      00
ARM GAS  C:\Users\jsyoon\AppData\Local\Temp\ccWY3jAf.s 			page 87


 4687              	.LASF74:
 4688 03e9 4576656E 		.ascii	"EventSource\000"
 4688      74536F75 
 4688      72636500 
 4689              	.LASF2:
 4690 03f5 73697A65 		.ascii	"size_t\000"
 4690      5F7400
 4691              	.LASF76:
 4692 03fc 7264796D 		.ascii	"rdymsg\000"
 4692      736700
 4693              	.LASF301:
 4694 0403 7061636B 		.ascii	"packet_init\000"
 4694      65745F69 
 4694      6E697400 
 4695              	.LASF120:
 4696 040f 5553425F 		.ascii	"USB_ACTIVE\000"
 4696      41435449 
 4696      564500
 4697              	.LASF21:
 4698 041a 5F426F6F 		.ascii	"_Bool\000"
 4698      6C00
 4699              	.LASF220:
 4700 0420 72785F66 		.ascii	"rx_fifo_size\000"
 4700      69666F5F 
 4700      73697A65 
 4700      00
 4701              	.LASF185:
 4702 042d 48434647 		.ascii	"HCFG\000"
 4702      00
 4703              	.LASF269:
 4704 0432 53657269 		.ascii	"SerialUSBDriverVMT\000"
 4704      616C5553 
 4704      42447269 
 4704      76657256 
 4704      4D5400
 4705              	.LASF145:
 4706 0445 48434348 		.ascii	"HCCHAR\000"
 4706      415200
 4707              	.LASF13:
 4708 044c 5F5F7569 		.ascii	"__uint64_t\000"
 4708      6E743634 
 4708      5F7400
 4709              	.LASF181:
 4710 0457 72657376 		.ascii	"resvd58\000"
 4710      64353800 
 4711              	.LASF125:
 4712 045f 5553425F 		.ascii	"USB_EP0_WAITING_STS\000"
 4712      4550305F 
 4712      57414954 
 4712      494E475F 
 4712      53545300 
 4713              	.LASF257:
 4714 0473 5344555F 		.ascii	"SDU_STOP\000"
 4714      53544F50 
 4714      00
 4715              	.LASF65:
 4716 047c 4D757465 		.ascii	"Mutex\000"
ARM GAS  C:\Users\jsyoon\AppData\Local\Temp\ccWY3jAf.s 			page 88


 4716      7800
 4717              	.LASF93:
 4718 0482 4F757470 		.ascii	"OutputQueue\000"
 4718      75745175 
 4718      65756500 
 4719              	.LASF92:
 4720 048e 496E7075 		.ascii	"InputQueue\000"
 4720      74517565 
 4720      756500
 4721              	.LASF38:
 4722 0499 705F6E61 		.ascii	"p_name\000"
 4722      6D6500
 4723              	.LASF210:
 4724 04a0 72657376 		.ascii	"resvd838\000"
 4724      64383338 
 4724      00
 4725              	.LASF201:
 4726 04a9 444F4550 		.ascii	"DOEPMSK\000"
 4726      4D534B00 
 4727              	.LASF131:
 4728 04b1 5553425F 		.ascii	"USB_EVENT_ADDRESS\000"
 4728      4556454E 
 4728      545F4144 
 4728      44524553 
 4728      5300
 4729              	.LASF191:
 4730 04c3 4841494E 		.ascii	"HAINTMSK\000"
 4730      544D534B 
 4730      00
 4731              	.LASF80:
 4732 04cc 63686172 		.ascii	"char\000"
 4732      00
 4733              	.LASF40:
 4734 04d1 705F666C 		.ascii	"p_flags\000"
 4734      61677300 
 4735              	.LASF8:
 4736 04d9 5F5F696E 		.ascii	"__int32_t\000"
 4736      7433325F 
 4736      7400
 4737              	.LASF61:
 4738 04e3 725F6E65 		.ascii	"r_newer\000"
 4738      77657200 
 4739              	.LASF246:
 4740 04eb 696E5F73 		.ascii	"in_state\000"
 4740      74617465 
 4740      00
 4741              	.LASF87:
 4742 04f4 715F7772 		.ascii	"q_wrptr\000"
 4742      70747200 
 4743              	.LASF170:
 4744 04fc 47525354 		.ascii	"GRSTCTL\000"
 4744      43544C00 
 4745              	.LASF31:
 4746 0504 54687265 		.ascii	"Thread\000"
 4746      616400
 4747              	.LASF23:
 4748 050b 74737461 		.ascii	"tstate_t\000"
ARM GAS  C:\Users\jsyoon\AppData\Local\Temp\ccWY3jAf.s 			page 89


 4748      74655F74 
 4748      00
 4749              	.LASF102:
 4750 0514 6570306E 		.ascii	"ep0next\000"
 4750      65787400 
 4751              	.LASF281:
 4752 051c 64617461 		.ascii	"data\000"
 4752      00
 4753              	.LASF37:
 4754 0521 705F6F6C 		.ascii	"p_older\000"
 4754      64657200 
 4755              	.LASF39:
 4756 0529 705F7374 		.ascii	"p_state\000"
 4756      61746500 
 4757              	.LASF282:
 4758 0531 70726F63 		.ascii	"process_packet\000"
 4758      6573735F 
 4758      7061636B 
 4758      657400
 4759              	.LASF15:
 4760 0540 75696E74 		.ascii	"uint8_t\000"
 4760      385F7400 
 4761              	.LASF106:
 4762 0548 73746174 		.ascii	"status\000"
 4762      757300
 4763              	.LASF215:
 4764 054f 72657376 		.ascii	"resvdD00\000"
 4764      64443030 
 4764      00
 4765              	.LASF242:
 4766 0558 696E5F63 		.ascii	"in_cb\000"
 4766      6200
 4767              	.LASF50:
 4768 055e 705F6D70 		.ascii	"p_mpool\000"
 4768      6F6F6C00 
 4769              	.LASF48:
 4770 0566 705F6D74 		.ascii	"p_mtxlist\000"
 4770      786C6973 
 4770      7400
 4771              	.LASF297:
 4772 0570 636F6D6D 		.ascii	"commands_set_send_func\000"
 4772      616E6473 
 4772      5F736574 
 4772      5F73656E 
 4772      645F6675 
 4773              	.LASF307:
 4774 0587 636F6D6D 		.ascii	"comm_usb_init\000"
 4774      5F757362 
 4774      5F696E69 
 4774      7400
 4775              	.LASF29:
 4776 0595 666C6167 		.ascii	"flagsmask_t\000"
 4776      736D6173 
 4776      6B5F7400 
 4777              	.LASF299:
 4778 05a1 7061636B 		.ascii	"packet_send_packet\000"
 4778      65745F73 
ARM GAS  C:\Users\jsyoon\AppData\Local\Temp\ccWY3jAf.s 			page 90


 4778      656E645F 
 4778      7061636B 
 4778      657400
 4779              	.LASF121:
 4780 05b4 75736273 		.ascii	"usbstate_t\000"
 4780      74617465 
 4780      5F7400
 4781              	.LASF304:
 4782 05bf 474E5520 		.ascii	"GNU C 4.8.4 20140526 (release) [ARM/embedded-4_8-br"
 4782      4320342E 
 4782      382E3420 
 4782      32303134 
 4782      30353236 
 4783 05f2 616E6368 		.ascii	"anch revision 211358] -mcpu=cortex-m4 -mfloat-abi=h"
 4783      20726576 
 4783      6973696F 
 4783      6E203231 
 4783      31333538 
 4784 0625 61726420 		.ascii	"ard -mfpu=fpv4-sp-d16 -mno-thumb-interwork -mthumb "
 4784      2D6D6670 
 4784      753D6670 
 4784      76342D73 
 4784      702D6431 
 4785 0658 2D676764 		.ascii	"-ggdb -O2 -std=gnu99 -fomit-frame-pointer -falign-f"
 4785      62202D4F 
 4785      32202D73 
 4785      74643D67 
 4785      6E753939 
 4786 068b 756E6374 		.ascii	"unctions=16 -ffunction-sections -fdata-sections -fn"
 4786      696F6E73 
 4786      3D313620 
 4786      2D666675 
 4786      6E637469 
 4787 06be 6F2D636F 		.ascii	"o-common -fsingle-precision-constant\000"
 4787      6D6D6F6E 
 4787      202D6673 
 4787      696E676C 
 4787      652D7072 
 4788              	.LASF256:
 4789 06e3 5344555F 		.ascii	"SDU_UNINIT\000"
 4789      554E494E 
 4789      495400
 4790              	.LASF12:
 4791 06ee 6C6F6E67 		.ascii	"long long int\000"
 4791      206C6F6E 
 4791      6720696E 
 4791      7400
 4792              	.LASF163:
 4793 06fc 444F4550 		.ascii	"DOEPINT\000"
 4793      494E5400 
 4794              	.LASF270:
 4795 0704 77726974 		.ascii	"write\000"
 4795      6500
 4796              	.LASF162:
 4797 070a 444F4550 		.ascii	"DOEPCTL\000"
 4797      43544C00 
 4798              	.LASF223:
ARM GAS  C:\Users\jsyoon\AppData\Local\Temp\ccWY3jAf.s 			page 91


 4799 0712 73746D33 		.ascii	"stm32_otg_params_t\000"
 4799      325F6F74 
 4799      675F7061 
 4799      72616D73 
 4799      5F7400
 4800              	.LASF309:
 4801 0725 63684D74 		.ascii	"chMtxUnlock\000"
 4801      78556E6C 
 4801      6F636B00 
 4802              	.LASF27:
 4803 0731 6D73675F 		.ascii	"msg_t\000"
 4803      7400
 4804              	.LASF56:
 4805 0737 636F6E74 		.ascii	"context\000"
 4805      65787400 
 4806              	.LASF103:
 4807 073f 6570306E 		.ascii	"ep0n\000"
 4807      00
 4808              	.LASF190:
 4809 0744 4841494E 		.ascii	"HAINT\000"
 4809      5400
 4810              	.LASF247:
 4811 074a 6F75745F 		.ascii	"out_state\000"
 4811      73746174 
 4811      6500
 4812              	.LASF306:
 4813 0754 453A5C4D 		.ascii	"E:\\Maker\\BLDC\\test_eval\\try2\\OROCA-BLDC_R15080"
 4813      616B6572 
 4813      5C424C44 
 4813      435C7465 
 4813      73745F65 
 4814 0782 3700     		.ascii	"7\000"
 4815              	.LASF20:
 4816 0784 626F6F6C 		.ascii	"bool_t\000"
 4816      5F7400
 4817              	.LASF259:
 4818 078b 73647573 		.ascii	"sdustate_t\000"
 4818      74617465 
 4818      5F7400
 4819              	.LASF148:
 4820 0796 4843494E 		.ascii	"HCINTMSK\000"
 4820      544D534B 
 4820      00
 4821              	.LASF228:
 4822 079f 74787175 		.ascii	"txqueued\000"
 4822      65756564 
 4822      00
 4823              	.LASF99:
 4824 07a8 696E5F70 		.ascii	"in_params\000"
 4824      6172616D 
 4824      7300
 4825              	.LASF159:
 4826 07b2 44545846 		.ascii	"DTXFSTS\000"
 4826      53545300 
 4827              	.LASF254:
 4828 07ba 736F665F 		.ascii	"sof_cb\000"
 4828      636200
ARM GAS  C:\Users\jsyoon\AppData\Local\Temp\ccWY3jAf.s 			page 92


 4829              	.LASF264:
 4830 07c1 75736270 		.ascii	"usbp\000"
 4830      00
 4831              	.LASF153:
 4832 07c6 73746D33 		.ascii	"stm32_otg_host_chn_t\000"
 4832      325F6F74 
 4832      675F686F 
 4832      73745F63 
 4832      686E5F74 
 4833              	.LASF177:
 4834 07db 484E5054 		.ascii	"HNPTXSTS\000"
 4834      58535453 
 4834      00
 4835              	.LASF189:
 4836 07e4 48505458 		.ascii	"HPTXSTS\000"
 4836      53545300 
 4837              	.LASF135:
 4838 07ec 5553425F 		.ascii	"USB_EVENT_STALLED\000"
 4838      4556454E 
 4838      545F5354 
 4838      414C4C45 
 4838      4400
 4839              	.LASF25:
 4840 07fe 74736C69 		.ascii	"tslices_t\000"
 4840      6365735F 
 4840      7400
 4841              	.LASF62:
 4842 0808 725F6F6C 		.ascii	"r_older\000"
 4842      64657200 
 4843              	.LASF218:
 4844 0810 4649464F 		.ascii	"FIFO\000"
 4844      00
 4845              	.LASF108:
 4846 0815 636F6E66 		.ascii	"configuration\000"
 4846      69677572 
 4846      6174696F 
 4846      6E00
 4847              	.LASF249:
 4848 0823 73657475 		.ascii	"setup_buf\000"
 4848      705F6275 
 4848      6600
 4849              	.LASF207:
 4850 082d 44564255 		.ascii	"DVBUSPULSE\000"
 4850      5350554C 
 4850      534500
 4851              	.LASF303:
 4852 0838 63685468 		.ascii	"chThdCreateStatic\000"
 4852      64437265 
 4852      61746553 
 4852      74617469 
 4852      6300
 4853              	.LASF70:
 4854 084a 656C5F6E 		.ascii	"el_next\000"
 4854      65787400 
 4855              	.LASF46:
 4856 0852 705F6D73 		.ascii	"p_msg\000"
 4856      6700
ARM GAS  C:\Users\jsyoon\AppData\Local\Temp\ccWY3jAf.s 			page 93


 4857              	.LASF75:
 4858 0858 65735F6E 		.ascii	"es_next\000"
 4858      65787400 
 4859              	.LASF22:
 4860 0860 746D6F64 		.ascii	"tmode_t\000"
 4860      655F7400 
 4861              	.LASF235:
 4862 0868 72787175 		.ascii	"rxqueue\000"
 4862      65756500 
 4863              	.LASF82:
 4864 0870 47656E65 		.ascii	"GenericQueue\000"
 4864      72696351 
 4864      75657565 
 4864      00
 4865              	.LASF101:
 4866 087d 65703073 		.ascii	"ep0state\000"
 4866      74617465 
 4866      00
 4867              	.LASF255:
 4868 0886 55534243 		.ascii	"USBConfig\000"
 4868      6F6E6669 
 4868      6700
 4869              	.LASF263:
 4870 0890 6F717565 		.ascii	"oqueue\000"
 4870      756500
 4871              	.LASF124:
 4872 0897 5553425F 		.ascii	"USB_EP0_WAITING_TX0\000"
 4872      4550305F 
 4872      57414954 
 4872      494E475F 
 4872      54583000 
 4873              	.LASF16:
 4874 08ab 75696E74 		.ascii	"uint16_t\000"
 4874      31365F74 
 4874      00
 4875              	.LASF168:
 4876 08b4 47414842 		.ascii	"GAHBCFG\000"
 4876      43464700 
 4877              	.LASF305:
 4878 08bc 636F6D6D 		.ascii	"comm_usb.c\000"
 4878      5F757362 
 4878      2E6300
 4879              	.LASF139:
 4880 08c7 55534244 		.ascii	"USBDescriptor\000"
 4880      65736372 
 4880      6970746F 
 4880      7200
 4881              	.LASF55:
 4882 08d5 696E7463 		.ascii	"intctx\000"
 4882      747800
 4883              	.LASF172:
 4884 08dc 47494E54 		.ascii	"GINTMSK\000"
 4884      4D534B00 
 4885              	.LASF182:
 4886 08e4 48505458 		.ascii	"HPTXFSIZ\000"
 4886      4653495A 
 4886      00
ARM GAS  C:\Users\jsyoon\AppData\Local\Temp\ccWY3jAf.s 			page 94


 4887              	.LASF280:
 4888 08ed 6861645F 		.ascii	"had_data\000"
 4888      64617461 
 4888      00
 4889              	.LASF96:
 4890 08f6 636F6E66 		.ascii	"config\000"
 4890      696700
 4891              	.LASF277:
 4892 08fd 73657269 		.ascii	"serial_process_thread\000"
 4892      616C5F70 
 4892      726F6365 
 4892      73735F74 
 4892      68726561 
 4893              	.LASF49:
 4894 0913 705F7265 		.ascii	"p_realprio\000"
 4894      616C7072 
 4894      696F00
 4895              	.LASF90:
 4896 091e 715F6C69 		.ascii	"q_link\000"
 4896      6E6B00
 4897              	.LASF147:
 4898 0925 4843494E 		.ascii	"HCINT\000"
 4898      5400
 4899              	.LASF291:
 4900 092b 70726F63 		.ascii	"process_tp\000"
 4900      6573735F 
 4900      747000
 4901              	.LASF63:
 4902 0936 725F6375 		.ascii	"r_current\000"
 4902      7272656E 
 4902      7400
 4903              	.LASF100:
 4904 0940 6F75745F 		.ascii	"out_params\000"
 4904      70617261 
 4904      6D7300
 4905              	.LASF66:
 4906 094b 6D5F7175 		.ascii	"m_queue\000"
 4906      65756500 
 4907              	.LASF9:
 4908 0953 6C6F6E67 		.ascii	"long int\000"
 4908      20696E74 
 4908      00
 4909              	.LASF239:
 4910 095c 5553424F 		.ascii	"USBOutEndpointState\000"
 4910      7574456E 
 4910      64706F69 
 4910      6E745374 
 4910      61746500 
 4911              	.LASF293:
 4912 0970 49544D5F 		.ascii	"ITM_RxBuffer\000"
 4912      52784275 
 4912      66666572 
 4912      00
 4913              	.LASF154:
 4914 097d 44494550 		.ascii	"DIEPCTL\000"
 4914      43544C00 
 4915              	.LASF144:
ARM GAS  C:\Users\jsyoon\AppData\Local\Temp\ccWY3jAf.s 			page 95


 4916 0985 75736267 		.ascii	"usbgetdescriptor_t\000"
 4916      65746465 
 4916      73637269 
 4916      70746F72 
 4916      5F7400
 4917              	.LASF33:
 4918 0998 705F7072 		.ascii	"p_prev\000"
 4918      657600
 4919              	.LASF265:
 4920 099f 62756C6B 		.ascii	"bulk_in\000"
 4920      5F696E00 
 4921              	.LASF67:
 4922 09a7 6D5F6F77 		.ascii	"m_owner\000"
 4922      6E657200 
 4923              	.LASF32:
 4924 09af 705F6E65 		.ascii	"p_next\000"
 4924      787400
 4925              	.LASF224:
 4926 09b6 74786275 		.ascii	"txbuf\000"
 4926      6600
 4927              	.LASF199:
 4928 09bc 72657376 		.ascii	"resvd80C\000"
 4928      64383043 
 4928      00
 4929              	.LASF19:
 4930 09c5 75696E74 		.ascii	"uint64_t\000"
 4930      36345F74 
 4930      00
 4931              	.LASF35:
 4932 09ce 705F6374 		.ascii	"p_ctx\000"
 4932      7800
 4933              	.LASF292:
 4934 09d4 726C6973 		.ascii	"rlist\000"
 4934      7400
 4935              	.LASF119:
 4936 09da 5553425F 		.ascii	"USB_SELECTED\000"
 4936      53454C45 
 4936      43544544 
 4936      00
 4937              	.LASF3:
 4938 09e7 5F5F7569 		.ascii	"__uint8_t\000"
 4938      6E74385F 
 4938      7400
 4939              	.LASF225:
 4940 09f1 74787175 		.ascii	"txqueue\000"
 4940      65756500 
 4941              	.LASF89:
 4942 09f9 715F6E6F 		.ascii	"q_notify\000"
 4942      74696679 
 4942      00
 4943              	.LASF271:
 4944 0a02 72656164 		.ascii	"read\000"
 4944      00
 4945              	.LASF141:
 4946 0a07 75736265 		.ascii	"usbepcallback_t\000"
 4946      7063616C 
 4946      6C626163 
ARM GAS  C:\Users\jsyoon\AppData\Local\Temp\ccWY3jAf.s 			page 96


 4946      6B5F7400 
 4947              	.LASF176:
 4948 0a17 44494550 		.ascii	"DIEPTXF0\000"
 4948      54584630 
 4948      00
 4949              	.LASF167:
 4950 0a20 474F5447 		.ascii	"GOTGINT\000"
 4950      494E5400 
 4951              	.LASF283:
 4952 0a28 73656E64 		.ascii	"send_packet_wrapper\000"
 4952      5F706163 
 4952      6B65745F 
 4952      77726170 
 4952      70657200 
 4953              	.LASF166:
 4954 0a3c 474F5447 		.ascii	"GOTGCTL\000"
 4954      43544C00 
 4955              	.LASF203:
 4956 0a44 4441494E 		.ascii	"DAINTMSK\000"
 4956      544D534B 
 4956      00
 4957              	.LASF84:
 4958 0a4d 715F636F 		.ascii	"q_counter\000"
 4958      756E7465 
 4958      7200
 4959              	.LASF273:
 4960 0a57 67657474 		.ascii	"gett\000"
 4960      00
 4961              	.LASF86:
 4962 0a5c 715F746F 		.ascii	"q_top\000"
 4962      7000
 4963              	.LASF200:
 4964 0a62 44494550 		.ascii	"DIEPMSK\000"
 4964      4D534B00 
 4965              	.LASF57:
 4966 0a6a 73697A65 		.ascii	"sizetype\000"
 4966      74797065 
 4966      00
 4967              	.LASF24:
 4968 0a73 74726566 		.ascii	"trefs_t\000"
 4968      735F7400 
 4969              	.LASF69:
 4970 0a7b 4576656E 		.ascii	"EventListener\000"
 4970      744C6973 
 4970      74656E65 
 4970      7200
 4971              	.LASF11:
 4972 0a89 6C6F6E67 		.ascii	"long unsigned int\000"
 4972      20756E73 
 4972      69676E65 
 4972      6420696E 
 4972      7400
 4973              	.LASF107:
 4974 0a9b 61646472 		.ascii	"address\000"
 4974      65737300 
 4975              	.LASF174:
 4976 0aa3 47525853 		.ascii	"GRXSTSP\000"
ARM GAS  C:\Users\jsyoon\AppData\Local\Temp\ccWY3jAf.s 			page 97


 4976      54535000 
 4977              	.LASF173:
 4978 0aab 47525853 		.ascii	"GRXSTSR\000"
 4978      54535200 
 4979              	.LASF236:
 4980 0ab3 72787175 		.ascii	"rxqueued\000"
 4980      65756564 
 4980      00
 4981              	.LASF286:
 4982 0abc 73657269 		.ascii	"serial_rx_read_pos\000"
 4982      616C5F72 
 4982      785F7265 
 4982      61645F70 
 4982      6F7300
 4983              	.LASF227:
 4984 0acf 71756575 		.ascii	"queue\000"
 4984      6500
 4985              	.LASF17:
 4986 0ad5 696E7433 		.ascii	"int32_t\000"
 4986      325F7400 
 4987              	.LASF165:
 4988 0add 73746D33 		.ascii	"stm32_otg_out_ep_t\000"
 4988      325F6F74 
 4988      675F6F75 
 4988      745F6570 
 4988      5F7400
 4989              	.LASF219:
 4990 0af0 73746D33 		.ascii	"stm32_otg_t\000"
 4990      325F6F74 
 4990      675F7400 
 4991              	.LASF4:
 4992 0afc 756E7369 		.ascii	"unsigned char\000"
 4992      676E6564 
 4992      20636861 
 4992      7200
 4993              	.LASF204:
 4994 0b0a 72657376 		.ascii	"resvd820\000"
 4994      64383230 
 4994      00
 4995              	.LASF110:
 4996 0b13 706D6E65 		.ascii	"pmnext\000"
 4996      787400
 4997              	.LASF10:
 4998 0b1a 5F5F7569 		.ascii	"__uint32_t\000"
 4998      6E743332 
 4998      5F7400
 4999              	.LASF205:
 5000 0b25 72657376 		.ascii	"resvd824\000"
 5000      64383234 
 5000      00
 5001              	.LASF128:
 5002 0b2e 5553425F 		.ascii	"USB_EP0_ERROR\000"
 5002      4550305F 
 5002      4552524F 
 5002      5200
 5003              	.LASF187:
 5004 0b3c 48464E55 		.ascii	"HFNUM\000"
ARM GAS  C:\Users\jsyoon\AppData\Local\Temp\ccWY3jAf.s 			page 98


 5004      4D00
 5005              	.LASF41:
 5006 0b42 705F7265 		.ascii	"p_refs\000"
 5006      667300
 5007              	.LASF64:
 5008 0b49 52656164 		.ascii	"ReadyList\000"
 5008      794C6973 
 5008      7400
 5009              	.LASF115:
 5010 0b53 75736265 		.ascii	"usbep_t\000"
 5010      705F7400 
 5011              	.LASF300:
 5012 0b5b 63684D74 		.ascii	"chMtxLock\000"
 5012      784C6F63 
 5012      6B00
 5013              	.LASF232:
 5014 0b65 746F7473 		.ascii	"totsize\000"
 5014      697A6500 
 5015              	.LASF111:
 5016 0b6d 74787065 		.ascii	"txpending\000"
 5016      6E64696E 
 5016      6700
 5017              	.LASF146:
 5018 0b77 72657376 		.ascii	"resvd8\000"
 5018      643800
 5019              	.LASF241:
 5020 0b7e 73657475 		.ascii	"setup_cb\000"
 5020      705F6362 
 5020      00
 5021              	.LASF252:
 5022 0b87 6765745F 		.ascii	"get_descriptor_cb\000"
 5022      64657363 
 5022      72697074 
 5022      6F725F63 
 5022      6200
 5023              	.LASF42:
 5024 0b99 705F7072 		.ascii	"p_preempt\000"
 5024      65656D70 
 5024      7400
 5025              	.LASF217:
 5026 0ba3 72657376 		.ascii	"resvdE04\000"
 5026      64453034 
 5026      00
 5027              	.LASF138:
 5028 0bac 75645F73 		.ascii	"ud_string\000"
 5028      7472696E 
 5028      6700
 5029              	.LASF296:
 5030 0bb6 63684576 		.ascii	"chEvtSignal\000"
 5030      74536967 
 5030      6E616C00 
 5031              	.LASF134:
 5032 0bc2 5553425F 		.ascii	"USB_EVENT_WAKEUP\000"
 5032      4556454E 
 5032      545F5741 
 5032      4B455550 
 5032      00
ARM GAS  C:\Users\jsyoon\AppData\Local\Temp\ccWY3jAf.s 			page 99


 5033              	.LASF95:
 5034 0bd3 73746174 		.ascii	"state\000"
 5034      6500
 5035              	.LASF156:
 5036 0bd9 44494550 		.ascii	"DIEPINT\000"
 5036      494E5400 
 5037              	.LASF47:
 5038 0be1 705F6570 		.ascii	"p_epending\000"
 5038      656E6469 
 5038      6E6700
 5039              	.LASF186:
 5040 0bec 48464952 		.ascii	"HFIR\000"
 5040      00
 5041              	.LASF183:
 5042 0bf1 44494550 		.ascii	"DIEPTXF\000"
 5042      54584600 
 5043              	.LASF197:
 5044 0bf9 4443544C 		.ascii	"DCTL\000"
 5044      00
 5045              	.LASF251:
 5046 0bfe 6576656E 		.ascii	"event_cb\000"
 5046      745F6362 
 5046      00
 5047              	.LASF245:
 5048 0c07 6F75745F 		.ascii	"out_maxsize\000"
 5048      6D617873 
 5048      697A6500 
 5049              	.LASF208:
 5050 0c13 72657376 		.ascii	"resvd830\000"
 5050      64383330 
 5050      00
 5051              	.LASF216:
 5052 0c1c 50434743 		.ascii	"PCGCCTL\000"
 5052      43544C00 
 5053              	.LASF68:
 5054 0c24 6D5F6E65 		.ascii	"m_next\000"
 5054      787400
 5055              	.LASF140:
 5056 0c2b 75736263 		.ascii	"usbcallback_t\000"
 5056      616C6C62 
 5056      61636B5F 
 5056      7400
 5057              	.LASF290:
 5058 0c39 73656E64 		.ascii	"send_mutex\000"
 5058      5F6D7574 
 5058      657800
 5059              	.LASF233:
 5060 0c44 55534249 		.ascii	"USBInEndpointState\000"
 5060      6E456E64 
 5060      706F696E 
 5060      74537461 
 5060      746500
 5061              	.LASF94:
 5062 0c57 55534244 		.ascii	"USBDriver\000"
 5062      72697665 
 5062      7200
 5063              	.LASF211:
ARM GAS  C:\Users\jsyoon\AppData\Local\Temp\ccWY3jAf.s 			page 100


 5064 0c61 72657376 		.ascii	"resvd83C\000"
 5064      64383343 
 5064      00
 5065              	.LASF7:
 5066 0c6a 73686F72 		.ascii	"short unsigned int\000"
 5066      7420756E 
 5066      7369676E 
 5066      65642069 
 5066      6E7400
 5067              	.LASF60:
 5068 0c7d 725F6374 		.ascii	"r_ctx\000"
 5068      7800
 5069              	.LASF54:
 5070 0c83 73746B61 		.ascii	"stkalign_t\000"
 5070      6C69676E 
 5070      5F7400
 5071              	.LASF109:
 5072 0c8e 6F746770 		.ascii	"otgparams\000"
 5072      6172616D 
 5072      7300
 5073              	.LASF248:
 5074 0c98 696E5F6D 		.ascii	"in_multiplier\000"
 5074      756C7469 
 5074      706C6965 
 5074      7200
 5075              	.LASF289:
 5076 0ca6 73657269 		.ascii	"serial_process_thread_wa\000"
 5076      616C5F70 
 5076      726F6365 
 5076      73735F74 
 5076      68726561 
 5077              	.LASF202:
 5078 0cbf 4441494E 		.ascii	"DAINT\000"
 5078      5400
 5079              	.LASF127:
 5080 0cc5 5553425F 		.ascii	"USB_EP0_SENDING_STS\000"
 5080      4550305F 
 5080      53454E44 
 5080      494E475F 
 5080      53545300 
 5081              	.LASF238:
 5082 0cd9 7278636E 		.ascii	"rxcnt\000"
 5082      7400
 5083              	.LASF71:
 5084 0cdf 656C5F6C 		.ascii	"el_listener\000"
 5084      69737465 
 5084      6E657200 
 5085              	.LASF214:
 5086 0ceb 72657376 		.ascii	"resvd8C0\000"
 5086      64384330 
 5086      00
 5087              	.LASF114:
 5088 0cf4 77615F70 		.ascii	"wa_pump\000"
 5088      756D7000 
 5089              	.LASF244:
 5090 0cfc 696E5F6D 		.ascii	"in_maxsize\000"
 5090      61787369 
ARM GAS  C:\Users\jsyoon\AppData\Local\Temp\ccWY3jAf.s 			page 101


 5090      7A6500
 5091              	.LASF136:
 5092 0d07 75736265 		.ascii	"usbevent_t\000"
 5092      76656E74 
 5092      5F7400
 5093              	.LASF212:
 5094 0d12 72657376 		.ascii	"resvd840\000"
 5094      64383430 
 5094      00
 5095              	.LASF126:
 5096 0d1b 5553425F 		.ascii	"USB_EP0_RX\000"
 5096      4550305F 
 5096      525800
 5097              	.LASF267:
 5098 0d26 696E745F 		.ascii	"int_in\000"
 5098      696E00
 5099              	.LASF129:
 5100 0d2d 75736265 		.ascii	"usbep0state_t\000"
 5100      70307374 
 5100      6174655F 
 5100      7400
 5101              	.LASF132:
 5102 0d3b 5553425F 		.ascii	"USB_EVENT_CONFIGURED\000"
 5102      4556454E 
 5102      545F434F 
 5102      4E464947 
 5102      55524544 
 5103              	.LASF58:
 5104 0d50 725F7175 		.ascii	"r_queue\000"
 5104      65756500 
 5105              	.LASF73:
 5106 0d58 656C5F66 		.ascii	"el_flags\000"
 5106      6C616773 
 5106      00
 5107              	.LASF77:
 5108 0d61 65786974 		.ascii	"exitcode\000"
 5108      636F6465 
 5108      00
 5109              	.LASF117:
 5110 0d6a 5553425F 		.ascii	"USB_STOP\000"
 5110      53544F50 
 5110      00
 5111              	.LASF51:
 5112 0d73 54687265 		.ascii	"ThreadsQueue\000"
 5112      61647351 
 5112      75657565 
 5112      00
 5113              	.LASF85:
 5114 0d80 715F6275 		.ascii	"q_buffer\000"
 5114      66666572 
 5114      00
 5115              	.LASF234:
 5116 0d89 72786275 		.ascii	"rxbuf\000"
 5116      6600
 5117              	.LASF143:
 5118 0d8f 75736272 		.ascii	"usbreqhandler_t\000"
 5118      65716861 
ARM GAS  C:\Users\jsyoon\AppData\Local\Temp\ccWY3jAf.s 			page 102


 5118      6E646C65 
 5118      725F7400 
 5119              		.ident	"GCC: (GNU Tools for ARM Embedded Processors) 4.8.4 20140526 (release) [ARM/embedded-4_8-br
ARM GAS  C:\Users\jsyoon\AppData\Local\Temp\ccWY3jAf.s 			page 103


DEFINED SYMBOLS
                            *ABS*:00000000 comm_usb.c
C:\Users\jsyoon\AppData\Local\Temp\ccWY3jAf.s:21     .text.serial_process_thread:00000000 $t
C:\Users\jsyoon\AppData\Local\Temp\ccWY3jAf.s:26     .text.serial_process_thread:00000000 serial_process_thread
C:\Users\jsyoon\AppData\Local\Temp\ccWY3jAf.s:93     .text.serial_process_thread:0000004c $d
C:\Users\jsyoon\AppData\Local\Temp\ccWY3jAf.s:103    .text.serial_read_thread:00000000 $t
C:\Users\jsyoon\AppData\Local\Temp\ccWY3jAf.s:108    .text.serial_read_thread:00000000 serial_read_thread
C:\Users\jsyoon\AppData\Local\Temp\ccWY3jAf.s:182    .text.serial_read_thread:00000054 $d
C:\Users\jsyoon\AppData\Local\Temp\ccWY3jAf.s:192    .text.process_packet:00000000 $t
C:\Users\jsyoon\AppData\Local\Temp\ccWY3jAf.s:197    .text.process_packet:00000000 process_packet
C:\Users\jsyoon\AppData\Local\Temp\ccWY3jAf.s:230    .text.process_packet:00000018 $d
C:\Users\jsyoon\AppData\Local\Temp\ccWY3jAf.s:240    .text.send_packet_wrapper:00000000 send_packet_wrapper
C:\Users\jsyoon\AppData\Local\Temp\ccWY3jAf.s:235    .text.send_packet_wrapper:00000000 $t
C:\Users\jsyoon\AppData\Local\Temp\ccWY3jAf.s:256    .text.send_packet:00000000 $t
C:\Users\jsyoon\AppData\Local\Temp\ccWY3jAf.s:261    .text.send_packet:00000000 send_packet
C:\Users\jsyoon\AppData\Local\Temp\ccWY3jAf.s:301    .text.send_packet:00000020 $d
C:\Users\jsyoon\AppData\Local\Temp\ccWY3jAf.s:307    .text.comm_usb_init:00000000 $t
C:\Users\jsyoon\AppData\Local\Temp\ccWY3jAf.s:313    .text.comm_usb_init:00000000 comm_usb_init
C:\Users\jsyoon\AppData\Local\Temp\ccWY3jAf.s:363    .text.comm_usb_init:00000040 $d
C:\Users\jsyoon\AppData\Local\Temp\ccWY3jAf.s:374    .bss.serial_rx_write_pos:00000000 $d
C:\Users\jsyoon\AppData\Local\Temp\ccWY3jAf.s:378    .bss.serial_rx_write_pos:00000000 serial_rx_write_pos
C:\Users\jsyoon\AppData\Local\Temp\ccWY3jAf.s:381    .bss.send_mutex:00000000 $d
C:\Users\jsyoon\AppData\Local\Temp\ccWY3jAf.s:385    .bss.send_mutex:00000000 send_mutex
C:\Users\jsyoon\AppData\Local\Temp\ccWY3jAf.s:388    .bss.serial_process_thread_wa:00000000 $d
C:\Users\jsyoon\AppData\Local\Temp\ccWY3jAf.s:392    .bss.serial_process_thread_wa:00000000 serial_process_thread_wa
C:\Users\jsyoon\AppData\Local\Temp\ccWY3jAf.s:395    .bss.serial_rx_buffer:00000000 $d
C:\Users\jsyoon\AppData\Local\Temp\ccWY3jAf.s:399    .bss.serial_rx_buffer:00000000 serial_rx_buffer
C:\Users\jsyoon\AppData\Local\Temp\ccWY3jAf.s:402    .rodata.str1.4:00000000 $d
C:\Users\jsyoon\AppData\Local\Temp\ccWY3jAf.s:409    .bss.serial_read_thread_wa:00000000 $d
C:\Users\jsyoon\AppData\Local\Temp\ccWY3jAf.s:413    .bss.serial_read_thread_wa:00000000 serial_read_thread_wa
C:\Users\jsyoon\AppData\Local\Temp\ccWY3jAf.s:416    .bss.serial_rx_read_pos:00000000 $d
C:\Users\jsyoon\AppData\Local\Temp\ccWY3jAf.s:420    .bss.serial_rx_read_pos:00000000 serial_rx_read_pos
C:\Users\jsyoon\AppData\Local\Temp\ccWY3jAf.s:423    .bss.process_tp:00000000 $d
C:\Users\jsyoon\AppData\Local\Temp\ccWY3jAf.s:427    .bss.process_tp:00000000 process_tp
                     .debug_frame:00000010 $d
C:\Users\jsyoon\AppData\Local\Temp\ccWY3jAf.s:102    .text.serial_process_thread:00000064 $t
C:\Users\jsyoon\AppData\Local\Temp\ccWY3jAf.s:191    .text.serial_read_thread:0000006c $t
C:\Users\jsyoon\AppData\Local\Temp\ccWY3jAf.s:234    .text.process_packet:0000001c $t
C:\Users\jsyoon\AppData\Local\Temp\ccWY3jAf.s:306    .text.send_packet:00000028 $t
C:\Users\jsyoon\AppData\Local\Temp\ccWY3jAf.s:373    .text.comm_usb_init:0000005c $t

UNDEFINED SYMBOLS
chEvtWaitAny
packet_process_byte
rlist
chEvtSignal
SDU1
commands_set_send_func
commands_process_packet
packet_send_packet
chMtxLock
chMtxUnlock
myUSBinit
packet_init
chMtxInit
chThdCreateStatic
