ARM GAS  C:\Users\jsyoon\AppData\Local\Temp\cciv7kup.s 			page 1


   1              		.syntax unified
   2              		.cpu cortex-m4
   3              		.eabi_attribute 27, 3
   4              		.eabi_attribute 28, 1
   5              		.fpu fpv4-sp-d16
   6              		.eabi_attribute 20, 1
   7              		.eabi_attribute 21, 1
   8              		.eabi_attribute 23, 3
   9              		.eabi_attribute 24, 1
  10              		.eabi_attribute 25, 1
  11              		.eabi_attribute 26, 1
  12              		.eabi_attribute 30, 2
  13              		.eabi_attribute 34, 1
  14              		.eabi_attribute 18, 4
  15              		.thumb
  16              		.file	"commands.c"
  17              		.text
  18              	.Ltext0:
  19              		.cfi_sections	.debug_frame
  20              		.section	.text.detect_thread,"ax",%progbits
  21              		.align	2
  22              		.p2align 4,,15
  23              		.thumb
  24              		.thumb_func
  25              		.type	detect_thread, %function
  26              	detect_thread:
  27              	.LFB126:
  28              		.file 1 "commands.c"
  29              		.loc 1 589 0
  30              		.cfi_startproc
  31              		@ args = 0, pretend = 0, frame = 8
  32              		@ frame_needed = 0, uses_anonymous_args = 0
  33              	.LVL0:
  34 0000 2DE9F043 		push	{r4, r5, r6, r7, r8, r9, lr}
  35              		.cfi_def_cfa_offset 28
  36              		.cfi_offset 4, -28
  37              		.cfi_offset 5, -24
  38              		.cfi_offset 6, -20
  39              		.cfi_offset 7, -16
  40              		.cfi_offset 8, -12
  41              		.cfi_offset 9, -8
  42              		.cfi_offset 14, -4
  43              		.loc 1 592 0
  44 0004 244B     		ldr	r3, .L10
  45              		.loc 1 594 0
  46 0006 254A     		ldr	r2, .L10+4
  47              		.loc 1 592 0
  48 0008 9B69     		ldr	r3, [r3, #24]
  49 000a 2549     		ldr	r1, .L10+8
  50 000c DFF8A480 		ldr	r8, .L10+28
  51 0010 244F     		ldr	r7, .L10+12
  52 0012 254E     		ldr	r6, .L10+16
  53              	.LBB15:
  54              		.loc 1 599 0
  55 0014 254D     		ldr	r5, .L10+20
  56              	.LBE15:
  57              		.loc 1 589 0
ARM GAS  C:\Users\jsyoon\AppData\Local\Temp\cciv7kup.s 			page 2


  58 0016 2DED028B 		fstmfdd	sp!, {d8}
  59              		.cfi_def_cfa_offset 36
  60              		.cfi_offset 80, -36
  61 001a 9FED258A 		flds	s16, .L10+24
  62              		.loc 1 592 0
  63 001e 9961     		str	r1, [r3, #24]
  64              		.loc 1 589 0
  65 0020 83B0     		sub	sp, sp, #12
  66              		.cfi_def_cfa_offset 48
  67              	.LBB20:
  68              		.loc 1 599 0
  69 0022 4FF00009 		mov	r9, #0
  70              	.LBE20:
  71              		.loc 1 594 0
  72 0026 1360     		str	r3, [r2]
  73              	.LVL1:
  74              	.L5:
  75              	.LBB21:
  76              		.loc 1 597 0
  77 0028 0120     		movs	r0, #1
  78 002a FFF7FEFF 		bl	chEvtWaitAny
  79              	.LVL2:
  80              		.loc 1 599 0
  81 002e 214C     		ldr	r4, .L10+28
  82 0030 9FED210A 		flds	s0, .L10+32
  83 0034 1D48     		ldr	r0, .L10+20
  84 0036 2146     		mov	r1, r4
  85 0038 F0EE400A 		fcpys	s1, s0
  86 003c B0EE401A 		fcpys	s2, s0
  87 0040 FFF7FEFF 		bl	conf_general_detect_motor_param
  88              	.LVL3:
  89 0044 10B3     		cbz	r0, .L2
  90 0046 D5ED007A 		flds	s15, [r5]
  91 004a 67EE887A 		fmuls	s15, s15, s16
  92 004e FDEEE77A 		ftosizs	s15, s15
  93 0052 17EE901A 		fmrs	r1, s15	@ int
  94              	.L3:
  95              		.loc 1 606 0
  96 0056 0122     		movs	r2, #1
  97 0058 1523     		movs	r3, #21
  98              		.loc 1 607 0
  99 005a 1248     		ldr	r0, .L10+12
 100              		.loc 1 606 0
 101 005c 0192     		str	r2, [sp, #4]
 102              		.loc 1 607 0
 103 005e 01AA     		add	r2, sp, #4
 104              		.loc 1 606 0
 105 0060 3B70     		strb	r3, [r7]
 106              		.loc 1 607 0
 107 0062 FFF7FEFF 		bl	buffer_append_int32
 108              	.LVL4:
 109              		.loc 1 608 0
 110 0066 D8ED007A 		flds	s15, [r8]
 111 006a 0E48     		ldr	r0, .L10+12
 112 006c 67EE887A 		fmuls	s15, s15, s16
 113 0070 01AA     		add	r2, sp, #4
 114 0072 FDEEE77A 		ftosizs	s15, s15
ARM GAS  C:\Users\jsyoon\AppData\Local\Temp\cciv7kup.s 			page 3


 115 0076 17EE901A 		fmrs	r1, s15	@ int
 116 007a FFF7FEFF 		bl	buffer_append_int32
 117              	.LVL5:
 118              	.LBB16:
 119              	.LBB17:
 120              		.loc 1 87 0
 121 007e 3368     		ldr	r3, [r6]
 122              		.loc 1 88 0
 123 0080 0848     		ldr	r0, .L10+12
 124              	.LBE17:
 125              	.LBE16:
 126              		.loc 1 609 0
 127 0082 0199     		ldr	r1, [sp, #4]
 128              	.LVL6:
 129              	.LBB19:
 130              	.LBB18:
 131              		.loc 1 87 0
 132 0084 002B     		cmp	r3, #0
 133 0086 CFD0     		beq	.L5
 134              		.loc 1 88 0
 135 0088 9847     		blx	r3
 136              	.LVL7:
 137              	.LBE18:
 138              	.LBE19:
 139              	.LBE21:
 140              		.loc 1 610 0
 141 008a CDE7     		b	.L5
 142              	.LVL8:
 143              	.L2:
 144              	.LBB22:
 145              		.loc 1 601 0
 146 008c C5F80090 		str	r9, [r5]	@ float
 147              		.loc 1 602 0
 148 0090 C4F80090 		str	r9, [r4]	@ float
 149 0094 0146     		mov	r1, r0
 150 0096 DEE7     		b	.L3
 151              	.L11:
 152              		.align	2
 153              	.L10:
 154 0098 00000000 		.word	rlist
 155 009c 00000000 		.word	.LANCHOR0
 156 00a0 00000000 		.word	.LC0
 157 00a4 00000000 		.word	.LANCHOR3
 158 00a8 00000000 		.word	.LANCHOR4
 159 00ac 00000000 		.word	.LANCHOR1
 160 00b0 00007A44 		.word	1148846080
 161 00b4 00000000 		.word	.LANCHOR2
 162 00b8 00000000 		.word	0
 163              	.LBE22:
 164              		.cfi_endproc
 165              	.LFE126:
 166              		.size	detect_thread, .-detect_thread
 167 00bc AFF30080 		.section	.text.commands_init,"ax",%progbits
 168              		.align	2
 169              		.p2align 4,,15
 170              		.global	commands_init
 171              		.thumb
ARM GAS  C:\Users\jsyoon\AppData\Local\Temp\cciv7kup.s 			page 4


 172              		.thumb_func
 173              		.type	commands_init, %function
 174              	commands_init:
 175              	.LFB118:
 176              		.loc 1 63 0
 177              		.cfi_startproc
 178              		@ args = 0, pretend = 0, frame = 0
 179              		@ frame_needed = 0, uses_anonymous_args = 0
 180 0000 00B5     		push	{lr}
 181              		.cfi_def_cfa_offset 4
 182              		.cfi_offset 14, -4
 183 0002 83B0     		sub	sp, sp, #12
 184              		.cfi_def_cfa_offset 16
 185              		.loc 1 64 0
 186 0004 0023     		movs	r3, #0
 187 0006 0093     		str	r3, [sp]
 188 0008 40F69811 		movw	r1, #2456
 189 000c 034B     		ldr	r3, .L13
 190 000e 0448     		ldr	r0, .L13+4
 191 0010 4022     		movs	r2, #64
 192 0012 FFF7FEFF 		bl	chThdCreateStatic
 193              	.LVL9:
 194              		.loc 1 65 0
 195 0016 03B0     		add	sp, sp, #12
 196              		@ sp needed
 197 0018 5DF804FB 		ldr	pc, [sp], #4
 198              	.L14:
 199              		.align	2
 200              	.L13:
 201 001c 00000000 		.word	detect_thread
 202 0020 00000000 		.word	.LANCHOR5
 203              		.cfi_endproc
 204              	.LFE118:
 205              		.size	commands_init, .-commands_init
 206 0024 AFF30080 		.section	.text.commands_set_send_func,"ax",%progbits
 206      AFF30080 
 206      AFF30080 
 207              		.align	2
 208              		.p2align 4,,15
 209              		.global	commands_set_send_func
 210              		.thumb
 211              		.thumb_func
 212              		.type	commands_set_send_func, %function
 213              	commands_set_send_func:
 214              	.LFB119:
 215              		.loc 1 73 0
 216              		.cfi_startproc
 217              		@ args = 0, pretend = 0, frame = 0
 218              		@ frame_needed = 0, uses_anonymous_args = 0
 219              		@ link register save eliminated.
 220              	.LVL10:
 221              		.loc 1 74 0
 222 0000 014B     		ldr	r3, .L16
 223 0002 1860     		str	r0, [r3]
 224 0004 7047     		bx	lr
 225              	.L17:
 226 0006 00BF     		.align	2
ARM GAS  C:\Users\jsyoon\AppData\Local\Temp\cciv7kup.s 			page 5


 227              	.L16:
 228 0008 00000000 		.word	.LANCHOR4
 229              		.cfi_endproc
 230              	.LFE119:
 231              		.size	commands_set_send_func, .-commands_set_send_func
 232 000c AFF30080 		.section	.text.commands_send_packet,"ax",%progbits
 233              		.align	2
 234              		.p2align 4,,15
 235              		.global	commands_send_packet
 236              		.thumb
 237              		.thumb_func
 238              		.type	commands_send_packet, %function
 239              	commands_send_packet:
 240              	.LFB120:
 241              		.loc 1 86 0
 242              		.cfi_startproc
 243              		@ args = 0, pretend = 0, frame = 0
 244              		@ frame_needed = 0, uses_anonymous_args = 0
 245              	.LVL11:
 246 0000 08B5     		push	{r3, lr}
 247              		.cfi_def_cfa_offset 8
 248              		.cfi_offset 3, -8
 249              		.cfi_offset 14, -4
 250              		.loc 1 87 0
 251 0002 024B     		ldr	r3, .L23
 252 0004 1B68     		ldr	r3, [r3]
 253 0006 03B1     		cbz	r3, .L18
 254              		.loc 1 88 0
 255 0008 9847     		blx	r3
 256              	.LVL12:
 257              	.L18:
 258 000a 08BD     		pop	{r3, pc}
 259              	.L24:
 260              		.align	2
 261              	.L23:
 262 000c 00000000 		.word	.LANCHOR4
 263              		.cfi_endproc
 264              	.LFE120:
 265              		.size	commands_send_packet, .-commands_send_packet
 266              		.section	.text.commands_process_packet,"ax",%progbits
 267              		.align	2
 268              		.p2align 4,,15
 269              		.global	commands_process_packet
 270              		.thumb
 271              		.thumb_func
 272              		.type	commands_process_packet, %function
 273              	commands_process_packet:
 274              	.LFB121:
 275              		.loc 1 101 0
 276              		.cfi_startproc
 277              		@ args = 0, pretend = 0, frame = 0
 278              		@ frame_needed = 0, uses_anonymous_args = 0
 279              		@ link register save eliminated.
 280              	.LVL13:
 281 0000 7047     		bx	lr
 282              		.cfi_endproc
 283              	.LFE121:
ARM GAS  C:\Users\jsyoon\AppData\Local\Temp\cciv7kup.s 			page 6


 284              		.size	commands_process_packet, .-commands_process_packet
 285 0002 00BFAFF3 		.section	.text.commands_printf,"ax",%progbits
 285      0080AFF3 
 285      0080AFF3 
 285      0080
 286              		.align	2
 287              		.p2align 4,,15
 288              		.global	commands_printf
 289              		.thumb
 290              		.thumb_func
 291              		.type	commands_printf, %function
 292              	commands_printf:
 293              	.LFB122:
 294              		.loc 1 534 0
 295              		.cfi_startproc
 296              		@ args = 4, pretend = 16, frame = 8
 297              		@ frame_needed = 0, uses_anonymous_args = 1
 298              	.LVL14:
 299              		.loc 1 534 0
 300 0000 0FB4     		push	{r0, r1, r2, r3}
 301              		.cfi_def_cfa_offset 16
 302              		.cfi_offset 0, -16
 303              		.cfi_offset 1, -12
 304              		.cfi_offset 2, -8
 305              		.cfi_offset 3, -4
 306 0002 00B5     		push	{lr}
 307              		.cfi_def_cfa_offset 20
 308              		.cfi_offset 14, -20
 309 0004 83B0     		sub	sp, sp, #12
 310              		.cfi_def_cfa_offset 32
 311              		.loc 1 534 0
 312 0006 04AB     		add	r3, sp, #16
 313              		.loc 1 540 0
 314 0008 0C48     		ldr	r0, .L33
 315              		.loc 1 534 0
 316 000a 53F8042B 		ldr	r2, [r3], #4
 317              		.loc 1 536 0
 318 000e 0193     		str	r3, [sp, #4]
 319              		.loc 1 540 0
 320 0010 1221     		movs	r1, #18
 321 0012 00F8011B 		strb	r1, [r0], #1
 322              		.loc 1 541 0
 323 0016 FE21     		movs	r1, #254
 324 0018 FFF7FEFF 		bl	vsnprintf
 325              	.LVL15:
 326              		.loc 1 544 0
 327 001c 0028     		cmp	r0, #0
 328 001e 08DD     		ble	.L26
 329              	.LVL16:
 330              	.LBB23:
 331              	.LBB24:
 332              		.loc 1 87 0
 333 0020 074B     		ldr	r3, .L33+4
 334 0022 1B68     		ldr	r3, [r3]
 335              	.LBE24:
 336              	.LBE23:
 337              		.loc 1 545 0
ARM GAS  C:\Users\jsyoon\AppData\Local\Temp\cciv7kup.s 			page 7


 338 0024 FD28     		cmp	r0, #253
 339 0026 D4BF     		ite	le
 340 0028 411C     		addle	r1, r0, #1
 341 002a FF21     		movgt	r1, #255
 342              	.LVL17:
 343              	.LBB26:
 344              	.LBB25:
 345              		.loc 1 87 0
 346 002c 0BB1     		cbz	r3, .L26
 347              		.loc 1 88 0
 348 002e 0348     		ldr	r0, .L33
 349              	.LVL18:
 350 0030 9847     		blx	r3
 351              	.LVL19:
 352              	.L26:
 353              	.LBE25:
 354              	.LBE26:
 355              		.loc 1 547 0
 356 0032 03B0     		add	sp, sp, #12
 357              		@ sp needed
 358 0034 5DF804EB 		ldr	lr, [sp], #4
 359 0038 04B0     		add	sp, sp, #16
 360 003a 7047     		bx	lr
 361              	.L34:
 362              		.align	2
 363              	.L33:
 364 003c 00000000 		.word	.LANCHOR6
 365 0040 00000000 		.word	.LANCHOR4
 366              		.cfi_endproc
 367              	.LFE122:
 368              		.size	commands_printf, .-commands_printf
 369 0044 AFF30080 		.section	.text.commands_send_samples,"ax",%progbits
 369      AFF30080 
 369      AFF30080 
 370              		.align	2
 371              		.p2align 4,,15
 372              		.global	commands_send_samples
 373              		.thumb
 374              		.thumb_func
 375              		.type	commands_send_samples, %function
 376              	commands_send_samples:
 377              	.LFB123:
 378              		.loc 1 549 0
 379              		.cfi_startproc
 380              		@ args = 0, pretend = 0, frame = 0
 381              		@ frame_needed = 1, uses_anonymous_args = 0
 382              	.LVL20:
 383 0000 F8B5     		push	{r3, r4, r5, r6, r7, lr}
 384              		.cfi_def_cfa_offset 24
 385              		.cfi_offset 3, -24
 386              		.cfi_offset 4, -20
 387              		.cfi_offset 5, -16
 388              		.cfi_offset 6, -12
 389              		.cfi_offset 7, -8
 390              		.cfi_offset 14, -4
 391              		.loc 1 550 0
 392 0002 01F10803 		add	r3, r1, #8
ARM GAS  C:\Users\jsyoon\AppData\Local\Temp\cciv7kup.s 			page 8


 393 0006 23F00703 		bic	r3, r3, #7
 394              		.loc 1 549 0
 395 000a 00AF     		add	r7, sp, #0
 396              		.cfi_def_cfa_register 7
 397              		.loc 1 550 0
 398 000c ADEB030D 		sub	sp, sp, r3
 399              	.LBB27:
 400              		.loc 1 555 0
 401 0010 0029     		cmp	r1, #0
 402              	.LBE27:
 403              		.loc 1 553 0
 404 0012 4FF01003 		mov	r3, #16
 405 0016 8DF80030 		strb	r3, [sp]
 406              		.loc 1 550 0
 407 001a 6E46     		mov	r6, sp
 408              	.LVL21:
 409              	.LBB28:
 410              		.loc 1 555 0
 411 001c 11DD     		ble	.L40
 412 001e 421E     		subs	r2, r0, #1
 413 0020 6B46     		mov	r3, sp
 414 0022 0DEB0105 		add	r5, sp, r1
 415              	.LVL22:
 416              	.L38:
 417              		.loc 1 556 0 discriminator 2
 418 0026 12F8014F 		ldrb	r4, [r2, #1]!	@ zero_extendqisi2
 419              	.LVL23:
 420 002a 03F8014F 		strb	r4, [r3, #1]!
 421              	.LVL24:
 422              		.loc 1 555 0 discriminator 2
 423 002e AB42     		cmp	r3, r5
 424 0030 F9D1     		bne	.L38
 425 0032 0131     		adds	r1, r1, #1
 426              	.LVL25:
 427              	.L36:
 428              	.LBE28:
 429              	.LBB29:
 430              	.LBB30:
 431              		.loc 1 87 0
 432 0034 044B     		ldr	r3, .L45
 433 0036 1B68     		ldr	r3, [r3]
 434 0038 0BB1     		cbz	r3, .L35
 435              		.loc 1 88 0
 436 003a 3046     		mov	r0, r6
 437              	.LVL26:
 438 003c 9847     		blx	r3
 439              	.LVL27:
 440              	.L35:
 441              	.LBE30:
 442              	.LBE29:
 443              		.loc 1 560 0
 444 003e BD46     		mov	sp, r7
 445              		@ sp needed
 446 0040 F8BD     		pop	{r3, r4, r5, r6, r7, pc}
 447              	.LVL28:
 448              	.L40:
 449              	.LBB31:
ARM GAS  C:\Users\jsyoon\AppData\Local\Temp\cciv7kup.s 			page 9


 450              		.loc 1 555 0
 451 0042 0121     		movs	r1, #1
 452              	.LVL29:
 453 0044 F6E7     		b	.L36
 454              	.L46:
 455 0046 00BF     		.align	2
 456              	.L45:
 457 0048 00000000 		.word	.LANCHOR4
 458              	.LBE31:
 459              		.cfi_endproc
 460              	.LFE123:
 461              		.size	commands_send_samples, .-commands_send_samples
 462 004c AFF30080 		.section	.text.commands_send_rotor_pos,"ax",%progbits
 463              		.align	2
 464              		.p2align 4,,15
 465              		.global	commands_send_rotor_pos
 466              		.thumb
 467              		.thumb_func
 468              		.type	commands_send_rotor_pos, %function
 469              	commands_send_rotor_pos:
 470              	.LFB124:
 471              		.loc 1 562 0
 472              		.cfi_startproc
 473              		@ args = 0, pretend = 0, frame = 16
 474              		@ frame_needed = 0, uses_anonymous_args = 0
 475              	.LVL30:
 476 0000 10B5     		push	{r4, lr}
 477              		.cfi_def_cfa_offset 8
 478              		.cfi_offset 4, -8
 479              		.cfi_offset 14, -4
 480              		.loc 1 567 0
 481 0002 DFED0D7A 		flds	s15, .L52
 482              		.loc 1 562 0
 483 0006 84B0     		sub	sp, sp, #16
 484              		.cfi_def_cfa_offset 24
 485              		.loc 1 566 0
 486 0008 04AC     		add	r4, sp, #16
 487              		.loc 1 567 0
 488 000a 20EE270A 		fmuls	s0, s0, s15
 489              	.LVL31:
 490              		.loc 1 566 0
 491 000e 1323     		movs	r3, #19
 492 0010 04F8083D 		strb	r3, [r4, #-8]!
 493              		.loc 1 567 0
 494 0014 BDEEC00A 		ftosizs	s0, s0
 495              		.loc 1 566 0
 496 0018 0123     		movs	r3, #1
 497              		.loc 1 567 0
 498 001a 10EE101A 		fmrs	r1, s0	@ int
 499 001e 2046     		mov	r0, r4
 500 0020 01AA     		add	r2, sp, #4
 501              		.loc 1 566 0
 502 0022 0193     		str	r3, [sp, #4]
 503              		.loc 1 567 0
 504 0024 FFF7FEFF 		bl	buffer_append_int32
 505              	.LVL32:
 506              	.LBB32:
ARM GAS  C:\Users\jsyoon\AppData\Local\Temp\cciv7kup.s 			page 10


 507              	.LBB33:
 508              		.loc 1 87 0
 509 0028 044B     		ldr	r3, .L52+4
 510              	.LBE33:
 511              	.LBE32:
 512              		.loc 1 569 0
 513 002a 0199     		ldr	r1, [sp, #4]
 514              	.LVL33:
 515              	.LBB35:
 516              	.LBB34:
 517              		.loc 1 87 0
 518 002c 1B68     		ldr	r3, [r3]
 519 002e 0BB1     		cbz	r3, .L47
 520              		.loc 1 88 0
 521 0030 2046     		mov	r0, r4
 522 0032 9847     		blx	r3
 523              	.LVL34:
 524              	.L47:
 525              	.LBE34:
 526              	.LBE35:
 527              		.loc 1 570 0
 528 0034 04B0     		add	sp, sp, #16
 529              		@ sp needed
 530 0036 10BD     		pop	{r4, pc}
 531              	.LVL35:
 532              	.L53:
 533              		.align	2
 534              	.L52:
 535 0038 0050C347 		.word	1203982336
 536 003c 00000000 		.word	.LANCHOR4
 537              		.cfi_endproc
 538              	.LFE124:
 539              		.size	commands_send_rotor_pos, .-commands_send_rotor_pos
 540              		.section	.text.commands_send_experiment_samples,"ax",%progbits
 541              		.align	2
 542              		.p2align 4,,15
 543              		.global	commands_send_experiment_samples
 544              		.thumb
 545              		.thumb_func
 546              		.type	commands_send_experiment_samples, %function
 547              	commands_send_experiment_samples:
 548              	.LFB125:
 549              		.loc 1 572 0
 550              		.cfi_startproc
 551              		@ args = 0, pretend = 0, frame = 8
 552              		@ frame_needed = 1, uses_anonymous_args = 0
 553              	.LVL36:
 554 0000 2DE9F043 		push	{r4, r5, r6, r7, r8, r9, lr}
 555              		.cfi_def_cfa_offset 28
 556              		.cfi_offset 4, -28
 557              		.cfi_offset 5, -24
 558              		.cfi_offset 6, -20
 559              		.cfi_offset 7, -16
 560              		.cfi_offset 8, -12
 561              		.cfi_offset 9, -8
 562              		.cfi_offset 14, -4
 563 0004 2DED028B 		fstmfdd	sp!, {d8}
ARM GAS  C:\Users\jsyoon\AppData\Local\Temp\cciv7kup.s 			page 11


 564              		.cfi_def_cfa_offset 36
 565              		.cfi_offset 80, -36
 566              		.loc 1 573 0
 567 0008 8B00     		lsls	r3, r1, #2
 568              		.loc 1 572 0
 569 000a 83B0     		sub	sp, sp, #12
 570              		.cfi_def_cfa_offset 48
 571              		.loc 1 573 0
 572 000c FF2B     		cmp	r3, #255
 573              		.loc 1 572 0
 574 000e 0E46     		mov	r6, r1
 575 0010 00AF     		add	r7, sp, #0
 576              		.cfi_def_cfa_register 7
 577 0012 E946     		mov	r9, sp
 578              		.loc 1 573 0
 579 0014 26DC     		bgt	.L54
 580              	.LVL37:
 581              		.loc 1 577 0
 582 0016 0833     		adds	r3, r3, #8
 583              	.LVL38:
 584 0018 23F00703 		bic	r3, r3, #7
 585              	.LVL39:
 586 001c ADEB030D 		sub	sp, sp, r3
 587              		.loc 1 580 0
 588 0020 0121     		movs	r1, #1
 589              	.LVL40:
 590 0022 1423     		movs	r3, #20
 591              	.LBB36:
 592              		.loc 1 582 0
 593 0024 002E     		cmp	r6, #0
 594              	.LBE36:
 595              		.loc 1 580 0
 596 0026 8DF80030 		strb	r3, [sp]
 597              		.loc 1 577 0
 598 002a E846     		mov	r8, sp
 599              	.LVL41:
 600              		.loc 1 580 0
 601 002c 7960     		str	r1, [r7, #4]
 602              	.LBB37:
 603              		.loc 1 582 0
 604 002e 13DD     		ble	.L56
 605              		.loc 1 583 0
 606 0030 9FED0F8A 		flds	s16, .L65
 607 0034 0546     		mov	r5, r0
 608              		.loc 1 582 0
 609 0036 0024     		movs	r4, #0
 610              	.LVL42:
 611              	.L58:
 612              		.loc 1 583 0 discriminator 2
 613 0038 F5EC017A 		fldmias	r5!, {s15}
 614 003c 67EE887A 		fmuls	s15, s15, s16
 615              		.loc 1 582 0 discriminator 2
 616 0040 0134     		adds	r4, r4, #1
 617              	.LVL43:
 618              		.loc 1 583 0 discriminator 2
 619 0042 FDEEE77A 		ftosizs	s15, s15
 620 0046 4046     		mov	r0, r8
ARM GAS  C:\Users\jsyoon\AppData\Local\Temp\cciv7kup.s 			page 12


 621 0048 17EE901A 		fmrs	r1, s15	@ int
 622 004c 3A1D     		adds	r2, r7, #4
 623 004e FFF7FEFF 		bl	buffer_append_int32
 624              	.LVL44:
 625              		.loc 1 582 0 discriminator 2
 626 0052 B442     		cmp	r4, r6
 627 0054 F0D1     		bne	.L58
 628 0056 7968     		ldr	r1, [r7, #4]
 629              	.LVL45:
 630              	.L56:
 631              	.LBE37:
 632              	.LBB38:
 633              	.LBB39:
 634              		.loc 1 87 0
 635 0058 064B     		ldr	r3, .L65+4
 636 005a 1B68     		ldr	r3, [r3]
 637 005c 0BB1     		cbz	r3, .L59
 638              		.loc 1 88 0
 639 005e 4046     		mov	r0, r8
 640 0060 9847     		blx	r3
 641              	.LVL46:
 642              	.L59:
 643              	.LBE39:
 644              	.LBE38:
 645 0062 CD46     		mov	sp, r9
 646              	.LVL47:
 647              	.L54:
 648              		.loc 1 587 0
 649 0064 0C37     		adds	r7, r7, #12
 650 0066 BD46     		mov	sp, r7
 651              		@ sp needed
 652 0068 BDEC028B 		fldmfdd	sp!, {d8}
 653 006c BDE8F083 		pop	{r4, r5, r6, r7, r8, r9, pc}
 654              	.LVL48:
 655              	.L66:
 656              		.align	2
 657              	.L65:
 658 0070 00401C46 		.word	1176256512
 659 0074 00000000 		.word	.LANCHOR4
 660              		.cfi_endproc
 661              	.LFE125:
 662              		.size	commands_send_experiment_samples, .-commands_send_experiment_samples
 663 0078 AFF30080 		.section	.bss.send_func,"aw",%nobits
 663      AFF30080 
 664              		.align	2
 665              		.set	.LANCHOR4,. + 0
 666              		.type	send_func, %object
 667              		.size	send_func, 4
 668              	send_func:
 669 0000 00000000 		.space	4
 670              		.section	.bss.print_buffer.11219,"aw",%nobits
 671              		.align	2
 672              		.set	.LANCHOR6,. + 0
 673              		.type	print_buffer.11219, %object
 674              		.size	print_buffer.11219, 255
 675              	print_buffer.11219:
 676 0000 00000000 		.space	255
ARM GAS  C:\Users\jsyoon\AppData\Local\Temp\cciv7kup.s 			page 13


 676      00000000 
 676      00000000 
 676      00000000 
 676      00000000 
 677 00ff 00       		.section	.bss.detect_thread_wa,"aw",%nobits
 678              		.align	3
 679              		.set	.LANCHOR5,. + 0
 680              		.type	detect_thread_wa, %object
 681              		.size	detect_thread_wa, 2456
 682              	detect_thread_wa:
 683 0000 00000000 		.space	2456
 683      00000000 
 683      00000000 
 683      00000000 
 683      00000000 
 684              		.section	.bss.send_buffer,"aw",%nobits
 685              		.align	2
 686              		.set	.LANCHOR3,. + 0
 687              		.type	send_buffer, %object
 688              		.size	send_buffer, 1024
 689              	send_buffer:
 690 0000 00000000 		.space	1024
 690      00000000 
 690      00000000 
 690      00000000 
 690      00000000 
 691              		.section	.rodata.str1.4,"aMS",%progbits,1
 692              		.align	2
 693              	.LC0:
 694 0000 44657465 		.ascii	"Detect\000"
 694      637400
 695 0007 00       		.section	.bss.detect_tp,"aw",%nobits
 696              		.align	2
 697              		.set	.LANCHOR0,. + 0
 698              		.type	detect_tp, %object
 699              		.size	detect_tp, 4
 700              	detect_tp:
 701 0000 00000000 		.space	4
 702              		.section	.bss.detect_coupling_k,"aw",%nobits
 703              		.align	2
 704              		.set	.LANCHOR2,. + 0
 705              		.type	detect_coupling_k, %object
 706              		.size	detect_coupling_k, 4
 707              	detect_coupling_k:
 708 0000 00000000 		.space	4
 709              		.section	.bss.detect_cycle_int_limit,"aw",%nobits
 710              		.align	2
 711              		.set	.LANCHOR1,. + 0
 712              		.type	detect_cycle_int_limit, %object
 713              		.size	detect_cycle_int_limit, 4
 714              	detect_cycle_int_limit:
 715 0000 00000000 		.space	4
 716              		.text
 717              	.Letext0:
 718              		.file 2 "c:\\crosstools\\gcc-arm-embedded\\4.8_2014q2\\arm-none-eabi\\include\\machine\\_default_t
 719              		.file 3 "c:\\crosstools\\gcc-arm-embedded\\4.8_2014q2\\arm-none-eabi\\include\\stdint.h"
 720              		.file 4 "c:\\crosstools\\gcc-arm-embedded\\4.8_2014q2\\lib\\gcc\\arm-none-eabi\\4.8.4\\include\\st
ARM GAS  C:\Users\jsyoon\AppData\Local\Temp\cciv7kup.s 			page 14


 721              		.file 5 "ChibiOS_2.6.6/os/ports/GCC/ARMCMx/chtypes.h"
 722              		.file 6 "ChibiOS_2.6.6/os/kernel/include/chlists.h"
 723              		.file 7 "ChibiOS_2.6.6/os/kernel/include/chthreads.h"
 724              		.file 8 "ChibiOS_2.6.6/os/ports/GCC/ARMCMx/chcore_v7m.h"
 725              		.file 9 "ChibiOS_2.6.6/os/kernel/include/chschd.h"
 726              		.file 10 "ChibiOS_2.6.6/os/kernel/include/chmtx.h"
 727              		.file 11 "c:\\crosstools\\gcc-arm-embedded\\4.8_2014q2\\lib\\gcc\\arm-none-eabi\\4.8.4\\include\\s
 728              		.file 12 "<built-in>"
 729              		.file 13 "ChibiOS_2.6.6/os/ports/common/ARMCMx/CMSIS/include/core_cm4.h"
 730              		.file 14 "ChibiOS_2.6.6/os/kernel/include/chevents.h"
 731              		.file 15 "conf_general.h"
 732              		.file 16 "buffer.h"
 733              		.file 17 "c:\\crosstools\\gcc-arm-embedded\\4.8_2014q2\\arm-none-eabi\\include\\stdio.h"
 734              		.file 18 "datatypes.h"