ARM GAS  C:\Users\jsyoon\AppData\Local\Temp\ccWY3jAf.s 			page 1


   1              		.syntax unified
   2              		.cpu cortex-m4
   3              		.eabi_attribute 27, 3
   4              		.eabi_attribute 28, 1
   5              		.fpu fpv4-sp-d16
   6              		.eabi_attribute 20, 1
   7              		.eabi_attribute 21, 1
   8              		.eabi_attribute 23, 3
   9              		.eabi_attribute 24, 1
  10              		.eabi_attribute 25, 1
  11              		.eabi_attribute 26, 1
  12              		.eabi_attribute 30, 2
  13              		.eabi_attribute 34, 1
  14              		.eabi_attribute 18, 4
  15              		.thumb
  16              		.file	"comm_usb.c"
  17              		.text
  18              	.Ltext0:
  19              		.cfi_sections	.debug_frame
  20              		.section	.text.serial_process_thread,"ax",%progbits
  21              		.align	2
  22              		.p2align 4,,15
  23              		.thumb
  24              		.thumb_func
  25              		.type	serial_process_thread, %function
  26              	serial_process_thread:
  27              	.LFB119:
  28              		.file 1 "comm_usb.c"
  29              		.loc 1 82 0
  30              		.cfi_startproc
  31              		@ args = 0, pretend = 0, frame = 0
  32              		@ frame_needed = 0, uses_anonymous_args = 0
  33              	.LVL0:
  34 0000 2DE9F843 		push	{r3, r4, r5, r6, r7, r8, r9, lr}
  35              		.cfi_def_cfa_offset 32
  36              		.cfi_offset 3, -32
  37              		.cfi_offset 4, -28
  38              		.cfi_offset 5, -24
  39              		.cfi_offset 6, -20
  40              		.cfi_offset 7, -16
  41              		.cfi_offset 8, -12
  42              		.cfi_offset 9, -8
  43              		.cfi_offset 14, -4
  44              		.loc 1 85 0
  45 0004 114B     		ldr	r3, .L8
  46              		.loc 1 87 0
  47 0006 124A     		ldr	r2, .L8+4
  48              		.loc 1 85 0
  49 0008 9B69     		ldr	r3, [r3, #24]
  50 000a 124C     		ldr	r4, .L8+8
  51 000c 1249     		ldr	r1, .L8+12
  52 000e 134E     		ldr	r6, .L8+16
  53 0010 DFF84C90 		ldr	r9, .L8+20
  54 0014 9961     		str	r1, [r3, #24]
  55              		.loc 1 87 0
  56 0016 1360     		str	r3, [r2]
  57              		.loc 1 93 0
ARM GAS  C:\Users\jsyoon\AppData\Local\Temp\ccWY3jAf.s 			page 2


  58 0018 A046     		mov	r8, r4
  59              	.LVL1:
  60              	.L6:
  61              		.loc 1 90 0
  62 001a 0120     		movs	r0, #1
  63 001c FFF7FEFF 		bl	chEvtWaitAny
  64              	.LVL2:
  65              		.loc 1 93 0
  66 0020 0027     		movs	r7, #0
  67              	.L2:
  68 0022 2368     		ldr	r3, [r4]
  69              	.L4:
  70              		.loc 1 92 0 discriminator 1
  71 0024 D9F80020 		ldr	r2, [r9]
  72 0028 9A42     		cmp	r2, r3
  73              		.loc 1 93 0 discriminator 1
  74 002a 03F10105 		add	r5, r3, #1
  75 002e 4FF00001 		mov	r1, #0
  76              		.loc 1 92 0 discriminator 1
  77 0032 F2D0     		beq	.L6
  78              		.loc 1 93 0
  79 0034 F05C     		ldrb	r0, [r6, r3]	@ zero_extendqisi2
  80 0036 2560     		str	r5, [r4]
  81 0038 FFF7FEFF 		bl	packet_process_byte
  82              	.LVL3:
  83              		.loc 1 95 0
  84 003c 2368     		ldr	r3, [r4]
  85 003e B3F5006F 		cmp	r3, #2048
  86 0042 EFD1     		bne	.L4
  87              		.loc 1 96 0
  88 0044 C8F80070 		str	r7, [r8]
  89 0048 EBE7     		b	.L2
  90              	.L9:
  91 004a 00BF     		.align	2
  92              	.L8:
  93 004c 00000000 		.word	rlist
  94 0050 00000000 		.word	.LANCHOR0
  95 0054 00000000 		.word	.LANCHOR1
  96 0058 00000000 		.word	.LC0
  97 005c 00000000 		.word	.LANCHOR2
  98 0060 00000000 		.word	.LANCHOR3
  99              		.cfi_endproc
 100              	.LFE119:
 101              		.size	serial_process_thread, .-serial_process_thread
 102 0064 AFF30080 		.section	.text.serial_read_thread,"ax",%progbits
 102      AFF30080 
 102      AFF30080 
 103              		.align	2
 104              		.p2align 4,,15
 105              		.thumb
 106              		.thumb_func
 107              		.type	serial_read_thread, %function
 108              	serial_read_thread:
 109              	.LFB118:
 110              		.loc 1 50 0
 111              		.cfi_startproc
 112              		@ args = 0, pretend = 0, frame = 128
ARM GAS  C:\Users\jsyoon\AppData\Local\Temp\ccWY3jAf.s 			page 3


 113              		@ frame_needed = 0, uses_anonymous_args = 0
 114              	.LVL4:
 115 0000 2DE9F041 		push	{r4, r5, r6, r7, r8, lr}
 116              		.cfi_def_cfa_offset 24
 117              		.cfi_offset 4, -24
 118              		.cfi_offset 5, -20
 119              		.cfi_offset 6, -16
 120              		.cfi_offset 7, -12
 121              		.cfi_offset 8, -8
 122              		.cfi_offset 14, -4
 123              		.loc 1 53 0
 124 0004 134B     		ldr	r3, .L19
 125 0006 144A     		ldr	r2, .L19+4
 126 0008 9B69     		ldr	r3, [r3, #24]
 127 000a 144E     		ldr	r6, .L19+8
 128 000c 144D     		ldr	r5, .L19+12
 129 000e DFF85880 		ldr	r8, .L19+20
 130 0012 144F     		ldr	r7, .L19+16
 131 0014 9A61     		str	r2, [r3, #24]
 132              	.LVL5:
 133              		.loc 1 50 0
 134 0016 A0B0     		sub	sp, sp, #128
 135              		.cfi_def_cfa_offset 152
 136              	.LVL6:
 137              	.L12:
 138              		.loc 1 61 0
 139 0018 3368     		ldr	r3, [r6]
 140 001a 1048     		ldr	r0, .L19+8
 141 001c 5B68     		ldr	r3, [r3, #4]
 142 001e 6946     		mov	r1, sp
 143 0020 0122     		movs	r2, #1
 144 0022 9847     		blx	r3
 145              	.LVL7:
 146              		.loc 1 63 0
 147 0024 0028     		cmp	r0, #0
 148 0026 F7DD     		ble	.L12
 149 0028 2A68     		ldr	r2, [r5]
 150 002a 0023     		movs	r3, #0
 151              	.LVL8:
 152              	.L15:
 153              		.loc 1 64 0
 154 002c 511C     		adds	r1, r2, #1
 155              		.loc 1 66 0
 156 002e B1F5006F 		cmp	r1, #2048
 157              		.loc 1 64 0
 158 0032 1DF80340 		ldrb	r4, [sp, r3]	@ zero_extendqisi2
 159 0036 08F80240 		strb	r4, [r8, r2]
 160              		.loc 1 63 0
 161 003a 03F10103 		add	r3, r3, #1
 162              	.LVL9:
 163              		.loc 1 66 0
 164 003e 14BF     		ite	ne
 165 0040 0A46     		movne	r2, r1
 166 0042 0022     		moveq	r2, #0
 167              	.LVL10:
 168              		.loc 1 63 0
 169 0044 8342     		cmp	r3, r0
ARM GAS  C:\Users\jsyoon\AppData\Local\Temp\ccWY3jAf.s 			page 4


 170 0046 F1DB     		blt	.L15
 171              		.loc 1 74 0
 172 0048 3868     		ldr	r0, [r7]
 173              	.LVL11:
 174 004a 2A60     		str	r2, [r5]
 175 004c 0121     		movs	r1, #1
 176 004e FFF7FEFF 		bl	chEvtSignal
 177              	.LVL12:
 178 0052 E1E7     		b	.L12
 179              	.L20:
 180              		.align	2
 181              	.L19:
 182 0054 00000000 		.word	rlist
 183 0058 14000000 		.word	.LC1
 184 005c 00000000 		.word	SDU1
 185 0060 00000000 		.word	.LANCHOR3
 186 0064 00000000 		.word	.LANCHOR0
 187 0068 00000000 		.word	.LANCHOR2
 188              		.cfi_endproc
 189              	.LFE118:
 190              		.size	serial_read_thread, .-serial_read_thread
 191 006c AFF30080 		.section	.text.process_packet,"ax",%progbits
 192              		.align	2
 193              		.p2align 4,,15
 194              		.thumb
 195              		.thumb_func
 196              		.type	process_packet, %function
 197              	process_packet:
 198              	.LFB120:
 199              		.loc 1 104 0
 200              		.cfi_startproc
 201              		@ args = 0, pretend = 0, frame = 0
 202              		@ frame_needed = 0, uses_anonymous_args = 0
 203              	.LVL13:
 204 0000 38B5     		push	{r3, r4, r5, lr}
 205              		.cfi_def_cfa_offset 16
 206              		.cfi_offset 3, -16
 207              		.cfi_offset 4, -12
 208              		.cfi_offset 5, -8
 209              		.cfi_offset 14, -4
 210              		.loc 1 104 0
 211 0002 0446     		mov	r4, r0
 212 0004 0D46     		mov	r5, r1
 213              		.loc 1 105 0
 214 0006 0448     		ldr	r0, .L22
 215              	.LVL14:
 216 0008 FFF7FEFF 		bl	commands_set_send_func
 217              	.LVL15:
 218              		.loc 1 106 0
 219 000c 2046     		mov	r0, r4
 220 000e 2946     		mov	r1, r5
 221              		.loc 1 107 0
 222 0010 BDE83840 		pop	{r3, r4, r5, lr}
 223              	.LVL16:
 224              		.loc 1 106 0
 225 0014 FFF7FEBF 		b	commands_process_packet
 226              	.LVL17:
ARM GAS  C:\Users\jsyoon\AppData\Local\Temp\ccWY3jAf.s 			page 5


 227              	.L23:
 228              		.align	2
 229              	.L22:
 230 0018 00000000 		.word	send_packet_wrapper
 231              		.cfi_endproc
 232              	.LFE120:
 233              		.size	process_packet, .-process_packet
 234 001c AFF30080 		.section	.text.send_packet_wrapper,"ax",%progbits
 235              		.align	2
 236              		.p2align 4,,15
 237              		.thumb
 238              		.thumb_func
 239              		.type	send_packet_wrapper, %function
 240              	send_packet_wrapper:
 241              	.LFB121:
 242              		.loc 1 109 0
 243              		.cfi_startproc
 244              		@ args = 0, pretend = 0, frame = 0
 245              		@ frame_needed = 0, uses_anonymous_args = 0
 246              		@ link register save eliminated.
 247              	.LVL18:
 248              		.loc 1 110 0
 249 0000 0022     		movs	r2, #0
 250 0002 FFF7FEBF 		b	packet_send_packet
 251              	.LVL19:
 252              		.cfi_endproc
 253              	.LFE121:
 254              		.size	send_packet_wrapper, .-send_packet_wrapper
 255 0006 00BFAFF3 		.section	.text.send_packet,"ax",%progbits
 255      0080AFF3 
 255      0080
 256              		.align	2
 257              		.p2align 4,,15
 258              		.thumb
 259              		.thumb_func
 260              		.type	send_packet, %function
 261              	send_packet:
 262              	.LFB122:
 263              		.loc 1 113 0
 264              		.cfi_startproc
 265              		@ args = 0, pretend = 0, frame = 0
 266              		@ frame_needed = 0, uses_anonymous_args = 0
 267              	.LVL20:
 268 0000 70B5     		push	{r4, r5, r6, lr}
 269              		.cfi_def_cfa_offset 16
 270              		.cfi_offset 4, -16
 271              		.cfi_offset 5, -12
 272              		.cfi_offset 6, -8
 273              		.cfi_offset 14, -4
 274              		.loc 1 113 0
 275 0002 0646     		mov	r6, r0
 276              		.loc 1 114 0
 277 0004 0648     		ldr	r0, .L26
 278              	.LVL21:
 279              		.loc 1 113 0
 280 0006 0D46     		mov	r5, r1
 281              		.loc 1 114 0
ARM GAS  C:\Users\jsyoon\AppData\Local\Temp\ccWY3jAf.s 			page 6


 282 0008 FFF7FEFF 		bl	chMtxLock
 283              	.LVL22:
 284              		.loc 1 115 0
 285 000c 0548     		ldr	r0, .L26+4
 286 000e 0468     		ldr	r4, [r0]
 287 0010 3146     		mov	r1, r6
 288 0012 2A46     		mov	r2, r5
 289 0014 2468     		ldr	r4, [r4]
 290 0016 A047     		blx	r4
 291              	.LVL23:
 292              		.loc 1 117 0
 293 0018 BDE87040 		pop	{r4, r5, r6, lr}
 294              	.LVL24:
 295              		.loc 1 116 0
 296 001c FFF7FEBF 		b	chMtxUnlock
 297              	.LVL25:
 298              	.L27:
 299              		.align	2
 300              	.L26:
 301 0020 00000000 		.word	.LANCHOR4
 302 0024 00000000 		.word	SDU1
 303              		.cfi_endproc
 304              	.LFE122:
 305              		.size	send_packet, .-send_packet
 306 0028 AFF30080 		.section	.text.comm_usb_init,"ax",%progbits
 306      AFF30080 
 307              		.align	2
 308              		.p2align 4,,15
 309              		.global	comm_usb_init
 310              		.thumb
 311              		.thumb_func
 312              		.type	comm_usb_init, %function
 313              	comm_usb_init:
 314              	.LFB123:
 315              		.loc 1 119 0
 316              		.cfi_startproc
 317              		@ args = 0, pretend = 0, frame = 0
 318              		@ frame_needed = 0, uses_anonymous_args = 0
 319 0000 10B5     		push	{r4, lr}
 320              		.cfi_def_cfa_offset 8
 321              		.cfi_offset 4, -8
 322              		.cfi_offset 14, -4
 323 0002 82B0     		sub	sp, sp, #8
 324              		.cfi_def_cfa_offset 16
 325              		.loc 1 120 0
 326 0004 FFF7FEFF 		bl	myUSBinit
 327              	.LVL26:
 328              		.loc 1 121 0
 329 0008 0D49     		ldr	r1, .L29
 330 000a 0E48     		ldr	r0, .L29+4
 331 000c 0022     		movs	r2, #0
 332 000e FFF7FEFF 		bl	packet_init
 333              	.LVL27:
 334              		.loc 1 126 0
 335 0012 0024     		movs	r4, #0
 336              		.loc 1 123 0
 337 0014 0C48     		ldr	r0, .L29+8
ARM GAS  C:\Users\jsyoon\AppData\Local\Temp\ccWY3jAf.s 			page 7


 338 0016 FFF7FEFF 		bl	chMtxInit
 339              	.LVL28:
 340              		.loc 1 126 0
 341 001a 0094     		str	r4, [sp]
 342 001c 0B4B     		ldr	r3, .L29+12
 343 001e 0C48     		ldr	r0, .L29+16
 344 0020 4FF46671 		mov	r1, #920
 345 0024 4022     		movs	r2, #64
 346 0026 FFF7FEFF 		bl	chThdCreateStatic
 347              	.LVL29:
 348              		.loc 1 127 0
 349 002a 0094     		str	r4, [sp]
 350 002c 094B     		ldr	r3, .L29+20
 351 002e 0A48     		ldr	r0, .L29+24
 352 0030 41F29811 		movw	r1, #4504
 353 0034 4022     		movs	r2, #64
 354 0036 FFF7FEFF 		bl	chThdCreateStatic
 355              	.LVL30:
 356              		.loc 1 128 0
 357 003a 02B0     		add	sp, sp, #8
 358              		@ sp needed
 359 003c 10BD     		pop	{r4, pc}
 360              	.L30:
 361 003e 00BF     		.align	2
 362              	.L29:
 363 0040 00000000 		.word	process_packet
 364 0044 00000000 		.word	send_packet
 365 0048 00000000 		.word	.LANCHOR4
 366 004c 00000000 		.word	serial_read_thread
 367 0050 00000000 		.word	.LANCHOR5
 368 0054 00000000 		.word	serial_process_thread
 369 0058 00000000 		.word	.LANCHOR6
 370              		.cfi_endproc
 371              	.LFE123:
 372              		.size	comm_usb_init, .-comm_usb_init
 373 005c AFF30080 		.section	.bss.serial_rx_write_pos,"aw",%nobits
 374              		.align	2
 375              		.set	.LANCHOR3,. + 0
 376              		.type	serial_rx_write_pos, %object
 377              		.size	serial_rx_write_pos, 4
 378              	serial_rx_write_pos:
 379 0000 00000000 		.space	4
 380              		.section	.bss.send_mutex,"aw",%nobits
 381              		.align	2
 382              		.set	.LANCHOR4,. + 0
 383              		.type	send_mutex, %object
 384              		.size	send_mutex, 16
 385              	send_mutex:
 386 0000 00000000 		.space	16
 386      00000000 
 386      00000000 
 386      00000000 
 387              		.section	.bss.serial_process_thread_wa,"aw",%nobits
 388              		.align	3
 389              		.set	.LANCHOR6,. + 0
 390              		.type	serial_process_thread_wa, %object
 391              		.size	serial_process_thread_wa, 4504
ARM GAS  C:\Users\jsyoon\AppData\Local\Temp\ccWY3jAf.s 			page 8


 392              	serial_process_thread_wa:
 393 0000 00000000 		.space	4504
 393      00000000 
 393      00000000 
 393      00000000 
 393      00000000 
 394              		.section	.bss.serial_rx_buffer,"aw",%nobits
 395              		.align	2
 396              		.set	.LANCHOR2,. + 0
 397              		.type	serial_rx_buffer, %object
 398              		.size	serial_rx_buffer, 2048
 399              	serial_rx_buffer:
 400 0000 00000000 		.space	2048
 400      00000000 
 400      00000000 
 400      00000000 
 400      00000000 
 401              		.section	.rodata.str1.4,"aMS",%progbits,1
 402              		.align	2
 403              	.LC0:
 404 0000 5553422D 		.ascii	"USB-Serial process\000"
 404      53657269 
 404      616C2070 
 404      726F6365 
 404      737300
 405 0013 00       		.space	1
 406              	.LC1:
 407 0014 5553422D 		.ascii	"USB-Serial read\000"
 407      53657269 
 407      616C2072 
 407      65616400 
 408              		.section	.bss.serial_read_thread_wa,"aw",%nobits
 409              		.align	3
 410              		.set	.LANCHOR5,. + 0
 411              		.type	serial_read_thread_wa, %object
 412              		.size	serial_read_thread_wa, 920
 413              	serial_read_thread_wa:
 414 0000 00000000 		.space	920
 414      00000000 
 414      00000000 
 414      00000000 
 414      00000000 
 415              		.section	.bss.serial_rx_read_pos,"aw",%nobits
 416              		.align	2
 417              		.set	.LANCHOR1,. + 0
 418              		.type	serial_rx_read_pos, %object
 419              		.size	serial_rx_read_pos, 4
 420              	serial_rx_read_pos:
 421 0000 00000000 		.space	4
 422              		.section	.bss.process_tp,"aw",%nobits
 423              		.align	2
 424              		.set	.LANCHOR0,. + 0
 425              		.type	process_tp, %object
 426              		.size	process_tp, 4
 427              	process_tp:
 428 0000 00000000 		.space	4
 429              		.text
ARM GAS  C:\Users\jsyoon\AppData\Local\Temp\ccWY3jAf.s 			page 9


 430              	.Letext0:
 431              		.file 2 "c:\\crosstools\\gcc-arm-embedded\\4.8_2014q2\\lib\\gcc\\arm-none-eabi\\4.8.4\\include\\st
 432              		.file 3 "c:\\crosstools\\gcc-arm-embedded\\4.8_2014q2\\arm-none-eabi\\include\\machine\\_default_t
 433              		.file 4 "c:\\crosstools\\gcc-arm-embedded\\4.8_2014q2\\arm-none-eabi\\include\\stdint.h"
 434              		.file 5 "ChibiOS_2.6.6/os/ports/GCC/ARMCMx/chtypes.h"
 435              		.file 6 "ChibiOS_2.6.6/os/kernel/include/chlists.h"
 436              		.file 7 "ChibiOS_2.6.6/os/kernel/include/chthreads.h"
 437              		.file 8 "ChibiOS_2.6.6/os/ports/GCC/ARMCMx/chcore_v7m.h"
 438              		.file 9 "ChibiOS_2.6.6/os/kernel/include/chschd.h"
 439              		.file 10 "ChibiOS_2.6.6/os/kernel/include/chmtx.h"
 440              		.file 11 "ChibiOS_2.6.6/os/kernel/include/chevents.h"
 441              		.file 12 "ChibiOS_2.6.6/os/kernel/include/chqueues.h"
 442              		.file 13 "ChibiOS_2.6.6/os/hal/include/usb.h"
 443              		.file 14 "ChibiOS_2.6.6/os/hal/platforms/STM32/OTGv1/usb_lld.h"
 444              		.file 15 "ChibiOS_2.6.6/os/hal/platforms/STM32/OTGv1/stm32_otg.h"
 445              		.file 16 "ChibiOS_2.6.6/os/hal/include/serial_usb.h"
 446              		.file 17 "ChibiOS_2.6.6/os/ports/common/ARMCMx/CMSIS/include/core_cm4.h"
 447              		.file 18 "myUSB.h"
 448              		.file 19 "packet.h"
 449              		.file 20 "commands.h"