ARM GAS  C:\Users\jsyoon\AppData\Local\Temp\cciv7kup.s 			page 1


   1              		.syntax unified
   2              		.cpu cortex-m4
   3              		.eabi_attribute 27, 3
   4              		.eabi_attribute 28, 1
   5              		.fpu fpv4-sp-d16
   6              		.eabi_attribute 20, 1
   7              		.eabi_attribute 21, 1
   8              		.eabi_attribute 23, 3
   9              		.eabi_attribute 24, 1
  10              		.eabi_attribute 25, 1
  11              		.eabi_attribute 26, 1
  12              		.eabi_attribute 30, 2
  13              		.eabi_attribute 34, 1
  14              		.eabi_attribute 18, 4
  15              		.thumb
  16              		.file	"commands.c"
  17              		.text
  18              	.Ltext0:
  19              		.cfi_sections	.debug_frame
  20              		.section	.text.detect_thread,"ax",%progbits
  21              		.align	2
  22              		.p2align 4,,15
  23              		.thumb
  24              		.thumb_func
  25              		.type	detect_thread, %function
  26              	detect_thread:
  27              	.LFB126:
  28              		.file 1 "commands.c"
  29              		.loc 1 589 0
  30              		.cfi_startproc
  31              		@ args = 0, pretend = 0, frame = 8
  32              		@ frame_needed = 0, uses_anonymous_args = 0
  33              	.LVL0:
  34 0000 2DE9F043 		push	{r4, r5, r6, r7, r8, r9, lr}
  35              		.cfi_def_cfa_offset 28
  36              		.cfi_offset 4, -28
  37              		.cfi_offset 5, -24
  38              		.cfi_offset 6, -20
  39              		.cfi_offset 7, -16
  40              		.cfi_offset 8, -12
  41              		.cfi_offset 9, -8
  42              		.cfi_offset 14, -4
  43              		.loc 1 592 0
  44 0004 244B     		ldr	r3, .L10
  45              		.loc 1 594 0
  46 0006 254A     		ldr	r2, .L10+4
  47              		.loc 1 592 0
  48 0008 9B69     		ldr	r3, [r3, #24]
  49 000a 2549     		ldr	r1, .L10+8
  50 000c DFF8A480 		ldr	r8, .L10+28
  51 0010 244F     		ldr	r7, .L10+12
  52 0012 254E     		ldr	r6, .L10+16
  53              	.LBB15:
  54              		.loc 1 599 0
  55 0014 254D     		ldr	r5, .L10+20
  56              	.LBE15:
  57              		.loc 1 589 0
ARM GAS  C:\Users\jsyoon\AppData\Local\Temp\cciv7kup.s 			page 2


  58 0016 2DED028B 		fstmfdd	sp!, {d8}
  59              		.cfi_def_cfa_offset 36
  60              		.cfi_offset 80, -36
  61 001a 9FED258A 		flds	s16, .L10+24
  62              		.loc 1 592 0
  63 001e 9961     		str	r1, [r3, #24]
  64              		.loc 1 589 0
  65 0020 83B0     		sub	sp, sp, #12
  66              		.cfi_def_cfa_offset 48
  67              	.LBB20:
  68              		.loc 1 599 0
  69 0022 4FF00009 		mov	r9, #0
  70              	.LBE20:
  71              		.loc 1 594 0
  72 0026 1360     		str	r3, [r2]
  73              	.LVL1:
  74              	.L5:
  75              	.LBB21:
  76              		.loc 1 597 0
  77 0028 0120     		movs	r0, #1
  78 002a FFF7FEFF 		bl	chEvtWaitAny
  79              	.LVL2:
  80              		.loc 1 599 0
  81 002e 214C     		ldr	r4, .L10+28
  82 0030 9FED210A 		flds	s0, .L10+32
  83 0034 1D48     		ldr	r0, .L10+20
  84 0036 2146     		mov	r1, r4
  85 0038 F0EE400A 		fcpys	s1, s0
  86 003c B0EE401A 		fcpys	s2, s0
  87 0040 FFF7FEFF 		bl	conf_general_detect_motor_param
  88              	.LVL3:
  89 0044 10B3     		cbz	r0, .L2
  90 0046 D5ED007A 		flds	s15, [r5]
  91 004a 67EE887A 		fmuls	s15, s15, s16
  92 004e FDEEE77A 		ftosizs	s15, s15
  93 0052 17EE901A 		fmrs	r1, s15	@ int
  94              	.L3:
  95              		.loc 1 606 0
  96 0056 0122     		movs	r2, #1
  97 0058 1523     		movs	r3, #21
  98              		.loc 1 607 0
  99 005a 1248     		ldr	r0, .L10+12
 100              		.loc 1 606 0
 101 005c 0192     		str	r2, [sp, #4]
 102              		.loc 1 607 0
 103 005e 01AA     		add	r2, sp, #4
 104              		.loc 1 606 0
 105 0060 3B70     		strb	r3, [r7]
 106              		.loc 1 607 0
 107 0062 FFF7FEFF 		bl	buffer_append_int32
 108              	.LVL4:
 109              		.loc 1 608 0
 110 0066 D8ED007A 		flds	s15, [r8]
 111 006a 0E48     		ldr	r0, .L10+12
 112 006c 67EE887A 		fmuls	s15, s15, s16
 113 0070 01AA     		add	r2, sp, #4
 114 0072 FDEEE77A 		ftosizs	s15, s15
ARM GAS  C:\Users\jsyoon\AppData\Local\Temp\cciv7kup.s 			page 3


 115 0076 17EE901A 		fmrs	r1, s15	@ int
 116 007a FFF7FEFF 		bl	buffer_append_int32
 117              	.LVL5:
 118              	.LBB16:
 119              	.LBB17:
 120              		.loc 1 87 0
 121 007e 3368     		ldr	r3, [r6]
 122              		.loc 1 88 0
 123 0080 0848     		ldr	r0, .L10+12
 124              	.LBE17:
 125              	.LBE16:
 126              		.loc 1 609 0
 127 0082 0199     		ldr	r1, [sp, #4]
 128              	.LVL6:
 129              	.LBB19:
 130              	.LBB18:
 131              		.loc 1 87 0
 132 0084 002B     		cmp	r3, #0
 133 0086 CFD0     		beq	.L5
 134              		.loc 1 88 0
 135 0088 9847     		blx	r3
 136              	.LVL7:
 137              	.LBE18:
 138              	.LBE19:
 139              	.LBE21:
 140              		.loc 1 610 0
 141 008a CDE7     		b	.L5
 142              	.LVL8:
 143              	.L2:
 144              	.LBB22:
 145              		.loc 1 601 0
 146 008c C5F80090 		str	r9, [r5]	@ float
 147              		.loc 1 602 0
 148 0090 C4F80090 		str	r9, [r4]	@ float
 149 0094 0146     		mov	r1, r0
 150 0096 DEE7     		b	.L3
 151              	.L11:
 152              		.align	2
 153              	.L10:
 154 0098 00000000 		.word	rlist
 155 009c 00000000 		.word	.LANCHOR0
 156 00a0 00000000 		.word	.LC0
 157 00a4 00000000 		.word	.LANCHOR3
 158 00a8 00000000 		.word	.LANCHOR4
 159 00ac 00000000 		.word	.LANCHOR1
 160 00b0 00007A44 		.word	1148846080
 161 00b4 00000000 		.word	.LANCHOR2
 162 00b8 00000000 		.word	0
 163              	.LBE22:
 164              		.cfi_endproc
 165              	.LFE126:
 166              		.size	detect_thread, .-detect_thread
 167 00bc AFF30080 		.section	.text.commands_init,"ax",%progbits
 168              		.align	2
 169              		.p2align 4,,15
 170              		.global	commands_init
 171              		.thumb
ARM GAS  C:\Users\jsyoon\AppData\Local\Temp\cciv7kup.s 			page 4


 172              		.thumb_func
 173              		.type	commands_init, %function
 174              	commands_init:
 175              	.LFB118:
 176              		.loc 1 63 0
 177              		.cfi_startproc
 178              		@ args = 0, pretend = 0, frame = 0
 179              		@ frame_needed = 0, uses_anonymous_args = 0
 180 0000 00B5     		push	{lr}
 181              		.cfi_def_cfa_offset 4
 182              		.cfi_offset 14, -4
 183 0002 83B0     		sub	sp, sp, #12
 184              		.cfi_def_cfa_offset 16
 185              		.loc 1 64 0
 186 0004 0023     		movs	r3, #0
 187 0006 0093     		str	r3, [sp]
 188 0008 40F69811 		movw	r1, #2456
 189 000c 034B     		ldr	r3, .L13
 190 000e 0448     		ldr	r0, .L13+4
 191 0010 4022     		movs	r2, #64
 192 0012 FFF7FEFF 		bl	chThdCreateStatic
 193              	.LVL9:
 194              		.loc 1 65 0
 195 0016 03B0     		add	sp, sp, #12
 196              		@ sp needed
 197 0018 5DF804FB 		ldr	pc, [sp], #4
 198              	.L14:
 199              		.align	2
 200              	.L13:
 201 001c 00000000 		.word	detect_thread
 202 0020 00000000 		.word	.LANCHOR5
 203              		.cfi_endproc
 204              	.LFE118:
 205              		.size	commands_init, .-commands_init
 206 0024 AFF30080 		.section	.text.commands_set_send_func,"ax",%progbits
 206      AFF30080 
 206      AFF30080 
 207              		.align	2
 208              		.p2align 4,,15
 209              		.global	commands_set_send_func
 210              		.thumb
 211              		.thumb_func
 212              		.type	commands_set_send_func, %function
 213              	commands_set_send_func:
 214              	.LFB119:
 215              		.loc 1 73 0
 216              		.cfi_startproc
 217              		@ args = 0, pretend = 0, frame = 0
 218              		@ frame_needed = 0, uses_anonymous_args = 0
 219              		@ link register save eliminated.
 220              	.LVL10:
 221              		.loc 1 74 0
 222 0000 014B     		ldr	r3, .L16
 223 0002 1860     		str	r0, [r3]
 224 0004 7047     		bx	lr
 225              	.L17:
 226 0006 00BF     		.align	2
ARM GAS  C:\Users\jsyoon\AppData\Local\Temp\cciv7kup.s 			page 5


 227              	.L16:
 228 0008 00000000 		.word	.LANCHOR4
 229              		.cfi_endproc
 230              	.LFE119:
 231              		.size	commands_set_send_func, .-commands_set_send_func
 232 000c AFF30080 		.section	.text.commands_send_packet,"ax",%progbits
 233              		.align	2
 234              		.p2align 4,,15
 235              		.global	commands_send_packet
 236              		.thumb
 237              		.thumb_func
 238              		.type	commands_send_packet, %function
 239              	commands_send_packet:
 240              	.LFB120:
 241              		.loc 1 86 0
 242              		.cfi_startproc
 243              		@ args = 0, pretend = 0, frame = 0
 244              		@ frame_needed = 0, uses_anonymous_args = 0
 245              	.LVL11:
 246 0000 08B5     		push	{r3, lr}
 247              		.cfi_def_cfa_offset 8
 248              		.cfi_offset 3, -8
 249              		.cfi_offset 14, -4
 250              		.loc 1 87 0
 251 0002 024B     		ldr	r3, .L23
 252 0004 1B68     		ldr	r3, [r3]
 253 0006 03B1     		cbz	r3, .L18
 254              		.loc 1 88 0
 255 0008 9847     		blx	r3
 256              	.LVL12:
 257              	.L18:
 258 000a 08BD     		pop	{r3, pc}
 259              	.L24:
 260              		.align	2
 261              	.L23:
 262 000c 00000000 		.word	.LANCHOR4
 263              		.cfi_endproc
 264              	.LFE120:
 265              		.size	commands_send_packet, .-commands_send_packet
 266              		.section	.text.commands_process_packet,"ax",%progbits
 267              		.align	2
 268              		.p2align 4,,15
 269              		.global	commands_process_packet
 270              		.thumb
 271              		.thumb_func
 272              		.type	commands_process_packet, %function
 273              	commands_process_packet:
 274              	.LFB121:
 275              		.loc 1 101 0
 276              		.cfi_startproc
 277              		@ args = 0, pretend = 0, frame = 0
 278              		@ frame_needed = 0, uses_anonymous_args = 0
 279              		@ link register save eliminated.
 280              	.LVL13:
 281 0000 7047     		bx	lr
 282              		.cfi_endproc
 283              	.LFE121:
ARM GAS  C:\Users\jsyoon\AppData\Local\Temp\cciv7kup.s 			page 6


 284              		.size	commands_process_packet, .-commands_process_packet
 285 0002 00BFAFF3 		.section	.text.commands_printf,"ax",%progbits
 285      0080AFF3 
 285      0080AFF3 
 285      0080
 286              		.align	2
 287              		.p2align 4,,15
 288              		.global	commands_printf
 289              		.thumb
 290              		.thumb_func
 291              		.type	commands_printf, %function
 292              	commands_printf:
 293              	.LFB122:
 294              		.loc 1 534 0
 295              		.cfi_startproc
 296              		@ args = 4, pretend = 16, frame = 8
 297              		@ frame_needed = 0, uses_anonymous_args = 1
 298              	.LVL14:
 299              		.loc 1 534 0
 300 0000 0FB4     		push	{r0, r1, r2, r3}
 301              		.cfi_def_cfa_offset 16
 302              		.cfi_offset 0, -16
 303              		.cfi_offset 1, -12
 304              		.cfi_offset 2, -8
 305              		.cfi_offset 3, -4
 306 0002 00B5     		push	{lr}
 307              		.cfi_def_cfa_offset 20
 308              		.cfi_offset 14, -20
 309 0004 83B0     		sub	sp, sp, #12
 310              		.cfi_def_cfa_offset 32
 311              		.loc 1 534 0
 312 0006 04AB     		add	r3, sp, #16
 313              		.loc 1 540 0
 314 0008 0C48     		ldr	r0, .L33
 315              		.loc 1 534 0
 316 000a 53F8042B 		ldr	r2, [r3], #4
 317              		.loc 1 536 0
 318 000e 0193     		str	r3, [sp, #4]
 319              		.loc 1 540 0
 320 0010 1221     		movs	r1, #18
 321 0012 00F8011B 		strb	r1, [r0], #1
 322              		.loc 1 541 0
 323 0016 FE21     		movs	r1, #254
 324 0018 FFF7FEFF 		bl	vsnprintf
 325              	.LVL15:
 326              		.loc 1 544 0
 327 001c 0028     		cmp	r0, #0
 328 001e 08DD     		ble	.L26
 329              	.LVL16:
 330              	.LBB23:
 331              	.LBB24:
 332              		.loc 1 87 0
 333 0020 074B     		ldr	r3, .L33+4
 334 0022 1B68     		ldr	r3, [r3]
 335              	.LBE24:
 336              	.LBE23:
 337              		.loc 1 545 0
ARM GAS  C:\Users\jsyoon\AppData\Local\Temp\cciv7kup.s 			page 7


 338 0024 FD28     		cmp	r0, #253
 339 0026 D4BF     		ite	le
 340 0028 411C     		addle	r1, r0, #1
 341 002a FF21     		movgt	r1, #255
 342              	.LVL17:
 343              	.LBB26:
 344              	.LBB25:
 345              		.loc 1 87 0
 346 002c 0BB1     		cbz	r3, .L26
 347              		.loc 1 88 0
 348 002e 0348     		ldr	r0, .L33
 349              	.LVL18:
 350 0030 9847     		blx	r3
 351              	.LVL19:
 352              	.L26:
 353              	.LBE25:
 354              	.LBE26:
 355              		.loc 1 547 0
 356 0032 03B0     		add	sp, sp, #12
 357              		@ sp needed
 358 0034 5DF804EB 		ldr	lr, [sp], #4
 359 0038 04B0     		add	sp, sp, #16
 360 003a 7047     		bx	lr
 361              	.L34:
 362              		.align	2
 363              	.L33:
 364 003c 00000000 		.word	.LANCHOR6
 365 0040 00000000 		.word	.LANCHOR4
 366              		.cfi_endproc
 367              	.LFE122:
 368              		.size	commands_printf, .-commands_printf
 369 0044 AFF30080 		.section	.text.commands_send_samples,"ax",%progbits
 369      AFF30080 
 369      AFF30080 
 370              		.align	2
 371              		.p2align 4,,15
 372              		.global	commands_send_samples
 373              		.thumb
 374              		.thumb_func
 375              		.type	commands_send_samples, %function
 376              	commands_send_samples:
 377              	.LFB123:
 378              		.loc 1 549 0
 379              		.cfi_startproc
 380              		@ args = 0, pretend = 0, frame = 0
 381              		@ frame_needed = 1, uses_anonymous_args = 0
 382              	.LVL20:
 383 0000 F8B5     		push	{r3, r4, r5, r6, r7, lr}
 384              		.cfi_def_cfa_offset 24
 385              		.cfi_offset 3, -24
 386              		.cfi_offset 4, -20
 387              		.cfi_offset 5, -16
 388              		.cfi_offset 6, -12
 389              		.cfi_offset 7, -8
 390              		.cfi_offset 14, -4
 391              		.loc 1 550 0
 392 0002 01F10803 		add	r3, r1, #8
ARM GAS  C:\Users\jsyoon\AppData\Local\Temp\cciv7kup.s 			page 8


 393 0006 23F00703 		bic	r3, r3, #7
 394              		.loc 1 549 0
 395 000a 00AF     		add	r7, sp, #0
 396              		.cfi_def_cfa_register 7
 397              		.loc 1 550 0
 398 000c ADEB030D 		sub	sp, sp, r3
 399              	.LBB27:
 400              		.loc 1 555 0
 401 0010 0029     		cmp	r1, #0
 402              	.LBE27:
 403              		.loc 1 553 0
 404 0012 4FF01003 		mov	r3, #16
 405 0016 8DF80030 		strb	r3, [sp]
 406              		.loc 1 550 0
 407 001a 6E46     		mov	r6, sp
 408              	.LVL21:
 409              	.LBB28:
 410              		.loc 1 555 0
 411 001c 11DD     		ble	.L40
 412 001e 421E     		subs	r2, r0, #1
 413 0020 6B46     		mov	r3, sp
 414 0022 0DEB0105 		add	r5, sp, r1
 415              	.LVL22:
 416              	.L38:
 417              		.loc 1 556 0 discriminator 2
 418 0026 12F8014F 		ldrb	r4, [r2, #1]!	@ zero_extendqisi2
 419              	.LVL23:
 420 002a 03F8014F 		strb	r4, [r3, #1]!
 421              	.LVL24:
 422              		.loc 1 555 0 discriminator 2
 423 002e AB42     		cmp	r3, r5
 424 0030 F9D1     		bne	.L38
 425 0032 0131     		adds	r1, r1, #1
 426              	.LVL25:
 427              	.L36:
 428              	.LBE28:
 429              	.LBB29:
 430              	.LBB30:
 431              		.loc 1 87 0
 432 0034 044B     		ldr	r3, .L45
 433 0036 1B68     		ldr	r3, [r3]
 434 0038 0BB1     		cbz	r3, .L35
 435              		.loc 1 88 0
 436 003a 3046     		mov	r0, r6
 437              	.LVL26:
 438 003c 9847     		blx	r3
 439              	.LVL27:
 440              	.L35:
 441              	.LBE30:
 442              	.LBE29:
 443              		.loc 1 560 0
 444 003e BD46     		mov	sp, r7
 445              		@ sp needed
 446 0040 F8BD     		pop	{r3, r4, r5, r6, r7, pc}
 447              	.LVL28:
 448              	.L40:
 449              	.LBB31:
ARM GAS  C:\Users\jsyoon\AppData\Local\Temp\cciv7kup.s 			page 9


 450              		.loc 1 555 0
 451 0042 0121     		movs	r1, #1
 452              	.LVL29:
 453 0044 F6E7     		b	.L36
 454              	.L46:
 455 0046 00BF     		.align	2
 456              	.L45:
 457 0048 00000000 		.word	.LANCHOR4
 458              	.LBE31:
 459              		.cfi_endproc
 460              	.LFE123:
 461              		.size	commands_send_samples, .-commands_send_samples
 462 004c AFF30080 		.section	.text.commands_send_rotor_pos,"ax",%progbits
 463              		.align	2
 464              		.p2align 4,,15
 465              		.global	commands_send_rotor_pos
 466              		.thumb
 467              		.thumb_func
 468              		.type	commands_send_rotor_pos, %function
 469              	commands_send_rotor_pos:
 470              	.LFB124:
 471              		.loc 1 562 0
 472              		.cfi_startproc
 473              		@ args = 0, pretend = 0, frame = 16
 474              		@ frame_needed = 0, uses_anonymous_args = 0
 475              	.LVL30:
 476 0000 10B5     		push	{r4, lr}
 477              		.cfi_def_cfa_offset 8
 478              		.cfi_offset 4, -8
 479              		.cfi_offset 14, -4
 480              		.loc 1 567 0
 481 0002 DFED0D7A 		flds	s15, .L52
 482              		.loc 1 562 0
 483 0006 84B0     		sub	sp, sp, #16
 484              		.cfi_def_cfa_offset 24
 485              		.loc 1 566 0
 486 0008 04AC     		add	r4, sp, #16
 487              		.loc 1 567 0
 488 000a 20EE270A 		fmuls	s0, s0, s15
 489              	.LVL31:
 490              		.loc 1 566 0
 491 000e 1323     		movs	r3, #19
 492 0010 04F8083D 		strb	r3, [r4, #-8]!
 493              		.loc 1 567 0
 494 0014 BDEEC00A 		ftosizs	s0, s0
 495              		.loc 1 566 0
 496 0018 0123     		movs	r3, #1
 497              		.loc 1 567 0
 498 001a 10EE101A 		fmrs	r1, s0	@ int
 499 001e 2046     		mov	r0, r4
 500 0020 01AA     		add	r2, sp, #4
 501              		.loc 1 566 0
 502 0022 0193     		str	r3, [sp, #4]
 503              		.loc 1 567 0
 504 0024 FFF7FEFF 		bl	buffer_append_int32
 505              	.LVL32:
 506              	.LBB32:
ARM GAS  C:\Users\jsyoon\AppData\Local\Temp\cciv7kup.s 			page 10


 507              	.LBB33:
 508              		.loc 1 87 0
 509 0028 044B     		ldr	r3, .L52+4
 510              	.LBE33:
 511              	.LBE32:
 512              		.loc 1 569 0
 513 002a 0199     		ldr	r1, [sp, #4]
 514              	.LVL33:
 515              	.LBB35:
 516              	.LBB34:
 517              		.loc 1 87 0
 518 002c 1B68     		ldr	r3, [r3]
 519 002e 0BB1     		cbz	r3, .L47
 520              		.loc 1 88 0
 521 0030 2046     		mov	r0, r4
 522 0032 9847     		blx	r3
 523              	.LVL34:
 524              	.L47:
 525              	.LBE34:
 526              	.LBE35:
 527              		.loc 1 570 0
 528 0034 04B0     		add	sp, sp, #16
 529              		@ sp needed
 530 0036 10BD     		pop	{r4, pc}
 531              	.LVL35:
 532              	.L53:
 533              		.align	2
 534              	.L52:
 535 0038 0050C347 		.word	1203982336
 536 003c 00000000 		.word	.LANCHOR4
 537              		.cfi_endproc
 538              	.LFE124:
 539              		.size	commands_send_rotor_pos, .-commands_send_rotor_pos
 540              		.section	.text.commands_send_experiment_samples,"ax",%progbits
 541              		.align	2
 542              		.p2align 4,,15
 543              		.global	commands_send_experiment_samples
 544              		.thumb
 545              		.thumb_func
 546              		.type	commands_send_experiment_samples, %function
 547              	commands_send_experiment_samples:
 548              	.LFB125:
 549              		.loc 1 572 0
 550              		.cfi_startproc
 551              		@ args = 0, pretend = 0, frame = 8
 552              		@ frame_needed = 1, uses_anonymous_args = 0
 553              	.LVL36:
 554 0000 2DE9F043 		push	{r4, r5, r6, r7, r8, r9, lr}
 555              		.cfi_def_cfa_offset 28
 556              		.cfi_offset 4, -28
 557              		.cfi_offset 5, -24
 558              		.cfi_offset 6, -20
 559              		.cfi_offset 7, -16
 560              		.cfi_offset 8, -12
 561              		.cfi_offset 9, -8
 562              		.cfi_offset 14, -4
 563 0004 2DED028B 		fstmfdd	sp!, {d8}
ARM GAS  C:\Users\jsyoon\AppData\Local\Temp\cciv7kup.s 			page 11


 564              		.cfi_def_cfa_offset 36
 565              		.cfi_offset 80, -36
 566              		.loc 1 573 0
 567 0008 8B00     		lsls	r3, r1, #2
 568              		.loc 1 572 0
 569 000a 83B0     		sub	sp, sp, #12
 570              		.cfi_def_cfa_offset 48
 571              		.loc 1 573 0
 572 000c FF2B     		cmp	r3, #255
 573              		.loc 1 572 0
 574 000e 0E46     		mov	r6, r1
 575 0010 00AF     		add	r7, sp, #0
 576              		.cfi_def_cfa_register 7
 577 0012 E946     		mov	r9, sp
 578              		.loc 1 573 0
 579 0014 26DC     		bgt	.L54
 580              	.LVL37:
 581              		.loc 1 577 0
 582 0016 0833     		adds	r3, r3, #8
 583              	.LVL38:
 584 0018 23F00703 		bic	r3, r3, #7
 585              	.LVL39:
 586 001c ADEB030D 		sub	sp, sp, r3
 587              		.loc 1 580 0
 588 0020 0121     		movs	r1, #1
 589              	.LVL40:
 590 0022 1423     		movs	r3, #20
 591              	.LBB36:
 592              		.loc 1 582 0
 593 0024 002E     		cmp	r6, #0
 594              	.LBE36:
 595              		.loc 1 580 0
 596 0026 8DF80030 		strb	r3, [sp]
 597              		.loc 1 577 0
 598 002a E846     		mov	r8, sp
 599              	.LVL41:
 600              		.loc 1 580 0
 601 002c 7960     		str	r1, [r7, #4]
 602              	.LBB37:
 603              		.loc 1 582 0
 604 002e 13DD     		ble	.L56
 605              		.loc 1 583 0
 606 0030 9FED0F8A 		flds	s16, .L65
 607 0034 0546     		mov	r5, r0
 608              		.loc 1 582 0
 609 0036 0024     		movs	r4, #0
 610              	.LVL42:
 611              	.L58:
 612              		.loc 1 583 0 discriminator 2
 613 0038 F5EC017A 		fldmias	r5!, {s15}
 614 003c 67EE887A 		fmuls	s15, s15, s16
 615              		.loc 1 582 0 discriminator 2
 616 0040 0134     		adds	r4, r4, #1
 617              	.LVL43:
 618              		.loc 1 583 0 discriminator 2
 619 0042 FDEEE77A 		ftosizs	s15, s15
 620 0046 4046     		mov	r0, r8
ARM GAS  C:\Users\jsyoon\AppData\Local\Temp\cciv7kup.s 			page 12


 621 0048 17EE901A 		fmrs	r1, s15	@ int
 622 004c 3A1D     		adds	r2, r7, #4
 623 004e FFF7FEFF 		bl	buffer_append_int32
 624              	.LVL44:
 625              		.loc 1 582 0 discriminator 2
 626 0052 B442     		cmp	r4, r6
 627 0054 F0D1     		bne	.L58
 628 0056 7968     		ldr	r1, [r7, #4]
 629              	.LVL45:
 630              	.L56:
 631              	.LBE37:
 632              	.LBB38:
 633              	.LBB39:
 634              		.loc 1 87 0
 635 0058 064B     		ldr	r3, .L65+4
 636 005a 1B68     		ldr	r3, [r3]
 637 005c 0BB1     		cbz	r3, .L59
 638              		.loc 1 88 0
 639 005e 4046     		mov	r0, r8
 640 0060 9847     		blx	r3
 641              	.LVL46:
 642              	.L59:
 643              	.LBE39:
 644              	.LBE38:
 645 0062 CD46     		mov	sp, r9
 646              	.LVL47:
 647              	.L54:
 648              		.loc 1 587 0
 649 0064 0C37     		adds	r7, r7, #12
 650 0066 BD46     		mov	sp, r7
 651              		@ sp needed
 652 0068 BDEC028B 		fldmfdd	sp!, {d8}
 653 006c BDE8F083 		pop	{r4, r5, r6, r7, r8, r9, pc}
 654              	.LVL48:
 655              	.L66:
 656              		.align	2
 657              	.L65:
 658 0070 00401C46 		.word	1176256512
 659 0074 00000000 		.word	.LANCHOR4
 660              		.cfi_endproc
 661              	.LFE125:
 662              		.size	commands_send_experiment_samples, .-commands_send_experiment_samples
 663 0078 AFF30080 		.section	.bss.send_func,"aw",%nobits
 663      AFF30080 
 664              		.align	2
 665              		.set	.LANCHOR4,. + 0
 666              		.type	send_func, %object
 667              		.size	send_func, 4
 668              	send_func:
 669 0000 00000000 		.space	4
 670              		.section	.bss.print_buffer.11219,"aw",%nobits
 671              		.align	2
 672              		.set	.LANCHOR6,. + 0
 673              		.type	print_buffer.11219, %object
 674              		.size	print_buffer.11219, 255
 675              	print_buffer.11219:
 676 0000 00000000 		.space	255
ARM GAS  C:\Users\jsyoon\AppData\Local\Temp\cciv7kup.s 			page 13


 676      00000000 
 676      00000000 
 676      00000000 
 676      00000000 
 677 00ff 00       		.section	.bss.detect_thread_wa,"aw",%nobits
 678              		.align	3
 679              		.set	.LANCHOR5,. + 0
 680              		.type	detect_thread_wa, %object
 681              		.size	detect_thread_wa, 2456
 682              	detect_thread_wa:
 683 0000 00000000 		.space	2456
 683      00000000 
 683      00000000 
 683      00000000 
 683      00000000 
 684              		.section	.bss.send_buffer,"aw",%nobits
 685              		.align	2
 686              		.set	.LANCHOR3,. + 0
 687              		.type	send_buffer, %object
 688              		.size	send_buffer, 1024
 689              	send_buffer:
 690 0000 00000000 		.space	1024
 690      00000000 
 690      00000000 
 690      00000000 
 690      00000000 
 691              		.section	.rodata.str1.4,"aMS",%progbits,1
 692              		.align	2
 693              	.LC0:
 694 0000 44657465 		.ascii	"Detect\000"
 694      637400
 695 0007 00       		.section	.bss.detect_tp,"aw",%nobits
 696              		.align	2
 697              		.set	.LANCHOR0,. + 0
 698              		.type	detect_tp, %object
 699              		.size	detect_tp, 4
 700              	detect_tp:
 701 0000 00000000 		.space	4
 702              		.section	.bss.detect_coupling_k,"aw",%nobits
 703              		.align	2
 704              		.set	.LANCHOR2,. + 0
 705              		.type	detect_coupling_k, %object
 706              		.size	detect_coupling_k, 4
 707              	detect_coupling_k:
 708 0000 00000000 		.space	4
 709              		.section	.bss.detect_cycle_int_limit,"aw",%nobits
 710              		.align	2
 711              		.set	.LANCHOR1,. + 0
 712              		.type	detect_cycle_int_limit, %object
 713              		.size	detect_cycle_int_limit, 4
 714              	detect_cycle_int_limit:
 715 0000 00000000 		.space	4
 716              		.text
 717              	.Letext0:
 718              		.file 2 "c:\\crosstools\\gcc-arm-embedded\\4.8_2014q2\\arm-none-eabi\\include\\machine\\_default_t
 719              		.file 3 "c:\\crosstools\\gcc-arm-embedded\\4.8_2014q2\\arm-none-eabi\\include\\stdint.h"
 720              		.file 4 "c:\\crosstools\\gcc-arm-embedded\\4.8_2014q2\\lib\\gcc\\arm-none-eabi\\4.8.4\\include\\st
ARM GAS  C:\Users\jsyoon\AppData\Local\Temp\cciv7kup.s 			page 14


 721              		.file 5 "ChibiOS_2.6.6/os/ports/GCC/ARMCMx/chtypes.h"
 722              		.file 6 "ChibiOS_2.6.6/os/kernel/include/chlists.h"
 723              		.file 7 "ChibiOS_2.6.6/os/kernel/include/chthreads.h"
 724              		.file 8 "ChibiOS_2.6.6/os/ports/GCC/ARMCMx/chcore_v7m.h"
 725              		.file 9 "ChibiOS_2.6.6/os/kernel/include/chschd.h"
 726              		.file 10 "ChibiOS_2.6.6/os/kernel/include/chmtx.h"
 727              		.file 11 "c:\\crosstools\\gcc-arm-embedded\\4.8_2014q2\\lib\\gcc\\arm-none-eabi\\4.8.4\\include\\s
 728              		.file 12 "<built-in>"
 729              		.file 13 "ChibiOS_2.6.6/os/ports/common/ARMCMx/CMSIS/include/core_cm4.h"
 730              		.file 14 "ChibiOS_2.6.6/os/kernel/include/chevents.h"
 731              		.file 15 "conf_general.h"
 732              		.file 16 "buffer.h"
 733              		.file 17 "c:\\crosstools\\gcc-arm-embedded\\4.8_2014q2\\arm-none-eabi\\include\\stdio.h"
 734              		.file 18 "datatypes.h"
 735              		.section	.debug_info,"",%progbits
 736              	.Ldebug_info0:
 737 0000 B40C0000 		.4byte	0xcb4
 738 0004 0400     		.2byte	0x4
 739 0006 00000000 		.4byte	.Ldebug_abbrev0
 740 000a 04       		.byte	0x4
 741 000b 01       		.uleb128 0x1
 742 000c 7D010000 		.4byte	.LASF138
 743 0010 01       		.byte	0x1
 744 0011 5D070000 		.4byte	.LASF139
 745 0015 29010000 		.4byte	.LASF140
 746 0019 A8000000 		.4byte	.Ldebug_ranges0+0xa8
 747 001d 00000000 		.4byte	0
 748 0021 00000000 		.4byte	.Ldebug_line0
 749 0025 02       		.uleb128 0x2
 750 0026 04       		.byte	0x4
 751 0027 04       		.byte	0x4
 752 0028 0B050000 		.4byte	.LASF0
 753 002c 03       		.uleb128 0x3
 754 002d 04       		.byte	0x4
 755 002e 05       		.byte	0x5
 756 002f 696E7400 		.ascii	"int\000"
 757 0033 02       		.uleb128 0x2
 758 0034 01       		.byte	0x1
 759 0035 06       		.byte	0x6
 760 0036 DF000000 		.4byte	.LASF1
 761 003a 04       		.uleb128 0x4
 762 003b 56000000 		.4byte	.LASF5
 763 003f 02       		.byte	0x2
 764 0040 1C       		.byte	0x1c
 765 0041 45000000 		.4byte	0x45
 766 0045 02       		.uleb128 0x2
 767 0046 01       		.byte	0x1
 768 0047 08       		.byte	0x8
 769 0048 58050000 		.4byte	.LASF2
 770 004c 02       		.uleb128 0x2
 771 004d 02       		.byte	0x2
 772 004e 05       		.byte	0x5
 773 004f 70050000 		.4byte	.LASF3
 774 0053 02       		.uleb128 0x2
 775 0054 02       		.byte	0x2
 776 0055 07       		.byte	0x7
 777 0056 9A030000 		.4byte	.LASF4
ARM GAS  C:\Users\jsyoon\AppData\Local\Temp\cciv7kup.s 			page 15


 778 005a 04       		.uleb128 0x4
 779 005b 3E040000 		.4byte	.LASF6
 780 005f 02       		.byte	0x2
 781 0060 37       		.byte	0x37
 782 0061 65000000 		.4byte	0x65
 783 0065 02       		.uleb128 0x2
 784 0066 04       		.byte	0x4
 785 0067 05       		.byte	0x5
 786 0068 59010000 		.4byte	.LASF7
 787 006c 04       		.uleb128 0x4
 788 006d E6020000 		.4byte	.LASF8
 789 0071 02       		.byte	0x2
 790 0072 38       		.byte	0x38
 791 0073 77000000 		.4byte	0x77
 792 0077 02       		.uleb128 0x2
 793 0078 04       		.byte	0x4
 794 0079 07       		.byte	0x7
 795 007a EB000000 		.4byte	.LASF9
 796 007e 02       		.uleb128 0x2
 797 007f 08       		.byte	0x8
 798 0080 05       		.byte	0x5
 799 0081 D1000000 		.4byte	.LASF10
 800 0085 04       		.uleb128 0x4
 801 0086 00050000 		.4byte	.LASF11
 802 008a 02       		.byte	0x2
 803 008b 4E       		.byte	0x4e
 804 008c 90000000 		.4byte	0x90
 805 0090 02       		.uleb128 0x2
 806 0091 08       		.byte	0x8
 807 0092 07       		.byte	0x7
 808 0093 76030000 		.4byte	.LASF12
 809 0097 02       		.uleb128 0x2
 810 0098 04       		.byte	0x4
 811 0099 07       		.byte	0x7
 812 009a 4F030000 		.4byte	.LASF13
 813 009e 04       		.uleb128 0x4
 814 009f 2C070000 		.4byte	.LASF14
 815 00a3 03       		.byte	0x3
 816 00a4 2A       		.byte	0x2a
 817 00a5 3A000000 		.4byte	0x3a
 818 00a9 04       		.uleb128 0x4
 819 00aa 50050000 		.4byte	.LASF15
 820 00ae 03       		.byte	0x3
 821 00af 41       		.byte	0x41
 822 00b0 5A000000 		.4byte	0x5a
 823 00b4 04       		.uleb128 0x4
 824 00b5 CA060000 		.4byte	.LASF16
 825 00b9 03       		.byte	0x3
 826 00ba 42       		.byte	0x42
 827 00bb 6C000000 		.4byte	0x6c
 828 00bf 04       		.uleb128 0x4
 829 00c0 B1040000 		.4byte	.LASF17
 830 00c4 03       		.byte	0x3
 831 00c5 4E       		.byte	0x4e
 832 00c6 85000000 		.4byte	0x85
 833 00ca 04       		.uleb128 0x4
 834 00cb 16000000 		.4byte	.LASF18
ARM GAS  C:\Users\jsyoon\AppData\Local\Temp\cciv7kup.s 			page 16


 835 00cf 04       		.byte	0x4
 836 00d0 D4       		.byte	0xd4
 837 00d1 97000000 		.4byte	0x97
 838 00d5 02       		.uleb128 0x2
 839 00d6 01       		.byte	0x1
 840 00d7 02       		.byte	0x2
 841 00d8 4A050000 		.4byte	.LASF19
 842 00dc 04       		.uleb128 0x4
 843 00dd 07040000 		.4byte	.LASF20
 844 00e1 05       		.byte	0x5
 845 00e2 2C       		.byte	0x2c
 846 00e3 9E000000 		.4byte	0x9e
 847 00e7 04       		.uleb128 0x4
 848 00e8 62010000 		.4byte	.LASF21
 849 00ec 05       		.byte	0x5
 850 00ed 2D       		.byte	0x2d
 851 00ee 9E000000 		.4byte	0x9e
 852 00f2 04       		.uleb128 0x4
 853 00f3 1B050000 		.4byte	.LASF22
 854 00f7 05       		.byte	0x5
 855 00f8 2E       		.byte	0x2e
 856 00f9 9E000000 		.4byte	0x9e
 857 00fd 04       		.uleb128 0x4
 858 00fe 1F010000 		.4byte	.LASF23
 859 0102 05       		.byte	0x5
 860 0103 2F       		.byte	0x2f
 861 0104 9E000000 		.4byte	0x9e
 862 0108 04       		.uleb128 0x4
 863 0109 42050000 		.4byte	.LASF24
 864 010d 05       		.byte	0x5
 865 010e 30       		.byte	0x30
 866 010f B4000000 		.4byte	0xb4
 867 0113 04       		.uleb128 0x4
 868 0114 DE030000 		.4byte	.LASF25
 869 0118 05       		.byte	0x5
 870 0119 31       		.byte	0x31
 871 011a A9000000 		.4byte	0xa9
 872 011e 04       		.uleb128 0x4
 873 011f 2C040000 		.4byte	.LASF26
 874 0123 05       		.byte	0x5
 875 0124 33       		.byte	0x33
 876 0125 B4000000 		.4byte	0xb4
 877 0129 04       		.uleb128 0x4
 878 012a 20060000 		.4byte	.LASF27
 879 012e 05       		.byte	0x5
 880 012f 35       		.byte	0x35
 881 0130 B4000000 		.4byte	0xb4
 882 0134 04       		.uleb128 0x4
 883 0135 BD050000 		.4byte	.LASF28
 884 0139 06       		.byte	0x6
 885 013a 2A       		.byte	0x2a
 886 013b 3F010000 		.4byte	0x13f
 887 013f 05       		.uleb128 0x5
 888 0140 BD050000 		.4byte	.LASF28
 889 0144 48       		.byte	0x48
 890 0145 07       		.byte	0x7
 891 0146 5E       		.byte	0x5e
ARM GAS  C:\Users\jsyoon\AppData\Local\Temp\cciv7kup.s 			page 17


 892 0147 3C020000 		.4byte	0x23c
 893 014b 06       		.uleb128 0x6
 894 014c 9B050000 		.4byte	.LASF29
 895 0150 07       		.byte	0x7
 896 0151 5F       		.byte	0x5f
 897 0152 5D020000 		.4byte	0x25d
 898 0156 00       		.byte	0
 899 0157 06       		.uleb128 0x6
 900 0158 3B050000 		.4byte	.LASF30
 901 015c 07       		.byte	0x7
 902 015d 61       		.byte	0x61
 903 015e 5D020000 		.4byte	0x25d
 904 0162 04       		.byte	0x4
 905 0163 06       		.uleb128 0x6
 906 0164 CA000000 		.4byte	.LASF31
 907 0168 07       		.byte	0x7
 908 0169 63       		.byte	0x63
 909 016a 08010000 		.4byte	0x108
 910 016e 08       		.byte	0x8
 911 016f 06       		.uleb128 0x6
 912 0170 05080000 		.4byte	.LASF32
 913 0174 07       		.byte	0x7
 914 0175 64       		.byte	0x64
 915 0176 F2030000 		.4byte	0x3f2
 916 017a 0C       		.byte	0xc
 917 017b 06       		.uleb128 0x6
 918 017c D5020000 		.4byte	.LASF33
 919 0180 07       		.byte	0x7
 920 0181 66       		.byte	0x66
 921 0182 5D020000 		.4byte	0x25d
 922 0186 10       		.byte	0x10
 923 0187 06       		.uleb128 0x6
 924 0188 BA040000 		.4byte	.LASF34
 925 018c 07       		.byte	0x7
 926 018d 67       		.byte	0x67
 927 018e 5D020000 		.4byte	0x25d
 928 0192 14       		.byte	0x14
 929 0193 06       		.uleb128 0x6
 930 0194 A6070000 		.4byte	.LASF35
 931 0198 07       		.byte	0x7
 932 0199 6E       		.byte	0x6e
 933 019a F2040000 		.4byte	0x4f2
 934 019e 18       		.byte	0x18
 935 019f 06       		.uleb128 0x6
 936 01a0 7A050000 		.4byte	.LASF36
 937 01a4 07       		.byte	0x7
 938 01a5 79       		.byte	0x79
 939 01a6 E7000000 		.4byte	0xe7
 940 01aa 1C       		.byte	0x1c
 941 01ab 06       		.uleb128 0x6
 942 01ac AE050000 		.4byte	.LASF37
 943 01b0 07       		.byte	0x7
 944 01b1 7D       		.byte	0x7d
 945 01b2 DC000000 		.4byte	0xdc
 946 01b6 1D       		.byte	0x1d
 947 01b7 06       		.uleb128 0x6
 948 01b8 E3060000 		.4byte	.LASF38
ARM GAS  C:\Users\jsyoon\AppData\Local\Temp\cciv7kup.s 			page 18


 949 01bc 07       		.byte	0x7
 950 01bd 82       		.byte	0x82
 951 01be F2000000 		.4byte	0xf2
 952 01c2 1E       		.byte	0x1e
 953 01c3 06       		.uleb128 0x6
 954 01c4 F6040000 		.4byte	.LASF39
 955 01c8 07       		.byte	0x7
 956 01c9 88       		.byte	0x88
 957 01ca FD000000 		.4byte	0xfd
 958 01ce 1F       		.byte	0x1f
 959 01cf 06       		.uleb128 0x6
 960 01d0 A0060000 		.4byte	.LASF40
 961 01d4 07       		.byte	0x7
 962 01d5 8F       		.byte	0x8f
 963 01d6 1A040000 		.4byte	0x41a
 964 01da 20       		.byte	0x20
 965 01db 07       		.uleb128 0x7
 966 01dc 705F7500 		.ascii	"p_u\000"
 967 01e0 07       		.byte	0x7
 968 01e1 B4       		.byte	0xb4
 969 01e2 BD040000 		.4byte	0x4bd
 970 01e6 24       		.byte	0x24
 971 01e7 06       		.uleb128 0x6
 972 01e8 0B080000 		.4byte	.LASF41
 973 01ec 07       		.byte	0x7
 974 01ed B9       		.byte	0xb9
 975 01ee 83020000 		.4byte	0x283
 976 01f2 28       		.byte	0x28
 977 01f3 06       		.uleb128 0x6
 978 01f4 AE060000 		.4byte	.LASF42
 979 01f8 07       		.byte	0x7
 980 01f9 BF       		.byte	0xbf
 981 01fa 63020000 		.4byte	0x263
 982 01fe 2C       		.byte	0x2c
 983 01ff 06       		.uleb128 0x6
 984 0200 BF070000 		.4byte	.LASF43
 985 0204 07       		.byte	0x7
 986 0205 C3       		.byte	0xc3
 987 0206 13010000 		.4byte	0x113
 988 020a 34       		.byte	0x34
 989 020b 06       		.uleb128 0x6
 990 020c A6040000 		.4byte	.LASF44
 991 0210 07       		.byte	0x7
 992 0211 C9       		.byte	0xc9
 993 0212 1E010000 		.4byte	0x11e
 994 0216 38       		.byte	0x38
 995 0217 06       		.uleb128 0x6
 996 0218 66050000 		.4byte	.LASF45
 997 021c 07       		.byte	0x7
 998 021d D0       		.byte	0xd0
 999 021e 04050000 		.4byte	0x504
 1000 0222 3C       		.byte	0x3c
 1001 0223 06       		.uleb128 0x6
 1002 0224 2A060000 		.4byte	.LASF46
 1003 0228 07       		.byte	0x7
 1004 0229 D4       		.byte	0xd4
 1005 022a 08010000 		.4byte	0x108
ARM GAS  C:\Users\jsyoon\AppData\Local\Temp\cciv7kup.s 			page 19


 1006 022e 40       		.byte	0x40
 1007 022f 06       		.uleb128 0x6
 1008 0230 FD000000 		.4byte	.LASF47
 1009 0234 07       		.byte	0x7
 1010 0235 DA       		.byte	0xda
 1011 0236 99020000 		.4byte	0x299
 1012 023a 44       		.byte	0x44
 1013 023b 00       		.byte	0
 1014 023c 08       		.uleb128 0x8
 1015 023d 08       		.byte	0x8
 1016 023e 06       		.byte	0x6
 1017 023f 61       		.byte	0x61
 1018 0240 5D020000 		.4byte	0x25d
 1019 0244 06       		.uleb128 0x6
 1020 0245 9B050000 		.4byte	.LASF29
 1021 0249 06       		.byte	0x6
 1022 024a 62       		.byte	0x62
 1023 024b 5D020000 		.4byte	0x25d
 1024 024f 00       		.byte	0
 1025 0250 06       		.uleb128 0x6
 1026 0251 3B050000 		.4byte	.LASF30
 1027 0255 06       		.byte	0x6
 1028 0256 64       		.byte	0x64
 1029 0257 5D020000 		.4byte	0x25d
 1030 025b 04       		.byte	0x4
 1031 025c 00       		.byte	0
 1032 025d 09       		.uleb128 0x9
 1033 025e 04       		.byte	0x4
 1034 025f 34010000 		.4byte	0x134
 1035 0263 04       		.uleb128 0x4
 1036 0264 8D000000 		.4byte	.LASF48
 1037 0268 06       		.byte	0x6
 1038 0269 66       		.byte	0x66
 1039 026a 3C020000 		.4byte	0x23c
 1040 026e 08       		.uleb128 0x8
 1041 026f 04       		.byte	0x4
 1042 0270 06       		.byte	0x6
 1043 0271 6B       		.byte	0x6b
 1044 0272 83020000 		.4byte	0x283
 1045 0276 06       		.uleb128 0x6
 1046 0277 9B050000 		.4byte	.LASF29
 1047 027b 06       		.byte	0x6
 1048 027c 6D       		.byte	0x6d
 1049 027d 5D020000 		.4byte	0x25d
 1050 0281 00       		.byte	0
 1051 0282 00       		.byte	0
 1052 0283 04       		.uleb128 0x4
 1053 0284 20040000 		.4byte	.LASF49
 1054 0288 06       		.byte	0x6
 1055 0289 70       		.byte	0x70
 1056 028a 6E020000 		.4byte	0x26e
 1057 028e 04       		.uleb128 0x4
 1058 028f F1020000 		.4byte	.LASF50
 1059 0293 08       		.byte	0x8
 1060 0294 E5       		.byte	0xe5
 1061 0295 99020000 		.4byte	0x299
 1062 0299 0A       		.uleb128 0xa
ARM GAS  C:\Users\jsyoon\AppData\Local\Temp\cciv7kup.s 			page 20


 1063 029a 04       		.byte	0x4
 1064 029b 04       		.uleb128 0x4
 1065 029c 48040000 		.4byte	.LASF51
 1066 02a0 08       		.byte	0x8
 1067 02a1 EB       		.byte	0xeb
 1068 02a2 BF000000 		.4byte	0xbf
 1069 02a6 0B       		.uleb128 0xb
 1070 02a7 A7060000 		.4byte	.LASF52
 1071 02ab 64       		.byte	0x64
 1072 02ac 08       		.byte	0x8
 1073 02ad 0C01     		.2byte	0x10c
 1074 02af F2030000 		.4byte	0x3f2
 1075 02b3 0C       		.uleb128 0xc
 1076 02b4 73313600 		.ascii	"s16\000"
 1077 02b8 08       		.byte	0x8
 1078 02b9 0E01     		.2byte	0x10e
 1079 02bb 8E020000 		.4byte	0x28e
 1080 02bf 00       		.byte	0
 1081 02c0 0C       		.uleb128 0xc
 1082 02c1 73313700 		.ascii	"s17\000"
 1083 02c5 08       		.byte	0x8
 1084 02c6 0F01     		.2byte	0x10f
 1085 02c8 8E020000 		.4byte	0x28e
 1086 02cc 04       		.byte	0x4
 1087 02cd 0C       		.uleb128 0xc
 1088 02ce 73313800 		.ascii	"s18\000"
 1089 02d2 08       		.byte	0x8
 1090 02d3 1001     		.2byte	0x110
 1091 02d5 8E020000 		.4byte	0x28e
 1092 02d9 08       		.byte	0x8
 1093 02da 0C       		.uleb128 0xc
 1094 02db 73313900 		.ascii	"s19\000"
 1095 02df 08       		.byte	0x8
 1096 02e0 1101     		.2byte	0x111
 1097 02e2 8E020000 		.4byte	0x28e
 1098 02e6 0C       		.byte	0xc
 1099 02e7 0C       		.uleb128 0xc
 1100 02e8 73323000 		.ascii	"s20\000"
 1101 02ec 08       		.byte	0x8
 1102 02ed 1201     		.2byte	0x112
 1103 02ef 8E020000 		.4byte	0x28e
 1104 02f3 10       		.byte	0x10
 1105 02f4 0C       		.uleb128 0xc
 1106 02f5 73323100 		.ascii	"s21\000"
 1107 02f9 08       		.byte	0x8
 1108 02fa 1301     		.2byte	0x113
 1109 02fc 8E020000 		.4byte	0x28e
 1110 0300 14       		.byte	0x14
 1111 0301 0C       		.uleb128 0xc
 1112 0302 73323200 		.ascii	"s22\000"
 1113 0306 08       		.byte	0x8
 1114 0307 1401     		.2byte	0x114
 1115 0309 8E020000 		.4byte	0x28e
 1116 030d 18       		.byte	0x18
 1117 030e 0C       		.uleb128 0xc
 1118 030f 73323300 		.ascii	"s23\000"
 1119 0313 08       		.byte	0x8
ARM GAS  C:\Users\jsyoon\AppData\Local\Temp\cciv7kup.s 			page 21


 1120 0314 1501     		.2byte	0x115
 1121 0316 8E020000 		.4byte	0x28e
 1122 031a 1C       		.byte	0x1c
 1123 031b 0C       		.uleb128 0xc
 1124 031c 73323400 		.ascii	"s24\000"
 1125 0320 08       		.byte	0x8
 1126 0321 1601     		.2byte	0x116
 1127 0323 8E020000 		.4byte	0x28e
 1128 0327 20       		.byte	0x20
 1129 0328 0C       		.uleb128 0xc
 1130 0329 73323500 		.ascii	"s25\000"
 1131 032d 08       		.byte	0x8
 1132 032e 1701     		.2byte	0x117
 1133 0330 8E020000 		.4byte	0x28e
 1134 0334 24       		.byte	0x24
 1135 0335 0C       		.uleb128 0xc
 1136 0336 73323600 		.ascii	"s26\000"
 1137 033a 08       		.byte	0x8
 1138 033b 1801     		.2byte	0x118
 1139 033d 8E020000 		.4byte	0x28e
 1140 0341 28       		.byte	0x28
 1141 0342 0C       		.uleb128 0xc
 1142 0343 73323700 		.ascii	"s27\000"
 1143 0347 08       		.byte	0x8
 1144 0348 1901     		.2byte	0x119
 1145 034a 8E020000 		.4byte	0x28e
 1146 034e 2C       		.byte	0x2c
 1147 034f 0C       		.uleb128 0xc
 1148 0350 73323800 		.ascii	"s28\000"
 1149 0354 08       		.byte	0x8
 1150 0355 1A01     		.2byte	0x11a
 1151 0357 8E020000 		.4byte	0x28e
 1152 035b 30       		.byte	0x30
 1153 035c 0C       		.uleb128 0xc
 1154 035d 73323900 		.ascii	"s29\000"
 1155 0361 08       		.byte	0x8
 1156 0362 1B01     		.2byte	0x11b
 1157 0364 8E020000 		.4byte	0x28e
 1158 0368 34       		.byte	0x34
 1159 0369 0C       		.uleb128 0xc
 1160 036a 73333000 		.ascii	"s30\000"
 1161 036e 08       		.byte	0x8
 1162 036f 1C01     		.2byte	0x11c
 1163 0371 8E020000 		.4byte	0x28e
 1164 0375 38       		.byte	0x38
 1165 0376 0C       		.uleb128 0xc
 1166 0377 73333100 		.ascii	"s31\000"
 1167 037b 08       		.byte	0x8
 1168 037c 1D01     		.2byte	0x11d
 1169 037e 8E020000 		.4byte	0x28e
 1170 0382 3C       		.byte	0x3c
 1171 0383 0C       		.uleb128 0xc
 1172 0384 723400   		.ascii	"r4\000"
 1173 0387 08       		.byte	0x8
 1174 0388 1F01     		.2byte	0x11f
 1175 038a 8E020000 		.4byte	0x28e
 1176 038e 40       		.byte	0x40
ARM GAS  C:\Users\jsyoon\AppData\Local\Temp\cciv7kup.s 			page 22


 1177 038f 0C       		.uleb128 0xc
 1178 0390 723500   		.ascii	"r5\000"
 1179 0393 08       		.byte	0x8
 1180 0394 2001     		.2byte	0x120
 1181 0396 8E020000 		.4byte	0x28e
 1182 039a 44       		.byte	0x44
 1183 039b 0C       		.uleb128 0xc
 1184 039c 723600   		.ascii	"r6\000"
 1185 039f 08       		.byte	0x8
 1186 03a0 2101     		.2byte	0x121
 1187 03a2 8E020000 		.4byte	0x28e
 1188 03a6 48       		.byte	0x48
 1189 03a7 0C       		.uleb128 0xc
 1190 03a8 723700   		.ascii	"r7\000"
 1191 03ab 08       		.byte	0x8
 1192 03ac 2201     		.2byte	0x122
 1193 03ae 8E020000 		.4byte	0x28e
 1194 03b2 4C       		.byte	0x4c
 1195 03b3 0C       		.uleb128 0xc
 1196 03b4 723800   		.ascii	"r8\000"
 1197 03b7 08       		.byte	0x8
 1198 03b8 2301     		.2byte	0x123
 1199 03ba 8E020000 		.4byte	0x28e
 1200 03be 50       		.byte	0x50
 1201 03bf 0C       		.uleb128 0xc
 1202 03c0 723900   		.ascii	"r9\000"
 1203 03c3 08       		.byte	0x8
 1204 03c4 2401     		.2byte	0x124
 1205 03c6 8E020000 		.4byte	0x28e
 1206 03ca 54       		.byte	0x54
 1207 03cb 0C       		.uleb128 0xc
 1208 03cc 72313000 		.ascii	"r10\000"
 1209 03d0 08       		.byte	0x8
 1210 03d1 2501     		.2byte	0x125
 1211 03d3 8E020000 		.4byte	0x28e
 1212 03d7 58       		.byte	0x58
 1213 03d8 0C       		.uleb128 0xc
 1214 03d9 72313100 		.ascii	"r11\000"
 1215 03dd 08       		.byte	0x8
 1216 03de 2601     		.2byte	0x126
 1217 03e0 8E020000 		.4byte	0x28e
 1218 03e4 5C       		.byte	0x5c
 1219 03e5 0C       		.uleb128 0xc
 1220 03e6 6C7200   		.ascii	"lr\000"
 1221 03e9 08       		.byte	0x8
 1222 03ea 2701     		.2byte	0x127
 1223 03ec 8E020000 		.4byte	0x28e
 1224 03f0 60       		.byte	0x60
 1225 03f1 00       		.byte	0
 1226 03f2 0B       		.uleb128 0xb
 1227 03f3 92030000 		.4byte	.LASF53
 1228 03f7 04       		.byte	0x4
 1229 03f8 08       		.byte	0x8
 1230 03f9 3101     		.2byte	0x131
 1231 03fb 0D040000 		.4byte	0x40d
 1232 03ff 0C       		.uleb128 0xc
 1233 0400 72313300 		.ascii	"r13\000"
ARM GAS  C:\Users\jsyoon\AppData\Local\Temp\cciv7kup.s 			page 23


 1234 0404 08       		.byte	0x8
 1235 0405 3201     		.2byte	0x132
 1236 0407 0D040000 		.4byte	0x40d
 1237 040b 00       		.byte	0
 1238 040c 00       		.byte	0
 1239 040d 09       		.uleb128 0x9
 1240 040e 04       		.byte	0x4
 1241 040f A6020000 		.4byte	0x2a6
 1242 0413 02       		.uleb128 0x2
 1243 0414 04       		.byte	0x4
 1244 0415 07       		.byte	0x7
 1245 0416 8E040000 		.4byte	.LASF54
 1246 041a 0D       		.uleb128 0xd
 1247 041b 29010000 		.4byte	0x129
 1248 041f 08       		.uleb128 0x8
 1249 0420 1C       		.byte	0x1c
 1250 0421 09       		.byte	0x9
 1251 0422 5E       		.byte	0x5e
 1252 0423 70040000 		.4byte	0x470
 1253 0427 06       		.uleb128 0x6
 1254 0428 D5050000 		.4byte	.LASF55
 1255 042c 09       		.byte	0x9
 1256 042d 5F       		.byte	0x5f
 1257 042e 63020000 		.4byte	0x263
 1258 0432 00       		.byte	0
 1259 0433 06       		.uleb128 0x6
 1260 0434 8D050000 		.4byte	.LASF56
 1261 0438 09       		.byte	0x9
 1262 0439 60       		.byte	0x60
 1263 043a 08010000 		.4byte	0x108
 1264 043e 08       		.byte	0x8
 1265 043f 06       		.uleb128 0x6
 1266 0440 C2040000 		.4byte	.LASF57
 1267 0444 09       		.byte	0x9
 1268 0445 62       		.byte	0x62
 1269 0446 F2030000 		.4byte	0x3f2
 1270 044a 0C       		.byte	0xc
 1271 044b 06       		.uleb128 0x6
 1272 044c E4030000 		.4byte	.LASF58
 1273 0450 09       		.byte	0x9
 1274 0451 65       		.byte	0x65
 1275 0452 5D020000 		.4byte	0x25d
 1276 0456 10       		.byte	0x10
 1277 0457 06       		.uleb128 0x6
 1278 0458 DE040000 		.4byte	.LASF59
 1279 045c 09       		.byte	0x9
 1280 045d 66       		.byte	0x66
 1281 045e 5D020000 		.4byte	0x25d
 1282 0462 14       		.byte	0x14
 1283 0463 06       		.uleb128 0x6
 1284 0464 D4040000 		.4byte	.LASF60
 1285 0468 09       		.byte	0x9
 1286 0469 69       		.byte	0x69
 1287 046a 5D020000 		.4byte	0x25d
 1288 046e 18       		.byte	0x18
 1289 046f 00       		.byte	0
 1290 0470 04       		.uleb128 0x4
ARM GAS  C:\Users\jsyoon\AppData\Local\Temp\cciv7kup.s 			page 24


 1291 0471 FF060000 		.4byte	.LASF61
 1292 0475 09       		.byte	0x9
 1293 0476 6B       		.byte	0x6b
 1294 0477 1F040000 		.4byte	0x41f
 1295 047b 05       		.uleb128 0x5
 1296 047c 38040000 		.4byte	.LASF62
 1297 0480 10       		.byte	0x10
 1298 0481 0A       		.byte	0xa
 1299 0482 2C       		.byte	0x2c
 1300 0483 AC040000 		.4byte	0x4ac
 1301 0487 06       		.uleb128 0x6
 1302 0488 17010000 		.4byte	.LASF63
 1303 048c 0A       		.byte	0xa
 1304 048d 2D       		.byte	0x2d
 1305 048e 63020000 		.4byte	0x263
 1306 0492 00       		.byte	0
 1307 0493 06       		.uleb128 0x6
 1308 0494 E7070000 		.4byte	.LASF64
 1309 0498 0A       		.byte	0xa
 1310 0499 2F       		.byte	0x2f
 1311 049a 5D020000 		.4byte	0x25d
 1312 049e 08       		.byte	0x8
 1313 049f 06       		.uleb128 0x6
 1314 04a0 19060000 		.4byte	.LASF65
 1315 04a4 0A       		.byte	0xa
 1316 04a5 31       		.byte	0x31
 1317 04a6 AC040000 		.4byte	0x4ac
 1318 04aa 0C       		.byte	0xc
 1319 04ab 00       		.byte	0
 1320 04ac 09       		.uleb128 0x9
 1321 04ad 04       		.byte	0x4
 1322 04ae 7B040000 		.4byte	0x47b
 1323 04b2 04       		.uleb128 0x4
 1324 04b3 38040000 		.4byte	.LASF62
 1325 04b7 0A       		.byte	0xa
 1326 04b8 33       		.byte	0x33
 1327 04b9 7B040000 		.4byte	0x47b
 1328 04bd 0E       		.uleb128 0xe
 1329 04be 04       		.byte	0x4
 1330 04bf 07       		.byte	0x7
 1331 04c0 96       		.byte	0x96
 1332 04c1 F2040000 		.4byte	0x4f2
 1333 04c5 0F       		.uleb128 0xf
 1334 04c6 2F000000 		.4byte	.LASF66
 1335 04ca 07       		.byte	0x7
 1336 04cb 9D       		.byte	0x9d
 1337 04cc 13010000 		.4byte	0x113
 1338 04d0 0F       		.uleb128 0xf
 1339 04d1 DD020000 		.4byte	.LASF67
 1340 04d5 07       		.byte	0x7
 1341 04d6 A4       		.byte	0xa4
 1342 04d7 13010000 		.4byte	0x113
 1343 04db 0F       		.uleb128 0xf
 1344 04dc 7E070000 		.4byte	.LASF68
 1345 04e0 07       		.byte	0x7
 1346 04e1 AB       		.byte	0xab
 1347 04e2 99020000 		.4byte	0x299
ARM GAS  C:\Users\jsyoon\AppData\Local\Temp\cciv7kup.s 			page 25


 1348 04e6 0F       		.uleb128 0xf
 1349 04e7 94050000 		.4byte	.LASF69
 1350 04eb 07       		.byte	0x7
 1351 04ec B2       		.byte	0xb2
 1352 04ed 1E010000 		.4byte	0x11e
 1353 04f1 00       		.byte	0
 1354 04f2 09       		.uleb128 0x9
 1355 04f3 04       		.byte	0x4
 1356 04f4 F8040000 		.4byte	0x4f8
 1357 04f8 10       		.uleb128 0x10
 1358 04f9 FD040000 		.4byte	0x4fd
 1359 04fd 02       		.uleb128 0x2
 1360 04fe 01       		.byte	0x1
 1361 04ff 08       		.byte	0x8
 1362 0500 00060000 		.4byte	.LASF70
 1363 0504 09       		.uleb128 0x9
 1364 0505 04       		.byte	0x4
 1365 0506 B2040000 		.4byte	0x4b2
 1366 050a 04       		.uleb128 0x4
 1367 050b 00000000 		.4byte	.LASF71
 1368 050f 07       		.byte	0x7
 1369 0510 E5       		.byte	0xe5
 1370 0511 15050000 		.4byte	0x515
 1371 0515 09       		.uleb128 0x9
 1372 0516 04       		.byte	0x4
 1373 0517 1B050000 		.4byte	0x51b
 1374 051b 11       		.uleb128 0x11
 1375 051c 13010000 		.4byte	0x113
 1376 0520 2A050000 		.4byte	0x52a
 1377 0524 12       		.uleb128 0x12
 1378 0525 99020000 		.4byte	0x299
 1379 0529 00       		.byte	0
 1380 052a 09       		.uleb128 0x9
 1381 052b 04       		.byte	0x4
 1382 052c 9E000000 		.4byte	0x9e
 1383 0530 13       		.uleb128 0x13
 1384 0531 01       		.byte	0x1
 1385 0532 12       		.byte	0x12
 1386 0533 0601     		.2byte	0x106
 1387 0535 E2050000 		.4byte	0x5e2
 1388 0539 14       		.uleb128 0x14
 1389 053a 5C030000 		.4byte	.LASF72
 1390 053e 00       		.sleb128 0
 1391 053f 14       		.uleb128 0x14
 1392 0540 78060000 		.4byte	.LASF73
 1393 0544 01       		.sleb128 1
 1394 0545 14       		.uleb128 0x14
 1395 0546 54060000 		.4byte	.LASF74
 1396 054a 02       		.sleb128 2
 1397 054b 14       		.uleb128 0x14
 1398 054c B8020000 		.4byte	.LASF75
 1399 0550 03       		.sleb128 3
 1400 0551 14       		.uleb128 0x14
 1401 0552 EC030000 		.4byte	.LASF76
 1402 0556 04       		.sleb128 4
 1403 0557 14       		.uleb128 0x14
 1404 0558 D9070000 		.4byte	.LASF77
ARM GAS  C:\Users\jsyoon\AppData\Local\Temp\cciv7kup.s 			page 26


 1405 055c 05       		.sleb128 5
 1406 055d 14       		.uleb128 0x14
 1407 055e 67060000 		.4byte	.LASF78
 1408 0562 06       		.sleb128 6
 1409 0563 14       		.uleb128 0x14
 1410 0564 38030000 		.4byte	.LASF79
 1411 0568 07       		.sleb128 7
 1412 0569 14       		.uleb128 0x14
 1413 056a 09070000 		.4byte	.LASF80
 1414 056e 08       		.sleb128 8
 1415 056f 14       		.uleb128 0x14
 1416 0570 BD000000 		.4byte	.LASF81
 1417 0574 09       		.sleb128 9
 1418 0575 14       		.uleb128 0x14
 1419 0576 90060000 		.4byte	.LASF82
 1420 057a 0A       		.sleb128 10
 1421 057b 14       		.uleb128 0x14
 1422 057c 68070000 		.4byte	.LASF83
 1423 0580 0B       		.sleb128 11
 1424 0581 14       		.uleb128 0x14
 1425 0582 D3060000 		.4byte	.LASF84
 1426 0586 0C       		.sleb128 12
 1427 0587 14       		.uleb128 0x14
 1428 0588 28030000 		.4byte	.LASF85
 1429 058c 0D       		.sleb128 13
 1430 058d 14       		.uleb128 0x14
 1431 058e 0F040000 		.4byte	.LASF86
 1432 0592 0E       		.sleb128 14
 1433 0593 14       		.uleb128 0x14
 1434 0594 B9060000 		.4byte	.LASF87
 1435 0598 0F       		.sleb128 15
 1436 0599 14       		.uleb128 0x14
 1437 059a 05010000 		.4byte	.LASF88
 1438 059e 10       		.sleb128 16
 1439 059f 14       		.uleb128 0x14
 1440 05a0 1D000000 		.4byte	.LASF89
 1441 05a4 11       		.sleb128 17
 1442 05a5 14       		.uleb128 0x14
 1443 05a6 FC030000 		.4byte	.LASF90
 1444 05aa 12       		.sleb128 18
 1445 05ab 14       		.uleb128 0x14
 1446 05ac C5070000 		.4byte	.LASF91
 1447 05b0 13       		.sleb128 19
 1448 05b1 14       		.uleb128 0x14
 1449 05b2 DD050000 		.4byte	.LASF92
 1450 05b6 14       		.sleb128 20
 1451 05b7 14       		.uleb128 0x14
 1452 05b8 3C060000 		.4byte	.LASF93
 1453 05bc 15       		.sleb128 21
 1454 05bd 14       		.uleb128 0x14
 1455 05be A2050000 		.4byte	.LASF94
 1456 05c2 16       		.sleb128 22
 1457 05c3 14       		.uleb128 0x14
 1458 05c4 82050000 		.4byte	.LASF95
 1459 05c8 17       		.sleb128 23
 1460 05c9 14       		.uleb128 0x14
 1461 05ca 48070000 		.4byte	.LASF96
ARM GAS  C:\Users\jsyoon\AppData\Local\Temp\cciv7kup.s 			page 27


 1462 05ce 18       		.sleb128 24
 1463 05cf 14       		.uleb128 0x14
 1464 05d0 13030000 		.4byte	.LASF97
 1465 05d4 19       		.sleb128 25
 1466 05d5 14       		.uleb128 0x14
 1467 05d6 EF070000 		.4byte	.LASF98
 1468 05da 1A       		.sleb128 26
 1469 05db 14       		.uleb128 0x14
 1470 05dc 45000000 		.4byte	.LASF99
 1471 05e0 1B       		.sleb128 27
 1472 05e1 00       		.byte	0
 1473 05e2 0D       		.uleb128 0xd
 1474 05e3 A9000000 		.4byte	0xa9
 1475 05e7 09       		.uleb128 0x9
 1476 05e8 04       		.byte	0x4
 1477 05e9 45000000 		.4byte	0x45
 1478 05ed 09       		.uleb128 0x9
 1479 05ee 04       		.byte	0x4
 1480 05ef FD040000 		.4byte	0x4fd
 1481 05f3 02       		.uleb128 0x2
 1482 05f4 08       		.byte	0x8
 1483 05f5 04       		.byte	0x4
 1484 05f6 C4050000 		.4byte	.LASF100
 1485 05fa 02       		.uleb128 0x2
 1486 05fb 08       		.byte	0x8
 1487 05fc 04       		.byte	0x4
 1488 05fd F4050000 		.4byte	.LASF101
 1489 0601 04       		.uleb128 0x4
 1490 0602 97040000 		.4byte	.LASF102
 1491 0606 0B       		.byte	0xb
 1492 0607 28       		.byte	0x28
 1493 0608 0C060000 		.4byte	0x60c
 1494 060c 05       		.uleb128 0x5
 1495 060d FA020000 		.4byte	.LASF103
 1496 0611 04       		.byte	0x4
 1497 0612 0C       		.byte	0xc
 1498 0613 00       		.byte	0
 1499 0614 23060000 		.4byte	0x623
 1500 0618 15       		.uleb128 0x15
 1501 0619 D0020000 		.4byte	.LASF104
 1502 061d 99020000 		.4byte	0x299
 1503 0621 00       		.byte	0
 1504 0622 00       		.byte	0
 1505 0623 04       		.uleb128 0x4
 1506 0624 60000000 		.4byte	.LASF105
 1507 0628 0B       		.byte	0xb
 1508 0629 62       		.byte	0x62
 1509 062a 01060000 		.4byte	0x601
 1510 062e 16       		.uleb128 0x16
 1511 062f EA060000 		.4byte	.LASF134
 1512 0633 01       		.byte	0x1
 1513 0634 56       		.byte	0x56
 1514 0635 01       		.byte	0x1
 1515 0636 51060000 		.4byte	0x651
 1516 063a 17       		.uleb128 0x17
 1517 063b 8D030000 		.4byte	.LASF106
 1518 063f 01       		.byte	0x1
ARM GAS  C:\Users\jsyoon\AppData\Local\Temp\cciv7kup.s 			page 28


 1519 0640 56       		.byte	0x56
 1520 0641 E7050000 		.4byte	0x5e7
 1521 0645 18       		.uleb128 0x18
 1522 0646 6C656E00 		.ascii	"len\000"
 1523 064a 01       		.byte	0x1
 1524 064b 56       		.byte	0x56
 1525 064c 97000000 		.4byte	0x97
 1526 0650 00       		.byte	0
 1527 0651 19       		.uleb128 0x19
 1528 0652 05060000 		.4byte	.LASF141
 1529 0656 01       		.byte	0x1
 1530 0657 4D02     		.2byte	0x24d
 1531 0659 13010000 		.4byte	0x113
 1532 065d 00000000 		.4byte	.LFB126
 1533 0661 BC000000 		.4byte	.LFE126-.LFB126
 1534 0665 01       		.uleb128 0x1
 1535 0666 9C       		.byte	0x9c
 1536 0667 45070000 		.4byte	0x745
 1537 066b 1A       		.uleb128 0x1a
 1538 066c 61726700 		.ascii	"arg\000"
 1539 0670 01       		.byte	0x1
 1540 0671 4D02     		.2byte	0x24d
 1541 0673 99020000 		.4byte	0x299
 1542 0677 00000000 		.4byte	.LLST0
 1543 067b 1B       		.uleb128 0x1b
 1544 067c 00000000 		.4byte	.Ldebug_ranges0+0
 1545 0680 1C       		.uleb128 0x1c
 1546 0681 696E6400 		.ascii	"ind\000"
 1547 0685 01       		.byte	0x1
 1548 0686 5D02     		.2byte	0x25d
 1549 0688 A9000000 		.4byte	0xa9
 1550 068c 02       		.uleb128 0x2
 1551 068d 91       		.byte	0x91
 1552 068e 54       		.sleb128 -44
 1553 068f 1D       		.uleb128 0x1d
 1554 0690 2E060000 		.4byte	0x62e
 1555 0694 7E000000 		.4byte	.LBB16
 1556 0698 28000000 		.4byte	.Ldebug_ranges0+0x28
 1557 069c 01       		.byte	0x1
 1558 069d 6102     		.2byte	0x261
 1559 069f C2060000 		.4byte	0x6c2
 1560 06a3 1E       		.uleb128 0x1e
 1561 06a4 45060000 		.4byte	0x645
 1562 06a8 21000000 		.4byte	.LLST1
 1563 06ac 1E       		.uleb128 0x1e
 1564 06ad 3A060000 		.4byte	0x63a
 1565 06b1 34000000 		.4byte	.LLST2
 1566 06b5 1F       		.uleb128 0x1f
 1567 06b6 8A000000 		.4byte	.LVL7
 1568 06ba 20       		.uleb128 0x20
 1569 06bb 01       		.uleb128 0x1
 1570 06bc 50       		.byte	0x50
 1571 06bd 02       		.uleb128 0x2
 1572 06be 77       		.byte	0x77
 1573 06bf 00       		.sleb128 0
 1574 06c0 00       		.byte	0
 1575 06c1 00       		.byte	0
ARM GAS  C:\Users\jsyoon\AppData\Local\Temp\cciv7kup.s 			page 29


 1576 06c2 21       		.uleb128 0x21
 1577 06c3 2E000000 		.4byte	.LVL2
 1578 06c7 0D0C0000 		.4byte	0xc0d
 1579 06cb D5060000 		.4byte	0x6d5
 1580 06cf 20       		.uleb128 0x20
 1581 06d0 01       		.uleb128 0x1
 1582 06d1 50       		.byte	0x50
 1583 06d2 01       		.uleb128 0x1
 1584 06d3 31       		.byte	0x31
 1585 06d4 00       		.byte	0
 1586 06d5 21       		.uleb128 0x21
 1587 06d6 44000000 		.4byte	.LVL3
 1588 06da 220C0000 		.4byte	0xc22
 1589 06de 13070000 		.4byte	0x713
 1590 06e2 20       		.uleb128 0x20
 1591 06e3 01       		.uleb128 0x1
 1592 06e4 51       		.byte	0x51
 1593 06e5 02       		.uleb128 0x2
 1594 06e6 74       		.byte	0x74
 1595 06e7 00       		.sleb128 0
 1596 06e8 20       		.uleb128 0x20
 1597 06e9 01       		.uleb128 0x1
 1598 06ea 50       		.byte	0x50
 1599 06eb 02       		.uleb128 0x2
 1600 06ec 75       		.byte	0x75
 1601 06ed 00       		.sleb128 0
 1602 06ee 20       		.uleb128 0x20
 1603 06ef 02       		.uleb128 0x2
 1604 06f0 90       		.byte	0x90
 1605 06f1 42       		.uleb128 0x42
 1606 06f2 07       		.uleb128 0x7
 1607 06f3 F4       		.byte	0xf4
 1608 06f4 25       		.uleb128 0x25
 1609 06f5 04       		.byte	0x4
 1610 06f6 00000000 		.4byte	0
 1611 06fa 20       		.uleb128 0x20
 1612 06fb 02       		.uleb128 0x2
 1613 06fc 90       		.byte	0x90
 1614 06fd 41       		.uleb128 0x41
 1615 06fe 07       		.uleb128 0x7
 1616 06ff F4       		.byte	0xf4
 1617 0700 25       		.uleb128 0x25
 1618 0701 04       		.byte	0x4
 1619 0702 00000000 		.4byte	0
 1620 0706 20       		.uleb128 0x20
 1621 0707 02       		.uleb128 0x2
 1622 0708 90       		.byte	0x90
 1623 0709 40       		.uleb128 0x40
 1624 070a 07       		.uleb128 0x7
 1625 070b F4       		.byte	0xf4
 1626 070c 25       		.uleb128 0x25
 1627 070d 04       		.byte	0x4
 1628 070e 00000000 		.4byte	0
 1629 0712 00       		.byte	0
 1630 0713 21       		.uleb128 0x21
 1631 0714 66000000 		.4byte	.LVL4
 1632 0718 4B0C0000 		.4byte	0xc4b
ARM GAS  C:\Users\jsyoon\AppData\Local\Temp\cciv7kup.s 			page 30


 1633 071c 2D070000 		.4byte	0x72d
 1634 0720 20       		.uleb128 0x20
 1635 0721 01       		.uleb128 0x1
 1636 0722 52       		.byte	0x52
 1637 0723 02       		.uleb128 0x2
 1638 0724 91       		.byte	0x91
 1639 0725 54       		.sleb128 -44
 1640 0726 20       		.uleb128 0x20
 1641 0727 01       		.uleb128 0x1
 1642 0728 50       		.byte	0x50
 1643 0729 02       		.uleb128 0x2
 1644 072a 77       		.byte	0x77
 1645 072b 00       		.sleb128 0
 1646 072c 00       		.byte	0
 1647 072d 22       		.uleb128 0x22
 1648 072e 7E000000 		.4byte	.LVL5
 1649 0732 4B0C0000 		.4byte	0xc4b
 1650 0736 20       		.uleb128 0x20
 1651 0737 01       		.uleb128 0x1
 1652 0738 52       		.byte	0x52
 1653 0739 02       		.uleb128 0x2
 1654 073a 91       		.byte	0x91
 1655 073b 54       		.sleb128 -44
 1656 073c 20       		.uleb128 0x20
 1657 073d 01       		.uleb128 0x1
 1658 073e 50       		.byte	0x50
 1659 073f 02       		.uleb128 0x2
 1660 0740 77       		.byte	0x77
 1661 0741 00       		.sleb128 0
 1662 0742 00       		.byte	0
 1663 0743 00       		.byte	0
 1664 0744 00       		.byte	0
 1665 0745 23       		.uleb128 0x23
 1666 0746 08000000 		.4byte	.LASF107
 1667 074a 01       		.byte	0x1
 1668 074b 3F       		.byte	0x3f
 1669 074c 00000000 		.4byte	.LFB118
 1670 0750 24000000 		.4byte	.LFE118-.LFB118
 1671 0754 01       		.uleb128 0x1
 1672 0755 9C       		.byte	0x9c
 1673 0756 8A070000 		.4byte	0x78a
 1674 075a 22       		.uleb128 0x22
 1675 075b 16000000 		.4byte	.LVL9
 1676 075f 6C0C0000 		.4byte	0xc6c
 1677 0763 20       		.uleb128 0x20
 1678 0764 01       		.uleb128 0x1
 1679 0765 53       		.byte	0x53
 1680 0766 05       		.uleb128 0x5
 1681 0767 03       		.byte	0x3
 1682 0768 00000000 		.4byte	detect_thread
 1683 076c 20       		.uleb128 0x20
 1684 076d 01       		.uleb128 0x1
 1685 076e 52       		.byte	0x52
 1686 076f 02       		.uleb128 0x2
 1687 0770 08       		.byte	0x8
 1688 0771 40       		.byte	0x40
 1689 0772 20       		.uleb128 0x20
ARM GAS  C:\Users\jsyoon\AppData\Local\Temp\cciv7kup.s 			page 31


 1690 0773 01       		.uleb128 0x1
 1691 0774 51       		.byte	0x51
 1692 0775 03       		.uleb128 0x3
 1693 0776 0A       		.byte	0xa
 1694 0777 9809     		.2byte	0x998
 1695 0779 20       		.uleb128 0x20
 1696 077a 01       		.uleb128 0x1
 1697 077b 50       		.byte	0x50
 1698 077c 05       		.uleb128 0x5
 1699 077d 03       		.byte	0x3
 1700 077e 00000000 		.4byte	.LANCHOR5
 1701 0782 20       		.uleb128 0x20
 1702 0783 02       		.uleb128 0x2
 1703 0784 7D       		.byte	0x7d
 1704 0785 00       		.sleb128 0
 1705 0786 01       		.uleb128 0x1
 1706 0787 30       		.byte	0x30
 1707 0788 00       		.byte	0
 1708 0789 00       		.byte	0
 1709 078a 23       		.uleb128 0x23
 1710 078b A1020000 		.4byte	.LASF108
 1711 078f 01       		.byte	0x1
 1712 0790 49       		.byte	0x49
 1713 0791 00000000 		.4byte	.LFB119
 1714 0795 0C000000 		.4byte	.LFE119-.LFB119
 1715 0799 01       		.uleb128 0x1
 1716 079a 9C       		.byte	0x9c
 1717 079b AD070000 		.4byte	0x7ad
 1718 079f 24       		.uleb128 0x24
 1719 07a0 78010000 		.4byte	.LASF109
 1720 07a4 01       		.byte	0x1
 1721 07a5 49       		.byte	0x49
 1722 07a6 BD070000 		.4byte	0x7bd
 1723 07aa 01       		.uleb128 0x1
 1724 07ab 50       		.byte	0x50
 1725 07ac 00       		.byte	0
 1726 07ad 25       		.uleb128 0x25
 1727 07ae BD070000 		.4byte	0x7bd
 1728 07b2 12       		.uleb128 0x12
 1729 07b3 E7050000 		.4byte	0x5e7
 1730 07b7 12       		.uleb128 0x12
 1731 07b8 97000000 		.4byte	0x97
 1732 07bc 00       		.byte	0
 1733 07bd 09       		.uleb128 0x9
 1734 07be 04       		.byte	0x4
 1735 07bf AD070000 		.4byte	0x7ad
 1736 07c3 26       		.uleb128 0x26
 1737 07c4 2E060000 		.4byte	0x62e
 1738 07c8 00000000 		.4byte	.LFB120
 1739 07cc 10000000 		.4byte	.LFE120-.LFB120
 1740 07d0 01       		.uleb128 0x1
 1741 07d1 9C       		.byte	0x9c
 1742 07d2 FD070000 		.4byte	0x7fd
 1743 07d6 1E       		.uleb128 0x1e
 1744 07d7 3A060000 		.4byte	0x63a
 1745 07db 4C000000 		.4byte	.LLST3
 1746 07df 1E       		.uleb128 0x1e
ARM GAS  C:\Users\jsyoon\AppData\Local\Temp\cciv7kup.s 			page 32


 1747 07e0 45060000 		.4byte	0x645
 1748 07e4 6D000000 		.4byte	.LLST4
 1749 07e8 1F       		.uleb128 0x1f
 1750 07e9 0A000000 		.4byte	.LVL12
 1751 07ed 20       		.uleb128 0x20
 1752 07ee 01       		.uleb128 0x1
 1753 07ef 51       		.byte	0x51
 1754 07f0 03       		.uleb128 0x3
 1755 07f1 F3       		.byte	0xf3
 1756 07f2 01       		.uleb128 0x1
 1757 07f3 51       		.byte	0x51
 1758 07f4 20       		.uleb128 0x20
 1759 07f5 01       		.uleb128 0x1
 1760 07f6 50       		.byte	0x50
 1761 07f7 03       		.uleb128 0x3
 1762 07f8 F3       		.byte	0xf3
 1763 07f9 01       		.uleb128 0x1
 1764 07fa 50       		.byte	0x50
 1765 07fb 00       		.byte	0
 1766 07fc 00       		.byte	0
 1767 07fd 23       		.uleb128 0x23
 1768 07fe 23050000 		.4byte	.LASF110
 1769 0802 01       		.byte	0x1
 1770 0803 65       		.byte	0x65
 1771 0804 00000000 		.4byte	.LFB121
 1772 0808 02000000 		.4byte	.LFE121-.LFB121
 1773 080c 01       		.uleb128 0x1
 1774 080d 9C       		.byte	0x9c
 1775 080e 2D080000 		.4byte	0x82d
 1776 0812 24       		.uleb128 0x24
 1777 0813 8D030000 		.4byte	.LASF106
 1778 0817 01       		.byte	0x1
 1779 0818 65       		.byte	0x65
 1780 0819 E7050000 		.4byte	0x5e7
 1781 081d 01       		.uleb128 0x1
 1782 081e 50       		.byte	0x50
 1783 081f 27       		.uleb128 0x27
 1784 0820 6C656E00 		.ascii	"len\000"
 1785 0824 01       		.byte	0x1
 1786 0825 65       		.byte	0x65
 1787 0826 97000000 		.4byte	0x97
 1788 082a 01       		.uleb128 0x1
 1789 082b 51       		.byte	0x51
 1790 082c 00       		.byte	0
 1791 082d 28       		.uleb128 0x28
 1792 082e E6040000 		.4byte	.LASF111
 1793 0832 01       		.byte	0x1
 1794 0833 1602     		.2byte	0x216
 1795 0835 00000000 		.4byte	.LFB122
 1796 0839 44000000 		.4byte	.LFE122-.LFB122
 1797 083d 01       		.uleb128 0x1
 1798 083e 9C       		.byte	0x9c
 1799 083f E1080000 		.4byte	0x8e1
 1800 0843 29       		.uleb128 0x29
 1801 0844 B6050000 		.4byte	.LASF112
 1802 0848 01       		.byte	0x1
 1803 0849 1602     		.2byte	0x216
ARM GAS  C:\Users\jsyoon\AppData\Local\Temp\cciv7kup.s 			page 33


 1804 084b ED050000 		.4byte	0x5ed
 1805 084f 02       		.uleb128 0x2
 1806 0850 91       		.byte	0x91
 1807 0851 70       		.sleb128 -16
 1808 0852 2A       		.uleb128 0x2a
 1809 0853 1C       		.uleb128 0x1c
 1810 0854 61726700 		.ascii	"arg\000"
 1811 0858 01       		.byte	0x1
 1812 0859 1702     		.2byte	0x217
 1813 085b 23060000 		.4byte	0x623
 1814 085f 02       		.uleb128 0x2
 1815 0860 91       		.byte	0x91
 1816 0861 64       		.sleb128 -28
 1817 0862 2B       		.uleb128 0x2b
 1818 0863 6C656E00 		.ascii	"len\000"
 1819 0867 01       		.byte	0x1
 1820 0868 1902     		.2byte	0x219
 1821 086a 2C000000 		.4byte	0x2c
 1822 086e 8E000000 		.4byte	.LLST5
 1823 0872 2C       		.uleb128 0x2c
 1824 0873 6B010000 		.4byte	.LASF113
 1825 0877 01       		.byte	0x1
 1826 0878 1A02     		.2byte	0x21a
 1827 087a E1080000 		.4byte	0x8e1
 1828 087e 05       		.uleb128 0x5
 1829 087f 03       		.byte	0x3
 1830 0880 00000000 		.4byte	print_buffer.11219
 1831 0884 1D       		.uleb128 0x1d
 1832 0885 2E060000 		.4byte	0x62e
 1833 0889 20000000 		.4byte	.LBB23
 1834 088d 40000000 		.4byte	.Ldebug_ranges0+0x40
 1835 0891 01       		.byte	0x1
 1836 0892 2102     		.2byte	0x221
 1837 0894 BA080000 		.4byte	0x8ba
 1838 0898 1E       		.uleb128 0x1e
 1839 0899 45060000 		.4byte	0x645
 1840 089d A1000000 		.4byte	.LLST6
 1841 08a1 1E       		.uleb128 0x1e
 1842 08a2 3A060000 		.4byte	0x63a
 1843 08a6 B4000000 		.4byte	.LLST7
 1844 08aa 1F       		.uleb128 0x1f
 1845 08ab 32000000 		.4byte	.LVL19
 1846 08af 20       		.uleb128 0x20
 1847 08b0 01       		.uleb128 0x1
 1848 08b1 50       		.byte	0x50
 1849 08b2 05       		.uleb128 0x5
 1850 08b3 03       		.byte	0x3
 1851 08b4 00000000 		.4byte	.LANCHOR6
 1852 08b8 00       		.byte	0
 1853 08b9 00       		.byte	0
 1854 08ba 22       		.uleb128 0x22
 1855 08bb 1C000000 		.4byte	.LVL15
 1856 08bf 960C0000 		.4byte	0xc96
 1857 08c3 20       		.uleb128 0x20
 1858 08c4 01       		.uleb128 0x1
 1859 08c5 53       		.byte	0x53
 1860 08c6 02       		.uleb128 0x2
ARM GAS  C:\Users\jsyoon\AppData\Local\Temp\cciv7kup.s 			page 34


 1861 08c7 91       		.byte	0x91
 1862 08c8 54       		.sleb128 -44
 1863 08c9 20       		.uleb128 0x20
 1864 08ca 01       		.uleb128 0x1
 1865 08cb 52       		.byte	0x52
 1866 08cc 03       		.uleb128 0x3
 1867 08cd 91       		.byte	0x91
 1868 08ce 50       		.sleb128 -48
 1869 08cf 06       		.byte	0x6
 1870 08d0 20       		.uleb128 0x20
 1871 08d1 01       		.uleb128 0x1
 1872 08d2 51       		.byte	0x51
 1873 08d3 02       		.uleb128 0x2
 1874 08d4 08       		.byte	0x8
 1875 08d5 FE       		.byte	0xfe
 1876 08d6 20       		.uleb128 0x20
 1877 08d7 01       		.uleb128 0x1
 1878 08d8 50       		.byte	0x50
 1879 08d9 05       		.uleb128 0x5
 1880 08da 03       		.byte	0x3
 1881 08db 01000000 		.4byte	.LANCHOR6+1
 1882 08df 00       		.byte	0
 1883 08e0 00       		.byte	0
 1884 08e1 2D       		.uleb128 0x2d
 1885 08e2 FD040000 		.4byte	0x4fd
 1886 08e6 F1080000 		.4byte	0x8f1
 1887 08ea 2E       		.uleb128 0x2e
 1888 08eb 13040000 		.4byte	0x413
 1889 08ef FE       		.byte	0xfe
 1890 08f0 00       		.byte	0
 1891 08f1 28       		.uleb128 0x28
 1892 08f2 A7000000 		.4byte	.LASF114
 1893 08f6 01       		.byte	0x1
 1894 08f7 2502     		.2byte	0x225
 1895 08f9 00000000 		.4byte	.LFB123
 1896 08fd 4C000000 		.4byte	.LFE123-.LFB123
 1897 0901 01       		.uleb128 0x1
 1898 0902 9C       		.byte	0x9c
 1899 0903 97090000 		.4byte	0x997
 1900 0907 2F       		.uleb128 0x2f
 1901 0908 8D030000 		.4byte	.LASF106
 1902 090c 01       		.byte	0x1
 1903 090d 2502     		.2byte	0x225
 1904 090f 2A050000 		.4byte	0x52a
 1905 0913 CC000000 		.4byte	.LLST8
 1906 0917 1A       		.uleb128 0x1a
 1907 0918 6C656E00 		.ascii	"len\000"
 1908 091c 01       		.byte	0x1
 1909 091d 2502     		.2byte	0x225
 1910 091f 2C000000 		.4byte	0x2c
 1911 0923 F8000000 		.4byte	.LLST9
 1912 0927 30       		.uleb128 0x30
 1913 0928 AA090000 		.4byte	0x9aa
 1914 092c F8000000 		.4byte	.LLST9
 1915 0930 2C       		.uleb128 0x2c
 1916 0931 35060000 		.4byte	.LASF115
 1917 0935 01       		.byte	0x1
ARM GAS  C:\Users\jsyoon\AppData\Local\Temp\cciv7kup.s 			page 35


 1918 0936 2602     		.2byte	0x226
 1919 0938 97090000 		.4byte	0x997
 1920 093c 02       		.uleb128 0x2
 1921 093d 76       		.byte	0x76
 1922 093e 00       		.sleb128 0
 1923 093f 31       		.uleb128 0x31
 1924 0940 13060000 		.4byte	.LASF116
 1925 0944 01       		.byte	0x1
 1926 0945 2702     		.2byte	0x227
 1927 0947 2C000000 		.4byte	0x2c
 1928 094b 32010000 		.4byte	.LLST11
 1929 094f 32       		.uleb128 0x32
 1930 0950 58000000 		.4byte	.Ldebug_ranges0+0x58
 1931 0954 67090000 		.4byte	0x967
 1932 0958 2B       		.uleb128 0x2b
 1933 0959 6900     		.ascii	"i\000"
 1934 095b 01       		.byte	0x1
 1935 095c 2B02     		.2byte	0x22b
 1936 095e 2C000000 		.4byte	0x2c
 1937 0962 76010000 		.4byte	.LLST12
 1938 0966 00       		.byte	0
 1939 0967 33       		.uleb128 0x33
 1940 0968 2E060000 		.4byte	0x62e
 1941 096c 34000000 		.4byte	.LBB29
 1942 0970 0A000000 		.4byte	.LBE29-.LBB29
 1943 0974 01       		.byte	0x1
 1944 0975 2F02     		.2byte	0x22f
 1945 0977 1E       		.uleb128 0x1e
 1946 0978 45060000 		.4byte	0x645
 1947 097c CA010000 		.4byte	.LLST13
 1948 0980 1E       		.uleb128 0x1e
 1949 0981 3A060000 		.4byte	0x63a
 1950 0985 DD010000 		.4byte	.LLST14
 1951 0989 1F       		.uleb128 0x1f
 1952 098a 3E000000 		.4byte	.LVL27
 1953 098e 20       		.uleb128 0x20
 1954 098f 01       		.uleb128 0x1
 1955 0990 50       		.byte	0x50
 1956 0991 02       		.uleb128 0x2
 1957 0992 76       		.byte	0x76
 1958 0993 00       		.sleb128 0
 1959 0994 00       		.byte	0
 1960 0995 00       		.byte	0
 1961 0996 00       		.byte	0
 1962 0997 2D       		.uleb128 0x2d
 1963 0998 9E000000 		.4byte	0x9e
 1964 099c AA090000 		.4byte	0x9aa
 1965 09a0 34       		.uleb128 0x34
 1966 09a1 13040000 		.4byte	0x413
 1967 09a5 27090000 		.4byte	0x927
 1968 09a9 00       		.byte	0
 1969 09aa 10       		.uleb128 0x10
 1970 09ab 13040000 		.4byte	0x413
 1971 09af 28       		.uleb128 0x28
 1972 09b0 68000000 		.4byte	.LASF117
 1973 09b4 01       		.byte	0x1
 1974 09b5 3202     		.2byte	0x232
ARM GAS  C:\Users\jsyoon\AppData\Local\Temp\cciv7kup.s 			page 36


 1975 09b7 00000000 		.4byte	.LFB124
 1976 09bb 40000000 		.4byte	.LFE124-.LFB124
 1977 09bf 01       		.uleb128 0x1
 1978 09c0 9C       		.byte	0x9c
 1979 09c1 540A0000 		.4byte	0xa54
 1980 09c5 2F       		.uleb128 0x2f
 1981 09c6 6C030000 		.4byte	.LASF118
 1982 09ca 01       		.byte	0x1
 1983 09cb 3202     		.2byte	0x232
 1984 09cd 25000000 		.4byte	0x25
 1985 09d1 F0010000 		.4byte	.LLST15
 1986 09d5 2C       		.uleb128 0x2c
 1987 09d6 35060000 		.4byte	.LASF115
 1988 09da 01       		.byte	0x1
 1989 09db 3302     		.2byte	0x233
 1990 09dd 540A0000 		.4byte	0xa54
 1991 09e1 02       		.uleb128 0x2
 1992 09e2 91       		.byte	0x91
 1993 09e3 70       		.sleb128 -16
 1994 09e4 2C       		.uleb128 0x2c
 1995 09e5 13060000 		.4byte	.LASF116
 1996 09e9 01       		.byte	0x1
 1997 09ea 3402     		.2byte	0x234
 1998 09ec A9000000 		.4byte	0xa9
 1999 09f0 02       		.uleb128 0x2
 2000 09f1 91       		.byte	0x91
 2001 09f2 6C       		.sleb128 -20
 2002 09f3 1D       		.uleb128 0x1d
 2003 09f4 2E060000 		.4byte	0x62e
 2004 09f8 28000000 		.4byte	.LBB32
 2005 09fc 78000000 		.4byte	.Ldebug_ranges0+0x78
 2006 0a00 01       		.byte	0x1
 2007 0a01 3902     		.2byte	0x239
 2008 0a03 260A0000 		.4byte	0xa26
 2009 0a07 1E       		.uleb128 0x1e
 2010 0a08 45060000 		.4byte	0x645
 2011 0a0c 14020000 		.4byte	.LLST16
 2012 0a10 1E       		.uleb128 0x1e
 2013 0a11 3A060000 		.4byte	0x63a
 2014 0a15 27020000 		.4byte	.LLST17
 2015 0a19 1F       		.uleb128 0x1f
 2016 0a1a 34000000 		.4byte	.LVL34
 2017 0a1e 20       		.uleb128 0x20
 2018 0a1f 01       		.uleb128 0x1
 2019 0a20 50       		.byte	0x50
 2020 0a21 02       		.uleb128 0x2
 2021 0a22 74       		.byte	0x74
 2022 0a23 00       		.sleb128 0
 2023 0a24 00       		.byte	0
 2024 0a25 00       		.byte	0
 2025 0a26 22       		.uleb128 0x22
 2026 0a27 28000000 		.4byte	.LVL32
 2027 0a2b 4B0C0000 		.4byte	0xc4b
 2028 0a2f 20       		.uleb128 0x20
 2029 0a30 01       		.uleb128 0x1
 2030 0a31 52       		.byte	0x52
 2031 0a32 02       		.uleb128 0x2
ARM GAS  C:\Users\jsyoon\AppData\Local\Temp\cciv7kup.s 			page 37


 2032 0a33 91       		.byte	0x91
 2033 0a34 6C       		.sleb128 -20
 2034 0a35 20       		.uleb128 0x20
 2035 0a36 01       		.uleb128 0x1
 2036 0a37 51       		.byte	0x51
 2037 0a38 13       		.uleb128 0x13
 2038 0a39 F3       		.byte	0xf3
 2039 0a3a 03       		.uleb128 0x3
 2040 0a3b F5       		.byte	0xf5
 2041 0a3c 40       		.uleb128 0x40
 2042 0a3d 25       		.uleb128 0x25
 2043 0a3e F4       		.byte	0xf4
 2044 0a3f 25       		.uleb128 0x25
 2045 0a40 04       		.byte	0x4
 2046 0a41 0050C347 		.4byte	0x47c35000
 2047 0a45 1E       		.byte	0x1e
 2048 0a46 F7       		.byte	0xf7
 2049 0a47 25       		.uleb128 0x25
 2050 0a48 F7       		.byte	0xf7
 2051 0a49 2C       		.uleb128 0x2c
 2052 0a4a F7       		.byte	0xf7
 2053 0a4b 00       		.uleb128 0
 2054 0a4c 20       		.uleb128 0x20
 2055 0a4d 01       		.uleb128 0x1
 2056 0a4e 50       		.byte	0x50
 2057 0a4f 02       		.uleb128 0x2
 2058 0a50 74       		.byte	0x74
 2059 0a51 00       		.sleb128 0
 2060 0a52 00       		.byte	0
 2061 0a53 00       		.byte	0
 2062 0a54 2D       		.uleb128 0x2d
 2063 0a55 9E000000 		.4byte	0x9e
 2064 0a59 640A0000 		.4byte	0xa64
 2065 0a5d 2E       		.uleb128 0x2e
 2066 0a5e 13040000 		.4byte	0x413
 2067 0a62 04       		.byte	0x4
 2068 0a63 00       		.byte	0
 2069 0a64 28       		.uleb128 0x28
 2070 0a65 85070000 		.4byte	.LASF119
 2071 0a69 01       		.byte	0x1
 2072 0a6a 3C02     		.2byte	0x23c
 2073 0a6c 00000000 		.4byte	.LFB125
 2074 0a70 78000000 		.4byte	.LFE125-.LFB125
 2075 0a74 01       		.uleb128 0x1
 2076 0a75 9C       		.byte	0x9c
 2077 0a76 200B0000 		.4byte	0xb20
 2078 0a7a 2F       		.uleb128 0x2f
 2079 0a7b 6F040000 		.4byte	.LASF120
 2080 0a7f 01       		.byte	0x1
 2081 0a80 3C02     		.2byte	0x23c
 2082 0a82 200B0000 		.4byte	0xb20
 2083 0a86 49020000 		.4byte	.LLST18
 2084 0a8a 1A       		.uleb128 0x1a
 2085 0a8b 6C656E00 		.ascii	"len\000"
 2086 0a8f 01       		.byte	0x1
 2087 0a90 3C02     		.2byte	0x23c
 2088 0a92 2C000000 		.4byte	0x2c
ARM GAS  C:\Users\jsyoon\AppData\Local\Temp\cciv7kup.s 			page 38


 2089 0a96 6A020000 		.4byte	.LLST19
 2090 0a9a 30       		.uleb128 0x30
 2091 0a9b 390B0000 		.4byte	0xb39
 2092 0a9f 96020000 		.4byte	.LLST20
 2093 0aa3 31       		.uleb128 0x31
 2094 0aa4 35060000 		.4byte	.LASF115
 2095 0aa8 01       		.byte	0x1
 2096 0aa9 4102     		.2byte	0x241
 2097 0aab 260B0000 		.4byte	0xb26
 2098 0aaf D4020000 		.4byte	.LLST21
 2099 0ab3 2C       		.uleb128 0x2c
 2100 0ab4 13060000 		.4byte	.LASF116
 2101 0ab8 01       		.byte	0x1
 2102 0ab9 4202     		.2byte	0x242
 2103 0abb A9000000 		.4byte	0xa9
 2104 0abf 02       		.uleb128 0x2
 2105 0ac0 91       		.byte	0x91
 2106 0ac1 54       		.sleb128 -44
 2107 0ac2 32       		.uleb128 0x32
 2108 0ac3 90000000 		.4byte	.Ldebug_ranges0+0x90
 2109 0ac7 F00A0000 		.4byte	0xaf0
 2110 0acb 2B       		.uleb128 0x2b
 2111 0acc 6900     		.ascii	"i\000"
 2112 0ace 01       		.byte	0x1
 2113 0acf 4602     		.2byte	0x246
 2114 0ad1 2C000000 		.4byte	0x2c
 2115 0ad5 E8020000 		.4byte	.LLST22
 2116 0ad9 22       		.uleb128 0x22
 2117 0ada 52000000 		.4byte	.LVL44
 2118 0ade 4B0C0000 		.4byte	0xc4b
 2119 0ae2 20       		.uleb128 0x20
 2120 0ae3 01       		.uleb128 0x1
 2121 0ae4 52       		.byte	0x52
 2122 0ae5 02       		.uleb128 0x2
 2123 0ae6 77       		.byte	0x77
 2124 0ae7 04       		.sleb128 4
 2125 0ae8 20       		.uleb128 0x20
 2126 0ae9 01       		.uleb128 0x1
 2127 0aea 50       		.byte	0x50
 2128 0aeb 02       		.uleb128 0x2
 2129 0aec 78       		.byte	0x78
 2130 0aed 00       		.sleb128 0
 2131 0aee 00       		.byte	0
 2132 0aef 00       		.byte	0
 2133 0af0 33       		.uleb128 0x33
 2134 0af1 2E060000 		.4byte	0x62e
 2135 0af5 58000000 		.4byte	.LBB38
 2136 0af9 0A000000 		.4byte	.LBE38-.LBB38
 2137 0afd 01       		.byte	0x1
 2138 0afe 4A02     		.2byte	0x24a
 2139 0b00 1E       		.uleb128 0x1e
 2140 0b01 45060000 		.4byte	0x645
 2141 0b05 1F030000 		.4byte	.LLST23
 2142 0b09 1E       		.uleb128 0x1e
 2143 0b0a 3A060000 		.4byte	0x63a
 2144 0b0e 32030000 		.4byte	.LLST24
 2145 0b12 1F       		.uleb128 0x1f
ARM GAS  C:\Users\jsyoon\AppData\Local\Temp\cciv7kup.s 			page 39


 2146 0b13 62000000 		.4byte	.LVL46
 2147 0b17 20       		.uleb128 0x20
 2148 0b18 01       		.uleb128 0x1
 2149 0b19 50       		.byte	0x50
 2150 0b1a 02       		.uleb128 0x2
 2151 0b1b 78       		.byte	0x78
 2152 0b1c 00       		.sleb128 0
 2153 0b1d 00       		.byte	0
 2154 0b1e 00       		.byte	0
 2155 0b1f 00       		.byte	0
 2156 0b20 09       		.uleb128 0x9
 2157 0b21 04       		.byte	0x4
 2158 0b22 25000000 		.4byte	0x25
 2159 0b26 2D       		.uleb128 0x2d
 2160 0b27 9E000000 		.4byte	0x9e
 2161 0b2b 390B0000 		.4byte	0xb39
 2162 0b2f 34       		.uleb128 0x34
 2163 0b30 13040000 		.4byte	0x413
 2164 0b34 9A0A0000 		.4byte	0xa9a
 2165 0b38 00       		.byte	0
 2166 0b39 10       		.uleb128 0x10
 2167 0b3a 13040000 		.4byte	0x413
 2168 0b3e 2D       		.uleb128 0x2d
 2169 0b3f 9B020000 		.4byte	0x29b
 2170 0b43 4F0B0000 		.4byte	0xb4f
 2171 0b47 35       		.uleb128 0x35
 2172 0b48 13040000 		.4byte	0x413
 2173 0b4c 3201     		.2byte	0x132
 2174 0b4e 00       		.byte	0
 2175 0b4f 36       		.uleb128 0x36
 2176 0b50 AD030000 		.4byte	.LASF121
 2177 0b54 01       		.byte	0x1
 2178 0b55 33       		.byte	0x33
 2179 0b56 3E0B0000 		.4byte	0xb3e
 2180 0b5a 05       		.uleb128 0x5
 2181 0b5b 03       		.byte	0x3
 2182 0b5c 00000000 		.4byte	detect_thread_wa
 2183 0b60 36       		.uleb128 0x36
 2184 0b61 65040000 		.4byte	.LASF122
 2185 0b65 01       		.byte	0x1
 2186 0b66 34       		.byte	0x34
 2187 0b67 5D020000 		.4byte	0x25d
 2188 0b6b 05       		.uleb128 0x5
 2189 0b6c 03       		.byte	0x3
 2190 0b6d 00000000 		.4byte	detect_tp
 2191 0b71 2D       		.uleb128 0x2d
 2192 0b72 9E000000 		.4byte	0x9e
 2193 0b76 820B0000 		.4byte	0xb82
 2194 0b7a 35       		.uleb128 0x35
 2195 0b7b 13040000 		.4byte	0x413
 2196 0b7f FF03     		.2byte	0x3ff
 2197 0b81 00       		.byte	0
 2198 0b82 36       		.uleb128 0x36
 2199 0b83 C8040000 		.4byte	.LASF123
 2200 0b87 01       		.byte	0x1
 2201 0b88 37       		.byte	0x37
 2202 0b89 710B0000 		.4byte	0xb71
ARM GAS  C:\Users\jsyoon\AppData\Local\Temp\cciv7kup.s 			page 40


 2203 0b8d 05       		.uleb128 0x5
 2204 0b8e 03       		.byte	0x3
 2205 0b8f 00000000 		.4byte	send_buffer
 2206 0b93 36       		.uleb128 0x36
 2207 0b94 77040000 		.4byte	.LASF124
 2208 0b98 01       		.byte	0x1
 2209 0b99 38       		.byte	0x38
 2210 0b9a 25000000 		.4byte	0x25
 2211 0b9e 05       		.uleb128 0x5
 2212 0b9f 03       		.byte	0x3
 2213 0ba0 00000000 		.4byte	detect_cycle_int_limit
 2214 0ba4 36       		.uleb128 0x36
 2215 0ba5 AD070000 		.4byte	.LASF125
 2216 0ba9 01       		.byte	0x1
 2217 0baa 39       		.byte	0x39
 2218 0bab 25000000 		.4byte	0x25
 2219 0baf 05       		.uleb128 0x5
 2220 0bb0 03       		.byte	0x3
 2221 0bb1 00000000 		.4byte	detect_coupling_k
 2222 0bb5 37       		.uleb128 0x37
 2223 0bb6 36000000 		.4byte	.LASF126
 2224 0bba 01       		.byte	0x1
 2225 0bbb 3A       		.byte	0x3a
 2226 0bbc C00B0000 		.4byte	0xbc0
 2227 0bc0 10       		.uleb128 0x10
 2228 0bc1 25000000 		.4byte	0x25
 2229 0bc5 37       		.uleb128 0x37
 2230 0bc6 04030000 		.4byte	.LASF127
 2231 0bca 01       		.byte	0x1
 2232 0bcb 3B       		.byte	0x3b
 2233 0bcc D00B0000 		.4byte	0xbd0
 2234 0bd0 10       		.uleb128 0x10
 2235 0bd1 25000000 		.4byte	0x25
 2236 0bd5 37       		.uleb128 0x37
 2237 0bd6 1C070000 		.4byte	.LASF128
 2238 0bda 01       		.byte	0x1
 2239 0bdb 3C       		.byte	0x3c
 2240 0bdc E00B0000 		.4byte	0xbe0
 2241 0be0 10       		.uleb128 0x10
 2242 0be1 25000000 		.4byte	0x25
 2243 0be5 36       		.uleb128 0x36
 2244 0be6 CB050000 		.4byte	.LASF129
 2245 0bea 01       		.byte	0x1
 2246 0beb 3D       		.byte	0x3d
 2247 0bec BD070000 		.4byte	0x7bd
 2248 0bf0 05       		.uleb128 0x5
 2249 0bf1 03       		.byte	0x3
 2250 0bf2 00000000 		.4byte	send_func
 2251 0bf6 38       		.uleb128 0x38
 2252 0bf7 16070000 		.4byte	.LASF130
 2253 0bfb 09       		.byte	0x9
 2254 0bfc 6F       		.byte	0x6f
 2255 0bfd 70040000 		.4byte	0x470
 2256 0c01 39       		.uleb128 0x39
 2257 0c02 9A000000 		.4byte	.LASF131
 2258 0c06 0D       		.byte	0xd
 2259 0c07 9806     		.2byte	0x698
ARM GAS  C:\Users\jsyoon\AppData\Local\Temp\cciv7kup.s 			page 41


 2260 0c09 E2050000 		.4byte	0x5e2
 2261 0c0d 3A       		.uleb128 0x3a
 2262 0c0e 80000000 		.4byte	.LASF132
 2263 0c12 0E       		.byte	0xe
 2264 0c13 BE       		.byte	0xbe
 2265 0c14 1E010000 		.4byte	0x11e
 2266 0c18 220C0000 		.4byte	0xc22
 2267 0c1c 12       		.uleb128 0x12
 2268 0c1d 1E010000 		.4byte	0x11e
 2269 0c21 00       		.byte	0
 2270 0c22 3A       		.uleb128 0x3a
 2271 0c23 BE030000 		.4byte	.LASF133
 2272 0c27 0F       		.byte	0xf
 2273 0c28 6C       		.byte	0x6c
 2274 0c29 D5000000 		.4byte	0xd5
 2275 0c2d 4B0C0000 		.4byte	0xc4b
 2276 0c31 12       		.uleb128 0x12
 2277 0c32 25000000 		.4byte	0x25
 2278 0c36 12       		.uleb128 0x12
 2279 0c37 25000000 		.4byte	0x25
 2280 0c3b 12       		.uleb128 0x12
 2281 0c3c 25000000 		.4byte	0x25
 2282 0c40 12       		.uleb128 0x12
 2283 0c41 200B0000 		.4byte	0xb20
 2284 0c45 12       		.uleb128 0x12
 2285 0c46 200B0000 		.4byte	0xb20
 2286 0c4a 00       		.byte	0
 2287 0c4b 3B       		.uleb128 0x3b
 2288 0c4c 34070000 		.4byte	.LASF135
 2289 0c50 10       		.byte	0x10
 2290 0c51 1E       		.byte	0x1e
 2291 0c52 660C0000 		.4byte	0xc66
 2292 0c56 12       		.uleb128 0x12
 2293 0c57 2A050000 		.4byte	0x52a
 2294 0c5b 12       		.uleb128 0x12
 2295 0c5c A9000000 		.4byte	0xa9
 2296 0c60 12       		.uleb128 0x12
 2297 0c61 660C0000 		.4byte	0xc66
 2298 0c65 00       		.byte	0
 2299 0c66 09       		.uleb128 0x9
 2300 0c67 04       		.byte	0x4
 2301 0c68 A9000000 		.4byte	0xa9
 2302 0c6c 3C       		.uleb128 0x3c
 2303 0c6d 53040000 		.4byte	.LASF136
 2304 0c71 07       		.byte	0x7
 2305 0c72 7001     		.2byte	0x170
 2306 0c74 5D020000 		.4byte	0x25d
 2307 0c78 960C0000 		.4byte	0xc96
 2308 0c7c 12       		.uleb128 0x12
 2309 0c7d 99020000 		.4byte	0x299
 2310 0c81 12       		.uleb128 0x12
 2311 0c82 CA000000 		.4byte	0xca
 2312 0c86 12       		.uleb128 0x12
 2313 0c87 08010000 		.4byte	0x108
 2314 0c8b 12       		.uleb128 0x12
 2315 0c8c 0A050000 		.4byte	0x50a
 2316 0c90 12       		.uleb128 0x12
ARM GAS  C:\Users\jsyoon\AppData\Local\Temp\cciv7kup.s 			page 42


 2317 0c91 99020000 		.4byte	0x299
 2318 0c95 00       		.byte	0
 2319 0c96 3D       		.uleb128 0x3d
 2320 0c97 11050000 		.4byte	.LASF137
 2321 0c9b 11       		.byte	0x11
 2322 0c9c 2601     		.2byte	0x126
 2323 0c9e 2C000000 		.4byte	0x2c
 2324 0ca2 12       		.uleb128 0x12
 2325 0ca3 ED050000 		.4byte	0x5ed
 2326 0ca7 12       		.uleb128 0x12
 2327 0ca8 CA000000 		.4byte	0xca
 2328 0cac 12       		.uleb128 0x12
 2329 0cad F2040000 		.4byte	0x4f2
 2330 0cb1 12       		.uleb128 0x12
 2331 0cb2 01060000 		.4byte	0x601
 2332 0cb6 00       		.byte	0
 2333 0cb7 00       		.byte	0
 2334              		.section	.debug_abbrev,"",%progbits
 2335              	.Ldebug_abbrev0:
 2336 0000 01       		.uleb128 0x1
 2337 0001 11       		.uleb128 0x11
 2338 0002 01       		.byte	0x1
 2339 0003 25       		.uleb128 0x25
 2340 0004 0E       		.uleb128 0xe
 2341 0005 13       		.uleb128 0x13
 2342 0006 0B       		.uleb128 0xb
 2343 0007 03       		.uleb128 0x3
 2344 0008 0E       		.uleb128 0xe
 2345 0009 1B       		.uleb128 0x1b
 2346 000a 0E       		.uleb128 0xe
 2347 000b 55       		.uleb128 0x55
 2348 000c 17       		.uleb128 0x17
 2349 000d 11       		.uleb128 0x11
 2350 000e 01       		.uleb128 0x1
 2351 000f 10       		.uleb128 0x10
 2352 0010 17       		.uleb128 0x17
 2353 0011 00       		.byte	0
 2354 0012 00       		.byte	0
 2355 0013 02       		.uleb128 0x2
 2356 0014 24       		.uleb128 0x24
 2357 0015 00       		.byte	0
 2358 0016 0B       		.uleb128 0xb
 2359 0017 0B       		.uleb128 0xb
 2360 0018 3E       		.uleb128 0x3e
 2361 0019 0B       		.uleb128 0xb
 2362 001a 03       		.uleb128 0x3
 2363 001b 0E       		.uleb128 0xe
 2364 001c 00       		.byte	0
 2365 001d 00       		.byte	0
 2366 001e 03       		.uleb128 0x3
 2367 001f 24       		.uleb128 0x24
 2368 0020 00       		.byte	0
 2369 0021 0B       		.uleb128 0xb
 2370 0022 0B       		.uleb128 0xb
 2371 0023 3E       		.uleb128 0x3e
 2372 0024 0B       		.uleb128 0xb
 2373 0025 03       		.uleb128 0x3
ARM GAS  C:\Users\jsyoon\AppData\Local\Temp\cciv7kup.s 			page 43


 2374 0026 08       		.uleb128 0x8
 2375 0027 00       		.byte	0
 2376 0028 00       		.byte	0
 2377 0029 04       		.uleb128 0x4
 2378 002a 16       		.uleb128 0x16
 2379 002b 00       		.byte	0
 2380 002c 03       		.uleb128 0x3
 2381 002d 0E       		.uleb128 0xe
 2382 002e 3A       		.uleb128 0x3a
 2383 002f 0B       		.uleb128 0xb
 2384 0030 3B       		.uleb128 0x3b
 2385 0031 0B       		.uleb128 0xb
 2386 0032 49       		.uleb128 0x49
 2387 0033 13       		.uleb128 0x13
 2388 0034 00       		.byte	0
 2389 0035 00       		.byte	0
 2390 0036 05       		.uleb128 0x5
 2391 0037 13       		.uleb128 0x13
 2392 0038 01       		.byte	0x1
 2393 0039 03       		.uleb128 0x3
 2394 003a 0E       		.uleb128 0xe
 2395 003b 0B       		.uleb128 0xb
 2396 003c 0B       		.uleb128 0xb
 2397 003d 3A       		.uleb128 0x3a
 2398 003e 0B       		.uleb128 0xb
 2399 003f 3B       		.uleb128 0x3b
 2400 0040 0B       		.uleb128 0xb
 2401 0041 01       		.uleb128 0x1
 2402 0042 13       		.uleb128 0x13
 2403 0043 00       		.byte	0
 2404 0044 00       		.byte	0
 2405 0045 06       		.uleb128 0x6
 2406 0046 0D       		.uleb128 0xd
 2407 0047 00       		.byte	0
 2408 0048 03       		.uleb128 0x3
 2409 0049 0E       		.uleb128 0xe
 2410 004a 3A       		.uleb128 0x3a
 2411 004b 0B       		.uleb128 0xb
 2412 004c 3B       		.uleb128 0x3b
 2413 004d 0B       		.uleb128 0xb
 2414 004e 49       		.uleb128 0x49
 2415 004f 13       		.uleb128 0x13
 2416 0050 38       		.uleb128 0x38
 2417 0051 0B       		.uleb128 0xb
 2418 0052 00       		.byte	0
 2419 0053 00       		.byte	0
 2420 0054 07       		.uleb128 0x7
 2421 0055 0D       		.uleb128 0xd
 2422 0056 00       		.byte	0
 2423 0057 03       		.uleb128 0x3
 2424 0058 08       		.uleb128 0x8
 2425 0059 3A       		.uleb128 0x3a
 2426 005a 0B       		.uleb128 0xb
 2427 005b 3B       		.uleb128 0x3b
 2428 005c 0B       		.uleb128 0xb
 2429 005d 49       		.uleb128 0x49
 2430 005e 13       		.uleb128 0x13
ARM GAS  C:\Users\jsyoon\AppData\Local\Temp\cciv7kup.s 			page 44


 2431 005f 38       		.uleb128 0x38
 2432 0060 0B       		.uleb128 0xb
 2433 0061 00       		.byte	0
 2434 0062 00       		.byte	0
 2435 0063 08       		.uleb128 0x8
 2436 0064 13       		.uleb128 0x13
 2437 0065 01       		.byte	0x1
 2438 0066 0B       		.uleb128 0xb
 2439 0067 0B       		.uleb128 0xb
 2440 0068 3A       		.uleb128 0x3a
 2441 0069 0B       		.uleb128 0xb
 2442 006a 3B       		.uleb128 0x3b
 2443 006b 0B       		.uleb128 0xb
 2444 006c 01       		.uleb128 0x1
 2445 006d 13       		.uleb128 0x13
 2446 006e 00       		.byte	0
 2447 006f 00       		.byte	0
 2448 0070 09       		.uleb128 0x9
 2449 0071 0F       		.uleb128 0xf
 2450 0072 00       		.byte	0
 2451 0073 0B       		.uleb128 0xb
 2452 0074 0B       		.uleb128 0xb
 2453 0075 49       		.uleb128 0x49
 2454 0076 13       		.uleb128 0x13
 2455 0077 00       		.byte	0
 2456 0078 00       		.byte	0
 2457 0079 0A       		.uleb128 0xa
 2458 007a 0F       		.uleb128 0xf
 2459 007b 00       		.byte	0
 2460 007c 0B       		.uleb128 0xb
 2461 007d 0B       		.uleb128 0xb
 2462 007e 00       		.byte	0
 2463 007f 00       		.byte	0
 2464 0080 0B       		.uleb128 0xb
 2465 0081 13       		.uleb128 0x13
 2466 0082 01       		.byte	0x1
 2467 0083 03       		.uleb128 0x3
 2468 0084 0E       		.uleb128 0xe
 2469 0085 0B       		.uleb128 0xb
 2470 0086 0B       		.uleb128 0xb
 2471 0087 3A       		.uleb128 0x3a
 2472 0088 0B       		.uleb128 0xb
 2473 0089 3B       		.uleb128 0x3b
 2474 008a 05       		.uleb128 0x5
 2475 008b 01       		.uleb128 0x1
 2476 008c 13       		.uleb128 0x13
 2477 008d 00       		.byte	0
 2478 008e 00       		.byte	0
 2479 008f 0C       		.uleb128 0xc
 2480 0090 0D       		.uleb128 0xd
 2481 0091 00       		.byte	0
 2482 0092 03       		.uleb128 0x3
 2483 0093 08       		.uleb128 0x8
 2484 0094 3A       		.uleb128 0x3a
 2485 0095 0B       		.uleb128 0xb
 2486 0096 3B       		.uleb128 0x3b
 2487 0097 05       		.uleb128 0x5
ARM GAS  C:\Users\jsyoon\AppData\Local\Temp\cciv7kup.s 			page 45


 2488 0098 49       		.uleb128 0x49
 2489 0099 13       		.uleb128 0x13
 2490 009a 38       		.uleb128 0x38
 2491 009b 0B       		.uleb128 0xb
 2492 009c 00       		.byte	0
 2493 009d 00       		.byte	0
 2494 009e 0D       		.uleb128 0xd
 2495 009f 35       		.uleb128 0x35
 2496 00a0 00       		.byte	0
 2497 00a1 49       		.uleb128 0x49
 2498 00a2 13       		.uleb128 0x13
 2499 00a3 00       		.byte	0
 2500 00a4 00       		.byte	0
 2501 00a5 0E       		.uleb128 0xe
 2502 00a6 17       		.uleb128 0x17
 2503 00a7 01       		.byte	0x1
 2504 00a8 0B       		.uleb128 0xb
 2505 00a9 0B       		.uleb128 0xb
 2506 00aa 3A       		.uleb128 0x3a
 2507 00ab 0B       		.uleb128 0xb
 2508 00ac 3B       		.uleb128 0x3b
 2509 00ad 0B       		.uleb128 0xb
 2510 00ae 01       		.uleb128 0x1
 2511 00af 13       		.uleb128 0x13
 2512 00b0 00       		.byte	0
 2513 00b1 00       		.byte	0
 2514 00b2 0F       		.uleb128 0xf
 2515 00b3 0D       		.uleb128 0xd
 2516 00b4 00       		.byte	0
 2517 00b5 03       		.uleb128 0x3
 2518 00b6 0E       		.uleb128 0xe
 2519 00b7 3A       		.uleb128 0x3a
 2520 00b8 0B       		.uleb128 0xb
 2521 00b9 3B       		.uleb128 0x3b
 2522 00ba 0B       		.uleb128 0xb
 2523 00bb 49       		.uleb128 0x49
 2524 00bc 13       		.uleb128 0x13
 2525 00bd 00       		.byte	0
 2526 00be 00       		.byte	0
 2527 00bf 10       		.uleb128 0x10
 2528 00c0 26       		.uleb128 0x26
 2529 00c1 00       		.byte	0
 2530 00c2 49       		.uleb128 0x49
 2531 00c3 13       		.uleb128 0x13
 2532 00c4 00       		.byte	0
 2533 00c5 00       		.byte	0
 2534 00c6 11       		.uleb128 0x11
 2535 00c7 15       		.uleb128 0x15
 2536 00c8 01       		.byte	0x1
 2537 00c9 27       		.uleb128 0x27
 2538 00ca 19       		.uleb128 0x19
 2539 00cb 49       		.uleb128 0x49
 2540 00cc 13       		.uleb128 0x13
 2541 00cd 01       		.uleb128 0x1
 2542 00ce 13       		.uleb128 0x13
 2543 00cf 00       		.byte	0
 2544 00d0 00       		.byte	0
ARM GAS  C:\Users\jsyoon\AppData\Local\Temp\cciv7kup.s 			page 46


 2545 00d1 12       		.uleb128 0x12
 2546 00d2 05       		.uleb128 0x5
 2547 00d3 00       		.byte	0
 2548 00d4 49       		.uleb128 0x49
 2549 00d5 13       		.uleb128 0x13
 2550 00d6 00       		.byte	0
 2551 00d7 00       		.byte	0
 2552 00d8 13       		.uleb128 0x13
 2553 00d9 04       		.uleb128 0x4
 2554 00da 01       		.byte	0x1
 2555 00db 0B       		.uleb128 0xb
 2556 00dc 0B       		.uleb128 0xb
 2557 00dd 3A       		.uleb128 0x3a
 2558 00de 0B       		.uleb128 0xb
 2559 00df 3B       		.uleb128 0x3b
 2560 00e0 05       		.uleb128 0x5
 2561 00e1 01       		.uleb128 0x1
 2562 00e2 13       		.uleb128 0x13
 2563 00e3 00       		.byte	0
 2564 00e4 00       		.byte	0
 2565 00e5 14       		.uleb128 0x14
 2566 00e6 28       		.uleb128 0x28
 2567 00e7 00       		.byte	0
 2568 00e8 03       		.uleb128 0x3
 2569 00e9 0E       		.uleb128 0xe
 2570 00ea 1C       		.uleb128 0x1c
 2571 00eb 0D       		.uleb128 0xd
 2572 00ec 00       		.byte	0
 2573 00ed 00       		.byte	0
 2574 00ee 15       		.uleb128 0x15
 2575 00ef 0D       		.uleb128 0xd
 2576 00f0 00       		.byte	0
 2577 00f1 03       		.uleb128 0x3
 2578 00f2 0E       		.uleb128 0xe
 2579 00f3 49       		.uleb128 0x49
 2580 00f4 13       		.uleb128 0x13
 2581 00f5 38       		.uleb128 0x38
 2582 00f6 0B       		.uleb128 0xb
 2583 00f7 34       		.uleb128 0x34
 2584 00f8 19       		.uleb128 0x19
 2585 00f9 00       		.byte	0
 2586 00fa 00       		.byte	0
 2587 00fb 16       		.uleb128 0x16
 2588 00fc 2E       		.uleb128 0x2e
 2589 00fd 01       		.byte	0x1
 2590 00fe 3F       		.uleb128 0x3f
 2591 00ff 19       		.uleb128 0x19
 2592 0100 03       		.uleb128 0x3
 2593 0101 0E       		.uleb128 0xe
 2594 0102 3A       		.uleb128 0x3a
 2595 0103 0B       		.uleb128 0xb
 2596 0104 3B       		.uleb128 0x3b
 2597 0105 0B       		.uleb128 0xb
 2598 0106 27       		.uleb128 0x27
 2599 0107 19       		.uleb128 0x19
 2600 0108 20       		.uleb128 0x20
 2601 0109 0B       		.uleb128 0xb
ARM GAS  C:\Users\jsyoon\AppData\Local\Temp\cciv7kup.s 			page 47


 2602 010a 01       		.uleb128 0x1
 2603 010b 13       		.uleb128 0x13
 2604 010c 00       		.byte	0
 2605 010d 00       		.byte	0
 2606 010e 17       		.uleb128 0x17
 2607 010f 05       		.uleb128 0x5
 2608 0110 00       		.byte	0
 2609 0111 03       		.uleb128 0x3
 2610 0112 0E       		.uleb128 0xe
 2611 0113 3A       		.uleb128 0x3a
 2612 0114 0B       		.uleb128 0xb
 2613 0115 3B       		.uleb128 0x3b
 2614 0116 0B       		.uleb128 0xb
 2615 0117 49       		.uleb128 0x49
 2616 0118 13       		.uleb128 0x13
 2617 0119 00       		.byte	0
 2618 011a 00       		.byte	0
 2619 011b 18       		.uleb128 0x18
 2620 011c 05       		.uleb128 0x5
 2621 011d 00       		.byte	0
 2622 011e 03       		.uleb128 0x3
 2623 011f 08       		.uleb128 0x8
 2624 0120 3A       		.uleb128 0x3a
 2625 0121 0B       		.uleb128 0xb
 2626 0122 3B       		.uleb128 0x3b
 2627 0123 0B       		.uleb128 0xb
 2628 0124 49       		.uleb128 0x49
 2629 0125 13       		.uleb128 0x13
 2630 0126 00       		.byte	0
 2631 0127 00       		.byte	0
 2632 0128 19       		.uleb128 0x19
 2633 0129 2E       		.uleb128 0x2e
 2634 012a 01       		.byte	0x1
 2635 012b 03       		.uleb128 0x3
 2636 012c 0E       		.uleb128 0xe
 2637 012d 3A       		.uleb128 0x3a
 2638 012e 0B       		.uleb128 0xb
 2639 012f 3B       		.uleb128 0x3b
 2640 0130 05       		.uleb128 0x5
 2641 0131 27       		.uleb128 0x27
 2642 0132 19       		.uleb128 0x19
 2643 0133 49       		.uleb128 0x49
 2644 0134 13       		.uleb128 0x13
 2645 0135 11       		.uleb128 0x11
 2646 0136 01       		.uleb128 0x1
 2647 0137 12       		.uleb128 0x12
 2648 0138 06       		.uleb128 0x6
 2649 0139 40       		.uleb128 0x40
 2650 013a 18       		.uleb128 0x18
 2651 013b 9742     		.uleb128 0x2117
 2652 013d 19       		.uleb128 0x19
 2653 013e 01       		.uleb128 0x1
 2654 013f 13       		.uleb128 0x13
 2655 0140 00       		.byte	0
 2656 0141 00       		.byte	0
 2657 0142 1A       		.uleb128 0x1a
 2658 0143 05       		.uleb128 0x5
ARM GAS  C:\Users\jsyoon\AppData\Local\Temp\cciv7kup.s 			page 48


 2659 0144 00       		.byte	0
 2660 0145 03       		.uleb128 0x3
 2661 0146 08       		.uleb128 0x8
 2662 0147 3A       		.uleb128 0x3a
 2663 0148 0B       		.uleb128 0xb
 2664 0149 3B       		.uleb128 0x3b
 2665 014a 05       		.uleb128 0x5
 2666 014b 49       		.uleb128 0x49
 2667 014c 13       		.uleb128 0x13
 2668 014d 02       		.uleb128 0x2
 2669 014e 17       		.uleb128 0x17
 2670 014f 00       		.byte	0
 2671 0150 00       		.byte	0
 2672 0151 1B       		.uleb128 0x1b
 2673 0152 0B       		.uleb128 0xb
 2674 0153 01       		.byte	0x1
 2675 0154 55       		.uleb128 0x55
 2676 0155 17       		.uleb128 0x17
 2677 0156 00       		.byte	0
 2678 0157 00       		.byte	0
 2679 0158 1C       		.uleb128 0x1c
 2680 0159 34       		.uleb128 0x34
 2681 015a 00       		.byte	0
 2682 015b 03       		.uleb128 0x3
 2683 015c 08       		.uleb128 0x8
 2684 015d 3A       		.uleb128 0x3a
 2685 015e 0B       		.uleb128 0xb
 2686 015f 3B       		.uleb128 0x3b
 2687 0160 05       		.uleb128 0x5
 2688 0161 49       		.uleb128 0x49
 2689 0162 13       		.uleb128 0x13
 2690 0163 02       		.uleb128 0x2
 2691 0164 18       		.uleb128 0x18
 2692 0165 00       		.byte	0
 2693 0166 00       		.byte	0
 2694 0167 1D       		.uleb128 0x1d
 2695 0168 1D       		.uleb128 0x1d
 2696 0169 01       		.byte	0x1
 2697 016a 31       		.uleb128 0x31
 2698 016b 13       		.uleb128 0x13
 2699 016c 52       		.uleb128 0x52
 2700 016d 01       		.uleb128 0x1
 2701 016e 55       		.uleb128 0x55
 2702 016f 17       		.uleb128 0x17
 2703 0170 58       		.uleb128 0x58
 2704 0171 0B       		.uleb128 0xb
 2705 0172 59       		.uleb128 0x59
 2706 0173 05       		.uleb128 0x5
 2707 0174 01       		.uleb128 0x1
 2708 0175 13       		.uleb128 0x13
 2709 0176 00       		.byte	0
 2710 0177 00       		.byte	0
 2711 0178 1E       		.uleb128 0x1e
 2712 0179 05       		.uleb128 0x5
 2713 017a 00       		.byte	0
 2714 017b 31       		.uleb128 0x31
 2715 017c 13       		.uleb128 0x13
ARM GAS  C:\Users\jsyoon\AppData\Local\Temp\cciv7kup.s 			page 49


 2716 017d 02       		.uleb128 0x2
 2717 017e 17       		.uleb128 0x17
 2718 017f 00       		.byte	0
 2719 0180 00       		.byte	0
 2720 0181 1F       		.uleb128 0x1f
 2721 0182 898201   		.uleb128 0x4109
 2722 0185 01       		.byte	0x1
 2723 0186 11       		.uleb128 0x11
 2724 0187 01       		.uleb128 0x1
 2725 0188 00       		.byte	0
 2726 0189 00       		.byte	0
 2727 018a 20       		.uleb128 0x20
 2728 018b 8A8201   		.uleb128 0x410a
 2729 018e 00       		.byte	0
 2730 018f 02       		.uleb128 0x2
 2731 0190 18       		.uleb128 0x18
 2732 0191 9142     		.uleb128 0x2111
 2733 0193 18       		.uleb128 0x18
 2734 0194 00       		.byte	0
 2735 0195 00       		.byte	0
 2736 0196 21       		.uleb128 0x21
 2737 0197 898201   		.uleb128 0x4109
 2738 019a 01       		.byte	0x1
 2739 019b 11       		.uleb128 0x11
 2740 019c 01       		.uleb128 0x1
 2741 019d 31       		.uleb128 0x31
 2742 019e 13       		.uleb128 0x13
 2743 019f 01       		.uleb128 0x1
 2744 01a0 13       		.uleb128 0x13
 2745 01a1 00       		.byte	0
 2746 01a2 00       		.byte	0
 2747 01a3 22       		.uleb128 0x22
 2748 01a4 898201   		.uleb128 0x4109
 2749 01a7 01       		.byte	0x1
 2750 01a8 11       		.uleb128 0x11
 2751 01a9 01       		.uleb128 0x1
 2752 01aa 31       		.uleb128 0x31
 2753 01ab 13       		.uleb128 0x13
 2754 01ac 00       		.byte	0
 2755 01ad 00       		.byte	0
 2756 01ae 23       		.uleb128 0x23
 2757 01af 2E       		.uleb128 0x2e
 2758 01b0 01       		.byte	0x1
 2759 01b1 3F       		.uleb128 0x3f
 2760 01b2 19       		.uleb128 0x19
 2761 01b3 03       		.uleb128 0x3
 2762 01b4 0E       		.uleb128 0xe
 2763 01b5 3A       		.uleb128 0x3a
 2764 01b6 0B       		.uleb128 0xb
 2765 01b7 3B       		.uleb128 0x3b
 2766 01b8 0B       		.uleb128 0xb
 2767 01b9 27       		.uleb128 0x27
 2768 01ba 19       		.uleb128 0x19
 2769 01bb 11       		.uleb128 0x11
 2770 01bc 01       		.uleb128 0x1
 2771 01bd 12       		.uleb128 0x12
 2772 01be 06       		.uleb128 0x6
ARM GAS  C:\Users\jsyoon\AppData\Local\Temp\cciv7kup.s 			page 50


 2773 01bf 40       		.uleb128 0x40
 2774 01c0 18       		.uleb128 0x18
 2775 01c1 9742     		.uleb128 0x2117
 2776 01c3 19       		.uleb128 0x19
 2777 01c4 01       		.uleb128 0x1
 2778 01c5 13       		.uleb128 0x13
 2779 01c6 00       		.byte	0
 2780 01c7 00       		.byte	0
 2781 01c8 24       		.uleb128 0x24
 2782 01c9 05       		.uleb128 0x5
 2783 01ca 00       		.byte	0
 2784 01cb 03       		.uleb128 0x3
 2785 01cc 0E       		.uleb128 0xe
 2786 01cd 3A       		.uleb128 0x3a
 2787 01ce 0B       		.uleb128 0xb
 2788 01cf 3B       		.uleb128 0x3b
 2789 01d0 0B       		.uleb128 0xb
 2790 01d1 49       		.uleb128 0x49
 2791 01d2 13       		.uleb128 0x13
 2792 01d3 02       		.uleb128 0x2
 2793 01d4 18       		.uleb128 0x18
 2794 01d5 00       		.byte	0
 2795 01d6 00       		.byte	0
 2796 01d7 25       		.uleb128 0x25
 2797 01d8 15       		.uleb128 0x15
 2798 01d9 01       		.byte	0x1
 2799 01da 27       		.uleb128 0x27
 2800 01db 19       		.uleb128 0x19
 2801 01dc 01       		.uleb128 0x1
 2802 01dd 13       		.uleb128 0x13
 2803 01de 00       		.byte	0
 2804 01df 00       		.byte	0
 2805 01e0 26       		.uleb128 0x26
 2806 01e1 2E       		.uleb128 0x2e
 2807 01e2 01       		.byte	0x1
 2808 01e3 31       		.uleb128 0x31
 2809 01e4 13       		.uleb128 0x13
 2810 01e5 11       		.uleb128 0x11
 2811 01e6 01       		.uleb128 0x1
 2812 01e7 12       		.uleb128 0x12
 2813 01e8 06       		.uleb128 0x6
 2814 01e9 40       		.uleb128 0x40
 2815 01ea 18       		.uleb128 0x18
 2816 01eb 9742     		.uleb128 0x2117
 2817 01ed 19       		.uleb128 0x19
 2818 01ee 01       		.uleb128 0x1
 2819 01ef 13       		.uleb128 0x13
 2820 01f0 00       		.byte	0
 2821 01f1 00       		.byte	0
 2822 01f2 27       		.uleb128 0x27
 2823 01f3 05       		.uleb128 0x5
 2824 01f4 00       		.byte	0
 2825 01f5 03       		.uleb128 0x3
 2826 01f6 08       		.uleb128 0x8
 2827 01f7 3A       		.uleb128 0x3a
 2828 01f8 0B       		.uleb128 0xb
 2829 01f9 3B       		.uleb128 0x3b
ARM GAS  C:\Users\jsyoon\AppData\Local\Temp\cciv7kup.s 			page 51


 2830 01fa 0B       		.uleb128 0xb
 2831 01fb 49       		.uleb128 0x49
 2832 01fc 13       		.uleb128 0x13
 2833 01fd 02       		.uleb128 0x2
 2834 01fe 18       		.uleb128 0x18
 2835 01ff 00       		.byte	0
 2836 0200 00       		.byte	0
 2837 0201 28       		.uleb128 0x28
 2838 0202 2E       		.uleb128 0x2e
 2839 0203 01       		.byte	0x1
 2840 0204 3F       		.uleb128 0x3f
 2841 0205 19       		.uleb128 0x19
 2842 0206 03       		.uleb128 0x3
 2843 0207 0E       		.uleb128 0xe
 2844 0208 3A       		.uleb128 0x3a
 2845 0209 0B       		.uleb128 0xb
 2846 020a 3B       		.uleb128 0x3b
 2847 020b 05       		.uleb128 0x5
 2848 020c 27       		.uleb128 0x27
 2849 020d 19       		.uleb128 0x19
 2850 020e 11       		.uleb128 0x11
 2851 020f 01       		.uleb128 0x1
 2852 0210 12       		.uleb128 0x12
 2853 0211 06       		.uleb128 0x6
 2854 0212 40       		.uleb128 0x40
 2855 0213 18       		.uleb128 0x18
 2856 0214 9742     		.uleb128 0x2117
 2857 0216 19       		.uleb128 0x19
 2858 0217 01       		.uleb128 0x1
 2859 0218 13       		.uleb128 0x13
 2860 0219 00       		.byte	0
 2861 021a 00       		.byte	0
 2862 021b 29       		.uleb128 0x29
 2863 021c 05       		.uleb128 0x5
 2864 021d 00       		.byte	0
 2865 021e 03       		.uleb128 0x3
 2866 021f 0E       		.uleb128 0xe
 2867 0220 3A       		.uleb128 0x3a
 2868 0221 0B       		.uleb128 0xb
 2869 0222 3B       		.uleb128 0x3b
 2870 0223 05       		.uleb128 0x5
 2871 0224 49       		.uleb128 0x49
 2872 0225 13       		.uleb128 0x13
 2873 0226 02       		.uleb128 0x2
 2874 0227 18       		.uleb128 0x18
 2875 0228 00       		.byte	0
 2876 0229 00       		.byte	0
 2877 022a 2A       		.uleb128 0x2a
 2878 022b 18       		.uleb128 0x18
 2879 022c 00       		.byte	0
 2880 022d 00       		.byte	0
 2881 022e 00       		.byte	0
 2882 022f 2B       		.uleb128 0x2b
 2883 0230 34       		.uleb128 0x34
 2884 0231 00       		.byte	0
 2885 0232 03       		.uleb128 0x3
 2886 0233 08       		.uleb128 0x8
ARM GAS  C:\Users\jsyoon\AppData\Local\Temp\cciv7kup.s 			page 52


 2887 0234 3A       		.uleb128 0x3a
 2888 0235 0B       		.uleb128 0xb
 2889 0236 3B       		.uleb128 0x3b
 2890 0237 05       		.uleb128 0x5
 2891 0238 49       		.uleb128 0x49
 2892 0239 13       		.uleb128 0x13
 2893 023a 02       		.uleb128 0x2
 2894 023b 17       		.uleb128 0x17
 2895 023c 00       		.byte	0
 2896 023d 00       		.byte	0
 2897 023e 2C       		.uleb128 0x2c
 2898 023f 34       		.uleb128 0x34
 2899 0240 00       		.byte	0
 2900 0241 03       		.uleb128 0x3
 2901 0242 0E       		.uleb128 0xe
 2902 0243 3A       		.uleb128 0x3a
 2903 0244 0B       		.uleb128 0xb
 2904 0245 3B       		.uleb128 0x3b
 2905 0246 05       		.uleb128 0x5
 2906 0247 49       		.uleb128 0x49
 2907 0248 13       		.uleb128 0x13
 2908 0249 02       		.uleb128 0x2
 2909 024a 18       		.uleb128 0x18
 2910 024b 00       		.byte	0
 2911 024c 00       		.byte	0
 2912 024d 2D       		.uleb128 0x2d
 2913 024e 01       		.uleb128 0x1
 2914 024f 01       		.byte	0x1
 2915 0250 49       		.uleb128 0x49
 2916 0251 13       		.uleb128 0x13
 2917 0252 01       		.uleb128 0x1
 2918 0253 13       		.uleb128 0x13
 2919 0254 00       		.byte	0
 2920 0255 00       		.byte	0
 2921 0256 2E       		.uleb128 0x2e
 2922 0257 21       		.uleb128 0x21
 2923 0258 00       		.byte	0
 2924 0259 49       		.uleb128 0x49
 2925 025a 13       		.uleb128 0x13
 2926 025b 2F       		.uleb128 0x2f
 2927 025c 0B       		.uleb128 0xb
 2928 025d 00       		.byte	0
 2929 025e 00       		.byte	0
 2930 025f 2F       		.uleb128 0x2f
 2931 0260 05       		.uleb128 0x5
 2932 0261 00       		.byte	0
 2933 0262 03       		.uleb128 0x3
 2934 0263 0E       		.uleb128 0xe
 2935 0264 3A       		.uleb128 0x3a
 2936 0265 0B       		.uleb128 0xb
 2937 0266 3B       		.uleb128 0x3b
 2938 0267 05       		.uleb128 0x5
 2939 0268 49       		.uleb128 0x49
 2940 0269 13       		.uleb128 0x13
 2941 026a 02       		.uleb128 0x2
 2942 026b 17       		.uleb128 0x17
 2943 026c 00       		.byte	0
ARM GAS  C:\Users\jsyoon\AppData\Local\Temp\cciv7kup.s 			page 53


 2944 026d 00       		.byte	0
 2945 026e 30       		.uleb128 0x30
 2946 026f 34       		.uleb128 0x34
 2947 0270 00       		.byte	0
 2948 0271 34       		.uleb128 0x34
 2949 0272 19       		.uleb128 0x19
 2950 0273 49       		.uleb128 0x49
 2951 0274 13       		.uleb128 0x13
 2952 0275 02       		.uleb128 0x2
 2953 0276 17       		.uleb128 0x17
 2954 0277 00       		.byte	0
 2955 0278 00       		.byte	0
 2956 0279 31       		.uleb128 0x31
 2957 027a 34       		.uleb128 0x34
 2958 027b 00       		.byte	0
 2959 027c 03       		.uleb128 0x3
 2960 027d 0E       		.uleb128 0xe
 2961 027e 3A       		.uleb128 0x3a
 2962 027f 0B       		.uleb128 0xb
 2963 0280 3B       		.uleb128 0x3b
 2964 0281 05       		.uleb128 0x5
 2965 0282 49       		.uleb128 0x49
 2966 0283 13       		.uleb128 0x13
 2967 0284 02       		.uleb128 0x2
 2968 0285 17       		.uleb128 0x17
 2969 0286 00       		.byte	0
 2970 0287 00       		.byte	0
 2971 0288 32       		.uleb128 0x32
 2972 0289 0B       		.uleb128 0xb
 2973 028a 01       		.byte	0x1
 2974 028b 55       		.uleb128 0x55
 2975 028c 17       		.uleb128 0x17
 2976 028d 01       		.uleb128 0x1
 2977 028e 13       		.uleb128 0x13
 2978 028f 00       		.byte	0
 2979 0290 00       		.byte	0
 2980 0291 33       		.uleb128 0x33
 2981 0292 1D       		.uleb128 0x1d
 2982 0293 01       		.byte	0x1
 2983 0294 31       		.uleb128 0x31
 2984 0295 13       		.uleb128 0x13
 2985 0296 11       		.uleb128 0x11
 2986 0297 01       		.uleb128 0x1
 2987 0298 12       		.uleb128 0x12
 2988 0299 06       		.uleb128 0x6
 2989 029a 58       		.uleb128 0x58
 2990 029b 0B       		.uleb128 0xb
 2991 029c 59       		.uleb128 0x59
 2992 029d 05       		.uleb128 0x5
 2993 029e 00       		.byte	0
 2994 029f 00       		.byte	0
 2995 02a0 34       		.uleb128 0x34
 2996 02a1 21       		.uleb128 0x21
 2997 02a2 00       		.byte	0
 2998 02a3 49       		.uleb128 0x49
 2999 02a4 13       		.uleb128 0x13
 3000 02a5 2F       		.uleb128 0x2f
ARM GAS  C:\Users\jsyoon\AppData\Local\Temp\cciv7kup.s 			page 54


 3001 02a6 13       		.uleb128 0x13
 3002 02a7 00       		.byte	0
 3003 02a8 00       		.byte	0
 3004 02a9 35       		.uleb128 0x35
 3005 02aa 21       		.uleb128 0x21
 3006 02ab 00       		.byte	0
 3007 02ac 49       		.uleb128 0x49
 3008 02ad 13       		.uleb128 0x13
 3009 02ae 2F       		.uleb128 0x2f
 3010 02af 05       		.uleb128 0x5
 3011 02b0 00       		.byte	0
 3012 02b1 00       		.byte	0
 3013 02b2 36       		.uleb128 0x36
 3014 02b3 34       		.uleb128 0x34
 3015 02b4 00       		.byte	0
 3016 02b5 03       		.uleb128 0x3
 3017 02b6 0E       		.uleb128 0xe
 3018 02b7 3A       		.uleb128 0x3a
 3019 02b8 0B       		.uleb128 0xb
 3020 02b9 3B       		.uleb128 0x3b
 3021 02ba 0B       		.uleb128 0xb
 3022 02bb 49       		.uleb128 0x49
 3023 02bc 13       		.uleb128 0x13
 3024 02bd 02       		.uleb128 0x2
 3025 02be 18       		.uleb128 0x18
 3026 02bf 00       		.byte	0
 3027 02c0 00       		.byte	0
 3028 02c1 37       		.uleb128 0x37
 3029 02c2 34       		.uleb128 0x34
 3030 02c3 00       		.byte	0
 3031 02c4 03       		.uleb128 0x3
 3032 02c5 0E       		.uleb128 0xe
 3033 02c6 3A       		.uleb128 0x3a
 3034 02c7 0B       		.uleb128 0xb
 3035 02c8 3B       		.uleb128 0x3b
 3036 02c9 0B       		.uleb128 0xb
 3037 02ca 49       		.uleb128 0x49
 3038 02cb 13       		.uleb128 0x13
 3039 02cc 00       		.byte	0
 3040 02cd 00       		.byte	0
 3041 02ce 38       		.uleb128 0x38
 3042 02cf 34       		.uleb128 0x34
 3043 02d0 00       		.byte	0
 3044 02d1 03       		.uleb128 0x3
 3045 02d2 0E       		.uleb128 0xe
 3046 02d3 3A       		.uleb128 0x3a
 3047 02d4 0B       		.uleb128 0xb
 3048 02d5 3B       		.uleb128 0x3b
 3049 02d6 0B       		.uleb128 0xb
 3050 02d7 49       		.uleb128 0x49
 3051 02d8 13       		.uleb128 0x13
 3052 02d9 3F       		.uleb128 0x3f
 3053 02da 19       		.uleb128 0x19
 3054 02db 3C       		.uleb128 0x3c
 3055 02dc 19       		.uleb128 0x19
 3056 02dd 00       		.byte	0
 3057 02de 00       		.byte	0
ARM GAS  C:\Users\jsyoon\AppData\Local\Temp\cciv7kup.s 			page 55


 3058 02df 39       		.uleb128 0x39
 3059 02e0 34       		.uleb128 0x34
 3060 02e1 00       		.byte	0
 3061 02e2 03       		.uleb128 0x3
 3062 02e3 0E       		.uleb128 0xe
 3063 02e4 3A       		.uleb128 0x3a
 3064 02e5 0B       		.uleb128 0xb
 3065 02e6 3B       		.uleb128 0x3b
 3066 02e7 05       		.uleb128 0x5
 3067 02e8 49       		.uleb128 0x49
 3068 02e9 13       		.uleb128 0x13
 3069 02ea 3F       		.uleb128 0x3f
 3070 02eb 19       		.uleb128 0x19
 3071 02ec 3C       		.uleb128 0x3c
 3072 02ed 19       		.uleb128 0x19
 3073 02ee 00       		.byte	0
 3074 02ef 00       		.byte	0
 3075 02f0 3A       		.uleb128 0x3a
 3076 02f1 2E       		.uleb128 0x2e
 3077 02f2 01       		.byte	0x1
 3078 02f3 3F       		.uleb128 0x3f
 3079 02f4 19       		.uleb128 0x19
 3080 02f5 03       		.uleb128 0x3
 3081 02f6 0E       		.uleb128 0xe
 3082 02f7 3A       		.uleb128 0x3a
 3083 02f8 0B       		.uleb128 0xb
 3084 02f9 3B       		.uleb128 0x3b
 3085 02fa 0B       		.uleb128 0xb
 3086 02fb 27       		.uleb128 0x27
 3087 02fc 19       		.uleb128 0x19
 3088 02fd 49       		.uleb128 0x49
 3089 02fe 13       		.uleb128 0x13
 3090 02ff 3C       		.uleb128 0x3c
 3091 0300 19       		.uleb128 0x19
 3092 0301 01       		.uleb128 0x1
 3093 0302 13       		.uleb128 0x13
 3094 0303 00       		.byte	0
 3095 0304 00       		.byte	0
 3096 0305 3B       		.uleb128 0x3b
 3097 0306 2E       		.uleb128 0x2e
 3098 0307 01       		.byte	0x1
 3099 0308 3F       		.uleb128 0x3f
 3100 0309 19       		.uleb128 0x19
 3101 030a 03       		.uleb128 0x3
 3102 030b 0E       		.uleb128 0xe
 3103 030c 3A       		.uleb128 0x3a
 3104 030d 0B       		.uleb128 0xb
 3105 030e 3B       		.uleb128 0x3b
 3106 030f 0B       		.uleb128 0xb
 3107 0310 27       		.uleb128 0x27
 3108 0311 19       		.uleb128 0x19
 3109 0312 3C       		.uleb128 0x3c
 3110 0313 19       		.uleb128 0x19
 3111 0314 01       		.uleb128 0x1
 3112 0315 13       		.uleb128 0x13
 3113 0316 00       		.byte	0
 3114 0317 00       		.byte	0
ARM GAS  C:\Users\jsyoon\AppData\Local\Temp\cciv7kup.s 			page 56


 3115 0318 3C       		.uleb128 0x3c
 3116 0319 2E       		.uleb128 0x2e
 3117 031a 01       		.byte	0x1
 3118 031b 3F       		.uleb128 0x3f
 3119 031c 19       		.uleb128 0x19
 3120 031d 03       		.uleb128 0x3
 3121 031e 0E       		.uleb128 0xe
 3122 031f 3A       		.uleb128 0x3a
 3123 0320 0B       		.uleb128 0xb
 3124 0321 3B       		.uleb128 0x3b
 3125 0322 05       		.uleb128 0x5
 3126 0323 27       		.uleb128 0x27
 3127 0324 19       		.uleb128 0x19
 3128 0325 49       		.uleb128 0x49
 3129 0326 13       		.uleb128 0x13
 3130 0327 3C       		.uleb128 0x3c
 3131 0328 19       		.uleb128 0x19
 3132 0329 01       		.uleb128 0x1
 3133 032a 13       		.uleb128 0x13
 3134 032b 00       		.byte	0
 3135 032c 00       		.byte	0
 3136 032d 3D       		.uleb128 0x3d
 3137 032e 2E       		.uleb128 0x2e
 3138 032f 01       		.byte	0x1
 3139 0330 3F       		.uleb128 0x3f
 3140 0331 19       		.uleb128 0x19
 3141 0332 03       		.uleb128 0x3
 3142 0333 0E       		.uleb128 0xe
 3143 0334 3A       		.uleb128 0x3a
 3144 0335 0B       		.uleb128 0xb
 3145 0336 3B       		.uleb128 0x3b
 3146 0337 05       		.uleb128 0x5
 3147 0338 27       		.uleb128 0x27
 3148 0339 19       		.uleb128 0x19
 3149 033a 49       		.uleb128 0x49
 3150 033b 13       		.uleb128 0x13
 3151 033c 3C       		.uleb128 0x3c
 3152 033d 19       		.uleb128 0x19
 3153 033e 00       		.byte	0
 3154 033f 00       		.byte	0
 3155 0340 00       		.byte	0
 3156              		.section	.debug_loc,"",%progbits
 3157              	.Ldebug_loc0:
 3158              	.LLST0:
 3159 0000 00000000 		.4byte	.LVL0
 3160 0004 28000000 		.4byte	.LVL1
 3161 0008 0100     		.2byte	0x1
 3162 000a 50       		.byte	0x50
 3163 000b 28000000 		.4byte	.LVL1
 3164 000f BC000000 		.4byte	.LFE126
 3165 0013 0400     		.2byte	0x4
 3166 0015 F3       		.byte	0xf3
 3167 0016 01       		.uleb128 0x1
 3168 0017 50       		.byte	0x50
 3169 0018 9F       		.byte	0x9f
 3170 0019 00000000 		.4byte	0
 3171 001d 00000000 		.4byte	0
ARM GAS  C:\Users\jsyoon\AppData\Local\Temp\cciv7kup.s 			page 57


 3172              	.LLST1:
 3173 0021 84000000 		.4byte	.LVL6
 3174 0025 89000000 		.4byte	.LVL7-1
 3175 0029 0100     		.2byte	0x1
 3176 002b 51       		.byte	0x51
 3177 002c 00000000 		.4byte	0
 3178 0030 00000000 		.4byte	0
 3179              	.LLST2:
 3180 0034 84000000 		.4byte	.LVL6
 3181 0038 8C000000 		.4byte	.LVL8
 3182 003c 0600     		.2byte	0x6
 3183 003e 03       		.byte	0x3
 3184 003f 00000000 		.4byte	send_buffer
 3185 0043 9F       		.byte	0x9f
 3186 0044 00000000 		.4byte	0
 3187 0048 00000000 		.4byte	0
 3188              	.LLST3:
 3189 004c 00000000 		.4byte	.LVL11
 3190 0050 09000000 		.4byte	.LVL12-1
 3191 0054 0100     		.2byte	0x1
 3192 0056 50       		.byte	0x50
 3193 0057 09000000 		.4byte	.LVL12-1
 3194 005b 10000000 		.4byte	.LFE120
 3195 005f 0400     		.2byte	0x4
 3196 0061 F3       		.byte	0xf3
 3197 0062 01       		.uleb128 0x1
 3198 0063 50       		.byte	0x50
 3199 0064 9F       		.byte	0x9f
 3200 0065 00000000 		.4byte	0
 3201 0069 00000000 		.4byte	0
 3202              	.LLST4:
 3203 006d 00000000 		.4byte	.LVL11
 3204 0071 09000000 		.4byte	.LVL12-1
 3205 0075 0100     		.2byte	0x1
 3206 0077 51       		.byte	0x51
 3207 0078 09000000 		.4byte	.LVL12-1
 3208 007c 10000000 		.4byte	.LFE120
 3209 0080 0400     		.2byte	0x4
 3210 0082 F3       		.byte	0xf3
 3211 0083 01       		.uleb128 0x1
 3212 0084 51       		.byte	0x51
 3213 0085 9F       		.byte	0x9f
 3214 0086 00000000 		.4byte	0
 3215 008a 00000000 		.4byte	0
 3216              	.LLST5:
 3217 008e 1C000000 		.4byte	.LVL15
 3218 0092 30000000 		.4byte	.LVL18
 3219 0096 0100     		.2byte	0x1
 3220 0098 50       		.byte	0x50
 3221 0099 00000000 		.4byte	0
 3222 009d 00000000 		.4byte	0
 3223              	.LLST6:
 3224 00a1 2C000000 		.4byte	.LVL17
 3225 00a5 31000000 		.4byte	.LVL19-1
 3226 00a9 0100     		.2byte	0x1
 3227 00ab 51       		.byte	0x51
 3228 00ac 00000000 		.4byte	0
ARM GAS  C:\Users\jsyoon\AppData\Local\Temp\cciv7kup.s 			page 58


 3229 00b0 00000000 		.4byte	0
 3230              	.LLST7:
 3231 00b4 20000000 		.4byte	.LVL16
 3232 00b8 32000000 		.4byte	.LVL19
 3233 00bc 0600     		.2byte	0x6
 3234 00be 03       		.byte	0x3
 3235 00bf 00000000 		.4byte	print_buffer.11219
 3236 00c3 9F       		.byte	0x9f
 3237 00c4 00000000 		.4byte	0
 3238 00c8 00000000 		.4byte	0
 3239              	.LLST8:
 3240 00cc 00000000 		.4byte	.LVL20
 3241 00d0 3C000000 		.4byte	.LVL26
 3242 00d4 0100     		.2byte	0x1
 3243 00d6 50       		.byte	0x50
 3244 00d7 3C000000 		.4byte	.LVL26
 3245 00db 42000000 		.4byte	.LVL28
 3246 00df 0400     		.2byte	0x4
 3247 00e1 F3       		.byte	0xf3
 3248 00e2 01       		.uleb128 0x1
 3249 00e3 50       		.byte	0x50
 3250 00e4 9F       		.byte	0x9f
 3251 00e5 42000000 		.4byte	.LVL28
 3252 00e9 4C000000 		.4byte	.LFE123
 3253 00ed 0100     		.2byte	0x1
 3254 00ef 50       		.byte	0x50
 3255 00f0 00000000 		.4byte	0
 3256 00f4 00000000 		.4byte	0
 3257              	.LLST9:
 3258 00f8 00000000 		.4byte	.LVL20
 3259 00fc 34000000 		.4byte	.LVL25
 3260 0100 0100     		.2byte	0x1
 3261 0102 51       		.byte	0x51
 3262 0103 34000000 		.4byte	.LVL25
 3263 0107 42000000 		.4byte	.LVL28
 3264 010b 0400     		.2byte	0x4
 3265 010d F3       		.byte	0xf3
 3266 010e 01       		.uleb128 0x1
 3267 010f 51       		.byte	0x51
 3268 0110 9F       		.byte	0x9f
 3269 0111 42000000 		.4byte	.LVL28
 3270 0115 44000000 		.4byte	.LVL29
 3271 0119 0100     		.2byte	0x1
 3272 011b 51       		.byte	0x51
 3273 011c 44000000 		.4byte	.LVL29
 3274 0120 4C000000 		.4byte	.LFE123
 3275 0124 0400     		.2byte	0x4
 3276 0126 F3       		.byte	0xf3
 3277 0127 01       		.uleb128 0x1
 3278 0128 51       		.byte	0x51
 3279 0129 9F       		.byte	0x9f
 3280 012a 00000000 		.4byte	0
 3281 012e 00000000 		.4byte	0
 3282              	.LLST11:
 3283 0132 1C000000 		.4byte	.LVL21
 3284 0136 26000000 		.4byte	.LVL22
 3285 013a 0200     		.2byte	0x2
ARM GAS  C:\Users\jsyoon\AppData\Local\Temp\cciv7kup.s 			page 59


 3286 013c 31       		.byte	0x31
 3287 013d 9F       		.byte	0x9f
 3288 013e 26000000 		.4byte	.LVL22
 3289 0142 2A000000 		.4byte	.LVL23
 3290 0146 0800     		.2byte	0x8
 3291 0148 72       		.byte	0x72
 3292 0149 00       		.sleb128 0
 3293 014a 70       		.byte	0x70
 3294 014b 00       		.sleb128 0
 3295 014c 1C       		.byte	0x1c
 3296 014d 23       		.byte	0x23
 3297 014e 03       		.uleb128 0x3
 3298 014f 9F       		.byte	0x9f
 3299 0150 2A000000 		.4byte	.LVL23
 3300 0154 34000000 		.4byte	.LVL25
 3301 0158 0800     		.2byte	0x8
 3302 015a 72       		.byte	0x72
 3303 015b 00       		.sleb128 0
 3304 015c 70       		.byte	0x70
 3305 015d 00       		.sleb128 0
 3306 015e 1C       		.byte	0x1c
 3307 015f 23       		.byte	0x23
 3308 0160 02       		.uleb128 0x2
 3309 0161 9F       		.byte	0x9f
 3310 0162 42000000 		.4byte	.LVL28
 3311 0166 4C000000 		.4byte	.LFE123
 3312 016a 0200     		.2byte	0x2
 3313 016c 31       		.byte	0x31
 3314 016d 9F       		.byte	0x9f
 3315 016e 00000000 		.4byte	0
 3316 0172 00000000 		.4byte	0
 3317              	.LLST12:
 3318 0176 1C000000 		.4byte	.LVL21
 3319 017a 26000000 		.4byte	.LVL22
 3320 017e 0200     		.2byte	0x2
 3321 0180 30       		.byte	0x30
 3322 0181 9F       		.byte	0x9f
 3323 0182 26000000 		.4byte	.LVL22
 3324 0186 2A000000 		.4byte	.LVL23
 3325 018a 0800     		.2byte	0x8
 3326 018c 72       		.byte	0x72
 3327 018d 00       		.sleb128 0
 3328 018e 70       		.byte	0x70
 3329 018f 00       		.sleb128 0
 3330 0190 1C       		.byte	0x1c
 3331 0191 23       		.byte	0x23
 3332 0192 01       		.uleb128 0x1
 3333 0193 9F       		.byte	0x9f
 3334 0194 2A000000 		.4byte	.LVL23
 3335 0198 2E000000 		.4byte	.LVL24
 3336 019c 0600     		.2byte	0x6
 3337 019e 72       		.byte	0x72
 3338 019f 00       		.sleb128 0
 3339 01a0 70       		.byte	0x70
 3340 01a1 00       		.sleb128 0
 3341 01a2 1C       		.byte	0x1c
 3342 01a3 9F       		.byte	0x9f
ARM GAS  C:\Users\jsyoon\AppData\Local\Temp\cciv7kup.s 			page 60


 3343 01a4 2E000000 		.4byte	.LVL24
 3344 01a8 34000000 		.4byte	.LVL25
 3345 01ac 0800     		.2byte	0x8
 3346 01ae 72       		.byte	0x72
 3347 01af 00       		.sleb128 0
 3348 01b0 70       		.byte	0x70
 3349 01b1 00       		.sleb128 0
 3350 01b2 1C       		.byte	0x1c
 3351 01b3 23       		.byte	0x23
 3352 01b4 01       		.uleb128 0x1
 3353 01b5 9F       		.byte	0x9f
 3354 01b6 42000000 		.4byte	.LVL28
 3355 01ba 4C000000 		.4byte	.LFE123
 3356 01be 0200     		.2byte	0x2
 3357 01c0 30       		.byte	0x30
 3358 01c1 9F       		.byte	0x9f
 3359 01c2 00000000 		.4byte	0
 3360 01c6 00000000 		.4byte	0
 3361              	.LLST13:
 3362 01ca 34000000 		.4byte	.LVL25
 3363 01ce 3D000000 		.4byte	.LVL27-1
 3364 01d2 0100     		.2byte	0x1
 3365 01d4 51       		.byte	0x51
 3366 01d5 00000000 		.4byte	0
 3367 01d9 00000000 		.4byte	0
 3368              	.LLST14:
 3369 01dd 34000000 		.4byte	.LVL25
 3370 01e1 42000000 		.4byte	.LVL28
 3371 01e5 0100     		.2byte	0x1
 3372 01e7 56       		.byte	0x56
 3373 01e8 00000000 		.4byte	0
 3374 01ec 00000000 		.4byte	0
 3375              	.LLST15:
 3376 01f0 00000000 		.4byte	.LVL30
 3377 01f4 0E000000 		.4byte	.LVL31
 3378 01f8 0200     		.2byte	0x2
 3379 01fa 90       		.byte	0x90
 3380 01fb 40       		.uleb128 0x40
 3381 01fc 0E000000 		.4byte	.LVL31
 3382 0200 40000000 		.4byte	.LFE124
 3383 0204 0600     		.2byte	0x6
 3384 0206 F3       		.byte	0xf3
 3385 0207 03       		.uleb128 0x3
 3386 0208 F5       		.byte	0xf5
 3387 0209 40       		.uleb128 0x40
 3388 020a 25       		.uleb128 0x25
 3389 020b 9F       		.byte	0x9f
 3390 020c 00000000 		.4byte	0
 3391 0210 00000000 		.4byte	0
 3392              	.LLST16:
 3393 0214 2C000000 		.4byte	.LVL33
 3394 0218 33000000 		.4byte	.LVL34-1
 3395 021c 0100     		.2byte	0x1
 3396 021e 51       		.byte	0x51
 3397 021f 00000000 		.4byte	0
 3398 0223 00000000 		.4byte	0
 3399              	.LLST17:
ARM GAS  C:\Users\jsyoon\AppData\Local\Temp\cciv7kup.s 			page 61


 3400 0227 2C000000 		.4byte	.LVL33
 3401 022b 38000000 		.4byte	.LVL35
 3402 022f 0300     		.2byte	0x3
 3403 0231 91       		.byte	0x91
 3404 0232 70       		.sleb128 -16
 3405 0233 9F       		.byte	0x9f
 3406 0234 38000000 		.4byte	.LVL35
 3407 0238 40000000 		.4byte	.LFE124
 3408 023c 0300     		.2byte	0x3
 3409 023e 7D       		.byte	0x7d
 3410 023f 70       		.sleb128 -16
 3411 0240 9F       		.byte	0x9f
 3412 0241 00000000 		.4byte	0
 3413 0245 00000000 		.4byte	0
 3414              	.LLST18:
 3415 0249 00000000 		.4byte	.LVL36
 3416 024d 38000000 		.4byte	.LVL42
 3417 0251 0100     		.2byte	0x1
 3418 0253 50       		.byte	0x50
 3419 0254 38000000 		.4byte	.LVL42
 3420 0258 78000000 		.4byte	.LFE125
 3421 025c 0400     		.2byte	0x4
 3422 025e F3       		.byte	0xf3
 3423 025f 01       		.uleb128 0x1
 3424 0260 50       		.byte	0x50
 3425 0261 9F       		.byte	0x9f
 3426 0262 00000000 		.4byte	0
 3427 0266 00000000 		.4byte	0
 3428              	.LLST19:
 3429 026a 00000000 		.4byte	.LVL36
 3430 026e 22000000 		.4byte	.LVL40
 3431 0272 0100     		.2byte	0x1
 3432 0274 51       		.byte	0x51
 3433 0275 22000000 		.4byte	.LVL40
 3434 0279 70000000 		.4byte	.LVL48
 3435 027d 0100     		.2byte	0x1
 3436 027f 56       		.byte	0x56
 3437 0280 70000000 		.4byte	.LVL48
 3438 0284 78000000 		.4byte	.LFE125
 3439 0288 0400     		.2byte	0x4
 3440 028a F3       		.byte	0xf3
 3441 028b 01       		.uleb128 0x1
 3442 028c 51       		.byte	0x51
 3443 028d 9F       		.byte	0x9f
 3444 028e 00000000 		.4byte	0
 3445 0292 00000000 		.4byte	0
 3446              	.LLST20:
 3447 0296 16000000 		.4byte	.LVL37
 3448 029a 18000000 		.4byte	.LVL38
 3449 029e 0100     		.2byte	0x1
 3450 02a0 53       		.byte	0x53
 3451 02a1 18000000 		.4byte	.LVL38
 3452 02a5 1C000000 		.4byte	.LVL39
 3453 02a9 0300     		.2byte	0x3
 3454 02ab 73       		.byte	0x73
 3455 02ac 78       		.sleb128 -8
 3456 02ad 9F       		.byte	0x9f
ARM GAS  C:\Users\jsyoon\AppData\Local\Temp\cciv7kup.s 			page 62


 3457 02ae 1C000000 		.4byte	.LVL39
 3458 02b2 22000000 		.4byte	.LVL40
 3459 02b6 0500     		.2byte	0x5
 3460 02b8 71       		.byte	0x71
 3461 02b9 00       		.sleb128 0
 3462 02ba 32       		.byte	0x32
 3463 02bb 24       		.byte	0x24
 3464 02bc 9F       		.byte	0x9f
 3465 02bd 22000000 		.4byte	.LVL40
 3466 02c1 64000000 		.4byte	.LVL47
 3467 02c5 0500     		.2byte	0x5
 3468 02c7 76       		.byte	0x76
 3469 02c8 00       		.sleb128 0
 3470 02c9 32       		.byte	0x32
 3471 02ca 24       		.byte	0x24
 3472 02cb 9F       		.byte	0x9f
 3473 02cc 00000000 		.4byte	0
 3474 02d0 00000000 		.4byte	0
 3475              	.LLST21:
 3476 02d4 2C000000 		.4byte	.LVL41
 3477 02d8 64000000 		.4byte	.LVL47
 3478 02dc 0200     		.2byte	0x2
 3479 02de 78       		.byte	0x78
 3480 02df 00       		.sleb128 0
 3481 02e0 00000000 		.4byte	0
 3482 02e4 00000000 		.4byte	0
 3483              	.LLST22:
 3484 02e8 2C000000 		.4byte	.LVL41
 3485 02ec 38000000 		.4byte	.LVL42
 3486 02f0 0200     		.2byte	0x2
 3487 02f2 30       		.byte	0x30
 3488 02f3 9F       		.byte	0x9f
 3489 02f4 38000000 		.4byte	.LVL42
 3490 02f8 42000000 		.4byte	.LVL43
 3491 02fc 0100     		.2byte	0x1
 3492 02fe 54       		.byte	0x54
 3493 02ff 42000000 		.4byte	.LVL43
 3494 0303 52000000 		.4byte	.LVL44
 3495 0307 0300     		.2byte	0x3
 3496 0309 74       		.byte	0x74
 3497 030a 7F       		.sleb128 -1
 3498 030b 9F       		.byte	0x9f
 3499 030c 52000000 		.4byte	.LVL44
 3500 0310 58000000 		.4byte	.LVL45
 3501 0314 0100     		.2byte	0x1
 3502 0316 54       		.byte	0x54
 3503 0317 00000000 		.4byte	0
 3504 031b 00000000 		.4byte	0
 3505              	.LLST23:
 3506 031f 58000000 		.4byte	.LVL45
 3507 0323 61000000 		.4byte	.LVL46-1
 3508 0327 0100     		.2byte	0x1
 3509 0329 51       		.byte	0x51
 3510 032a 00000000 		.4byte	0
 3511 032e 00000000 		.4byte	0
 3512              	.LLST24:
 3513 0332 58000000 		.4byte	.LVL45
ARM GAS  C:\Users\jsyoon\AppData\Local\Temp\cciv7kup.s 			page 63


 3514 0336 64000000 		.4byte	.LVL47
 3515 033a 0100     		.2byte	0x1
 3516 033c 58       		.byte	0x58
 3517 033d 00000000 		.4byte	0
 3518 0341 00000000 		.4byte	0
 3519              		.section	.debug_aranges,"",%progbits
 3520 0000 5C000000 		.4byte	0x5c
 3521 0004 0200     		.2byte	0x2
 3522 0006 00000000 		.4byte	.Ldebug_info0
 3523 000a 04       		.byte	0x4
 3524 000b 00       		.byte	0
 3525 000c 0000     		.2byte	0
 3526 000e 0000     		.2byte	0
 3527 0010 00000000 		.4byte	.LFB126
 3528 0014 BC000000 		.4byte	.LFE126-.LFB126
 3529 0018 00000000 		.4byte	.LFB118
 3530 001c 24000000 		.4byte	.LFE118-.LFB118
 3531 0020 00000000 		.4byte	.LFB119
 3532 0024 0C000000 		.4byte	.LFE119-.LFB119
 3533 0028 00000000 		.4byte	.LFB120
 3534 002c 10000000 		.4byte	.LFE120-.LFB120
 3535 0030 00000000 		.4byte	.LFB121
 3536 0034 02000000 		.4byte	.LFE121-.LFB121
 3537 0038 00000000 		.4byte	.LFB122
 3538 003c 44000000 		.4byte	.LFE122-.LFB122
 3539 0040 00000000 		.4byte	.LFB123
 3540 0044 4C000000 		.4byte	.LFE123-.LFB123
 3541 0048 00000000 		.4byte	.LFB124
 3542 004c 40000000 		.4byte	.LFE124-.LFB124
 3543 0050 00000000 		.4byte	.LFB125
 3544 0054 78000000 		.4byte	.LFE125-.LFB125
 3545 0058 00000000 		.4byte	0
 3546 005c 00000000 		.4byte	0
 3547              		.section	.debug_ranges,"",%progbits
 3548              	.Ldebug_ranges0:
 3549 0000 14000000 		.4byte	.LBB15
 3550 0004 16000000 		.4byte	.LBE15
 3551 0008 22000000 		.4byte	.LBB20
 3552 000c 26000000 		.4byte	.LBE20
 3553 0010 28000000 		.4byte	.LBB21
 3554 0014 8A000000 		.4byte	.LBE21
 3555 0018 8C000000 		.4byte	.LBB22
 3556 001c BC000000 		.4byte	.LBE22
 3557 0020 00000000 		.4byte	0
 3558 0024 00000000 		.4byte	0
 3559 0028 7E000000 		.4byte	.LBB16
 3560 002c 82000000 		.4byte	.LBE16
 3561 0030 84000000 		.4byte	.LBB19
 3562 0034 8A000000 		.4byte	.LBE19
 3563 0038 00000000 		.4byte	0
 3564 003c 00000000 		.4byte	0
 3565 0040 20000000 		.4byte	.LBB23
 3566 0044 24000000 		.4byte	.LBE23
 3567 0048 2C000000 		.4byte	.LBB26
 3568 004c 32000000 		.4byte	.LBE26
 3569 0050 00000000 		.4byte	0
 3570 0054 00000000 		.4byte	0
ARM GAS  C:\Users\jsyoon\AppData\Local\Temp\cciv7kup.s 			page 64


 3571 0058 10000000 		.4byte	.LBB27
 3572 005c 12000000 		.4byte	.LBE27
 3573 0060 1C000000 		.4byte	.LBB28
 3574 0064 34000000 		.4byte	.LBE28
 3575 0068 42000000 		.4byte	.LBB31
 3576 006c 4C000000 		.4byte	.LBE31
 3577 0070 00000000 		.4byte	0
 3578 0074 00000000 		.4byte	0
 3579 0078 28000000 		.4byte	.LBB32
 3580 007c 2A000000 		.4byte	.LBE32
 3581 0080 2C000000 		.4byte	.LBB35
 3582 0084 34000000 		.4byte	.LBE35
 3583 0088 00000000 		.4byte	0
 3584 008c 00000000 		.4byte	0
 3585 0090 24000000 		.4byte	.LBB36
 3586 0094 26000000 		.4byte	.LBE36
 3587 0098 2E000000 		.4byte	.LBB37
 3588 009c 58000000 		.4byte	.LBE37
 3589 00a0 00000000 		.4byte	0
 3590 00a4 00000000 		.4byte	0
 3591 00a8 00000000 		.4byte	.LFB126
 3592 00ac BC000000 		.4byte	.LFE126
 3593 00b0 00000000 		.4byte	.LFB118
 3594 00b4 24000000 		.4byte	.LFE118
 3595 00b8 00000000 		.4byte	.LFB119
 3596 00bc 0C000000 		.4byte	.LFE119
 3597 00c0 00000000 		.4byte	.LFB120
 3598 00c4 10000000 		.4byte	.LFE120
 3599 00c8 00000000 		.4byte	.LFB121
 3600 00cc 02000000 		.4byte	.LFE121
 3601 00d0 00000000 		.4byte	.LFB122
 3602 00d4 44000000 		.4byte	.LFE122
 3603 00d8 00000000 		.4byte	.LFB123
 3604 00dc 4C000000 		.4byte	.LFE123
 3605 00e0 00000000 		.4byte	.LFB124
 3606 00e4 40000000 		.4byte	.LFE124
 3607 00e8 00000000 		.4byte	.LFB125
 3608 00ec 78000000 		.4byte	.LFE125
 3609 00f0 00000000 		.4byte	0
 3610 00f4 00000000 		.4byte	0
 3611              		.section	.debug_line,"",%progbits
 3612              	.Ldebug_line0:
 3613 0000 99030000 		.section	.debug_str,"MS",%progbits,1
 3613      02005602 
 3613      00000201 
 3613      FB0E0D00 
 3613      01010101 
 3614              	.LASF71:
 3615 0000 7466756E 		.ascii	"tfunc_t\000"
 3615      635F7400 
 3616              	.LASF107:
 3617 0008 636F6D6D 		.ascii	"commands_init\000"
 3617      616E6473 
 3617      5F696E69 
 3617      7400
 3618              	.LASF18:
 3619 0016 73697A65 		.ascii	"size_t\000"
ARM GAS  C:\Users\jsyoon\AppData\Local\Temp\cciv7kup.s 			page 65


 3619      5F7400
 3620              	.LASF89:
 3621 001d 434F4D4D 		.ascii	"COMM_TERMINAL_CMD\000"
 3621      5F544552 
 3621      4D494E41 
 3621      4C5F434D 
 3621      4400
 3622              	.LASF66:
 3623 002f 7264796D 		.ascii	"rdymsg\000"
 3623      736700
 3624              	.LASF126:
 3625 0036 64657465 		.ascii	"detect_current\000"
 3625      63745F63 
 3625      75727265 
 3625      6E7400
 3626              	.LASF99:
 3627 0045 434F4D4D 		.ascii	"COMM_FORWARD_CAN\000"
 3627      5F464F52 
 3627      57415244 
 3627      5F43414E 
 3627      00
 3628              	.LASF5:
 3629 0056 5F5F7569 		.ascii	"__uint8_t\000"
 3629      6E74385F 
 3629      7400
 3630              	.LASF105:
 3631 0060 76615F6C 		.ascii	"va_list\000"
 3631      69737400 
 3632              	.LASF117:
 3633 0068 636F6D6D 		.ascii	"commands_send_rotor_pos\000"
 3633      616E6473 
 3633      5F73656E 
 3633      645F726F 
 3633      746F725F 
 3634              	.LASF132:
 3635 0080 63684576 		.ascii	"chEvtWaitAny\000"
 3635      74576169 
 3635      74416E79 
 3635      00
 3636              	.LASF48:
 3637 008d 54687265 		.ascii	"ThreadsQueue\000"
 3637      61647351 
 3637      75657565 
 3637      00
 3638              	.LASF131:
 3639 009a 49544D5F 		.ascii	"ITM_RxBuffer\000"
 3639      52784275 
 3639      66666572 
 3639      00
 3640              	.LASF114:
 3641 00a7 636F6D6D 		.ascii	"commands_send_samples\000"
 3641      616E6473 
 3641      5F73656E 
 3641      645F7361 
 3641      6D706C65 
 3642              	.LASF81:
 3643 00bd 434F4D4D 		.ascii	"COMM_SET_POS\000"
ARM GAS  C:\Users\jsyoon\AppData\Local\Temp\cciv7kup.s 			page 66


 3643      5F534554 
 3643      5F504F53 
 3643      00
 3644              	.LASF31:
 3645 00ca 705F7072 		.ascii	"p_prio\000"
 3645      696F00
 3646              	.LASF10:
 3647 00d1 6C6F6E67 		.ascii	"long long int\000"
 3647      206C6F6E 
 3647      6720696E 
 3647      7400
 3648              	.LASF1:
 3649 00df 7369676E 		.ascii	"signed char\000"
 3649      65642063 
 3649      68617200 
 3650              	.LASF9:
 3651 00eb 6C6F6E67 		.ascii	"long unsigned int\000"
 3651      20756E73 
 3651      69676E65 
 3651      6420696E 
 3651      7400
 3652              	.LASF47:
 3653 00fd 705F6D70 		.ascii	"p_mpool\000"
 3653      6F6F6C00 
 3654              	.LASF88:
 3655 0105 434F4D4D 		.ascii	"COMM_SAMPLE_PRINT\000"
 3655      5F53414D 
 3655      504C455F 
 3655      5052494E 
 3655      5400
 3656              	.LASF63:
 3657 0117 6D5F7175 		.ascii	"m_queue\000"
 3657      65756500 
 3658              	.LASF23:
 3659 011f 74736C69 		.ascii	"tslices_t\000"
 3659      6365735F 
 3659      7400
 3660              	.LASF140:
 3661 0129 453A5C4D 		.ascii	"E:\\Maker\\BLDC\\test_eval\\try2\\OROCA-BLDC_R15080"
 3661      616B6572 
 3661      5C424C44 
 3661      435C7465 
 3661      73745F65 
 3662 0157 3700     		.ascii	"7\000"
 3663              	.LASF7:
 3664 0159 6C6F6E67 		.ascii	"long int\000"
 3664      20696E74 
 3664      00
 3665              	.LASF21:
 3666 0162 74737461 		.ascii	"tstate_t\000"
 3666      74655F74 
 3666      00
 3667              	.LASF113:
 3668 016b 7072696E 		.ascii	"print_buffer\000"
 3668      745F6275 
 3668      66666572 
 3668      00
ARM GAS  C:\Users\jsyoon\AppData\Local\Temp\cciv7kup.s 			page 67


 3669              	.LASF109:
 3670 0178 66756E63 		.ascii	"func\000"
 3670      00
 3671              	.LASF138:
 3672 017d 474E5520 		.ascii	"GNU C 4.8.4 20140526 (release) [ARM/embedded-4_8-br"
 3672      4320342E 
 3672      382E3420 
 3672      32303134 
 3672      30353236 
 3673 01b0 616E6368 		.ascii	"anch revision 211358] -mcpu=cortex-m4 -mfloat-abi=h"
 3673      20726576 
 3673      6973696F 
 3673      6E203231 
 3673      31333538 
 3674 01e3 61726420 		.ascii	"ard -mfpu=fpv4-sp-d16 -mno-thumb-interwork -mthumb "
 3674      2D6D6670 
 3674      753D6670 
 3674      76342D73 
 3674      702D6431 
 3675 0216 2D676764 		.ascii	"-ggdb -O2 -std=gnu99 -fomit-frame-pointer -falign-f"
 3675      62202D4F 
 3675      32202D73 
 3675      74643D67 
 3675      6E753939 
 3676 0249 756E6374 		.ascii	"unctions=16 -ffunction-sections -fdata-sections -fn"
 3676      696F6E73 
 3676      3D313620 
 3676      2D666675 
 3676      6E637469 
 3677 027c 6F2D636F 		.ascii	"o-common -fsingle-precision-constant\000"
 3677      6D6D6F6E 
 3677      202D6673 
 3677      696E676C 
 3677      652D7072 
 3678              	.LASF108:
 3679 02a1 636F6D6D 		.ascii	"commands_set_send_func\000"
 3679      616E6473 
 3679      5F736574 
 3679      5F73656E 
 3679      645F6675 
 3680              	.LASF75:
 3681 02b8 434F4D4D 		.ascii	"COMM_WRITE_NEW_APP_DATA\000"
 3681      5F575249 
 3681      54455F4E 
 3681      45575F41 
 3681      50505F44 
 3682              	.LASF104:
 3683 02d0 5F5F6170 		.ascii	"__ap\000"
 3683      00
 3684              	.LASF33:
 3685 02d5 705F6E65 		.ascii	"p_newer\000"
 3685      77657200 
 3686              	.LASF67:
 3687 02dd 65786974 		.ascii	"exitcode\000"
 3687      636F6465 
 3687      00
 3688              	.LASF8:
ARM GAS  C:\Users\jsyoon\AppData\Local\Temp\cciv7kup.s 			page 68


 3689 02e6 5F5F7569 		.ascii	"__uint32_t\000"
 3689      6E743332 
 3689      5F7400
 3690              	.LASF50:
 3691 02f1 72656761 		.ascii	"regarm_t\000"
 3691      726D5F74 
 3691      00
 3692              	.LASF103:
 3693 02fa 5F5F7661 		.ascii	"__va_list\000"
 3693      5F6C6973 
 3693      7400
 3694              	.LASF127:
 3695 0304 64657465 		.ascii	"detect_min_rpm\000"
 3695      63745F6D 
 3695      696E5F72 
 3695      706D00
 3696              	.LASF97:
 3697 0313 434F4D4D 		.ascii	"COMM_GET_DECODED_ADC\000"
 3697      5F474554 
 3697      5F444543 
 3697      4F444544 
 3697      5F414443 
 3698              	.LASF85:
 3699 0328 434F4D4D 		.ascii	"COMM_GET_MCCONF\000"
 3699      5F474554 
 3699      5F4D4343 
 3699      4F4E4600 
 3700              	.LASF79:
 3701 0338 434F4D4D 		.ascii	"COMM_SET_CURRENT_BRAKE\000"
 3701      5F534554 
 3701      5F435552 
 3701      52454E54 
 3701      5F425241 
 3702              	.LASF13:
 3703 034f 756E7369 		.ascii	"unsigned int\000"
 3703      676E6564 
 3703      20696E74 
 3703      00
 3704              	.LASF72:
 3705 035c 434F4D4D 		.ascii	"COMM_FW_VERSION\000"
 3705      5F46575F 
 3705      56455253 
 3705      494F4E00 
 3706              	.LASF118:
 3707 036c 726F746F 		.ascii	"rotor_pos\000"
 3707      725F706F 
 3707      7300
 3708              	.LASF12:
 3709 0376 6C6F6E67 		.ascii	"long long unsigned int\000"
 3709      206C6F6E 
 3709      6720756E 
 3709      7369676E 
 3709      65642069 
 3710              	.LASF106:
 3711 038d 64617461 		.ascii	"data\000"
 3711      00
 3712              	.LASF53:
ARM GAS  C:\Users\jsyoon\AppData\Local\Temp\cciv7kup.s 			page 69


 3713 0392 636F6E74 		.ascii	"context\000"
 3713      65787400 
 3714              	.LASF4:
 3715 039a 73686F72 		.ascii	"short unsigned int\000"
 3715      7420756E 
 3715      7369676E 
 3715      65642069 
 3715      6E7400
 3716              	.LASF121:
 3717 03ad 64657465 		.ascii	"detect_thread_wa\000"
 3717      63745F74 
 3717      68726561 
 3717      645F7761 
 3717      00
 3718              	.LASF133:
 3719 03be 636F6E66 		.ascii	"conf_general_detect_motor_param\000"
 3719      5F67656E 
 3719      6572616C 
 3719      5F646574 
 3719      6563745F 
 3720              	.LASF25:
 3721 03de 6D73675F 		.ascii	"msg_t\000"
 3721      7400
 3722              	.LASF58:
 3723 03e4 725F6E65 		.ascii	"r_newer\000"
 3723      77657200 
 3724              	.LASF76:
 3725 03ec 434F4D4D 		.ascii	"COMM_GET_VALUES\000"
 3725      5F474554 
 3725      5F56414C 
 3725      55455300 
 3726              	.LASF90:
 3727 03fc 434F4D4D 		.ascii	"COMM_PRINT\000"
 3727      5F505249 
 3727      4E5400
 3728              	.LASF20:
 3729 0407 746D6F64 		.ascii	"tmode_t\000"
 3729      655F7400 
 3730              	.LASF86:
 3731 040f 434F4D4D 		.ascii	"COMM_SET_APPCONF\000"
 3731      5F534554 
 3731      5F415050 
 3731      434F4E46 
 3731      00
 3732              	.LASF49:
 3733 0420 54687265 		.ascii	"ThreadsList\000"
 3733      6164734C 
 3733      69737400 
 3734              	.LASF26:
 3735 042c 6576656E 		.ascii	"eventmask_t\000"
 3735      746D6173 
 3735      6B5F7400 
 3736              	.LASF62:
 3737 0438 4D757465 		.ascii	"Mutex\000"
 3737      7800
 3738              	.LASF6:
 3739 043e 5F5F696E 		.ascii	"__int32_t\000"
ARM GAS  C:\Users\jsyoon\AppData\Local\Temp\cciv7kup.s 			page 70


 3739      7433325F 
 3739      7400
 3740              	.LASF51:
 3741 0448 73746B61 		.ascii	"stkalign_t\000"
 3741      6C69676E 
 3741      5F7400
 3742              	.LASF136:
 3743 0453 63685468 		.ascii	"chThdCreateStatic\000"
 3743      64437265 
 3743      61746553 
 3743      74617469 
 3743      6300
 3744              	.LASF122:
 3745 0465 64657465 		.ascii	"detect_tp\000"
 3745      63745F74 
 3745      7000
 3746              	.LASF120:
 3747 046f 73616D70 		.ascii	"samples\000"
 3747      6C657300 
 3748              	.LASF124:
 3749 0477 64657465 		.ascii	"detect_cycle_int_limit\000"
 3749      63745F63 
 3749      79636C65 
 3749      5F696E74 
 3749      5F6C696D 
 3750              	.LASF54:
 3751 048e 73697A65 		.ascii	"sizetype\000"
 3751      74797065 
 3751      00
 3752              	.LASF102:
 3753 0497 5F5F676E 		.ascii	"__gnuc_va_list\000"
 3753      75635F76 
 3753      615F6C69 
 3753      737400
 3754              	.LASF44:
 3755 04a6 705F6570 		.ascii	"p_epending\000"
 3755      656E6469 
 3755      6E6700
 3756              	.LASF17:
 3757 04b1 75696E74 		.ascii	"uint64_t\000"
 3757      36345F74 
 3757      00
 3758              	.LASF34:
 3759 04ba 705F6F6C 		.ascii	"p_older\000"
 3759      64657200 
 3760              	.LASF57:
 3761 04c2 725F6374 		.ascii	"r_ctx\000"
 3761      7800
 3762              	.LASF123:
 3763 04c8 73656E64 		.ascii	"send_buffer\000"
 3763      5F627566 
 3763      66657200 
 3764              	.LASF60:
 3765 04d4 725F6375 		.ascii	"r_current\000"
 3765      7272656E 
 3765      7400
 3766              	.LASF59:
ARM GAS  C:\Users\jsyoon\AppData\Local\Temp\cciv7kup.s 			page 71


 3767 04de 725F6F6C 		.ascii	"r_older\000"
 3767      64657200 
 3768              	.LASF111:
 3769 04e6 636F6D6D 		.ascii	"commands_printf\000"
 3769      616E6473 
 3769      5F707269 
 3769      6E746600 
 3770              	.LASF39:
 3771 04f6 705F7072 		.ascii	"p_preempt\000"
 3771      65656D70 
 3771      7400
 3772              	.LASF11:
 3773 0500 5F5F7569 		.ascii	"__uint64_t\000"
 3773      6E743634 
 3773      5F7400
 3774              	.LASF0:
 3775 050b 666C6F61 		.ascii	"float\000"
 3775      7400
 3776              	.LASF137:
 3777 0511 76736E70 		.ascii	"vsnprintf\000"
 3777      72696E74 
 3777      6600
 3778              	.LASF22:
 3779 051b 74726566 		.ascii	"trefs_t\000"
 3779      735F7400 
 3780              	.LASF110:
 3781 0523 636F6D6D 		.ascii	"commands_process_packet\000"
 3781      616E6473 
 3781      5F70726F 
 3781      63657373 
 3781      5F706163 
 3782              	.LASF30:
 3783 053b 705F7072 		.ascii	"p_prev\000"
 3783      657600
 3784              	.LASF24:
 3785 0542 74707269 		.ascii	"tprio_t\000"
 3785      6F5F7400 
 3786              	.LASF19:
 3787 054a 5F426F6F 		.ascii	"_Bool\000"
 3787      6C00
 3788              	.LASF15:
 3789 0550 696E7433 		.ascii	"int32_t\000"
 3789      325F7400 
 3790              	.LASF2:
 3791 0558 756E7369 		.ascii	"unsigned char\000"
 3791      676E6564 
 3791      20636861 
 3791      7200
 3792              	.LASF45:
 3793 0566 705F6D74 		.ascii	"p_mtxlist\000"
 3793      786C6973 
 3793      7400
 3794              	.LASF3:
 3795 0570 73686F72 		.ascii	"short int\000"
 3795      7420696E 
 3795      7400
 3796              	.LASF36:
ARM GAS  C:\Users\jsyoon\AppData\Local\Temp\cciv7kup.s 			page 72


 3797 057a 705F7374 		.ascii	"p_state\000"
 3797      61746500 
 3798              	.LASF95:
 3799 0582 434F4D4D 		.ascii	"COMM_ALIVE\000"
 3799      5F414C49 
 3799      564500
 3800              	.LASF56:
 3801 058d 725F7072 		.ascii	"r_prio\000"
 3801      696F00
 3802              	.LASF69:
 3803 0594 65776D61 		.ascii	"ewmask\000"
 3803      736B00
 3804              	.LASF29:
 3805 059b 705F6E65 		.ascii	"p_next\000"
 3805      787400
 3806              	.LASF94:
 3807 05a2 434F4D4D 		.ascii	"COMM_REBOOT\000"
 3807      5F524542 
 3807      4F4F5400 
 3808              	.LASF37:
 3809 05ae 705F666C 		.ascii	"p_flags\000"
 3809      61677300 
 3810              	.LASF112:
 3811 05b6 666F726D 		.ascii	"format\000"
 3811      617400
 3812              	.LASF28:
 3813 05bd 54687265 		.ascii	"Thread\000"
 3813      616400
 3814              	.LASF100:
 3815 05c4 646F7562 		.ascii	"double\000"
 3815      6C6500
 3816              	.LASF129:
 3817 05cb 73656E64 		.ascii	"send_func\000"
 3817      5F66756E 
 3817      6300
 3818              	.LASF55:
 3819 05d5 725F7175 		.ascii	"r_queue\000"
 3819      65756500 
 3820              	.LASF92:
 3821 05dd 434F4D4D 		.ascii	"COMM_EXPERIMENT_SAMPLE\000"
 3821      5F455850 
 3821      4552494D 
 3821      454E545F 
 3821      53414D50 
 3822              	.LASF101:
 3823 05f4 6C6F6E67 		.ascii	"long double\000"
 3823      20646F75 
 3823      626C6500 
 3824              	.LASF70:
 3825 0600 63686172 		.ascii	"char\000"
 3825      00
 3826              	.LASF141:
 3827 0605 64657465 		.ascii	"detect_thread\000"
 3827      63745F74 
 3827      68726561 
 3827      6400
 3828              	.LASF116:
ARM GAS  C:\Users\jsyoon\AppData\Local\Temp\cciv7kup.s 			page 73


 3829 0613 696E6465 		.ascii	"index\000"
 3829      7800
 3830              	.LASF65:
 3831 0619 6D5F6E65 		.ascii	"m_next\000"
 3831      787400
 3832              	.LASF27:
 3833 0620 73797374 		.ascii	"systime_t\000"
 3833      696D655F 
 3833      7400
 3834              	.LASF46:
 3835 062a 705F7265 		.ascii	"p_realprio\000"
 3835      616C7072 
 3835      696F00
 3836              	.LASF115:
 3837 0635 62756666 		.ascii	"buffer\000"
 3837      657200
 3838              	.LASF93:
 3839 063c 434F4D4D 		.ascii	"COMM_DETECT_MOTOR_PARAM\000"
 3839      5F444554 
 3839      4543545F 
 3839      4D4F544F 
 3839      525F5041 
 3840              	.LASF74:
 3841 0654 434F4D4D 		.ascii	"COMM_ERASE_NEW_APP\000"
 3841      5F455241 
 3841      53455F4E 
 3841      45575F41 
 3841      505000
 3842              	.LASF78:
 3843 0667 434F4D4D 		.ascii	"COMM_SET_CURRENT\000"
 3843      5F534554 
 3843      5F435552 
 3843      52454E54 
 3843      00
 3844              	.LASF73:
 3845 0678 434F4D4D 		.ascii	"COMM_JUMP_TO_BOOTLOADER\000"
 3845      5F4A554D 
 3845      505F544F 
 3845      5F424F4F 
 3845      544C4F41 
 3846              	.LASF82:
 3847 0690 434F4D4D 		.ascii	"COMM_SET_DETECT\000"
 3847      5F534554 
 3847      5F444554 
 3847      45435400 
 3848              	.LASF40:
 3849 06a0 705F7469 		.ascii	"p_time\000"
 3849      6D6500
 3850              	.LASF52:
 3851 06a7 696E7463 		.ascii	"intctx\000"
 3851      747800
 3852              	.LASF42:
 3853 06ae 705F6D73 		.ascii	"p_msgqueue\000"
 3853      67717565 
 3853      756500
 3854              	.LASF87:
 3855 06b9 434F4D4D 		.ascii	"COMM_GET_APPCONF\000"
ARM GAS  C:\Users\jsyoon\AppData\Local\Temp\cciv7kup.s 			page 74


 3855      5F474554 
 3855      5F415050 
 3855      434F4E46 
 3855      00
 3856              	.LASF16:
 3857 06ca 75696E74 		.ascii	"uint32_t\000"
 3857      33325F74 
 3857      00
 3858              	.LASF84:
 3859 06d3 434F4D4D 		.ascii	"COMM_SET_MCCONF\000"
 3859      5F534554 
 3859      5F4D4343 
 3859      4F4E4600 
 3860              	.LASF38:
 3861 06e3 705F7265 		.ascii	"p_refs\000"
 3861      667300
 3862              	.LASF134:
 3863 06ea 636F6D6D 		.ascii	"commands_send_packet\000"
 3863      616E6473 
 3863      5F73656E 
 3863      645F7061 
 3863      636B6574 
 3864              	.LASF61:
 3865 06ff 52656164 		.ascii	"ReadyList\000"
 3865      794C6973 
 3865      7400
 3866              	.LASF80:
 3867 0709 434F4D4D 		.ascii	"COMM_SET_RPM\000"
 3867      5F534554 
 3867      5F52504D 
 3867      00
 3868              	.LASF130:
 3869 0716 726C6973 		.ascii	"rlist\000"
 3869      7400
 3870              	.LASF128:
 3871 071c 64657465 		.ascii	"detect_low_duty\000"
 3871      63745F6C 
 3871      6F775F64 
 3871      75747900 
 3872              	.LASF14:
 3873 072c 75696E74 		.ascii	"uint8_t\000"
 3873      385F7400 
 3874              	.LASF135:
 3875 0734 62756666 		.ascii	"buffer_append_int32\000"
 3875      65725F61 
 3875      7070656E 
 3875      645F696E 
 3875      74333200 
 3876              	.LASF96:
 3877 0748 434F4D4D 		.ascii	"COMM_GET_DECODED_PPM\000"
 3877      5F474554 
 3877      5F444543 
 3877      4F444544 
 3877      5F50504D 
 3878              	.LASF139:
 3879 075d 636F6D6D 		.ascii	"commands.c\000"
 3879      616E6473 
ARM GAS  C:\Users\jsyoon\AppData\Local\Temp\cciv7kup.s 			page 75


 3879      2E6300
 3880              	.LASF83:
 3881 0768 434F4D4D 		.ascii	"COMM_SET_SERVO_OFFSET\000"
 3881      5F534554 
 3881      5F534552 
 3881      564F5F4F 
 3881      46465345 
 3882              	.LASF68:
 3883 077e 77746F62 		.ascii	"wtobjp\000"
 3883      6A7000
 3884              	.LASF119:
 3885 0785 636F6D6D 		.ascii	"commands_send_experiment_samples\000"
 3885      616E6473 
 3885      5F73656E 
 3885      645F6578 
 3885      70657269 
 3886              	.LASF35:
 3887 07a6 705F6E61 		.ascii	"p_name\000"
 3887      6D6500
 3888              	.LASF125:
 3889 07ad 64657465 		.ascii	"detect_coupling_k\000"
 3889      63745F63 
 3889      6F75706C 
 3889      696E675F 
 3889      6B00
 3890              	.LASF43:
 3891 07bf 705F6D73 		.ascii	"p_msg\000"
 3891      6700
 3892              	.LASF91:
 3893 07c5 434F4D4D 		.ascii	"COMM_ROTOR_POSITION\000"
 3893      5F524F54 
 3893      4F525F50 
 3893      4F534954 
 3893      494F4E00 
 3894              	.LASF77:
 3895 07d9 434F4D4D 		.ascii	"COMM_SET_DUTY\000"
 3895      5F534554 
 3895      5F445554 
 3895      5900
 3896              	.LASF64:
 3897 07e7 6D5F6F77 		.ascii	"m_owner\000"
 3897      6E657200 
 3898              	.LASF98:
 3899 07ef 434F4D4D 		.ascii	"COMM_GET_DECODED_CHUK\000"
 3899      5F474554 
 3899      5F444543 
 3899      4F444544 
 3899      5F434855 
 3900              	.LASF32:
 3901 0805 705F6374 		.ascii	"p_ctx\000"
 3901      7800
 3902              	.LASF41:
 3903 080b 705F7761 		.ascii	"p_waiting\000"
 3903      6974696E 
 3903      6700
 3904              		.ident	"GCC: (GNU Tools for ARM Embedded Processors) 4.8.4 20140526 (release) [ARM/embedded-4_8-br
ARM GAS  C:\Users\jsyoon\AppData\Local\Temp\cciv7kup.s 			page 76


DEFINED SYMBOLS
                            *ABS*:00000000 commands.c
C:\Users\jsyoon\AppData\Local\Temp\cciv7kup.s:21     .text.detect_thread:00000000 $t
C:\Users\jsyoon\AppData\Local\Temp\cciv7kup.s:26     .text.detect_thread:00000000 detect_thread
C:\Users\jsyoon\AppData\Local\Temp\cciv7kup.s:154    .text.detect_thread:00000098 $d
C:\Users\jsyoon\AppData\Local\Temp\cciv7kup.s:168    .text.commands_init:00000000 $t
C:\Users\jsyoon\AppData\Local\Temp\cciv7kup.s:174    .text.commands_init:00000000 commands_init
C:\Users\jsyoon\AppData\Local\Temp\cciv7kup.s:201    .text.commands_init:0000001c $d
C:\Users\jsyoon\AppData\Local\Temp\cciv7kup.s:207    .text.commands_set_send_func:00000000 $t
C:\Users\jsyoon\AppData\Local\Temp\cciv7kup.s:213    .text.commands_set_send_func:00000000 commands_set_send_func
C:\Users\jsyoon\AppData\Local\Temp\cciv7kup.s:228    .text.commands_set_send_func:00000008 $d
C:\Users\jsyoon\AppData\Local\Temp\cciv7kup.s:233    .text.commands_send_packet:00000000 $t
C:\Users\jsyoon\AppData\Local\Temp\cciv7kup.s:239    .text.commands_send_packet:00000000 commands_send_packet
C:\Users\jsyoon\AppData\Local\Temp\cciv7kup.s:262    .text.commands_send_packet:0000000c $d
C:\Users\jsyoon\AppData\Local\Temp\cciv7kup.s:267    .text.commands_process_packet:00000000 $t
C:\Users\jsyoon\AppData\Local\Temp\cciv7kup.s:273    .text.commands_process_packet:00000000 commands_process_packet
C:\Users\jsyoon\AppData\Local\Temp\cciv7kup.s:286    .text.commands_printf:00000000 $t
C:\Users\jsyoon\AppData\Local\Temp\cciv7kup.s:292    .text.commands_printf:00000000 commands_printf
C:\Users\jsyoon\AppData\Local\Temp\cciv7kup.s:364    .text.commands_printf:0000003c $d
C:\Users\jsyoon\AppData\Local\Temp\cciv7kup.s:370    .text.commands_send_samples:00000000 $t
C:\Users\jsyoon\AppData\Local\Temp\cciv7kup.s:376    .text.commands_send_samples:00000000 commands_send_samples
C:\Users\jsyoon\AppData\Local\Temp\cciv7kup.s:457    .text.commands_send_samples:00000048 $d
C:\Users\jsyoon\AppData\Local\Temp\cciv7kup.s:463    .text.commands_send_rotor_pos:00000000 $t
C:\Users\jsyoon\AppData\Local\Temp\cciv7kup.s:469    .text.commands_send_rotor_pos:00000000 commands_send_rotor_pos
C:\Users\jsyoon\AppData\Local\Temp\cciv7kup.s:535    .text.commands_send_rotor_pos:00000038 $d
C:\Users\jsyoon\AppData\Local\Temp\cciv7kup.s:541    .text.commands_send_experiment_samples:00000000 $t
C:\Users\jsyoon\AppData\Local\Temp\cciv7kup.s:547    .text.commands_send_experiment_samples:00000000 commands_send_experiment_samples
C:\Users\jsyoon\AppData\Local\Temp\cciv7kup.s:658    .text.commands_send_experiment_samples:00000070 $d
C:\Users\jsyoon\AppData\Local\Temp\cciv7kup.s:664    .bss.send_func:00000000 $d
C:\Users\jsyoon\AppData\Local\Temp\cciv7kup.s:668    .bss.send_func:00000000 send_func
C:\Users\jsyoon\AppData\Local\Temp\cciv7kup.s:671    .bss.print_buffer.11219:00000000 $d
C:\Users\jsyoon\AppData\Local\Temp\cciv7kup.s:675    .bss.print_buffer.11219:00000000 print_buffer.11219
C:\Users\jsyoon\AppData\Local\Temp\cciv7kup.s:678    .bss.detect_thread_wa:00000000 $d
C:\Users\jsyoon\AppData\Local\Temp\cciv7kup.s:682    .bss.detect_thread_wa:00000000 detect_thread_wa
C:\Users\jsyoon\AppData\Local\Temp\cciv7kup.s:685    .bss.send_buffer:00000000 $d
C:\Users\jsyoon\AppData\Local\Temp\cciv7kup.s:689    .bss.send_buffer:00000000 send_buffer
C:\Users\jsyoon\AppData\Local\Temp\cciv7kup.s:692    .rodata.str1.4:00000000 $d
C:\Users\jsyoon\AppData\Local\Temp\cciv7kup.s:696    .bss.detect_tp:00000000 $d
C:\Users\jsyoon\AppData\Local\Temp\cciv7kup.s:700    .bss.detect_tp:00000000 detect_tp
C:\Users\jsyoon\AppData\Local\Temp\cciv7kup.s:703    .bss.detect_coupling_k:00000000 $d
C:\Users\jsyoon\AppData\Local\Temp\cciv7kup.s:707    .bss.detect_coupling_k:00000000 detect_coupling_k
C:\Users\jsyoon\AppData\Local\Temp\cciv7kup.s:710    .bss.detect_cycle_int_limit:00000000 $d
C:\Users\jsyoon\AppData\Local\Temp\cciv7kup.s:714    .bss.detect_cycle_int_limit:00000000 detect_cycle_int_limit
                     .debug_frame:00000010 $d
C:\Users\jsyoon\AppData\Local\Temp\cciv7kup.s:167    .text.detect_thread:000000bc $t
C:\Users\jsyoon\AppData\Local\Temp\cciv7kup.s:206    .text.commands_init:00000024 $t
C:\Users\jsyoon\AppData\Local\Temp\cciv7kup.s:232    .text.commands_set_send_func:0000000c $t
C:\Users\jsyoon\AppData\Local\Temp\cciv7kup.s:369    .text.commands_printf:00000044 $t
C:\Users\jsyoon\AppData\Local\Temp\cciv7kup.s:462    .text.commands_send_samples:0000004c $t
C:\Users\jsyoon\AppData\Local\Temp\cciv7kup.s:663    .text.commands_send_experiment_samples:00000078 $t

UNDEFINED SYMBOLS
chEvtWaitAny
conf_general_detect_motor_param
buffer_append_int32
rlist
chThdCreateStatic
ARM GAS  C:\Users\jsyoon\AppData\Local\Temp\cciv7kup.s 			page 77


vsnprintf
