ARM GAS  C:\Users\jsyoon\AppData\Local\Temp\cciZEyPd.s 			page 1


   1              		.syntax unified
   2              		.cpu cortex-m4
   3              		.eabi_attribute 27, 3
   4              		.eabi_attribute 28, 1
   5              		.fpu fpv4-sp-d16
   6              		.eabi_attribute 20, 1
   7              		.eabi_attribute 21, 1
   8              		.eabi_attribute 23, 3
   9              		.eabi_attribute 24, 1
  10              		.eabi_attribute 25, 1
  11              		.eabi_attribute 26, 1
  12              		.eabi_attribute 30, 2
  13              		.eabi_attribute 34, 1
  14              		.eabi_attribute 18, 4
  15              		.thumb
  16              		.file	"comm_can.c"
  17              		.text
  18              	.Ltext0:
  19              		.cfi_sections	.debug_frame
  20              		.section	.text.cancom_process_thread,"ax",%progbits
  21              		.align	2
  22              		.p2align 4,,15
  23              		.thumb
  24              		.thumb_func
  25              		.type	cancom_process_thread, %function
  26              	cancom_process_thread:
  27              	.LFB120:
  28              		.file 1 "comm_can.c"
  29              		.loc 1 136 0
  30              		.cfi_startproc
  31              		@ args = 0, pretend = 0, frame = 0
  32              		@ frame_needed = 0, uses_anonymous_args = 0
  33              		@ link register save eliminated.
  34              	.LVL0:
  35              		.loc 1 139 0
  36 0000 034B     		ldr	r3, .L4
  37              		.loc 1 140 0
  38 0002 044A     		ldr	r2, .L4+4
  39              		.loc 1 139 0
  40 0004 9B69     		ldr	r3, [r3, #24]
  41 0006 0449     		ldr	r1, .L4+8
  42 0008 9961     		str	r1, [r3, #24]
  43              		.loc 1 140 0
  44 000a 1360     		str	r3, [r2]
  45              	.LVL1:
  46              	.L2:
  47 000c FEE7     		b	.L2
  48              	.L5:
  49 000e 00BF     		.align	2
  50              	.L4:
  51 0010 00000000 		.word	rlist
  52 0014 00000000 		.word	.LANCHOR0
  53 0018 00000000 		.word	.LC0
  54              		.cfi_endproc
  55              	.LFE120:
  56              		.size	cancom_process_thread, .-cancom_process_thread
  57 001c AFF30080 		.section	.text.cancom_status_thread,"ax",%progbits
ARM GAS  C:\Users\jsyoon\AppData\Local\Temp\cciZEyPd.s 			page 2


  58              		.align	2
  59              		.p2align 4,,15
  60              		.thumb
  61              		.thumb_func
  62              		.type	cancom_status_thread, %function
  63              	cancom_status_thread:
  64              	.LFB121:
  65              		.loc 1 282 0
  66              		.cfi_startproc
  67              		@ Volatile: function does not return.
  68              		@ args = 0, pretend = 0, frame = 0
  69              		@ frame_needed = 0, uses_anonymous_args = 0
  70              		@ link register save eliminated.
  71              	.LVL2:
  72              		.loc 1 284 0
  73 0000 024B     		ldr	r3, .L8
  74 0002 034A     		ldr	r2, .L8+4
  75 0004 9B69     		ldr	r3, [r3, #24]
  76 0006 9A61     		str	r2, [r3, #24]
  77              	.L7:
  78 0008 FEE7     		b	.L7
  79              	.L9:
  80 000a 00BF     		.align	2
  81              	.L8:
  82 000c 00000000 		.word	rlist
  83 0010 10000000 		.word	.LC1
  84              		.cfi_endproc
  85              	.LFE121:
  86              		.size	cancom_status_thread, .-cancom_status_thread
  87 0014 AFF30080 		.section	.text.cancom_read_thread,"ax",%progbits
  87      AFF30080 
  87      AFF30080 
  88              		.align	2
  89              		.p2align 4,,15
  90              		.thumb
  91              		.thumb_func
  92              		.type	cancom_read_thread, %function
  93              	cancom_read_thread:
  94              	.LFB119:
  95              		.loc 1 104 0
  96              		.cfi_startproc
  97              		@ args = 0, pretend = 0, frame = 40
  98              		@ frame_needed = 0, uses_anonymous_args = 0
  99              	.LVL3:
 100 0000 2DE9F043 		push	{r4, r5, r6, r7, r8, r9, lr}
 101              		.cfi_def_cfa_offset 28
 102              		.cfi_offset 4, -28
 103              		.cfi_offset 5, -24
 104              		.cfi_offset 6, -20
 105              		.cfi_offset 7, -16
 106              		.cfi_offset 8, -12
 107              		.cfi_offset 9, -8
 108              		.cfi_offset 14, -4
 109              		.loc 1 106 0
 110 0004 DFF8B090 		ldr	r9, .L21+20
 111 0008 264A     		ldr	r2, .L21
 112 000a D9F81830 		ldr	r3, [r9, #24]
ARM GAS  C:\Users\jsyoon\AppData\Local\Temp\cciZEyPd.s 			page 3


 113              		.loc 1 111 0
 114 000e 2648     		ldr	r0, .L21+4
 115              	.LVL4:
 116              		.loc 1 106 0
 117 0010 9A61     		str	r2, [r3, #24]
 118              		.loc 1 104 0
 119 0012 8BB0     		sub	sp, sp, #44
 120              		.cfi_def_cfa_offset 72
 121              		.loc 1 111 0
 122 0014 01A9     		add	r1, sp, #4
 123 0016 0122     		movs	r2, #1
 124 0018 FFF7FEFF 		bl	chEvtRegisterMask
 125              	.LVL5:
 126 001c 234E     		ldr	r6, .L21+8
 127              	.L13:
 128              		.loc 1 113 0 discriminator 1
 129 001e D9F81830 		ldr	r3, [r9, #24]
 130 0022 5B7F     		ldrb	r3, [r3, #29]	@ zero_extendqisi2
 131 0024 03F00403 		and	r3, r3, #4
 132 0028 03F0FF04 		and	r4, r3, #255
 133 002c 002B     		cmp	r3, #0
 134 002e 31D1     		bne	.L20
 135              	.LBB26:
 136              		.loc 1 114 0
 137 0030 4FF0FF30 		mov	r0, #-1
 138 0034 6421     		movs	r1, #100
 139 0036 FFF7FEFF 		bl	chEvtWaitAnyTimeout
 140              	.LVL6:
 141 003a 0028     		cmp	r0, #0
 142 003c EFD0     		beq	.L13
 143              		.loc 1 118 0
 144 003e 2146     		mov	r1, r4
 145 0040 2346     		mov	r3, r4
 146 0042 05AA     		add	r2, sp, #20
 147 0044 1A48     		ldr	r0, .L21+12
 148 0046 FFF7FEFF 		bl	canReceive
 149              	.LVL7:
 150              		.loc 1 120 0
 151 004a 0028     		cmp	r0, #0
 152 004c E7D1     		bne	.L13
 153 004e DFF86C80 		ldr	r8, .L21+24
 154 0052 184F     		ldr	r7, .L21+16
 155              	.L18:
 156              	.LVL8:
 157              		.loc 1 121 0
 158 0054 05AC     		add	r4, sp, #20
 159 0056 0FCC     		ldmia	r4!, {r0, r1, r2, r3}
 160 0058 3568     		ldr	r5, [r6]
 161 005a D4F800E0 		ldr	lr, [r4]
 162 005e 05EB8504 		add	r4, r5, r5, lsl #2
 163 0062 08EB8404 		add	r4, r8, r4, lsl #2
 164 0066 0FC4     		stmia	r4!, {r0, r1, r2, r3}
 165              		.loc 1 126 0
 166 0068 0121     		movs	r1, #1
 167              		.loc 1 121 0
 168 006a 0D44     		add	r5, r5, r1
 169              		.loc 1 122 0
ARM GAS  C:\Users\jsyoon\AppData\Local\Temp\cciZEyPd.s 			page 4


 170 006c 642D     		cmp	r5, #100
 171              		.loc 1 123 0
 172 006e 08BF     		it	eq
 173 0070 0023     		moveq	r3, #0
 174              		.loc 1 126 0
 175 0072 3868     		ldr	r0, [r7]
 176              		.loc 1 121 0
 177 0074 3560     		str	r5, [r6]
 178 0076 C4F800E0 		str	lr, [r4]
 179              		.loc 1 123 0
 180 007a 08BF     		it	eq
 181 007c 3360     		streq	r3, [r6]
 182              		.loc 1 126 0
 183 007e FFF7FEFF 		bl	chEvtSignal
 184              	.LVL9:
 185              		.loc 1 128 0
 186 0082 0021     		movs	r1, #0
 187 0084 0B46     		mov	r3, r1
 188 0086 0A48     		ldr	r0, .L21+12
 189 0088 05AA     		add	r2, sp, #20
 190 008a FFF7FEFF 		bl	canReceive
 191              	.LVL10:
 192              		.loc 1 120 0
 193 008e 0028     		cmp	r0, #0
 194 0090 E0D0     		beq	.L18
 195 0092 C4E7     		b	.L13
 196              	.LVL11:
 197              	.L20:
 198              	.LBE26:
 199              		.loc 1 132 0
 200 0094 01A9     		add	r1, sp, #4
 201 0096 0448     		ldr	r0, .L21+4
 202 0098 FFF7FEFF 		bl	chEvtUnregister
 203              	.LVL12:
 204              		.loc 1 134 0
 205 009c 0020     		movs	r0, #0
 206 009e 0BB0     		add	sp, sp, #44
 207              		@ sp needed
 208 00a0 BDE8F083 		pop	{r4, r5, r6, r7, r8, r9, pc}
 209              	.L22:
 210              		.align	2
 211              	.L21:
 212 00a4 1C000000 		.word	.LC2
 213 00a8 20000000 		.word	CAND1+32
 214 00ac 00000000 		.word	.LANCHOR1
 215 00b0 00000000 		.word	CAND1
 216 00b4 00000000 		.word	.LANCHOR0
 217 00b8 00000000 		.word	rlist
 218 00bc 00000000 		.word	.LANCHOR2
 219              		.cfi_endproc
 220              	.LFE119:
 221              		.size	cancom_read_thread, .-cancom_read_thread
 222              		.section	.text.comm_can_init,"ax",%progbits
 223              		.align	2
 224              		.p2align 4,,15
 225              		.global	comm_can_init
 226              		.thumb
ARM GAS  C:\Users\jsyoon\AppData\Local\Temp\cciZEyPd.s 			page 5


 227              		.thumb_func
 228              		.type	comm_can_init, %function
 229              	comm_can_init:
 230              	.LFB118:
 231              		.loc 1 75 0
 232              		.cfi_startproc
 233              		@ args = 0, pretend = 0, frame = 0
 234              		@ frame_needed = 0, uses_anonymous_args = 0
 235              	.LVL13:
 236 0000 10B5     		push	{r4, lr}
 237              		.cfi_def_cfa_offset 8
 238              		.cfi_offset 4, -8
 239              		.cfi_offset 14, -4
 240 0002 1E49     		ldr	r1, .L27
 241 0004 82B0     		sub	sp, sp, #8
 242              		.cfi_def_cfa_offset 16
 243              		.loc 1 75 0
 244 0006 0023     		movs	r3, #0
 245              	.LBB27:
 246              		.loc 1 77 0
 247 0008 4FF0FF32 		mov	r2, #-1
 248              	.LVL14:
 249              	.L25:
 250              		.loc 1 77 0 is_stmt 0 discriminator 2
 251 000c CA50     		str	r2, [r1, r3]
 252 000e 1433     		adds	r3, r3, #20
 253              		.loc 1 76 0 is_stmt 1 discriminator 2
 254 0010 C82B     		cmp	r3, #200
 255 0012 FBD1     		bne	.L25
 256              	.LBE27:
 257              		.loc 1 81 0
 258 0014 1A4B     		ldr	r3, .L27+4
 259              		.loc 1 80 0
 260 0016 1B4A     		ldr	r2, .L27+8
 261              		.loc 1 83 0
 262 0018 1B48     		ldr	r0, .L27+12
 263              		.loc 1 80 0
 264 001a 0024     		movs	r4, #0
 265              		.loc 1 81 0
 266 001c 1C60     		str	r4, [r3]
 267              		.loc 1 80 0
 268 001e 1460     		str	r4, [r2]
 269              		.loc 1 83 0
 270 0020 FFF7FEFF 		bl	chMtxInit
 271              	.LVL15:
 272              		.loc 1 85 0
 273 0024 1948     		ldr	r0, .L27+16
 274 0026 4FF48071 		mov	r1, #256
 275 002a 40F28A42 		movw	r2, #1162
 276 002e FFF7FEFF 		bl	_pal_lld_setgroupmode
 277              	.LVL16:
 278              		.loc 1 89 0
 279 0032 40F28A42 		movw	r2, #1162
 280 0036 1548     		ldr	r0, .L27+16
 281 0038 4FF40071 		mov	r1, #512
 282 003c FFF7FEFF 		bl	_pal_lld_setgroupmode
 283              	.LVL17:
ARM GAS  C:\Users\jsyoon\AppData\Local\Temp\cciZEyPd.s 			page 6


 284              		.loc 1 94 0
 285 0040 1348     		ldr	r0, .L27+20
 286 0042 1449     		ldr	r1, .L27+24
 287 0044 FFF7FEFF 		bl	canStart
 288              	.LVL18:
 289              		.loc 1 96 0
 290 0048 0094     		str	r4, [sp]
 291 004a 134B     		ldr	r3, .L27+28
 292 004c 1348     		ldr	r0, .L27+32
 293 004e 4FF46671 		mov	r1, #920
 294 0052 4122     		movs	r2, #65
 295 0054 FFF7FEFF 		bl	chThdCreateStatic
 296              	.LVL19:
 297              		.loc 1 98 0
 298 0058 0094     		str	r4, [sp]
 299 005a 114B     		ldr	r3, .L27+36
 300 005c 1148     		ldr	r0, .L27+40
 301 005e 4FF4B361 		mov	r1, #1432
 302 0062 4022     		movs	r2, #64
 303 0064 FFF7FEFF 		bl	chThdCreateStatic
 304              	.LVL20:
 305              		.loc 1 100 0
 306 0068 0094     		str	r4, [sp]
 307 006a 0F4B     		ldr	r3, .L27+44
 308 006c 0F48     		ldr	r0, .L27+48
 309 006e 41F29811 		movw	r1, #4504
 310 0072 4022     		movs	r2, #64
 311 0074 FFF7FEFF 		bl	chThdCreateStatic
 312              	.LVL21:
 313              		.loc 1 102 0
 314 0078 02B0     		add	sp, sp, #8
 315              		@ sp needed
 316 007a 10BD     		pop	{r4, pc}
 317              	.L28:
 318              		.align	2
 319              	.L27:
 320 007c 00000000 		.word	.LANCHOR3
 321 0080 00000000 		.word	.LANCHOR1
 322 0084 00000000 		.word	.LANCHOR4
 323 0088 00000000 		.word	.LANCHOR5
 324 008c 00040240 		.word	1073873920
 325 0090 00000000 		.word	CAND1
 326 0094 00000000 		.word	.LANCHOR6
 327 0098 00000000 		.word	cancom_read_thread
 328 009c 00000000 		.word	.LANCHOR7
 329 00a0 00000000 		.word	cancom_status_thread
 330 00a4 00000000 		.word	.LANCHOR8
 331 00a8 00000000 		.word	cancom_process_thread
 332 00ac 00000000 		.word	.LANCHOR9
 333              		.cfi_endproc
 334              	.LFE118:
 335              		.size	comm_can_init, .-comm_can_init
 336              		.section	.text.comm_can_transmit,"ax",%progbits
 337              		.align	2
 338              		.p2align 4,,15
 339              		.global	comm_can_transmit
 340              		.thumb
ARM GAS  C:\Users\jsyoon\AppData\Local\Temp\cciZEyPd.s 			page 7


 341              		.thumb_func
 342              		.type	comm_can_transmit, %function
 343              	comm_can_transmit:
 344              	.LFB122:
 345              		.loc 1 310 0
 346              		.cfi_startproc
 347              		@ args = 0, pretend = 0, frame = 0
 348              		@ frame_needed = 0, uses_anonymous_args = 0
 349              		@ link register save eliminated.
 350              	.LVL22:
 351 0000 7047     		bx	lr
 352              		.cfi_endproc
 353              	.LFE122:
 354              		.size	comm_can_transmit, .-comm_can_transmit
 355 0002 00BFAFF3 		.section	.text.comm_can_send_buffer,"ax",%progbits
 355      0080AFF3 
 355      0080AFF3 
 355      0080
 356              		.align	2
 357              		.p2align 4,,15
 358              		.global	comm_can_send_buffer
 359              		.thumb
 360              		.thumb_func
 361              		.type	comm_can_send_buffer, %function
 362              	comm_can_send_buffer:
 363              	.LFB123:
 364              		.loc 1 348 0
 365              		.cfi_startproc
 366              		@ args = 0, pretend = 0, frame = 8
 367              		@ frame_needed = 0, uses_anonymous_args = 0
 368              	.LVL23:
 369              		.loc 1 348 0
 370 0000 2DE9F047 		push	{r4, r5, r6, r7, r8, r9, r10, lr}
 371              		.cfi_def_cfa_offset 32
 372              		.cfi_offset 4, -32
 373              		.cfi_offset 5, -28
 374              		.cfi_offset 6, -24
 375              		.cfi_offset 7, -20
 376              		.cfi_offset 8, -16
 377              		.cfi_offset 9, -12
 378              		.cfi_offset 10, -8
 379              		.cfi_offset 14, -4
 380              		.loc 1 351 0
 381 0004 062A     		cmp	r2, #6
 382              		.loc 1 348 0
 383 0006 82B0     		sub	sp, sp, #8
 384              		.cfi_def_cfa_offset 40
 385              		.loc 1 348 0
 386 0008 1746     		mov	r7, r2
 387 000a 8846     		mov	r8, r1
 388              		.loc 1 351 0
 389 000c 47D9     		bls	.L45
 390 000e 0D46     		mov	r5, r1
 391 0010 0024     		movs	r4, #0
 392 0012 02F1070A 		add	r10, r2, #7
 393              	.LBB28:
 394              	.LBB29:
ARM GAS  C:\Users\jsyoon\AppData\Local\Temp\cciZEyPd.s 			page 8


 395              	.LBB30:
 396              		.loc 1 363 0
 397 0016 40F20319 		movw	r9, #259
 398 001a 02E0     		b	.L34
 399              	.LVL24:
 400              	.L37:
 401 001c 4E45     		cmp	r6, r9
 402              		.loc 1 370 0
 403 001e 3446     		mov	r4, r6
 404              		.loc 1 363 0
 405 0020 13D0     		beq	.L33
 406              	.LVL25:
 407              	.L34:
 408              		.loc 1 370 0
 409 0022 E61D     		adds	r6, r4, #7
 410 0024 B742     		cmp	r7, r6
 411              		.loc 1 368 0
 412 0026 8DF80040 		strb	r4, [sp]
 413              		.loc 1 370 0
 414 002a 43D3     		bcc	.L35
 415              		.loc 1 371 0
 416 002c 2968     		ldr	r1, [r5]	@ unaligned
 417 002e AA88     		ldrh	r2, [r5, #4]	@ unaligned
 418 0030 AB79     		ldrb	r3, [r5, #6]	@ zero_extendqisi2
 419 0032 CDF80110 		str	r1, [sp, #1]	@ unaligned
 420 0036 ADF80520 		strh	r2, [sp, #5]	@ unaligned
 421 003a 8DF80730 		strb	r3, [sp, #7]
 422              	.LVL26:
 423              	.L36:
 424              	.LBE30:
 425              		.loc 1 360 0 discriminator 1
 426 003e B742     		cmp	r7, r6
 427 0040 05F10705 		add	r5, r5, #7
 428 0044 EAD8     		bhi	.L37
 429              	.LVL27:
 430              	.LBE29:
 431              	.LBB32:
 432              		.loc 1 380 0
 433 0046 A742     		cmp	r7, r4
 434 0048 20D9     		bls	.L41
 435              	.LVL28:
 436              	.L33:
 437 004a 08EB0405 		add	r5, r8, r4
 438 004e BE1D     		adds	r6, r7, #6
 439              	.LVL29:
 440 0050 09E0     		b	.L42
 441              	.LVL30:
 442              	.L46:
 443              	.LBB33:
 444              		.loc 1 386 0
 445 0052 2A68     		ldr	r2, [r5]	@ unaligned
 446 0054 AB88     		ldrh	r3, [r5, #4]	@ unaligned
 447 0056 CDF80220 		str	r2, [sp, #2]	@ unaligned
 448              	.LBE33:
 449              		.loc 1 380 0
 450 005a A742     		cmp	r7, r4
 451              	.LBB34:
ARM GAS  C:\Users\jsyoon\AppData\Local\Temp\cciZEyPd.s 			page 9


 452              		.loc 1 386 0
 453 005c ADF80630 		strh	r3, [sp, #6]	@ unaligned
 454              	.LVL31:
 455 0060 05F10605 		add	r5, r5, #6
 456              	.LBE34:
 457              		.loc 1 380 0
 458 0064 12D9     		bls	.L41
 459              	.LVL32:
 460              	.L42:
 461              	.LBB35:
 462              		.loc 1 382 0
 463 0066 230A     		lsrs	r3, r4, #8
 464              		.loc 1 383 0
 465 0068 8DF80140 		strb	r4, [sp, #1]
 466              		.loc 1 385 0
 467 006c 0634     		adds	r4, r4, #6
 468              	.LVL33:
 469 006e 321B     		subs	r2, r6, r4
 470 0070 A742     		cmp	r7, r4
 471              		.loc 1 382 0
 472 0072 8DF80030 		strb	r3, [sp]
 473              		.loc 1 389 0
 474 0076 2946     		mov	r1, r5
 475 0078 0DF10200 		add	r0, sp, #2
 476 007c D2B2     		uxtb	r2, r2
 477              		.loc 1 385 0
 478 007e E8D2     		bcs	.L46
 479              		.loc 1 389 0
 480 0080 FFF7FEFF 		bl	memcpy
 481              	.LVL34:
 482              	.LBE35:
 483              		.loc 1 380 0
 484 0084 A742     		cmp	r7, r4
 485 0086 05F10605 		add	r5, r5, #6
 486 008a ECD8     		bhi	.L42
 487              	.LVL35:
 488              	.L41:
 489              	.LBE32:
 490              		.loc 1 396 0
 491 008c FFF7FEFF 		bl	app_get_configuration
 492              	.LVL36:
 493              		.loc 1 400 0
 494 0090 4046     		mov	r0, r8
 495 0092 3946     		mov	r1, r7
 496              	.LBE28:
 497              		.loc 1 406 0
 498 0094 02B0     		add	sp, sp, #8
 499              		@ sp needed
 500 0096 BDE8F047 		pop	{r4, r5, r6, r7, r8, r9, r10, lr}
 501              	.LVL37:
 502              	.LBB37:
 503              		.loc 1 400 0
 504 009a FFF7FEBF 		b	crc16
 505              	.LVL38:
 506              	.L45:
 507              	.LBE37:
 508              	.LBB38:
ARM GAS  C:\Users\jsyoon\AppData\Local\Temp\cciZEyPd.s 			page 10


 509              		.loc 1 353 0
 510 009e FFF7FEFF 		bl	app_get_configuration
 511              	.LVL39:
 512              		.loc 1 355 0
 513 00a2 4146     		mov	r1, r8
 514 00a4 3A46     		mov	r2, r7
 515 00a6 0DF10200 		add	r0, sp, #2
 516 00aa FFF7FEFF 		bl	memcpy
 517              	.LVL40:
 518              	.LBE38:
 519              		.loc 1 406 0
 520 00ae 02B0     		add	sp, sp, #8
 521              	.LVL41:
 522              		@ sp needed
 523 00b0 BDE8F087 		pop	{r4, r5, r6, r7, r8, r9, r10, pc}
 524              	.LVL42:
 525              	.L35:
 526 00b4 C6EB0A02 		rsb	r2, r6, r10
 527              	.LBB39:
 528              	.LBB36:
 529              	.LBB31:
 530              		.loc 1 374 0
 531 00b8 D2B2     		uxtb	r2, r2
 532 00ba 0DF10100 		add	r0, sp, #1
 533 00be 2946     		mov	r1, r5
 534 00c0 FFF7FEFF 		bl	memcpy
 535              	.LVL43:
 536 00c4 BBE7     		b	.L36
 537              	.LBE31:
 538              	.LBE36:
 539              	.LBE39:
 540              		.cfi_endproc
 541              	.LFE123:
 542              		.size	comm_can_send_buffer, .-comm_can_send_buffer
 543 00c6 00BFAFF3 		.section	.text.comm_can_set_duty,"ax",%progbits
 543      0080AFF3 
 543      0080
 544              		.align	2
 545              		.p2align 4,,15
 546              		.global	comm_can_set_duty
 547              		.thumb
 548              		.thumb_func
 549              		.type	comm_can_set_duty, %function
 550              	comm_can_set_duty:
 551              	.LFB124:
 552              		.loc 1 408 0
 553              		.cfi_startproc
 554              		@ args = 0, pretend = 0, frame = 8
 555              		@ frame_needed = 0, uses_anonymous_args = 0
 556              	.LVL44:
 557 0000 00B5     		push	{lr}
 558              		.cfi_def_cfa_offset 4
 559              		.cfi_offset 14, -4
 560              		.loc 1 411 0
 561 0002 DFED097A 		flds	s15, .L48
 562 0006 20EE270A 		fmuls	s0, s0, s15
 563              	.LVL45:
ARM GAS  C:\Users\jsyoon\AppData\Local\Temp\cciZEyPd.s 			page 11


 564              		.loc 1 408 0
 565 000a 83B0     		sub	sp, sp, #12
 566              		.cfi_def_cfa_offset 16
 567              		.loc 1 411 0
 568 000c BDEEC00A 		ftosizs	s0, s0
 569              		.loc 1 409 0
 570 0010 0023     		movs	r3, #0
 571              		.loc 1 411 0
 572 0012 10EE101A 		fmrs	r1, s0	@ int
 573 0016 01A8     		add	r0, sp, #4
 574              	.LVL46:
 575 0018 6A46     		mov	r2, sp
 576              		.loc 1 409 0
 577 001a 0093     		str	r3, [sp]
 578              		.loc 1 411 0
 579 001c FFF7FEFF 		bl	buffer_append_int32
 580              	.LVL47:
 581              		.loc 1 413 0
 582 0020 03B0     		add	sp, sp, #12
 583              	.LVL48:
 584              		@ sp needed
 585 0022 5DF804FB 		ldr	pc, [sp], #4
 586              	.L49:
 587 0026 00BF     		.align	2
 588              	.L48:
 589 0028 0050C347 		.word	1203982336
 590              		.cfi_endproc
 591              	.LFE124:
 592              		.size	comm_can_set_duty, .-comm_can_set_duty
 593 002c AFF30080 		.section	.text.comm_can_set_current,"ax",%progbits
 594              		.align	2
 595              		.p2align 4,,15
 596              		.global	comm_can_set_current
 597              		.thumb
 598              		.thumb_func
 599              		.type	comm_can_set_current, %function
 600              	comm_can_set_current:
 601              	.LFB125:
 602              		.loc 1 415 0
 603              		.cfi_startproc
 604              		@ args = 0, pretend = 0, frame = 8
 605              		@ frame_needed = 0, uses_anonymous_args = 0
 606              	.LVL49:
 607 0000 00B5     		push	{lr}
 608              		.cfi_def_cfa_offset 4
 609              		.cfi_offset 14, -4
 610              		.loc 1 418 0
 611 0002 DFED097A 		flds	s15, .L51
 612 0006 20EE270A 		fmuls	s0, s0, s15
 613              	.LVL50:
 614              		.loc 1 415 0
 615 000a 83B0     		sub	sp, sp, #12
 616              		.cfi_def_cfa_offset 16
 617              		.loc 1 418 0
 618 000c BDEEC00A 		ftosizs	s0, s0
 619              		.loc 1 416 0
 620 0010 0023     		movs	r3, #0
ARM GAS  C:\Users\jsyoon\AppData\Local\Temp\cciZEyPd.s 			page 12


 621              		.loc 1 418 0
 622 0012 10EE101A 		fmrs	r1, s0	@ int
 623 0016 01A8     		add	r0, sp, #4
 624              	.LVL51:
 625 0018 6A46     		mov	r2, sp
 626              		.loc 1 416 0
 627 001a 0093     		str	r3, [sp]
 628              		.loc 1 418 0
 629 001c FFF7FEFF 		bl	buffer_append_int32
 630              	.LVL52:
 631              		.loc 1 420 0
 632 0020 03B0     		add	sp, sp, #12
 633              	.LVL53:
 634              		@ sp needed
 635 0022 5DF804FB 		ldr	pc, [sp], #4
 636              	.L52:
 637 0026 00BF     		.align	2
 638              	.L51:
 639 0028 00007A44 		.word	1148846080
 640              		.cfi_endproc
 641              	.LFE125:
 642              		.size	comm_can_set_current, .-comm_can_set_current
 643 002c AFF30080 		.section	.text.comm_can_set_current_brake,"ax",%progbits
 644              		.align	2
 645              		.p2align 4,,15
 646              		.global	comm_can_set_current_brake
 647              		.thumb
 648              		.thumb_func
 649              		.type	comm_can_set_current_brake, %function
 650              	comm_can_set_current_brake:
 651              	.LFB126:
 652              		.loc 1 422 0
 653              		.cfi_startproc
 654              		@ args = 0, pretend = 0, frame = 8
 655              		@ frame_needed = 0, uses_anonymous_args = 0
 656              	.LVL54:
 657 0000 00B5     		push	{lr}
 658              		.cfi_def_cfa_offset 4
 659              		.cfi_offset 14, -4
 660              		.loc 1 425 0
 661 0002 DFED097A 		flds	s15, .L54
 662 0006 20EE270A 		fmuls	s0, s0, s15
 663              	.LVL55:
 664              		.loc 1 422 0
 665 000a 83B0     		sub	sp, sp, #12
 666              		.cfi_def_cfa_offset 16
 667              		.loc 1 425 0
 668 000c BDEEC00A 		ftosizs	s0, s0
 669              		.loc 1 423 0
 670 0010 0023     		movs	r3, #0
 671              		.loc 1 425 0
 672 0012 10EE101A 		fmrs	r1, s0	@ int
 673 0016 01A8     		add	r0, sp, #4
 674              	.LVL56:
 675 0018 6A46     		mov	r2, sp
 676              		.loc 1 423 0
 677 001a 0093     		str	r3, [sp]
ARM GAS  C:\Users\jsyoon\AppData\Local\Temp\cciZEyPd.s 			page 13


 678              		.loc 1 425 0
 679 001c FFF7FEFF 		bl	buffer_append_int32
 680              	.LVL57:
 681              		.loc 1 427 0
 682 0020 03B0     		add	sp, sp, #12
 683              	.LVL58:
 684              		@ sp needed
 685 0022 5DF804FB 		ldr	pc, [sp], #4
 686              	.L55:
 687 0026 00BF     		.align	2
 688              	.L54:
 689 0028 00007A44 		.word	1148846080
 690              		.cfi_endproc
 691              	.LFE126:
 692              		.size	comm_can_set_current_brake, .-comm_can_set_current_brake
 693 002c AFF30080 		.section	.text.comm_can_set_rpm,"ax",%progbits
 694              		.align	2
 695              		.p2align 4,,15
 696              		.global	comm_can_set_rpm
 697              		.thumb
 698              		.thumb_func
 699              		.type	comm_can_set_rpm, %function
 700              	comm_can_set_rpm:
 701              	.LFB127:
 702              		.loc 1 429 0
 703              		.cfi_startproc
 704              		@ args = 0, pretend = 0, frame = 8
 705              		@ frame_needed = 0, uses_anonymous_args = 0
 706              	.LVL59:
 707 0000 00B5     		push	{lr}
 708              		.cfi_def_cfa_offset 4
 709              		.cfi_offset 14, -4
 710              		.loc 1 432 0
 711 0002 BDEEC00A 		ftosizs	s0, s0
 712              	.LVL60:
 713              		.loc 1 429 0
 714 0006 83B0     		sub	sp, sp, #12
 715              		.cfi_def_cfa_offset 16
 716              		.loc 1 430 0
 717 0008 0023     		movs	r3, #0
 718              		.loc 1 432 0
 719 000a 01A8     		add	r0, sp, #4
 720              	.LVL61:
 721 000c 10EE101A 		fmrs	r1, s0	@ int
 722 0010 6A46     		mov	r2, sp
 723              		.loc 1 430 0
 724 0012 0093     		str	r3, [sp]
 725              		.loc 1 432 0
 726 0014 FFF7FEFF 		bl	buffer_append_int32
 727              	.LVL62:
 728              		.loc 1 434 0
 729 0018 03B0     		add	sp, sp, #12
 730              	.LVL63:
 731              		@ sp needed
 732 001a 5DF804FB 		ldr	pc, [sp], #4
 733              		.cfi_endproc
 734              	.LFE127:
ARM GAS  C:\Users\jsyoon\AppData\Local\Temp\cciZEyPd.s 			page 14


 735              		.size	comm_can_set_rpm, .-comm_can_set_rpm
 736 001e 00BF     		.section	.text.comm_can_set_pos,"ax",%progbits
 737              		.align	2
 738              		.p2align 4,,15
 739              		.global	comm_can_set_pos
 740              		.thumb
 741              		.thumb_func
 742              		.type	comm_can_set_pos, %function
 743              	comm_can_set_pos:
 744              	.LFB128:
 745              		.loc 1 436 0
 746              		.cfi_startproc
 747              		@ args = 0, pretend = 0, frame = 8
 748              		@ frame_needed = 0, uses_anonymous_args = 0
 749              	.LVL64:
 750 0000 00B5     		push	{lr}
 751              		.cfi_def_cfa_offset 4
 752              		.cfi_offset 14, -4
 753              		.loc 1 439 0
 754 0002 DFED097A 		flds	s15, .L58
 755 0006 20EE270A 		fmuls	s0, s0, s15
 756              	.LVL65:
 757              		.loc 1 436 0
 758 000a 83B0     		sub	sp, sp, #12
 759              		.cfi_def_cfa_offset 16
 760              		.loc 1 439 0
 761 000c BDEEC00A 		ftosizs	s0, s0
 762              		.loc 1 437 0
 763 0010 0023     		movs	r3, #0
 764              		.loc 1 439 0
 765 0012 10EE101A 		fmrs	r1, s0	@ int
 766 0016 01A8     		add	r0, sp, #4
 767              	.LVL66:
 768 0018 6A46     		mov	r2, sp
 769              		.loc 1 437 0
 770 001a 0093     		str	r3, [sp]
 771              		.loc 1 439 0
 772 001c FFF7FEFF 		bl	buffer_append_int32
 773              	.LVL67:
 774              		.loc 1 441 0
 775 0020 03B0     		add	sp, sp, #12
 776              	.LVL68:
 777              		@ sp needed
 778 0022 5DF804FB 		ldr	pc, [sp], #4
 779              	.L59:
 780 0026 00BF     		.align	2
 781              	.L58:
 782 0028 00247449 		.word	1232348160
 783              		.cfi_endproc
 784              	.LFE128:
 785              		.size	comm_can_set_pos, .-comm_can_set_pos
 786 002c AFF30080 		.section	.text.comm_can_get_status_msg_index,"ax",%progbits
 787              		.align	2
 788              		.p2align 4,,15
 789              		.global	comm_can_get_status_msg_index
 790              		.thumb
 791              		.thumb_func
ARM GAS  C:\Users\jsyoon\AppData\Local\Temp\cciZEyPd.s 			page 15


 792              		.type	comm_can_get_status_msg_index, %function
 793              	comm_can_get_status_msg_index:
 794              	.LFB129:
 795              		.loc 1 452 0
 796              		.cfi_startproc
 797              		@ args = 0, pretend = 0, frame = 0
 798              		@ frame_needed = 0, uses_anonymous_args = 0
 799              		@ link register save eliminated.
 800              	.LVL69:
 801              		.loc 1 453 0
 802 0000 0928     		cmp	r0, #9
 803              		.loc 1 454 0
 804 0002 DDBF     		ittte	le
 805 0004 034B     		ldrle	r3, .L63
 806 0006 00EB8000 		addle	r0, r0, r0, lsl #2
 807              	.LVL70:
 808 000a 03EB8000 		addle	r0, r3, r0, lsl #2
 809              		.loc 1 456 0
 810 000e 0020     		movgt	r0, #0
 811              		.loc 1 458 0
 812 0010 7047     		bx	lr
 813              	.L64:
 814 0012 00BF     		.align	2
 815              	.L63:
 816 0014 00000000 		.word	.LANCHOR3
 817              		.cfi_endproc
 818              	.LFE129:
 819              		.size	comm_can_get_status_msg_index, .-comm_can_get_status_msg_index
 820 0018 AFF30080 		.section	.text.comm_can_get_status_msg_id,"ax",%progbits
 820      AFF30080 
 821              		.align	2
 822              		.p2align 4,,15
 823              		.global	comm_can_get_status_msg_id
 824              		.thumb
 825              		.thumb_func
 826              		.type	comm_can_get_status_msg_id, %function
 827              	comm_can_get_status_msg_id:
 828              	.LFB130:
 829              		.loc 1 469 0
 830              		.cfi_startproc
 831              		@ args = 0, pretend = 0, frame = 0
 832              		@ frame_needed = 0, uses_anonymous_args = 0
 833              		@ link register save eliminated.
 834              	.LVL71:
 835 0000 30B4     		push	{r4, r5}
 836              		.cfi_def_cfa_offset 8
 837              		.cfi_offset 4, -8
 838              		.cfi_offset 5, -4
 839              		.loc 1 469 0
 840 0002 0023     		movs	r3, #0
 841 0004 094C     		ldr	r4, .L72
 842              	.LBB40:
 843              		.loc 1 470 0
 844 0006 1A46     		mov	r2, r3
 845              	.LVL72:
 846              	.L68:
 847              		.loc 1 471 0
ARM GAS  C:\Users\jsyoon\AppData\Local\Temp\cciZEyPd.s 			page 16


 848 0008 E158     		ldr	r1, [r4, r3]
 849 000a 084D     		ldr	r5, .L72
 850 000c 8142     		cmp	r1, r0
 851 000e 03F11403 		add	r3, r3, #20
 852 0012 05D0     		beq	.L71
 853              		.loc 1 470 0
 854 0014 0132     		adds	r2, r2, #1
 855              	.LVL73:
 856 0016 0A2A     		cmp	r2, #10
 857 0018 F6D1     		bne	.L68
 858              	.LBE40:
 859              		.loc 1 476 0
 860 001a 0020     		movs	r0, #0
 861              	.LVL74:
 862              		.loc 1 477 0
 863 001c 30BC     		pop	{r4, r5}
 864 001e 7047     		bx	lr
 865              	.LVL75:
 866              	.L71:
 867              	.LBB41:
 868              		.loc 1 472 0
 869 0020 02EB8202 		add	r2, r2, r2, lsl #2
 870              	.LVL76:
 871 0024 05EB8200 		add	r0, r5, r2, lsl #2
 872              	.LVL77:
 873              	.LBE41:
 874              		.loc 1 477 0
 875 0028 30BC     		pop	{r4, r5}
 876 002a 7047     		bx	lr
 877              	.L73:
 878              		.align	2
 879              	.L72:
 880 002c 00000000 		.word	.LANCHOR3
 881              		.cfi_endproc
 882              	.LFE130:
 883              		.size	comm_can_get_status_msg_id, .-comm_can_get_status_msg_id
 884              		.section	.bss.cancom_process_thread_wa,"aw",%nobits
 885              		.align	3
 886              		.set	.LANCHOR9,. + 0
 887              		.type	cancom_process_thread_wa, %object
 888              		.size	cancom_process_thread_wa, 4504
 889              	cancom_process_thread_wa:
 890 0000 00000000 		.space	4504
 890      00000000 
 890      00000000 
 890      00000000 
 890      00000000 
 891              		.section	.bss.rx_frame_read,"aw",%nobits
 892              		.align	2
 893              		.set	.LANCHOR4,. + 0
 894              		.type	rx_frame_read, %object
 895              		.size	rx_frame_read, 4
 896              	rx_frame_read:
 897 0000 00000000 		.space	4
 898              		.section	.rodata.cancfg,"a",%progbits
 899              		.align	2
 900              		.set	.LANCHOR6,. + 0
ARM GAS  C:\Users\jsyoon\AppData\Local\Temp\cciZEyPd.s 			page 17


 901              		.type	cancfg, %object
 902              		.size	cancfg, 8
 903              	cancfg:
 904 0000 64000000 		.word	100
 905 0004 06001800 		.word	1572870
 906              		.section	.bss.cancom_status_thread_wa,"aw",%nobits
 907              		.align	3
 908              		.set	.LANCHOR8,. + 0
 909              		.type	cancom_status_thread_wa, %object
 910              		.size	cancom_status_thread_wa, 1432
 911              	cancom_status_thread_wa:
 912 0000 00000000 		.space	1432
 912      00000000 
 912      00000000 
 912      00000000 
 912      00000000 
 913              		.section	.bss.stat_msgs,"aw",%nobits
 914              		.align	2
 915              		.set	.LANCHOR3,. + 0
 916              		.type	stat_msgs, %object
 917              		.size	stat_msgs, 200
 918              	stat_msgs:
 919 0000 00000000 		.space	200
 919      00000000 
 919      00000000 
 919      00000000 
 919      00000000 
 920              		.section	.bss.rx_frames,"aw",%nobits
 921              		.align	2
 922              		.set	.LANCHOR2,. + 0
 923              		.type	rx_frames, %object
 924              		.size	rx_frames, 2000
 925              	rx_frames:
 926 0000 00000000 		.space	2000
 926      00000000 
 926      00000000 
 926      00000000 
 926      00000000 
 927              		.section	.rodata.str1.4,"aMS",%progbits,1
 928              		.align	2
 929              	.LC0:
 930 0000 43616E63 		.ascii	"Cancom process\000"
 930      6F6D2070 
 930      726F6365 
 930      737300
 931 000f 00       		.space	1
 932              	.LC1:
 933 0010 43414E20 		.ascii	"CAN status\000"
 933      73746174 
 933      757300
 934 001b 00       		.space	1
 935              	.LC2:
 936 001c 43414E00 		.ascii	"CAN\000"
 937              		.section	.bss.can_mtx,"aw",%nobits
 938              		.align	2
 939              		.set	.LANCHOR5,. + 0
 940              		.type	can_mtx, %object
ARM GAS  C:\Users\jsyoon\AppData\Local\Temp\cciZEyPd.s 			page 18


 941              		.size	can_mtx, 16
 942              	can_mtx:
 943 0000 00000000 		.space	16
 943      00000000 
 943      00000000 
 943      00000000 
 944              		.section	.bss.cancom_read_thread_wa,"aw",%nobits
 945              		.align	3
 946              		.set	.LANCHOR7,. + 0
 947              		.type	cancom_read_thread_wa, %object
 948              		.size	cancom_read_thread_wa, 920
 949              	cancom_read_thread_wa:
 950 0000 00000000 		.space	920
 950      00000000 
 950      00000000 
 950      00000000 
 950      00000000 
 951              		.section	.bss.process_tp,"aw",%nobits
 952              		.align	2
 953              		.set	.LANCHOR0,. + 0
 954              		.type	process_tp, %object
 955              		.size	process_tp, 4
 956              	process_tp:
 957 0000 00000000 		.space	4
 958              		.section	.bss.rx_frame_write,"aw",%nobits
 959              		.align	2
 960              		.set	.LANCHOR1,. + 0
 961              		.type	rx_frame_write, %object
 962              		.size	rx_frame_write, 4
 963              	rx_frame_write:
 964 0000 00000000 		.space	4
 965              		.text
 966              	.Letext0:
 967              		.file 2 "c:\\crosstools\\gcc-arm-embedded\\4.8_2014q2\\lib\\gcc\\arm-none-eabi\\4.8.4\\include\\st
 968              		.file 3 "c:\\crosstools\\gcc-arm-embedded\\4.8_2014q2\\arm-none-eabi\\include\\machine\\_default_t
 969              		.file 4 "c:\\crosstools\\gcc-arm-embedded\\4.8_2014q2\\arm-none-eabi\\include\\stdint.h"
 970              		.file 5 "ChibiOS_2.6.6/os/ports/GCC/ARMCMx/chtypes.h"
 971              		.file 6 "ChibiOS_2.6.6/os/kernel/include/chlists.h"
 972              		.file 7 "ChibiOS_2.6.6/os/kernel/include/chthreads.h"
 973              		.file 8 "ChibiOS_2.6.6/os/ports/GCC/ARMCMx/chcore_v7m.h"
 974              		.file 9 "ChibiOS_2.6.6/os/kernel/include/chschd.h"
 975              		.file 10 "ChibiOS_2.6.6/os/kernel/include/chsem.h"
 976              		.file 11 "ChibiOS_2.6.6/os/kernel/include/chmtx.h"
 977              		.file 12 "ChibiOS_2.6.6/os/kernel/include/chevents.h"
 978              		.file 13 "datatypes.h"
 979              		.file 14 "ChibiOS_2.6.6/os/hal/platforms/STM32F4xx/stm32f4xx.h"
 980              		.file 15 "ChibiOS_2.6.6/os/hal/platforms/STM32/GPIOv2/pal_lld.h"
 981              		.file 16 "ChibiOS_2.6.6/os/hal/include/can.h"
 982              		.file 17 "ChibiOS_2.6.6/os/hal/platforms/STM32/can_lld.h"
 983              		.file 18 "ChibiOS_2.6.6/os/ports/common/ARMCMx/CMSIS/include/core_cm4.h"
 984              		.file 19 "crc.h"
 985              		.file 20 "buffer.h"
 986              		.file 21 "applications/app.h"