ARM GAS  C:\Users\ADMINI~1\AppData\Local\Temp\cclvVomf.s 			page 1


   1              		.syntax unified
   2              		.cpu cortex-m4
   3              		.eabi_attribute 27, 1
   4              		.eabi_attribute 28, 1
   5              		.fpu fpv4-sp-d16
   6              		.eabi_attribute 20, 1
   7              		.eabi_attribute 21, 1
   8              		.eabi_attribute 23, 3
   9              		.eabi_attribute 24, 1
  10              		.eabi_attribute 25, 1
  11              		.eabi_attribute 26, 1
  12              		.eabi_attribute 30, 2
  13              		.eabi_attribute 34, 1
  14              		.eabi_attribute 18, 4
  15              		.thumb
  16              		.file	"conf_general.c"
  17              		.text
  18              	.Ltext0:
  19              		.cfi_sections	.debug_frame
  20              		.section	.text.conf_general_init,"ax",%progbits
  21              		.align	2
  22              		.p2align 4,,15
  23              		.global	conf_general_init
  24              		.thumb
  25              		.thumb_func
  26              		.type	conf_general_init, %function
  27              	conf_general_init:
  28              	.LFB118:
  29              		.file 1 "conf_general.c"
  30              		.loc 1 110 0
  31              		.cfi_startproc
  32              		@ args = 0, pretend = 0, frame = 0
  33              		@ frame_needed = 0, uses_anonymous_args = 0
  34 0000 08B5     		push	{r3, lr}
  35              		.cfi_def_cfa_offset 8
  36              		.cfi_offset 3, -8
  37              		.cfi_offset 14, -4
  38              		.loc 1 112 0
  39 0002 0021     		movs	r1, #0
  40 0004 4FF4A072 		mov	r2, #320
  41 0008 1048     		ldr	r0, .L8
  42 000a FFF7FEFF 		bl	memset
  43              	.LVL0:
  44 000e 104A     		ldr	r2, .L8+4
  45 0010 4FF47A73 		mov	r3, #1000
  46 0014 02F18C01 		add	r1, r2, #140
  47              	.LVL1:
  48              	.L2:
  49              	.LBB2:
  50              		.loc 1 116 0 discriminator 3
  51 0018 22F8023F 		strh	r3, [r2, #2]!	@ movhi
  52 001c 0133     		adds	r3, r3, #1
  53              		.loc 1 115 0 discriminator 3
  54 001e 8A42     		cmp	r2, r1
  55 0020 9BB2     		uxth	r3, r3
  56 0022 F9D1     		bne	.L2
  57 0024 0B4A     		ldr	r2, .L8+8
ARM GAS  C:\Users\ADMINI~1\AppData\Local\Temp\cclvVomf.s 			page 2


  58              		.loc 1 115 0 is_stmt 0
  59 0026 4FF4FA63 		mov	r3, #2000
  60 002a 02F18C01 		add	r1, r2, #140
  61              	.L3:
  62              	.LBE2:
  63              	.LBB3:
  64              		.loc 1 120 0 is_stmt 1 discriminator 3
  65 002e 22F8023F 		strh	r3, [r2, #2]!	@ movhi
  66              	.LVL2:
  67 0032 0133     		adds	r3, r3, #1
  68              		.loc 1 119 0 discriminator 3
  69 0034 8A42     		cmp	r2, r1
  70 0036 9BB2     		uxth	r3, r3
  71 0038 F9D1     		bne	.L3
  72              	.LBE3:
  73              		.loc 1 123 0
  74 003a FFF7FEFF 		bl	FLASH_Unlock
  75              	.LVL3:
  76              		.loc 1 124 0
  77 003e F220     		movs	r0, #242
  78 0040 FFF7FEFF 		bl	FLASH_ClearFlag
  79              	.LVL4:
  80              		.loc 1 127 0
  81 0044 BDE80840 		pop	{r3, lr}
  82              		.cfi_restore 14
  83              		.cfi_restore 3
  84              		.cfi_def_cfa_offset 0
  85              		.loc 1 126 0
  86 0048 FFF7FEBF 		b	EE_Init
  87              	.LVL5:
  88              	.L9:
  89              		.align	2
  90              	.L8:
  91 004c 00000000 		.word	.LANCHOR0
  92 0050 FEFFFFFF 		.word	.LANCHOR0-2
  93 0054 8A000000 		.word	.LANCHOR0+138
  94              		.cfi_endproc
  95              	.LFE118:
  96              		.size	conf_general_init, .-conf_general_init
  97              		.section	.text.conf_general_read_app_configuration,"ax",%progbits
  98              		.align	2
  99              		.p2align 4,,15
 100              		.global	conf_general_read_app_configuration
 101              		.thumb
 102              		.thumb_func
 103              		.type	conf_general_read_app_configuration, %function
 104              	conf_general_read_app_configuration:
 105              	.LFB119:
 106              		.loc 1 135 0
 107              		.cfi_startproc
 108              		@ args = 0, pretend = 0, frame = 8
 109              		@ frame_needed = 0, uses_anonymous_args = 0
 110              	.LVL6:
 111 0000 2DE9F04F 		push	{r4, r5, r6, r7, r8, r9, r10, fp, lr}
 112              		.cfi_def_cfa_offset 36
 113              		.cfi_offset 4, -36
 114              		.cfi_offset 5, -32
ARM GAS  C:\Users\ADMINI~1\AppData\Local\Temp\cclvVomf.s 			page 3


 115              		.cfi_offset 6, -28
 116              		.cfi_offset 7, -24
 117              		.cfi_offset 8, -20
 118              		.cfi_offset 9, -16
 119              		.cfi_offset 10, -12
 120              		.cfi_offset 11, -8
 121              		.cfi_offset 14, -4
 122 0004 0546     		mov	r5, r0
 123              	.LVL7:
 124 0006 83B0     		sub	sp, sp, #12
 125              		.cfi_def_cfa_offset 48
 126 0008 0646     		mov	r6, r0
 127              	.LBB4:
 128              		.loc 1 140 0
 129 000a 0024     		movs	r4, #0
 130 000c 0AE0     		b	.L12
 131              	.LVL8:
 132              	.L16:
 133              		.loc 1 142 0
 134 000e BDF80630 		ldrh	r3, [sp, #6]
 135 0012 1A0A     		lsrs	r2, r3, #8
 136 0014 05F81420 		strb	r2, [r5, r4, lsl #1]
 137              		.loc 1 140 0
 138 0018 0134     		adds	r4, r4, #1
 139              	.LVL9:
 140 001a 462C     		cmp	r4, #70
 141              		.loc 1 143 0
 142 001c 7370     		strb	r3, [r6, #1]
 143 001e 06F10206 		add	r6, r6, #2
 144              		.loc 1 140 0
 145 0022 6BD0     		beq	.L10
 146              	.LVL10:
 147              	.L12:
 148 0024 04F5FA60 		add	r0, r4, #2000
 149              		.loc 1 141 0
 150 0028 80B2     		uxth	r0, r0
 151 002a 0DF10601 		add	r1, sp, #6
 152 002e FFF7FEFF 		bl	EE_ReadVariable
 153              	.LVL11:
 154 0032 0028     		cmp	r0, #0
 155 0034 EBD0     		beq	.L16
 156              	.LVL12:
 157              	.LBE4:
 158              		.loc 1 152 0
 159 0036 0021     		movs	r1, #0
 160 0038 8C22     		movs	r2, #140
 161 003a 2846     		mov	r0, r5
 162 003c FFF7FEFF 		bl	memset
 163              	.LVL13:
 164              		.loc 1 171 0
 165 0040 304F     		ldr	r7, .L17
 166              		.loc 1 164 0
 167 0042 314B     		ldr	r3, .L17+4
 168              		.loc 1 178 0
 169 0044 DFF8D0C0 		ldr	ip, .L17+20
 170              		.loc 1 165 0
 171 0048 304C     		ldr	r4, .L17+8
ARM GAS  C:\Users\ADMINI~1\AppData\Local\Temp\cclvVomf.s 			page 4


 172              	.LVL14:
 173              		.loc 1 170 0
 174 004a 3148     		ldr	r0, .L17+12
 175              		.loc 1 174 0
 176 004c 3149     		ldr	r1, .L17+16
 177              		.loc 1 164 0
 178 004e EB61     		str	r3, [r5, #28]	@ float
 179              		.loc 1 157 0
 180 0050 4FF4FA76 		mov	r6, #500
 181              		.loc 1 153 0
 182 0054 0023     		movs	r3, #0
 183              		.loc 1 169 0
 184 0056 0122     		movs	r2, #1
 185              		.loc 1 171 0
 186 0058 6F63     		str	r7, [r5, #52]	@ float
 187              		.loc 1 185 0
 188 005a AF65     		str	r7, [r5, #88]	@ float
 189              		.loc 1 178 0
 190 005c C5F848C0 		str	ip, [r5, #72]	@ float
 191              		.loc 1 157 0
 192 0060 2E61     		str	r6, [r5, #16]
 193              		.loc 1 189 0
 194 0062 6E66     		str	r6, [r5, #100]
 195              		.loc 1 196 0
 196 0064 DFF8B4E0 		ldr	lr, .L17+24
 197              		.loc 1 179 0
 198 0068 DFF8B480 		ldr	r8, .L17+28
 199              		.loc 1 165 0
 200 006c 2C62     		str	r4, [r5, #32]	@ float
 201              		.loc 1 154 0
 202 006e 4FF47A7B 		mov	fp, #1000
 203              		.loc 1 161 0
 204 0072 4FF00309 		mov	r9, #3
 205              		.loc 1 166 0
 206 0076 F7EE007A 		fconsts	s15, #112
 207              		.loc 1 167 0
 208 007a 4FF0804A 		mov	r10, #1073741824
 209              		.loc 1 191 0
 210 007e 4FF4E13C 		mov	ip, #115200
 211              		.loc 1 197 0
 212 0082 4FF07C57 		mov	r7, #1056964608
 213              		.loc 1 198 0
 214 0086 4FF07A56 		mov	r6, #1048576000
 215              		.loc 1 177 0
 216 008a 6C64     		str	r4, [r5, #68]	@ float
 217              		.loc 1 170 0
 218 008c 2863     		str	r0, [r5, #48]	@ float
 219              		.loc 1 184 0
 220 008e 6865     		str	r0, [r5, #84]	@ float
 221              		.loc 1 174 0
 222 0090 E963     		str	r1, [r5, #60]	@ float
 223              		.loc 1 188 0
 224 0092 2966     		str	r1, [r5, #96]	@ float
 225              		.loc 1 153 0
 226 0094 2B70     		strb	r3, [r5]
 227              		.loc 1 156 0
 228 0096 2B73     		strb	r3, [r5, #12]
ARM GAS  C:\Users\ADMINI~1\AppData\Local\Temp\cclvVomf.s 			page 5


 229              		.loc 1 163 0
 230 0098 2B76     		strb	r3, [r5, #24]
 231              		.loc 1 168 0
 232 009a 85F82C30 		strb	r3, [r5, #44]
 233              		.loc 1 172 0
 234 009e 85F83830 		strb	r3, [r5, #56]
 235              		.loc 1 173 0
 236 00a2 85F83930 		strb	r3, [r5, #57]
 237              		.loc 1 176 0
 238 00a6 85F84030 		strb	r3, [r5, #64]
 239              		.loc 1 182 0
 240 00aa 85F85230 		strb	r3, [r5, #82]
 241              		.loc 1 183 0
 242 00ae 85F85330 		strb	r3, [r5, #83]
 243              		.loc 1 186 0
 244 00b2 85F85C30 		strb	r3, [r5, #92]
 245              		.loc 1 187 0
 246 00b6 85F85D30 		strb	r3, [r5, #93]
 247              		.loc 1 154 0
 248 00ba C5F804B0 		str	fp, [r5, #4]
 249              		.loc 1 161 0
 250 00be 85F81490 		strb	r9, [r5, #20]
 251              		.loc 1 166 0
 252 00c2 C5ED097A 		fsts	s15, [r5, #36]
 253              		.loc 1 167 0
 254 00c6 C5F828A0 		str	r10, [r5, #40]	@ float
 255              		.loc 1 169 0
 256 00ca 85F82D20 		strb	r2, [r5, #45]
 257              		.loc 1 180 0
 258 00ce 85F85020 		strb	r2, [r5, #80]
 259              		.loc 1 181 0
 260 00d2 85F85120 		strb	r2, [r5, #81]
 261              		.loc 1 193 0
 262 00d6 85F86C20 		strb	r2, [r5, #108]
 263              		.loc 1 179 0
 264 00da C5F84C80 		str	r8, [r5, #76]	@ float
 265              		.loc 1 191 0
 266 00de C5F868C0 		str	ip, [r5, #104]
 267              		.loc 1 194 0
 268 00e2 2C67     		str	r4, [r5, #112]	@ float
 269              		.loc 1 195 0
 270 00e4 6867     		str	r0, [r5, #116]	@ float
 271              		.loc 1 199 0
 272 00e6 85F88420 		strb	r2, [r5, #132]
 273              		.loc 1 200 0
 274 00ea 85F88530 		strb	r3, [r5, #133]
 275              		.loc 1 201 0
 276 00ee C5F88810 		str	r1, [r5, #136]	@ float
 277              		.loc 1 196 0
 278 00f2 C5F878E0 		str	lr, [r5, #120]	@ float
 279              		.loc 1 197 0
 280 00f6 EF67     		str	r7, [r5, #124]	@ float
 281              		.loc 1 198 0
 282 00f8 C5F88060 		str	r6, [r5, #128]	@ float
 283              	.LVL15:
 284              	.L10:
 285              		.loc 1 203 0
ARM GAS  C:\Users\ADMINI~1\AppData\Local\Temp\cclvVomf.s 			page 6


 286 00fc 03B0     		add	sp, sp, #12
 287              		.cfi_def_cfa_offset 36
 288              		@ sp needed
 289 00fe BDE8F08F 		pop	{r4, r5, r6, r7, r8, r9, r10, fp, pc}
 290              	.LVL16:
 291              	.L18:
 292 0102 00BF     		.align	2
 293              	.L17:
 294 0104 00504348 		.word	1212370944
 295 0108 00606A46 		.word	1181376512
 296 010c 9A99193E 		.word	1041865114
 297 0110 007C1248 		.word	1209170944
 298 0114 00803B45 		.word	1161527296
 299 0118 6666663F 		.word	1063675494
 300 011c 00247448 		.word	1215570944
 301 0120 00004040 		.word	1077936128
 302              		.cfi_endproc
 303              	.LFE119:
 304              		.size	conf_general_read_app_configuration, .-conf_general_read_app_configuration
 305              		.section	.text.conf_general_store_app_configuration,"ax",%progbits
 306              		.align	2
 307              		.p2align 4,,15
 308              		.global	conf_general_store_app_configuration
 309              		.thumb
 310              		.thumb_func
 311              		.type	conf_general_store_app_configuration, %function
 312              	conf_general_store_app_configuration:
 313              	.LFB120:
 314              		.loc 1 211 0
 315              		.cfi_startproc
 316              		@ args = 0, pretend = 0, frame = 0
 317              		@ frame_needed = 0, uses_anonymous_args = 0
 318              	.LVL17:
 319 0000 70B5     		push	{r4, r5, r6, lr}
 320              		.cfi_def_cfa_offset 16
 321              		.cfi_offset 4, -16
 322              		.cfi_offset 5, -12
 323              		.cfi_offset 6, -8
 324              		.cfi_offset 14, -4
 325              		.loc 1 211 0
 326 0002 0646     		mov	r6, r0
 327              		.loc 1 214 0
 328 0004 FFF7FEFF 		bl	utils_sys_lock_cnt
 329              	.LVL18:
 330              		.loc 1 215 0
 331 0008 4FF40060 		mov	r0, #2048
 332 000c 0021     		movs	r1, #0
 333 000e FFF7FEFF 		bl	RCC_APB1PeriphClockCmd
 334              	.LVL19:
 335              		.loc 1 221 0
 336 0012 F220     		movs	r0, #242
 337 0014 FFF7FEFF 		bl	FLASH_ClearFlag
 338              	.LVL20:
 339 0018 3546     		mov	r5, r6
 340              	.LBB5:
 341              		.loc 1 224 0
 342 001a 0024     		movs	r4, #0
ARM GAS  C:\Users\ADMINI~1\AppData\Local\Temp\cclvVomf.s 			page 7


 343 001c 01E0     		b	.L21
 344              	.LVL21:
 345              	.L26:
 346              		.loc 1 224 0 is_stmt 0 discriminator 2
 347 001e 462C     		cmp	r4, #70
 348 0020 19D0     		beq	.L25
 349              	.LVL22:
 350              	.L21:
 351              		.loc 1 225 0 is_stmt 1
 352 0022 16F81410 		ldrb	r1, [r6, r4, lsl #1]	@ zero_extendqisi2
 353              	.LVL23:
 354              		.loc 1 226 0
 355 0026 6B78     		ldrb	r3, [r5, #1]	@ zero_extendqisi2
 356 0028 04F5FA60 		add	r0, r4, #2000
 357              		.loc 1 228 0
 358 002c 43EA0121 		orr	r1, r3, r1, lsl #8
 359              	.LVL24:
 360 0030 80B2     		uxth	r0, r0
 361 0032 FFF7FEFF 		bl	EE_WriteVariable
 362              	.LVL25:
 363 0036 0828     		cmp	r0, #8
 364              		.loc 1 224 0
 365 0038 04F10104 		add	r4, r4, #1
 366              	.LVL26:
 367 003c 05F10205 		add	r5, r5, #2
 368              		.loc 1 228 0
 369 0040 EDD0     		beq	.L26
 370              		.loc 1 229 0
 371 0042 0024     		movs	r4, #0
 372              	.LVL27:
 373              	.L20:
 374              	.LBE5:
 375              		.loc 1 234 0
 376 0044 4FF40060 		mov	r0, #2048
 377 0048 0121     		movs	r1, #1
 378 004a FFF7FEFF 		bl	RCC_APB1PeriphClockCmd
 379              	.LVL28:
 380              		.loc 1 235 0
 381 004e FFF7FEFF 		bl	utils_sys_unlock_cnt
 382              	.LVL29:
 383              		.loc 1 238 0
 384 0052 2046     		mov	r0, r4
 385 0054 70BD     		pop	{r4, r5, r6, pc}
 386              	.LVL30:
 387              	.L25:
 388              		.loc 1 217 0
 389 0056 0124     		movs	r4, #1
 390              	.LVL31:
 391              	.LBB6:
 392 0058 F4E7     		b	.L20
 393              	.LBE6:
 394              		.cfi_endproc
 395              	.LFE120:
 396              		.size	conf_general_store_app_configuration, .-conf_general_store_app_configuration
 397              		.section	.text.conf_general_read_mc_configuration,"ax",%progbits
 398              		.align	2
 399              		.p2align 4,,15
ARM GAS  C:\Users\ADMINI~1\AppData\Local\Temp\cclvVomf.s 			page 8


 400              		.global	conf_general_read_mc_configuration
 401              		.thumb
 402              		.thumb_func
 403              		.type	conf_general_read_mc_configuration, %function
 404              	conf_general_read_mc_configuration:
 405              	.LFB121:
 406              		.loc 1 246 0
 407              		.cfi_startproc
 408              		@ args = 0, pretend = 0, frame = 8
 409              		@ frame_needed = 0, uses_anonymous_args = 0
 410              	.LVL32:
 411 0000 2DE9F04F 		push	{r4, r5, r6, r7, r8, r9, r10, fp, lr}
 412              		.cfi_def_cfa_offset 36
 413              		.cfi_offset 4, -36
 414              		.cfi_offset 5, -32
 415              		.cfi_offset 6, -28
 416              		.cfi_offset 7, -24
 417              		.cfi_offset 8, -20
 418              		.cfi_offset 9, -16
 419              		.cfi_offset 10, -12
 420              		.cfi_offset 11, -8
 421              		.cfi_offset 14, -4
 422 0004 0546     		mov	r5, r0
 423              	.LVL33:
 424 0006 83B0     		sub	sp, sp, #12
 425              		.cfi_def_cfa_offset 48
 426 0008 0646     		mov	r6, r0
 427              	.LBB7:
 428              		.loc 1 251 0
 429 000a 0024     		movs	r4, #0
 430 000c 0BE0     		b	.L29
 431              	.LVL34:
 432              	.L33:
 433              		.loc 1 253 0
 434 000e BDF80630 		ldrh	r3, [sp, #6]
 435 0012 1A0A     		lsrs	r2, r3, #8
 436 0014 05F81420 		strb	r2, [r5, r4, lsl #1]
 437              		.loc 1 251 0
 438 0018 0134     		adds	r4, r4, #1
 439              	.LVL35:
 440 001a 582C     		cmp	r4, #88
 441              		.loc 1 254 0
 442 001c 7370     		strb	r3, [r6, #1]
 443 001e 06F10206 		add	r6, r6, #2
 444              		.loc 1 251 0
 445 0022 00F08880 		beq	.L27
 446              	.LVL36:
 447              	.L29:
 448 0026 04F57A70 		add	r0, r4, #1000
 449              		.loc 1 252 0
 450 002a 80B2     		uxth	r0, r0
 451 002c 0DF10601 		add	r1, sp, #6
 452 0030 FFF7FEFF 		bl	EE_ReadVariable
 453              	.LVL37:
 454 0034 0028     		cmp	r0, #0
 455 0036 EAD0     		beq	.L33
 456              	.LVL38:
ARM GAS  C:\Users\ADMINI~1\AppData\Local\Temp\cclvVomf.s 			page 9


 457              	.LBE7:
 458              		.loc 1 266 0
 459 0038 404B     		ldr	r3, .L34
 460              		.loc 1 280 0
 461 003a 414A     		ldr	r2, .L34+4
 462              		.loc 1 271 0
 463 003c DFF830E1 		ldr	lr, .L34+52
 464              		.loc 1 295 0
 465 0040 DFED407A 		flds	s15, .L34+8
 466              		.loc 1 267 0
 467 0044 4049     		ldr	r1, .L34+12
 468              		.loc 1 279 0
 469 0046 414F     		ldr	r7, .L34+16
 470              		.loc 1 270 0
 471 0048 DFF828A1 		ldr	r10, .L34+56
 472              		.loc 1 272 0
 473 004c DFF82891 		ldr	r9, .L34+60
 474              		.loc 1 273 0
 475 0050 3F4C     		ldr	r4, .L34+20
 476              	.LVL39:
 477              		.loc 1 274 0
 478 0052 4048     		ldr	r0, .L34+24
 479              		.loc 1 276 0
 480 0054 DFF82481 		ldr	r8, .L34+64
 481              		.loc 1 284 0
 482 0058 DFF824C1 		ldr	ip, .L34+68
 483              		.loc 1 266 0
 484 005c 6B60     		str	r3, [r5, #4]	@ float
 485              		.loc 1 268 0
 486 005e EB60     		str	r3, [r5, #12]	@ float
 487              		.loc 1 286 0
 488 0060 EB64     		str	r3, [r5, #76]	@ float
 489              		.loc 1 288 0
 490 0062 6B65     		str	r3, [r5, #84]	@ float
 491              		.loc 1 296 0
 492 0064 DFF81CB1 		ldr	fp, .L34+72
 493              		.loc 1 294 0
 494 0068 3B4B     		ldr	r3, .L34+28
 495              		.loc 1 271 0
 496 006a C5F818E0 		str	lr, [r5, #24]	@ float
 497              		.loc 1 280 0
 498 006e AA63     		str	r2, [r5, #56]	@ float
 499              		.loc 1 297 0
 500 0070 DFF814E1 		ldr	lr, .L34+76
 501              		.loc 1 282 0
 502 0074 2A64     		str	r2, [r5, #64]	@ float
 503              		.loc 1 292 0
 504 0076 9FED397A 		flds	s14, .L34+32
 505              		.loc 1 283 0
 506 007a 394E     		ldr	r6, .L34+36
 507              		.loc 1 267 0
 508 007c A960     		str	r1, [r5, #8]	@ float
 509              		.loc 1 262 0
 510 007e 0122     		movs	r2, #1
 511              		.loc 1 287 0
 512 0080 2965     		str	r1, [r5, #80]	@ float
 513              		.loc 1 270 0
ARM GAS  C:\Users\ADMINI~1\AppData\Local\Temp\cclvVomf.s 			page 10


 514 0082 C5F814A0 		str	r10, [r5, #20]	@ float
 515              		.loc 1 272 0
 516 0086 C5F81C90 		str	r9, [r5, #28]	@ float
 517              		.loc 1 273 0
 518 008a 2C62     		str	r4, [r5, #32]	@ float
 519              		.loc 1 274 0
 520 008c 6862     		str	r0, [r5, #36]	@ float
 521              		.loc 1 304 0
 522 008e 354C     		ldr	r4, .L34+40
 523              		.loc 1 305 0
 524 0090 3548     		ldr	r0, .L34+44
 525              		.loc 1 276 0
 526 0092 C5F82C80 		str	r8, [r5, #44]	@ float
 527              		.loc 1 306 0
 528 0096 0021     		movs	r1, #0
 529              		.loc 1 279 0
 530 0098 6F63     		str	r7, [r5, #52]	@ float
 531              		.loc 1 281 0
 532 009a EF63     		str	r7, [r5, #60]	@ float
 533              		.loc 1 284 0
 534 009c C5F848C0 		str	ip, [r5, #72]	@ float
 535              		.loc 1 294 0
 536 00a0 6B66     		str	r3, [r5, #100]	@ float
 537              		.loc 1 295 0
 538 00a2 C5ED1B7A 		fsts	s15, [r5, #108]
 539              		.loc 1 263 0
 540 00a6 0023     		movs	r3, #0
 541              		.loc 1 269 0
 542 00a8 304F     		ldr	r7, .L34+48
 543              		.loc 1 296 0
 544 00aa C5F870B0 		str	fp, [r5, #112]	@ float
 545              		.loc 1 297 0
 546 00ae C5F874E0 		str	lr, [r5, #116]	@ float
 547              		.loc 1 262 0
 548 00b2 2A70     		strb	r2, [r5]
 549              		.loc 1 277 0
 550 00b4 85F83020 		strb	r2, [r5, #48]
 551              		.loc 1 278 0
 552 00b8 85F83120 		strb	r2, [r5, #49]
 553              		.loc 1 291 0
 554 00bc 85F85C20 		strb	r2, [r5, #92]
 555              		.loc 1 298 0
 556 00c0 DFF8C8A0 		ldr	r10, .L34+80
 557              		.loc 1 307 0
 558 00c4 DFF8C890 		ldr	r9, .L34+84
 559              		.loc 1 315 0
 560 00c8 DFF8C880 		ldr	r8, .L34+88
 561              		.loc 1 316 0
 562 00cc DFF8C8C0 		ldr	ip, .L34+92
 563              		.loc 1 293 0
 564 00d0 DFF8C8B0 		ldr	fp, .L34+96
 565              		.loc 1 283 0
 566 00d4 6E64     		str	r6, [r5, #68]	@ float
 567              		.loc 1 275 0
 568 00d6 F2EE007A 		fconsts	s15, #32
 569              		.loc 1 314 0
 570 00da 4FF07E5E 		mov	lr, #1065353216
ARM GAS  C:\Users\ADMINI~1\AppData\Local\Temp\cclvVomf.s 			page 11


 571              		.loc 1 318 0
 572 00de 40F6B832 		movw	r2, #3000
 573              		.loc 1 292 0
 574 00e2 85ED187A 		fsts	s14, [r5, #96]
 575              		.loc 1 263 0
 576 00e6 6B70     		strb	r3, [r5, #1]
 577              		.loc 1 264 0
 578 00e8 AB70     		strb	r3, [r5, #2]
 579              		.loc 1 269 0
 580 00ea 2F61     		str	r7, [r5, #16]	@ float
 581              		.loc 1 289 0
 582 00ec AF65     		str	r7, [r5, #88]	@ float
 583              		.loc 1 275 0
 584 00ee C5ED0A7A 		fsts	s15, [r5, #40]
 585              		.loc 1 293 0
 586 00f2 C5F868B0 		str	fp, [r5, #104]	@ float
 587              		.loc 1 298 0
 588 00f6 C5F878A0 		str	r10, [r5, #120]	@ float
 589              		.loc 1 313 0
 590 00fa C5F89C60 		str	r6, [r5, #156]	@ float
 591              		.loc 1 300 0
 592 00fe 85F87C30 		strb	r3, [r5, #124]
 593              		.loc 1 301 0
 594 0102 85F87D30 		strb	r3, [r5, #125]
 595              		.loc 1 302 0
 596 0106 85F87E30 		strb	r3, [r5, #126]
 597              		.loc 1 304 0
 598 010a C5F88040 		str	r4, [r5, #128]	@ float
 599              		.loc 1 309 0
 600 010e C5F89040 		str	r4, [r5, #144]	@ float
 601              		.loc 1 305 0
 602 0112 C5F88400 		str	r0, [r5, #132]	@ float
 603              		.loc 1 310 0
 604 0116 C5F89400 		str	r0, [r5, #148]	@ float
 605              		.loc 1 306 0
 606 011a C5F88810 		str	r1, [r5, #136]	@ float
 607              		.loc 1 311 0
 608 011e C5F89810 		str	r1, [r5, #152]	@ float
 609              		.loc 1 307 0
 610 0122 C5F88C90 		str	r9, [r5, #140]	@ float
 611              		.loc 1 315 0
 612 0126 C5F8A480 		str	r8, [r5, #164]	@ float
 613              		.loc 1 316 0
 614 012a C5F8A8C0 		str	ip, [r5, #168]	@ float
 615              		.loc 1 314 0
 616 012e C5F8A0E0 		str	lr, [r5, #160]	@ float
 617              		.loc 1 318 0
 618 0132 C5F8AC20 		str	r2, [r5, #172]
 619              	.LVL40:
 620              	.L27:
 621              		.loc 1 320 0
 622 0136 03B0     		add	sp, sp, #12
 623              		.cfi_def_cfa_offset 36
 624              		@ sp needed
 625 0138 BDE8F08F 		pop	{r4, r5, r6, r7, r8, r9, r10, fp, pc}
 626              	.LVL41:
 627              	.L35:
ARM GAS  C:\Users\ADMINI~1\AppData\Local\Temp\cclvVomf.s 			page 12


 628              		.align	2
 629              	.L34:
 630 013c 00007042 		.word	1114636288
 631 0140 0000C842 		.word	1120403456
 632 0144 00007842 		.word	1115160576
 633 0148 000070C2 		.word	-1032847360
 634 014c 0000A042 		.word	1117782016
 635 0150 00009643 		.word	1133903872
 636 0154 0080BB44 		.word	1153138688
 637 0158 00808944 		.word	1149861888
 638 015c 00001643 		.word	1125515264
 639 0160 0AD7233C 		.word	1008981770
 640 0164 17B7D138 		.word	953267991
 641 0168 6F12033B 		.word	990057071
 642 016c 0000A0C1 		.word	-1046478848
 643 0170 0050C3C7 		.word	-943501312
 644 0174 00000243 		.word	1124204544
 645 0178 0050C347 		.word	1203982336
 646 017c 00004842 		.word	1112014848
 647 0180 3333733F 		.word	1064514355
 648 0184 CDCC4C3F 		.word	1061997773
 649 0188 00409C47 		.word	1201422336
 650 018c 00001644 		.word	1142292480
 651 0190 00006144 		.word	1147207680
 652 0194 99BB963B 		.word	999734169
 653 0198 0AD7233D 		.word	1025758986
 654 019c 00002041 		.word	1092616192
 655              		.cfi_endproc
 656              	.LFE121:
 657              		.size	conf_general_read_mc_configuration, .-conf_general_read_mc_configuration
 658              		.section	.text.conf_general_store_mc_configuration,"ax",%progbits
 659              		.align	2
 660              		.p2align 4,,15
 661              		.global	conf_general_store_mc_configuration
 662              		.thumb
 663              		.thumb_func
 664              		.type	conf_general_store_mc_configuration, %function
 665              	conf_general_store_mc_configuration:
 666              	.LFB122:
 667              		.loc 1 328 0
 668              		.cfi_startproc
 669              		@ args = 0, pretend = 0, frame = 0
 670              		@ frame_needed = 0, uses_anonymous_args = 0
 671              	.LVL42:
 672 0000 70B5     		push	{r4, r5, r6, lr}
 673              		.cfi_def_cfa_offset 16
 674              		.cfi_offset 4, -16
 675              		.cfi_offset 5, -12
 676              		.cfi_offset 6, -8
 677              		.cfi_offset 14, -4
 678              		.loc 1 328 0
 679 0002 0646     		mov	r6, r0
 680              		.loc 1 331 0
 681 0004 FFF7FEFF 		bl	utils_sys_lock_cnt
 682              	.LVL43:
 683              		.loc 1 332 0
 684 0008 4FF40060 		mov	r0, #2048
ARM GAS  C:\Users\ADMINI~1\AppData\Local\Temp\cclvVomf.s 			page 13


 685 000c 0021     		movs	r1, #0
 686 000e FFF7FEFF 		bl	RCC_APB1PeriphClockCmd
 687              	.LVL44:
 688              		.loc 1 338 0
 689 0012 F220     		movs	r0, #242
 690 0014 FFF7FEFF 		bl	FLASH_ClearFlag
 691              	.LVL45:
 692 0018 3546     		mov	r5, r6
 693              	.LBB8:
 694              		.loc 1 341 0
 695 001a 0024     		movs	r4, #0
 696 001c 01E0     		b	.L38
 697              	.LVL46:
 698              	.L43:
 699              		.loc 1 341 0 is_stmt 0 discriminator 2
 700 001e 582C     		cmp	r4, #88
 701 0020 19D0     		beq	.L42
 702              	.LVL47:
 703              	.L38:
 704              		.loc 1 342 0 is_stmt 1
 705 0022 16F81410 		ldrb	r1, [r6, r4, lsl #1]	@ zero_extendqisi2
 706              	.LVL48:
 707              		.loc 1 343 0
 708 0026 6B78     		ldrb	r3, [r5, #1]	@ zero_extendqisi2
 709 0028 04F57A70 		add	r0, r4, #1000
 710              		.loc 1 345 0
 711 002c 43EA0121 		orr	r1, r3, r1, lsl #8
 712              	.LVL49:
 713 0030 80B2     		uxth	r0, r0
 714 0032 FFF7FEFF 		bl	EE_WriteVariable
 715              	.LVL50:
 716 0036 0828     		cmp	r0, #8
 717              		.loc 1 341 0
 718 0038 04F10104 		add	r4, r4, #1
 719              	.LVL51:
 720 003c 05F10205 		add	r5, r5, #2
 721              		.loc 1 345 0
 722 0040 EDD0     		beq	.L43
 723              		.loc 1 346 0
 724 0042 0024     		movs	r4, #0
 725              	.LVL52:
 726              	.L37:
 727              	.LBE8:
 728              		.loc 1 351 0
 729 0044 4FF40060 		mov	r0, #2048
 730 0048 0121     		movs	r1, #1
 731 004a FFF7FEFF 		bl	RCC_APB1PeriphClockCmd
 732              	.LVL53:
 733              		.loc 1 352 0
 734 004e FFF7FEFF 		bl	utils_sys_unlock_cnt
 735              	.LVL54:
 736              		.loc 1 355 0
 737 0052 2046     		mov	r0, r4
 738 0054 70BD     		pop	{r4, r5, r6, pc}
 739              	.LVL55:
 740              	.L42:
 741              		.loc 1 334 0
ARM GAS  C:\Users\ADMINI~1\AppData\Local\Temp\cclvVomf.s 			page 14


 742 0056 0124     		movs	r4, #1
 743              	.LVL56:
 744              	.LBB9:
 745 0058 F4E7     		b	.L37
 746              	.LBE9:
 747              		.cfi_endproc
 748              	.LFE122:
 749              		.size	conf_general_store_mc_configuration, .-conf_general_store_mc_configuration
 750              		.section	.text.conf_general_detect_motor_param,"ax",%progbits
 751              		.align	2
 752              		.p2align 4,,15
 753              		.global	conf_general_detect_motor_param
 754              		.thumb
 755              		.thumb_func
 756              		.type	conf_general_detect_motor_param, %function
 757              	conf_general_detect_motor_param:
 758              	.LFB123:
 759              		.loc 1 358 0
 760              		.cfi_startproc
 761              		@ args = 0, pretend = 0, frame = 0
 762              		@ frame_needed = 0, uses_anonymous_args = 0
 763              		@ link register save eliminated.
 764              	.LVL57:
 765              		.loc 1 451 0
 766 0000 0020     		movs	r0, #0
 767              	.LVL58:
 768 0002 7047     		bx	lr
 769              		.cfi_endproc
 770              	.LFE123:
 771              		.size	conf_general_detect_motor_param, .-conf_general_detect_motor_param
 772              		.global	VirtAddVarTab
 773              		.section	.bss.VirtAddVarTab,"aw",%nobits
 774              		.align	2
 775              		.set	.LANCHOR0,. + 0
 776              		.type	VirtAddVarTab, %object
 777              		.size	VirtAddVarTab, 320
 778              	VirtAddVarTab:
 779 0000 00000000 		.space	320
 779      00000000 
 779      00000000 
 779      00000000 
 779      00000000 
 780              		.text
 781              	.Letext0:
 782              		.file 2 "c:\\program files\\gnu tools arm embedded\\4.9 2015q2\\arm-none-eabi\\include\\machine\\_
 783              		.file 3 "c:\\program files\\gnu tools arm embedded\\4.9 2015q2\\arm-none-eabi\\include\\sys\\_stdi
 784              		.file 4 "datatypes.h"
 785              		.file 5 "ChibiOS_2.6.6/os/hal/platforms/STM32F4xx/stm32f4xx.h"
 786              		.file 6 "ChibiOS_2.6.6/ext/stdperiph_stm32f4/inc/stm32f4xx_flash.h"
 787              		.file 7 "ChibiOS_2.6.6/os/ports/common/ARMCMx/CMSIS/include/core_cm4.h"
 788              		.file 8 "eeprom.h"
 789              		.file 9 "utils.h"
 790              		.file 10 "ChibiOS_2.6.6/ext/stdperiph_stm32f4/inc/stm32f4xx_rcc.h"