ARM GAS  C:\Users\ADMINI~1\AppData\Local\Temp\cclvVomf.s 			page 1


   1              		.syntax unified
   2              		.cpu cortex-m4
   3              		.eabi_attribute 27, 1
   4              		.eabi_attribute 28, 1
   5              		.fpu fpv4-sp-d16
   6              		.eabi_attribute 20, 1
   7              		.eabi_attribute 21, 1
   8              		.eabi_attribute 23, 3
   9              		.eabi_attribute 24, 1
  10              		.eabi_attribute 25, 1
  11              		.eabi_attribute 26, 1
  12              		.eabi_attribute 30, 2
  13              		.eabi_attribute 34, 1
  14              		.eabi_attribute 18, 4
  15              		.thumb
  16              		.file	"conf_general.c"
  17              		.text
  18              	.Ltext0:
  19              		.cfi_sections	.debug_frame
  20              		.section	.text.conf_general_init,"ax",%progbits
  21              		.align	2
  22              		.p2align 4,,15
  23              		.global	conf_general_init
  24              		.thumb
  25              		.thumb_func
  26              		.type	conf_general_init, %function
  27              	conf_general_init:
  28              	.LFB118:
  29              		.file 1 "conf_general.c"
  30              		.loc 1 110 0
  31              		.cfi_startproc
  32              		@ args = 0, pretend = 0, frame = 0
  33              		@ frame_needed = 0, uses_anonymous_args = 0
  34 0000 08B5     		push	{r3, lr}
  35              		.cfi_def_cfa_offset 8
  36              		.cfi_offset 3, -8
  37              		.cfi_offset 14, -4
  38              		.loc 1 112 0
  39 0002 0021     		movs	r1, #0
  40 0004 4FF4A072 		mov	r2, #320
  41 0008 1048     		ldr	r0, .L8
  42 000a FFF7FEFF 		bl	memset
  43              	.LVL0:
  44 000e 104A     		ldr	r2, .L8+4
  45 0010 4FF47A73 		mov	r3, #1000
  46 0014 02F18C01 		add	r1, r2, #140
  47              	.LVL1:
  48              	.L2:
  49              	.LBB2:
  50              		.loc 1 116 0 discriminator 3
  51 0018 22F8023F 		strh	r3, [r2, #2]!	@ movhi
  52 001c 0133     		adds	r3, r3, #1
  53              		.loc 1 115 0 discriminator 3
  54 001e 8A42     		cmp	r2, r1
  55 0020 9BB2     		uxth	r3, r3
  56 0022 F9D1     		bne	.L2
  57 0024 0B4A     		ldr	r2, .L8+8
ARM GAS  C:\Users\ADMINI~1\AppData\Local\Temp\cclvVomf.s 			page 2


  58              		.loc 1 115 0 is_stmt 0
  59 0026 4FF4FA63 		mov	r3, #2000
  60 002a 02F18C01 		add	r1, r2, #140
  61              	.L3:
  62              	.LBE2:
  63              	.LBB3:
  64              		.loc 1 120 0 is_stmt 1 discriminator 3
  65 002e 22F8023F 		strh	r3, [r2, #2]!	@ movhi
  66              	.LVL2:
  67 0032 0133     		adds	r3, r3, #1
  68              		.loc 1 119 0 discriminator 3
  69 0034 8A42     		cmp	r2, r1
  70 0036 9BB2     		uxth	r3, r3
  71 0038 F9D1     		bne	.L3
  72              	.LBE3:
  73              		.loc 1 123 0
  74 003a FFF7FEFF 		bl	FLASH_Unlock
  75              	.LVL3:
  76              		.loc 1 124 0
  77 003e F220     		movs	r0, #242
  78 0040 FFF7FEFF 		bl	FLASH_ClearFlag
  79              	.LVL4:
  80              		.loc 1 127 0
  81 0044 BDE80840 		pop	{r3, lr}
  82              		.cfi_restore 14
  83              		.cfi_restore 3
  84              		.cfi_def_cfa_offset 0
  85              		.loc 1 126 0
  86 0048 FFF7FEBF 		b	EE_Init
  87              	.LVL5:
  88              	.L9:
  89              		.align	2
  90              	.L8:
  91 004c 00000000 		.word	.LANCHOR0
  92 0050 FEFFFFFF 		.word	.LANCHOR0-2
  93 0054 8A000000 		.word	.LANCHOR0+138
  94              		.cfi_endproc
  95              	.LFE118:
  96              		.size	conf_general_init, .-conf_general_init
  97              		.section	.text.conf_general_read_app_configuration,"ax",%progbits
  98              		.align	2
  99              		.p2align 4,,15
 100              		.global	conf_general_read_app_configuration
 101              		.thumb
 102              		.thumb_func
 103              		.type	conf_general_read_app_configuration, %function
 104              	conf_general_read_app_configuration:
 105              	.LFB119:
 106              		.loc 1 135 0
 107              		.cfi_startproc
 108              		@ args = 0, pretend = 0, frame = 8
 109              		@ frame_needed = 0, uses_anonymous_args = 0
 110              	.LVL6:
 111 0000 2DE9F04F 		push	{r4, r5, r6, r7, r8, r9, r10, fp, lr}
 112              		.cfi_def_cfa_offset 36
 113              		.cfi_offset 4, -36
 114              		.cfi_offset 5, -32
ARM GAS  C:\Users\ADMINI~1\AppData\Local\Temp\cclvVomf.s 			page 3


 115              		.cfi_offset 6, -28
 116              		.cfi_offset 7, -24
 117              		.cfi_offset 8, -20
 118              		.cfi_offset 9, -16
 119              		.cfi_offset 10, -12
 120              		.cfi_offset 11, -8
 121              		.cfi_offset 14, -4
 122 0004 0546     		mov	r5, r0
 123              	.LVL7:
 124 0006 83B0     		sub	sp, sp, #12
 125              		.cfi_def_cfa_offset 48
 126 0008 0646     		mov	r6, r0
 127              	.LBB4:
 128              		.loc 1 140 0
 129 000a 0024     		movs	r4, #0
 130 000c 0AE0     		b	.L12
 131              	.LVL8:
 132              	.L16:
 133              		.loc 1 142 0
 134 000e BDF80630 		ldrh	r3, [sp, #6]
 135 0012 1A0A     		lsrs	r2, r3, #8
 136 0014 05F81420 		strb	r2, [r5, r4, lsl #1]
 137              		.loc 1 140 0
 138 0018 0134     		adds	r4, r4, #1
 139              	.LVL9:
 140 001a 462C     		cmp	r4, #70
 141              		.loc 1 143 0
 142 001c 7370     		strb	r3, [r6, #1]
 143 001e 06F10206 		add	r6, r6, #2
 144              		.loc 1 140 0
 145 0022 6BD0     		beq	.L10
 146              	.LVL10:
 147              	.L12:
 148 0024 04F5FA60 		add	r0, r4, #2000
 149              		.loc 1 141 0
 150 0028 80B2     		uxth	r0, r0
 151 002a 0DF10601 		add	r1, sp, #6
 152 002e FFF7FEFF 		bl	EE_ReadVariable
 153              	.LVL11:
 154 0032 0028     		cmp	r0, #0
 155 0034 EBD0     		beq	.L16
 156              	.LVL12:
 157              	.LBE4:
 158              		.loc 1 152 0
 159 0036 0021     		movs	r1, #0
 160 0038 8C22     		movs	r2, #140
 161 003a 2846     		mov	r0, r5
 162 003c FFF7FEFF 		bl	memset
 163              	.LVL13:
 164              		.loc 1 171 0
 165 0040 304F     		ldr	r7, .L17
 166              		.loc 1 164 0
 167 0042 314B     		ldr	r3, .L17+4
 168              		.loc 1 178 0
 169 0044 DFF8D0C0 		ldr	ip, .L17+20
 170              		.loc 1 165 0
 171 0048 304C     		ldr	r4, .L17+8
ARM GAS  C:\Users\ADMINI~1\AppData\Local\Temp\cclvVomf.s 			page 4


 172              	.LVL14:
 173              		.loc 1 170 0
 174 004a 3148     		ldr	r0, .L17+12
 175              		.loc 1 174 0
 176 004c 3149     		ldr	r1, .L17+16
 177              		.loc 1 164 0
 178 004e EB61     		str	r3, [r5, #28]	@ float
 179              		.loc 1 157 0
 180 0050 4FF4FA76 		mov	r6, #500
 181              		.loc 1 153 0
 182 0054 0023     		movs	r3, #0
 183              		.loc 1 169 0
 184 0056 0122     		movs	r2, #1
 185              		.loc 1 171 0
 186 0058 6F63     		str	r7, [r5, #52]	@ float
 187              		.loc 1 185 0
 188 005a AF65     		str	r7, [r5, #88]	@ float
 189              		.loc 1 178 0
 190 005c C5F848C0 		str	ip, [r5, #72]	@ float
 191              		.loc 1 157 0
 192 0060 2E61     		str	r6, [r5, #16]
 193              		.loc 1 189 0
 194 0062 6E66     		str	r6, [r5, #100]
 195              		.loc 1 196 0
 196 0064 DFF8B4E0 		ldr	lr, .L17+24
 197              		.loc 1 179 0
 198 0068 DFF8B480 		ldr	r8, .L17+28
 199              		.loc 1 165 0
 200 006c 2C62     		str	r4, [r5, #32]	@ float
 201              		.loc 1 154 0
 202 006e 4FF47A7B 		mov	fp, #1000
 203              		.loc 1 161 0
 204 0072 4FF00309 		mov	r9, #3
 205              		.loc 1 166 0
 206 0076 F7EE007A 		fconsts	s15, #112
 207              		.loc 1 167 0
 208 007a 4FF0804A 		mov	r10, #1073741824
 209              		.loc 1 191 0
 210 007e 4FF4E13C 		mov	ip, #115200
 211              		.loc 1 197 0
 212 0082 4FF07C57 		mov	r7, #1056964608
 213              		.loc 1 198 0
 214 0086 4FF07A56 		mov	r6, #1048576000
 215              		.loc 1 177 0
 216 008a 6C64     		str	r4, [r5, #68]	@ float
 217              		.loc 1 170 0
 218 008c 2863     		str	r0, [r5, #48]	@ float
 219              		.loc 1 184 0
 220 008e 6865     		str	r0, [r5, #84]	@ float
 221              		.loc 1 174 0
 222 0090 E963     		str	r1, [r5, #60]	@ float
 223              		.loc 1 188 0
 224 0092 2966     		str	r1, [r5, #96]	@ float
 225              		.loc 1 153 0
 226 0094 2B70     		strb	r3, [r5]
 227              		.loc 1 156 0
 228 0096 2B73     		strb	r3, [r5, #12]
ARM GAS  C:\Users\ADMINI~1\AppData\Local\Temp\cclvVomf.s 			page 5


 229              		.loc 1 163 0
 230 0098 2B76     		strb	r3, [r5, #24]
 231              		.loc 1 168 0
 232 009a 85F82C30 		strb	r3, [r5, #44]
 233              		.loc 1 172 0
 234 009e 85F83830 		strb	r3, [r5, #56]
 235              		.loc 1 173 0
 236 00a2 85F83930 		strb	r3, [r5, #57]
 237              		.loc 1 176 0
 238 00a6 85F84030 		strb	r3, [r5, #64]
 239              		.loc 1 182 0
 240 00aa 85F85230 		strb	r3, [r5, #82]
 241              		.loc 1 183 0
 242 00ae 85F85330 		strb	r3, [r5, #83]
 243              		.loc 1 186 0
 244 00b2 85F85C30 		strb	r3, [r5, #92]
 245              		.loc 1 187 0
 246 00b6 85F85D30 		strb	r3, [r5, #93]
 247              		.loc 1 154 0
 248 00ba C5F804B0 		str	fp, [r5, #4]
 249              		.loc 1 161 0
 250 00be 85F81490 		strb	r9, [r5, #20]
 251              		.loc 1 166 0
 252 00c2 C5ED097A 		fsts	s15, [r5, #36]
 253              		.loc 1 167 0
 254 00c6 C5F828A0 		str	r10, [r5, #40]	@ float
 255              		.loc 1 169 0
 256 00ca 85F82D20 		strb	r2, [r5, #45]
 257              		.loc 1 180 0
 258 00ce 85F85020 		strb	r2, [r5, #80]
 259              		.loc 1 181 0
 260 00d2 85F85120 		strb	r2, [r5, #81]
 261              		.loc 1 193 0
 262 00d6 85F86C20 		strb	r2, [r5, #108]
 263              		.loc 1 179 0
 264 00da C5F84C80 		str	r8, [r5, #76]	@ float
 265              		.loc 1 191 0
 266 00de C5F868C0 		str	ip, [r5, #104]
 267              		.loc 1 194 0
 268 00e2 2C67     		str	r4, [r5, #112]	@ float
 269              		.loc 1 195 0
 270 00e4 6867     		str	r0, [r5, #116]	@ float
 271              		.loc 1 199 0
 272 00e6 85F88420 		strb	r2, [r5, #132]
 273              		.loc 1 200 0
 274 00ea 85F88530 		strb	r3, [r5, #133]
 275              		.loc 1 201 0
 276 00ee C5F88810 		str	r1, [r5, #136]	@ float
 277              		.loc 1 196 0
 278 00f2 C5F878E0 		str	lr, [r5, #120]	@ float
 279              		.loc 1 197 0
 280 00f6 EF67     		str	r7, [r5, #124]	@ float
 281              		.loc 1 198 0
 282 00f8 C5F88060 		str	r6, [r5, #128]	@ float
 283              	.LVL15:
 284              	.L10:
 285              		.loc 1 203 0
ARM GAS  C:\Users\ADMINI~1\AppData\Local\Temp\cclvVomf.s 			page 6


 286 00fc 03B0     		add	sp, sp, #12
 287              		.cfi_def_cfa_offset 36
 288              		@ sp needed
 289 00fe BDE8F08F 		pop	{r4, r5, r6, r7, r8, r9, r10, fp, pc}
 290              	.LVL16:
 291              	.L18:
 292 0102 00BF     		.align	2
 293              	.L17:
 294 0104 00504348 		.word	1212370944
 295 0108 00606A46 		.word	1181376512
 296 010c 9A99193E 		.word	1041865114
 297 0110 007C1248 		.word	1209170944
 298 0114 00803B45 		.word	1161527296
 299 0118 6666663F 		.word	1063675494
 300 011c 00247448 		.word	1215570944
 301 0120 00004040 		.word	1077936128
 302              		.cfi_endproc
 303              	.LFE119:
 304              		.size	conf_general_read_app_configuration, .-conf_general_read_app_configuration
 305              		.section	.text.conf_general_store_app_configuration,"ax",%progbits
 306              		.align	2
 307              		.p2align 4,,15
 308              		.global	conf_general_store_app_configuration
 309              		.thumb
 310              		.thumb_func
 311              		.type	conf_general_store_app_configuration, %function
 312              	conf_general_store_app_configuration:
 313              	.LFB120:
 314              		.loc 1 211 0
 315              		.cfi_startproc
 316              		@ args = 0, pretend = 0, frame = 0
 317              		@ frame_needed = 0, uses_anonymous_args = 0
 318              	.LVL17:
 319 0000 70B5     		push	{r4, r5, r6, lr}
 320              		.cfi_def_cfa_offset 16
 321              		.cfi_offset 4, -16
 322              		.cfi_offset 5, -12
 323              		.cfi_offset 6, -8
 324              		.cfi_offset 14, -4
 325              		.loc 1 211 0
 326 0002 0646     		mov	r6, r0
 327              		.loc 1 214 0
 328 0004 FFF7FEFF 		bl	utils_sys_lock_cnt
 329              	.LVL18:
 330              		.loc 1 215 0
 331 0008 4FF40060 		mov	r0, #2048
 332 000c 0021     		movs	r1, #0
 333 000e FFF7FEFF 		bl	RCC_APB1PeriphClockCmd
 334              	.LVL19:
 335              		.loc 1 221 0
 336 0012 F220     		movs	r0, #242
 337 0014 FFF7FEFF 		bl	FLASH_ClearFlag
 338              	.LVL20:
 339 0018 3546     		mov	r5, r6
 340              	.LBB5:
 341              		.loc 1 224 0
 342 001a 0024     		movs	r4, #0
ARM GAS  C:\Users\ADMINI~1\AppData\Local\Temp\cclvVomf.s 			page 7


 343 001c 01E0     		b	.L21
 344              	.LVL21:
 345              	.L26:
 346              		.loc 1 224 0 is_stmt 0 discriminator 2
 347 001e 462C     		cmp	r4, #70
 348 0020 19D0     		beq	.L25
 349              	.LVL22:
 350              	.L21:
 351              		.loc 1 225 0 is_stmt 1
 352 0022 16F81410 		ldrb	r1, [r6, r4, lsl #1]	@ zero_extendqisi2
 353              	.LVL23:
 354              		.loc 1 226 0
 355 0026 6B78     		ldrb	r3, [r5, #1]	@ zero_extendqisi2
 356 0028 04F5FA60 		add	r0, r4, #2000
 357              		.loc 1 228 0
 358 002c 43EA0121 		orr	r1, r3, r1, lsl #8
 359              	.LVL24:
 360 0030 80B2     		uxth	r0, r0
 361 0032 FFF7FEFF 		bl	EE_WriteVariable
 362              	.LVL25:
 363 0036 0828     		cmp	r0, #8
 364              		.loc 1 224 0
 365 0038 04F10104 		add	r4, r4, #1
 366              	.LVL26:
 367 003c 05F10205 		add	r5, r5, #2
 368              		.loc 1 228 0
 369 0040 EDD0     		beq	.L26
 370              		.loc 1 229 0
 371 0042 0024     		movs	r4, #0
 372              	.LVL27:
 373              	.L20:
 374              	.LBE5:
 375              		.loc 1 234 0
 376 0044 4FF40060 		mov	r0, #2048
 377 0048 0121     		movs	r1, #1
 378 004a FFF7FEFF 		bl	RCC_APB1PeriphClockCmd
 379              	.LVL28:
 380              		.loc 1 235 0
 381 004e FFF7FEFF 		bl	utils_sys_unlock_cnt
 382              	.LVL29:
 383              		.loc 1 238 0
 384 0052 2046     		mov	r0, r4
 385 0054 70BD     		pop	{r4, r5, r6, pc}
 386              	.LVL30:
 387              	.L25:
 388              		.loc 1 217 0
 389 0056 0124     		movs	r4, #1
 390              	.LVL31:
 391              	.LBB6:
 392 0058 F4E7     		b	.L20
 393              	.LBE6:
 394              		.cfi_endproc
 395              	.LFE120:
 396              		.size	conf_general_store_app_configuration, .-conf_general_store_app_configuration
 397              		.section	.text.conf_general_read_mc_configuration,"ax",%progbits
 398              		.align	2
 399              		.p2align 4,,15
ARM GAS  C:\Users\ADMINI~1\AppData\Local\Temp\cclvVomf.s 			page 8


 400              		.global	conf_general_read_mc_configuration
 401              		.thumb
 402              		.thumb_func
 403              		.type	conf_general_read_mc_configuration, %function
 404              	conf_general_read_mc_configuration:
 405              	.LFB121:
 406              		.loc 1 246 0
 407              		.cfi_startproc
 408              		@ args = 0, pretend = 0, frame = 8
 409              		@ frame_needed = 0, uses_anonymous_args = 0
 410              	.LVL32:
 411 0000 2DE9F04F 		push	{r4, r5, r6, r7, r8, r9, r10, fp, lr}
 412              		.cfi_def_cfa_offset 36
 413              		.cfi_offset 4, -36
 414              		.cfi_offset 5, -32
 415              		.cfi_offset 6, -28
 416              		.cfi_offset 7, -24
 417              		.cfi_offset 8, -20
 418              		.cfi_offset 9, -16
 419              		.cfi_offset 10, -12
 420              		.cfi_offset 11, -8
 421              		.cfi_offset 14, -4
 422 0004 0546     		mov	r5, r0
 423              	.LVL33:
 424 0006 83B0     		sub	sp, sp, #12
 425              		.cfi_def_cfa_offset 48
 426 0008 0646     		mov	r6, r0
 427              	.LBB7:
 428              		.loc 1 251 0
 429 000a 0024     		movs	r4, #0
 430 000c 0BE0     		b	.L29
 431              	.LVL34:
 432              	.L33:
 433              		.loc 1 253 0
 434 000e BDF80630 		ldrh	r3, [sp, #6]
 435 0012 1A0A     		lsrs	r2, r3, #8
 436 0014 05F81420 		strb	r2, [r5, r4, lsl #1]
 437              		.loc 1 251 0
 438 0018 0134     		adds	r4, r4, #1
 439              	.LVL35:
 440 001a 582C     		cmp	r4, #88
 441              		.loc 1 254 0
 442 001c 7370     		strb	r3, [r6, #1]
 443 001e 06F10206 		add	r6, r6, #2
 444              		.loc 1 251 0
 445 0022 00F08880 		beq	.L27
 446              	.LVL36:
 447              	.L29:
 448 0026 04F57A70 		add	r0, r4, #1000
 449              		.loc 1 252 0
 450 002a 80B2     		uxth	r0, r0
 451 002c 0DF10601 		add	r1, sp, #6
 452 0030 FFF7FEFF 		bl	EE_ReadVariable
 453              	.LVL37:
 454 0034 0028     		cmp	r0, #0
 455 0036 EAD0     		beq	.L33
 456              	.LVL38:
ARM GAS  C:\Users\ADMINI~1\AppData\Local\Temp\cclvVomf.s 			page 9


 457              	.LBE7:
 458              		.loc 1 266 0
 459 0038 404B     		ldr	r3, .L34
 460              		.loc 1 280 0
 461 003a 414A     		ldr	r2, .L34+4
 462              		.loc 1 271 0
 463 003c DFF830E1 		ldr	lr, .L34+52
 464              		.loc 1 295 0
 465 0040 DFED407A 		flds	s15, .L34+8
 466              		.loc 1 267 0
 467 0044 4049     		ldr	r1, .L34+12
 468              		.loc 1 279 0
 469 0046 414F     		ldr	r7, .L34+16
 470              		.loc 1 270 0
 471 0048 DFF828A1 		ldr	r10, .L34+56
 472              		.loc 1 272 0
 473 004c DFF82891 		ldr	r9, .L34+60
 474              		.loc 1 273 0
 475 0050 3F4C     		ldr	r4, .L34+20
 476              	.LVL39:
 477              		.loc 1 274 0
 478 0052 4048     		ldr	r0, .L34+24
 479              		.loc 1 276 0
 480 0054 DFF82481 		ldr	r8, .L34+64
 481              		.loc 1 284 0
 482 0058 DFF824C1 		ldr	ip, .L34+68
 483              		.loc 1 266 0
 484 005c 6B60     		str	r3, [r5, #4]	@ float
 485              		.loc 1 268 0
 486 005e EB60     		str	r3, [r5, #12]	@ float
 487              		.loc 1 286 0
 488 0060 EB64     		str	r3, [r5, #76]	@ float
 489              		.loc 1 288 0
 490 0062 6B65     		str	r3, [r5, #84]	@ float
 491              		.loc 1 296 0
 492 0064 DFF81CB1 		ldr	fp, .L34+72
 493              		.loc 1 294 0
 494 0068 3B4B     		ldr	r3, .L34+28
 495              		.loc 1 271 0
 496 006a C5F818E0 		str	lr, [r5, #24]	@ float
 497              		.loc 1 280 0
 498 006e AA63     		str	r2, [r5, #56]	@ float
 499              		.loc 1 297 0
 500 0070 DFF814E1 		ldr	lr, .L34+76
 501              		.loc 1 282 0
 502 0074 2A64     		str	r2, [r5, #64]	@ float
 503              		.loc 1 292 0
 504 0076 9FED397A 		flds	s14, .L34+32
 505              		.loc 1 283 0
 506 007a 394E     		ldr	r6, .L34+36
 507              		.loc 1 267 0
 508 007c A960     		str	r1, [r5, #8]	@ float
 509              		.loc 1 262 0
 510 007e 0122     		movs	r2, #1
 511              		.loc 1 287 0
 512 0080 2965     		str	r1, [r5, #80]	@ float
 513              		.loc 1 270 0
ARM GAS  C:\Users\ADMINI~1\AppData\Local\Temp\cclvVomf.s 			page 10


 514 0082 C5F814A0 		str	r10, [r5, #20]	@ float
 515              		.loc 1 272 0
 516 0086 C5F81C90 		str	r9, [r5, #28]	@ float
 517              		.loc 1 273 0
 518 008a 2C62     		str	r4, [r5, #32]	@ float
 519              		.loc 1 274 0
 520 008c 6862     		str	r0, [r5, #36]	@ float
 521              		.loc 1 304 0
 522 008e 354C     		ldr	r4, .L34+40
 523              		.loc 1 305 0
 524 0090 3548     		ldr	r0, .L34+44
 525              		.loc 1 276 0
 526 0092 C5F82C80 		str	r8, [r5, #44]	@ float
 527              		.loc 1 306 0
 528 0096 0021     		movs	r1, #0
 529              		.loc 1 279 0
 530 0098 6F63     		str	r7, [r5, #52]	@ float
 531              		.loc 1 281 0
 532 009a EF63     		str	r7, [r5, #60]	@ float
 533              		.loc 1 284 0
 534 009c C5F848C0 		str	ip, [r5, #72]	@ float
 535              		.loc 1 294 0
 536 00a0 6B66     		str	r3, [r5, #100]	@ float
 537              		.loc 1 295 0
 538 00a2 C5ED1B7A 		fsts	s15, [r5, #108]
 539              		.loc 1 263 0
 540 00a6 0023     		movs	r3, #0
 541              		.loc 1 269 0
 542 00a8 304F     		ldr	r7, .L34+48
 543              		.loc 1 296 0
 544 00aa C5F870B0 		str	fp, [r5, #112]	@ float
 545              		.loc 1 297 0
 546 00ae C5F874E0 		str	lr, [r5, #116]	@ float
 547              		.loc 1 262 0
 548 00b2 2A70     		strb	r2, [r5]
 549              		.loc 1 277 0
 550 00b4 85F83020 		strb	r2, [r5, #48]
 551              		.loc 1 278 0
 552 00b8 85F83120 		strb	r2, [r5, #49]
 553              		.loc 1 291 0
 554 00bc 85F85C20 		strb	r2, [r5, #92]
 555              		.loc 1 298 0
 556 00c0 DFF8C8A0 		ldr	r10, .L34+80
 557              		.loc 1 307 0
 558 00c4 DFF8C890 		ldr	r9, .L34+84
 559              		.loc 1 315 0
 560 00c8 DFF8C880 		ldr	r8, .L34+88
 561              		.loc 1 316 0
 562 00cc DFF8C8C0 		ldr	ip, .L34+92
 563              		.loc 1 293 0
 564 00d0 DFF8C8B0 		ldr	fp, .L34+96
 565              		.loc 1 283 0
 566 00d4 6E64     		str	r6, [r5, #68]	@ float
 567              		.loc 1 275 0
 568 00d6 F2EE007A 		fconsts	s15, #32
 569              		.loc 1 314 0
 570 00da 4FF07E5E 		mov	lr, #1065353216
ARM GAS  C:\Users\ADMINI~1\AppData\Local\Temp\cclvVomf.s 			page 11


 571              		.loc 1 318 0
 572 00de 40F6B832 		movw	r2, #3000
 573              		.loc 1 292 0
 574 00e2 85ED187A 		fsts	s14, [r5, #96]
 575              		.loc 1 263 0
 576 00e6 6B70     		strb	r3, [r5, #1]
 577              		.loc 1 264 0
 578 00e8 AB70     		strb	r3, [r5, #2]
 579              		.loc 1 269 0
 580 00ea 2F61     		str	r7, [r5, #16]	@ float
 581              		.loc 1 289 0
 582 00ec AF65     		str	r7, [r5, #88]	@ float
 583              		.loc 1 275 0
 584 00ee C5ED0A7A 		fsts	s15, [r5, #40]
 585              		.loc 1 293 0
 586 00f2 C5F868B0 		str	fp, [r5, #104]	@ float
 587              		.loc 1 298 0
 588 00f6 C5F878A0 		str	r10, [r5, #120]	@ float
 589              		.loc 1 313 0
 590 00fa C5F89C60 		str	r6, [r5, #156]	@ float
 591              		.loc 1 300 0
 592 00fe 85F87C30 		strb	r3, [r5, #124]
 593              		.loc 1 301 0
 594 0102 85F87D30 		strb	r3, [r5, #125]
 595              		.loc 1 302 0
 596 0106 85F87E30 		strb	r3, [r5, #126]
 597              		.loc 1 304 0
 598 010a C5F88040 		str	r4, [r5, #128]	@ float
 599              		.loc 1 309 0
 600 010e C5F89040 		str	r4, [r5, #144]	@ float
 601              		.loc 1 305 0
 602 0112 C5F88400 		str	r0, [r5, #132]	@ float
 603              		.loc 1 310 0
 604 0116 C5F89400 		str	r0, [r5, #148]	@ float
 605              		.loc 1 306 0
 606 011a C5F88810 		str	r1, [r5, #136]	@ float
 607              		.loc 1 311 0
 608 011e C5F89810 		str	r1, [r5, #152]	@ float
 609              		.loc 1 307 0
 610 0122 C5F88C90 		str	r9, [r5, #140]	@ float
 611              		.loc 1 315 0
 612 0126 C5F8A480 		str	r8, [r5, #164]	@ float
 613              		.loc 1 316 0
 614 012a C5F8A8C0 		str	ip, [r5, #168]	@ float
 615              		.loc 1 314 0
 616 012e C5F8A0E0 		str	lr, [r5, #160]	@ float
 617              		.loc 1 318 0
 618 0132 C5F8AC20 		str	r2, [r5, #172]
 619              	.LVL40:
 620              	.L27:
 621              		.loc 1 320 0
 622 0136 03B0     		add	sp, sp, #12
 623              		.cfi_def_cfa_offset 36
 624              		@ sp needed
 625 0138 BDE8F08F 		pop	{r4, r5, r6, r7, r8, r9, r10, fp, pc}
 626              	.LVL41:
 627              	.L35:
ARM GAS  C:\Users\ADMINI~1\AppData\Local\Temp\cclvVomf.s 			page 12


 628              		.align	2
 629              	.L34:
 630 013c 00007042 		.word	1114636288
 631 0140 0000C842 		.word	1120403456
 632 0144 00007842 		.word	1115160576
 633 0148 000070C2 		.word	-1032847360
 634 014c 0000A042 		.word	1117782016
 635 0150 00009643 		.word	1133903872
 636 0154 0080BB44 		.word	1153138688
 637 0158 00808944 		.word	1149861888
 638 015c 00001643 		.word	1125515264
 639 0160 0AD7233C 		.word	1008981770
 640 0164 17B7D138 		.word	953267991
 641 0168 6F12033B 		.word	990057071
 642 016c 0000A0C1 		.word	-1046478848
 643 0170 0050C3C7 		.word	-943501312
 644 0174 00000243 		.word	1124204544
 645 0178 0050C347 		.word	1203982336
 646 017c 00004842 		.word	1112014848
 647 0180 3333733F 		.word	1064514355
 648 0184 CDCC4C3F 		.word	1061997773
 649 0188 00409C47 		.word	1201422336
 650 018c 00001644 		.word	1142292480
 651 0190 00006144 		.word	1147207680
 652 0194 99BB963B 		.word	999734169
 653 0198 0AD7233D 		.word	1025758986
 654 019c 00002041 		.word	1092616192
 655              		.cfi_endproc
 656              	.LFE121:
 657              		.size	conf_general_read_mc_configuration, .-conf_general_read_mc_configuration
 658              		.section	.text.conf_general_store_mc_configuration,"ax",%progbits
 659              		.align	2
 660              		.p2align 4,,15
 661              		.global	conf_general_store_mc_configuration
 662              		.thumb
 663              		.thumb_func
 664              		.type	conf_general_store_mc_configuration, %function
 665              	conf_general_store_mc_configuration:
 666              	.LFB122:
 667              		.loc 1 328 0
 668              		.cfi_startproc
 669              		@ args = 0, pretend = 0, frame = 0
 670              		@ frame_needed = 0, uses_anonymous_args = 0
 671              	.LVL42:
 672 0000 70B5     		push	{r4, r5, r6, lr}
 673              		.cfi_def_cfa_offset 16
 674              		.cfi_offset 4, -16
 675              		.cfi_offset 5, -12
 676              		.cfi_offset 6, -8
 677              		.cfi_offset 14, -4
 678              		.loc 1 328 0
 679 0002 0646     		mov	r6, r0
 680              		.loc 1 331 0
 681 0004 FFF7FEFF 		bl	utils_sys_lock_cnt
 682              	.LVL43:
 683              		.loc 1 332 0
 684 0008 4FF40060 		mov	r0, #2048
ARM GAS  C:\Users\ADMINI~1\AppData\Local\Temp\cclvVomf.s 			page 13


 685 000c 0021     		movs	r1, #0
 686 000e FFF7FEFF 		bl	RCC_APB1PeriphClockCmd
 687              	.LVL44:
 688              		.loc 1 338 0
 689 0012 F220     		movs	r0, #242
 690 0014 FFF7FEFF 		bl	FLASH_ClearFlag
 691              	.LVL45:
 692 0018 3546     		mov	r5, r6
 693              	.LBB8:
 694              		.loc 1 341 0
 695 001a 0024     		movs	r4, #0
 696 001c 01E0     		b	.L38
 697              	.LVL46:
 698              	.L43:
 699              		.loc 1 341 0 is_stmt 0 discriminator 2
 700 001e 582C     		cmp	r4, #88
 701 0020 19D0     		beq	.L42
 702              	.LVL47:
 703              	.L38:
 704              		.loc 1 342 0 is_stmt 1
 705 0022 16F81410 		ldrb	r1, [r6, r4, lsl #1]	@ zero_extendqisi2
 706              	.LVL48:
 707              		.loc 1 343 0
 708 0026 6B78     		ldrb	r3, [r5, #1]	@ zero_extendqisi2
 709 0028 04F57A70 		add	r0, r4, #1000
 710              		.loc 1 345 0
 711 002c 43EA0121 		orr	r1, r3, r1, lsl #8
 712              	.LVL49:
 713 0030 80B2     		uxth	r0, r0
 714 0032 FFF7FEFF 		bl	EE_WriteVariable
 715              	.LVL50:
 716 0036 0828     		cmp	r0, #8
 717              		.loc 1 341 0
 718 0038 04F10104 		add	r4, r4, #1
 719              	.LVL51:
 720 003c 05F10205 		add	r5, r5, #2
 721              		.loc 1 345 0
 722 0040 EDD0     		beq	.L43
 723              		.loc 1 346 0
 724 0042 0024     		movs	r4, #0
 725              	.LVL52:
 726              	.L37:
 727              	.LBE8:
 728              		.loc 1 351 0
 729 0044 4FF40060 		mov	r0, #2048
 730 0048 0121     		movs	r1, #1
 731 004a FFF7FEFF 		bl	RCC_APB1PeriphClockCmd
 732              	.LVL53:
 733              		.loc 1 352 0
 734 004e FFF7FEFF 		bl	utils_sys_unlock_cnt
 735              	.LVL54:
 736              		.loc 1 355 0
 737 0052 2046     		mov	r0, r4
 738 0054 70BD     		pop	{r4, r5, r6, pc}
 739              	.LVL55:
 740              	.L42:
 741              		.loc 1 334 0
ARM GAS  C:\Users\ADMINI~1\AppData\Local\Temp\cclvVomf.s 			page 14


 742 0056 0124     		movs	r4, #1
 743              	.LVL56:
 744              	.LBB9:
 745 0058 F4E7     		b	.L37
 746              	.LBE9:
 747              		.cfi_endproc
 748              	.LFE122:
 749              		.size	conf_general_store_mc_configuration, .-conf_general_store_mc_configuration
 750              		.section	.text.conf_general_detect_motor_param,"ax",%progbits
 751              		.align	2
 752              		.p2align 4,,15
 753              		.global	conf_general_detect_motor_param
 754              		.thumb
 755              		.thumb_func
 756              		.type	conf_general_detect_motor_param, %function
 757              	conf_general_detect_motor_param:
 758              	.LFB123:
 759              		.loc 1 358 0
 760              		.cfi_startproc
 761              		@ args = 0, pretend = 0, frame = 0
 762              		@ frame_needed = 0, uses_anonymous_args = 0
 763              		@ link register save eliminated.
 764              	.LVL57:
 765              		.loc 1 451 0
 766 0000 0020     		movs	r0, #0
 767              	.LVL58:
 768 0002 7047     		bx	lr
 769              		.cfi_endproc
 770              	.LFE123:
 771              		.size	conf_general_detect_motor_param, .-conf_general_detect_motor_param
 772              		.global	VirtAddVarTab
 773              		.section	.bss.VirtAddVarTab,"aw",%nobits
 774              		.align	2
 775              		.set	.LANCHOR0,. + 0
 776              		.type	VirtAddVarTab, %object
 777              		.size	VirtAddVarTab, 320
 778              	VirtAddVarTab:
 779 0000 00000000 		.space	320
 779      00000000 
 779      00000000 
 779      00000000 
 779      00000000 
 780              		.text
 781              	.Letext0:
 782              		.file 2 "c:\\program files\\gnu tools arm embedded\\4.9 2015q2\\arm-none-eabi\\include\\machine\\_
 783              		.file 3 "c:\\program files\\gnu tools arm embedded\\4.9 2015q2\\arm-none-eabi\\include\\sys\\_stdi
 784              		.file 4 "datatypes.h"
 785              		.file 5 "ChibiOS_2.6.6/os/hal/platforms/STM32F4xx/stm32f4xx.h"
 786              		.file 6 "ChibiOS_2.6.6/ext/stdperiph_stm32f4/inc/stm32f4xx_flash.h"
 787              		.file 7 "ChibiOS_2.6.6/os/ports/common/ARMCMx/CMSIS/include/core_cm4.h"
 788              		.file 8 "eeprom.h"
 789              		.file 9 "utils.h"
 790              		.file 10 "ChibiOS_2.6.6/ext/stdperiph_stm32f4/inc/stm32f4xx_rcc.h"
 791              		.section	.debug_info,"",%progbits
 792              	.Ldebug_info0:
 793 0000 4B0C0000 		.4byte	0xc4b
 794 0004 0400     		.2byte	0x4
ARM GAS  C:\Users\ADMINI~1\AppData\Local\Temp\cclvVomf.s 			page 15


 795 0006 00000000 		.4byte	.Ldebug_abbrev0
 796 000a 04       		.byte	0x4
 797 000b 01       		.uleb128 0x1
 798 000c 23090000 		.4byte	.LASF185
 799 0010 01       		.byte	0x1
 800 0011 29070000 		.4byte	.LASF186
 801 0015 700B0000 		.4byte	.LASF187
 802 0019 30000000 		.4byte	.Ldebug_ranges0+0x30
 803 001d 00000000 		.4byte	0
 804 0021 00000000 		.4byte	.Ldebug_line0
 805 0025 02       		.uleb128 0x2
 806 0026 CD010000 		.4byte	.LASF0
 807 002a 02       		.byte	0x2
 808 002b 1B       		.byte	0x1b
 809 002c 30000000 		.4byte	0x30
 810 0030 03       		.uleb128 0x3
 811 0031 01       		.byte	0x1
 812 0032 06       		.byte	0x6
 813 0033 A4010000 		.4byte	.LASF2
 814 0037 02       		.uleb128 0x2
 815 0038 66000000 		.4byte	.LASF1
 816 003c 02       		.byte	0x2
 817 003d 1D       		.byte	0x1d
 818 003e 42000000 		.4byte	0x42
 819 0042 03       		.uleb128 0x3
 820 0043 01       		.byte	0x1
 821 0044 08       		.byte	0x8
 822 0045 84070000 		.4byte	.LASF3
 823 0049 03       		.uleb128 0x3
 824 004a 02       		.byte	0x2
 825 004b 05       		.byte	0x5
 826 004c C8070000 		.4byte	.LASF4
 827 0050 02       		.uleb128 0x2
 828 0051 EC080000 		.4byte	.LASF5
 829 0055 02       		.byte	0x2
 830 0056 2B       		.byte	0x2b
 831 0057 5B000000 		.4byte	0x5b
 832 005b 03       		.uleb128 0x3
 833 005c 02       		.byte	0x2
 834 005d 07       		.byte	0x7
 835 005e 84040000 		.4byte	.LASF6
 836 0062 02       		.uleb128 0x2
 837 0063 19090000 		.4byte	.LASF7
 838 0067 02       		.byte	0x2
 839 0068 3F       		.byte	0x3f
 840 0069 6D000000 		.4byte	0x6d
 841 006d 03       		.uleb128 0x3
 842 006e 04       		.byte	0x4
 843 006f 05       		.byte	0x5
 844 0070 12020000 		.4byte	.LASF8
 845 0074 02       		.uleb128 0x2
 846 0075 79030000 		.4byte	.LASF9
 847 0079 02       		.byte	0x2
 848 007a 41       		.byte	0x41
 849 007b 7F000000 		.4byte	0x7f
 850 007f 03       		.uleb128 0x3
 851 0080 04       		.byte	0x4
ARM GAS  C:\Users\ADMINI~1\AppData\Local\Temp\cclvVomf.s 			page 16


 852 0081 07       		.byte	0x7
 853 0082 2B040000 		.4byte	.LASF10
 854 0086 03       		.uleb128 0x3
 855 0087 08       		.byte	0x8
 856 0088 05       		.byte	0x5
 857 0089 96010000 		.4byte	.LASF11
 858 008d 03       		.uleb128 0x3
 859 008e 08       		.byte	0x8
 860 008f 07       		.byte	0x7
 861 0090 BE000000 		.4byte	.LASF12
 862 0094 04       		.uleb128 0x4
 863 0095 04       		.byte	0x4
 864 0096 05       		.byte	0x5
 865 0097 696E7400 		.ascii	"int\000"
 866 009b 03       		.uleb128 0x3
 867 009c 04       		.byte	0x4
 868 009d 07       		.byte	0x7
 869 009e 57020000 		.4byte	.LASF13
 870 00a2 02       		.uleb128 0x2
 871 00a3 9E0A0000 		.4byte	.LASF14
 872 00a7 03       		.byte	0x3
 873 00a8 13       		.byte	0x13
 874 00a9 25000000 		.4byte	0x25
 875 00ad 02       		.uleb128 0x2
 876 00ae AA0B0000 		.4byte	.LASF15
 877 00b2 03       		.byte	0x3
 878 00b3 14       		.byte	0x14
 879 00b4 37000000 		.4byte	0x37
 880 00b8 02       		.uleb128 0x2
 881 00b9 A7020000 		.4byte	.LASF16
 882 00bd 03       		.byte	0x3
 883 00be 1A       		.byte	0x1a
 884 00bf 50000000 		.4byte	0x50
 885 00c3 02       		.uleb128 0x2
 886 00c4 90050000 		.4byte	.LASF17
 887 00c8 03       		.byte	0x3
 888 00c9 1F       		.byte	0x1f
 889 00ca 62000000 		.4byte	0x62
 890 00ce 02       		.uleb128 0x2
 891 00cf FB0A0000 		.4byte	.LASF18
 892 00d3 03       		.byte	0x3
 893 00d4 20       		.byte	0x20
 894 00d5 74000000 		.4byte	0x74
 895 00d9 03       		.uleb128 0x3
 896 00da 01       		.byte	0x1
 897 00db 02       		.byte	0x2
 898 00dc 74070000 		.4byte	.LASF19
 899 00e0 05       		.uleb128 0x5
 900 00e1 04       		.byte	0x4
 901 00e2 03       		.uleb128 0x3
 902 00e3 04       		.byte	0x4
 903 00e4 07       		.byte	0x7
 904 00e5 98050000 		.4byte	.LASF20
 905 00e9 03       		.uleb128 0x3
 906 00ea 01       		.byte	0x1
 907 00eb 08       		.byte	0x8
 908 00ec B5080000 		.4byte	.LASF21
ARM GAS  C:\Users\ADMINI~1\AppData\Local\Temp\cclvVomf.s 			page 17


 909 00f0 06       		.uleb128 0x6
 910 00f1 04       		.byte	0x4
 911 00f2 AD000000 		.4byte	0xad
 912 00f6 07       		.uleb128 0x7
 913 00f7 01       		.byte	0x1
 914 00f8 04       		.byte	0x4
 915 00f9 2A       		.byte	0x2a
 916 00fa 11010000 		.4byte	0x111
 917 00fe 08       		.uleb128 0x8
 918 00ff 00000000 		.4byte	.LASF22
 919 0103 00       		.sleb128 0
 920 0104 08       		.uleb128 0x8
 921 0105 16040000 		.4byte	.LASF23
 922 0109 01       		.sleb128 1
 923 010a 08       		.uleb128 0x8
 924 010b 1C050000 		.4byte	.LASF24
 925 010f 02       		.sleb128 2
 926 0110 00       		.byte	0
 927 0111 02       		.uleb128 0x2
 928 0112 B0050000 		.4byte	.LASF25
 929 0116 04       		.byte	0x4
 930 0117 2E       		.byte	0x2e
 931 0118 F6000000 		.4byte	0xf6
 932 011c 07       		.uleb128 0x7
 933 011d 01       		.byte	0x1
 934 011e 04       		.byte	0x4
 935 011f 30       		.byte	0x30
 936 0120 31010000 		.4byte	0x131
 937 0124 08       		.uleb128 0x8
 938 0125 0F010000 		.4byte	.LASF26
 939 0129 00       		.sleb128 0
 940 012a 08       		.uleb128 0x8
 941 012b 3D040000 		.4byte	.LASF27
 942 012f 01       		.sleb128 1
 943 0130 00       		.byte	0
 944 0131 02       		.uleb128 0x2
 945 0132 0C060000 		.4byte	.LASF28
 946 0136 04       		.byte	0x4
 947 0137 33       		.byte	0x33
 948 0138 1C010000 		.4byte	0x11c
 949 013c 07       		.uleb128 0x7
 950 013d 01       		.byte	0x1
 951 013e 04       		.byte	0x4
 952 013f 35       		.byte	0x35
 953 0140 51010000 		.4byte	0x151
 954 0144 08       		.uleb128 0x8
 955 0145 D00B0000 		.4byte	.LASF29
 956 0149 00       		.sleb128 0
 957 014a 08       		.uleb128 0x8
 958 014b 8D060000 		.4byte	.LASF30
 959 014f 01       		.sleb128 1
 960 0150 00       		.byte	0
 961 0151 02       		.uleb128 0x2
 962 0152 DC020000 		.4byte	.LASF31
 963 0156 04       		.byte	0x4
 964 0157 38       		.byte	0x38
 965 0158 3C010000 		.4byte	0x13c
ARM GAS  C:\Users\ADMINI~1\AppData\Local\Temp\cclvVomf.s 			page 18


 966 015c 03       		.uleb128 0x3
 967 015d 04       		.byte	0x4
 968 015e 04       		.byte	0x4
 969 015f E1060000 		.4byte	.LASF32
 970 0163 09       		.uleb128 0x9
 971 0164 B0       		.byte	0xb0
 972 0165 04       		.byte	0x4
 973 0166 57       		.byte	0x57
 974 0167 B8030000 		.4byte	0x3b8
 975 016b 0A       		.uleb128 0xa
 976 016c 4D000000 		.4byte	.LASF33
 977 0170 04       		.byte	0x4
 978 0171 59       		.byte	0x59
 979 0172 11010000 		.4byte	0x111
 980 0176 00       		.byte	0
 981 0177 0A       		.uleb128 0xa
 982 0178 03050000 		.4byte	.LASF34
 983 017c 04       		.byte	0x4
 984 017d 5A       		.byte	0x5a
 985 017e 31010000 		.4byte	0x131
 986 0182 01       		.byte	0x1
 987 0183 0A       		.uleb128 0xa
 988 0184 38070000 		.4byte	.LASF35
 989 0188 04       		.byte	0x4
 990 0189 5B       		.byte	0x5b
 991 018a 51010000 		.4byte	0x151
 992 018e 02       		.byte	0x2
 993 018f 0A       		.uleb128 0xa
 994 0190 6F020000 		.4byte	.LASF36
 995 0194 04       		.byte	0x4
 996 0195 5D       		.byte	0x5d
 997 0196 5C010000 		.4byte	0x15c
 998 019a 04       		.byte	0x4
 999 019b 0A       		.uleb128 0xa
 1000 019c 360B0000 		.4byte	.LASF37
 1001 01a0 04       		.byte	0x4
 1002 01a1 5E       		.byte	0x5e
 1003 01a2 5C010000 		.4byte	0x15c
 1004 01a6 08       		.byte	0x8
 1005 01a7 0A       		.uleb128 0xa
 1006 01a8 BC050000 		.4byte	.LASF38
 1007 01ac 04       		.byte	0x4
 1008 01ad 5F       		.byte	0x5f
 1009 01ae 5C010000 		.4byte	0x15c
 1010 01b2 0C       		.byte	0xc
 1011 01b3 0A       		.uleb128 0xa
 1012 01b4 C2020000 		.4byte	.LASF39
 1013 01b8 04       		.byte	0x4
 1014 01b9 60       		.byte	0x60
 1015 01ba 5C010000 		.4byte	0x15c
 1016 01be 10       		.byte	0x10
 1017 01bf 0A       		.uleb128 0xa
 1018 01c0 8C0A0000 		.4byte	.LASF40
 1019 01c4 04       		.byte	0x4
 1020 01c5 61       		.byte	0x61
 1021 01c6 5C010000 		.4byte	0x15c
 1022 01ca 14       		.byte	0x14
ARM GAS  C:\Users\ADMINI~1\AppData\Local\Temp\cclvVomf.s 			page 19


 1023 01cb 0A       		.uleb128 0xa
 1024 01cc E8000000 		.4byte	.LASF41
 1025 01d0 04       		.byte	0x4
 1026 01d1 62       		.byte	0x62
 1027 01d2 5C010000 		.4byte	0x15c
 1028 01d6 18       		.byte	0x18
 1029 01d7 0A       		.uleb128 0xa
 1030 01d8 04010000 		.4byte	.LASF42
 1031 01dc 04       		.byte	0x4
 1032 01dd 63       		.byte	0x63
 1033 01de 5C010000 		.4byte	0x15c
 1034 01e2 1C       		.byte	0x1c
 1035 01e3 0A       		.uleb128 0xa
 1036 01e4 74050000 		.4byte	.LASF43
 1037 01e8 04       		.byte	0x4
 1038 01e9 64       		.byte	0x64
 1039 01ea 5C010000 		.4byte	0x15c
 1040 01ee 20       		.byte	0x20
 1041 01ef 0A       		.uleb128 0xa
 1042 01f0 D5030000 		.4byte	.LASF44
 1043 01f4 04       		.byte	0x4
 1044 01f5 65       		.byte	0x65
 1045 01f6 5C010000 		.4byte	0x15c
 1046 01fa 24       		.byte	0x24
 1047 01fb 0A       		.uleb128 0xa
 1048 01fc FA060000 		.4byte	.LASF45
 1049 0200 04       		.byte	0x4
 1050 0201 66       		.byte	0x66
 1051 0202 5C010000 		.4byte	0x15c
 1052 0206 28       		.byte	0x28
 1053 0207 0A       		.uleb128 0xa
 1054 0208 2D080000 		.4byte	.LASF46
 1055 020c 04       		.byte	0x4
 1056 020d 67       		.byte	0x67
 1057 020e 5C010000 		.4byte	0x15c
 1058 0212 2C       		.byte	0x2c
 1059 0213 0A       		.uleb128 0xa
 1060 0214 F0040000 		.4byte	.LASF47
 1061 0218 04       		.byte	0x4
 1062 0219 68       		.byte	0x68
 1063 021a D9000000 		.4byte	0xd9
 1064 021e 30       		.byte	0x30
 1065 021f 0A       		.uleb128 0xa
 1066 0220 F2030000 		.4byte	.LASF48
 1067 0224 04       		.byte	0x4
 1068 0225 69       		.byte	0x69
 1069 0226 D9000000 		.4byte	0xd9
 1070 022a 31       		.byte	0x31
 1071 022b 0A       		.uleb128 0xa
 1072 022c DA050000 		.4byte	.LASF49
 1073 0230 04       		.byte	0x4
 1074 0231 6A       		.byte	0x6a
 1075 0232 5C010000 		.4byte	0x15c
 1076 0236 34       		.byte	0x34
 1077 0237 0A       		.uleb128 0xa
 1078 0238 490C0000 		.4byte	.LASF50
 1079 023c 04       		.byte	0x4
ARM GAS  C:\Users\ADMINI~1\AppData\Local\Temp\cclvVomf.s 			page 20


 1080 023d 6B       		.byte	0x6b
 1081 023e 5C010000 		.4byte	0x15c
 1082 0242 38       		.byte	0x38
 1083 0243 0A       		.uleb128 0xa
 1084 0244 E7060000 		.4byte	.LASF51
 1085 0248 04       		.byte	0x4
 1086 0249 6C       		.byte	0x6c
 1087 024a 5C010000 		.4byte	0x15c
 1088 024e 3C       		.byte	0x3c
 1089 024f 0A       		.uleb128 0xa
 1090 0250 55080000 		.4byte	.LASF52
 1091 0254 04       		.byte	0x4
 1092 0255 6D       		.byte	0x6d
 1093 0256 5C010000 		.4byte	0x15c
 1094 025a 40       		.byte	0x40
 1095 025b 0A       		.uleb128 0xa
 1096 025c 64020000 		.4byte	.LASF53
 1097 0260 04       		.byte	0x4
 1098 0261 6E       		.byte	0x6e
 1099 0262 5C010000 		.4byte	0x15c
 1100 0266 44       		.byte	0x44
 1101 0267 0A       		.uleb128 0xa
 1102 0268 9C020000 		.4byte	.LASF54
 1103 026c 04       		.byte	0x4
 1104 026d 6F       		.byte	0x6f
 1105 026e 5C010000 		.4byte	0x15c
 1106 0272 48       		.byte	0x48
 1107 0273 0A       		.uleb128 0xa
 1108 0274 07040000 		.4byte	.LASF55
 1109 0278 04       		.byte	0x4
 1110 0279 71       		.byte	0x71
 1111 027a 5C010000 		.4byte	0x15c
 1112 027e 4C       		.byte	0x4c
 1113 027f 0A       		.uleb128 0xa
 1114 0280 4D040000 		.4byte	.LASF56
 1115 0284 04       		.byte	0x4
 1116 0285 72       		.byte	0x72
 1117 0286 5C010000 		.4byte	0x15c
 1118 028a 50       		.byte	0x50
 1119 028b 0A       		.uleb128 0xa
 1120 028c B0020000 		.4byte	.LASF57
 1121 0290 04       		.byte	0x4
 1122 0291 73       		.byte	0x73
 1123 0292 5C010000 		.4byte	0x15c
 1124 0296 54       		.byte	0x54
 1125 0297 0A       		.uleb128 0xa
 1126 0298 2E000000 		.4byte	.LASF58
 1127 029c 04       		.byte	0x4
 1128 029d 74       		.byte	0x74
 1129 029e 5C010000 		.4byte	0x15c
 1130 02a2 58       		.byte	0x58
 1131 02a3 0A       		.uleb128 0xa
 1132 02a4 37080000 		.4byte	.LASF59
 1133 02a8 04       		.byte	0x4
 1134 02a9 76       		.byte	0x76
 1135 02aa D9000000 		.4byte	0xd9
 1136 02ae 5C       		.byte	0x5c
ARM GAS  C:\Users\ADMINI~1\AppData\Local\Temp\cclvVomf.s 			page 21


 1137 02af 0A       		.uleb128 0xa
 1138 02b0 91030000 		.4byte	.LASF60
 1139 02b4 04       		.byte	0x4
 1140 02b5 77       		.byte	0x77
 1141 02b6 5C010000 		.4byte	0x15c
 1142 02ba 60       		.byte	0x60
 1143 02bb 0A       		.uleb128 0xa
 1144 02bc F3070000 		.4byte	.LASF61
 1145 02c0 04       		.byte	0x4
 1146 02c1 78       		.byte	0x78
 1147 02c2 5C010000 		.4byte	0x15c
 1148 02c6 64       		.byte	0x64
 1149 02c7 0A       		.uleb128 0xa
 1150 02c8 5C010000 		.4byte	.LASF62
 1151 02cc 04       		.byte	0x4
 1152 02cd 79       		.byte	0x79
 1153 02ce 5C010000 		.4byte	0x15c
 1154 02d2 68       		.byte	0x68
 1155 02d3 0A       		.uleb128 0xa
 1156 02d4 580C0000 		.4byte	.LASF63
 1157 02d8 04       		.byte	0x4
 1158 02d9 7A       		.byte	0x7a
 1159 02da 5C010000 		.4byte	0x15c
 1160 02de 6C       		.byte	0x6c
 1161 02df 0A       		.uleb128 0xa
 1162 02e0 30010000 		.4byte	.LASF64
 1163 02e4 04       		.byte	0x4
 1164 02e5 7B       		.byte	0x7b
 1165 02e6 5C010000 		.4byte	0x15c
 1166 02ea 70       		.byte	0x70
 1167 02eb 0A       		.uleb128 0xa
 1168 02ec 04070000 		.4byte	.LASF65
 1169 02f0 04       		.byte	0x4
 1170 02f1 7C       		.byte	0x7c
 1171 02f2 5C010000 		.4byte	0x15c
 1172 02f6 74       		.byte	0x74
 1173 02f7 0A       		.uleb128 0xa
 1174 02f8 D5000000 		.4byte	.LASF66
 1175 02fc 04       		.byte	0x4
 1176 02fd 7D       		.byte	0x7d
 1177 02fe 5C010000 		.4byte	0x15c
 1178 0302 78       		.byte	0x78
 1179 0303 0A       		.uleb128 0xa
 1180 0304 53010000 		.4byte	.LASF67
 1181 0308 04       		.byte	0x4
 1182 0309 7F       		.byte	0x7f
 1183 030a A2000000 		.4byte	0xa2
 1184 030e 7C       		.byte	0x7c
 1185 030f 0A       		.uleb128 0xa
 1186 0310 40000000 		.4byte	.LASF68
 1187 0314 04       		.byte	0x4
 1188 0315 80       		.byte	0x80
 1189 0316 A2000000 		.4byte	0xa2
 1190 031a 7D       		.byte	0x7d
 1191 031b 0A       		.uleb128 0xa
 1192 031c 7F0A0000 		.4byte	.LASF69
 1193 0320 04       		.byte	0x4
ARM GAS  C:\Users\ADMINI~1\AppData\Local\Temp\cclvVomf.s 			page 22


 1194 0321 81       		.byte	0x81
 1195 0322 A2000000 		.4byte	0xa2
 1196 0326 7E       		.byte	0x7e
 1197 0327 0A       		.uleb128 0xa
 1198 0328 47030000 		.4byte	.LASF70
 1199 032c 04       		.byte	0x4
 1200 032d 83       		.byte	0x83
 1201 032e 5C010000 		.4byte	0x15c
 1202 0332 80       		.byte	0x80
 1203 0333 0A       		.uleb128 0xa
 1204 0334 A10B0000 		.4byte	.LASF71
 1205 0338 04       		.byte	0x4
 1206 0339 84       		.byte	0x84
 1207 033a 5C010000 		.4byte	0x15c
 1208 033e 84       		.byte	0x84
 1209 033f 0A       		.uleb128 0xa
 1210 0340 D3020000 		.4byte	.LASF72
 1211 0344 04       		.byte	0x4
 1212 0345 85       		.byte	0x85
 1213 0346 5C010000 		.4byte	0x15c
 1214 034a 88       		.byte	0x88
 1215 034b 0A       		.uleb128 0xa
 1216 034c 64040000 		.4byte	.LASF73
 1217 0350 04       		.byte	0x4
 1218 0351 86       		.byte	0x86
 1219 0352 5C010000 		.4byte	0x15c
 1220 0356 8C       		.byte	0x8c
 1221 0357 0A       		.uleb128 0xa
 1222 0358 D6010000 		.4byte	.LASF74
 1223 035c 04       		.byte	0x4
 1224 035d 88       		.byte	0x88
 1225 035e 5C010000 		.4byte	0x15c
 1226 0362 90       		.byte	0x90
 1227 0363 0A       		.uleb128 0xa
 1228 0364 B9010000 		.4byte	.LASF75
 1229 0368 04       		.byte	0x4
 1230 0369 89       		.byte	0x89
 1231 036a 5C010000 		.4byte	0x15c
 1232 036e 94       		.byte	0x94
 1233 036f 0A       		.uleb128 0xa
 1234 0370 B0010000 		.4byte	.LASF76
 1235 0374 04       		.byte	0x4
 1236 0375 8A       		.byte	0x8a
 1237 0376 5C010000 		.4byte	0x15c
 1238 037a 98       		.byte	0x98
 1239 037b 0A       		.uleb128 0xa
 1240 037c 19060000 		.4byte	.LASF77
 1241 0380 04       		.byte	0x4
 1242 0381 8C       		.byte	0x8c
 1243 0382 5C010000 		.4byte	0x15c
 1244 0386 9C       		.byte	0x9c
 1245 0387 0A       		.uleb128 0xa
 1246 0388 3A060000 		.4byte	.LASF78
 1247 038c 04       		.byte	0x4
 1248 038d 8D       		.byte	0x8d
 1249 038e 5C010000 		.4byte	0x15c
 1250 0392 A0       		.byte	0xa0
ARM GAS  C:\Users\ADMINI~1\AppData\Local\Temp\cclvVomf.s 			page 23


 1251 0393 0A       		.uleb128 0xa
 1252 0394 990B0000 		.4byte	.LASF79
 1253 0398 04       		.byte	0x4
 1254 0399 8E       		.byte	0x8e
 1255 039a 5C010000 		.4byte	0x15c
 1256 039e A4       		.byte	0xa4
 1257 039f 0A       		.uleb128 0xa
 1258 03a0 92070000 		.4byte	.LASF80
 1259 03a4 04       		.byte	0x4
 1260 03a5 8F       		.byte	0x8f
 1261 03a6 5C010000 		.4byte	0x15c
 1262 03aa A8       		.byte	0xa8
 1263 03ab 0A       		.uleb128 0xa
 1264 03ac F7080000 		.4byte	.LASF81
 1265 03b0 04       		.byte	0x4
 1266 03b1 91       		.byte	0x91
 1267 03b2 C3000000 		.4byte	0xc3
 1268 03b6 AC       		.byte	0xac
 1269 03b7 00       		.byte	0
 1270 03b8 02       		.uleb128 0x2
 1271 03b9 F3000000 		.4byte	.LASF82
 1272 03bd 04       		.byte	0x4
 1273 03be 92       		.byte	0x92
 1274 03bf 63010000 		.4byte	0x163
 1275 03c3 07       		.uleb128 0x7
 1276 03c4 01       		.byte	0x1
 1277 03c5 04       		.byte	0x4
 1278 03c6 95       		.byte	0x95
 1279 03c7 02040000 		.4byte	0x402
 1280 03cb 08       		.uleb128 0x8
 1281 03cc AC080000 		.4byte	.LASF83
 1282 03d0 00       		.sleb128 0
 1283 03d1 08       		.uleb128 0x8
 1284 03d2 5D0A0000 		.4byte	.LASF84
 1285 03d6 01       		.sleb128 1
 1286 03d7 08       		.uleb128 0x8
 1287 03d8 F80B0000 		.4byte	.LASF85
 1288 03dc 02       		.sleb128 2
 1289 03dd 08       		.uleb128 0x8
 1290 03de 88000000 		.4byte	.LASF86
 1291 03e2 03       		.sleb128 3
 1292 03e3 08       		.uleb128 0x8
 1293 03e4 000C0000 		.4byte	.LASF87
 1294 03e8 04       		.sleb128 4
 1295 03e9 08       		.uleb128 0x8
 1296 03ea 6E060000 		.4byte	.LASF88
 1297 03ee 05       		.sleb128 5
 1298 03ef 08       		.uleb128 0x8
 1299 03f0 9D030000 		.4byte	.LASF89
 1300 03f4 06       		.sleb128 6
 1301 03f5 08       		.uleb128 0x8
 1302 03f6 3B050000 		.4byte	.LASF90
 1303 03fa 07       		.sleb128 7
 1304 03fb 08       		.uleb128 0x8
 1305 03fc 2F060000 		.4byte	.LASF91
 1306 0400 08       		.sleb128 8
 1307 0401 00       		.byte	0
ARM GAS  C:\Users\ADMINI~1\AppData\Local\Temp\cclvVomf.s 			page 24


 1308 0402 02       		.uleb128 0x2
 1309 0403 BD0B0000 		.4byte	.LASF92
 1310 0407 04       		.byte	0x4
 1311 0408 9F       		.byte	0x9f
 1312 0409 C3030000 		.4byte	0x3c3
 1313 040d 07       		.uleb128 0x7
 1314 040e 01       		.byte	0x1
 1315 040f 04       		.byte	0x4
 1316 0410 A2       		.byte	0xa2
 1317 0411 46040000 		.4byte	0x446
 1318 0415 08       		.uleb128 0x8
 1319 0416 F9050000 		.4byte	.LASF93
 1320 041a 00       		.sleb128 0
 1321 041b 08       		.uleb128 0x8
 1322 041c 940C0000 		.4byte	.LASF94
 1323 0420 01       		.sleb128 1
 1324 0421 08       		.uleb128 0x8
 1325 0422 540B0000 		.4byte	.LASF95
 1326 0426 02       		.sleb128 2
 1327 0427 08       		.uleb128 0x8
 1328 0428 FC020000 		.4byte	.LASF96
 1329 042c 03       		.sleb128 3
 1330 042d 08       		.uleb128 0x8
 1331 042e 5A050000 		.4byte	.LASF97
 1332 0432 04       		.sleb128 4
 1333 0433 08       		.uleb128 0x8
 1334 0434 D7040000 		.4byte	.LASF98
 1335 0438 05       		.sleb128 5
 1336 0439 08       		.uleb128 0x8
 1337 043a 0F080000 		.4byte	.LASF99
 1338 043e 06       		.sleb128 6
 1339 043f 08       		.uleb128 0x8
 1340 0440 84020000 		.4byte	.LASF100
 1341 0444 07       		.sleb128 7
 1342 0445 00       		.byte	0
 1343 0446 02       		.uleb128 0x2
 1344 0447 18070000 		.4byte	.LASF101
 1345 044b 04       		.byte	0x4
 1346 044c AB       		.byte	0xab
 1347 044d 0D040000 		.4byte	0x40d
 1348 0451 09       		.uleb128 0x9
 1349 0452 28       		.byte	0x28
 1350 0453 04       		.byte	0x4
 1351 0454 AD       		.byte	0xad
 1352 0455 E9040000 		.4byte	0x4e9
 1353 0459 0A       		.uleb128 0xa
 1354 045a 70000000 		.4byte	.LASF102
 1355 045e 04       		.byte	0x4
 1356 045f AE       		.byte	0xae
 1357 0460 46040000 		.4byte	0x446
 1358 0464 00       		.byte	0
 1359 0465 0A       		.uleb128 0xa
 1360 0466 CD050000 		.4byte	.LASF103
 1361 046a 04       		.byte	0x4
 1362 046b AF       		.byte	0xaf
 1363 046c 5C010000 		.4byte	0x15c
 1364 0470 04       		.byte	0x4
ARM GAS  C:\Users\ADMINI~1\AppData\Local\Temp\cclvVomf.s 			page 25


 1365 0471 0A       		.uleb128 0xa
 1366 0472 AB050000 		.4byte	.LASF104
 1367 0476 04       		.byte	0x4
 1368 0477 B0       		.byte	0xb0
 1369 0478 5C010000 		.4byte	0x15c
 1370 047c 08       		.byte	0x8
 1371 047d 0A       		.uleb128 0xa
 1372 047e 21080000 		.4byte	.LASF105
 1373 0482 04       		.byte	0x4
 1374 0483 B1       		.byte	0xb1
 1375 0484 5C010000 		.4byte	0x15c
 1376 0488 0C       		.byte	0xc
 1377 0489 0A       		.uleb128 0xa
 1378 048a 86050000 		.4byte	.LASF106
 1379 048e 04       		.byte	0x4
 1380 048f B2       		.byte	0xb2
 1381 0490 5C010000 		.4byte	0x15c
 1382 0494 10       		.byte	0x10
 1383 0495 0A       		.uleb128 0xa
 1384 0496 BA070000 		.4byte	.LASF107
 1385 049a 04       		.byte	0x4
 1386 049b B3       		.byte	0xb3
 1387 049c D9000000 		.4byte	0xd9
 1388 04a0 14       		.byte	0x14
 1389 04a1 0A       		.uleb128 0xa
 1390 04a2 B20B0000 		.4byte	.LASF108
 1391 04a6 04       		.byte	0x4
 1392 04a7 B4       		.byte	0xb4
 1393 04a8 D9000000 		.4byte	0xd9
 1394 04ac 15       		.byte	0x15
 1395 04ad 0A       		.uleb128 0xa
 1396 04ae AF060000 		.4byte	.LASF109
 1397 04b2 04       		.byte	0x4
 1398 04b3 B5       		.byte	0xb5
 1399 04b4 5C010000 		.4byte	0x15c
 1400 04b8 18       		.byte	0x18
 1401 04b9 0A       		.uleb128 0xa
 1402 04ba 4E050000 		.4byte	.LASF110
 1403 04be 04       		.byte	0x4
 1404 04bf B6       		.byte	0xb6
 1405 04c0 5C010000 		.4byte	0x15c
 1406 04c4 1C       		.byte	0x1c
 1407 04c5 0A       		.uleb128 0xa
 1408 04c6 7A070000 		.4byte	.LASF111
 1409 04ca 04       		.byte	0x4
 1410 04cb B7       		.byte	0xb7
 1411 04cc D9000000 		.4byte	0xd9
 1412 04d0 20       		.byte	0x20
 1413 04d1 0B       		.uleb128 0xb
 1414 04d2 746300   		.ascii	"tc\000"
 1415 04d5 04       		.byte	0x4
 1416 04d6 B8       		.byte	0xb8
 1417 04d7 D9000000 		.4byte	0xd9
 1418 04db 21       		.byte	0x21
 1419 04dc 0A       		.uleb128 0xa
 1420 04dd 47010000 		.4byte	.LASF112
 1421 04e1 04       		.byte	0x4
ARM GAS  C:\Users\ADMINI~1\AppData\Local\Temp\cclvVomf.s 			page 26


 1422 04e2 B9       		.byte	0xb9
 1423 04e3 5C010000 		.4byte	0x15c
 1424 04e7 24       		.byte	0x24
 1425 04e8 00       		.byte	0
 1426 04e9 02       		.uleb128 0x2
 1427 04ea 1E030000 		.4byte	.LASF113
 1428 04ee 04       		.byte	0x4
 1429 04ef BA       		.byte	0xba
 1430 04f0 51040000 		.4byte	0x451
 1431 04f4 07       		.uleb128 0x7
 1432 04f5 01       		.byte	0x1
 1433 04f6 04       		.byte	0x4
 1434 04f7 BD       		.byte	0xbd
 1435 04f8 33050000 		.4byte	0x533
 1436 04fc 08       		.uleb128 0x8
 1437 04fd 1B020000 		.4byte	.LASF114
 1438 0501 00       		.sleb128 0
 1439 0502 08       		.uleb128 0x8
 1440 0503 470A0000 		.4byte	.LASF115
 1441 0507 01       		.sleb128 1
 1442 0508 08       		.uleb128 0x8
 1443 0509 D2070000 		.4byte	.LASF116
 1444 050d 02       		.sleb128 2
 1445 050e 08       		.uleb128 0x8
 1446 050f 53070000 		.4byte	.LASF117
 1447 0513 03       		.sleb128 3
 1448 0514 08       		.uleb128 0x8
 1449 0515 6B0C0000 		.4byte	.LASF118
 1450 0519 04       		.sleb128 4
 1451 051a 08       		.uleb128 0x8
 1452 051b 50030000 		.4byte	.LASF119
 1453 051f 05       		.sleb128 5
 1454 0520 08       		.uleb128 0x8
 1455 0521 44020000 		.4byte	.LASF120
 1456 0525 06       		.sleb128 6
 1457 0526 08       		.uleb128 0x8
 1458 0527 29030000 		.4byte	.LASF121
 1459 052b 07       		.sleb128 7
 1460 052c 08       		.uleb128 0x8
 1461 052d A50A0000 		.4byte	.LASF122
 1462 0531 08       		.sleb128 8
 1463 0532 00       		.byte	0
 1464 0533 02       		.uleb128 0x2
 1465 0534 91000000 		.4byte	.LASF123
 1466 0538 04       		.byte	0x4
 1467 0539 C7       		.byte	0xc7
 1468 053a F4040000 		.4byte	0x4f4
 1469 053e 09       		.uleb128 0x9
 1470 053f 28       		.byte	0x28
 1471 0540 04       		.byte	0x4
 1472 0541 C9       		.byte	0xc9
 1473 0542 EE050000 		.4byte	0x5ee
 1474 0546 0A       		.uleb128 0xa
 1475 0547 70000000 		.4byte	.LASF102
 1476 054b 04       		.byte	0x4
 1477 054c CA       		.byte	0xca
 1478 054d 33050000 		.4byte	0x533
ARM GAS  C:\Users\ADMINI~1\AppData\Local\Temp\cclvVomf.s 			page 27


 1479 0551 00       		.byte	0
 1480 0552 0A       		.uleb128 0xa
 1481 0553 AB050000 		.4byte	.LASF104
 1482 0557 04       		.byte	0x4
 1483 0558 CB       		.byte	0xcb
 1484 0559 5C010000 		.4byte	0x15c
 1485 055d 04       		.byte	0x4
 1486 055e 0A       		.uleb128 0xa
 1487 055f A2000000 		.4byte	.LASF124
 1488 0563 04       		.byte	0x4
 1489 0564 CC       		.byte	0xcc
 1490 0565 5C010000 		.4byte	0x15c
 1491 0569 08       		.byte	0x8
 1492 056a 0A       		.uleb128 0xa
 1493 056b AB040000 		.4byte	.LASF125
 1494 056f 04       		.byte	0x4
 1495 0570 CD       		.byte	0xcd
 1496 0571 5C010000 		.4byte	0x15c
 1497 0575 0C       		.byte	0xc
 1498 0576 0A       		.uleb128 0xa
 1499 0577 C50B0000 		.4byte	.LASF126
 1500 057b 04       		.byte	0x4
 1501 057c CE       		.byte	0xce
 1502 057d D9000000 		.4byte	0xd9
 1503 0581 10       		.byte	0x10
 1504 0582 0A       		.uleb128 0xa
 1505 0583 B20B0000 		.4byte	.LASF108
 1506 0587 04       		.byte	0x4
 1507 0588 CF       		.byte	0xcf
 1508 0589 D9000000 		.4byte	0xd9
 1509 058d 11       		.byte	0x11
 1510 058e 0A       		.uleb128 0xa
 1511 058f 89080000 		.4byte	.LASF127
 1512 0593 04       		.byte	0x4
 1513 0594 D0       		.byte	0xd0
 1514 0595 D9000000 		.4byte	0xd9
 1515 0599 12       		.byte	0x12
 1516 059a 0A       		.uleb128 0xa
 1517 059b 1D000000 		.4byte	.LASF128
 1518 059f 04       		.byte	0x4
 1519 05a0 D1       		.byte	0xd1
 1520 05a1 D9000000 		.4byte	0xd9
 1521 05a5 13       		.byte	0x13
 1522 05a6 0A       		.uleb128 0xa
 1523 05a7 AF060000 		.4byte	.LASF109
 1524 05ab 04       		.byte	0x4
 1525 05ac D2       		.byte	0xd2
 1526 05ad 5C010000 		.4byte	0x15c
 1527 05b1 14       		.byte	0x14
 1528 05b2 0A       		.uleb128 0xa
 1529 05b3 4E050000 		.4byte	.LASF110
 1530 05b7 04       		.byte	0x4
 1531 05b8 D3       		.byte	0xd3
 1532 05b9 5C010000 		.4byte	0x15c
 1533 05bd 18       		.byte	0x18
 1534 05be 0A       		.uleb128 0xa
 1535 05bf 7A070000 		.4byte	.LASF111
ARM GAS  C:\Users\ADMINI~1\AppData\Local\Temp\cclvVomf.s 			page 28


 1536 05c3 04       		.byte	0x4
 1537 05c4 D4       		.byte	0xd4
 1538 05c5 D9000000 		.4byte	0xd9
 1539 05c9 1C       		.byte	0x1c
 1540 05ca 0B       		.uleb128 0xb
 1541 05cb 746300   		.ascii	"tc\000"
 1542 05ce 04       		.byte	0x4
 1543 05cf D5       		.byte	0xd5
 1544 05d0 D9000000 		.4byte	0xd9
 1545 05d4 1D       		.byte	0x1d
 1546 05d5 0A       		.uleb128 0xa
 1547 05d6 47010000 		.4byte	.LASF112
 1548 05da 04       		.byte	0x4
 1549 05db D6       		.byte	0xd6
 1550 05dc 5C010000 		.4byte	0x15c
 1551 05e0 20       		.byte	0x20
 1552 05e1 0A       		.uleb128 0xa
 1553 05e2 0D050000 		.4byte	.LASF129
 1554 05e6 04       		.byte	0x4
 1555 05e7 D7       		.byte	0xd7
 1556 05e8 CE000000 		.4byte	0xce
 1557 05ec 24       		.byte	0x24
 1558 05ed 00       		.byte	0
 1559 05ee 02       		.uleb128 0x2
 1560 05ef 43050000 		.4byte	.LASF130
 1561 05f3 04       		.byte	0x4
 1562 05f4 D8       		.byte	0xd8
 1563 05f5 3E050000 		.4byte	0x53e
 1564 05f9 07       		.uleb128 0x7
 1565 05fa 01       		.byte	0x1
 1566 05fb 04       		.byte	0x4
 1567 05fc DB       		.byte	0xdb
 1568 05fd 14060000 		.4byte	0x614
 1569 0601 08       		.uleb128 0x8
 1570 0602 97040000 		.4byte	.LASF131
 1571 0606 00       		.sleb128 0
 1572 0607 08       		.uleb128 0x8
 1573 0608 E40A0000 		.4byte	.LASF132
 1574 060c 01       		.sleb128 1
 1575 060d 08       		.uleb128 0x8
 1576 060e 1D0C0000 		.4byte	.LASF133
 1577 0612 02       		.sleb128 2
 1578 0613 00       		.byte	0
 1579 0614 02       		.uleb128 0x2
 1580 0615 EA020000 		.4byte	.LASF134
 1581 0619 04       		.byte	0x4
 1582 061a DF       		.byte	0xdf
 1583 061b F9050000 		.4byte	0x5f9
 1584 061f 09       		.uleb128 0x9
 1585 0620 20       		.byte	0x20
 1586 0621 04       		.byte	0x4
 1587 0622 E1       		.byte	0xe1
 1588 0623 93060000 		.4byte	0x693
 1589 0627 0A       		.uleb128 0xa
 1590 0628 70000000 		.4byte	.LASF102
 1591 062c 04       		.byte	0x4
 1592 062d E2       		.byte	0xe2
ARM GAS  C:\Users\ADMINI~1\AppData\Local\Temp\cclvVomf.s 			page 29


 1593 062e 14060000 		.4byte	0x614
 1594 0632 00       		.byte	0
 1595 0633 0A       		.uleb128 0xa
 1596 0634 AB050000 		.4byte	.LASF104
 1597 0638 04       		.byte	0x4
 1598 0639 E3       		.byte	0xe3
 1599 063a 5C010000 		.4byte	0x15c
 1600 063e 04       		.byte	0x4
 1601 063f 0A       		.uleb128 0xa
 1602 0640 AF060000 		.4byte	.LASF109
 1603 0644 04       		.byte	0x4
 1604 0645 E4       		.byte	0xe4
 1605 0646 5C010000 		.4byte	0x15c
 1606 064a 08       		.byte	0x8
 1607 064b 0A       		.uleb128 0xa
 1608 064c 4E050000 		.4byte	.LASF110
 1609 0650 04       		.byte	0x4
 1610 0651 E5       		.byte	0xe5
 1611 0652 5C010000 		.4byte	0x15c
 1612 0656 0C       		.byte	0xc
 1613 0657 0A       		.uleb128 0xa
 1614 0658 7A000000 		.4byte	.LASF135
 1615 065c 04       		.byte	0x4
 1616 065d E6       		.byte	0xe6
 1617 065e 5C010000 		.4byte	0x15c
 1618 0662 10       		.byte	0x10
 1619 0663 0A       		.uleb128 0xa
 1620 0664 B0000000 		.4byte	.LASF136
 1621 0668 04       		.byte	0x4
 1622 0669 E7       		.byte	0xe7
 1623 066a 5C010000 		.4byte	0x15c
 1624 066e 14       		.byte	0x14
 1625 066f 0A       		.uleb128 0xa
 1626 0670 7A070000 		.4byte	.LASF111
 1627 0674 04       		.byte	0x4
 1628 0675 E8       		.byte	0xe8
 1629 0676 D9000000 		.4byte	0xd9
 1630 067a 18       		.byte	0x18
 1631 067b 0B       		.uleb128 0xb
 1632 067c 746300   		.ascii	"tc\000"
 1633 067f 04       		.byte	0x4
 1634 0680 E9       		.byte	0xe9
 1635 0681 D9000000 		.4byte	0xd9
 1636 0685 19       		.byte	0x19
 1637 0686 0A       		.uleb128 0xa
 1638 0687 47010000 		.4byte	.LASF112
 1639 068b 04       		.byte	0x4
 1640 068c EA       		.byte	0xea
 1641 068d 5C010000 		.4byte	0x15c
 1642 0691 1C       		.byte	0x1c
 1643 0692 00       		.byte	0
 1644 0693 02       		.uleb128 0x2
 1645 0694 650A0000 		.4byte	.LASF137
 1646 0698 04       		.byte	0x4
 1647 0699 EB       		.byte	0xeb
 1648 069a 1F060000 		.4byte	0x61f
 1649 069e 09       		.uleb128 0x9
ARM GAS  C:\Users\ADMINI~1\AppData\Local\Temp\cclvVomf.s 			page 30


 1650 069f 8C       		.byte	0x8c
 1651 06a0 04       		.byte	0x4
 1652 06a1 ED       		.byte	0xed
 1653 06a2 20070000 		.4byte	0x720
 1654 06a6 0A       		.uleb128 0xa
 1655 06a7 EB050000 		.4byte	.LASF138
 1656 06ab 04       		.byte	0x4
 1657 06ac EF       		.byte	0xef
 1658 06ad AD000000 		.4byte	0xad
 1659 06b1 00       		.byte	0
 1660 06b2 0A       		.uleb128 0xa
 1661 06b3 84030000 		.4byte	.LASF139
 1662 06b7 04       		.byte	0x4
 1663 06b8 F0       		.byte	0xf0
 1664 06b9 CE000000 		.4byte	0xce
 1665 06bd 04       		.byte	0x4
 1666 06be 0A       		.uleb128 0xa
 1667 06bf 2E020000 		.4byte	.LASF140
 1668 06c3 04       		.byte	0x4
 1669 06c4 F1       		.byte	0xf1
 1670 06c5 5C010000 		.4byte	0x15c
 1671 06c9 08       		.byte	0x8
 1672 06ca 0A       		.uleb128 0xa
 1673 06cb 56000000 		.4byte	.LASF141
 1674 06cf 04       		.byte	0x4
 1675 06d0 F2       		.byte	0xf2
 1676 06d1 D9000000 		.4byte	0xd9
 1677 06d5 0C       		.byte	0xc
 1678 06d6 0A       		.uleb128 0xa
 1679 06d7 E00B0000 		.4byte	.LASF142
 1680 06db 04       		.byte	0x4
 1681 06dc F3       		.byte	0xf3
 1682 06dd CE000000 		.4byte	0xce
 1683 06e1 10       		.byte	0x10
 1684 06e2 0A       		.uleb128 0xa
 1685 06e3 6E080000 		.4byte	.LASF143
 1686 06e7 04       		.byte	0x4
 1687 06e8 F6       		.byte	0xf6
 1688 06e9 02040000 		.4byte	0x402
 1689 06ed 14       		.byte	0x14
 1690 06ee 0A       		.uleb128 0xa
 1691 06ef 0C090000 		.4byte	.LASF144
 1692 06f3 04       		.byte	0x4
 1693 06f4 F9       		.byte	0xf9
 1694 06f5 E9040000 		.4byte	0x4e9
 1695 06f9 18       		.byte	0x18
 1696 06fa 0A       		.uleb128 0xa
 1697 06fb 23010000 		.4byte	.LASF145
 1698 06ff 04       		.byte	0x4
 1699 0700 FC       		.byte	0xfc
 1700 0701 EE050000 		.4byte	0x5ee
 1701 0705 40       		.byte	0x40
 1702 0706 0A       		.uleb128 0xa
 1703 0707 7B060000 		.4byte	.LASF146
 1704 070b 04       		.byte	0x4
 1705 070c FF       		.byte	0xff
 1706 070d CE000000 		.4byte	0xce
ARM GAS  C:\Users\ADMINI~1\AppData\Local\Temp\cclvVomf.s 			page 31


 1707 0711 68       		.byte	0x68
 1708 0712 0C       		.uleb128 0xc
 1709 0713 040B0000 		.4byte	.LASF147
 1710 0717 04       		.byte	0x4
 1711 0718 0201     		.2byte	0x102
 1712 071a 93060000 		.4byte	0x693
 1713 071e 6C       		.byte	0x6c
 1714 071f 00       		.byte	0
 1715 0720 0D       		.uleb128 0xd
 1716 0721 72040000 		.4byte	.LASF148
 1717 0725 04       		.byte	0x4
 1718 0726 0301     		.2byte	0x103
 1719 0728 9E060000 		.4byte	0x69e
 1720 072c 0E       		.uleb128 0xe
 1721 072d C3000000 		.4byte	0xc3
 1722 0731 0F       		.uleb128 0xf
 1723 0732 01       		.byte	0x1
 1724 0733 05       		.byte	0x5
 1725 0734 F901     		.2byte	0x1f9
 1726 0736 47070000 		.4byte	0x747
 1727 073a 08       		.uleb128 0x8
 1728 073b EA030000 		.4byte	.LASF149
 1729 073f 00       		.sleb128 0
 1730 0740 08       		.uleb128 0x8
 1731 0741 7D020000 		.4byte	.LASF150
 1732 0745 01       		.sleb128 1
 1733 0746 00       		.byte	0
 1734 0747 0D       		.uleb128 0xd
 1735 0748 49060000 		.4byte	.LASF151
 1736 074c 05       		.byte	0x5
 1737 074d F901     		.2byte	0x1f9
 1738 074f 31070000 		.4byte	0x731
 1739 0753 07       		.uleb128 0x7
 1740 0754 01       		.byte	0x1
 1741 0755 06       		.byte	0x6
 1742 0756 35       		.byte	0x35
 1743 0757 8C070000 		.4byte	0x78c
 1744 075b 08       		.uleb128 0x8
 1745 075c C2010000 		.4byte	.LASF152
 1746 0760 01       		.sleb128 1
 1747 0761 08       		.uleb128 0x8
 1748 0762 CA080000 		.4byte	.LASF153
 1749 0766 02       		.sleb128 2
 1750 0767 08       		.uleb128 0x8
 1751 0768 BA080000 		.4byte	.LASF154
 1752 076c 03       		.sleb128 3
 1753 076d 08       		.uleb128 0x8
 1754 076e 79080000 		.4byte	.LASF155
 1755 0772 04       		.sleb128 4
 1756 0773 08       		.uleb128 0x8
 1757 0774 0D0C0000 		.4byte	.LASF156
 1758 0778 05       		.sleb128 5
 1759 0779 08       		.uleb128 0x8
 1760 077a 9B060000 		.4byte	.LASF157
 1761 077e 06       		.sleb128 6
 1762 077f 08       		.uleb128 0x8
 1763 0780 80010000 		.4byte	.LASF158
ARM GAS  C:\Users\ADMINI~1\AppData\Local\Temp\cclvVomf.s 			page 32


 1764 0784 07       		.sleb128 7
 1765 0785 08       		.uleb128 0x8
 1766 0786 3A0C0000 		.4byte	.LASF159
 1767 078a 08       		.sleb128 8
 1768 078b 00       		.byte	0
 1769 078c 10       		.uleb128 0x10
 1770 078d DA080000 		.4byte	.LASF160
 1771 0791 01       		.byte	0x1
 1772 0792 6E       		.byte	0x6e
 1773 0793 00000000 		.4byte	.LFB118
 1774 0797 58000000 		.4byte	.LFE118-.LFB118
 1775 079b 01       		.uleb128 0x1
 1776 079c 9C       		.byte	0x9c
 1777 079d 2C080000 		.4byte	0x82c
 1778 07a1 11       		.uleb128 0x11
 1779 07a2 696E6400 		.ascii	"ind\000"
 1780 07a6 01       		.byte	0x1
 1781 07a7 72       		.byte	0x72
 1782 07a8 94000000 		.4byte	0x94
 1783 07ac 00000000 		.4byte	.LLST0
 1784 07b0 12       		.uleb128 0x12
 1785 07b1 18000000 		.4byte	.LBB2
 1786 07b5 16000000 		.4byte	.LBE2-.LBB2
 1787 07b9 CB070000 		.4byte	0x7cb
 1788 07bd 11       		.uleb128 0x11
 1789 07be 6900     		.ascii	"i\000"
 1790 07c0 01       		.byte	0x1
 1791 07c1 73       		.byte	0x73
 1792 07c2 9B000000 		.4byte	0x9b
 1793 07c6 00000000 		.4byte	.LLST0
 1794 07ca 00       		.byte	0
 1795 07cb 12       		.uleb128 0x12
 1796 07cc 2E000000 		.4byte	.LBB3
 1797 07d0 0C000000 		.4byte	.LBE3-.LBB3
 1798 07d4 E2070000 		.4byte	0x7e2
 1799 07d8 13       		.uleb128 0x13
 1800 07d9 6900     		.ascii	"i\000"
 1801 07db 01       		.byte	0x1
 1802 07dc 77       		.byte	0x77
 1803 07dd 9B000000 		.4byte	0x9b
 1804 07e1 00       		.byte	0
 1805 07e2 14       		.uleb128 0x14
 1806 07e3 0E000000 		.4byte	.LVL0
 1807 07e7 AD0B0000 		.4byte	0xbad
 1808 07eb 05080000 		.4byte	0x805
 1809 07ef 15       		.uleb128 0x15
 1810 07f0 01       		.uleb128 0x1
 1811 07f1 52       		.byte	0x52
 1812 07f2 03       		.uleb128 0x3
 1813 07f3 0A       		.byte	0xa
 1814 07f4 4001     		.2byte	0x140
 1815 07f6 15       		.uleb128 0x15
 1816 07f7 01       		.uleb128 0x1
 1817 07f8 51       		.byte	0x51
 1818 07f9 01       		.uleb128 0x1
 1819 07fa 30       		.byte	0x30
 1820 07fb 15       		.uleb128 0x15
ARM GAS  C:\Users\ADMINI~1\AppData\Local\Temp\cclvVomf.s 			page 33


 1821 07fc 01       		.uleb128 0x1
 1822 07fd 50       		.byte	0x50
 1823 07fe 05       		.uleb128 0x5
 1824 07ff 03       		.byte	0x3
 1825 0800 00000000 		.4byte	.LANCHOR0
 1826 0804 00       		.byte	0
 1827 0805 16       		.uleb128 0x16
 1828 0806 3E000000 		.4byte	.LVL3
 1829 080a CA0B0000 		.4byte	0xbca
 1830 080e 14       		.uleb128 0x14
 1831 080f 44000000 		.4byte	.LVL4
 1832 0813 D20B0000 		.4byte	0xbd2
 1833 0817 22080000 		.4byte	0x822
 1834 081b 15       		.uleb128 0x15
 1835 081c 01       		.uleb128 0x1
 1836 081d 50       		.byte	0x50
 1837 081e 02       		.uleb128 0x2
 1838 081f 08       		.byte	0x8
 1839 0820 F2       		.byte	0xf2
 1840 0821 00       		.byte	0
 1841 0822 17       		.uleb128 0x17
 1842 0823 4C000000 		.4byte	.LVL5
 1843 0827 E40B0000 		.4byte	0xbe4
 1844 082b 00       		.byte	0
 1845 082c 10       		.uleb128 0x10
 1846 082d BD060000 		.4byte	.LASF161
 1847 0831 01       		.byte	0x1
 1848 0832 87       		.byte	0x87
 1849 0833 00000000 		.4byte	.LFB119
 1850 0837 24010000 		.4byte	.LFE119-.LFB119
 1851 083b 01       		.uleb128 0x1
 1852 083c 9C       		.byte	0x9c
 1853 083d CA080000 		.4byte	0x8ca
 1854 0841 18       		.uleb128 0x18
 1855 0842 E8010000 		.4byte	.LASF164
 1856 0846 01       		.byte	0x1
 1857 0847 87       		.byte	0x87
 1858 0848 CA080000 		.4byte	0x8ca
 1859 084c 14000000 		.4byte	.LLST2
 1860 0850 19       		.uleb128 0x19
 1861 0851 2D050000 		.4byte	.LASF162
 1862 0855 01       		.byte	0x1
 1863 0856 88       		.byte	0x88
 1864 0857 D9000000 		.4byte	0xd9
 1865 085b 40000000 		.4byte	.LLST3
 1866 085f 19       		.uleb128 0x19
 1867 0860 A1050000 		.4byte	.LASF163
 1868 0864 01       		.byte	0x1
 1869 0865 89       		.byte	0x89
 1870 0866 F0000000 		.4byte	0xf0
 1871 086a 60000000 		.4byte	.LLST4
 1872 086e 1A       		.uleb128 0x1a
 1873 086f 76617200 		.ascii	"var\000"
 1874 0873 01       		.byte	0x1
 1875 0874 8A       		.byte	0x8a
 1876 0875 B8000000 		.4byte	0xb8
 1877 0879 02       		.uleb128 0x2
ARM GAS  C:\Users\ADMINI~1\AppData\Local\Temp\cclvVomf.s 			page 34


 1878 087a 91       		.byte	0x91
 1879 087b 56       		.sleb128 -42
 1880 087c 12       		.uleb128 0x12
 1881 087d 0A000000 		.4byte	.LBB4
 1882 0881 2C000000 		.4byte	.LBE4-.LBB4
 1883 0885 AE080000 		.4byte	0x8ae
 1884 0889 11       		.uleb128 0x11
 1885 088a 6900     		.ascii	"i\000"
 1886 088c 01       		.byte	0x1
 1887 088d 8C       		.byte	0x8c
 1888 088e 9B000000 		.4byte	0x9b
 1889 0892 8C000000 		.4byte	.LLST5
 1890 0896 1B       		.uleb128 0x1b
 1891 0897 32000000 		.4byte	.LVL11
 1892 089b EF0B0000 		.4byte	0xbef
 1893 089f 15       		.uleb128 0x15
 1894 08a0 01       		.uleb128 0x1
 1895 08a1 51       		.byte	0x51
 1896 08a2 02       		.uleb128 0x2
 1897 08a3 91       		.byte	0x91
 1898 08a4 56       		.sleb128 -42
 1899 08a5 15       		.uleb128 0x15
 1900 08a6 01       		.uleb128 0x1
 1901 08a7 50       		.byte	0x50
 1902 08a8 03       		.uleb128 0x3
 1903 08a9 74       		.byte	0x74
 1904 08aa D00F     		.sleb128 2000
 1905 08ac 00       		.byte	0
 1906 08ad 00       		.byte	0
 1907 08ae 1B       		.uleb128 0x1b
 1908 08af 40000000 		.4byte	.LVL13
 1909 08b3 AD0B0000 		.4byte	0xbad
 1910 08b7 15       		.uleb128 0x15
 1911 08b8 01       		.uleb128 0x1
 1912 08b9 52       		.byte	0x52
 1913 08ba 02       		.uleb128 0x2
 1914 08bb 08       		.byte	0x8
 1915 08bc 8C       		.byte	0x8c
 1916 08bd 15       		.uleb128 0x15
 1917 08be 01       		.uleb128 0x1
 1918 08bf 51       		.byte	0x51
 1919 08c0 01       		.uleb128 0x1
 1920 08c1 30       		.byte	0x30
 1921 08c2 15       		.uleb128 0x15
 1922 08c3 01       		.uleb128 0x1
 1923 08c4 50       		.byte	0x50
 1924 08c5 02       		.uleb128 0x2
 1925 08c6 75       		.byte	0x75
 1926 08c7 00       		.sleb128 0
 1927 08c8 00       		.byte	0
 1928 08c9 00       		.byte	0
 1929 08ca 06       		.uleb128 0x6
 1930 08cb 04       		.byte	0x4
 1931 08cc 20070000 		.4byte	0x720
 1932 08d0 1C       		.uleb128 0x1c
 1933 08d1 ED010000 		.4byte	.LASF166
 1934 08d5 01       		.byte	0x1
ARM GAS  C:\Users\ADMINI~1\AppData\Local\Temp\cclvVomf.s 			page 35


 1935 08d6 D3       		.byte	0xd3
 1936 08d7 D9000000 		.4byte	0xd9
 1937 08db 00000000 		.4byte	.LFB120
 1938 08df 5A000000 		.4byte	.LFE120-.LFB120
 1939 08e3 01       		.uleb128 0x1
 1940 08e4 9C       		.byte	0x9c
 1941 08e5 A6090000 		.4byte	0x9a6
 1942 08e9 18       		.uleb128 0x18
 1943 08ea E8010000 		.4byte	.LASF164
 1944 08ee 01       		.byte	0x1
 1945 08ef D3       		.byte	0xd3
 1946 08f0 CA080000 		.4byte	0x8ca
 1947 08f4 AB000000 		.4byte	.LLST6
 1948 08f8 19       		.uleb128 0x19
 1949 08f9 2D050000 		.4byte	.LASF162
 1950 08fd 01       		.byte	0x1
 1951 08fe D9       		.byte	0xd9
 1952 08ff D9000000 		.4byte	0xd9
 1953 0903 C9000000 		.4byte	.LLST7
 1954 0907 1D       		.uleb128 0x1d
 1955 0908 A1050000 		.4byte	.LASF163
 1956 090c 01       		.byte	0x1
 1957 090d DA       		.byte	0xda
 1958 090e F0000000 		.4byte	0xf0
 1959 0912 01       		.uleb128 0x1
 1960 0913 56       		.byte	0x56
 1961 0914 11       		.uleb128 0x11
 1962 0915 76617200 		.ascii	"var\000"
 1963 0919 01       		.byte	0x1
 1964 091a DB       		.byte	0xdb
 1965 091b B8000000 		.4byte	0xb8
 1966 091f F4000000 		.4byte	.LLST8
 1967 0923 1E       		.uleb128 0x1e
 1968 0924 00000000 		.4byte	.Ldebug_ranges0+0
 1969 0928 4B090000 		.4byte	0x94b
 1970 092c 11       		.uleb128 0x11
 1971 092d 6900     		.ascii	"i\000"
 1972 092f 01       		.byte	0x1
 1973 0930 E0       		.byte	0xe0
 1974 0931 9B000000 		.4byte	0x9b
 1975 0935 34010000 		.4byte	.LLST9
 1976 0939 1B       		.uleb128 0x1b
 1977 093a 36000000 		.4byte	.LVL25
 1978 093e 0F0C0000 		.4byte	0xc0f
 1979 0942 15       		.uleb128 0x15
 1980 0943 01       		.uleb128 0x1
 1981 0944 50       		.byte	0x50
 1982 0945 03       		.uleb128 0x3
 1983 0946 74       		.byte	0x74
 1984 0947 D00F     		.sleb128 2000
 1985 0949 00       		.byte	0
 1986 094a 00       		.byte	0
 1987 094b 16       		.uleb128 0x16
 1988 094c 08000000 		.4byte	.LVL18
 1989 0950 290C0000 		.4byte	0xc29
 1990 0954 14       		.uleb128 0x14
 1991 0955 12000000 		.4byte	.LVL19
ARM GAS  C:\Users\ADMINI~1\AppData\Local\Temp\cclvVomf.s 			page 36


 1992 0959 300C0000 		.4byte	0xc30
 1993 095d 6E090000 		.4byte	0x96e
 1994 0961 15       		.uleb128 0x15
 1995 0962 01       		.uleb128 0x1
 1996 0963 51       		.byte	0x51
 1997 0964 01       		.uleb128 0x1
 1998 0965 30       		.byte	0x30
 1999 0966 15       		.uleb128 0x15
 2000 0967 01       		.uleb128 0x1
 2001 0968 50       		.byte	0x50
 2002 0969 03       		.uleb128 0x3
 2003 096a 0A       		.byte	0xa
 2004 096b 0008     		.2byte	0x800
 2005 096d 00       		.byte	0
 2006 096e 14       		.uleb128 0x14
 2007 096f 18000000 		.4byte	.LVL20
 2008 0973 D20B0000 		.4byte	0xbd2
 2009 0977 82090000 		.4byte	0x982
 2010 097b 15       		.uleb128 0x15
 2011 097c 01       		.uleb128 0x1
 2012 097d 50       		.byte	0x50
 2013 097e 02       		.uleb128 0x2
 2014 097f 08       		.byte	0x8
 2015 0980 F2       		.byte	0xf2
 2016 0981 00       		.byte	0
 2017 0982 14       		.uleb128 0x14
 2018 0983 4E000000 		.4byte	.LVL28
 2019 0987 300C0000 		.4byte	0xc30
 2020 098b 9C090000 		.4byte	0x99c
 2021 098f 15       		.uleb128 0x15
 2022 0990 01       		.uleb128 0x1
 2023 0991 51       		.byte	0x51
 2024 0992 01       		.uleb128 0x1
 2025 0993 31       		.byte	0x31
 2026 0994 15       		.uleb128 0x15
 2027 0995 01       		.uleb128 0x1
 2028 0996 50       		.byte	0x50
 2029 0997 03       		.uleb128 0x3
 2030 0998 0A       		.byte	0xa
 2031 0999 0008     		.2byte	0x800
 2032 099b 00       		.byte	0
 2033 099c 16       		.uleb128 0x16
 2034 099d 52000000 		.4byte	.LVL29
 2035 09a1 470C0000 		.4byte	0xc47
 2036 09a5 00       		.byte	0
 2037 09a6 10       		.uleb128 0x10
 2038 09a7 A9030000 		.4byte	.LASF165
 2039 09ab 01       		.byte	0x1
 2040 09ac F6       		.byte	0xf6
 2041 09ad 00000000 		.4byte	.LFB121
 2042 09b1 A0010000 		.4byte	.LFE121-.LFB121
 2043 09b5 01       		.uleb128 0x1
 2044 09b6 9C       		.byte	0x9c
 2045 09b7 250A0000 		.4byte	0xa25
 2046 09bb 18       		.uleb128 0x18
 2047 09bc E8010000 		.4byte	.LASF164
 2048 09c0 01       		.byte	0x1
ARM GAS  C:\Users\ADMINI~1\AppData\Local\Temp\cclvVomf.s 			page 37


 2049 09c1 F6       		.byte	0xf6
 2050 09c2 250A0000 		.4byte	0xa25
 2051 09c6 5E010000 		.4byte	.LLST10
 2052 09ca 19       		.uleb128 0x19
 2053 09cb 2D050000 		.4byte	.LASF162
 2054 09cf 01       		.byte	0x1
 2055 09d0 F7       		.byte	0xf7
 2056 09d1 D9000000 		.4byte	0xd9
 2057 09d5 8A010000 		.4byte	.LLST11
 2058 09d9 19       		.uleb128 0x19
 2059 09da A1050000 		.4byte	.LASF163
 2060 09de 01       		.byte	0x1
 2061 09df F8       		.byte	0xf8
 2062 09e0 F0000000 		.4byte	0xf0
 2063 09e4 AA010000 		.4byte	.LLST12
 2064 09e8 1A       		.uleb128 0x1a
 2065 09e9 76617200 		.ascii	"var\000"
 2066 09ed 01       		.byte	0x1
 2067 09ee F9       		.byte	0xf9
 2068 09ef B8000000 		.4byte	0xb8
 2069 09f3 02       		.uleb128 0x2
 2070 09f4 91       		.byte	0x91
 2071 09f5 56       		.sleb128 -42
 2072 09f6 1F       		.uleb128 0x1f
 2073 09f7 0A000000 		.4byte	.LBB7
 2074 09fb 2E000000 		.4byte	.LBE7-.LBB7
 2075 09ff 11       		.uleb128 0x11
 2076 0a00 6900     		.ascii	"i\000"
 2077 0a02 01       		.byte	0x1
 2078 0a03 FB       		.byte	0xfb
 2079 0a04 9B000000 		.4byte	0x9b
 2080 0a08 D6010000 		.4byte	.LLST13
 2081 0a0c 1B       		.uleb128 0x1b
 2082 0a0d 34000000 		.4byte	.LVL37
 2083 0a11 EF0B0000 		.4byte	0xbef
 2084 0a15 15       		.uleb128 0x15
 2085 0a16 01       		.uleb128 0x1
 2086 0a17 51       		.byte	0x51
 2087 0a18 02       		.uleb128 0x2
 2088 0a19 91       		.byte	0x91
 2089 0a1a 56       		.sleb128 -42
 2090 0a1b 15       		.uleb128 0x15
 2091 0a1c 01       		.uleb128 0x1
 2092 0a1d 50       		.byte	0x50
 2093 0a1e 03       		.uleb128 0x3
 2094 0a1f 74       		.byte	0x74
 2095 0a20 E807     		.sleb128 1000
 2096 0a22 00       		.byte	0
 2097 0a23 00       		.byte	0
 2098 0a24 00       		.byte	0
 2099 0a25 06       		.uleb128 0x6
 2100 0a26 04       		.byte	0x4
 2101 0a27 B8030000 		.4byte	0x3b8
 2102 0a2b 20       		.uleb128 0x20
 2103 0a2c 120B0000 		.4byte	.LASF167
 2104 0a30 01       		.byte	0x1
 2105 0a31 4801     		.2byte	0x148
ARM GAS  C:\Users\ADMINI~1\AppData\Local\Temp\cclvVomf.s 			page 38


 2106 0a33 D9000000 		.4byte	0xd9
 2107 0a37 00000000 		.4byte	.LFB122
 2108 0a3b 5A000000 		.4byte	.LFE122-.LFB122
 2109 0a3f 01       		.uleb128 0x1
 2110 0a40 9C       		.byte	0x9c
 2111 0a41 070B0000 		.4byte	0xb07
 2112 0a45 21       		.uleb128 0x21
 2113 0a46 E8010000 		.4byte	.LASF164
 2114 0a4a 01       		.byte	0x1
 2115 0a4b 4801     		.2byte	0x148
 2116 0a4d 250A0000 		.4byte	0xa25
 2117 0a51 F5010000 		.4byte	.LLST14
 2118 0a55 22       		.uleb128 0x22
 2119 0a56 2D050000 		.4byte	.LASF162
 2120 0a5a 01       		.byte	0x1
 2121 0a5b 4E01     		.2byte	0x14e
 2122 0a5d D9000000 		.4byte	0xd9
 2123 0a61 13020000 		.4byte	.LLST15
 2124 0a65 23       		.uleb128 0x23
 2125 0a66 A1050000 		.4byte	.LASF163
 2126 0a6a 01       		.byte	0x1
 2127 0a6b 4F01     		.2byte	0x14f
 2128 0a6d F0000000 		.4byte	0xf0
 2129 0a71 01       		.uleb128 0x1
 2130 0a72 56       		.byte	0x56
 2131 0a73 24       		.uleb128 0x24
 2132 0a74 76617200 		.ascii	"var\000"
 2133 0a78 01       		.byte	0x1
 2134 0a79 5001     		.2byte	0x150
 2135 0a7b B8000000 		.4byte	0xb8
 2136 0a7f 3E020000 		.4byte	.LLST16
 2137 0a83 1E       		.uleb128 0x1e
 2138 0a84 18000000 		.4byte	.Ldebug_ranges0+0x18
 2139 0a88 AC0A0000 		.4byte	0xaac
 2140 0a8c 24       		.uleb128 0x24
 2141 0a8d 6900     		.ascii	"i\000"
 2142 0a8f 01       		.byte	0x1
 2143 0a90 5501     		.2byte	0x155
 2144 0a92 9B000000 		.4byte	0x9b
 2145 0a96 7E020000 		.4byte	.LLST17
 2146 0a9a 1B       		.uleb128 0x1b
 2147 0a9b 36000000 		.4byte	.LVL50
 2148 0a9f 0F0C0000 		.4byte	0xc0f
 2149 0aa3 15       		.uleb128 0x15
 2150 0aa4 01       		.uleb128 0x1
 2151 0aa5 50       		.byte	0x50
 2152 0aa6 03       		.uleb128 0x3
 2153 0aa7 74       		.byte	0x74
 2154 0aa8 E807     		.sleb128 1000
 2155 0aaa 00       		.byte	0
 2156 0aab 00       		.byte	0
 2157 0aac 16       		.uleb128 0x16
 2158 0aad 08000000 		.4byte	.LVL43
 2159 0ab1 290C0000 		.4byte	0xc29
 2160 0ab5 14       		.uleb128 0x14
 2161 0ab6 12000000 		.4byte	.LVL44
 2162 0aba 300C0000 		.4byte	0xc30
ARM GAS  C:\Users\ADMINI~1\AppData\Local\Temp\cclvVomf.s 			page 39


 2163 0abe CF0A0000 		.4byte	0xacf
 2164 0ac2 15       		.uleb128 0x15
 2165 0ac3 01       		.uleb128 0x1
 2166 0ac4 51       		.byte	0x51
 2167 0ac5 01       		.uleb128 0x1
 2168 0ac6 30       		.byte	0x30
 2169 0ac7 15       		.uleb128 0x15
 2170 0ac8 01       		.uleb128 0x1
 2171 0ac9 50       		.byte	0x50
 2172 0aca 03       		.uleb128 0x3
 2173 0acb 0A       		.byte	0xa
 2174 0acc 0008     		.2byte	0x800
 2175 0ace 00       		.byte	0
 2176 0acf 14       		.uleb128 0x14
 2177 0ad0 18000000 		.4byte	.LVL45
 2178 0ad4 D20B0000 		.4byte	0xbd2
 2179 0ad8 E30A0000 		.4byte	0xae3
 2180 0adc 15       		.uleb128 0x15
 2181 0add 01       		.uleb128 0x1
 2182 0ade 50       		.byte	0x50
 2183 0adf 02       		.uleb128 0x2
 2184 0ae0 08       		.byte	0x8
 2185 0ae1 F2       		.byte	0xf2
 2186 0ae2 00       		.byte	0
 2187 0ae3 14       		.uleb128 0x14
 2188 0ae4 4E000000 		.4byte	.LVL53
 2189 0ae8 300C0000 		.4byte	0xc30
 2190 0aec FD0A0000 		.4byte	0xafd
 2191 0af0 15       		.uleb128 0x15
 2192 0af1 01       		.uleb128 0x1
 2193 0af2 51       		.byte	0x51
 2194 0af3 01       		.uleb128 0x1
 2195 0af4 31       		.byte	0x31
 2196 0af5 15       		.uleb128 0x15
 2197 0af6 01       		.uleb128 0x1
 2198 0af7 50       		.byte	0x50
 2199 0af8 03       		.uleb128 0x3
 2200 0af9 0A       		.byte	0xa
 2201 0afa 0008     		.2byte	0x800
 2202 0afc 00       		.byte	0
 2203 0afd 16       		.uleb128 0x16
 2204 0afe 52000000 		.4byte	.LVL54
 2205 0b02 470C0000 		.4byte	0xc47
 2206 0b06 00       		.byte	0
 2207 0b07 20       		.uleb128 0x20
 2208 0b08 B7040000 		.4byte	.LASF168
 2209 0b0c 01       		.byte	0x1
 2210 0b0d 6501     		.2byte	0x165
 2211 0b0f D9000000 		.4byte	0xd9
 2212 0b13 00000000 		.4byte	.LFB123
 2213 0b17 04000000 		.4byte	.LFE123-.LFB123
 2214 0b1b 01       		.uleb128 0x1
 2215 0b1c 9C       		.byte	0x9c
 2216 0b1d 7A0B0000 		.4byte	0xb7a
 2217 0b21 25       		.uleb128 0x25
 2218 0b22 66080000 		.4byte	.LASF169
 2219 0b26 01       		.byte	0x1
ARM GAS  C:\Users\ADMINI~1\AppData\Local\Temp\cclvVomf.s 			page 40


 2220 0b27 6501     		.2byte	0x165
 2221 0b29 5C010000 		.4byte	0x15c
 2222 0b2d 02       		.uleb128 0x2
 2223 0b2e 90       		.byte	0x90
 2224 0b2f 40       		.uleb128 0x40
 2225 0b30 25       		.uleb128 0x25
 2226 0b31 5C040000 		.4byte	.LASF170
 2227 0b35 01       		.byte	0x1
 2228 0b36 6501     		.2byte	0x165
 2229 0b38 5C010000 		.4byte	0x15c
 2230 0b3c 02       		.uleb128 0x2
 2231 0b3d 90       		.byte	0x90
 2232 0b3e 41       		.uleb128 0x41
 2233 0b3f 25       		.uleb128 0x25
 2234 0b40 CC030000 		.4byte	.LASF171
 2235 0b44 01       		.byte	0x1
 2236 0b45 6501     		.2byte	0x165
 2237 0b47 5C010000 		.4byte	0x15c
 2238 0b4b 02       		.uleb128 0x2
 2239 0b4c 90       		.byte	0x90
 2240 0b4d 42       		.uleb128 0x42
 2241 0b4e 21       		.uleb128 0x21
 2242 0b4f B0070000 		.4byte	.LASF172
 2243 0b53 01       		.byte	0x1
 2244 0b54 6601     		.2byte	0x166
 2245 0b56 7A0B0000 		.4byte	0xb7a
 2246 0b5a A8020000 		.4byte	.LLST18
 2247 0b5e 25       		.uleb128 0x25
 2248 0b5f 43070000 		.4byte	.LASF173
 2249 0b63 01       		.byte	0x1
 2250 0b64 6601     		.2byte	0x166
 2251 0b66 7A0B0000 		.4byte	0xb7a
 2252 0b6a 01       		.uleb128 0x1
 2253 0b6b 51       		.byte	0x51
 2254 0b6c 26       		.uleb128 0x26
 2255 0b6d DF010000 		.4byte	.LASF174
 2256 0b71 01       		.byte	0x1
 2257 0b72 6801     		.2byte	0x168
 2258 0b74 94000000 		.4byte	0x94
 2259 0b78 00       		.byte	0
 2260 0b79 00       		.byte	0
 2261 0b7a 06       		.uleb128 0x6
 2262 0b7b 04       		.byte	0x4
 2263 0b7c 5C010000 		.4byte	0x15c
 2264 0b80 27       		.uleb128 0x27
 2265 0b81 A3070000 		.4byte	.LASF175
 2266 0b85 07       		.byte	0x7
 2267 0b86 9806     		.2byte	0x698
 2268 0b88 2C070000 		.4byte	0x72c
 2269 0b8c 28       		.uleb128 0x28
 2270 0b8d B8000000 		.4byte	0xb8
 2271 0b91 9C0B0000 		.4byte	0xb9c
 2272 0b95 29       		.uleb128 0x29
 2273 0b96 E2000000 		.4byte	0xe2
 2274 0b9a 9F       		.byte	0x9f
 2275 0b9b 00       		.byte	0
 2276 0b9c 2A       		.uleb128 0x2a
ARM GAS  C:\Users\ADMINI~1\AppData\Local\Temp\cclvVomf.s 			page 41


 2277 0b9d 710A0000 		.4byte	.LASF176
 2278 0ba1 01       		.byte	0x1
 2279 0ba2 6C       		.byte	0x6c
 2280 0ba3 8C0B0000 		.4byte	0xb8c
 2281 0ba7 05       		.uleb128 0x5
 2282 0ba8 03       		.byte	0x3
 2283 0ba9 00000000 		.4byte	VirtAddVarTab
 2284 0bad 2B       		.uleb128 0x2b
 2285 0bae 6D050000 		.4byte	.LASF177
 2286 0bb2 E0000000 		.4byte	0xe0
 2287 0bb6 CA0B0000 		.4byte	0xbca
 2288 0bba 2C       		.uleb128 0x2c
 2289 0bbb E0000000 		.4byte	0xe0
 2290 0bbf 2C       		.uleb128 0x2c
 2291 0bc0 94000000 		.4byte	0x94
 2292 0bc4 2C       		.uleb128 0x2c
 2293 0bc5 E2000000 		.4byte	0xe2
 2294 0bc9 00       		.byte	0
 2295 0bca 2D       		.uleb128 0x2d
 2296 0bcb 48080000 		.4byte	.LASF181
 2297 0bcf 06       		.byte	0x6
 2298 0bd0 2901     		.2byte	0x129
 2299 0bd2 2E       		.uleb128 0x2e
 2300 0bd3 440B0000 		.4byte	.LASF178
 2301 0bd7 06       		.byte	0x6
 2302 0bd8 4201     		.2byte	0x142
 2303 0bda E40B0000 		.4byte	0xbe4
 2304 0bde 2C       		.uleb128 0x2c
 2305 0bdf CE000000 		.4byte	0xce
 2306 0be3 00       		.byte	0
 2307 0be4 2F       		.uleb128 0x2f
 2308 0be5 33050000 		.4byte	.LASF188
 2309 0be9 08       		.byte	0x8
 2310 0bea 4D       		.byte	0x4d
 2311 0beb B8000000 		.4byte	0xb8
 2312 0bef 30       		.uleb128 0x30
 2313 0bf0 C30A0000 		.4byte	.LASF179
 2314 0bf4 08       		.byte	0x8
 2315 0bf5 4E       		.byte	0x4e
 2316 0bf6 B8000000 		.4byte	0xb8
 2317 0bfa 090C0000 		.4byte	0xc09
 2318 0bfe 2C       		.uleb128 0x2c
 2319 0bff B8000000 		.4byte	0xb8
 2320 0c03 2C       		.uleb128 0x2c
 2321 0c04 090C0000 		.4byte	0xc09
 2322 0c08 00       		.byte	0
 2323 0c09 06       		.uleb128 0x6
 2324 0c0a 04       		.byte	0x4
 2325 0c0b B8000000 		.4byte	0xb8
 2326 0c0f 30       		.uleb128 0x30
 2327 0c10 D30A0000 		.4byte	.LASF180
 2328 0c14 08       		.byte	0x8
 2329 0c15 4F       		.byte	0x4f
 2330 0c16 B8000000 		.4byte	0xb8
 2331 0c1a 290C0000 		.4byte	0xc29
 2332 0c1e 2C       		.uleb128 0x2c
 2333 0c1f B8000000 		.4byte	0xb8
ARM GAS  C:\Users\ADMINI~1\AppData\Local\Temp\cclvVomf.s 			page 42


 2334 0c23 2C       		.uleb128 0x2c
 2335 0c24 B8000000 		.4byte	0xb8
 2336 0c28 00       		.byte	0
 2337 0c29 31       		.uleb128 0x31
 2338 0c2a 99080000 		.4byte	.LASF182
 2339 0c2e 09       		.byte	0x9
 2340 0c2f 23       		.byte	0x23
 2341 0c30 2E       		.uleb128 0x2e
 2342 0c31 820B0000 		.4byte	.LASF183
 2343 0c35 0A       		.byte	0xa
 2344 0c36 E001     		.2byte	0x1e0
 2345 0c38 470C0000 		.4byte	0xc47
 2346 0c3c 2C       		.uleb128 0x2c
 2347 0c3d CE000000 		.4byte	0xce
 2348 0c41 2C       		.uleb128 0x2c
 2349 0c42 47070000 		.4byte	0x747
 2350 0c46 00       		.byte	0
 2351 0c47 31       		.uleb128 0x31
 2352 0c48 59060000 		.4byte	.LASF184
 2353 0c4c 09       		.byte	0x9
 2354 0c4d 24       		.byte	0x24
 2355 0c4e 00       		.byte	0
 2356              		.section	.debug_abbrev,"",%progbits
 2357              	.Ldebug_abbrev0:
 2358 0000 01       		.uleb128 0x1
 2359 0001 11       		.uleb128 0x11
 2360 0002 01       		.byte	0x1
 2361 0003 25       		.uleb128 0x25
 2362 0004 0E       		.uleb128 0xe
 2363 0005 13       		.uleb128 0x13
 2364 0006 0B       		.uleb128 0xb
 2365 0007 03       		.uleb128 0x3
 2366 0008 0E       		.uleb128 0xe
 2367 0009 1B       		.uleb128 0x1b
 2368 000a 0E       		.uleb128 0xe
 2369 000b 55       		.uleb128 0x55
 2370 000c 17       		.uleb128 0x17
 2371 000d 11       		.uleb128 0x11
 2372 000e 01       		.uleb128 0x1
 2373 000f 10       		.uleb128 0x10
 2374 0010 17       		.uleb128 0x17
 2375 0011 00       		.byte	0
 2376 0012 00       		.byte	0
 2377 0013 02       		.uleb128 0x2
 2378 0014 16       		.uleb128 0x16
 2379 0015 00       		.byte	0
 2380 0016 03       		.uleb128 0x3
 2381 0017 0E       		.uleb128 0xe
 2382 0018 3A       		.uleb128 0x3a
 2383 0019 0B       		.uleb128 0xb
 2384 001a 3B       		.uleb128 0x3b
 2385 001b 0B       		.uleb128 0xb
 2386 001c 49       		.uleb128 0x49
 2387 001d 13       		.uleb128 0x13
 2388 001e 00       		.byte	0
 2389 001f 00       		.byte	0
 2390 0020 03       		.uleb128 0x3
ARM GAS  C:\Users\ADMINI~1\AppData\Local\Temp\cclvVomf.s 			page 43


 2391 0021 24       		.uleb128 0x24
 2392 0022 00       		.byte	0
 2393 0023 0B       		.uleb128 0xb
 2394 0024 0B       		.uleb128 0xb
 2395 0025 3E       		.uleb128 0x3e
 2396 0026 0B       		.uleb128 0xb
 2397 0027 03       		.uleb128 0x3
 2398 0028 0E       		.uleb128 0xe
 2399 0029 00       		.byte	0
 2400 002a 00       		.byte	0
 2401 002b 04       		.uleb128 0x4
 2402 002c 24       		.uleb128 0x24
 2403 002d 00       		.byte	0
 2404 002e 0B       		.uleb128 0xb
 2405 002f 0B       		.uleb128 0xb
 2406 0030 3E       		.uleb128 0x3e
 2407 0031 0B       		.uleb128 0xb
 2408 0032 03       		.uleb128 0x3
 2409 0033 08       		.uleb128 0x8
 2410 0034 00       		.byte	0
 2411 0035 00       		.byte	0
 2412 0036 05       		.uleb128 0x5
 2413 0037 0F       		.uleb128 0xf
 2414 0038 00       		.byte	0
 2415 0039 0B       		.uleb128 0xb
 2416 003a 0B       		.uleb128 0xb
 2417 003b 00       		.byte	0
 2418 003c 00       		.byte	0
 2419 003d 06       		.uleb128 0x6
 2420 003e 0F       		.uleb128 0xf
 2421 003f 00       		.byte	0
 2422 0040 0B       		.uleb128 0xb
 2423 0041 0B       		.uleb128 0xb
 2424 0042 49       		.uleb128 0x49
 2425 0043 13       		.uleb128 0x13
 2426 0044 00       		.byte	0
 2427 0045 00       		.byte	0
 2428 0046 07       		.uleb128 0x7
 2429 0047 04       		.uleb128 0x4
 2430 0048 01       		.byte	0x1
 2431 0049 0B       		.uleb128 0xb
 2432 004a 0B       		.uleb128 0xb
 2433 004b 3A       		.uleb128 0x3a
 2434 004c 0B       		.uleb128 0xb
 2435 004d 3B       		.uleb128 0x3b
 2436 004e 0B       		.uleb128 0xb
 2437 004f 01       		.uleb128 0x1
 2438 0050 13       		.uleb128 0x13
 2439 0051 00       		.byte	0
 2440 0052 00       		.byte	0
 2441 0053 08       		.uleb128 0x8
 2442 0054 28       		.uleb128 0x28
 2443 0055 00       		.byte	0
 2444 0056 03       		.uleb128 0x3
 2445 0057 0E       		.uleb128 0xe
 2446 0058 1C       		.uleb128 0x1c
 2447 0059 0D       		.uleb128 0xd
ARM GAS  C:\Users\ADMINI~1\AppData\Local\Temp\cclvVomf.s 			page 44


 2448 005a 00       		.byte	0
 2449 005b 00       		.byte	0
 2450 005c 09       		.uleb128 0x9
 2451 005d 13       		.uleb128 0x13
 2452 005e 01       		.byte	0x1
 2453 005f 0B       		.uleb128 0xb
 2454 0060 0B       		.uleb128 0xb
 2455 0061 3A       		.uleb128 0x3a
 2456 0062 0B       		.uleb128 0xb
 2457 0063 3B       		.uleb128 0x3b
 2458 0064 0B       		.uleb128 0xb
 2459 0065 01       		.uleb128 0x1
 2460 0066 13       		.uleb128 0x13
 2461 0067 00       		.byte	0
 2462 0068 00       		.byte	0
 2463 0069 0A       		.uleb128 0xa
 2464 006a 0D       		.uleb128 0xd
 2465 006b 00       		.byte	0
 2466 006c 03       		.uleb128 0x3
 2467 006d 0E       		.uleb128 0xe
 2468 006e 3A       		.uleb128 0x3a
 2469 006f 0B       		.uleb128 0xb
 2470 0070 3B       		.uleb128 0x3b
 2471 0071 0B       		.uleb128 0xb
 2472 0072 49       		.uleb128 0x49
 2473 0073 13       		.uleb128 0x13
 2474 0074 38       		.uleb128 0x38
 2475 0075 0B       		.uleb128 0xb
 2476 0076 00       		.byte	0
 2477 0077 00       		.byte	0
 2478 0078 0B       		.uleb128 0xb
 2479 0079 0D       		.uleb128 0xd
 2480 007a 00       		.byte	0
 2481 007b 03       		.uleb128 0x3
 2482 007c 08       		.uleb128 0x8
 2483 007d 3A       		.uleb128 0x3a
 2484 007e 0B       		.uleb128 0xb
 2485 007f 3B       		.uleb128 0x3b
 2486 0080 0B       		.uleb128 0xb
 2487 0081 49       		.uleb128 0x49
 2488 0082 13       		.uleb128 0x13
 2489 0083 38       		.uleb128 0x38
 2490 0084 0B       		.uleb128 0xb
 2491 0085 00       		.byte	0
 2492 0086 00       		.byte	0
 2493 0087 0C       		.uleb128 0xc
 2494 0088 0D       		.uleb128 0xd
 2495 0089 00       		.byte	0
 2496 008a 03       		.uleb128 0x3
 2497 008b 0E       		.uleb128 0xe
 2498 008c 3A       		.uleb128 0x3a
 2499 008d 0B       		.uleb128 0xb
 2500 008e 3B       		.uleb128 0x3b
 2501 008f 05       		.uleb128 0x5
 2502 0090 49       		.uleb128 0x49
 2503 0091 13       		.uleb128 0x13
 2504 0092 38       		.uleb128 0x38
ARM GAS  C:\Users\ADMINI~1\AppData\Local\Temp\cclvVomf.s 			page 45


 2505 0093 0B       		.uleb128 0xb
 2506 0094 00       		.byte	0
 2507 0095 00       		.byte	0
 2508 0096 0D       		.uleb128 0xd
 2509 0097 16       		.uleb128 0x16
 2510 0098 00       		.byte	0
 2511 0099 03       		.uleb128 0x3
 2512 009a 0E       		.uleb128 0xe
 2513 009b 3A       		.uleb128 0x3a
 2514 009c 0B       		.uleb128 0xb
 2515 009d 3B       		.uleb128 0x3b
 2516 009e 05       		.uleb128 0x5
 2517 009f 49       		.uleb128 0x49
 2518 00a0 13       		.uleb128 0x13
 2519 00a1 00       		.byte	0
 2520 00a2 00       		.byte	0
 2521 00a3 0E       		.uleb128 0xe
 2522 00a4 35       		.uleb128 0x35
 2523 00a5 00       		.byte	0
 2524 00a6 49       		.uleb128 0x49
 2525 00a7 13       		.uleb128 0x13
 2526 00a8 00       		.byte	0
 2527 00a9 00       		.byte	0
 2528 00aa 0F       		.uleb128 0xf
 2529 00ab 04       		.uleb128 0x4
 2530 00ac 01       		.byte	0x1
 2531 00ad 0B       		.uleb128 0xb
 2532 00ae 0B       		.uleb128 0xb
 2533 00af 3A       		.uleb128 0x3a
 2534 00b0 0B       		.uleb128 0xb
 2535 00b1 3B       		.uleb128 0x3b
 2536 00b2 05       		.uleb128 0x5
 2537 00b3 01       		.uleb128 0x1
 2538 00b4 13       		.uleb128 0x13
 2539 00b5 00       		.byte	0
 2540 00b6 00       		.byte	0
 2541 00b7 10       		.uleb128 0x10
 2542 00b8 2E       		.uleb128 0x2e
 2543 00b9 01       		.byte	0x1
 2544 00ba 3F       		.uleb128 0x3f
 2545 00bb 19       		.uleb128 0x19
 2546 00bc 03       		.uleb128 0x3
 2547 00bd 0E       		.uleb128 0xe
 2548 00be 3A       		.uleb128 0x3a
 2549 00bf 0B       		.uleb128 0xb
 2550 00c0 3B       		.uleb128 0x3b
 2551 00c1 0B       		.uleb128 0xb
 2552 00c2 27       		.uleb128 0x27
 2553 00c3 19       		.uleb128 0x19
 2554 00c4 11       		.uleb128 0x11
 2555 00c5 01       		.uleb128 0x1
 2556 00c6 12       		.uleb128 0x12
 2557 00c7 06       		.uleb128 0x6
 2558 00c8 40       		.uleb128 0x40
 2559 00c9 18       		.uleb128 0x18
 2560 00ca 9742     		.uleb128 0x2117
 2561 00cc 19       		.uleb128 0x19
ARM GAS  C:\Users\ADMINI~1\AppData\Local\Temp\cclvVomf.s 			page 46


 2562 00cd 01       		.uleb128 0x1
 2563 00ce 13       		.uleb128 0x13
 2564 00cf 00       		.byte	0
 2565 00d0 00       		.byte	0
 2566 00d1 11       		.uleb128 0x11
 2567 00d2 34       		.uleb128 0x34
 2568 00d3 00       		.byte	0
 2569 00d4 03       		.uleb128 0x3
 2570 00d5 08       		.uleb128 0x8
 2571 00d6 3A       		.uleb128 0x3a
 2572 00d7 0B       		.uleb128 0xb
 2573 00d8 3B       		.uleb128 0x3b
 2574 00d9 0B       		.uleb128 0xb
 2575 00da 49       		.uleb128 0x49
 2576 00db 13       		.uleb128 0x13
 2577 00dc 02       		.uleb128 0x2
 2578 00dd 17       		.uleb128 0x17
 2579 00de 00       		.byte	0
 2580 00df 00       		.byte	0
 2581 00e0 12       		.uleb128 0x12
 2582 00e1 0B       		.uleb128 0xb
 2583 00e2 01       		.byte	0x1
 2584 00e3 11       		.uleb128 0x11
 2585 00e4 01       		.uleb128 0x1
 2586 00e5 12       		.uleb128 0x12
 2587 00e6 06       		.uleb128 0x6
 2588 00e7 01       		.uleb128 0x1
 2589 00e8 13       		.uleb128 0x13
 2590 00e9 00       		.byte	0
 2591 00ea 00       		.byte	0
 2592 00eb 13       		.uleb128 0x13
 2593 00ec 34       		.uleb128 0x34
 2594 00ed 00       		.byte	0
 2595 00ee 03       		.uleb128 0x3
 2596 00ef 08       		.uleb128 0x8
 2597 00f0 3A       		.uleb128 0x3a
 2598 00f1 0B       		.uleb128 0xb
 2599 00f2 3B       		.uleb128 0x3b
 2600 00f3 0B       		.uleb128 0xb
 2601 00f4 49       		.uleb128 0x49
 2602 00f5 13       		.uleb128 0x13
 2603 00f6 00       		.byte	0
 2604 00f7 00       		.byte	0
 2605 00f8 14       		.uleb128 0x14
 2606 00f9 898201   		.uleb128 0x4109
 2607 00fc 01       		.byte	0x1
 2608 00fd 11       		.uleb128 0x11
 2609 00fe 01       		.uleb128 0x1
 2610 00ff 31       		.uleb128 0x31
 2611 0100 13       		.uleb128 0x13
 2612 0101 01       		.uleb128 0x1
 2613 0102 13       		.uleb128 0x13
 2614 0103 00       		.byte	0
 2615 0104 00       		.byte	0
 2616 0105 15       		.uleb128 0x15
 2617 0106 8A8201   		.uleb128 0x410a
 2618 0109 00       		.byte	0
ARM GAS  C:\Users\ADMINI~1\AppData\Local\Temp\cclvVomf.s 			page 47


 2619 010a 02       		.uleb128 0x2
 2620 010b 18       		.uleb128 0x18
 2621 010c 9142     		.uleb128 0x2111
 2622 010e 18       		.uleb128 0x18
 2623 010f 00       		.byte	0
 2624 0110 00       		.byte	0
 2625 0111 16       		.uleb128 0x16
 2626 0112 898201   		.uleb128 0x4109
 2627 0115 00       		.byte	0
 2628 0116 11       		.uleb128 0x11
 2629 0117 01       		.uleb128 0x1
 2630 0118 31       		.uleb128 0x31
 2631 0119 13       		.uleb128 0x13
 2632 011a 00       		.byte	0
 2633 011b 00       		.byte	0
 2634 011c 17       		.uleb128 0x17
 2635 011d 898201   		.uleb128 0x4109
 2636 0120 00       		.byte	0
 2637 0121 11       		.uleb128 0x11
 2638 0122 01       		.uleb128 0x1
 2639 0123 9542     		.uleb128 0x2115
 2640 0125 19       		.uleb128 0x19
 2641 0126 31       		.uleb128 0x31
 2642 0127 13       		.uleb128 0x13
 2643 0128 00       		.byte	0
 2644 0129 00       		.byte	0
 2645 012a 18       		.uleb128 0x18
 2646 012b 05       		.uleb128 0x5
 2647 012c 00       		.byte	0
 2648 012d 03       		.uleb128 0x3
 2649 012e 0E       		.uleb128 0xe
 2650 012f 3A       		.uleb128 0x3a
 2651 0130 0B       		.uleb128 0xb
 2652 0131 3B       		.uleb128 0x3b
 2653 0132 0B       		.uleb128 0xb
 2654 0133 49       		.uleb128 0x49
 2655 0134 13       		.uleb128 0x13
 2656 0135 02       		.uleb128 0x2
 2657 0136 17       		.uleb128 0x17
 2658 0137 00       		.byte	0
 2659 0138 00       		.byte	0
 2660 0139 19       		.uleb128 0x19
 2661 013a 34       		.uleb128 0x34
 2662 013b 00       		.byte	0
 2663 013c 03       		.uleb128 0x3
 2664 013d 0E       		.uleb128 0xe
 2665 013e 3A       		.uleb128 0x3a
 2666 013f 0B       		.uleb128 0xb
 2667 0140 3B       		.uleb128 0x3b
 2668 0141 0B       		.uleb128 0xb
 2669 0142 49       		.uleb128 0x49
 2670 0143 13       		.uleb128 0x13
 2671 0144 02       		.uleb128 0x2
 2672 0145 17       		.uleb128 0x17
 2673 0146 00       		.byte	0
 2674 0147 00       		.byte	0
 2675 0148 1A       		.uleb128 0x1a
ARM GAS  C:\Users\ADMINI~1\AppData\Local\Temp\cclvVomf.s 			page 48


 2676 0149 34       		.uleb128 0x34
 2677 014a 00       		.byte	0
 2678 014b 03       		.uleb128 0x3
 2679 014c 08       		.uleb128 0x8
 2680 014d 3A       		.uleb128 0x3a
 2681 014e 0B       		.uleb128 0xb
 2682 014f 3B       		.uleb128 0x3b
 2683 0150 0B       		.uleb128 0xb
 2684 0151 49       		.uleb128 0x49
 2685 0152 13       		.uleb128 0x13
 2686 0153 02       		.uleb128 0x2
 2687 0154 18       		.uleb128 0x18
 2688 0155 00       		.byte	0
 2689 0156 00       		.byte	0
 2690 0157 1B       		.uleb128 0x1b
 2691 0158 898201   		.uleb128 0x4109
 2692 015b 01       		.byte	0x1
 2693 015c 11       		.uleb128 0x11
 2694 015d 01       		.uleb128 0x1
 2695 015e 31       		.uleb128 0x31
 2696 015f 13       		.uleb128 0x13
 2697 0160 00       		.byte	0
 2698 0161 00       		.byte	0
 2699 0162 1C       		.uleb128 0x1c
 2700 0163 2E       		.uleb128 0x2e
 2701 0164 01       		.byte	0x1
 2702 0165 3F       		.uleb128 0x3f
 2703 0166 19       		.uleb128 0x19
 2704 0167 03       		.uleb128 0x3
 2705 0168 0E       		.uleb128 0xe
 2706 0169 3A       		.uleb128 0x3a
 2707 016a 0B       		.uleb128 0xb
 2708 016b 3B       		.uleb128 0x3b
 2709 016c 0B       		.uleb128 0xb
 2710 016d 27       		.uleb128 0x27
 2711 016e 19       		.uleb128 0x19
 2712 016f 49       		.uleb128 0x49
 2713 0170 13       		.uleb128 0x13
 2714 0171 11       		.uleb128 0x11
 2715 0172 01       		.uleb128 0x1
 2716 0173 12       		.uleb128 0x12
 2717 0174 06       		.uleb128 0x6
 2718 0175 40       		.uleb128 0x40
 2719 0176 18       		.uleb128 0x18
 2720 0177 9742     		.uleb128 0x2117
 2721 0179 19       		.uleb128 0x19
 2722 017a 01       		.uleb128 0x1
 2723 017b 13       		.uleb128 0x13
 2724 017c 00       		.byte	0
 2725 017d 00       		.byte	0
 2726 017e 1D       		.uleb128 0x1d
 2727 017f 34       		.uleb128 0x34
 2728 0180 00       		.byte	0
 2729 0181 03       		.uleb128 0x3
 2730 0182 0E       		.uleb128 0xe
 2731 0183 3A       		.uleb128 0x3a
 2732 0184 0B       		.uleb128 0xb
ARM GAS  C:\Users\ADMINI~1\AppData\Local\Temp\cclvVomf.s 			page 49


 2733 0185 3B       		.uleb128 0x3b
 2734 0186 0B       		.uleb128 0xb
 2735 0187 49       		.uleb128 0x49
 2736 0188 13       		.uleb128 0x13
 2737 0189 02       		.uleb128 0x2
 2738 018a 18       		.uleb128 0x18
 2739 018b 00       		.byte	0
 2740 018c 00       		.byte	0
 2741 018d 1E       		.uleb128 0x1e
 2742 018e 0B       		.uleb128 0xb
 2743 018f 01       		.byte	0x1
 2744 0190 55       		.uleb128 0x55
 2745 0191 17       		.uleb128 0x17
 2746 0192 01       		.uleb128 0x1
 2747 0193 13       		.uleb128 0x13
 2748 0194 00       		.byte	0
 2749 0195 00       		.byte	0
 2750 0196 1F       		.uleb128 0x1f
 2751 0197 0B       		.uleb128 0xb
 2752 0198 01       		.byte	0x1
 2753 0199 11       		.uleb128 0x11
 2754 019a 01       		.uleb128 0x1
 2755 019b 12       		.uleb128 0x12
 2756 019c 06       		.uleb128 0x6
 2757 019d 00       		.byte	0
 2758 019e 00       		.byte	0
 2759 019f 20       		.uleb128 0x20
 2760 01a0 2E       		.uleb128 0x2e
 2761 01a1 01       		.byte	0x1
 2762 01a2 3F       		.uleb128 0x3f
 2763 01a3 19       		.uleb128 0x19
 2764 01a4 03       		.uleb128 0x3
 2765 01a5 0E       		.uleb128 0xe
 2766 01a6 3A       		.uleb128 0x3a
 2767 01a7 0B       		.uleb128 0xb
 2768 01a8 3B       		.uleb128 0x3b
 2769 01a9 05       		.uleb128 0x5
 2770 01aa 27       		.uleb128 0x27
 2771 01ab 19       		.uleb128 0x19
 2772 01ac 49       		.uleb128 0x49
 2773 01ad 13       		.uleb128 0x13
 2774 01ae 11       		.uleb128 0x11
 2775 01af 01       		.uleb128 0x1
 2776 01b0 12       		.uleb128 0x12
 2777 01b1 06       		.uleb128 0x6
 2778 01b2 40       		.uleb128 0x40
 2779 01b3 18       		.uleb128 0x18
 2780 01b4 9742     		.uleb128 0x2117
 2781 01b6 19       		.uleb128 0x19
 2782 01b7 01       		.uleb128 0x1
 2783 01b8 13       		.uleb128 0x13
 2784 01b9 00       		.byte	0
 2785 01ba 00       		.byte	0
 2786 01bb 21       		.uleb128 0x21
 2787 01bc 05       		.uleb128 0x5
 2788 01bd 00       		.byte	0
 2789 01be 03       		.uleb128 0x3
ARM GAS  C:\Users\ADMINI~1\AppData\Local\Temp\cclvVomf.s 			page 50


 2790 01bf 0E       		.uleb128 0xe
 2791 01c0 3A       		.uleb128 0x3a
 2792 01c1 0B       		.uleb128 0xb
 2793 01c2 3B       		.uleb128 0x3b
 2794 01c3 05       		.uleb128 0x5
 2795 01c4 49       		.uleb128 0x49
 2796 01c5 13       		.uleb128 0x13
 2797 01c6 02       		.uleb128 0x2
 2798 01c7 17       		.uleb128 0x17
 2799 01c8 00       		.byte	0
 2800 01c9 00       		.byte	0
 2801 01ca 22       		.uleb128 0x22
 2802 01cb 34       		.uleb128 0x34
 2803 01cc 00       		.byte	0
 2804 01cd 03       		.uleb128 0x3
 2805 01ce 0E       		.uleb128 0xe
 2806 01cf 3A       		.uleb128 0x3a
 2807 01d0 0B       		.uleb128 0xb
 2808 01d1 3B       		.uleb128 0x3b
 2809 01d2 05       		.uleb128 0x5
 2810 01d3 49       		.uleb128 0x49
 2811 01d4 13       		.uleb128 0x13
 2812 01d5 02       		.uleb128 0x2
 2813 01d6 17       		.uleb128 0x17
 2814 01d7 00       		.byte	0
 2815 01d8 00       		.byte	0
 2816 01d9 23       		.uleb128 0x23
 2817 01da 34       		.uleb128 0x34
 2818 01db 00       		.byte	0
 2819 01dc 03       		.uleb128 0x3
 2820 01dd 0E       		.uleb128 0xe
 2821 01de 3A       		.uleb128 0x3a
 2822 01df 0B       		.uleb128 0xb
 2823 01e0 3B       		.uleb128 0x3b
 2824 01e1 05       		.uleb128 0x5
 2825 01e2 49       		.uleb128 0x49
 2826 01e3 13       		.uleb128 0x13
 2827 01e4 02       		.uleb128 0x2
 2828 01e5 18       		.uleb128 0x18
 2829 01e6 00       		.byte	0
 2830 01e7 00       		.byte	0
 2831 01e8 24       		.uleb128 0x24
 2832 01e9 34       		.uleb128 0x34
 2833 01ea 00       		.byte	0
 2834 01eb 03       		.uleb128 0x3
 2835 01ec 08       		.uleb128 0x8
 2836 01ed 3A       		.uleb128 0x3a
 2837 01ee 0B       		.uleb128 0xb
 2838 01ef 3B       		.uleb128 0x3b
 2839 01f0 05       		.uleb128 0x5
 2840 01f1 49       		.uleb128 0x49
 2841 01f2 13       		.uleb128 0x13
 2842 01f3 02       		.uleb128 0x2
 2843 01f4 17       		.uleb128 0x17
 2844 01f5 00       		.byte	0
 2845 01f6 00       		.byte	0
 2846 01f7 25       		.uleb128 0x25
ARM GAS  C:\Users\ADMINI~1\AppData\Local\Temp\cclvVomf.s 			page 51


 2847 01f8 05       		.uleb128 0x5
 2848 01f9 00       		.byte	0
 2849 01fa 03       		.uleb128 0x3
 2850 01fb 0E       		.uleb128 0xe
 2851 01fc 3A       		.uleb128 0x3a
 2852 01fd 0B       		.uleb128 0xb
 2853 01fe 3B       		.uleb128 0x3b
 2854 01ff 05       		.uleb128 0x5
 2855 0200 49       		.uleb128 0x49
 2856 0201 13       		.uleb128 0x13
 2857 0202 02       		.uleb128 0x2
 2858 0203 18       		.uleb128 0x18
 2859 0204 00       		.byte	0
 2860 0205 00       		.byte	0
 2861 0206 26       		.uleb128 0x26
 2862 0207 34       		.uleb128 0x34
 2863 0208 00       		.byte	0
 2864 0209 03       		.uleb128 0x3
 2865 020a 0E       		.uleb128 0xe
 2866 020b 3A       		.uleb128 0x3a
 2867 020c 0B       		.uleb128 0xb
 2868 020d 3B       		.uleb128 0x3b
 2869 020e 05       		.uleb128 0x5
 2870 020f 49       		.uleb128 0x49
 2871 0210 13       		.uleb128 0x13
 2872 0211 1C       		.uleb128 0x1c
 2873 0212 0B       		.uleb128 0xb
 2874 0213 00       		.byte	0
 2875 0214 00       		.byte	0
 2876 0215 27       		.uleb128 0x27
 2877 0216 34       		.uleb128 0x34
 2878 0217 00       		.byte	0
 2879 0218 03       		.uleb128 0x3
 2880 0219 0E       		.uleb128 0xe
 2881 021a 3A       		.uleb128 0x3a
 2882 021b 0B       		.uleb128 0xb
 2883 021c 3B       		.uleb128 0x3b
 2884 021d 05       		.uleb128 0x5
 2885 021e 49       		.uleb128 0x49
 2886 021f 13       		.uleb128 0x13
 2887 0220 3F       		.uleb128 0x3f
 2888 0221 19       		.uleb128 0x19
 2889 0222 3C       		.uleb128 0x3c
 2890 0223 19       		.uleb128 0x19
 2891 0224 00       		.byte	0
 2892 0225 00       		.byte	0
 2893 0226 28       		.uleb128 0x28
 2894 0227 01       		.uleb128 0x1
 2895 0228 01       		.byte	0x1
 2896 0229 49       		.uleb128 0x49
 2897 022a 13       		.uleb128 0x13
 2898 022b 01       		.uleb128 0x1
 2899 022c 13       		.uleb128 0x13
 2900 022d 00       		.byte	0
 2901 022e 00       		.byte	0
 2902 022f 29       		.uleb128 0x29
 2903 0230 21       		.uleb128 0x21
ARM GAS  C:\Users\ADMINI~1\AppData\Local\Temp\cclvVomf.s 			page 52


 2904 0231 00       		.byte	0
 2905 0232 49       		.uleb128 0x49
 2906 0233 13       		.uleb128 0x13
 2907 0234 2F       		.uleb128 0x2f
 2908 0235 0B       		.uleb128 0xb
 2909 0236 00       		.byte	0
 2910 0237 00       		.byte	0
 2911 0238 2A       		.uleb128 0x2a
 2912 0239 34       		.uleb128 0x34
 2913 023a 00       		.byte	0
 2914 023b 03       		.uleb128 0x3
 2915 023c 0E       		.uleb128 0xe
 2916 023d 3A       		.uleb128 0x3a
 2917 023e 0B       		.uleb128 0xb
 2918 023f 3B       		.uleb128 0x3b
 2919 0240 0B       		.uleb128 0xb
 2920 0241 49       		.uleb128 0x49
 2921 0242 13       		.uleb128 0x13
 2922 0243 3F       		.uleb128 0x3f
 2923 0244 19       		.uleb128 0x19
 2924 0245 02       		.uleb128 0x2
 2925 0246 18       		.uleb128 0x18
 2926 0247 00       		.byte	0
 2927 0248 00       		.byte	0
 2928 0249 2B       		.uleb128 0x2b
 2929 024a 2E       		.uleb128 0x2e
 2930 024b 01       		.byte	0x1
 2931 024c 3F       		.uleb128 0x3f
 2932 024d 19       		.uleb128 0x19
 2933 024e 03       		.uleb128 0x3
 2934 024f 0E       		.uleb128 0xe
 2935 0250 27       		.uleb128 0x27
 2936 0251 19       		.uleb128 0x19
 2937 0252 49       		.uleb128 0x49
 2938 0253 13       		.uleb128 0x13
 2939 0254 34       		.uleb128 0x34
 2940 0255 19       		.uleb128 0x19
 2941 0256 3C       		.uleb128 0x3c
 2942 0257 19       		.uleb128 0x19
 2943 0258 01       		.uleb128 0x1
 2944 0259 13       		.uleb128 0x13
 2945 025a 00       		.byte	0
 2946 025b 00       		.byte	0
 2947 025c 2C       		.uleb128 0x2c
 2948 025d 05       		.uleb128 0x5
 2949 025e 00       		.byte	0
 2950 025f 49       		.uleb128 0x49
 2951 0260 13       		.uleb128 0x13
 2952 0261 00       		.byte	0
 2953 0262 00       		.byte	0
 2954 0263 2D       		.uleb128 0x2d
 2955 0264 2E       		.uleb128 0x2e
 2956 0265 00       		.byte	0
 2957 0266 3F       		.uleb128 0x3f
 2958 0267 19       		.uleb128 0x19
 2959 0268 03       		.uleb128 0x3
 2960 0269 0E       		.uleb128 0xe
ARM GAS  C:\Users\ADMINI~1\AppData\Local\Temp\cclvVomf.s 			page 53


 2961 026a 3A       		.uleb128 0x3a
 2962 026b 0B       		.uleb128 0xb
 2963 026c 3B       		.uleb128 0x3b
 2964 026d 05       		.uleb128 0x5
 2965 026e 27       		.uleb128 0x27
 2966 026f 19       		.uleb128 0x19
 2967 0270 3C       		.uleb128 0x3c
 2968 0271 19       		.uleb128 0x19
 2969 0272 00       		.byte	0
 2970 0273 00       		.byte	0
 2971 0274 2E       		.uleb128 0x2e
 2972 0275 2E       		.uleb128 0x2e
 2973 0276 01       		.byte	0x1
 2974 0277 3F       		.uleb128 0x3f
 2975 0278 19       		.uleb128 0x19
 2976 0279 03       		.uleb128 0x3
 2977 027a 0E       		.uleb128 0xe
 2978 027b 3A       		.uleb128 0x3a
 2979 027c 0B       		.uleb128 0xb
 2980 027d 3B       		.uleb128 0x3b
 2981 027e 05       		.uleb128 0x5
 2982 027f 27       		.uleb128 0x27
 2983 0280 19       		.uleb128 0x19
 2984 0281 3C       		.uleb128 0x3c
 2985 0282 19       		.uleb128 0x19
 2986 0283 01       		.uleb128 0x1
 2987 0284 13       		.uleb128 0x13
 2988 0285 00       		.byte	0
 2989 0286 00       		.byte	0
 2990 0287 2F       		.uleb128 0x2f
 2991 0288 2E       		.uleb128 0x2e
 2992 0289 00       		.byte	0
 2993 028a 3F       		.uleb128 0x3f
 2994 028b 19       		.uleb128 0x19
 2995 028c 03       		.uleb128 0x3
 2996 028d 0E       		.uleb128 0xe
 2997 028e 3A       		.uleb128 0x3a
 2998 028f 0B       		.uleb128 0xb
 2999 0290 3B       		.uleb128 0x3b
 3000 0291 0B       		.uleb128 0xb
 3001 0292 27       		.uleb128 0x27
 3002 0293 19       		.uleb128 0x19
 3003 0294 49       		.uleb128 0x49
 3004 0295 13       		.uleb128 0x13
 3005 0296 3C       		.uleb128 0x3c
 3006 0297 19       		.uleb128 0x19
 3007 0298 00       		.byte	0
 3008 0299 00       		.byte	0
 3009 029a 30       		.uleb128 0x30
 3010 029b 2E       		.uleb128 0x2e
 3011 029c 01       		.byte	0x1
 3012 029d 3F       		.uleb128 0x3f
 3013 029e 19       		.uleb128 0x19
 3014 029f 03       		.uleb128 0x3
 3015 02a0 0E       		.uleb128 0xe
 3016 02a1 3A       		.uleb128 0x3a
 3017 02a2 0B       		.uleb128 0xb
ARM GAS  C:\Users\ADMINI~1\AppData\Local\Temp\cclvVomf.s 			page 54


 3018 02a3 3B       		.uleb128 0x3b
 3019 02a4 0B       		.uleb128 0xb
 3020 02a5 27       		.uleb128 0x27
 3021 02a6 19       		.uleb128 0x19
 3022 02a7 49       		.uleb128 0x49
 3023 02a8 13       		.uleb128 0x13
 3024 02a9 3C       		.uleb128 0x3c
 3025 02aa 19       		.uleb128 0x19
 3026 02ab 01       		.uleb128 0x1
 3027 02ac 13       		.uleb128 0x13
 3028 02ad 00       		.byte	0
 3029 02ae 00       		.byte	0
 3030 02af 31       		.uleb128 0x31
 3031 02b0 2E       		.uleb128 0x2e
 3032 02b1 00       		.byte	0
 3033 02b2 3F       		.uleb128 0x3f
 3034 02b3 19       		.uleb128 0x19
 3035 02b4 03       		.uleb128 0x3
 3036 02b5 0E       		.uleb128 0xe
 3037 02b6 3A       		.uleb128 0x3a
 3038 02b7 0B       		.uleb128 0xb
 3039 02b8 3B       		.uleb128 0x3b
 3040 02b9 0B       		.uleb128 0xb
 3041 02ba 27       		.uleb128 0x27
 3042 02bb 19       		.uleb128 0x19
 3043 02bc 3C       		.uleb128 0x3c
 3044 02bd 19       		.uleb128 0x19
 3045 02be 00       		.byte	0
 3046 02bf 00       		.byte	0
 3047 02c0 00       		.byte	0
 3048              		.section	.debug_loc,"",%progbits
 3049              	.Ldebug_loc0:
 3050              	.LLST0:
 3051 0000 0E000000 		.4byte	.LVL0
 3052 0004 18000000 		.4byte	.LVL1
 3053 0008 0200     		.2byte	0x2
 3054 000a 30       		.byte	0x30
 3055 000b 9F       		.byte	0x9f
 3056 000c 00000000 		.4byte	0
 3057 0010 00000000 		.4byte	0
 3058              	.LLST2:
 3059 0014 00000000 		.4byte	.LVL6
 3060 0018 0E000000 		.4byte	.LVL8
 3061 001c 0100     		.2byte	0x1
 3062 001e 50       		.byte	0x50
 3063 001f 0E000000 		.4byte	.LVL8
 3064 0023 02010000 		.4byte	.LVL16
 3065 0027 0100     		.2byte	0x1
 3066 0029 55       		.byte	0x55
 3067 002a 02010000 		.4byte	.LVL16
 3068 002e 24010000 		.4byte	.LFE119
 3069 0032 0400     		.2byte	0x4
 3070 0034 F3       		.byte	0xf3
 3071 0035 01       		.uleb128 0x1
 3072 0036 50       		.byte	0x50
 3073 0037 9F       		.byte	0x9f
 3074 0038 00000000 		.4byte	0
ARM GAS  C:\Users\ADMINI~1\AppData\Local\Temp\cclvVomf.s 			page 55


 3075 003c 00000000 		.4byte	0
 3076              	.LLST3:
 3077 0040 00000000 		.4byte	.LVL6
 3078 0044 36000000 		.4byte	.LVL12
 3079 0048 0200     		.2byte	0x2
 3080 004a 31       		.byte	0x31
 3081 004b 9F       		.byte	0x9f
 3082 004c 36000000 		.4byte	.LVL12
 3083 0050 FC000000 		.4byte	.LVL15
 3084 0054 0200     		.2byte	0x2
 3085 0056 30       		.byte	0x30
 3086 0057 9F       		.byte	0x9f
 3087 0058 00000000 		.4byte	0
 3088 005c 00000000 		.4byte	0
 3089              	.LLST4:
 3090 0060 06000000 		.4byte	.LVL7
 3091 0064 0E000000 		.4byte	.LVL8
 3092 0068 0100     		.2byte	0x1
 3093 006a 50       		.byte	0x50
 3094 006b 0E000000 		.4byte	.LVL8
 3095 006f 02010000 		.4byte	.LVL16
 3096 0073 0100     		.2byte	0x1
 3097 0075 55       		.byte	0x55
 3098 0076 02010000 		.4byte	.LVL16
 3099 007a 24010000 		.4byte	.LFE119
 3100 007e 0400     		.2byte	0x4
 3101 0080 F3       		.byte	0xf3
 3102 0081 01       		.uleb128 0x1
 3103 0082 50       		.byte	0x50
 3104 0083 9F       		.byte	0x9f
 3105 0084 00000000 		.4byte	0
 3106 0088 00000000 		.4byte	0
 3107              	.LLST5:
 3108 008c 06000000 		.4byte	.LVL7
 3109 0090 0E000000 		.4byte	.LVL8
 3110 0094 0200     		.2byte	0x2
 3111 0096 30       		.byte	0x30
 3112 0097 9F       		.byte	0x9f
 3113 0098 0E000000 		.4byte	.LVL8
 3114 009c 4A000000 		.4byte	.LVL14
 3115 00a0 0100     		.2byte	0x1
 3116 00a2 54       		.byte	0x54
 3117 00a3 00000000 		.4byte	0
 3118 00a7 00000000 		.4byte	0
 3119              	.LLST6:
 3120 00ab 00000000 		.4byte	.LVL17
 3121 00af 07000000 		.4byte	.LVL18-1
 3122 00b3 0100     		.2byte	0x1
 3123 00b5 50       		.byte	0x50
 3124 00b6 07000000 		.4byte	.LVL18-1
 3125 00ba 5A000000 		.4byte	.LFE120
 3126 00be 0100     		.2byte	0x1
 3127 00c0 56       		.byte	0x56
 3128 00c1 00000000 		.4byte	0
 3129 00c5 00000000 		.4byte	0
 3130              	.LLST7:
 3131 00c9 12000000 		.4byte	.LVL19
ARM GAS  C:\Users\ADMINI~1\AppData\Local\Temp\cclvVomf.s 			page 56


 3132 00cd 44000000 		.4byte	.LVL27
 3133 00d1 0200     		.2byte	0x2
 3134 00d3 31       		.byte	0x31
 3135 00d4 9F       		.byte	0x9f
 3136 00d5 44000000 		.4byte	.LVL27
 3137 00d9 56000000 		.4byte	.LVL30
 3138 00dd 0100     		.2byte	0x1
 3139 00df 54       		.byte	0x54
 3140 00e0 56000000 		.4byte	.LVL30
 3141 00e4 5A000000 		.4byte	.LFE120
 3142 00e8 0200     		.2byte	0x2
 3143 00ea 31       		.byte	0x31
 3144 00eb 9F       		.byte	0x9f
 3145 00ec 00000000 		.4byte	0
 3146 00f0 00000000 		.4byte	0
 3147              	.LLST8:
 3148 00f4 26000000 		.4byte	.LVL23
 3149 00f8 30000000 		.4byte	.LVL24
 3150 00fc 0D00     		.2byte	0xd
 3151 00fe 75       		.byte	0x75
 3152 00ff 01       		.sleb128 1
 3153 0100 94       		.byte	0x94
 3154 0101 01       		.byte	0x1
 3155 0102 08       		.byte	0x8
 3156 0103 FF       		.byte	0xff
 3157 0104 1A       		.byte	0x1a
 3158 0105 71       		.byte	0x71
 3159 0106 00       		.sleb128 0
 3160 0107 38       		.byte	0x38
 3161 0108 24       		.byte	0x24
 3162 0109 21       		.byte	0x21
 3163 010a 9F       		.byte	0x9f
 3164 010b 30000000 		.4byte	.LVL24
 3165 010f 35000000 		.4byte	.LVL25-1
 3166 0113 1700     		.2byte	0x17
 3167 0115 75       		.byte	0x75
 3168 0116 01       		.sleb128 1
 3169 0117 94       		.byte	0x94
 3170 0118 01       		.byte	0x1
 3171 0119 08       		.byte	0x8
 3172 011a FF       		.byte	0xff
 3173 011b 1A       		.byte	0x1a
 3174 011c 74       		.byte	0x74
 3175 011d 00       		.sleb128 0
 3176 011e 31       		.byte	0x31
 3177 011f 24       		.byte	0x24
 3178 0120 76       		.byte	0x76
 3179 0121 00       		.sleb128 0
 3180 0122 22       		.byte	0x22
 3181 0123 94       		.byte	0x94
 3182 0124 01       		.byte	0x1
 3183 0125 08       		.byte	0x8
 3184 0126 FF       		.byte	0xff
 3185 0127 1A       		.byte	0x1a
 3186 0128 38       		.byte	0x38
 3187 0129 24       		.byte	0x24
 3188 012a 21       		.byte	0x21
ARM GAS  C:\Users\ADMINI~1\AppData\Local\Temp\cclvVomf.s 			page 57


 3189 012b 9F       		.byte	0x9f
 3190 012c 00000000 		.4byte	0
 3191 0130 00000000 		.4byte	0
 3192              	.LLST9:
 3193 0134 18000000 		.4byte	.LVL20
 3194 0138 1E000000 		.4byte	.LVL21
 3195 013c 0200     		.2byte	0x2
 3196 013e 30       		.byte	0x30
 3197 013f 9F       		.byte	0x9f
 3198 0140 1E000000 		.4byte	.LVL21
 3199 0144 44000000 		.4byte	.LVL27
 3200 0148 0100     		.2byte	0x1
 3201 014a 54       		.byte	0x54
 3202 014b 56000000 		.4byte	.LVL30
 3203 014f 58000000 		.4byte	.LVL31
 3204 0153 0100     		.2byte	0x1
 3205 0155 54       		.byte	0x54
 3206 0156 00000000 		.4byte	0
 3207 015a 00000000 		.4byte	0
 3208              	.LLST10:
 3209 015e 00000000 		.4byte	.LVL32
 3210 0162 0E000000 		.4byte	.LVL34
 3211 0166 0100     		.2byte	0x1
 3212 0168 50       		.byte	0x50
 3213 0169 0E000000 		.4byte	.LVL34
 3214 016d 3C010000 		.4byte	.LVL41
 3215 0171 0100     		.2byte	0x1
 3216 0173 55       		.byte	0x55
 3217 0174 3C010000 		.4byte	.LVL41
 3218 0178 A0010000 		.4byte	.LFE121
 3219 017c 0400     		.2byte	0x4
 3220 017e F3       		.byte	0xf3
 3221 017f 01       		.uleb128 0x1
 3222 0180 50       		.byte	0x50
 3223 0181 9F       		.byte	0x9f
 3224 0182 00000000 		.4byte	0
 3225 0186 00000000 		.4byte	0
 3226              	.LLST11:
 3227 018a 00000000 		.4byte	.LVL32
 3228 018e 38000000 		.4byte	.LVL38
 3229 0192 0200     		.2byte	0x2
 3230 0194 31       		.byte	0x31
 3231 0195 9F       		.byte	0x9f
 3232 0196 38000000 		.4byte	.LVL38
 3233 019a 36010000 		.4byte	.LVL40
 3234 019e 0200     		.2byte	0x2
 3235 01a0 30       		.byte	0x30
 3236 01a1 9F       		.byte	0x9f
 3237 01a2 00000000 		.4byte	0
 3238 01a6 00000000 		.4byte	0
 3239              	.LLST12:
 3240 01aa 06000000 		.4byte	.LVL33
 3241 01ae 0E000000 		.4byte	.LVL34
 3242 01b2 0100     		.2byte	0x1
 3243 01b4 50       		.byte	0x50
 3244 01b5 0E000000 		.4byte	.LVL34
 3245 01b9 3C010000 		.4byte	.LVL41
ARM GAS  C:\Users\ADMINI~1\AppData\Local\Temp\cclvVomf.s 			page 58


 3246 01bd 0100     		.2byte	0x1
 3247 01bf 55       		.byte	0x55
 3248 01c0 3C010000 		.4byte	.LVL41
 3249 01c4 A0010000 		.4byte	.LFE121
 3250 01c8 0400     		.2byte	0x4
 3251 01ca F3       		.byte	0xf3
 3252 01cb 01       		.uleb128 0x1
 3253 01cc 50       		.byte	0x50
 3254 01cd 9F       		.byte	0x9f
 3255 01ce 00000000 		.4byte	0
 3256 01d2 00000000 		.4byte	0
 3257              	.LLST13:
 3258 01d6 06000000 		.4byte	.LVL33
 3259 01da 0E000000 		.4byte	.LVL34
 3260 01de 0200     		.2byte	0x2
 3261 01e0 30       		.byte	0x30
 3262 01e1 9F       		.byte	0x9f
 3263 01e2 0E000000 		.4byte	.LVL34
 3264 01e6 52000000 		.4byte	.LVL39
 3265 01ea 0100     		.2byte	0x1
 3266 01ec 54       		.byte	0x54
 3267 01ed 00000000 		.4byte	0
 3268 01f1 00000000 		.4byte	0
 3269              	.LLST14:
 3270 01f5 00000000 		.4byte	.LVL42
 3271 01f9 07000000 		.4byte	.LVL43-1
 3272 01fd 0100     		.2byte	0x1
 3273 01ff 50       		.byte	0x50
 3274 0200 07000000 		.4byte	.LVL43-1
 3275 0204 5A000000 		.4byte	.LFE122
 3276 0208 0100     		.2byte	0x1
 3277 020a 56       		.byte	0x56
 3278 020b 00000000 		.4byte	0
 3279 020f 00000000 		.4byte	0
 3280              	.LLST15:
 3281 0213 12000000 		.4byte	.LVL44
 3282 0217 44000000 		.4byte	.LVL52
 3283 021b 0200     		.2byte	0x2
 3284 021d 31       		.byte	0x31
 3285 021e 9F       		.byte	0x9f
 3286 021f 44000000 		.4byte	.LVL52
 3287 0223 56000000 		.4byte	.LVL55
 3288 0227 0100     		.2byte	0x1
 3289 0229 54       		.byte	0x54
 3290 022a 56000000 		.4byte	.LVL55
 3291 022e 5A000000 		.4byte	.LFE122
 3292 0232 0200     		.2byte	0x2
 3293 0234 31       		.byte	0x31
 3294 0235 9F       		.byte	0x9f
 3295 0236 00000000 		.4byte	0
 3296 023a 00000000 		.4byte	0
 3297              	.LLST16:
 3298 023e 26000000 		.4byte	.LVL48
 3299 0242 30000000 		.4byte	.LVL49
 3300 0246 0D00     		.2byte	0xd
 3301 0248 75       		.byte	0x75
 3302 0249 01       		.sleb128 1
ARM GAS  C:\Users\ADMINI~1\AppData\Local\Temp\cclvVomf.s 			page 59


 3303 024a 94       		.byte	0x94
 3304 024b 01       		.byte	0x1
 3305 024c 08       		.byte	0x8
 3306 024d FF       		.byte	0xff
 3307 024e 1A       		.byte	0x1a
 3308 024f 71       		.byte	0x71
 3309 0250 00       		.sleb128 0
 3310 0251 38       		.byte	0x38
 3311 0252 24       		.byte	0x24
 3312 0253 21       		.byte	0x21
 3313 0254 9F       		.byte	0x9f
 3314 0255 30000000 		.4byte	.LVL49
 3315 0259 35000000 		.4byte	.LVL50-1
 3316 025d 1700     		.2byte	0x17
 3317 025f 75       		.byte	0x75
 3318 0260 01       		.sleb128 1
 3319 0261 94       		.byte	0x94
 3320 0262 01       		.byte	0x1
 3321 0263 08       		.byte	0x8
 3322 0264 FF       		.byte	0xff
 3323 0265 1A       		.byte	0x1a
 3324 0266 74       		.byte	0x74
 3325 0267 00       		.sleb128 0
 3326 0268 31       		.byte	0x31
 3327 0269 24       		.byte	0x24
 3328 026a 76       		.byte	0x76
 3329 026b 00       		.sleb128 0
 3330 026c 22       		.byte	0x22
 3331 026d 94       		.byte	0x94
 3332 026e 01       		.byte	0x1
 3333 026f 08       		.byte	0x8
 3334 0270 FF       		.byte	0xff
 3335 0271 1A       		.byte	0x1a
 3336 0272 38       		.byte	0x38
 3337 0273 24       		.byte	0x24
 3338 0274 21       		.byte	0x21
 3339 0275 9F       		.byte	0x9f
 3340 0276 00000000 		.4byte	0
 3341 027a 00000000 		.4byte	0
 3342              	.LLST17:
 3343 027e 18000000 		.4byte	.LVL45
 3344 0282 1E000000 		.4byte	.LVL46
 3345 0286 0200     		.2byte	0x2
 3346 0288 30       		.byte	0x30
 3347 0289 9F       		.byte	0x9f
 3348 028a 1E000000 		.4byte	.LVL46
 3349 028e 44000000 		.4byte	.LVL52
 3350 0292 0100     		.2byte	0x1
 3351 0294 54       		.byte	0x54
 3352 0295 56000000 		.4byte	.LVL55
 3353 0299 58000000 		.4byte	.LVL56
 3354 029d 0100     		.2byte	0x1
 3355 029f 54       		.byte	0x54
 3356 02a0 00000000 		.4byte	0
 3357 02a4 00000000 		.4byte	0
 3358              	.LLST18:
 3359 02a8 00000000 		.4byte	.LVL57
ARM GAS  C:\Users\ADMINI~1\AppData\Local\Temp\cclvVomf.s 			page 60


 3360 02ac 02000000 		.4byte	.LVL58
 3361 02b0 0100     		.2byte	0x1
 3362 02b2 50       		.byte	0x50
 3363 02b3 02000000 		.4byte	.LVL58
 3364 02b7 04000000 		.4byte	.LFE123
 3365 02bb 0400     		.2byte	0x4
 3366 02bd F3       		.byte	0xf3
 3367 02be 01       		.uleb128 0x1
 3368 02bf 50       		.byte	0x50
 3369 02c0 9F       		.byte	0x9f
 3370 02c1 00000000 		.4byte	0
 3371 02c5 00000000 		.4byte	0
 3372              		.section	.debug_aranges,"",%progbits
 3373 0000 44000000 		.4byte	0x44
 3374 0004 0200     		.2byte	0x2
 3375 0006 00000000 		.4byte	.Ldebug_info0
 3376 000a 04       		.byte	0x4
 3377 000b 00       		.byte	0
 3378 000c 0000     		.2byte	0
 3379 000e 0000     		.2byte	0
 3380 0010 00000000 		.4byte	.LFB118
 3381 0014 58000000 		.4byte	.LFE118-.LFB118
 3382 0018 00000000 		.4byte	.LFB119
 3383 001c 24010000 		.4byte	.LFE119-.LFB119
 3384 0020 00000000 		.4byte	.LFB120
 3385 0024 5A000000 		.4byte	.LFE120-.LFB120
 3386 0028 00000000 		.4byte	.LFB121
 3387 002c A0010000 		.4byte	.LFE121-.LFB121
 3388 0030 00000000 		.4byte	.LFB122
 3389 0034 5A000000 		.4byte	.LFE122-.LFB122
 3390 0038 00000000 		.4byte	.LFB123
 3391 003c 04000000 		.4byte	.LFE123-.LFB123
 3392 0040 00000000 		.4byte	0
 3393 0044 00000000 		.4byte	0
 3394              		.section	.debug_ranges,"",%progbits
 3395              	.Ldebug_ranges0:
 3396 0000 1A000000 		.4byte	.LBB5
 3397 0004 44000000 		.4byte	.LBE5
 3398 0008 58000000 		.4byte	.LBB6
 3399 000c 5A000000 		.4byte	.LBE6
 3400 0010 00000000 		.4byte	0
 3401 0014 00000000 		.4byte	0
 3402 0018 1A000000 		.4byte	.LBB8
 3403 001c 44000000 		.4byte	.LBE8
 3404 0020 58000000 		.4byte	.LBB9
 3405 0024 5A000000 		.4byte	.LBE9
 3406 0028 00000000 		.4byte	0
 3407 002c 00000000 		.4byte	0
 3408 0030 00000000 		.4byte	.LFB118
 3409 0034 58000000 		.4byte	.LFE118
 3410 0038 00000000 		.4byte	.LFB119
 3411 003c 24010000 		.4byte	.LFE119
 3412 0040 00000000 		.4byte	.LFB120
 3413 0044 5A000000 		.4byte	.LFE120
 3414 0048 00000000 		.4byte	.LFB121
 3415 004c A0010000 		.4byte	.LFE121
 3416 0050 00000000 		.4byte	.LFB122
ARM GAS  C:\Users\ADMINI~1\AppData\Local\Temp\cclvVomf.s 			page 61


 3417 0054 5A000000 		.4byte	.LFE122
 3418 0058 00000000 		.4byte	.LFB123
 3419 005c 04000000 		.4byte	.LFE123
 3420 0060 00000000 		.4byte	0
 3421 0064 00000000 		.4byte	0
 3422              		.section	.debug_line,"",%progbits
 3423              	.Ldebug_line0:
 3424 0000 A9030000 		.section	.debug_str,"MS",%progbits,1
 3424      0200D301 
 3424      00000201 
 3424      FB0E0D00 
 3424      01010101 
 3425              	.LASF22:
 3426 0000 50574D5F 		.ascii	"PWM_MODE_NONSYNCHRONOUS_HISW\000"
 3426      4D4F4445 
 3426      5F4E4F4E 
 3426      53594E43 
 3426      48524F4E 
 3427              	.LASF128:
 3428 001d 766F6C74 		.ascii	"voltage_inverted\000"
 3428      6167655F 
 3428      696E7665 
 3428      72746564 
 3428      00
 3429              	.LASF58:
 3430 002e 6C6F5F69 		.ascii	"lo_in_current_min\000"
 3430      6E5F6375 
 3430      7272656E 
 3430      745F6D69 
 3430      6E00
 3431              	.LASF68:
 3432 0040 68616C6C 		.ascii	"hall_fwd_add\000"
 3432      5F667764 
 3432      5F616464 
 3432      00
 3433              	.LASF33:
 3434 004d 70776D5F 		.ascii	"pwm_mode\000"
 3434      6D6F6465 
 3434      00
 3435              	.LASF141:
 3436 0056 73656E64 		.ascii	"send_can_status\000"
 3436      5F63616E 
 3436      5F737461 
 3436      74757300 
 3437              	.LASF1:
 3438 0066 5F5F7569 		.ascii	"__uint8_t\000"
 3438      6E74385F 
 3438      7400
 3439              	.LASF102:
 3440 0070 6374726C 		.ascii	"ctrl_type\000"
 3440      5F747970 
 3440      6500
 3441              	.LASF135:
 3442 007a 72616D70 		.ascii	"ramp_time_pos\000"
 3442      5F74696D 
 3442      655F706F 
 3442      7300
ARM GAS  C:\Users\ADMINI~1\AppData\Local\Temp\cclvVomf.s 			page 62


 3443              	.LASF86:
 3444 0088 4150505F 		.ascii	"APP_UART\000"
 3444      55415254 
 3444      00
 3445              	.LASF123:
 3446 0091 6164635F 		.ascii	"adc_control_type\000"
 3446      636F6E74 
 3446      726F6C5F 
 3446      74797065 
 3446      00
 3447              	.LASF124:
 3448 00a2 766F6C74 		.ascii	"voltage_start\000"
 3448      6167655F 
 3448      73746172 
 3448      7400
 3449              	.LASF136:
 3450 00b0 72616D70 		.ascii	"ramp_time_neg\000"
 3450      5F74696D 
 3450      655F6E65 
 3450      6700
 3451              	.LASF12:
 3452 00be 6C6F6E67 		.ascii	"long long unsigned int\000"
 3452      206C6F6E 
 3452      6720756E 
 3452      7369676E 
 3452      65642069 
 3453              	.LASF66:
 3454 00d5 736C5F62 		.ascii	"sl_bemf_coupling_k\000"
 3454      656D665F 
 3454      636F7570 
 3454      6C696E67 
 3454      5F6B00
 3455              	.LASF41:
 3456 00e8 6C5F6D69 		.ascii	"l_min_erpm\000"
 3456      6E5F6572 
 3456      706D00
 3457              	.LASF82:
 3458 00f3 6D635F63 		.ascii	"mc_configuration\000"
 3458      6F6E6669 
 3458      67757261 
 3458      74696F6E 
 3458      00
 3459              	.LASF42:
 3460 0104 6C5F6D61 		.ascii	"l_max_erpm\000"
 3460      785F6572 
 3460      706D00
 3461              	.LASF26:
 3462 010f 434F4D4D 		.ascii	"COMM_MODE_INTEGRATE\000"
 3462      5F4D4F44 
 3462      455F494E 
 3462      54454752 
 3462      41544500 
 3463              	.LASF145:
 3464 0123 6170705F 		.ascii	"app_adc_conf\000"
 3464      6164635F 
 3464      636F6E66 
 3464      00
ARM GAS  C:\Users\ADMINI~1\AppData\Local\Temp\cclvVomf.s 			page 63


 3465              	.LASF64:
 3466 0130 736C5F70 		.ascii	"sl_phase_advance_at_br\000"
 3466      68617365 
 3466      5F616476 
 3466      616E6365 
 3466      5F61745F 
 3467              	.LASF112:
 3468 0147 74635F6D 		.ascii	"tc_max_diff\000"
 3468      61785F64 
 3468      69666600 
 3469              	.LASF67:
 3470 0153 68616C6C 		.ascii	"hall_dir\000"
 3470      5F646972 
 3470      00
 3471              	.LASF62:
 3472 015c 736C5F6D 		.ascii	"sl_max_fullbreak_current_dir_change\000"
 3472      61785F66 
 3472      756C6C62 
 3472      7265616B 
 3472      5F637572 
 3473              	.LASF158:
 3474 0180 464C4153 		.ascii	"FLASH_ERROR_OPERATION\000"
 3474      485F4552 
 3474      524F525F 
 3474      4F504552 
 3474      4154494F 
 3475              	.LASF11:
 3476 0196 6C6F6E67 		.ascii	"long long int\000"
 3476      206C6F6E 
 3476      6720696E 
 3476      7400
 3477              	.LASF2:
 3478 01a4 7369676E 		.ascii	"signed char\000"
 3478      65642063 
 3478      68617200 
 3479              	.LASF76:
 3480 01b0 705F7069 		.ascii	"p_pid_kd\000"
 3480      645F6B64 
 3480      00
 3481              	.LASF75:
 3482 01b9 705F7069 		.ascii	"p_pid_ki\000"
 3482      645F6B69 
 3482      00
 3483              	.LASF152:
 3484 01c2 464C4153 		.ascii	"FLASH_BUSY\000"
 3484      485F4255 
 3484      535900
 3485              	.LASF0:
 3486 01cd 5F5F696E 		.ascii	"__int8_t\000"
 3486      74385F74 
 3486      00
 3487              	.LASF74:
 3488 01d6 705F7069 		.ascii	"p_pid_kp\000"
 3488      645F6B70 
 3488      00
 3489              	.LASF174:
 3490 01df 6F6B5F73 		.ascii	"ok_steps\000"
ARM GAS  C:\Users\ADMINI~1\AppData\Local\Temp\cclvVomf.s 			page 64


 3490      74657073 
 3490      00
 3491              	.LASF164:
 3492 01e8 636F6E66 		.ascii	"conf\000"
 3492      00
 3493              	.LASF166:
 3494 01ed 636F6E66 		.ascii	"conf_general_store_app_configuration\000"
 3494      5F67656E 
 3494      6572616C 
 3494      5F73746F 
 3494      72655F61 
 3495              	.LASF8:
 3496 0212 6C6F6E67 		.ascii	"long int\000"
 3496      20696E74 
 3496      00
 3497              	.LASF114:
 3498 021b 4144435F 		.ascii	"ADC_CTRL_TYPE_NONE\000"
 3498      4354524C 
 3498      5F545950 
 3498      455F4E4F 
 3498      4E4500
 3499              	.LASF140:
 3500 022e 74696D65 		.ascii	"timeout_brake_current\000"
 3500      6F75745F 
 3500      6272616B 
 3500      655F6375 
 3500      7272656E 
 3501              	.LASF120:
 3502 0244 4144435F 		.ascii	"ADC_CTRL_TYPE_DUTY\000"
 3502      4354524C 
 3502      5F545950 
 3502      455F4455 
 3502      545900
 3503              	.LASF13:
 3504 0257 756E7369 		.ascii	"unsigned int\000"
 3504      676E6564 
 3504      20696E74 
 3504      00
 3505              	.LASF53:
 3506 0264 6C5F6D69 		.ascii	"l_min_duty\000"
 3506      6E5F6475 
 3506      747900
 3507              	.LASF36:
 3508 026f 6C5F6375 		.ascii	"l_current_max\000"
 3508      7272656E 
 3508      745F6D61 
 3508      7800
 3509              	.LASF150:
 3510 027d 454E4142 		.ascii	"ENABLE\000"
 3510      4C4500
 3511              	.LASF100:
 3512 0284 50504D5F 		.ascii	"PPM_CTRL_TYPE_PID_NOREV\000"
 3512      4354524C 
 3512      5F545950 
 3512      455F5049 
 3512      445F4E4F 
 3513              	.LASF54:
ARM GAS  C:\Users\ADMINI~1\AppData\Local\Temp\cclvVomf.s 			page 65


 3514 029c 6C5F6D61 		.ascii	"l_max_duty\000"
 3514      785F6475 
 3514      747900
 3515              	.LASF16:
 3516 02a7 75696E74 		.ascii	"uint16_t\000"
 3516      31365F74 
 3516      00
 3517              	.LASF57:
 3518 02b0 6C6F5F69 		.ascii	"lo_in_current_max\000"
 3518      6E5F6375 
 3518      7272656E 
 3518      745F6D61 
 3518      7800
 3519              	.LASF39:
 3520 02c2 6C5F696E 		.ascii	"l_in_current_min\000"
 3520      5F637572 
 3520      72656E74 
 3520      5F6D696E 
 3520      00
 3521              	.LASF72:
 3522 02d3 735F7069 		.ascii	"s_pid_kd\000"
 3522      645F6B64 
 3522      00
 3523              	.LASF31:
 3524 02dc 6D635F6D 		.ascii	"mc_motor_type\000"
 3524      6F746F72 
 3524      5F747970 
 3524      6500
 3525              	.LASF134:
 3526 02ea 6368756B 		.ascii	"chuk_control_type\000"
 3526      5F636F6E 
 3526      74726F6C 
 3526      5F747970 
 3526      6500
 3527              	.LASF96:
 3528 02fc 50504D5F 		.ascii	"PPM_CTRL_TYPE_CURRENT_NOREV_BRAKE\000"
 3528      4354524C 
 3528      5F545950 
 3528      455F4355 
 3528      5252454E 
 3529              	.LASF113:
 3530 031e 70706D5F 		.ascii	"ppm_config\000"
 3530      636F6E66 
 3530      696700
 3531              	.LASF121:
 3532 0329 4144435F 		.ascii	"ADC_CTRL_TYPE_DUTY_REV_CENTER\000"
 3532      4354524C 
 3532      5F545950 
 3532      455F4455 
 3532      54595F52 
 3533              	.LASF70:
 3534 0347 735F7069 		.ascii	"s_pid_kp\000"
 3534      645F6B70 
 3534      00
 3535              	.LASF119:
 3536 0350 4144435F 		.ascii	"ADC_CTRL_TYPE_CURRENT_NOREV_BRAKE_BUTTON\000"
 3536      4354524C 
ARM GAS  C:\Users\ADMINI~1\AppData\Local\Temp\cclvVomf.s 			page 66


 3536      5F545950 
 3536      455F4355 
 3536      5252454E 
 3537              	.LASF9:
 3538 0379 5F5F7569 		.ascii	"__uint32_t\000"
 3538      6E743332 
 3538      5F7400
 3539              	.LASF139:
 3540 0384 74696D65 		.ascii	"timeout_msec\000"
 3540      6F75745F 
 3540      6D736563 
 3540      00
 3541              	.LASF60:
 3542 0391 736C5F6D 		.ascii	"sl_min_erpm\000"
 3542      696E5F65 
 3542      72706D00 
 3543              	.LASF89:
 3544 039d 4150505F 		.ascii	"APP_NUNCHUK\000"
 3544      4E554E43 
 3544      48554B00 
 3545              	.LASF165:
 3546 03a9 636F6E66 		.ascii	"conf_general_read_mc_configuration\000"
 3546      5F67656E 
 3546      6572616C 
 3546      5F726561 
 3546      645F6D63 
 3547              	.LASF171:
 3548 03cc 6C6F775F 		.ascii	"low_duty\000"
 3548      64757479 
 3548      00
 3549              	.LASF44:
 3550 03d5 6C5F6D61 		.ascii	"l_max_erpm_fbrake_cc\000"
 3550      785F6572 
 3550      706D5F66 
 3550      6272616B 
 3550      655F6363 
 3551              	.LASF149:
 3552 03ea 44495341 		.ascii	"DISABLE\000"
 3552      424C4500 
 3553              	.LASF48:
 3554 03f2 6C5F7270 		.ascii	"l_rpm_lim_neg_torque\000"
 3554      6D5F6C69 
 3554      6D5F6E65 
 3554      675F746F 
 3554      72717565 
 3555              	.LASF55:
 3556 0407 6C6F5F63 		.ascii	"lo_current_max\000"
 3556      75727265 
 3556      6E745F6D 
 3556      617800
 3557              	.LASF23:
 3558 0416 50574D5F 		.ascii	"PWM_MODE_SYNCHRONOUS\000"
 3558      4D4F4445 
 3558      5F53594E 
 3558      4348524F 
 3558      4E4F5553 
 3559              	.LASF10:
ARM GAS  C:\Users\ADMINI~1\AppData\Local\Temp\cclvVomf.s 			page 67


 3560 042b 6C6F6E67 		.ascii	"long unsigned int\000"
 3560      20756E73 
 3560      69676E65 
 3560      6420696E 
 3560      7400
 3561              	.LASF27:
 3562 043d 434F4D4D 		.ascii	"COMM_MODE_DELAY\000"
 3562      5F4D4F44 
 3562      455F4445 
 3562      4C415900 
 3563              	.LASF56:
 3564 044d 6C6F5F63 		.ascii	"lo_current_min\000"
 3564      75727265 
 3564      6E745F6D 
 3564      696E00
 3565              	.LASF170:
 3566 045c 6D696E5F 		.ascii	"min_rpm\000"
 3566      72706D00 
 3567              	.LASF73:
 3568 0464 735F7069 		.ascii	"s_pid_min_rpm\000"
 3568      645F6D69 
 3568      6E5F7270 
 3568      6D00
 3569              	.LASF148:
 3570 0472 6170705F 		.ascii	"app_configuration\000"
 3570      636F6E66 
 3570      69677572 
 3570      6174696F 
 3570      6E00
 3571              	.LASF6:
 3572 0484 73686F72 		.ascii	"short unsigned int\000"
 3572      7420756E 
 3572      7369676E 
 3572      65642069 
 3572      6E7400
 3573              	.LASF131:
 3574 0497 4348554B 		.ascii	"CHUK_CTRL_TYPE_NONE\000"
 3574      5F435452 
 3574      4C5F5459 
 3574      50455F4E 
 3574      4F4E4500 
 3575              	.LASF125:
 3576 04ab 766F6C74 		.ascii	"voltage_end\000"
 3576      6167655F 
 3576      656E6400 
 3577              	.LASF168:
 3578 04b7 636F6E66 		.ascii	"conf_general_detect_motor_param\000"
 3578      5F67656E 
 3578      6572616C 
 3578      5F646574 
 3578      6563745F 
 3579              	.LASF98:
 3580 04d7 50504D5F 		.ascii	"PPM_CTRL_TYPE_DUTY_NOREV\000"
 3580      4354524C 
 3580      5F545950 
 3580      455F4455 
 3580      54595F4E 
ARM GAS  C:\Users\ADMINI~1\AppData\Local\Temp\cclvVomf.s 			page 68


 3581              	.LASF47:
 3582 04f0 6C5F736C 		.ascii	"l_slow_abs_current\000"
 3582      6F775F61 
 3582      62735F63 
 3582      75727265 
 3582      6E7400
 3583              	.LASF34:
 3584 0503 636F6D6D 		.ascii	"comm_mode\000"
 3584      5F6D6F64 
 3584      6500
 3585              	.LASF129:
 3586 050d 75706461 		.ascii	"update_rate_hz\000"
 3586      74655F72 
 3586      6174655F 
 3586      687A00
 3587              	.LASF24:
 3588 051c 50574D5F 		.ascii	"PWM_MODE_BIPOLAR\000"
 3588      4D4F4445 
 3588      5F424950 
 3588      4F4C4152 
 3588      00
 3589              	.LASF162:
 3590 052d 69735F6F 		.ascii	"is_ok\000"
 3590      6B00
 3591              	.LASF188:
 3592 0533 45455F49 		.ascii	"EE_Init\000"
 3592      6E697400 
 3593              	.LASF90:
 3594 053b 4150505F 		.ascii	"APP_NRF\000"
 3594      4E524600 
 3595              	.LASF130:
 3596 0543 6164635F 		.ascii	"adc_config\000"
 3596      636F6E66 
 3596      696700
 3597              	.LASF110:
 3598 054e 72706D5F 		.ascii	"rpm_lim_end\000"
 3598      6C696D5F 
 3598      656E6400 
 3599              	.LASF97:
 3600 055a 50504D5F 		.ascii	"PPM_CTRL_TYPE_DUTY\000"
 3600      4354524C 
 3600      5F545950 
 3600      455F4455 
 3600      545900
 3601              	.LASF177:
 3602 056d 6D656D73 		.ascii	"memset\000"
 3602      657400
 3603              	.LASF43:
 3604 0574 6C5F6D61 		.ascii	"l_max_erpm_fbrake\000"
 3604      785F6572 
 3604      706D5F66 
 3604      6272616B 
 3604      6500
 3605              	.LASF106:
 3606 0586 70756C73 		.ascii	"pulse_end\000"
 3606      655F656E 
 3606      6400
ARM GAS  C:\Users\ADMINI~1\AppData\Local\Temp\cclvVomf.s 			page 69


 3607              	.LASF17:
 3608 0590 696E7433 		.ascii	"int32_t\000"
 3608      325F7400 
 3609              	.LASF20:
 3610 0598 73697A65 		.ascii	"sizetype\000"
 3610      74797065 
 3610      00
 3611              	.LASF163:
 3612 05a1 636F6E66 		.ascii	"conf_addr\000"
 3612      5F616464 
 3612      7200
 3613              	.LASF104:
 3614 05ab 68797374 		.ascii	"hyst\000"
 3614      00
 3615              	.LASF25:
 3616 05b0 6D635F70 		.ascii	"mc_pwm_mode\000"
 3616      776D5F6D 
 3616      6F646500 
 3617              	.LASF38:
 3618 05bc 6C5F696E 		.ascii	"l_in_current_max\000"
 3618      5F637572 
 3618      72656E74 
 3618      5F6D6178 
 3618      00
 3619              	.LASF103:
 3620 05cd 7069645F 		.ascii	"pid_max_erpm\000"
 3620      6D61785F 
 3620      6572706D 
 3620      00
 3621              	.LASF49:
 3622 05da 6C5F7465 		.ascii	"l_temp_fet_start\000"
 3622      6D705F66 
 3622      65745F73 
 3622      74617274 
 3622      00
 3623              	.LASF138:
 3624 05eb 636F6E74 		.ascii	"controller_id\000"
 3624      726F6C6C 
 3624      65725F69 
 3624      6400
 3625              	.LASF93:
 3626 05f9 50504D5F 		.ascii	"PPM_CTRL_TYPE_NONE\000"
 3626      4354524C 
 3626      5F545950 
 3626      455F4E4F 
 3626      4E4500
 3627              	.LASF28:
 3628 060c 6D635F63 		.ascii	"mc_comm_mode\000"
 3628      6F6D6D5F 
 3628      6D6F6465 
 3628      00
 3629              	.LASF77:
 3630 0619 63635F73 		.ascii	"cc_startup_boost_duty\000"
 3630      74617274 
 3630      75705F62 
 3630      6F6F7374 
 3630      5F647574 
ARM GAS  C:\Users\ADMINI~1\AppData\Local\Temp\cclvVomf.s 			page 70


 3631              	.LASF91:
 3632 062f 4150505F 		.ascii	"APP_CUSTOM\000"
 3632      43555354 
 3632      4F4D00
 3633              	.LASF78:
 3634 063a 63635F6D 		.ascii	"cc_min_current\000"
 3634      696E5F63 
 3634      75727265 
 3634      6E7400
 3635              	.LASF151:
 3636 0649 46756E63 		.ascii	"FunctionalState\000"
 3636      74696F6E 
 3636      616C5374 
 3636      61746500 
 3637              	.LASF184:
 3638 0659 7574696C 		.ascii	"utils_sys_unlock_cnt\000"
 3638      735F7379 
 3638      735F756E 
 3638      6C6F636B 
 3638      5F636E74 
 3639              	.LASF88:
 3640 066e 4150505F 		.ascii	"APP_ADC_UART\000"
 3640      4144435F 
 3640      55415254 
 3640      00
 3641              	.LASF146:
 3642 067b 6170705F 		.ascii	"app_uart_baudrate\000"
 3642      75617274 
 3642      5F626175 
 3642      64726174 
 3642      6500
 3643              	.LASF30:
 3644 068d 4D4F544F 		.ascii	"MOTOR_TYPE_DC\000"
 3644      525F5459 
 3644      50455F44 
 3644      4300
 3645              	.LASF157:
 3646 069b 464C4153 		.ascii	"FLASH_ERROR_PROGRAM\000"
 3646      485F4552 
 3646      524F525F 
 3646      50524F47 
 3646      52414D00 
 3647              	.LASF109:
 3648 06af 72706D5F 		.ascii	"rpm_lim_start\000"
 3648      6C696D5F 
 3648      73746172 
 3648      7400
 3649              	.LASF161:
 3650 06bd 636F6E66 		.ascii	"conf_general_read_app_configuration\000"
 3650      5F67656E 
 3650      6572616C 
 3650      5F726561 
 3650      645F6170 
 3651              	.LASF32:
 3652 06e1 666C6F61 		.ascii	"float\000"
 3652      7400
 3653              	.LASF51:
ARM GAS  C:\Users\ADMINI~1\AppData\Local\Temp\cclvVomf.s 			page 71


 3654 06e7 6C5F7465 		.ascii	"l_temp_motor_start\000"
 3654      6D705F6D 
 3654      6F746F72 
 3654      5F737461 
 3654      727400
 3655              	.LASF45:
 3656 06fa 6C5F6D69 		.ascii	"l_min_vin\000"
 3656      6E5F7669 
 3656      6E00
 3657              	.LASF65:
 3658 0704 736C5F63 		.ascii	"sl_cycle_int_rpm_br\000"
 3658      79636C65 
 3658      5F696E74 
 3658      5F72706D 
 3658      5F627200 
 3659              	.LASF101:
 3660 0718 70706D5F 		.ascii	"ppm_control_type\000"
 3660      636F6E74 
 3660      726F6C5F 
 3660      74797065 
 3660      00
 3661              	.LASF186:
 3662 0729 636F6E66 		.ascii	"conf_general.c\000"
 3662      5F67656E 
 3662      6572616C 
 3662      2E6300
 3663              	.LASF35:
 3664 0738 6D6F746F 		.ascii	"motor_type\000"
 3664      725F7479 
 3664      706500
 3665              	.LASF173:
 3666 0743 62656D66 		.ascii	"bemf_coupling_k\000"
 3666      5F636F75 
 3666      706C696E 
 3666      675F6B00 
 3667              	.LASF117:
 3668 0753 4144435F 		.ascii	"ADC_CTRL_TYPE_CURRENT_REV_BUTTON\000"
 3668      4354524C 
 3668      5F545950 
 3668      455F4355 
 3668      5252454E 
 3669              	.LASF19:
 3670 0774 5F426F6F 		.ascii	"_Bool\000"
 3670      6C00
 3671              	.LASF111:
 3672 077a 6D756C74 		.ascii	"multi_esc\000"
 3672      695F6573 
 3672      6300
 3673              	.LASF3:
 3674 0784 756E7369 		.ascii	"unsigned char\000"
 3674      676E6564 
 3674      20636861 
 3674      7200
 3675              	.LASF80:
 3676 0792 63635F72 		.ascii	"cc_ramp_step_max\000"
 3676      616D705F 
 3676      73746570 
ARM GAS  C:\Users\ADMINI~1\AppData\Local\Temp\cclvVomf.s 			page 72


 3676      5F6D6178 
 3676      00
 3677              	.LASF175:
 3678 07a3 49544D5F 		.ascii	"ITM_RxBuffer\000"
 3678      52784275 
 3678      66666572 
 3678      00
 3679              	.LASF172:
 3680 07b0 696E745F 		.ascii	"int_limit\000"
 3680      6C696D69 
 3680      7400
 3681              	.LASF107:
 3682 07ba 6D656469 		.ascii	"median_filter\000"
 3682      616E5F66 
 3682      696C7465 
 3682      7200
 3683              	.LASF4:
 3684 07c8 73686F72 		.ascii	"short int\000"
 3684      7420696E 
 3684      7400
 3685              	.LASF116:
 3686 07d2 4144435F 		.ascii	"ADC_CTRL_TYPE_CURRENT_REV_CENTER\000"
 3686      4354524C 
 3686      5F545950 
 3686      455F4355 
 3686      5252454E 
 3687              	.LASF61:
 3688 07f3 736C5F6D 		.ascii	"sl_min_erpm_cycle_int_limit\000"
 3688      696E5F65 
 3688      72706D5F 
 3688      6379636C 
 3688      655F696E 
 3689              	.LASF99:
 3690 080f 50504D5F 		.ascii	"PPM_CTRL_TYPE_PID\000"
 3690      4354524C 
 3690      5F545950 
 3690      455F5049 
 3690      4400
 3691              	.LASF105:
 3692 0821 70756C73 		.ascii	"pulse_start\000"
 3692      655F7374 
 3692      61727400 
 3693              	.LASF46:
 3694 082d 6C5F6D61 		.ascii	"l_max_vin\000"
 3694      785F7669 
 3694      6E00
 3695              	.LASF59:
 3696 0837 736C5F69 		.ascii	"sl_is_sensorless\000"
 3696      735F7365 
 3696      6E736F72 
 3696      6C657373 
 3696      00
 3697              	.LASF181:
 3698 0848 464C4153 		.ascii	"FLASH_Unlock\000"
 3698      485F556E 
 3698      6C6F636B 
 3698      00
ARM GAS  C:\Users\ADMINI~1\AppData\Local\Temp\cclvVomf.s 			page 73


 3699              	.LASF52:
 3700 0855 6C5F7465 		.ascii	"l_temp_motor_end\000"
 3700      6D705F6D 
 3700      6F746F72 
 3700      5F656E64 
 3700      00
 3701              	.LASF169:
 3702 0866 63757272 		.ascii	"current\000"
 3702      656E7400 
 3703              	.LASF143:
 3704 086e 6170705F 		.ascii	"app_to_use\000"
 3704      746F5F75 
 3704      736500
 3705              	.LASF155:
 3706 0879 464C4153 		.ascii	"FLASH_ERROR_PGA\000"
 3706      485F4552 
 3706      524F525F 
 3706      50474100 
 3707              	.LASF127:
 3708 0889 62757474 		.ascii	"button_inverted\000"
 3708      6F6E5F69 
 3708      6E766572 
 3708      74656400 
 3709              	.LASF182:
 3710 0899 7574696C 		.ascii	"utils_sys_lock_cnt\000"
 3710      735F7379 
 3710      735F6C6F 
 3710      636B5F63 
 3710      6E7400
 3711              	.LASF83:
 3712 08ac 4150505F 		.ascii	"APP_NONE\000"
 3712      4E4F4E45 
 3712      00
 3713              	.LASF21:
 3714 08b5 63686172 		.ascii	"char\000"
 3714      00
 3715              	.LASF154:
 3716 08ba 464C4153 		.ascii	"FLASH_ERROR_PGP\000"
 3716      485F4552 
 3716      524F525F 
 3716      50475000 
 3717              	.LASF153:
 3718 08ca 464C4153 		.ascii	"FLASH_ERROR_PGS\000"
 3718      485F4552 
 3718      524F525F 
 3718      50475300 
 3719              	.LASF160:
 3720 08da 636F6E66 		.ascii	"conf_general_init\000"
 3720      5F67656E 
 3720      6572616C 
 3720      5F696E69 
 3720      7400
 3721              	.LASF5:
 3722 08ec 5F5F7569 		.ascii	"__uint16_t\000"
 3722      6E743136 
 3722      5F7400
 3723              	.LASF81:
ARM GAS  C:\Users\ADMINI~1\AppData\Local\Temp\cclvVomf.s 			page 74


 3724 08f7 6D5F6661 		.ascii	"m_fault_stop_time_ms\000"
 3724      756C745F 
 3724      73746F70 
 3724      5F74696D 
 3724      655F6D73 
 3725              	.LASF144:
 3726 090c 6170705F 		.ascii	"app_ppm_conf\000"
 3726      70706D5F 
 3726      636F6E66 
 3726      00
 3727              	.LASF7:
 3728 0919 5F5F696E 		.ascii	"__int32_t\000"
 3728      7433325F 
 3728      7400
 3729              	.LASF185:
 3730 0923 474E5520 		.ascii	"GNU C 4.9.3 20150529 (release) [ARM/embedded-4_9-br"
 3730      4320342E 
 3730      392E3320 
 3730      32303135 
 3730      30353239 
 3731 0956 616E6368 		.ascii	"anch revision 224288] -mcpu=cortex-m4 -mfloat-abi=h"
 3731      20726576 
 3731      6973696F 
 3731      6E203232 
 3731      34323838 
 3732 0989 61726420 		.ascii	"ard -mfpu=fpv4-sp-d16 -mno-thumb-interwork -mthumb "
 3732      2D6D6670 
 3732      753D6670 
 3732      76342D73 
 3732      702D6431 
 3733 09bc 2D676764 		.ascii	"-ggdb -O2 -std=gnu99 -fomit-frame-pointer -falign-f"
 3733      62202D4F 
 3733      32202D73 
 3733      74643D67 
 3733      6E753939 
 3734 09ef 756E6374 		.ascii	"unctions=16 -ffunction-sections -fdata-sections -fn"
 3734      696F6E73 
 3734      3D313620 
 3734      2D666675 
 3734      6E637469 
 3735 0a22 6F2D636F 		.ascii	"o-common -fsingle-precision-constant\000"
 3735      6D6D6F6E 
 3735      202D6673 
 3735      696E676C 
 3735      652D7072 
 3736              	.LASF115:
 3737 0a47 4144435F 		.ascii	"ADC_CTRL_TYPE_CURRENT\000"
 3737      4354524C 
 3737      5F545950 
 3737      455F4355 
 3737      5252454E 
 3738              	.LASF84:
 3739 0a5d 4150505F 		.ascii	"APP_PPM\000"
 3739      50504D00 
 3740              	.LASF137:
 3741 0a65 6368756B 		.ascii	"chuk_config\000"
 3741      5F636F6E 
ARM GAS  C:\Users\ADMINI~1\AppData\Local\Temp\cclvVomf.s 			page 75


 3741      66696700 
 3742              	.LASF176:
 3743 0a71 56697274 		.ascii	"VirtAddVarTab\000"
 3743      41646456 
 3743      61725461 
 3743      6200
 3744              	.LASF69:
 3745 0a7f 68616C6C 		.ascii	"hall_rev_add\000"
 3745      5F726576 
 3745      5F616464 
 3745      00
 3746              	.LASF40:
 3747 0a8c 6C5F6162 		.ascii	"l_abs_current_max\000"
 3747      735F6375 
 3747      7272656E 
 3747      745F6D61 
 3747      7800
 3748              	.LASF14:
 3749 0a9e 696E7438 		.ascii	"int8_t\000"
 3749      5F7400
 3750              	.LASF122:
 3751 0aa5 4144435F 		.ascii	"ADC_CTRL_TYPE_DUTY_REV_BUTTON\000"
 3751      4354524C 
 3751      5F545950 
 3751      455F4455 
 3751      54595F52 
 3752              	.LASF179:
 3753 0ac3 45455F52 		.ascii	"EE_ReadVariable\000"
 3753      65616456 
 3753      61726961 
 3753      626C6500 
 3754              	.LASF180:
 3755 0ad3 45455F57 		.ascii	"EE_WriteVariable\000"
 3755      72697465 
 3755      56617269 
 3755      61626C65 
 3755      00
 3756              	.LASF132:
 3757 0ae4 4348554B 		.ascii	"CHUK_CTRL_TYPE_CURRENT\000"
 3757      5F435452 
 3757      4C5F5459 
 3757      50455F43 
 3757      55525245 
 3758              	.LASF18:
 3759 0afb 75696E74 		.ascii	"uint32_t\000"
 3759      33325F74 
 3759      00
 3760              	.LASF147:
 3761 0b04 6170705F 		.ascii	"app_chuk_conf\000"
 3761      6368756B 
 3761      5F636F6E 
 3761      6600
 3762              	.LASF167:
 3763 0b12 636F6E66 		.ascii	"conf_general_store_mc_configuration\000"
 3763      5F67656E 
 3763      6572616C 
 3763      5F73746F 
ARM GAS  C:\Users\ADMINI~1\AppData\Local\Temp\cclvVomf.s 			page 76


 3763      72655F6D 
 3764              	.LASF37:
 3765 0b36 6C5F6375 		.ascii	"l_current_min\000"
 3765      7272656E 
 3765      745F6D69 
 3765      6E00
 3766              	.LASF178:
 3767 0b44 464C4153 		.ascii	"FLASH_ClearFlag\000"
 3767      485F436C 
 3767      65617246 
 3767      6C616700 
 3768              	.LASF95:
 3769 0b54 50504D5F 		.ascii	"PPM_CTRL_TYPE_CURRENT_NOREV\000"
 3769      4354524C 
 3769      5F545950 
 3769      455F4355 
 3769      5252454E 
 3770              	.LASF187:
 3771 0b70 563A5C6F 		.ascii	"V:\\oroca_bldc_dev\000"
 3771      726F6361 
 3771      5F626C64 
 3771      635F6465 
 3771      7600
 3772              	.LASF183:
 3773 0b82 5243435F 		.ascii	"RCC_APB1PeriphClockCmd\000"
 3773      41504231 
 3773      50657269 
 3773      7068436C 
 3773      6F636B43 
 3774              	.LASF79:
 3775 0b99 63635F67 		.ascii	"cc_gain\000"
 3775      61696E00 
 3776              	.LASF71:
 3777 0ba1 735F7069 		.ascii	"s_pid_ki\000"
 3777      645F6B69 
 3777      00
 3778              	.LASF15:
 3779 0baa 75696E74 		.ascii	"uint8_t\000"
 3779      385F7400 
 3780              	.LASF108:
 3781 0bb2 73616665 		.ascii	"safe_start\000"
 3781      5F737461 
 3781      727400
 3782              	.LASF92:
 3783 0bbd 6170705F 		.ascii	"app_use\000"
 3783      75736500 
 3784              	.LASF126:
 3785 0bc5 7573655F 		.ascii	"use_filter\000"
 3785      66696C74 
 3785      657200
 3786              	.LASF29:
 3787 0bd0 4D4F544F 		.ascii	"MOTOR_TYPE_BLDC\000"
 3787      525F5459 
 3787      50455F42 
 3787      4C444300 
 3788              	.LASF142:
 3789 0be0 73656E64 		.ascii	"send_can_status_rate_hz\000"
ARM GAS  C:\Users\ADMINI~1\AppData\Local\Temp\cclvVomf.s 			page 77


 3789      5F63616E 
 3789      5F737461 
 3789      7475735F 
 3789      72617465 
 3790              	.LASF85:
 3791 0bf8 4150505F 		.ascii	"APP_ADC\000"
 3791      41444300 
 3792              	.LASF87:
 3793 0c00 4150505F 		.ascii	"APP_PPM_UART\000"
 3793      50504D5F 
 3793      55415254 
 3793      00
 3794              	.LASF156:
 3795 0c0d 464C4153 		.ascii	"FLASH_ERROR_WRP\000"
 3795      485F4552 
 3795      524F525F 
 3795      57525000 
 3796              	.LASF133:
 3797 0c1d 4348554B 		.ascii	"CHUK_CTRL_TYPE_CURRENT_NOREV\000"
 3797      5F435452 
 3797      4C5F5459 
 3797      50455F43 
 3797      55525245 
 3798              	.LASF159:
 3799 0c3a 464C4153 		.ascii	"FLASH_COMPLETE\000"
 3799      485F434F 
 3799      4D504C45 
 3799      544500
 3800              	.LASF50:
 3801 0c49 6C5F7465 		.ascii	"l_temp_fet_end\000"
 3801      6D705F66 
 3801      65745F65 
 3801      6E6400
 3802              	.LASF63:
 3803 0c58 736C5F63 		.ascii	"sl_cycle_int_limit\000"
 3803      79636C65 
 3803      5F696E74 
 3803      5F6C696D 
 3803      697400
 3804              	.LASF118:
 3805 0c6b 4144435F 		.ascii	"ADC_CTRL_TYPE_CURRENT_NOREV_BRAKE_CENTER\000"
 3805      4354524C 
 3805      5F545950 
 3805      455F4355 
 3805      5252454E 
 3806              	.LASF94:
 3807 0c94 50504D5F 		.ascii	"PPM_CTRL_TYPE_CURRENT\000"
 3807      4354524C 
 3807      5F545950 
 3807      455F4355 
 3807      5252454E 
 3808              		.ident	"GCC: (GNU Tools for ARM Embedded Processors) 4.9.3 20150529 (release) [ARM/embedded-4_9-br
ARM GAS  C:\Users\ADMINI~1\AppData\Local\Temp\cclvVomf.s 			page 78


DEFINED SYMBOLS
                            *ABS*:00000000 conf_general.c
C:\Users\ADMINI~1\AppData\Local\Temp\cclvVomf.s:21     .text.conf_general_init:00000000 $t
C:\Users\ADMINI~1\AppData\Local\Temp\cclvVomf.s:27     .text.conf_general_init:00000000 conf_general_init
C:\Users\ADMINI~1\AppData\Local\Temp\cclvVomf.s:91     .text.conf_general_init:0000004c $d
C:\Users\ADMINI~1\AppData\Local\Temp\cclvVomf.s:98     .text.conf_general_read_app_configuration:00000000 $t
C:\Users\ADMINI~1\AppData\Local\Temp\cclvVomf.s:104    .text.conf_general_read_app_configuration:00000000 conf_general_read_app_configuration
C:\Users\ADMINI~1\AppData\Local\Temp\cclvVomf.s:294    .text.conf_general_read_app_configuration:00000104 $d
C:\Users\ADMINI~1\AppData\Local\Temp\cclvVomf.s:306    .text.conf_general_store_app_configuration:00000000 $t
C:\Users\ADMINI~1\AppData\Local\Temp\cclvVomf.s:312    .text.conf_general_store_app_configuration:00000000 conf_general_store_app_configuration
C:\Users\ADMINI~1\AppData\Local\Temp\cclvVomf.s:398    .text.conf_general_read_mc_configuration:00000000 $t
C:\Users\ADMINI~1\AppData\Local\Temp\cclvVomf.s:404    .text.conf_general_read_mc_configuration:00000000 conf_general_read_mc_configuration
C:\Users\ADMINI~1\AppData\Local\Temp\cclvVomf.s:630    .text.conf_general_read_mc_configuration:0000013c $d
C:\Users\ADMINI~1\AppData\Local\Temp\cclvVomf.s:659    .text.conf_general_store_mc_configuration:00000000 $t
C:\Users\ADMINI~1\AppData\Local\Temp\cclvVomf.s:665    .text.conf_general_store_mc_configuration:00000000 conf_general_store_mc_configuration
C:\Users\ADMINI~1\AppData\Local\Temp\cclvVomf.s:751    .text.conf_general_detect_motor_param:00000000 $t
C:\Users\ADMINI~1\AppData\Local\Temp\cclvVomf.s:757    .text.conf_general_detect_motor_param:00000000 conf_general_detect_motor_param
C:\Users\ADMINI~1\AppData\Local\Temp\cclvVomf.s:778    .bss.VirtAddVarTab:00000000 VirtAddVarTab
C:\Users\ADMINI~1\AppData\Local\Temp\cclvVomf.s:774    .bss.VirtAddVarTab:00000000 $d
                     .debug_frame:00000010 $d

UNDEFINED SYMBOLS
memset
FLASH_Unlock
FLASH_ClearFlag
EE_Init
EE_ReadVariable
utils_sys_lock_cnt
RCC_APB1PeriphClockCmd
EE_WriteVariable
utils_sys_unlock_cnt
