ARM GAS  C:\Users\jsyoon\AppData\Local\Temp\cc72OwWF.s 			page 1


   1              		.syntax unified
   2              		.cpu cortex-m4
   3              		.eabi_attribute 27, 3
   4              		.eabi_attribute 28, 1
   5              		.fpu fpv4-sp-d16
   6              		.eabi_attribute 20, 1
   7              		.eabi_attribute 21, 1
   8              		.eabi_attribute 23, 3
   9              		.eabi_attribute 24, 1
  10              		.eabi_attribute 25, 1
  11              		.eabi_attribute 26, 1
  12              		.eabi_attribute 30, 2
  13              		.eabi_attribute 34, 1
  14              		.eabi_attribute 18, 4
  15              		.thumb
  16              		.file	"crt0.c"
  17              		.text
  18              	.Ltext0:
  19              		.cfi_sections	.debug_frame
  20              		.section	.text.__early_init,"ax",%progbits
  21              		.align	2
  22              		.p2align 4,,15
  23              		.weak	__early_init
  24              		.thumb
  25              		.thumb_func
  26              		.type	__early_init, %function
  27              	__early_init:
  28              	.LFB0:
  29              		.file 1 "ChibiOS_2.6.6/os/ports/GCC/ARMCMx/crt0.c"
  30              		.loc 1 234 0
  31              		.cfi_startproc
  32              		@ args = 0, pretend = 0, frame = 0
  33              		@ frame_needed = 0, uses_anonymous_args = 0
  34              		@ link register save eliminated.
  35 0000 7047     		bx	lr
  36              		.cfi_endproc
  37              	.LFE0:
  38              		.size	__early_init, .-__early_init
  39 0002 00BFAFF3 		.section	.text.__late_init,"ax",%progbits
  39      0080AFF3 
  39      0080AFF3 
  39      0080
  40              		.align	2
  41              		.p2align 4,,15
  42              		.weak	__late_init
  43              		.thumb
  44              		.thumb_func
  45              		.type	__late_init, %function
  46              	__late_init:
  47              	.LFB1:
  48              		.loc 1 246 0
  49              		.cfi_startproc
  50              		@ args = 0, pretend = 0, frame = 0
  51              		@ frame_needed = 0, uses_anonymous_args = 0
  52              		@ link register save eliminated.
  53 0000 7047     		bx	lr
  54              		.cfi_endproc
ARM GAS  C:\Users\jsyoon\AppData\Local\Temp\cc72OwWF.s 			page 2


  55              	.LFE1:
  56              		.size	__late_init, .-__late_init
  57 0002 00BFAFF3 		.section	.text._default_exit,"ax",%progbits
  57      0080AFF3 
  57      0080AFF3 
  57      0080
  58              		.align	2
  59              		.p2align 4,,15
  60              		.weak	_default_exit
  61              		.thumb
  62              		.thumb_func
  63              		.type	_default_exit, %function
  64              	_default_exit:
  65              	.LFB2:
  66              		.loc 1 257 0
  67              		.cfi_startproc
  68              		@ Naked Function: prologue and epilogue provided by programmer.
  69              		@ args = 0, pretend = 0, frame = 0
  70              		@ frame_needed = 0, uses_anonymous_args = 0
  71              	.L4:
  72 0000 FEE7     		b	.L4
  73              		.cfi_endproc
  74              	.LFE2:
  75              		.size	_default_exit, .-_default_exit
  76 0002 00BFAFF3 		.section	.text.ResetHandler,"ax",%progbits
  76      0080AFF3 
  76      0080AFF3 
  76      0080
  77              		.align	2
  78              		.p2align 4,,15
  79              		.global	ResetHandler
  80              		.thumb
  81              		.thumb_func
  82              		.type	ResetHandler, %function
  83              	ResetHandler:
  84              	.LFB3:
  85              		.loc 1 268 0
  86              		.cfi_startproc
  87              		@ Naked Function: prologue and epilogue provided by programmer.
  88              		@ args = 0, pretend = 0, frame = 0
  89              		@ frame_needed = 0, uses_anonymous_args = 0
  90              		.loc 1 274 0
  91              	@ 274 "ChibiOS_2.6.6/os/ports/GCC/ARMCMx/crt0.c" 1
  92 0000 72B6     		cpsid   i
  93              	@ 0 "" 2
  94              		.loc 1 275 0
  95              		.thumb
  96 0002 3748     		ldr	r0, .L27
  97              	.LVL0:
  98              		.loc 1 276 0
  99              	@ 276 "ChibiOS_2.6.6/os/ports/GCC/ARMCMx/crt0.c" 1
 100 0004 80F30988 		msr     PSP, r0
 101              	@ 0 "" 2
 102              		.loc 1 283 0
 103              		.thumb
 104 0008 364B     		ldr	r3, .L27+4
 105              		.loc 1 280 0
ARM GAS  C:\Users\jsyoon\AppData\Local\Temp\cc72OwWF.s 			page 3


 106 000a 3749     		ldr	r1, .L27+8
 107              		.loc 1 283 0
 108 000c 1A68     		ldr	r2, [r3]
 109              		.loc 1 280 0
 110 000e 4FF04044 		mov	r4, #-1073741824
 111              		.loc 1 283 0
 112 0012 42F47002 		orr	r2, r2, #15728640
 113 0016 1A60     		str	r2, [r3]
 114              	.LVL1:
 115              		.loc 1 280 0
 116 0018 0C60     		str	r4, [r1]
 117              		.loc 1 287 0
 118 001a 0023     		movs	r3, #0
 119              	@ 287 "ChibiOS_2.6.6/os/ports/GCC/ARMCMx/crt0.c" 1
 120 001c E1EE103A 		vmsr    FPSCR, r3
 121              	@ 0 "" 2
 122              		.loc 1 296 0
 123              		.thumb
 124 0020 0622     		movs	r2, #6
 125              		.loc 1 288 0
 126 0022 8B60     		str	r3, [r1, #8]
 127              	.LVL2:
 128              		.loc 1 296 0
 129              	@ 296 "ChibiOS_2.6.6/os/ports/GCC/ARMCMx/crt0.c" 1
 130 0024 82F31488 		msr     CONTROL, r2
 131              	@ 0 "" 2
 132              		.loc 1 297 0
 133              	@ 297 "ChibiOS_2.6.6/os/ports/GCC/ARMCMx/crt0.c" 1
 134 0028 BFF36F8F 		isb
 135              	@ 0 "" 2
 136              	.LVL3:
 137              		.thumb
 138              	.LBB2:
 139              		.loc 1 301 0
 140 002c 2F4B     		ldr	r3, .L27+12
 141 002e 304A     		ldr	r2, .L27+16
 142 0030 9342     		cmp	r3, r2
 143 0032 0BD2     		bcs	.L9
 144 0034 D943     		mvns	r1, r3
 145 0036 1144     		add	r1, r1, r2
 146 0038 21F00301 		bic	r1, r1, #3
 147 003c 1944     		add	r1, r1, r3
 148 003e 4FF05532 		mov	r2, #1431655765
 149 0042 043B     		subs	r3, r3, #4
 150              	.LVL4:
 151              	.L10:
 152              		.loc 1 301 0 is_stmt 0 discriminator 2
 153 0044 43F8042F 		str	r2, [r3, #4]!
 154              	.LVL5:
 155 0048 8B42     		cmp	r3, r1
 156 004a FBD1     		bne	.L10
 157              	.LVL6:
 158              	.L9:
 159              	.LBE2:
 160              	.LBB3:
 161              		.loc 1 304 0 is_stmt 1
 162 004c 294B     		ldr	r3, .L27+20
ARM GAS  C:\Users\jsyoon\AppData\Local\Temp\cc72OwWF.s 			page 4


 163 004e 8342     		cmp	r3, r0
 164 0050 0CD2     		bcs	.L8
 165 0052 2949     		ldr	r1, .L27+24
 166 0054 1A1D     		adds	r2, r3, #4
 167 0056 891A     		subs	r1, r1, r2
 168 0058 21F00301 		bic	r1, r1, #3
 169 005c 1944     		add	r1, r1, r3
 170 005e 4FF05532 		mov	r2, #1431655765
 171 0062 043B     		subs	r3, r3, #4
 172              	.LVL7:
 173              	.L13:
 174              		.loc 1 304 0 is_stmt 0 discriminator 2
 175 0064 43F8042F 		str	r2, [r3, #4]!
 176              	.LVL8:
 177 0068 8B42     		cmp	r3, r1
 178 006a FBD1     		bne	.L13
 179              	.LVL9:
 180              	.L8:
 181              	.LBE3:
 182              		.loc 1 310 0 is_stmt 1
 183 006c FFF7FEFF 		bl	__early_init
 184              	.LVL10:
 185              	.LBB4:
 186              		.loc 1 319 0
 187 0070 2249     		ldr	r1, .L27+28
 188 0072 234B     		ldr	r3, .L27+32
 189 0074 9942     		cmp	r1, r3
 190 0076 0BD2     		bcs	.L12
 191 0078 C843     		mvns	r0, r1
 192 007a 1844     		add	r0, r0, r3
 193 007c 20F00300 		bic	r0, r0, #3
 194 0080 204C     		ldr	r4, .L27+36
 195 0082 0430     		adds	r0, r0, #4
 196 0084 0023     		movs	r3, #0
 197              	.LVL11:
 198              	.L16:
 199              		.loc 1 320 0
 200 0086 E258     		ldr	r2, [r4, r3]
 201 0088 CA50     		str	r2, [r1, r3]
 202 008a 0433     		adds	r3, r3, #4
 203              	.LVL12:
 204              		.loc 1 319 0
 205 008c 8342     		cmp	r3, r0
 206 008e FAD1     		bne	.L16
 207              	.LVL13:
 208              	.L12:
 209              	.LBE4:
 210              	.LBB5:
 211              		.loc 1 326 0
 212 0090 1D4B     		ldr	r3, .L27+40
 213 0092 1E4A     		ldr	r2, .L27+44
 214 0094 9342     		cmp	r3, r2
 215 0096 0AD2     		bcs	.L15
 216 0098 D943     		mvns	r1, r3
 217 009a 1144     		add	r1, r1, r2
 218 009c 21F00301 		bic	r1, r1, #3
 219 00a0 1944     		add	r1, r1, r3
ARM GAS  C:\Users\jsyoon\AppData\Local\Temp\cc72OwWF.s 			page 5


 220 00a2 0022     		movs	r2, #0
 221 00a4 043B     		subs	r3, r3, #4
 222              	.LVL14:
 223              	.L19:
 224              		.loc 1 326 0 is_stmt 0 discriminator 2
 225 00a6 43F8042F 		str	r2, [r3, #4]!
 226              	.LVL15:
 227 00aa 8B42     		cmp	r3, r1
 228 00ac FBD1     		bne	.L19
 229              	.LVL16:
 230              	.L15:
 231              	.LBE5:
 232              	.LBB6:
 233              		.loc 1 336 0 is_stmt 1
 234 00ae 184D     		ldr	r5, .L27+48
 235 00b0 184C     		ldr	r4, .L27+52
 236              	.LBE6:
 237              		.loc 1 330 0
 238 00b2 FFF7FEFF 		bl	__late_init
 239              	.LVL17:
 240              	.LBB7:
 241              		.loc 1 336 0
 242 00b6 AC42     		cmp	r4, r5
 243 00b8 04D2     		bcs	.L18
 244              	.LVL18:
 245              	.L22:
 246              		.loc 1 337 0
 247 00ba 54F8043B 		ldr	r3, [r4], #4
 248              	.LVL19:
 249 00be 9847     		blx	r3
 250              	.LVL20:
 251              		.loc 1 336 0
 252 00c0 AC42     		cmp	r4, r5
 253 00c2 FAD3     		bcc	.L22
 254              	.LVL21:
 255              	.L18:
 256              	.LBE7:
 257              	.LBB8:
 258              		.loc 1 350 0
 259 00c4 144D     		ldr	r5, .L27+56
 260 00c6 154C     		ldr	r4, .L27+60
 261              	.LBE8:
 262              		.loc 1 344 0
 263 00c8 FFF7FEFF 		bl	main
 264              	.LVL22:
 265              	.LBB9:
 266              		.loc 1 350 0
 267 00cc AC42     		cmp	r4, r5
 268 00ce 04D2     		bcs	.L21
 269              	.LVL23:
 270              	.L23:
 271              		.loc 1 351 0
 272 00d0 54F8043B 		ldr	r3, [r4], #4
 273              	.LVL24:
 274 00d4 9847     		blx	r3
 275              	.LVL25:
 276              		.loc 1 350 0
ARM GAS  C:\Users\jsyoon\AppData\Local\Temp\cc72OwWF.s 			page 6


 277 00d6 AC42     		cmp	r4, r5
 278 00d8 FAD3     		bcc	.L23
 279              	.LVL26:
 280              	.L21:
 281              	.LBE9:
 282              		.loc 1 358 0
 283 00da FFF7FEFF 		bl	_default_exit
 284              	.LVL27:
 285              		.loc 1 359 0
 286              	.L28:
 287 00de 00BF     		.align	2
 288              	.L27:
 289 00e0 00000000 		.word	__process_stack_end__
 290 00e4 88ED00E0 		.word	-536810104
 291 00e8 34EF00E0 		.word	-536809676
 292 00ec 00000000 		.word	__main_stack_base__
 293 00f0 00000000 		.word	__main_stack_end__
 294 00f4 00000000 		.word	__process_stack_base__
 295 00f8 03000000 		.word	__process_stack_end__+3
 296 00fc 00000000 		.word	_data
 297 0100 00000000 		.word	_edata
 298 0104 00000000 		.word	_textdata
 299 0108 00000000 		.word	_bss_start
 300 010c 00000000 		.word	_bss_end
 301 0110 00000000 		.word	__init_array_end
 302 0114 00000000 		.word	__init_array_start
 303 0118 00000000 		.word	__fini_array_end
 304 011c 00000000 		.word	__fini_array_start
 305              		.cfi_endproc
 306              	.LFE3:
 307              		.size	ResetHandler, .-ResetHandler
 308              		.text
 309              	.Letext0:
 310              		.file 2 "c:\\crosstools\\gcc-arm-embedded\\4.8_2014q2\\arm-none-eabi\\include\\machine\\_default_t
 311              		.file 3 "c:\\crosstools\\gcc-arm-embedded\\4.8_2014q2\\arm-none-eabi\\include\\stdint.h"
 312              		.section	.debug_info,"",%progbits
 313              	.Ldebug_info0:
 314 0000 B6020000 		.4byte	0x2b6
 315 0004 0400     		.2byte	0x4
 316 0006 00000000 		.4byte	.Ldebug_abbrev0
 317 000a 04       		.byte	0x4
 318 000b 01       		.uleb128 0x1
 319 000c 26000000 		.4byte	.LASF31
 320 0010 01       		.byte	0x1
 321 0011 D7010000 		.4byte	.LASF32
 322 0015 82020000 		.4byte	.LASF33
 323 0019 30000000 		.4byte	.Ldebug_ranges0+0x30
 324 001d 00000000 		.4byte	0
 325 0021 00000000 		.4byte	.Ldebug_line0
 326 0025 02       		.uleb128 0x2
 327 0026 01       		.byte	0x1
 328 0027 06       		.byte	0x6
 329 0028 F0020000 		.4byte	.LASF0
 330 002c 03       		.uleb128 0x3
 331 002d 0B000000 		.4byte	.LASF5
 332 0031 02       		.byte	0x2
 333 0032 1C       		.byte	0x1c
ARM GAS  C:\Users\jsyoon\AppData\Local\Temp\cc72OwWF.s 			page 7


 334 0033 37000000 		.4byte	0x37
 335 0037 02       		.uleb128 0x2
 336 0038 01       		.byte	0x1
 337 0039 08       		.byte	0x8
 338 003a 78010000 		.4byte	.LASF1
 339 003e 02       		.uleb128 0x2
 340 003f 02       		.byte	0x2
 341 0040 05       		.byte	0x5
 342 0041 C6020000 		.4byte	.LASF2
 343 0045 02       		.uleb128 0x2
 344 0046 02       		.byte	0x2
 345 0047 07       		.byte	0x7
 346 0048 B1010000 		.4byte	.LASF3
 347 004c 02       		.uleb128 0x2
 348 004d 04       		.byte	0x4
 349 004e 05       		.byte	0x5
 350 004f E1020000 		.4byte	.LASF4
 351 0053 03       		.uleb128 0x3
 352 0054 1A020000 		.4byte	.LASF6
 353 0058 02       		.byte	0x2
 354 0059 38       		.byte	0x38
 355 005a 5E000000 		.4byte	0x5e
 356 005e 02       		.uleb128 0x2
 357 005f 04       		.byte	0x4
 358 0060 07       		.byte	0x7
 359 0061 92010000 		.4byte	.LASF7
 360 0065 02       		.uleb128 0x2
 361 0066 08       		.byte	0x8
 362 0067 05       		.byte	0x5
 363 0068 6D020000 		.4byte	.LASF8
 364 006c 02       		.uleb128 0x2
 365 006d 08       		.byte	0x8
 366 006e 07       		.byte	0x7
 367 006f 37020000 		.4byte	.LASF9
 368 0073 04       		.uleb128 0x4
 369 0074 04       		.byte	0x4
 370 0075 05       		.byte	0x5
 371 0076 696E7400 		.ascii	"int\000"
 372 007a 02       		.uleb128 0x2
 373 007b 04       		.byte	0x4
 374 007c 07       		.byte	0x7
 375 007d 2A020000 		.4byte	.LASF10
 376 0081 03       		.uleb128 0x3
 377 0082 4E020000 		.4byte	.LASF11
 378 0086 03       		.byte	0x3
 379 0087 2A       		.byte	0x2a
 380 0088 2C000000 		.4byte	0x2c
 381 008c 03       		.uleb128 0x3
 382 008d D8020000 		.4byte	.LASF12
 383 0091 03       		.byte	0x3
 384 0092 42       		.byte	0x42
 385 0093 53000000 		.4byte	0x53
 386 0097 03       		.uleb128 0x3
 387 0098 D0020000 		.4byte	.LASF13
 388 009c 01       		.byte	0x1
 389 009d 34       		.byte	0x34
 390 009e A2000000 		.4byte	0xa2
ARM GAS  C:\Users\jsyoon\AppData\Local\Temp\cc72OwWF.s 			page 8


 391 00a2 05       		.uleb128 0x5
 392 00a3 04       		.byte	0x4
 393 00a4 A8000000 		.4byte	0xa8
 394 00a8 06       		.uleb128 0x6
 395 00a9 03       		.uleb128 0x3
 396 00aa 61010000 		.4byte	.LASF14
 397 00ae 01       		.byte	0x1
 398 00af 35       		.byte	0x35
 399 00b0 B4000000 		.4byte	0xb4
 400 00b4 05       		.uleb128 0x5
 401 00b5 04       		.byte	0x4
 402 00b6 97000000 		.4byte	0x97
 403 00ba 07       		.uleb128 0x7
 404 00bb 60020000 		.4byte	.LASF15
 405 00bf 01       		.byte	0x1
 406 00c0 EA       		.byte	0xea
 407 00c1 00000000 		.4byte	.LFB0
 408 00c5 02000000 		.4byte	.LFE0-.LFB0
 409 00c9 01       		.uleb128 0x1
 410 00ca 9C       		.byte	0x9c
 411 00cb 07       		.uleb128 0x7
 412 00cc 86010000 		.4byte	.LASF16
 413 00d0 01       		.byte	0x1
 414 00d1 F6       		.byte	0xf6
 415 00d2 00000000 		.4byte	.LFB1
 416 00d6 02000000 		.4byte	.LFE1-.LFB1
 417 00da 01       		.uleb128 0x1
 418 00db 9C       		.byte	0x9c
 419 00dc 08       		.uleb128 0x8
 420 00dd 6A010000 		.4byte	.LASF17
 421 00e1 01       		.byte	0x1
 422 00e2 0101     		.2byte	0x101
 423 00e4 00000000 		.4byte	.LFB2
 424 00e8 02000000 		.4byte	.LFE2-.LFB2
 425 00ec 01       		.uleb128 0x1
 426 00ed 9C       		.byte	0x9c
 427 00ee 09       		.uleb128 0x9
 428 00ef A4010000 		.4byte	.LASF34
 429 00f3 01       		.byte	0x1
 430 00f4 0C01     		.2byte	0x10c
 431 00f6 00000000 		.4byte	.LFB3
 432 00fa 20010000 		.4byte	.LFE3-.LFB3
 433 00fe 01       		.uleb128 0x1
 434 00ff 9C       		.byte	0x9c
 435 0100 1D020000 		.4byte	0x21d
 436 0104 0A       		.uleb128 0xa
 437 0105 70737000 		.ascii	"psp\000"
 438 0109 01       		.byte	0x1
 439 010a 0D01     		.2byte	0x10d
 440 010c 8C000000 		.4byte	0x8c
 441 0110 0B       		.uleb128 0xb
 442 0111 72656700 		.ascii	"reg\000"
 443 0115 01       		.byte	0x1
 444 0116 0D01     		.2byte	0x10d
 445 0118 8C000000 		.4byte	0x8c
 446 011c 00000000 		.4byte	.LLST0
 447 0120 0C       		.uleb128 0xc
ARM GAS  C:\Users\jsyoon\AppData\Local\Temp\cc72OwWF.s 			page 9


 448 0121 2C000000 		.4byte	.LBB2
 449 0125 20000000 		.4byte	.LBE2-.LBB2
 450 0129 48010000 		.4byte	0x148
 451 012d 0B       		.uleb128 0xb
 452 012e 703100   		.ascii	"p1\000"
 453 0131 01       		.byte	0x1
 454 0132 2D01     		.2byte	0x12d
 455 0134 1D020000 		.4byte	0x21d
 456 0138 20000000 		.4byte	.LLST1
 457 013c 0A       		.uleb128 0xa
 458 013d 703200   		.ascii	"p2\000"
 459 0140 01       		.byte	0x1
 460 0141 2D01     		.2byte	0x12d
 461 0143 1D020000 		.4byte	0x21d
 462 0147 00       		.byte	0
 463 0148 0C       		.uleb128 0xc
 464 0149 4C000000 		.4byte	.LBB3
 465 014d 20000000 		.4byte	.LBE3-.LBB3
 466 0151 70010000 		.4byte	0x170
 467 0155 0B       		.uleb128 0xb
 468 0156 703100   		.ascii	"p1\000"
 469 0159 01       		.byte	0x1
 470 015a 3001     		.2byte	0x130
 471 015c 1D020000 		.4byte	0x21d
 472 0160 42000000 		.4byte	.LLST2
 473 0164 0A       		.uleb128 0xa
 474 0165 703200   		.ascii	"p2\000"
 475 0168 01       		.byte	0x1
 476 0169 3001     		.2byte	0x130
 477 016b 1D020000 		.4byte	0x21d
 478 016f 00       		.byte	0
 479 0170 0C       		.uleb128 0xc
 480 0171 70000000 		.4byte	.LBB4
 481 0175 20000000 		.4byte	.LBE4-.LBB4
 482 0179 9C010000 		.4byte	0x19c
 483 017d 0B       		.uleb128 0xb
 484 017e 747000   		.ascii	"tp\000"
 485 0181 01       		.byte	0x1
 486 0182 3B01     		.2byte	0x13b
 487 0184 1D020000 		.4byte	0x21d
 488 0188 64000000 		.4byte	.LLST3
 489 018c 0B       		.uleb128 0xb
 490 018d 647000   		.ascii	"dp\000"
 491 0190 01       		.byte	0x1
 492 0191 3B01     		.2byte	0x13b
 493 0193 1D020000 		.4byte	0x21d
 494 0197 64000000 		.4byte	.LLST3
 495 019b 00       		.byte	0
 496 019c 0C       		.uleb128 0xc
 497 019d 90000000 		.4byte	.LBB5
 498 01a1 1E000000 		.4byte	.LBE5-.LBB5
 499 01a5 C4010000 		.4byte	0x1c4
 500 01a9 0B       		.uleb128 0xb
 501 01aa 703100   		.ascii	"p1\000"
 502 01ad 01       		.byte	0x1
 503 01ae 4601     		.2byte	0x146
 504 01b0 1D020000 		.4byte	0x21d
ARM GAS  C:\Users\jsyoon\AppData\Local\Temp\cc72OwWF.s 			page 10


 505 01b4 86000000 		.4byte	.LLST5
 506 01b8 0A       		.uleb128 0xa
 507 01b9 703200   		.ascii	"p2\000"
 508 01bc 01       		.byte	0x1
 509 01bd 4601     		.2byte	0x146
 510 01bf 1D020000 		.4byte	0x21d
 511 01c3 00       		.byte	0
 512 01c4 0D       		.uleb128 0xd
 513 01c5 00000000 		.4byte	.Ldebug_ranges0+0
 514 01c9 DE010000 		.4byte	0x1de
 515 01cd 0B       		.uleb128 0xb
 516 01ce 66707000 		.ascii	"fpp\000"
 517 01d2 01       		.byte	0x1
 518 01d3 4F01     		.2byte	0x14f
 519 01d5 A9000000 		.4byte	0xa9
 520 01d9 A8000000 		.4byte	.LLST6
 521 01dd 00       		.byte	0
 522 01de 0D       		.uleb128 0xd
 523 01df 18000000 		.4byte	.Ldebug_ranges0+0x18
 524 01e3 F8010000 		.4byte	0x1f8
 525 01e7 0B       		.uleb128 0xb
 526 01e8 66707000 		.ascii	"fpp\000"
 527 01ec 01       		.byte	0x1
 528 01ed 5D01     		.2byte	0x15d
 529 01ef A9000000 		.4byte	0xa9
 530 01f3 D3000000 		.4byte	.LLST7
 531 01f7 00       		.byte	0
 532 01f8 0E       		.uleb128 0xe
 533 01f9 70000000 		.4byte	.LVL10
 534 01fd BA000000 		.4byte	0xba
 535 0201 0E       		.uleb128 0xe
 536 0202 B6000000 		.4byte	.LVL17
 537 0206 CB000000 		.4byte	0xcb
 538 020a 0E       		.uleb128 0xe
 539 020b CC000000 		.4byte	.LVL22
 540 020f B2020000 		.4byte	0x2b2
 541 0213 0E       		.uleb128 0xe
 542 0214 DE000000 		.4byte	.LVL27
 543 0218 DC000000 		.4byte	0xdc
 544 021c 00       		.byte	0
 545 021d 05       		.uleb128 0x5
 546 021e 04       		.byte	0x4
 547 021f 8C000000 		.4byte	0x8c
 548 0223 0F       		.uleb128 0xf
 549 0224 B2020000 		.4byte	.LASF18
 550 0228 01       		.byte	0x1
 551 0229 8B       		.byte	0x8b
 552 022a 8C000000 		.4byte	0x8c
 553 022e 0F       		.uleb128 0xf
 554 022f 25030000 		.4byte	.LASF19
 555 0233 01       		.byte	0x1
 556 0234 93       		.byte	0x93
 557 0235 8C000000 		.4byte	0x8c
 558 0239 0F       		.uleb128 0xf
 559 023a 4A010000 		.4byte	.LASF20
 560 023e 01       		.byte	0x1
 561 023f 9A       		.byte	0x9a
ARM GAS  C:\Users\jsyoon\AppData\Local\Temp\cc72OwWF.s 			page 11


 562 0240 8C000000 		.4byte	0x8c
 563 0244 0F       		.uleb128 0xf
 564 0245 FC020000 		.4byte	.LASF21
 565 0249 01       		.byte	0x1
 566 024a A1       		.byte	0xa1
 567 024b 8C000000 		.4byte	0x8c
 568 024f 0F       		.uleb128 0xf
 569 0250 56020000 		.4byte	.LASF22
 570 0254 01       		.byte	0x1
 571 0255 A7       		.byte	0xa7
 572 0256 8C000000 		.4byte	0x8c
 573 025a 0F       		.uleb128 0xf
 574 025b EA020000 		.4byte	.LASF23
 575 025f 01       		.byte	0x1
 576 0260 AD       		.byte	0xad
 577 0261 8C000000 		.4byte	0x8c
 578 0265 0F       		.uleb128 0xf
 579 0266 7B020000 		.4byte	.LASF24
 580 026a 01       		.byte	0x1
 581 026b B3       		.byte	0xb3
 582 026c 8C000000 		.4byte	0x8c
 583 0270 0F       		.uleb128 0xf
 584 0271 00000000 		.4byte	.LASF25
 585 0275 01       		.byte	0x1
 586 0276 B9       		.byte	0xb9
 587 0277 8C000000 		.4byte	0x8c
 588 027b 0F       		.uleb128 0xf
 589 027c 00020000 		.4byte	.LASF26
 590 0280 01       		.byte	0x1
 591 0281 BF       		.byte	0xbf
 592 0282 8C000000 		.4byte	0x8c
 593 0286 0F       		.uleb128 0xf
 594 0287 12030000 		.4byte	.LASF27
 595 028b 01       		.byte	0x1
 596 028c C5       		.byte	0xc5
 597 028d 97000000 		.4byte	0x97
 598 0291 0F       		.uleb128 0xf
 599 0292 09020000 		.4byte	.LASF28
 600 0296 01       		.byte	0x1
 601 0297 CB       		.byte	0xcb
 602 0298 97000000 		.4byte	0x97
 603 029c 0F       		.uleb128 0xf
 604 029d C4010000 		.4byte	.LASF29
 605 02a1 01       		.byte	0x1
 606 02a2 D1       		.byte	0xd1
 607 02a3 97000000 		.4byte	0x97
 608 02a7 0F       		.uleb128 0xf
 609 02a8 15000000 		.4byte	.LASF30
 610 02ac 01       		.byte	0x1
 611 02ad D7       		.byte	0xd7
 612 02ae 97000000 		.4byte	0x97
 613 02b2 10       		.uleb128 0x10
 614 02b3 25020000 		.4byte	.LASF35
 615 02b7 01       		.byte	0x1
 616 02b8 DE       		.byte	0xde
 617 02b9 00       		.byte	0
 618              		.section	.debug_abbrev,"",%progbits
ARM GAS  C:\Users\jsyoon\AppData\Local\Temp\cc72OwWF.s 			page 12


 619              	.Ldebug_abbrev0:
 620 0000 01       		.uleb128 0x1
 621 0001 11       		.uleb128 0x11
 622 0002 01       		.byte	0x1
 623 0003 25       		.uleb128 0x25
 624 0004 0E       		.uleb128 0xe
 625 0005 13       		.uleb128 0x13
 626 0006 0B       		.uleb128 0xb
 627 0007 03       		.uleb128 0x3
 628 0008 0E       		.uleb128 0xe
 629 0009 1B       		.uleb128 0x1b
 630 000a 0E       		.uleb128 0xe
 631 000b 55       		.uleb128 0x55
 632 000c 17       		.uleb128 0x17
 633 000d 11       		.uleb128 0x11
 634 000e 01       		.uleb128 0x1
 635 000f 10       		.uleb128 0x10
 636 0010 17       		.uleb128 0x17
 637 0011 00       		.byte	0
 638 0012 00       		.byte	0
 639 0013 02       		.uleb128 0x2
 640 0014 24       		.uleb128 0x24
 641 0015 00       		.byte	0
 642 0016 0B       		.uleb128 0xb
 643 0017 0B       		.uleb128 0xb
 644 0018 3E       		.uleb128 0x3e
 645 0019 0B       		.uleb128 0xb
 646 001a 03       		.uleb128 0x3
 647 001b 0E       		.uleb128 0xe
 648 001c 00       		.byte	0
 649 001d 00       		.byte	0
 650 001e 03       		.uleb128 0x3
 651 001f 16       		.uleb128 0x16
 652 0020 00       		.byte	0
 653 0021 03       		.uleb128 0x3
 654 0022 0E       		.uleb128 0xe
 655 0023 3A       		.uleb128 0x3a
 656 0024 0B       		.uleb128 0xb
 657 0025 3B       		.uleb128 0x3b
 658 0026 0B       		.uleb128 0xb
 659 0027 49       		.uleb128 0x49
 660 0028 13       		.uleb128 0x13
 661 0029 00       		.byte	0
 662 002a 00       		.byte	0
 663 002b 04       		.uleb128 0x4
 664 002c 24       		.uleb128 0x24
 665 002d 00       		.byte	0
 666 002e 0B       		.uleb128 0xb
 667 002f 0B       		.uleb128 0xb
 668 0030 3E       		.uleb128 0x3e
 669 0031 0B       		.uleb128 0xb
 670 0032 03       		.uleb128 0x3
 671 0033 08       		.uleb128 0x8
 672 0034 00       		.byte	0
 673 0035 00       		.byte	0
 674 0036 05       		.uleb128 0x5
 675 0037 0F       		.uleb128 0xf
ARM GAS  C:\Users\jsyoon\AppData\Local\Temp\cc72OwWF.s 			page 13


 676 0038 00       		.byte	0
 677 0039 0B       		.uleb128 0xb
 678 003a 0B       		.uleb128 0xb
 679 003b 49       		.uleb128 0x49
 680 003c 13       		.uleb128 0x13
 681 003d 00       		.byte	0
 682 003e 00       		.byte	0
 683 003f 06       		.uleb128 0x6
 684 0040 15       		.uleb128 0x15
 685 0041 00       		.byte	0
 686 0042 27       		.uleb128 0x27
 687 0043 19       		.uleb128 0x19
 688 0044 00       		.byte	0
 689 0045 00       		.byte	0
 690 0046 07       		.uleb128 0x7
 691 0047 2E       		.uleb128 0x2e
 692 0048 00       		.byte	0
 693 0049 3F       		.uleb128 0x3f
 694 004a 19       		.uleb128 0x19
 695 004b 03       		.uleb128 0x3
 696 004c 0E       		.uleb128 0xe
 697 004d 3A       		.uleb128 0x3a
 698 004e 0B       		.uleb128 0xb
 699 004f 3B       		.uleb128 0x3b
 700 0050 0B       		.uleb128 0xb
 701 0051 27       		.uleb128 0x27
 702 0052 19       		.uleb128 0x19
 703 0053 11       		.uleb128 0x11
 704 0054 01       		.uleb128 0x1
 705 0055 12       		.uleb128 0x12
 706 0056 06       		.uleb128 0x6
 707 0057 40       		.uleb128 0x40
 708 0058 18       		.uleb128 0x18
 709 0059 9742     		.uleb128 0x2117
 710 005b 19       		.uleb128 0x19
 711 005c 00       		.byte	0
 712 005d 00       		.byte	0
 713 005e 08       		.uleb128 0x8
 714 005f 2E       		.uleb128 0x2e
 715 0060 00       		.byte	0
 716 0061 3F       		.uleb128 0x3f
 717 0062 19       		.uleb128 0x19
 718 0063 03       		.uleb128 0x3
 719 0064 0E       		.uleb128 0xe
 720 0065 3A       		.uleb128 0x3a
 721 0066 0B       		.uleb128 0xb
 722 0067 3B       		.uleb128 0x3b
 723 0068 05       		.uleb128 0x5
 724 0069 27       		.uleb128 0x27
 725 006a 19       		.uleb128 0x19
 726 006b 11       		.uleb128 0x11
 727 006c 01       		.uleb128 0x1
 728 006d 12       		.uleb128 0x12
 729 006e 06       		.uleb128 0x6
 730 006f 40       		.uleb128 0x40
 731 0070 18       		.uleb128 0x18
 732 0071 9742     		.uleb128 0x2117
ARM GAS  C:\Users\jsyoon\AppData\Local\Temp\cc72OwWF.s 			page 14


 733 0073 19       		.uleb128 0x19
 734 0074 00       		.byte	0
 735 0075 00       		.byte	0
 736 0076 09       		.uleb128 0x9
 737 0077 2E       		.uleb128 0x2e
 738 0078 01       		.byte	0x1
 739 0079 3F       		.uleb128 0x3f
 740 007a 19       		.uleb128 0x19
 741 007b 03       		.uleb128 0x3
 742 007c 0E       		.uleb128 0xe
 743 007d 3A       		.uleb128 0x3a
 744 007e 0B       		.uleb128 0xb
 745 007f 3B       		.uleb128 0x3b
 746 0080 05       		.uleb128 0x5
 747 0081 27       		.uleb128 0x27
 748 0082 19       		.uleb128 0x19
 749 0083 11       		.uleb128 0x11
 750 0084 01       		.uleb128 0x1
 751 0085 12       		.uleb128 0x12
 752 0086 06       		.uleb128 0x6
 753 0087 40       		.uleb128 0x40
 754 0088 18       		.uleb128 0x18
 755 0089 9642     		.uleb128 0x2116
 756 008b 19       		.uleb128 0x19
 757 008c 01       		.uleb128 0x1
 758 008d 13       		.uleb128 0x13
 759 008e 00       		.byte	0
 760 008f 00       		.byte	0
 761 0090 0A       		.uleb128 0xa
 762 0091 34       		.uleb128 0x34
 763 0092 00       		.byte	0
 764 0093 03       		.uleb128 0x3
 765 0094 08       		.uleb128 0x8
 766 0095 3A       		.uleb128 0x3a
 767 0096 0B       		.uleb128 0xb
 768 0097 3B       		.uleb128 0x3b
 769 0098 05       		.uleb128 0x5
 770 0099 49       		.uleb128 0x49
 771 009a 13       		.uleb128 0x13
 772 009b 00       		.byte	0
 773 009c 00       		.byte	0
 774 009d 0B       		.uleb128 0xb
 775 009e 34       		.uleb128 0x34
 776 009f 00       		.byte	0
 777 00a0 03       		.uleb128 0x3
 778 00a1 08       		.uleb128 0x8
 779 00a2 3A       		.uleb128 0x3a
 780 00a3 0B       		.uleb128 0xb
 781 00a4 3B       		.uleb128 0x3b
 782 00a5 05       		.uleb128 0x5
 783 00a6 49       		.uleb128 0x49
 784 00a7 13       		.uleb128 0x13
 785 00a8 02       		.uleb128 0x2
 786 00a9 17       		.uleb128 0x17
 787 00aa 00       		.byte	0
 788 00ab 00       		.byte	0
 789 00ac 0C       		.uleb128 0xc
ARM GAS  C:\Users\jsyoon\AppData\Local\Temp\cc72OwWF.s 			page 15


 790 00ad 0B       		.uleb128 0xb
 791 00ae 01       		.byte	0x1
 792 00af 11       		.uleb128 0x11
 793 00b0 01       		.uleb128 0x1
 794 00b1 12       		.uleb128 0x12
 795 00b2 06       		.uleb128 0x6
 796 00b3 01       		.uleb128 0x1
 797 00b4 13       		.uleb128 0x13
 798 00b5 00       		.byte	0
 799 00b6 00       		.byte	0
 800 00b7 0D       		.uleb128 0xd
 801 00b8 0B       		.uleb128 0xb
 802 00b9 01       		.byte	0x1
 803 00ba 55       		.uleb128 0x55
 804 00bb 17       		.uleb128 0x17
 805 00bc 01       		.uleb128 0x1
 806 00bd 13       		.uleb128 0x13
 807 00be 00       		.byte	0
 808 00bf 00       		.byte	0
 809 00c0 0E       		.uleb128 0xe
 810 00c1 898201   		.uleb128 0x4109
 811 00c4 00       		.byte	0
 812 00c5 11       		.uleb128 0x11
 813 00c6 01       		.uleb128 0x1
 814 00c7 31       		.uleb128 0x31
 815 00c8 13       		.uleb128 0x13
 816 00c9 00       		.byte	0
 817 00ca 00       		.byte	0
 818 00cb 0F       		.uleb128 0xf
 819 00cc 34       		.uleb128 0x34
 820 00cd 00       		.byte	0
 821 00ce 03       		.uleb128 0x3
 822 00cf 0E       		.uleb128 0xe
 823 00d0 3A       		.uleb128 0x3a
 824 00d1 0B       		.uleb128 0xb
 825 00d2 3B       		.uleb128 0x3b
 826 00d3 0B       		.uleb128 0xb
 827 00d4 49       		.uleb128 0x49
 828 00d5 13       		.uleb128 0x13
 829 00d6 3F       		.uleb128 0x3f
 830 00d7 19       		.uleb128 0x19
 831 00d8 3C       		.uleb128 0x3c
 832 00d9 19       		.uleb128 0x19
 833 00da 00       		.byte	0
 834 00db 00       		.byte	0
 835 00dc 10       		.uleb128 0x10
 836 00dd 2E       		.uleb128 0x2e
 837 00de 00       		.byte	0
 838 00df 3F       		.uleb128 0x3f
 839 00e0 19       		.uleb128 0x19
 840 00e1 03       		.uleb128 0x3
 841 00e2 0E       		.uleb128 0xe
 842 00e3 3A       		.uleb128 0x3a
 843 00e4 0B       		.uleb128 0xb
 844 00e5 3B       		.uleb128 0x3b
 845 00e6 0B       		.uleb128 0xb
 846 00e7 27       		.uleb128 0x27
ARM GAS  C:\Users\jsyoon\AppData\Local\Temp\cc72OwWF.s 			page 16


 847 00e8 19       		.uleb128 0x19
 848 00e9 3C       		.uleb128 0x3c
 849 00ea 19       		.uleb128 0x19
 850 00eb 00       		.byte	0
 851 00ec 00       		.byte	0
 852 00ed 00       		.byte	0
 853              		.section	.debug_loc,"",%progbits
 854              	.Ldebug_loc0:
 855              	.LLST0:
 856 0000 18000000 		.4byte	.LVL1
 857 0004 24000000 		.4byte	.LVL2
 858 0008 0200     		.2byte	0x2
 859 000a 30       		.byte	0x30
 860 000b 9F       		.byte	0x9f
 861 000c 24000000 		.4byte	.LVL2
 862 0010 20010000 		.4byte	.LFE3
 863 0014 0200     		.2byte	0x2
 864 0016 36       		.byte	0x36
 865 0017 9F       		.byte	0x9f
 866 0018 00000000 		.4byte	0
 867 001c 00000000 		.4byte	0
 868              	.LLST1:
 869 0020 44000000 		.4byte	.LVL4
 870 0024 48000000 		.4byte	.LVL5
 871 0028 0300     		.2byte	0x3
 872 002a 73       		.byte	0x73
 873 002b 08       		.sleb128 8
 874 002c 9F       		.byte	0x9f
 875 002d 48000000 		.4byte	.LVL5
 876 0031 4C000000 		.4byte	.LVL6
 877 0035 0300     		.2byte	0x3
 878 0037 73       		.byte	0x73
 879 0038 04       		.sleb128 4
 880 0039 9F       		.byte	0x9f
 881 003a 00000000 		.4byte	0
 882 003e 00000000 		.4byte	0
 883              	.LLST2:
 884 0042 64000000 		.4byte	.LVL7
 885 0046 68000000 		.4byte	.LVL8
 886 004a 0300     		.2byte	0x3
 887 004c 73       		.byte	0x73
 888 004d 08       		.sleb128 8
 889 004e 9F       		.byte	0x9f
 890 004f 68000000 		.4byte	.LVL8
 891 0053 6C000000 		.4byte	.LVL9
 892 0057 0300     		.2byte	0x3
 893 0059 73       		.byte	0x73
 894 005a 04       		.sleb128 4
 895 005b 9F       		.byte	0x9f
 896 005c 00000000 		.4byte	0
 897 0060 00000000 		.4byte	0
 898              	.LLST3:
 899 0064 86000000 		.4byte	.LVL11
 900 0068 8C000000 		.4byte	.LVL12
 901 006c 0300     		.2byte	0x3
 902 006e 73       		.byte	0x73
 903 006f 00       		.sleb128 0
ARM GAS  C:\Users\jsyoon\AppData\Local\Temp\cc72OwWF.s 			page 17


 904 0070 9F       		.byte	0x9f
 905 0071 8C000000 		.4byte	.LVL12
 906 0075 90000000 		.4byte	.LVL13
 907 0079 0300     		.2byte	0x3
 908 007b 73       		.byte	0x73
 909 007c 00       		.sleb128 0
 910 007d 9F       		.byte	0x9f
 911 007e 00000000 		.4byte	0
 912 0082 00000000 		.4byte	0
 913              	.LLST5:
 914 0086 A6000000 		.4byte	.LVL14
 915 008a AA000000 		.4byte	.LVL15
 916 008e 0300     		.2byte	0x3
 917 0090 73       		.byte	0x73
 918 0091 08       		.sleb128 8
 919 0092 9F       		.byte	0x9f
 920 0093 AA000000 		.4byte	.LVL15
 921 0097 AE000000 		.4byte	.LVL16
 922 009b 0300     		.2byte	0x3
 923 009d 73       		.byte	0x73
 924 009e 04       		.sleb128 4
 925 009f 9F       		.byte	0x9f
 926 00a0 00000000 		.4byte	0
 927 00a4 00000000 		.4byte	0
 928              	.LLST6:
 929 00a8 BA000000 		.4byte	.LVL18
 930 00ac BE000000 		.4byte	.LVL19
 931 00b0 0100     		.2byte	0x1
 932 00b2 54       		.byte	0x54
 933 00b3 BE000000 		.4byte	.LVL19
 934 00b7 C0000000 		.4byte	.LVL20
 935 00bb 0300     		.2byte	0x3
 936 00bd 74       		.byte	0x74
 937 00be 7C       		.sleb128 -4
 938 00bf 9F       		.byte	0x9f
 939 00c0 C0000000 		.4byte	.LVL20
 940 00c4 C4000000 		.4byte	.LVL21
 941 00c8 0100     		.2byte	0x1
 942 00ca 54       		.byte	0x54
 943 00cb 00000000 		.4byte	0
 944 00cf 00000000 		.4byte	0
 945              	.LLST7:
 946 00d3 D0000000 		.4byte	.LVL23
 947 00d7 D4000000 		.4byte	.LVL24
 948 00db 0100     		.2byte	0x1
 949 00dd 54       		.byte	0x54
 950 00de D4000000 		.4byte	.LVL24
 951 00e2 D6000000 		.4byte	.LVL25
 952 00e6 0300     		.2byte	0x3
 953 00e8 74       		.byte	0x74
 954 00e9 7C       		.sleb128 -4
 955 00ea 9F       		.byte	0x9f
 956 00eb D6000000 		.4byte	.LVL25
 957 00ef DA000000 		.4byte	.LVL26
 958 00f3 0100     		.2byte	0x1
 959 00f5 54       		.byte	0x54
 960 00f6 00000000 		.4byte	0
ARM GAS  C:\Users\jsyoon\AppData\Local\Temp\cc72OwWF.s 			page 18


 961 00fa 00000000 		.4byte	0
 962              		.section	.debug_aranges,"",%progbits
 963 0000 34000000 		.4byte	0x34
 964 0004 0200     		.2byte	0x2
 965 0006 00000000 		.4byte	.Ldebug_info0
 966 000a 04       		.byte	0x4
 967 000b 00       		.byte	0
 968 000c 0000     		.2byte	0
 969 000e 0000     		.2byte	0
 970 0010 00000000 		.4byte	.LFB0
 971 0014 02000000 		.4byte	.LFE0-.LFB0
 972 0018 00000000 		.4byte	.LFB1
 973 001c 02000000 		.4byte	.LFE1-.LFB1
 974 0020 00000000 		.4byte	.LFB2
 975 0024 02000000 		.4byte	.LFE2-.LFB2
 976 0028 00000000 		.4byte	.LFB3
 977 002c 20010000 		.4byte	.LFE3-.LFB3
 978 0030 00000000 		.4byte	0
 979 0034 00000000 		.4byte	0
 980              		.section	.debug_ranges,"",%progbits
 981              	.Ldebug_ranges0:
 982 0000 AE000000 		.4byte	.LBB6
 983 0004 B2000000 		.4byte	.LBE6
 984 0008 B6000000 		.4byte	.LBB7
 985 000c C4000000 		.4byte	.LBE7
 986 0010 00000000 		.4byte	0
 987 0014 00000000 		.4byte	0
 988 0018 C4000000 		.4byte	.LBB8
 989 001c C8000000 		.4byte	.LBE8
 990 0020 CC000000 		.4byte	.LBB9
 991 0024 DA000000 		.4byte	.LBE9
 992 0028 00000000 		.4byte	0
 993 002c 00000000 		.4byte	0
 994 0030 00000000 		.4byte	.LFB0
 995 0034 02000000 		.4byte	.LFE0
 996 0038 00000000 		.4byte	.LFB1
 997 003c 02000000 		.4byte	.LFE1
 998 0040 00000000 		.4byte	.LFB2
 999 0044 02000000 		.4byte	.LFE2
 1000 0048 00000000 		.4byte	.LFB3
 1001 004c 20010000 		.4byte	.LFE3
 1002 0050 00000000 		.4byte	0
 1003 0054 00000000 		.4byte	0
 1004              		.section	.debug_line,"",%progbits
 1005              	.Ldebug_line0:
 1006 0000 70010000 		.section	.debug_str,"MS",%progbits,1
 1006      0200E700 
 1006      00000201 
 1006      FB0E0D00 
 1006      01010101 
 1007              	.LASF25:
 1008 0000 5F627373 		.ascii	"_bss_start\000"
 1008      5F737461 
 1008      727400
 1009              	.LASF5:
 1010 000b 5F5F7569 		.ascii	"__uint8_t\000"
 1010      6E74385F 
ARM GAS  C:\Users\jsyoon\AppData\Local\Temp\cc72OwWF.s 			page 19


 1010      7400
 1011              	.LASF30:
 1012 0015 5F5F6669 		.ascii	"__fini_array_end\000"
 1012      6E695F61 
 1012      72726179 
 1012      5F656E64 
 1012      00
 1013              	.LASF31:
 1014 0026 474E5520 		.ascii	"GNU C 4.8.4 20140526 (release) [ARM/embedded-4_8-br"
 1014      4320342E 
 1014      382E3420 
 1014      32303134 
 1014      30353236 
 1015 0059 616E6368 		.ascii	"anch revision 211358] -mcpu=cortex-m4 -mfloat-abi=h"
 1015      20726576 
 1015      6973696F 
 1015      6E203231 
 1015      31333538 
 1016 008c 61726420 		.ascii	"ard -mfpu=fpv4-sp-d16 -mno-thumb-interwork -mthumb "
 1016      2D6D6670 
 1016      753D6670 
 1016      76342D73 
 1016      702D6431 
 1017 00bf 2D676764 		.ascii	"-ggdb -O2 -std=gnu99 -fomit-frame-pointer -falign-f"
 1017      62202D4F 
 1017      32202D73 
 1017      74643D67 
 1017      6E753939 
 1018 00f2 756E6374 		.ascii	"unctions=16 -ffunction-sections -fdata-sections -fn"
 1018      696F6E73 
 1018      3D313620 
 1018      2D666675 
 1018      6E637469 
 1019 0125 6F2D636F 		.ascii	"o-common -fsingle-precision-constant\000"
 1019      6D6D6F6E 
 1019      202D6673 
 1019      696E676C 
 1019      652D7072 
 1020              	.LASF20:
 1021 014a 5F5F7072 		.ascii	"__process_stack_base__\000"
 1021      6F636573 
 1021      735F7374 
 1021      61636B5F 
 1021      62617365 
 1022              	.LASF14:
 1023 0161 66756E63 		.ascii	"funcpp_t\000"
 1023      70705F74 
 1023      00
 1024              	.LASF17:
 1025 016a 5F646566 		.ascii	"_default_exit\000"
 1025      61756C74 
 1025      5F657869 
 1025      7400
 1026              	.LASF1:
 1027 0178 756E7369 		.ascii	"unsigned char\000"
 1027      676E6564 
 1027      20636861 
ARM GAS  C:\Users\jsyoon\AppData\Local\Temp\cc72OwWF.s 			page 20


 1027      7200
 1028              	.LASF16:
 1029 0186 5F5F6C61 		.ascii	"__late_init\000"
 1029      74655F69 
 1029      6E697400 
 1030              	.LASF7:
 1031 0192 6C6F6E67 		.ascii	"long unsigned int\000"
 1031      20756E73 
 1031      69676E65 
 1031      6420696E 
 1031      7400
 1032              	.LASF34:
 1033 01a4 52657365 		.ascii	"ResetHandler\000"
 1033      7448616E 
 1033      646C6572 
 1033      00
 1034              	.LASF3:
 1035 01b1 73686F72 		.ascii	"short unsigned int\000"
 1035      7420756E 
 1035      7369676E 
 1035      65642069 
 1035      6E7400
 1036              	.LASF29:
 1037 01c4 5F5F6669 		.ascii	"__fini_array_start\000"
 1037      6E695F61 
 1037      72726179 
 1037      5F737461 
 1037      727400
 1038              	.LASF32:
 1039 01d7 43686962 		.ascii	"ChibiOS_2.6.6/os/ports/GCC/ARMCMx/crt0.c\000"
 1039      694F535F 
 1039      322E362E 
 1039      362F6F73 
 1039      2F706F72 
 1040              	.LASF26:
 1041 0200 5F627373 		.ascii	"_bss_end\000"
 1041      5F656E64 
 1041      00
 1042              	.LASF28:
 1043 0209 5F5F696E 		.ascii	"__init_array_end\000"
 1043      69745F61 
 1043      72726179 
 1043      5F656E64 
 1043      00
 1044              	.LASF6:
 1045 021a 5F5F7569 		.ascii	"__uint32_t\000"
 1045      6E743332 
 1045      5F7400
 1046              	.LASF35:
 1047 0225 6D61696E 		.ascii	"main\000"
 1047      00
 1048              	.LASF10:
 1049 022a 756E7369 		.ascii	"unsigned int\000"
 1049      676E6564 
 1049      20696E74 
 1049      00
 1050              	.LASF9:
ARM GAS  C:\Users\jsyoon\AppData\Local\Temp\cc72OwWF.s 			page 21


 1051 0237 6C6F6E67 		.ascii	"long long unsigned int\000"
 1051      206C6F6E 
 1051      6720756E 
 1051      7369676E 
 1051      65642069 
 1052              	.LASF11:
 1053 024e 75696E74 		.ascii	"uint8_t\000"
 1053      385F7400 
 1054              	.LASF22:
 1055 0256 5F746578 		.ascii	"_textdata\000"
 1055      74646174 
 1055      6100
 1056              	.LASF15:
 1057 0260 5F5F6561 		.ascii	"__early_init\000"
 1057      726C795F 
 1057      696E6974 
 1057      00
 1058              	.LASF8:
 1059 026d 6C6F6E67 		.ascii	"long long int\000"
 1059      206C6F6E 
 1059      6720696E 
 1059      7400
 1060              	.LASF24:
 1061 027b 5F656461 		.ascii	"_edata\000"
 1061      746100
 1062              	.LASF33:
 1063 0282 453A5C4D 		.ascii	"E:\\Maker\\BLDC\\test_eval\\try2\\OROCA-BLDC_R15080"
 1063      616B6572 
 1063      5C424C44 
 1063      435C7465 
 1063      73745F65 
 1064 02b0 3700     		.ascii	"7\000"
 1065              	.LASF18:
 1066 02b2 5F5F6D61 		.ascii	"__main_stack_base__\000"
 1066      696E5F73 
 1066      7461636B 
 1066      5F626173 
 1066      655F5F00 
 1067              	.LASF2:
 1068 02c6 73686F72 		.ascii	"short int\000"
 1068      7420696E 
 1068      7400
 1069              	.LASF13:
 1070 02d0 66756E63 		.ascii	"funcp_t\000"
 1070      705F7400 
 1071              	.LASF12:
 1072 02d8 75696E74 		.ascii	"uint32_t\000"
 1072      33325F74 
 1072      00
 1073              	.LASF4:
 1074 02e1 6C6F6E67 		.ascii	"long int\000"
 1074      20696E74 
 1074      00
 1075              	.LASF23:
 1076 02ea 5F646174 		.ascii	"_data\000"
 1076      6100
 1077              	.LASF0:
ARM GAS  C:\Users\jsyoon\AppData\Local\Temp\cc72OwWF.s 			page 22


 1078 02f0 7369676E 		.ascii	"signed char\000"
 1078      65642063 
 1078      68617200 
 1079              	.LASF21:
 1080 02fc 5F5F7072 		.ascii	"__process_stack_end__\000"
 1080      6F636573 
 1080      735F7374 
 1080      61636B5F 
 1080      656E645F 
 1081              	.LASF27:
 1082 0312 5F5F696E 		.ascii	"__init_array_start\000"
 1082      69745F61 
 1082      72726179 
 1082      5F737461 
 1082      727400
 1083              	.LASF19:
 1084 0325 5F5F6D61 		.ascii	"__main_stack_end__\000"
 1084      696E5F73 
 1084      7461636B 
 1084      5F656E64 
 1084      5F5F00
 1085              		.ident	"GCC: (GNU Tools for ARM Embedded Processors) 4.8.4 20140526 (release) [ARM/embedded-4_8-br
ARM GAS  C:\Users\jsyoon\AppData\Local\Temp\cc72OwWF.s 			page 23


DEFINED SYMBOLS
                            *ABS*:00000000 crt0.c
C:\Users\jsyoon\AppData\Local\Temp\cc72OwWF.s:21     .text.__early_init:00000000 $t
C:\Users\jsyoon\AppData\Local\Temp\cc72OwWF.s:27     .text.__early_init:00000000 __early_init
C:\Users\jsyoon\AppData\Local\Temp\cc72OwWF.s:40     .text.__late_init:00000000 $t
C:\Users\jsyoon\AppData\Local\Temp\cc72OwWF.s:46     .text.__late_init:00000000 __late_init
C:\Users\jsyoon\AppData\Local\Temp\cc72OwWF.s:58     .text._default_exit:00000000 $t
C:\Users\jsyoon\AppData\Local\Temp\cc72OwWF.s:64     .text._default_exit:00000000 _default_exit
C:\Users\jsyoon\AppData\Local\Temp\cc72OwWF.s:77     .text.ResetHandler:00000000 $t
C:\Users\jsyoon\AppData\Local\Temp\cc72OwWF.s:83     .text.ResetHandler:00000000 ResetHandler
C:\Users\jsyoon\AppData\Local\Temp\cc72OwWF.s:289    .text.ResetHandler:000000e0 $d
                     .debug_frame:00000010 $d

UNDEFINED SYMBOLS
main
__process_stack_end__
__main_stack_base__
__main_stack_end__
__process_stack_base__
_data
_edata
_textdata
_bss_start
_bss_end
__init_array_end
__init_array_start
__fini_array_end
__fini_array_start
