ARM GAS  C:\Users\jsyoon\AppData\Local\Temp\cc72OwWF.s 			page 1


   1              		.syntax unified
   2              		.cpu cortex-m4
   3              		.eabi_attribute 27, 3
   4              		.eabi_attribute 28, 1
   5              		.fpu fpv4-sp-d16
   6              		.eabi_attribute 20, 1
   7              		.eabi_attribute 21, 1
   8              		.eabi_attribute 23, 3
   9              		.eabi_attribute 24, 1
  10              		.eabi_attribute 25, 1
  11              		.eabi_attribute 26, 1
  12              		.eabi_attribute 30, 2
  13              		.eabi_attribute 34, 1
  14              		.eabi_attribute 18, 4
  15              		.thumb
  16              		.file	"crt0.c"
  17              		.text
  18              	.Ltext0:
  19              		.cfi_sections	.debug_frame
  20              		.section	.text.__early_init,"ax",%progbits
  21              		.align	2
  22              		.p2align 4,,15
  23              		.weak	__early_init
  24              		.thumb
  25              		.thumb_func
  26              		.type	__early_init, %function
  27              	__early_init:
  28              	.LFB0:
  29              		.file 1 "ChibiOS_2.6.6/os/ports/GCC/ARMCMx/crt0.c"
  30              		.loc 1 234 0
  31              		.cfi_startproc
  32              		@ args = 0, pretend = 0, frame = 0
  33              		@ frame_needed = 0, uses_anonymous_args = 0
  34              		@ link register save eliminated.
  35 0000 7047     		bx	lr
  36              		.cfi_endproc
  37              	.LFE0:
  38              		.size	__early_init, .-__early_init
  39 0002 00BFAFF3 		.section	.text.__late_init,"ax",%progbits
  39      0080AFF3 
  39      0080AFF3 
  39      0080
  40              		.align	2
  41              		.p2align 4,,15
  42              		.weak	__late_init
  43              		.thumb
  44              		.thumb_func
  45              		.type	__late_init, %function
  46              	__late_init:
  47              	.LFB1:
  48              		.loc 1 246 0
  49              		.cfi_startproc
  50              		@ args = 0, pretend = 0, frame = 0
  51              		@ frame_needed = 0, uses_anonymous_args = 0
  52              		@ link register save eliminated.
  53 0000 7047     		bx	lr
  54              		.cfi_endproc
ARM GAS  C:\Users\jsyoon\AppData\Local\Temp\cc72OwWF.s 			page 2


  55              	.LFE1:
  56              		.size	__late_init, .-__late_init
  57 0002 00BFAFF3 		.section	.text._default_exit,"ax",%progbits
  57      0080AFF3 
  57      0080AFF3 
  57      0080
  58              		.align	2
  59              		.p2align 4,,15
  60              		.weak	_default_exit
  61              		.thumb
  62              		.thumb_func
  63              		.type	_default_exit, %function
  64              	_default_exit:
  65              	.LFB2:
  66              		.loc 1 257 0
  67              		.cfi_startproc
  68              		@ Naked Function: prologue and epilogue provided by programmer.
  69              		@ args = 0, pretend = 0, frame = 0
  70              		@ frame_needed = 0, uses_anonymous_args = 0
  71              	.L4:
  72 0000 FEE7     		b	.L4
  73              		.cfi_endproc
  74              	.LFE2:
  75              		.size	_default_exit, .-_default_exit
  76 0002 00BFAFF3 		.section	.text.ResetHandler,"ax",%progbits
  76      0080AFF3 
  76      0080AFF3 
  76      0080
  77              		.align	2
  78              		.p2align 4,,15
  79              		.global	ResetHandler
  80              		.thumb
  81              		.thumb_func
  82              		.type	ResetHandler, %function
  83              	ResetHandler:
  84              	.LFB3:
  85              		.loc 1 268 0
  86              		.cfi_startproc
  87              		@ Naked Function: prologue and epilogue provided by programmer.
  88              		@ args = 0, pretend = 0, frame = 0
  89              		@ frame_needed = 0, uses_anonymous_args = 0
  90              		.loc 1 274 0
  91              	@ 274 "ChibiOS_2.6.6/os/ports/GCC/ARMCMx/crt0.c" 1
  92 0000 72B6     		cpsid   i
  93              	@ 0 "" 2
  94              		.loc 1 275 0
  95              		.thumb
  96 0002 3748     		ldr	r0, .L27
  97              	.LVL0:
  98              		.loc 1 276 0
  99              	@ 276 "ChibiOS_2.6.6/os/ports/GCC/ARMCMx/crt0.c" 1
 100 0004 80F30988 		msr     PSP, r0
 101              	@ 0 "" 2
 102              		.loc 1 283 0
 103              		.thumb
 104 0008 364B     		ldr	r3, .L27+4
 105              		.loc 1 280 0
ARM GAS  C:\Users\jsyoon\AppData\Local\Temp\cc72OwWF.s 			page 3


 106 000a 3749     		ldr	r1, .L27+8
 107              		.loc 1 283 0
 108 000c 1A68     		ldr	r2, [r3]
 109              		.loc 1 280 0
 110 000e 4FF04044 		mov	r4, #-1073741824
 111              		.loc 1 283 0
 112 0012 42F47002 		orr	r2, r2, #15728640
 113 0016 1A60     		str	r2, [r3]
 114              	.LVL1:
 115              		.loc 1 280 0
 116 0018 0C60     		str	r4, [r1]
 117              		.loc 1 287 0
 118 001a 0023     		movs	r3, #0
 119              	@ 287 "ChibiOS_2.6.6/os/ports/GCC/ARMCMx/crt0.c" 1
 120 001c E1EE103A 		vmsr    FPSCR, r3
 121              	@ 0 "" 2
 122              		.loc 1 296 0
 123              		.thumb
 124 0020 0622     		movs	r2, #6
 125              		.loc 1 288 0
 126 0022 8B60     		str	r3, [r1, #8]
 127              	.LVL2:
 128              		.loc 1 296 0
 129              	@ 296 "ChibiOS_2.6.6/os/ports/GCC/ARMCMx/crt0.c" 1
 130 0024 82F31488 		msr     CONTROL, r2
 131              	@ 0 "" 2
 132              		.loc 1 297 0
 133              	@ 297 "ChibiOS_2.6.6/os/ports/GCC/ARMCMx/crt0.c" 1
 134 0028 BFF36F8F 		isb
 135              	@ 0 "" 2
 136              	.LVL3:
 137              		.thumb
 138              	.LBB2:
 139              		.loc 1 301 0
 140 002c 2F4B     		ldr	r3, .L27+12
 141 002e 304A     		ldr	r2, .L27+16
 142 0030 9342     		cmp	r3, r2
 143 0032 0BD2     		bcs	.L9
 144 0034 D943     		mvns	r1, r3
 145 0036 1144     		add	r1, r1, r2
 146 0038 21F00301 		bic	r1, r1, #3
 147 003c 1944     		add	r1, r1, r3
 148 003e 4FF05532 		mov	r2, #1431655765
 149 0042 043B     		subs	r3, r3, #4
 150              	.LVL4:
 151              	.L10:
 152              		.loc 1 301 0 is_stmt 0 discriminator 2
 153 0044 43F8042F 		str	r2, [r3, #4]!
 154              	.LVL5:
 155 0048 8B42     		cmp	r3, r1
 156 004a FBD1     		bne	.L10
 157              	.LVL6:
 158              	.L9:
 159              	.LBE2:
 160              	.LBB3:
 161              		.loc 1 304 0 is_stmt 1
 162 004c 294B     		ldr	r3, .L27+20
ARM GAS  C:\Users\jsyoon\AppData\Local\Temp\cc72OwWF.s 			page 4


 163 004e 8342     		cmp	r3, r0
 164 0050 0CD2     		bcs	.L8
 165 0052 2949     		ldr	r1, .L27+24
 166 0054 1A1D     		adds	r2, r3, #4
 167 0056 891A     		subs	r1, r1, r2
 168 0058 21F00301 		bic	r1, r1, #3
 169 005c 1944     		add	r1, r1, r3
 170 005e 4FF05532 		mov	r2, #1431655765
 171 0062 043B     		subs	r3, r3, #4
 172              	.LVL7:
 173              	.L13:
 174              		.loc 1 304 0 is_stmt 0 discriminator 2
 175 0064 43F8042F 		str	r2, [r3, #4]!
 176              	.LVL8:
 177 0068 8B42     		cmp	r3, r1
 178 006a FBD1     		bne	.L13
 179              	.LVL9:
 180              	.L8:
 181              	.LBE3:
 182              		.loc 1 310 0 is_stmt 1
 183 006c FFF7FEFF 		bl	__early_init
 184              	.LVL10:
 185              	.LBB4:
 186              		.loc 1 319 0
 187 0070 2249     		ldr	r1, .L27+28
 188 0072 234B     		ldr	r3, .L27+32
 189 0074 9942     		cmp	r1, r3
 190 0076 0BD2     		bcs	.L12
 191 0078 C843     		mvns	r0, r1
 192 007a 1844     		add	r0, r0, r3
 193 007c 20F00300 		bic	r0, r0, #3
 194 0080 204C     		ldr	r4, .L27+36
 195 0082 0430     		adds	r0, r0, #4
 196 0084 0023     		movs	r3, #0
 197              	.LVL11:
 198              	.L16:
 199              		.loc 1 320 0
 200 0086 E258     		ldr	r2, [r4, r3]
 201 0088 CA50     		str	r2, [r1, r3]
 202 008a 0433     		adds	r3, r3, #4
 203              	.LVL12:
 204              		.loc 1 319 0
 205 008c 8342     		cmp	r3, r0
 206 008e FAD1     		bne	.L16
 207              	.LVL13:
 208              	.L12:
 209              	.LBE4:
 210              	.LBB5:
 211              		.loc 1 326 0
 212 0090 1D4B     		ldr	r3, .L27+40
 213 0092 1E4A     		ldr	r2, .L27+44
 214 0094 9342     		cmp	r3, r2
 215 0096 0AD2     		bcs	.L15
 216 0098 D943     		mvns	r1, r3
 217 009a 1144     		add	r1, r1, r2
 218 009c 21F00301 		bic	r1, r1, #3
 219 00a0 1944     		add	r1, r1, r3
ARM GAS  C:\Users\jsyoon\AppData\Local\Temp\cc72OwWF.s 			page 5


 220 00a2 0022     		movs	r2, #0
 221 00a4 043B     		subs	r3, r3, #4
 222              	.LVL14:
 223              	.L19:
 224              		.loc 1 326 0 is_stmt 0 discriminator 2
 225 00a6 43F8042F 		str	r2, [r3, #4]!
 226              	.LVL15:
 227 00aa 8B42     		cmp	r3, r1
 228 00ac FBD1     		bne	.L19
 229              	.LVL16:
 230              	.L15:
 231              	.LBE5:
 232              	.LBB6:
 233              		.loc 1 336 0 is_stmt 1
 234 00ae 184D     		ldr	r5, .L27+48
 235 00b0 184C     		ldr	r4, .L27+52
 236              	.LBE6:
 237              		.loc 1 330 0
 238 00b2 FFF7FEFF 		bl	__late_init
 239              	.LVL17:
 240              	.LBB7:
 241              		.loc 1 336 0
 242 00b6 AC42     		cmp	r4, r5
 243 00b8 04D2     		bcs	.L18
 244              	.LVL18:
 245              	.L22:
 246              		.loc 1 337 0
 247 00ba 54F8043B 		ldr	r3, [r4], #4
 248              	.LVL19:
 249 00be 9847     		blx	r3
 250              	.LVL20:
 251              		.loc 1 336 0
 252 00c0 AC42     		cmp	r4, r5
 253 00c2 FAD3     		bcc	.L22
 254              	.LVL21:
 255              	.L18:
 256              	.LBE7:
 257              	.LBB8:
 258              		.loc 1 350 0
 259 00c4 144D     		ldr	r5, .L27+56
 260 00c6 154C     		ldr	r4, .L27+60
 261              	.LBE8:
 262              		.loc 1 344 0
 263 00c8 FFF7FEFF 		bl	main
 264              	.LVL22:
 265              	.LBB9:
 266              		.loc 1 350 0
 267 00cc AC42     		cmp	r4, r5
 268 00ce 04D2     		bcs	.L21
 269              	.LVL23:
 270              	.L23:
 271              		.loc 1 351 0
 272 00d0 54F8043B 		ldr	r3, [r4], #4
 273              	.LVL24:
 274 00d4 9847     		blx	r3
 275              	.LVL25:
 276              		.loc 1 350 0
ARM GAS  C:\Users\jsyoon\AppData\Local\Temp\cc72OwWF.s 			page 6


 277 00d6 AC42     		cmp	r4, r5
 278 00d8 FAD3     		bcc	.L23
 279              	.LVL26:
 280              	.L21:
 281              	.LBE9:
 282              		.loc 1 358 0
 283 00da FFF7FEFF 		bl	_default_exit
 284              	.LVL27:
 285              		.loc 1 359 0
 286              	.L28:
 287 00de 00BF     		.align	2
 288              	.L27:
 289 00e0 00000000 		.word	__process_stack_end__
 290 00e4 88ED00E0 		.word	-536810104
 291 00e8 34EF00E0 		.word	-536809676
 292 00ec 00000000 		.word	__main_stack_base__
 293 00f0 00000000 		.word	__main_stack_end__
 294 00f4 00000000 		.word	__process_stack_base__
 295 00f8 03000000 		.word	__process_stack_end__+3
 296 00fc 00000000 		.word	_data
 297 0100 00000000 		.word	_edata
 298 0104 00000000 		.word	_textdata
 299 0108 00000000 		.word	_bss_start
 300 010c 00000000 		.word	_bss_end
 301 0110 00000000 		.word	__init_array_end
 302 0114 00000000 		.word	__init_array_start
 303 0118 00000000 		.word	__fini_array_end
 304 011c 00000000 		.word	__fini_array_start
 305              		.cfi_endproc
 306              	.LFE3:
 307              		.size	ResetHandler, .-ResetHandler
 308              		.text
 309              	.Letext0:
 310              		.file 2 "c:\\crosstools\\gcc-arm-embedded\\4.8_2014q2\\arm-none-eabi\\include\\machine\\_default_t
 311              		.file 3 "c:\\crosstools\\gcc-arm-embedded\\4.8_2014q2\\arm-none-eabi\\include\\stdint.h"