ARM GAS  C:\Users\jsyoon\AppData\Local\Temp\ccD00wm8.s 			page 1


   1              		.syntax unified
   2              		.cpu cortex-m4
   3              		.eabi_attribute 27, 3
   4              		.eabi_attribute 28, 1
   5              		.fpu fpv4-sp-d16
   6              		.eabi_attribute 20, 1
   7              		.eabi_attribute 21, 1
   8              		.eabi_attribute 23, 3
   9              		.eabi_attribute 24, 1
  10              		.eabi_attribute 25, 1
  11              		.eabi_attribute 26, 1
  12              		.eabi_attribute 30, 2
  13              		.eabi_attribute 34, 1
  14              		.eabi_attribute 18, 4
  15              		.thumb
  16              		.file	"eeprom.c"
  17              		.text
  18              	.Ltext0:
  19              		.cfi_sections	.debug_frame
  20              		.section	.text.EE_VerifyPageFullWriteVariable,"ax",%progbits
  21              		.align	2
  22              		.p2align 4,,15
  23              		.thumb
  24              		.thumb_func
  25              		.type	EE_VerifyPageFullWriteVariable, %function
  26              	EE_VerifyPageFullWriteVariable:
  27              	.LFB116:
  28              		.file 1 "eeprom.c"
  29              		.loc 1 463 0
  30              		.cfi_startproc
  31              		@ args = 0, pretend = 0, frame = 0
  32              		@ frame_needed = 0, uses_anonymous_args = 0
  33              	.LVL0:
  34 0000 38B5     		push	{r3, r4, r5, lr}
  35              		.cfi_def_cfa_offset 16
  36              		.cfi_offset 3, -16
  37              		.cfi_offset 4, -12
  38              		.cfi_offset 5, -8
  39              		.cfi_offset 14, -4
  40              	.LBB4:
  41              	.LBB5:
  42              		.loc 1 395 0
  43 0002 1A4A     		ldr	r2, .L20
  44              		.loc 1 398 0
  45 0004 1A4B     		ldr	r3, .L20+4
  46              		.loc 1 395 0
  47 0006 1288     		ldrh	r2, [r2]
  48              		.loc 1 398 0
  49 0008 1B88     		ldrh	r3, [r3]
  50 000a 9BB2     		uxth	r3, r3
  51              	.LBE5:
  52              	.LBE4:
  53              		.loc 1 463 0
  54 000c 0546     		mov	r5, r0
  55              	.LBB9:
  56              	.LBB6:
  57              		.loc 1 395 0
ARM GAS  C:\Users\jsyoon\AppData\Local\Temp\ccD00wm8.s 			page 2


  58 000e 92B2     		uxth	r2, r2
  59              	.LVL1:
  60              		.loc 1 404 0
  61 0010 DBB9     		cbnz	r3, .L2
  62              		.loc 1 407 0
  63 0012 4EF6EE63 		movw	r3, #61166
  64              	.LVL2:
  65              		.loc 1 421 0
  66 0016 D21A     		subs	r2, r2, r3
  67              	.LVL3:
  68 0018 18BF     		it	ne
  69 001a 0122     		movne	r2, #1
  70              	.LVL4:
  71              	.L3:
  72              	.LBE6:
  73              	.LBE9:
  74              		.loc 1 478 0
  75 001c 02F50054 		add	r4, r2, #8192
  76              		.loc 1 481 0
  77 0020 531C     		adds	r3, r2, #1
  78 0022 144A     		ldr	r2, .L20+8
  79              		.loc 1 478 0
  80 0024 0134     		adds	r4, r4, #1
  81              		.loc 1 481 0
  82 0026 9B03     		lsls	r3, r3, #14
  83              		.loc 1 478 0
  84 0028 A403     		lsls	r4, r4, #14
  85              	.LVL5:
  86              		.loc 1 481 0
  87 002a 1A44     		add	r2, r2, r3
  88              	.LVL6:
  89              		.loc 1 484 0
  90 002c 9442     		cmp	r4, r2
  91 002e 03D3     		bcc	.L7
  92 0030 0EE0     		b	.L11
  93              	.L9:
  94              		.loc 1 504 0
  95 0032 0434     		adds	r4, r4, #4
  96              	.LVL7:
  97              		.loc 1 484 0
  98 0034 A242     		cmp	r2, r4
  99 0036 0BD9     		bls	.L11
 100              	.L7:
 101              		.loc 1 487 0
 102 0038 2368     		ldr	r3, [r4]
 103 003a 0133     		adds	r3, r3, #1
 104 003c F9D1     		bne	.L9
 105              		.loc 1 490 0
 106 003e 2046     		mov	r0, r4
 107              	.LVL8:
 108 0040 FFF7FEFF 		bl	FLASH_ProgramHalfWord
 109              	.LVL9:
 110              		.loc 1 492 0
 111 0044 0828     		cmp	r0, #8
 112 0046 0BD0     		beq	.L18
 113              		.loc 1 510 0
 114 0048 38BD     		pop	{r3, r4, r5, pc}
ARM GAS  C:\Users\jsyoon\AppData\Local\Temp\ccD00wm8.s 			page 3


 115              	.LVL10:
 116              	.L2:
 117              	.LBB10:
 118              	.LBB7:
 119              		.loc 1 416 0
 120 004a 1AB1     		cbz	r2, .L19
 121              	.LBE7:
 122              	.LBE10:
 123              		.loc 1 474 0
 124 004c AB20     		movs	r0, #171
 125              	.LVL11:
 126 004e 38BD     		pop	{r3, r4, r5, pc}
 127              	.LVL12:
 128              	.L11:
 129              		.loc 1 509 0
 130 0050 8020     		movs	r0, #128
 131              	.LVL13:
 132 0052 38BD     		pop	{r3, r4, r5, pc}
 133              	.LVL14:
 134              	.L19:
 135              	.LBB11:
 136              	.LBB8:
 137              		.loc 1 419 0
 138 0054 4EF6EE62 		movw	r2, #61166
 139              	.LVL15:
 140              		.loc 1 421 0
 141 0058 9B1A     		subs	r3, r3, r2
 142              	.LVL16:
 143 005a 5A42     		rsbs	r2, r3, #0
 144 005c 5A41     		adcs	r2, r2, r3
 145 005e DDE7     		b	.L3
 146              	.LVL17:
 147              	.L18:
 148              	.LBE8:
 149              	.LBE11:
 150              		.loc 1 497 0
 151 0060 A01C     		adds	r0, r4, #2
 152              	.LVL18:
 153 0062 2946     		mov	r1, r5
 154 0064 FFF7FEFF 		bl	FLASH_ProgramHalfWord
 155              	.LVL19:
 156              		.loc 1 499 0
 157 0068 38BD     		pop	{r3, r4, r5, pc}
 158              	.LVL20:
 159              	.L21:
 160 006a 00BF     		.align	2
 161              	.L20:
 162 006c 00400008 		.word	134234112
 163 0070 00800008 		.word	134250496
 164 0074 FE3F0008 		.word	134234110
 165              		.cfi_endproc
 166              	.LFE116:
 167              		.size	EE_VerifyPageFullWriteVariable, .-EE_VerifyPageFullWriteVariable
 168 0078 AFF30080 		.section	.text.EE_Format,"ax",%progbits
 168      AFF30080 
 169              		.align	2
 170              		.p2align 4,,15
ARM GAS  C:\Users\jsyoon\AppData\Local\Temp\ccD00wm8.s 			page 4


 171              		.thumb
 172              		.thumb_func
 173              		.type	EE_Format, %function
 174              	EE_Format:
 175              	.LFB114:
 176              		.loc 1 353 0
 177              		.cfi_startproc
 178              		@ args = 0, pretend = 0, frame = 0
 179              		@ frame_needed = 0, uses_anonymous_args = 0
 180              	.LVL21:
 181 0000 08B5     		push	{r3, lr}
 182              		.cfi_def_cfa_offset 8
 183              		.cfi_offset 3, -8
 184              		.cfi_offset 14, -4
 185              		.loc 1 357 0
 186 0002 0820     		movs	r0, #8
 187 0004 0221     		movs	r1, #2
 188 0006 FFF7FEFF 		bl	FLASH_EraseSector
 189              	.LVL22:
 190              		.loc 1 360 0
 191 000a 0828     		cmp	r0, #8
 192 000c 00D0     		beq	.L26
 193              	.LVL23:
 194              	.L23:
 195              		.loc 1 379 0
 196 000e 08BD     		pop	{r3, pc}
 197              	.LVL24:
 198              	.L26:
 199              		.loc 1 366 0
 200 0010 0548     		ldr	r0, .L27
 201              	.LVL25:
 202 0012 0021     		movs	r1, #0
 203 0014 FFF7FEFF 		bl	FLASH_ProgramHalfWord
 204              	.LVL26:
 205              		.loc 1 369 0
 206 0018 0828     		cmp	r0, #8
 207 001a F8D1     		bne	.L23
 208              	.LBB14:
 209              	.LBB15:
 210              		.loc 1 375 0
 211 001c 1020     		movs	r0, #16
 212              	.LVL27:
 213 001e 0221     		movs	r1, #2
 214              	.LBE15:
 215              	.LBE14:
 216              		.loc 1 379 0
 217 0020 BDE80840 		pop	{r3, lr}
 218              	.LBB17:
 219              	.LBB16:
 220              		.loc 1 375 0
 221 0024 FFF7FEBF 		b	FLASH_EraseSector
 222              	.LVL28:
 223              	.L28:
 224              		.align	2
 225              	.L27:
 226 0028 00400008 		.word	134234112
 227              	.LBE16:
ARM GAS  C:\Users\jsyoon\AppData\Local\Temp\ccD00wm8.s 			page 5


 228              	.LBE17:
 229              		.cfi_endproc
 230              	.LFE114:
 231              		.size	EE_Format, .-EE_Format
 232 002c AFF30080 		.section	.text.EE_ReadVariable,"ax",%progbits
 233              		.align	2
 234              		.p2align 4,,15
 235              		.global	EE_ReadVariable
 236              		.thumb
 237              		.thumb_func
 238              		.type	EE_ReadVariable, %function
 239              	EE_ReadVariable:
 240              	.LFB112:
 241              		.loc 1 270 0
 242              		.cfi_startproc
 243              		@ args = 0, pretend = 0, frame = 0
 244              		@ frame_needed = 0, uses_anonymous_args = 0
 245              		@ link register save eliminated.
 246              	.LVL29:
 247              	.LBB20:
 248              	.LBB21:
 249              		.loc 1 395 0
 250 0000 154B     		ldr	r3, .L39
 251              		.loc 1 398 0
 252 0002 164A     		ldr	r2, .L39+4
 253              		.loc 1 395 0
 254 0004 1B88     		ldrh	r3, [r3]
 255              		.loc 1 398 0
 256 0006 1288     		ldrh	r2, [r2]
 257              		.loc 1 395 0
 258 0008 9BB2     		uxth	r3, r3
 259              	.LVL30:
 260              	.LBE21:
 261              	.LBE20:
 262              		.loc 1 270 0
 263 000a 10B4     		push	{r4}
 264              		.cfi_def_cfa_offset 4
 265              		.cfi_offset 4, -4
 266              	.LBB25:
 267              	.LBB22:
 268              		.loc 1 398 0
 269 000c 92B2     		uxth	r2, r2
 270              	.LVL31:
 271              		.loc 1 434 0
 272 000e BBB1     		cbz	r3, .L36
 273              		.loc 1 438 0
 274 0010 1AB1     		cbz	r2, .L37
 275              	.LBE22:
 276              	.LBE25:
 277              		.loc 1 281 0
 278 0012 AB20     		movs	r0, #171
 279              	.LVL32:
 280              		.loc 1 316 0
 281 0014 5DF8044B 		ldr	r4, [sp], #4
 282 0018 7047     		bx	lr
 283              	.LVL33:
 284              	.L37:
ARM GAS  C:\Users\jsyoon\AppData\Local\Temp\ccD00wm8.s 			page 6


 285              	.LBB26:
 286              	.LBB23:
 287              		.loc 1 438 0
 288 001a 114B     		ldr	r3, .L39+8
 289              	.LVL34:
 290 001c 114C     		ldr	r4, .L39+12
 291 001e 1A46     		mov	r2, r3
 292              	.LVL35:
 293              	.L30:
 294              	.LBE23:
 295              	.LBE26:
 296              		.loc 1 294 0
 297 0020 1288     		ldrh	r2, [r2]
 298 0022 92B2     		uxth	r2, r2
 299              	.LVL36:
 300              		.loc 1 297 0
 301 0024 8242     		cmp	r2, r0
 302 0026 04D1     		bne	.L35
 303 0028 0EE0     		b	.L34
 304              	.LVL37:
 305              	.L33:
 306              		.loc 1 294 0
 307 002a 1A88     		ldrh	r2, [r3]
 308 002c 92B2     		uxth	r2, r2
 309              	.LVL38:
 310              		.loc 1 297 0
 311 002e 8242     		cmp	r2, r0
 312 0030 0AD0     		beq	.L34
 313              	.LVL39:
 314              	.L35:
 315              		.loc 1 310 0
 316 0032 043B     		subs	r3, r3, #4
 317              	.LVL40:
 318              		.loc 1 291 0
 319 0034 A342     		cmp	r3, r4
 320 0036 F8D8     		bhi	.L33
 321              		.loc 1 272 0
 322 0038 0120     		movs	r0, #1
 323              	.LVL41:
 324              		.loc 1 316 0
 325 003a 5DF8044B 		ldr	r4, [sp], #4
 326 003e 7047     		bx	lr
 327              	.LVL42:
 328              	.L36:
 329              	.LBB27:
 330              	.LBB24:
 331              		.loc 1 434 0
 332 0040 094B     		ldr	r3, .L39+16
 333              	.LVL43:
 334 0042 0A4C     		ldr	r4, .L39+20
 335 0044 1A46     		mov	r2, r3
 336              	.LVL44:
 337 0046 EBE7     		b	.L30
 338              	.LVL45:
 339              	.L34:
 340              	.LBE24:
 341              	.LBE27:
ARM GAS  C:\Users\jsyoon\AppData\Local\Temp\ccD00wm8.s 			page 7


 342              		.loc 1 300 0
 343 0048 33F8023C 		ldrh	r3, [r3, #-2]
 344              	.LVL46:
 345 004c 0B80     		strh	r3, [r1]	@ movhi
 346              	.LVL47:
 347              		.loc 1 303 0
 348 004e 0020     		movs	r0, #0
 349              	.LVL48:
 350              		.loc 1 316 0
 351 0050 5DF8044B 		ldr	r4, [sp], #4
 352 0054 7047     		bx	lr
 353              	.L40:
 354 0056 00BF     		.align	2
 355              	.L39:
 356 0058 00400008 		.word	134234112
 357 005c 00800008 		.word	134250496
 358 0060 FEBF0008 		.word	134266878
 359 0064 02800008 		.word	134250498
 360 0068 FE7F0008 		.word	134250494
 361 006c 02400008 		.word	134234114
 362              		.cfi_endproc
 363              	.LFE112:
 364              		.size	EE_ReadVariable, .-EE_ReadVariable
 365              		.section	.text.EE_Init,"ax",%progbits
 366              		.align	2
 367              		.p2align 4,,15
 368              		.global	EE_Init
 369              		.thumb
 370              		.thumb_func
 371              		.type	EE_Init, %function
 372              	EE_Init:
 373              	.LFB111:
 374              		.loc 1 55 0
 375              		.cfi_startproc
 376              		@ args = 0, pretend = 0, frame = 0
 377              		@ frame_needed = 0, uses_anonymous_args = 0
 378              	.LVL49:
 379 0000 2DE9F041 		push	{r4, r5, r6, r7, r8, lr}
 380              		.cfi_def_cfa_offset 24
 381              		.cfi_offset 4, -24
 382              		.cfi_offset 5, -20
 383              		.cfi_offset 6, -16
 384              		.cfi_offset 7, -12
 385              		.cfi_offset 8, -8
 386              		.cfi_offset 14, -4
 387              		.loc 1 63 0
 388 0004 4F4D     		ldr	r5, .L87
 389              		.loc 1 65 0
 390 0006 504F     		ldr	r7, .L87+4
 391              		.loc 1 63 0
 392 0008 2B88     		ldrh	r3, [r5]
 393              		.loc 1 65 0
 394 000a 3C88     		ldrh	r4, [r7]
 395              		.loc 1 63 0
 396 000c 9BB2     		uxth	r3, r3
 397              	.LVL50:
 398              		.loc 1 68 0
ARM GAS  C:\Users\jsyoon\AppData\Local\Temp\ccD00wm8.s 			page 8


 399 000e 4EF6EE62 		movw	r2, #61166
 400 0012 9342     		cmp	r3, r2
 401              		.loc 1 65 0
 402 0014 A4B2     		uxth	r4, r4
 403              	.LVL51:
 404              		.loc 1 68 0
 405 0016 3CD0     		beq	.L43
 406 0018 4FF6FF76 		movw	r6, #65535
 407 001c B342     		cmp	r3, r6
 408 001e 2CD0     		beq	.L44
 409 0020 1BB1     		cbz	r3, .L82
 410              	.LVL52:
 411              	.L78:
 412              		.loc 1 247 0
 413 0022 FFF7FEFF 		bl	EE_Format
 414              	.LVL53:
 415 0026 BDE8F081 		pop	{r4, r5, r6, r7, r8, pc}
 416              	.LVL54:
 417              	.L82:
 418              		.loc 1 182 0
 419 002a 002C     		cmp	r4, #0
 420 002c F9D0     		beq	.L78
 421              		.loc 1 192 0
 422 002e B442     		cmp	r4, r6
 423 0030 7CD0     		beq	.L81
 424 0032 464D     		ldr	r5, .L87+8
 425              		.loc 1 207 0
 426 0034 464F     		ldr	r7, .L87+12
 427              		.loc 1 214 0
 428 0036 DFF81C81 		ldr	r8, .L87+16
 429              		.loc 1 192 0
 430 003a 1C46     		mov	r4, r3
 431              	.LVL55:
 432 003c 01E0     		b	.L62
 433              	.LVL56:
 434              	.L61:
 435              		.loc 1 205 0
 436 003e A02C     		cmp	r4, #160
 437 0040 63D0     		beq	.L83
 438              	.LVL57:
 439              	.L62:
 440              		.loc 1 207 0
 441 0042 3A88     		ldrh	r2, [r7]
 442 0044 35F8023B 		ldrh	r3, [r5], #2
 443              		.loc 1 214 0
 444 0048 4249     		ldr	r1, .L87+16
 445              		.loc 1 207 0
 446 004a 92B2     		uxth	r2, r2
 447 004c 9A42     		cmp	r2, r3
 448              		.loc 1 209 0
 449 004e 08BF     		it	eq
 450 0050 A6B2     		uxtheq	r6, r4
 451              	.LVL58:
 452              		.loc 1 214 0
 453 0052 1846     		mov	r0, r3
 454              		.loc 1 211 0
 455 0054 33B2     		sxth	r3, r6
ARM GAS  C:\Users\jsyoon\AppData\Local\Temp\ccD00wm8.s 			page 9


 456 0056 9C42     		cmp	r4, r3
 457 0058 04F10104 		add	r4, r4, #1
 458              	.LVL59:
 459 005c EFD0     		beq	.L61
 460              		.loc 1 214 0
 461 005e FFF7FEFF 		bl	EE_ReadVariable
 462              	.LVL60:
 463              		.loc 1 216 0
 464 0062 0128     		cmp	r0, #1
 465 0064 EBD0     		beq	.L61
 466              		.loc 1 219 0
 467 0066 35F8020C 		ldrh	r0, [r5, #-2]
 468              	.LVL61:
 469 006a B8F80010 		ldrh	r1, [r8]
 470 006e FFF7FEFF 		bl	EE_VerifyPageFullWriteVariable
 471              	.LVL62:
 472              		.loc 1 221 0
 473 0072 0828     		cmp	r0, #8
 474 0074 E3D0     		beq	.L61
 475 0076 BDE8F081 		pop	{r4, r5, r6, r7, r8, pc}
 476              	.LVL63:
 477              	.L44:
 478              		.loc 1 71 0
 479 007a 002C     		cmp	r4, #0
 480 007c 3FD0     		beq	.L84
 481              		.loc 1 81 0
 482 007e 9442     		cmp	r4, r2
 483 0080 CFD1     		bne	.L78
 484              		.loc 1 84 0
 485 0082 0820     		movs	r0, #8
 486 0084 0221     		movs	r1, #2
 487 0086 FFF7FEFF 		bl	FLASH_EraseSector
 488              	.LVL64:
 489              		.loc 1 86 0
 490 008a 0828     		cmp	r0, #8
 491 008c 54D0     		beq	.L85
 492              	.LVL65:
 493              	.L47:
 494              		.loc 1 257 0
 495 008e BDE8F081 		pop	{r4, r5, r6, r7, r8, pc}
 496              	.LVL66:
 497              	.L43:
 498              		.loc 1 111 0
 499 0092 24BB     		cbnz	r4, .L49
 500 0094 2D4D     		ldr	r5, .L87+8
 501              		.loc 1 116 0
 502 0096 304F     		ldr	r7, .L87+20
 503              		.loc 1 123 0
 504 0098 DFF8B880 		ldr	r8, .L87+16
 505              		.loc 1 111 0
 506 009c 4FF6FF76 		movw	r6, #65535
 507 00a0 01E0     		b	.L55
 508              	.LVL67:
 509              	.L54:
 510              		.loc 1 114 0
 511 00a2 A02C     		cmp	r4, #160
 512 00a4 3CD0     		beq	.L86
ARM GAS  C:\Users\jsyoon\AppData\Local\Temp\ccD00wm8.s 			page 10


 513              	.LVL68:
 514              	.L55:
 515              		.loc 1 116 0
 516 00a6 3A88     		ldrh	r2, [r7]
 517 00a8 35F8023B 		ldrh	r3, [r5], #2
 518              		.loc 1 123 0
 519 00ac 2949     		ldr	r1, .L87+16
 520              		.loc 1 116 0
 521 00ae 92B2     		uxth	r2, r2
 522 00b0 9A42     		cmp	r2, r3
 523              		.loc 1 118 0
 524 00b2 08BF     		it	eq
 525 00b4 A6B2     		uxtheq	r6, r4
 526              	.LVL69:
 527              		.loc 1 123 0
 528 00b6 1846     		mov	r0, r3
 529              		.loc 1 120 0
 530 00b8 33B2     		sxth	r3, r6
 531 00ba 9C42     		cmp	r4, r3
 532 00bc 04F10104 		add	r4, r4, #1
 533              	.LVL70:
 534 00c0 EFD0     		beq	.L54
 535              		.loc 1 123 0
 536 00c2 FFF7FEFF 		bl	EE_ReadVariable
 537              	.LVL71:
 538              		.loc 1 125 0
 539 00c6 0128     		cmp	r0, #1
 540 00c8 EBD0     		beq	.L54
 541              		.loc 1 128 0
 542 00ca 35F8020C 		ldrh	r0, [r5, #-2]
 543              	.LVL72:
 544 00ce B8F80010 		ldrh	r1, [r8]
 545 00d2 FFF7FEFF 		bl	EE_VerifyPageFullWriteVariable
 546              	.LVL73:
 547              		.loc 1 130 0
 548 00d6 0828     		cmp	r0, #8
 549 00d8 E3D0     		beq	.L54
 550 00da BDE8F081 		pop	{r4, r5, r6, r7, r8, pc}
 551              	.LVL74:
 552              	.L49:
 553              		.loc 1 152 0
 554 00de 4FF6FF73 		movw	r3, #65535
 555              	.LVL75:
 556 00e2 9C42     		cmp	r4, r3
 557 00e4 9DD1     		bne	.L78
 558              		.loc 1 155 0
 559 00e6 1020     		movs	r0, #16
 560 00e8 0221     		movs	r1, #2
 561 00ea FFF7FEFF 		bl	FLASH_EraseSector
 562              	.LVL76:
 563              		.loc 1 157 0
 564 00ee 0828     		cmp	r0, #8
 565 00f0 CDD1     		bne	.L47
 566              		.loc 1 162 0
 567 00f2 2846     		mov	r0, r5
 568              	.LVL77:
 569 00f4 0021     		movs	r1, #0
ARM GAS  C:\Users\jsyoon\AppData\Local\Temp\ccD00wm8.s 			page 11


 570 00f6 FFF7FEFF 		bl	FLASH_ProgramHalfWord
 571              	.LVL78:
 572 00fa BDE8F081 		pop	{r4, r5, r6, r7, r8, pc}
 573              	.LVL79:
 574              	.L84:
 575              		.loc 1 74 0
 576 00fe 0221     		movs	r1, #2
 577 0100 0820     		movs	r0, #8
 578 0102 FFF7FEFF 		bl	FLASH_EraseSector
 579              	.LVL80:
 580 0106 BDE8F081 		pop	{r4, r5, r6, r7, r8, pc}
 581              	.LVL81:
 582              	.L83:
 583              		.loc 1 229 0
 584 010a 0F48     		ldr	r0, .L87+4
 585 010c 0021     		movs	r1, #0
 586 010e FFF7FEFF 		bl	FLASH_ProgramHalfWord
 587              	.LVL82:
 588              		.loc 1 231 0
 589 0112 0828     		cmp	r0, #8
 590 0114 BBD1     		bne	.L47
 591              		.loc 1 236 0
 592 0116 0221     		movs	r1, #2
 593 0118 FFF7FEFF 		bl	FLASH_EraseSector
 594              	.LVL83:
 595 011c BDE8F081 		pop	{r4, r5, r6, r7, r8, pc}
 596              	.LVL84:
 597              	.L86:
 598              		.loc 1 138 0
 599 0120 0848     		ldr	r0, .L87
 600 0122 0021     		movs	r1, #0
 601 0124 FFF7FEFF 		bl	FLASH_ProgramHalfWord
 602              	.LVL85:
 603              		.loc 1 140 0
 604 0128 0828     		cmp	r0, #8
 605 012a B0D1     		bne	.L47
 606              	.LVL86:
 607              	.L81:
 608              		.loc 1 195 0
 609 012c 0221     		movs	r1, #2
 610 012e 1020     		movs	r0, #16
 611 0130 FFF7FEFF 		bl	FLASH_EraseSector
 612              	.LVL87:
 613 0134 BDE8F081 		pop	{r4, r5, r6, r7, r8, pc}
 614              	.LVL88:
 615              	.L85:
 616              		.loc 1 91 0
 617 0138 3846     		mov	r0, r7
 618              	.LVL89:
 619 013a 0021     		movs	r1, #0
 620 013c FFF7FEFF 		bl	FLASH_ProgramHalfWord
 621              	.LVL90:
 622 0140 BDE8F081 		pop	{r4, r5, r6, r7, r8, pc}
 623              	.LVL91:
 624              	.L88:
 625              		.align	2
 626              	.L87:
ARM GAS  C:\Users\jsyoon\AppData\Local\Temp\ccD00wm8.s 			page 12


 627 0144 00400008 		.word	134234112
 628 0148 00800008 		.word	134250496
 629 014c 00000000 		.word	VirtAddVarTab
 630 0150 06800008 		.word	134250502
 631 0154 00000000 		.word	.LANCHOR0
 632 0158 06400008 		.word	134234118
 633              		.cfi_endproc
 634              	.LFE111:
 635              		.size	EE_Init, .-EE_Init
 636 015c AFF30080 		.section	.text.EE_WriteVariable,"ax",%progbits
 637              		.align	2
 638              		.p2align 4,,15
 639              		.global	EE_WriteVariable
 640              		.thumb
 641              		.thumb_func
 642              		.type	EE_WriteVariable, %function
 643              	EE_WriteVariable:
 644              	.LFB113:
 645              		.loc 1 329 0
 646              		.cfi_startproc
 647              		@ args = 0, pretend = 0, frame = 0
 648              		@ frame_needed = 0, uses_anonymous_args = 0
 649              	.LVL92:
 650 0000 2DE9F843 		push	{r3, r4, r5, r6, r7, r8, r9, lr}
 651              		.cfi_def_cfa_offset 32
 652              		.cfi_offset 3, -32
 653              		.cfi_offset 4, -28
 654              		.cfi_offset 5, -24
 655              		.cfi_offset 6, -20
 656              		.cfi_offset 7, -16
 657              		.cfi_offset 8, -12
 658              		.cfi_offset 9, -8
 659              		.cfi_offset 14, -4
 660              		.loc 1 329 0
 661 0004 0446     		mov	r4, r0
 662 0006 0D46     		mov	r5, r1
 663              		.loc 1 333 0
 664 0008 FFF7FEFF 		bl	EE_VerifyPageFullWriteVariable
 665              	.LVL93:
 666              		.loc 1 336 0
 667 000c 8028     		cmp	r0, #128
 668 000e 01D0     		beq	.L109
 669              	.LVL94:
 670              	.L90:
 671              		.loc 1 344 0
 672 0010 BDE8F883 		pop	{r3, r4, r5, r6, r7, r8, r9, pc}
 673              	.L109:
 674              	.LVL95:
 675              	.LBB32:
 676              	.LBB33:
 677              	.LBB34:
 678              	.LBB35:
 679              		.loc 1 395 0
 680 0014 224B     		ldr	r3, .L112
 681              		.loc 1 398 0
 682 0016 2348     		ldr	r0, .L112+4
 683              	.LVL96:
ARM GAS  C:\Users\jsyoon\AppData\Local\Temp\ccD00wm8.s 			page 13


 684              		.loc 1 395 0
 685 0018 1A88     		ldrh	r2, [r3]
 686              		.loc 1 398 0
 687 001a 0188     		ldrh	r1, [r0]
 688              		.loc 1 395 0
 689 001c 92B2     		uxth	r2, r2
 690              	.LVL97:
 691              		.loc 1 398 0
 692 001e 89B2     		uxth	r1, r1
 693              	.LVL98:
 694              		.loc 1 434 0
 695 0020 12B1     		cbz	r2, .L100
 696              		.loc 1 438 0
 697 0022 69B3     		cbz	r1, .L110
 698              	.LBE35:
 699              	.LBE34:
 700              		.loc 1 552 0
 701 0024 AB20     		movs	r0, #171
 702 0026 F3E7     		b	.L90
 703              	.L100:
 704              		.loc 1 545 0
 705 0028 0746     		mov	r7, r0
 706              		.loc 1 548 0
 707 002a 4FF00808 		mov	r8, #8
 708              	.L91:
 709              	.LVL99:
 710              		.loc 1 556 0
 711 002e 3846     		mov	r0, r7
 712 0030 4EF6EE61 		movw	r1, #61166
 713              	.LVL100:
 714 0034 FFF7FEFF 		bl	FLASH_ProgramHalfWord
 715              	.LVL101:
 716              		.loc 1 558 0
 717 0038 0828     		cmp	r0, #8
 718 003a E9D1     		bne	.L90
 719              		.loc 1 564 0
 720 003c 2946     		mov	r1, r5
 721 003e 2046     		mov	r0, r4
 722              	.LVL102:
 723 0040 FFF7FEFF 		bl	EE_VerifyPageFullWriteVariable
 724              	.LVL103:
 725              		.loc 1 566 0
 726 0044 0828     		cmp	r0, #8
 727 0046 E3D1     		bne	.L90
 728 0048 174D     		ldr	r5, .L112+8
 729              	.LVL104:
 730              		.loc 1 577 0
 731 004a DFF86090 		ldr	r9, .L112+12
 732 004e 05F5A076 		add	r6, r5, #320
 733 0052 01E0     		b	.L98
 734              	.LVL105:
 735              	.L97:
 736              		.loc 1 572 0
 737 0054 B542     		cmp	r5, r6
 738 0056 17D0     		beq	.L111
 739              	.L98:
 740              		.loc 1 574 0
ARM GAS  C:\Users\jsyoon\AppData\Local\Temp\ccD00wm8.s 			page 14


 741 0058 35F8023B 		ldrh	r3, [r5], #2
 742              		.loc 1 577 0
 743 005c 1349     		ldr	r1, .L112+12
 744              		.loc 1 574 0
 745 005e 9C42     		cmp	r4, r3
 746              		.loc 1 577 0
 747 0060 1846     		mov	r0, r3
 748              		.loc 1 574 0
 749 0062 F7D0     		beq	.L97
 750              		.loc 1 577 0
 751 0064 FFF7FEFF 		bl	EE_ReadVariable
 752              	.LVL106:
 753              		.loc 1 579 0
 754 0068 0128     		cmp	r0, #1
 755 006a F3D0     		beq	.L97
 756              		.loc 1 582 0
 757 006c 35F8020C 		ldrh	r0, [r5, #-2]
 758              	.LVL107:
 759 0070 B9F80010 		ldrh	r1, [r9]
 760 0074 FFF7FEFF 		bl	EE_VerifyPageFullWriteVariable
 761              	.LVL108:
 762              		.loc 1 584 0
 763 0078 0828     		cmp	r0, #8
 764 007a EBD0     		beq	.L97
 765 007c BDE8F883 		pop	{r3, r4, r5, r6, r7, r8, r9, pc}
 766              	.LVL109:
 767              	.L110:
 768              		.loc 1 537 0
 769 0080 1F46     		mov	r7, r3
 770              		.loc 1 540 0
 771 0082 4FF01008 		mov	r8, #16
 772 0086 D2E7     		b	.L91
 773              	.LVL110:
 774              	.L111:
 775              		.loc 1 593 0
 776 0088 4046     		mov	r0, r8
 777 008a 0221     		movs	r1, #2
 778 008c FFF7FEFF 		bl	FLASH_EraseSector
 779              	.LVL111:
 780              		.loc 1 595 0
 781 0090 0828     		cmp	r0, #8
 782 0092 BDD1     		bne	.L90
 783              		.loc 1 601 0
 784 0094 3846     		mov	r0, r7
 785              	.LVL112:
 786 0096 0021     		movs	r1, #0
 787 0098 FFF7FEFF 		bl	FLASH_ProgramHalfWord
 788              	.LVL113:
 789 009c BDE8F883 		pop	{r3, r4, r5, r6, r7, r8, r9, pc}
 790              	.LVL114:
 791              	.L113:
 792              		.align	2
 793              	.L112:
 794 00a0 00400008 		.word	134234112
 795 00a4 00800008 		.word	134250496
 796 00a8 00000000 		.word	VirtAddVarTab
 797 00ac 00000000 		.word	.LANCHOR0
ARM GAS  C:\Users\jsyoon\AppData\Local\Temp\ccD00wm8.s 			page 15


 798              	.LBE33:
 799              	.LBE32:
 800              		.cfi_endproc
 801              	.LFE113:
 802              		.size	EE_WriteVariable, .-EE_WriteVariable
 803              		.global	DataVar
 804              		.section	.bss.DataVar,"aw",%nobits
 805              		.align	1
 806              		.set	.LANCHOR0,. + 0
 807              		.type	DataVar, %object
 808              		.size	DataVar, 2
 809              	DataVar:
 810 0000 0000     		.space	2
 811              		.text
 812              	.Letext0:
 813              		.file 2 "c:\\crosstools\\gcc-arm-embedded\\4.8_2014q2\\arm-none-eabi\\include\\machine\\_default_t
 814              		.file 3 "c:\\crosstools\\gcc-arm-embedded\\4.8_2014q2\\arm-none-eabi\\include\\stdint.h"
 815              		.file 4 "ChibiOS_2.6.6/ext/stdperiph_stm32f4/inc/stm32f4xx_flash.h"
 816              		.file 5 "ChibiOS_2.6.6/os/ports/common/ARMCMx/CMSIS/include/core_cm4.h"
 817              		.section	.debug_info,"",%progbits
 818              	.Ldebug_info0:
 819 0000 8A070000 		.4byte	0x78a
 820 0004 0400     		.2byte	0x4
 821 0006 00000000 		.4byte	.Ldebug_abbrev0
 822 000a 04       		.byte	0x4
 823 000b 01       		.uleb128 0x1
 824 000c 34000000 		.4byte	.LASF55
 825 0010 01       		.byte	0x1
 826 0011 2B040000 		.4byte	.LASF56
 827 0015 88030000 		.4byte	.LASF57
 828 0019 68000000 		.4byte	.Ldebug_ranges0+0x68
 829 001d 00000000 		.4byte	0
 830 0021 00000000 		.4byte	.Ldebug_line0
 831 0025 02       		.uleb128 0x2
 832 0026 01       		.byte	0x1
 833 0027 06       		.byte	0x6
 834 0028 02040000 		.4byte	.LASF0
 835 002c 03       		.uleb128 0x3
 836 002d 20000000 		.4byte	.LASF2
 837 0031 02       		.byte	0x2
 838 0032 1C       		.byte	0x1c
 839 0033 37000000 		.4byte	0x37
 840 0037 02       		.uleb128 0x2
 841 0038 01       		.byte	0x1
 842 0039 08       		.byte	0x8
 843 003a E3010000 		.4byte	.LASF1
 844 003e 03       		.uleb128 0x3
 845 003f 2A000000 		.4byte	.LASF3
 846 0043 02       		.byte	0x2
 847 0044 25       		.byte	0x25
 848 0045 49000000 		.4byte	0x49
 849 0049 02       		.uleb128 0x2
 850 004a 02       		.byte	0x2
 851 004b 05       		.byte	0x5
 852 004c 83010000 		.4byte	.LASF4
 853 0050 03       		.uleb128 0x3
 854 0051 A5020000 		.4byte	.LASF5
ARM GAS  C:\Users\jsyoon\AppData\Local\Temp\ccD00wm8.s 			page 16


 855 0055 02       		.byte	0x2
 856 0056 26       		.byte	0x26
 857 0057 5B000000 		.4byte	0x5b
 858 005b 02       		.uleb128 0x2
 859 005c 02       		.byte	0x2
 860 005d 07       		.byte	0x7
 861 005e 23020000 		.4byte	.LASF6
 862 0062 03       		.uleb128 0x3
 863 0063 67010000 		.4byte	.LASF7
 864 0067 02       		.byte	0x2
 865 0068 37       		.byte	0x37
 866 0069 6D000000 		.4byte	0x6d
 867 006d 02       		.uleb128 0x2
 868 006e 04       		.byte	0x4
 869 006f 05       		.byte	0x5
 870 0070 F9030000 		.4byte	.LASF8
 871 0074 03       		.uleb128 0x3
 872 0075 B5020000 		.4byte	.LASF9
 873 0079 02       		.byte	0x2
 874 007a 38       		.byte	0x38
 875 007b 7F000000 		.4byte	0x7f
 876 007f 02       		.uleb128 0x2
 877 0080 04       		.byte	0x4
 878 0081 07       		.byte	0x7
 879 0082 11020000 		.4byte	.LASF10
 880 0086 02       		.uleb128 0x2
 881 0087 08       		.byte	0x8
 882 0088 05       		.byte	0x5
 883 0089 57030000 		.4byte	.LASF11
 884 008d 02       		.uleb128 0x2
 885 008e 08       		.byte	0x8
 886 008f 07       		.byte	0x7
 887 0090 F6020000 		.4byte	.LASF12
 888 0094 04       		.uleb128 0x4
 889 0095 04       		.byte	0x4
 890 0096 05       		.byte	0x5
 891 0097 696E7400 		.ascii	"int\000"
 892 009b 02       		.uleb128 0x2
 893 009c 04       		.byte	0x4
 894 009d 07       		.byte	0x7
 895 009e DF020000 		.4byte	.LASF13
 896 00a2 03       		.uleb128 0x3
 897 00a3 0D030000 		.4byte	.LASF14
 898 00a7 03       		.byte	0x3
 899 00a8 2A       		.byte	0x2a
 900 00a9 2C000000 		.4byte	0x2c
 901 00ad 03       		.uleb128 0x3
 902 00ae 1D030000 		.4byte	.LASF15
 903 00b2 03       		.byte	0x3
 904 00b3 35       		.byte	0x35
 905 00b4 3E000000 		.4byte	0x3e
 906 00b8 03       		.uleb128 0x3
 907 00b9 CF030000 		.4byte	.LASF16
 908 00bd 03       		.byte	0x3
 909 00be 36       		.byte	0x36
 910 00bf 50000000 		.4byte	0x50
 911 00c3 03       		.uleb128 0x3
ARM GAS  C:\Users\jsyoon\AppData\Local\Temp\ccD00wm8.s 			page 17


 912 00c4 46030000 		.4byte	.LASF17
 913 00c8 03       		.byte	0x3
 914 00c9 41       		.byte	0x41
 915 00ca 62000000 		.4byte	0x62
 916 00ce 03       		.uleb128 0x3
 917 00cf F0030000 		.4byte	.LASF18
 918 00d3 03       		.byte	0x3
 919 00d4 42       		.byte	0x42
 920 00d5 74000000 		.4byte	0x74
 921 00d9 02       		.uleb128 0x2
 922 00da 04       		.byte	0x4
 923 00db 07       		.byte	0x7
 924 00dc 4E030000 		.4byte	.LASF19
 925 00e0 05       		.uleb128 0x5
 926 00e1 C3000000 		.4byte	0xc3
 927 00e5 06       		.uleb128 0x6
 928 00e6 01       		.byte	0x1
 929 00e7 04       		.byte	0x4
 930 00e8 35       		.byte	0x35
 931 00e9 1E010000 		.4byte	0x11e
 932 00ed 07       		.uleb128 0x7
 933 00ee 78010000 		.4byte	.LASF20
 934 00f2 01       		.sleb128 1
 935 00f3 07       		.uleb128 0x7
 936 00f4 95020000 		.4byte	.LASF21
 937 00f8 02       		.sleb128 2
 938 00f9 07       		.uleb128 0x7
 939 00fa 74020000 		.4byte	.LASF22
 940 00fe 03       		.sleb128 3
 941 00ff 07       		.uleb128 0x7
 942 0100 D3010000 		.4byte	.LASF23
 943 0104 04       		.sleb128 4
 944 0105 07       		.uleb128 0x7
 945 0106 46020000 		.4byte	.LASF24
 946 010a 05       		.sleb128 5
 947 010b 07       		.uleb128 0x7
 948 010c 34040000 		.4byte	.LASF25
 949 0110 06       		.sleb128 6
 950 0111 07       		.uleb128 0x7
 951 0112 72030000 		.4byte	.LASF26
 952 0116 07       		.sleb128 7
 953 0117 07       		.uleb128 0x7
 954 0118 58010000 		.4byte	.LASF27
 955 011c 08       		.sleb128 8
 956 011d 00       		.byte	0
 957 011e 03       		.uleb128 0x3
 958 011f 65030000 		.4byte	.LASF28
 959 0123 04       		.byte	0x4
 960 0124 3E       		.byte	0x3e
 961 0125 E5000000 		.4byte	0xe5
 962 0129 08       		.uleb128 0x8
 963 012a 31030000 		.4byte	.LASF29
 964 012e 01       		.byte	0x1
 965 012f 6001     		.2byte	0x160
 966 0131 1E010000 		.4byte	0x11e
 967 0135 01       		.byte	0x1
 968 0136 47010000 		.4byte	0x147
ARM GAS  C:\Users\jsyoon\AppData\Local\Temp\ccD00wm8.s 			page 18


 969 013a 09       		.uleb128 0x9
 970 013b 25030000 		.4byte	.LASF31
 971 013f 01       		.byte	0x1
 972 0140 6201     		.2byte	0x162
 973 0142 1E010000 		.4byte	0x11e
 974 0146 00       		.byte	0
 975 0147 08       		.uleb128 0x8
 976 0148 84020000 		.4byte	.LASF30
 977 014c 01       		.byte	0x1
 978 014d 8601     		.2byte	0x186
 979 014f B8000000 		.4byte	0xb8
 980 0153 01       		.byte	0x1
 981 0154 7D010000 		.4byte	0x17d
 982 0158 0A       		.uleb128 0xa
 983 0159 BC010000 		.4byte	.LASF47
 984 015d 01       		.byte	0x1
 985 015e 8601     		.2byte	0x186
 986 0160 A2000000 		.4byte	0xa2
 987 0164 09       		.uleb128 0x9
 988 0165 D8030000 		.4byte	.LASF32
 989 0169 01       		.byte	0x1
 990 016a 8801     		.2byte	0x188
 991 016c B8000000 		.4byte	0xb8
 992 0170 09       		.uleb128 0x9
 993 0171 E4030000 		.4byte	.LASF33
 994 0175 01       		.byte	0x1
 995 0176 8801     		.2byte	0x188
 996 0178 B8000000 		.4byte	0xb8
 997 017c 00       		.byte	0
 998 017d 0B       		.uleb128 0xb
 999 017e C0020000 		.4byte	.LASF58
 1000 0182 01       		.byte	0x1
 1001 0183 CE01     		.2byte	0x1ce
 1002 0185 B8000000 		.4byte	0xb8
 1003 0189 00000000 		.4byte	.LFB116
 1004 018d 78000000 		.4byte	.LFE116-.LFB116
 1005 0191 01       		.uleb128 0x1
 1006 0192 9C       		.byte	0x9c
 1007 0193 55020000 		.4byte	0x255
 1008 0197 0C       		.uleb128 0xc
 1009 0198 48040000 		.4byte	.LASF34
 1010 019c 01       		.byte	0x1
 1011 019d CE01     		.2byte	0x1ce
 1012 019f B8000000 		.4byte	0xb8
 1013 01a3 00000000 		.4byte	.LLST0
 1014 01a7 0C       		.uleb128 0xc
 1015 01a8 B0020000 		.4byte	.LASF35
 1016 01ac 01       		.byte	0x1
 1017 01ad CE01     		.2byte	0x1ce
 1018 01af B8000000 		.4byte	0xb8
 1019 01b3 6C000000 		.4byte	.LLST1
 1020 01b7 0D       		.uleb128 0xd
 1021 01b8 25030000 		.4byte	.LASF31
 1022 01bc 01       		.byte	0x1
 1023 01bd D001     		.2byte	0x1d0
 1024 01bf 1E010000 		.4byte	0x11e
 1025 01c3 A6000000 		.4byte	.LLST2
ARM GAS  C:\Users\jsyoon\AppData\Local\Temp\ccD00wm8.s 			page 19


 1026 01c7 0D       		.uleb128 0xd
 1027 01c8 EC020000 		.4byte	.LASF36
 1028 01cc 01       		.byte	0x1
 1029 01cd D101     		.2byte	0x1d1
 1030 01cf B8000000 		.4byte	0xb8
 1031 01d3 E7000000 		.4byte	.LLST3
 1032 01d7 0D       		.uleb128 0xd
 1033 01d8 C7030000 		.4byte	.LASF37
 1034 01dc 01       		.byte	0x1
 1035 01dd D201     		.2byte	0x1d2
 1036 01df CE000000 		.4byte	0xce
 1037 01e3 13010000 		.4byte	.LLST4
 1038 01e7 0D       		.uleb128 0xd
 1039 01e8 B8030000 		.4byte	.LASF38
 1040 01ec 01       		.byte	0x1
 1041 01ed D201     		.2byte	0x1d2
 1042 01ef CE000000 		.4byte	0xce
 1043 01f3 6C010000 		.4byte	.LLST5
 1044 01f7 0E       		.uleb128 0xe
 1045 01f8 47010000 		.4byte	0x147
 1046 01fc 02000000 		.4byte	.LBB4
 1047 0200 00000000 		.4byte	.Ldebug_ranges0+0
 1048 0204 01       		.byte	0x1
 1049 0205 D501     		.2byte	0x1d5
 1050 0207 2A020000 		.4byte	0x22a
 1051 020b 0F       		.uleb128 0xf
 1052 020c 58010000 		.4byte	0x158
 1053 0210 01       		.byte	0x1
 1054 0211 10       		.uleb128 0x10
 1055 0212 00000000 		.4byte	.Ldebug_ranges0+0
 1056 0216 11       		.uleb128 0x11
 1057 0217 64010000 		.4byte	0x164
 1058 021b BA010000 		.4byte	.LLST6
 1059 021f 11       		.uleb128 0x11
 1060 0220 70010000 		.4byte	0x170
 1061 0224 FE010000 		.4byte	.LLST7
 1062 0228 00       		.byte	0
 1063 0229 00       		.byte	0
 1064 022a 12       		.uleb128 0x12
 1065 022b 44000000 		.4byte	.LVL9
 1066 022f 5B070000 		.4byte	0x75b
 1067 0233 3E020000 		.4byte	0x23e
 1068 0237 13       		.uleb128 0x13
 1069 0238 01       		.uleb128 0x1
 1070 0239 50       		.byte	0x50
 1071 023a 02       		.uleb128 0x2
 1072 023b 74       		.byte	0x74
 1073 023c 00       		.sleb128 0
 1074 023d 00       		.byte	0
 1075 023e 14       		.uleb128 0x14
 1076 023f 68000000 		.4byte	.LVL19
 1077 0243 5B070000 		.4byte	0x75b
 1078 0247 13       		.uleb128 0x13
 1079 0248 01       		.uleb128 0x1
 1080 0249 51       		.byte	0x51
 1081 024a 02       		.uleb128 0x2
 1082 024b 75       		.byte	0x75
ARM GAS  C:\Users\jsyoon\AppData\Local\Temp\ccD00wm8.s 			page 20


 1083 024c 00       		.sleb128 0
 1084 024d 13       		.uleb128 0x13
 1085 024e 01       		.uleb128 0x1
 1086 024f 50       		.byte	0x50
 1087 0250 02       		.uleb128 0x2
 1088 0251 74       		.byte	0x74
 1089 0252 02       		.sleb128 2
 1090 0253 00       		.byte	0
 1091 0254 00       		.byte	0
 1092 0255 15       		.uleb128 0x15
 1093 0256 29010000 		.4byte	0x129
 1094 025a 00000000 		.4byte	.LFB114
 1095 025e 2C000000 		.4byte	.LFE114-.LFB114
 1096 0262 01       		.uleb128 0x1
 1097 0263 9C       		.byte	0x9c
 1098 0264 C5020000 		.4byte	0x2c5
 1099 0268 11       		.uleb128 0x11
 1100 0269 3A010000 		.4byte	0x13a
 1101 026d 42020000 		.4byte	.LLST8
 1102 0271 16       		.uleb128 0x16
 1103 0272 28000000 		.4byte	.Ldebug_ranges0+0x28
 1104 0276 94020000 		.4byte	0x294
 1105 027a 17       		.uleb128 0x17
 1106 027b 3A010000 		.4byte	0x13a
 1107 027f 18       		.uleb128 0x18
 1108 0280 28000000 		.4byte	.LVL28
 1109 0284 76070000 		.4byte	0x776
 1110 0288 13       		.uleb128 0x13
 1111 0289 01       		.uleb128 0x1
 1112 028a 51       		.byte	0x51
 1113 028b 01       		.uleb128 0x1
 1114 028c 32       		.byte	0x32
 1115 028d 13       		.uleb128 0x13
 1116 028e 01       		.uleb128 0x1
 1117 028f 50       		.byte	0x50
 1118 0290 01       		.uleb128 0x1
 1119 0291 40       		.byte	0x40
 1120 0292 00       		.byte	0
 1121 0293 00       		.byte	0
 1122 0294 12       		.uleb128 0x12
 1123 0295 0A000000 		.4byte	.LVL22
 1124 0299 76070000 		.4byte	0x776
 1125 029d AC020000 		.4byte	0x2ac
 1126 02a1 13       		.uleb128 0x13
 1127 02a2 01       		.uleb128 0x1
 1128 02a3 51       		.byte	0x51
 1129 02a4 01       		.uleb128 0x1
 1130 02a5 32       		.byte	0x32
 1131 02a6 13       		.uleb128 0x13
 1132 02a7 01       		.uleb128 0x1
 1133 02a8 50       		.byte	0x50
 1134 02a9 01       		.uleb128 0x1
 1135 02aa 38       		.byte	0x38
 1136 02ab 00       		.byte	0
 1137 02ac 14       		.uleb128 0x14
 1138 02ad 18000000 		.4byte	.LVL26
 1139 02b1 5B070000 		.4byte	0x75b
ARM GAS  C:\Users\jsyoon\AppData\Local\Temp\ccD00wm8.s 			page 21


 1140 02b5 13       		.uleb128 0x13
 1141 02b6 01       		.uleb128 0x1
 1142 02b7 51       		.byte	0x51
 1143 02b8 01       		.uleb128 0x1
 1144 02b9 30       		.byte	0x30
 1145 02ba 13       		.uleb128 0x13
 1146 02bb 01       		.uleb128 0x1
 1147 02bc 50       		.byte	0x50
 1148 02bd 05       		.uleb128 0x5
 1149 02be 0C       		.byte	0xc
 1150 02bf 00400008 		.4byte	0x8004000
 1151 02c3 00       		.byte	0
 1152 02c4 00       		.byte	0
 1153 02c5 19       		.uleb128 0x19
 1154 02c6 0E040000 		.4byte	.LASF42
 1155 02ca 01       		.byte	0x1
 1156 02cb 0D01     		.2byte	0x10d
 1157 02cd B8000000 		.4byte	0xb8
 1158 02d1 00000000 		.4byte	.LFB112
 1159 02d5 70000000 		.4byte	.LFE112-.LFB112
 1160 02d9 01       		.uleb128 0x1
 1161 02da 9C       		.byte	0x9c
 1162 02db 7D030000 		.4byte	0x37d
 1163 02df 0C       		.uleb128 0xc
 1164 02e0 48040000 		.4byte	.LASF34
 1165 02e4 01       		.byte	0x1
 1166 02e5 0D01     		.2byte	0x10d
 1167 02e7 B8000000 		.4byte	0xb8
 1168 02eb 77020000 		.4byte	.LLST9
 1169 02ef 1A       		.uleb128 0x1a
 1170 02f0 B0020000 		.4byte	.LASF35
 1171 02f4 01       		.byte	0x1
 1172 02f5 0D01     		.2byte	0x10d
 1173 02f7 7D030000 		.4byte	0x37d
 1174 02fb 01       		.uleb128 0x1
 1175 02fc 51       		.byte	0x51
 1176 02fd 0D       		.uleb128 0xd
 1177 02fe EC020000 		.4byte	.LASF36
 1178 0302 01       		.byte	0x1
 1179 0303 0F01     		.2byte	0x10f
 1180 0305 B8000000 		.4byte	0xb8
 1181 0309 CA020000 		.4byte	.LLST10
 1182 030d 0D       		.uleb128 0xd
 1183 030e C6010000 		.4byte	.LASF39
 1184 0312 01       		.byte	0x1
 1185 0313 1001     		.2byte	0x110
 1186 0315 B8000000 		.4byte	0xb8
 1187 0319 EA020000 		.4byte	.LLST11
 1188 031d 0D       		.uleb128 0xd
 1189 031e 3B030000 		.4byte	.LASF40
 1190 0322 01       		.byte	0x1
 1191 0323 1001     		.2byte	0x110
 1192 0325 B8000000 		.4byte	0xb8
 1193 0329 24030000 		.4byte	.LLST12
 1194 032d 0D       		.uleb128 0xd
 1195 032e C7030000 		.4byte	.LASF37
 1196 0332 01       		.byte	0x1
ARM GAS  C:\Users\jsyoon\AppData\Local\Temp\ccD00wm8.s 			page 22


 1197 0333 1101     		.2byte	0x111
 1198 0335 CE000000 		.4byte	0xce
 1199 0339 44030000 		.4byte	.LLST13
 1200 033d 0D       		.uleb128 0xd
 1201 033e F1010000 		.4byte	.LASF41
 1202 0342 01       		.byte	0x1
 1203 0343 1101     		.2byte	0x111
 1204 0345 CE000000 		.4byte	0xce
 1205 0349 82030000 		.4byte	.LLST14
 1206 034d 1B       		.uleb128 0x1b
 1207 034e 47010000 		.4byte	0x147
 1208 0352 00000000 		.4byte	.LBB20
 1209 0356 40000000 		.4byte	.Ldebug_ranges0+0x40
 1210 035a 01       		.byte	0x1
 1211 035b 1401     		.2byte	0x114
 1212 035d 0F       		.uleb128 0xf
 1213 035e 58010000 		.4byte	0x158
 1214 0362 00       		.byte	0
 1215 0363 10       		.uleb128 0x10
 1216 0364 40000000 		.4byte	.Ldebug_ranges0+0x40
 1217 0368 11       		.uleb128 0x11
 1218 0369 64010000 		.4byte	0x164
 1219 036d AA030000 		.4byte	.LLST15
 1220 0371 11       		.uleb128 0x11
 1221 0372 70010000 		.4byte	0x170
 1222 0376 D4030000 		.4byte	.LLST16
 1223 037a 00       		.byte	0
 1224 037b 00       		.byte	0
 1225 037c 00       		.byte	0
 1226 037d 1C       		.uleb128 0x1c
 1227 037e 04       		.byte	0x4
 1228 037f B8000000 		.4byte	0xb8
 1229 0383 1D       		.uleb128 0x1d
 1230 0384 B4010000 		.4byte	.LASF43
 1231 0388 01       		.byte	0x1
 1232 0389 36       		.byte	0x36
 1233 038a B8000000 		.4byte	0xb8
 1234 038e 00000000 		.4byte	.LFB111
 1235 0392 5C010000 		.4byte	.LFE111-.LFB111
 1236 0396 01       		.uleb128 0x1
 1237 0397 9C       		.byte	0x9c
 1238 0398 20050000 		.4byte	0x520
 1239 039c 1E       		.uleb128 0x1e
 1240 039d D8030000 		.4byte	.LASF32
 1241 03a1 01       		.byte	0x1
 1242 03a2 38       		.byte	0x38
 1243 03a3 B8000000 		.4byte	0xb8
 1244 03a7 FE030000 		.4byte	.LLST17
 1245 03ab 1E       		.uleb128 0x1e
 1246 03ac E4030000 		.4byte	.LASF33
 1247 03b0 01       		.byte	0x1
 1248 03b1 38       		.byte	0x38
 1249 03b2 B8000000 		.4byte	0xb8
 1250 03b6 54040000 		.4byte	.LLST18
 1251 03ba 1E       		.uleb128 0x1e
 1252 03bb 9F010000 		.4byte	.LASF44
 1253 03bf 01       		.byte	0x1
ARM GAS  C:\Users\jsyoon\AppData\Local\Temp\ccD00wm8.s 			page 23


 1254 03c0 39       		.byte	0x39
 1255 03c1 B8000000 		.4byte	0xb8
 1256 03c5 9F040000 		.4byte	.LLST19
 1257 03c9 1E       		.uleb128 0x1e
 1258 03ca 1E040000 		.4byte	.LASF45
 1259 03ce 01       		.byte	0x1
 1260 03cf 3A       		.byte	0x3a
 1261 03d0 B8000000 		.4byte	0xb8
 1262 03d4 13050000 		.4byte	.LLST20
 1263 03d8 1E       		.uleb128 0x1e
 1264 03d9 3B030000 		.4byte	.LASF40
 1265 03dd 01       		.byte	0x1
 1266 03de 3A       		.byte	0x3a
 1267 03df B8000000 		.4byte	0xb8
 1268 03e3 6D050000 		.4byte	.LLST21
 1269 03e7 1F       		.uleb128 0x1f
 1270 03e8 7800     		.ascii	"x\000"
 1271 03ea 01       		.byte	0x1
 1272 03eb 3B       		.byte	0x3b
 1273 03ec AD000000 		.4byte	0xad
 1274 03f0 C7050000 		.4byte	.LLST22
 1275 03f4 1E       		.uleb128 0x1e
 1276 03f5 25030000 		.4byte	.LASF31
 1277 03f9 01       		.byte	0x1
 1278 03fa 3C       		.byte	0x3c
 1279 03fb B8000000 		.4byte	0xb8
 1280 03ff 31060000 		.4byte	.LLST23
 1281 0403 20       		.uleb128 0x20
 1282 0404 26000000 		.4byte	.LVL53
 1283 0408 29010000 		.4byte	0x129
 1284 040c 12       		.uleb128 0x12
 1285 040d 62000000 		.4byte	.LVL60
 1286 0411 C5020000 		.4byte	0x2c5
 1287 0415 20040000 		.4byte	0x420
 1288 0419 13       		.uleb128 0x13
 1289 041a 01       		.uleb128 0x1
 1290 041b 51       		.byte	0x51
 1291 041c 02       		.uleb128 0x2
 1292 041d 78       		.byte	0x78
 1293 041e 00       		.sleb128 0
 1294 041f 00       		.byte	0
 1295 0420 20       		.uleb128 0x20
 1296 0421 72000000 		.4byte	.LVL62
 1297 0425 7D010000 		.4byte	0x17d
 1298 0429 12       		.uleb128 0x12
 1299 042a 8A000000 		.4byte	.LVL64
 1300 042e 76070000 		.4byte	0x776
 1301 0432 41040000 		.4byte	0x441
 1302 0436 13       		.uleb128 0x13
 1303 0437 01       		.uleb128 0x1
 1304 0438 51       		.byte	0x51
 1305 0439 01       		.uleb128 0x1
 1306 043a 32       		.byte	0x32
 1307 043b 13       		.uleb128 0x13
 1308 043c 01       		.uleb128 0x1
 1309 043d 50       		.byte	0x50
 1310 043e 01       		.uleb128 0x1
ARM GAS  C:\Users\jsyoon\AppData\Local\Temp\ccD00wm8.s 			page 24


 1311 043f 38       		.byte	0x38
 1312 0440 00       		.byte	0
 1313 0441 12       		.uleb128 0x12
 1314 0442 C6000000 		.4byte	.LVL71
 1315 0446 C5020000 		.4byte	0x2c5
 1316 044a 55040000 		.4byte	0x455
 1317 044e 13       		.uleb128 0x13
 1318 044f 01       		.uleb128 0x1
 1319 0450 51       		.byte	0x51
 1320 0451 02       		.uleb128 0x2
 1321 0452 78       		.byte	0x78
 1322 0453 00       		.sleb128 0
 1323 0454 00       		.byte	0
 1324 0455 20       		.uleb128 0x20
 1325 0456 D6000000 		.4byte	.LVL73
 1326 045a 7D010000 		.4byte	0x17d
 1327 045e 12       		.uleb128 0x12
 1328 045f EE000000 		.4byte	.LVL76
 1329 0463 76070000 		.4byte	0x776
 1330 0467 76040000 		.4byte	0x476
 1331 046b 13       		.uleb128 0x13
 1332 046c 01       		.uleb128 0x1
 1333 046d 51       		.byte	0x51
 1334 046e 01       		.uleb128 0x1
 1335 046f 32       		.byte	0x32
 1336 0470 13       		.uleb128 0x13
 1337 0471 01       		.uleb128 0x1
 1338 0472 50       		.byte	0x50
 1339 0473 01       		.uleb128 0x1
 1340 0474 40       		.byte	0x40
 1341 0475 00       		.byte	0
 1342 0476 12       		.uleb128 0x12
 1343 0477 FA000000 		.4byte	.LVL78
 1344 047b 5B070000 		.4byte	0x75b
 1345 047f 8F040000 		.4byte	0x48f
 1346 0483 13       		.uleb128 0x13
 1347 0484 01       		.uleb128 0x1
 1348 0485 51       		.byte	0x51
 1349 0486 01       		.uleb128 0x1
 1350 0487 30       		.byte	0x30
 1351 0488 13       		.uleb128 0x13
 1352 0489 01       		.uleb128 0x1
 1353 048a 50       		.byte	0x50
 1354 048b 02       		.uleb128 0x2
 1355 048c 75       		.byte	0x75
 1356 048d 00       		.sleb128 0
 1357 048e 00       		.byte	0
 1358 048f 12       		.uleb128 0x12
 1359 0490 06010000 		.4byte	.LVL80
 1360 0494 76070000 		.4byte	0x776
 1361 0498 A7040000 		.4byte	0x4a7
 1362 049c 13       		.uleb128 0x13
 1363 049d 01       		.uleb128 0x1
 1364 049e 51       		.byte	0x51
 1365 049f 01       		.uleb128 0x1
 1366 04a0 32       		.byte	0x32
 1367 04a1 13       		.uleb128 0x13
ARM GAS  C:\Users\jsyoon\AppData\Local\Temp\ccD00wm8.s 			page 25


 1368 04a2 01       		.uleb128 0x1
 1369 04a3 50       		.byte	0x50
 1370 04a4 01       		.uleb128 0x1
 1371 04a5 38       		.byte	0x38
 1372 04a6 00       		.byte	0
 1373 04a7 12       		.uleb128 0x12
 1374 04a8 12010000 		.4byte	.LVL82
 1375 04ac 5B070000 		.4byte	0x75b
 1376 04b0 C3040000 		.4byte	0x4c3
 1377 04b4 13       		.uleb128 0x13
 1378 04b5 01       		.uleb128 0x1
 1379 04b6 51       		.byte	0x51
 1380 04b7 01       		.uleb128 0x1
 1381 04b8 30       		.byte	0x30
 1382 04b9 13       		.uleb128 0x13
 1383 04ba 01       		.uleb128 0x1
 1384 04bb 50       		.byte	0x50
 1385 04bc 05       		.uleb128 0x5
 1386 04bd 0C       		.byte	0xc
 1387 04be 00800008 		.4byte	0x8008000
 1388 04c2 00       		.byte	0
 1389 04c3 12       		.uleb128 0x12
 1390 04c4 1C010000 		.4byte	.LVL83
 1391 04c8 76070000 		.4byte	0x776
 1392 04cc D6040000 		.4byte	0x4d6
 1393 04d0 13       		.uleb128 0x13
 1394 04d1 01       		.uleb128 0x1
 1395 04d2 51       		.byte	0x51
 1396 04d3 01       		.uleb128 0x1
 1397 04d4 32       		.byte	0x32
 1398 04d5 00       		.byte	0
 1399 04d6 12       		.uleb128 0x12
 1400 04d7 28010000 		.4byte	.LVL85
 1401 04db 5B070000 		.4byte	0x75b
 1402 04df F2040000 		.4byte	0x4f2
 1403 04e3 13       		.uleb128 0x13
 1404 04e4 01       		.uleb128 0x1
 1405 04e5 51       		.byte	0x51
 1406 04e6 01       		.uleb128 0x1
 1407 04e7 30       		.byte	0x30
 1408 04e8 13       		.uleb128 0x13
 1409 04e9 01       		.uleb128 0x1
 1410 04ea 50       		.byte	0x50
 1411 04eb 05       		.uleb128 0x5
 1412 04ec 0C       		.byte	0xc
 1413 04ed 00400008 		.4byte	0x8004000
 1414 04f1 00       		.byte	0
 1415 04f2 12       		.uleb128 0x12
 1416 04f3 34010000 		.4byte	.LVL87
 1417 04f7 76070000 		.4byte	0x776
 1418 04fb 0A050000 		.4byte	0x50a
 1419 04ff 13       		.uleb128 0x13
 1420 0500 01       		.uleb128 0x1
 1421 0501 51       		.byte	0x51
 1422 0502 01       		.uleb128 0x1
 1423 0503 32       		.byte	0x32
 1424 0504 13       		.uleb128 0x13
ARM GAS  C:\Users\jsyoon\AppData\Local\Temp\ccD00wm8.s 			page 26


 1425 0505 01       		.uleb128 0x1
 1426 0506 50       		.byte	0x50
 1427 0507 01       		.uleb128 0x1
 1428 0508 40       		.byte	0x40
 1429 0509 00       		.byte	0
 1430 050a 14       		.uleb128 0x14
 1431 050b 40010000 		.4byte	.LVL90
 1432 050f 5B070000 		.4byte	0x75b
 1433 0513 13       		.uleb128 0x13
 1434 0514 01       		.uleb128 0x1
 1435 0515 51       		.byte	0x51
 1436 0516 01       		.uleb128 0x1
 1437 0517 30       		.byte	0x30
 1438 0518 13       		.uleb128 0x13
 1439 0519 01       		.uleb128 0x1
 1440 051a 50       		.byte	0x50
 1441 051b 02       		.uleb128 0x2
 1442 051c 77       		.byte	0x77
 1443 051d 00       		.sleb128 0
 1444 051e 00       		.byte	0
 1445 051f 00       		.byte	0
 1446 0520 08       		.uleb128 0x8
 1447 0521 36020000 		.4byte	.LASF46
 1448 0525 01       		.byte	0x1
 1449 0526 0B02     		.2byte	0x20b
 1450 0528 B8000000 		.4byte	0xb8
 1451 052c 01       		.byte	0x1
 1452 052d 9E050000 		.4byte	0x59e
 1453 0531 0A       		.uleb128 0xa
 1454 0532 48040000 		.4byte	.LASF34
 1455 0536 01       		.byte	0x1
 1456 0537 0B02     		.2byte	0x20b
 1457 0539 B8000000 		.4byte	0xb8
 1458 053d 0A       		.uleb128 0xa
 1459 053e B0020000 		.4byte	.LASF35
 1460 0542 01       		.byte	0x1
 1461 0543 0B02     		.2byte	0x20b
 1462 0545 B8000000 		.4byte	0xb8
 1463 0549 09       		.uleb128 0x9
 1464 054a 25030000 		.4byte	.LASF31
 1465 054e 01       		.byte	0x1
 1466 054f 0D02     		.2byte	0x20d
 1467 0551 1E010000 		.4byte	0x11e
 1468 0555 09       		.uleb128 0x9
 1469 0556 02020000 		.4byte	.LASF48
 1470 055a 01       		.byte	0x1
 1471 055b 0E02     		.2byte	0x20e
 1472 055d CE000000 		.4byte	0xce
 1473 0561 09       		.uleb128 0x9
 1474 0562 00000000 		.4byte	.LASF49
 1475 0566 01       		.byte	0x1
 1476 0567 0F02     		.2byte	0x20f
 1477 0569 B8000000 		.4byte	0xb8
 1478 056d 09       		.uleb128 0x9
 1479 056e EC020000 		.4byte	.LASF36
 1480 0572 01       		.byte	0x1
 1481 0573 1002     		.2byte	0x210
ARM GAS  C:\Users\jsyoon\AppData\Local\Temp\ccD00wm8.s 			page 27


 1482 0575 B8000000 		.4byte	0xb8
 1483 0579 09       		.uleb128 0x9
 1484 057a 9F010000 		.4byte	.LASF44
 1485 057e 01       		.byte	0x1
 1486 057f 1002     		.2byte	0x210
 1487 0581 B8000000 		.4byte	0xb8
 1488 0585 09       		.uleb128 0x9
 1489 0586 1E040000 		.4byte	.LASF45
 1490 058a 01       		.byte	0x1
 1491 058b 1102     		.2byte	0x211
 1492 058d B8000000 		.4byte	0xb8
 1493 0591 09       		.uleb128 0x9
 1494 0592 3B030000 		.4byte	.LASF40
 1495 0596 01       		.byte	0x1
 1496 0597 1102     		.2byte	0x211
 1497 0599 B8000000 		.4byte	0xb8
 1498 059d 00       		.byte	0
 1499 059e 19       		.uleb128 0x19
 1500 059f 56020000 		.4byte	.LASF50
 1501 05a3 01       		.byte	0x1
 1502 05a4 4801     		.2byte	0x148
 1503 05a6 B8000000 		.4byte	0xb8
 1504 05aa 00000000 		.4byte	.LFB113
 1505 05ae B0000000 		.4byte	.LFE113-.LFB113
 1506 05b2 01       		.uleb128 0x1
 1507 05b3 9C       		.byte	0x9c
 1508 05b4 23070000 		.4byte	0x723
 1509 05b8 0C       		.uleb128 0xc
 1510 05b9 48040000 		.4byte	.LASF34
 1511 05bd 01       		.byte	0x1
 1512 05be 4801     		.2byte	0x148
 1513 05c0 B8000000 		.4byte	0xb8
 1514 05c4 A7060000 		.4byte	.LLST24
 1515 05c8 0C       		.uleb128 0xc
 1516 05c9 B0020000 		.4byte	.LASF35
 1517 05cd 01       		.byte	0x1
 1518 05ce 4801     		.2byte	0x148
 1519 05d0 B8000000 		.4byte	0xb8
 1520 05d4 C8060000 		.4byte	.LLST25
 1521 05d8 0D       		.uleb128 0xd
 1522 05d9 71010000 		.4byte	.LASF51
 1523 05dd 01       		.byte	0x1
 1524 05de 4A01     		.2byte	0x14a
 1525 05e0 B8000000 		.4byte	0xb8
 1526 05e4 E9060000 		.4byte	.LLST26
 1527 05e8 21       		.uleb128 0x21
 1528 05e9 20050000 		.4byte	0x520
 1529 05ed 14000000 		.4byte	.LBB32
 1530 05f1 9C000000 		.4byte	.LBE32-.LBB32
 1531 05f5 01       		.byte	0x1
 1532 05f6 5301     		.2byte	0x153
 1533 05f8 0C070000 		.4byte	0x70c
 1534 05fc 22       		.uleb128 0x22
 1535 05fd 3D050000 		.4byte	0x53d
 1536 0601 08070000 		.4byte	.LLST27
 1537 0605 22       		.uleb128 0x22
 1538 0606 31050000 		.4byte	0x531
ARM GAS  C:\Users\jsyoon\AppData\Local\Temp\ccD00wm8.s 			page 28


 1539 060a 26070000 		.4byte	.LLST28
 1540 060e 23       		.uleb128 0x23
 1541 060f 14000000 		.4byte	.LBB33
 1542 0613 9C000000 		.4byte	.LBE33-.LBB33
 1543 0617 11       		.uleb128 0x11
 1544 0618 49050000 		.4byte	0x549
 1545 061c 39070000 		.4byte	.LLST29
 1546 0620 11       		.uleb128 0x11
 1547 0621 55050000 		.4byte	0x555
 1548 0625 7A070000 		.4byte	.LLST30
 1549 0629 11       		.uleb128 0x11
 1550 062a 61050000 		.4byte	0x561
 1551 062e B8070000 		.4byte	.LLST31
 1552 0632 24       		.uleb128 0x24
 1553 0633 6D050000 		.4byte	0x56d
 1554 0637 00       		.byte	0
 1555 0638 11       		.uleb128 0x11
 1556 0639 79050000 		.4byte	0x579
 1557 063d EE070000 		.4byte	.LLST32
 1558 0641 11       		.uleb128 0x11
 1559 0642 85050000 		.4byte	0x585
 1560 0646 0E080000 		.4byte	.LLST33
 1561 064a 11       		.uleb128 0x11
 1562 064b 91050000 		.4byte	0x591
 1563 064f 44080000 		.4byte	.LLST34
 1564 0653 21       		.uleb128 0x21
 1565 0654 47010000 		.4byte	0x147
 1566 0658 14000000 		.4byte	.LBB34
 1567 065c 10000000 		.4byte	.LBE34-.LBB34
 1568 0660 01       		.byte	0x1
 1569 0661 1402     		.2byte	0x214
 1570 0663 8A060000 		.4byte	0x68a
 1571 0667 0F       		.uleb128 0xf
 1572 0668 58010000 		.4byte	0x158
 1573 066c 00       		.byte	0
 1574 066d 23       		.uleb128 0x23
 1575 066e 14000000 		.4byte	.LBB35
 1576 0672 10000000 		.4byte	.LBE35-.LBB35
 1577 0676 11       		.uleb128 0x11
 1578 0677 64010000 		.4byte	0x164
 1579 067b 6F080000 		.4byte	.LLST35
 1580 067f 11       		.uleb128 0x11
 1581 0680 70010000 		.4byte	0x170
 1582 0684 99080000 		.4byte	.LLST36
 1583 0688 00       		.byte	0
 1584 0689 00       		.byte	0
 1585 068a 12       		.uleb128 0x12
 1586 068b 38000000 		.4byte	.LVL101
 1587 068f 5B070000 		.4byte	0x75b
 1588 0693 A5060000 		.4byte	0x6a5
 1589 0697 13       		.uleb128 0x13
 1590 0698 01       		.uleb128 0x1
 1591 0699 51       		.byte	0x51
 1592 069a 03       		.uleb128 0x3
 1593 069b 0B       		.byte	0xb
 1594 069c EEEE     		.2byte	0xeeee
 1595 069e 13       		.uleb128 0x13
ARM GAS  C:\Users\jsyoon\AppData\Local\Temp\ccD00wm8.s 			page 29


 1596 069f 01       		.uleb128 0x1
 1597 06a0 50       		.byte	0x50
 1598 06a1 02       		.uleb128 0x2
 1599 06a2 77       		.byte	0x77
 1600 06a3 00       		.sleb128 0
 1601 06a4 00       		.byte	0
 1602 06a5 12       		.uleb128 0x12
 1603 06a6 44000000 		.4byte	.LVL103
 1604 06aa 7D010000 		.4byte	0x17d
 1605 06ae BF060000 		.4byte	0x6bf
 1606 06b2 13       		.uleb128 0x13
 1607 06b3 01       		.uleb128 0x1
 1608 06b4 51       		.byte	0x51
 1609 06b5 02       		.uleb128 0x2
 1610 06b6 75       		.byte	0x75
 1611 06b7 00       		.sleb128 0
 1612 06b8 13       		.uleb128 0x13
 1613 06b9 01       		.uleb128 0x1
 1614 06ba 50       		.byte	0x50
 1615 06bb 02       		.uleb128 0x2
 1616 06bc 74       		.byte	0x74
 1617 06bd 00       		.sleb128 0
 1618 06be 00       		.byte	0
 1619 06bf 12       		.uleb128 0x12
 1620 06c0 68000000 		.4byte	.LVL106
 1621 06c4 C5020000 		.4byte	0x2c5
 1622 06c8 D3060000 		.4byte	0x6d3
 1623 06cc 13       		.uleb128 0x13
 1624 06cd 01       		.uleb128 0x1
 1625 06ce 51       		.byte	0x51
 1626 06cf 02       		.uleb128 0x2
 1627 06d0 79       		.byte	0x79
 1628 06d1 00       		.sleb128 0
 1629 06d2 00       		.byte	0
 1630 06d3 20       		.uleb128 0x20
 1631 06d4 78000000 		.4byte	.LVL108
 1632 06d8 7D010000 		.4byte	0x17d
 1633 06dc 12       		.uleb128 0x12
 1634 06dd 90000000 		.4byte	.LVL111
 1635 06e1 76070000 		.4byte	0x776
 1636 06e5 F5060000 		.4byte	0x6f5
 1637 06e9 13       		.uleb128 0x13
 1638 06ea 01       		.uleb128 0x1
 1639 06eb 51       		.byte	0x51
 1640 06ec 01       		.uleb128 0x1
 1641 06ed 32       		.byte	0x32
 1642 06ee 13       		.uleb128 0x13
 1643 06ef 01       		.uleb128 0x1
 1644 06f0 50       		.byte	0x50
 1645 06f1 02       		.uleb128 0x2
 1646 06f2 78       		.byte	0x78
 1647 06f3 00       		.sleb128 0
 1648 06f4 00       		.byte	0
 1649 06f5 14       		.uleb128 0x14
 1650 06f6 9C000000 		.4byte	.LVL113
 1651 06fa 5B070000 		.4byte	0x75b
 1652 06fe 13       		.uleb128 0x13
ARM GAS  C:\Users\jsyoon\AppData\Local\Temp\ccD00wm8.s 			page 30


 1653 06ff 01       		.uleb128 0x1
 1654 0700 51       		.byte	0x51
 1655 0701 01       		.uleb128 0x1
 1656 0702 30       		.byte	0x30
 1657 0703 13       		.uleb128 0x13
 1658 0704 01       		.uleb128 0x1
 1659 0705 50       		.byte	0x50
 1660 0706 02       		.uleb128 0x2
 1661 0707 77       		.byte	0x77
 1662 0708 00       		.sleb128 0
 1663 0709 00       		.byte	0
 1664 070a 00       		.byte	0
 1665 070b 00       		.byte	0
 1666 070c 14       		.uleb128 0x14
 1667 070d 0C000000 		.4byte	.LVL93
 1668 0711 7D010000 		.4byte	0x17d
 1669 0715 13       		.uleb128 0x13
 1670 0716 01       		.uleb128 0x1
 1671 0717 51       		.byte	0x51
 1672 0718 02       		.uleb128 0x2
 1673 0719 75       		.byte	0x75
 1674 071a 00       		.sleb128 0
 1675 071b 13       		.uleb128 0x13
 1676 071c 01       		.uleb128 0x1
 1677 071d 50       		.byte	0x50
 1678 071e 02       		.uleb128 0x2
 1679 071f 74       		.byte	0x74
 1680 0720 00       		.sleb128 0
 1681 0721 00       		.byte	0
 1682 0722 00       		.byte	0
 1683 0723 25       		.uleb128 0x25
 1684 0724 67020000 		.4byte	.LASF52
 1685 0728 05       		.byte	0x5
 1686 0729 9806     		.2byte	0x698
 1687 072b E0000000 		.4byte	0xe0
 1688 072f 26       		.uleb128 0x26
 1689 0730 15030000 		.4byte	.LASF53
 1690 0734 01       		.byte	0x1
 1691 0735 23       		.byte	0x23
 1692 0736 B8000000 		.4byte	0xb8
 1693 073a 05       		.uleb128 0x5
 1694 073b 03       		.byte	0x3
 1695 073c 00000000 		.4byte	DataVar
 1696 0740 27       		.uleb128 0x27
 1697 0741 B8000000 		.4byte	0xb8
 1698 0745 50070000 		.4byte	0x750
 1699 0749 28       		.uleb128 0x28
 1700 074a D9000000 		.4byte	0xd9
 1701 074e 9F       		.byte	0x9f
 1702 074f 00       		.byte	0
 1703 0750 29       		.uleb128 0x29
 1704 0751 A6010000 		.4byte	.LASF54
 1705 0755 01       		.byte	0x1
 1706 0756 26       		.byte	0x26
 1707 0757 40070000 		.4byte	0x740
 1708 075b 2A       		.uleb128 0x2a
 1709 075c 0A000000 		.4byte	.LASF59
ARM GAS  C:\Users\jsyoon\AppData\Local\Temp\ccD00wm8.s 			page 31


 1710 0760 04       		.byte	0x4
 1711 0761 2F01     		.2byte	0x12f
 1712 0763 1E010000 		.4byte	0x11e
 1713 0767 76070000 		.4byte	0x776
 1714 076b 2B       		.uleb128 0x2b
 1715 076c CE000000 		.4byte	0xce
 1716 0770 2B       		.uleb128 0x2b
 1717 0771 B8000000 		.4byte	0xb8
 1718 0775 00       		.byte	0
 1719 0776 2C       		.uleb128 0x2c
 1720 0777 8D010000 		.4byte	.LASF60
 1721 077b 04       		.byte	0x4
 1722 077c 2B01     		.2byte	0x12b
 1723 077e 1E010000 		.4byte	0x11e
 1724 0782 2B       		.uleb128 0x2b
 1725 0783 CE000000 		.4byte	0xce
 1726 0787 2B       		.uleb128 0x2b
 1727 0788 A2000000 		.4byte	0xa2
 1728 078c 00       		.byte	0
 1729 078d 00       		.byte	0
 1730              		.section	.debug_abbrev,"",%progbits
 1731              	.Ldebug_abbrev0:
 1732 0000 01       		.uleb128 0x1
 1733 0001 11       		.uleb128 0x11
 1734 0002 01       		.byte	0x1
 1735 0003 25       		.uleb128 0x25
 1736 0004 0E       		.uleb128 0xe
 1737 0005 13       		.uleb128 0x13
 1738 0006 0B       		.uleb128 0xb
 1739 0007 03       		.uleb128 0x3
 1740 0008 0E       		.uleb128 0xe
 1741 0009 1B       		.uleb128 0x1b
 1742 000a 0E       		.uleb128 0xe
 1743 000b 55       		.uleb128 0x55
 1744 000c 17       		.uleb128 0x17
 1745 000d 11       		.uleb128 0x11
 1746 000e 01       		.uleb128 0x1
 1747 000f 10       		.uleb128 0x10
 1748 0010 17       		.uleb128 0x17
 1749 0011 00       		.byte	0
 1750 0012 00       		.byte	0
 1751 0013 02       		.uleb128 0x2
 1752 0014 24       		.uleb128 0x24
 1753 0015 00       		.byte	0
 1754 0016 0B       		.uleb128 0xb
 1755 0017 0B       		.uleb128 0xb
 1756 0018 3E       		.uleb128 0x3e
 1757 0019 0B       		.uleb128 0xb
 1758 001a 03       		.uleb128 0x3
 1759 001b 0E       		.uleb128 0xe
 1760 001c 00       		.byte	0
 1761 001d 00       		.byte	0
 1762 001e 03       		.uleb128 0x3
 1763 001f 16       		.uleb128 0x16
 1764 0020 00       		.byte	0
 1765 0021 03       		.uleb128 0x3
 1766 0022 0E       		.uleb128 0xe
ARM GAS  C:\Users\jsyoon\AppData\Local\Temp\ccD00wm8.s 			page 32


 1767 0023 3A       		.uleb128 0x3a
 1768 0024 0B       		.uleb128 0xb
 1769 0025 3B       		.uleb128 0x3b
 1770 0026 0B       		.uleb128 0xb
 1771 0027 49       		.uleb128 0x49
 1772 0028 13       		.uleb128 0x13
 1773 0029 00       		.byte	0
 1774 002a 00       		.byte	0
 1775 002b 04       		.uleb128 0x4
 1776 002c 24       		.uleb128 0x24
 1777 002d 00       		.byte	0
 1778 002e 0B       		.uleb128 0xb
 1779 002f 0B       		.uleb128 0xb
 1780 0030 3E       		.uleb128 0x3e
 1781 0031 0B       		.uleb128 0xb
 1782 0032 03       		.uleb128 0x3
 1783 0033 08       		.uleb128 0x8
 1784 0034 00       		.byte	0
 1785 0035 00       		.byte	0
 1786 0036 05       		.uleb128 0x5
 1787 0037 35       		.uleb128 0x35
 1788 0038 00       		.byte	0
 1789 0039 49       		.uleb128 0x49
 1790 003a 13       		.uleb128 0x13
 1791 003b 00       		.byte	0
 1792 003c 00       		.byte	0
 1793 003d 06       		.uleb128 0x6
 1794 003e 04       		.uleb128 0x4
 1795 003f 01       		.byte	0x1
 1796 0040 0B       		.uleb128 0xb
 1797 0041 0B       		.uleb128 0xb
 1798 0042 3A       		.uleb128 0x3a
 1799 0043 0B       		.uleb128 0xb
 1800 0044 3B       		.uleb128 0x3b
 1801 0045 0B       		.uleb128 0xb
 1802 0046 01       		.uleb128 0x1
 1803 0047 13       		.uleb128 0x13
 1804 0048 00       		.byte	0
 1805 0049 00       		.byte	0
 1806 004a 07       		.uleb128 0x7
 1807 004b 28       		.uleb128 0x28
 1808 004c 00       		.byte	0
 1809 004d 03       		.uleb128 0x3
 1810 004e 0E       		.uleb128 0xe
 1811 004f 1C       		.uleb128 0x1c
 1812 0050 0D       		.uleb128 0xd
 1813 0051 00       		.byte	0
 1814 0052 00       		.byte	0
 1815 0053 08       		.uleb128 0x8
 1816 0054 2E       		.uleb128 0x2e
 1817 0055 01       		.byte	0x1
 1818 0056 03       		.uleb128 0x3
 1819 0057 0E       		.uleb128 0xe
 1820 0058 3A       		.uleb128 0x3a
 1821 0059 0B       		.uleb128 0xb
 1822 005a 3B       		.uleb128 0x3b
 1823 005b 05       		.uleb128 0x5
ARM GAS  C:\Users\jsyoon\AppData\Local\Temp\ccD00wm8.s 			page 33


 1824 005c 27       		.uleb128 0x27
 1825 005d 19       		.uleb128 0x19
 1826 005e 49       		.uleb128 0x49
 1827 005f 13       		.uleb128 0x13
 1828 0060 20       		.uleb128 0x20
 1829 0061 0B       		.uleb128 0xb
 1830 0062 01       		.uleb128 0x1
 1831 0063 13       		.uleb128 0x13
 1832 0064 00       		.byte	0
 1833 0065 00       		.byte	0
 1834 0066 09       		.uleb128 0x9
 1835 0067 34       		.uleb128 0x34
 1836 0068 00       		.byte	0
 1837 0069 03       		.uleb128 0x3
 1838 006a 0E       		.uleb128 0xe
 1839 006b 3A       		.uleb128 0x3a
 1840 006c 0B       		.uleb128 0xb
 1841 006d 3B       		.uleb128 0x3b
 1842 006e 05       		.uleb128 0x5
 1843 006f 49       		.uleb128 0x49
 1844 0070 13       		.uleb128 0x13
 1845 0071 00       		.byte	0
 1846 0072 00       		.byte	0
 1847 0073 0A       		.uleb128 0xa
 1848 0074 05       		.uleb128 0x5
 1849 0075 00       		.byte	0
 1850 0076 03       		.uleb128 0x3
 1851 0077 0E       		.uleb128 0xe
 1852 0078 3A       		.uleb128 0x3a
 1853 0079 0B       		.uleb128 0xb
 1854 007a 3B       		.uleb128 0x3b
 1855 007b 05       		.uleb128 0x5
 1856 007c 49       		.uleb128 0x49
 1857 007d 13       		.uleb128 0x13
 1858 007e 00       		.byte	0
 1859 007f 00       		.byte	0
 1860 0080 0B       		.uleb128 0xb
 1861 0081 2E       		.uleb128 0x2e
 1862 0082 01       		.byte	0x1
 1863 0083 03       		.uleb128 0x3
 1864 0084 0E       		.uleb128 0xe
 1865 0085 3A       		.uleb128 0x3a
 1866 0086 0B       		.uleb128 0xb
 1867 0087 3B       		.uleb128 0x3b
 1868 0088 05       		.uleb128 0x5
 1869 0089 27       		.uleb128 0x27
 1870 008a 19       		.uleb128 0x19
 1871 008b 49       		.uleb128 0x49
 1872 008c 13       		.uleb128 0x13
 1873 008d 11       		.uleb128 0x11
 1874 008e 01       		.uleb128 0x1
 1875 008f 12       		.uleb128 0x12
 1876 0090 06       		.uleb128 0x6
 1877 0091 40       		.uleb128 0x40
 1878 0092 18       		.uleb128 0x18
 1879 0093 9742     		.uleb128 0x2117
 1880 0095 19       		.uleb128 0x19
ARM GAS  C:\Users\jsyoon\AppData\Local\Temp\ccD00wm8.s 			page 34


 1881 0096 01       		.uleb128 0x1
 1882 0097 13       		.uleb128 0x13
 1883 0098 00       		.byte	0
 1884 0099 00       		.byte	0
 1885 009a 0C       		.uleb128 0xc
 1886 009b 05       		.uleb128 0x5
 1887 009c 00       		.byte	0
 1888 009d 03       		.uleb128 0x3
 1889 009e 0E       		.uleb128 0xe
 1890 009f 3A       		.uleb128 0x3a
 1891 00a0 0B       		.uleb128 0xb
 1892 00a1 3B       		.uleb128 0x3b
 1893 00a2 05       		.uleb128 0x5
 1894 00a3 49       		.uleb128 0x49
 1895 00a4 13       		.uleb128 0x13
 1896 00a5 02       		.uleb128 0x2
 1897 00a6 17       		.uleb128 0x17
 1898 00a7 00       		.byte	0
 1899 00a8 00       		.byte	0
 1900 00a9 0D       		.uleb128 0xd
 1901 00aa 34       		.uleb128 0x34
 1902 00ab 00       		.byte	0
 1903 00ac 03       		.uleb128 0x3
 1904 00ad 0E       		.uleb128 0xe
 1905 00ae 3A       		.uleb128 0x3a
 1906 00af 0B       		.uleb128 0xb
 1907 00b0 3B       		.uleb128 0x3b
 1908 00b1 05       		.uleb128 0x5
 1909 00b2 49       		.uleb128 0x49
 1910 00b3 13       		.uleb128 0x13
 1911 00b4 02       		.uleb128 0x2
 1912 00b5 17       		.uleb128 0x17
 1913 00b6 00       		.byte	0
 1914 00b7 00       		.byte	0
 1915 00b8 0E       		.uleb128 0xe
 1916 00b9 1D       		.uleb128 0x1d
 1917 00ba 01       		.byte	0x1
 1918 00bb 31       		.uleb128 0x31
 1919 00bc 13       		.uleb128 0x13
 1920 00bd 52       		.uleb128 0x52
 1921 00be 01       		.uleb128 0x1
 1922 00bf 55       		.uleb128 0x55
 1923 00c0 17       		.uleb128 0x17
 1924 00c1 58       		.uleb128 0x58
 1925 00c2 0B       		.uleb128 0xb
 1926 00c3 59       		.uleb128 0x59
 1927 00c4 05       		.uleb128 0x5
 1928 00c5 01       		.uleb128 0x1
 1929 00c6 13       		.uleb128 0x13
 1930 00c7 00       		.byte	0
 1931 00c8 00       		.byte	0
 1932 00c9 0F       		.uleb128 0xf
 1933 00ca 05       		.uleb128 0x5
 1934 00cb 00       		.byte	0
 1935 00cc 31       		.uleb128 0x31
 1936 00cd 13       		.uleb128 0x13
 1937 00ce 1C       		.uleb128 0x1c
ARM GAS  C:\Users\jsyoon\AppData\Local\Temp\ccD00wm8.s 			page 35


 1938 00cf 0B       		.uleb128 0xb
 1939 00d0 00       		.byte	0
 1940 00d1 00       		.byte	0
 1941 00d2 10       		.uleb128 0x10
 1942 00d3 0B       		.uleb128 0xb
 1943 00d4 01       		.byte	0x1
 1944 00d5 55       		.uleb128 0x55
 1945 00d6 17       		.uleb128 0x17
 1946 00d7 00       		.byte	0
 1947 00d8 00       		.byte	0
 1948 00d9 11       		.uleb128 0x11
 1949 00da 34       		.uleb128 0x34
 1950 00db 00       		.byte	0
 1951 00dc 31       		.uleb128 0x31
 1952 00dd 13       		.uleb128 0x13
 1953 00de 02       		.uleb128 0x2
 1954 00df 17       		.uleb128 0x17
 1955 00e0 00       		.byte	0
 1956 00e1 00       		.byte	0
 1957 00e2 12       		.uleb128 0x12
 1958 00e3 898201   		.uleb128 0x4109
 1959 00e6 01       		.byte	0x1
 1960 00e7 11       		.uleb128 0x11
 1961 00e8 01       		.uleb128 0x1
 1962 00e9 31       		.uleb128 0x31
 1963 00ea 13       		.uleb128 0x13
 1964 00eb 01       		.uleb128 0x1
 1965 00ec 13       		.uleb128 0x13
 1966 00ed 00       		.byte	0
 1967 00ee 00       		.byte	0
 1968 00ef 13       		.uleb128 0x13
 1969 00f0 8A8201   		.uleb128 0x410a
 1970 00f3 00       		.byte	0
 1971 00f4 02       		.uleb128 0x2
 1972 00f5 18       		.uleb128 0x18
 1973 00f6 9142     		.uleb128 0x2111
 1974 00f8 18       		.uleb128 0x18
 1975 00f9 00       		.byte	0
 1976 00fa 00       		.byte	0
 1977 00fb 14       		.uleb128 0x14
 1978 00fc 898201   		.uleb128 0x4109
 1979 00ff 01       		.byte	0x1
 1980 0100 11       		.uleb128 0x11
 1981 0101 01       		.uleb128 0x1
 1982 0102 31       		.uleb128 0x31
 1983 0103 13       		.uleb128 0x13
 1984 0104 00       		.byte	0
 1985 0105 00       		.byte	0
 1986 0106 15       		.uleb128 0x15
 1987 0107 2E       		.uleb128 0x2e
 1988 0108 01       		.byte	0x1
 1989 0109 31       		.uleb128 0x31
 1990 010a 13       		.uleb128 0x13
 1991 010b 11       		.uleb128 0x11
 1992 010c 01       		.uleb128 0x1
 1993 010d 12       		.uleb128 0x12
 1994 010e 06       		.uleb128 0x6
ARM GAS  C:\Users\jsyoon\AppData\Local\Temp\ccD00wm8.s 			page 36


 1995 010f 40       		.uleb128 0x40
 1996 0110 18       		.uleb128 0x18
 1997 0111 9742     		.uleb128 0x2117
 1998 0113 19       		.uleb128 0x19
 1999 0114 01       		.uleb128 0x1
 2000 0115 13       		.uleb128 0x13
 2001 0116 00       		.byte	0
 2002 0117 00       		.byte	0
 2003 0118 16       		.uleb128 0x16
 2004 0119 0B       		.uleb128 0xb
 2005 011a 01       		.byte	0x1
 2006 011b 55       		.uleb128 0x55
 2007 011c 17       		.uleb128 0x17
 2008 011d 01       		.uleb128 0x1
 2009 011e 13       		.uleb128 0x13
 2010 011f 00       		.byte	0
 2011 0120 00       		.byte	0
 2012 0121 17       		.uleb128 0x17
 2013 0122 34       		.uleb128 0x34
 2014 0123 00       		.byte	0
 2015 0124 31       		.uleb128 0x31
 2016 0125 13       		.uleb128 0x13
 2017 0126 00       		.byte	0
 2018 0127 00       		.byte	0
 2019 0128 18       		.uleb128 0x18
 2020 0129 898201   		.uleb128 0x4109
 2021 012c 01       		.byte	0x1
 2022 012d 11       		.uleb128 0x11
 2023 012e 01       		.uleb128 0x1
 2024 012f 9542     		.uleb128 0x2115
 2025 0131 19       		.uleb128 0x19
 2026 0132 31       		.uleb128 0x31
 2027 0133 13       		.uleb128 0x13
 2028 0134 00       		.byte	0
 2029 0135 00       		.byte	0
 2030 0136 19       		.uleb128 0x19
 2031 0137 2E       		.uleb128 0x2e
 2032 0138 01       		.byte	0x1
 2033 0139 3F       		.uleb128 0x3f
 2034 013a 19       		.uleb128 0x19
 2035 013b 03       		.uleb128 0x3
 2036 013c 0E       		.uleb128 0xe
 2037 013d 3A       		.uleb128 0x3a
 2038 013e 0B       		.uleb128 0xb
 2039 013f 3B       		.uleb128 0x3b
 2040 0140 05       		.uleb128 0x5
 2041 0141 27       		.uleb128 0x27
 2042 0142 19       		.uleb128 0x19
 2043 0143 49       		.uleb128 0x49
 2044 0144 13       		.uleb128 0x13
 2045 0145 11       		.uleb128 0x11
 2046 0146 01       		.uleb128 0x1
 2047 0147 12       		.uleb128 0x12
 2048 0148 06       		.uleb128 0x6
 2049 0149 40       		.uleb128 0x40
 2050 014a 18       		.uleb128 0x18
 2051 014b 9742     		.uleb128 0x2117
ARM GAS  C:\Users\jsyoon\AppData\Local\Temp\ccD00wm8.s 			page 37


 2052 014d 19       		.uleb128 0x19
 2053 014e 01       		.uleb128 0x1
 2054 014f 13       		.uleb128 0x13
 2055 0150 00       		.byte	0
 2056 0151 00       		.byte	0
 2057 0152 1A       		.uleb128 0x1a
 2058 0153 05       		.uleb128 0x5
 2059 0154 00       		.byte	0
 2060 0155 03       		.uleb128 0x3
 2061 0156 0E       		.uleb128 0xe
 2062 0157 3A       		.uleb128 0x3a
 2063 0158 0B       		.uleb128 0xb
 2064 0159 3B       		.uleb128 0x3b
 2065 015a 05       		.uleb128 0x5
 2066 015b 49       		.uleb128 0x49
 2067 015c 13       		.uleb128 0x13
 2068 015d 02       		.uleb128 0x2
 2069 015e 18       		.uleb128 0x18
 2070 015f 00       		.byte	0
 2071 0160 00       		.byte	0
 2072 0161 1B       		.uleb128 0x1b
 2073 0162 1D       		.uleb128 0x1d
 2074 0163 01       		.byte	0x1
 2075 0164 31       		.uleb128 0x31
 2076 0165 13       		.uleb128 0x13
 2077 0166 52       		.uleb128 0x52
 2078 0167 01       		.uleb128 0x1
 2079 0168 55       		.uleb128 0x55
 2080 0169 17       		.uleb128 0x17
 2081 016a 58       		.uleb128 0x58
 2082 016b 0B       		.uleb128 0xb
 2083 016c 59       		.uleb128 0x59
 2084 016d 05       		.uleb128 0x5
 2085 016e 00       		.byte	0
 2086 016f 00       		.byte	0
 2087 0170 1C       		.uleb128 0x1c
 2088 0171 0F       		.uleb128 0xf
 2089 0172 00       		.byte	0
 2090 0173 0B       		.uleb128 0xb
 2091 0174 0B       		.uleb128 0xb
 2092 0175 49       		.uleb128 0x49
 2093 0176 13       		.uleb128 0x13
 2094 0177 00       		.byte	0
 2095 0178 00       		.byte	0
 2096 0179 1D       		.uleb128 0x1d
 2097 017a 2E       		.uleb128 0x2e
 2098 017b 01       		.byte	0x1
 2099 017c 3F       		.uleb128 0x3f
 2100 017d 19       		.uleb128 0x19
 2101 017e 03       		.uleb128 0x3
 2102 017f 0E       		.uleb128 0xe
 2103 0180 3A       		.uleb128 0x3a
 2104 0181 0B       		.uleb128 0xb
 2105 0182 3B       		.uleb128 0x3b
 2106 0183 0B       		.uleb128 0xb
 2107 0184 27       		.uleb128 0x27
 2108 0185 19       		.uleb128 0x19
ARM GAS  C:\Users\jsyoon\AppData\Local\Temp\ccD00wm8.s 			page 38


 2109 0186 49       		.uleb128 0x49
 2110 0187 13       		.uleb128 0x13
 2111 0188 11       		.uleb128 0x11
 2112 0189 01       		.uleb128 0x1
 2113 018a 12       		.uleb128 0x12
 2114 018b 06       		.uleb128 0x6
 2115 018c 40       		.uleb128 0x40
 2116 018d 18       		.uleb128 0x18
 2117 018e 9742     		.uleb128 0x2117
 2118 0190 19       		.uleb128 0x19
 2119 0191 01       		.uleb128 0x1
 2120 0192 13       		.uleb128 0x13
 2121 0193 00       		.byte	0
 2122 0194 00       		.byte	0
 2123 0195 1E       		.uleb128 0x1e
 2124 0196 34       		.uleb128 0x34
 2125 0197 00       		.byte	0
 2126 0198 03       		.uleb128 0x3
 2127 0199 0E       		.uleb128 0xe
 2128 019a 3A       		.uleb128 0x3a
 2129 019b 0B       		.uleb128 0xb
 2130 019c 3B       		.uleb128 0x3b
 2131 019d 0B       		.uleb128 0xb
 2132 019e 49       		.uleb128 0x49
 2133 019f 13       		.uleb128 0x13
 2134 01a0 02       		.uleb128 0x2
 2135 01a1 17       		.uleb128 0x17
 2136 01a2 00       		.byte	0
 2137 01a3 00       		.byte	0
 2138 01a4 1F       		.uleb128 0x1f
 2139 01a5 34       		.uleb128 0x34
 2140 01a6 00       		.byte	0
 2141 01a7 03       		.uleb128 0x3
 2142 01a8 08       		.uleb128 0x8
 2143 01a9 3A       		.uleb128 0x3a
 2144 01aa 0B       		.uleb128 0xb
 2145 01ab 3B       		.uleb128 0x3b
 2146 01ac 0B       		.uleb128 0xb
 2147 01ad 49       		.uleb128 0x49
 2148 01ae 13       		.uleb128 0x13
 2149 01af 02       		.uleb128 0x2
 2150 01b0 17       		.uleb128 0x17
 2151 01b1 00       		.byte	0
 2152 01b2 00       		.byte	0
 2153 01b3 20       		.uleb128 0x20
 2154 01b4 898201   		.uleb128 0x4109
 2155 01b7 00       		.byte	0
 2156 01b8 11       		.uleb128 0x11
 2157 01b9 01       		.uleb128 0x1
 2158 01ba 31       		.uleb128 0x31
 2159 01bb 13       		.uleb128 0x13
 2160 01bc 00       		.byte	0
 2161 01bd 00       		.byte	0
 2162 01be 21       		.uleb128 0x21
 2163 01bf 1D       		.uleb128 0x1d
 2164 01c0 01       		.byte	0x1
 2165 01c1 31       		.uleb128 0x31
ARM GAS  C:\Users\jsyoon\AppData\Local\Temp\ccD00wm8.s 			page 39


 2166 01c2 13       		.uleb128 0x13
 2167 01c3 11       		.uleb128 0x11
 2168 01c4 01       		.uleb128 0x1
 2169 01c5 12       		.uleb128 0x12
 2170 01c6 06       		.uleb128 0x6
 2171 01c7 58       		.uleb128 0x58
 2172 01c8 0B       		.uleb128 0xb
 2173 01c9 59       		.uleb128 0x59
 2174 01ca 05       		.uleb128 0x5
 2175 01cb 01       		.uleb128 0x1
 2176 01cc 13       		.uleb128 0x13
 2177 01cd 00       		.byte	0
 2178 01ce 00       		.byte	0
 2179 01cf 22       		.uleb128 0x22
 2180 01d0 05       		.uleb128 0x5
 2181 01d1 00       		.byte	0
 2182 01d2 31       		.uleb128 0x31
 2183 01d3 13       		.uleb128 0x13
 2184 01d4 02       		.uleb128 0x2
 2185 01d5 17       		.uleb128 0x17
 2186 01d6 00       		.byte	0
 2187 01d7 00       		.byte	0
 2188 01d8 23       		.uleb128 0x23
 2189 01d9 0B       		.uleb128 0xb
 2190 01da 01       		.byte	0x1
 2191 01db 11       		.uleb128 0x11
 2192 01dc 01       		.uleb128 0x1
 2193 01dd 12       		.uleb128 0x12
 2194 01de 06       		.uleb128 0x6
 2195 01df 00       		.byte	0
 2196 01e0 00       		.byte	0
 2197 01e1 24       		.uleb128 0x24
 2198 01e2 34       		.uleb128 0x34
 2199 01e3 00       		.byte	0
 2200 01e4 31       		.uleb128 0x31
 2201 01e5 13       		.uleb128 0x13
 2202 01e6 1C       		.uleb128 0x1c
 2203 01e7 0B       		.uleb128 0xb
 2204 01e8 00       		.byte	0
 2205 01e9 00       		.byte	0
 2206 01ea 25       		.uleb128 0x25
 2207 01eb 34       		.uleb128 0x34
 2208 01ec 00       		.byte	0
 2209 01ed 03       		.uleb128 0x3
 2210 01ee 0E       		.uleb128 0xe
 2211 01ef 3A       		.uleb128 0x3a
 2212 01f0 0B       		.uleb128 0xb
 2213 01f1 3B       		.uleb128 0x3b
 2214 01f2 05       		.uleb128 0x5
 2215 01f3 49       		.uleb128 0x49
 2216 01f4 13       		.uleb128 0x13
 2217 01f5 3F       		.uleb128 0x3f
 2218 01f6 19       		.uleb128 0x19
 2219 01f7 3C       		.uleb128 0x3c
 2220 01f8 19       		.uleb128 0x19
 2221 01f9 00       		.byte	0
 2222 01fa 00       		.byte	0
ARM GAS  C:\Users\jsyoon\AppData\Local\Temp\ccD00wm8.s 			page 40


 2223 01fb 26       		.uleb128 0x26
 2224 01fc 34       		.uleb128 0x34
 2225 01fd 00       		.byte	0
 2226 01fe 03       		.uleb128 0x3
 2227 01ff 0E       		.uleb128 0xe
 2228 0200 3A       		.uleb128 0x3a
 2229 0201 0B       		.uleb128 0xb
 2230 0202 3B       		.uleb128 0x3b
 2231 0203 0B       		.uleb128 0xb
 2232 0204 49       		.uleb128 0x49
 2233 0205 13       		.uleb128 0x13
 2234 0206 3F       		.uleb128 0x3f
 2235 0207 19       		.uleb128 0x19
 2236 0208 02       		.uleb128 0x2
 2237 0209 18       		.uleb128 0x18
 2238 020a 00       		.byte	0
 2239 020b 00       		.byte	0
 2240 020c 27       		.uleb128 0x27
 2241 020d 01       		.uleb128 0x1
 2242 020e 01       		.byte	0x1
 2243 020f 49       		.uleb128 0x49
 2244 0210 13       		.uleb128 0x13
 2245 0211 01       		.uleb128 0x1
 2246 0212 13       		.uleb128 0x13
 2247 0213 00       		.byte	0
 2248 0214 00       		.byte	0
 2249 0215 28       		.uleb128 0x28
 2250 0216 21       		.uleb128 0x21
 2251 0217 00       		.byte	0
 2252 0218 49       		.uleb128 0x49
 2253 0219 13       		.uleb128 0x13
 2254 021a 2F       		.uleb128 0x2f
 2255 021b 0B       		.uleb128 0xb
 2256 021c 00       		.byte	0
 2257 021d 00       		.byte	0
 2258 021e 29       		.uleb128 0x29
 2259 021f 34       		.uleb128 0x34
 2260 0220 00       		.byte	0
 2261 0221 03       		.uleb128 0x3
 2262 0222 0E       		.uleb128 0xe
 2263 0223 3A       		.uleb128 0x3a
 2264 0224 0B       		.uleb128 0xb
 2265 0225 3B       		.uleb128 0x3b
 2266 0226 0B       		.uleb128 0xb
 2267 0227 49       		.uleb128 0x49
 2268 0228 13       		.uleb128 0x13
 2269 0229 3F       		.uleb128 0x3f
 2270 022a 19       		.uleb128 0x19
 2271 022b 3C       		.uleb128 0x3c
 2272 022c 19       		.uleb128 0x19
 2273 022d 00       		.byte	0
 2274 022e 00       		.byte	0
 2275 022f 2A       		.uleb128 0x2a
 2276 0230 2E       		.uleb128 0x2e
 2277 0231 01       		.byte	0x1
 2278 0232 3F       		.uleb128 0x3f
 2279 0233 19       		.uleb128 0x19
ARM GAS  C:\Users\jsyoon\AppData\Local\Temp\ccD00wm8.s 			page 41


 2280 0234 03       		.uleb128 0x3
 2281 0235 0E       		.uleb128 0xe
 2282 0236 3A       		.uleb128 0x3a
 2283 0237 0B       		.uleb128 0xb
 2284 0238 3B       		.uleb128 0x3b
 2285 0239 05       		.uleb128 0x5
 2286 023a 27       		.uleb128 0x27
 2287 023b 19       		.uleb128 0x19
 2288 023c 49       		.uleb128 0x49
 2289 023d 13       		.uleb128 0x13
 2290 023e 3C       		.uleb128 0x3c
 2291 023f 19       		.uleb128 0x19
 2292 0240 01       		.uleb128 0x1
 2293 0241 13       		.uleb128 0x13
 2294 0242 00       		.byte	0
 2295 0243 00       		.byte	0
 2296 0244 2B       		.uleb128 0x2b
 2297 0245 05       		.uleb128 0x5
 2298 0246 00       		.byte	0
 2299 0247 49       		.uleb128 0x49
 2300 0248 13       		.uleb128 0x13
 2301 0249 00       		.byte	0
 2302 024a 00       		.byte	0
 2303 024b 2C       		.uleb128 0x2c
 2304 024c 2E       		.uleb128 0x2e
 2305 024d 01       		.byte	0x1
 2306 024e 3F       		.uleb128 0x3f
 2307 024f 19       		.uleb128 0x19
 2308 0250 03       		.uleb128 0x3
 2309 0251 0E       		.uleb128 0xe
 2310 0252 3A       		.uleb128 0x3a
 2311 0253 0B       		.uleb128 0xb
 2312 0254 3B       		.uleb128 0x3b
 2313 0255 05       		.uleb128 0x5
 2314 0256 27       		.uleb128 0x27
 2315 0257 19       		.uleb128 0x19
 2316 0258 49       		.uleb128 0x49
 2317 0259 13       		.uleb128 0x13
 2318 025a 3C       		.uleb128 0x3c
 2319 025b 19       		.uleb128 0x19
 2320 025c 00       		.byte	0
 2321 025d 00       		.byte	0
 2322 025e 00       		.byte	0
 2323              		.section	.debug_loc,"",%progbits
 2324              	.Ldebug_loc0:
 2325              	.LLST0:
 2326 0000 00000000 		.4byte	.LVL0
 2327 0004 40000000 		.4byte	.LVL8
 2328 0008 0100     		.2byte	0x1
 2329 000a 50       		.byte	0x50
 2330 000b 40000000 		.4byte	.LVL8
 2331 000f 4A000000 		.4byte	.LVL10
 2332 0013 0400     		.2byte	0x4
 2333 0015 F3       		.byte	0xf3
 2334 0016 01       		.uleb128 0x1
 2335 0017 50       		.byte	0x50
 2336 0018 9F       		.byte	0x9f
ARM GAS  C:\Users\jsyoon\AppData\Local\Temp\ccD00wm8.s 			page 42


 2337 0019 4A000000 		.4byte	.LVL10
 2338 001d 4E000000 		.4byte	.LVL11
 2339 0021 0100     		.2byte	0x1
 2340 0023 50       		.byte	0x50
 2341 0024 4E000000 		.4byte	.LVL11
 2342 0028 50000000 		.4byte	.LVL12
 2343 002c 0400     		.2byte	0x4
 2344 002e F3       		.byte	0xf3
 2345 002f 01       		.uleb128 0x1
 2346 0030 50       		.byte	0x50
 2347 0031 9F       		.byte	0x9f
 2348 0032 50000000 		.4byte	.LVL12
 2349 0036 52000000 		.4byte	.LVL13
 2350 003a 0100     		.2byte	0x1
 2351 003c 50       		.byte	0x50
 2352 003d 52000000 		.4byte	.LVL13
 2353 0041 54000000 		.4byte	.LVL14
 2354 0045 0400     		.2byte	0x4
 2355 0047 F3       		.byte	0xf3
 2356 0048 01       		.uleb128 0x1
 2357 0049 50       		.byte	0x50
 2358 004a 9F       		.byte	0x9f
 2359 004b 54000000 		.4byte	.LVL14
 2360 004f 60000000 		.4byte	.LVL17
 2361 0053 0100     		.2byte	0x1
 2362 0055 50       		.byte	0x50
 2363 0056 60000000 		.4byte	.LVL17
 2364 005a 78000000 		.4byte	.LFE116
 2365 005e 0400     		.2byte	0x4
 2366 0060 F3       		.byte	0xf3
 2367 0061 01       		.uleb128 0x1
 2368 0062 50       		.byte	0x50
 2369 0063 9F       		.byte	0x9f
 2370 0064 00000000 		.4byte	0
 2371 0068 00000000 		.4byte	0
 2372              	.LLST1:
 2373 006c 00000000 		.4byte	.LVL0
 2374 0070 43000000 		.4byte	.LVL9-1
 2375 0074 0100     		.2byte	0x1
 2376 0076 51       		.byte	0x51
 2377 0077 43000000 		.4byte	.LVL9-1
 2378 007b 4A000000 		.4byte	.LVL10
 2379 007f 0400     		.2byte	0x4
 2380 0081 F3       		.byte	0xf3
 2381 0082 01       		.uleb128 0x1
 2382 0083 51       		.byte	0x51
 2383 0084 9F       		.byte	0x9f
 2384 0085 4A000000 		.4byte	.LVL10
 2385 0089 60000000 		.4byte	.LVL17
 2386 008d 0100     		.2byte	0x1
 2387 008f 51       		.byte	0x51
 2388 0090 60000000 		.4byte	.LVL17
 2389 0094 78000000 		.4byte	.LFE116
 2390 0098 0400     		.2byte	0x4
 2391 009a F3       		.byte	0xf3
 2392 009b 01       		.uleb128 0x1
 2393 009c 51       		.byte	0x51
ARM GAS  C:\Users\jsyoon\AppData\Local\Temp\ccD00wm8.s 			page 43


 2394 009d 9F       		.byte	0x9f
 2395 009e 00000000 		.4byte	0
 2396 00a2 00000000 		.4byte	0
 2397              	.LLST2:
 2398 00a6 00000000 		.4byte	.LVL0
 2399 00aa 44000000 		.4byte	.LVL9
 2400 00ae 0200     		.2byte	0x2
 2401 00b0 38       		.byte	0x38
 2402 00b1 9F       		.byte	0x9f
 2403 00b2 44000000 		.4byte	.LVL9
 2404 00b6 4A000000 		.4byte	.LVL10
 2405 00ba 0100     		.2byte	0x1
 2406 00bc 50       		.byte	0x50
 2407 00bd 4A000000 		.4byte	.LVL10
 2408 00c1 60000000 		.4byte	.LVL17
 2409 00c5 0200     		.2byte	0x2
 2410 00c7 38       		.byte	0x38
 2411 00c8 9F       		.byte	0x9f
 2412 00c9 60000000 		.4byte	.LVL17
 2413 00cd 62000000 		.4byte	.LVL18
 2414 00d1 0100     		.2byte	0x1
 2415 00d3 50       		.byte	0x50
 2416 00d4 68000000 		.4byte	.LVL19
 2417 00d8 78000000 		.4byte	.LFE116
 2418 00dc 0100     		.2byte	0x1
 2419 00de 50       		.byte	0x50
 2420 00df 00000000 		.4byte	0
 2421 00e3 00000000 		.4byte	0
 2422              	.LLST3:
 2423 00e7 00000000 		.4byte	.LVL0
 2424 00eb 1C000000 		.4byte	.LVL4
 2425 00ef 0200     		.2byte	0x2
 2426 00f1 30       		.byte	0x30
 2427 00f2 9F       		.byte	0x9f
 2428 00f3 4A000000 		.4byte	.LVL10
 2429 00f7 50000000 		.4byte	.LVL12
 2430 00fb 0200     		.2byte	0x2
 2431 00fd 30       		.byte	0x30
 2432 00fe 9F       		.byte	0x9f
 2433 00ff 54000000 		.4byte	.LVL14
 2434 0103 60000000 		.4byte	.LVL17
 2435 0107 0200     		.2byte	0x2
 2436 0109 30       		.byte	0x30
 2437 010a 9F       		.byte	0x9f
 2438 010b 00000000 		.4byte	0
 2439 010f 00000000 		.4byte	0
 2440              	.LLST4:
 2441 0113 00000000 		.4byte	.LVL0
 2442 0117 2A000000 		.4byte	.LVL5
 2443 011b 0600     		.2byte	0x6
 2444 011d 0C       		.byte	0xc
 2445 011e 00400008 		.4byte	0x8004000
 2446 0122 9F       		.byte	0x9f
 2447 0123 2A000000 		.4byte	.LVL5
 2448 0127 4A000000 		.4byte	.LVL10
 2449 012b 0100     		.2byte	0x1
 2450 012d 54       		.byte	0x54
ARM GAS  C:\Users\jsyoon\AppData\Local\Temp\ccD00wm8.s 			page 44


 2451 012e 4A000000 		.4byte	.LVL10
 2452 0132 50000000 		.4byte	.LVL12
 2453 0136 0600     		.2byte	0x6
 2454 0138 0C       		.byte	0xc
 2455 0139 00400008 		.4byte	0x8004000
 2456 013d 9F       		.byte	0x9f
 2457 013e 50000000 		.4byte	.LVL12
 2458 0142 54000000 		.4byte	.LVL14
 2459 0146 0100     		.2byte	0x1
 2460 0148 54       		.byte	0x54
 2461 0149 54000000 		.4byte	.LVL14
 2462 014d 60000000 		.4byte	.LVL17
 2463 0151 0600     		.2byte	0x6
 2464 0153 0C       		.byte	0xc
 2465 0154 00400008 		.4byte	0x8004000
 2466 0158 9F       		.byte	0x9f
 2467 0159 60000000 		.4byte	.LVL17
 2468 015d 6A000000 		.4byte	.LVL20
 2469 0161 0100     		.2byte	0x1
 2470 0163 54       		.byte	0x54
 2471 0164 00000000 		.4byte	0
 2472 0168 00000000 		.4byte	0
 2473              	.LLST5:
 2474 016c 00000000 		.4byte	.LVL0
 2475 0170 2C000000 		.4byte	.LVL6
 2476 0174 0600     		.2byte	0x6
 2477 0176 0C       		.byte	0xc
 2478 0177 00800008 		.4byte	0x8008000
 2479 017b 9F       		.byte	0x9f
 2480 017c 2C000000 		.4byte	.LVL6
 2481 0180 43000000 		.4byte	.LVL9-1
 2482 0184 0100     		.2byte	0x1
 2483 0186 52       		.byte	0x52
 2484 0187 4A000000 		.4byte	.LVL10
 2485 018b 50000000 		.4byte	.LVL12
 2486 018f 0600     		.2byte	0x6
 2487 0191 0C       		.byte	0xc
 2488 0192 00800008 		.4byte	0x8008000
 2489 0196 9F       		.byte	0x9f
 2490 0197 50000000 		.4byte	.LVL12
 2491 019b 54000000 		.4byte	.LVL14
 2492 019f 0100     		.2byte	0x1
 2493 01a1 52       		.byte	0x52
 2494 01a2 54000000 		.4byte	.LVL14
 2495 01a6 60000000 		.4byte	.LVL17
 2496 01aa 0600     		.2byte	0x6
 2497 01ac 0C       		.byte	0xc
 2498 01ad 00800008 		.4byte	0x8008000
 2499 01b1 9F       		.byte	0x9f
 2500 01b2 00000000 		.4byte	0
 2501 01b6 00000000 		.4byte	0
 2502              	.LLST6:
 2503 01ba 00000000 		.4byte	.LVL0
 2504 01be 10000000 		.4byte	.LVL1
 2505 01c2 0200     		.2byte	0x2
 2506 01c4 36       		.byte	0x36
 2507 01c5 9F       		.byte	0x9f
ARM GAS  C:\Users\jsyoon\AppData\Local\Temp\ccD00wm8.s 			page 45


 2508 01c6 10000000 		.4byte	.LVL1
 2509 01ca 18000000 		.4byte	.LVL3
 2510 01ce 0100     		.2byte	0x1
 2511 01d0 52       		.byte	0x52
 2512 01d1 18000000 		.4byte	.LVL3
 2513 01d5 1C000000 		.4byte	.LVL4
 2514 01d9 0500     		.2byte	0x5
 2515 01db 72       		.byte	0x72
 2516 01dc EEDD03   		.sleb128 61166
 2517 01df 9F       		.byte	0x9f
 2518 01e0 4A000000 		.4byte	.LVL10
 2519 01e4 50000000 		.4byte	.LVL12
 2520 01e8 0100     		.2byte	0x1
 2521 01ea 52       		.byte	0x52
 2522 01eb 54000000 		.4byte	.LVL14
 2523 01ef 58000000 		.4byte	.LVL15
 2524 01f3 0100     		.2byte	0x1
 2525 01f5 52       		.byte	0x52
 2526 01f6 00000000 		.4byte	0
 2527 01fa 00000000 		.4byte	0
 2528              	.LLST7:
 2529 01fe 00000000 		.4byte	.LVL0
 2530 0202 10000000 		.4byte	.LVL1
 2531 0206 0200     		.2byte	0x2
 2532 0208 36       		.byte	0x36
 2533 0209 9F       		.byte	0x9f
 2534 020a 10000000 		.4byte	.LVL1
 2535 020e 16000000 		.4byte	.LVL2
 2536 0212 0100     		.2byte	0x1
 2537 0214 53       		.byte	0x53
 2538 0215 4A000000 		.4byte	.LVL10
 2539 0219 50000000 		.4byte	.LVL12
 2540 021d 0100     		.2byte	0x1
 2541 021f 53       		.byte	0x53
 2542 0220 54000000 		.4byte	.LVL14
 2543 0224 5A000000 		.4byte	.LVL16
 2544 0228 0100     		.2byte	0x1
 2545 022a 53       		.byte	0x53
 2546 022b 5A000000 		.4byte	.LVL16
 2547 022f 60000000 		.4byte	.LVL17
 2548 0233 0500     		.2byte	0x5
 2549 0235 73       		.byte	0x73
 2550 0236 EEDD03   		.sleb128 61166
 2551 0239 9F       		.byte	0x9f
 2552 023a 00000000 		.4byte	0
 2553 023e 00000000 		.4byte	0
 2554              	.LLST8:
 2555 0242 00000000 		.4byte	.LVL21
 2556 0246 0A000000 		.4byte	.LVL22
 2557 024a 0200     		.2byte	0x2
 2558 024c 38       		.byte	0x38
 2559 024d 9F       		.byte	0x9f
 2560 024e 0A000000 		.4byte	.LVL22
 2561 0252 0E000000 		.4byte	.LVL23
 2562 0256 0100     		.2byte	0x1
 2563 0258 50       		.byte	0x50
 2564 0259 10000000 		.4byte	.LVL24
ARM GAS  C:\Users\jsyoon\AppData\Local\Temp\ccD00wm8.s 			page 46


 2565 025d 12000000 		.4byte	.LVL25
 2566 0261 0100     		.2byte	0x1
 2567 0263 50       		.byte	0x50
 2568 0264 18000000 		.4byte	.LVL26
 2569 0268 1E000000 		.4byte	.LVL27
 2570 026c 0100     		.2byte	0x1
 2571 026e 50       		.byte	0x50
 2572 026f 00000000 		.4byte	0
 2573 0273 00000000 		.4byte	0
 2574              	.LLST9:
 2575 0277 00000000 		.4byte	.LVL29
 2576 027b 14000000 		.4byte	.LVL32
 2577 027f 0100     		.2byte	0x1
 2578 0281 50       		.byte	0x50
 2579 0282 14000000 		.4byte	.LVL32
 2580 0286 1A000000 		.4byte	.LVL33
 2581 028a 0400     		.2byte	0x4
 2582 028c F3       		.byte	0xf3
 2583 028d 01       		.uleb128 0x1
 2584 028e 50       		.byte	0x50
 2585 028f 9F       		.byte	0x9f
 2586 0290 1A000000 		.4byte	.LVL33
 2587 0294 3A000000 		.4byte	.LVL41
 2588 0298 0100     		.2byte	0x1
 2589 029a 50       		.byte	0x50
 2590 029b 3A000000 		.4byte	.LVL41
 2591 029f 40000000 		.4byte	.LVL42
 2592 02a3 0400     		.2byte	0x4
 2593 02a5 F3       		.byte	0xf3
 2594 02a6 01       		.uleb128 0x1
 2595 02a7 50       		.byte	0x50
 2596 02a8 9F       		.byte	0x9f
 2597 02a9 40000000 		.4byte	.LVL42
 2598 02ad 50000000 		.4byte	.LVL48
 2599 02b1 0100     		.2byte	0x1
 2600 02b3 50       		.byte	0x50
 2601 02b4 50000000 		.4byte	.LVL48
 2602 02b8 70000000 		.4byte	.LFE112
 2603 02bc 0400     		.2byte	0x4
 2604 02be F3       		.byte	0xf3
 2605 02bf 01       		.uleb128 0x1
 2606 02c0 50       		.byte	0x50
 2607 02c1 9F       		.byte	0x9f
 2608 02c2 00000000 		.4byte	0
 2609 02c6 00000000 		.4byte	0
 2610              	.LLST10:
 2611 02ca 00000000 		.4byte	.LVL29
 2612 02ce 20000000 		.4byte	.LVL35
 2613 02d2 0200     		.2byte	0x2
 2614 02d4 30       		.byte	0x30
 2615 02d5 9F       		.byte	0x9f
 2616 02d6 40000000 		.4byte	.LVL42
 2617 02da 48000000 		.4byte	.LVL45
 2618 02de 0200     		.2byte	0x2
 2619 02e0 30       		.byte	0x30
 2620 02e1 9F       		.byte	0x9f
 2621 02e2 00000000 		.4byte	0
ARM GAS  C:\Users\jsyoon\AppData\Local\Temp\ccD00wm8.s 			page 47


 2622 02e6 00000000 		.4byte	0
 2623              	.LLST11:
 2624 02ea 00000000 		.4byte	.LVL29
 2625 02ee 24000000 		.4byte	.LVL36
 2626 02f2 0400     		.2byte	0x4
 2627 02f4 0A       		.byte	0xa
 2628 02f5 5555     		.2byte	0x5555
 2629 02f7 9F       		.byte	0x9f
 2630 02f8 24000000 		.4byte	.LVL36
 2631 02fc 2A000000 		.4byte	.LVL37
 2632 0300 0100     		.2byte	0x1
 2633 0302 52       		.byte	0x52
 2634 0303 2E000000 		.4byte	.LVL38
 2635 0307 32000000 		.4byte	.LVL39
 2636 030b 0100     		.2byte	0x1
 2637 030d 52       		.byte	0x52
 2638 030e 40000000 		.4byte	.LVL42
 2639 0312 48000000 		.4byte	.LVL45
 2640 0316 0400     		.2byte	0x4
 2641 0318 0A       		.byte	0xa
 2642 0319 5555     		.2byte	0x5555
 2643 031b 9F       		.byte	0x9f
 2644 031c 00000000 		.4byte	0
 2645 0320 00000000 		.4byte	0
 2646              	.LLST12:
 2647 0324 00000000 		.4byte	.LVL29
 2648 0328 4E000000 		.4byte	.LVL47
 2649 032c 0200     		.2byte	0x2
 2650 032e 31       		.byte	0x31
 2651 032f 9F       		.byte	0x9f
 2652 0330 4E000000 		.4byte	.LVL47
 2653 0334 70000000 		.4byte	.LFE112
 2654 0338 0200     		.2byte	0x2
 2655 033a 30       		.byte	0x30
 2656 033b 9F       		.byte	0x9f
 2657 033c 00000000 		.4byte	0
 2658 0340 00000000 		.4byte	0
 2659              	.LLST13:
 2660 0344 00000000 		.4byte	.LVL29
 2661 0348 20000000 		.4byte	.LVL35
 2662 034c 0600     		.2byte	0x6
 2663 034e 0C       		.byte	0xc
 2664 034f 00400008 		.4byte	0x8004000
 2665 0353 9F       		.byte	0x9f
 2666 0354 20000000 		.4byte	.LVL35
 2667 0358 40000000 		.4byte	.LVL42
 2668 035c 0100     		.2byte	0x1
 2669 035e 53       		.byte	0x53
 2670 035f 40000000 		.4byte	.LVL42
 2671 0363 48000000 		.4byte	.LVL45
 2672 0367 0600     		.2byte	0x6
 2673 0369 0C       		.byte	0xc
 2674 036a 00400008 		.4byte	0x8004000
 2675 036e 9F       		.byte	0x9f
 2676 036f 48000000 		.4byte	.LVL45
 2677 0373 4C000000 		.4byte	.LVL46
 2678 0377 0100     		.2byte	0x1
ARM GAS  C:\Users\jsyoon\AppData\Local\Temp\ccD00wm8.s 			page 48


 2679 0379 53       		.byte	0x53
 2680 037a 00000000 		.4byte	0
 2681 037e 00000000 		.4byte	0
 2682              	.LLST14:
 2683 0382 00000000 		.4byte	.LVL29
 2684 0386 20000000 		.4byte	.LVL35
 2685 038a 0600     		.2byte	0x6
 2686 038c 0C       		.byte	0xc
 2687 038d 00400008 		.4byte	0x8004000
 2688 0391 9F       		.byte	0x9f
 2689 0392 40000000 		.4byte	.LVL42
 2690 0396 48000000 		.4byte	.LVL45
 2691 039a 0600     		.2byte	0x6
 2692 039c 0C       		.byte	0xc
 2693 039d 00400008 		.4byte	0x8004000
 2694 03a1 9F       		.byte	0x9f
 2695 03a2 00000000 		.4byte	0
 2696 03a6 00000000 		.4byte	0
 2697              	.LLST15:
 2698 03aa 00000000 		.4byte	.LVL29
 2699 03ae 0A000000 		.4byte	.LVL30
 2700 03b2 0200     		.2byte	0x2
 2701 03b4 36       		.byte	0x36
 2702 03b5 9F       		.byte	0x9f
 2703 03b6 0A000000 		.4byte	.LVL30
 2704 03ba 1C000000 		.4byte	.LVL34
 2705 03be 0100     		.2byte	0x1
 2706 03c0 53       		.byte	0x53
 2707 03c1 40000000 		.4byte	.LVL42
 2708 03c5 42000000 		.4byte	.LVL43
 2709 03c9 0100     		.2byte	0x1
 2710 03cb 53       		.byte	0x53
 2711 03cc 00000000 		.4byte	0
 2712 03d0 00000000 		.4byte	0
 2713              	.LLST16:
 2714 03d4 00000000 		.4byte	.LVL29
 2715 03d8 0E000000 		.4byte	.LVL31
 2716 03dc 0200     		.2byte	0x2
 2717 03de 36       		.byte	0x36
 2718 03df 9F       		.byte	0x9f
 2719 03e0 0E000000 		.4byte	.LVL31
 2720 03e4 20000000 		.4byte	.LVL35
 2721 03e8 0100     		.2byte	0x1
 2722 03ea 52       		.byte	0x52
 2723 03eb 40000000 		.4byte	.LVL42
 2724 03ef 46000000 		.4byte	.LVL44
 2725 03f3 0100     		.2byte	0x1
 2726 03f5 52       		.byte	0x52
 2727 03f6 00000000 		.4byte	0
 2728 03fa 00000000 		.4byte	0
 2729              	.LLST17:
 2730 03fe 00000000 		.4byte	.LVL49
 2731 0402 0E000000 		.4byte	.LVL50
 2732 0406 0200     		.2byte	0x2
 2733 0408 36       		.byte	0x36
 2734 0409 9F       		.byte	0x9f
 2735 040a 0E000000 		.4byte	.LVL50
ARM GAS  C:\Users\jsyoon\AppData\Local\Temp\ccD00wm8.s 			page 49


 2736 040e 22000000 		.4byte	.LVL52
 2737 0412 0100     		.2byte	0x1
 2738 0414 53       		.byte	0x53
 2739 0415 2A000000 		.4byte	.LVL54
 2740 0419 3E000000 		.4byte	.LVL56
 2741 041d 0100     		.2byte	0x1
 2742 041f 53       		.byte	0x53
 2743 0420 7A000000 		.4byte	.LVL63
 2744 0424 89000000 		.4byte	.LVL64-1
 2745 0428 0100     		.2byte	0x1
 2746 042a 53       		.byte	0x53
 2747 042b 92000000 		.4byte	.LVL66
 2748 042f A2000000 		.4byte	.LVL67
 2749 0433 0100     		.2byte	0x1
 2750 0435 53       		.byte	0x53
 2751 0436 DE000000 		.4byte	.LVL74
 2752 043a E2000000 		.4byte	.LVL75
 2753 043e 0100     		.2byte	0x1
 2754 0440 53       		.byte	0x53
 2755 0441 FE000000 		.4byte	.LVL79
 2756 0445 05010000 		.4byte	.LVL80-1
 2757 0449 0100     		.2byte	0x1
 2758 044b 53       		.byte	0x53
 2759 044c 00000000 		.4byte	0
 2760 0450 00000000 		.4byte	0
 2761              	.LLST18:
 2762 0454 00000000 		.4byte	.LVL49
 2763 0458 16000000 		.4byte	.LVL51
 2764 045c 0200     		.2byte	0x2
 2765 045e 36       		.byte	0x36
 2766 045f 9F       		.byte	0x9f
 2767 0460 16000000 		.4byte	.LVL51
 2768 0464 3C000000 		.4byte	.LVL55
 2769 0468 0100     		.2byte	0x1
 2770 046a 54       		.byte	0x54
 2771 046b 7A000000 		.4byte	.LVL63
 2772 046f 8E000000 		.4byte	.LVL65
 2773 0473 0100     		.2byte	0x1
 2774 0475 54       		.byte	0x54
 2775 0476 92000000 		.4byte	.LVL66
 2776 047a A2000000 		.4byte	.LVL67
 2777 047e 0100     		.2byte	0x1
 2778 0480 54       		.byte	0x54
 2779 0481 DE000000 		.4byte	.LVL74
 2780 0485 0A010000 		.4byte	.LVL81
 2781 0489 0100     		.2byte	0x1
 2782 048b 54       		.byte	0x54
 2783 048c 38010000 		.4byte	.LVL88
 2784 0490 44010000 		.4byte	.LVL91
 2785 0494 0100     		.2byte	0x1
 2786 0496 54       		.byte	0x54
 2787 0497 00000000 		.4byte	0
 2788 049b 00000000 		.4byte	0
 2789              	.LLST19:
 2790 049f 00000000 		.4byte	.LVL49
 2791 04a3 3E000000 		.4byte	.LVL56
 2792 04a7 0200     		.2byte	0x2
ARM GAS  C:\Users\jsyoon\AppData\Local\Temp\ccD00wm8.s 			page 50


 2793 04a9 30       		.byte	0x30
 2794 04aa 9F       		.byte	0x9f
 2795 04ab 42000000 		.4byte	.LVL57
 2796 04af 5C000000 		.4byte	.LVL59
 2797 04b3 0100     		.2byte	0x1
 2798 04b5 54       		.byte	0x54
 2799 04b6 5C000000 		.4byte	.LVL59
 2800 04ba 7A000000 		.4byte	.LVL63
 2801 04be 0300     		.2byte	0x3
 2802 04c0 74       		.byte	0x74
 2803 04c1 7F       		.sleb128 -1
 2804 04c2 9F       		.byte	0x9f
 2805 04c3 7A000000 		.4byte	.LVL63
 2806 04c7 8E000000 		.4byte	.LVL65
 2807 04cb 0200     		.2byte	0x2
 2808 04cd 30       		.byte	0x30
 2809 04ce 9F       		.byte	0x9f
 2810 04cf 92000000 		.4byte	.LVL66
 2811 04d3 A2000000 		.4byte	.LVL67
 2812 04d7 0200     		.2byte	0x2
 2813 04d9 30       		.byte	0x30
 2814 04da 9F       		.byte	0x9f
 2815 04db A6000000 		.4byte	.LVL68
 2816 04df C0000000 		.4byte	.LVL70
 2817 04e3 0100     		.2byte	0x1
 2818 04e5 54       		.byte	0x54
 2819 04e6 C0000000 		.4byte	.LVL70
 2820 04ea DE000000 		.4byte	.LVL74
 2821 04ee 0300     		.2byte	0x3
 2822 04f0 74       		.byte	0x74
 2823 04f1 7F       		.sleb128 -1
 2824 04f2 9F       		.byte	0x9f
 2825 04f3 DE000000 		.4byte	.LVL74
 2826 04f7 0A010000 		.4byte	.LVL81
 2827 04fb 0200     		.2byte	0x2
 2828 04fd 30       		.byte	0x30
 2829 04fe 9F       		.byte	0x9f
 2830 04ff 38010000 		.4byte	.LVL88
 2831 0503 5C010000 		.4byte	.LFE111
 2832 0507 0200     		.2byte	0x2
 2833 0509 30       		.byte	0x30
 2834 050a 9F       		.byte	0x9f
 2835 050b 00000000 		.4byte	0
 2836 050f 00000000 		.4byte	0
 2837              	.LLST20:
 2838 0513 00000000 		.4byte	.LVL49
 2839 0517 3E000000 		.4byte	.LVL56
 2840 051b 0200     		.2byte	0x2
 2841 051d 30       		.byte	0x30
 2842 051e 9F       		.byte	0x9f
 2843 051f 72000000 		.4byte	.LVL62
 2844 0523 7A000000 		.4byte	.LVL63
 2845 0527 0100     		.2byte	0x1
 2846 0529 50       		.byte	0x50
 2847 052a 7A000000 		.4byte	.LVL63
 2848 052e 8E000000 		.4byte	.LVL65
 2849 0532 0200     		.2byte	0x2
ARM GAS  C:\Users\jsyoon\AppData\Local\Temp\ccD00wm8.s 			page 51


 2850 0534 30       		.byte	0x30
 2851 0535 9F       		.byte	0x9f
 2852 0536 92000000 		.4byte	.LVL66
 2853 053a A2000000 		.4byte	.LVL67
 2854 053e 0200     		.2byte	0x2
 2855 0540 30       		.byte	0x30
 2856 0541 9F       		.byte	0x9f
 2857 0542 D6000000 		.4byte	.LVL73
 2858 0546 DE000000 		.4byte	.LVL74
 2859 054a 0100     		.2byte	0x1
 2860 054c 50       		.byte	0x50
 2861 054d DE000000 		.4byte	.LVL74
 2862 0551 0A010000 		.4byte	.LVL81
 2863 0555 0200     		.2byte	0x2
 2864 0557 30       		.byte	0x30
 2865 0558 9F       		.byte	0x9f
 2866 0559 38010000 		.4byte	.LVL88
 2867 055d 5C010000 		.4byte	.LFE111
 2868 0561 0200     		.2byte	0x2
 2869 0563 30       		.byte	0x30
 2870 0564 9F       		.byte	0x9f
 2871 0565 00000000 		.4byte	0
 2872 0569 00000000 		.4byte	0
 2873              	.LLST21:
 2874 056d 00000000 		.4byte	.LVL49
 2875 0571 3E000000 		.4byte	.LVL56
 2876 0575 0200     		.2byte	0x2
 2877 0577 30       		.byte	0x30
 2878 0578 9F       		.byte	0x9f
 2879 0579 62000000 		.4byte	.LVL60
 2880 057d 6A000000 		.4byte	.LVL61
 2881 0581 0100     		.2byte	0x1
 2882 0583 50       		.byte	0x50
 2883 0584 7A000000 		.4byte	.LVL63
 2884 0588 8E000000 		.4byte	.LVL65
 2885 058c 0200     		.2byte	0x2
 2886 058e 30       		.byte	0x30
 2887 058f 9F       		.byte	0x9f
 2888 0590 92000000 		.4byte	.LVL66
 2889 0594 A2000000 		.4byte	.LVL67
 2890 0598 0200     		.2byte	0x2
 2891 059a 30       		.byte	0x30
 2892 059b 9F       		.byte	0x9f
 2893 059c C6000000 		.4byte	.LVL71
 2894 05a0 CE000000 		.4byte	.LVL72
 2895 05a4 0100     		.2byte	0x1
 2896 05a6 50       		.byte	0x50
 2897 05a7 DE000000 		.4byte	.LVL74
 2898 05ab 0A010000 		.4byte	.LVL81
 2899 05af 0200     		.2byte	0x2
 2900 05b1 30       		.byte	0x30
 2901 05b2 9F       		.byte	0x9f
 2902 05b3 38010000 		.4byte	.LVL88
 2903 05b7 5C010000 		.4byte	.LFE111
 2904 05bb 0200     		.2byte	0x2
 2905 05bd 30       		.byte	0x30
 2906 05be 9F       		.byte	0x9f
ARM GAS  C:\Users\jsyoon\AppData\Local\Temp\ccD00wm8.s 			page 52


 2907 05bf 00000000 		.4byte	0
 2908 05c3 00000000 		.4byte	0
 2909              	.LLST22:
 2910 05c7 00000000 		.4byte	.LVL49
 2911 05cb 3E000000 		.4byte	.LVL56
 2912 05cf 0300     		.2byte	0x3
 2913 05d1 09       		.byte	0x9
 2914 05d2 FF       		.byte	0xff
 2915 05d3 9F       		.byte	0x9f
 2916 05d4 3E000000 		.4byte	.LVL56
 2917 05d8 7A000000 		.4byte	.LVL63
 2918 05dc 0100     		.2byte	0x1
 2919 05de 56       		.byte	0x56
 2920 05df 7A000000 		.4byte	.LVL63
 2921 05e3 8E000000 		.4byte	.LVL65
 2922 05e7 0300     		.2byte	0x3
 2923 05e9 09       		.byte	0x9
 2924 05ea FF       		.byte	0xff
 2925 05eb 9F       		.byte	0x9f
 2926 05ec 92000000 		.4byte	.LVL66
 2927 05f0 A2000000 		.4byte	.LVL67
 2928 05f4 0300     		.2byte	0x3
 2929 05f6 09       		.byte	0x9
 2930 05f7 FF       		.byte	0xff
 2931 05f8 9F       		.byte	0x9f
 2932 05f9 A2000000 		.4byte	.LVL67
 2933 05fd DE000000 		.4byte	.LVL74
 2934 0601 0100     		.2byte	0x1
 2935 0603 56       		.byte	0x56
 2936 0604 DE000000 		.4byte	.LVL74
 2937 0608 0A010000 		.4byte	.LVL81
 2938 060c 0300     		.2byte	0x3
 2939 060e 09       		.byte	0x9
 2940 060f FF       		.byte	0xff
 2941 0610 9F       		.byte	0x9f
 2942 0611 0A010000 		.4byte	.LVL81
 2943 0615 2C010000 		.4byte	.LVL86
 2944 0619 0100     		.2byte	0x1
 2945 061b 56       		.byte	0x56
 2946 061c 38010000 		.4byte	.LVL88
 2947 0620 5C010000 		.4byte	.LFE111
 2948 0624 0300     		.2byte	0x3
 2949 0626 09       		.byte	0x9
 2950 0627 FF       		.byte	0xff
 2951 0628 9F       		.byte	0x9f
 2952 0629 00000000 		.4byte	0
 2953 062d 00000000 		.4byte	0
 2954              	.LLST23:
 2955 0631 26000000 		.4byte	.LVL53
 2956 0635 2A000000 		.4byte	.LVL54
 2957 0639 0100     		.2byte	0x1
 2958 063b 50       		.byte	0x50
 2959 063c 8A000000 		.4byte	.LVL64
 2960 0640 8E000000 		.4byte	.LVL65
 2961 0644 0100     		.2byte	0x1
 2962 0646 50       		.byte	0x50
 2963 0647 EE000000 		.4byte	.LVL76
ARM GAS  C:\Users\jsyoon\AppData\Local\Temp\ccD00wm8.s 			page 53


 2964 064b F4000000 		.4byte	.LVL77
 2965 064f 0100     		.2byte	0x1
 2966 0651 50       		.byte	0x50
 2967 0652 FA000000 		.4byte	.LVL78
 2968 0656 FE000000 		.4byte	.LVL79
 2969 065a 0100     		.2byte	0x1
 2970 065c 50       		.byte	0x50
 2971 065d 06010000 		.4byte	.LVL80
 2972 0661 0A010000 		.4byte	.LVL81
 2973 0665 0100     		.2byte	0x1
 2974 0667 50       		.byte	0x50
 2975 0668 12010000 		.4byte	.LVL82
 2976 066c 1B010000 		.4byte	.LVL83-1
 2977 0670 0100     		.2byte	0x1
 2978 0672 50       		.byte	0x50
 2979 0673 1C010000 		.4byte	.LVL83
 2980 0677 20010000 		.4byte	.LVL84
 2981 067b 0100     		.2byte	0x1
 2982 067d 50       		.byte	0x50
 2983 067e 28010000 		.4byte	.LVL85
 2984 0682 2C010000 		.4byte	.LVL86
 2985 0686 0100     		.2byte	0x1
 2986 0688 50       		.byte	0x50
 2987 0689 34010000 		.4byte	.LVL87
 2988 068d 3A010000 		.4byte	.LVL89
 2989 0691 0100     		.2byte	0x1
 2990 0693 50       		.byte	0x50
 2991 0694 40010000 		.4byte	.LVL90
 2992 0698 5C010000 		.4byte	.LFE111
 2993 069c 0100     		.2byte	0x1
 2994 069e 50       		.byte	0x50
 2995 069f 00000000 		.4byte	0
 2996 06a3 00000000 		.4byte	0
 2997              	.LLST24:
 2998 06a7 00000000 		.4byte	.LVL92
 2999 06ab 0B000000 		.4byte	.LVL93-1
 3000 06af 0100     		.2byte	0x1
 3001 06b1 50       		.byte	0x50
 3002 06b2 0B000000 		.4byte	.LVL93-1
 3003 06b6 B0000000 		.4byte	.LFE113
 3004 06ba 0400     		.2byte	0x4
 3005 06bc F3       		.byte	0xf3
 3006 06bd 01       		.uleb128 0x1
 3007 06be 50       		.byte	0x50
 3008 06bf 9F       		.byte	0x9f
 3009 06c0 00000000 		.4byte	0
 3010 06c4 00000000 		.4byte	0
 3011              	.LLST25:
 3012 06c8 00000000 		.4byte	.LVL92
 3013 06cc 0B000000 		.4byte	.LVL93-1
 3014 06d0 0100     		.2byte	0x1
 3015 06d2 51       		.byte	0x51
 3016 06d3 0B000000 		.4byte	.LVL93-1
 3017 06d7 B0000000 		.4byte	.LFE113
 3018 06db 0400     		.2byte	0x4
 3019 06dd F3       		.byte	0xf3
 3020 06de 01       		.uleb128 0x1
ARM GAS  C:\Users\jsyoon\AppData\Local\Temp\ccD00wm8.s 			page 54


 3021 06df 51       		.byte	0x51
 3022 06e0 9F       		.byte	0x9f
 3023 06e1 00000000 		.4byte	0
 3024 06e5 00000000 		.4byte	0
 3025              	.LLST26:
 3026 06e9 00000000 		.4byte	.LVL92
 3027 06ed 0C000000 		.4byte	.LVL93
 3028 06f1 0200     		.2byte	0x2
 3029 06f3 30       		.byte	0x30
 3030 06f4 9F       		.byte	0x9f
 3031 06f5 0C000000 		.4byte	.LVL93
 3032 06f9 18000000 		.4byte	.LVL96
 3033 06fd 0100     		.2byte	0x1
 3034 06ff 50       		.byte	0x50
 3035 0700 00000000 		.4byte	0
 3036 0704 00000000 		.4byte	0
 3037              	.LLST27:
 3038 0708 14000000 		.4byte	.LVL95
 3039 070c 4A000000 		.4byte	.LVL104
 3040 0710 0100     		.2byte	0x1
 3041 0712 55       		.byte	0x55
 3042 0713 80000000 		.4byte	.LVL109
 3043 0717 88000000 		.4byte	.LVL110
 3044 071b 0100     		.2byte	0x1
 3045 071d 55       		.byte	0x55
 3046 071e 00000000 		.4byte	0
 3047 0722 00000000 		.4byte	0
 3048              	.LLST28:
 3049 0726 14000000 		.4byte	.LVL95
 3050 072a A0000000 		.4byte	.LVL114
 3051 072e 0100     		.2byte	0x1
 3052 0730 54       		.byte	0x54
 3053 0731 00000000 		.4byte	0
 3054 0735 00000000 		.4byte	0
 3055              	.LLST29:
 3056 0739 14000000 		.4byte	.LVL95
 3057 073d 38000000 		.4byte	.LVL101
 3058 0741 0200     		.2byte	0x2
 3059 0743 38       		.byte	0x38
 3060 0744 9F       		.byte	0x9f
 3061 0745 38000000 		.4byte	.LVL101
 3062 0749 40000000 		.4byte	.LVL102
 3063 074d 0100     		.2byte	0x1
 3064 074f 50       		.byte	0x50
 3065 0750 80000000 		.4byte	.LVL109
 3066 0754 88000000 		.4byte	.LVL110
 3067 0758 0200     		.2byte	0x2
 3068 075a 38       		.byte	0x38
 3069 075b 9F       		.byte	0x9f
 3070 075c 90000000 		.4byte	.LVL111
 3071 0760 96000000 		.4byte	.LVL112
 3072 0764 0100     		.2byte	0x1
 3073 0766 50       		.byte	0x50
 3074 0767 9C000000 		.4byte	.LVL113
 3075 076b B0000000 		.4byte	.LFE113
 3076 076f 0100     		.2byte	0x1
 3077 0771 50       		.byte	0x50
ARM GAS  C:\Users\jsyoon\AppData\Local\Temp\ccD00wm8.s 			page 55


 3078 0772 00000000 		.4byte	0
 3079 0776 00000000 		.4byte	0
 3080              	.LLST30:
 3081 077a 14000000 		.4byte	.LVL95
 3082 077e 2E000000 		.4byte	.LVL99
 3083 0782 0600     		.2byte	0x6
 3084 0784 0C       		.byte	0xc
 3085 0785 00400008 		.4byte	0x8004000
 3086 0789 9F       		.byte	0x9f
 3087 078a 2E000000 		.4byte	.LVL99
 3088 078e 80000000 		.4byte	.LVL109
 3089 0792 0100     		.2byte	0x1
 3090 0794 57       		.byte	0x57
 3091 0795 80000000 		.4byte	.LVL109
 3092 0799 88000000 		.4byte	.LVL110
 3093 079d 0600     		.2byte	0x6
 3094 079f 0C       		.byte	0xc
 3095 07a0 00400008 		.4byte	0x8004000
 3096 07a4 9F       		.byte	0x9f
 3097 07a5 88000000 		.4byte	.LVL110
 3098 07a9 A0000000 		.4byte	.LVL114
 3099 07ad 0100     		.2byte	0x1
 3100 07af 57       		.byte	0x57
 3101 07b0 00000000 		.4byte	0
 3102 07b4 00000000 		.4byte	0
 3103              	.LLST31:
 3104 07b8 14000000 		.4byte	.LVL95
 3105 07bc 2E000000 		.4byte	.LVL99
 3106 07c0 0200     		.2byte	0x2
 3107 07c2 30       		.byte	0x30
 3108 07c3 9F       		.byte	0x9f
 3109 07c4 2E000000 		.4byte	.LVL99
 3110 07c8 80000000 		.4byte	.LVL109
 3111 07cc 0100     		.2byte	0x1
 3112 07ce 58       		.byte	0x58
 3113 07cf 80000000 		.4byte	.LVL109
 3114 07d3 88000000 		.4byte	.LVL110
 3115 07d7 0200     		.2byte	0x2
 3116 07d9 30       		.byte	0x30
 3117 07da 9F       		.byte	0x9f
 3118 07db 88000000 		.4byte	.LVL110
 3119 07df A0000000 		.4byte	.LVL114
 3120 07e3 0100     		.2byte	0x1
 3121 07e5 58       		.byte	0x58
 3122 07e6 00000000 		.4byte	0
 3123 07ea 00000000 		.4byte	0
 3124              	.LLST32:
 3125 07ee 14000000 		.4byte	.LVL95
 3126 07f2 54000000 		.4byte	.LVL105
 3127 07f6 0200     		.2byte	0x2
 3128 07f8 30       		.byte	0x30
 3129 07f9 9F       		.byte	0x9f
 3130 07fa 80000000 		.4byte	.LVL109
 3131 07fe 88000000 		.4byte	.LVL110
 3132 0802 0200     		.2byte	0x2
 3133 0804 30       		.byte	0x30
 3134 0805 9F       		.byte	0x9f
ARM GAS  C:\Users\jsyoon\AppData\Local\Temp\ccD00wm8.s 			page 56


 3135 0806 00000000 		.4byte	0
 3136 080a 00000000 		.4byte	0
 3137              	.LLST33:
 3138 080e 14000000 		.4byte	.LVL95
 3139 0812 44000000 		.4byte	.LVL103
 3140 0816 0200     		.2byte	0x2
 3141 0818 30       		.byte	0x30
 3142 0819 9F       		.byte	0x9f
 3143 081a 44000000 		.4byte	.LVL103
 3144 081e 54000000 		.4byte	.LVL105
 3145 0822 0100     		.2byte	0x1
 3146 0824 50       		.byte	0x50
 3147 0825 78000000 		.4byte	.LVL108
 3148 0829 80000000 		.4byte	.LVL109
 3149 082d 0100     		.2byte	0x1
 3150 082f 50       		.byte	0x50
 3151 0830 80000000 		.4byte	.LVL109
 3152 0834 88000000 		.4byte	.LVL110
 3153 0838 0200     		.2byte	0x2
 3154 083a 30       		.byte	0x30
 3155 083b 9F       		.byte	0x9f
 3156 083c 00000000 		.4byte	0
 3157 0840 00000000 		.4byte	0
 3158              	.LLST34:
 3159 0844 14000000 		.4byte	.LVL95
 3160 0848 54000000 		.4byte	.LVL105
 3161 084c 0200     		.2byte	0x2
 3162 084e 30       		.byte	0x30
 3163 084f 9F       		.byte	0x9f
 3164 0850 68000000 		.4byte	.LVL106
 3165 0854 70000000 		.4byte	.LVL107
 3166 0858 0100     		.2byte	0x1
 3167 085a 50       		.byte	0x50
 3168 085b 80000000 		.4byte	.LVL109
 3169 085f 88000000 		.4byte	.LVL110
 3170 0863 0200     		.2byte	0x2
 3171 0865 30       		.byte	0x30
 3172 0866 9F       		.byte	0x9f
 3173 0867 00000000 		.4byte	0
 3174 086b 00000000 		.4byte	0
 3175              	.LLST35:
 3176 086f 14000000 		.4byte	.LVL95
 3177 0873 1E000000 		.4byte	.LVL97
 3178 0877 0200     		.2byte	0x2
 3179 0879 36       		.byte	0x36
 3180 087a 9F       		.byte	0x9f
 3181 087b 1E000000 		.4byte	.LVL97
 3182 087f 37000000 		.4byte	.LVL101-1
 3183 0883 0100     		.2byte	0x1
 3184 0885 52       		.byte	0x52
 3185 0886 80000000 		.4byte	.LVL109
 3186 088a 88000000 		.4byte	.LVL110
 3187 088e 0100     		.2byte	0x1
 3188 0890 52       		.byte	0x52
 3189 0891 00000000 		.4byte	0
 3190 0895 00000000 		.4byte	0
 3191              	.LLST36:
ARM GAS  C:\Users\jsyoon\AppData\Local\Temp\ccD00wm8.s 			page 57


 3192 0899 14000000 		.4byte	.LVL95
 3193 089d 20000000 		.4byte	.LVL98
 3194 08a1 0200     		.2byte	0x2
 3195 08a3 36       		.byte	0x36
 3196 08a4 9F       		.byte	0x9f
 3197 08a5 20000000 		.4byte	.LVL98
 3198 08a9 34000000 		.4byte	.LVL100
 3199 08ad 0100     		.2byte	0x1
 3200 08af 51       		.byte	0x51
 3201 08b0 80000000 		.4byte	.LVL109
 3202 08b4 88000000 		.4byte	.LVL110
 3203 08b8 0100     		.2byte	0x1
 3204 08ba 51       		.byte	0x51
 3205 08bb 00000000 		.4byte	0
 3206 08bf 00000000 		.4byte	0
 3207              		.section	.debug_aranges,"",%progbits
 3208 0000 3C000000 		.4byte	0x3c
 3209 0004 0200     		.2byte	0x2
 3210 0006 00000000 		.4byte	.Ldebug_info0
 3211 000a 04       		.byte	0x4
 3212 000b 00       		.byte	0
 3213 000c 0000     		.2byte	0
 3214 000e 0000     		.2byte	0
 3215 0010 00000000 		.4byte	.LFB116
 3216 0014 78000000 		.4byte	.LFE116-.LFB116
 3217 0018 00000000 		.4byte	.LFB114
 3218 001c 2C000000 		.4byte	.LFE114-.LFB114
 3219 0020 00000000 		.4byte	.LFB112
 3220 0024 70000000 		.4byte	.LFE112-.LFB112
 3221 0028 00000000 		.4byte	.LFB111
 3222 002c 5C010000 		.4byte	.LFE111-.LFB111
 3223 0030 00000000 		.4byte	.LFB113
 3224 0034 B0000000 		.4byte	.LFE113-.LFB113
 3225 0038 00000000 		.4byte	0
 3226 003c 00000000 		.4byte	0
 3227              		.section	.debug_ranges,"",%progbits
 3228              	.Ldebug_ranges0:
 3229 0000 02000000 		.4byte	.LBB4
 3230 0004 0C000000 		.4byte	.LBE4
 3231 0008 0E000000 		.4byte	.LBB9
 3232 000c 1C000000 		.4byte	.LBE9
 3233 0010 4A000000 		.4byte	.LBB10
 3234 0014 4C000000 		.4byte	.LBE10
 3235 0018 54000000 		.4byte	.LBB11
 3236 001c 60000000 		.4byte	.LBE11
 3237 0020 00000000 		.4byte	0
 3238 0024 00000000 		.4byte	0
 3239 0028 1C000000 		.4byte	.LBB15
 3240 002c 20000000 		.4byte	.LBE15
 3241 0030 24000000 		.4byte	.LBB16
 3242 0034 2C000000 		.4byte	.LBE16
 3243 0038 00000000 		.4byte	0
 3244 003c 00000000 		.4byte	0
 3245 0040 00000000 		.4byte	.LBB20
 3246 0044 0A000000 		.4byte	.LBE20
 3247 0048 0C000000 		.4byte	.LBB25
 3248 004c 12000000 		.4byte	.LBE25
ARM GAS  C:\Users\jsyoon\AppData\Local\Temp\ccD00wm8.s 			page 58


 3249 0050 1A000000 		.4byte	.LBB26
 3250 0054 20000000 		.4byte	.LBE26
 3251 0058 40000000 		.4byte	.LBB27
 3252 005c 48000000 		.4byte	.LBE27
 3253 0060 00000000 		.4byte	0
 3254 0064 00000000 		.4byte	0
 3255 0068 00000000 		.4byte	.LFB116
 3256 006c 78000000 		.4byte	.LFE116
 3257 0070 00000000 		.4byte	.LFB114
 3258 0074 2C000000 		.4byte	.LFE114
 3259 0078 00000000 		.4byte	.LFB112
 3260 007c 70000000 		.4byte	.LFE112
 3261 0080 00000000 		.4byte	.LFB111
 3262 0084 5C010000 		.4byte	.LFE111
 3263 0088 00000000 		.4byte	.LFB113
 3264 008c B0000000 		.4byte	.LFE113
 3265 0090 00000000 		.4byte	0
 3266 0094 00000000 		.4byte	0
 3267              		.section	.debug_line,"",%progbits
 3268              	.Ldebug_line0:
 3269 0000 BD020000 		.section	.debug_str,"MS",%progbits,1
 3269      02004501 
 3269      00000201 
 3269      FB0E0D00 
 3269      01010101 
 3270              	.LASF49:
 3271 0000 4F6C6450 		.ascii	"OldPageId\000"
 3271      61676549 
 3271      6400
 3272              	.LASF59:
 3273 000a 464C4153 		.ascii	"FLASH_ProgramHalfWord\000"
 3273      485F5072 
 3273      6F677261 
 3273      6D48616C 
 3273      66576F72 
 3274              	.LASF2:
 3275 0020 5F5F7569 		.ascii	"__uint8_t\000"
 3275      6E74385F 
 3275      7400
 3276              	.LASF3:
 3277 002a 5F5F696E 		.ascii	"__int16_t\000"
 3277      7431365F 
 3277      7400
 3278              	.LASF55:
 3279 0034 474E5520 		.ascii	"GNU C 4.8.4 20140526 (release) [ARM/embedded-4_8-br"
 3279      4320342E 
 3279      382E3420 
 3279      32303134 
 3279      30353236 
 3280 0067 616E6368 		.ascii	"anch revision 211358] -mcpu=cortex-m4 -mfloat-abi=h"
 3280      20726576 
 3280      6973696F 
 3280      6E203231 
 3280      31333538 
 3281 009a 61726420 		.ascii	"ard -mfpu=fpv4-sp-d16 -mno-thumb-interwork -mthumb "
 3281      2D6D6670 
 3281      753D6670 
ARM GAS  C:\Users\jsyoon\AppData\Local\Temp\ccD00wm8.s 			page 59


 3281      76342D73 
 3281      702D6431 
 3282 00cd 2D676764 		.ascii	"-ggdb -O2 -std=gnu99 -fomit-frame-pointer -falign-f"
 3282      62202D4F 
 3282      32202D73 
 3282      74643D67 
 3282      6E753939 
 3283 0100 756E6374 		.ascii	"unctions=16 -ffunction-sections -fdata-sections -fn"
 3283      696F6E73 
 3283      3D313620 
 3283      2D666675 
 3283      6E637469 
 3284 0133 6F2D636F 		.ascii	"o-common -fsingle-precision-constant\000"
 3284      6D6D6F6E 
 3284      202D6673 
 3284      696E676C 
 3284      652D7072 
 3285              	.LASF27:
 3286 0158 464C4153 		.ascii	"FLASH_COMPLETE\000"
 3286      485F434F 
 3286      4D504C45 
 3286      544500
 3287              	.LASF7:
 3288 0167 5F5F696E 		.ascii	"__int32_t\000"
 3288      7433325F 
 3288      7400
 3289              	.LASF51:
 3290 0171 53746174 		.ascii	"Status\000"
 3290      757300
 3291              	.LASF20:
 3292 0178 464C4153 		.ascii	"FLASH_BUSY\000"
 3292      485F4255 
 3292      535900
 3293              	.LASF4:
 3294 0183 73686F72 		.ascii	"short int\000"
 3294      7420696E 
 3294      7400
 3295              	.LASF60:
 3296 018d 464C4153 		.ascii	"FLASH_EraseSector\000"
 3296      485F4572 
 3296      61736553 
 3296      6563746F 
 3296      7200
 3297              	.LASF44:
 3298 019f 56617249 		.ascii	"VarIdx\000"
 3298      647800
 3299              	.LASF54:
 3300 01a6 56697274 		.ascii	"VirtAddVarTab\000"
 3300      41646456 
 3300      61725461 
 3300      6200
 3301              	.LASF43:
 3302 01b4 45455F49 		.ascii	"EE_Init\000"
 3302      6E697400 
 3303              	.LASF47:
 3304 01bc 4F706572 		.ascii	"Operation\000"
 3304      6174696F 
ARM GAS  C:\Users\jsyoon\AppData\Local\Temp\ccD00wm8.s 			page 60


 3304      6E00
 3305              	.LASF39:
 3306 01c6 41646472 		.ascii	"AddressValue\000"
 3306      65737356 
 3306      616C7565 
 3306      00
 3307              	.LASF23:
 3308 01d3 464C4153 		.ascii	"FLASH_ERROR_PGA\000"
 3308      485F4552 
 3308      524F525F 
 3308      50474100 
 3309              	.LASF1:
 3310 01e3 756E7369 		.ascii	"unsigned char\000"
 3310      676E6564 
 3310      20636861 
 3310      7200
 3311              	.LASF41:
 3312 01f1 50616765 		.ascii	"PageStartAddress\000"
 3312      53746172 
 3312      74416464 
 3312      72657373 
 3312      00
 3313              	.LASF48:
 3314 0202 4E657750 		.ascii	"NewPageAddress\000"
 3314      61676541 
 3314      64647265 
 3314      737300
 3315              	.LASF10:
 3316 0211 6C6F6E67 		.ascii	"long unsigned int\000"
 3316      20756E73 
 3316      69676E65 
 3316      6420696E 
 3316      7400
 3317              	.LASF6:
 3318 0223 73686F72 		.ascii	"short unsigned int\000"
 3318      7420756E 
 3318      7369676E 
 3318      65642069 
 3318      6E7400
 3319              	.LASF46:
 3320 0236 45455F50 		.ascii	"EE_PageTransfer\000"
 3320      61676554 
 3320      72616E73 
 3320      66657200 
 3321              	.LASF24:
 3322 0246 464C4153 		.ascii	"FLASH_ERROR_WRP\000"
 3322      485F4552 
 3322      524F525F 
 3322      57525000 
 3323              	.LASF50:
 3324 0256 45455F57 		.ascii	"EE_WriteVariable\000"
 3324      72697465 
 3324      56617269 
 3324      61626C65 
 3324      00
 3325              	.LASF52:
 3326 0267 49544D5F 		.ascii	"ITM_RxBuffer\000"
ARM GAS  C:\Users\jsyoon\AppData\Local\Temp\ccD00wm8.s 			page 61


 3326      52784275 
 3326      66666572 
 3326      00
 3327              	.LASF22:
 3328 0274 464C4153 		.ascii	"FLASH_ERROR_PGP\000"
 3328      485F4552 
 3328      524F525F 
 3328      50475000 
 3329              	.LASF30:
 3330 0284 45455F46 		.ascii	"EE_FindValidPage\000"
 3330      696E6456 
 3330      616C6964 
 3330      50616765 
 3330      00
 3331              	.LASF21:
 3332 0295 464C4153 		.ascii	"FLASH_ERROR_PGS\000"
 3332      485F4552 
 3332      524F525F 
 3332      50475300 
 3333              	.LASF5:
 3334 02a5 5F5F7569 		.ascii	"__uint16_t\000"
 3334      6E743136 
 3334      5F7400
 3335              	.LASF35:
 3336 02b0 44617461 		.ascii	"Data\000"
 3336      00
 3337              	.LASF9:
 3338 02b5 5F5F7569 		.ascii	"__uint32_t\000"
 3338      6E743332 
 3338      5F7400
 3339              	.LASF58:
 3340 02c0 45455F56 		.ascii	"EE_VerifyPageFullWriteVariable\000"
 3340      65726966 
 3340      79506167 
 3340      6546756C 
 3340      6C577269 
 3341              	.LASF13:
 3342 02df 756E7369 		.ascii	"unsigned int\000"
 3342      676E6564 
 3342      20696E74 
 3342      00
 3343              	.LASF36:
 3344 02ec 56616C69 		.ascii	"ValidPage\000"
 3344      64506167 
 3344      6500
 3345              	.LASF12:
 3346 02f6 6C6F6E67 		.ascii	"long long unsigned int\000"
 3346      206C6F6E 
 3346      6720756E 
 3346      7369676E 
 3346      65642069 
 3347              	.LASF14:
 3348 030d 75696E74 		.ascii	"uint8_t\000"
 3348      385F7400 
 3349              	.LASF53:
 3350 0315 44617461 		.ascii	"DataVar\000"
 3350      56617200 
ARM GAS  C:\Users\jsyoon\AppData\Local\Temp\ccD00wm8.s 			page 62


 3351              	.LASF15:
 3352 031d 696E7431 		.ascii	"int16_t\000"
 3352      365F7400 
 3353              	.LASF31:
 3354 0325 466C6173 		.ascii	"FlashStatus\000"
 3354      68537461 
 3354      74757300 
 3355              	.LASF29:
 3356 0331 45455F46 		.ascii	"EE_Format\000"
 3356      6F726D61 
 3356      7400
 3357              	.LASF40:
 3358 033b 52656164 		.ascii	"ReadStatus\000"
 3358      53746174 
 3358      757300
 3359              	.LASF17:
 3360 0346 696E7433 		.ascii	"int32_t\000"
 3360      325F7400 
 3361              	.LASF19:
 3362 034e 73697A65 		.ascii	"sizetype\000"
 3362      74797065 
 3362      00
 3363              	.LASF11:
 3364 0357 6C6F6E67 		.ascii	"long long int\000"
 3364      206C6F6E 
 3364      6720696E 
 3364      7400
 3365              	.LASF28:
 3366 0365 464C4153 		.ascii	"FLASH_Status\000"
 3366      485F5374 
 3366      61747573 
 3366      00
 3367              	.LASF26:
 3368 0372 464C4153 		.ascii	"FLASH_ERROR_OPERATION\000"
 3368      485F4552 
 3368      524F525F 
 3368      4F504552 
 3368      4154494F 
 3369              	.LASF57:
 3370 0388 453A5C4D 		.ascii	"E:\\Maker\\BLDC\\test_eval\\try2\\OROCA-BLDC_R15080"
 3370      616B6572 
 3370      5C424C44 
 3370      435C7465 
 3370      73745F65 
 3371 03b6 3700     		.ascii	"7\000"
 3372              	.LASF38:
 3373 03b8 50616765 		.ascii	"PageEndAddress\000"
 3373      456E6441 
 3373      64647265 
 3373      737300
 3374              	.LASF37:
 3375 03c7 41646472 		.ascii	"Address\000"
 3375      65737300 
 3376              	.LASF16:
 3377 03cf 75696E74 		.ascii	"uint16_t\000"
 3377      31365F74 
 3377      00
ARM GAS  C:\Users\jsyoon\AppData\Local\Temp\ccD00wm8.s 			page 63


 3378              	.LASF32:
 3379 03d8 50616765 		.ascii	"PageStatus0\000"
 3379      53746174 
 3379      75733000 
 3380              	.LASF33:
 3381 03e4 50616765 		.ascii	"PageStatus1\000"
 3381      53746174 
 3381      75733100 
 3382              	.LASF18:
 3383 03f0 75696E74 		.ascii	"uint32_t\000"
 3383      33325F74 
 3383      00
 3384              	.LASF8:
 3385 03f9 6C6F6E67 		.ascii	"long int\000"
 3385      20696E74 
 3385      00
 3386              	.LASF0:
 3387 0402 7369676E 		.ascii	"signed char\000"
 3387      65642063 
 3387      68617200 
 3388              	.LASF42:
 3389 040e 45455F52 		.ascii	"EE_ReadVariable\000"
 3389      65616456 
 3389      61726961 
 3389      626C6500 
 3390              	.LASF45:
 3391 041e 45657072 		.ascii	"EepromStatus\000"
 3391      6F6D5374 
 3391      61747573 
 3391      00
 3392              	.LASF56:
 3393 042b 65657072 		.ascii	"eeprom.c\000"
 3393      6F6D2E63 
 3393      00
 3394              	.LASF25:
 3395 0434 464C4153 		.ascii	"FLASH_ERROR_PROGRAM\000"
 3395      485F4552 
 3395      524F525F 
 3395      50524F47 
 3395      52414D00 
 3396              	.LASF34:
 3397 0448 56697274 		.ascii	"VirtAddress\000"
 3397      41646472 
 3397      65737300 
 3398              		.ident	"GCC: (GNU Tools for ARM Embedded Processors) 4.8.4 20140526 (release) [ARM/embedded-4_8-br
ARM GAS  C:\Users\jsyoon\AppData\Local\Temp\ccD00wm8.s 			page 64


DEFINED SYMBOLS
                            *ABS*:00000000 eeprom.c
C:\Users\jsyoon\AppData\Local\Temp\ccD00wm8.s:21     .text.EE_VerifyPageFullWriteVariable:00000000 $t
C:\Users\jsyoon\AppData\Local\Temp\ccD00wm8.s:26     .text.EE_VerifyPageFullWriteVariable:00000000 EE_VerifyPageFullWriteVariable
C:\Users\jsyoon\AppData\Local\Temp\ccD00wm8.s:162    .text.EE_VerifyPageFullWriteVariable:0000006c $d
C:\Users\jsyoon\AppData\Local\Temp\ccD00wm8.s:169    .text.EE_Format:00000000 $t
C:\Users\jsyoon\AppData\Local\Temp\ccD00wm8.s:174    .text.EE_Format:00000000 EE_Format
C:\Users\jsyoon\AppData\Local\Temp\ccD00wm8.s:226    .text.EE_Format:00000028 $d
C:\Users\jsyoon\AppData\Local\Temp\ccD00wm8.s:233    .text.EE_ReadVariable:00000000 $t
C:\Users\jsyoon\AppData\Local\Temp\ccD00wm8.s:239    .text.EE_ReadVariable:00000000 EE_ReadVariable
C:\Users\jsyoon\AppData\Local\Temp\ccD00wm8.s:356    .text.EE_ReadVariable:00000058 $d
C:\Users\jsyoon\AppData\Local\Temp\ccD00wm8.s:366    .text.EE_Init:00000000 $t
C:\Users\jsyoon\AppData\Local\Temp\ccD00wm8.s:372    .text.EE_Init:00000000 EE_Init
C:\Users\jsyoon\AppData\Local\Temp\ccD00wm8.s:627    .text.EE_Init:00000144 $d
C:\Users\jsyoon\AppData\Local\Temp\ccD00wm8.s:637    .text.EE_WriteVariable:00000000 $t
C:\Users\jsyoon\AppData\Local\Temp\ccD00wm8.s:643    .text.EE_WriteVariable:00000000 EE_WriteVariable
C:\Users\jsyoon\AppData\Local\Temp\ccD00wm8.s:794    .text.EE_WriteVariable:000000a0 $d
C:\Users\jsyoon\AppData\Local\Temp\ccD00wm8.s:809    .bss.DataVar:00000000 DataVar
C:\Users\jsyoon\AppData\Local\Temp\ccD00wm8.s:805    .bss.DataVar:00000000 $d
                     .debug_frame:00000010 $d
C:\Users\jsyoon\AppData\Local\Temp\ccD00wm8.s:168    .text.EE_VerifyPageFullWriteVariable:00000078 $t
C:\Users\jsyoon\AppData\Local\Temp\ccD00wm8.s:232    .text.EE_Format:0000002c $t
C:\Users\jsyoon\AppData\Local\Temp\ccD00wm8.s:636    .text.EE_Init:0000015c $t

UNDEFINED SYMBOLS
FLASH_ProgramHalfWord
FLASH_EraseSector
VirtAddVarTab
