ARM GAS  C:\Users\jsyoon\AppData\Local\Temp\ccYLUgOo.s 			page 1


   1              		.syntax unified
   2              		.cpu cortex-m4
   3              		.eabi_attribute 27, 3
   4              		.eabi_attribute 28, 1
   5              		.fpu fpv4-sp-d16
   6              		.eabi_attribute 20, 1
   7              		.eabi_attribute 21, 1
   8              		.eabi_attribute 23, 3
   9              		.eabi_attribute 24, 1
  10              		.eabi_attribute 25, 1
  11              		.eabi_attribute 26, 1
  12              		.eabi_attribute 30, 2
  13              		.eabi_attribute 34, 1
  14              		.eabi_attribute 18, 4
  15              		.thumb
  16              		.file	"encoder.c"
  17              		.text
  18              	.Ltext0:
  19              		.cfi_sections	.debug_frame
  20              		.section	.text.encoder_init,"ax",%progbits
  21              		.align	2
  22              		.p2align 4,,15
  23              		.global	encoder_init
  24              		.thumb
  25              		.thumb_func
  26              		.type	encoder_init, %function
  27              	encoder_init:
  28              	.LFB118:
  29              		.file 1 "encoder.c"
  30              		.loc 1 32 0
  31              		.cfi_startproc
  32              		@ args = 0, pretend = 0, frame = 16
  33              		@ frame_needed = 0, uses_anonymous_args = 0
  34 0000 30B5     		push	{r4, r5, lr}
  35              		.cfi_def_cfa_offset 12
  36              		.cfi_offset 4, -12
  37              		.cfi_offset 5, -8
  38              		.cfi_offset 14, -4
  39              		.loc 1 36 0
  40 0002 244D     		ldr	r5, .L2
  41              		.loc 1 52 0
  42 0004 244C     		ldr	r4, .L2+4
  43              		.loc 1 32 0
  44 0006 85B0     		sub	sp, sp, #20
  45              		.cfi_def_cfa_offset 32
  46              		.loc 1 36 0
  47 0008 2846     		mov	r0, r5
  48 000a 4021     		movs	r1, #64
  49 000c 4FF48D72 		mov	r2, #282
  50 0010 FFF7FEFF 		bl	_pal_lld_setgroupmode
  51              	.LVL0:
  52              		.loc 1 41 0
  53 0014 4FF48D72 		mov	r2, #282
  54 0018 2846     		mov	r0, r5
  55 001a 8021     		movs	r1, #128
  56 001c FFF7FEFF 		bl	_pal_lld_setgroupmode
  57              	.LVL1:
ARM GAS  C:\Users\jsyoon\AppData\Local\Temp\ccYLUgOo.s 			page 2


  58              		.loc 1 47 0
  59 0020 0420     		movs	r0, #4
  60 0022 0121     		movs	r1, #1
  61 0024 FFF7FEFF 		bl	RCC_APB1PeriphClockCmd
  62              	.LVL2:
  63              		.loc 1 50 0
  64 0028 4FF48040 		mov	r0, #16384
  65 002c 0121     		movs	r1, #1
  66 002e FFF7FEFF 		bl	RCC_APB2PeriphClockCmd
  67              	.LVL3:
  68              		.loc 1 52 0
  69 0032 0022     		movs	r2, #0
  70 0034 1346     		mov	r3, r2
  71 0036 2046     		mov	r0, r4
  72 0038 0321     		movs	r1, #3
  73 003a FFF7FEFF 		bl	TIM_EncoderInterfaceConfig
  74              	.LVL4:
  75              		.loc 1 55 0
  76 003e 2046     		mov	r0, r4
  77 0040 43F63F01 		movw	r1, #14399
  78 0044 FFF7FEFF 		bl	TIM_SetAutoreload
  79              	.LVL5:
  80              		.loc 1 57 0
  81 0048 2046     		mov	r0, r4
  82 004a 0121     		movs	r1, #1
  83 004c FFF7FEFF 		bl	TIM_Cmd
  84              	.LVL6:
  85              		.loc 1 62 0
  86 0050 0B21     		movs	r1, #11
  87 0052 0220     		movs	r0, #2
  88 0054 FFF7FEFF 		bl	SYSCFG_EXTILineConfig
  89              	.LVL7:
  90              		.loc 1 67 0
  91 0058 0823     		movs	r3, #8
  92              		.loc 1 66 0
  93 005a 0024     		movs	r4, #0
  94              		.loc 1 65 0
  95 005c 4FF40062 		mov	r2, #2048
  96              		.loc 1 69 0
  97 0060 0DEB0300 		add	r0, sp, r3
  98              		.loc 1 68 0
  99 0064 0125     		movs	r5, #1
 100              		.loc 1 65 0
 101 0066 0292     		str	r2, [sp, #8]
 102              		.loc 1 67 0
 103 0068 8DF80D30 		strb	r3, [sp, #13]
 104              		.loc 1 66 0
 105 006c 8DF80C40 		strb	r4, [sp, #12]
 106              		.loc 1 68 0
 107 0070 8DF80E50 		strb	r5, [sp, #14]
 108              		.loc 1 69 0
 109 0074 FFF7FEFF 		bl	EXTI_Init
 110              	.LVL8:
 111              		.loc 1 72 0
 112 0078 2823     		movs	r3, #40
 113              		.loc 1 76 0
 114 007a 01A8     		add	r0, sp, #4
ARM GAS  C:\Users\jsyoon\AppData\Local\Temp\ccYLUgOo.s 			page 3


 115              		.loc 1 75 0
 116 007c 8DF80750 		strb	r5, [sp, #7]
 117              		.loc 1 73 0
 118 0080 8DF80540 		strb	r4, [sp, #5]
 119              		.loc 1 74 0
 120 0084 8DF80640 		strb	r4, [sp, #6]
 121              		.loc 1 72 0
 122 0088 8DF80430 		strb	r3, [sp, #4]
 123              		.loc 1 76 0
 124 008c FFF7FEFF 		bl	NVIC_Init
 125              	.LVL9:
 126              		.loc 1 77 0
 127 0090 05B0     		add	sp, sp, #20
 128              		@ sp needed
 129 0092 30BD     		pop	{r4, r5, pc}
 130              	.L3:
 131              		.align	2
 132              	.L2:
 133 0094 00040240 		.word	1073873920
 134 0098 00080040 		.word	1073743872
 135              		.cfi_endproc
 136              	.LFE118:
 137              		.size	encoder_init, .-encoder_init
 138 009c AFF30080 		.section	.text.encoder_read_deg,"ax",%progbits
 139              		.align	2
 140              		.p2align 4,,15
 141              		.global	encoder_read_deg
 142              		.thumb
 143              		.thumb_func
 144              		.type	encoder_read_deg, %function
 145              	encoder_read_deg:
 146              	.LFB119:
 147              		.loc 1 79 0
 148              		.cfi_startproc
 149              		@ args = 0, pretend = 0, frame = 0
 150              		@ frame_needed = 0, uses_anonymous_args = 0
 151              		@ link register save eliminated.
 152              		.loc 1 80 0
 153 0000 064B     		ldr	r3, .L5
 154 0002 9FED077A 		flds	s14, .L5+4
 155 0006 93ED090A 		flds	s0, [r3, #36]	@ int
 156 000a DFED067A 		flds	s15, .L5+8
 157 000e B8EE400A 		fuitos	s0, s0
 158 0012 20EE070A 		fmuls	s0, s0, s14
 159              		.loc 1 81 0
 160 0016 80EE270A 		fdivs	s0, s0, s15
 161 001a 7047     		bx	lr
 162              	.L6:
 163              		.align	2
 164              	.L5:
 165 001c 00080040 		.word	1073743872
 166 0020 0000B443 		.word	1135869952
 167 0024 00006146 		.word	1180762112
 168              		.cfi_endproc
 169              	.LFE119:
 170              		.size	encoder_read_deg, .-encoder_read_deg
 171 0028 AFF30080 		.text
ARM GAS  C:\Users\jsyoon\AppData\Local\Temp\ccYLUgOo.s 			page 4


 171      AFF30080 
 172              	.Letext0:
 173              		.file 2 "c:\\crosstools\\gcc-arm-embedded\\4.8_2014q2\\arm-none-eabi\\include\\machine\\_default_t
 174              		.file 3 "c:\\crosstools\\gcc-arm-embedded\\4.8_2014q2\\arm-none-eabi\\include\\stdint.h"
 175              		.file 4 "ChibiOS_2.6.6/os/hal/platforms/STM32F4xx/stm32f4xx.h"
 176              		.file 5 "ChibiOS_2.6.6/ext/stdperiph_stm32f4/inc/stm32f4xx_exti.h"
 177              		.file 6 "ChibiOS_2.6.6/ext/stdperiph_stm32f4/inc/misc.h"
 178              		.file 7 "ChibiOS_2.6.6/os/hal/platforms/STM32/GPIOv2/pal_lld.h"
 179              		.file 8 "ChibiOS_2.6.6/ext/stdperiph_stm32f4/inc/stm32f4xx_rcc.h"
 180              		.file 9 "ChibiOS_2.6.6/ext/stdperiph_stm32f4/inc/stm32f4xx_tim.h"
 181              		.file 10 "ChibiOS_2.6.6/ext/stdperiph_stm32f4/inc/stm32f4xx_syscfg.h"
 182              		.file 11 "ChibiOS_2.6.6/os/ports/common/ARMCMx/CMSIS/include/core_cm4.h"