ARM GAS  C:\Users\jsyoon\AppData\Local\Temp\cciOvaXO.s 			page 1


   1              		.syntax unified
   2              		.cpu cortex-m4
   3              		.eabi_attribute 27, 3
   4              		.eabi_attribute 28, 1
   5              		.fpu fpv4-sp-d16
   6              		.eabi_attribute 20, 1
   7              		.eabi_attribute 21, 1
   8              		.eabi_attribute 23, 3
   9              		.eabi_attribute 24, 1
  10              		.eabi_attribute 25, 1
  11              		.eabi_attribute 26, 1
  12              		.eabi_attribute 30, 2
  13              		.eabi_attribute 34, 1
  14              		.eabi_attribute 18, 4
  15              		.thumb
  16              		.file	"flash_helper.c"
  17              		.text
  18              	.Ltext0:
  19              		.cfi_sections	.debug_frame
  20              		.section	.text.flash_helper_erase_new_app,"ax",%progbits
  21              		.align	2
  22              		.p2align 4,,15
  23              		.global	flash_helper_erase_new_app
  24              		.thumb
  25              		.thumb_func
  26              		.type	flash_helper_erase_new_app, %function
  27              	flash_helper_erase_new_app:
  28              	.LFB118:
  29              		.file 1 "flash_helper.c"
  30              		.loc 1 87 0
  31              		.cfi_startproc
  32              		@ args = 0, pretend = 0, frame = 0
  33              		@ frame_needed = 0, uses_anonymous_args = 0
  34              	.LVL0:
  35 0000 F8B5     		push	{r3, r4, r5, r6, r7, lr}
  36              		.cfi_def_cfa_offset 24
  37              		.cfi_offset 3, -24
  38              		.cfi_offset 4, -20
  39              		.cfi_offset 5, -16
  40              		.cfi_offset 6, -12
  41              		.cfi_offset 7, -8
  42              		.cfi_offset 14, -4
  43              		.loc 1 87 0
  44 0002 0646     		mov	r6, r0
  45              		.loc 1 88 0
  46 0004 FFF7FEFF 		bl	FLASH_Unlock
  47              	.LVL1:
  48              		.loc 1 89 0
  49 0008 F220     		movs	r0, #242
  50 000a FFF7FEFF 		bl	FLASH_ClearFlag
  51              	.LVL2:
  52              		.loc 1 95 0
  53 000e FFF7FEFF 		bl	utils_sys_lock_cnt
  54              	.LVL3:
  55              		.loc 1 96 0
  56 0012 4FF40060 		mov	r0, #2048
  57 0016 0021     		movs	r1, #0
ARM GAS  C:\Users\jsyoon\AppData\Local\Temp\cciOvaXO.s 			page 2


  58 0018 104C     		ldr	r4, .L8
  59 001a 114D     		ldr	r5, .L8+4
  60 001c FFF7FEFF 		bl	RCC_APB1PeriphClockCmd
  61              	.LVL4:
  62              		.loc 1 92 0
  63 0020 06F10066 		add	r6, r6, #134217728
  64              	.LVL5:
  65 0024 06F50026 		add	r6, r6, #524288
  66              	.LVL6:
  67 0028 04F10C07 		add	r7, r4, #12
  68              	.LVL7:
  69              	.L5:
  70              	.LBB5:
  71              		.loc 1 99 0
  72 002c 54F8043F 		ldr	r3, [r4, #4]!
  73 0030 9E42     		cmp	r6, r3
  74              	.LBB6:
  75              		.loc 1 100 0
  76 0032 4FF00201 		mov	r1, #2
  77              	.LBE6:
  78              		.loc 1 99 0
  79 0036 07D9     		bls	.L4
  80              	.LBB7:
  81              		.loc 1 100 0
  82 0038 35F8020F 		ldrh	r0, [r5, #2]!
  83 003c FFF7FEFF 		bl	FLASH_EraseSector
  84              	.LVL8:
  85              		.loc 1 101 0
  86 0040 0828     		cmp	r0, #8
  87 0042 0AD1     		bne	.L3
  88              	.LBE7:
  89              		.loc 1 98 0
  90 0044 BC42     		cmp	r4, r7
  91 0046 F1D1     		bne	.L5
  92              	.LVL9:
  93              	.L4:
  94              	.LBE5:
  95              		.loc 1 109 0
  96 0048 4FF40060 		mov	r0, #2048
  97 004c 0121     		movs	r1, #1
  98 004e FFF7FEFF 		bl	RCC_APB1PeriphClockCmd
  99              	.LVL10:
 100              		.loc 1 110 0
 101 0052 FFF7FEFF 		bl	utils_sys_unlock_cnt
 102              	.LVL11:
 103              		.loc 1 112 0
 104 0056 0820     		movs	r0, #8
 105 0058 F8BD     		pop	{r3, r4, r5, r6, r7, pc}
 106              	.LVL12:
 107              	.L3:
 108              		.loc 1 113 0
 109 005a F8BD     		pop	{r3, r4, r5, r6, r7, pc}
 110              	.LVL13:
 111              	.L9:
 112              		.align	2
 113              	.L8:
 114 005c 1C000000 		.word	.LANCHOR0+28
ARM GAS  C:\Users\jsyoon\AppData\Local\Temp\cciOvaXO.s 			page 3


 115 0060 0E000000 		.word	.LANCHOR1+14
 116              		.cfi_endproc
 117              	.LFE118:
 118              		.size	flash_helper_erase_new_app, .-flash_helper_erase_new_app
 119 0064 AFF30080 		.section	.text.flash_helper_write_new_app_data,"ax",%progbits
 119      AFF30080 
 119      AFF30080 
 120              		.align	2
 121              		.p2align 4,,15
 122              		.global	flash_helper_write_new_app_data
 123              		.thumb
 124              		.thumb_func
 125              		.type	flash_helper_write_new_app_data, %function
 126              	flash_helper_write_new_app_data:
 127              	.LFB119:
 128              		.loc 1 115 0
 129              		.cfi_startproc
 130              		@ args = 0, pretend = 0, frame = 0
 131              		@ frame_needed = 0, uses_anonymous_args = 0
 132              	.LVL14:
 133 0000 F8B5     		push	{r3, r4, r5, r6, r7, lr}
 134              		.cfi_def_cfa_offset 24
 135              		.cfi_offset 3, -24
 136              		.cfi_offset 4, -20
 137              		.cfi_offset 5, -16
 138              		.cfi_offset 6, -12
 139              		.cfi_offset 7, -8
 140              		.cfi_offset 14, -4
 141              		.loc 1 115 0
 142 0002 0546     		mov	r5, r0
 143              		.loc 1 116 0
 144 0004 F220     		movs	r0, #242
 145              	.LVL15:
 146              		.loc 1 115 0
 147 0006 0F46     		mov	r7, r1
 148 0008 1646     		mov	r6, r2
 149              		.loc 1 116 0
 150 000a FFF7FEFF 		bl	FLASH_ClearFlag
 151              	.LVL16:
 152              		.loc 1 120 0
 153 000e FFF7FEFF 		bl	utils_sys_lock_cnt
 154              	.LVL17:
 155              		.loc 1 121 0
 156 0012 4FF40060 		mov	r0, #2048
 157 0016 0021     		movs	r1, #0
 158 0018 FFF7FEFF 		bl	RCC_APB1PeriphClockCmd
 159              	.LVL18:
 160              	.LBB8:
 161              		.loc 1 123 0
 162 001c 8EB1     		cbz	r6, .L13
 163 001e 05F10065 		add	r5, r5, #134217728
 164              	.LVL19:
 165 0022 05F50025 		add	r5, r5, #524288
 166              	.LVL20:
 167 0026 3C46     		mov	r4, r7
 168 0028 3E44     		add	r6, r6, r7
 169              	.LVL21:
ARM GAS  C:\Users\jsyoon\AppData\Local\Temp\cciOvaXO.s 			page 4


 170 002a ED1B     		subs	r5, r5, r7
 171              	.LVL22:
 172 002c 01E0     		b	.L14
 173              	.LVL23:
 174              	.L16:
 175 002e B442     		cmp	r4, r6
 176 0030 07D0     		beq	.L13
 177              	.LVL24:
 178              	.L14:
 179 0032 2819     		adds	r0, r5, r4
 180              	.LBB9:
 181              		.loc 1 124 0
 182 0034 14F8011B 		ldrb	r1, [r4], #1	@ zero_extendqisi2
 183              	.LVL25:
 184 0038 FFF7FEFF 		bl	FLASH_ProgramByte
 185              	.LVL26:
 186              		.loc 1 125 0
 187 003c 0828     		cmp	r0, #8
 188 003e F6D0     		beq	.L16
 189              	.LBE9:
 190              	.LBE8:
 191              		.loc 1 134 0
 192 0040 F8BD     		pop	{r3, r4, r5, r6, r7, pc}
 193              	.LVL27:
 194              	.L13:
 195              		.loc 1 130 0
 196 0042 4FF40060 		mov	r0, #2048
 197 0046 0121     		movs	r1, #1
 198 0048 FFF7FEFF 		bl	RCC_APB1PeriphClockCmd
 199              	.LVL28:
 200              		.loc 1 131 0
 201 004c FFF7FEFF 		bl	utils_sys_unlock_cnt
 202              	.LVL29:
 203              		.loc 1 133 0
 204 0050 0820     		movs	r0, #8
 205 0052 F8BD     		pop	{r3, r4, r5, r6, r7, pc}
 206              		.cfi_endproc
 207              	.LFE119:
 208              		.size	flash_helper_write_new_app_data, .-flash_helper_write_new_app_data
 209 0054 AFF30080 		.section	.text.flash_helper_jump_to_bootloader,"ax",%progbits
 209      AFF30080 
 209      AFF30080 
 210              		.align	2
 211              		.p2align 4,,15
 212              		.global	flash_helper_jump_to_bootloader
 213              		.thumb
 214              		.thumb_func
 215              		.type	flash_helper_jump_to_bootloader, %function
 216              	flash_helper_jump_to_bootloader:
 217              	.LFB120:
 218              		.loc 1 139 0
 219              		.cfi_startproc
 220              		@ args = 0, pretend = 0, frame = 0
 221              		@ frame_needed = 0, uses_anonymous_args = 0
 222              		.loc 1 143 0
 223 0000 1A48     		ldr	r0, .L21
 224              		.loc 1 139 0
ARM GAS  C:\Users\jsyoon\AppData\Local\Temp\cciOvaXO.s 			page 5


 225 0002 08B5     		push	{r3, lr}
 226              		.cfi_def_cfa_offset 8
 227              		.cfi_offset 3, -8
 228              		.cfi_offset 14, -4
 229              		.loc 1 143 0
 230 0004 036D     		ldr	r3, [r0, #80]
 231 0006 9A6B     		ldr	r2, [r3, #56]
 232 0008 22F40022 		bic	r2, r2, #524288
 233 000c 9A63     		str	r2, [r3, #56]
 234              		.loc 1 144 0
 235 000e FFF7FEFF 		bl	usbStop
 236              	.LVL30:
 237              		.loc 1 146 0
 238 0012 1748     		ldr	r0, .L21+4
 239 0014 FFF7FEFF 		bl	uartStop
 240              	.LVL31:
 241              		.loc 1 147 0
 242 0018 1648     		ldr	r0, .L21+8
 243 001a 4021     		movs	r1, #64
 244 001c 0022     		movs	r2, #0
 245 001e FFF7FEFF 		bl	_pal_lld_setgroupmode
 246              	.LVL32:
 247              		.loc 1 148 0
 248 0022 0022     		movs	r2, #0
 249 0024 1348     		ldr	r0, .L21+8
 250 0026 8021     		movs	r1, #128
 251 0028 FFF7FEFF 		bl	_pal_lld_setgroupmode
 252              	.LVL33:
 253              		.loc 1 151 0
 254 002c 4FF40060 		mov	r0, #2048
 255 0030 0021     		movs	r1, #0
 256 0032 FFF7FEFF 		bl	RCC_APB1PeriphClockCmd
 257              	.LVL34:
 258              		.loc 1 153 0
 259              	@ 153 "flash_helper.c" 1
 260 0036 72B6     		cpsid   i
 261              	@ 0 "" 2
 262              	.LVL35:
 263              		.loc 1 162 0
 264              		.thumb
 265 0038 0F4A     		ldr	r2, .L21+12
 266              		.loc 1 168 0
 267 003a 104B     		ldr	r3, .L21+16
 268              		.loc 1 162 0
 269 003c 1068     		ldr	r0, [r2]
 270              	.LVL36:
 271              		.loc 1 168 0
 272 003e 4FF00062 		mov	r2, #134217728
 273 0042 5A60     		str	r2, [r3, #4]
 274              	.LVL37:
 275              	.LBB10:
 276              		.loc 1 171 0
 277 0044 0022     		movs	r2, #0
 278              	.LVL38:
 279              	.L19:
 280 0046 9300     		lsls	r3, r2, #2
 281 0048 03F16043 		add	r3, r3, #-536870912
ARM GAS  C:\Users\jsyoon\AppData\Local\Temp\cciOvaXO.s 			page 6


 282 004c 03F56143 		add	r3, r3, #57600
 283              		.loc 1 171 0 is_stmt 0 discriminator 2
 284 0050 0132     		adds	r2, r2, #1
 285              	.LVL39:
 286              		.loc 1 172 0 is_stmt 1 discriminator 2
 287 0052 D3F80012 		ldr	r1, [r3, #512]
 288 0056 C3F88010 		str	r1, [r3, #128]
 289              		.loc 1 171 0 discriminator 2
 290 005a 082A     		cmp	r2, #8
 291 005c F3D1     		bne	.L19
 292              	.LBE10:
 293              		.loc 1 176 0
 294 005e 084B     		ldr	r3, .L21+20
 295 0060 1B68     		ldr	r3, [r3]
 296              	.LVL40:
 297              	.LBB11:
 298              	.LBB12:
 299              		.file 2 "ChibiOS_2.6.6/os/ports/common/ARMCMx/CMSIS/include/core_cmFunc.h"
 300              		.loc 2 454 0
 301              	@ 454 "ChibiOS_2.6.6/os/ports/common/ARMCMx/CMSIS/include/core_cmFunc.h" 1
 302 0062 83F30888 		MSR msp, r3
 303              	
 304              	@ 0 "" 2
 305              		.thumb
 306              	.LBE12:
 307              	.LBE11:
 308              		.loc 1 179 0
 309 0066 8047     		blx	r0
 310              	.LVL41:
 311 0068 08BD     		pop	{r3, pc}
 312              	.L22:
 313 006a 00BF     		.align	2
 314              	.L21:
 315 006c 00000000 		.word	USBD1
 316 0070 00000000 		.word	UARTD6
 317 0074 00080240 		.word	1073874944
 318 0078 04000E08 		.word	135135236
 319 007c 00ED00E0 		.word	-536810240
 320 0080 00000E08 		.word	135135232
 321              		.cfi_endproc
 322              	.LFE120:
 323              		.size	flash_helper_jump_to_bootloader, .-flash_helper_jump_to_bootloader
 324 0084 AFF30080 		.section	.rodata.flash_sector,"a",%progbits
 324      AFF30080 
 324      AFF30080 
 325              		.align	2
 326              		.set	.LANCHOR1,. + 0
 327              		.type	flash_sector, %object
 328              		.size	flash_sector, 24
 329              	flash_sector:
 330 0000 0000     		.short	0
 331 0002 0800     		.short	8
 332 0004 1000     		.short	16
 333 0006 1800     		.short	24
 334 0008 2000     		.short	32
 335 000a 2800     		.short	40
 336 000c 3000     		.short	48
ARM GAS  C:\Users\jsyoon\AppData\Local\Temp\cciOvaXO.s 			page 7


 337 000e 3800     		.short	56
 338 0010 4000     		.short	64
 339 0012 4800     		.short	72
 340 0014 5000     		.short	80
 341 0016 5800     		.short	88
 342              		.section	.rodata.flash_addr,"a",%progbits
 343              		.align	2
 344              		.set	.LANCHOR0,. + 0
 345              		.type	flash_addr, %object
 346              		.size	flash_addr, 48
 347              	flash_addr:
 348 0000 00000008 		.word	134217728
 349 0004 00400008 		.word	134234112
 350 0008 00800008 		.word	134250496
 351 000c 00C00008 		.word	134266880
 352 0010 00000108 		.word	134283264
 353 0014 00000208 		.word	134348800
 354 0018 00000408 		.word	134479872
 355 001c 00000608 		.word	134610944
 356 0020 00000808 		.word	134742016
 357 0024 00000A08 		.word	134873088
 358 0028 00000C08 		.word	135004160
 359 002c 00000E08 		.word	135135232
 360              		.text
 361              	.Letext0:
 362              		.file 3 "c:\\crosstools\\gcc-arm-embedded\\4.8_2014q2\\arm-none-eabi\\include\\machine\\_default_t
 363              		.file 4 "c:\\crosstools\\gcc-arm-embedded\\4.8_2014q2\\arm-none-eabi\\include\\stdint.h"
 364              		.file 5 "c:\\crosstools\\gcc-arm-embedded\\4.8_2014q2\\lib\\gcc\\arm-none-eabi\\4.8.4\\include\\st
 365              		.file 6 "ChibiOS_2.6.6/os/ports/GCC/ARMCMx/chtypes.h"
 366              		.file 7 "ChibiOS_2.6.6/os/kernel/include/chlists.h"
 367              		.file 8 "ChibiOS_2.6.6/os/kernel/include/chthreads.h"
 368              		.file 9 "ChibiOS_2.6.6/os/ports/GCC/ARMCMx/chcore_v7m.h"
 369              		.file 10 "ChibiOS_2.6.6/os/ports/common/ARMCMx/nvic.h"
 370              		.file 11 "ChibiOS_2.6.6/os/kernel/include/chmtx.h"
 371              		.file 12 "ChibiOS_2.6.6/os/kernel/include/chqueues.h"
 372              		.file 13 "ChibiOS_2.6.6/os/ports/common/ARMCMx/CMSIS/include/core_cm4.h"
 373              		.file 14 "ChibiOS_2.6.6/os/hal/platforms/STM32F4xx/stm32f4xx.h"
 374              		.file 15 "ChibiOS_2.6.6/ext/stdperiph_stm32f4/inc/stm32f4xx_flash.h"
 375              		.file 16 "ChibiOS_2.6.6/os/hal/platforms/STM32F4xx/stm32_dma.h"
 376              		.file 17 "ChibiOS_2.6.6/os/hal/platforms/STM32/GPIOv2/pal_lld.h"
 377              		.file 18 "ChibiOS_2.6.6/os/hal/include/uart.h"
 378              		.file 19 "ChibiOS_2.6.6/os/hal/platforms/STM32/USARTv1/uart_lld.h"
 379              		.file 20 "ChibiOS_2.6.6/os/hal/include/usb.h"
 380              		.file 21 "ChibiOS_2.6.6/os/hal/platforms/STM32/OTGv1/usb_lld.h"
 381              		.file 22 "ChibiOS_2.6.6/os/hal/platforms/STM32/OTGv1/stm32_otg.h"
 382              		.file 23 "utils.h"
 383              		.file 24 "ChibiOS_2.6.6/ext/stdperiph_stm32f4/inc/stm32f4xx_rcc.h"