ARM GAS  C:\Users\ADMINI~1\AppData\Local\Temp\ccPm6M0L.s 			page 1


   1              		.syntax unified
   2              		.cpu cortex-m4
   3              		.eabi_attribute 27, 1
   4              		.eabi_attribute 28, 1
   5              		.fpu fpv4-sp-d16
   6              		.eabi_attribute 20, 1
   7              		.eabi_attribute 21, 1
   8              		.eabi_attribute 23, 3
   9              		.eabi_attribute 24, 1
  10              		.eabi_attribute 25, 1
  11              		.eabi_attribute 26, 1
  12              		.eabi_attribute 30, 2
  13              		.eabi_attribute 34, 1
  14              		.eabi_attribute 18, 4
  15              		.thumb
  16              		.file	"gpt_lld.c"
  17              		.text
  18              	.Ltext0:
  19              		.cfi_sections	.debug_frame
  20              		.section	.text.Vector108,"ax",%progbits
  21              		.align	2
  22              		.p2align 4,,15
  23              		.global	Vector108
  24              		.thumb
  25              		.thumb_func
  26              		.type	Vector108, %function
  27              	Vector108:
  28              	.LFB119:
  29              		.file 1 "ChibiOS_2.6.6/os/hal/platforms/STM32/TIMv1/gpt_lld.c"
  30              		.loc 1 246 0
  31              		.cfi_startproc
  32              		@ args = 0, pretend = 0, frame = 0
  33              		@ frame_needed = 0, uses_anonymous_args = 0
  34              	.LVL0:
  35 0000 08B5     		push	{r3, lr}
  36              		.cfi_def_cfa_offset 8
  37              		.cfi_offset 3, -8
  38              		.cfi_offset 14, -4
  39              	.LBB10:
  40              	.LBB11:
  41              		.loc 1 149 0
  42 0002 0B4B     		ldr	r3, .L5
  43              		.loc 1 150 0
  44 0004 1878     		ldrb	r0, [r3]	@ zero_extendqisi2
  45              		.loc 1 149 0
  46 0006 DA68     		ldr	r2, [r3, #12]
  47 0008 0021     		movs	r1, #0
  48              		.loc 1 150 0
  49 000a 0428     		cmp	r0, #4
  50              		.loc 1 149 0
  51 000c 1161     		str	r1, [r2, #16]
  52              		.loc 1 150 0
  53 000e 07D1     		bne	.L2
  54              		.loc 1 151 0
  55 0010 0220     		movs	r0, #2
  56 0012 1870     		strb	r0, [r3]
  57              	.LVL1:
ARM GAS  C:\Users\ADMINI~1\AppData\Local\Temp\ccPm6M0L.s 			page 2


  58              	.LBB12:
  59              	.LBB13:
  60              		.loc 1 745 0
  61 0014 1160     		str	r1, [r2]
  62              		.loc 1 746 0
  63 0016 1161     		str	r1, [r2, #16]
  64              		.loc 1 749 0
  65 0018 D168     		ldr	r1, [r2, #12]
  66 001a 21F0FF01 		bic	r1, r1, #255
  67 001e D160     		str	r1, [r2, #12]
  68              	.LVL2:
  69              	.L2:
  70              	.LBE13:
  71              	.LBE12:
  72              		.loc 1 154 0
  73 0020 5B68     		ldr	r3, [r3, #4]
  74 0022 0348     		ldr	r0, .L5
  75 0024 5B68     		ldr	r3, [r3, #4]
  76 0026 9847     		blx	r3
  77              	.LVL3:
  78              	.LBE11:
  79              	.LBE10:
  80              		.loc 1 253 0
  81 0028 BDE80840 		pop	{r3, lr}
  82              		.cfi_restore 14
  83              		.cfi_restore 3
  84              		.cfi_def_cfa_offset 0
  85              		.loc 1 252 0
  86 002c FFF7FEBF 		b	_port_irq_epilogue
  87              	.LVL4:
  88              	.L6:
  89              		.align	2
  90              	.L5:
  91 0030 00000000 		.word	.LANCHOR0
  92              		.cfi_endproc
  93              	.LFE119:
  94              		.size	Vector108, .-Vector108
  95              		.section	.text.gpt_lld_init,"ax",%progbits
  96              		.align	2
  97              		.p2align 4,,15
  98              		.global	gpt_lld_init
  99              		.thumb
 100              		.thumb_func
 101              		.type	gpt_lld_init, %function
 102              	gpt_lld_init:
 103              	.LFB120:
 104              		.loc 1 398 0
 105              		.cfi_startproc
 106              		@ args = 0, pretend = 0, frame = 0
 107              		@ frame_needed = 0, uses_anonymous_args = 0
 108              		@ link register save eliminated.
 109              		.loc 1 426 0
 110 0000 0248     		ldr	r0, .L8
 111 0002 034B     		ldr	r3, .L8+4
 112 0004 C360     		str	r3, [r0, #12]
 113              		.loc 1 427 0
 114 0006 FFF7FEBF 		b	gptObjectInit
ARM GAS  C:\Users\ADMINI~1\AppData\Local\Temp\ccPm6M0L.s 			page 3


 115              	.LVL5:
 116              	.L9:
 117 000a 00BF     		.align	2
 118              	.L8:
 119 000c 00000000 		.word	.LANCHOR0
 120 0010 000C0040 		.word	1073744896
 121              		.cfi_endproc
 122              	.LFE120:
 123              		.size	gpt_lld_init, .-gpt_lld_init
 124              		.section	.text.gpt_lld_start,"ax",%progbits
 125              		.align	2
 126              		.p2align 4,,15
 127              		.global	gpt_lld_start
 128              		.thumb
 129              		.thumb_func
 130              		.type	gpt_lld_start, %function
 131              	gpt_lld_start:
 132              	.LFB121:
 133              		.loc 1 480 0
 134              		.cfi_startproc
 135              		@ args = 0, pretend = 0, frame = 0
 136              		@ frame_needed = 0, uses_anonymous_args = 0
 137              	.LVL6:
 138              		.loc 1 483 0
 139 0000 0378     		ldrb	r3, [r0]	@ zero_extendqisi2
 140 0002 012B     		cmp	r3, #1
 141              		.loc 1 480 0
 142 0004 10B5     		push	{r4, lr}
 143              		.cfi_def_cfa_offset 8
 144              		.cfi_offset 4, -8
 145              		.cfi_offset 14, -4
 146              		.loc 1 480 0
 147 0006 0446     		mov	r4, r0
 148              		.loc 1 483 0
 149 0008 10D0     		beq	.L13
 150              	.LVL7:
 151              	.L11:
 152              		.loc 1 612 0
 153 000a 6168     		ldr	r1, [r4, #4]
 154 000c A368     		ldr	r3, [r4, #8]
 155 000e 0868     		ldr	r0, [r1]
 156              		.loc 1 617 0
 157 0010 E268     		ldr	r2, [r4, #12]
 158              		.loc 1 612 0
 159 0012 B3FBF0F3 		udiv	r3, r3, r0
 160 0016 013B     		subs	r3, r3, #1
 161              		.loc 1 620 0
 162 0018 087A     		ldrb	r0, [r1, #8]	@ zero_extendqisi2
 163              		.loc 1 612 0
 164 001a 9BB2     		uxth	r3, r3
 165              	.LVL8:
 166              		.loc 1 617 0
 167 001c 0021     		movs	r1, #0
 168              		.loc 1 618 0
 169 001e 0824     		movs	r4, #8
 170              	.LVL9:
 171              		.loc 1 617 0
ARM GAS  C:\Users\ADMINI~1\AppData\Local\Temp\ccPm6M0L.s 			page 4


 172 0020 1160     		str	r1, [r2]
 173              		.loc 1 618 0
 174 0022 5460     		str	r4, [r2, #4]
 175              		.loc 1 619 0
 176 0024 9362     		str	r3, [r2, #40]
 177              		.loc 1 620 0
 178 0026 D060     		str	r0, [r2, #12]
 179              		.loc 1 622 0
 180 0028 1161     		str	r1, [r2, #16]
 181 002a 10BD     		pop	{r4, pc}
 182              	.LVL10:
 183              	.L13:
 184              		.loc 1 527 0
 185 002c 0A4B     		ldr	r3, .L14
 186 002e 9842     		cmp	r0, r3
 187 0030 EBD1     		bne	.L11
 188              		.loc 1 528 0
 189 0032 0A4B     		ldr	r3, .L14+4
 190 0034 1A6C     		ldr	r2, [r3, #64]
 191 0036 42F00802 		orr	r2, r2, #8
 192 003a 1A64     		str	r2, [r3, #64]
 193              		.loc 1 529 0
 194 003c 1A6A     		ldr	r2, [r3, #32]
 195 003e 0021     		movs	r1, #0
 196 0040 42F00802 		orr	r2, r2, #8
 197 0044 1A62     		str	r2, [r3, #32]
 198              		.loc 1 530 0
 199 0046 3220     		movs	r0, #50
 200              	.LVL11:
 201              		.loc 1 529 0
 202 0048 1962     		str	r1, [r3, #32]
 203              		.loc 1 530 0
 204 004a 7021     		movs	r1, #112
 205 004c FFF7FEFF 		bl	nvicEnableVector
 206              	.LVL12:
 207              		.loc 1 532 0
 208 0050 034B     		ldr	r3, .L14+8
 209 0052 A360     		str	r3, [r4, #8]
 210 0054 D9E7     		b	.L11
 211              	.L15:
 212 0056 00BF     		.align	2
 213              	.L14:
 214 0058 00000000 		.word	.LANCHOR0
 215 005c 00380240 		.word	1073887232
 216 0060 00BD0105 		.word	84000000
 217              		.cfi_endproc
 218              	.LFE121:
 219              		.size	gpt_lld_start, .-gpt_lld_start
 220              		.section	.text.gpt_lld_stop,"ax",%progbits
 221              		.align	2
 222              		.p2align 4,,15
 223              		.global	gpt_lld_stop
 224              		.thumb
 225              		.thumb_func
 226              		.type	gpt_lld_stop, %function
 227              	gpt_lld_stop:
 228              	.LFB122:
ARM GAS  C:\Users\ADMINI~1\AppData\Local\Temp\ccPm6M0L.s 			page 5


 229              		.loc 1 632 0
 230              		.cfi_startproc
 231              		@ args = 0, pretend = 0, frame = 0
 232              		@ frame_needed = 0, uses_anonymous_args = 0
 233              	.LVL13:
 234 0000 08B5     		push	{r3, lr}
 235              		.cfi_def_cfa_offset 8
 236              		.cfi_offset 3, -8
 237              		.cfi_offset 14, -4
 238              		.loc 1 634 0
 239 0002 0378     		ldrb	r3, [r0]	@ zero_extendqisi2
 240 0004 022B     		cmp	r3, #2
 241 0006 00D0     		beq	.L21
 242              	.LVL14:
 243              	.L16:
 244 0008 08BD     		pop	{r3, pc}
 245              	.LVL15:
 246              	.L21:
 247              		.loc 1 664 0
 248 000a 0849     		ldr	r1, .L22
 249              		.loc 1 635 0
 250 000c C368     		ldr	r3, [r0, #12]
 251 000e 0022     		movs	r2, #0
 252              		.loc 1 664 0
 253 0010 8842     		cmp	r0, r1
 254              		.loc 1 635 0
 255 0012 1A60     		str	r2, [r3]
 256              		.loc 1 636 0
 257 0014 DA60     		str	r2, [r3, #12]
 258              		.loc 1 637 0
 259 0016 1A61     		str	r2, [r3, #16]
 260              		.loc 1 664 0
 261 0018 F6D1     		bne	.L16
 262              		.loc 1 665 0
 263 001a 3220     		movs	r0, #50
 264              	.LVL16:
 265 001c FFF7FEFF 		bl	nvicDisableVector
 266              	.LVL17:
 267              		.loc 1 666 0
 268 0020 034A     		ldr	r2, .L22+4
 269 0022 136C     		ldr	r3, [r2, #64]
 270 0024 23F00803 		bic	r3, r3, #8
 271 0028 1364     		str	r3, [r2, #64]
 272 002a EDE7     		b	.L16
 273              	.L23:
 274              		.align	2
 275              	.L22:
 276 002c 00000000 		.word	.LANCHOR0
 277 0030 00380240 		.word	1073887232
 278              		.cfi_endproc
 279              	.LFE122:
 280              		.size	gpt_lld_stop, .-gpt_lld_stop
 281              		.section	.text.gpt_lld_start_timer,"ax",%progbits
 282              		.align	2
 283              		.p2align 4,,15
 284              		.global	gpt_lld_start_timer
 285              		.thumb
ARM GAS  C:\Users\ADMINI~1\AppData\Local\Temp\ccPm6M0L.s 			page 6


 286              		.thumb_func
 287              		.type	gpt_lld_start_timer, %function
 288              	gpt_lld_start_timer:
 289              	.LFB123:
 290              		.loc 1 722 0
 291              		.cfi_startproc
 292              		@ args = 0, pretend = 0, frame = 0
 293              		@ frame_needed = 0, uses_anonymous_args = 0
 294              		@ link register save eliminated.
 295              	.LVL18:
 296              		.loc 1 724 0
 297 0000 C368     		ldr	r3, [r0, #12]
 298              		.loc 1 726 0
 299 0002 0022     		movs	r2, #0
 300              		.loc 1 724 0
 301 0004 0139     		subs	r1, r1, #1
 302              	.LVL19:
 303              		.loc 1 725 0
 304 0006 0120     		movs	r0, #1
 305              	.LVL20:
 306              		.loc 1 724 0
 307 0008 D962     		str	r1, [r3, #44]
 308              		.loc 1 725 0
 309 000a 5861     		str	r0, [r3, #20]
 310              		.loc 1 726 0
 311 000c 5A62     		str	r2, [r3, #36]
 312              		.loc 1 731 0
 313 000e 1A61     		str	r2, [r3, #16]
 314              		.loc 1 732 0
 315 0010 DA68     		ldr	r2, [r3, #12]
 316              		.loc 1 733 0
 317 0012 0521     		movs	r1, #5
 318              	.LVL21:
 319              		.loc 1 732 0
 320 0014 0243     		orrs	r2, r2, r0
 321 0016 DA60     		str	r2, [r3, #12]
 322              		.loc 1 733 0
 323 0018 1960     		str	r1, [r3]
 324 001a 7047     		bx	lr
 325              		.cfi_endproc
 326              	.LFE123:
 327              		.size	gpt_lld_start_timer, .-gpt_lld_start_timer
 328              		.section	.text.gpt_lld_stop_timer,"ax",%progbits
 329              		.align	2
 330              		.p2align 4,,15
 331              		.global	gpt_lld_stop_timer
 332              		.thumb
 333              		.thumb_func
 334              		.type	gpt_lld_stop_timer, %function
 335              	gpt_lld_stop_timer:
 336              	.LFB124:
 337              		.loc 1 743 0
 338              		.cfi_startproc
 339              		@ args = 0, pretend = 0, frame = 0
 340              		@ frame_needed = 0, uses_anonymous_args = 0
 341              		@ link register save eliminated.
 342              	.LVL22:
ARM GAS  C:\Users\ADMINI~1\AppData\Local\Temp\ccPm6M0L.s 			page 7


 343              		.loc 1 745 0
 344 0000 C368     		ldr	r3, [r0, #12]
 345 0002 0022     		movs	r2, #0
 346 0004 1A60     		str	r2, [r3]
 347              		.loc 1 746 0
 348 0006 1A61     		str	r2, [r3, #16]
 349              		.loc 1 749 0
 350 0008 DA68     		ldr	r2, [r3, #12]
 351 000a 22F0FF02 		bic	r2, r2, #255
 352 000e DA60     		str	r2, [r3, #12]
 353 0010 7047     		bx	lr
 354              		.cfi_endproc
 355              	.LFE124:
 356              		.size	gpt_lld_stop_timer, .-gpt_lld_stop_timer
 357 0012 00BF     		.section	.text.gpt_lld_polled_delay,"ax",%progbits
 358              		.align	2
 359              		.p2align 4,,15
 360              		.global	gpt_lld_polled_delay
 361              		.thumb
 362              		.thumb_func
 363              		.type	gpt_lld_polled_delay, %function
 364              	gpt_lld_polled_delay:
 365              	.LFB125:
 366              		.loc 1 763 0
 367              		.cfi_startproc
 368              		@ args = 0, pretend = 0, frame = 0
 369              		@ frame_needed = 0, uses_anonymous_args = 0
 370              		@ link register save eliminated.
 371              	.LVL23:
 372              		.loc 1 765 0
 373 0000 C268     		ldr	r2, [r0, #12]
 374              		.loc 1 763 0
 375 0002 10B4     		push	{r4}
 376              		.cfi_def_cfa_offset 4
 377              		.cfi_offset 4, -4
 378              		.loc 1 765 0
 379 0004 0139     		subs	r1, r1, #1
 380              	.LVL24:
 381              		.loc 1 766 0
 382 0006 0124     		movs	r4, #1
 383              		.loc 1 767 0
 384 0008 0020     		movs	r0, #0
 385              	.LVL25:
 386              		.loc 1 768 0
 387 000a 0D23     		movs	r3, #13
 388              		.loc 1 765 0
 389 000c D162     		str	r1, [r2, #44]
 390              		.loc 1 766 0
 391 000e 5461     		str	r4, [r2, #20]
 392              		.loc 1 767 0
 393 0010 1061     		str	r0, [r2, #16]
 394              		.loc 1 768 0
 395 0012 1360     		str	r3, [r2]
 396              	.L27:
 397              		.loc 1 769 0 discriminator 1
 398 0014 1369     		ldr	r3, [r2, #16]
 399 0016 DB07     		lsls	r3, r3, #31
ARM GAS  C:\Users\ADMINI~1\AppData\Local\Temp\ccPm6M0L.s 			page 8


 400 0018 FCD5     		bpl	.L27
 401              		.loc 1 771 0
 402 001a 5DF8044B 		ldr	r4, [sp], #4
 403              		.cfi_restore 4
 404              		.cfi_def_cfa_offset 0
 405 001e 7047     		bx	lr
 406              		.cfi_endproc
 407              	.LFE125:
 408              		.size	gpt_lld_polled_delay, .-gpt_lld_polled_delay
 409              		.global	GPTD5
 410              		.section	.bss.GPTD5,"aw",%nobits
 411              		.align	2
 412              		.set	.LANCHOR0,. + 0
 413              		.type	GPTD5, %object
 414              		.size	GPTD5, 16
 415              	GPTD5:
 416 0000 00000000 		.space	16
 416      00000000 
 416      00000000 
 416      00000000 
 417              		.text
 418              	.Letext0:
 419              		.file 2 "c:\\program files\\gnu tools arm embedded\\4.9 2015q2\\arm-none-eabi\\include\\machine\\_
 420              		.file 3 "c:\\program files\\gnu tools arm embedded\\4.9 2015q2\\arm-none-eabi\\include\\sys\\_stdi
 421              		.file 4 "ChibiOS_2.6.6/os/hal/platforms/STM32F4xx/stm32f4xx.h"
 422              		.file 5 "ChibiOS_2.6.6/os/hal/include/gpt.h"
 423              		.file 6 "ChibiOS_2.6.6/os/hal/platforms/STM32/TIMv1/gpt_lld.h"
 424              		.file 7 "ChibiOS_2.6.6/os/hal/platforms/STM32/TIMv1/stm32_tim.h"
 425              		.file 8 "ChibiOS_2.6.6/os/ports/common/ARMCMx/CMSIS/include/core_cm4.h"
 426              		.file 9 "ChibiOS_2.6.6/os/ports/common/ARMCMx/nvic.h"
 427              		.file 10 "ChibiOS_2.6.6/os/ports/GCC/ARMCMx/chcore_v7m.h"