ARM GAS  C:\Users\jsyoon\AppData\Local\Temp\ccjVVFvA.s 			page 1


   1              		.syntax unified
   2              		.cpu cortex-m4
   3              		.eabi_attribute 27, 3
   4              		.eabi_attribute 28, 1
   5              		.fpu fpv4-sp-d16
   6              		.eabi_attribute 20, 1
   7              		.eabi_attribute 21, 1
   8              		.eabi_attribute 23, 3
   9              		.eabi_attribute 24, 1
  10              		.eabi_attribute 25, 1
  11              		.eabi_attribute 26, 1
  12              		.eabi_attribute 30, 2
  13              		.eabi_attribute 34, 1
  14              		.eabi_attribute 18, 4
  15              		.thumb
  16              		.file	"hal.c"
  17              		.text
  18              	.Ltext0:
  19              		.cfi_sections	.debug_frame
  20              		.section	.text.halInit,"ax",%progbits
  21              		.align	2
  22              		.p2align 4,,15
  23              		.global	halInit
  24              		.thumb
  25              		.thumb_func
  26              		.type	halInit, %function
  27              	halInit:
  28              	.LFB118:
  29              		.file 1 "ChibiOS_2.6.6/os/hal/src/hal.c"
  30              		.loc 1 68 0
  31              		.cfi_startproc
  32              		@ args = 0, pretend = 0, frame = 0
  33              		@ frame_needed = 0, uses_anonymous_args = 0
  34 0000 08B5     		push	{r3, lr}
  35              		.cfi_def_cfa_offset 8
  36              		.cfi_offset 3, -8
  37              		.cfi_offset 14, -4
  38              		.loc 1 70 0
  39 0002 FFF7FEFF 		bl	hal_lld_init
  40              	.LVL0:
  41              		.loc 1 76 0
  42 0006 0948     		ldr	r0, .L2
  43 0008 FFF7FEFF 		bl	_pal_lld_init
  44              	.LVL1:
  45              		.loc 1 82 0
  46 000c FFF7FEFF 		bl	canInit
  47              	.LVL2:
  48              		.loc 1 91 0
  49 0010 FFF7FEFF 		bl	i2cInit
  50              	.LVL3:
  51              		.loc 1 94 0
  52 0014 FFF7FEFF 		bl	icuInit
  53              	.LVL4:
  54              		.loc 1 112 0
  55 0018 FFF7FEFF 		bl	uartInit
  56              	.LVL5:
  57              		.loc 1 115 0
ARM GAS  C:\Users\jsyoon\AppData\Local\Temp\ccjVVFvA.s 			page 2


  58 001c FFF7FEFF 		bl	usbInit
  59              	.LVL6:
  60              		.loc 1 121 0
  61 0020 FFF7FEFF 		bl	sduInit
  62              	.LVL7:
  63              		.loc 1 128 0
  64 0024 BDE80840 		pop	{r3, lr}
  65              		.loc 1 127 0
  66 0028 FFF7FEBF 		b	boardInit
  67              	.LVL8:
  68              	.L3:
  69              		.align	2
  70              	.L2:
  71 002c 00000000 		.word	pal_default_config
  72              		.cfi_endproc
  73              	.LFE118:
  74              		.size	halInit, .-halInit
  75              		.section	.text.halIsCounterWithin,"ax",%progbits
  76              		.align	2
  77              		.p2align 4,,15
  78              		.global	halIsCounterWithin
  79              		.thumb
  80              		.thumb_func
  81              		.type	halIsCounterWithin, %function
  82              	halIsCounterWithin:
  83              	.LFB119:
  84              		.loc 1 174 0
  85              		.cfi_startproc
  86              		@ args = 0, pretend = 0, frame = 0
  87              		@ frame_needed = 0, uses_anonymous_args = 0
  88              		@ link register save eliminated.
  89              	.LVL9:
  90              		.loc 1 175 0
  91 0000 084B     		ldr	r3, .L13
  92              		.loc 1 177 0
  93 0002 8142     		cmp	r1, r0
  94              		.loc 1 175 0
  95 0004 5B68     		ldr	r3, [r3, #4]
  96              	.LVL10:
  97              		.loc 1 177 0
  98 0006 06D9     		bls	.L5
  99              		.loc 1 177 0 is_stmt 0 discriminator 1
 100 0008 8342     		cmp	r3, r0
 101 000a 08D3     		bcc	.L9
 102              	.L11:
 103 000c 8B42     		cmp	r3, r1
 104 000e 2CBF     		ite	cs
 105 0010 0020     		movcs	r0, #0
 106              	.LVL11:
 107 0012 0120     		movcc	r0, #1
 108 0014 7047     		bx	lr
 109              	.LVL12:
 110              	.L5:
 111              		.loc 1 178 0 is_stmt 1
 112 0016 8342     		cmp	r3, r0
 113 0018 F8D3     		bcc	.L11
 114 001a 0120     		movs	r0, #1
ARM GAS  C:\Users\jsyoon\AppData\Local\Temp\ccjVVFvA.s 			page 3


 115              	.LVL13:
 116              		.loc 1 179 0
 117 001c 7047     		bx	lr
 118              	.LVL14:
 119              	.L9:
 120 001e 0020     		movs	r0, #0
 121              	.LVL15:
 122 0020 7047     		bx	lr
 123              	.L14:
 124 0022 00BF     		.align	2
 125              	.L13:
 126 0024 001000E0 		.word	-536866816
 127              		.cfi_endproc
 128              	.LFE119:
 129              		.size	halIsCounterWithin, .-halIsCounterWithin
 130 0028 AFF30080 		.section	.text.halPolledDelay,"ax",%progbits
 130      AFF30080 
 131              		.align	2
 132              		.p2align 4,,15
 133              		.global	halPolledDelay
 134              		.thumb
 135              		.thumb_func
 136              		.type	halPolledDelay, %function
 137              	halPolledDelay:
 138              	.LFB120:
 139              		.loc 1 193 0
 140              		.cfi_startproc
 141              		@ args = 0, pretend = 0, frame = 0
 142              		@ frame_needed = 0, uses_anonymous_args = 0
 143              		@ link register save eliminated.
 144              	.LVL16:
 145              		.loc 1 194 0
 146 0000 0C49     		ldr	r1, .L26
 147 0002 4A68     		ldr	r2, [r1, #4]
 148              	.LVL17:
 149              		.loc 1 195 0
 150 0004 1044     		add	r0, r0, r2
 151              	.LVL18:
 152              	.L21:
 153              	.LBB4:
 154              	.LBB5:
 155              		.loc 1 177 0 discriminator 1
 156 0006 8242     		cmp	r2, r0
 157              		.loc 1 175 0 discriminator 1
 158 0008 4B68     		ldr	r3, [r1, #4]
 159              	.LVL19:
 160              		.loc 1 177 0 discriminator 1
 161 000a 0CD2     		bcs	.L16
 162              		.loc 1 177 0 is_stmt 0
 163 000c 9A42     		cmp	r2, r3
 164 000e 03D9     		bls	.L24
 165 0010 0023     		movs	r3, #0
 166              	.LVL20:
 167              	.LBE5:
 168              	.LBE4:
 169              		.loc 1 196 0 is_stmt 1
 170 0012 002B     		cmp	r3, #0
ARM GAS  C:\Users\jsyoon\AppData\Local\Temp\ccjVVFvA.s 			page 4


 171 0014 F7D1     		bne	.L21
 172              	.L25:
 173              		.loc 1 198 0
 174 0016 7047     		bx	lr
 175              	.LVL21:
 176              	.L24:
 177 0018 9842     		cmp	r0, r3
 178 001a 94BF     		ite	ls
 179 001c 0023     		movls	r3, #0
 180              	.LVL22:
 181 001e 0123     		movhi	r3, #1
 182              		.loc 1 196 0
 183 0020 002B     		cmp	r3, #0
 184 0022 F0D1     		bne	.L21
 185 0024 F7E7     		b	.L25
 186              	.LVL23:
 187              	.L16:
 188              	.LBB7:
 189              	.LBB6:
 190              		.loc 1 178 0
 191 0026 9A42     		cmp	r2, r3
 192 0028 F6D8     		bhi	.L24
 193 002a 0123     		movs	r3, #1
 194              	.LVL24:
 195              	.LBE6:
 196              	.LBE7:
 197              		.loc 1 196 0
 198 002c 002B     		cmp	r3, #0
 199 002e EAD1     		bne	.L21
 200 0030 F1E7     		b	.L25
 201              	.L27:
 202 0032 00BF     		.align	2
 203              	.L26:
 204 0034 001000E0 		.word	-536866816
 205              		.cfi_endproc
 206              	.LFE120:
 207              		.size	halPolledDelay, .-halPolledDelay
 208 0038 AFF30080 		.text
 208      AFF30080 
 209              	.Letext0:
 210              		.file 2 "c:\\crosstools\\gcc-arm-embedded\\4.8_2014q2\\arm-none-eabi\\include\\machine\\_default_t
 211              		.file 3 "c:\\crosstools\\gcc-arm-embedded\\4.8_2014q2\\arm-none-eabi\\include\\stdint.h"
 212              		.file 4 "ChibiOS_2.6.6/os/ports/GCC/ARMCMx/chtypes.h"
 213              		.file 5 "ChibiOS_2.6.6/os/ports/common/ARMCMx/nvic.h"
 214              		.file 6 "ChibiOS_2.6.6/os/hal/platforms/STM32F4xx/hal_lld.h"
 215              		.file 7 "ChibiOS_2.6.6/os/hal/platforms/STM32/GPIOv2/pal_lld.h"
 216              		.file 8 "ChibiOS_2.6.6/os/ports/common/ARMCMx/CMSIS/include/core_cm4.h"
 217              		.file 9 "ChibiOS_2.6.6/os/hal/include/can.h"
 218              		.file 10 "ChibiOS_2.6.6/os/hal/include/i2c.h"
 219              		.file 11 "ChibiOS_2.6.6/os/hal/include/icu.h"
 220              		.file 12 "ChibiOS_2.6.6/os/hal/include/uart.h"
 221              		.file 13 "ChibiOS_2.6.6/os/hal/include/usb.h"
 222              		.file 14 "ChibiOS_2.6.6/os/hal/include/serial_usb.h"
 223              		.file 15 "ChibiOS_2.6.6/boards/ST_STM32F4_DISCOVERY/board.h"