ARM GAS  C:\Users\jsyoon\AppData\Local\Temp\ccxBLd8o.s 			page 1


   1              		.syntax unified
   2              		.cpu cortex-m4
   3              		.eabi_attribute 27, 3
   4              		.eabi_attribute 28, 1
   5              		.fpu fpv4-sp-d16
   6              		.eabi_attribute 20, 1
   7              		.eabi_attribute 21, 1
   8              		.eabi_attribute 23, 3
   9              		.eabi_attribute 24, 1
  10              		.eabi_attribute 25, 1
  11              		.eabi_attribute 26, 1
  12              		.eabi_attribute 30, 2
  13              		.eabi_attribute 34, 1
  14              		.eabi_attribute 18, 4
  15              		.thumb
  16              		.file	"hw_45.c"
  17              		.text
  18              	.Ltext0:
  19              		.cfi_sections	.debug_frame
  20              		.section	.text.hw_init_gpio,"ax",%progbits
  21              		.align	2
  22              		.p2align 4,,15
  23              		.global	hw_init_gpio
  24              		.thumb
  25              		.thumb_func
  26              		.type	hw_init_gpio, %function
  27              	hw_init_gpio:
  28              	.LFB118:
  29              		.file 1 "hwconf/hw_45.c"
  30              		.loc 1 49 0
  31              		.cfi_startproc
  32              		@ args = 0, pretend = 0, frame = 0
  33              		@ frame_needed = 0, uses_anonymous_args = 0
  34              		.loc 1 51 0
  35 0000 0120     		movs	r0, #1
  36              		.loc 1 49 0
  37 0002 F8B5     		push	{r3, r4, r5, r6, r7, lr}
  38              		.cfi_def_cfa_offset 24
  39              		.cfi_offset 3, -24
  40              		.cfi_offset 4, -20
  41              		.cfi_offset 5, -16
  42              		.cfi_offset 6, -12
  43              		.cfi_offset 7, -8
  44              		.cfi_offset 14, -4
  45              		.loc 1 51 0
  46 0004 0146     		mov	r1, r0
  47              		.loc 1 56 0
  48 0006 534D     		ldr	r5, .L2
  49              		.loc 1 57 0
  50 0008 534C     		ldr	r4, .L2+4
  51              		.loc 1 65 0
  52 000a 544E     		ldr	r6, .L2+8
  53              		.loc 1 51 0
  54 000c FFF7FEFF 		bl	RCC_AHB1PeriphClockCmd
  55              	.LVL0:
  56              		.loc 1 52 0
  57 0010 0220     		movs	r0, #2
ARM GAS  C:\Users\jsyoon\AppData\Local\Temp\ccxBLd8o.s 			page 2


  58 0012 0121     		movs	r1, #1
  59 0014 FFF7FEFF 		bl	RCC_AHB1PeriphClockCmd
  60              	.LVL1:
  61              		.loc 1 53 0
  62 0018 0420     		movs	r0, #4
  63 001a 0121     		movs	r1, #1
  64 001c FFF7FEFF 		bl	RCC_AHB1PeriphClockCmd
  65              	.LVL2:
  66              		.loc 1 56 0
  67 0020 2846     		mov	r0, r5
  68 0022 1021     		movs	r1, #16
  69 0024 1922     		movs	r2, #25
  70 0026 FFF7FEFF 		bl	_pal_lld_setgroupmode
  71              	.LVL3:
  72              		.loc 1 57 0
  73 002a 2046     		mov	r0, r4
  74 002c 8021     		movs	r1, #128
  75 002e 1922     		movs	r2, #25
  76 0030 FFF7FEFF 		bl	_pal_lld_setgroupmode
  77              	.LVL4:
  78              		.loc 1 61 0
  79 0034 4FF48061 		mov	r1, #1024
  80              		.loc 1 62 0
  81 0038 0F46     		mov	r7, r1
  82              		.loc 1 61 0
  83 003a 2846     		mov	r0, r5
  84 003c 1922     		movs	r2, #25
  85 003e FFF7FEFF 		bl	_pal_lld_setgroupmode
  86              	.LVL5:
  87              		.loc 1 65 0
  88 0042 3046     		mov	r0, r6
  89              		.loc 1 62 0
  90 0044 6F83     		strh	r7, [r5, #26]	@ movhi
  91              		.loc 1 65 0
  92 0046 4FF48051 		mov	r1, #4096
  93 004a 1922     		movs	r2, #25
  94 004c FFF7FEFF 		bl	_pal_lld_setgroupmode
  95              	.LVL6:
  96              		.loc 1 68 0
  97 0050 2046     		mov	r0, r4
  98 0052 4FF48071 		mov	r1, #256
  99 0056 9A22     		movs	r2, #154
 100 0058 FFF7FEFF 		bl	_pal_lld_setgroupmode
 101              	.LVL7:
 102              		.loc 1 69 0
 103 005c 2046     		mov	r0, r4
 104 005e 4FF40071 		mov	r1, #512
 105 0062 9A22     		movs	r2, #154
 106 0064 FFF7FEFF 		bl	_pal_lld_setgroupmode
 107              	.LVL8:
 108              		.loc 1 70 0
 109 0068 2046     		mov	r0, r4
 110 006a 3946     		mov	r1, r7
 111 006c 9A22     		movs	r2, #154
 112 006e FFF7FEFF 		bl	_pal_lld_setgroupmode
 113              	.LVL9:
 114              		.loc 1 72 0
ARM GAS  C:\Users\jsyoon\AppData\Local\Temp\ccxBLd8o.s 			page 3


 115 0072 3046     		mov	r0, r6
 116 0074 4FF40051 		mov	r1, #8192
 117 0078 9A22     		movs	r2, #154
 118 007a FFF7FEFF 		bl	_pal_lld_setgroupmode
 119              	.LVL10:
 120              		.loc 1 73 0
 121 007e 3046     		mov	r0, r6
 122 0080 4FF48041 		mov	r1, #16384
 123 0084 9A22     		movs	r2, #154
 124 0086 FFF7FEFF 		bl	_pal_lld_setgroupmode
 125              	.LVL11:
 126              		.loc 1 74 0
 127 008a 3046     		mov	r0, r6
 128 008c 4FF40041 		mov	r1, #32768
 129 0090 9A22     		movs	r2, #154
 130 0092 FFF7FEFF 		bl	_pal_lld_setgroupmode
 131              	.LVL12:
 132              		.loc 1 77 0
 133 0096 3046     		mov	r0, r6
 134 0098 4021     		movs	r1, #64
 135 009a 2022     		movs	r2, #32
 136 009c FFF7FEFF 		bl	_pal_lld_setgroupmode
 137              	.LVL13:
 138              		.loc 1 78 0
 139 00a0 3046     		mov	r0, r6
 140 00a2 8021     		movs	r1, #128
 141 00a4 2022     		movs	r2, #32
 142 00a6 FFF7FEFF 		bl	_pal_lld_setgroupmode
 143              	.LVL14:
 144              		.loc 1 79 0
 145 00aa 2846     		mov	r0, r5
 146 00ac 4FF40061 		mov	r1, #2048
 147 00b0 2022     		movs	r2, #32
 148 00b2 FFF7FEFF 		bl	_pal_lld_setgroupmode
 149              	.LVL15:
 150              		.loc 1 82 0
 151 00b6 2846     		mov	r0, r5
 152 00b8 4FF48051 		mov	r1, #4096
 153 00bc 2022     		movs	r2, #32
 154 00be FFF7FEFF 		bl	_pal_lld_setgroupmode
 155              	.LVL16:
 156              		.loc 1 85 0
 157 00c2 2046     		mov	r0, r4
 158 00c4 0121     		movs	r1, #1
 159 00c6 0322     		movs	r2, #3
 160 00c8 FFF7FEFF 		bl	_pal_lld_setgroupmode
 161              	.LVL17:
 162              		.loc 1 86 0
 163 00cc 2046     		mov	r0, r4
 164 00ce 0221     		movs	r1, #2
 165 00d0 0322     		movs	r2, #3
 166 00d2 FFF7FEFF 		bl	_pal_lld_setgroupmode
 167              	.LVL18:
 168              		.loc 1 87 0
 169 00d6 2046     		mov	r0, r4
 170 00d8 0421     		movs	r1, #4
 171 00da 0322     		movs	r2, #3
ARM GAS  C:\Users\jsyoon\AppData\Local\Temp\ccxBLd8o.s 			page 4


 172 00dc FFF7FEFF 		bl	_pal_lld_setgroupmode
 173              	.LVL19:
 174              		.loc 1 88 0
 175 00e0 2046     		mov	r0, r4
 176 00e2 0821     		movs	r1, #8
 177 00e4 0322     		movs	r2, #3
 178 00e6 FFF7FEFF 		bl	_pal_lld_setgroupmode
 179              	.LVL20:
 180              		.loc 1 89 0
 181 00ea 2046     		mov	r0, r4
 182 00ec 1021     		movs	r1, #16
 183 00ee 0322     		movs	r2, #3
 184 00f0 FFF7FEFF 		bl	_pal_lld_setgroupmode
 185              	.LVL21:
 186              		.loc 1 90 0
 187 00f4 2046     		mov	r0, r4
 188 00f6 2021     		movs	r1, #32
 189 00f8 0322     		movs	r2, #3
 190 00fa FFF7FEFF 		bl	_pal_lld_setgroupmode
 191              	.LVL22:
 192              		.loc 1 91 0
 193 00fe 2046     		mov	r0, r4
 194 0100 4021     		movs	r1, #64
 195 0102 0322     		movs	r2, #3
 196 0104 FFF7FEFF 		bl	_pal_lld_setgroupmode
 197              	.LVL23:
 198              		.loc 1 93 0
 199 0108 3046     		mov	r0, r6
 200 010a 0121     		movs	r1, #1
 201 010c 0322     		movs	r2, #3
 202 010e FFF7FEFF 		bl	_pal_lld_setgroupmode
 203              	.LVL24:
 204              		.loc 1 94 0
 205 0112 3046     		mov	r0, r6
 206 0114 0221     		movs	r1, #2
 207 0116 0322     		movs	r2, #3
 208 0118 FFF7FEFF 		bl	_pal_lld_setgroupmode
 209              	.LVL25:
 210              		.loc 1 96 0
 211 011c 2846     		mov	r0, r5
 212 011e 0121     		movs	r1, #1
 213 0120 0322     		movs	r2, #3
 214 0122 FFF7FEFF 		bl	_pal_lld_setgroupmode
 215              	.LVL26:
 216              		.loc 1 97 0
 217 0126 2846     		mov	r0, r5
 218 0128 0221     		movs	r1, #2
 219 012a 0322     		movs	r2, #3
 220 012c FFF7FEFF 		bl	_pal_lld_setgroupmode
 221              	.LVL27:
 222              		.loc 1 98 0
 223 0130 2846     		mov	r0, r5
 224 0132 0421     		movs	r1, #4
 225 0134 0322     		movs	r2, #3
 226 0136 FFF7FEFF 		bl	_pal_lld_setgroupmode
 227              	.LVL28:
 228              		.loc 1 99 0
ARM GAS  C:\Users\jsyoon\AppData\Local\Temp\ccxBLd8o.s 			page 5


 229 013a 2846     		mov	r0, r5
 230 013c 0821     		movs	r1, #8
 231 013e 0322     		movs	r2, #3
 232 0140 FFF7FEFF 		bl	_pal_lld_setgroupmode
 233              	.LVL29:
 234              		.loc 1 100 0
 235 0144 2846     		mov	r0, r5
 236 0146 2021     		movs	r1, #32
 237 0148 0322     		movs	r2, #3
 238              		.loc 1 101 0
 239 014a BDE8F840 		pop	{r3, r4, r5, r6, r7, lr}
 240              		.loc 1 100 0
 241 014e FFF7FEBF 		b	_pal_lld_setgroupmode
 242              	.LVL30:
 243              	.L3:
 244 0152 00BF     		.align	2
 245              	.L2:
 246 0154 00080240 		.word	1073874944
 247 0158 00000240 		.word	1073872896
 248 015c 00040240 		.word	1073873920
 249              		.cfi_endproc
 250              	.LFE118:
 251              		.size	hw_init_gpio, .-hw_init_gpio
 252              		.section	.text.hw_setup_adc_channels,"ax",%progbits
 253              		.align	2
 254              		.p2align 4,,15
 255              		.global	hw_setup_adc_channels
 256              		.thumb
 257              		.thumb_func
 258              		.type	hw_setup_adc_channels, %function
 259              	hw_setup_adc_channels:
 260              	.LFB119:
 261              		.loc 1 103 0
 262              		.cfi_startproc
 263              		@ args = 0, pretend = 0, frame = 0
 264              		@ frame_needed = 0, uses_anonymous_args = 0
 265 0000 70B5     		push	{r4, r5, r6, lr}
 266              		.cfi_def_cfa_offset 16
 267              		.cfi_offset 4, -16
 268              		.cfi_offset 5, -12
 269              		.cfi_offset 6, -8
 270              		.cfi_offset 14, -4
 271              		.loc 1 105 0
 272 0002 314D     		ldr	r5, .L5
 273              		.loc 1 111 0
 274 0004 314C     		ldr	r4, .L5+4
 275              		.loc 1 117 0
 276 0006 324E     		ldr	r6, .L5+8
 277              		.loc 1 105 0
 278 0008 0122     		movs	r2, #1
 279              		.loc 1 103 0
 280 000a 82B0     		sub	sp, sp, #8
 281              		.cfi_def_cfa_offset 24
 282              		.loc 1 105 0
 283 000c 2846     		mov	r0, r5
 284 000e 1346     		mov	r3, r2
 285 0010 0021     		movs	r1, #0
ARM GAS  C:\Users\jsyoon\AppData\Local\Temp\ccxBLd8o.s 			page 6


 286 0012 FFF7FEFF 		bl	ADC_RegularChannelConfig
 287              	.LVL31:
 288              		.loc 1 106 0
 289 0016 2846     		mov	r0, r5
 290 0018 0521     		movs	r1, #5
 291 001a 0222     		movs	r2, #2
 292 001c 0123     		movs	r3, #1
 293 001e FFF7FEFF 		bl	ADC_RegularChannelConfig
 294              	.LVL32:
 295              		.loc 1 107 0
 296 0022 2846     		mov	r0, r5
 297 0024 0A21     		movs	r1, #10
 298 0026 0322     		movs	r2, #3
 299 0028 0123     		movs	r3, #1
 300 002a FFF7FEFF 		bl	ADC_RegularChannelConfig
 301              	.LVL33:
 302              		.loc 1 108 0
 303 002e 2846     		mov	r0, r5
 304 0030 0D21     		movs	r1, #13
 305 0032 0422     		movs	r2, #4
 306 0034 0123     		movs	r3, #1
 307 0036 FFF7FEFF 		bl	ADC_RegularChannelConfig
 308              	.LVL34:
 309              		.loc 1 111 0
 310 003a 0121     		movs	r1, #1
 311 003c 2046     		mov	r0, r4
 312 003e 0A46     		mov	r2, r1
 313 0040 0B46     		mov	r3, r1
 314 0042 FFF7FEFF 		bl	ADC_RegularChannelConfig
 315              	.LVL35:
 316              		.loc 1 112 0
 317 0046 2046     		mov	r0, r4
 318 0048 0621     		movs	r1, #6
 319 004a 0222     		movs	r2, #2
 320 004c 0123     		movs	r3, #1
 321 004e FFF7FEFF 		bl	ADC_RegularChannelConfig
 322              	.LVL36:
 323              		.loc 1 113 0
 324 0052 2046     		mov	r0, r4
 325 0054 0B21     		movs	r1, #11
 326 0056 0322     		movs	r2, #3
 327 0058 0123     		movs	r3, #1
 328 005a FFF7FEFF 		bl	ADC_RegularChannelConfig
 329              	.LVL37:
 330              		.loc 1 114 0
 331 005e 2046     		mov	r0, r4
 332 0060 0F21     		movs	r1, #15
 333 0062 0422     		movs	r2, #4
 334 0064 0123     		movs	r3, #1
 335 0066 FFF7FEFF 		bl	ADC_RegularChannelConfig
 336              	.LVL38:
 337              		.loc 1 117 0
 338 006a 0122     		movs	r2, #1
 339 006c 3046     		mov	r0, r6
 340 006e 1346     		mov	r3, r2
 341 0070 0221     		movs	r1, #2
 342 0072 FFF7FEFF 		bl	ADC_RegularChannelConfig
ARM GAS  C:\Users\jsyoon\AppData\Local\Temp\ccxBLd8o.s 			page 7


 343              	.LVL39:
 344              		.loc 1 118 0
 345 0076 3046     		mov	r0, r6
 346 0078 0321     		movs	r1, #3
 347 007a 0222     		movs	r2, #2
 348 007c 0123     		movs	r3, #1
 349 007e FFF7FEFF 		bl	ADC_RegularChannelConfig
 350              	.LVL40:
 351              		.loc 1 119 0
 352 0082 3046     		mov	r0, r6
 353 0084 0C21     		movs	r1, #12
 354 0086 0322     		movs	r2, #3
 355 0088 0123     		movs	r3, #1
 356 008a FFF7FEFF 		bl	ADC_RegularChannelConfig
 357              	.LVL41:
 358              		.loc 1 120 0
 359 008e 3046     		mov	r0, r6
 360 0090 0321     		movs	r1, #3
 361 0092 0422     		movs	r2, #4
 362 0094 0123     		movs	r3, #1
 363 0096 FFF7FEFF 		bl	ADC_RegularChannelConfig
 364              	.LVL42:
 365              		.loc 1 123 0
 366 009a 0122     		movs	r2, #1
 367 009c 2846     		mov	r0, r5
 368 009e 1346     		mov	r3, r2
 369 00a0 0621     		movs	r1, #6
 370 00a2 FFF7FEFF 		bl	ADC_InjectedChannelConfig
 371              	.LVL43:
 372              		.loc 1 124 0
 373 00a6 0122     		movs	r2, #1
 374 00a8 2046     		mov	r0, r4
 375 00aa 1346     		mov	r3, r2
 376 00ac 0521     		movs	r1, #5
 377 00ae FFF7FEFF 		bl	ADC_InjectedChannelConfig
 378              	.LVL44:
 379              		.loc 1 127 0
 380 00b2 0023     		movs	r3, #0
 381 00b4 0093     		str	r3, [sp]
 382 00b6 4FF4B361 		mov	r1, #1432
 383 00ba 064B     		ldr	r3, .L5+12
 384 00bc 0648     		ldr	r0, .L5+16
 385 00be 4022     		movs	r2, #64
 386 00c0 FFF7FEFF 		bl	chThdCreateStatic
 387              	.LVL45:
 388              		.loc 1 128 0
 389 00c4 02B0     		add	sp, sp, #8
 390              		@ sp needed
 391 00c6 70BD     		pop	{r4, r5, r6, pc}
 392              	.L6:
 393              		.align	2
 394              	.L5:
 395 00c8 00200140 		.word	1073815552
 396 00cc 00210140 		.word	1073815808
 397 00d0 00220140 		.word	1073816064
 398 00d4 00000000 		.word	temp_thread
 399 00d8 00000000 		.word	.LANCHOR0
ARM GAS  C:\Users\jsyoon\AppData\Local\Temp\ccxBLd8o.s 			page 8


 400              		.cfi_endproc
 401              	.LFE119:
 402              		.size	hw_setup_adc_channels, .-hw_setup_adc_channels
 403 00dc AFF30080 		.section	.text.hw_setup_servo_outputs,"ax",%progbits
 404              		.align	2
 405              		.p2align 4,,15
 406              		.global	hw_setup_servo_outputs
 407              		.thumb
 408              		.thumb_func
 409              		.type	hw_setup_servo_outputs, %function
 410              	hw_setup_servo_outputs:
 411              	.LFB120:
 412              		.loc 1 130 0
 413              		.cfi_startproc
 414              		@ args = 0, pretend = 0, frame = 0
 415              		@ frame_needed = 0, uses_anonymous_args = 0
 416 0000 38B5     		push	{r3, r4, r5, lr}
 417              		.cfi_def_cfa_offset 16
 418              		.cfi_offset 3, -16
 419              		.cfi_offset 4, -12
 420              		.cfi_offset 5, -8
 421              		.cfi_offset 14, -4
 422              		.loc 1 132 0
 423 0002 0220     		movs	r0, #2
 424 0004 0121     		movs	r1, #1
 425 0006 FFF7FEFF 		bl	RCC_AHB1PeriphClockCmd
 426              	.LVL46:
 427              		.loc 1 135 0
 428 000a 074B     		ldr	r3, .L8
 429 000c 0749     		ldr	r1, .L8+4
 430 000e 5960     		str	r1, [r3, #4]
 431              		.loc 1 137 0
 432 0010 0022     		movs	r2, #0
 433              		.loc 1 136 0
 434 0012 0525     		movs	r5, #5
 435              		.loc 1 138 0
 436 0014 8024     		movs	r4, #128
 437              		.loc 1 141 0
 438 0016 0420     		movs	r0, #4
 439              		.loc 1 136 0
 440 0018 9D60     		str	r5, [r3, #8]
 441              		.loc 1 137 0
 442 001a 9A70     		strb	r2, [r3, #2]
 443              		.loc 1 138 0
 444 001c 1C80     		strh	r4, [r3]	@ movhi
 445              		.loc 1 140 0
 446 001e 1961     		str	r1, [r3, #16]
 447              		.loc 1 141 0
 448 0020 5861     		str	r0, [r3, #20]
 449              		.loc 1 142 0
 450 0022 9A73     		strb	r2, [r3, #14]
 451              		.loc 1 143 0
 452 0024 9A81     		strh	r2, [r3, #12]	@ movhi
 453 0026 38BD     		pop	{r3, r4, r5, pc}
 454              	.L9:
 455              		.align	2
 456              	.L8:
ARM GAS  C:\Users\jsyoon\AppData\Local\Temp\ccxBLd8o.s 			page 9


 457 0028 00000000 		.word	servos
 458 002c 00040240 		.word	1073873920
 459              		.cfi_endproc
 460              	.LFE120:
 461              		.size	hw_setup_servo_outputs, .-hw_setup_servo_outputs
 462              		.section	.text.hw_start_i2c,"ax",%progbits
 463              		.align	2
 464              		.p2align 4,,15
 465              		.global	hw_start_i2c
 466              		.thumb
 467              		.thumb_func
 468              		.type	hw_start_i2c, %function
 469              	hw_start_i2c:
 470              	.LFB121:
 471              		.loc 1 146 0
 472              		.cfi_startproc
 473              		@ args = 0, pretend = 0, frame = 0
 474              		@ frame_needed = 0, uses_anonymous_args = 0
 475 0000 10B5     		push	{r4, lr}
 476              		.cfi_def_cfa_offset 8
 477              		.cfi_offset 4, -8
 478              		.cfi_offset 14, -4
 479              		.loc 1 149 0
 480 0002 0F4C     		ldr	r4, .L13
 481              		.loc 1 147 0
 482 0004 0F48     		ldr	r0, .L13+4
 483 0006 FFF7FEFF 		bl	i2cAcquireBus
 484              	.LVL47:
 485              		.loc 1 149 0
 486 000a 2378     		ldrb	r3, [r4]	@ zero_extendqisi2
 487 000c 9BB9     		cbnz	r3, .L11
 488              		.loc 1 150 0
 489 000e 0E48     		ldr	r0, .L13+8
 490 0010 4FF48061 		mov	r1, #1024
 491 0014 40F22E22 		movw	r2, #558
 492 0018 FFF7FEFF 		bl	_pal_lld_setgroupmode
 493              	.LVL48:
 494              		.loc 1 151 0
 495 001c 0A48     		ldr	r0, .L13+8
 496 001e 4FF40061 		mov	r1, #2048
 497 0022 40F22E22 		movw	r2, #558
 498 0026 FFF7FEFF 		bl	_pal_lld_setgroupmode
 499              	.LVL49:
 500              		.loc 1 153 0
 501 002a 0648     		ldr	r0, .L13+4
 502 002c 0749     		ldr	r1, .L13+12
 503 002e FFF7FEFF 		bl	i2cStart
 504              	.LVL50:
 505              		.loc 1 154 0
 506 0032 0123     		movs	r3, #1
 507 0034 2370     		strb	r3, [r4]
 508              	.L11:
 509              		.loc 1 157 0
 510 0036 0348     		ldr	r0, .L13+4
 511              		.loc 1 158 0
 512 0038 BDE81040 		pop	{r4, lr}
 513              		.loc 1 157 0
ARM GAS  C:\Users\jsyoon\AppData\Local\Temp\ccxBLd8o.s 			page 10


 514 003c FFF7FEBF 		b	i2cReleaseBus
 515              	.LVL51:
 516              	.L14:
 517              		.align	2
 518              	.L13:
 519 0040 00000000 		.word	.LANCHOR1
 520 0044 00000000 		.word	I2CD2
 521 0048 00040240 		.word	1073873920
 522 004c 00000000 		.word	.LANCHOR2
 523              		.cfi_endproc
 524              	.LFE121:
 525              		.size	hw_start_i2c, .-hw_start_i2c
 526              		.section	.text.hw_stop_i2c,"ax",%progbits
 527              		.align	2
 528              		.p2align 4,,15
 529              		.global	hw_stop_i2c
 530              		.thumb
 531              		.thumb_func
 532              		.type	hw_stop_i2c, %function
 533              	hw_stop_i2c:
 534              	.LFB122:
 535              		.loc 1 160 0
 536              		.cfi_startproc
 537              		@ args = 0, pretend = 0, frame = 0
 538              		@ frame_needed = 0, uses_anonymous_args = 0
 539 0000 10B5     		push	{r4, lr}
 540              		.cfi_def_cfa_offset 8
 541              		.cfi_offset 4, -8
 542              		.cfi_offset 14, -4
 543              		.loc 1 163 0
 544 0002 0E4C     		ldr	r4, .L20
 545              		.loc 1 161 0
 546 0004 0E48     		ldr	r0, .L20+4
 547 0006 FFF7FEFF 		bl	i2cAcquireBus
 548              	.LVL52:
 549              		.loc 1 163 0
 550 000a 2378     		ldrb	r3, [r4]	@ zero_extendqisi2
 551 000c 83B1     		cbz	r3, .L16
 552              		.loc 1 164 0
 553 000e 0D48     		ldr	r0, .L20+8
 554 0010 4FF48061 		mov	r1, #1024
 555 0014 0022     		movs	r2, #0
 556 0016 FFF7FEFF 		bl	_pal_lld_setgroupmode
 557              	.LVL53:
 558              		.loc 1 165 0
 559 001a 0A48     		ldr	r0, .L20+8
 560 001c 4FF40061 		mov	r1, #2048
 561 0020 0022     		movs	r2, #0
 562 0022 FFF7FEFF 		bl	_pal_lld_setgroupmode
 563              	.LVL54:
 564              		.loc 1 167 0
 565 0026 0648     		ldr	r0, .L20+4
 566 0028 FFF7FEFF 		bl	i2cStop
 567              	.LVL55:
 568              		.loc 1 168 0
 569 002c 0023     		movs	r3, #0
 570 002e 2370     		strb	r3, [r4]
ARM GAS  C:\Users\jsyoon\AppData\Local\Temp\ccxBLd8o.s 			page 11


 571              	.L16:
 572              		.loc 1 172 0
 573 0030 0348     		ldr	r0, .L20+4
 574              		.loc 1 173 0
 575 0032 BDE81040 		pop	{r4, lr}
 576              		.loc 1 172 0
 577 0036 FFF7FEBF 		b	i2cReleaseBus
 578              	.LVL56:
 579              	.L21:
 580 003a 00BF     		.align	2
 581              	.L20:
 582 003c 00000000 		.word	.LANCHOR1
 583 0040 00000000 		.word	I2CD2
 584 0044 00040240 		.word	1073873920
 585              		.cfi_endproc
 586              	.LFE122:
 587              		.size	hw_stop_i2c, .-hw_stop_i2c
 588 0048 AFF30080 		.section	.text.hw_try_restore_i2c,"ax",%progbits
 588      AFF30080 
 589              		.align	2
 590              		.p2align 4,,15
 591              		.global	hw_try_restore_i2c
 592              		.thumb
 593              		.thumb_func
 594              		.type	hw_try_restore_i2c, %function
 595              	hw_try_restore_i2c:
 596              	.LFB123:
 597              		.loc 1 178 0
 598              		.cfi_startproc
 599              		@ args = 0, pretend = 0, frame = 0
 600              		@ frame_needed = 0, uses_anonymous_args = 0
 601 0000 2DE9F843 		push	{r3, r4, r5, r6, r7, r8, r9, lr}
 602              		.cfi_def_cfa_offset 32
 603              		.cfi_offset 3, -32
 604              		.cfi_offset 4, -28
 605              		.cfi_offset 5, -24
 606              		.cfi_offset 6, -20
 607              		.cfi_offset 7, -16
 608              		.cfi_offset 8, -12
 609              		.cfi_offset 9, -8
 610              		.cfi_offset 14, -4
 611              		.loc 1 179 0
 612 0004 2B4B     		ldr	r3, .L27
 613 0006 1B78     		ldrb	r3, [r3]	@ zero_extendqisi2
 614 0008 0BB9     		cbnz	r3, .L26
 615 000a BDE8F883 		pop	{r3, r4, r5, r6, r7, r8, r9, pc}
 616              	.L26:
 617              		.loc 1 182 0
 618 000e 2A4D     		ldr	r5, .L27+4
 619              		.loc 1 180 0
 620 0010 2A48     		ldr	r0, .L27+8
 621 0012 FFF7FEFF 		bl	i2cAcquireBus
 622              	.LVL57:
 623              		.loc 1 182 0
 624 0016 2846     		mov	r0, r5
 625 0018 4FF48061 		mov	r1, #1024
 626 001c 2C22     		movs	r2, #44
ARM GAS  C:\Users\jsyoon\AppData\Local\Temp\ccxBLd8o.s 			page 12


 627 001e FFF7FEFF 		bl	_pal_lld_setgroupmode
 628              	.LVL58:
 629              		.loc 1 183 0
 630 0022 2846     		mov	r0, r5
 631 0024 4FF40061 		mov	r1, #2048
 632 0028 2C22     		movs	r2, #44
 633 002a FFF7FEFF 		bl	_pal_lld_setgroupmode
 634              	.LVL59:
 635              		.loc 1 185 0
 636 002e 4FF48068 		mov	r8, #1024
 637              		.loc 1 186 0
 638 0032 4FF40063 		mov	r3, #2048
 639              		.loc 1 185 0
 640 0036 A5F81880 		strh	r8, [r5, #24]	@ movhi
 641              		.loc 1 188 0
 642 003a 0120     		movs	r0, #1
 643              		.loc 1 186 0
 644 003c 2B83     		strh	r3, [r5, #24]	@ movhi
 645              		.loc 1 188 0
 646 003e FFF7FEFF 		bl	chThdSleep
 647              	.LVL60:
 648              	.LBB2:
 649              		.loc 1 191 0
 650 0042 C146     		mov	r9, r8	@ movhi
 651              	.LBE2:
 652              		.loc 1 188 0
 653 0044 1024     		movs	r4, #16
 654              	.LVL61:
 655              	.L25:
 656              	.LBB3:
 657              		.loc 1 192 0 discriminator 2
 658 0046 0120     		movs	r0, #1
 659              		.loc 1 191 0 discriminator 2
 660 0048 A5F81A90 		strh	r9, [r5, #26]	@ movhi
 661              		.loc 1 192 0 discriminator 2
 662 004c FFF7FEFF 		bl	chThdSleep
 663              	.LVL62:
 664              		.loc 1 193 0 discriminator 2
 665 0050 A5F81880 		strh	r8, [r5, #24]	@ movhi
 666              		.loc 1 194 0 discriminator 2
 667 0054 0120     		movs	r0, #1
 668 0056 FFF7FEFF 		bl	chThdSleep
 669              	.LVL63:
 670              		.loc 1 190 0 discriminator 2
 671 005a 013C     		subs	r4, r4, #1
 672              	.LVL64:
 673              		.loc 1 191 0 discriminator 2
 674 005c 164E     		ldr	r6, .L27+4
 675 005e 4FF48067 		mov	r7, #1024
 676              		.loc 1 190 0 discriminator 2
 677 0062 F0D1     		bne	.L25
 678              	.LBE3:
 679              		.loc 1 198 0
 680 0064 4FF40065 		mov	r5, #2048
 681 0068 7583     		strh	r5, [r6, #26]	@ movhi
 682              		.loc 1 199 0
 683 006a 0120     		movs	r0, #1
ARM GAS  C:\Users\jsyoon\AppData\Local\Temp\ccxBLd8o.s 			page 13


 684 006c FFF7FEFF 		bl	chThdSleep
 685              	.LVL65:
 686              		.loc 1 200 0
 687 0070 7783     		strh	r7, [r6, #26]	@ movhi
 688              		.loc 1 201 0
 689 0072 0120     		movs	r0, #1
 690 0074 FFF7FEFF 		bl	chThdSleep
 691              	.LVL66:
 692              		.loc 1 202 0
 693 0078 3783     		strh	r7, [r6, #24]	@ movhi
 694              		.loc 1 203 0
 695 007a 0120     		movs	r0, #1
 696 007c FFF7FEFF 		bl	chThdSleep
 697              	.LVL67:
 698              		.loc 1 209 0
 699 0080 0E4C     		ldr	r4, .L27+8
 700              	.LVL68:
 701              		.loc 1 204 0
 702 0082 3583     		strh	r5, [r6, #24]	@ movhi
 703              		.loc 1 206 0
 704 0084 3946     		mov	r1, r7
 705 0086 3046     		mov	r0, r6
 706 0088 40F22E22 		movw	r2, #558
 707 008c FFF7FEFF 		bl	_pal_lld_setgroupmode
 708              	.LVL69:
 709              		.loc 1 207 0
 710 0090 3046     		mov	r0, r6
 711 0092 2946     		mov	r1, r5
 712 0094 40F22E22 		movw	r2, #558
 713 0098 FFF7FEFF 		bl	_pal_lld_setgroupmode
 714              	.LVL70:
 715              		.loc 1 209 0
 716 009c 0123     		movs	r3, #1
 717              		.loc 1 210 0
 718 009e 2046     		mov	r0, r4
 719 00a0 0749     		ldr	r1, .L27+12
 720              		.loc 1 209 0
 721 00a2 2370     		strb	r3, [r4]
 722              		.loc 1 210 0
 723 00a4 FFF7FEFF 		bl	i2cStart
 724              	.LVL71:
 725              		.loc 1 212 0
 726 00a8 2046     		mov	r0, r4
 727              		.loc 1 214 0
 728 00aa BDE8F843 		pop	{r3, r4, r5, r6, r7, r8, r9, lr}
 729              		.loc 1 212 0
 730 00ae FFF7FEBF 		b	i2cReleaseBus
 731              	.LVL72:
 732              	.L28:
 733 00b2 00BF     		.align	2
 734              	.L27:
 735 00b4 00000000 		.word	.LANCHOR1
 736 00b8 00040240 		.word	1073873920
 737 00bc 00000000 		.word	I2CD2
 738 00c0 00000000 		.word	.LANCHOR2
 739              		.cfi_endproc
 740              	.LFE123:
ARM GAS  C:\Users\jsyoon\AppData\Local\Temp\ccxBLd8o.s 			page 14


 741              		.size	hw_try_restore_i2c, .-hw_try_restore_i2c
 742 00c4 AFF30080 		.section	.text.temp_thread,"ax",%progbits
 742      AFF30080 
 742      AFF30080 
 743              		.align	2
 744              		.p2align 4,,15
 745              		.thumb
 746              		.thumb_func
 747              		.type	temp_thread, %function
 748              	temp_thread:
 749              	.LFB124:
 750              		.loc 1 216 0
 751              		.cfi_startproc
 752              		@ args = 0, pretend = 0, frame = 24
 753              		@ frame_needed = 0, uses_anonymous_args = 0
 754              	.LVL73:
 755 0000 2DE9F041 		push	{r4, r5, r6, r7, r8, lr}
 756              		.cfi_def_cfa_offset 24
 757              		.cfi_offset 4, -24
 758              		.cfi_offset 5, -20
 759              		.cfi_offset 6, -16
 760              		.cfi_offset 7, -12
 761              		.cfi_offset 8, -8
 762              		.cfi_offset 14, -4
 763              		.loc 1 219 0
 764 0004 214B     		ldr	r3, .L36
 765 0006 224A     		ldr	r2, .L36+4
 766 0008 9B69     		ldr	r3, [r3, #24]
 767 000a 224C     		ldr	r4, .L36+8
 768 000c DFF89080 		ldr	r8, .L36+20
 769              		.loc 1 216 0
 770 0010 2DED028B 		fstmfdd	sp!, {d8}
 771              		.cfi_def_cfa_offset 32
 772              		.cfi_offset 80, -32
 773              		.loc 1 219 0
 774 0014 9A61     		str	r2, [r3, #24]
 775              	.LVL74:
 776              		.loc 1 216 0
 777 0016 8AB0     		sub	sp, sp, #40
 778              		.cfi_def_cfa_offset 72
 779              		.loc 1 227 0
 780 0018 FFF7FEFF 		bl	hw_start_i2c
 781              	.LVL75:
 782              		.loc 1 228 0
 783 001c 6420     		movs	r0, #100
 784 001e FFF7FEFF 		bl	chThdSleep
 785              	.LVL76:
 786              	.LBB4:
 787              		.loc 1 240 0
 788 0022 9FED1D8A 		flds	s16, .L36+12
 789 0026 04AF     		add	r7, sp, #16
 790              	.LBE4:
 791              		.loc 1 232 0
 792 0028 0026     		movs	r6, #0
 793 002a 03E0     		b	.L32
 794              	.LVL77:
 795              	.L30:
ARM GAS  C:\Users\jsyoon\AppData\Local\Temp\ccxBLd8o.s 			page 15


 796              		.loc 1 248 0
 797 002c 4FF47A70 		mov	r0, #1000
 798 0030 FFF7FEFF 		bl	chThdSleep
 799              	.LVL78:
 800              	.L32:
 801              		.loc 1 231 0
 802 0034 2378     		ldrb	r3, [r4]	@ zero_extendqisi2
 803 0036 002B     		cmp	r3, #0
 804 0038 F8D0     		beq	.L30
 805              		.loc 1 233 0
 806 003a 1848     		ldr	r0, .L36+16
 807              		.loc 1 232 0
 808 003c 8DF81C60 		strb	r6, [sp, #28]
 809              		.loc 1 233 0
 810 0040 FFF7FEFF 		bl	i2cAcquireBus
 811              	.LVL79:
 812              		.loc 1 234 0
 813 0044 0222     		movs	r2, #2
 814 0046 3223     		movs	r3, #50
 815 0048 0192     		str	r2, [sp, #4]
 816 004a 0293     		str	r3, [sp, #8]
 817 004c 0097     		str	r7, [sp]
 818 004e 1348     		ldr	r0, .L36+16
 819 0050 4821     		movs	r1, #72
 820 0052 07AA     		add	r2, sp, #28
 821 0054 0123     		movs	r3, #1
 822 0056 FFF7FEFF 		bl	i2cMasterTransmitTimeout
 823              	.LVL80:
 824 005a 0546     		mov	r5, r0
 825              	.LVL81:
 826              		.loc 1 235 0
 827 005c 0F48     		ldr	r0, .L36+16
 828              	.LVL82:
 829 005e FFF7FEFF 		bl	i2cReleaseBus
 830              	.LVL83:
 831              		.loc 1 237 0
 832 0062 7DB9     		cbnz	r5, .L31
 833              	.LBB5:
 834              		.loc 1 238 0
 835 0064 9DF81020 		ldrb	r2, [sp, #16]	@ zero_extendqisi2
 836 0068 9DF81130 		ldrb	r3, [sp, #17]	@ zero_extendqisi2
 837 006c 43EA0223 		orr	r3, r3, r2, lsl #8
 838              		.loc 1 239 0
 839 0070 1BB2     		sxth	r3, r3
 840 0072 07EE903A 		fmsr	s15, r3	@ int
 841 0076 F8EEE77A 		fsitos	s15, s15
 842              	.LVL84:
 843              		.loc 1 240 0
 844 007a 67EE887A 		fmuls	s15, s15, s16
 845              	.LVL85:
 846              		.loc 1 242 0
 847 007e C8ED007A 		fsts	s15, [r8]
 848              	.LBE5:
 849 0082 D3E7     		b	.L30
 850              	.LVL86:
 851              	.L31:
 852              		.loc 1 244 0
ARM GAS  C:\Users\jsyoon\AppData\Local\Temp\ccxBLd8o.s 			page 16


 853 0084 FFF7FEFF 		bl	hw_try_restore_i2c
 854              	.LVL87:
 855 0088 D0E7     		b	.L30
 856              	.L37:
 857 008a 00BF     		.align	2
 858              	.L36:
 859 008c 00000000 		.word	rlist
 860 0090 00000000 		.word	.LC0
 861 0094 00000000 		.word	.LANCHOR1
 862 0098 0000003C 		.word	1006632960
 863 009c 00000000 		.word	I2CD2
 864 00a0 00000000 		.word	.LANCHOR3
 865              		.cfi_endproc
 866              	.LFE124:
 867              		.size	temp_thread, .-temp_thread
 868 00a4 AFF30080 		.section	.text.hw45_get_temp,"ax",%progbits
 868      AFF30080 
 868      AFF30080 
 869              		.align	2
 870              		.p2align 4,,15
 871              		.global	hw45_get_temp
 872              		.thumb
 873              		.thumb_func
 874              		.type	hw45_get_temp, %function
 875              	hw45_get_temp:
 876              	.LFB125:
 877              		.loc 1 254 0
 878              		.cfi_startproc
 879              		@ args = 0, pretend = 0, frame = 0
 880              		@ frame_needed = 0, uses_anonymous_args = 0
 881              		@ link register save eliminated.
 882              		.loc 1 255 0
 883 0000 014B     		ldr	r3, .L39
 884 0002 93ED000A 		flds	s0, [r3]
 885              		.loc 1 256 0
 886 0006 7047     		bx	lr
 887              	.L40:
 888              		.align	2
 889              	.L39:
 890 0008 00000000 		.word	.LANCHOR3
 891              		.cfi_endproc
 892              	.LFE125:
 893              		.size	hw45_get_temp, .-hw45_get_temp
 894 000c AFF30080 		.section	.bss.temp_thread_wa,"aw",%nobits
 895              		.align	3
 896              		.set	.LANCHOR0,. + 0
 897              		.type	temp_thread_wa, %object
 898              		.size	temp_thread_wa, 1432
 899              	temp_thread_wa:
 900 0000 00000000 		.space	1432
 900      00000000 
 900      00000000 
 900      00000000 
 900      00000000 
 901              		.section	.bss.i2c_running,"aw",%nobits
 902              		.set	.LANCHOR1,. + 0
 903              		.type	i2c_running, %object
ARM GAS  C:\Users\jsyoon\AppData\Local\Temp\ccxBLd8o.s 			page 17


 904              		.size	i2c_running, 1
 905              	i2c_running:
 906 0000 00       		.space	1
 907              		.section	.rodata.str1.4,"aMS",%progbits,1
 908              		.align	2
 909              	.LC0:
 910 0000 49324320 		.ascii	"I2C Temp samp\000"
 910      54656D70 
 910      2073616D 
 910      7000
 911 000e 0000     		.section	.data.temp_now,"aw",%progbits
 912              		.align	2
 913              		.set	.LANCHOR3,. + 0
 914              		.type	temp_now, %object
 915              		.size	temp_now, 4
 916              	temp_now:
 917 0000 0000F041 		.word	1106247680
 918              		.section	.rodata.i2cfg,"a",%progbits
 919              		.align	2
 920              		.set	.LANCHOR2,. + 0
 921              		.type	i2cfg, %object
 922              		.size	i2cfg, 12
 923              	i2cfg:
 924 0000 01       		.byte	1
 925 0001 000000   		.space	3
 926 0004 A0860100 		.word	100000
 927 0008 01       		.byte	1
 928 0009 000000   		.space	3
 929              		.text
 930              	.Letext0:
 931              		.file 2 "c:\\crosstools\\gcc-arm-embedded\\4.8_2014q2\\arm-none-eabi\\include\\machine\\_default_t
 932              		.file 3 "c:\\crosstools\\gcc-arm-embedded\\4.8_2014q2\\arm-none-eabi\\include\\stdint.h"
 933              		.file 4 "c:\\crosstools\\gcc-arm-embedded\\4.8_2014q2\\lib\\gcc\\arm-none-eabi\\4.8.4\\include\\st
 934              		.file 5 "ChibiOS_2.6.6/os/ports/GCC/ARMCMx/chtypes.h"
 935              		.file 6 "ChibiOS_2.6.6/os/kernel/include/chlists.h"
 936              		.file 7 "ChibiOS_2.6.6/os/kernel/include/chthreads.h"
 937              		.file 8 "ChibiOS_2.6.6/os/ports/GCC/ARMCMx/chcore_v7m.h"
 938              		.file 9 "ChibiOS_2.6.6/os/kernel/include/chschd.h"
 939              		.file 10 "ChibiOS_2.6.6/os/kernel/include/chmtx.h"
 940              		.file 11 "ChibiOS_2.6.6/os/hal/platforms/STM32F4xx/stm32f4xx.h"
 941              		.file 12 "ChibiOS_2.6.6/os/hal/platforms/STM32F4xx/stm32_dma.h"
 942              		.file 13 "ChibiOS_2.6.6/os/hal/platforms/STM32/GPIOv2/pal_lld.h"
 943              		.file 14 "ChibiOS_2.6.6/os/hal/include/i2c.h"
 944              		.file 15 "ChibiOS_2.6.6/os/hal/platforms/STM32/I2Cv1/i2c_lld.h"
 945              		.file 16 "./servo.h"
 946              		.file 17 "ChibiOS_2.6.6/os/ports/common/ARMCMx/CMSIS/include/core_cm4.h"
 947              		.file 18 "ChibiOS_2.6.6/ext/stdperiph_stm32f4/inc/stm32f4xx_rcc.h"
 948              		.file 19 "ChibiOS_2.6.6/ext/stdperiph_stm32f4/inc/stm32f4xx_adc.h"