ARM GAS  C:\Users\ADMINI~1\AppData\Local\Temp\ccacRClR.s 			page 1


   1              		.syntax unified
   2              		.cpu cortex-m4
   3              		.eabi_attribute 27, 1
   4              		.eabi_attribute 28, 1
   5              		.fpu fpv4-sp-d16
   6              		.eabi_attribute 20, 1
   7              		.eabi_attribute 21, 1
   8              		.eabi_attribute 23, 3
   9              		.eabi_attribute 24, 1
  10              		.eabi_attribute 25, 1
  11              		.eabi_attribute 26, 1
  12              		.eabi_attribute 30, 2
  13              		.eabi_attribute 34, 1
  14              		.eabi_attribute 18, 4
  15              		.thumb
  16              		.file	"i2c.c"
  17              		.text
  18              	.Ltext0:
  19              		.cfi_sections	.debug_frame
  20              		.section	.text.i2cInit,"ax",%progbits
  21              		.align	2
  22              		.p2align 4,,15
  23              		.global	i2cInit
  24              		.thumb
  25              		.thumb_func
  26              		.type	i2cInit, %function
  27              	i2cInit:
  28              	.LFB118:
  29              		.file 1 "ChibiOS_2.6.6/os/hal/src/i2c.c"
  30              		.loc 1 71 0
  31              		.cfi_startproc
  32              		@ args = 0, pretend = 0, frame = 0
  33              		@ frame_needed = 0, uses_anonymous_args = 0
  34              		@ link register save eliminated.
  35              		.loc 1 72 0
  36 0000 FFF7FEBF 		b	i2c_lld_init
  37              	.LVL0:
  38              		.cfi_endproc
  39              	.LFE118:
  40              		.size	i2cInit, .-i2cInit
  41              		.section	.text.i2cObjectInit,"ax",%progbits
  42              		.align	2
  43              		.p2align 4,,15
  44              		.global	i2cObjectInit
  45              		.thumb
  46              		.thumb_func
  47              		.type	i2cObjectInit, %function
  48              	i2cObjectInit:
  49              	.LFB119:
  50              		.loc 1 82 0
  51              		.cfi_startproc
  52              		@ args = 0, pretend = 0, frame = 0
  53              		@ frame_needed = 0, uses_anonymous_args = 0
  54              		@ link register save eliminated.
  55              	.LVL1:
  56              		.loc 1 84 0
  57 0000 0122     		movs	r2, #1
ARM GAS  C:\Users\ADMINI~1\AppData\Local\Temp\ccacRClR.s 			page 2


  58              		.loc 1 85 0
  59 0002 0023     		movs	r3, #0
  60              		.loc 1 84 0
  61 0004 0270     		strb	r2, [r0]
  62              		.loc 1 85 0
  63 0006 4360     		str	r3, [r0, #4]
  64              		.loc 1 89 0
  65 0008 0C30     		adds	r0, r0, #12
  66              	.LVL2:
  67 000a FFF7FEBF 		b	chMtxInit
  68              	.LVL3:
  69              		.cfi_endproc
  70              	.LFE119:
  71              		.size	i2cObjectInit, .-i2cObjectInit
  72 000e 00BF     		.section	.text.i2cStart,"ax",%progbits
  73              		.align	2
  74              		.p2align 4,,15
  75              		.global	i2cStart
  76              		.thumb
  77              		.thumb_func
  78              		.type	i2cStart, %function
  79              	i2cStart:
  80              	.LFB120:
  81              		.loc 1 108 0
  82              		.cfi_startproc
  83              		@ args = 0, pretend = 0, frame = 0
  84              		@ frame_needed = 0, uses_anonymous_args = 0
  85              	.LVL4:
  86 0000 10B5     		push	{r4, lr}
  87              		.cfi_def_cfa_offset 8
  88              		.cfi_offset 4, -8
  89              		.cfi_offset 14, -4
  90              		.loc 1 108 0
  91 0002 0446     		mov	r4, r0
  92              		.loc 1 116 0
  93              	@ 116 "ChibiOS_2.6.6/os/hal/src/i2c.c" 1
  94 0004 72B6     		cpsid   i
  95              	@ 0 "" 2
  96              		.loc 1 117 0
  97              		.thumb
  98 0006 4160     		str	r1, [r0, #4]
  99              		.loc 1 118 0
 100 0008 FFF7FEFF 		bl	i2c_lld_start
 101              	.LVL5:
 102              		.loc 1 119 0
 103 000c 0223     		movs	r3, #2
 104 000e 2370     		strb	r3, [r4]
 105              		.loc 1 120 0
 106              	@ 120 "ChibiOS_2.6.6/os/hal/src/i2c.c" 1
 107 0010 62B6     		cpsie   i
 108              	@ 0 "" 2
 109              		.thumb
 110 0012 10BD     		pop	{r4, pc}
 111              		.cfi_endproc
 112              	.LFE120:
 113              		.size	i2cStart, .-i2cStart
 114              		.section	.text.i2cStop,"ax",%progbits
ARM GAS  C:\Users\ADMINI~1\AppData\Local\Temp\ccacRClR.s 			page 3


 115              		.align	2
 116              		.p2align 4,,15
 117              		.global	i2cStop
 118              		.thumb
 119              		.thumb_func
 120              		.type	i2cStop, %function
 121              	i2cStop:
 122              	.LFB121:
 123              		.loc 1 130 0
 124              		.cfi_startproc
 125              		@ args = 0, pretend = 0, frame = 0
 126              		@ frame_needed = 0, uses_anonymous_args = 0
 127              	.LVL6:
 128 0000 10B5     		push	{r4, lr}
 129              		.cfi_def_cfa_offset 8
 130              		.cfi_offset 4, -8
 131              		.cfi_offset 14, -4
 132              		.loc 1 130 0
 133 0002 0446     		mov	r4, r0
 134              		.loc 1 138 0
 135              	@ 138 "ChibiOS_2.6.6/os/hal/src/i2c.c" 1
 136 0004 72B6     		cpsid   i
 137              	@ 0 "" 2
 138              		.loc 1 139 0
 139              		.thumb
 140 0006 FFF7FEFF 		bl	i2c_lld_stop
 141              	.LVL7:
 142              		.loc 1 140 0
 143 000a 0123     		movs	r3, #1
 144 000c 2370     		strb	r3, [r4]
 145              		.loc 1 141 0
 146              	@ 141 "ChibiOS_2.6.6/os/hal/src/i2c.c" 1
 147 000e 62B6     		cpsie   i
 148              	@ 0 "" 2
 149              		.thumb
 150 0010 10BD     		pop	{r4, pc}
 151              		.cfi_endproc
 152              	.LFE121:
 153              		.size	i2cStop, .-i2cStop
 154 0012 00BF     		.section	.text.i2cGetErrors,"ax",%progbits
 155              		.align	2
 156              		.p2align 4,,15
 157              		.global	i2cGetErrors
 158              		.thumb
 159              		.thumb_func
 160              		.type	i2cGetErrors, %function
 161              	i2cGetErrors:
 162              	.LFB122:
 163              		.loc 1 152 0
 164              		.cfi_startproc
 165              		@ args = 0, pretend = 0, frame = 0
 166              		@ frame_needed = 0, uses_anonymous_args = 0
 167              		@ link register save eliminated.
 168              	.LVL8:
 169              		.loc 1 157 0
 170 0000 8068     		ldr	r0, [r0, #8]
 171              	.LVL9:
ARM GAS  C:\Users\ADMINI~1\AppData\Local\Temp\ccacRClR.s 			page 4


 172 0002 7047     		bx	lr
 173              		.cfi_endproc
 174              	.LFE122:
 175              		.size	i2cGetErrors, .-i2cGetErrors
 176              		.section	.text.i2cMasterTransmitTimeout,"ax",%progbits
 177              		.align	2
 178              		.p2align 4,,15
 179              		.global	i2cMasterTransmitTimeout
 180              		.thumb
 181              		.thumb_func
 182              		.type	i2cMasterTransmitTimeout, %function
 183              	i2cMasterTransmitTimeout:
 184              	.LFB123:
 185              		.loc 1 191 0
 186              		.cfi_startproc
 187              		@ args = 12, pretend = 0, frame = 0
 188              		@ frame_needed = 0, uses_anonymous_args = 0
 189              	.LVL10:
 190 0000 F0B5     		push	{r4, r5, r6, r7, lr}
 191              		.cfi_def_cfa_offset 20
 192              		.cfi_offset 4, -20
 193              		.cfi_offset 5, -16
 194              		.cfi_offset 6, -12
 195              		.cfi_offset 7, -8
 196              		.cfi_offset 14, -4
 197 0002 85B0     		sub	sp, sp, #20
 198              		.cfi_def_cfa_offset 40
 199              		.loc 1 191 0
 200 0004 0446     		mov	r4, r0
 201 0006 0A9F     		ldr	r7, [sp, #40]
 202 0008 0B9E     		ldr	r6, [sp, #44]
 203              		.loc 1 203 0
 204              	@ 203 "ChibiOS_2.6.6/os/hal/src/i2c.c" 1
 205 000a 72B6     		cpsid   i
 206              	@ 0 "" 2
 207              		.loc 1 205 0
 208              		.thumb
 209 000c 4FF0030E 		mov	lr, #3
 210              		.loc 1 206 0
 211 0010 0196     		str	r6, [sp, #4]
 212              		.loc 1 204 0
 213 0012 0025     		movs	r5, #0
 214              		.loc 1 206 0
 215 0014 0C9E     		ldr	r6, [sp, #48]
 216 0016 0097     		str	r7, [sp]
 217 0018 0296     		str	r6, [sp, #8]
 218              		.loc 1 204 0
 219 001a 8560     		str	r5, [r0, #8]
 220              		.loc 1 205 0
 221 001c 80F800E0 		strb	lr, [r0]
 222              		.loc 1 206 0
 223 0020 FFF7FEFF 		bl	i2c_lld_master_transmit_timeout
 224              	.LVL11:
 225              		.loc 1 208 0
 226 0024 431C     		adds	r3, r0, #1
 227              		.loc 1 209 0
 228 0026 0CBF     		ite	eq
ARM GAS  C:\Users\ADMINI~1\AppData\Local\Temp\ccacRClR.s 			page 5


 229 0028 0523     		moveq	r3, #5
 230              		.loc 1 211 0
 231 002a 0223     		movne	r3, #2
 232 002c 2370     		strb	r3, [r4]
 233              		.loc 1 212 0
 234              	@ 212 "ChibiOS_2.6.6/os/hal/src/i2c.c" 1
 235 002e 62B6     		cpsie   i
 236              	@ 0 "" 2
 237              		.loc 1 214 0
 238              		.thumb
 239 0030 05B0     		add	sp, sp, #20
 240              		.cfi_def_cfa_offset 20
 241              		@ sp needed
 242 0032 F0BD     		pop	{r4, r5, r6, r7, pc}
 243              		.cfi_endproc
 244              	.LFE123:
 245              		.size	i2cMasterTransmitTimeout, .-i2cMasterTransmitTimeout
 246              		.section	.text.i2cMasterReceiveTimeout,"ax",%progbits
 247              		.align	2
 248              		.p2align 4,,15
 249              		.global	i2cMasterReceiveTimeout
 250              		.thumb
 251              		.thumb_func
 252              		.type	i2cMasterReceiveTimeout, %function
 253              	i2cMasterReceiveTimeout:
 254              	.LFB124:
 255              		.loc 1 240 0
 256              		.cfi_startproc
 257              		@ args = 4, pretend = 0, frame = 0
 258              		@ frame_needed = 0, uses_anonymous_args = 0
 259              	.LVL12:
 260 0000 F0B5     		push	{r4, r5, r6, r7, lr}
 261              		.cfi_def_cfa_offset 20
 262              		.cfi_offset 4, -20
 263              		.cfi_offset 5, -16
 264              		.cfi_offset 6, -12
 265              		.cfi_offset 7, -8
 266              		.cfi_offset 14, -4
 267 0002 83B0     		sub	sp, sp, #12
 268              		.cfi_def_cfa_offset 32
 269              		.loc 1 240 0
 270 0004 0446     		mov	r4, r0
 271 0006 089F     		ldr	r7, [sp, #32]
 272              		.loc 1 252 0
 273              	@ 252 "ChibiOS_2.6.6/os/hal/src/i2c.c" 1
 274 0008 72B6     		cpsid   i
 275              	@ 0 "" 2
 276              		.loc 1 253 0
 277              		.thumb
 278 000a 0026     		movs	r6, #0
 279              		.loc 1 254 0
 280 000c 0425     		movs	r5, #4
 281              		.loc 1 255 0
 282 000e 0097     		str	r7, [sp]
 283              		.loc 1 253 0
 284 0010 8660     		str	r6, [r0, #8]
 285              		.loc 1 254 0
ARM GAS  C:\Users\ADMINI~1\AppData\Local\Temp\ccacRClR.s 			page 6


 286 0012 0570     		strb	r5, [r0]
 287              		.loc 1 255 0
 288 0014 FFF7FEFF 		bl	i2c_lld_master_receive_timeout
 289              	.LVL13:
 290              		.loc 1 256 0
 291 0018 431C     		adds	r3, r0, #1
 292              		.loc 1 257 0
 293 001a 0CBF     		ite	eq
 294 001c 0523     		moveq	r3, #5
 295              		.loc 1 259 0
 296 001e 0223     		movne	r3, #2
 297 0020 2370     		strb	r3, [r4]
 298              		.loc 1 260 0
 299              	@ 260 "ChibiOS_2.6.6/os/hal/src/i2c.c" 1
 300 0022 62B6     		cpsie   i
 301              	@ 0 "" 2
 302              		.loc 1 262 0
 303              		.thumb
 304 0024 03B0     		add	sp, sp, #12
 305              		.cfi_def_cfa_offset 20
 306              		@ sp needed
 307 0026 F0BD     		pop	{r4, r5, r6, r7, pc}
 308              		.cfi_endproc
 309              	.LFE124:
 310              		.size	i2cMasterReceiveTimeout, .-i2cMasterReceiveTimeout
 311              		.section	.text.i2cAcquireBus,"ax",%progbits
 312              		.align	2
 313              		.p2align 4,,15
 314              		.global	i2cAcquireBus
 315              		.thumb
 316              		.thumb_func
 317              		.type	i2cAcquireBus, %function
 318              	i2cAcquireBus:
 319              	.LFB125:
 320              		.loc 1 276 0
 321              		.cfi_startproc
 322              		@ args = 0, pretend = 0, frame = 0
 323              		@ frame_needed = 0, uses_anonymous_args = 0
 324              		@ link register save eliminated.
 325              	.LVL14:
 326              		.loc 1 281 0
 327 0000 0C30     		adds	r0, r0, #12
 328              	.LVL15:
 329 0002 FFF7FEBF 		b	chMtxLock
 330              	.LVL16:
 331              		.cfi_endproc
 332              	.LFE125:
 333              		.size	i2cAcquireBus, .-i2cAcquireBus
 334 0006 00BF     		.section	.text.i2cReleaseBus,"ax",%progbits
 335              		.align	2
 336              		.p2align 4,,15
 337              		.global	i2cReleaseBus
 338              		.thumb
 339              		.thumb_func
 340              		.type	i2cReleaseBus, %function
 341              	i2cReleaseBus:
 342              	.LFB126:
ARM GAS  C:\Users\ADMINI~1\AppData\Local\Temp\ccacRClR.s 			page 7


 343              		.loc 1 296 0
 344              		.cfi_startproc
 345              		@ args = 0, pretend = 0, frame = 0
 346              		@ frame_needed = 0, uses_anonymous_args = 0
 347              		@ link register save eliminated.
 348              	.LVL17:
 349              		.loc 1 301 0
 350 0000 FFF7FEBF 		b	chMtxUnlock
 351              	.LVL18:
 352              		.cfi_endproc
 353              	.LFE126:
 354              		.size	i2cReleaseBus, .-i2cReleaseBus
 355              		.text
 356              	.Letext0:
 357              		.file 2 "c:\\program files\\gnu tools arm embedded\\4.9 2015q2\\lib\\gcc\\arm-none-eabi\\4.9.3\\in
 358              		.file 3 "c:\\program files\\gnu tools arm embedded\\4.9 2015q2\\arm-none-eabi\\include\\machine\\_
 359              		.file 4 "c:\\program files\\gnu tools arm embedded\\4.9 2015q2\\arm-none-eabi\\include\\sys\\_stdi
 360              		.file 5 "ChibiOS_2.6.6/os/ports/GCC/ARMCMx/chtypes.h"
 361              		.file 6 "ChibiOS_2.6.6/os/kernel/include/chlists.h"
 362              		.file 7 "ChibiOS_2.6.6/os/kernel/include/chthreads.h"
 363              		.file 8 "ChibiOS_2.6.6/os/ports/GCC/ARMCMx/chcore_v7m.h"
 364              		.file 9 "ChibiOS_2.6.6/os/kernel/include/chmtx.h"
 365              		.file 10 "ChibiOS_2.6.6/os/hal/platforms/STM32F4xx/stm32f4xx.h"
 366              		.file 11 "ChibiOS_2.6.6/os/hal/platforms/STM32F4xx/stm32_dma.h"
 367              		.file 12 "ChibiOS_2.6.6/os/hal/include/i2c.h"
 368              		.file 13 "ChibiOS_2.6.6/os/hal/platforms/STM32/I2Cv1/i2c_lld.h"
 369              		.file 14 "ChibiOS_2.6.6/os/ports/common/ARMCMx/CMSIS/include/core_cm4.h"
 370              		.section	.debug_info,"",%progbits
 371              	.Ldebug_info0:
 372 0000 990B0000 		.4byte	0xb99
 373 0004 0400     		.2byte	0x4
 374 0006 00000000 		.4byte	.Ldebug_abbrev0
 375 000a 04       		.byte	0x4
 376 000b 01       		.uleb128 0x1
 377 000c EE040000 		.4byte	.LASF140
 378 0010 01       		.byte	0x1
 379 0011 3F020000 		.4byte	.LASF141
 380 0015 74060000 		.4byte	.LASF142
 381 0019 00000000 		.4byte	.Ldebug_ranges0+0
 382 001d 00000000 		.4byte	0
 383 0021 00000000 		.4byte	.Ldebug_line0
 384 0025 02       		.uleb128 0x2
 385 0026 04       		.byte	0x4
 386 0027 05       		.byte	0x5
 387 0028 696E7400 		.ascii	"int\000"
 388 002c 03       		.uleb128 0x3
 389 002d 1A000000 		.4byte	.LASF2
 390 0031 02       		.byte	0x2
 391 0032 D4       		.byte	0xd4
 392 0033 37000000 		.4byte	0x37
 393 0037 04       		.uleb128 0x4
 394 0038 04       		.byte	0x4
 395 0039 07       		.byte	0x7
 396 003a DC010000 		.4byte	.LASF0
 397 003e 04       		.uleb128 0x4
 398 003f 01       		.byte	0x1
 399 0040 06       		.byte	0x6
ARM GAS  C:\Users\ADMINI~1\AppData\Local\Temp\ccacRClR.s 			page 8


 400 0041 34000000 		.4byte	.LASF1
 401 0045 03       		.uleb128 0x3
 402 0046 40000000 		.4byte	.LASF3
 403 004a 03       		.byte	0x3
 404 004b 1D       		.byte	0x1d
 405 004c 50000000 		.4byte	0x50
 406 0050 04       		.uleb128 0x4
 407 0051 01       		.byte	0x1
 408 0052 08       		.byte	0x8
 409 0053 CB030000 		.4byte	.LASF4
 410 0057 04       		.uleb128 0x4
 411 0058 02       		.byte	0x2
 412 0059 05       		.byte	0x5
 413 005a 8A020000 		.4byte	.LASF5
 414 005e 03       		.uleb128 0x3
 415 005f BD040000 		.4byte	.LASF6
 416 0063 03       		.byte	0x3
 417 0064 2B       		.byte	0x2b
 418 0065 69000000 		.4byte	0x69
 419 0069 04       		.uleb128 0x4
 420 006a 02       		.byte	0x2
 421 006b 07       		.byte	0x7
 422 006c 1C020000 		.4byte	.LASF7
 423 0070 03       		.uleb128 0x3
 424 0071 E4040000 		.4byte	.LASF8
 425 0075 03       		.byte	0x3
 426 0076 3F       		.byte	0x3f
 427 0077 7B000000 		.4byte	0x7b
 428 007b 04       		.uleb128 0x4
 429 007c 04       		.byte	0x4
 430 007d 05       		.byte	0x5
 431 007e 2C060000 		.4byte	.LASF9
 432 0082 03       		.uleb128 0x3
 433 0083 B1010000 		.4byte	.LASF10
 434 0087 03       		.byte	0x3
 435 0088 41       		.byte	0x41
 436 0089 8D000000 		.4byte	0x8d
 437 008d 04       		.uleb128 0x4
 438 008e 04       		.byte	0x4
 439 008f 07       		.byte	0x7
 440 0090 9F040000 		.4byte	.LASF11
 441 0094 04       		.uleb128 0x4
 442 0095 08       		.byte	0x8
 443 0096 05       		.byte	0x5
 444 0097 CE010000 		.4byte	.LASF12
 445 009b 04       		.uleb128 0x4
 446 009c 08       		.byte	0x8
 447 009d 07       		.byte	0x7
 448 009e 06010000 		.4byte	.LASF13
 449 00a2 03       		.uleb128 0x3
 450 00a3 86060000 		.4byte	.LASF14
 451 00a7 04       		.byte	0x4
 452 00a8 14       		.byte	0x14
 453 00a9 45000000 		.4byte	0x45
 454 00ad 03       		.uleb128 0x3
 455 00ae E9010000 		.4byte	.LASF15
 456 00b2 04       		.byte	0x4
ARM GAS  C:\Users\ADMINI~1\AppData\Local\Temp\ccacRClR.s 			page 9


 457 00b3 1A       		.byte	0x1a
 458 00b4 5E000000 		.4byte	0x5e
 459 00b8 03       		.uleb128 0x3
 460 00b9 C3030000 		.4byte	.LASF16
 461 00bd 04       		.byte	0x4
 462 00be 1F       		.byte	0x1f
 463 00bf 70000000 		.4byte	0x70
 464 00c3 03       		.uleb128 0x3
 465 00c4 64040000 		.4byte	.LASF17
 466 00c8 04       		.byte	0x4
 467 00c9 20       		.byte	0x20
 468 00ca 82000000 		.4byte	0x82
 469 00ce 04       		.uleb128 0x4
 470 00cf 01       		.byte	0x1
 471 00d0 02       		.byte	0x2
 472 00d1 BD030000 		.4byte	.LASF18
 473 00d5 03       		.uleb128 0x3
 474 00d6 67020000 		.4byte	.LASF19
 475 00da 05       		.byte	0x5
 476 00db 2C       		.byte	0x2c
 477 00dc A2000000 		.4byte	0xa2
 478 00e0 03       		.uleb128 0x3
 479 00e1 6A010000 		.4byte	.LASF20
 480 00e5 05       		.byte	0x5
 481 00e6 2D       		.byte	0x2d
 482 00e7 A2000000 		.4byte	0xa2
 483 00eb 03       		.uleb128 0x3
 484 00ec 1D030000 		.4byte	.LASF21
 485 00f0 05       		.byte	0x5
 486 00f1 2E       		.byte	0x2e
 487 00f2 A2000000 		.4byte	0xa2
 488 00f6 03       		.uleb128 0x3
 489 00f7 4A010000 		.4byte	.LASF22
 490 00fb 05       		.byte	0x5
 491 00fc 2F       		.byte	0x2f
 492 00fd A2000000 		.4byte	0xa2
 493 0101 03       		.uleb128 0x3
 494 0102 95030000 		.4byte	.LASF23
 495 0106 05       		.byte	0x5
 496 0107 30       		.byte	0x30
 497 0108 C3000000 		.4byte	0xc3
 498 010c 03       		.uleb128 0x3
 499 010d 39020000 		.4byte	.LASF24
 500 0111 05       		.byte	0x5
 501 0112 31       		.byte	0x31
 502 0113 B8000000 		.4byte	0xb8
 503 0117 03       		.uleb128 0x3
 504 0118 7E020000 		.4byte	.LASF25
 505 011c 05       		.byte	0x5
 506 011d 33       		.byte	0x33
 507 011e C3000000 		.4byte	0xc3
 508 0122 03       		.uleb128 0x3
 509 0123 CF040000 		.4byte	.LASF26
 510 0127 05       		.byte	0x5
 511 0128 35       		.byte	0x35
 512 0129 C3000000 		.4byte	0xc3
 513 012d 03       		.uleb128 0x3
ARM GAS  C:\Users\ADMINI~1\AppData\Local\Temp\ccacRClR.s 			page 10


 514 012e 2E040000 		.4byte	.LASF27
 515 0132 06       		.byte	0x6
 516 0133 2A       		.byte	0x2a
 517 0134 38010000 		.4byte	0x138
 518 0138 05       		.uleb128 0x5
 519 0139 2E040000 		.4byte	.LASF27
 520 013d 48       		.byte	0x48
 521 013e 07       		.byte	0x7
 522 013f 5E       		.byte	0x5e
 523 0140 35020000 		.4byte	0x235
 524 0144 06       		.uleb128 0x6
 525 0145 15040000 		.4byte	.LASF28
 526 0149 07       		.byte	0x7
 527 014a 5F       		.byte	0x5f
 528 014b 56020000 		.4byte	0x256
 529 014f 00       		.byte	0
 530 0150 06       		.uleb128 0x6
 531 0151 63030000 		.4byte	.LASF29
 532 0155 07       		.byte	0x7
 533 0156 61       		.byte	0x61
 534 0157 56020000 		.4byte	0x256
 535 015b 04       		.byte	0x4
 536 015c 06       		.uleb128 0x6
 537 015d D7020000 		.4byte	.LASF30
 538 0161 07       		.byte	0x7
 539 0162 63       		.byte	0x63
 540 0163 01010000 		.4byte	0x101
 541 0167 08       		.byte	0x8
 542 0168 06       		.uleb128 0x6
 543 0169 03070000 		.4byte	.LASF31
 544 016d 07       		.byte	0x7
 545 016e 64       		.byte	0x64
 546 016f E0030000 		.4byte	0x3e0
 547 0173 0C       		.byte	0xc
 548 0174 06       		.uleb128 0x6
 549 0175 87010000 		.4byte	.LASF32
 550 0179 07       		.byte	0x7
 551 017a 66       		.byte	0x66
 552 017b 56020000 		.4byte	0x256
 553 017f 10       		.byte	0x10
 554 0180 06       		.uleb128 0x6
 555 0181 E8020000 		.4byte	.LASF33
 556 0185 07       		.byte	0x7
 557 0186 67       		.byte	0x67
 558 0187 56020000 		.4byte	0x256
 559 018b 14       		.byte	0x14
 560 018c 06       		.uleb128 0x6
 561 018d B8060000 		.4byte	.LASF34
 562 0191 07       		.byte	0x7
 563 0192 6E       		.byte	0x6e
 564 0193 89040000 		.4byte	0x489
 565 0197 18       		.byte	0x18
 566 0198 06       		.uleb128 0x6
 567 0199 EF030000 		.4byte	.LASF35
 568 019d 07       		.byte	0x7
 569 019e 79       		.byte	0x79
 570 019f E0000000 		.4byte	0xe0
ARM GAS  C:\Users\ADMINI~1\AppData\Local\Temp\ccacRClR.s 			page 11


 571 01a3 1C       		.byte	0x1c
 572 01a4 06       		.uleb128 0x6
 573 01a5 1C040000 		.4byte	.LASF36
 574 01a9 07       		.byte	0x7
 575 01aa 7D       		.byte	0x7d
 576 01ab D5000000 		.4byte	0xd5
 577 01af 1D       		.byte	0x1d
 578 01b0 06       		.uleb128 0x6
 579 01b1 6D060000 		.4byte	.LASF37
 580 01b5 07       		.byte	0x7
 581 01b6 82       		.byte	0x82
 582 01b7 EB000000 		.4byte	0xeb
 583 01bb 1E       		.byte	0x1e
 584 01bc 06       		.uleb128 0x6
 585 01bd F7030000 		.4byte	.LASF38
 586 01c1 07       		.byte	0x7
 587 01c2 88       		.byte	0x88
 588 01c3 F6000000 		.4byte	0xf6
 589 01c7 1F       		.byte	0x1f
 590 01c8 06       		.uleb128 0x6
 591 01c9 25060000 		.4byte	.LASF39
 592 01cd 07       		.byte	0x7
 593 01ce 8F       		.byte	0x8f
 594 01cf 0D040000 		.4byte	0x40d
 595 01d3 20       		.byte	0x20
 596 01d4 07       		.uleb128 0x7
 597 01d5 705F7500 		.ascii	"p_u\000"
 598 01d9 07       		.byte	0x7
 599 01da B4       		.byte	0xb4
 600 01db 54040000 		.4byte	0x454
 601 01df 24       		.byte	0x24
 602 01e0 06       		.uleb128 0x6
 603 01e1 09070000 		.4byte	.LASF40
 604 01e5 07       		.byte	0x7
 605 01e6 B9       		.byte	0xb9
 606 01e7 7C020000 		.4byte	0x27c
 607 01eb 28       		.byte	0x28
 608 01ec 06       		.uleb128 0x6
 609 01ed 3C060000 		.4byte	.LASF41
 610 01f1 07       		.byte	0x7
 611 01f2 BF       		.byte	0xbf
 612 01f3 5C020000 		.4byte	0x25c
 613 01f7 2C       		.byte	0x2c
 614 01f8 06       		.uleb128 0x6
 615 01f9 CF060000 		.4byte	.LASF42
 616 01fd 07       		.byte	0x7
 617 01fe C3       		.byte	0xc3
 618 01ff 0C010000 		.4byte	0x10c
 619 0203 34       		.byte	0x34
 620 0204 06       		.uleb128 0x6
 621 0205 4A040000 		.4byte	.LASF43
 622 0209 07       		.byte	0x7
 623 020a C9       		.byte	0xc9
 624 020b 17010000 		.4byte	0x117
 625 020f 38       		.byte	0x38
 626 0210 06       		.uleb128 0x6
 627 0211 D9030000 		.4byte	.LASF44
ARM GAS  C:\Users\ADMINI~1\AppData\Local\Temp\ccacRClR.s 			page 12


 628 0215 07       		.byte	0x7
 629 0216 D0       		.byte	0xd0
 630 0217 9B040000 		.4byte	0x49b
 631 021b 3C       		.byte	0x3c
 632 021c 06       		.uleb128 0x6
 633 021d D9040000 		.4byte	.LASF45
 634 0221 07       		.byte	0x7
 635 0222 D4       		.byte	0xd4
 636 0223 01010000 		.4byte	0x101
 637 0227 40       		.byte	0x40
 638 0228 06       		.uleb128 0x6
 639 0229 FE000000 		.4byte	.LASF46
 640 022d 07       		.byte	0x7
 641 022e DA       		.byte	0xda
 642 022f 92020000 		.4byte	0x292
 643 0233 44       		.byte	0x44
 644 0234 00       		.byte	0
 645 0235 08       		.uleb128 0x8
 646 0236 08       		.byte	0x8
 647 0237 06       		.byte	0x6
 648 0238 61       		.byte	0x61
 649 0239 56020000 		.4byte	0x256
 650 023d 06       		.uleb128 0x6
 651 023e 15040000 		.4byte	.LASF28
 652 0242 06       		.byte	0x6
 653 0243 62       		.byte	0x62
 654 0244 56020000 		.4byte	0x256
 655 0248 00       		.byte	0
 656 0249 06       		.uleb128 0x6
 657 024a 63030000 		.4byte	.LASF29
 658 024e 06       		.byte	0x6
 659 024f 64       		.byte	0x64
 660 0250 56020000 		.4byte	0x256
 661 0254 04       		.byte	0x4
 662 0255 00       		.byte	0
 663 0256 09       		.uleb128 0x9
 664 0257 04       		.byte	0x4
 665 0258 2D010000 		.4byte	0x12d
 666 025c 03       		.uleb128 0x3
 667 025d 90000000 		.4byte	.LASF47
 668 0261 06       		.byte	0x6
 669 0262 66       		.byte	0x66
 670 0263 35020000 		.4byte	0x235
 671 0267 08       		.uleb128 0x8
 672 0268 04       		.byte	0x4
 673 0269 06       		.byte	0x6
 674 026a 6B       		.byte	0x6b
 675 026b 7C020000 		.4byte	0x27c
 676 026f 06       		.uleb128 0x6
 677 0270 15040000 		.4byte	.LASF28
 678 0274 06       		.byte	0x6
 679 0275 6D       		.byte	0x6d
 680 0276 56020000 		.4byte	0x256
 681 027a 00       		.byte	0
 682 027b 00       		.byte	0
 683 027c 03       		.uleb128 0x3
 684 027d 21000000 		.4byte	.LASF48
ARM GAS  C:\Users\ADMINI~1\AppData\Local\Temp\ccacRClR.s 			page 13


 685 0281 06       		.byte	0x6
 686 0282 70       		.byte	0x70
 687 0283 67020000 		.4byte	0x267
 688 0287 03       		.uleb128 0x3
 689 0288 6D040000 		.4byte	.LASF49
 690 028c 08       		.byte	0x8
 691 028d E5       		.byte	0xe5
 692 028e 92020000 		.4byte	0x292
 693 0292 0A       		.uleb128 0xa
 694 0293 04       		.byte	0x4
 695 0294 0B       		.uleb128 0xb
 696 0295 35060000 		.4byte	.LASF50
 697 0299 64       		.byte	0x64
 698 029a 08       		.byte	0x8
 699 029b 0C01     		.2byte	0x10c
 700 029d E0030000 		.4byte	0x3e0
 701 02a1 0C       		.uleb128 0xc
 702 02a2 73313600 		.ascii	"s16\000"
 703 02a6 08       		.byte	0x8
 704 02a7 0E01     		.2byte	0x10e
 705 02a9 87020000 		.4byte	0x287
 706 02ad 00       		.byte	0
 707 02ae 0C       		.uleb128 0xc
 708 02af 73313700 		.ascii	"s17\000"
 709 02b3 08       		.byte	0x8
 710 02b4 0F01     		.2byte	0x10f
 711 02b6 87020000 		.4byte	0x287
 712 02ba 04       		.byte	0x4
 713 02bb 0C       		.uleb128 0xc
 714 02bc 73313800 		.ascii	"s18\000"
 715 02c0 08       		.byte	0x8
 716 02c1 1001     		.2byte	0x110
 717 02c3 87020000 		.4byte	0x287
 718 02c7 08       		.byte	0x8
 719 02c8 0C       		.uleb128 0xc
 720 02c9 73313900 		.ascii	"s19\000"
 721 02cd 08       		.byte	0x8
 722 02ce 1101     		.2byte	0x111
 723 02d0 87020000 		.4byte	0x287
 724 02d4 0C       		.byte	0xc
 725 02d5 0C       		.uleb128 0xc
 726 02d6 73323000 		.ascii	"s20\000"
 727 02da 08       		.byte	0x8
 728 02db 1201     		.2byte	0x112
 729 02dd 87020000 		.4byte	0x287
 730 02e1 10       		.byte	0x10
 731 02e2 0C       		.uleb128 0xc
 732 02e3 73323100 		.ascii	"s21\000"
 733 02e7 08       		.byte	0x8
 734 02e8 1301     		.2byte	0x113
 735 02ea 87020000 		.4byte	0x287
 736 02ee 14       		.byte	0x14
 737 02ef 0C       		.uleb128 0xc
 738 02f0 73323200 		.ascii	"s22\000"
 739 02f4 08       		.byte	0x8
 740 02f5 1401     		.2byte	0x114
 741 02f7 87020000 		.4byte	0x287
ARM GAS  C:\Users\ADMINI~1\AppData\Local\Temp\ccacRClR.s 			page 14


 742 02fb 18       		.byte	0x18
 743 02fc 0C       		.uleb128 0xc
 744 02fd 73323300 		.ascii	"s23\000"
 745 0301 08       		.byte	0x8
 746 0302 1501     		.2byte	0x115
 747 0304 87020000 		.4byte	0x287
 748 0308 1C       		.byte	0x1c
 749 0309 0C       		.uleb128 0xc
 750 030a 73323400 		.ascii	"s24\000"
 751 030e 08       		.byte	0x8
 752 030f 1601     		.2byte	0x116
 753 0311 87020000 		.4byte	0x287
 754 0315 20       		.byte	0x20
 755 0316 0C       		.uleb128 0xc
 756 0317 73323500 		.ascii	"s25\000"
 757 031b 08       		.byte	0x8
 758 031c 1701     		.2byte	0x117
 759 031e 87020000 		.4byte	0x287
 760 0322 24       		.byte	0x24
 761 0323 0C       		.uleb128 0xc
 762 0324 73323600 		.ascii	"s26\000"
 763 0328 08       		.byte	0x8
 764 0329 1801     		.2byte	0x118
 765 032b 87020000 		.4byte	0x287
 766 032f 28       		.byte	0x28
 767 0330 0C       		.uleb128 0xc
 768 0331 73323700 		.ascii	"s27\000"
 769 0335 08       		.byte	0x8
 770 0336 1901     		.2byte	0x119
 771 0338 87020000 		.4byte	0x287
 772 033c 2C       		.byte	0x2c
 773 033d 0C       		.uleb128 0xc
 774 033e 73323800 		.ascii	"s28\000"
 775 0342 08       		.byte	0x8
 776 0343 1A01     		.2byte	0x11a
 777 0345 87020000 		.4byte	0x287
 778 0349 30       		.byte	0x30
 779 034a 0C       		.uleb128 0xc
 780 034b 73323900 		.ascii	"s29\000"
 781 034f 08       		.byte	0x8
 782 0350 1B01     		.2byte	0x11b
 783 0352 87020000 		.4byte	0x287
 784 0356 34       		.byte	0x34
 785 0357 0C       		.uleb128 0xc
 786 0358 73333000 		.ascii	"s30\000"
 787 035c 08       		.byte	0x8
 788 035d 1C01     		.2byte	0x11c
 789 035f 87020000 		.4byte	0x287
 790 0363 38       		.byte	0x38
 791 0364 0C       		.uleb128 0xc
 792 0365 73333100 		.ascii	"s31\000"
 793 0369 08       		.byte	0x8
 794 036a 1D01     		.2byte	0x11d
 795 036c 87020000 		.4byte	0x287
 796 0370 3C       		.byte	0x3c
 797 0371 0C       		.uleb128 0xc
 798 0372 723400   		.ascii	"r4\000"
ARM GAS  C:\Users\ADMINI~1\AppData\Local\Temp\ccacRClR.s 			page 15


 799 0375 08       		.byte	0x8
 800 0376 1F01     		.2byte	0x11f
 801 0378 87020000 		.4byte	0x287
 802 037c 40       		.byte	0x40
 803 037d 0C       		.uleb128 0xc
 804 037e 723500   		.ascii	"r5\000"
 805 0381 08       		.byte	0x8
 806 0382 2001     		.2byte	0x120
 807 0384 87020000 		.4byte	0x287
 808 0388 44       		.byte	0x44
 809 0389 0C       		.uleb128 0xc
 810 038a 723600   		.ascii	"r6\000"
 811 038d 08       		.byte	0x8
 812 038e 2101     		.2byte	0x121
 813 0390 87020000 		.4byte	0x287
 814 0394 48       		.byte	0x48
 815 0395 0C       		.uleb128 0xc
 816 0396 723700   		.ascii	"r7\000"
 817 0399 08       		.byte	0x8
 818 039a 2201     		.2byte	0x122
 819 039c 87020000 		.4byte	0x287
 820 03a0 4C       		.byte	0x4c
 821 03a1 0C       		.uleb128 0xc
 822 03a2 723800   		.ascii	"r8\000"
 823 03a5 08       		.byte	0x8
 824 03a6 2301     		.2byte	0x123
 825 03a8 87020000 		.4byte	0x287
 826 03ac 50       		.byte	0x50
 827 03ad 0C       		.uleb128 0xc
 828 03ae 723900   		.ascii	"r9\000"
 829 03b1 08       		.byte	0x8
 830 03b2 2401     		.2byte	0x124
 831 03b4 87020000 		.4byte	0x287
 832 03b8 54       		.byte	0x54
 833 03b9 0C       		.uleb128 0xc
 834 03ba 72313000 		.ascii	"r10\000"
 835 03be 08       		.byte	0x8
 836 03bf 2501     		.2byte	0x125
 837 03c1 87020000 		.4byte	0x287
 838 03c5 58       		.byte	0x58
 839 03c6 0C       		.uleb128 0xc
 840 03c7 72313100 		.ascii	"r11\000"
 841 03cb 08       		.byte	0x8
 842 03cc 2601     		.2byte	0x126
 843 03ce 87020000 		.4byte	0x287
 844 03d2 5C       		.byte	0x5c
 845 03d3 0C       		.uleb128 0xc
 846 03d4 6C7200   		.ascii	"lr\000"
 847 03d7 08       		.byte	0x8
 848 03d8 2701     		.2byte	0x127
 849 03da 87020000 		.4byte	0x287
 850 03de 60       		.byte	0x60
 851 03df 00       		.byte	0
 852 03e0 0B       		.uleb128 0xb
 853 03e1 BF060000 		.4byte	.LASF51
 854 03e5 04       		.byte	0x4
 855 03e6 08       		.byte	0x8
ARM GAS  C:\Users\ADMINI~1\AppData\Local\Temp\ccacRClR.s 			page 16


 856 03e7 3101     		.2byte	0x131
 857 03e9 FB030000 		.4byte	0x3fb
 858 03ed 0C       		.uleb128 0xc
 859 03ee 72313300 		.ascii	"r13\000"
 860 03f2 08       		.byte	0x8
 861 03f3 3201     		.2byte	0x132
 862 03f5 FB030000 		.4byte	0x3fb
 863 03f9 00       		.byte	0
 864 03fa 00       		.byte	0
 865 03fb 09       		.uleb128 0x9
 866 03fc 04       		.byte	0x4
 867 03fd 94020000 		.4byte	0x294
 868 0401 0D       		.uleb128 0xd
 869 0402 C3000000 		.4byte	0xc3
 870 0406 04       		.uleb128 0x4
 871 0407 04       		.byte	0x4
 872 0408 07       		.byte	0x7
 873 0409 BA020000 		.4byte	.LASF52
 874 040d 0D       		.uleb128 0xd
 875 040e 22010000 		.4byte	0x122
 876 0412 05       		.uleb128 0x5
 877 0413 94020000 		.4byte	.LASF53
 878 0417 10       		.byte	0x10
 879 0418 09       		.byte	0x9
 880 0419 2C       		.byte	0x2c
 881 041a 43040000 		.4byte	0x443
 882 041e 06       		.uleb128 0x6
 883 041f 1D010000 		.4byte	.LASF54
 884 0423 09       		.byte	0x9
 885 0424 2D       		.byte	0x2d
 886 0425 5C020000 		.4byte	0x25c
 887 0429 00       		.byte	0
 888 042a 06       		.uleb128 0x6
 889 042b FB060000 		.4byte	.LASF55
 890 042f 09       		.byte	0x9
 891 0430 2F       		.byte	0x2f
 892 0431 56020000 		.4byte	0x256
 893 0435 08       		.byte	0x8
 894 0436 06       		.uleb128 0x6
 895 0437 C8040000 		.4byte	.LASF56
 896 043b 09       		.byte	0x9
 897 043c 31       		.byte	0x31
 898 043d 43040000 		.4byte	0x443
 899 0441 0C       		.byte	0xc
 900 0442 00       		.byte	0
 901 0443 09       		.uleb128 0x9
 902 0444 04       		.byte	0x4
 903 0445 12040000 		.4byte	0x412
 904 0449 03       		.uleb128 0x3
 905 044a 94020000 		.4byte	.LASF53
 906 044e 09       		.byte	0x9
 907 044f 33       		.byte	0x33
 908 0450 12040000 		.4byte	0x412
 909 0454 0E       		.uleb128 0xe
 910 0455 04       		.byte	0x4
 911 0456 07       		.byte	0x7
 912 0457 96       		.byte	0x96
ARM GAS  C:\Users\ADMINI~1\AppData\Local\Temp\ccacRClR.s 			page 17


 913 0458 89040000 		.4byte	0x489
 914 045c 0F       		.uleb128 0xf
 915 045d 2D000000 		.4byte	.LASF57
 916 0461 07       		.byte	0x7
 917 0462 9D       		.byte	0x9d
 918 0463 0C010000 		.4byte	0x10c
 919 0467 0F       		.uleb128 0xf
 920 0468 5E020000 		.4byte	.LASF58
 921 046c 07       		.byte	0x7
 922 046d A4       		.byte	0xa4
 923 046e 0C010000 		.4byte	0x10c
 924 0472 0F       		.uleb128 0xf
 925 0473 B1060000 		.4byte	.LASF59
 926 0477 07       		.byte	0x7
 927 0478 AB       		.byte	0xab
 928 0479 92020000 		.4byte	0x292
 929 047d 0F       		.uleb128 0xf
 930 047e 0E040000 		.4byte	.LASF60
 931 0482 07       		.byte	0x7
 932 0483 B2       		.byte	0xb2
 933 0484 17010000 		.4byte	0x117
 934 0488 00       		.byte	0
 935 0489 09       		.uleb128 0x9
 936 048a 04       		.byte	0x4
 937 048b 8F040000 		.4byte	0x48f
 938 048f 10       		.uleb128 0x10
 939 0490 94040000 		.4byte	0x494
 940 0494 04       		.uleb128 0x4
 941 0495 01       		.byte	0x1
 942 0496 08       		.byte	0x8
 943 0497 B1040000 		.4byte	.LASF61
 944 049b 09       		.uleb128 0x9
 945 049c 04       		.byte	0x4
 946 049d 49040000 		.4byte	0x449
 947 04a1 09       		.uleb128 0x9
 948 04a2 04       		.byte	0x4
 949 04a3 A2000000 		.4byte	0xa2
 950 04a7 09       		.uleb128 0x9
 951 04a8 04       		.byte	0x4
 952 04a9 AD040000 		.4byte	0x4ad
 953 04ad 10       		.uleb128 0x10
 954 04ae A2000000 		.4byte	0xa2
 955 04b2 0D       		.uleb128 0xd
 956 04b3 AD000000 		.4byte	0xad
 957 04b7 0D       		.uleb128 0xd
 958 04b8 B8000000 		.4byte	0xb8
 959 04bc 11       		.uleb128 0x11
 960 04bd 18       		.byte	0x18
 961 04be 0A       		.byte	0xa
 962 04bf B102     		.2byte	0x2b1
 963 04c1 13050000 		.4byte	0x513
 964 04c5 0C       		.uleb128 0xc
 965 04c6 435200   		.ascii	"CR\000"
 966 04c9 0A       		.byte	0xa
 967 04ca B302     		.2byte	0x2b3
 968 04cc 01040000 		.4byte	0x401
 969 04d0 00       		.byte	0
ARM GAS  C:\Users\ADMINI~1\AppData\Local\Temp\ccacRClR.s 			page 18


 970 04d1 12       		.uleb128 0x12
 971 04d2 9A020000 		.4byte	.LASF62
 972 04d6 0A       		.byte	0xa
 973 04d7 B402     		.2byte	0x2b4
 974 04d9 01040000 		.4byte	0x401
 975 04dd 04       		.byte	0x4
 976 04de 0C       		.uleb128 0xc
 977 04df 50415200 		.ascii	"PAR\000"
 978 04e3 0A       		.byte	0xa
 979 04e4 B502     		.2byte	0x2b5
 980 04e6 01040000 		.4byte	0x401
 981 04ea 08       		.byte	0x8
 982 04eb 12       		.uleb128 0x12
 983 04ec 15000000 		.4byte	.LASF63
 984 04f0 0A       		.byte	0xa
 985 04f1 B602     		.2byte	0x2b6
 986 04f3 01040000 		.4byte	0x401
 987 04f7 0C       		.byte	0xc
 988 04f8 12       		.uleb128 0x12
 989 04f9 47060000 		.4byte	.LASF64
 990 04fd 0A       		.byte	0xa
 991 04fe B702     		.2byte	0x2b7
 992 0500 01040000 		.4byte	0x401
 993 0504 10       		.byte	0x10
 994 0505 0C       		.uleb128 0xc
 995 0506 46435200 		.ascii	"FCR\000"
 996 050a 0A       		.byte	0xa
 997 050b B802     		.2byte	0x2b8
 998 050d 01040000 		.4byte	0x401
 999 0511 14       		.byte	0x14
 1000 0512 00       		.byte	0
 1001 0513 13       		.uleb128 0x13
 1002 0514 12060000 		.4byte	.LASF65
 1003 0518 0A       		.byte	0xa
 1004 0519 B902     		.2byte	0x2b9
 1005 051b BC040000 		.4byte	0x4bc
 1006 051f 11       		.uleb128 0x11
 1007 0520 28       		.byte	0x28
 1008 0521 0A       		.byte	0xa
 1009 0522 F603     		.2byte	0x3f6
 1010 0524 2C060000 		.4byte	0x62c
 1011 0528 0C       		.uleb128 0xc
 1012 0529 43523100 		.ascii	"CR1\000"
 1013 052d 0A       		.byte	0xa
 1014 052e F803     		.2byte	0x3f8
 1015 0530 B2040000 		.4byte	0x4b2
 1016 0534 00       		.byte	0
 1017 0535 12       		.uleb128 0x12
 1018 0536 24040000 		.4byte	.LASF66
 1019 053a 0A       		.byte	0xa
 1020 053b F903     		.2byte	0x3f9
 1021 053d AD000000 		.4byte	0xad
 1022 0541 02       		.byte	0x2
 1023 0542 0C       		.uleb128 0xc
 1024 0543 43523200 		.ascii	"CR2\000"
 1025 0547 0A       		.byte	0xa
 1026 0548 FA03     		.2byte	0x3fa
ARM GAS  C:\Users\ADMINI~1\AppData\Local\Temp\ccacRClR.s 			page 19


 1027 054a B2040000 		.4byte	0x4b2
 1028 054e 04       		.byte	0x4
 1029 054f 12       		.uleb128 0x12
 1030 0550 35040000 		.4byte	.LASF67
 1031 0554 0A       		.byte	0xa
 1032 0555 FB03     		.2byte	0x3fb
 1033 0557 AD000000 		.4byte	0xad
 1034 055b 06       		.byte	0x6
 1035 055c 12       		.uleb128 0x12
 1036 055d 8E060000 		.4byte	.LASF68
 1037 0561 0A       		.byte	0xa
 1038 0562 FC03     		.2byte	0x3fc
 1039 0564 B2040000 		.4byte	0x4b2
 1040 0568 08       		.byte	0x8
 1041 0569 12       		.uleb128 0x12
 1042 056a 45030000 		.4byte	.LASF69
 1043 056e 0A       		.byte	0xa
 1044 056f FD03     		.2byte	0x3fd
 1045 0571 AD000000 		.4byte	0xad
 1046 0575 0A       		.byte	0xa
 1047 0576 12       		.uleb128 0x12
 1048 0577 82010000 		.4byte	.LASF70
 1049 057b 0A       		.byte	0xa
 1050 057c FE03     		.2byte	0x3fe
 1051 057e B2040000 		.4byte	0x4b2
 1052 0582 0C       		.byte	0xc
 1053 0583 12       		.uleb128 0x12
 1054 0584 4F030000 		.4byte	.LASF71
 1055 0588 0A       		.byte	0xa
 1056 0589 FF03     		.2byte	0x3ff
 1057 058b AD000000 		.4byte	0xad
 1058 058f 0E       		.byte	0xe
 1059 0590 0C       		.uleb128 0xc
 1060 0591 445200   		.ascii	"DR\000"
 1061 0594 0A       		.byte	0xa
 1062 0595 0004     		.2byte	0x400
 1063 0597 B2040000 		.4byte	0x4b2
 1064 059b 10       		.byte	0x10
 1065 059c 12       		.uleb128 0x12
 1066 059d 59030000 		.4byte	.LASF72
 1067 05a1 0A       		.byte	0xa
 1068 05a2 0104     		.2byte	0x401
 1069 05a4 AD000000 		.4byte	0xad
 1070 05a8 12       		.byte	0x12
 1071 05a9 0C       		.uleb128 0xc
 1072 05aa 53523100 		.ascii	"SR1\000"
 1073 05ae 0A       		.byte	0xa
 1074 05af 0204     		.2byte	0x402
 1075 05b1 B2040000 		.4byte	0x4b2
 1076 05b5 14       		.byte	0x14
 1077 05b6 12       		.uleb128 0x12
 1078 05b7 5A040000 		.4byte	.LASF73
 1079 05bb 0A       		.byte	0xa
 1080 05bc 0304     		.2byte	0x403
 1081 05be AD000000 		.4byte	0xad
 1082 05c2 16       		.byte	0x16
 1083 05c3 0C       		.uleb128 0xc
ARM GAS  C:\Users\ADMINI~1\AppData\Local\Temp\ccacRClR.s 			page 20


 1084 05c4 53523200 		.ascii	"SR2\000"
 1085 05c8 0A       		.byte	0xa
 1086 05c9 0404     		.2byte	0x404
 1087 05cb B2040000 		.4byte	0x4b2
 1088 05cf 18       		.byte	0x18
 1089 05d0 12       		.uleb128 0x12
 1090 05d1 6A030000 		.4byte	.LASF74
 1091 05d5 0A       		.byte	0xa
 1092 05d6 0504     		.2byte	0x405
 1093 05d8 AD000000 		.4byte	0xad
 1094 05dc 1A       		.byte	0x1a
 1095 05dd 0C       		.uleb128 0xc
 1096 05de 43435200 		.ascii	"CCR\000"
 1097 05e2 0A       		.byte	0xa
 1098 05e3 0604     		.2byte	0x406
 1099 05e5 B2040000 		.4byte	0x4b2
 1100 05e9 1C       		.byte	0x1c
 1101 05ea 12       		.uleb128 0x12
 1102 05eb 4C060000 		.4byte	.LASF75
 1103 05ef 0A       		.byte	0xa
 1104 05f0 0704     		.2byte	0x407
 1105 05f2 AD000000 		.4byte	0xad
 1106 05f6 1E       		.byte	0x1e
 1107 05f7 12       		.uleb128 0x12
 1108 05f8 84000000 		.4byte	.LASF76
 1109 05fc 0A       		.byte	0xa
 1110 05fd 0804     		.2byte	0x408
 1111 05ff B2040000 		.4byte	0x4b2
 1112 0603 20       		.byte	0x20
 1113 0604 12       		.uleb128 0x12
 1114 0605 76040000 		.4byte	.LASF77
 1115 0609 0A       		.byte	0xa
 1116 060a 0904     		.2byte	0x409
 1117 060c AD000000 		.4byte	0xad
 1118 0610 22       		.byte	0x22
 1119 0611 12       		.uleb128 0x12
 1120 0612 7D010000 		.4byte	.LASF78
 1121 0616 0A       		.byte	0xa
 1122 0617 0A04     		.2byte	0x40a
 1123 0619 B2040000 		.4byte	0x4b2
 1124 061d 24       		.byte	0x24
 1125 061e 12       		.uleb128 0x12
 1126 061f 80040000 		.4byte	.LASF79
 1127 0623 0A       		.byte	0xa
 1128 0624 0B04     		.2byte	0x40b
 1129 0626 AD000000 		.4byte	0xad
 1130 062a 26       		.byte	0x26
 1131 062b 00       		.byte	0
 1132 062c 13       		.uleb128 0x13
 1133 062d D5060000 		.4byte	.LASF80
 1134 0631 0A       		.byte	0xa
 1135 0632 0C04     		.2byte	0x40c
 1136 0634 1F050000 		.4byte	0x51f
 1137 0638 08       		.uleb128 0x8
 1138 0639 0C       		.byte	0xc
 1139 063a 0B       		.byte	0xb
 1140 063b DA       		.byte	0xda
ARM GAS  C:\Users\ADMINI~1\AppData\Local\Temp\ccacRClR.s 			page 21


 1141 063c 7D060000 		.4byte	0x67d
 1142 0640 06       		.uleb128 0x6
 1143 0641 8A040000 		.4byte	.LASF81
 1144 0645 0B       		.byte	0xb
 1145 0646 DB       		.byte	0xdb
 1146 0647 7D060000 		.4byte	0x67d
 1147 064b 00       		.byte	0
 1148 064c 06       		.uleb128 0x6
 1149 064d 55040000 		.4byte	.LASF82
 1150 0651 0B       		.byte	0xb
 1151 0652 DC       		.byte	0xdc
 1152 0653 83060000 		.4byte	0x683
 1153 0657 04       		.byte	0x4
 1154 0658 06       		.uleb128 0x6
 1155 0659 01020000 		.4byte	.LASF83
 1156 065d 0B       		.byte	0xb
 1157 065e DD       		.byte	0xdd
 1158 065f A2000000 		.4byte	0xa2
 1159 0663 08       		.byte	0x8
 1160 0664 06       		.uleb128 0x6
 1161 0665 BC010000 		.4byte	.LASF84
 1162 0669 0B       		.byte	0xb
 1163 066a DF       		.byte	0xdf
 1164 066b A2000000 		.4byte	0xa2
 1165 066f 09       		.byte	0x9
 1166 0670 06       		.uleb128 0x6
 1167 0671 9D000000 		.4byte	.LASF85
 1168 0675 0B       		.byte	0xb
 1169 0676 E0       		.byte	0xe0
 1170 0677 A2000000 		.4byte	0xa2
 1171 067b 0A       		.byte	0xa
 1172 067c 00       		.byte	0
 1173 067d 09       		.uleb128 0x9
 1174 067e 04       		.byte	0x4
 1175 067f 13050000 		.4byte	0x513
 1176 0683 09       		.uleb128 0x9
 1177 0684 04       		.byte	0x4
 1178 0685 01040000 		.4byte	0x401
 1179 0689 03       		.uleb128 0x3
 1180 068a 74030000 		.4byte	.LASF86
 1181 068e 0B       		.byte	0xb
 1182 068f E1       		.byte	0xe1
 1183 0690 38060000 		.4byte	0x638
 1184 0694 14       		.uleb128 0x14
 1185 0695 01       		.byte	0x1
 1186 0696 0C       		.byte	0xc
 1187 0697 5A       		.byte	0x5a
 1188 0698 C1060000 		.4byte	0x6c1
 1189 069c 15       		.uleb128 0x15
 1190 069d F3000000 		.4byte	.LASF87
 1191 06a1 00       		.sleb128 0
 1192 06a2 15       		.uleb128 0x15
 1193 06a3 4A000000 		.4byte	.LASF88
 1194 06a7 01       		.sleb128 1
 1195 06a8 15       		.uleb128 0x15
 1196 06a9 C4000000 		.4byte	.LASF89
 1197 06ad 02       		.sleb128 2
ARM GAS  C:\Users\ADMINI~1\AppData\Local\Temp\ccacRClR.s 			page 22


 1198 06ae 15       		.uleb128 0x15
 1199 06af 9D030000 		.4byte	.LASF90
 1200 06b3 03       		.sleb128 3
 1201 06b4 15       		.uleb128 0x15
 1202 06b5 91040000 		.4byte	.LASF91
 1203 06b9 04       		.sleb128 4
 1204 06ba 15       		.uleb128 0x15
 1205 06bb 3F040000 		.4byte	.LASF92
 1206 06bf 05       		.sleb128 5
 1207 06c0 00       		.byte	0
 1208 06c1 03       		.uleb128 0x3
 1209 06c2 25030000 		.4byte	.LASF93
 1210 06c6 0C       		.byte	0xc
 1211 06c7 61       		.byte	0x61
 1212 06c8 94060000 		.4byte	0x694
 1213 06cc 13       		.uleb128 0x13
 1214 06cd 54010000 		.4byte	.LASF94
 1215 06d1 0D       		.byte	0xd
 1216 06d2 3501     		.2byte	0x135
 1217 06d4 AD000000 		.4byte	0xad
 1218 06d8 13       		.uleb128 0x13
 1219 06d9 AB030000 		.4byte	.LASF95
 1220 06dd 0D       		.byte	0xd
 1221 06de 3A01     		.2byte	0x13a
 1222 06e0 C3000000 		.4byte	0xc3
 1223 06e4 16       		.uleb128 0x16
 1224 06e5 01       		.byte	0x1
 1225 06e6 0D       		.byte	0xd
 1226 06e7 3F01     		.2byte	0x13f
 1227 06e9 00070000 		.4byte	0x700
 1228 06ed 15       		.uleb128 0x15
 1229 06ee 0A030000 		.4byte	.LASF96
 1230 06f2 01       		.sleb128 1
 1231 06f3 15       		.uleb128 0x15
 1232 06f4 08020000 		.4byte	.LASF97
 1233 06f8 02       		.sleb128 2
 1234 06f9 15       		.uleb128 0x15
 1235 06fa 9F010000 		.4byte	.LASF98
 1236 06fe 03       		.sleb128 3
 1237 06ff 00       		.byte	0
 1238 0700 13       		.uleb128 0x13
 1239 0701 E1060000 		.4byte	.LASF99
 1240 0705 0D       		.byte	0xd
 1241 0706 4301     		.2byte	0x143
 1242 0708 E4060000 		.4byte	0x6e4
 1243 070c 16       		.uleb128 0x16
 1244 070d 01       		.byte	0x1
 1245 070e 0D       		.byte	0xd
 1246 070f 4801     		.2byte	0x148
 1247 0711 28070000 		.4byte	0x728
 1248 0715 15       		.uleb128 0x15
 1249 0716 6F020000 		.4byte	.LASF100
 1250 071a 01       		.sleb128 1
 1251 071b 15       		.uleb128 0x15
 1252 071c 53000000 		.4byte	.LASF101
 1253 0720 02       		.sleb128 2
 1254 0721 15       		.uleb128 0x15
ARM GAS  C:\Users\ADMINI~1\AppData\Local\Temp\ccacRClR.s 			page 23


 1255 0722 30030000 		.4byte	.LASF102
 1256 0726 03       		.sleb128 3
 1257 0727 00       		.byte	0
 1258 0728 13       		.uleb128 0x13
 1259 0729 06000000 		.4byte	.LASF103
 1260 072d 0D       		.byte	0xd
 1261 072e 4C01     		.2byte	0x14c
 1262 0730 0C070000 		.4byte	0x70c
 1263 0734 11       		.uleb128 0x11
 1264 0735 0C       		.byte	0xc
 1265 0736 0D       		.byte	0xd
 1266 0737 5101     		.2byte	0x151
 1267 0739 65070000 		.4byte	0x765
 1268 073d 12       		.uleb128 0x12
 1269 073e C6010000 		.4byte	.LASF104
 1270 0742 0D       		.byte	0xd
 1271 0743 5201     		.2byte	0x152
 1272 0745 00070000 		.4byte	0x700
 1273 0749 00       		.byte	0
 1274 074a 12       		.uleb128 0x12
 1275 074b E3030000 		.4byte	.LASF105
 1276 074f 0D       		.byte	0xd
 1277 0750 5301     		.2byte	0x153
 1278 0752 C3000000 		.4byte	0xc3
 1279 0756 04       		.byte	0x4
 1280 0757 12       		.uleb128 0x12
 1281 0758 CC020000 		.4byte	.LASF106
 1282 075c 0D       		.byte	0xd
 1283 075d 5601     		.2byte	0x156
 1284 075f 28070000 		.4byte	0x728
 1285 0763 08       		.byte	0x8
 1286 0764 00       		.byte	0
 1287 0765 13       		.uleb128 0x13
 1288 0766 73010000 		.4byte	.LASF107
 1289 076a 0D       		.byte	0xd
 1290 076b 5801     		.2byte	0x158
 1291 076d 34070000 		.4byte	0x734
 1292 0771 13       		.uleb128 0x13
 1293 0772 2F020000 		.4byte	.LASF108
 1294 0776 0D       		.byte	0xd
 1295 0777 5D01     		.2byte	0x15d
 1296 0779 7D070000 		.4byte	0x77d
 1297 077d 0B       		.uleb128 0xb
 1298 077e 2F020000 		.4byte	.LASF108
 1299 0782 38       		.byte	0x38
 1300 0783 0D       		.byte	0xd
 1301 0784 6201     		.2byte	0x162
 1302 0786 1A080000 		.4byte	0x81a
 1303 078a 12       		.uleb128 0x12
 1304 078b 5E010000 		.4byte	.LASF109
 1305 078f 0D       		.byte	0xd
 1306 0790 6601     		.2byte	0x166
 1307 0792 C1060000 		.4byte	0x6c1
 1308 0796 00       		.byte	0
 1309 0797 12       		.uleb128 0x12
 1310 0798 B6040000 		.4byte	.LASF110
 1311 079c 0D       		.byte	0xd
ARM GAS  C:\Users\ADMINI~1\AppData\Local\Temp\ccacRClR.s 			page 24


 1312 079d 6A01     		.2byte	0x16a
 1313 079f 1A080000 		.4byte	0x81a
 1314 07a3 04       		.byte	0x4
 1315 07a4 12       		.uleb128 0x12
 1316 07a5 F2010000 		.4byte	.LASF111
 1317 07a9 0D       		.byte	0xd
 1318 07aa 6E01     		.2byte	0x16e
 1319 07ac D8060000 		.4byte	0x6d8
 1320 07b0 08       		.byte	0x8
 1321 07b1 12       		.uleb128 0x12
 1322 07b2 64010000 		.4byte	.LASF112
 1323 07b6 0D       		.byte	0xd
 1324 07b7 7401     		.2byte	0x174
 1325 07b9 49040000 		.4byte	0x449
 1326 07bd 0C       		.byte	0xc
 1327 07be 12       		.uleb128 0x12
 1328 07bf B6030000 		.4byte	.LASF113
 1329 07c3 0D       		.byte	0xd
 1330 07c4 8001     		.2byte	0x180
 1331 07c6 56020000 		.4byte	0x256
 1332 07ca 1C       		.byte	0x1c
 1333 07cb 12       		.uleb128 0x12
 1334 07cc 25010000 		.4byte	.LASF114
 1335 07d0 0D       		.byte	0xd
 1336 07d1 8401     		.2byte	0x184
 1337 07d3 CC060000 		.4byte	0x6cc
 1338 07d7 20       		.byte	0x20
 1339 07d8 12       		.uleb128 0x12
 1340 07d9 8F010000 		.4byte	.LASF115
 1341 07dd 0D       		.byte	0xd
 1342 07de 8801     		.2byte	0x188
 1343 07e0 C3000000 		.4byte	0xc3
 1344 07e4 24       		.byte	0x24
 1345 07e5 12       		.uleb128 0x12
 1346 07e6 00030000 		.4byte	.LASF116
 1347 07ea 0D       		.byte	0xd
 1348 07eb 8C01     		.2byte	0x18c
 1349 07ed C3000000 		.4byte	0xc3
 1350 07f1 28       		.byte	0x28
 1351 07f2 12       		.uleb128 0x12
 1352 07f3 00000000 		.4byte	.LASF117
 1353 07f7 0D       		.byte	0xd
 1354 07f8 9001     		.2byte	0x190
 1355 07fa 25080000 		.4byte	0x825
 1356 07fe 2C       		.byte	0x2c
 1357 07ff 12       		.uleb128 0x12
 1358 0800 99010000 		.4byte	.LASF118
 1359 0804 0D       		.byte	0xd
 1360 0805 9401     		.2byte	0x194
 1361 0807 25080000 		.4byte	0x825
 1362 080b 30       		.byte	0x30
 1363 080c 0C       		.uleb128 0xc
 1364 080d 69326300 		.ascii	"i2c\000"
 1365 0811 0D       		.byte	0xd
 1366 0812 9801     		.2byte	0x198
 1367 0814 30080000 		.4byte	0x830
 1368 0818 34       		.byte	0x34
ARM GAS  C:\Users\ADMINI~1\AppData\Local\Temp\ccacRClR.s 			page 25


 1369 0819 00       		.byte	0
 1370 081a 09       		.uleb128 0x9
 1371 081b 04       		.byte	0x4
 1372 081c 20080000 		.4byte	0x820
 1373 0820 10       		.uleb128 0x10
 1374 0821 65070000 		.4byte	0x765
 1375 0825 09       		.uleb128 0x9
 1376 0826 04       		.byte	0x4
 1377 0827 2B080000 		.4byte	0x82b
 1378 082b 10       		.uleb128 0x10
 1379 082c 89060000 		.4byte	0x689
 1380 0830 09       		.uleb128 0x9
 1381 0831 04       		.byte	0x4
 1382 0832 2C060000 		.4byte	0x62c
 1383 0836 17       		.uleb128 0x17
 1384 0837 C7060000 		.4byte	.LASF119
 1385 083b 01       		.byte	0x1
 1386 083c 47       		.byte	0x47
 1387 083d 00000000 		.4byte	.LFB118
 1388 0841 04000000 		.4byte	.LFE118-.LFB118
 1389 0845 01       		.uleb128 0x1
 1390 0846 9C       		.byte	0x9c
 1391 0847 55080000 		.4byte	0x855
 1392 084b 18       		.uleb128 0x18
 1393 084c 04000000 		.4byte	.LVL0
 1394 0850 E50A0000 		.4byte	0xae5
 1395 0854 00       		.byte	0
 1396 0855 17       		.uleb128 0x17
 1397 0856 ED060000 		.4byte	.LASF120
 1398 085a 01       		.byte	0x1
 1399 085b 52       		.byte	0x52
 1400 085c 00000000 		.4byte	.LFB119
 1401 0860 0E000000 		.4byte	.LFE119-.LFB119
 1402 0864 01       		.uleb128 0x1
 1403 0865 9C       		.byte	0x9c
 1404 0866 8D080000 		.4byte	0x88d
 1405 086a 19       		.uleb128 0x19
 1406 086b BF000000 		.4byte	.LASF122
 1407 086f 01       		.byte	0x1
 1408 0870 52       		.byte	0x52
 1409 0871 8D080000 		.4byte	0x88d
 1410 0875 00000000 		.4byte	.LLST0
 1411 0879 1A       		.uleb128 0x1a
 1412 087a 0E000000 		.4byte	.LVL3
 1413 087e ED0A0000 		.4byte	0xaed
 1414 0882 1B       		.uleb128 0x1b
 1415 0883 01       		.uleb128 0x1
 1416 0884 50       		.byte	0x50
 1417 0885 05       		.uleb128 0x5
 1418 0886 F3       		.byte	0xf3
 1419 0887 01       		.uleb128 0x1
 1420 0888 50       		.byte	0x50
 1421 0889 23       		.byte	0x23
 1422 088a 0C       		.uleb128 0xc
 1423 088b 00       		.byte	0
 1424 088c 00       		.byte	0
 1425 088d 09       		.uleb128 0x9
ARM GAS  C:\Users\ADMINI~1\AppData\Local\Temp\ccacRClR.s 			page 26


 1426 088e 04       		.byte	0x4
 1427 088f 71070000 		.4byte	0x771
 1428 0893 17       		.uleb128 0x17
 1429 0894 C3020000 		.4byte	.LASF121
 1430 0898 01       		.byte	0x1
 1431 0899 6C       		.byte	0x6c
 1432 089a 00000000 		.4byte	.LFB120
 1433 089e 14000000 		.4byte	.LFE120-.LFB120
 1434 08a2 01       		.uleb128 0x1
 1435 08a3 9C       		.byte	0x9c
 1436 08a4 D7080000 		.4byte	0x8d7
 1437 08a8 19       		.uleb128 0x19
 1438 08a9 BF000000 		.4byte	.LASF122
 1439 08ad 01       		.byte	0x1
 1440 08ae 6C       		.byte	0x6c
 1441 08af 8D080000 		.4byte	0x88d
 1442 08b3 2E000000 		.4byte	.LLST1
 1443 08b7 19       		.uleb128 0x19
 1444 08b8 B6040000 		.4byte	.LASF110
 1445 08bc 01       		.byte	0x1
 1446 08bd 6C       		.byte	0x6c
 1447 08be 1A080000 		.4byte	0x81a
 1448 08c2 4C000000 		.4byte	.LLST2
 1449 08c6 1C       		.uleb128 0x1c
 1450 08c7 0C000000 		.4byte	.LVL5
 1451 08cb FE0A0000 		.4byte	0xafe
 1452 08cf 1B       		.uleb128 0x1b
 1453 08d0 01       		.uleb128 0x1
 1454 08d1 50       		.byte	0x50
 1455 08d2 02       		.uleb128 0x2
 1456 08d3 74       		.byte	0x74
 1457 08d4 00       		.sleb128 0
 1458 08d5 00       		.byte	0
 1459 08d6 00       		.byte	0
 1460 08d7 17       		.uleb128 0x17
 1461 08d8 F8020000 		.4byte	.LASF123
 1462 08dc 01       		.byte	0x1
 1463 08dd 82       		.byte	0x82
 1464 08de 00000000 		.4byte	.LFB121
 1465 08e2 12000000 		.4byte	.LFE121-.LFB121
 1466 08e6 01       		.uleb128 0x1
 1467 08e7 9C       		.byte	0x9c
 1468 08e8 0C090000 		.4byte	0x90c
 1469 08ec 19       		.uleb128 0x19
 1470 08ed BF000000 		.4byte	.LASF122
 1471 08f1 01       		.byte	0x1
 1472 08f2 82       		.byte	0x82
 1473 08f3 8D080000 		.4byte	0x88d
 1474 08f7 6D000000 		.4byte	.LLST3
 1475 08fb 1C       		.uleb128 0x1c
 1476 08fc 0A000000 		.4byte	.LVL7
 1477 0900 100B0000 		.4byte	0xb10
 1478 0904 1B       		.uleb128 0x1b
 1479 0905 01       		.uleb128 0x1
 1480 0906 50       		.byte	0x50
 1481 0907 02       		.uleb128 0x2
 1482 0908 74       		.byte	0x74
ARM GAS  C:\Users\ADMINI~1\AppData\Local\Temp\ccacRClR.s 			page 27


 1483 0909 00       		.sleb128 0
 1484 090a 00       		.byte	0
 1485 090b 00       		.byte	0
 1486 090c 1D       		.uleb128 0x1d
 1487 090d 01040000 		.4byte	.LASF124
 1488 0911 01       		.byte	0x1
 1489 0912 98       		.byte	0x98
 1490 0913 D8060000 		.4byte	0x6d8
 1491 0917 00000000 		.4byte	.LFB122
 1492 091b 04000000 		.4byte	.LFE122-.LFB122
 1493 091f 01       		.uleb128 0x1
 1494 0920 9C       		.byte	0x9c
 1495 0921 35090000 		.4byte	0x935
 1496 0925 19       		.uleb128 0x19
 1497 0926 BF000000 		.4byte	.LASF122
 1498 092a 01       		.byte	0x1
 1499 092b 98       		.byte	0x98
 1500 092c 8D080000 		.4byte	0x88d
 1501 0930 8B000000 		.4byte	.LLST4
 1502 0934 00       		.byte	0
 1503 0935 1D       		.uleb128 0x1d
 1504 0936 CE000000 		.4byte	.LASF125
 1505 093a 01       		.byte	0x1
 1506 093b B9       		.byte	0xb9
 1507 093c 0C010000 		.4byte	0x10c
 1508 0940 00000000 		.4byte	.LFB123
 1509 0944 34000000 		.4byte	.LFE123-.LFB123
 1510 0948 01       		.uleb128 0x1
 1511 0949 9C       		.byte	0x9c
 1512 094a E0090000 		.4byte	0x9e0
 1513 094e 19       		.uleb128 0x19
 1514 094f BF000000 		.4byte	.LASF122
 1515 0953 01       		.byte	0x1
 1516 0954 B9       		.byte	0xb9
 1517 0955 8D080000 		.4byte	0x88d
 1518 0959 AC000000 		.4byte	.LLST5
 1519 095d 19       		.uleb128 0x19
 1520 095e 25010000 		.4byte	.LASF114
 1521 0962 01       		.byte	0x1
 1522 0963 BA       		.byte	0xba
 1523 0964 CC060000 		.4byte	0x6cc
 1524 0968 CA000000 		.4byte	.LLST6
 1525 096c 19       		.uleb128 0x19
 1526 096d 93060000 		.4byte	.LASF126
 1527 0971 01       		.byte	0x1
 1528 0972 BB       		.byte	0xbb
 1529 0973 A7040000 		.4byte	0x4a7
 1530 0977 EB000000 		.4byte	.LLST7
 1531 097b 19       		.uleb128 0x19
 1532 097c 15030000 		.4byte	.LASF127
 1533 0980 01       		.byte	0x1
 1534 0981 BC       		.byte	0xbc
 1535 0982 2C000000 		.4byte	0x2c
 1536 0986 0C010000 		.4byte	.LLST8
 1537 098a 1E       		.uleb128 0x1e
 1538 098b 8A000000 		.4byte	.LASF128
 1539 098f 01       		.byte	0x1
ARM GAS  C:\Users\ADMINI~1\AppData\Local\Temp\ccacRClR.s 			page 28


 1540 0990 BD       		.byte	0xbd
 1541 0991 A1040000 		.4byte	0x4a1
 1542 0995 02       		.uleb128 0x2
 1543 0996 91       		.byte	0x91
 1544 0997 00       		.sleb128 0
 1545 0998 1E       		.uleb128 0x1e
 1546 0999 F0020000 		.4byte	.LASF129
 1547 099d 01       		.byte	0x1
 1548 099e BE       		.byte	0xbe
 1549 099f 2C000000 		.4byte	0x2c
 1550 09a3 02       		.uleb128 0x2
 1551 09a4 91       		.byte	0x91
 1552 09a5 04       		.sleb128 4
 1553 09a6 1E       		.uleb128 0x1e
 1554 09a7 F9010000 		.4byte	.LASF130
 1555 09ab 01       		.byte	0x1
 1556 09ac BF       		.byte	0xbf
 1557 09ad 22010000 		.4byte	0x122
 1558 09b1 02       		.uleb128 0x2
 1559 09b2 91       		.byte	0x91
 1560 09b3 08       		.sleb128 8
 1561 09b4 1F       		.uleb128 0x1f
 1562 09b5 2D000000 		.4byte	.LASF57
 1563 09b9 01       		.byte	0x1
 1564 09ba C0       		.byte	0xc0
 1565 09bb 0C010000 		.4byte	0x10c
 1566 09bf 01       		.uleb128 0x1
 1567 09c0 50       		.byte	0x50
 1568 09c1 1C       		.uleb128 0x1c
 1569 09c2 24000000 		.4byte	.LVL11
 1570 09c6 220B0000 		.4byte	0xb22
 1571 09ca 1B       		.uleb128 0x1b
 1572 09cb 01       		.uleb128 0x1
 1573 09cc 53       		.byte	0x53
 1574 09cd 03       		.uleb128 0x3
 1575 09ce F3       		.byte	0xf3
 1576 09cf 01       		.uleb128 0x1
 1577 09d0 53       		.byte	0x53
 1578 09d1 1B       		.uleb128 0x1b
 1579 09d2 01       		.uleb128 0x1
 1580 09d3 52       		.byte	0x52
 1581 09d4 03       		.uleb128 0x3
 1582 09d5 F3       		.byte	0xf3
 1583 09d6 01       		.uleb128 0x1
 1584 09d7 52       		.byte	0x52
 1585 09d8 1B       		.uleb128 0x1b
 1586 09d9 01       		.uleb128 0x1
 1587 09da 50       		.byte	0x50
 1588 09db 02       		.uleb128 0x2
 1589 09dc 74       		.byte	0x74
 1590 09dd 00       		.sleb128 0
 1591 09de 00       		.byte	0
 1592 09df 00       		.byte	0
 1593 09e0 1D       		.uleb128 0x1d
 1594 09e1 99060000 		.4byte	.LASF131
 1595 09e5 01       		.byte	0x1
 1596 09e6 EC       		.byte	0xec
ARM GAS  C:\Users\ADMINI~1\AppData\Local\Temp\ccacRClR.s 			page 29


 1597 09e7 0C010000 		.4byte	0x10c
 1598 09eb 00000000 		.4byte	.LFB124
 1599 09ef 28000000 		.4byte	.LFE124-.LFB124
 1600 09f3 01       		.uleb128 0x1
 1601 09f4 9C       		.byte	0x9c
 1602 09f5 6F0A0000 		.4byte	0xa6f
 1603 09f9 19       		.uleb128 0x19
 1604 09fa BF000000 		.4byte	.LASF122
 1605 09fe 01       		.byte	0x1
 1606 09ff EC       		.byte	0xec
 1607 0a00 8D080000 		.4byte	0x88d
 1608 0a04 2D010000 		.4byte	.LLST9
 1609 0a08 19       		.uleb128 0x19
 1610 0a09 25010000 		.4byte	.LASF114
 1611 0a0d 01       		.byte	0x1
 1612 0a0e ED       		.byte	0xed
 1613 0a0f CC060000 		.4byte	0x6cc
 1614 0a13 4B010000 		.4byte	.LLST10
 1615 0a17 19       		.uleb128 0x19
 1616 0a18 8A000000 		.4byte	.LASF128
 1617 0a1c 01       		.byte	0x1
 1618 0a1d EE       		.byte	0xee
 1619 0a1e A1040000 		.4byte	0x4a1
 1620 0a22 6C010000 		.4byte	.LLST11
 1621 0a26 19       		.uleb128 0x19
 1622 0a27 F0020000 		.4byte	.LASF129
 1623 0a2b 01       		.byte	0x1
 1624 0a2c EF       		.byte	0xef
 1625 0a2d 2C000000 		.4byte	0x2c
 1626 0a31 8D010000 		.4byte	.LLST12
 1627 0a35 1E       		.uleb128 0x1e
 1628 0a36 F9010000 		.4byte	.LASF130
 1629 0a3a 01       		.byte	0x1
 1630 0a3b F0       		.byte	0xf0
 1631 0a3c 22010000 		.4byte	0x122
 1632 0a40 02       		.uleb128 0x2
 1633 0a41 91       		.byte	0x91
 1634 0a42 00       		.sleb128 0
 1635 0a43 1F       		.uleb128 0x1f
 1636 0a44 2D000000 		.4byte	.LASF57
 1637 0a48 01       		.byte	0x1
 1638 0a49 F2       		.byte	0xf2
 1639 0a4a 0C010000 		.4byte	0x10c
 1640 0a4e 01       		.uleb128 0x1
 1641 0a4f 50       		.byte	0x50
 1642 0a50 1C       		.uleb128 0x1c
 1643 0a51 18000000 		.4byte	.LVL13
 1644 0a55 560B0000 		.4byte	0xb56
 1645 0a59 1B       		.uleb128 0x1b
 1646 0a5a 01       		.uleb128 0x1
 1647 0a5b 53       		.byte	0x53
 1648 0a5c 03       		.uleb128 0x3
 1649 0a5d F3       		.byte	0xf3
 1650 0a5e 01       		.uleb128 0x1
 1651 0a5f 53       		.byte	0x53
 1652 0a60 1B       		.uleb128 0x1b
 1653 0a61 01       		.uleb128 0x1
ARM GAS  C:\Users\ADMINI~1\AppData\Local\Temp\ccacRClR.s 			page 30


 1654 0a62 52       		.byte	0x52
 1655 0a63 03       		.uleb128 0x3
 1656 0a64 F3       		.byte	0xf3
 1657 0a65 01       		.uleb128 0x1
 1658 0a66 52       		.byte	0x52
 1659 0a67 1B       		.uleb128 0x1b
 1660 0a68 01       		.uleb128 0x1
 1661 0a69 50       		.byte	0x50
 1662 0a6a 02       		.uleb128 0x2
 1663 0a6b 74       		.byte	0x74
 1664 0a6c 00       		.sleb128 0
 1665 0a6d 00       		.byte	0
 1666 0a6e 00       		.byte	0
 1667 0a6f 20       		.uleb128 0x20
 1668 0a70 87030000 		.4byte	.LASF132
 1669 0a74 01       		.byte	0x1
 1670 0a75 1401     		.2byte	0x114
 1671 0a77 00000000 		.4byte	.LFB125
 1672 0a7b 06000000 		.4byte	.LFE125-.LFB125
 1673 0a7f 01       		.uleb128 0x1
 1674 0a80 9C       		.byte	0x9c
 1675 0a81 A90A0000 		.4byte	0xaa9
 1676 0a85 21       		.uleb128 0x21
 1677 0a86 BF000000 		.4byte	.LASF122
 1678 0a8a 01       		.byte	0x1
 1679 0a8b 1401     		.2byte	0x114
 1680 0a8d 8D080000 		.4byte	0x88d
 1681 0a91 AE010000 		.4byte	.LLST13
 1682 0a95 1A       		.uleb128 0x1a
 1683 0a96 06000000 		.4byte	.LVL16
 1684 0a9a 800B0000 		.4byte	0xb80
 1685 0a9e 1B       		.uleb128 0x1b
 1686 0a9f 01       		.uleb128 0x1
 1687 0aa0 50       		.byte	0x50
 1688 0aa1 05       		.uleb128 0x5
 1689 0aa2 F3       		.byte	0xf3
 1690 0aa3 01       		.uleb128 0x1
 1691 0aa4 50       		.byte	0x50
 1692 0aa5 23       		.byte	0x23
 1693 0aa6 0C       		.uleb128 0xc
 1694 0aa7 00       		.byte	0
 1695 0aa8 00       		.byte	0
 1696 0aa9 20       		.uleb128 0x20
 1697 0aaa A4000000 		.4byte	.LASF133
 1698 0aae 01       		.byte	0x1
 1699 0aaf 2801     		.2byte	0x128
 1700 0ab1 00000000 		.4byte	.LFB126
 1701 0ab5 04000000 		.4byte	.LFE126-.LFB126
 1702 0ab9 01       		.uleb128 0x1
 1703 0aba 9C       		.byte	0x9c
 1704 0abb D90A0000 		.4byte	0xad9
 1705 0abf 21       		.uleb128 0x21
 1706 0ac0 BF000000 		.4byte	.LASF122
 1707 0ac4 01       		.byte	0x1
 1708 0ac5 2801     		.2byte	0x128
 1709 0ac7 8D080000 		.4byte	0x88d
 1710 0acb DC010000 		.4byte	.LLST14
ARM GAS  C:\Users\ADMINI~1\AppData\Local\Temp\ccacRClR.s 			page 31


 1711 0acf 18       		.uleb128 0x18
 1712 0ad0 04000000 		.4byte	.LVL18
 1713 0ad4 910B0000 		.4byte	0xb91
 1714 0ad8 00       		.byte	0
 1715 0ad9 22       		.uleb128 0x22
 1716 0ada B2000000 		.4byte	.LASF143
 1717 0ade 0E       		.byte	0xe
 1718 0adf 9806     		.2byte	0x698
 1719 0ae1 B7040000 		.4byte	0x4b7
 1720 0ae5 23       		.uleb128 0x23
 1721 0ae6 60060000 		.4byte	.LASF144
 1722 0aea 0D       		.byte	0xd
 1723 0aeb BD01     		.2byte	0x1bd
 1724 0aed 24       		.uleb128 0x24
 1725 0aee 56060000 		.4byte	.LASF134
 1726 0af2 09       		.byte	0x9
 1727 0af3 38       		.byte	0x38
 1728 0af4 FE0A0000 		.4byte	0xafe
 1729 0af8 25       		.uleb128 0x25
 1730 0af9 9B040000 		.4byte	0x49b
 1731 0afd 00       		.byte	0
 1732 0afe 26       		.uleb128 0x26
 1733 0aff AC020000 		.4byte	.LASF135
 1734 0b03 0D       		.byte	0xd
 1735 0b04 BE01     		.2byte	0x1be
 1736 0b06 100B0000 		.4byte	0xb10
 1737 0b0a 25       		.uleb128 0x25
 1738 0b0b 8D080000 		.4byte	0x88d
 1739 0b0f 00       		.byte	0
 1740 0b10 26       		.uleb128 0x26
 1741 0b11 9F020000 		.4byte	.LASF136
 1742 0b15 0D       		.byte	0xd
 1743 0b16 BF01     		.2byte	0x1bf
 1744 0b18 220B0000 		.4byte	0xb22
 1745 0b1c 25       		.uleb128 0x25
 1746 0b1d 8D080000 		.4byte	0x88d
 1747 0b21 00       		.byte	0
 1748 0b22 27       		.uleb128 0x27
 1749 0b23 2A010000 		.4byte	.LASF137
 1750 0b27 0D       		.byte	0xd
 1751 0b28 C001     		.2byte	0x1c0
 1752 0b2a 0C010000 		.4byte	0x10c
 1753 0b2e 560B0000 		.4byte	0xb56
 1754 0b32 25       		.uleb128 0x25
 1755 0b33 8D080000 		.4byte	0x88d
 1756 0b37 25       		.uleb128 0x25
 1757 0b38 CC060000 		.4byte	0x6cc
 1758 0b3c 25       		.uleb128 0x25
 1759 0b3d A7040000 		.4byte	0x4a7
 1760 0b41 25       		.uleb128 0x25
 1761 0b42 2C000000 		.4byte	0x2c
 1762 0b46 25       		.uleb128 0x25
 1763 0b47 A1040000 		.4byte	0x4a1
 1764 0b4b 25       		.uleb128 0x25
 1765 0b4c 2C000000 		.4byte	0x2c
 1766 0b50 25       		.uleb128 0x25
 1767 0b51 22010000 		.4byte	0x122
ARM GAS  C:\Users\ADMINI~1\AppData\Local\Temp\ccacRClR.s 			page 32


 1768 0b55 00       		.byte	0
 1769 0b56 27       		.uleb128 0x27
 1770 0b57 65000000 		.4byte	.LASF138
 1771 0b5b 0D       		.byte	0xd
 1772 0b5c C401     		.2byte	0x1c4
 1773 0b5e 0C010000 		.4byte	0x10c
 1774 0b62 800B0000 		.4byte	0xb80
 1775 0b66 25       		.uleb128 0x25
 1776 0b67 8D080000 		.4byte	0x88d
 1777 0b6b 25       		.uleb128 0x25
 1778 0b6c CC060000 		.4byte	0x6cc
 1779 0b70 25       		.uleb128 0x25
 1780 0b71 A1040000 		.4byte	0x4a1
 1781 0b75 25       		.uleb128 0x25
 1782 0b76 2C000000 		.4byte	0x2c
 1783 0b7a 25       		.uleb128 0x25
 1784 0b7b 22010000 		.4byte	0x122
 1785 0b7f 00       		.byte	0
 1786 0b80 24       		.uleb128 0x24
 1787 0b81 DE020000 		.4byte	.LASF139
 1788 0b85 09       		.byte	0x9
 1789 0b86 39       		.byte	0x39
 1790 0b87 910B0000 		.4byte	0xb91
 1791 0b8b 25       		.uleb128 0x25
 1792 0b8c 9B040000 		.4byte	0x49b
 1793 0b90 00       		.byte	0
 1794 0b91 28       		.uleb128 0x28
 1795 0b92 E7000000 		.4byte	.LASF145
 1796 0b96 09       		.byte	0x9
 1797 0b97 3D       		.byte	0x3d
 1798 0b98 9B040000 		.4byte	0x49b
 1799 0b9c 00       		.byte	0
 1800              		.section	.debug_abbrev,"",%progbits
 1801              	.Ldebug_abbrev0:
 1802 0000 01       		.uleb128 0x1
 1803 0001 11       		.uleb128 0x11
 1804 0002 01       		.byte	0x1
 1805 0003 25       		.uleb128 0x25
 1806 0004 0E       		.uleb128 0xe
 1807 0005 13       		.uleb128 0x13
 1808 0006 0B       		.uleb128 0xb
 1809 0007 03       		.uleb128 0x3
 1810 0008 0E       		.uleb128 0xe
 1811 0009 1B       		.uleb128 0x1b
 1812 000a 0E       		.uleb128 0xe
 1813 000b 55       		.uleb128 0x55
 1814 000c 17       		.uleb128 0x17
 1815 000d 11       		.uleb128 0x11
 1816 000e 01       		.uleb128 0x1
 1817 000f 10       		.uleb128 0x10
 1818 0010 17       		.uleb128 0x17
 1819 0011 00       		.byte	0
 1820 0012 00       		.byte	0
 1821 0013 02       		.uleb128 0x2
 1822 0014 24       		.uleb128 0x24
 1823 0015 00       		.byte	0
 1824 0016 0B       		.uleb128 0xb
ARM GAS  C:\Users\ADMINI~1\AppData\Local\Temp\ccacRClR.s 			page 33


 1825 0017 0B       		.uleb128 0xb
 1826 0018 3E       		.uleb128 0x3e
 1827 0019 0B       		.uleb128 0xb
 1828 001a 03       		.uleb128 0x3
 1829 001b 08       		.uleb128 0x8
 1830 001c 00       		.byte	0
 1831 001d 00       		.byte	0
 1832 001e 03       		.uleb128 0x3
 1833 001f 16       		.uleb128 0x16
 1834 0020 00       		.byte	0
 1835 0021 03       		.uleb128 0x3
 1836 0022 0E       		.uleb128 0xe
 1837 0023 3A       		.uleb128 0x3a
 1838 0024 0B       		.uleb128 0xb
 1839 0025 3B       		.uleb128 0x3b
 1840 0026 0B       		.uleb128 0xb
 1841 0027 49       		.uleb128 0x49
 1842 0028 13       		.uleb128 0x13
 1843 0029 00       		.byte	0
 1844 002a 00       		.byte	0
 1845 002b 04       		.uleb128 0x4
 1846 002c 24       		.uleb128 0x24
 1847 002d 00       		.byte	0
 1848 002e 0B       		.uleb128 0xb
 1849 002f 0B       		.uleb128 0xb
 1850 0030 3E       		.uleb128 0x3e
 1851 0031 0B       		.uleb128 0xb
 1852 0032 03       		.uleb128 0x3
 1853 0033 0E       		.uleb128 0xe
 1854 0034 00       		.byte	0
 1855 0035 00       		.byte	0
 1856 0036 05       		.uleb128 0x5
 1857 0037 13       		.uleb128 0x13
 1858 0038 01       		.byte	0x1
 1859 0039 03       		.uleb128 0x3
 1860 003a 0E       		.uleb128 0xe
 1861 003b 0B       		.uleb128 0xb
 1862 003c 0B       		.uleb128 0xb
 1863 003d 3A       		.uleb128 0x3a
 1864 003e 0B       		.uleb128 0xb
 1865 003f 3B       		.uleb128 0x3b
 1866 0040 0B       		.uleb128 0xb
 1867 0041 01       		.uleb128 0x1
 1868 0042 13       		.uleb128 0x13
 1869 0043 00       		.byte	0
 1870 0044 00       		.byte	0
 1871 0045 06       		.uleb128 0x6
 1872 0046 0D       		.uleb128 0xd
 1873 0047 00       		.byte	0
 1874 0048 03       		.uleb128 0x3
 1875 0049 0E       		.uleb128 0xe
 1876 004a 3A       		.uleb128 0x3a
 1877 004b 0B       		.uleb128 0xb
 1878 004c 3B       		.uleb128 0x3b
 1879 004d 0B       		.uleb128 0xb
 1880 004e 49       		.uleb128 0x49
 1881 004f 13       		.uleb128 0x13
ARM GAS  C:\Users\ADMINI~1\AppData\Local\Temp\ccacRClR.s 			page 34


 1882 0050 38       		.uleb128 0x38
 1883 0051 0B       		.uleb128 0xb
 1884 0052 00       		.byte	0
 1885 0053 00       		.byte	0
 1886 0054 07       		.uleb128 0x7
 1887 0055 0D       		.uleb128 0xd
 1888 0056 00       		.byte	0
 1889 0057 03       		.uleb128 0x3
 1890 0058 08       		.uleb128 0x8
 1891 0059 3A       		.uleb128 0x3a
 1892 005a 0B       		.uleb128 0xb
 1893 005b 3B       		.uleb128 0x3b
 1894 005c 0B       		.uleb128 0xb
 1895 005d 49       		.uleb128 0x49
 1896 005e 13       		.uleb128 0x13
 1897 005f 38       		.uleb128 0x38
 1898 0060 0B       		.uleb128 0xb
 1899 0061 00       		.byte	0
 1900 0062 00       		.byte	0
 1901 0063 08       		.uleb128 0x8
 1902 0064 13       		.uleb128 0x13
 1903 0065 01       		.byte	0x1
 1904 0066 0B       		.uleb128 0xb
 1905 0067 0B       		.uleb128 0xb
 1906 0068 3A       		.uleb128 0x3a
 1907 0069 0B       		.uleb128 0xb
 1908 006a 3B       		.uleb128 0x3b
 1909 006b 0B       		.uleb128 0xb
 1910 006c 01       		.uleb128 0x1
 1911 006d 13       		.uleb128 0x13
 1912 006e 00       		.byte	0
 1913 006f 00       		.byte	0
 1914 0070 09       		.uleb128 0x9
 1915 0071 0F       		.uleb128 0xf
 1916 0072 00       		.byte	0
 1917 0073 0B       		.uleb128 0xb
 1918 0074 0B       		.uleb128 0xb
 1919 0075 49       		.uleb128 0x49
 1920 0076 13       		.uleb128 0x13
 1921 0077 00       		.byte	0
 1922 0078 00       		.byte	0
 1923 0079 0A       		.uleb128 0xa
 1924 007a 0F       		.uleb128 0xf
 1925 007b 00       		.byte	0
 1926 007c 0B       		.uleb128 0xb
 1927 007d 0B       		.uleb128 0xb
 1928 007e 00       		.byte	0
 1929 007f 00       		.byte	0
 1930 0080 0B       		.uleb128 0xb
 1931 0081 13       		.uleb128 0x13
 1932 0082 01       		.byte	0x1
 1933 0083 03       		.uleb128 0x3
 1934 0084 0E       		.uleb128 0xe
 1935 0085 0B       		.uleb128 0xb
 1936 0086 0B       		.uleb128 0xb
 1937 0087 3A       		.uleb128 0x3a
 1938 0088 0B       		.uleb128 0xb
ARM GAS  C:\Users\ADMINI~1\AppData\Local\Temp\ccacRClR.s 			page 35


 1939 0089 3B       		.uleb128 0x3b
 1940 008a 05       		.uleb128 0x5
 1941 008b 01       		.uleb128 0x1
 1942 008c 13       		.uleb128 0x13
 1943 008d 00       		.byte	0
 1944 008e 00       		.byte	0
 1945 008f 0C       		.uleb128 0xc
 1946 0090 0D       		.uleb128 0xd
 1947 0091 00       		.byte	0
 1948 0092 03       		.uleb128 0x3
 1949 0093 08       		.uleb128 0x8
 1950 0094 3A       		.uleb128 0x3a
 1951 0095 0B       		.uleb128 0xb
 1952 0096 3B       		.uleb128 0x3b
 1953 0097 05       		.uleb128 0x5
 1954 0098 49       		.uleb128 0x49
 1955 0099 13       		.uleb128 0x13
 1956 009a 38       		.uleb128 0x38
 1957 009b 0B       		.uleb128 0xb
 1958 009c 00       		.byte	0
 1959 009d 00       		.byte	0
 1960 009e 0D       		.uleb128 0xd
 1961 009f 35       		.uleb128 0x35
 1962 00a0 00       		.byte	0
 1963 00a1 49       		.uleb128 0x49
 1964 00a2 13       		.uleb128 0x13
 1965 00a3 00       		.byte	0
 1966 00a4 00       		.byte	0
 1967 00a5 0E       		.uleb128 0xe
 1968 00a6 17       		.uleb128 0x17
 1969 00a7 01       		.byte	0x1
 1970 00a8 0B       		.uleb128 0xb
 1971 00a9 0B       		.uleb128 0xb
 1972 00aa 3A       		.uleb128 0x3a
 1973 00ab 0B       		.uleb128 0xb
 1974 00ac 3B       		.uleb128 0x3b
 1975 00ad 0B       		.uleb128 0xb
 1976 00ae 01       		.uleb128 0x1
 1977 00af 13       		.uleb128 0x13
 1978 00b0 00       		.byte	0
 1979 00b1 00       		.byte	0
 1980 00b2 0F       		.uleb128 0xf
 1981 00b3 0D       		.uleb128 0xd
 1982 00b4 00       		.byte	0
 1983 00b5 03       		.uleb128 0x3
 1984 00b6 0E       		.uleb128 0xe
 1985 00b7 3A       		.uleb128 0x3a
 1986 00b8 0B       		.uleb128 0xb
 1987 00b9 3B       		.uleb128 0x3b
 1988 00ba 0B       		.uleb128 0xb
 1989 00bb 49       		.uleb128 0x49
 1990 00bc 13       		.uleb128 0x13
 1991 00bd 00       		.byte	0
 1992 00be 00       		.byte	0
 1993 00bf 10       		.uleb128 0x10
 1994 00c0 26       		.uleb128 0x26
 1995 00c1 00       		.byte	0
ARM GAS  C:\Users\ADMINI~1\AppData\Local\Temp\ccacRClR.s 			page 36


 1996 00c2 49       		.uleb128 0x49
 1997 00c3 13       		.uleb128 0x13
 1998 00c4 00       		.byte	0
 1999 00c5 00       		.byte	0
 2000 00c6 11       		.uleb128 0x11
 2001 00c7 13       		.uleb128 0x13
 2002 00c8 01       		.byte	0x1
 2003 00c9 0B       		.uleb128 0xb
 2004 00ca 0B       		.uleb128 0xb
 2005 00cb 3A       		.uleb128 0x3a
 2006 00cc 0B       		.uleb128 0xb
 2007 00cd 3B       		.uleb128 0x3b
 2008 00ce 05       		.uleb128 0x5
 2009 00cf 01       		.uleb128 0x1
 2010 00d0 13       		.uleb128 0x13
 2011 00d1 00       		.byte	0
 2012 00d2 00       		.byte	0
 2013 00d3 12       		.uleb128 0x12
 2014 00d4 0D       		.uleb128 0xd
 2015 00d5 00       		.byte	0
 2016 00d6 03       		.uleb128 0x3
 2017 00d7 0E       		.uleb128 0xe
 2018 00d8 3A       		.uleb128 0x3a
 2019 00d9 0B       		.uleb128 0xb
 2020 00da 3B       		.uleb128 0x3b
 2021 00db 05       		.uleb128 0x5
 2022 00dc 49       		.uleb128 0x49
 2023 00dd 13       		.uleb128 0x13
 2024 00de 38       		.uleb128 0x38
 2025 00df 0B       		.uleb128 0xb
 2026 00e0 00       		.byte	0
 2027 00e1 00       		.byte	0
 2028 00e2 13       		.uleb128 0x13
 2029 00e3 16       		.uleb128 0x16
 2030 00e4 00       		.byte	0
 2031 00e5 03       		.uleb128 0x3
 2032 00e6 0E       		.uleb128 0xe
 2033 00e7 3A       		.uleb128 0x3a
 2034 00e8 0B       		.uleb128 0xb
 2035 00e9 3B       		.uleb128 0x3b
 2036 00ea 05       		.uleb128 0x5
 2037 00eb 49       		.uleb128 0x49
 2038 00ec 13       		.uleb128 0x13
 2039 00ed 00       		.byte	0
 2040 00ee 00       		.byte	0
 2041 00ef 14       		.uleb128 0x14
 2042 00f0 04       		.uleb128 0x4
 2043 00f1 01       		.byte	0x1
 2044 00f2 0B       		.uleb128 0xb
 2045 00f3 0B       		.uleb128 0xb
 2046 00f4 3A       		.uleb128 0x3a
 2047 00f5 0B       		.uleb128 0xb
 2048 00f6 3B       		.uleb128 0x3b
 2049 00f7 0B       		.uleb128 0xb
 2050 00f8 01       		.uleb128 0x1
 2051 00f9 13       		.uleb128 0x13
 2052 00fa 00       		.byte	0
ARM GAS  C:\Users\ADMINI~1\AppData\Local\Temp\ccacRClR.s 			page 37


 2053 00fb 00       		.byte	0
 2054 00fc 15       		.uleb128 0x15
 2055 00fd 28       		.uleb128 0x28
 2056 00fe 00       		.byte	0
 2057 00ff 03       		.uleb128 0x3
 2058 0100 0E       		.uleb128 0xe
 2059 0101 1C       		.uleb128 0x1c
 2060 0102 0D       		.uleb128 0xd
 2061 0103 00       		.byte	0
 2062 0104 00       		.byte	0
 2063 0105 16       		.uleb128 0x16
 2064 0106 04       		.uleb128 0x4
 2065 0107 01       		.byte	0x1
 2066 0108 0B       		.uleb128 0xb
 2067 0109 0B       		.uleb128 0xb
 2068 010a 3A       		.uleb128 0x3a
 2069 010b 0B       		.uleb128 0xb
 2070 010c 3B       		.uleb128 0x3b
 2071 010d 05       		.uleb128 0x5
 2072 010e 01       		.uleb128 0x1
 2073 010f 13       		.uleb128 0x13
 2074 0110 00       		.byte	0
 2075 0111 00       		.byte	0
 2076 0112 17       		.uleb128 0x17
 2077 0113 2E       		.uleb128 0x2e
 2078 0114 01       		.byte	0x1
 2079 0115 3F       		.uleb128 0x3f
 2080 0116 19       		.uleb128 0x19
 2081 0117 03       		.uleb128 0x3
 2082 0118 0E       		.uleb128 0xe
 2083 0119 3A       		.uleb128 0x3a
 2084 011a 0B       		.uleb128 0xb
 2085 011b 3B       		.uleb128 0x3b
 2086 011c 0B       		.uleb128 0xb
 2087 011d 27       		.uleb128 0x27
 2088 011e 19       		.uleb128 0x19
 2089 011f 11       		.uleb128 0x11
 2090 0120 01       		.uleb128 0x1
 2091 0121 12       		.uleb128 0x12
 2092 0122 06       		.uleb128 0x6
 2093 0123 40       		.uleb128 0x40
 2094 0124 18       		.uleb128 0x18
 2095 0125 9742     		.uleb128 0x2117
 2096 0127 19       		.uleb128 0x19
 2097 0128 01       		.uleb128 0x1
 2098 0129 13       		.uleb128 0x13
 2099 012a 00       		.byte	0
 2100 012b 00       		.byte	0
 2101 012c 18       		.uleb128 0x18
 2102 012d 898201   		.uleb128 0x4109
 2103 0130 00       		.byte	0
 2104 0131 11       		.uleb128 0x11
 2105 0132 01       		.uleb128 0x1
 2106 0133 9542     		.uleb128 0x2115
 2107 0135 19       		.uleb128 0x19
 2108 0136 31       		.uleb128 0x31
 2109 0137 13       		.uleb128 0x13
ARM GAS  C:\Users\ADMINI~1\AppData\Local\Temp\ccacRClR.s 			page 38


 2110 0138 00       		.byte	0
 2111 0139 00       		.byte	0
 2112 013a 19       		.uleb128 0x19
 2113 013b 05       		.uleb128 0x5
 2114 013c 00       		.byte	0
 2115 013d 03       		.uleb128 0x3
 2116 013e 0E       		.uleb128 0xe
 2117 013f 3A       		.uleb128 0x3a
 2118 0140 0B       		.uleb128 0xb
 2119 0141 3B       		.uleb128 0x3b
 2120 0142 0B       		.uleb128 0xb
 2121 0143 49       		.uleb128 0x49
 2122 0144 13       		.uleb128 0x13
 2123 0145 02       		.uleb128 0x2
 2124 0146 17       		.uleb128 0x17
 2125 0147 00       		.byte	0
 2126 0148 00       		.byte	0
 2127 0149 1A       		.uleb128 0x1a
 2128 014a 898201   		.uleb128 0x4109
 2129 014d 01       		.byte	0x1
 2130 014e 11       		.uleb128 0x11
 2131 014f 01       		.uleb128 0x1
 2132 0150 9542     		.uleb128 0x2115
 2133 0152 19       		.uleb128 0x19
 2134 0153 31       		.uleb128 0x31
 2135 0154 13       		.uleb128 0x13
 2136 0155 00       		.byte	0
 2137 0156 00       		.byte	0
 2138 0157 1B       		.uleb128 0x1b
 2139 0158 8A8201   		.uleb128 0x410a
 2140 015b 00       		.byte	0
 2141 015c 02       		.uleb128 0x2
 2142 015d 18       		.uleb128 0x18
 2143 015e 9142     		.uleb128 0x2111
 2144 0160 18       		.uleb128 0x18
 2145 0161 00       		.byte	0
 2146 0162 00       		.byte	0
 2147 0163 1C       		.uleb128 0x1c
 2148 0164 898201   		.uleb128 0x4109
 2149 0167 01       		.byte	0x1
 2150 0168 11       		.uleb128 0x11
 2151 0169 01       		.uleb128 0x1
 2152 016a 31       		.uleb128 0x31
 2153 016b 13       		.uleb128 0x13
 2154 016c 00       		.byte	0
 2155 016d 00       		.byte	0
 2156 016e 1D       		.uleb128 0x1d
 2157 016f 2E       		.uleb128 0x2e
 2158 0170 01       		.byte	0x1
 2159 0171 3F       		.uleb128 0x3f
 2160 0172 19       		.uleb128 0x19
 2161 0173 03       		.uleb128 0x3
 2162 0174 0E       		.uleb128 0xe
 2163 0175 3A       		.uleb128 0x3a
 2164 0176 0B       		.uleb128 0xb
 2165 0177 3B       		.uleb128 0x3b
 2166 0178 0B       		.uleb128 0xb
ARM GAS  C:\Users\ADMINI~1\AppData\Local\Temp\ccacRClR.s 			page 39


 2167 0179 27       		.uleb128 0x27
 2168 017a 19       		.uleb128 0x19
 2169 017b 49       		.uleb128 0x49
 2170 017c 13       		.uleb128 0x13
 2171 017d 11       		.uleb128 0x11
 2172 017e 01       		.uleb128 0x1
 2173 017f 12       		.uleb128 0x12
 2174 0180 06       		.uleb128 0x6
 2175 0181 40       		.uleb128 0x40
 2176 0182 18       		.uleb128 0x18
 2177 0183 9742     		.uleb128 0x2117
 2178 0185 19       		.uleb128 0x19
 2179 0186 01       		.uleb128 0x1
 2180 0187 13       		.uleb128 0x13
 2181 0188 00       		.byte	0
 2182 0189 00       		.byte	0
 2183 018a 1E       		.uleb128 0x1e
 2184 018b 05       		.uleb128 0x5
 2185 018c 00       		.byte	0
 2186 018d 03       		.uleb128 0x3
 2187 018e 0E       		.uleb128 0xe
 2188 018f 3A       		.uleb128 0x3a
 2189 0190 0B       		.uleb128 0xb
 2190 0191 3B       		.uleb128 0x3b
 2191 0192 0B       		.uleb128 0xb
 2192 0193 49       		.uleb128 0x49
 2193 0194 13       		.uleb128 0x13
 2194 0195 02       		.uleb128 0x2
 2195 0196 18       		.uleb128 0x18
 2196 0197 00       		.byte	0
 2197 0198 00       		.byte	0
 2198 0199 1F       		.uleb128 0x1f
 2199 019a 34       		.uleb128 0x34
 2200 019b 00       		.byte	0
 2201 019c 03       		.uleb128 0x3
 2202 019d 0E       		.uleb128 0xe
 2203 019e 3A       		.uleb128 0x3a
 2204 019f 0B       		.uleb128 0xb
 2205 01a0 3B       		.uleb128 0x3b
 2206 01a1 0B       		.uleb128 0xb
 2207 01a2 49       		.uleb128 0x49
 2208 01a3 13       		.uleb128 0x13
 2209 01a4 02       		.uleb128 0x2
 2210 01a5 18       		.uleb128 0x18
 2211 01a6 00       		.byte	0
 2212 01a7 00       		.byte	0
 2213 01a8 20       		.uleb128 0x20
 2214 01a9 2E       		.uleb128 0x2e
 2215 01aa 01       		.byte	0x1
 2216 01ab 3F       		.uleb128 0x3f
 2217 01ac 19       		.uleb128 0x19
 2218 01ad 03       		.uleb128 0x3
 2219 01ae 0E       		.uleb128 0xe
 2220 01af 3A       		.uleb128 0x3a
 2221 01b0 0B       		.uleb128 0xb
 2222 01b1 3B       		.uleb128 0x3b
 2223 01b2 05       		.uleb128 0x5
ARM GAS  C:\Users\ADMINI~1\AppData\Local\Temp\ccacRClR.s 			page 40


 2224 01b3 27       		.uleb128 0x27
 2225 01b4 19       		.uleb128 0x19
 2226 01b5 11       		.uleb128 0x11
 2227 01b6 01       		.uleb128 0x1
 2228 01b7 12       		.uleb128 0x12
 2229 01b8 06       		.uleb128 0x6
 2230 01b9 40       		.uleb128 0x40
 2231 01ba 18       		.uleb128 0x18
 2232 01bb 9742     		.uleb128 0x2117
 2233 01bd 19       		.uleb128 0x19
 2234 01be 01       		.uleb128 0x1
 2235 01bf 13       		.uleb128 0x13
 2236 01c0 00       		.byte	0
 2237 01c1 00       		.byte	0
 2238 01c2 21       		.uleb128 0x21
 2239 01c3 05       		.uleb128 0x5
 2240 01c4 00       		.byte	0
 2241 01c5 03       		.uleb128 0x3
 2242 01c6 0E       		.uleb128 0xe
 2243 01c7 3A       		.uleb128 0x3a
 2244 01c8 0B       		.uleb128 0xb
 2245 01c9 3B       		.uleb128 0x3b
 2246 01ca 05       		.uleb128 0x5
 2247 01cb 49       		.uleb128 0x49
 2248 01cc 13       		.uleb128 0x13
 2249 01cd 02       		.uleb128 0x2
 2250 01ce 17       		.uleb128 0x17
 2251 01cf 00       		.byte	0
 2252 01d0 00       		.byte	0
 2253 01d1 22       		.uleb128 0x22
 2254 01d2 34       		.uleb128 0x34
 2255 01d3 00       		.byte	0
 2256 01d4 03       		.uleb128 0x3
 2257 01d5 0E       		.uleb128 0xe
 2258 01d6 3A       		.uleb128 0x3a
 2259 01d7 0B       		.uleb128 0xb
 2260 01d8 3B       		.uleb128 0x3b
 2261 01d9 05       		.uleb128 0x5
 2262 01da 49       		.uleb128 0x49
 2263 01db 13       		.uleb128 0x13
 2264 01dc 3F       		.uleb128 0x3f
 2265 01dd 19       		.uleb128 0x19
 2266 01de 3C       		.uleb128 0x3c
 2267 01df 19       		.uleb128 0x19
 2268 01e0 00       		.byte	0
 2269 01e1 00       		.byte	0
 2270 01e2 23       		.uleb128 0x23
 2271 01e3 2E       		.uleb128 0x2e
 2272 01e4 00       		.byte	0
 2273 01e5 3F       		.uleb128 0x3f
 2274 01e6 19       		.uleb128 0x19
 2275 01e7 03       		.uleb128 0x3
 2276 01e8 0E       		.uleb128 0xe
 2277 01e9 3A       		.uleb128 0x3a
 2278 01ea 0B       		.uleb128 0xb
 2279 01eb 3B       		.uleb128 0x3b
 2280 01ec 05       		.uleb128 0x5
ARM GAS  C:\Users\ADMINI~1\AppData\Local\Temp\ccacRClR.s 			page 41


 2281 01ed 27       		.uleb128 0x27
 2282 01ee 19       		.uleb128 0x19
 2283 01ef 3C       		.uleb128 0x3c
 2284 01f0 19       		.uleb128 0x19
 2285 01f1 00       		.byte	0
 2286 01f2 00       		.byte	0
 2287 01f3 24       		.uleb128 0x24
 2288 01f4 2E       		.uleb128 0x2e
 2289 01f5 01       		.byte	0x1
 2290 01f6 3F       		.uleb128 0x3f
 2291 01f7 19       		.uleb128 0x19
 2292 01f8 03       		.uleb128 0x3
 2293 01f9 0E       		.uleb128 0xe
 2294 01fa 3A       		.uleb128 0x3a
 2295 01fb 0B       		.uleb128 0xb
 2296 01fc 3B       		.uleb128 0x3b
 2297 01fd 0B       		.uleb128 0xb
 2298 01fe 27       		.uleb128 0x27
 2299 01ff 19       		.uleb128 0x19
 2300 0200 3C       		.uleb128 0x3c
 2301 0201 19       		.uleb128 0x19
 2302 0202 01       		.uleb128 0x1
 2303 0203 13       		.uleb128 0x13
 2304 0204 00       		.byte	0
 2305 0205 00       		.byte	0
 2306 0206 25       		.uleb128 0x25
 2307 0207 05       		.uleb128 0x5
 2308 0208 00       		.byte	0
 2309 0209 49       		.uleb128 0x49
 2310 020a 13       		.uleb128 0x13
 2311 020b 00       		.byte	0
 2312 020c 00       		.byte	0
 2313 020d 26       		.uleb128 0x26
 2314 020e 2E       		.uleb128 0x2e
 2315 020f 01       		.byte	0x1
 2316 0210 3F       		.uleb128 0x3f
 2317 0211 19       		.uleb128 0x19
 2318 0212 03       		.uleb128 0x3
 2319 0213 0E       		.uleb128 0xe
 2320 0214 3A       		.uleb128 0x3a
 2321 0215 0B       		.uleb128 0xb
 2322 0216 3B       		.uleb128 0x3b
 2323 0217 05       		.uleb128 0x5
 2324 0218 27       		.uleb128 0x27
 2325 0219 19       		.uleb128 0x19
 2326 021a 3C       		.uleb128 0x3c
 2327 021b 19       		.uleb128 0x19
 2328 021c 01       		.uleb128 0x1
 2329 021d 13       		.uleb128 0x13
 2330 021e 00       		.byte	0
 2331 021f 00       		.byte	0
 2332 0220 27       		.uleb128 0x27
 2333 0221 2E       		.uleb128 0x2e
 2334 0222 01       		.byte	0x1
 2335 0223 3F       		.uleb128 0x3f
 2336 0224 19       		.uleb128 0x19
 2337 0225 03       		.uleb128 0x3
ARM GAS  C:\Users\ADMINI~1\AppData\Local\Temp\ccacRClR.s 			page 42


 2338 0226 0E       		.uleb128 0xe
 2339 0227 3A       		.uleb128 0x3a
 2340 0228 0B       		.uleb128 0xb
 2341 0229 3B       		.uleb128 0x3b
 2342 022a 05       		.uleb128 0x5
 2343 022b 27       		.uleb128 0x27
 2344 022c 19       		.uleb128 0x19
 2345 022d 49       		.uleb128 0x49
 2346 022e 13       		.uleb128 0x13
 2347 022f 3C       		.uleb128 0x3c
 2348 0230 19       		.uleb128 0x19
 2349 0231 01       		.uleb128 0x1
 2350 0232 13       		.uleb128 0x13
 2351 0233 00       		.byte	0
 2352 0234 00       		.byte	0
 2353 0235 28       		.uleb128 0x28
 2354 0236 2E       		.uleb128 0x2e
 2355 0237 00       		.byte	0
 2356 0238 3F       		.uleb128 0x3f
 2357 0239 19       		.uleb128 0x19
 2358 023a 03       		.uleb128 0x3
 2359 023b 0E       		.uleb128 0xe
 2360 023c 3A       		.uleb128 0x3a
 2361 023d 0B       		.uleb128 0xb
 2362 023e 3B       		.uleb128 0x3b
 2363 023f 0B       		.uleb128 0xb
 2364 0240 27       		.uleb128 0x27
 2365 0241 19       		.uleb128 0x19
 2366 0242 49       		.uleb128 0x49
 2367 0243 13       		.uleb128 0x13
 2368 0244 3C       		.uleb128 0x3c
 2369 0245 19       		.uleb128 0x19
 2370 0246 00       		.byte	0
 2371 0247 00       		.byte	0
 2372 0248 00       		.byte	0
 2373              		.section	.debug_loc,"",%progbits
 2374              	.Ldebug_loc0:
 2375              	.LLST0:
 2376 0000 00000000 		.4byte	.LVL1
 2377 0004 0A000000 		.4byte	.LVL2
 2378 0008 0100     		.2byte	0x1
 2379 000a 50       		.byte	0x50
 2380 000b 0A000000 		.4byte	.LVL2
 2381 000f 0D000000 		.4byte	.LVL3-1
 2382 0013 0300     		.2byte	0x3
 2383 0015 70       		.byte	0x70
 2384 0016 74       		.sleb128 -12
 2385 0017 9F       		.byte	0x9f
 2386 0018 0D000000 		.4byte	.LVL3-1
 2387 001c 0E000000 		.4byte	.LFE119
 2388 0020 0400     		.2byte	0x4
 2389 0022 F3       		.byte	0xf3
 2390 0023 01       		.uleb128 0x1
 2391 0024 50       		.byte	0x50
 2392 0025 9F       		.byte	0x9f
 2393 0026 00000000 		.4byte	0
 2394 002a 00000000 		.4byte	0
ARM GAS  C:\Users\ADMINI~1\AppData\Local\Temp\ccacRClR.s 			page 43


 2395              	.LLST1:
 2396 002e 00000000 		.4byte	.LVL4
 2397 0032 0B000000 		.4byte	.LVL5-1
 2398 0036 0100     		.2byte	0x1
 2399 0038 50       		.byte	0x50
 2400 0039 0B000000 		.4byte	.LVL5-1
 2401 003d 14000000 		.4byte	.LFE120
 2402 0041 0100     		.2byte	0x1
 2403 0043 54       		.byte	0x54
 2404 0044 00000000 		.4byte	0
 2405 0048 00000000 		.4byte	0
 2406              	.LLST2:
 2407 004c 00000000 		.4byte	.LVL4
 2408 0050 0B000000 		.4byte	.LVL5-1
 2409 0054 0100     		.2byte	0x1
 2410 0056 51       		.byte	0x51
 2411 0057 0B000000 		.4byte	.LVL5-1
 2412 005b 14000000 		.4byte	.LFE120
 2413 005f 0400     		.2byte	0x4
 2414 0061 F3       		.byte	0xf3
 2415 0062 01       		.uleb128 0x1
 2416 0063 51       		.byte	0x51
 2417 0064 9F       		.byte	0x9f
 2418 0065 00000000 		.4byte	0
 2419 0069 00000000 		.4byte	0
 2420              	.LLST3:
 2421 006d 00000000 		.4byte	.LVL6
 2422 0071 09000000 		.4byte	.LVL7-1
 2423 0075 0100     		.2byte	0x1
 2424 0077 50       		.byte	0x50
 2425 0078 09000000 		.4byte	.LVL7-1
 2426 007c 12000000 		.4byte	.LFE121
 2427 0080 0100     		.2byte	0x1
 2428 0082 54       		.byte	0x54
 2429 0083 00000000 		.4byte	0
 2430 0087 00000000 		.4byte	0
 2431              	.LLST4:
 2432 008b 00000000 		.4byte	.LVL8
 2433 008f 02000000 		.4byte	.LVL9
 2434 0093 0100     		.2byte	0x1
 2435 0095 50       		.byte	0x50
 2436 0096 02000000 		.4byte	.LVL9
 2437 009a 04000000 		.4byte	.LFE122
 2438 009e 0400     		.2byte	0x4
 2439 00a0 F3       		.byte	0xf3
 2440 00a1 01       		.uleb128 0x1
 2441 00a2 50       		.byte	0x50
 2442 00a3 9F       		.byte	0x9f
 2443 00a4 00000000 		.4byte	0
 2444 00a8 00000000 		.4byte	0
 2445              	.LLST5:
 2446 00ac 00000000 		.4byte	.LVL10
 2447 00b0 23000000 		.4byte	.LVL11-1
 2448 00b4 0100     		.2byte	0x1
 2449 00b6 50       		.byte	0x50
 2450 00b7 23000000 		.4byte	.LVL11-1
 2451 00bb 34000000 		.4byte	.LFE123
ARM GAS  C:\Users\ADMINI~1\AppData\Local\Temp\ccacRClR.s 			page 44


 2452 00bf 0100     		.2byte	0x1
 2453 00c1 54       		.byte	0x54
 2454 00c2 00000000 		.4byte	0
 2455 00c6 00000000 		.4byte	0
 2456              	.LLST6:
 2457 00ca 00000000 		.4byte	.LVL10
 2458 00ce 23000000 		.4byte	.LVL11-1
 2459 00d2 0100     		.2byte	0x1
 2460 00d4 51       		.byte	0x51
 2461 00d5 23000000 		.4byte	.LVL11-1
 2462 00d9 34000000 		.4byte	.LFE123
 2463 00dd 0400     		.2byte	0x4
 2464 00df F3       		.byte	0xf3
 2465 00e0 01       		.uleb128 0x1
 2466 00e1 51       		.byte	0x51
 2467 00e2 9F       		.byte	0x9f
 2468 00e3 00000000 		.4byte	0
 2469 00e7 00000000 		.4byte	0
 2470              	.LLST7:
 2471 00eb 00000000 		.4byte	.LVL10
 2472 00ef 23000000 		.4byte	.LVL11-1
 2473 00f3 0100     		.2byte	0x1
 2474 00f5 52       		.byte	0x52
 2475 00f6 23000000 		.4byte	.LVL11-1
 2476 00fa 34000000 		.4byte	.LFE123
 2477 00fe 0400     		.2byte	0x4
 2478 0100 F3       		.byte	0xf3
 2479 0101 01       		.uleb128 0x1
 2480 0102 52       		.byte	0x52
 2481 0103 9F       		.byte	0x9f
 2482 0104 00000000 		.4byte	0
 2483 0108 00000000 		.4byte	0
 2484              	.LLST8:
 2485 010c 00000000 		.4byte	.LVL10
 2486 0110 23000000 		.4byte	.LVL11-1
 2487 0114 0100     		.2byte	0x1
 2488 0116 53       		.byte	0x53
 2489 0117 23000000 		.4byte	.LVL11-1
 2490 011b 34000000 		.4byte	.LFE123
 2491 011f 0400     		.2byte	0x4
 2492 0121 F3       		.byte	0xf3
 2493 0122 01       		.uleb128 0x1
 2494 0123 53       		.byte	0x53
 2495 0124 9F       		.byte	0x9f
 2496 0125 00000000 		.4byte	0
 2497 0129 00000000 		.4byte	0
 2498              	.LLST9:
 2499 012d 00000000 		.4byte	.LVL12
 2500 0131 17000000 		.4byte	.LVL13-1
 2501 0135 0100     		.2byte	0x1
 2502 0137 50       		.byte	0x50
 2503 0138 17000000 		.4byte	.LVL13-1
 2504 013c 28000000 		.4byte	.LFE124
 2505 0140 0100     		.2byte	0x1
 2506 0142 54       		.byte	0x54
 2507 0143 00000000 		.4byte	0
 2508 0147 00000000 		.4byte	0
ARM GAS  C:\Users\ADMINI~1\AppData\Local\Temp\ccacRClR.s 			page 45


 2509              	.LLST10:
 2510 014b 00000000 		.4byte	.LVL12
 2511 014f 17000000 		.4byte	.LVL13-1
 2512 0153 0100     		.2byte	0x1
 2513 0155 51       		.byte	0x51
 2514 0156 17000000 		.4byte	.LVL13-1
 2515 015a 28000000 		.4byte	.LFE124
 2516 015e 0400     		.2byte	0x4
 2517 0160 F3       		.byte	0xf3
 2518 0161 01       		.uleb128 0x1
 2519 0162 51       		.byte	0x51
 2520 0163 9F       		.byte	0x9f
 2521 0164 00000000 		.4byte	0
 2522 0168 00000000 		.4byte	0
 2523              	.LLST11:
 2524 016c 00000000 		.4byte	.LVL12
 2525 0170 17000000 		.4byte	.LVL13-1
 2526 0174 0100     		.2byte	0x1
 2527 0176 52       		.byte	0x52
 2528 0177 17000000 		.4byte	.LVL13-1
 2529 017b 28000000 		.4byte	.LFE124
 2530 017f 0400     		.2byte	0x4
 2531 0181 F3       		.byte	0xf3
 2532 0182 01       		.uleb128 0x1
 2533 0183 52       		.byte	0x52
 2534 0184 9F       		.byte	0x9f
 2535 0185 00000000 		.4byte	0
 2536 0189 00000000 		.4byte	0
 2537              	.LLST12:
 2538 018d 00000000 		.4byte	.LVL12
 2539 0191 17000000 		.4byte	.LVL13-1
 2540 0195 0100     		.2byte	0x1
 2541 0197 53       		.byte	0x53
 2542 0198 17000000 		.4byte	.LVL13-1
 2543 019c 28000000 		.4byte	.LFE124
 2544 01a0 0400     		.2byte	0x4
 2545 01a2 F3       		.byte	0xf3
 2546 01a3 01       		.uleb128 0x1
 2547 01a4 53       		.byte	0x53
 2548 01a5 9F       		.byte	0x9f
 2549 01a6 00000000 		.4byte	0
 2550 01aa 00000000 		.4byte	0
 2551              	.LLST13:
 2552 01ae 00000000 		.4byte	.LVL14
 2553 01b2 02000000 		.4byte	.LVL15
 2554 01b6 0100     		.2byte	0x1
 2555 01b8 50       		.byte	0x50
 2556 01b9 02000000 		.4byte	.LVL15
 2557 01bd 05000000 		.4byte	.LVL16-1
 2558 01c1 0300     		.2byte	0x3
 2559 01c3 70       		.byte	0x70
 2560 01c4 74       		.sleb128 -12
 2561 01c5 9F       		.byte	0x9f
 2562 01c6 05000000 		.4byte	.LVL16-1
 2563 01ca 06000000 		.4byte	.LFE125
 2564 01ce 0400     		.2byte	0x4
 2565 01d0 F3       		.byte	0xf3
ARM GAS  C:\Users\ADMINI~1\AppData\Local\Temp\ccacRClR.s 			page 46


 2566 01d1 01       		.uleb128 0x1
 2567 01d2 50       		.byte	0x50
 2568 01d3 9F       		.byte	0x9f
 2569 01d4 00000000 		.4byte	0
 2570 01d8 00000000 		.4byte	0
 2571              	.LLST14:
 2572 01dc 00000000 		.4byte	.LVL17
 2573 01e0 03000000 		.4byte	.LVL18-1
 2574 01e4 0100     		.2byte	0x1
 2575 01e6 50       		.byte	0x50
 2576 01e7 03000000 		.4byte	.LVL18-1
 2577 01eb 04000000 		.4byte	.LFE126
 2578 01ef 0400     		.2byte	0x4
 2579 01f1 F3       		.byte	0xf3
 2580 01f2 01       		.uleb128 0x1
 2581 01f3 50       		.byte	0x50
 2582 01f4 9F       		.byte	0x9f
 2583 01f5 00000000 		.4byte	0
 2584 01f9 00000000 		.4byte	0
 2585              		.section	.debug_aranges,"",%progbits
 2586 0000 5C000000 		.4byte	0x5c
 2587 0004 0200     		.2byte	0x2
 2588 0006 00000000 		.4byte	.Ldebug_info0
 2589 000a 04       		.byte	0x4
 2590 000b 00       		.byte	0
 2591 000c 0000     		.2byte	0
 2592 000e 0000     		.2byte	0
 2593 0010 00000000 		.4byte	.LFB118
 2594 0014 04000000 		.4byte	.LFE118-.LFB118
 2595 0018 00000000 		.4byte	.LFB119
 2596 001c 0E000000 		.4byte	.LFE119-.LFB119
 2597 0020 00000000 		.4byte	.LFB120
 2598 0024 14000000 		.4byte	.LFE120-.LFB120
 2599 0028 00000000 		.4byte	.LFB121
 2600 002c 12000000 		.4byte	.LFE121-.LFB121
 2601 0030 00000000 		.4byte	.LFB122
 2602 0034 04000000 		.4byte	.LFE122-.LFB122
 2603 0038 00000000 		.4byte	.LFB123
 2604 003c 34000000 		.4byte	.LFE123-.LFB123
 2605 0040 00000000 		.4byte	.LFB124
 2606 0044 28000000 		.4byte	.LFE124-.LFB124
 2607 0048 00000000 		.4byte	.LFB125
 2608 004c 06000000 		.4byte	.LFE125-.LFB125
 2609 0050 00000000 		.4byte	.LFB126
 2610 0054 04000000 		.4byte	.LFE126-.LFB126
 2611 0058 00000000 		.4byte	0
 2612 005c 00000000 		.4byte	0
 2613              		.section	.debug_ranges,"",%progbits
 2614              	.Ldebug_ranges0:
 2615 0000 00000000 		.4byte	.LFB118
 2616 0004 04000000 		.4byte	.LFE118
 2617 0008 00000000 		.4byte	.LFB119
 2618 000c 0E000000 		.4byte	.LFE119
 2619 0010 00000000 		.4byte	.LFB120
 2620 0014 14000000 		.4byte	.LFE120
 2621 0018 00000000 		.4byte	.LFB121
 2622 001c 12000000 		.4byte	.LFE121
ARM GAS  C:\Users\ADMINI~1\AppData\Local\Temp\ccacRClR.s 			page 47


 2623 0020 00000000 		.4byte	.LFB122
 2624 0024 04000000 		.4byte	.LFE122
 2625 0028 00000000 		.4byte	.LFB123
 2626 002c 34000000 		.4byte	.LFE123
 2627 0030 00000000 		.4byte	.LFB124
 2628 0034 28000000 		.4byte	.LFE124
 2629 0038 00000000 		.4byte	.LFB125
 2630 003c 06000000 		.4byte	.LFE125
 2631 0040 00000000 		.4byte	.LFB126
 2632 0044 04000000 		.4byte	.LFE126
 2633 0048 00000000 		.4byte	0
 2634 004c 00000000 		.4byte	0
 2635              		.section	.debug_line,"",%progbits
 2636              	.Ldebug_line0:
 2637 0000 8C030000 		.section	.debug_str,"MS",%progbits,1
 2637      0200C302 
 2637      00000201 
 2637      FB0E0D00 
 2637      01010101 
 2638              	.LASF117:
 2639 0000 646D6172 		.ascii	"dmarx\000"
 2639      7800
 2640              	.LASF103:
 2641 0006 69326364 		.ascii	"i2cdutycycle_t\000"
 2641      75747963 
 2641      79636C65 
 2641      5F7400
 2642              	.LASF63:
 2643 0015 4D304152 		.ascii	"M0AR\000"
 2643      00
 2644              	.LASF2:
 2645 001a 73697A65 		.ascii	"size_t\000"
 2645      5F7400
 2646              	.LASF48:
 2647 0021 54687265 		.ascii	"ThreadsList\000"
 2647      6164734C 
 2647      69737400 
 2648              	.LASF57:
 2649 002d 7264796D 		.ascii	"rdymsg\000"
 2649      736700
 2650              	.LASF1:
 2651 0034 7369676E 		.ascii	"signed char\000"
 2651      65642063 
 2651      68617200 
 2652              	.LASF3:
 2653 0040 5F5F7569 		.ascii	"__uint8_t\000"
 2653      6E74385F 
 2653      7400
 2654              	.LASF88:
 2655 004a 4932435F 		.ascii	"I2C_STOP\000"
 2655      53544F50 
 2655      00
 2656              	.LASF101:
 2657 0053 46415354 		.ascii	"FAST_DUTY_CYCLE_2\000"
 2657      5F445554 
 2657      595F4359 
 2657      434C455F 
ARM GAS  C:\Users\ADMINI~1\AppData\Local\Temp\ccacRClR.s 			page 48


 2657      3200
 2658              	.LASF138:
 2659 0065 6932635F 		.ascii	"i2c_lld_master_receive_timeout\000"
 2659      6C6C645F 
 2659      6D617374 
 2659      65725F72 
 2659      65636569 
 2660              	.LASF76:
 2661 0084 54524953 		.ascii	"TRISE\000"
 2661      4500
 2662              	.LASF128:
 2663 008a 72786275 		.ascii	"rxbuf\000"
 2663      6600
 2664              	.LASF47:
 2665 0090 54687265 		.ascii	"ThreadsQueue\000"
 2665      61647351 
 2665      75657565 
 2665      00
 2666              	.LASF85:
 2667 009d 76656374 		.ascii	"vector\000"
 2667      6F7200
 2668              	.LASF133:
 2669 00a4 69326352 		.ascii	"i2cReleaseBus\000"
 2669      656C6561 
 2669      73654275 
 2669      7300
 2670              	.LASF143:
 2671 00b2 49544D5F 		.ascii	"ITM_RxBuffer\000"
 2671      52784275 
 2671      66666572 
 2671      00
 2672              	.LASF122:
 2673 00bf 69326370 		.ascii	"i2cp\000"
 2673      00
 2674              	.LASF89:
 2675 00c4 4932435F 		.ascii	"I2C_READY\000"
 2675      52454144 
 2675      5900
 2676              	.LASF125:
 2677 00ce 6932634D 		.ascii	"i2cMasterTransmitTimeout\000"
 2677      61737465 
 2677      72547261 
 2677      6E736D69 
 2677      7454696D 
 2678              	.LASF145:
 2679 00e7 63684D74 		.ascii	"chMtxUnlock\000"
 2679      78556E6C 
 2679      6F636B00 
 2680              	.LASF87:
 2681 00f3 4932435F 		.ascii	"I2C_UNINIT\000"
 2681      554E494E 
 2681      495400
 2682              	.LASF46:
 2683 00fe 705F6D70 		.ascii	"p_mpool\000"
 2683      6F6F6C00 
 2684              	.LASF13:
 2685 0106 6C6F6E67 		.ascii	"long long unsigned int\000"
ARM GAS  C:\Users\ADMINI~1\AppData\Local\Temp\ccacRClR.s 			page 49


 2685      206C6F6E 
 2685      6720756E 
 2685      7369676E 
 2685      65642069 
 2686              	.LASF54:
 2687 011d 6D5F7175 		.ascii	"m_queue\000"
 2687      65756500 
 2688              	.LASF114:
 2689 0125 61646472 		.ascii	"addr\000"
 2689      00
 2690              	.LASF137:
 2691 012a 6932635F 		.ascii	"i2c_lld_master_transmit_timeout\000"
 2691      6C6C645F 
 2691      6D617374 
 2691      65725F74 
 2691      72616E73 
 2692              	.LASF22:
 2693 014a 74736C69 		.ascii	"tslices_t\000"
 2693      6365735F 
 2693      7400
 2694              	.LASF94:
 2695 0154 69326361 		.ascii	"i2caddr_t\000"
 2695      6464725F 
 2695      7400
 2696              	.LASF109:
 2697 015e 73746174 		.ascii	"state\000"
 2697      6500
 2698              	.LASF112:
 2699 0164 6D757465 		.ascii	"mutex\000"
 2699      7800
 2700              	.LASF20:
 2701 016a 74737461 		.ascii	"tstate_t\000"
 2701      74655F74 
 2701      00
 2702              	.LASF107:
 2703 0173 49324343 		.ascii	"I2CConfig\000"
 2703      6F6E6669 
 2703      6700
 2704              	.LASF78:
 2705 017d 464C5452 		.ascii	"FLTR\000"
 2705      00
 2706              	.LASF70:
 2707 0182 4F415232 		.ascii	"OAR2\000"
 2707      00
 2708              	.LASF32:
 2709 0187 705F6E65 		.ascii	"p_newer\000"
 2709      77657200 
 2710              	.LASF115:
 2711 018f 7278646D 		.ascii	"rxdmamode\000"
 2711      616D6F64 
 2711      6500
 2712              	.LASF118:
 2713 0199 646D6174 		.ascii	"dmatx\000"
 2713      7800
 2714              	.LASF98:
 2715 019f 4F504D4F 		.ascii	"OPMODE_SMBUS_HOST\000"
 2715      44455F53 
ARM GAS  C:\Users\ADMINI~1\AppData\Local\Temp\ccacRClR.s 			page 50


 2715      4D425553 
 2715      5F484F53 
 2715      5400
 2716              	.LASF10:
 2717 01b1 5F5F7569 		.ascii	"__uint32_t\000"
 2717      6E743332 
 2717      5F7400
 2718              	.LASF84:
 2719 01bc 73656C66 		.ascii	"selfindex\000"
 2719      696E6465 
 2719      7800
 2720              	.LASF104:
 2721 01c6 6F705F6D 		.ascii	"op_mode\000"
 2721      6F646500 
 2722              	.LASF12:
 2723 01ce 6C6F6E67 		.ascii	"long long int\000"
 2723      206C6F6E 
 2723      6720696E 
 2723      7400
 2724              	.LASF0:
 2725 01dc 756E7369 		.ascii	"unsigned int\000"
 2725      676E6564 
 2725      20696E74 
 2725      00
 2726              	.LASF15:
 2727 01e9 75696E74 		.ascii	"uint16_t\000"
 2727      31365F74 
 2727      00
 2728              	.LASF111:
 2729 01f2 6572726F 		.ascii	"errors\000"
 2729      727300
 2730              	.LASF130:
 2731 01f9 74696D65 		.ascii	"timeout\000"
 2731      6F757400 
 2732              	.LASF83:
 2733 0201 69736869 		.ascii	"ishift\000"
 2733      667400
 2734              	.LASF97:
 2735 0208 4F504D4F 		.ascii	"OPMODE_SMBUS_DEVICE\000"
 2735      44455F53 
 2735      4D425553 
 2735      5F444556 
 2735      49434500 
 2736              	.LASF7:
 2737 021c 73686F72 		.ascii	"short unsigned int\000"
 2737      7420756E 
 2737      7369676E 
 2737      65642069 
 2737      6E7400
 2738              	.LASF108:
 2739 022f 49324344 		.ascii	"I2CDriver\000"
 2739      72697665 
 2739      7200
 2740              	.LASF24:
 2741 0239 6D73675F 		.ascii	"msg_t\000"
 2741      7400
 2742              	.LASF141:
ARM GAS  C:\Users\ADMINI~1\AppData\Local\Temp\ccacRClR.s 			page 51


 2743 023f 43686962 		.ascii	"ChibiOS_2.6.6/os/hal/src/i2c.c\000"
 2743      694F535F 
 2743      322E362E 
 2743      362F6F73 
 2743      2F68616C 
 2744              	.LASF58:
 2745 025e 65786974 		.ascii	"exitcode\000"
 2745      636F6465 
 2745      00
 2746              	.LASF19:
 2747 0267 746D6F64 		.ascii	"tmode_t\000"
 2747      655F7400 
 2748              	.LASF100:
 2749 026f 5354445F 		.ascii	"STD_DUTY_CYCLE\000"
 2749      44555459 
 2749      5F435943 
 2749      4C4500
 2750              	.LASF25:
 2751 027e 6576656E 		.ascii	"eventmask_t\000"
 2751      746D6173 
 2751      6B5F7400 
 2752              	.LASF5:
 2753 028a 73686F72 		.ascii	"short int\000"
 2753      7420696E 
 2753      7400
 2754              	.LASF53:
 2755 0294 4D757465 		.ascii	"Mutex\000"
 2755      7800
 2756              	.LASF62:
 2757 029a 4E445452 		.ascii	"NDTR\000"
 2757      00
 2758              	.LASF136:
 2759 029f 6932635F 		.ascii	"i2c_lld_stop\000"
 2759      6C6C645F 
 2759      73746F70 
 2759      00
 2760              	.LASF135:
 2761 02ac 6932635F 		.ascii	"i2c_lld_start\000"
 2761      6C6C645F 
 2761      73746172 
 2761      7400
 2762              	.LASF52:
 2763 02ba 73697A65 		.ascii	"sizetype\000"
 2763      74797065 
 2763      00
 2764              	.LASF121:
 2765 02c3 69326353 		.ascii	"i2cStart\000"
 2765      74617274 
 2765      00
 2766              	.LASF106:
 2767 02cc 64757479 		.ascii	"duty_cycle\000"
 2767      5F637963 
 2767      6C6500
 2768              	.LASF30:
 2769 02d7 705F7072 		.ascii	"p_prio\000"
 2769      696F00
 2770              	.LASF139:
ARM GAS  C:\Users\ADMINI~1\AppData\Local\Temp\ccacRClR.s 			page 52


 2771 02de 63684D74 		.ascii	"chMtxLock\000"
 2771      784C6F63 
 2771      6B00
 2772              	.LASF33:
 2773 02e8 705F6F6C 		.ascii	"p_older\000"
 2773      64657200 
 2774              	.LASF129:
 2775 02f0 72786279 		.ascii	"rxbytes\000"
 2775      74657300 
 2776              	.LASF123:
 2777 02f8 69326353 		.ascii	"i2cStop\000"
 2777      746F7000 
 2778              	.LASF116:
 2779 0300 7478646D 		.ascii	"txdmamode\000"
 2779      616D6F64 
 2779      6500
 2780              	.LASF96:
 2781 030a 4F504D4F 		.ascii	"OPMODE_I2C\000"
 2781      44455F49 
 2781      324300
 2782              	.LASF127:
 2783 0315 74786279 		.ascii	"txbytes\000"
 2783      74657300 
 2784              	.LASF21:
 2785 031d 74726566 		.ascii	"trefs_t\000"
 2785      735F7400 
 2786              	.LASF93:
 2787 0325 69326373 		.ascii	"i2cstate_t\000"
 2787      74617465 
 2787      5F7400
 2788              	.LASF102:
 2789 0330 46415354 		.ascii	"FAST_DUTY_CYCLE_16_9\000"
 2789      5F445554 
 2789      595F4359 
 2789      434C455F 
 2789      31365F39 
 2790              	.LASF69:
 2791 0345 52455345 		.ascii	"RESERVED2\000"
 2791      52564544 
 2791      3200
 2792              	.LASF71:
 2793 034f 52455345 		.ascii	"RESERVED3\000"
 2793      52564544 
 2793      3300
 2794              	.LASF72:
 2795 0359 52455345 		.ascii	"RESERVED4\000"
 2795      52564544 
 2795      3400
 2796              	.LASF29:
 2797 0363 705F7072 		.ascii	"p_prev\000"
 2797      657600
 2798              	.LASF74:
 2799 036a 52455345 		.ascii	"RESERVED6\000"
 2799      52564544 
 2799      3600
 2800              	.LASF86:
 2801 0374 73746D33 		.ascii	"stm32_dma_stream_t\000"
ARM GAS  C:\Users\ADMINI~1\AppData\Local\Temp\ccacRClR.s 			page 53


 2801      325F646D 
 2801      615F7374 
 2801      7265616D 
 2801      5F7400
 2802              	.LASF132:
 2803 0387 69326341 		.ascii	"i2cAcquireBus\000"
 2803      63717569 
 2803      72654275 
 2803      7300
 2804              	.LASF23:
 2805 0395 74707269 		.ascii	"tprio_t\000"
 2805      6F5F7400 
 2806              	.LASF90:
 2807 039d 4932435F 		.ascii	"I2C_ACTIVE_TX\000"
 2807      41435449 
 2807      56455F54 
 2807      5800
 2808              	.LASF95:
 2809 03ab 69326366 		.ascii	"i2cflags_t\000"
 2809      6C616773 
 2809      5F7400
 2810              	.LASF113:
 2811 03b6 74687265 		.ascii	"thread\000"
 2811      616400
 2812              	.LASF18:
 2813 03bd 5F426F6F 		.ascii	"_Bool\000"
 2813      6C00
 2814              	.LASF16:
 2815 03c3 696E7433 		.ascii	"int32_t\000"
 2815      325F7400 
 2816              	.LASF4:
 2817 03cb 756E7369 		.ascii	"unsigned char\000"
 2817      676E6564 
 2817      20636861 
 2817      7200
 2818              	.LASF44:
 2819 03d9 705F6D74 		.ascii	"p_mtxlist\000"
 2819      786C6973 
 2819      7400
 2820              	.LASF105:
 2821 03e3 636C6F63 		.ascii	"clock_speed\000"
 2821      6B5F7370 
 2821      65656400 
 2822              	.LASF35:
 2823 03ef 705F7374 		.ascii	"p_state\000"
 2823      61746500 
 2824              	.LASF38:
 2825 03f7 705F7072 		.ascii	"p_preempt\000"
 2825      65656D70 
 2825      7400
 2826              	.LASF124:
 2827 0401 69326347 		.ascii	"i2cGetErrors\000"
 2827      65744572 
 2827      726F7273 
 2827      00
 2828              	.LASF60:
 2829 040e 65776D61 		.ascii	"ewmask\000"
ARM GAS  C:\Users\ADMINI~1\AppData\Local\Temp\ccacRClR.s 			page 54


 2829      736B00
 2830              	.LASF28:
 2831 0415 705F6E65 		.ascii	"p_next\000"
 2831      787400
 2832              	.LASF36:
 2833 041c 705F666C 		.ascii	"p_flags\000"
 2833      61677300 
 2834              	.LASF66:
 2835 0424 52455345 		.ascii	"RESERVED0\000"
 2835      52564544 
 2835      3000
 2836              	.LASF27:
 2837 042e 54687265 		.ascii	"Thread\000"
 2837      616400
 2838              	.LASF67:
 2839 0435 52455345 		.ascii	"RESERVED1\000"
 2839      52564544 
 2839      3100
 2840              	.LASF92:
 2841 043f 4932435F 		.ascii	"I2C_LOCKED\000"
 2841      4C4F434B 
 2841      454400
 2842              	.LASF43:
 2843 044a 705F6570 		.ascii	"p_epending\000"
 2843      656E6469 
 2843      6E6700
 2844              	.LASF82:
 2845 0455 69666372 		.ascii	"ifcr\000"
 2845      00
 2846              	.LASF73:
 2847 045a 52455345 		.ascii	"RESERVED5\000"
 2847      52564544 
 2847      3500
 2848              	.LASF17:
 2849 0464 75696E74 		.ascii	"uint32_t\000"
 2849      33325F74 
 2849      00
 2850              	.LASF49:
 2851 046d 72656761 		.ascii	"regarm_t\000"
 2851      726D5F74 
 2851      00
 2852              	.LASF77:
 2853 0476 52455345 		.ascii	"RESERVED8\000"
 2853      52564544 
 2853      3800
 2854              	.LASF79:
 2855 0480 52455345 		.ascii	"RESERVED9\000"
 2855      52564544 
 2855      3900
 2856              	.LASF81:
 2857 048a 73747265 		.ascii	"stream\000"
 2857      616D00
 2858              	.LASF91:
 2859 0491 4932435F 		.ascii	"I2C_ACTIVE_RX\000"
 2859      41435449 
 2859      56455F52 
 2859      5800
ARM GAS  C:\Users\ADMINI~1\AppData\Local\Temp\ccacRClR.s 			page 55


 2860              	.LASF11:
 2861 049f 6C6F6E67 		.ascii	"long unsigned int\000"
 2861      20756E73 
 2861      69676E65 
 2861      6420696E 
 2861      7400
 2862              	.LASF61:
 2863 04b1 63686172 		.ascii	"char\000"
 2863      00
 2864              	.LASF110:
 2865 04b6 636F6E66 		.ascii	"config\000"
 2865      696700
 2866              	.LASF6:
 2867 04bd 5F5F7569 		.ascii	"__uint16_t\000"
 2867      6E743136 
 2867      5F7400
 2868              	.LASF56:
 2869 04c8 6D5F6E65 		.ascii	"m_next\000"
 2869      787400
 2870              	.LASF26:
 2871 04cf 73797374 		.ascii	"systime_t\000"
 2871      696D655F 
 2871      7400
 2872              	.LASF45:
 2873 04d9 705F7265 		.ascii	"p_realprio\000"
 2873      616C7072 
 2873      696F00
 2874              	.LASF8:
 2875 04e4 5F5F696E 		.ascii	"__int32_t\000"
 2875      7433325F 
 2875      7400
 2876              	.LASF140:
 2877 04ee 474E5520 		.ascii	"GNU C 4.9.3 20150529 (release) [ARM/embedded-4_9-br"
 2877      4320342E 
 2877      392E3320 
 2877      32303135 
 2877      30353239 
 2878 0521 616E6368 		.ascii	"anch revision 224288] -mcpu=cortex-m4 -mfloat-abi=h"
 2878      20726576 
 2878      6973696F 
 2878      6E203232 
 2878      34323838 
 2879 0554 61726420 		.ascii	"ard -mfpu=fpv4-sp-d16 -mno-thumb-interwork -mthumb "
 2879      2D6D6670 
 2879      753D6670 
 2879      76342D73 
 2879      702D6431 
 2880 0587 2D676764 		.ascii	"-ggdb -O2 -std=gnu99 -fomit-frame-pointer -falign-f"
 2880      62202D4F 
 2880      32202D73 
 2880      74643D67 
 2880      6E753939 
 2881 05ba 756E6374 		.ascii	"unctions=16 -ffunction-sections -fdata-sections -fn"
 2881      696F6E73 
 2881      3D313620 
 2881      2D666675 
 2881      6E637469 
ARM GAS  C:\Users\ADMINI~1\AppData\Local\Temp\ccacRClR.s 			page 56


 2882 05ed 6F2D636F 		.ascii	"o-common -fsingle-precision-constant\000"
 2882      6D6D6F6E 
 2882      202D6673 
 2882      696E676C 
 2882      652D7072 
 2883              	.LASF65:
 2884 0612 444D415F 		.ascii	"DMA_Stream_TypeDef\000"
 2884      53747265 
 2884      616D5F54 
 2884      79706544 
 2884      656600
 2885              	.LASF39:
 2886 0625 705F7469 		.ascii	"p_time\000"
 2886      6D6500
 2887              	.LASF9:
 2888 062c 6C6F6E67 		.ascii	"long int\000"
 2888      20696E74 
 2888      00
 2889              	.LASF50:
 2890 0635 696E7463 		.ascii	"intctx\000"
 2890      747800
 2891              	.LASF41:
 2892 063c 705F6D73 		.ascii	"p_msgqueue\000"
 2892      67717565 
 2892      756500
 2893              	.LASF64:
 2894 0647 4D314152 		.ascii	"M1AR\000"
 2894      00
 2895              	.LASF75:
 2896 064c 52455345 		.ascii	"RESERVED7\000"
 2896      52564544 
 2896      3700
 2897              	.LASF134:
 2898 0656 63684D74 		.ascii	"chMtxInit\000"
 2898      78496E69 
 2898      7400
 2899              	.LASF144:
 2900 0660 6932635F 		.ascii	"i2c_lld_init\000"
 2900      6C6C645F 
 2900      696E6974 
 2900      00
 2901              	.LASF37:
 2902 066d 705F7265 		.ascii	"p_refs\000"
 2902      667300
 2903              	.LASF142:
 2904 0674 563A5C6F 		.ascii	"V:\\oroca_bldc_dev\000"
 2904      726F6361 
 2904      5F626C64 
 2904      635F6465 
 2904      7600
 2905              	.LASF14:
 2906 0686 75696E74 		.ascii	"uint8_t\000"
 2906      385F7400 
 2907              	.LASF68:
 2908 068e 4F415231 		.ascii	"OAR1\000"
 2908      00
 2909              	.LASF126:
ARM GAS  C:\Users\ADMINI~1\AppData\Local\Temp\ccacRClR.s 			page 57


 2910 0693 74786275 		.ascii	"txbuf\000"
 2910      6600
 2911              	.LASF131:
 2912 0699 6932634D 		.ascii	"i2cMasterReceiveTimeout\000"
 2912      61737465 
 2912      72526563 
 2912      65697665 
 2912      54696D65 
 2913              	.LASF59:
 2914 06b1 77746F62 		.ascii	"wtobjp\000"
 2914      6A7000
 2915              	.LASF34:
 2916 06b8 705F6E61 		.ascii	"p_name\000"
 2916      6D6500
 2917              	.LASF51:
 2918 06bf 636F6E74 		.ascii	"context\000"
 2918      65787400 
 2919              	.LASF119:
 2920 06c7 69326349 		.ascii	"i2cInit\000"
 2920      6E697400 
 2921              	.LASF42:
 2922 06cf 705F6D73 		.ascii	"p_msg\000"
 2922      6700
 2923              	.LASF80:
 2924 06d5 4932435F 		.ascii	"I2C_TypeDef\000"
 2924      54797065 
 2924      44656600 
 2925              	.LASF99:
 2926 06e1 6932636F 		.ascii	"i2copmode_t\000"
 2926      706D6F64 
 2926      655F7400 
 2927              	.LASF120:
 2928 06ed 6932634F 		.ascii	"i2cObjectInit\000"
 2928      626A6563 
 2928      74496E69 
 2928      7400
 2929              	.LASF55:
 2930 06fb 6D5F6F77 		.ascii	"m_owner\000"
 2930      6E657200 
 2931              	.LASF31:
 2932 0703 705F6374 		.ascii	"p_ctx\000"
 2932      7800
 2933              	.LASF40:
 2934 0709 705F7761 		.ascii	"p_waiting\000"
 2934      6974696E 
 2934      6700
 2935              		.ident	"GCC: (GNU Tools for ARM Embedded Processors) 4.9.3 20150529 (release) [ARM/embedded-4_9-br
ARM GAS  C:\Users\ADMINI~1\AppData\Local\Temp\ccacRClR.s 			page 58


DEFINED SYMBOLS
                            *ABS*:00000000 i2c.c
C:\Users\ADMINI~1\AppData\Local\Temp\ccacRClR.s:21     .text.i2cInit:00000000 $t
C:\Users\ADMINI~1\AppData\Local\Temp\ccacRClR.s:27     .text.i2cInit:00000000 i2cInit
C:\Users\ADMINI~1\AppData\Local\Temp\ccacRClR.s:42     .text.i2cObjectInit:00000000 $t
C:\Users\ADMINI~1\AppData\Local\Temp\ccacRClR.s:48     .text.i2cObjectInit:00000000 i2cObjectInit
C:\Users\ADMINI~1\AppData\Local\Temp\ccacRClR.s:73     .text.i2cStart:00000000 $t
C:\Users\ADMINI~1\AppData\Local\Temp\ccacRClR.s:79     .text.i2cStart:00000000 i2cStart
C:\Users\ADMINI~1\AppData\Local\Temp\ccacRClR.s:115    .text.i2cStop:00000000 $t
C:\Users\ADMINI~1\AppData\Local\Temp\ccacRClR.s:121    .text.i2cStop:00000000 i2cStop
C:\Users\ADMINI~1\AppData\Local\Temp\ccacRClR.s:155    .text.i2cGetErrors:00000000 $t
C:\Users\ADMINI~1\AppData\Local\Temp\ccacRClR.s:161    .text.i2cGetErrors:00000000 i2cGetErrors
C:\Users\ADMINI~1\AppData\Local\Temp\ccacRClR.s:177    .text.i2cMasterTransmitTimeout:00000000 $t
C:\Users\ADMINI~1\AppData\Local\Temp\ccacRClR.s:183    .text.i2cMasterTransmitTimeout:00000000 i2cMasterTransmitTimeout
C:\Users\ADMINI~1\AppData\Local\Temp\ccacRClR.s:247    .text.i2cMasterReceiveTimeout:00000000 $t
C:\Users\ADMINI~1\AppData\Local\Temp\ccacRClR.s:253    .text.i2cMasterReceiveTimeout:00000000 i2cMasterReceiveTimeout
C:\Users\ADMINI~1\AppData\Local\Temp\ccacRClR.s:312    .text.i2cAcquireBus:00000000 $t
C:\Users\ADMINI~1\AppData\Local\Temp\ccacRClR.s:318    .text.i2cAcquireBus:00000000 i2cAcquireBus
C:\Users\ADMINI~1\AppData\Local\Temp\ccacRClR.s:335    .text.i2cReleaseBus:00000000 $t
C:\Users\ADMINI~1\AppData\Local\Temp\ccacRClR.s:341    .text.i2cReleaseBus:00000000 i2cReleaseBus
                     .debug_frame:00000010 $d

UNDEFINED SYMBOLS
i2c_lld_init
chMtxInit
i2c_lld_start
i2c_lld_stop
i2c_lld_master_transmit_timeout
i2c_lld_master_receive_timeout
chMtxLock
chMtxUnlock
