ARM GAS  C:\Users\jsyoon\AppData\Local\Temp\cc9c2sPh.s 			page 1


   1              		.syntax unified
   2              		.cpu cortex-m4
   3              		.eabi_attribute 27, 3
   4              		.eabi_attribute 28, 1
   5              		.fpu fpv4-sp-d16
   6              		.eabi_attribute 20, 1
   7              		.eabi_attribute 21, 1
   8              		.eabi_attribute 23, 3
   9              		.eabi_attribute 24, 1
  10              		.eabi_attribute 25, 1
  11              		.eabi_attribute 26, 1
  12              		.eabi_attribute 30, 2
  13              		.eabi_attribute 34, 1
  14              		.eabi_attribute 18, 4
  15              		.thumb
  16              		.file	"i2c.c"
  17              		.text
  18              	.Ltext0:
  19              		.cfi_sections	.debug_frame
  20              		.section	.text.i2cInit,"ax",%progbits
  21              		.align	2
  22              		.p2align 4,,15
  23              		.global	i2cInit
  24              		.thumb
  25              		.thumb_func
  26              		.type	i2cInit, %function
  27              	i2cInit:
  28              	.LFB118:
  29              		.file 1 "ChibiOS_2.6.6/os/hal/src/i2c.c"
  30              		.loc 1 71 0
  31              		.cfi_startproc
  32              		@ args = 0, pretend = 0, frame = 0
  33              		@ frame_needed = 0, uses_anonymous_args = 0
  34              		@ link register save eliminated.
  35              		.loc 1 72 0
  36 0000 FFF7FEBF 		b	i2c_lld_init
  37              	.LVL0:
  38              		.cfi_endproc
  39              	.LFE118:
  40              		.size	i2cInit, .-i2cInit
  41 0004 AFF30080 		.section	.text.i2cObjectInit,"ax",%progbits
  41      AFF30080 
  41      AFF30080 
  42              		.align	2
  43              		.p2align 4,,15
  44              		.global	i2cObjectInit
  45              		.thumb
  46              		.thumb_func
  47              		.type	i2cObjectInit, %function
  48              	i2cObjectInit:
  49              	.LFB119:
  50              		.loc 1 82 0
  51              		.cfi_startproc
  52              		@ args = 0, pretend = 0, frame = 0
  53              		@ frame_needed = 0, uses_anonymous_args = 0
  54              		@ link register save eliminated.
  55              	.LVL1:
ARM GAS  C:\Users\jsyoon\AppData\Local\Temp\cc9c2sPh.s 			page 2


  56              		.loc 1 84 0
  57 0000 0122     		movs	r2, #1
  58              		.loc 1 85 0
  59 0002 0023     		movs	r3, #0
  60              		.loc 1 84 0
  61 0004 0270     		strb	r2, [r0]
  62              		.loc 1 85 0
  63 0006 4360     		str	r3, [r0, #4]
  64              		.loc 1 89 0
  65 0008 0C30     		adds	r0, r0, #12
  66              	.LVL2:
  67 000a FFF7FEBF 		b	chMtxInit
  68              	.LVL3:
  69              		.cfi_endproc
  70              	.LFE119:
  71              		.size	i2cObjectInit, .-i2cObjectInit
  72 000e 00BF     		.section	.text.i2cStart,"ax",%progbits
  73              		.align	2
  74              		.p2align 4,,15
  75              		.global	i2cStart
  76              		.thumb
  77              		.thumb_func
  78              		.type	i2cStart, %function
  79              	i2cStart:
  80              	.LFB120:
  81              		.loc 1 108 0
  82              		.cfi_startproc
  83              		@ args = 0, pretend = 0, frame = 0
  84              		@ frame_needed = 0, uses_anonymous_args = 0
  85              	.LVL4:
  86 0000 10B5     		push	{r4, lr}
  87              		.cfi_def_cfa_offset 8
  88              		.cfi_offset 4, -8
  89              		.cfi_offset 14, -4
  90              		.loc 1 108 0
  91 0002 0446     		mov	r4, r0
  92              		.loc 1 116 0
  93              	@ 116 "ChibiOS_2.6.6/os/hal/src/i2c.c" 1
  94 0004 72B6     		cpsid   i
  95              	@ 0 "" 2
  96              		.loc 1 117 0
  97              		.thumb
  98 0006 4160     		str	r1, [r0, #4]
  99              		.loc 1 118 0
 100 0008 FFF7FEFF 		bl	i2c_lld_start
 101              	.LVL5:
 102              		.loc 1 119 0
 103 000c 0223     		movs	r3, #2
 104 000e 2370     		strb	r3, [r4]
 105              		.loc 1 120 0
 106              	@ 120 "ChibiOS_2.6.6/os/hal/src/i2c.c" 1
 107 0010 62B6     		cpsie   i
 108              	@ 0 "" 2
 109              		.thumb
 110 0012 10BD     		pop	{r4, pc}
 111              		.cfi_endproc
 112              	.LFE120:
ARM GAS  C:\Users\jsyoon\AppData\Local\Temp\cc9c2sPh.s 			page 3


 113              		.size	i2cStart, .-i2cStart
 114 0014 AFF30080 		.section	.text.i2cStop,"ax",%progbits
 114      AFF30080 
 114      AFF30080 
 115              		.align	2
 116              		.p2align 4,,15
 117              		.global	i2cStop
 118              		.thumb
 119              		.thumb_func
 120              		.type	i2cStop, %function
 121              	i2cStop:
 122              	.LFB121:
 123              		.loc 1 130 0
 124              		.cfi_startproc
 125              		@ args = 0, pretend = 0, frame = 0
 126              		@ frame_needed = 0, uses_anonymous_args = 0
 127              	.LVL6:
 128 0000 10B5     		push	{r4, lr}
 129              		.cfi_def_cfa_offset 8
 130              		.cfi_offset 4, -8
 131              		.cfi_offset 14, -4
 132              		.loc 1 130 0
 133 0002 0446     		mov	r4, r0
 134              		.loc 1 138 0
 135              	@ 138 "ChibiOS_2.6.6/os/hal/src/i2c.c" 1
 136 0004 72B6     		cpsid   i
 137              	@ 0 "" 2
 138              		.loc 1 139 0
 139              		.thumb
 140 0006 FFF7FEFF 		bl	i2c_lld_stop
 141              	.LVL7:
 142              		.loc 1 140 0
 143 000a 0123     		movs	r3, #1
 144 000c 2370     		strb	r3, [r4]
 145              		.loc 1 141 0
 146              	@ 141 "ChibiOS_2.6.6/os/hal/src/i2c.c" 1
 147 000e 62B6     		cpsie   i
 148              	@ 0 "" 2
 149              		.thumb
 150 0010 10BD     		pop	{r4, pc}
 151              		.cfi_endproc
 152              	.LFE121:
 153              		.size	i2cStop, .-i2cStop
 154 0012 00BFAFF3 		.section	.text.i2cGetErrors,"ax",%progbits
 154      0080AFF3 
 154      0080AFF3 
 154      0080
 155              		.align	2
 156              		.p2align 4,,15
 157              		.global	i2cGetErrors
 158              		.thumb
 159              		.thumb_func
 160              		.type	i2cGetErrors, %function
 161              	i2cGetErrors:
 162              	.LFB122:
 163              		.loc 1 152 0
 164              		.cfi_startproc
ARM GAS  C:\Users\jsyoon\AppData\Local\Temp\cc9c2sPh.s 			page 4


 165              		@ args = 0, pretend = 0, frame = 0
 166              		@ frame_needed = 0, uses_anonymous_args = 0
 167              		@ link register save eliminated.
 168              	.LVL8:
 169              		.loc 1 157 0
 170 0000 8068     		ldr	r0, [r0, #8]
 171              	.LVL9:
 172 0002 7047     		bx	lr
 173              		.cfi_endproc
 174              	.LFE122:
 175              		.size	i2cGetErrors, .-i2cGetErrors
 176 0004 AFF30080 		.section	.text.i2cMasterTransmitTimeout,"ax",%progbits
 176      AFF30080 
 176      AFF30080 
 177              		.align	2
 178              		.p2align 4,,15
 179              		.global	i2cMasterTransmitTimeout
 180              		.thumb
 181              		.thumb_func
 182              		.type	i2cMasterTransmitTimeout, %function
 183              	i2cMasterTransmitTimeout:
 184              	.LFB123:
 185              		.loc 1 191 0
 186              		.cfi_startproc
 187              		@ args = 12, pretend = 0, frame = 0
 188              		@ frame_needed = 0, uses_anonymous_args = 0
 189              	.LVL10:
 190 0000 F0B5     		push	{r4, r5, r6, r7, lr}
 191              		.cfi_def_cfa_offset 20
 192              		.cfi_offset 4, -20
 193              		.cfi_offset 5, -16
 194              		.cfi_offset 6, -12
 195              		.cfi_offset 7, -8
 196              		.cfi_offset 14, -4
 197 0002 85B0     		sub	sp, sp, #20
 198              		.cfi_def_cfa_offset 40
 199              		.loc 1 191 0
 200 0004 0446     		mov	r4, r0
 201 0006 0A9F     		ldr	r7, [sp, #40]
 202 0008 0B9E     		ldr	r6, [sp, #44]
 203              		.loc 1 203 0
 204              	@ 203 "ChibiOS_2.6.6/os/hal/src/i2c.c" 1
 205 000a 72B6     		cpsid   i
 206              	@ 0 "" 2
 207              		.loc 1 205 0
 208              		.thumb
 209 000c 4FF0030E 		mov	lr, #3
 210              		.loc 1 206 0
 211 0010 0196     		str	r6, [sp, #4]
 212              		.loc 1 204 0
 213 0012 0025     		movs	r5, #0
 214              		.loc 1 206 0
 215 0014 0C9E     		ldr	r6, [sp, #48]
 216 0016 0097     		str	r7, [sp]
 217 0018 0296     		str	r6, [sp, #8]
 218              		.loc 1 204 0
 219 001a 8560     		str	r5, [r0, #8]
ARM GAS  C:\Users\jsyoon\AppData\Local\Temp\cc9c2sPh.s 			page 5


 220              		.loc 1 205 0
 221 001c 80F800E0 		strb	lr, [r0]
 222              		.loc 1 206 0
 223 0020 FFF7FEFF 		bl	i2c_lld_master_transmit_timeout
 224              	.LVL11:
 225              		.loc 1 208 0
 226 0024 431C     		adds	r3, r0, #1
 227              		.loc 1 209 0
 228 0026 0CBF     		ite	eq
 229 0028 0523     		moveq	r3, #5
 230              		.loc 1 211 0
 231 002a 0223     		movne	r3, #2
 232 002c 2370     		strb	r3, [r4]
 233              		.loc 1 212 0
 234              	@ 212 "ChibiOS_2.6.6/os/hal/src/i2c.c" 1
 235 002e 62B6     		cpsie   i
 236              	@ 0 "" 2
 237              		.loc 1 214 0
 238              		.thumb
 239 0030 05B0     		add	sp, sp, #20
 240              		@ sp needed
 241 0032 F0BD     		pop	{r4, r5, r6, r7, pc}
 242              		.cfi_endproc
 243              	.LFE123:
 244              		.size	i2cMasterTransmitTimeout, .-i2cMasterTransmitTimeout
 245 0034 AFF30080 		.section	.text.i2cMasterReceiveTimeout,"ax",%progbits
 245      AFF30080 
 245      AFF30080 
 246              		.align	2
 247              		.p2align 4,,15
 248              		.global	i2cMasterReceiveTimeout
 249              		.thumb
 250              		.thumb_func
 251              		.type	i2cMasterReceiveTimeout, %function
 252              	i2cMasterReceiveTimeout:
 253              	.LFB124:
 254              		.loc 1 240 0
 255              		.cfi_startproc
 256              		@ args = 4, pretend = 0, frame = 0
 257              		@ frame_needed = 0, uses_anonymous_args = 0
 258              	.LVL12:
 259 0000 F0B5     		push	{r4, r5, r6, r7, lr}
 260              		.cfi_def_cfa_offset 20
 261              		.cfi_offset 4, -20
 262              		.cfi_offset 5, -16
 263              		.cfi_offset 6, -12
 264              		.cfi_offset 7, -8
 265              		.cfi_offset 14, -4
 266 0002 83B0     		sub	sp, sp, #12
 267              		.cfi_def_cfa_offset 32
 268              		.loc 1 240 0
 269 0004 0446     		mov	r4, r0
 270 0006 089D     		ldr	r5, [sp, #32]
 271              		.loc 1 252 0
 272              	@ 252 "ChibiOS_2.6.6/os/hal/src/i2c.c" 1
 273 0008 72B6     		cpsid   i
 274              	@ 0 "" 2
ARM GAS  C:\Users\jsyoon\AppData\Local\Temp\cc9c2sPh.s 			page 6


 275              		.loc 1 253 0
 276              		.thumb
 277 000a 0027     		movs	r7, #0
 278              		.loc 1 254 0
 279 000c 0426     		movs	r6, #4
 280              		.loc 1 255 0
 281 000e 0095     		str	r5, [sp]
 282              		.loc 1 253 0
 283 0010 8760     		str	r7, [r0, #8]
 284              		.loc 1 254 0
 285 0012 0670     		strb	r6, [r0]
 286              		.loc 1 255 0
 287 0014 FFF7FEFF 		bl	i2c_lld_master_receive_timeout
 288              	.LVL13:
 289              		.loc 1 256 0
 290 0018 431C     		adds	r3, r0, #1
 291              		.loc 1 257 0
 292 001a 0CBF     		ite	eq
 293 001c 0523     		moveq	r3, #5
 294              		.loc 1 259 0
 295 001e 0223     		movne	r3, #2
 296 0020 2370     		strb	r3, [r4]
 297              		.loc 1 260 0
 298              	@ 260 "ChibiOS_2.6.6/os/hal/src/i2c.c" 1
 299 0022 62B6     		cpsie   i
 300              	@ 0 "" 2
 301              		.loc 1 262 0
 302              		.thumb
 303 0024 03B0     		add	sp, sp, #12
 304              		@ sp needed
 305 0026 F0BD     		pop	{r4, r5, r6, r7, pc}
 306              		.cfi_endproc
 307              	.LFE124:
 308              		.size	i2cMasterReceiveTimeout, .-i2cMasterReceiveTimeout
 309 0028 AFF30080 		.section	.text.i2cAcquireBus,"ax",%progbits
 309      AFF30080 
 310              		.align	2
 311              		.p2align 4,,15
 312              		.global	i2cAcquireBus
 313              		.thumb
 314              		.thumb_func
 315              		.type	i2cAcquireBus, %function
 316              	i2cAcquireBus:
 317              	.LFB125:
 318              		.loc 1 276 0
 319              		.cfi_startproc
 320              		@ args = 0, pretend = 0, frame = 0
 321              		@ frame_needed = 0, uses_anonymous_args = 0
 322              		@ link register save eliminated.
 323              	.LVL14:
 324              		.loc 1 281 0
 325 0000 0C30     		adds	r0, r0, #12
 326              	.LVL15:
 327 0002 FFF7FEBF 		b	chMtxLock
 328              	.LVL16:
 329              		.cfi_endproc
 330              	.LFE125:
ARM GAS  C:\Users\jsyoon\AppData\Local\Temp\cc9c2sPh.s 			page 7


 331              		.size	i2cAcquireBus, .-i2cAcquireBus
 332 0006 00BFAFF3 		.section	.text.i2cReleaseBus,"ax",%progbits
 332      0080AFF3 
 332      0080
 333              		.align	2
 334              		.p2align 4,,15
 335              		.global	i2cReleaseBus
 336              		.thumb
 337              		.thumb_func
 338              		.type	i2cReleaseBus, %function
 339              	i2cReleaseBus:
 340              	.LFB126:
 341              		.loc 1 296 0
 342              		.cfi_startproc
 343              		@ args = 0, pretend = 0, frame = 0
 344              		@ frame_needed = 0, uses_anonymous_args = 0
 345              		@ link register save eliminated.
 346              	.LVL17:
 347              		.loc 1 301 0
 348 0000 FFF7FEBF 		b	chMtxUnlock
 349              	.LVL18:
 350              		.cfi_endproc
 351              	.LFE126:
 352              		.size	i2cReleaseBus, .-i2cReleaseBus
 353 0004 AFF30080 		.text
 353      AFF30080 
 353      AFF30080 
 354              	.Letext0:
 355              		.file 2 "c:\\crosstools\\gcc-arm-embedded\\4.8_2014q2\\lib\\gcc\\arm-none-eabi\\4.8.4\\include\\st
 356              		.file 3 "c:\\crosstools\\gcc-arm-embedded\\4.8_2014q2\\arm-none-eabi\\include\\machine\\_default_t
 357              		.file 4 "c:\\crosstools\\gcc-arm-embedded\\4.8_2014q2\\arm-none-eabi\\include\\stdint.h"
 358              		.file 5 "ChibiOS_2.6.6/os/ports/GCC/ARMCMx/chtypes.h"
 359              		.file 6 "ChibiOS_2.6.6/os/kernel/include/chlists.h"
 360              		.file 7 "ChibiOS_2.6.6/os/kernel/include/chthreads.h"
 361              		.file 8 "ChibiOS_2.6.6/os/ports/GCC/ARMCMx/chcore_v7m.h"
 362              		.file 9 "ChibiOS_2.6.6/os/kernel/include/chmtx.h"
 363              		.file 10 "ChibiOS_2.6.6/os/hal/platforms/STM32F4xx/stm32f4xx.h"
 364              		.file 11 "ChibiOS_2.6.6/os/hal/platforms/STM32F4xx/stm32_dma.h"
 365              		.file 12 "ChibiOS_2.6.6/os/hal/include/i2c.h"
 366              		.file 13 "ChibiOS_2.6.6/os/hal/platforms/STM32/I2Cv1/i2c_lld.h"
 367              		.file 14 "ChibiOS_2.6.6/os/ports/common/ARMCMx/CMSIS/include/core_cm4.h"