ARM GAS  C:\Users\jsyoon\AppData\Local\Temp\ccxdlBoZ.s 			page 1


   1              		.syntax unified
   2              		.cpu cortex-m4
   3              		.eabi_attribute 27, 3
   4              		.eabi_attribute 28, 1
   5              		.fpu fpv4-sp-d16
   6              		.eabi_attribute 20, 1
   7              		.eabi_attribute 21, 1
   8              		.eabi_attribute 23, 3
   9              		.eabi_attribute 24, 1
  10              		.eabi_attribute 25, 1
  11              		.eabi_attribute 26, 1
  12              		.eabi_attribute 30, 2
  13              		.eabi_attribute 34, 1
  14              		.eabi_attribute 18, 4
  15              		.thumb
  16              		.file	"i2c_lld.c"
  17              		.text
  18              	.Ltext0:
  19              		.cfi_sections	.debug_frame
  20              		.section	.text.i2c_lld_abort_operation,"ax",%progbits
  21              		.align	2
  22              		.p2align 4,,15
  23              		.thumb
  24              		.thumb_func
  25              		.type	i2c_lld_abort_operation, %function
  26              	i2c_lld_abort_operation:
  27              	.LFB118:
  28              		.file 1 "ChibiOS_2.6.6/os/hal/platforms/STM32/I2Cv1/i2c_lld.c"
  29              		.loc 1 142 0
  30              		.cfi_startproc
  31              		@ args = 0, pretend = 0, frame = 0
  32              		@ frame_needed = 0, uses_anonymous_args = 0
  33              		@ link register save eliminated.
  34              	.LVL0:
  35 0000 10B4     		push	{r4}
  36              		.cfi_def_cfa_offset 4
  37              		.cfi_offset 4, -4
  38              		.loc 1 143 0
  39 0002 436B     		ldr	r3, [r0, #52]
  40              	.LVL1:
  41              		.loc 1 152 0
  42 0004 046B     		ldr	r4, [r0, #48]
  43              		.loc 1 146 0
  44 0006 4FF40041 		mov	r1, #32768
  45              		.loc 1 152 0
  46 000a 2268     		ldr	r2, [r4]
  47              		.loc 1 146 0
  48 000c 1980     		strh	r1, [r3]	@ movhi
  49              		.loc 1 147 0
  50 000e 0021     		movs	r1, #0
  51 0010 1980     		strh	r1, [r3]	@ movhi
  52              		.loc 1 148 0
  53 0012 9980     		strh	r1, [r3, #4]	@ movhi
  54              		.loc 1 149 0
  55 0014 9982     		strh	r1, [r3, #20]	@ movhi
  56              		.loc 1 152 0
  57 0016 1368     		ldr	r3, [r2]
ARM GAS  C:\Users\jsyoon\AppData\Local\Temp\ccxdlBoZ.s 			page 2


  58              	.LVL2:
  59 0018 23F01F03 		bic	r3, r3, #31
  60 001c 1360     		str	r3, [r2]
  61              	.L3:
  62              		.loc 1 152 0 is_stmt 0 discriminator 1
  63 001e 1368     		ldr	r3, [r2]
  64 0020 D907     		lsls	r1, r3, #31
  65 0022 FCD4     		bmi	.L3
  66              		.loc 1 153 0 is_stmt 1 discriminator 2
  67 0024 C16A     		ldr	r1, [r0, #44]
  68              		.loc 1 152 0 discriminator 2
  69 0026 207A     		ldrb	r0, [r4, #8]	@ zero_extendqisi2
  70              	.LVL3:
  71 0028 6368     		ldr	r3, [r4, #4]
  72              		.loc 1 153 0 discriminator 2
  73 002a 0A68     		ldr	r2, [r1]
  74              		.loc 1 152 0 discriminator 2
  75 002c 3D24     		movs	r4, #61
  76 002e 04FA00F0 		lsl	r0, r4, r0
  77 0032 1860     		str	r0, [r3]
  78              		.loc 1 153 0 discriminator 2
  79 0034 1368     		ldr	r3, [r2]
  80 0036 23F01F03 		bic	r3, r3, #31
  81 003a 1360     		str	r3, [r2]
  82              	.L5:
  83              		.loc 1 153 0 is_stmt 0 discriminator 1
  84 003c 1368     		ldr	r3, [r2]
  85 003e DB07     		lsls	r3, r3, #31
  86 0040 FCD4     		bmi	.L5
  87              		.loc 1 153 0 discriminator 2
  88 0042 0A7A     		ldrb	r2, [r1, #8]	@ zero_extendqisi2
  89 0044 4B68     		ldr	r3, [r1, #4]
  90              		.loc 1 154 0 is_stmt 1 discriminator 2
  91 0046 5DF8044B 		ldr	r4, [sp], #4
  92              		.loc 1 153 0 discriminator 2
  93 004a 3D21     		movs	r1, #61
  94 004c 01FA02F2 		lsl	r2, r1, r2
  95 0050 1A60     		str	r2, [r3]
  96              		.loc 1 154 0 discriminator 2
  97 0052 7047     		bx	lr
  98              		.cfi_endproc
  99              	.LFE118:
 100              		.size	i2c_lld_abort_operation, .-i2c_lld_abort_operation
 101 0054 AFF30080 		.section	.text.i2c_lld_safety_timeout,"ax",%progbits
 101      AFF30080 
 101      AFF30080 
 102              		.align	2
 103              		.p2align 4,,15
 104              		.thumb
 105              		.thumb_func
 106              		.type	i2c_lld_safety_timeout, %function
 107              	i2c_lld_safety_timeout:
 108              	.LFB119:
 109              		.loc 1 163 0
 110              		.cfi_startproc
 111              		@ args = 0, pretend = 0, frame = 0
 112              		@ frame_needed = 0, uses_anonymous_args = 0
ARM GAS  C:\Users\jsyoon\AppData\Local\Temp\ccxdlBoZ.s 			page 3


 113              	.LVL4:
 114 0000 38B5     		push	{r3, r4, r5, lr}
 115              		.cfi_def_cfa_offset 16
 116              		.cfi_offset 3, -16
 117              		.cfi_offset 4, -12
 118              		.cfi_offset 5, -8
 119              		.cfi_offset 14, -4
 120              		.loc 1 163 0
 121 0002 0546     		mov	r5, r0
 122              	.LVL5:
 123              		.loc 1 166 0
 124              	@ 166 "ChibiOS_2.6.6/os/hal/platforms/STM32/I2Cv1/i2c_lld.c" 1
 125 0004 72B6     		cpsid   i
 126              	@ 0 "" 2
 127              		.loc 1 167 0
 128              		.thumb
 129 0006 C469     		ldr	r4, [r0, #28]
 130 0008 4CB1     		cbz	r4, .L8
 131              	.LVL6:
 132              	.LBB7:
 133              		.loc 1 169 0
 134 000a FFF7FEFF 		bl	i2c_lld_abort_operation
 135              	.LVL7:
 136              		.loc 1 170 0
 137 000e 0022     		movs	r2, #0
 138              		.loc 1 171 0
 139 0010 4FF0FF33 		mov	r3, #-1
 140              		.loc 1 170 0
 141 0014 EA61     		str	r2, [r5, #28]
 142              		.loc 1 172 0
 143 0016 2046     		mov	r0, r4
 144              		.loc 1 171 0
 145 0018 6362     		str	r3, [r4, #36]
 146              		.loc 1 172 0
 147 001a FFF7FEFF 		bl	chSchReadyI
 148              	.LVL8:
 149              	.L8:
 150              	.LBE7:
 151              		.loc 1 174 0
 152              	@ 174 "ChibiOS_2.6.6/os/hal/platforms/STM32/I2Cv1/i2c_lld.c" 1
 153 001e 62B6     		cpsie   i
 154              	@ 0 "" 2
 155              		.thumb
 156 0020 38BD     		pop	{r3, r4, r5, pc}
 157              		.cfi_endproc
 158              	.LFE119:
 159              		.size	i2c_lld_safety_timeout, .-i2c_lld_safety_timeout
 160 0022 00BFAFF3 		.section	.text.i2c_lld_serve_tx_end_irq,"ax",%progbits
 160      0080AFF3 
 160      0080AFF3 
 160      0080
 161              		.align	2
 162              		.p2align 4,,15
 163              		.thumb
 164              		.thumb_func
 165              		.type	i2c_lld_serve_tx_end_irq, %function
 166              	i2c_lld_serve_tx_end_irq:
ARM GAS  C:\Users\jsyoon\AppData\Local\Temp\ccxdlBoZ.s 			page 4


 167              	.LFB124:
 168              		.loc 1 380 0
 169              		.cfi_startproc
 170              		@ args = 0, pretend = 0, frame = 0
 171              		@ frame_needed = 0, uses_anonymous_args = 0
 172              	.LVL9:
 173              		.loc 1 385 0
 174 0000 11F00C0F 		tst	r1, #12
 175              		.loc 1 380 0
 176 0004 38B5     		push	{r3, r4, r5, lr}
 177              		.cfi_def_cfa_offset 16
 178              		.cfi_offset 3, -16
 179              		.cfi_offset 4, -12
 180              		.cfi_offset 5, -8
 181              		.cfi_offset 14, -4
 182              		.loc 1 380 0
 183 0006 0546     		mov	r5, r0
 184              		.loc 1 381 0
 185 0008 446B     		ldr	r4, [r0, #52]
 186              	.LVL10:
 187              		.loc 1 385 0
 188 000a 14D1     		bne	.L19
 189              	.LVL11:
 190              	.L13:
 191              		.loc 1 392 0
 192 000c 296B     		ldr	r1, [r5, #48]
 193 000e 0A68     		ldr	r2, [r1]
 194 0010 1368     		ldr	r3, [r2]
 195 0012 23F01F03 		bic	r3, r3, #31
 196 0016 1360     		str	r3, [r2]
 197              	.L15:
 198              		.loc 1 392 0 is_stmt 0 discriminator 1
 199 0018 1368     		ldr	r3, [r2]
 200 001a DB07     		lsls	r3, r3, #31
 201 001c FCD4     		bmi	.L15
 202              		.loc 1 392 0 discriminator 2
 203 001e 0A7A     		ldrb	r2, [r1, #8]	@ zero_extendqisi2
 204 0020 4B68     		ldr	r3, [r1, #4]
 205 0022 3D21     		movs	r1, #61
 206 0024 01FA02F2 		lsl	r2, r1, r2
 207 0028 1A60     		str	r2, [r3]
 208              		.loc 1 396 0 is_stmt 1 discriminator 2
 209 002a A388     		ldrh	r3, [r4, #4]
 210 002c 9BB2     		uxth	r3, r3
 211 002e 43F40073 		orr	r3, r3, #512
 212 0032 A380     		strh	r3, [r4, #4]	@ movhi
 213 0034 38BD     		pop	{r3, r4, r5, pc}
 214              	.LVL12:
 215              	.L19:
 216              		.loc 1 386 0
 217 0036 FFF7FEFF 		bl	port_halt
 218              	.LVL13:
 219 003a E7E7     		b	.L13
 220              		.cfi_endproc
 221              	.LFE124:
 222              		.size	i2c_lld_serve_tx_end_irq, .-i2c_lld_serve_tx_end_irq
 223 003c AFF30080 		.section	.text.i2c_lld_serve_rx_end_irq,"ax",%progbits
ARM GAS  C:\Users\jsyoon\AppData\Local\Temp\ccxdlBoZ.s 			page 5


 224              		.align	2
 225              		.p2align 4,,15
 226              		.thumb
 227              		.thumb_func
 228              		.type	i2c_lld_serve_rx_end_irq, %function
 229              	i2c_lld_serve_rx_end_irq:
 230              	.LFB123:
 231              		.loc 1 353 0
 232              		.cfi_startproc
 233              		@ args = 0, pretend = 0, frame = 0
 234              		@ frame_needed = 0, uses_anonymous_args = 0
 235              	.LVL14:
 236              		.loc 1 358 0
 237 0000 11F00C0F 		tst	r1, #12
 238              		.loc 1 353 0
 239 0004 38B5     		push	{r3, r4, r5, lr}
 240              		.cfi_def_cfa_offset 16
 241              		.cfi_offset 3, -16
 242              		.cfi_offset 4, -12
 243              		.cfi_offset 5, -8
 244              		.cfi_offset 14, -4
 245              		.loc 1 353 0
 246 0006 0546     		mov	r5, r0
 247              		.loc 1 354 0
 248 0008 446B     		ldr	r4, [r0, #52]
 249              	.LVL15:
 250              		.loc 1 358 0
 251 000a 29D1     		bne	.L31
 252              	.LVL16:
 253              	.L21:
 254              		.loc 1 365 0
 255 000c E96A     		ldr	r1, [r5, #44]
 256 000e 0A68     		ldr	r2, [r1]
 257 0010 1368     		ldr	r3, [r2]
 258 0012 23F01F03 		bic	r3, r3, #31
 259 0016 1360     		str	r3, [r2]
 260              	.L23:
 261              		.loc 1 365 0 is_stmt 0 discriminator 1
 262 0018 1368     		ldr	r3, [r2]
 263 001a 13F00103 		ands	r3, r3, #1
 264 001e FBD1     		bne	.L23
 265              		.loc 1 365 0 discriminator 2
 266 0020 087A     		ldrb	r0, [r1, #8]	@ zero_extendqisi2
 267 0022 4A68     		ldr	r2, [r1, #4]
 268 0024 3D21     		movs	r1, #61
 269 0026 8140     		lsls	r1, r1, r0
 270 0028 1160     		str	r1, [r2]
 271              		.loc 1 367 0 is_stmt 1 discriminator 2
 272 002a A288     		ldrh	r2, [r4, #4]
 273 002c 22F48052 		bic	r2, r2, #4096
 274 0030 1204     		lsls	r2, r2, #16
 275 0032 120C     		lsrs	r2, r2, #16
 276 0034 A280     		strh	r2, [r4, #4]	@ movhi
 277              		.loc 1 368 0 discriminator 2
 278 0036 2288     		ldrh	r2, [r4]
 279 0038 22F48062 		bic	r2, r2, #1024
 280 003c 1204     		lsls	r2, r2, #16
ARM GAS  C:\Users\jsyoon\AppData\Local\Temp\ccxdlBoZ.s 			page 6


 281 003e 120C     		lsrs	r2, r2, #16
 282 0040 2280     		strh	r2, [r4]	@ movhi
 283              		.loc 1 369 0 discriminator 2
 284 0042 2288     		ldrh	r2, [r4]
 285 0044 92B2     		uxth	r2, r2
 286 0046 42F40072 		orr	r2, r2, #512
 287 004a 2280     		strh	r2, [r4]	@ movhi
 288              		.loc 1 370 0 discriminator 2
 289              	@ 370 "ChibiOS_2.6.6/os/hal/platforms/STM32/I2Cv1/i2c_lld.c" 1
 290 004c 72B6     		cpsid   i
 291              	@ 0 "" 2
 292              		.thumb
 293 004e EA69     		ldr	r2, [r5, #28]
 294 0050 22B1     		cbz	r2, .L24
 295              	.LVL17:
 296              	.LBB8:
 297              		.loc 1 370 0 is_stmt 0 discriminator 1
 298 0052 EB61     		str	r3, [r5, #28]
 299 0054 1046     		mov	r0, r2
 300 0056 5362     		str	r3, [r2, #36]
 301 0058 FFF7FEFF 		bl	chSchReadyI
 302              	.LVL18:
 303              	.L24:
 304              	.LBE8:
 305              		.loc 1 370 0 discriminator 2
 306              	@ 370 "ChibiOS_2.6.6/os/hal/platforms/STM32/I2Cv1/i2c_lld.c" 1
 307 005c 62B6     		cpsie   i
 308              	@ 0 "" 2
 309              		.thumb
 310 005e 38BD     		pop	{r3, r4, r5, pc}
 311              	.LVL19:
 312              	.L31:
 313              		.loc 1 359 0 is_stmt 1
 314 0060 FFF7FEFF 		bl	port_halt
 315              	.LVL20:
 316 0064 D2E7     		b	.L21
 317              		.cfi_endproc
 318              	.LFE123:
 319              		.size	i2c_lld_serve_rx_end_irq, .-i2c_lld_serve_rx_end_irq
 320 0066 00BFAFF3 		.section	.text.VectorC4,"ax",%progbits
 320      0080AFF3 
 320      0080
 321              		.align	2
 322              		.p2align 4,,15
 323              		.global	VectorC4
 324              		.thumb
 325              		.thumb_func
 326              		.type	VectorC4, %function
 327              	VectorC4:
 328              	.LFB126:
 329              		.loc 1 484 0
 330              		.cfi_startproc
 331              		@ args = 0, pretend = 0, frame = 0
 332              		@ frame_needed = 0, uses_anonymous_args = 0
 333              	.LVL21:
 334              	.LBB12:
 335              	.LBB13:
ARM GAS  C:\Users\jsyoon\AppData\Local\Temp\ccxdlBoZ.s 			page 7


 336              		.loc 1 294 0
 337 0000 3E4A     		ldr	r2, .L53
 338              		.loc 1 301 0
 339 0002 3F49     		ldr	r1, .L53+4
 340              	.LBE13:
 341              	.LBE12:
 342              		.loc 1 484 0
 343 0004 38B5     		push	{r3, r4, r5, lr}
 344              		.cfi_def_cfa_offset 16
 345              		.cfi_offset 3, -16
 346              		.cfi_offset 4, -12
 347              		.cfi_offset 5, -8
 348              		.cfi_offset 14, -4
 349              	.LBB17:
 350              	.LBB15:
 351              		.loc 1 294 0
 352 0006 546B     		ldr	r4, [r2, #52]
 353              	.LVL22:
 354              		.loc 1 295 0
 355 0008 238B     		ldrh	r3, [r4, #24]
 356              	.LVL23:
 357              		.loc 1 296 0
 358 000a A58A     		ldrh	r5, [r4, #20]
 359 000c ADB2     		uxth	r5, r5
 360              	.LVL24:
 361              		.loc 1 301 0
 362 000e 45EA0343 		orr	r3, r5, r3, lsl #16
 363              	.LVL25:
 364 0012 23F07F43 		bic	r3, r3, #-16777216
 365 0016 8B42     		cmp	r3, r1
 366 0018 5AD0     		beq	.L34
 367 001a 21D8     		bhi	.L35
 368 001c 0739     		subs	r1, r1, #7
 369 001e 8B42     		cmp	r3, r1
 370 0020 4AD0     		beq	.L36
 371 0022 0131     		adds	r1, r1, #1
 372 0024 8B42     		cmp	r3, r1
 373 0026 13D1     		bne	.L33
 374              		.loc 1 315 0
 375 0028 A388     		ldrh	r3, [r4, #4]
 376              		.loc 1 316 0
 377 002a D26A     		ldr	r2, [r2, #44]
 378              		.loc 1 315 0
 379 002c 23F40073 		bic	r3, r3, #512
 380 0030 1B04     		lsls	r3, r3, #16
 381              		.loc 1 316 0
 382 0032 1268     		ldr	r2, [r2]
 383              		.loc 1 315 0
 384 0034 1B0C     		lsrs	r3, r3, #16
 385 0036 A380     		strh	r3, [r4, #4]	@ movhi
 386              		.loc 1 316 0
 387 0038 1368     		ldr	r3, [r2]
 388 003a 43F00103 		orr	r3, r3, #1
 389 003e 1360     		str	r3, [r2]
 390              		.loc 1 317 0
 391 0040 A388     		ldrh	r3, [r4, #4]
 392 0042 9BB2     		uxth	r3, r3
ARM GAS  C:\Users\jsyoon\AppData\Local\Temp\ccxdlBoZ.s 			page 8


 393 0044 43F48053 		orr	r3, r3, #4096
 394 0048 A380     		strh	r3, [r4, #4]	@ movhi
 395              		.loc 1 318 0
 396 004a 5368     		ldr	r3, [r2, #4]
 397 004c 012B     		cmp	r3, #1
 398 004e 4ED9     		bls	.L51
 399              	.L33:
 400              		.loc 1 341 0
 401 0050 15F00A0F 		tst	r5, #10
 402              		.loc 1 342 0
 403 0054 18BF     		it	ne
 404 0056 238B     		ldrhne	r3, [r4, #24]
 405              	.L42:
 406              	.LBE15:
 407              	.LBE17:
 408              		.loc 1 491 0
 409 0058 BDE83840 		pop	{r3, r4, r5, lr}
 410              	.LVL26:
 411              		.loc 1 490 0
 412 005c FFF7FEBF 		b	_port_irq_epilogue
 413              	.LVL27:
 414              	.L35:
 415              	.LBB18:
 416              	.LBB16:
 417              		.loc 1 301 0
 418 0060 2849     		ldr	r1, .L53+8
 419 0062 8B42     		cmp	r3, r1
 420 0064 1BD0     		beq	.L38
 421 0066 0231     		adds	r1, r1, #2
 422 0068 8B42     		cmp	r3, r1
 423 006a F1D1     		bne	.L33
 424              		.loc 1 327 0
 425 006c D36A     		ldr	r3, [r2, #44]
 426 006e 1B68     		ldr	r3, [r3]
 427 0070 5968     		ldr	r1, [r3, #4]
 428 0072 0029     		cmp	r1, #0
 429 0074 31D1     		bne	.L52
 430              		.loc 1 333 0
 431 0076 A388     		ldrh	r3, [r4, #4]
 432 0078 23F40073 		bic	r3, r3, #512
 433 007c 1B04     		lsls	r3, r3, #16
 434 007e 1B0C     		lsrs	r3, r3, #16
 435 0080 A380     		strh	r3, [r4, #4]	@ movhi
 436              		.loc 1 334 0
 437 0082 2388     		ldrh	r3, [r4]
 438 0084 9BB2     		uxth	r3, r3
 439 0086 43F40073 		orr	r3, r3, #512
 440 008a 2380     		strh	r3, [r4]	@ movhi
 441              		.loc 1 335 0
 442              	@ 335 "ChibiOS_2.6.6/os/hal/platforms/STM32/I2Cv1/i2c_lld.c" 1
 443 008c 72B6     		cpsid   i
 444              	@ 0 "" 2
 445              		.thumb
 446 008e D069     		ldr	r0, [r2, #28]
 447 0090 18B1     		cbz	r0, .L43
 448              	.LVL28:
 449              	.LBB14:
ARM GAS  C:\Users\jsyoon\AppData\Local\Temp\ccxdlBoZ.s 			page 9


 450 0092 4162     		str	r1, [r0, #36]
 451 0094 D161     		str	r1, [r2, #28]
 452 0096 FFF7FEFF 		bl	chSchReadyI
 453              	.LVL29:
 454              	.L43:
 455              	.LBE14:
 456              	@ 335 "ChibiOS_2.6.6/os/hal/platforms/STM32/I2Cv1/i2c_lld.c" 1
 457 009a 62B6     		cpsie   i
 458              	@ 0 "" 2
 459              		.thumb
 460 009c D8E7     		b	.L33
 461              	.L38:
 462              		.loc 1 322 0
 463 009e A388     		ldrh	r3, [r4, #4]
 464              		.loc 1 323 0
 465 00a0 126B     		ldr	r2, [r2, #48]
 466              		.loc 1 322 0
 467 00a2 23F40073 		bic	r3, r3, #512
 468 00a6 1B04     		lsls	r3, r3, #16
 469              		.loc 1 323 0
 470 00a8 1268     		ldr	r2, [r2]
 471              		.loc 1 322 0
 472 00aa 1B0C     		lsrs	r3, r3, #16
 473 00ac A380     		strh	r3, [r4, #4]	@ movhi
 474              		.loc 1 323 0
 475 00ae 1368     		ldr	r3, [r2]
 476 00b0 43F00103 		orr	r3, r3, #1
 477 00b4 1360     		str	r3, [r2]
 478 00b6 CBE7     		b	.L33
 479              	.L36:
 480              		.loc 1 303 0
 481 00b8 138C     		ldrh	r3, [r2, #32]
 482 00ba 1A0A     		lsrs	r2, r3, #8
 483 00bc 0BD0     		beq	.L50
 484              		.loc 1 305 0
 485 00be 03F00103 		and	r3, r3, #1
 486 00c2 43F0F003 		orr	r3, r3, #240
 487 00c6 02F00602 		and	r2, r2, #6
 488 00ca 1A43     		orrs	r2, r2, r3
 489 00cc 2282     		strh	r2, [r4, #16]	@ movhi
 490 00ce BFE7     		b	.L33
 491              	.L34:
 492              		.loc 1 312 0
 493 00d0 138C     		ldrh	r3, [r2, #32]
 494 00d2 C3F34703 		ubfx	r3, r3, #1, #8
 495              	.L50:
 496 00d6 2382     		strh	r3, [r4, #16]	@ movhi
 497 00d8 BAE7     		b	.L33
 498              	.L52:
 499              		.loc 1 330 0
 500 00da 2388     		ldrh	r3, [r4]
 501              		.loc 1 329 0
 502 00dc 118C     		ldrh	r1, [r2, #32]
 503              		.loc 1 330 0
 504 00de 9BB2     		uxth	r3, r3
 505 00e0 43F4A063 		orr	r3, r3, #1280
 506              		.loc 1 329 0
ARM GAS  C:\Users\jsyoon\AppData\Local\Temp\ccxdlBoZ.s 			page 10


 507 00e4 41F00101 		orr	r1, r1, #1
 508 00e8 1184     		strh	r1, [r2, #32]	@ movhi
 509              		.loc 1 330 0
 510 00ea 2380     		strh	r3, [r4]	@ movhi
 511 00ec B4E7     		b	.L42
 512              	.L51:
 513              		.loc 1 319 0
 514 00ee 2388     		ldrh	r3, [r4]
 515 00f0 23F48063 		bic	r3, r3, #1024
 516 00f4 1B04     		lsls	r3, r3, #16
 517 00f6 1B0C     		lsrs	r3, r3, #16
 518 00f8 2380     		strh	r3, [r4]	@ movhi
 519 00fa A9E7     		b	.L33
 520              	.L54:
 521              		.align	2
 522              	.L53:
 523 00fc 00000000 		.word	.LANCHOR0
 524 0100 08000300 		.word	196616
 525 0104 82000700 		.word	458882
 526              	.LBE16:
 527              	.LBE18:
 528              		.cfi_endproc
 529              	.LFE126:
 530              		.size	VectorC4, .-VectorC4
 531 0108 AFF30080 		.section	.text.VectorC8,"ax",%progbits
 531      AFF30080 
 532              		.align	2
 533              		.p2align 4,,15
 534              		.global	VectorC8
 535              		.thumb
 536              		.thumb_func
 537              		.type	VectorC8, %function
 538              	VectorC8:
 539              	.LFB127:
 540              		.loc 1 498 0
 541              		.cfi_startproc
 542              		@ args = 0, pretend = 0, frame = 0
 543              		@ frame_needed = 0, uses_anonymous_args = 0
 544              		.loc 1 499 0
 545 0000 3548     		ldr	r0, .L94
 546              		.loc 1 498 0
 547 0002 F8B5     		push	{r3, r4, r5, r6, r7, lr}
 548              		.cfi_def_cfa_offset 24
 549              		.cfi_offset 3, -24
 550              		.cfi_offset 4, -20
 551              		.cfi_offset 5, -16
 552              		.cfi_offset 6, -12
 553              		.cfi_offset 7, -8
 554              		.cfi_offset 14, -4
 555              		.loc 1 499 0
 556 0004 446B     		ldr	r4, [r0, #52]
 557              	.LBB22:
 558              	.LBB23:
 559              		.loc 1 410 0
 560 0006 066B     		ldr	r6, [r0, #48]
 561              	.LBE23:
 562              	.LBE22:
ARM GAS  C:\Users\jsyoon\AppData\Local\Temp\ccxdlBoZ.s 			page 11


 563              		.loc 1 499 0
 564 0008 A18A     		ldrh	r1, [r4, #20]
 565              	.LBB28:
 566              	.LBB25:
 567              		.loc 1 410 0
 568 000a 3268     		ldr	r2, [r6]
 569              	.LBE25:
 570              	.LBE28:
 571              		.loc 1 499 0
 572 000c 89B2     		uxth	r1, r1
 573              	.LVL30:
 574              		.loc 1 503 0
 575 000e 01F45F43 		and	r3, r1, #57088
 576 0012 83F47F43 		eor	r3, r3, #65280
 577 0016 83F0FF03 		eor	r3, r3, #255
 578 001a A382     		strh	r3, [r4, #20]	@ movhi
 579              	.LVL31:
 580              	.LBB29:
 581              	.LBB26:
 582              		.loc 1 410 0
 583 001c 1368     		ldr	r3, [r2]
 584 001e 23F01F03 		bic	r3, r3, #31
 585 0022 1360     		str	r3, [r2]
 586              	.L57:
 587 0024 1368     		ldr	r3, [r2]
 588 0026 DF07     		lsls	r7, r3, #31
 589 0028 FCD4     		bmi	.L57
 590 002a 377A     		ldrb	r7, [r6, #8]	@ zero_extendqisi2
 591              		.loc 1 411 0
 592 002c C56A     		ldr	r5, [r0, #44]
 593              		.loc 1 410 0
 594 002e 7368     		ldr	r3, [r6, #4]
 595              		.loc 1 411 0
 596 0030 2A68     		ldr	r2, [r5]
 597              		.loc 1 410 0
 598 0032 3D26     		movs	r6, #61
 599 0034 BE40     		lsls	r6, r6, r7
 600 0036 1E60     		str	r6, [r3]
 601              		.loc 1 411 0
 602 0038 1368     		ldr	r3, [r2]
 603 003a 23F01F03 		bic	r3, r3, #31
 604 003e 1360     		str	r3, [r2]
 605              	.L59:
 606 0040 1368     		ldr	r3, [r2]
 607 0042 13F00103 		ands	r3, r3, #1
 608 0046 FBD1     		bne	.L59
 609 0048 2E7A     		ldrb	r6, [r5, #8]	@ zero_extendqisi2
 610 004a 6A68     		ldr	r2, [r5, #4]
 611 004c 3D25     		movs	r5, #61
 612 004e B540     		lsls	r5, r5, r6
 613 0050 1560     		str	r5, [r2]
 614              		.loc 1 415 0
 615 0052 CD05     		lsls	r5, r1, #23
 616              		.loc 1 416 0
 617 0054 48BF     		it	mi
 618 0056 0123     		movmi	r3, #1
 619              		.loc 1 418 0
ARM GAS  C:\Users\jsyoon\AppData\Local\Temp\ccxdlBoZ.s 			page 12


 620 0058 8A05     		lsls	r2, r1, #22
 621              		.loc 1 416 0
 622 005a 8360     		str	r3, [r0, #8]
 623              		.loc 1 419 0
 624 005c 44BF     		itt	mi
 625 005e 43F00203 		orrmi	r3, r3, #2
 626 0062 8360     		strmi	r3, [r0, #8]
 627              		.loc 1 421 0
 628 0064 4F05     		lsls	r7, r1, #21
 629 0066 0DD5     		bpl	.L63
 630              		.loc 1 422 0
 631 0068 A288     		ldrh	r2, [r4, #4]
 632 006a 22F40072 		bic	r2, r2, #512
 633 006e 1204     		lsls	r2, r2, #16
 634 0070 120C     		lsrs	r2, r2, #16
 635 0072 A280     		strh	r2, [r4, #4]	@ movhi
 636              		.loc 1 423 0
 637 0074 2288     		ldrh	r2, [r4]
 638 0076 92B2     		uxth	r2, r2
 639              		.loc 1 424 0
 640 0078 43F00403 		orr	r3, r3, #4
 641              		.loc 1 423 0
 642 007c 42F40072 		orr	r2, r2, #512
 643 0080 2280     		strh	r2, [r4]	@ movhi
 644              		.loc 1 424 0
 645 0082 8360     		str	r3, [r0, #8]
 646              	.L63:
 647              		.loc 1 427 0
 648 0084 0E05     		lsls	r6, r1, #20
 649              		.loc 1 428 0
 650 0086 44BF     		itt	mi
 651 0088 43F00803 		orrmi	r3, r3, #8
 652 008c 8360     		strmi	r3, [r0, #8]
 653              		.loc 1 430 0
 654 008e 4D04     		lsls	r5, r1, #17
 655              		.loc 1 431 0
 656 0090 44BF     		itt	mi
 657 0092 43F02003 		orrmi	r3, r3, #32
 658 0096 8360     		strmi	r3, [r0, #8]
 659              		.loc 1 433 0
 660 0098 CC04     		lsls	r4, r1, #19
 661              		.loc 1 434 0
 662 009a 44BF     		itt	mi
 663 009c 43F01003 		orrmi	r3, r3, #16
 664 00a0 8360     		strmi	r3, [r0, #8]
 665              		.loc 1 436 0
 666 00a2 0A04     		lsls	r2, r1, #16
 667 00a4 04D4     		bmi	.L93
 668              		.loc 1 440 0
 669 00a6 33B9     		cbnz	r3, .L68
 670              	.LBE26:
 671              	.LBE29:
 672              		.loc 1 507 0
 673 00a8 BDE8F840 		pop	{r3, r4, r5, r6, r7, lr}
 674              		.loc 1 506 0
 675 00ac FFF7FEBF 		b	_port_irq_epilogue
 676              	.LVL32:
ARM GAS  C:\Users\jsyoon\AppData\Local\Temp\ccxdlBoZ.s 			page 13


 677              	.L93:
 678              	.LBB30:
 679              	.LBB27:
 680              		.loc 1 437 0
 681 00b0 43F04003 		orr	r3, r3, #64
 682 00b4 8360     		str	r3, [r0, #8]
 683              	.L68:
 684              		.loc 1 441 0
 685              	@ 441 "ChibiOS_2.6.6/os/hal/platforms/STM32/I2Cv1/i2c_lld.c" 1
 686 00b6 72B6     		cpsid   i
 687              	@ 0 "" 2
 688              		.thumb
 689 00b8 C069     		ldr	r0, [r0, #28]
 690 00ba 074B     		ldr	r3, .L94
 691 00bc 30B1     		cbz	r0, .L70
 692              	.LVL33:
 693              	.LBB24:
 694 00be 6FF00102 		mvn	r2, #1
 695 00c2 4262     		str	r2, [r0, #36]
 696 00c4 0022     		movs	r2, #0
 697 00c6 DA61     		str	r2, [r3, #28]
 698 00c8 FFF7FEFF 		bl	chSchReadyI
 699              	.LVL34:
 700              	.L70:
 701              	.LBE24:
 702              	@ 441 "ChibiOS_2.6.6/os/hal/platforms/STM32/I2Cv1/i2c_lld.c" 1
 703 00cc 62B6     		cpsie   i
 704              	@ 0 "" 2
 705              		.thumb
 706              	.LBE27:
 707              	.LBE30:
 708              		.loc 1 507 0
 709 00ce BDE8F840 		pop	{r3, r4, r5, r6, r7, lr}
 710              		.loc 1 506 0
 711 00d2 FFF7FEBF 		b	_port_irq_epilogue
 712              	.LVL35:
 713              	.L95:
 714 00d6 00BF     		.align	2
 715              	.L94:
 716 00d8 00000000 		.word	.LANCHOR0
 717              		.cfi_endproc
 718              	.LFE127:
 719              		.size	VectorC8, .-VectorC8
 720 00dc AFF30080 		.section	.text.i2c_lld_init,"ax",%progbits
 721              		.align	2
 722              		.p2align 4,,15
 723              		.global	i2c_lld_init
 724              		.thumb
 725              		.thumb_func
 726              		.type	i2c_lld_init, %function
 727              	i2c_lld_init:
 728              	.LFB128:
 729              		.loc 1 551 0
 730              		.cfi_startproc
 731              		@ args = 0, pretend = 0, frame = 0
 732              		@ frame_needed = 0, uses_anonymous_args = 0
 733 0000 10B5     		push	{r4, lr}
ARM GAS  C:\Users\jsyoon\AppData\Local\Temp\ccxdlBoZ.s 			page 14


 734              		.cfi_def_cfa_offset 8
 735              		.cfi_offset 4, -8
 736              		.cfi_offset 14, -4
 737              		.loc 1 562 0
 738 0002 074C     		ldr	r4, .L97
 739 0004 2046     		mov	r0, r4
 740 0006 FFF7FEFF 		bl	i2cObjectInit
 741              	.LVL36:
 742              		.loc 1 565 0
 743 000a 064B     		ldr	r3, .L97+4
 744              		.loc 1 564 0
 745 000c 064A     		ldr	r2, .L97+8
 746 000e 6263     		str	r2, [r4, #52]
 747              		.loc 1 563 0
 748 0010 0021     		movs	r1, #0
 749              		.loc 1 566 0
 750 0012 03F13C02 		add	r2, r3, #60
 751              		.loc 1 563 0
 752 0016 E161     		str	r1, [r4, #28]
 753              		.loc 1 565 0
 754 0018 E362     		str	r3, [r4, #44]
 755              		.loc 1 566 0
 756 001a 2263     		str	r2, [r4, #48]
 757 001c 10BD     		pop	{r4, pc}
 758              	.L98:
 759 001e 00BF     		.align	2
 760              	.L97:
 761 0020 00000000 		.word	.LANCHOR0
 762 0024 18000000 		.word	_stm32_dma_streams+24
 763 0028 00580040 		.word	1073764352
 764              		.cfi_endproc
 765              	.LFE128:
 766              		.size	i2c_lld_init, .-i2c_lld_init
 767 002c AFF30080 		.section	.text.i2c_lld_start,"ax",%progbits
 768              		.align	2
 769              		.p2align 4,,15
 770              		.global	i2c_lld_start
 771              		.thumb
 772              		.thumb_func
 773              		.type	i2c_lld_start, %function
 774              	i2c_lld_start:
 775              	.LFB129:
 776              		.loc 1 585 0
 777              		.cfi_startproc
 778              		@ args = 0, pretend = 0, frame = 0
 779              		@ frame_needed = 0, uses_anonymous_args = 0
 780              	.LVL37:
 781              		.loc 1 598 0
 782 0000 0378     		ldrb	r3, [r0]	@ zero_extendqisi2
 783              		.loc 1 588 0
 784 0002 40F25642 		movw	r2, #1110
 785              		.loc 1 585 0
 786 0006 2DE9F047 		push	{r4, r5, r6, r7, r8, r9, r10, lr}
 787              		.cfi_def_cfa_offset 32
 788              		.cfi_offset 4, -32
 789              		.cfi_offset 5, -28
 790              		.cfi_offset 6, -24
ARM GAS  C:\Users\jsyoon\AppData\Local\Temp\ccxdlBoZ.s 			page 15


 791              		.cfi_offset 7, -20
 792              		.cfi_offset 8, -16
 793              		.cfi_offset 9, -12
 794              		.cfi_offset 10, -8
 795              		.cfi_offset 14, -4
 796              		.loc 1 598 0
 797 000a 012B     		cmp	r3, #1
 798              		.loc 1 588 0
 799 000c 8262     		str	r2, [r0, #40]
 800              		.loc 1 592 0
 801 000e 40F21642 		movw	r2, #1046
 802              		.loc 1 585 0
 803 0012 0446     		mov	r4, r0
 804              		.loc 1 592 0
 805 0014 4262     		str	r2, [r0, #36]
 806              		.loc 1 586 0
 807 0016 456B     		ldr	r5, [r0, #52]
 808              	.LVL38:
 809              		.loc 1 598 0
 810 0018 51D0     		beq	.L113
 811              	.L110:
 812              		.loc 1 586 0
 813 001a 2A46     		mov	r2, r5
 814              	.LVL39:
 815              	.L100:
 816              		.loc 1 686 0
 817 001c E16A     		ldr	r1, [r4, #44]
 818              		.loc 1 687 0
 819 001e 236B     		ldr	r3, [r4, #48]
 820              		.loc 1 686 0
 821 0020 D1F80090 		ldr	r9, [r1]
 822              		.loc 1 687 0
 823 0024 D3F800A0 		ldr	r10, [r3]
 824              		.loc 1 585 0
 825 0028 6168     		ldr	r1, [r4, #4]
 826              	.LVL40:
 827              	.LBB36:
 828              	.LBB37:
 829              		.loc 1 201 0
 830 002a 4D4E     		ldr	r6, .L118
 831              		.loc 1 187 0
 832 002c 4868     		ldr	r0, [r1, #4]
 833              	.LVL41:
 834              		.loc 1 188 0
 835 002e 0F7A     		ldrb	r7, [r1, #8]	@ zero_extendqisi2
 836              	.LVL42:
 837              	.LBE37:
 838              	.LBE36:
 839              		.loc 1 686 0
 840 0030 05F11003 		add	r3, r5, #16
 841              		.loc 1 690 0
 842 0034 4FF40048 		mov	r8, #32768
 843              		.loc 1 691 0
 844 0038 0024     		movs	r4, #0
 845              	.LVL43:
 846              		.loc 1 692 0
 847 003a 4FF4106C 		mov	ip, #2304
ARM GAS  C:\Users\jsyoon\AppData\Local\Temp\ccxdlBoZ.s 			page 16


 848              		.loc 1 686 0
 849 003e C9F80830 		str	r3, [r9, #8]
 850              		.loc 1 687 0
 851 0042 CAF80830 		str	r3, [r10, #8]
 852              		.loc 1 690 0
 853 0046 A5F80080 		strh	r8, [r5]	@ movhi
 854              		.loc 1 691 0
 855 004a 2C80     		strh	r4, [r5]	@ movhi
 856              		.loc 1 692 0
 857 004c A5F804C0 		strh	ip, [r5, #4]	@ movhi
 858              	.LBB41:
 859              	.LBB38:
 860              		.loc 1 194 0
 861 0050 9388     		ldrh	r3, [r2, #4]
 862 0052 23F03F03 		bic	r3, r3, #63
 863 0056 1B04     		lsls	r3, r3, #16
 864 0058 1B0C     		lsrs	r3, r3, #16
 865 005a 9380     		strh	r3, [r2, #4]	@ movhi
 866              		.loc 1 195 0
 867 005c 9388     		ldrh	r3, [r2, #4]
 868 005e 9BB2     		uxth	r3, r3
 869 0060 43F02A03 		orr	r3, r3, #42
 870              		.loc 1 201 0
 871 0064 B042     		cmp	r0, r6
 872              		.loc 1 195 0
 873 0066 9380     		strh	r3, [r2, #4]	@ movhi
 874              	.LVL44:
 875              		.loc 1 201 0
 876 0068 20DD     		ble	.L114
 877              		.loc 1 221 0
 878 006a 3E4B     		ldr	r3, .L118+4
 879 006c 9842     		cmp	r0, r3
 880 006e 07DC     		bgt	.L102
 881              		.loc 1 227 0
 882 0070 022F     		cmp	r7, #2
 883 0072 6AD0     		beq	.L115
 884              		.loc 1 234 0
 885 0074 032F     		cmp	r7, #3
 886 0076 5BD0     		beq	.L116
 887 0078 48F6FF74 		movw	r4, #36863
 888              	.LVL45:
 889              	.L104:
 890              		.loc 1 249 0
 891 007c 0D23     		movs	r3, #13
 892 007e 1384     		strh	r3, [r2, #32]	@ movhi
 893              	.LVL46:
 894              	.L102:
 895              		.loc 1 255 0
 896 0080 9483     		strh	r4, [r2, #28]	@ movhi
 897              	.LVL47:
 898              	.LBE38:
 899              	.LBE41:
 900              	.LBB42:
 901              	.LBB43:
 902              		.loc 1 271 0
 903 0082 0978     		ldrb	r1, [r1]	@ zero_extendqisi2
 904              	.LVL48:
ARM GAS  C:\Users\jsyoon\AppData\Local\Temp\ccxdlBoZ.s 			page 17


 905              		.loc 1 270 0
 906 0084 1388     		ldrh	r3, [r2]
 907              		.loc 1 271 0
 908 0086 0229     		cmp	r1, #2
 909              		.loc 1 270 0
 910 0088 9BB2     		uxth	r3, r3
 911              	.LVL49:
 912              		.loc 1 271 0
 913 008a 4BD0     		beq	.L106
 914 008c 0329     		cmp	r1, #3
 915 008e 46D0     		beq	.L107
 916 0090 0129     		cmp	r1, #1
 917 0092 07D0     		beq	.L117
 918              	.LVL50:
 919              	.L105:
 920              		.loc 1 283 0
 921 0094 1380     		strh	r3, [r2]	@ movhi
 922              	.LBE43:
 923              	.LBE42:
 924              		.loc 1 699 0
 925 0096 2B88     		ldrh	r3, [r5]
 926              	.LVL51:
 927 0098 9BB2     		uxth	r3, r3
 928 009a 43F00103 		orr	r3, r3, #1
 929 009e 2B80     		strh	r3, [r5]	@ movhi
 930 00a0 BDE8F087 		pop	{r4, r5, r6, r7, r8, r9, r10, pc}
 931              	.LVL52:
 932              	.L117:
 933              	.LBB46:
 934              	.LBB44:
 935              		.loc 1 273 0
 936 00a4 23F00A03 		bic	r3, r3, #10
 937              	.LVL53:
 938 00a8 9BB2     		uxth	r3, r3
 939              	.LVL54:
 940 00aa F3E7     		b	.L105
 941              	.LVL55:
 942              	.L114:
 943              	.LBE44:
 944              	.LBE46:
 945              	.LBB47:
 946              	.LBB39:
 947              		.loc 1 211 0
 948 00ac 2E4C     		ldr	r4, .L118+8
 949 00ae 4000     		lsls	r0, r0, #1
 950              	.LVL56:
 951 00b0 94FBF0F4 		sdiv	r4, r4, r0
 952              		.loc 1 219 0
 953 00b4 2B23     		movs	r3, #43
 954              		.loc 1 216 0
 955 00b6 C4F30B04 		ubfx	r4, r4, #0, #12
 956              	.LVL57:
 957              		.loc 1 219 0
 958 00ba 1384     		strh	r3, [r2, #32]	@ movhi
 959 00bc E0E7     		b	.L102
 960              	.LVL58:
 961              	.L113:
ARM GAS  C:\Users\jsyoon\AppData\Local\Temp\ccxdlBoZ.s 			page 18


 962              	.LBE39:
 963              	.LBE47:
 964              		.loc 1 629 0
 965 00be 2B4B     		ldr	r3, .L118+12
 966 00c0 9842     		cmp	r0, r3
 967 00c2 AAD1     		bne	.L110
 968              	.LBB48:
 969              		.loc 1 632 0
 970 00c4 2A4E     		ldr	r6, .L118+16
 971              		.loc 1 633 0
 972 00c6 C06A     		ldr	r0, [r0, #44]
 973              	.LVL59:
 974              		.loc 1 632 0
 975 00c8 316A     		ldr	r1, [r6, #32]
 976              		.loc 1 633 0
 977 00ca 2A4A     		ldr	r2, .L118+20
 978              		.loc 1 632 0
 979 00cc 41F48001 		orr	r1, r1, #4194304
 980 00d0 0023     		movs	r3, #0
 981 00d2 3162     		str	r1, [r6, #32]
 982              		.loc 1 633 0
 983 00d4 0521     		movs	r1, #5
 984              		.loc 1 632 0
 985 00d6 3362     		str	r3, [r6, #32]
 986              		.loc 1 633 0
 987 00d8 2346     		mov	r3, r4
 988 00da FFF7FEFF 		bl	dmaStreamAllocate
 989              	.LVL60:
 990              		.loc 1 638 0
 991 00de 264A     		ldr	r2, .L118+24
 992 00e0 206B     		ldr	r0, [r4, #48]
 993 00e2 0521     		movs	r1, #5
 994 00e4 2346     		mov	r3, r4
 995 00e6 FFF7FEFF 		bl	dmaStreamAllocate
 996              	.LVL61:
 997              		.loc 1 643 0
 998 00ea 336C     		ldr	r3, [r6, #64]
 999 00ec 43F48003 		orr	r3, r3, #4194304
 1000 00f0 3364     		str	r3, [r6, #64]
 1001              		.loc 1 644 0
 1002 00f2 2120     		movs	r0, #33
 1003 00f4 5021     		movs	r1, #80
 1004 00f6 FFF7FEFF 		bl	nvicEnableVector
 1005              	.LVL62:
 1006              		.loc 1 646 0
 1007 00fa 5021     		movs	r1, #80
 1008 00fc 2220     		movs	r0, #34
 1009 00fe FFF7FEFF 		bl	nvicEnableVector
 1010              	.LVL63:
 1011              		.loc 1 649 0
 1012 0102 616A     		ldr	r1, [r4, #36]
 1013              		.loc 1 651 0
 1014 0104 A36A     		ldr	r3, [r4, #40]
 1015 0106 626B     		ldr	r2, [r4, #52]
 1016              		.loc 1 649 0
 1017 0108 41F06061 		orr	r1, r1, #234881024
 1018              		.loc 1 651 0
ARM GAS  C:\Users\jsyoon\AppData\Local\Temp\ccxdlBoZ.s 			page 19


 1019 010c 43F06063 		orr	r3, r3, #234881024
 1020              		.loc 1 649 0
 1021 0110 41F44031 		orr	r1, r1, #196608
 1022              		.loc 1 651 0
 1023 0114 43F44033 		orr	r3, r3, #196608
 1024              		.loc 1 649 0
 1025 0118 6162     		str	r1, [r4, #36]
 1026              		.loc 1 651 0
 1027 011a A362     		str	r3, [r4, #40]
 1028 011c 7EE7     		b	.L100
 1029              	.LVL64:
 1030              	.L107:
 1031              	.LBE48:
 1032              	.LBB49:
 1033              	.LBB45:
 1034              		.loc 1 280 0
 1035 011e 43F00A03 		orr	r3, r3, #10
 1036              	.LVL65:
 1037 0122 B7E7     		b	.L105
 1038              	.L106:
 1039              	.LVL66:
 1040              		.loc 1 277 0
 1041 0124 23F00803 		bic	r3, r3, #8
 1042              	.LVL67:
 1043 0128 9BB2     		uxth	r3, r3
 1044 012a 43F00203 		orr	r3, r3, #2
 1045              	.LVL68:
 1046 012e B1E7     		b	.L105
 1047              	.LVL69:
 1048              	.L116:
 1049              	.LBE45:
 1050              	.LBE49:
 1051              	.LBB50:
 1052              	.LBB40:
 1053              		.loc 1 239 0
 1054 0130 00EB8000 		add	r0, r0, r0, lsl #2
 1055              	.LVL70:
 1056 0134 0C4C     		ldr	r4, .L118+8
 1057 0136 00EB8000 		add	r0, r0, r0, lsl #2
 1058 013a 94FBF0F4 		sdiv	r4, r4, r0
 1059 013e 6FEA8444 		mvn	r4, r4, lsl #18
 1060 0142 6FEA9444 		mvn	r4, r4, lsr #18
 1061 0146 A4B2     		uxth	r4, r4
 1062 0148 98E7     		b	.L104
 1063              	.LVL71:
 1064              	.L115:
 1065              		.loc 1 232 0
 1066 014a 074C     		ldr	r4, .L118+8
 1067 014c 00EB4000 		add	r0, r0, r0, lsl #1
 1068              	.LVL72:
 1069 0150 94FBF0F4 		sdiv	r4, r4, r0
 1070 0154 6FEA4444 		mvn	r4, r4, lsl #17
 1071 0158 6FEA5444 		mvn	r4, r4, lsr #17
 1072 015c A4B2     		uxth	r4, r4
 1073 015e 8DE7     		b	.L104
 1074              	.L119:
 1075              		.align	2
ARM GAS  C:\Users\jsyoon\AppData\Local\Temp\ccxdlBoZ.s 			page 20


 1076              	.L118:
 1077 0160 A0860100 		.word	100000
 1078 0164 801A0600 		.word	400000
 1079 0168 80DE8002 		.word	42000000
 1080 016c 00000000 		.word	.LANCHOR0
 1081 0170 00380240 		.word	1073887232
 1082 0174 00000000 		.word	i2c_lld_serve_rx_end_irq
 1083 0178 00000000 		.word	i2c_lld_serve_tx_end_irq
 1084              	.LBE40:
 1085              	.LBE50:
 1086              		.cfi_endproc
 1087              	.LFE129:
 1088              		.size	i2c_lld_start, .-i2c_lld_start
 1089 017c AFF30080 		.section	.text.i2c_lld_stop,"ax",%progbits
 1090              		.align	2
 1091              		.p2align 4,,15
 1092              		.global	i2c_lld_stop
 1093              		.thumb
 1094              		.thumb_func
 1095              		.type	i2c_lld_stop, %function
 1096              	i2c_lld_stop:
 1097              	.LFB130:
 1098              		.loc 1 709 0
 1099              		.cfi_startproc
 1100              		@ args = 0, pretend = 0, frame = 0
 1101              		@ frame_needed = 0, uses_anonymous_args = 0
 1102              	.LVL73:
 1103              		.loc 1 712 0
 1104 0000 0378     		ldrb	r3, [r0]	@ zero_extendqisi2
 1105 0002 012B     		cmp	r3, #1
 1106              		.loc 1 709 0
 1107 0004 10B5     		push	{r4, lr}
 1108              		.cfi_def_cfa_offset 8
 1109              		.cfi_offset 4, -8
 1110              		.cfi_offset 14, -4
 1111              		.loc 1 709 0
 1112 0006 0446     		mov	r4, r0
 1113              		.loc 1 712 0
 1114 0008 0AD0     		beq	.L120
 1115              		.loc 1 715 0
 1116 000a FFF7FEFF 		bl	i2c_lld_abort_operation
 1117              	.LVL74:
 1118              		.loc 1 716 0
 1119 000e 206B     		ldr	r0, [r4, #48]
 1120 0010 FFF7FEFF 		bl	dmaStreamRelease
 1121              	.LVL75:
 1122              		.loc 1 717 0
 1123 0014 E06A     		ldr	r0, [r4, #44]
 1124 0016 FFF7FEFF 		bl	dmaStreamRelease
 1125              	.LVL76:
 1126              		.loc 1 728 0
 1127 001a 084B     		ldr	r3, .L125
 1128 001c 9C42     		cmp	r4, r3
 1129 001e 00D0     		beq	.L124
 1130              	.L120:
 1131 0020 10BD     		pop	{r4, pc}
 1132              	.LVL77:
ARM GAS  C:\Users\jsyoon\AppData\Local\Temp\ccxdlBoZ.s 			page 21


 1133              	.L124:
 1134              		.loc 1 729 0
 1135 0022 2120     		movs	r0, #33
 1136 0024 FFF7FEFF 		bl	nvicDisableVector
 1137              	.LVL78:
 1138              		.loc 1 730 0
 1139 0028 2220     		movs	r0, #34
 1140 002a FFF7FEFF 		bl	nvicDisableVector
 1141              	.LVL79:
 1142              		.loc 1 731 0
 1143 002e 044B     		ldr	r3, .L125+4
 1144 0030 1A6C     		ldr	r2, [r3, #64]
 1145 0032 22F48002 		bic	r2, r2, #4194304
 1146 0036 1A64     		str	r2, [r3, #64]
 1147 0038 F2E7     		b	.L120
 1148              	.L126:
 1149 003a 00BF     		.align	2
 1150              	.L125:
 1151 003c 00000000 		.word	.LANCHOR0
 1152 0040 00380240 		.word	1073887232
 1153              		.cfi_endproc
 1154              	.LFE130:
 1155              		.size	i2c_lld_stop, .-i2c_lld_stop
 1156 0044 AFF30080 		.section	.text.i2c_lld_master_receive_timeout,"ax",%progbits
 1156      AFF30080 
 1156      AFF30080 
 1157              		.align	2
 1158              		.p2align 4,,15
 1159              		.global	i2c_lld_master_receive_timeout
 1160              		.thumb
 1161              		.thumb_func
 1162              		.type	i2c_lld_master_receive_timeout, %function
 1163              	i2c_lld_master_receive_timeout:
 1164              	.LFB131:
 1165              		.loc 1 770 0
 1166              		.cfi_startproc
 1167              		@ args = 4, pretend = 0, frame = 24
 1168              		@ frame_needed = 0, uses_anonymous_args = 0
 1169              	.LVL80:
 1170 0000 2DE9F046 		push	{r4, r5, r6, r7, r9, r10, lr}
 1171              		.cfi_def_cfa_offset 28
 1172              		.cfi_offset 4, -28
 1173              		.cfi_offset 5, -24
 1174              		.cfi_offset 6, -20
 1175              		.cfi_offset 7, -16
 1176              		.cfi_offset 9, -12
 1177              		.cfi_offset 10, -8
 1178              		.cfi_offset 14, -4
 1179 0004 87B0     		sub	sp, sp, #28
 1180              		.cfi_def_cfa_offset 56
 1181              		.loc 1 770 0
 1182 0006 0646     		mov	r6, r0
 1183 0008 0E9D     		ldr	r5, [sp, #56]
 1184              		.loc 1 771 0
 1185 000a 446B     		ldr	r4, [r0, #52]
 1186              	.LVL81:
 1187              		.loc 1 779 0
ARM GAS  C:\Users\jsyoon\AppData\Local\Temp\ccxdlBoZ.s 			page 22


 1188 000c 681C     		adds	r0, r5, #1
 1189              	.LVL82:
 1190              		.loc 1 770 0
 1191 000e 8A46     		mov	r10, r1
 1192 0010 9146     		mov	r9, r2
 1193 0012 1F46     		mov	r7, r3
 1194              		.loc 1 779 0
 1195 0014 05D0     		beq	.L128
 1196              		.loc 1 780 0
 1197 0016 01A8     		add	r0, sp, #4
 1198 0018 2946     		mov	r1, r5
 1199              	.LVL83:
 1200 001a 2C4A     		ldr	r2, .L150
 1201              	.LVL84:
 1202 001c 3346     		mov	r3, r6
 1203              	.LVL85:
 1204 001e FFF7FEFF 		bl	chVTSetI
 1205              	.LVL86:
 1206              	.L128:
 1207              		.loc 1 783 0
 1208              	@ 783 "ChibiOS_2.6.6/os/hal/platforms/STM32/I2Cv1/i2c_lld.c" 1
 1209 0022 62B6     		cpsie   i
 1210              	@ 0 "" 2
 1211              		.loc 1 790 0
 1212              		.thumb
 1213 0024 F06A     		ldr	r0, [r6, #44]
 1214 0026 726A     		ldr	r2, [r6, #36]
 1215 0028 0068     		ldr	r0, [r0]
 1216              		.loc 1 786 0
 1217 002a 4FEA4A0A 		lsl	r10, r10, #1
 1218 002e 4AF0010A 		orr	r10, r10, #1
 1219              		.loc 1 787 0
 1220 0032 0023     		movs	r3, #0
 1221              		.loc 1 786 0
 1222 0034 A6F820A0 		strh	r10, [r6, #32]	@ movhi
 1223              		.loc 1 787 0
 1224 0038 B360     		str	r3, [r6, #8]
 1225              		.loc 1 790 0
 1226 003a 0260     		str	r2, [r0]
 1227              		.loc 1 791 0
 1228 003c C0F80C90 		str	r9, [r0, #12]
 1229              		.loc 1 792 0
 1230 0040 4760     		str	r7, [r0, #4]
 1231              		.loc 1 796 0
 1232 0042 00E0     		b	.L129
 1233              	.L130:
 1234              		.loc 1 800 0
 1235              	@ 800 "ChibiOS_2.6.6/os/hal/platforms/STM32/I2Cv1/i2c_lld.c" 1
 1236 0044 62B6     		cpsie   i
 1237              	@ 0 "" 2
 1238              		.thumb
 1239              	.L129:
 1240              		.loc 1 796 0 discriminator 1
 1241 0046 228B     		ldrh	r2, [r4, #24]
 1242 0048 9207     		lsls	r2, r2, #30
 1243 004a 02D4     		bmi	.L132
 1244              		.loc 1 796 0 is_stmt 0 discriminator 2
ARM GAS  C:\Users\jsyoon\AppData\Local\Temp\ccxdlBoZ.s 			page 23


 1245 004c 2288     		ldrh	r2, [r4]
 1246 004e 9305     		lsls	r3, r2, #22
 1247 0050 0AD5     		bpl	.L149
 1248              	.L132:
 1249              		.loc 1 797 0 is_stmt 1
 1250              	@ 797 "ChibiOS_2.6.6/os/hal/platforms/STM32/I2Cv1/i2c_lld.c" 1
 1251 0052 72B6     		cpsid   i
 1252              	@ 0 "" 2
 1253              		.loc 1 798 0
 1254              		.thumb
 1255 0054 691C     		adds	r1, r5, #1
 1256 0056 F5D0     		beq	.L130
 1257              		.loc 1 798 0 is_stmt 0 discriminator 1
 1258 0058 049A     		ldr	r2, [sp, #16]
 1259 005a 002A     		cmp	r2, #0
 1260 005c F2D1     		bne	.L130
 1261              	.L134:
 1262              		.loc 1 799 0 is_stmt 1
 1263 005e 4FF0FF30 		mov	r0, #-1
 1264              		.loc 1 822 0
 1265 0062 07B0     		add	sp, sp, #28
 1266              		@ sp needed
 1267 0064 BDE8F086 		pop	{r4, r5, r6, r7, r9, r10, pc}
 1268              	.LVL87:
 1269              	.L149:
 1270              		.loc 1 804 0
 1271              	@ 804 "ChibiOS_2.6.6/os/hal/platforms/STM32/I2Cv1/i2c_lld.c" 1
 1272 0068 72B6     		cpsid   i
 1273              	@ 0 "" 2
 1274              		.loc 1 808 0
 1275              		.thumb
 1276 006a 0135     		adds	r5, r5, #1
 1277 006c 1CD0     		beq	.L133
 1278              		.loc 1 808 0 is_stmt 0 discriminator 1
 1279 006e 049B     		ldr	r3, [sp, #16]
 1280 0070 002B     		cmp	r3, #0
 1281 0072 F4D0     		beq	.L134
 1282              		.loc 1 812 0 is_stmt 1
 1283 0074 A388     		ldrh	r3, [r4, #4]
 1284              		.loc 1 816 0
 1285 0076 164D     		ldr	r5, .L150+4
 1286              		.loc 1 812 0
 1287 0078 9BB2     		uxth	r3, r3
 1288 007a 43F40073 		orr	r3, r3, #512
 1289 007e A380     		strh	r3, [r4, #4]	@ movhi
 1290              		.loc 1 813 0
 1291 0080 2288     		ldrh	r2, [r4]
 1292              		.loc 1 816 0
 1293 0082 AB69     		ldr	r3, [r5, #24]
 1294              		.loc 1 813 0
 1295 0084 92B2     		uxth	r2, r2
 1296 0086 42F4A062 		orr	r2, r2, #1280
 1297 008a 2280     		strh	r2, [r4]	@ movhi
 1298              		.loc 1 817 0
 1299 008c 0220     		movs	r0, #2
 1300              		.loc 1 816 0
 1301 008e F361     		str	r3, [r6, #28]
ARM GAS  C:\Users\jsyoon\AppData\Local\Temp\ccxdlBoZ.s 			page 24


 1302              		.loc 1 817 0
 1303 0090 FFF7FEFF 		bl	chSchGoSleepS
 1304              	.LVL88:
 1305              		.loc 1 818 0
 1306 0094 049B     		ldr	r3, [sp, #16]
 1307 0096 13B1     		cbz	r3, .L136
 1308              		.loc 1 819 0
 1309 0098 01A8     		add	r0, sp, #4
 1310 009a FFF7FEFF 		bl	chVTResetI
 1311              	.LVL89:
 1312              	.L136:
 1313              		.loc 1 821 0
 1314 009e AB69     		ldr	r3, [r5, #24]
 1315 00a0 586A     		ldr	r0, [r3, #36]
 1316              		.loc 1 822 0
 1317 00a2 07B0     		add	sp, sp, #28
 1318              		@ sp needed
 1319 00a4 BDE8F086 		pop	{r4, r5, r6, r7, r9, r10, pc}
 1320              	.LVL90:
 1321              	.L133:
 1322              		.loc 1 812 0
 1323 00a8 A388     		ldrh	r3, [r4, #4]
 1324              		.loc 1 816 0
 1325 00aa 094D     		ldr	r5, .L150+4
 1326              		.loc 1 812 0
 1327 00ac 9BB2     		uxth	r3, r3
 1328 00ae 43F40073 		orr	r3, r3, #512
 1329 00b2 A380     		strh	r3, [r4, #4]	@ movhi
 1330              		.loc 1 813 0
 1331 00b4 2288     		ldrh	r2, [r4]
 1332              		.loc 1 816 0
 1333 00b6 AB69     		ldr	r3, [r5, #24]
 1334              		.loc 1 813 0
 1335 00b8 92B2     		uxth	r2, r2
 1336 00ba 42F4A062 		orr	r2, r2, #1280
 1337 00be 2280     		strh	r2, [r4]	@ movhi
 1338              		.loc 1 817 0
 1339 00c0 0220     		movs	r0, #2
 1340              		.loc 1 816 0
 1341 00c2 F361     		str	r3, [r6, #28]
 1342              		.loc 1 817 0
 1343 00c4 FFF7FEFF 		bl	chSchGoSleepS
 1344              	.LVL91:
 1345 00c8 E9E7     		b	.L136
 1346              	.L151:
 1347 00ca 00BF     		.align	2
 1348              	.L150:
 1349 00cc 00000000 		.word	i2c_lld_safety_timeout
 1350 00d0 00000000 		.word	rlist
 1351              		.cfi_endproc
 1352              	.LFE131:
 1353              		.size	i2c_lld_master_receive_timeout, .-i2c_lld_master_receive_timeout
 1354 00d4 AFF30080 		.section	.text.i2c_lld_master_transmit_timeout,"ax",%progbits
 1354      AFF30080 
 1354      AFF30080 
 1355              		.align	2
 1356              		.p2align 4,,15
ARM GAS  C:\Users\jsyoon\AppData\Local\Temp\ccxdlBoZ.s 			page 25


 1357              		.global	i2c_lld_master_transmit_timeout
 1358              		.thumb
 1359              		.thumb_func
 1360              		.type	i2c_lld_master_transmit_timeout, %function
 1361              	i2c_lld_master_transmit_timeout:
 1362              	.LFB132:
 1363              		.loc 1 852 0
 1364              		.cfi_startproc
 1365              		@ args = 12, pretend = 0, frame = 24
 1366              		@ frame_needed = 0, uses_anonymous_args = 0
 1367              	.LVL92:
 1368 0000 2DE9F049 		push	{r4, r5, r6, r7, r8, fp, lr}
 1369              		.cfi_def_cfa_offset 28
 1370              		.cfi_offset 4, -28
 1371              		.cfi_offset 5, -24
 1372              		.cfi_offset 6, -20
 1373              		.cfi_offset 7, -16
 1374              		.cfi_offset 8, -12
 1375              		.cfi_offset 11, -8
 1376              		.cfi_offset 14, -4
 1377 0004 87B0     		sub	sp, sp, #28
 1378              		.cfi_def_cfa_offset 56
 1379              		.loc 1 852 0
 1380 0006 8046     		mov	r8, r0
 1381 0008 109D     		ldr	r5, [sp, #64]
 1382              		.loc 1 853 0
 1383 000a 446B     		ldr	r4, [r0, #52]
 1384              	.LVL93:
 1385              		.loc 1 862 0
 1386 000c 681C     		adds	r0, r5, #1
 1387              	.LVL94:
 1388              		.loc 1 852 0
 1389 000e 8B46     		mov	fp, r1
 1390 0010 1746     		mov	r7, r2
 1391 0012 1E46     		mov	r6, r3
 1392              		.loc 1 862 0
 1393 0014 05D0     		beq	.L153
 1394              		.loc 1 863 0
 1395 0016 01A8     		add	r0, sp, #4
 1396 0018 2946     		mov	r1, r5
 1397              	.LVL95:
 1398 001a 324A     		ldr	r2, .L175
 1399              	.LVL96:
 1400 001c 4346     		mov	r3, r8
 1401              	.LVL97:
 1402 001e FFF7FEFF 		bl	chVTSetI
 1403              	.LVL98:
 1404              	.L153:
 1405              		.loc 1 866 0
 1406              	@ 866 "ChibiOS_2.6.6/os/hal/platforms/STM32/I2Cv1/i2c_lld.c" 1
 1407 0022 62B6     		cpsie   i
 1408              	@ 0 "" 2
 1409              		.loc 1 878 0
 1410              		.thumb
 1411 0024 D8F82C20 		ldr	r2, [r8, #44]
 1412              		.loc 1 873 0
 1413 0028 D8F83030 		ldr	r3, [r8, #48]
ARM GAS  C:\Users\jsyoon\AppData\Local\Temp\ccxdlBoZ.s 			page 26


 1414              		.loc 1 878 0
 1415 002c 1068     		ldr	r0, [r2]
 1416              		.loc 1 873 0
 1417 002e 1B68     		ldr	r3, [r3]
 1418              		.loc 1 878 0
 1419 0030 D8F82410 		ldr	r1, [r8, #36]
 1420              		.loc 1 870 0
 1421 0034 0022     		movs	r2, #0
 1422 0036 C8F80820 		str	r2, [r8, #8]
 1423              		.loc 1 869 0
 1424 003a 4FEA4B0B 		lsl	fp, fp, #1
 1425              		.loc 1 873 0
 1426 003e D8F82820 		ldr	r2, [r8, #40]
 1427              		.loc 1 869 0
 1428 0042 A8F820B0 		strh	fp, [r8, #32]	@ movhi
 1429              		.loc 1 873 0
 1430 0046 1A60     		str	r2, [r3]
 1431              		.loc 1 874 0
 1432 0048 DF60     		str	r7, [r3, #12]
 1433              		.loc 1 880 0
 1434 004a 0F9A     		ldr	r2, [sp, #60]
 1435              		.loc 1 875 0
 1436 004c 5E60     		str	r6, [r3, #4]
 1437              		.loc 1 879 0
 1438 004e 0E9B     		ldr	r3, [sp, #56]
 1439              		.loc 1 878 0
 1440 0050 0160     		str	r1, [r0]
 1441              		.loc 1 879 0
 1442 0052 C360     		str	r3, [r0, #12]
 1443              		.loc 1 880 0
 1444 0054 4260     		str	r2, [r0, #4]
 1445              		.loc 1 884 0
 1446 0056 00E0     		b	.L154
 1447              	.L155:
 1448              		.loc 1 888 0
 1449              	@ 888 "ChibiOS_2.6.6/os/hal/platforms/STM32/I2Cv1/i2c_lld.c" 1
 1450 0058 62B6     		cpsie   i
 1451              	@ 0 "" 2
 1452              		.thumb
 1453              	.L154:
 1454              		.loc 1 884 0 discriminator 1
 1455 005a 228B     		ldrh	r2, [r4, #24]
 1456 005c 9207     		lsls	r2, r2, #30
 1457 005e 02D4     		bmi	.L157
 1458              		.loc 1 884 0 is_stmt 0 discriminator 2
 1459 0060 2288     		ldrh	r2, [r4]
 1460 0062 9305     		lsls	r3, r2, #22
 1461 0064 0AD5     		bpl	.L174
 1462              	.L157:
 1463              		.loc 1 885 0 is_stmt 1
 1464              	@ 885 "ChibiOS_2.6.6/os/hal/platforms/STM32/I2Cv1/i2c_lld.c" 1
 1465 0066 72B6     		cpsid   i
 1466              	@ 0 "" 2
 1467              		.loc 1 886 0
 1468              		.thumb
 1469 0068 691C     		adds	r1, r5, #1
 1470 006a F5D0     		beq	.L155
ARM GAS  C:\Users\jsyoon\AppData\Local\Temp\ccxdlBoZ.s 			page 27


 1471              		.loc 1 886 0 is_stmt 0 discriminator 1
 1472 006c 049A     		ldr	r2, [sp, #16]
 1473 006e 002A     		cmp	r2, #0
 1474 0070 F2D1     		bne	.L155
 1475              	.L159:
 1476              		.loc 1 887 0 is_stmt 1
 1477 0072 4FF0FF30 		mov	r0, #-1
 1478              		.loc 1 910 0
 1479 0076 07B0     		add	sp, sp, #28
 1480              		@ sp needed
 1481 0078 BDE8F089 		pop	{r4, r5, r6, r7, r8, fp, pc}
 1482              	.LVL99:
 1483              	.L174:
 1484              		.loc 1 892 0
 1485              	@ 892 "ChibiOS_2.6.6/os/hal/platforms/STM32/I2Cv1/i2c_lld.c" 1
 1486 007c 72B6     		cpsid   i
 1487              	@ 0 "" 2
 1488              		.loc 1 896 0
 1489              		.thumb
 1490 007e 0135     		adds	r5, r5, #1
 1491 0080 1DD0     		beq	.L158
 1492              		.loc 1 896 0 is_stmt 0 discriminator 1
 1493 0082 049B     		ldr	r3, [sp, #16]
 1494 0084 002B     		cmp	r3, #0
 1495 0086 F4D0     		beq	.L159
 1496              		.loc 1 900 0 is_stmt 1
 1497 0088 A388     		ldrh	r3, [r4, #4]
 1498              		.loc 1 904 0
 1499 008a 174D     		ldr	r5, .L175+4
 1500              		.loc 1 900 0
 1501 008c 9BB2     		uxth	r3, r3
 1502 008e 43F40073 		orr	r3, r3, #512
 1503 0092 A380     		strh	r3, [r4, #4]	@ movhi
 1504              		.loc 1 901 0
 1505 0094 2288     		ldrh	r2, [r4]
 1506              		.loc 1 904 0
 1507 0096 AB69     		ldr	r3, [r5, #24]
 1508              		.loc 1 901 0
 1509 0098 92B2     		uxth	r2, r2
 1510 009a 42F48072 		orr	r2, r2, #256
 1511 009e 2280     		strh	r2, [r4]	@ movhi
 1512              		.loc 1 905 0
 1513 00a0 0220     		movs	r0, #2
 1514              		.loc 1 904 0
 1515 00a2 C8F81C30 		str	r3, [r8, #28]
 1516              		.loc 1 905 0
 1517 00a6 FFF7FEFF 		bl	chSchGoSleepS
 1518              	.LVL100:
 1519              		.loc 1 906 0
 1520 00aa 049B     		ldr	r3, [sp, #16]
 1521 00ac 13B1     		cbz	r3, .L161
 1522              		.loc 1 907 0
 1523 00ae 01A8     		add	r0, sp, #4
 1524 00b0 FFF7FEFF 		bl	chVTResetI
 1525              	.LVL101:
 1526              	.L161:
 1527              		.loc 1 909 0
ARM GAS  C:\Users\jsyoon\AppData\Local\Temp\ccxdlBoZ.s 			page 28


 1528 00b4 AB69     		ldr	r3, [r5, #24]
 1529 00b6 586A     		ldr	r0, [r3, #36]
 1530              		.loc 1 910 0
 1531 00b8 07B0     		add	sp, sp, #28
 1532              		@ sp needed
 1533 00ba BDE8F089 		pop	{r4, r5, r6, r7, r8, fp, pc}
 1534              	.LVL102:
 1535              	.L158:
 1536              		.loc 1 900 0
 1537 00be A388     		ldrh	r3, [r4, #4]
 1538              		.loc 1 904 0
 1539 00c0 094D     		ldr	r5, .L175+4
 1540              		.loc 1 900 0
 1541 00c2 9BB2     		uxth	r3, r3
 1542 00c4 43F40073 		orr	r3, r3, #512
 1543 00c8 A380     		strh	r3, [r4, #4]	@ movhi
 1544              		.loc 1 901 0
 1545 00ca 2288     		ldrh	r2, [r4]
 1546              		.loc 1 904 0
 1547 00cc AB69     		ldr	r3, [r5, #24]
 1548              		.loc 1 901 0
 1549 00ce 92B2     		uxth	r2, r2
 1550 00d0 42F48072 		orr	r2, r2, #256
 1551 00d4 2280     		strh	r2, [r4]	@ movhi
 1552              		.loc 1 905 0
 1553 00d6 0220     		movs	r0, #2
 1554              		.loc 1 904 0
 1555 00d8 C8F81C30 		str	r3, [r8, #28]
 1556              		.loc 1 905 0
 1557 00dc FFF7FEFF 		bl	chSchGoSleepS
 1558              	.LVL103:
 1559 00e0 E8E7     		b	.L161
 1560              	.L176:
 1561 00e2 00BF     		.align	2
 1562              	.L175:
 1563 00e4 00000000 		.word	i2c_lld_safety_timeout
 1564 00e8 00000000 		.word	rlist
 1565              		.cfi_endproc
 1566              	.LFE132:
 1567              		.size	i2c_lld_master_transmit_timeout, .-i2c_lld_master_transmit_timeout
 1568              		.global	I2CD2
 1569 00ec AFF30080 		.section	.bss.I2CD2,"aw",%nobits
 1570              		.align	2
 1571              		.set	.LANCHOR0,. + 0
 1572              		.type	I2CD2, %object
 1573              		.size	I2CD2, 56
 1574              	I2CD2:
 1575 0000 00000000 		.space	56
 1575      00000000 
 1575      00000000 
 1575      00000000 
 1575      00000000 
 1576              		.text
 1577              	.Letext0:
 1578              		.file 2 "c:\\crosstools\\gcc-arm-embedded\\4.8_2014q2\\lib\\gcc\\arm-none-eabi\\4.8.4\\include\\st
 1579              		.file 3 "c:\\crosstools\\gcc-arm-embedded\\4.8_2014q2\\arm-none-eabi\\include\\machine\\_default_t
 1580              		.file 4 "c:\\crosstools\\gcc-arm-embedded\\4.8_2014q2\\arm-none-eabi\\include\\stdint.h"
ARM GAS  C:\Users\jsyoon\AppData\Local\Temp\ccxdlBoZ.s 			page 29


 1581              		.file 5 "ChibiOS_2.6.6/os/ports/GCC/ARMCMx/chtypes.h"
 1582              		.file 6 "ChibiOS_2.6.6/os/kernel/include/chlists.h"
 1583              		.file 7 "ChibiOS_2.6.6/os/kernel/include/chthreads.h"
 1584              		.file 8 "ChibiOS_2.6.6/os/ports/GCC/ARMCMx/chcore_v7m.h"
 1585              		.file 9 "ChibiOS_2.6.6/os/kernel/include/chvt.h"
 1586              		.file 10 "ChibiOS_2.6.6/os/kernel/include/chschd.h"
 1587              		.file 11 "ChibiOS_2.6.6/os/kernel/include/chmtx.h"
 1588              		.file 12 "ChibiOS_2.6.6/os/hal/platforms/STM32F4xx/stm32f4xx.h"
 1589              		.file 13 "ChibiOS_2.6.6/os/hal/platforms/STM32F4xx/stm32_dma.h"
 1590              		.file 14 "ChibiOS_2.6.6/os/hal/include/i2c.h"
 1591              		.file 15 "ChibiOS_2.6.6/os/hal/platforms/STM32/I2Cv1/i2c_lld.h"
 1592              		.file 16 "ChibiOS_2.6.6/os/ports/common/ARMCMx/CMSIS/include/core_cm4.h"
 1593              		.file 17 "ChibiOS_2.6.6/os/ports/common/ARMCMx/nvic.h"