ARM GAS  C:\Users\jsyoon\AppData\Local\Temp\ccz2nbNH.s 			page 1


   1              		.syntax unified
   2              		.cpu cortex-m4
   3              		.eabi_attribute 27, 3
   4              		.eabi_attribute 28, 1
   5              		.fpu fpv4-sp-d16
   6              		.eabi_attribute 20, 1
   7              		.eabi_attribute 21, 1
   8              		.eabi_attribute 23, 3
   9              		.eabi_attribute 24, 1
  10              		.eabi_attribute 25, 1
  11              		.eabi_attribute 26, 1
  12              		.eabi_attribute 30, 2
  13              		.eabi_attribute 34, 1
  14              		.eabi_attribute 18, 4
  15              		.thumb
  16              		.file	"icu.c"
  17              		.text
  18              	.Ltext0:
  19              		.cfi_sections	.debug_frame
  20              		.section	.text.icuInit,"ax",%progbits
  21              		.align	2
  22              		.p2align 4,,15
  23              		.global	icuInit
  24              		.thumb
  25              		.thumb_func
  26              		.type	icuInit, %function
  27              	icuInit:
  28              	.LFB118:
  29              		.file 1 "ChibiOS_2.6.6/os/hal/src/icu.c"
  30              		.loc 1 68 0
  31              		.cfi_startproc
  32              		@ args = 0, pretend = 0, frame = 0
  33              		@ frame_needed = 0, uses_anonymous_args = 0
  34              		@ link register save eliminated.
  35              		.loc 1 70 0
  36 0000 FFF7FEBF 		b	icu_lld_init
  37              	.LVL0:
  38              		.cfi_endproc
  39              	.LFE118:
  40              		.size	icuInit, .-icuInit
  41 0004 AFF30080 		.section	.text.icuObjectInit,"ax",%progbits
  41      AFF30080 
  41      AFF30080 
  42              		.align	2
  43              		.p2align 4,,15
  44              		.global	icuObjectInit
  45              		.thumb
  46              		.thumb_func
  47              		.type	icuObjectInit, %function
  48              	icuObjectInit:
  49              	.LFB119:
  50              		.loc 1 80 0
  51              		.cfi_startproc
  52              		@ args = 0, pretend = 0, frame = 0
  53              		@ frame_needed = 0, uses_anonymous_args = 0
  54              		@ link register save eliminated.
  55              	.LVL1:
ARM GAS  C:\Users\jsyoon\AppData\Local\Temp\ccz2nbNH.s 			page 2


  56              		.loc 1 82 0
  57 0000 0122     		movs	r2, #1
  58              		.loc 1 83 0
  59 0002 0023     		movs	r3, #0
  60              		.loc 1 82 0
  61 0004 0270     		strb	r2, [r0]
  62              		.loc 1 83 0
  63 0006 4360     		str	r3, [r0, #4]
  64 0008 7047     		bx	lr
  65              		.cfi_endproc
  66              	.LFE119:
  67              		.size	icuObjectInit, .-icuObjectInit
  68 000a 00BFAFF3 		.section	.text.icuStart,"ax",%progbits
  68      0080
  69              		.align	2
  70              		.p2align 4,,15
  71              		.global	icuStart
  72              		.thumb
  73              		.thumb_func
  74              		.type	icuStart, %function
  75              	icuStart:
  76              	.LFB120:
  77              		.loc 1 94 0
  78              		.cfi_startproc
  79              		@ args = 0, pretend = 0, frame = 0
  80              		@ frame_needed = 0, uses_anonymous_args = 0
  81              	.LVL2:
  82 0000 10B5     		push	{r4, lr}
  83              		.cfi_def_cfa_offset 8
  84              		.cfi_offset 4, -8
  85              		.cfi_offset 14, -4
  86              		.loc 1 94 0
  87 0002 0446     		mov	r4, r0
  88              		.loc 1 98 0
  89              	@ 98 "ChibiOS_2.6.6/os/hal/src/icu.c" 1
  90 0004 72B6     		cpsid   i
  91              	@ 0 "" 2
  92              		.loc 1 101 0
  93              		.thumb
  94 0006 4160     		str	r1, [r0, #4]
  95              		.loc 1 102 0
  96 0008 FFF7FEFF 		bl	icu_lld_start
  97              	.LVL3:
  98              		.loc 1 103 0
  99 000c 0223     		movs	r3, #2
 100 000e 2370     		strb	r3, [r4]
 101              		.loc 1 104 0
 102              	@ 104 "ChibiOS_2.6.6/os/hal/src/icu.c" 1
 103 0010 62B6     		cpsie   i
 104              	@ 0 "" 2
 105              		.thumb
 106 0012 10BD     		pop	{r4, pc}
 107              		.cfi_endproc
 108              	.LFE120:
 109              		.size	icuStart, .-icuStart
 110 0014 AFF30080 		.section	.text.icuStop,"ax",%progbits
 110      AFF30080 
ARM GAS  C:\Users\jsyoon\AppData\Local\Temp\ccz2nbNH.s 			page 3


 110      AFF30080 
 111              		.align	2
 112              		.p2align 4,,15
 113              		.global	icuStop
 114              		.thumb
 115              		.thumb_func
 116              		.type	icuStop, %function
 117              	icuStop:
 118              	.LFB121:
 119              		.loc 1 114 0
 120              		.cfi_startproc
 121              		@ args = 0, pretend = 0, frame = 0
 122              		@ frame_needed = 0, uses_anonymous_args = 0
 123              	.LVL4:
 124 0000 10B5     		push	{r4, lr}
 125              		.cfi_def_cfa_offset 8
 126              		.cfi_offset 4, -8
 127              		.cfi_offset 14, -4
 128              		.loc 1 114 0
 129 0002 0446     		mov	r4, r0
 130              		.loc 1 118 0
 131              	@ 118 "ChibiOS_2.6.6/os/hal/src/icu.c" 1
 132 0004 72B6     		cpsid   i
 133              	@ 0 "" 2
 134              		.loc 1 121 0
 135              		.thumb
 136 0006 FFF7FEFF 		bl	icu_lld_stop
 137              	.LVL5:
 138              		.loc 1 122 0
 139 000a 0123     		movs	r3, #1
 140 000c 2370     		strb	r3, [r4]
 141              		.loc 1 123 0
 142              	@ 123 "ChibiOS_2.6.6/os/hal/src/icu.c" 1
 143 000e 62B6     		cpsie   i
 144              	@ 0 "" 2
 145              		.thumb
 146 0010 10BD     		pop	{r4, pc}
 147              		.cfi_endproc
 148              	.LFE121:
 149              		.size	icuStop, .-icuStop
 150 0012 00BFAFF3 		.section	.text.icuEnable,"ax",%progbits
 150      0080AFF3 
 150      0080AFF3 
 150      0080
 151              		.align	2
 152              		.p2align 4,,15
 153              		.global	icuEnable
 154              		.thumb
 155              		.thumb_func
 156              		.type	icuEnable, %function
 157              	icuEnable:
 158              	.LFB122:
 159              		.loc 1 133 0
 160              		.cfi_startproc
 161              		@ args = 0, pretend = 0, frame = 0
 162              		@ frame_needed = 0, uses_anonymous_args = 0
 163              	.LVL6:
ARM GAS  C:\Users\jsyoon\AppData\Local\Temp\ccz2nbNH.s 			page 4


 164 0000 10B5     		push	{r4, lr}
 165              		.cfi_def_cfa_offset 8
 166              		.cfi_offset 4, -8
 167              		.cfi_offset 14, -4
 168              		.loc 1 133 0
 169 0002 0446     		mov	r4, r0
 170              		.loc 1 137 0
 171              	@ 137 "ChibiOS_2.6.6/os/hal/src/icu.c" 1
 172 0004 72B6     		cpsid   i
 173              	@ 0 "" 2
 174              		.loc 1 139 0
 175              		.thumb
 176 0006 FFF7FEFF 		bl	icu_lld_enable
 177              	.LVL7:
 178              		.loc 1 140 0
 179 000a 0323     		movs	r3, #3
 180 000c 2370     		strb	r3, [r4]
 181              		.loc 1 141 0
 182              	@ 141 "ChibiOS_2.6.6/os/hal/src/icu.c" 1
 183 000e 62B6     		cpsie   i
 184              	@ 0 "" 2
 185              		.thumb
 186 0010 10BD     		pop	{r4, pc}
 187              		.cfi_endproc
 188              	.LFE122:
 189              		.size	icuEnable, .-icuEnable
 190 0012 00BFAFF3 		.section	.text.icuDisable,"ax",%progbits
 190      0080AFF3 
 190      0080AFF3 
 190      0080
 191              		.align	2
 192              		.p2align 4,,15
 193              		.global	icuDisable
 194              		.thumb
 195              		.thumb_func
 196              		.type	icuDisable, %function
 197              	icuDisable:
 198              	.LFB123:
 199              		.loc 1 151 0
 200              		.cfi_startproc
 201              		@ args = 0, pretend = 0, frame = 0
 202              		@ frame_needed = 0, uses_anonymous_args = 0
 203              	.LVL8:
 204 0000 10B5     		push	{r4, lr}
 205              		.cfi_def_cfa_offset 8
 206              		.cfi_offset 4, -8
 207              		.cfi_offset 14, -4
 208              		.loc 1 151 0
 209 0002 0446     		mov	r4, r0
 210              		.loc 1 155 0
 211              	@ 155 "ChibiOS_2.6.6/os/hal/src/icu.c" 1
 212 0004 72B6     		cpsid   i
 213              	@ 0 "" 2
 214              		.loc 1 159 0
 215              		.thumb
 216 0006 FFF7FEFF 		bl	icu_lld_disable
 217              	.LVL9:
ARM GAS  C:\Users\jsyoon\AppData\Local\Temp\ccz2nbNH.s 			page 5


 218              		.loc 1 160 0
 219 000a 0223     		movs	r3, #2
 220 000c 2370     		strb	r3, [r4]
 221              		.loc 1 161 0
 222              	@ 161 "ChibiOS_2.6.6/os/hal/src/icu.c" 1
 223 000e 62B6     		cpsie   i
 224              	@ 0 "" 2
 225              		.thumb
 226 0010 10BD     		pop	{r4, pc}
 227              		.cfi_endproc
 228              	.LFE123:
 229              		.size	icuDisable, .-icuDisable
 230 0012 00BFAFF3 		.text
 230      0080AFF3 
 230      0080AFF3 
 230      0080
 231              	.Letext0:
 232              		.file 2 "c:\\crosstools\\gcc-arm-embedded\\4.8_2014q2\\arm-none-eabi\\include\\machine\\_default_t
 233              		.file 3 "c:\\crosstools\\gcc-arm-embedded\\4.8_2014q2\\arm-none-eabi\\include\\stdint.h"
 234              		.file 4 "ChibiOS_2.6.6/os/hal/include/icu.h"
 235              		.file 5 "ChibiOS_2.6.6/os/hal/platforms/STM32/TIMv1/icu_lld.h"
 236              		.file 6 "ChibiOS_2.6.6/os/hal/platforms/STM32/TIMv1/stm32_tim.h"
 237              		.file 7 "ChibiOS_2.6.6/os/ports/common/ARMCMx/CMSIS/include/core_cm4.h"
 238              		.section	.debug_info,"",%progbits
 239              	.Ldebug_info0:
 240 0000 FE040000 		.4byte	0x4fe
 241 0004 0400     		.2byte	0x4
 242 0006 00000000 		.4byte	.Ldebug_abbrev0
 243 000a 04       		.byte	0x4
 244 000b 01       		.uleb128 0x1
 245 000c F8000000 		.4byte	.LASF66
 246 0010 01       		.byte	0x1
 247 0011 5B000000 		.4byte	.LASF67
 248 0015 A1000000 		.4byte	.LASF68
 249 0019 00000000 		.4byte	.Ldebug_ranges0+0
 250 001d 00000000 		.4byte	0
 251 0021 00000000 		.4byte	.Ldebug_line0
 252 0025 02       		.uleb128 0x2
 253 0026 04       		.byte	0x4
 254 0027 05       		.byte	0x5
 255 0028 696E7400 		.ascii	"int\000"
 256 002c 03       		.uleb128 0x3
 257 002d 04       		.byte	0x4
 258 002e 07       		.byte	0x7
 259 002f 02030000 		.4byte	.LASF0
 260 0033 03       		.uleb128 0x3
 261 0034 01       		.byte	0x1
 262 0035 06       		.byte	0x6
 263 0036 E0020000 		.4byte	.LASF1
 264 003a 03       		.uleb128 0x3
 265 003b 01       		.byte	0x1
 266 003c 08       		.byte	0x8
 267 003d B5020000 		.4byte	.LASF2
 268 0041 03       		.uleb128 0x3
 269 0042 02       		.byte	0x2
 270 0043 05       		.byte	0x5
 271 0044 7A000000 		.4byte	.LASF3
ARM GAS  C:\Users\jsyoon\AppData\Local\Temp\ccz2nbNH.s 			page 6


 272 0048 03       		.uleb128 0x3
 273 0049 02       		.byte	0x2
 274 004a 07       		.byte	0x7
 275 004b 1E030000 		.4byte	.LASF4
 276 004f 04       		.uleb128 0x4
 277 0050 D5030000 		.4byte	.LASF6
 278 0054 02       		.byte	0x2
 279 0055 37       		.byte	0x37
 280 0056 5A000000 		.4byte	0x5a
 281 005a 03       		.uleb128 0x3
 282 005b 04       		.byte	0x4
 283 005c 05       		.byte	0x5
 284 005d 88020000 		.4byte	.LASF5
 285 0061 04       		.uleb128 0x4
 286 0062 D1000000 		.4byte	.LASF7
 287 0066 02       		.byte	0x2
 288 0067 38       		.byte	0x38
 289 0068 6C000000 		.4byte	0x6c
 290 006c 03       		.uleb128 0x3
 291 006d 04       		.byte	0x4
 292 006e 07       		.byte	0x7
 293 006f B1030000 		.4byte	.LASF8
 294 0073 03       		.uleb128 0x3
 295 0074 08       		.byte	0x8
 296 0075 05       		.byte	0x5
 297 0076 54020000 		.4byte	.LASF9
 298 007a 03       		.uleb128 0x3
 299 007b 08       		.byte	0x8
 300 007c 07       		.byte	0x7
 301 007d 62020000 		.4byte	.LASF10
 302 0081 04       		.uleb128 0x4
 303 0082 6F030000 		.4byte	.LASF11
 304 0086 03       		.byte	0x3
 305 0087 41       		.byte	0x41
 306 0088 4F000000 		.4byte	0x4f
 307 008c 04       		.uleb128 0x4
 308 008d F9020000 		.4byte	.LASF12
 309 0091 03       		.byte	0x3
 310 0092 42       		.byte	0x42
 311 0093 61000000 		.4byte	0x61
 312 0097 03       		.uleb128 0x3
 313 0098 01       		.byte	0x1
 314 0099 02       		.byte	0x2
 315 009a 77030000 		.4byte	.LASF13
 316 009e 05       		.uleb128 0x5
 317 009f 8C000000 		.4byte	0x8c
 318 00a3 03       		.uleb128 0x3
 319 00a4 04       		.byte	0x4
 320 00a5 07       		.byte	0x7
 321 00a6 89000000 		.4byte	.LASF14
 322 00aa 03       		.uleb128 0x3
 323 00ab 01       		.byte	0x1
 324 00ac 08       		.byte	0x8
 325 00ad 83020000 		.4byte	.LASF15
 326 00b1 06       		.uleb128 0x6
 327 00b2 8C000000 		.4byte	0x8c
 328 00b6 C1000000 		.4byte	0xc1
ARM GAS  C:\Users\jsyoon\AppData\Local\Temp\ccz2nbNH.s 			page 7


 329 00ba 07       		.uleb128 0x7
 330 00bb A3000000 		.4byte	0xa3
 331 00bf 03       		.byte	0x3
 332 00c0 00       		.byte	0
 333 00c1 05       		.uleb128 0x5
 334 00c2 81000000 		.4byte	0x81
 335 00c6 08       		.uleb128 0x8
 336 00c7 04       		.byte	0x4
 337 00c8 9E000000 		.4byte	0x9e
 338 00cc 09       		.uleb128 0x9
 339 00cd 01       		.byte	0x1
 340 00ce 04       		.byte	0x4
 341 00cf 3C       		.byte	0x3c
 342 00d0 F9000000 		.4byte	0xf9
 343 00d4 0A       		.uleb128 0xa
 344 00d5 90030000 		.4byte	.LASF16
 345 00d9 00       		.sleb128 0
 346 00da 0A       		.uleb128 0xa
 347 00db 20000000 		.4byte	.LASF17
 348 00df 01       		.sleb128 1
 349 00e0 0A       		.uleb128 0xa
 350 00e1 F8030000 		.4byte	.LASF18
 351 00e5 02       		.sleb128 2
 352 00e6 0A       		.uleb128 0xa
 353 00e7 28040000 		.4byte	.LASF19
 354 00eb 03       		.sleb128 3
 355 00ec 0A       		.uleb128 0xa
 356 00ed 49020000 		.4byte	.LASF20
 357 00f1 04       		.sleb128 4
 358 00f2 0A       		.uleb128 0xa
 359 00f3 A7020000 		.4byte	.LASF21
 360 00f7 05       		.sleb128 5
 361 00f8 00       		.byte	0
 362 00f9 04       		.uleb128 0x4
 363 00fa 1D040000 		.4byte	.LASF22
 364 00fe 04       		.byte	0x4
 365 00ff 43       		.byte	0x43
 366 0100 CC000000 		.4byte	0xcc
 367 0104 04       		.uleb128 0x4
 368 0105 E4030000 		.4byte	.LASF23
 369 0109 04       		.byte	0x4
 370 010a 48       		.byte	0x48
 371 010b 0F010000 		.4byte	0x10f
 372 010f 0B       		.uleb128 0xb
 373 0110 E4030000 		.4byte	.LASF23
 374 0114 18       		.byte	0x18
 375 0115 05       		.byte	0x5
 376 0116 3101     		.2byte	0x131
 377 0118 6B010000 		.4byte	0x16b
 378 011c 0C       		.uleb128 0xc
 379 011d 49000000 		.4byte	.LASF24
 380 0121 05       		.byte	0x5
 381 0122 3501     		.2byte	0x135
 382 0124 F9000000 		.4byte	0xf9
 383 0128 00       		.byte	0
 384 0129 0C       		.uleb128 0xc
 385 012a F1000000 		.4byte	.LASF25
ARM GAS  C:\Users\jsyoon\AppData\Local\Temp\ccz2nbNH.s 			page 8


 386 012e 05       		.byte	0x5
 387 012f 3901     		.2byte	0x139
 388 0131 73030000 		.4byte	0x373
 389 0135 04       		.byte	0x4
 390 0136 0C       		.uleb128 0xc
 391 0137 C3030000 		.4byte	.LASF26
 392 013b 05       		.byte	0x5
 393 013c 4101     		.2byte	0x141
 394 013e 8C000000 		.4byte	0x8c
 395 0142 08       		.byte	0x8
 396 0143 0D       		.uleb128 0xd
 397 0144 74696D00 		.ascii	"tim\000"
 398 0148 05       		.byte	0x5
 399 0149 4501     		.2byte	0x145
 400 014b 7E030000 		.4byte	0x37e
 401 014f 0C       		.byte	0xc
 402 0150 0C       		.uleb128 0xc
 403 0151 1A000000 		.4byte	.LASF27
 404 0155 05       		.byte	0x5
 405 0156 4901     		.2byte	0x149
 406 0158 C6000000 		.4byte	0xc6
 407 015c 10       		.byte	0x10
 408 015d 0C       		.uleb128 0xc
 409 015e 9B020000 		.4byte	.LASF28
 410 0162 05       		.byte	0x5
 411 0163 4D01     		.2byte	0x14d
 412 0165 C6000000 		.4byte	0xc6
 413 0169 14       		.byte	0x14
 414 016a 00       		.byte	0
 415 016b 04       		.uleb128 0x4
 416 016c 46030000 		.4byte	.LASF29
 417 0170 04       		.byte	0x4
 418 0171 4F       		.byte	0x4f
 419 0172 76010000 		.4byte	0x176
 420 0176 08       		.uleb128 0x8
 421 0177 04       		.byte	0x4
 422 0178 7C010000 		.4byte	0x17c
 423 017c 0E       		.uleb128 0xe
 424 017d 87010000 		.4byte	0x187
 425 0181 0F       		.uleb128 0xf
 426 0182 87010000 		.4byte	0x187
 427 0186 00       		.byte	0
 428 0187 08       		.uleb128 0x8
 429 0188 04       		.byte	0x4
 430 0189 04010000 		.4byte	0x104
 431 018d 10       		.uleb128 0x10
 432 018e 60       		.byte	0x60
 433 018f 06       		.byte	0x6
 434 0190 9E01     		.2byte	0x19e
 435 0192 A6020000 		.4byte	0x2a6
 436 0196 0D       		.uleb128 0xd
 437 0197 43523100 		.ascii	"CR1\000"
 438 019b 06       		.byte	0x6
 439 019c 9F01     		.2byte	0x19f
 440 019e 9E000000 		.4byte	0x9e
 441 01a2 00       		.byte	0
 442 01a3 0D       		.uleb128 0xd
ARM GAS  C:\Users\jsyoon\AppData\Local\Temp\ccz2nbNH.s 			page 9


 443 01a4 43523200 		.ascii	"CR2\000"
 444 01a8 06       		.byte	0x6
 445 01a9 A001     		.2byte	0x1a0
 446 01ab 9E000000 		.4byte	0x9e
 447 01af 04       		.byte	0x4
 448 01b0 0C       		.uleb128 0xc
 449 01b1 B0020000 		.4byte	.LASF30
 450 01b5 06       		.byte	0x6
 451 01b6 A101     		.2byte	0x1a1
 452 01b8 9E000000 		.4byte	0x9e
 453 01bc 08       		.byte	0x8
 454 01bd 0C       		.uleb128 0xc
 455 01be 0F030000 		.4byte	.LASF31
 456 01c2 06       		.byte	0x6
 457 01c3 A201     		.2byte	0x1a2
 458 01c5 9E000000 		.4byte	0x9e
 459 01c9 0C       		.byte	0xc
 460 01ca 0D       		.uleb128 0xd
 461 01cb 535200   		.ascii	"SR\000"
 462 01ce 06       		.byte	0x6
 463 01cf A301     		.2byte	0x1a3
 464 01d1 9E000000 		.4byte	0x9e
 465 01d5 10       		.byte	0x10
 466 01d6 0D       		.uleb128 0xd
 467 01d7 45475200 		.ascii	"EGR\000"
 468 01db 06       		.byte	0x6
 469 01dc A401     		.2byte	0x1a4
 470 01de 9E000000 		.4byte	0x9e
 471 01e2 14       		.byte	0x14
 472 01e3 0C       		.uleb128 0xc
 473 01e4 A1020000 		.4byte	.LASF32
 474 01e8 06       		.byte	0x6
 475 01e9 A501     		.2byte	0x1a5
 476 01eb 9E000000 		.4byte	0x9e
 477 01ef 18       		.byte	0x18
 478 01f0 0C       		.uleb128 0xc
 479 01f1 4F000000 		.4byte	.LASF33
 480 01f5 06       		.byte	0x6
 481 01f6 A601     		.2byte	0x1a6
 482 01f8 9E000000 		.4byte	0x9e
 483 01fc 1C       		.byte	0x1c
 484 01fd 0C       		.uleb128 0xc
 485 01fe 15000000 		.4byte	.LASF34
 486 0202 06       		.byte	0x6
 487 0203 A701     		.2byte	0x1a7
 488 0205 9E000000 		.4byte	0x9e
 489 0209 20       		.byte	0x20
 490 020a 0D       		.uleb128 0xd
 491 020b 434E5400 		.ascii	"CNT\000"
 492 020f 06       		.byte	0x6
 493 0210 A801     		.2byte	0x1a8
 494 0212 9E000000 		.4byte	0x9e
 495 0216 24       		.byte	0x24
 496 0217 0D       		.uleb128 0xd
 497 0218 50534300 		.ascii	"PSC\000"
 498 021c 06       		.byte	0x6
 499 021d A901     		.2byte	0x1a9
ARM GAS  C:\Users\jsyoon\AppData\Local\Temp\ccz2nbNH.s 			page 10


 500 021f 9E000000 		.4byte	0x9e
 501 0223 28       		.byte	0x28
 502 0224 0D       		.uleb128 0xd
 503 0225 41525200 		.ascii	"ARR\000"
 504 0229 06       		.byte	0x6
 505 022a AA01     		.2byte	0x1aa
 506 022c 9E000000 		.4byte	0x9e
 507 0230 2C       		.byte	0x2c
 508 0231 0D       		.uleb128 0xd
 509 0232 52435200 		.ascii	"RCR\000"
 510 0236 06       		.byte	0x6
 511 0237 AB01     		.2byte	0x1ab
 512 0239 9E000000 		.4byte	0x9e
 513 023d 30       		.byte	0x30
 514 023e 0D       		.uleb128 0xd
 515 023f 43435200 		.ascii	"CCR\000"
 516 0243 06       		.byte	0x6
 517 0244 AC01     		.2byte	0x1ac
 518 0246 A6020000 		.4byte	0x2a6
 519 024a 34       		.byte	0x34
 520 024b 0C       		.uleb128 0xc
 521 024c 6A030000 		.4byte	.LASF35
 522 0250 06       		.byte	0x6
 523 0251 AD01     		.2byte	0x1ad
 524 0253 9E000000 		.4byte	0x9e
 525 0257 44       		.byte	0x44
 526 0258 0D       		.uleb128 0xd
 527 0259 44435200 		.ascii	"DCR\000"
 528 025d 06       		.byte	0x6
 529 025e AE01     		.2byte	0x1ae
 530 0260 9E000000 		.4byte	0x9e
 531 0264 48       		.byte	0x48
 532 0265 0C       		.uleb128 0xc
 533 0266 44000000 		.4byte	.LASF36
 534 026a 06       		.byte	0x6
 535 026b AF01     		.2byte	0x1af
 536 026d 9E000000 		.4byte	0x9e
 537 0271 4C       		.byte	0x4c
 538 0272 0D       		.uleb128 0xd
 539 0273 4F5200   		.ascii	"OR\000"
 540 0276 06       		.byte	0x6
 541 0277 B001     		.2byte	0x1b0
 542 0279 9E000000 		.4byte	0x9e
 543 027d 50       		.byte	0x50
 544 027e 0C       		.uleb128 0xc
 545 027f 55000000 		.4byte	.LASF37
 546 0283 06       		.byte	0x6
 547 0284 B101     		.2byte	0x1b1
 548 0286 9E000000 		.4byte	0x9e
 549 028a 54       		.byte	0x54
 550 028b 0C       		.uleb128 0xc
 551 028c 91020000 		.4byte	.LASF38
 552 0290 06       		.byte	0x6
 553 0291 B201     		.2byte	0x1b2
 554 0293 9E000000 		.4byte	0x9e
 555 0297 58       		.byte	0x58
 556 0298 0C       		.uleb128 0xc
ARM GAS  C:\Users\jsyoon\AppData\Local\Temp\ccz2nbNH.s 			page 11


 557 0299 96020000 		.4byte	.LASF39
 558 029d 06       		.byte	0x6
 559 029e B301     		.2byte	0x1b3
 560 02a0 9E000000 		.4byte	0x9e
 561 02a4 5C       		.byte	0x5c
 562 02a5 00       		.byte	0
 563 02a6 05       		.uleb128 0x5
 564 02a7 B1000000 		.4byte	0xb1
 565 02ab 11       		.uleb128 0x11
 566 02ac 54030000 		.4byte	.LASF40
 567 02b0 06       		.byte	0x6
 568 02b1 B401     		.2byte	0x1b4
 569 02b3 8D010000 		.4byte	0x18d
 570 02b7 09       		.uleb128 0x9
 571 02b8 01       		.byte	0x1
 572 02b9 05       		.byte	0x5
 573 02ba EE       		.byte	0xee
 574 02bb CC020000 		.4byte	0x2cc
 575 02bf 0A       		.uleb128 0xa
 576 02c0 9B030000 		.4byte	.LASF41
 577 02c4 00       		.sleb128 0
 578 02c5 0A       		.uleb128 0xa
 579 02c6 31030000 		.4byte	.LASF42
 580 02ca 01       		.sleb128 1
 581 02cb 00       		.byte	0
 582 02cc 04       		.uleb128 0x4
 583 02cd 79020000 		.4byte	.LASF43
 584 02d1 05       		.byte	0x5
 585 02d2 F1       		.byte	0xf1
 586 02d3 B7020000 		.4byte	0x2b7
 587 02d7 04       		.uleb128 0x4
 588 02d8 14030000 		.4byte	.LASF44
 589 02dc 05       		.byte	0x5
 590 02dd F6       		.byte	0xf6
 591 02de 8C000000 		.4byte	0x8c
 592 02e2 09       		.uleb128 0x9
 593 02e3 01       		.byte	0x1
 594 02e4 05       		.byte	0x5
 595 02e5 FB       		.byte	0xfb
 596 02e6 F7020000 		.4byte	0x2f7
 597 02ea 0A       		.uleb128 0xa
 598 02eb 1C020000 		.4byte	.LASF45
 599 02ef 00       		.sleb128 0
 600 02f0 0A       		.uleb128 0xa
 601 02f1 2A020000 		.4byte	.LASF46
 602 02f5 01       		.sleb128 1
 603 02f6 00       		.byte	0
 604 02f7 04       		.uleb128 0x4
 605 02f8 29000000 		.4byte	.LASF47
 606 02fc 05       		.byte	0x5
 607 02fd FE       		.byte	0xfe
 608 02fe E2020000 		.4byte	0x2e2
 609 0302 10       		.uleb128 0x10
 610 0303 1C       		.byte	0x1c
 611 0304 05       		.byte	0x5
 612 0305 0901     		.2byte	0x109
 613 0307 67030000 		.4byte	0x367
ARM GAS  C:\Users\jsyoon\AppData\Local\Temp\ccz2nbNH.s 			page 12


 614 030b 0C       		.uleb128 0xc
 615 030c DC000000 		.4byte	.LASF48
 616 0310 05       		.byte	0x5
 617 0311 0D01     		.2byte	0x10d
 618 0313 CC020000 		.4byte	0x2cc
 619 0317 00       		.byte	0
 620 0318 0C       		.uleb128 0xc
 621 0319 EE030000 		.4byte	.LASF49
 622 031d 05       		.byte	0x5
 623 031e 1301     		.2byte	0x113
 624 0320 D7020000 		.4byte	0x2d7
 625 0324 04       		.byte	0x4
 626 0325 0C       		.uleb128 0xc
 627 0326 40020000 		.4byte	.LASF50
 628 032a 05       		.byte	0x5
 629 032b 1701     		.2byte	0x117
 630 032d 6B010000 		.4byte	0x16b
 631 0331 08       		.byte	0x8
 632 0332 0C       		.uleb128 0xc
 633 0333 60030000 		.4byte	.LASF51
 634 0337 05       		.byte	0x5
 635 0338 1B01     		.2byte	0x11b
 636 033a 6B010000 		.4byte	0x16b
 637 033e 0C       		.byte	0xc
 638 033f 0C       		.uleb128 0xc
 639 0340 C9030000 		.4byte	.LASF52
 640 0344 05       		.byte	0x5
 641 0345 1F01     		.2byte	0x11f
 642 0347 6B010000 		.4byte	0x16b
 643 034b 10       		.byte	0x10
 644 034c 0C       		.uleb128 0xc
 645 034d 7D030000 		.4byte	.LASF53
 646 0351 05       		.byte	0x5
 647 0352 2501     		.2byte	0x125
 648 0354 F7020000 		.4byte	0x2f7
 649 0358 14       		.byte	0x14
 650 0359 0C       		.uleb128 0xc
 651 035a DF030000 		.4byte	.LASF54
 652 035e 05       		.byte	0x5
 653 035f 2B01     		.2byte	0x12b
 654 0361 8C000000 		.4byte	0x8c
 655 0365 18       		.byte	0x18
 656 0366 00       		.byte	0
 657 0367 11       		.uleb128 0x11
 658 0368 C3020000 		.4byte	.LASF55
 659 036c 05       		.byte	0x5
 660 036d 2C01     		.2byte	0x12c
 661 036f 02030000 		.4byte	0x302
 662 0373 08       		.uleb128 0x8
 663 0374 04       		.byte	0x4
 664 0375 79030000 		.4byte	0x379
 665 0379 12       		.uleb128 0x12
 666 037a 67030000 		.4byte	0x367
 667 037e 08       		.uleb128 0x8
 668 037f 04       		.byte	0x4
 669 0380 AB020000 		.4byte	0x2ab
 670 0384 13       		.uleb128 0x13
ARM GAS  C:\Users\jsyoon\AppData\Local\Temp\ccz2nbNH.s 			page 13


 671 0385 38020000 		.4byte	.LASF56
 672 0389 01       		.byte	0x1
 673 038a 44       		.byte	0x44
 674 038b 00000000 		.4byte	.LFB118
 675 038f 04000000 		.4byte	.LFE118-.LFB118
 676 0393 01       		.uleb128 0x1
 677 0394 9C       		.byte	0x9c
 678 0395 A3030000 		.4byte	0x3a3
 679 0399 14       		.uleb128 0x14
 680 039a 04000000 		.4byte	.LVL0
 681 039e B5040000 		.4byte	0x4b5
 682 03a2 00       		.byte	0
 683 03a3 13       		.uleb128 0x13
 684 03a4 02040000 		.4byte	.LASF57
 685 03a8 01       		.byte	0x1
 686 03a9 50       		.byte	0x50
 687 03aa 00000000 		.4byte	.LFB119
 688 03ae 0A000000 		.4byte	.LFE119-.LFB119
 689 03b2 01       		.uleb128 0x1
 690 03b3 9C       		.byte	0x9c
 691 03b4 C6030000 		.4byte	0x3c6
 692 03b8 15       		.uleb128 0x15
 693 03b9 84000000 		.4byte	.LASF59
 694 03bd 01       		.byte	0x1
 695 03be 50       		.byte	0x50
 696 03bf 87010000 		.4byte	0x187
 697 03c3 01       		.uleb128 0x1
 698 03c4 50       		.byte	0x50
 699 03c5 00       		.byte	0
 700 03c6 13       		.uleb128 0x13
 701 03c7 CD020000 		.4byte	.LASF58
 702 03cb 01       		.byte	0x1
 703 03cc 5E       		.byte	0x5e
 704 03cd 00000000 		.4byte	.LFB120
 705 03d1 14000000 		.4byte	.LFE120-.LFB120
 706 03d5 01       		.uleb128 0x1
 707 03d6 9C       		.byte	0x9c
 708 03d7 0A040000 		.4byte	0x40a
 709 03db 16       		.uleb128 0x16
 710 03dc 84000000 		.4byte	.LASF59
 711 03e0 01       		.byte	0x1
 712 03e1 5E       		.byte	0x5e
 713 03e2 87010000 		.4byte	0x187
 714 03e6 00000000 		.4byte	.LLST0
 715 03ea 16       		.uleb128 0x16
 716 03eb F1000000 		.4byte	.LASF25
 717 03ef 01       		.byte	0x1
 718 03f0 5E       		.byte	0x5e
 719 03f1 73030000 		.4byte	0x373
 720 03f5 1E000000 		.4byte	.LLST1
 721 03f9 17       		.uleb128 0x17
 722 03fa 0C000000 		.4byte	.LVL3
 723 03fe BD040000 		.4byte	0x4bd
 724 0402 18       		.uleb128 0x18
 725 0403 01       		.uleb128 0x1
 726 0404 50       		.byte	0x50
 727 0405 02       		.uleb128 0x2
ARM GAS  C:\Users\jsyoon\AppData\Local\Temp\ccz2nbNH.s 			page 14


 728 0406 74       		.byte	0x74
 729 0407 00       		.sleb128 0
 730 0408 00       		.byte	0
 731 0409 00       		.byte	0
 732 040a 13       		.uleb128 0x13
 733 040b 00000000 		.4byte	.LASF60
 734 040f 01       		.byte	0x1
 735 0410 72       		.byte	0x72
 736 0411 00000000 		.4byte	.LFB121
 737 0415 12000000 		.4byte	.LFE121-.LFB121
 738 0419 01       		.uleb128 0x1
 739 041a 9C       		.byte	0x9c
 740 041b 3F040000 		.4byte	0x43f
 741 041f 16       		.uleb128 0x16
 742 0420 84000000 		.4byte	.LASF59
 743 0424 01       		.byte	0x1
 744 0425 72       		.byte	0x72
 745 0426 87010000 		.4byte	0x187
 746 042a 3F000000 		.4byte	.LLST2
 747 042e 17       		.uleb128 0x17
 748 042f 0A000000 		.4byte	.LVL5
 749 0433 CF040000 		.4byte	0x4cf
 750 0437 18       		.uleb128 0x18
 751 0438 01       		.uleb128 0x1
 752 0439 50       		.byte	0x50
 753 043a 02       		.uleb128 0x2
 754 043b 74       		.byte	0x74
 755 043c 00       		.sleb128 0
 756 043d 00       		.byte	0
 757 043e 00       		.byte	0
 758 043f 13       		.uleb128 0x13
 759 0440 D6020000 		.4byte	.LASF61
 760 0444 01       		.byte	0x1
 761 0445 85       		.byte	0x85
 762 0446 00000000 		.4byte	.LFB122
 763 044a 12000000 		.4byte	.LFE122-.LFB122
 764 044e 01       		.uleb128 0x1
 765 044f 9C       		.byte	0x9c
 766 0450 74040000 		.4byte	0x474
 767 0454 16       		.uleb128 0x16
 768 0455 84000000 		.4byte	.LASF59
 769 0459 01       		.byte	0x1
 770 045a 85       		.byte	0x85
 771 045b 87010000 		.4byte	0x187
 772 045f 5D000000 		.4byte	.LLST3
 773 0463 17       		.uleb128 0x17
 774 0464 0A000000 		.4byte	.LVL7
 775 0468 E1040000 		.4byte	0x4e1
 776 046c 18       		.uleb128 0x18
 777 046d 01       		.uleb128 0x1
 778 046e 50       		.byte	0x50
 779 046f 02       		.uleb128 0x2
 780 0470 74       		.byte	0x74
 781 0471 00       		.sleb128 0
 782 0472 00       		.byte	0
 783 0473 00       		.byte	0
 784 0474 13       		.uleb128 0x13
ARM GAS  C:\Users\jsyoon\AppData\Local\Temp\ccz2nbNH.s 			page 15


 785 0475 85030000 		.4byte	.LASF62
 786 0479 01       		.byte	0x1
 787 047a 97       		.byte	0x97
 788 047b 00000000 		.4byte	.LFB123
 789 047f 12000000 		.4byte	.LFE123-.LFB123
 790 0483 01       		.uleb128 0x1
 791 0484 9C       		.byte	0x9c
 792 0485 A9040000 		.4byte	0x4a9
 793 0489 16       		.uleb128 0x16
 794 048a 84000000 		.4byte	.LASF59
 795 048e 01       		.byte	0x1
 796 048f 97       		.byte	0x97
 797 0490 87010000 		.4byte	0x187
 798 0494 7B000000 		.4byte	.LLST4
 799 0498 17       		.uleb128 0x17
 800 0499 0A000000 		.4byte	.LVL9
 801 049d F3040000 		.4byte	0x4f3
 802 04a1 18       		.uleb128 0x18
 803 04a2 01       		.uleb128 0x1
 804 04a3 50       		.byte	0x50
 805 04a4 02       		.uleb128 0x2
 806 04a5 74       		.byte	0x74
 807 04a6 00       		.sleb128 0
 808 04a7 00       		.byte	0
 809 04a8 00       		.byte	0
 810 04a9 19       		.uleb128 0x19
 811 04aa 10040000 		.4byte	.LASF69
 812 04ae 07       		.byte	0x7
 813 04af 9806     		.2byte	0x698
 814 04b1 C1000000 		.4byte	0xc1
 815 04b5 1A       		.uleb128 0x1a
 816 04b6 EC020000 		.4byte	.LASF70
 817 04ba 05       		.byte	0x5
 818 04bb 8F01     		.2byte	0x18f
 819 04bd 1B       		.uleb128 0x1b
 820 04be 36000000 		.4byte	.LASF63
 821 04c2 05       		.byte	0x5
 822 04c3 9001     		.2byte	0x190
 823 04c5 CF040000 		.4byte	0x4cf
 824 04c9 0F       		.uleb128 0xf
 825 04ca 87010000 		.4byte	0x187
 826 04ce 00       		.byte	0
 827 04cf 1B       		.uleb128 0x1b
 828 04d0 08000000 		.4byte	.LASF64
 829 04d4 05       		.byte	0x5
 830 04d5 9101     		.2byte	0x191
 831 04d7 E1040000 		.4byte	0x4e1
 832 04db 0F       		.uleb128 0xf
 833 04dc 87010000 		.4byte	0x187
 834 04e0 00       		.byte	0
 835 04e1 1B       		.uleb128 0x1b
 836 04e2 92000000 		.4byte	.LASF65
 837 04e6 05       		.byte	0x5
 838 04e7 9201     		.2byte	0x192
 839 04e9 F3040000 		.4byte	0x4f3
 840 04ed 0F       		.uleb128 0xf
 841 04ee 87010000 		.4byte	0x187
ARM GAS  C:\Users\jsyoon\AppData\Local\Temp\ccz2nbNH.s 			page 16


 842 04f2 00       		.byte	0
 843 04f3 1C       		.uleb128 0x1c
 844 04f4 E1000000 		.4byte	.LASF71
 845 04f8 05       		.byte	0x5
 846 04f9 9301     		.2byte	0x193
 847 04fb 0F       		.uleb128 0xf
 848 04fc 87010000 		.4byte	0x187
 849 0500 00       		.byte	0
 850 0501 00       		.byte	0
 851              		.section	.debug_abbrev,"",%progbits
 852              	.Ldebug_abbrev0:
 853 0000 01       		.uleb128 0x1
 854 0001 11       		.uleb128 0x11
 855 0002 01       		.byte	0x1
 856 0003 25       		.uleb128 0x25
 857 0004 0E       		.uleb128 0xe
 858 0005 13       		.uleb128 0x13
 859 0006 0B       		.uleb128 0xb
 860 0007 03       		.uleb128 0x3
 861 0008 0E       		.uleb128 0xe
 862 0009 1B       		.uleb128 0x1b
 863 000a 0E       		.uleb128 0xe
 864 000b 55       		.uleb128 0x55
 865 000c 17       		.uleb128 0x17
 866 000d 11       		.uleb128 0x11
 867 000e 01       		.uleb128 0x1
 868 000f 10       		.uleb128 0x10
 869 0010 17       		.uleb128 0x17
 870 0011 00       		.byte	0
 871 0012 00       		.byte	0
 872 0013 02       		.uleb128 0x2
 873 0014 24       		.uleb128 0x24
 874 0015 00       		.byte	0
 875 0016 0B       		.uleb128 0xb
 876 0017 0B       		.uleb128 0xb
 877 0018 3E       		.uleb128 0x3e
 878 0019 0B       		.uleb128 0xb
 879 001a 03       		.uleb128 0x3
 880 001b 08       		.uleb128 0x8
 881 001c 00       		.byte	0
 882 001d 00       		.byte	0
 883 001e 03       		.uleb128 0x3
 884 001f 24       		.uleb128 0x24
 885 0020 00       		.byte	0
 886 0021 0B       		.uleb128 0xb
 887 0022 0B       		.uleb128 0xb
 888 0023 3E       		.uleb128 0x3e
 889 0024 0B       		.uleb128 0xb
 890 0025 03       		.uleb128 0x3
 891 0026 0E       		.uleb128 0xe
 892 0027 00       		.byte	0
 893 0028 00       		.byte	0
 894 0029 04       		.uleb128 0x4
 895 002a 16       		.uleb128 0x16
 896 002b 00       		.byte	0
 897 002c 03       		.uleb128 0x3
 898 002d 0E       		.uleb128 0xe
ARM GAS  C:\Users\jsyoon\AppData\Local\Temp\ccz2nbNH.s 			page 17


 899 002e 3A       		.uleb128 0x3a
 900 002f 0B       		.uleb128 0xb
 901 0030 3B       		.uleb128 0x3b
 902 0031 0B       		.uleb128 0xb
 903 0032 49       		.uleb128 0x49
 904 0033 13       		.uleb128 0x13
 905 0034 00       		.byte	0
 906 0035 00       		.byte	0
 907 0036 05       		.uleb128 0x5
 908 0037 35       		.uleb128 0x35
 909 0038 00       		.byte	0
 910 0039 49       		.uleb128 0x49
 911 003a 13       		.uleb128 0x13
 912 003b 00       		.byte	0
 913 003c 00       		.byte	0
 914 003d 06       		.uleb128 0x6
 915 003e 01       		.uleb128 0x1
 916 003f 01       		.byte	0x1
 917 0040 49       		.uleb128 0x49
 918 0041 13       		.uleb128 0x13
 919 0042 01       		.uleb128 0x1
 920 0043 13       		.uleb128 0x13
 921 0044 00       		.byte	0
 922 0045 00       		.byte	0
 923 0046 07       		.uleb128 0x7
 924 0047 21       		.uleb128 0x21
 925 0048 00       		.byte	0
 926 0049 49       		.uleb128 0x49
 927 004a 13       		.uleb128 0x13
 928 004b 2F       		.uleb128 0x2f
 929 004c 0B       		.uleb128 0xb
 930 004d 00       		.byte	0
 931 004e 00       		.byte	0
 932 004f 08       		.uleb128 0x8
 933 0050 0F       		.uleb128 0xf
 934 0051 00       		.byte	0
 935 0052 0B       		.uleb128 0xb
 936 0053 0B       		.uleb128 0xb
 937 0054 49       		.uleb128 0x49
 938 0055 13       		.uleb128 0x13
 939 0056 00       		.byte	0
 940 0057 00       		.byte	0
 941 0058 09       		.uleb128 0x9
 942 0059 04       		.uleb128 0x4
 943 005a 01       		.byte	0x1
 944 005b 0B       		.uleb128 0xb
 945 005c 0B       		.uleb128 0xb
 946 005d 3A       		.uleb128 0x3a
 947 005e 0B       		.uleb128 0xb
 948 005f 3B       		.uleb128 0x3b
 949 0060 0B       		.uleb128 0xb
 950 0061 01       		.uleb128 0x1
 951 0062 13       		.uleb128 0x13
 952 0063 00       		.byte	0
 953 0064 00       		.byte	0
 954 0065 0A       		.uleb128 0xa
 955 0066 28       		.uleb128 0x28
ARM GAS  C:\Users\jsyoon\AppData\Local\Temp\ccz2nbNH.s 			page 18


 956 0067 00       		.byte	0
 957 0068 03       		.uleb128 0x3
 958 0069 0E       		.uleb128 0xe
 959 006a 1C       		.uleb128 0x1c
 960 006b 0D       		.uleb128 0xd
 961 006c 00       		.byte	0
 962 006d 00       		.byte	0
 963 006e 0B       		.uleb128 0xb
 964 006f 13       		.uleb128 0x13
 965 0070 01       		.byte	0x1
 966 0071 03       		.uleb128 0x3
 967 0072 0E       		.uleb128 0xe
 968 0073 0B       		.uleb128 0xb
 969 0074 0B       		.uleb128 0xb
 970 0075 3A       		.uleb128 0x3a
 971 0076 0B       		.uleb128 0xb
 972 0077 3B       		.uleb128 0x3b
 973 0078 05       		.uleb128 0x5
 974 0079 01       		.uleb128 0x1
 975 007a 13       		.uleb128 0x13
 976 007b 00       		.byte	0
 977 007c 00       		.byte	0
 978 007d 0C       		.uleb128 0xc
 979 007e 0D       		.uleb128 0xd
 980 007f 00       		.byte	0
 981 0080 03       		.uleb128 0x3
 982 0081 0E       		.uleb128 0xe
 983 0082 3A       		.uleb128 0x3a
 984 0083 0B       		.uleb128 0xb
 985 0084 3B       		.uleb128 0x3b
 986 0085 05       		.uleb128 0x5
 987 0086 49       		.uleb128 0x49
 988 0087 13       		.uleb128 0x13
 989 0088 38       		.uleb128 0x38
 990 0089 0B       		.uleb128 0xb
 991 008a 00       		.byte	0
 992 008b 00       		.byte	0
 993 008c 0D       		.uleb128 0xd
 994 008d 0D       		.uleb128 0xd
 995 008e 00       		.byte	0
 996 008f 03       		.uleb128 0x3
 997 0090 08       		.uleb128 0x8
 998 0091 3A       		.uleb128 0x3a
 999 0092 0B       		.uleb128 0xb
 1000 0093 3B       		.uleb128 0x3b
 1001 0094 05       		.uleb128 0x5
 1002 0095 49       		.uleb128 0x49
 1003 0096 13       		.uleb128 0x13
 1004 0097 38       		.uleb128 0x38
 1005 0098 0B       		.uleb128 0xb
 1006 0099 00       		.byte	0
 1007 009a 00       		.byte	0
 1008 009b 0E       		.uleb128 0xe
 1009 009c 15       		.uleb128 0x15
 1010 009d 01       		.byte	0x1
 1011 009e 27       		.uleb128 0x27
 1012 009f 19       		.uleb128 0x19
ARM GAS  C:\Users\jsyoon\AppData\Local\Temp\ccz2nbNH.s 			page 19


 1013 00a0 01       		.uleb128 0x1
 1014 00a1 13       		.uleb128 0x13
 1015 00a2 00       		.byte	0
 1016 00a3 00       		.byte	0
 1017 00a4 0F       		.uleb128 0xf
 1018 00a5 05       		.uleb128 0x5
 1019 00a6 00       		.byte	0
 1020 00a7 49       		.uleb128 0x49
 1021 00a8 13       		.uleb128 0x13
 1022 00a9 00       		.byte	0
 1023 00aa 00       		.byte	0
 1024 00ab 10       		.uleb128 0x10
 1025 00ac 13       		.uleb128 0x13
 1026 00ad 01       		.byte	0x1
 1027 00ae 0B       		.uleb128 0xb
 1028 00af 0B       		.uleb128 0xb
 1029 00b0 3A       		.uleb128 0x3a
 1030 00b1 0B       		.uleb128 0xb
 1031 00b2 3B       		.uleb128 0x3b
 1032 00b3 05       		.uleb128 0x5
 1033 00b4 01       		.uleb128 0x1
 1034 00b5 13       		.uleb128 0x13
 1035 00b6 00       		.byte	0
 1036 00b7 00       		.byte	0
 1037 00b8 11       		.uleb128 0x11
 1038 00b9 16       		.uleb128 0x16
 1039 00ba 00       		.byte	0
 1040 00bb 03       		.uleb128 0x3
 1041 00bc 0E       		.uleb128 0xe
 1042 00bd 3A       		.uleb128 0x3a
 1043 00be 0B       		.uleb128 0xb
 1044 00bf 3B       		.uleb128 0x3b
 1045 00c0 05       		.uleb128 0x5
 1046 00c1 49       		.uleb128 0x49
 1047 00c2 13       		.uleb128 0x13
 1048 00c3 00       		.byte	0
 1049 00c4 00       		.byte	0
 1050 00c5 12       		.uleb128 0x12
 1051 00c6 26       		.uleb128 0x26
 1052 00c7 00       		.byte	0
 1053 00c8 49       		.uleb128 0x49
 1054 00c9 13       		.uleb128 0x13
 1055 00ca 00       		.byte	0
 1056 00cb 00       		.byte	0
 1057 00cc 13       		.uleb128 0x13
 1058 00cd 2E       		.uleb128 0x2e
 1059 00ce 01       		.byte	0x1
 1060 00cf 3F       		.uleb128 0x3f
 1061 00d0 19       		.uleb128 0x19
 1062 00d1 03       		.uleb128 0x3
 1063 00d2 0E       		.uleb128 0xe
 1064 00d3 3A       		.uleb128 0x3a
 1065 00d4 0B       		.uleb128 0xb
 1066 00d5 3B       		.uleb128 0x3b
 1067 00d6 0B       		.uleb128 0xb
 1068 00d7 27       		.uleb128 0x27
 1069 00d8 19       		.uleb128 0x19
ARM GAS  C:\Users\jsyoon\AppData\Local\Temp\ccz2nbNH.s 			page 20


 1070 00d9 11       		.uleb128 0x11
 1071 00da 01       		.uleb128 0x1
 1072 00db 12       		.uleb128 0x12
 1073 00dc 06       		.uleb128 0x6
 1074 00dd 40       		.uleb128 0x40
 1075 00de 18       		.uleb128 0x18
 1076 00df 9742     		.uleb128 0x2117
 1077 00e1 19       		.uleb128 0x19
 1078 00e2 01       		.uleb128 0x1
 1079 00e3 13       		.uleb128 0x13
 1080 00e4 00       		.byte	0
 1081 00e5 00       		.byte	0
 1082 00e6 14       		.uleb128 0x14
 1083 00e7 898201   		.uleb128 0x4109
 1084 00ea 00       		.byte	0
 1085 00eb 11       		.uleb128 0x11
 1086 00ec 01       		.uleb128 0x1
 1087 00ed 9542     		.uleb128 0x2115
 1088 00ef 19       		.uleb128 0x19
 1089 00f0 31       		.uleb128 0x31
 1090 00f1 13       		.uleb128 0x13
 1091 00f2 00       		.byte	0
 1092 00f3 00       		.byte	0
 1093 00f4 15       		.uleb128 0x15
 1094 00f5 05       		.uleb128 0x5
 1095 00f6 00       		.byte	0
 1096 00f7 03       		.uleb128 0x3
 1097 00f8 0E       		.uleb128 0xe
 1098 00f9 3A       		.uleb128 0x3a
 1099 00fa 0B       		.uleb128 0xb
 1100 00fb 3B       		.uleb128 0x3b
 1101 00fc 0B       		.uleb128 0xb
 1102 00fd 49       		.uleb128 0x49
 1103 00fe 13       		.uleb128 0x13
 1104 00ff 02       		.uleb128 0x2
 1105 0100 18       		.uleb128 0x18
 1106 0101 00       		.byte	0
 1107 0102 00       		.byte	0
 1108 0103 16       		.uleb128 0x16
 1109 0104 05       		.uleb128 0x5
 1110 0105 00       		.byte	0
 1111 0106 03       		.uleb128 0x3
 1112 0107 0E       		.uleb128 0xe
 1113 0108 3A       		.uleb128 0x3a
 1114 0109 0B       		.uleb128 0xb
 1115 010a 3B       		.uleb128 0x3b
 1116 010b 0B       		.uleb128 0xb
 1117 010c 49       		.uleb128 0x49
 1118 010d 13       		.uleb128 0x13
 1119 010e 02       		.uleb128 0x2
 1120 010f 17       		.uleb128 0x17
 1121 0110 00       		.byte	0
 1122 0111 00       		.byte	0
 1123 0112 17       		.uleb128 0x17
 1124 0113 898201   		.uleb128 0x4109
 1125 0116 01       		.byte	0x1
 1126 0117 11       		.uleb128 0x11
ARM GAS  C:\Users\jsyoon\AppData\Local\Temp\ccz2nbNH.s 			page 21


 1127 0118 01       		.uleb128 0x1
 1128 0119 31       		.uleb128 0x31
 1129 011a 13       		.uleb128 0x13
 1130 011b 00       		.byte	0
 1131 011c 00       		.byte	0
 1132 011d 18       		.uleb128 0x18
 1133 011e 8A8201   		.uleb128 0x410a
 1134 0121 00       		.byte	0
 1135 0122 02       		.uleb128 0x2
 1136 0123 18       		.uleb128 0x18
 1137 0124 9142     		.uleb128 0x2111
 1138 0126 18       		.uleb128 0x18
 1139 0127 00       		.byte	0
 1140 0128 00       		.byte	0
 1141 0129 19       		.uleb128 0x19
 1142 012a 34       		.uleb128 0x34
 1143 012b 00       		.byte	0
 1144 012c 03       		.uleb128 0x3
 1145 012d 0E       		.uleb128 0xe
 1146 012e 3A       		.uleb128 0x3a
 1147 012f 0B       		.uleb128 0xb
 1148 0130 3B       		.uleb128 0x3b
 1149 0131 05       		.uleb128 0x5
 1150 0132 49       		.uleb128 0x49
 1151 0133 13       		.uleb128 0x13
 1152 0134 3F       		.uleb128 0x3f
 1153 0135 19       		.uleb128 0x19
 1154 0136 3C       		.uleb128 0x3c
 1155 0137 19       		.uleb128 0x19
 1156 0138 00       		.byte	0
 1157 0139 00       		.byte	0
 1158 013a 1A       		.uleb128 0x1a
 1159 013b 2E       		.uleb128 0x2e
 1160 013c 00       		.byte	0
 1161 013d 3F       		.uleb128 0x3f
 1162 013e 19       		.uleb128 0x19
 1163 013f 03       		.uleb128 0x3
 1164 0140 0E       		.uleb128 0xe
 1165 0141 3A       		.uleb128 0x3a
 1166 0142 0B       		.uleb128 0xb
 1167 0143 3B       		.uleb128 0x3b
 1168 0144 05       		.uleb128 0x5
 1169 0145 27       		.uleb128 0x27
 1170 0146 19       		.uleb128 0x19
 1171 0147 3C       		.uleb128 0x3c
 1172 0148 19       		.uleb128 0x19
 1173 0149 00       		.byte	0
 1174 014a 00       		.byte	0
 1175 014b 1B       		.uleb128 0x1b
 1176 014c 2E       		.uleb128 0x2e
 1177 014d 01       		.byte	0x1
 1178 014e 3F       		.uleb128 0x3f
 1179 014f 19       		.uleb128 0x19
 1180 0150 03       		.uleb128 0x3
 1181 0151 0E       		.uleb128 0xe
 1182 0152 3A       		.uleb128 0x3a
 1183 0153 0B       		.uleb128 0xb
ARM GAS  C:\Users\jsyoon\AppData\Local\Temp\ccz2nbNH.s 			page 22


 1184 0154 3B       		.uleb128 0x3b
 1185 0155 05       		.uleb128 0x5
 1186 0156 27       		.uleb128 0x27
 1187 0157 19       		.uleb128 0x19
 1188 0158 3C       		.uleb128 0x3c
 1189 0159 19       		.uleb128 0x19
 1190 015a 01       		.uleb128 0x1
 1191 015b 13       		.uleb128 0x13
 1192 015c 00       		.byte	0
 1193 015d 00       		.byte	0
 1194 015e 1C       		.uleb128 0x1c
 1195 015f 2E       		.uleb128 0x2e
 1196 0160 01       		.byte	0x1
 1197 0161 3F       		.uleb128 0x3f
 1198 0162 19       		.uleb128 0x19
 1199 0163 03       		.uleb128 0x3
 1200 0164 0E       		.uleb128 0xe
 1201 0165 3A       		.uleb128 0x3a
 1202 0166 0B       		.uleb128 0xb
 1203 0167 3B       		.uleb128 0x3b
 1204 0168 05       		.uleb128 0x5
 1205 0169 27       		.uleb128 0x27
 1206 016a 19       		.uleb128 0x19
 1207 016b 3C       		.uleb128 0x3c
 1208 016c 19       		.uleb128 0x19
 1209 016d 00       		.byte	0
 1210 016e 00       		.byte	0
 1211 016f 00       		.byte	0
 1212              		.section	.debug_loc,"",%progbits
 1213              	.Ldebug_loc0:
 1214              	.LLST0:
 1215 0000 00000000 		.4byte	.LVL2
 1216 0004 0B000000 		.4byte	.LVL3-1
 1217 0008 0100     		.2byte	0x1
 1218 000a 50       		.byte	0x50
 1219 000b 0B000000 		.4byte	.LVL3-1
 1220 000f 14000000 		.4byte	.LFE120
 1221 0013 0100     		.2byte	0x1
 1222 0015 54       		.byte	0x54
 1223 0016 00000000 		.4byte	0
 1224 001a 00000000 		.4byte	0
 1225              	.LLST1:
 1226 001e 00000000 		.4byte	.LVL2
 1227 0022 0B000000 		.4byte	.LVL3-1
 1228 0026 0100     		.2byte	0x1
 1229 0028 51       		.byte	0x51
 1230 0029 0B000000 		.4byte	.LVL3-1
 1231 002d 14000000 		.4byte	.LFE120
 1232 0031 0400     		.2byte	0x4
 1233 0033 F3       		.byte	0xf3
 1234 0034 01       		.uleb128 0x1
 1235 0035 51       		.byte	0x51
 1236 0036 9F       		.byte	0x9f
 1237 0037 00000000 		.4byte	0
 1238 003b 00000000 		.4byte	0
 1239              	.LLST2:
 1240 003f 00000000 		.4byte	.LVL4
ARM GAS  C:\Users\jsyoon\AppData\Local\Temp\ccz2nbNH.s 			page 23


 1241 0043 09000000 		.4byte	.LVL5-1
 1242 0047 0100     		.2byte	0x1
 1243 0049 50       		.byte	0x50
 1244 004a 09000000 		.4byte	.LVL5-1
 1245 004e 12000000 		.4byte	.LFE121
 1246 0052 0100     		.2byte	0x1
 1247 0054 54       		.byte	0x54
 1248 0055 00000000 		.4byte	0
 1249 0059 00000000 		.4byte	0
 1250              	.LLST3:
 1251 005d 00000000 		.4byte	.LVL6
 1252 0061 09000000 		.4byte	.LVL7-1
 1253 0065 0100     		.2byte	0x1
 1254 0067 50       		.byte	0x50
 1255 0068 09000000 		.4byte	.LVL7-1
 1256 006c 12000000 		.4byte	.LFE122
 1257 0070 0100     		.2byte	0x1
 1258 0072 54       		.byte	0x54
 1259 0073 00000000 		.4byte	0
 1260 0077 00000000 		.4byte	0
 1261              	.LLST4:
 1262 007b 00000000 		.4byte	.LVL8
 1263 007f 09000000 		.4byte	.LVL9-1
 1264 0083 0100     		.2byte	0x1
 1265 0085 50       		.byte	0x50
 1266 0086 09000000 		.4byte	.LVL9-1
 1267 008a 12000000 		.4byte	.LFE123
 1268 008e 0100     		.2byte	0x1
 1269 0090 54       		.byte	0x54
 1270 0091 00000000 		.4byte	0
 1271 0095 00000000 		.4byte	0
 1272              		.section	.debug_aranges,"",%progbits
 1273 0000 44000000 		.4byte	0x44
 1274 0004 0200     		.2byte	0x2
 1275 0006 00000000 		.4byte	.Ldebug_info0
 1276 000a 04       		.byte	0x4
 1277 000b 00       		.byte	0
 1278 000c 0000     		.2byte	0
 1279 000e 0000     		.2byte	0
 1280 0010 00000000 		.4byte	.LFB118
 1281 0014 04000000 		.4byte	.LFE118-.LFB118
 1282 0018 00000000 		.4byte	.LFB119
 1283 001c 0A000000 		.4byte	.LFE119-.LFB119
 1284 0020 00000000 		.4byte	.LFB120
 1285 0024 14000000 		.4byte	.LFE120-.LFB120
 1286 0028 00000000 		.4byte	.LFB121
 1287 002c 12000000 		.4byte	.LFE121-.LFB121
 1288 0030 00000000 		.4byte	.LFB122
 1289 0034 12000000 		.4byte	.LFE122-.LFB122
 1290 0038 00000000 		.4byte	.LFB123
 1291 003c 12000000 		.4byte	.LFE123-.LFB123
 1292 0040 00000000 		.4byte	0
 1293 0044 00000000 		.4byte	0
 1294              		.section	.debug_ranges,"",%progbits
 1295              	.Ldebug_ranges0:
 1296 0000 00000000 		.4byte	.LFB118
 1297 0004 04000000 		.4byte	.LFE118
ARM GAS  C:\Users\jsyoon\AppData\Local\Temp\ccz2nbNH.s 			page 24


 1298 0008 00000000 		.4byte	.LFB119
 1299 000c 0A000000 		.4byte	.LFE119
 1300 0010 00000000 		.4byte	.LFB120
 1301 0014 14000000 		.4byte	.LFE120
 1302 0018 00000000 		.4byte	.LFB121
 1303 001c 12000000 		.4byte	.LFE121
 1304 0020 00000000 		.4byte	.LFB122
 1305 0024 12000000 		.4byte	.LFE122
 1306 0028 00000000 		.4byte	.LFB123
 1307 002c 12000000 		.4byte	.LFE123
 1308 0030 00000000 		.4byte	0
 1309 0034 00000000 		.4byte	0
 1310              		.section	.debug_line,"",%progbits
 1311              	.Ldebug_line0:
 1312 0000 0B020000 		.section	.debug_str,"MS",%progbits,1
 1312      02008B01 
 1312      00000201 
 1312      FB0E0D00 
 1312      01010101 
 1313              	.LASF60:
 1314 0000 69637553 		.ascii	"icuStop\000"
 1314      746F7000 
 1315              	.LASF64:
 1316 0008 6963755F 		.ascii	"icu_lld_stop\000"
 1316      6C6C645F 
 1316      73746F70 
 1316      00
 1317              	.LASF34:
 1318 0015 43434552 		.ascii	"CCER\000"
 1318      00
 1319              	.LASF27:
 1320 001a 77636372 		.ascii	"wccrp\000"
 1320      7000
 1321              	.LASF17:
 1322 0020 4943555F 		.ascii	"ICU_STOP\000"
 1322      53544F50 
 1322      00
 1323              	.LASF47:
 1324 0029 69637563 		.ascii	"icuchannel_t\000"
 1324      68616E6E 
 1324      656C5F74 
 1324      00
 1325              	.LASF63:
 1326 0036 6963755F 		.ascii	"icu_lld_start\000"
 1326      6C6C645F 
 1326      73746172 
 1326      7400
 1327              	.LASF36:
 1328 0044 444D4152 		.ascii	"DMAR\000"
 1328      00
 1329              	.LASF24:
 1330 0049 73746174 		.ascii	"state\000"
 1330      6500
 1331              	.LASF33:
 1332 004f 43434D52 		.ascii	"CCMR2\000"
 1332      3200
 1333              	.LASF37:
ARM GAS  C:\Users\jsyoon\AppData\Local\Temp\ccz2nbNH.s 			page 25


 1334 0055 43434D52 		.ascii	"CCMR3\000"
 1334      3300
 1335              	.LASF67:
 1336 005b 43686962 		.ascii	"ChibiOS_2.6.6/os/hal/src/icu.c\000"
 1336      694F535F 
 1336      322E362E 
 1336      362F6F73 
 1336      2F68616C 
 1337              	.LASF3:
 1338 007a 73686F72 		.ascii	"short int\000"
 1338      7420696E 
 1338      7400
 1339              	.LASF59:
 1340 0084 69637570 		.ascii	"icup\000"
 1340      00
 1341              	.LASF14:
 1342 0089 73697A65 		.ascii	"sizetype\000"
 1342      74797065 
 1342      00
 1343              	.LASF65:
 1344 0092 6963755F 		.ascii	"icu_lld_enable\000"
 1344      6C6C645F 
 1344      656E6162 
 1344      6C6500
 1345              	.LASF68:
 1346 00a1 453A5C4D 		.ascii	"E:\\Maker\\BLDC\\test_eval\\try2\\OROCA-BLDC_R15080"
 1346      616B6572 
 1346      5C424C44 
 1346      435C7465 
 1346      73745F65 
 1347 00cf 3700     		.ascii	"7\000"
 1348              	.LASF7:
 1349 00d1 5F5F7569 		.ascii	"__uint32_t\000"
 1349      6E743332 
 1349      5F7400
 1350              	.LASF48:
 1351 00dc 6D6F6465 		.ascii	"mode\000"
 1351      00
 1352              	.LASF71:
 1353 00e1 6963755F 		.ascii	"icu_lld_disable\000"
 1353      6C6C645F 
 1353      64697361 
 1353      626C6500 
 1354              	.LASF25:
 1355 00f1 636F6E66 		.ascii	"config\000"
 1355      696700
 1356              	.LASF66:
 1357 00f8 474E5520 		.ascii	"GNU C 4.8.4 20140526 (release) [ARM/embedded-4_8-br"
 1357      4320342E 
 1357      382E3420 
 1357      32303134 
 1357      30353236 
 1358 012b 616E6368 		.ascii	"anch revision 211358] -mcpu=cortex-m4 -mfloat-abi=h"
 1358      20726576 
 1358      6973696F 
 1358      6E203231 
 1358      31333538 
ARM GAS  C:\Users\jsyoon\AppData\Local\Temp\ccz2nbNH.s 			page 26


 1359 015e 61726420 		.ascii	"ard -mfpu=fpv4-sp-d16 -mno-thumb-interwork -mthumb "
 1359      2D6D6670 
 1359      753D6670 
 1359      76342D73 
 1359      702D6431 
 1360 0191 2D676764 		.ascii	"-ggdb -O2 -std=gnu99 -fomit-frame-pointer -falign-f"
 1360      62202D4F 
 1360      32202D73 
 1360      74643D67 
 1360      6E753939 
 1361 01c4 756E6374 		.ascii	"unctions=16 -ffunction-sections -fdata-sections -fn"
 1361      696F6E73 
 1361      3D313620 
 1361      2D666675 
 1361      6E637469 
 1362 01f7 6F2D636F 		.ascii	"o-common -fsingle-precision-constant\000"
 1362      6D6D6F6E 
 1362      202D6673 
 1362      696E676C 
 1362      652D7072 
 1363              	.LASF45:
 1364 021c 4943555F 		.ascii	"ICU_CHANNEL_1\000"
 1364      4348414E 
 1364      4E454C5F 
 1364      3100
 1365              	.LASF46:
 1366 022a 4943555F 		.ascii	"ICU_CHANNEL_2\000"
 1366      4348414E 
 1366      4E454C5F 
 1366      3200
 1367              	.LASF56:
 1368 0238 69637549 		.ascii	"icuInit\000"
 1368      6E697400 
 1369              	.LASF50:
 1370 0240 77696474 		.ascii	"width_cb\000"
 1370      685F6362 
 1370      00
 1371              	.LASF20:
 1372 0249 4943555F 		.ascii	"ICU_ACTIVE\000"
 1372      41435449 
 1372      564500
 1373              	.LASF9:
 1374 0254 6C6F6E67 		.ascii	"long long int\000"
 1374      206C6F6E 
 1374      6720696E 
 1374      7400
 1375              	.LASF10:
 1376 0262 6C6F6E67 		.ascii	"long long unsigned int\000"
 1376      206C6F6E 
 1376      6720756E 
 1376      7369676E 
 1376      65642069 
 1377              	.LASF43:
 1378 0279 6963756D 		.ascii	"icumode_t\000"
 1378      6F64655F 
 1378      7400
 1379              	.LASF15:
ARM GAS  C:\Users\jsyoon\AppData\Local\Temp\ccz2nbNH.s 			page 27


 1380 0283 63686172 		.ascii	"char\000"
 1380      00
 1381              	.LASF5:
 1382 0288 6C6F6E67 		.ascii	"long int\000"
 1382      20696E74 
 1382      00
 1383              	.LASF38:
 1384 0291 43435235 		.ascii	"CCR5\000"
 1384      00
 1385              	.LASF39:
 1386 0296 43435236 		.ascii	"CCR6\000"
 1386      00
 1387              	.LASF28:
 1388 029b 70636372 		.ascii	"pccrp\000"
 1388      7000
 1389              	.LASF32:
 1390 02a1 43434D52 		.ascii	"CCMR1\000"
 1390      3100
 1391              	.LASF21:
 1392 02a7 4943555F 		.ascii	"ICU_IDLE\000"
 1392      49444C45 
 1392      00
 1393              	.LASF30:
 1394 02b0 534D4352 		.ascii	"SMCR\000"
 1394      00
 1395              	.LASF2:
 1396 02b5 756E7369 		.ascii	"unsigned char\000"
 1396      676E6564 
 1396      20636861 
 1396      7200
 1397              	.LASF55:
 1398 02c3 49435543 		.ascii	"ICUConfig\000"
 1398      6F6E6669 
 1398      6700
 1399              	.LASF58:
 1400 02cd 69637553 		.ascii	"icuStart\000"
 1400      74617274 
 1400      00
 1401              	.LASF61:
 1402 02d6 69637545 		.ascii	"icuEnable\000"
 1402      6E61626C 
 1402      6500
 1403              	.LASF1:
 1404 02e0 7369676E 		.ascii	"signed char\000"
 1404      65642063 
 1404      68617200 
 1405              	.LASF70:
 1406 02ec 6963755F 		.ascii	"icu_lld_init\000"
 1406      6C6C645F 
 1406      696E6974 
 1406      00
 1407              	.LASF12:
 1408 02f9 75696E74 		.ascii	"uint32_t\000"
 1408      33325F74 
 1408      00
 1409              	.LASF0:
 1410 0302 756E7369 		.ascii	"unsigned int\000"
ARM GAS  C:\Users\jsyoon\AppData\Local\Temp\ccz2nbNH.s 			page 28


 1410      676E6564 
 1410      20696E74 
 1410      00
 1411              	.LASF31:
 1412 030f 44494552 		.ascii	"DIER\000"
 1412      00
 1413              	.LASF44:
 1414 0314 69637566 		.ascii	"icufreq_t\000"
 1414      7265715F 
 1414      7400
 1415              	.LASF4:
 1416 031e 73686F72 		.ascii	"short unsigned int\000"
 1416      7420756E 
 1416      7369676E 
 1416      65642069 
 1416      6E7400
 1417              	.LASF42:
 1418 0331 4943555F 		.ascii	"ICU_INPUT_ACTIVE_LOW\000"
 1418      494E5055 
 1418      545F4143 
 1418      54495645 
 1418      5F4C4F57 
 1419              	.LASF29:
 1420 0346 69637563 		.ascii	"icucallback_t\000"
 1420      616C6C62 
 1420      61636B5F 
 1420      7400
 1421              	.LASF40:
 1422 0354 73746D33 		.ascii	"stm32_tim_t\000"
 1422      325F7469 
 1422      6D5F7400 
 1423              	.LASF51:
 1424 0360 70657269 		.ascii	"period_cb\000"
 1424      6F645F63 
 1424      6200
 1425              	.LASF35:
 1426 036a 42445452 		.ascii	"BDTR\000"
 1426      00
 1427              	.LASF11:
 1428 036f 696E7433 		.ascii	"int32_t\000"
 1428      325F7400 
 1429              	.LASF13:
 1430 0377 5F426F6F 		.ascii	"_Bool\000"
 1430      6C00
 1431              	.LASF53:
 1432 037d 6368616E 		.ascii	"channel\000"
 1432      6E656C00 
 1433              	.LASF62:
 1434 0385 69637544 		.ascii	"icuDisable\000"
 1434      69736162 
 1434      6C6500
 1435              	.LASF16:
 1436 0390 4943555F 		.ascii	"ICU_UNINIT\000"
 1436      554E494E 
 1436      495400
 1437              	.LASF41:
 1438 039b 4943555F 		.ascii	"ICU_INPUT_ACTIVE_HIGH\000"
ARM GAS  C:\Users\jsyoon\AppData\Local\Temp\ccz2nbNH.s 			page 29


 1438      494E5055 
 1438      545F4143 
 1438      54495645 
 1438      5F484947 
 1439              	.LASF8:
 1440 03b1 6C6F6E67 		.ascii	"long unsigned int\000"
 1440      20756E73 
 1440      69676E65 
 1440      6420696E 
 1440      7400
 1441              	.LASF26:
 1442 03c3 636C6F63 		.ascii	"clock\000"
 1442      6B00
 1443              	.LASF52:
 1444 03c9 6F766572 		.ascii	"overflow_cb\000"
 1444      666C6F77 
 1444      5F636200 
 1445              	.LASF6:
 1446 03d5 5F5F696E 		.ascii	"__int32_t\000"
 1446      7433325F 
 1446      7400
 1447              	.LASF54:
 1448 03df 64696572 		.ascii	"dier\000"
 1448      00
 1449              	.LASF23:
 1450 03e4 49435544 		.ascii	"ICUDriver\000"
 1450      72697665 
 1450      7200
 1451              	.LASF49:
 1452 03ee 66726571 		.ascii	"frequency\000"
 1452      75656E63 
 1452      7900
 1453              	.LASF18:
 1454 03f8 4943555F 		.ascii	"ICU_READY\000"
 1454      52454144 
 1454      5900
 1455              	.LASF57:
 1456 0402 6963754F 		.ascii	"icuObjectInit\000"
 1456      626A6563 
 1456      74496E69 
 1456      7400
 1457              	.LASF69:
 1458 0410 49544D5F 		.ascii	"ITM_RxBuffer\000"
 1458      52784275 
 1458      66666572 
 1458      00
 1459              	.LASF22:
 1460 041d 69637573 		.ascii	"icustate_t\000"
 1460      74617465 
 1460      5F7400
 1461              	.LASF19:
 1462 0428 4943555F 		.ascii	"ICU_WAITING\000"
 1462      57414954 
 1462      494E4700 
 1463              		.ident	"GCC: (GNU Tools for ARM Embedded Processors) 4.8.4 20140526 (release) [ARM/embedded-4_8-br
ARM GAS  C:\Users\jsyoon\AppData\Local\Temp\ccz2nbNH.s 			page 30


DEFINED SYMBOLS
                            *ABS*:00000000 icu.c
C:\Users\jsyoon\AppData\Local\Temp\ccz2nbNH.s:21     .text.icuInit:00000000 $t
C:\Users\jsyoon\AppData\Local\Temp\ccz2nbNH.s:27     .text.icuInit:00000000 icuInit
C:\Users\jsyoon\AppData\Local\Temp\ccz2nbNH.s:42     .text.icuObjectInit:00000000 $t
C:\Users\jsyoon\AppData\Local\Temp\ccz2nbNH.s:48     .text.icuObjectInit:00000000 icuObjectInit
C:\Users\jsyoon\AppData\Local\Temp\ccz2nbNH.s:69     .text.icuStart:00000000 $t
C:\Users\jsyoon\AppData\Local\Temp\ccz2nbNH.s:75     .text.icuStart:00000000 icuStart
C:\Users\jsyoon\AppData\Local\Temp\ccz2nbNH.s:111    .text.icuStop:00000000 $t
C:\Users\jsyoon\AppData\Local\Temp\ccz2nbNH.s:117    .text.icuStop:00000000 icuStop
C:\Users\jsyoon\AppData\Local\Temp\ccz2nbNH.s:151    .text.icuEnable:00000000 $t
C:\Users\jsyoon\AppData\Local\Temp\ccz2nbNH.s:157    .text.icuEnable:00000000 icuEnable
C:\Users\jsyoon\AppData\Local\Temp\ccz2nbNH.s:191    .text.icuDisable:00000000 $t
C:\Users\jsyoon\AppData\Local\Temp\ccz2nbNH.s:197    .text.icuDisable:00000000 icuDisable
                     .debug_frame:00000010 $d

UNDEFINED SYMBOLS
icu_lld_init
icu_lld_start
icu_lld_stop
icu_lld_enable
icu_lld_disable
