ARM GAS  C:\Users\jsyoon\AppData\Local\Temp\ccw7Mq7c.s 			page 1


   1              		.syntax unified
   2              		.cpu cortex-m4
   3              		.eabi_attribute 27, 3
   4              		.eabi_attribute 28, 1
   5              		.fpu fpv4-sp-d16
   6              		.eabi_attribute 20, 1
   7              		.eabi_attribute 21, 1
   8              		.eabi_attribute 23, 3
   9              		.eabi_attribute 24, 1
  10              		.eabi_attribute 25, 1
  11              		.eabi_attribute 26, 1
  12              		.eabi_attribute 30, 2
  13              		.eabi_attribute 34, 1
  14              		.eabi_attribute 18, 4
  15              		.thumb
  16              		.file	"icu_lld.c"
  17              		.text
  18              	.Ltext0:
  19              		.cfi_sections	.debug_frame
  20              		.section	.text.VectorB4,"ax",%progbits
  21              		.align	2
  22              		.p2align 4,,15
  23              		.global	VectorB4
  24              		.thumb
  25              		.thumb_func
  26              		.type	VectorB4, %function
  27              	VectorB4:
  28              	.LFB119:
  29              		.file 1 "ChibiOS_2.6.6/os/hal/platforms/STM32/TIMv1/icu_lld.c"
  30              		.loc 1 212 0
  31              		.cfi_startproc
  32              		@ args = 0, pretend = 0, frame = 0
  33              		@ frame_needed = 0, uses_anonymous_args = 0
  34              	.LVL0:
  35 0000 38B5     		push	{r3, r4, r5, lr}
  36              		.cfi_def_cfa_offset 16
  37              		.cfi_offset 3, -16
  38              		.cfi_offset 4, -12
  39              		.cfi_offset 5, -8
  40              		.cfi_offset 14, -4
  41              	.LBB8:
  42              	.LBB9:
  43              		.loc 1 114 0
  44 0002 214C     		ldr	r4, .L34
  45 0004 E368     		ldr	r3, [r4, #12]
  46              		.loc 1 117 0
  47 0006 6268     		ldr	r2, [r4, #4]
  48              		.loc 1 114 0
  49 0008 1869     		ldr	r0, [r3, #16]
  50              	.LVL1:
  51              		.loc 1 115 0
  52 000a DD68     		ldr	r5, [r3, #12]
  53              		.loc 1 117 0
  54 000c 117D     		ldrb	r1, [r2, #20]	@ zero_extendqisi2
  55              		.loc 1 115 0
  56 000e 0540     		ands	r5, r5, r0
  57 0010 ADB2     		uxth	r5, r5
ARM GAS  C:\Users\jsyoon\AppData\Local\Temp\ccw7Mq7c.s 			page 2


  58              	.LVL2:
  59              		.loc 1 116 0
  60 0012 E8B2     		uxtb	r0, r5
  61 0014 C043     		mvns	r0, r0
  62 0016 1861     		str	r0, [r3, #16]
  63              		.loc 1 117 0
  64 0018 A9B9     		cbnz	r1, .L2
  65              		.loc 1 118 0
  66 001a AB07     		lsls	r3, r5, #30
  67 001c 07D5     		bpl	.L4
  68              	.LBB10:
  69              		.loc 1 119 0
  70 001e 2378     		ldrb	r3, [r4]	@ zero_extendqisi2
  71              	.LVL3:
  72 0020 0421     		movs	r1, #4
  73 0022 032B     		cmp	r3, #3
  74 0024 2170     		strb	r1, [r4]
  75 0026 02D0     		beq	.L4
  76 0028 D368     		ldr	r3, [r2, #12]
  77 002a 2046     		mov	r0, r4
  78 002c 9847     		blx	r3
  79              	.LVL4:
  80              	.L4:
  81              	.LBE10:
  82              		.loc 1 120 0
  83 002e 6807     		lsls	r0, r5, #29
  84 0030 1FD4     		bmi	.L33
  85              	.L7:
  86              		.loc 1 128 0
  87 0032 EB07     		lsls	r3, r5, #31
  88 0034 03D5     		bpl	.L10
  89              		.loc 1 129 0
  90 0036 6368     		ldr	r3, [r4, #4]
  91 0038 1348     		ldr	r0, .L34
  92 003a 1B69     		ldr	r3, [r3, #16]
  93 003c 9847     		blx	r3
  94              	.LVL5:
  95              	.L10:
  96              	.LBE9:
  97              	.LBE8:
  98              		.loc 1 219 0
  99 003e BDE83840 		pop	{r3, r4, r5, lr}
 100              	.LVL6:
 101              		.loc 1 218 0
 102 0042 FFF7FEBF 		b	_port_irq_epilogue
 103              	.LVL7:
 104              	.L2:
 105              	.LBB13:
 106              	.LBB12:
 107              		.loc 1 123 0
 108 0046 A907     		lsls	r1, r5, #30
 109 0048 07D5     		bpl	.L9
 110              		.loc 1 124 0
 111 004a 2378     		ldrb	r3, [r4]	@ zero_extendqisi2
 112 004c 032B     		cmp	r3, #3
 113 004e 04D0     		beq	.L9
 114 0050 0521     		movs	r1, #5
ARM GAS  C:\Users\jsyoon\AppData\Local\Temp\ccw7Mq7c.s 			page 3


 115 0052 9368     		ldr	r3, [r2, #8]
 116 0054 2170     		strb	r1, [r4]
 117 0056 2046     		mov	r0, r4
 118 0058 9847     		blx	r3
 119              	.LVL8:
 120              	.L9:
 121              		.loc 1 125 0
 122 005a 6A07     		lsls	r2, r5, #29
 123 005c E9D5     		bpl	.L7
 124              	.LBB11:
 125              		.loc 1 126 0
 126 005e 2378     		ldrb	r3, [r4]	@ zero_extendqisi2
 127              	.LVL9:
 128 0060 0948     		ldr	r0, .L34
 129 0062 0422     		movs	r2, #4
 130 0064 032B     		cmp	r3, #3
 131 0066 2270     		strb	r2, [r4]
 132 0068 E3D0     		beq	.L7
 133 006a 4368     		ldr	r3, [r0, #4]
 134 006c DB68     		ldr	r3, [r3, #12]
 135 006e 9847     		blx	r3
 136              	.LVL10:
 137 0070 DFE7     		b	.L7
 138              	.L33:
 139              	.LBE11:
 140              		.loc 1 121 0
 141 0072 2378     		ldrb	r3, [r4]	@ zero_extendqisi2
 142 0074 0448     		ldr	r0, .L34
 143 0076 032B     		cmp	r3, #3
 144 0078 DBD0     		beq	.L7
 145 007a 4368     		ldr	r3, [r0, #4]
 146 007c 0522     		movs	r2, #5
 147 007e 9B68     		ldr	r3, [r3, #8]
 148 0080 0270     		strb	r2, [r0]
 149 0082 9847     		blx	r3
 150              	.LVL11:
 151 0084 D5E7     		b	.L7
 152              	.L35:
 153 0086 00BF     		.align	2
 154              	.L34:
 155 0088 00000000 		.word	.LANCHOR0
 156              	.LBE12:
 157              	.LBE13:
 158              		.cfi_endproc
 159              	.LFE119:
 160              		.size	VectorB4, .-VectorB4
 161 008c AFF30080 		.section	.text.icu_lld_init,"ax",%progbits
 162              		.align	2
 163              		.p2align 4,,15
 164              		.global	icu_lld_init
 165              		.thumb
 166              		.thumb_func
 167              		.type	icu_lld_init, %function
 168              	icu_lld_init:
 169              	.LFB120:
 170              		.loc 1 339 0
 171              		.cfi_startproc
ARM GAS  C:\Users\jsyoon\AppData\Local\Temp\ccw7Mq7c.s 			page 4


 172              		@ args = 0, pretend = 0, frame = 0
 173              		@ frame_needed = 0, uses_anonymous_args = 0
 174 0000 10B5     		push	{r4, lr}
 175              		.cfi_def_cfa_offset 8
 176              		.cfi_offset 4, -8
 177              		.cfi_offset 14, -4
 178              		.loc 1 355 0
 179 0002 034C     		ldr	r4, .L37
 180 0004 2046     		mov	r0, r4
 181 0006 FFF7FEFF 		bl	icuObjectInit
 182              	.LVL12:
 183              		.loc 1 356 0
 184 000a 024B     		ldr	r3, .L37+4
 185 000c E360     		str	r3, [r4, #12]
 186 000e 10BD     		pop	{r4, pc}
 187              	.L38:
 188              		.align	2
 189              	.L37:
 190 0010 00000000 		.word	.LANCHOR0
 191 0014 00040040 		.word	1073742848
 192              		.cfi_endproc
 193              	.LFE120:
 194              		.size	icu_lld_init, .-icu_lld_init
 195 0018 AFF30080 		.section	.text.icu_lld_start,"ax",%progbits
 195      AFF30080 
 196              		.align	2
 197              		.p2align 4,,15
 198              		.global	icu_lld_start
 199              		.thumb
 200              		.thumb_func
 201              		.type	icu_lld_start, %function
 202              	icu_lld_start:
 203              	.LFB121:
 204              		.loc 1 391 0
 205              		.cfi_startproc
 206              		@ args = 0, pretend = 0, frame = 0
 207              		@ frame_needed = 0, uses_anonymous_args = 0
 208              	.LVL13:
 209 0000 F8B5     		push	{r3, r4, r5, r6, r7, lr}
 210              		.cfi_def_cfa_offset 24
 211              		.cfi_offset 3, -24
 212              		.cfi_offset 4, -20
 213              		.cfi_offset 5, -16
 214              		.cfi_offset 6, -12
 215              		.cfi_offset 7, -8
 216              		.cfi_offset 14, -4
 217              		.loc 1 398 0
 218 0002 0378     		ldrb	r3, [r0]	@ zero_extendqisi2
 219 0004 012B     		cmp	r3, #1
 220              		.loc 1 391 0
 221 0006 0446     		mov	r4, r0
 222              		.loc 1 398 0
 223 0008 3BD0     		beq	.L50
 224              		.loc 1 478 0
 225 000a C368     		ldr	r3, [r0, #12]
 226 000c 0022     		movs	r2, #0
 227 000e 1A60     		str	r2, [r3]
ARM GAS  C:\Users\jsyoon\AppData\Local\Temp\ccw7Mq7c.s 			page 5


 228              		.loc 1 479 0
 229 0010 5A63     		str	r2, [r3, #52]
 230              		.loc 1 480 0
 231 0012 9A63     		str	r2, [r3, #56]
 232              		.loc 1 481 0
 233 0014 5A62     		str	r2, [r3, #36]
 234              	.LVL14:
 235              	.L42:
 236              		.loc 1 486 0
 237 0016 6268     		ldr	r2, [r4, #4]
 238              		.loc 1 488 0
 239 0018 A568     		ldr	r5, [r4, #8]
 240 001a 5068     		ldr	r0, [r2, #4]
 241              		.loc 1 486 0
 242 001c 9169     		ldr	r1, [r2, #24]
 243              		.loc 1 495 0
 244 001e 167D     		ldrb	r6, [r2, #20]	@ zero_extendqisi2
 245              		.loc 1 508 0
 246 0020 1278     		ldrb	r2, [r2]	@ zero_extendqisi2
 247              		.loc 1 488 0
 248 0022 B5FBF0F0 		udiv	r0, r5, r0
 249 0026 0138     		subs	r0, r0, #1
 250              		.loc 1 492 0
 251 0028 80B2     		uxth	r0, r0
 252              		.loc 1 486 0
 253 002a 21F0FF01 		bic	r1, r1, #255
 254              		.loc 1 485 0
 255 002e 0025     		movs	r5, #0
 256              		.loc 1 493 0
 257 0030 4FF6FF77 		movw	r7, #65535
 258              		.loc 1 485 0
 259 0034 1D61     		str	r5, [r3, #16]
 260              		.loc 1 486 0
 261 0036 D960     		str	r1, [r3, #12]
 262              		.loc 1 492 0
 263 0038 9862     		str	r0, [r3, #40]
 264              		.loc 1 493 0
 265 003a DF62     		str	r7, [r3, #44]
 266              		.loc 1 495 0
 267 003c 6EB9     		cbnz	r6, .L43
 268              		.loc 1 499 0
 269 003e 40F20120 		movw	r0, #513
 270              		.loc 1 503 0
 271 0042 5421     		movs	r1, #84
 272              		.loc 1 499 0
 273 0044 9861     		str	r0, [r3, #24]
 274              		.loc 1 503 0
 275 0046 9960     		str	r1, [r3, #8]
 276              		.loc 1 508 0
 277 0048 C2B1     		cbz	r2, .L51
 278              		.loc 1 512 0
 279 004a 1322     		movs	r2, #19
 280 004c 1A62     		str	r2, [r3, #32]
 281              	.L45:
 282              		.loc 1 517 0 discriminator 1
 283 004e 03F13802 		add	r2, r3, #56
 284              		.loc 1 518 0 discriminator 1
ARM GAS  C:\Users\jsyoon\AppData\Local\Temp\ccw7Mq7c.s 			page 6


 285 0052 3433     		adds	r3, r3, #52
 286              		.loc 1 517 0 discriminator 1
 287 0054 2261     		str	r2, [r4, #16]
 288              		.loc 1 518 0 discriminator 1
 289 0056 6361     		str	r3, [r4, #20]
 290 0058 F8BD     		pop	{r3, r4, r5, r6, r7, pc}
 291              	.LVL15:
 292              	.L43:
 293              		.loc 1 523 0
 294 005a 4FF48170 		mov	r0, #258
 295              		.loc 1 527 0
 296 005e 6421     		movs	r1, #100
 297              		.loc 1 523 0
 298 0060 9861     		str	r0, [r3, #24]
 299              		.loc 1 527 0
 300 0062 9960     		str	r1, [r3, #8]
 301              		.loc 1 532 0
 302 0064 3AB1     		cbz	r2, .L52
 303              		.loc 1 536 0
 304 0066 3122     		movs	r2, #49
 305 0068 1A62     		str	r2, [r3, #32]
 306              	.L48:
 307              		.loc 1 541 0
 308 006a 03F13402 		add	r2, r3, #52
 309              		.loc 1 542 0
 310 006e 3833     		adds	r3, r3, #56
 311              		.loc 1 541 0
 312 0070 2261     		str	r2, [r4, #16]
 313              		.loc 1 542 0
 314 0072 6361     		str	r3, [r4, #20]
 315 0074 F8BD     		pop	{r3, r4, r5, r6, r7, pc}
 316              	.LVL16:
 317              	.L52:
 318              		.loc 1 533 0
 319 0076 1322     		movs	r2, #19
 320 0078 1A62     		str	r2, [r3, #32]
 321 007a F6E7     		b	.L48
 322              	.L51:
 323              		.loc 1 509 0
 324 007c 3122     		movs	r2, #49
 325 007e 1A62     		str	r2, [r3, #32]
 326 0080 E5E7     		b	.L45
 327              	.LVL17:
 328              	.L50:
 329              		.loc 1 425 0
 330 0082 0B4B     		ldr	r3, .L53
 331 0084 9842     		cmp	r0, r3
 332 0086 01D0     		beq	.L41
 333              	.LVL18:
 334              	.L49:
 335 0088 E368     		ldr	r3, [r4, #12]
 336 008a C4E7     		b	.L42
 337              	.LVL19:
 338              	.L41:
 339              		.loc 1 426 0
 340 008c 094B     		ldr	r3, .L53+4
 341 008e 1A6C     		ldr	r2, [r3, #64]
ARM GAS  C:\Users\jsyoon\AppData\Local\Temp\ccw7Mq7c.s 			page 7


 342 0090 42F00202 		orr	r2, r2, #2
 343 0094 1A64     		str	r2, [r3, #64]
 344              		.loc 1 427 0
 345 0096 196A     		ldr	r1, [r3, #32]
 346 0098 0022     		movs	r2, #0
 347 009a 41F00201 		orr	r1, r1, #2
 348 009e 1962     		str	r1, [r3, #32]
 349              		.loc 1 428 0
 350 00a0 1D20     		movs	r0, #29
 351              	.LVL20:
 352              		.loc 1 427 0
 353 00a2 1A62     		str	r2, [r3, #32]
 354              		.loc 1 428 0
 355 00a4 7021     		movs	r1, #112
 356 00a6 FFF7FEFF 		bl	nvicEnableVector
 357              	.LVL21:
 358              		.loc 1 430 0
 359 00aa 034B     		ldr	r3, .L53+8
 360 00ac A360     		str	r3, [r4, #8]
 361 00ae EBE7     		b	.L49
 362              	.L54:
 363              		.align	2
 364              	.L53:
 365 00b0 00000000 		.word	.LANCHOR0
 366 00b4 00380240 		.word	1073887232
 367 00b8 00BD0105 		.word	84000000
 368              		.cfi_endproc
 369              	.LFE121:
 370              		.size	icu_lld_start, .-icu_lld_start
 371 00bc AFF30080 		.section	.text.icu_lld_stop,"ax",%progbits
 372              		.align	2
 373              		.p2align 4,,15
 374              		.global	icu_lld_stop
 375              		.thumb
 376              		.thumb_func
 377              		.type	icu_lld_stop, %function
 378              	icu_lld_stop:
 379              	.LFB122:
 380              		.loc 1 553 0
 381              		.cfi_startproc
 382              		@ args = 0, pretend = 0, frame = 0
 383              		@ frame_needed = 0, uses_anonymous_args = 0
 384              	.LVL22:
 385 0000 08B5     		push	{r3, lr}
 386              		.cfi_def_cfa_offset 8
 387              		.cfi_offset 3, -8
 388              		.cfi_offset 14, -4
 389              		.loc 1 555 0
 390 0002 0378     		ldrb	r3, [r0]	@ zero_extendqisi2
 391 0004 022B     		cmp	r3, #2
 392 0006 00D0     		beq	.L59
 393              	.LVL23:
 394              	.L55:
 395 0008 08BD     		pop	{r3, pc}
 396              	.LVL24:
 397              	.L59:
 398              		.loc 1 575 0
ARM GAS  C:\Users\jsyoon\AppData\Local\Temp\ccw7Mq7c.s 			page 8


 399 000a 0849     		ldr	r1, .L60
 400              		.loc 1 557 0
 401 000c C368     		ldr	r3, [r0, #12]
 402 000e 0022     		movs	r2, #0
 403              		.loc 1 575 0
 404 0010 8842     		cmp	r0, r1
 405              		.loc 1 557 0
 406 0012 1A60     		str	r2, [r3]
 407              		.loc 1 558 0
 408 0014 DA60     		str	r2, [r3, #12]
 409              		.loc 1 559 0
 410 0016 1A61     		str	r2, [r3, #16]
 411              		.loc 1 575 0
 412 0018 F6D1     		bne	.L55
 413              		.loc 1 576 0
 414 001a 1D20     		movs	r0, #29
 415              	.LVL25:
 416 001c FFF7FEFF 		bl	nvicDisableVector
 417              	.LVL26:
 418              		.loc 1 577 0
 419 0020 034B     		ldr	r3, .L60+4
 420 0022 1A6C     		ldr	r2, [r3, #64]
 421 0024 22F00202 		bic	r2, r2, #2
 422 0028 1A64     		str	r2, [r3, #64]
 423 002a EDE7     		b	.L55
 424              	.L61:
 425              		.align	2
 426              	.L60:
 427 002c 00000000 		.word	.LANCHOR0
 428 0030 00380240 		.word	1073887232
 429              		.cfi_endproc
 430              	.LFE122:
 431              		.size	icu_lld_stop, .-icu_lld_stop
 432 0034 AFF30080 		.section	.text.icu_lld_enable,"ax",%progbits
 432      AFF30080 
 432      AFF30080 
 433              		.align	2
 434              		.p2align 4,,15
 435              		.global	icu_lld_enable
 436              		.thumb
 437              		.thumb_func
 438              		.type	icu_lld_enable, %function
 439              	icu_lld_enable:
 440              	.LFB123:
 441              		.loc 1 615 0
 442              		.cfi_startproc
 443              		@ args = 0, pretend = 0, frame = 0
 444              		@ frame_needed = 0, uses_anonymous_args = 0
 445              		@ link register save eliminated.
 446              	.LVL27:
 447              		.loc 1 617 0
 448 0000 C368     		ldr	r3, [r0, #12]
 449              		.loc 1 619 0
 450 0002 4268     		ldr	r2, [r0, #4]
 451              		.loc 1 617 0
 452 0004 5869     		ldr	r0, [r3, #20]
 453              	.LVL28:
ARM GAS  C:\Users\jsyoon\AppData\Local\Temp\ccw7Mq7c.s 			page 9


 454              		.loc 1 619 0
 455 0006 117D     		ldrb	r1, [r2, #20]	@ zero_extendqisi2
 456              		.loc 1 615 0
 457 0008 10B4     		push	{r4}
 458              		.cfi_def_cfa_offset 4
 459              		.cfi_offset 4, -4
 460              		.loc 1 617 0
 461 000a 40F00100 		orr	r0, r0, #1
 462              		.loc 1 618 0
 463 000e 0024     		movs	r4, #0
 464              		.loc 1 617 0
 465 0010 5861     		str	r0, [r3, #20]
 466              		.loc 1 618 0
 467 0012 1C61     		str	r4, [r3, #16]
 468              		.loc 1 619 0
 469 0014 B1B9     		cbnz	r1, .L63
 470              		.loc 1 620 0
 471 0016 D168     		ldr	r1, [r2, #12]
 472 0018 19B1     		cbz	r1, .L64
 473              		.loc 1 621 0
 474 001a D968     		ldr	r1, [r3, #12]
 475 001c 41F00201 		orr	r1, r1, #2
 476 0020 D960     		str	r1, [r3, #12]
 477              	.L64:
 478              		.loc 1 622 0
 479 0022 9168     		ldr	r1, [r2, #8]
 480 0024 19B1     		cbz	r1, .L66
 481              	.L82:
 482              		.loc 1 628 0
 483 0026 D968     		ldr	r1, [r3, #12]
 484 0028 41F00401 		orr	r1, r1, #4
 485 002c D960     		str	r1, [r3, #12]
 486              	.L66:
 487              		.loc 1 630 0
 488 002e 1269     		ldr	r2, [r2, #16]
 489 0030 1AB1     		cbz	r2, .L69
 490              		.loc 1 631 0
 491 0032 DA68     		ldr	r2, [r3, #12]
 492 0034 42F00102 		orr	r2, r2, #1
 493 0038 DA60     		str	r2, [r3, #12]
 494              	.L69:
 495              		.loc 1 632 0
 496 003a 0522     		movs	r2, #5
 497 003c 1A60     		str	r2, [r3]
 498              		.loc 1 633 0
 499 003e 5DF8044B 		ldr	r4, [sp], #4
 500 0042 7047     		bx	lr
 501              	.L63:
 502              		.loc 1 625 0
 503 0044 9168     		ldr	r1, [r2, #8]
 504 0046 19B1     		cbz	r1, .L67
 505              		.loc 1 626 0
 506 0048 D968     		ldr	r1, [r3, #12]
 507 004a 41F00201 		orr	r1, r1, #2
 508 004e D960     		str	r1, [r3, #12]
 509              	.L67:
 510              		.loc 1 627 0
ARM GAS  C:\Users\jsyoon\AppData\Local\Temp\ccw7Mq7c.s 			page 10


 511 0050 D168     		ldr	r1, [r2, #12]
 512 0052 0029     		cmp	r1, #0
 513 0054 E7D1     		bne	.L82
 514 0056 EAE7     		b	.L66
 515              		.cfi_endproc
 516              	.LFE123:
 517              		.size	icu_lld_enable, .-icu_lld_enable
 518 0058 AFF30080 		.section	.text.icu_lld_disable,"ax",%progbits
 518      AFF30080 
 519              		.align	2
 520              		.p2align 4,,15
 521              		.global	icu_lld_disable
 522              		.thumb
 523              		.thumb_func
 524              		.type	icu_lld_disable, %function
 525              	icu_lld_disable:
 526              	.LFB124:
 527              		.loc 1 642 0
 528              		.cfi_startproc
 529              		@ args = 0, pretend = 0, frame = 0
 530              		@ frame_needed = 0, uses_anonymous_args = 0
 531              		@ link register save eliminated.
 532              	.LVL29:
 533              		.loc 1 644 0
 534 0000 C368     		ldr	r3, [r0, #12]
 535 0002 0022     		movs	r2, #0
 536 0004 1A60     		str	r2, [r3]
 537              		.loc 1 645 0
 538 0006 1A61     		str	r2, [r3, #16]
 539              		.loc 1 648 0
 540 0008 DA68     		ldr	r2, [r3, #12]
 541 000a 22F0FF02 		bic	r2, r2, #255
 542 000e DA60     		str	r2, [r3, #12]
 543 0010 7047     		bx	lr
 544              		.cfi_endproc
 545              	.LFE124:
 546              		.size	icu_lld_disable, .-icu_lld_disable
 547              		.global	ICUD3
 548 0012 00BFAFF3 		.section	.bss.ICUD3,"aw",%nobits
 548      0080AFF3 
 548      0080AFF3 
 548      0080
 549              		.align	2
 550              		.set	.LANCHOR0,. + 0
 551              		.type	ICUD3, %object
 552              		.size	ICUD3, 24
 553              	ICUD3:
 554 0000 00000000 		.space	24
 554      00000000 
 554      00000000 
 554      00000000 
 554      00000000 
 555              		.text
 556              	.Letext0:
 557              		.file 2 "c:\\crosstools\\gcc-arm-embedded\\4.8_2014q2\\arm-none-eabi\\include\\machine\\_default_t
 558              		.file 3 "c:\\crosstools\\gcc-arm-embedded\\4.8_2014q2\\arm-none-eabi\\include\\stdint.h"
 559              		.file 4 "ChibiOS_2.6.6/os/hal/platforms/STM32F4xx/stm32f4xx.h"
ARM GAS  C:\Users\jsyoon\AppData\Local\Temp\ccw7Mq7c.s 			page 11


 560              		.file 5 "ChibiOS_2.6.6/os/hal/include/icu.h"
 561              		.file 6 "ChibiOS_2.6.6/os/hal/platforms/STM32/TIMv1/icu_lld.h"
 562              		.file 7 "ChibiOS_2.6.6/os/hal/platforms/STM32/TIMv1/stm32_tim.h"
 563              		.file 8 "ChibiOS_2.6.6/os/ports/common/ARMCMx/CMSIS/include/core_cm4.h"
 564              		.file 9 "ChibiOS_2.6.6/os/ports/common/ARMCMx/nvic.h"
 565              		.file 10 "ChibiOS_2.6.6/os/ports/GCC/ARMCMx/chcore_v7m.h"
 566              		.section	.debug_info,"",%progbits
 567              	.Ldebug_info0:
 568 0000 A8070000 		.4byte	0x7a8
 569 0004 0400     		.2byte	0x4
 570 0006 00000000 		.4byte	.Ldebug_abbrev0
 571 000a 04       		.byte	0x4
 572 000b 01       		.uleb128 0x1
 573 000c 37010000 		.4byte	.LASF100
 574 0010 01       		.byte	0x1
 575 0011 63020000 		.4byte	.LASF101
 576 0015 BC000000 		.4byte	.LASF102
 577 0019 18000000 		.4byte	.Ldebug_ranges0+0x18
 578 001d 00000000 		.4byte	0
 579 0021 00000000 		.4byte	.Ldebug_line0
 580 0025 02       		.uleb128 0x2
 581 0026 04       		.byte	0x4
 582 0027 05       		.byte	0x5
 583 0028 696E7400 		.ascii	"int\000"
 584 002c 03       		.uleb128 0x3
 585 002d 04       		.byte	0x4
 586 002e 07       		.byte	0x7
 587 002f CD030000 		.4byte	.LASF0
 588 0033 03       		.uleb128 0x3
 589 0034 01       		.byte	0x1
 590 0035 06       		.byte	0x6
 591 0036 AB030000 		.4byte	.LASF1
 592 003a 03       		.uleb128 0x3
 593 003b 01       		.byte	0x1
 594 003c 08       		.byte	0x8
 595 003d 86030000 		.4byte	.LASF2
 596 0041 03       		.uleb128 0x3
 597 0042 02       		.byte	0x2
 598 0043 05       		.byte	0x5
 599 0044 6D000000 		.4byte	.LASF3
 600 0048 04       		.uleb128 0x4
 601 0049 06010000 		.4byte	.LASF5
 602 004d 02       		.byte	0x2
 603 004e 26       		.byte	0x26
 604 004f 53000000 		.4byte	0x53
 605 0053 03       		.uleb128 0x3
 606 0054 02       		.byte	0x2
 607 0055 07       		.byte	0x7
 608 0056 03040000 		.4byte	.LASF4
 609 005a 04       		.uleb128 0x4
 610 005b 16050000 		.4byte	.LASF6
 611 005f 02       		.byte	0x2
 612 0060 37       		.byte	0x37
 613 0061 65000000 		.4byte	0x65
 614 0065 03       		.uleb128 0x3
 615 0066 04       		.byte	0x4
 616 0067 05       		.byte	0x5
ARM GAS  C:\Users\jsyoon\AppData\Local\Temp\ccw7Mq7c.s 			page 12


 617 0068 16030000 		.4byte	.LASF7
 618 006c 04       		.uleb128 0x4
 619 006d EC000000 		.4byte	.LASF8
 620 0071 02       		.byte	0x2
 621 0072 38       		.byte	0x38
 622 0073 77000000 		.4byte	0x77
 623 0077 03       		.uleb128 0x3
 624 0078 04       		.byte	0x4
 625 0079 07       		.byte	0x7
 626 007a D4040000 		.4byte	.LASF9
 627 007e 03       		.uleb128 0x3
 628 007f 08       		.byte	0x8
 629 0080 05       		.byte	0x5
 630 0081 E2020000 		.4byte	.LASF10
 631 0085 03       		.uleb128 0x3
 632 0086 08       		.byte	0x8
 633 0087 07       		.byte	0x7
 634 0088 F0020000 		.4byte	.LASF11
 635 008c 04       		.uleb128 0x4
 636 008d E3030000 		.4byte	.LASF12
 637 0091 03       		.byte	0x3
 638 0092 36       		.byte	0x36
 639 0093 48000000 		.4byte	0x48
 640 0097 04       		.uleb128 0x4
 641 0098 61040000 		.4byte	.LASF13
 642 009c 03       		.byte	0x3
 643 009d 41       		.byte	0x41
 644 009e 5A000000 		.4byte	0x5a
 645 00a2 04       		.uleb128 0x4
 646 00a3 BE020000 		.4byte	.LASF14
 647 00a7 03       		.byte	0x3
 648 00a8 42       		.byte	0x42
 649 00a9 6C000000 		.4byte	0x6c
 650 00ad 03       		.uleb128 0x3
 651 00ae 01       		.byte	0x1
 652 00af 02       		.byte	0x2
 653 00b0 69040000 		.4byte	.LASF15
 654 00b4 05       		.uleb128 0x5
 655 00b5 A2000000 		.4byte	0xa2
 656 00b9 03       		.uleb128 0x3
 657 00ba 04       		.byte	0x4
 658 00bb 07       		.byte	0x7
 659 00bc 7C000000 		.4byte	.LASF16
 660 00c0 03       		.uleb128 0x3
 661 00c1 01       		.byte	0x1
 662 00c2 08       		.byte	0x8
 663 00c3 11030000 		.4byte	.LASF17
 664 00c7 06       		.uleb128 0x6
 665 00c8 A2000000 		.4byte	0xa2
 666 00cc D7000000 		.4byte	0xd7
 667 00d0 07       		.uleb128 0x7
 668 00d1 B9000000 		.4byte	0xb9
 669 00d5 01       		.byte	0x1
 670 00d6 00       		.byte	0
 671 00d7 06       		.uleb128 0x6
 672 00d8 A2000000 		.4byte	0xa2
 673 00dc E7000000 		.4byte	0xe7
ARM GAS  C:\Users\jsyoon\AppData\Local\Temp\ccw7Mq7c.s 			page 13


 674 00e0 07       		.uleb128 0x7
 675 00e1 B9000000 		.4byte	0xb9
 676 00e5 03       		.byte	0x3
 677 00e6 00       		.byte	0
 678 00e7 05       		.uleb128 0x5
 679 00e8 97000000 		.4byte	0x97
 680 00ec 08       		.uleb128 0x8
 681 00ed 90       		.byte	0x90
 682 00ee 04       		.byte	0x4
 683 00ef 5804     		.2byte	0x458
 684 00f1 95020000 		.4byte	0x295
 685 00f5 09       		.uleb128 0x9
 686 00f6 435200   		.ascii	"CR\000"
 687 00f9 04       		.byte	0x4
 688 00fa 5A04     		.2byte	0x45a
 689 00fc B4000000 		.4byte	0xb4
 690 0100 00       		.byte	0
 691 0101 0A       		.uleb128 0xa
 692 0102 FB030000 		.4byte	.LASF18
 693 0106 04       		.byte	0x4
 694 0107 5B04     		.2byte	0x45b
 695 0109 B4000000 		.4byte	0xb4
 696 010d 04       		.byte	0x4
 697 010e 0A       		.uleb128 0xa
 698 010f 28010000 		.4byte	.LASF19
 699 0113 04       		.byte	0x4
 700 0114 5C04     		.2byte	0x45c
 701 0116 B4000000 		.4byte	0xb4
 702 011a 08       		.byte	0x8
 703 011b 09       		.uleb128 0x9
 704 011c 43495200 		.ascii	"CIR\000"
 705 0120 04       		.byte	0x4
 706 0121 5D04     		.2byte	0x45d
 707 0123 B4000000 		.4byte	0xb4
 708 0127 0C       		.byte	0xc
 709 0128 0A       		.uleb128 0xa
 710 0129 43050000 		.4byte	.LASF20
 711 012d 04       		.byte	0x4
 712 012e 5E04     		.2byte	0x45e
 713 0130 B4000000 		.4byte	0xb4
 714 0134 10       		.byte	0x10
 715 0135 0A       		.uleb128 0xa
 716 0136 DA030000 		.4byte	.LASF21
 717 013a 04       		.byte	0x4
 718 013b 5F04     		.2byte	0x45f
 719 013d B4000000 		.4byte	0xb4
 720 0141 14       		.byte	0x14
 721 0142 0A       		.uleb128 0xa
 722 0143 5B050000 		.4byte	.LASF22
 723 0147 04       		.byte	0x4
 724 0148 6004     		.2byte	0x460
 725 014a B4000000 		.4byte	0xb4
 726 014e 18       		.byte	0x18
 727 014f 0A       		.uleb128 0xa
 728 0150 8C040000 		.4byte	.LASF23
 729 0154 04       		.byte	0x4
 730 0155 6104     		.2byte	0x461
ARM GAS  C:\Users\jsyoon\AppData\Local\Temp\ccw7Mq7c.s 			page 14


 731 0157 A2000000 		.4byte	0xa2
 732 015b 1C       		.byte	0x1c
 733 015c 0A       		.uleb128 0xa
 734 015d 2B000000 		.4byte	.LASF24
 735 0161 04       		.byte	0x4
 736 0162 6204     		.2byte	0x462
 737 0164 B4000000 		.4byte	0xb4
 738 0168 20       		.byte	0x20
 739 0169 0A       		.uleb128 0xa
 740 016a 41030000 		.4byte	.LASF25
 741 016e 04       		.byte	0x4
 742 016f 6304     		.2byte	0x463
 743 0171 B4000000 		.4byte	0xb4
 744 0175 24       		.byte	0x24
 745 0176 0A       		.uleb128 0xa
 746 0177 2D010000 		.4byte	.LASF26
 747 017b 04       		.byte	0x4
 748 017c 6404     		.2byte	0x464
 749 017e C7000000 		.4byte	0xc7
 750 0182 28       		.byte	0x28
 751 0183 0A       		.uleb128 0xa
 752 0184 F9040000 		.4byte	.LASF27
 753 0188 04       		.byte	0x4
 754 0189 6504     		.2byte	0x465
 755 018b B4000000 		.4byte	0xb4
 756 018f 30       		.byte	0x30
 757 0190 0A       		.uleb128 0xa
 758 0191 42000000 		.4byte	.LASF28
 759 0195 04       		.byte	0x4
 760 0196 6604     		.2byte	0x466
 761 0198 B4000000 		.4byte	0xb4
 762 019c 34       		.byte	0x34
 763 019d 0A       		.uleb128 0xa
 764 019e CF020000 		.4byte	.LASF29
 765 01a2 04       		.byte	0x4
 766 01a3 6704     		.2byte	0x467
 767 01a5 B4000000 		.4byte	0xb4
 768 01a9 38       		.byte	0x38
 769 01aa 0A       		.uleb128 0xa
 770 01ab AC040000 		.4byte	.LASF30
 771 01af 04       		.byte	0x4
 772 01b0 6804     		.2byte	0x468
 773 01b2 A2000000 		.4byte	0xa2
 774 01b6 3C       		.byte	0x3c
 775 01b7 0A       		.uleb128 0xa
 776 01b8 5B020000 		.4byte	.LASF31
 777 01bc 04       		.byte	0x4
 778 01bd 6904     		.2byte	0x469
 779 01bf B4000000 		.4byte	0xb4
 780 01c3 40       		.byte	0x40
 781 01c4 0A       		.uleb128 0xa
 782 01c5 9E030000 		.4byte	.LASF32
 783 01c9 04       		.byte	0x4
 784 01ca 6A04     		.2byte	0x46a
 785 01cc B4000000 		.4byte	0xb4
 786 01d0 44       		.byte	0x44
 787 01d1 0A       		.uleb128 0xa
ARM GAS  C:\Users\jsyoon\AppData\Local\Temp\ccw7Mq7c.s 			page 15


 788 01d2 B6040000 		.4byte	.LASF33
 789 01d6 04       		.byte	0x4
 790 01d7 6B04     		.2byte	0x46b
 791 01d9 C7000000 		.4byte	0xc7
 792 01dd 48       		.byte	0x48
 793 01de 0A       		.uleb128 0xa
 794 01df 00000000 		.4byte	.LASF34
 795 01e3 04       		.byte	0x4
 796 01e4 6C04     		.2byte	0x46c
 797 01e6 B4000000 		.4byte	0xb4
 798 01ea 50       		.byte	0x50
 799 01eb 0A       		.uleb128 0xa
 800 01ec 82040000 		.4byte	.LASF35
 801 01f0 04       		.byte	0x4
 802 01f1 6D04     		.2byte	0x46d
 803 01f3 B4000000 		.4byte	0xb4
 804 01f7 54       		.byte	0x54
 805 01f8 0A       		.uleb128 0xa
 806 01f9 17010000 		.4byte	.LASF36
 807 01fd 04       		.byte	0x4
 808 01fe 6E04     		.2byte	0x46e
 809 0200 B4000000 		.4byte	0xb4
 810 0204 58       		.byte	0x58
 811 0205 0A       		.uleb128 0xa
 812 0206 C0040000 		.4byte	.LASF37
 813 020a 04       		.byte	0x4
 814 020b 6F04     		.2byte	0x46f
 815 020d A2000000 		.4byte	0xa2
 816 0211 5C       		.byte	0x5c
 817 0212 0A       		.uleb128 0xa
 818 0213 8A050000 		.4byte	.LASF38
 819 0217 04       		.byte	0x4
 820 0218 7004     		.2byte	0x470
 821 021a B4000000 		.4byte	0xb4
 822 021e 60       		.byte	0x60
 823 021f 0A       		.uleb128 0xa
 824 0220 F7000000 		.4byte	.LASF39
 825 0224 04       		.byte	0x4
 826 0225 7104     		.2byte	0x471
 827 0227 B4000000 		.4byte	0xb4
 828 022b 64       		.byte	0x64
 829 022c 0A       		.uleb128 0xa
 830 022d CA040000 		.4byte	.LASF40
 831 0231 04       		.byte	0x4
 832 0232 7204     		.2byte	0x472
 833 0234 C7000000 		.4byte	0xc7
 834 0238 68       		.byte	0x68
 835 0239 0A       		.uleb128 0xa
 836 023a 85000000 		.4byte	.LASF41
 837 023e 04       		.byte	0x4
 838 023f 7304     		.2byte	0x473
 839 0241 B4000000 		.4byte	0xb4
 840 0245 70       		.byte	0x70
 841 0246 09       		.uleb128 0x9
 842 0247 43535200 		.ascii	"CSR\000"
 843 024b 04       		.byte	0x4
 844 024c 7404     		.2byte	0x474
ARM GAS  C:\Users\jsyoon\AppData\Local\Temp\ccw7Mq7c.s 			page 16


 845 024e B4000000 		.4byte	0xb4
 846 0252 74       		.byte	0x74
 847 0253 0A       		.uleb128 0xa
 848 0254 98020000 		.4byte	.LASF42
 849 0258 04       		.byte	0x4
 850 0259 7504     		.2byte	0x475
 851 025b C7000000 		.4byte	0xc7
 852 025f 78       		.byte	0x78
 853 0260 0A       		.uleb128 0xa
 854 0261 11010000 		.4byte	.LASF43
 855 0265 04       		.byte	0x4
 856 0266 7604     		.2byte	0x476
 857 0268 B4000000 		.4byte	0xb4
 858 026c 80       		.byte	0x80
 859 026d 0A       		.uleb128 0xa
 860 026e 1F030000 		.4byte	.LASF44
 861 0272 04       		.byte	0x4
 862 0273 7704     		.2byte	0x477
 863 0275 B4000000 		.4byte	0xb4
 864 0279 84       		.byte	0x84
 865 027a 0A       		.uleb128 0xa
 866 027b 7F050000 		.4byte	.LASF45
 867 027f 04       		.byte	0x4
 868 0280 7804     		.2byte	0x478
 869 0282 B4000000 		.4byte	0xb4
 870 0286 88       		.byte	0x88
 871 0287 0A       		.uleb128 0xa
 872 0288 C7020000 		.4byte	.LASF46
 873 028c 04       		.byte	0x4
 874 028d 7904     		.2byte	0x479
 875 028f B4000000 		.4byte	0xb4
 876 0293 8C       		.byte	0x8c
 877 0294 00       		.byte	0
 878 0295 0B       		.uleb128 0xb
 879 0296 2F030000 		.4byte	.LASF47
 880 029a 04       		.byte	0x4
 881 029b 7B04     		.2byte	0x47b
 882 029d EC000000 		.4byte	0xec
 883 02a1 0C       		.uleb128 0xc
 884 02a2 04       		.byte	0x4
 885 02a3 B4000000 		.4byte	0xb4
 886 02a7 0D       		.uleb128 0xd
 887 02a8 01       		.byte	0x1
 888 02a9 05       		.byte	0x5
 889 02aa 3C       		.byte	0x3c
 890 02ab D4020000 		.4byte	0x2d4
 891 02af 0E       		.uleb128 0xe
 892 02b0 77040000 		.4byte	.LASF48
 893 02b4 00       		.sleb128 0
 894 02b5 0E       		.uleb128 0xe
 895 02b6 22000000 		.4byte	.LASF49
 896 02ba 01       		.sleb128 1
 897 02bb 0E       		.uleb128 0xe
 898 02bc 39050000 		.4byte	.LASF50
 899 02c0 02       		.sleb128 2
 900 02c1 0E       		.uleb128 0xe
 901 02c2 9F050000 		.4byte	.LASF51
ARM GAS  C:\Users\jsyoon\AppData\Local\Temp\ccw7Mq7c.s 			page 17


 902 02c6 03       		.sleb128 3
 903 02c7 0E       		.uleb128 0xe
 904 02c8 D7020000 		.4byte	.LASF52
 905 02cc 04       		.sleb128 4
 906 02cd 0E       		.uleb128 0xe
 907 02ce 65030000 		.4byte	.LASF53
 908 02d2 05       		.sleb128 5
 909 02d3 00       		.byte	0
 910 02d4 04       		.uleb128 0x4
 911 02d5 94050000 		.4byte	.LASF54
 912 02d9 05       		.byte	0x5
 913 02da 43       		.byte	0x43
 914 02db A7020000 		.4byte	0x2a7
 915 02df 04       		.uleb128 0x4
 916 02e0 25050000 		.4byte	.LASF55
 917 02e4 05       		.byte	0x5
 918 02e5 48       		.byte	0x48
 919 02e6 EA020000 		.4byte	0x2ea
 920 02ea 0F       		.uleb128 0xf
 921 02eb 25050000 		.4byte	.LASF55
 922 02ef 18       		.byte	0x18
 923 02f0 06       		.byte	0x6
 924 02f1 3101     		.2byte	0x131
 925 02f3 46030000 		.4byte	0x346
 926 02f7 0A       		.uleb128 0xa
 927 02f8 67000000 		.4byte	.LASF56
 928 02fc 06       		.byte	0x6
 929 02fd 3501     		.2byte	0x135
 930 02ff D4020000 		.4byte	0x2d4
 931 0303 00       		.byte	0
 932 0304 0A       		.uleb128 0xa
 933 0305 21010000 		.4byte	.LASF57
 934 0309 06       		.byte	0x6
 935 030a 3901     		.2byte	0x139
 936 030c 4E050000 		.4byte	0x54e
 937 0310 04       		.byte	0x4
 938 0311 0A       		.uleb128 0xa
 939 0312 E6040000 		.4byte	.LASF58
 940 0316 06       		.byte	0x6
 941 0317 4101     		.2byte	0x141
 942 0319 A2000000 		.4byte	0xa2
 943 031d 08       		.byte	0x8
 944 031e 09       		.uleb128 0x9
 945 031f 74696D00 		.ascii	"tim\000"
 946 0323 06       		.byte	0x6
 947 0324 4501     		.2byte	0x145
 948 0326 59050000 		.4byte	0x559
 949 032a 0C       		.byte	0xc
 950 032b 0A       		.uleb128 0xa
 951 032c 1C000000 		.4byte	.LASF59
 952 0330 06       		.byte	0x6
 953 0331 4901     		.2byte	0x149
 954 0333 A1020000 		.4byte	0x2a1
 955 0337 10       		.byte	0x10
 956 0338 0A       		.uleb128 0xa
 957 0339 3B030000 		.4byte	.LASF60
 958 033d 06       		.byte	0x6
ARM GAS  C:\Users\jsyoon\AppData\Local\Temp\ccw7Mq7c.s 			page 18


 959 033e 4D01     		.2byte	0x14d
 960 0340 A1020000 		.4byte	0x2a1
 961 0344 14       		.byte	0x14
 962 0345 00       		.byte	0
 963 0346 04       		.uleb128 0x4
 964 0347 38040000 		.4byte	.LASF61
 965 034b 05       		.byte	0x5
 966 034c 4F       		.byte	0x4f
 967 034d 51030000 		.4byte	0x351
 968 0351 0C       		.uleb128 0xc
 969 0352 04       		.byte	0x4
 970 0353 57030000 		.4byte	0x357
 971 0357 10       		.uleb128 0x10
 972 0358 62030000 		.4byte	0x362
 973 035c 11       		.uleb128 0x11
 974 035d 62030000 		.4byte	0x362
 975 0361 00       		.byte	0
 976 0362 0C       		.uleb128 0xc
 977 0363 04       		.byte	0x4
 978 0364 DF020000 		.4byte	0x2df
 979 0368 08       		.uleb128 0x8
 980 0369 60       		.byte	0x60
 981 036a 07       		.byte	0x7
 982 036b 9E01     		.2byte	0x19e
 983 036d 81040000 		.4byte	0x481
 984 0371 09       		.uleb128 0x9
 985 0372 43523100 		.ascii	"CR1\000"
 986 0376 07       		.byte	0x7
 987 0377 9F01     		.2byte	0x19f
 988 0379 B4000000 		.4byte	0xb4
 989 037d 00       		.byte	0
 990 037e 09       		.uleb128 0x9
 991 037f 43523200 		.ascii	"CR2\000"
 992 0383 07       		.byte	0x7
 993 0384 A001     		.2byte	0x1a0
 994 0386 B4000000 		.4byte	0xb4
 995 038a 04       		.byte	0x4
 996 038b 0A       		.uleb128 0xa
 997 038c 6E030000 		.4byte	.LASF62
 998 0390 07       		.byte	0x7
 999 0391 A101     		.2byte	0x1a1
 1000 0393 B4000000 		.4byte	0xb4
 1001 0397 08       		.byte	0x8
 1002 0398 0A       		.uleb128 0xa
 1003 0399 EC030000 		.4byte	.LASF63
 1004 039d 07       		.byte	0x7
 1005 039e A201     		.2byte	0x1a2
 1006 03a0 B4000000 		.4byte	0xb4
 1007 03a4 0C       		.byte	0xc
 1008 03a5 09       		.uleb128 0x9
 1009 03a6 535200   		.ascii	"SR\000"
 1010 03a9 07       		.byte	0x7
 1011 03aa A301     		.2byte	0x1a3
 1012 03ac B4000000 		.4byte	0xb4
 1013 03b0 10       		.byte	0x10
 1014 03b1 09       		.uleb128 0x9
 1015 03b2 45475200 		.ascii	"EGR\000"
ARM GAS  C:\Users\jsyoon\AppData\Local\Temp\ccw7Mq7c.s 			page 19


 1016 03b6 07       		.byte	0x7
 1017 03b7 A401     		.2byte	0x1a4
 1018 03b9 B4000000 		.4byte	0xb4
 1019 03bd 14       		.byte	0x14
 1020 03be 0A       		.uleb128 0xa
 1021 03bf 4A030000 		.4byte	.LASF64
 1022 03c3 07       		.byte	0x7
 1023 03c4 A501     		.2byte	0x1a5
 1024 03c6 B4000000 		.4byte	0xb4
 1025 03ca 18       		.byte	0x18
 1026 03cb 0A       		.uleb128 0xa
 1027 03cc 5F030000 		.4byte	.LASF65
 1028 03d0 07       		.byte	0x7
 1029 03d1 A601     		.2byte	0x1a6
 1030 03d3 B4000000 		.4byte	0xb4
 1031 03d7 1C       		.byte	0x1c
 1032 03d8 0A       		.uleb128 0xa
 1033 03d9 17000000 		.4byte	.LASF66
 1034 03dd 07       		.byte	0x7
 1035 03de A701     		.2byte	0x1a7
 1036 03e0 B4000000 		.4byte	0xb4
 1037 03e4 20       		.byte	0x20
 1038 03e5 09       		.uleb128 0x9
 1039 03e6 434E5400 		.ascii	"CNT\000"
 1040 03ea 07       		.byte	0x7
 1041 03eb A801     		.2byte	0x1a8
 1042 03ed B4000000 		.4byte	0xb4
 1043 03f1 24       		.byte	0x24
 1044 03f2 09       		.uleb128 0x9
 1045 03f3 50534300 		.ascii	"PSC\000"
 1046 03f7 07       		.byte	0x7
 1047 03f8 A901     		.2byte	0x1a9
 1048 03fa B4000000 		.4byte	0xb4
 1049 03fe 28       		.byte	0x28
 1050 03ff 09       		.uleb128 0x9
 1051 0400 41525200 		.ascii	"ARR\000"
 1052 0404 07       		.byte	0x7
 1053 0405 AA01     		.2byte	0x1aa
 1054 0407 B4000000 		.4byte	0xb4
 1055 040b 2C       		.byte	0x2c
 1056 040c 09       		.uleb128 0x9
 1057 040d 52435200 		.ascii	"RCR\000"
 1058 0411 07       		.byte	0x7
 1059 0412 AB01     		.2byte	0x1ab
 1060 0414 B4000000 		.4byte	0xb4
 1061 0418 30       		.byte	0x30
 1062 0419 09       		.uleb128 0x9
 1063 041a 43435200 		.ascii	"CCR\000"
 1064 041e 07       		.byte	0x7
 1065 041f AC01     		.2byte	0x1ac
 1066 0421 81040000 		.4byte	0x481
 1067 0425 34       		.byte	0x34
 1068 0426 0A       		.uleb128 0xa
 1069 0427 5C040000 		.4byte	.LASF67
 1070 042b 07       		.byte	0x7
 1071 042c AD01     		.2byte	0x1ad
 1072 042e B4000000 		.4byte	0xb4
ARM GAS  C:\Users\jsyoon\AppData\Local\Temp\ccw7Mq7c.s 			page 20


 1073 0432 44       		.byte	0x44
 1074 0433 09       		.uleb128 0x9
 1075 0434 44435200 		.ascii	"DCR\000"
 1076 0438 07       		.byte	0x7
 1077 0439 AE01     		.2byte	0x1ae
 1078 043b B4000000 		.4byte	0xb4
 1079 043f 48       		.byte	0x48
 1080 0440 0A       		.uleb128 0xa
 1081 0441 4A000000 		.4byte	.LASF68
 1082 0445 07       		.byte	0x7
 1083 0446 AF01     		.2byte	0x1af
 1084 0448 B4000000 		.4byte	0xb4
 1085 044c 4C       		.byte	0x4c
 1086 044d 09       		.uleb128 0x9
 1087 044e 4F5200   		.ascii	"OR\000"
 1088 0451 07       		.byte	0x7
 1089 0452 B001     		.2byte	0x1b0
 1090 0454 B4000000 		.4byte	0xb4
 1091 0458 50       		.byte	0x50
 1092 0459 0A       		.uleb128 0xa
 1093 045a 59030000 		.4byte	.LASF69
 1094 045e 07       		.byte	0x7
 1095 045f B101     		.2byte	0x1b1
 1096 0461 B4000000 		.4byte	0xb4
 1097 0465 54       		.byte	0x54
 1098 0466 0A       		.uleb128 0xa
 1099 0467 2A030000 		.4byte	.LASF70
 1100 046b 07       		.byte	0x7
 1101 046c B201     		.2byte	0x1b2
 1102 046e B4000000 		.4byte	0xb4
 1103 0472 58       		.byte	0x58
 1104 0473 0A       		.uleb128 0xa
 1105 0474 A6030000 		.4byte	.LASF71
 1106 0478 07       		.byte	0x7
 1107 0479 B301     		.2byte	0x1b3
 1108 047b B4000000 		.4byte	0xb4
 1109 047f 5C       		.byte	0x5c
 1110 0480 00       		.byte	0
 1111 0481 05       		.uleb128 0x5
 1112 0482 D7000000 		.4byte	0xd7
 1113 0486 0B       		.uleb128 0xb
 1114 0487 46040000 		.4byte	.LASF72
 1115 048b 07       		.byte	0x7
 1116 048c B401     		.2byte	0x1b4
 1117 048e 68030000 		.4byte	0x368
 1118 0492 0D       		.uleb128 0xd
 1119 0493 01       		.byte	0x1
 1120 0494 06       		.byte	0x6
 1121 0495 EE       		.byte	0xee
 1122 0496 A7040000 		.4byte	0x4a7
 1123 049a 0E       		.uleb128 0xe
 1124 049b 96040000 		.4byte	.LASF73
 1125 049f 00       		.sleb128 0
 1126 04a0 0E       		.uleb128 0xe
 1127 04a1 16040000 		.4byte	.LASF74
 1128 04a5 01       		.sleb128 1
 1129 04a6 00       		.byte	0
ARM GAS  C:\Users\jsyoon\AppData\Local\Temp\ccw7Mq7c.s 			page 21


 1130 04a7 04       		.uleb128 0x4
 1131 04a8 07030000 		.4byte	.LASF75
 1132 04ac 06       		.byte	0x6
 1133 04ad F1       		.byte	0xf1
 1134 04ae 92040000 		.4byte	0x492
 1135 04b2 04       		.uleb128 0x4
 1136 04b3 F1030000 		.4byte	.LASF76
 1137 04b7 06       		.byte	0x6
 1138 04b8 F6       		.byte	0xf6
 1139 04b9 A2000000 		.4byte	0xa2
 1140 04bd 0D       		.uleb128 0xd
 1141 04be 01       		.byte	0x1
 1142 04bf 06       		.byte	0x6
 1143 04c0 FB       		.byte	0xfb
 1144 04c1 D2040000 		.4byte	0x4d2
 1145 04c5 0E       		.uleb128 0xe
 1146 04c6 A2020000 		.4byte	.LASF77
 1147 04ca 00       		.sleb128 0
 1148 04cb 0E       		.uleb128 0xe
 1149 04cc B0020000 		.4byte	.LASF78
 1150 04d0 01       		.sleb128 1
 1151 04d1 00       		.byte	0
 1152 04d2 04       		.uleb128 0x4
 1153 04d3 2B040000 		.4byte	.LASF79
 1154 04d7 06       		.byte	0x6
 1155 04d8 FE       		.byte	0xfe
 1156 04d9 BD040000 		.4byte	0x4bd
 1157 04dd 08       		.uleb128 0x8
 1158 04de 1C       		.byte	0x1c
 1159 04df 06       		.byte	0x6
 1160 04e0 0901     		.2byte	0x109
 1161 04e2 42050000 		.4byte	0x542
 1162 04e6 0A       		.uleb128 0xa
 1163 04e7 01010000 		.4byte	.LASF80
 1164 04eb 06       		.byte	0x6
 1165 04ec 0D01     		.2byte	0x10d
 1166 04ee A7040000 		.4byte	0x4a7
 1167 04f2 00       		.byte	0
 1168 04f3 0A       		.uleb128 0xa
 1169 04f4 2F050000 		.4byte	.LASF81
 1170 04f8 06       		.byte	0x6
 1171 04f9 1301     		.2byte	0x113
 1172 04fb B2040000 		.4byte	0x4b2
 1173 04ff 04       		.byte	0x4
 1174 0500 0A       		.uleb128 0xa
 1175 0501 0D050000 		.4byte	.LASF82
 1176 0505 06       		.byte	0x6
 1177 0506 1701     		.2byte	0x117
 1178 0508 46030000 		.4byte	0x346
 1179 050c 08       		.byte	0x8
 1180 050d 0A       		.uleb128 0xa
 1181 050e 52040000 		.4byte	.LASF83
 1182 0512 06       		.byte	0x6
 1183 0513 1B01     		.2byte	0x11b
 1184 0515 46030000 		.4byte	0x346
 1185 0519 0C       		.byte	0xc
 1186 051a 0A       		.uleb128 0xa
ARM GAS  C:\Users\jsyoon\AppData\Local\Temp\ccw7Mq7c.s 			page 22


 1187 051b 01050000 		.4byte	.LASF84
 1188 051f 06       		.byte	0x6
 1189 0520 1F01     		.2byte	0x11f
 1190 0522 46030000 		.4byte	0x346
 1191 0526 10       		.byte	0x10
 1192 0527 0A       		.uleb128 0xa
 1193 0528 6F040000 		.4byte	.LASF85
 1194 052c 06       		.byte	0x6
 1195 052d 2501     		.2byte	0x125
 1196 052f D2040000 		.4byte	0x4d2
 1197 0533 14       		.byte	0x14
 1198 0534 0A       		.uleb128 0xa
 1199 0535 20050000 		.4byte	.LASF86
 1200 0539 06       		.byte	0x6
 1201 053a 2B01     		.2byte	0x12b
 1202 053c A2000000 		.4byte	0xa2
 1203 0540 18       		.byte	0x18
 1204 0541 00       		.byte	0
 1205 0542 0B       		.uleb128 0xb
 1206 0543 94030000 		.4byte	.LASF87
 1207 0547 06       		.byte	0x6
 1208 0548 2C01     		.2byte	0x12c
 1209 054a DD040000 		.4byte	0x4dd
 1210 054e 0C       		.uleb128 0xc
 1211 054f 04       		.byte	0x4
 1212 0550 54050000 		.4byte	0x554
 1213 0554 12       		.uleb128 0x12
 1214 0555 42050000 		.4byte	0x542
 1215 0559 0C       		.uleb128 0xc
 1216 055a 04       		.byte	0x4
 1217 055b 86040000 		.4byte	0x486
 1218 055f 13       		.uleb128 0x13
 1219 0560 4F000000 		.4byte	.LASF103
 1220 0564 01       		.byte	0x1
 1221 0565 6F       		.byte	0x6f
 1222 0566 01       		.byte	0x1
 1223 0567 9F050000 		.4byte	0x59f
 1224 056b 14       		.uleb128 0x14
 1225 056c 77000000 		.4byte	.LASF93
 1226 0570 01       		.byte	0x1
 1227 0571 6F       		.byte	0x6f
 1228 0572 62030000 		.4byte	0x362
 1229 0576 15       		.uleb128 0x15
 1230 0577 737200   		.ascii	"sr\000"
 1231 057a 01       		.byte	0x1
 1232 057b 70       		.byte	0x70
 1233 057c 8C000000 		.4byte	0x8c
 1234 0580 16       		.uleb128 0x16
 1235 0581 91050000 		.4byte	0x591
 1236 0585 17       		.uleb128 0x17
 1237 0586 4C050000 		.4byte	.LASF88
 1238 058a 01       		.byte	0x1
 1239 058b 77       		.byte	0x77
 1240 058c D4020000 		.4byte	0x2d4
 1241 0590 00       		.byte	0
 1242 0591 18       		.uleb128 0x18
 1243 0592 17       		.uleb128 0x17
ARM GAS  C:\Users\jsyoon\AppData\Local\Temp\ccw7Mq7c.s 			page 23


 1244 0593 4C050000 		.4byte	.LASF88
 1245 0597 01       		.byte	0x1
 1246 0598 7E       		.byte	0x7e
 1247 0599 D4020000 		.4byte	0x2d4
 1248 059d 00       		.byte	0
 1249 059e 00       		.byte	0
 1250 059f 19       		.uleb128 0x19
 1251 05a0 50030000 		.4byte	.LASF89
 1252 05a4 01       		.byte	0x1
 1253 05a5 D4       		.byte	0xd4
 1254 05a6 00000000 		.4byte	.LFB119
 1255 05aa 8C000000 		.4byte	.LFE119-.LFB119
 1256 05ae 01       		.uleb128 0x1
 1257 05af 9C       		.byte	0x9c
 1258 05b0 5F060000 		.4byte	0x65f
 1259 05b4 1A       		.uleb128 0x1a
 1260 05b5 5F050000 		.4byte	0x55f
 1261 05b9 02000000 		.4byte	.LBB8
 1262 05bd 00000000 		.4byte	.Ldebug_ranges0+0
 1263 05c1 01       		.byte	0x1
 1264 05c2 D8       		.byte	0xd8
 1265 05c3 55060000 		.4byte	0x655
 1266 05c7 1B       		.uleb128 0x1b
 1267 05c8 6B050000 		.4byte	0x56b
 1268 05cc 06       		.uleb128 0x6
 1269 05cd 03       		.byte	0x3
 1270 05ce 00000000 		.4byte	ICUD3
 1271 05d2 9F       		.byte	0x9f
 1272 05d3 1C       		.uleb128 0x1c
 1273 05d4 00000000 		.4byte	.Ldebug_ranges0+0
 1274 05d8 1D       		.uleb128 0x1d
 1275 05d9 76050000 		.4byte	0x576
 1276 05dd 00000000 		.4byte	.LLST0
 1277 05e1 1E       		.uleb128 0x1e
 1278 05e2 1E000000 		.4byte	.LBB10
 1279 05e6 10000000 		.4byte	.LBE10-.LBB10
 1280 05ea 04060000 		.4byte	0x604
 1281 05ee 1D       		.uleb128 0x1d
 1282 05ef 85050000 		.4byte	0x585
 1283 05f3 33000000 		.4byte	.LLST1
 1284 05f7 1F       		.uleb128 0x1f
 1285 05f8 2E000000 		.4byte	.LVL4
 1286 05fc 20       		.uleb128 0x20
 1287 05fd 01       		.uleb128 0x1
 1288 05fe 50       		.byte	0x50
 1289 05ff 02       		.uleb128 0x2
 1290 0600 74       		.byte	0x74
 1291 0601 00       		.sleb128 0
 1292 0602 00       		.byte	0
 1293 0603 00       		.byte	0
 1294 0604 1E       		.uleb128 0x1e
 1295 0605 5E000000 		.4byte	.LBB11
 1296 0609 14000000 		.4byte	.LBE11-.LBB11
 1297 060d 27060000 		.4byte	0x627
 1298 0611 1D       		.uleb128 0x1d
 1299 0612 92050000 		.4byte	0x592
 1300 0616 4A000000 		.4byte	.LLST2
ARM GAS  C:\Users\jsyoon\AppData\Local\Temp\ccw7Mq7c.s 			page 24


 1301 061a 1F       		.uleb128 0x1f
 1302 061b 70000000 		.4byte	.LVL10
 1303 061f 20       		.uleb128 0x20
 1304 0620 01       		.uleb128 0x1
 1305 0621 50       		.byte	0x50
 1306 0622 02       		.uleb128 0x2
 1307 0623 74       		.byte	0x74
 1308 0624 00       		.sleb128 0
 1309 0625 00       		.byte	0
 1310 0626 00       		.byte	0
 1311 0627 21       		.uleb128 0x21
 1312 0628 3E000000 		.4byte	.LVL5
 1313 062c 37060000 		.4byte	0x637
 1314 0630 20       		.uleb128 0x20
 1315 0631 01       		.uleb128 0x1
 1316 0632 50       		.byte	0x50
 1317 0633 02       		.uleb128 0x2
 1318 0634 74       		.byte	0x74
 1319 0635 00       		.sleb128 0
 1320 0636 00       		.byte	0
 1321 0637 21       		.uleb128 0x21
 1322 0638 5A000000 		.4byte	.LVL8
 1323 063c 47060000 		.4byte	0x647
 1324 0640 20       		.uleb128 0x20
 1325 0641 01       		.uleb128 0x1
 1326 0642 50       		.byte	0x50
 1327 0643 02       		.uleb128 0x2
 1328 0644 74       		.byte	0x74
 1329 0645 00       		.sleb128 0
 1330 0646 00       		.byte	0
 1331 0647 1F       		.uleb128 0x1f
 1332 0648 84000000 		.4byte	.LVL11
 1333 064c 20       		.uleb128 0x20
 1334 064d 01       		.uleb128 0x1
 1335 064e 50       		.byte	0x50
 1336 064f 02       		.uleb128 0x2
 1337 0650 74       		.byte	0x74
 1338 0651 00       		.sleb128 0
 1339 0652 00       		.byte	0
 1340 0653 00       		.byte	0
 1341 0654 00       		.byte	0
 1342 0655 22       		.uleb128 0x22
 1343 0656 46000000 		.4byte	.LVL7
 1344 065a 6D070000 		.4byte	0x76d
 1345 065e 00       		.byte	0
 1346 065f 23       		.uleb128 0x23
 1347 0660 EC040000 		.4byte	.LASF90
 1348 0664 01       		.byte	0x1
 1349 0665 5301     		.2byte	0x153
 1350 0667 00000000 		.4byte	.LFB120
 1351 066b 18000000 		.4byte	.LFE120-.LFB120
 1352 066f 01       		.uleb128 0x1
 1353 0670 9C       		.byte	0x9c
 1354 0671 86060000 		.4byte	0x686
 1355 0675 24       		.uleb128 0x24
 1356 0676 0A000000 		.4byte	.LVL12
 1357 067a 75070000 		.4byte	0x775
ARM GAS  C:\Users\jsyoon\AppData\Local\Temp\ccw7Mq7c.s 			page 25


 1358 067e 20       		.uleb128 0x20
 1359 067f 01       		.uleb128 0x1
 1360 0680 50       		.byte	0x50
 1361 0681 02       		.uleb128 0x2
 1362 0682 74       		.byte	0x74
 1363 0683 00       		.sleb128 0
 1364 0684 00       		.byte	0
 1365 0685 00       		.byte	0
 1366 0686 23       		.uleb128 0x23
 1367 0687 34000000 		.4byte	.LASF91
 1368 068b 01       		.byte	0x1
 1369 068c 8701     		.2byte	0x187
 1370 068e 00000000 		.4byte	.LFB121
 1371 0692 BC000000 		.4byte	.LFE121-.LFB121
 1372 0696 01       		.uleb128 0x1
 1373 0697 9C       		.byte	0x9c
 1374 0698 CE060000 		.4byte	0x6ce
 1375 069c 25       		.uleb128 0x25
 1376 069d 77000000 		.4byte	.LASF93
 1377 06a1 01       		.byte	0x1
 1378 06a2 8701     		.2byte	0x187
 1379 06a4 62030000 		.4byte	0x362
 1380 06a8 61000000 		.4byte	.LLST3
 1381 06ac 26       		.uleb128 0x26
 1382 06ad 70736300 		.ascii	"psc\000"
 1383 06b1 01       		.byte	0x1
 1384 06b2 8801     		.2byte	0x188
 1385 06b4 A2000000 		.4byte	0xa2
 1386 06b8 24       		.uleb128 0x24
 1387 06b9 AA000000 		.4byte	.LVL21
 1388 06bd 86070000 		.4byte	0x786
 1389 06c1 20       		.uleb128 0x20
 1390 06c2 01       		.uleb128 0x1
 1391 06c3 51       		.byte	0x51
 1392 06c4 02       		.uleb128 0x2
 1393 06c5 08       		.byte	0x8
 1394 06c6 70       		.byte	0x70
 1395 06c7 20       		.uleb128 0x20
 1396 06c8 01       		.uleb128 0x1
 1397 06c9 50       		.byte	0x50
 1398 06ca 01       		.uleb128 0x1
 1399 06cb 4D       		.byte	0x4d
 1400 06cc 00       		.byte	0
 1401 06cd 00       		.byte	0
 1402 06ce 23       		.uleb128 0x23
 1403 06cf 0A000000 		.4byte	.LASF92
 1404 06d3 01       		.byte	0x1
 1405 06d4 2902     		.2byte	0x229
 1406 06d6 00000000 		.4byte	.LFB122
 1407 06da 34000000 		.4byte	.LFE122-.LFB122
 1408 06de 01       		.uleb128 0x1
 1409 06df 9C       		.byte	0x9c
 1410 06e0 04070000 		.4byte	0x704
 1411 06e4 25       		.uleb128 0x25
 1412 06e5 77000000 		.4byte	.LASF93
 1413 06e9 01       		.byte	0x1
 1414 06ea 2902     		.2byte	0x229
ARM GAS  C:\Users\jsyoon\AppData\Local\Temp\ccw7Mq7c.s 			page 26


 1415 06ec 62030000 		.4byte	0x362
 1416 06f0 AB000000 		.4byte	.LLST4
 1417 06f4 24       		.uleb128 0x24
 1418 06f5 20000000 		.4byte	.LVL26
 1419 06f9 9D070000 		.4byte	0x79d
 1420 06fd 20       		.uleb128 0x20
 1421 06fe 01       		.uleb128 0x1
 1422 06ff 50       		.byte	0x50
 1423 0700 01       		.uleb128 0x1
 1424 0701 4D       		.byte	0x4d
 1425 0702 00       		.byte	0
 1426 0703 00       		.byte	0
 1427 0704 23       		.uleb128 0x23
 1428 0705 8A000000 		.4byte	.LASF94
 1429 0709 01       		.byte	0x1
 1430 070a 6702     		.2byte	0x267
 1431 070c 00000000 		.4byte	.LFB123
 1432 0710 58000000 		.4byte	.LFE123-.LFB123
 1433 0714 01       		.uleb128 0x1
 1434 0715 9C       		.byte	0x9c
 1435 0716 2B070000 		.4byte	0x72b
 1436 071a 25       		.uleb128 0x25
 1437 071b 77000000 		.4byte	.LASF93
 1438 071f 01       		.byte	0x1
 1439 0720 6702     		.2byte	0x267
 1440 0722 62030000 		.4byte	0x362
 1441 0726 E5000000 		.4byte	.LLST5
 1442 072a 00       		.byte	0
 1443 072b 23       		.uleb128 0x23
 1444 072c BD030000 		.4byte	.LASF95
 1445 0730 01       		.byte	0x1
 1446 0731 8202     		.2byte	0x282
 1447 0733 00000000 		.4byte	.LFB124
 1448 0737 12000000 		.4byte	.LFE124-.LFB124
 1449 073b 01       		.uleb128 0x1
 1450 073c 9C       		.byte	0x9c
 1451 073d 50070000 		.4byte	0x750
 1452 0741 27       		.uleb128 0x27
 1453 0742 77000000 		.4byte	.LASF93
 1454 0746 01       		.byte	0x1
 1455 0747 8202     		.2byte	0x282
 1456 0749 62030000 		.4byte	0x362
 1457 074d 01       		.uleb128 0x1
 1458 074e 50       		.byte	0x50
 1459 074f 00       		.byte	0
 1460 0750 28       		.uleb128 0x28
 1461 0751 72050000 		.4byte	.LASF96
 1462 0755 08       		.byte	0x8
 1463 0756 9806     		.2byte	0x698
 1464 0758 E7000000 		.4byte	0xe7
 1465 075c 29       		.uleb128 0x29
 1466 075d B7030000 		.4byte	.LASF97
 1467 0761 01       		.byte	0x1
 1468 0762 3F       		.byte	0x3f
 1469 0763 DF020000 		.4byte	0x2df
 1470 0767 05       		.uleb128 0x5
 1471 0768 03       		.byte	0x3
ARM GAS  C:\Users\jsyoon\AppData\Local\Temp\ccw7Mq7c.s 			page 27


 1472 0769 00000000 		.4byte	ICUD3
 1473 076d 2A       		.uleb128 0x2a
 1474 076e 73030000 		.4byte	.LASF104
 1475 0772 0A       		.byte	0xa
 1476 0773 0302     		.2byte	0x203
 1477 0775 2B       		.uleb128 0x2b
 1478 0776 64050000 		.4byte	.LASF98
 1479 077a 05       		.byte	0x5
 1480 077b BE       		.byte	0xbe
 1481 077c 86070000 		.4byte	0x786
 1482 0780 11       		.uleb128 0x11
 1483 0781 62030000 		.4byte	0x362
 1484 0785 00       		.byte	0
 1485 0786 2C       		.uleb128 0x2c
 1486 0787 99000000 		.4byte	.LASF99
 1487 078b 09       		.byte	0x9
 1488 078c 2301     		.2byte	0x123
 1489 078e 9D070000 		.4byte	0x79d
 1490 0792 11       		.uleb128 0x11
 1491 0793 A2000000 		.4byte	0xa2
 1492 0797 11       		.uleb128 0x11
 1493 0798 A2000000 		.4byte	0xa2
 1494 079c 00       		.byte	0
 1495 079d 2D       		.uleb128 0x2d
 1496 079e AA000000 		.4byte	.LASF105
 1497 07a2 09       		.byte	0x9
 1498 07a3 2401     		.2byte	0x124
 1499 07a5 11       		.uleb128 0x11
 1500 07a6 A2000000 		.4byte	0xa2
 1501 07aa 00       		.byte	0
 1502 07ab 00       		.byte	0
 1503              		.section	.debug_abbrev,"",%progbits
 1504              	.Ldebug_abbrev0:
 1505 0000 01       		.uleb128 0x1
 1506 0001 11       		.uleb128 0x11
 1507 0002 01       		.byte	0x1
 1508 0003 25       		.uleb128 0x25
 1509 0004 0E       		.uleb128 0xe
 1510 0005 13       		.uleb128 0x13
 1511 0006 0B       		.uleb128 0xb
 1512 0007 03       		.uleb128 0x3
 1513 0008 0E       		.uleb128 0xe
 1514 0009 1B       		.uleb128 0x1b
 1515 000a 0E       		.uleb128 0xe
 1516 000b 55       		.uleb128 0x55
 1517 000c 17       		.uleb128 0x17
 1518 000d 11       		.uleb128 0x11
 1519 000e 01       		.uleb128 0x1
 1520 000f 10       		.uleb128 0x10
 1521 0010 17       		.uleb128 0x17
 1522 0011 00       		.byte	0
 1523 0012 00       		.byte	0
 1524 0013 02       		.uleb128 0x2
 1525 0014 24       		.uleb128 0x24
 1526 0015 00       		.byte	0
 1527 0016 0B       		.uleb128 0xb
 1528 0017 0B       		.uleb128 0xb
ARM GAS  C:\Users\jsyoon\AppData\Local\Temp\ccw7Mq7c.s 			page 28


 1529 0018 3E       		.uleb128 0x3e
 1530 0019 0B       		.uleb128 0xb
 1531 001a 03       		.uleb128 0x3
 1532 001b 08       		.uleb128 0x8
 1533 001c 00       		.byte	0
 1534 001d 00       		.byte	0
 1535 001e 03       		.uleb128 0x3
 1536 001f 24       		.uleb128 0x24
 1537 0020 00       		.byte	0
 1538 0021 0B       		.uleb128 0xb
 1539 0022 0B       		.uleb128 0xb
 1540 0023 3E       		.uleb128 0x3e
 1541 0024 0B       		.uleb128 0xb
 1542 0025 03       		.uleb128 0x3
 1543 0026 0E       		.uleb128 0xe
 1544 0027 00       		.byte	0
 1545 0028 00       		.byte	0
 1546 0029 04       		.uleb128 0x4
 1547 002a 16       		.uleb128 0x16
 1548 002b 00       		.byte	0
 1549 002c 03       		.uleb128 0x3
 1550 002d 0E       		.uleb128 0xe
 1551 002e 3A       		.uleb128 0x3a
 1552 002f 0B       		.uleb128 0xb
 1553 0030 3B       		.uleb128 0x3b
 1554 0031 0B       		.uleb128 0xb
 1555 0032 49       		.uleb128 0x49
 1556 0033 13       		.uleb128 0x13
 1557 0034 00       		.byte	0
 1558 0035 00       		.byte	0
 1559 0036 05       		.uleb128 0x5
 1560 0037 35       		.uleb128 0x35
 1561 0038 00       		.byte	0
 1562 0039 49       		.uleb128 0x49
 1563 003a 13       		.uleb128 0x13
 1564 003b 00       		.byte	0
 1565 003c 00       		.byte	0
 1566 003d 06       		.uleb128 0x6
 1567 003e 01       		.uleb128 0x1
 1568 003f 01       		.byte	0x1
 1569 0040 49       		.uleb128 0x49
 1570 0041 13       		.uleb128 0x13
 1571 0042 01       		.uleb128 0x1
 1572 0043 13       		.uleb128 0x13
 1573 0044 00       		.byte	0
 1574 0045 00       		.byte	0
 1575 0046 07       		.uleb128 0x7
 1576 0047 21       		.uleb128 0x21
 1577 0048 00       		.byte	0
 1578 0049 49       		.uleb128 0x49
 1579 004a 13       		.uleb128 0x13
 1580 004b 2F       		.uleb128 0x2f
 1581 004c 0B       		.uleb128 0xb
 1582 004d 00       		.byte	0
 1583 004e 00       		.byte	0
 1584 004f 08       		.uleb128 0x8
 1585 0050 13       		.uleb128 0x13
ARM GAS  C:\Users\jsyoon\AppData\Local\Temp\ccw7Mq7c.s 			page 29


 1586 0051 01       		.byte	0x1
 1587 0052 0B       		.uleb128 0xb
 1588 0053 0B       		.uleb128 0xb
 1589 0054 3A       		.uleb128 0x3a
 1590 0055 0B       		.uleb128 0xb
 1591 0056 3B       		.uleb128 0x3b
 1592 0057 05       		.uleb128 0x5
 1593 0058 01       		.uleb128 0x1
 1594 0059 13       		.uleb128 0x13
 1595 005a 00       		.byte	0
 1596 005b 00       		.byte	0
 1597 005c 09       		.uleb128 0x9
 1598 005d 0D       		.uleb128 0xd
 1599 005e 00       		.byte	0
 1600 005f 03       		.uleb128 0x3
 1601 0060 08       		.uleb128 0x8
 1602 0061 3A       		.uleb128 0x3a
 1603 0062 0B       		.uleb128 0xb
 1604 0063 3B       		.uleb128 0x3b
 1605 0064 05       		.uleb128 0x5
 1606 0065 49       		.uleb128 0x49
 1607 0066 13       		.uleb128 0x13
 1608 0067 38       		.uleb128 0x38
 1609 0068 0B       		.uleb128 0xb
 1610 0069 00       		.byte	0
 1611 006a 00       		.byte	0
 1612 006b 0A       		.uleb128 0xa
 1613 006c 0D       		.uleb128 0xd
 1614 006d 00       		.byte	0
 1615 006e 03       		.uleb128 0x3
 1616 006f 0E       		.uleb128 0xe
 1617 0070 3A       		.uleb128 0x3a
 1618 0071 0B       		.uleb128 0xb
 1619 0072 3B       		.uleb128 0x3b
 1620 0073 05       		.uleb128 0x5
 1621 0074 49       		.uleb128 0x49
 1622 0075 13       		.uleb128 0x13
 1623 0076 38       		.uleb128 0x38
 1624 0077 0B       		.uleb128 0xb
 1625 0078 00       		.byte	0
 1626 0079 00       		.byte	0
 1627 007a 0B       		.uleb128 0xb
 1628 007b 16       		.uleb128 0x16
 1629 007c 00       		.byte	0
 1630 007d 03       		.uleb128 0x3
 1631 007e 0E       		.uleb128 0xe
 1632 007f 3A       		.uleb128 0x3a
 1633 0080 0B       		.uleb128 0xb
 1634 0081 3B       		.uleb128 0x3b
 1635 0082 05       		.uleb128 0x5
 1636 0083 49       		.uleb128 0x49
 1637 0084 13       		.uleb128 0x13
 1638 0085 00       		.byte	0
 1639 0086 00       		.byte	0
 1640 0087 0C       		.uleb128 0xc
 1641 0088 0F       		.uleb128 0xf
 1642 0089 00       		.byte	0
ARM GAS  C:\Users\jsyoon\AppData\Local\Temp\ccw7Mq7c.s 			page 30


 1643 008a 0B       		.uleb128 0xb
 1644 008b 0B       		.uleb128 0xb
 1645 008c 49       		.uleb128 0x49
 1646 008d 13       		.uleb128 0x13
 1647 008e 00       		.byte	0
 1648 008f 00       		.byte	0
 1649 0090 0D       		.uleb128 0xd
 1650 0091 04       		.uleb128 0x4
 1651 0092 01       		.byte	0x1
 1652 0093 0B       		.uleb128 0xb
 1653 0094 0B       		.uleb128 0xb
 1654 0095 3A       		.uleb128 0x3a
 1655 0096 0B       		.uleb128 0xb
 1656 0097 3B       		.uleb128 0x3b
 1657 0098 0B       		.uleb128 0xb
 1658 0099 01       		.uleb128 0x1
 1659 009a 13       		.uleb128 0x13
 1660 009b 00       		.byte	0
 1661 009c 00       		.byte	0
 1662 009d 0E       		.uleb128 0xe
 1663 009e 28       		.uleb128 0x28
 1664 009f 00       		.byte	0
 1665 00a0 03       		.uleb128 0x3
 1666 00a1 0E       		.uleb128 0xe
 1667 00a2 1C       		.uleb128 0x1c
 1668 00a3 0D       		.uleb128 0xd
 1669 00a4 00       		.byte	0
 1670 00a5 00       		.byte	0
 1671 00a6 0F       		.uleb128 0xf
 1672 00a7 13       		.uleb128 0x13
 1673 00a8 01       		.byte	0x1
 1674 00a9 03       		.uleb128 0x3
 1675 00aa 0E       		.uleb128 0xe
 1676 00ab 0B       		.uleb128 0xb
 1677 00ac 0B       		.uleb128 0xb
 1678 00ad 3A       		.uleb128 0x3a
 1679 00ae 0B       		.uleb128 0xb
 1680 00af 3B       		.uleb128 0x3b
 1681 00b0 05       		.uleb128 0x5
 1682 00b1 01       		.uleb128 0x1
 1683 00b2 13       		.uleb128 0x13
 1684 00b3 00       		.byte	0
 1685 00b4 00       		.byte	0
 1686 00b5 10       		.uleb128 0x10
 1687 00b6 15       		.uleb128 0x15
 1688 00b7 01       		.byte	0x1
 1689 00b8 27       		.uleb128 0x27
 1690 00b9 19       		.uleb128 0x19
 1691 00ba 01       		.uleb128 0x1
 1692 00bb 13       		.uleb128 0x13
 1693 00bc 00       		.byte	0
 1694 00bd 00       		.byte	0
 1695 00be 11       		.uleb128 0x11
 1696 00bf 05       		.uleb128 0x5
 1697 00c0 00       		.byte	0
 1698 00c1 49       		.uleb128 0x49
 1699 00c2 13       		.uleb128 0x13
ARM GAS  C:\Users\jsyoon\AppData\Local\Temp\ccw7Mq7c.s 			page 31


 1700 00c3 00       		.byte	0
 1701 00c4 00       		.byte	0
 1702 00c5 12       		.uleb128 0x12
 1703 00c6 26       		.uleb128 0x26
 1704 00c7 00       		.byte	0
 1705 00c8 49       		.uleb128 0x49
 1706 00c9 13       		.uleb128 0x13
 1707 00ca 00       		.byte	0
 1708 00cb 00       		.byte	0
 1709 00cc 13       		.uleb128 0x13
 1710 00cd 2E       		.uleb128 0x2e
 1711 00ce 01       		.byte	0x1
 1712 00cf 03       		.uleb128 0x3
 1713 00d0 0E       		.uleb128 0xe
 1714 00d1 3A       		.uleb128 0x3a
 1715 00d2 0B       		.uleb128 0xb
 1716 00d3 3B       		.uleb128 0x3b
 1717 00d4 0B       		.uleb128 0xb
 1718 00d5 27       		.uleb128 0x27
 1719 00d6 19       		.uleb128 0x19
 1720 00d7 20       		.uleb128 0x20
 1721 00d8 0B       		.uleb128 0xb
 1722 00d9 01       		.uleb128 0x1
 1723 00da 13       		.uleb128 0x13
 1724 00db 00       		.byte	0
 1725 00dc 00       		.byte	0
 1726 00dd 14       		.uleb128 0x14
 1727 00de 05       		.uleb128 0x5
 1728 00df 00       		.byte	0
 1729 00e0 03       		.uleb128 0x3
 1730 00e1 0E       		.uleb128 0xe
 1731 00e2 3A       		.uleb128 0x3a
 1732 00e3 0B       		.uleb128 0xb
 1733 00e4 3B       		.uleb128 0x3b
 1734 00e5 0B       		.uleb128 0xb
 1735 00e6 49       		.uleb128 0x49
 1736 00e7 13       		.uleb128 0x13
 1737 00e8 00       		.byte	0
 1738 00e9 00       		.byte	0
 1739 00ea 15       		.uleb128 0x15
 1740 00eb 34       		.uleb128 0x34
 1741 00ec 00       		.byte	0
 1742 00ed 03       		.uleb128 0x3
 1743 00ee 08       		.uleb128 0x8
 1744 00ef 3A       		.uleb128 0x3a
 1745 00f0 0B       		.uleb128 0xb
 1746 00f1 3B       		.uleb128 0x3b
 1747 00f2 0B       		.uleb128 0xb
 1748 00f3 49       		.uleb128 0x49
 1749 00f4 13       		.uleb128 0x13
 1750 00f5 00       		.byte	0
 1751 00f6 00       		.byte	0
 1752 00f7 16       		.uleb128 0x16
 1753 00f8 0B       		.uleb128 0xb
 1754 00f9 01       		.byte	0x1
 1755 00fa 01       		.uleb128 0x1
 1756 00fb 13       		.uleb128 0x13
ARM GAS  C:\Users\jsyoon\AppData\Local\Temp\ccw7Mq7c.s 			page 32


 1757 00fc 00       		.byte	0
 1758 00fd 00       		.byte	0
 1759 00fe 17       		.uleb128 0x17
 1760 00ff 34       		.uleb128 0x34
 1761 0100 00       		.byte	0
 1762 0101 03       		.uleb128 0x3
 1763 0102 0E       		.uleb128 0xe
 1764 0103 3A       		.uleb128 0x3a
 1765 0104 0B       		.uleb128 0xb
 1766 0105 3B       		.uleb128 0x3b
 1767 0106 0B       		.uleb128 0xb
 1768 0107 49       		.uleb128 0x49
 1769 0108 13       		.uleb128 0x13
 1770 0109 00       		.byte	0
 1771 010a 00       		.byte	0
 1772 010b 18       		.uleb128 0x18
 1773 010c 0B       		.uleb128 0xb
 1774 010d 01       		.byte	0x1
 1775 010e 00       		.byte	0
 1776 010f 00       		.byte	0
 1777 0110 19       		.uleb128 0x19
 1778 0111 2E       		.uleb128 0x2e
 1779 0112 01       		.byte	0x1
 1780 0113 3F       		.uleb128 0x3f
 1781 0114 19       		.uleb128 0x19
 1782 0115 03       		.uleb128 0x3
 1783 0116 0E       		.uleb128 0xe
 1784 0117 3A       		.uleb128 0x3a
 1785 0118 0B       		.uleb128 0xb
 1786 0119 3B       		.uleb128 0x3b
 1787 011a 0B       		.uleb128 0xb
 1788 011b 27       		.uleb128 0x27
 1789 011c 19       		.uleb128 0x19
 1790 011d 11       		.uleb128 0x11
 1791 011e 01       		.uleb128 0x1
 1792 011f 12       		.uleb128 0x12
 1793 0120 06       		.uleb128 0x6
 1794 0121 40       		.uleb128 0x40
 1795 0122 18       		.uleb128 0x18
 1796 0123 9742     		.uleb128 0x2117
 1797 0125 19       		.uleb128 0x19
 1798 0126 01       		.uleb128 0x1
 1799 0127 13       		.uleb128 0x13
 1800 0128 00       		.byte	0
 1801 0129 00       		.byte	0
 1802 012a 1A       		.uleb128 0x1a
 1803 012b 1D       		.uleb128 0x1d
 1804 012c 01       		.byte	0x1
 1805 012d 31       		.uleb128 0x31
 1806 012e 13       		.uleb128 0x13
 1807 012f 52       		.uleb128 0x52
 1808 0130 01       		.uleb128 0x1
 1809 0131 55       		.uleb128 0x55
 1810 0132 17       		.uleb128 0x17
 1811 0133 58       		.uleb128 0x58
 1812 0134 0B       		.uleb128 0xb
 1813 0135 59       		.uleb128 0x59
ARM GAS  C:\Users\jsyoon\AppData\Local\Temp\ccw7Mq7c.s 			page 33


 1814 0136 0B       		.uleb128 0xb
 1815 0137 01       		.uleb128 0x1
 1816 0138 13       		.uleb128 0x13
 1817 0139 00       		.byte	0
 1818 013a 00       		.byte	0
 1819 013b 1B       		.uleb128 0x1b
 1820 013c 05       		.uleb128 0x5
 1821 013d 00       		.byte	0
 1822 013e 31       		.uleb128 0x31
 1823 013f 13       		.uleb128 0x13
 1824 0140 02       		.uleb128 0x2
 1825 0141 18       		.uleb128 0x18
 1826 0142 00       		.byte	0
 1827 0143 00       		.byte	0
 1828 0144 1C       		.uleb128 0x1c
 1829 0145 0B       		.uleb128 0xb
 1830 0146 01       		.byte	0x1
 1831 0147 55       		.uleb128 0x55
 1832 0148 17       		.uleb128 0x17
 1833 0149 00       		.byte	0
 1834 014a 00       		.byte	0
 1835 014b 1D       		.uleb128 0x1d
 1836 014c 34       		.uleb128 0x34
 1837 014d 00       		.byte	0
 1838 014e 31       		.uleb128 0x31
 1839 014f 13       		.uleb128 0x13
 1840 0150 02       		.uleb128 0x2
 1841 0151 17       		.uleb128 0x17
 1842 0152 00       		.byte	0
 1843 0153 00       		.byte	0
 1844 0154 1E       		.uleb128 0x1e
 1845 0155 0B       		.uleb128 0xb
 1846 0156 01       		.byte	0x1
 1847 0157 11       		.uleb128 0x11
 1848 0158 01       		.uleb128 0x1
 1849 0159 12       		.uleb128 0x12
 1850 015a 06       		.uleb128 0x6
 1851 015b 01       		.uleb128 0x1
 1852 015c 13       		.uleb128 0x13
 1853 015d 00       		.byte	0
 1854 015e 00       		.byte	0
 1855 015f 1F       		.uleb128 0x1f
 1856 0160 898201   		.uleb128 0x4109
 1857 0163 01       		.byte	0x1
 1858 0164 11       		.uleb128 0x11
 1859 0165 01       		.uleb128 0x1
 1860 0166 00       		.byte	0
 1861 0167 00       		.byte	0
 1862 0168 20       		.uleb128 0x20
 1863 0169 8A8201   		.uleb128 0x410a
 1864 016c 00       		.byte	0
 1865 016d 02       		.uleb128 0x2
 1866 016e 18       		.uleb128 0x18
 1867 016f 9142     		.uleb128 0x2111
 1868 0171 18       		.uleb128 0x18
 1869 0172 00       		.byte	0
 1870 0173 00       		.byte	0
ARM GAS  C:\Users\jsyoon\AppData\Local\Temp\ccw7Mq7c.s 			page 34


 1871 0174 21       		.uleb128 0x21
 1872 0175 898201   		.uleb128 0x4109
 1873 0178 01       		.byte	0x1
 1874 0179 11       		.uleb128 0x11
 1875 017a 01       		.uleb128 0x1
 1876 017b 01       		.uleb128 0x1
 1877 017c 13       		.uleb128 0x13
 1878 017d 00       		.byte	0
 1879 017e 00       		.byte	0
 1880 017f 22       		.uleb128 0x22
 1881 0180 898201   		.uleb128 0x4109
 1882 0183 00       		.byte	0
 1883 0184 11       		.uleb128 0x11
 1884 0185 01       		.uleb128 0x1
 1885 0186 9542     		.uleb128 0x2115
 1886 0188 19       		.uleb128 0x19
 1887 0189 31       		.uleb128 0x31
 1888 018a 13       		.uleb128 0x13
 1889 018b 00       		.byte	0
 1890 018c 00       		.byte	0
 1891 018d 23       		.uleb128 0x23
 1892 018e 2E       		.uleb128 0x2e
 1893 018f 01       		.byte	0x1
 1894 0190 3F       		.uleb128 0x3f
 1895 0191 19       		.uleb128 0x19
 1896 0192 03       		.uleb128 0x3
 1897 0193 0E       		.uleb128 0xe
 1898 0194 3A       		.uleb128 0x3a
 1899 0195 0B       		.uleb128 0xb
 1900 0196 3B       		.uleb128 0x3b
 1901 0197 05       		.uleb128 0x5
 1902 0198 27       		.uleb128 0x27
 1903 0199 19       		.uleb128 0x19
 1904 019a 11       		.uleb128 0x11
 1905 019b 01       		.uleb128 0x1
 1906 019c 12       		.uleb128 0x12
 1907 019d 06       		.uleb128 0x6
 1908 019e 40       		.uleb128 0x40
 1909 019f 18       		.uleb128 0x18
 1910 01a0 9742     		.uleb128 0x2117
 1911 01a2 19       		.uleb128 0x19
 1912 01a3 01       		.uleb128 0x1
 1913 01a4 13       		.uleb128 0x13
 1914 01a5 00       		.byte	0
 1915 01a6 00       		.byte	0
 1916 01a7 24       		.uleb128 0x24
 1917 01a8 898201   		.uleb128 0x4109
 1918 01ab 01       		.byte	0x1
 1919 01ac 11       		.uleb128 0x11
 1920 01ad 01       		.uleb128 0x1
 1921 01ae 31       		.uleb128 0x31
 1922 01af 13       		.uleb128 0x13
 1923 01b0 00       		.byte	0
 1924 01b1 00       		.byte	0
 1925 01b2 25       		.uleb128 0x25
 1926 01b3 05       		.uleb128 0x5
 1927 01b4 00       		.byte	0
ARM GAS  C:\Users\jsyoon\AppData\Local\Temp\ccw7Mq7c.s 			page 35


 1928 01b5 03       		.uleb128 0x3
 1929 01b6 0E       		.uleb128 0xe
 1930 01b7 3A       		.uleb128 0x3a
 1931 01b8 0B       		.uleb128 0xb
 1932 01b9 3B       		.uleb128 0x3b
 1933 01ba 05       		.uleb128 0x5
 1934 01bb 49       		.uleb128 0x49
 1935 01bc 13       		.uleb128 0x13
 1936 01bd 02       		.uleb128 0x2
 1937 01be 17       		.uleb128 0x17
 1938 01bf 00       		.byte	0
 1939 01c0 00       		.byte	0
 1940 01c1 26       		.uleb128 0x26
 1941 01c2 34       		.uleb128 0x34
 1942 01c3 00       		.byte	0
 1943 01c4 03       		.uleb128 0x3
 1944 01c5 08       		.uleb128 0x8
 1945 01c6 3A       		.uleb128 0x3a
 1946 01c7 0B       		.uleb128 0xb
 1947 01c8 3B       		.uleb128 0x3b
 1948 01c9 05       		.uleb128 0x5
 1949 01ca 49       		.uleb128 0x49
 1950 01cb 13       		.uleb128 0x13
 1951 01cc 00       		.byte	0
 1952 01cd 00       		.byte	0
 1953 01ce 27       		.uleb128 0x27
 1954 01cf 05       		.uleb128 0x5
 1955 01d0 00       		.byte	0
 1956 01d1 03       		.uleb128 0x3
 1957 01d2 0E       		.uleb128 0xe
 1958 01d3 3A       		.uleb128 0x3a
 1959 01d4 0B       		.uleb128 0xb
 1960 01d5 3B       		.uleb128 0x3b
 1961 01d6 05       		.uleb128 0x5
 1962 01d7 49       		.uleb128 0x49
 1963 01d8 13       		.uleb128 0x13
 1964 01d9 02       		.uleb128 0x2
 1965 01da 18       		.uleb128 0x18
 1966 01db 00       		.byte	0
 1967 01dc 00       		.byte	0
 1968 01dd 28       		.uleb128 0x28
 1969 01de 34       		.uleb128 0x34
 1970 01df 00       		.byte	0
 1971 01e0 03       		.uleb128 0x3
 1972 01e1 0E       		.uleb128 0xe
 1973 01e2 3A       		.uleb128 0x3a
 1974 01e3 0B       		.uleb128 0xb
 1975 01e4 3B       		.uleb128 0x3b
 1976 01e5 05       		.uleb128 0x5
 1977 01e6 49       		.uleb128 0x49
 1978 01e7 13       		.uleb128 0x13
 1979 01e8 3F       		.uleb128 0x3f
 1980 01e9 19       		.uleb128 0x19
 1981 01ea 3C       		.uleb128 0x3c
 1982 01eb 19       		.uleb128 0x19
 1983 01ec 00       		.byte	0
 1984 01ed 00       		.byte	0
ARM GAS  C:\Users\jsyoon\AppData\Local\Temp\ccw7Mq7c.s 			page 36


 1985 01ee 29       		.uleb128 0x29
 1986 01ef 34       		.uleb128 0x34
 1987 01f0 00       		.byte	0
 1988 01f1 03       		.uleb128 0x3
 1989 01f2 0E       		.uleb128 0xe
 1990 01f3 3A       		.uleb128 0x3a
 1991 01f4 0B       		.uleb128 0xb
 1992 01f5 3B       		.uleb128 0x3b
 1993 01f6 0B       		.uleb128 0xb
 1994 01f7 49       		.uleb128 0x49
 1995 01f8 13       		.uleb128 0x13
 1996 01f9 3F       		.uleb128 0x3f
 1997 01fa 19       		.uleb128 0x19
 1998 01fb 02       		.uleb128 0x2
 1999 01fc 18       		.uleb128 0x18
 2000 01fd 00       		.byte	0
 2001 01fe 00       		.byte	0
 2002 01ff 2A       		.uleb128 0x2a
 2003 0200 2E       		.uleb128 0x2e
 2004 0201 00       		.byte	0
 2005 0202 3F       		.uleb128 0x3f
 2006 0203 19       		.uleb128 0x19
 2007 0204 03       		.uleb128 0x3
 2008 0205 0E       		.uleb128 0xe
 2009 0206 3A       		.uleb128 0x3a
 2010 0207 0B       		.uleb128 0xb
 2011 0208 3B       		.uleb128 0x3b
 2012 0209 05       		.uleb128 0x5
 2013 020a 27       		.uleb128 0x27
 2014 020b 19       		.uleb128 0x19
 2015 020c 3C       		.uleb128 0x3c
 2016 020d 19       		.uleb128 0x19
 2017 020e 00       		.byte	0
 2018 020f 00       		.byte	0
 2019 0210 2B       		.uleb128 0x2b
 2020 0211 2E       		.uleb128 0x2e
 2021 0212 01       		.byte	0x1
 2022 0213 3F       		.uleb128 0x3f
 2023 0214 19       		.uleb128 0x19
 2024 0215 03       		.uleb128 0x3
 2025 0216 0E       		.uleb128 0xe
 2026 0217 3A       		.uleb128 0x3a
 2027 0218 0B       		.uleb128 0xb
 2028 0219 3B       		.uleb128 0x3b
 2029 021a 0B       		.uleb128 0xb
 2030 021b 27       		.uleb128 0x27
 2031 021c 19       		.uleb128 0x19
 2032 021d 3C       		.uleb128 0x3c
 2033 021e 19       		.uleb128 0x19
 2034 021f 01       		.uleb128 0x1
 2035 0220 13       		.uleb128 0x13
 2036 0221 00       		.byte	0
 2037 0222 00       		.byte	0
 2038 0223 2C       		.uleb128 0x2c
 2039 0224 2E       		.uleb128 0x2e
 2040 0225 01       		.byte	0x1
 2041 0226 3F       		.uleb128 0x3f
ARM GAS  C:\Users\jsyoon\AppData\Local\Temp\ccw7Mq7c.s 			page 37


 2042 0227 19       		.uleb128 0x19
 2043 0228 03       		.uleb128 0x3
 2044 0229 0E       		.uleb128 0xe
 2045 022a 3A       		.uleb128 0x3a
 2046 022b 0B       		.uleb128 0xb
 2047 022c 3B       		.uleb128 0x3b
 2048 022d 05       		.uleb128 0x5
 2049 022e 27       		.uleb128 0x27
 2050 022f 19       		.uleb128 0x19
 2051 0230 3C       		.uleb128 0x3c
 2052 0231 19       		.uleb128 0x19
 2053 0232 01       		.uleb128 0x1
 2054 0233 13       		.uleb128 0x13
 2055 0234 00       		.byte	0
 2056 0235 00       		.byte	0
 2057 0236 2D       		.uleb128 0x2d
 2058 0237 2E       		.uleb128 0x2e
 2059 0238 01       		.byte	0x1
 2060 0239 3F       		.uleb128 0x3f
 2061 023a 19       		.uleb128 0x19
 2062 023b 03       		.uleb128 0x3
 2063 023c 0E       		.uleb128 0xe
 2064 023d 3A       		.uleb128 0x3a
 2065 023e 0B       		.uleb128 0xb
 2066 023f 3B       		.uleb128 0x3b
 2067 0240 05       		.uleb128 0x5
 2068 0241 27       		.uleb128 0x27
 2069 0242 19       		.uleb128 0x19
 2070 0243 3C       		.uleb128 0x3c
 2071 0244 19       		.uleb128 0x19
 2072 0245 00       		.byte	0
 2073 0246 00       		.byte	0
 2074 0247 00       		.byte	0
 2075              		.section	.debug_loc,"",%progbits
 2076              	.Ldebug_loc0:
 2077              	.LLST0:
 2078 0000 0A000000 		.4byte	.LVL1
 2079 0004 12000000 		.4byte	.LVL2
 2080 0008 0100     		.2byte	0x1
 2081 000a 50       		.byte	0x50
 2082 000b 12000000 		.4byte	.LVL2
 2083 000f 42000000 		.4byte	.LVL6
 2084 0013 0600     		.2byte	0x6
 2085 0015 75       		.byte	0x75
 2086 0016 00       		.sleb128 0
 2087 0017 08       		.byte	0x8
 2088 0018 FF       		.byte	0xff
 2089 0019 1A       		.byte	0x1a
 2090 001a 9F       		.byte	0x9f
 2091 001b 46000000 		.4byte	.LVL7
 2092 001f 8C000000 		.4byte	.LFE119
 2093 0023 0600     		.2byte	0x6
 2094 0025 75       		.byte	0x75
 2095 0026 00       		.sleb128 0
 2096 0027 08       		.byte	0x8
 2097 0028 FF       		.byte	0xff
 2098 0029 1A       		.byte	0x1a
ARM GAS  C:\Users\jsyoon\AppData\Local\Temp\ccw7Mq7c.s 			page 38


 2099 002a 9F       		.byte	0x9f
 2100 002b 00000000 		.4byte	0
 2101 002f 00000000 		.4byte	0
 2102              	.LLST1:
 2103 0033 20000000 		.4byte	.LVL3
 2104 0037 2D000000 		.4byte	.LVL4-1
 2105 003b 0500     		.2byte	0x5
 2106 003d 03       		.byte	0x3
 2107 003e 00000000 		.4byte	ICUD3
 2108 0042 00000000 		.4byte	0
 2109 0046 00000000 		.4byte	0
 2110              	.LLST2:
 2111 004a 60000000 		.4byte	.LVL9
 2112 004e 6F000000 		.4byte	.LVL10-1
 2113 0052 0500     		.2byte	0x5
 2114 0054 03       		.byte	0x3
 2115 0055 00000000 		.4byte	ICUD3
 2116 0059 00000000 		.4byte	0
 2117 005d 00000000 		.4byte	0
 2118              	.LLST3:
 2119 0061 00000000 		.4byte	.LVL13
 2120 0065 16000000 		.4byte	.LVL14
 2121 0069 0100     		.2byte	0x1
 2122 006b 50       		.byte	0x50
 2123 006c 16000000 		.4byte	.LVL14
 2124 0070 82000000 		.4byte	.LVL17
 2125 0074 0100     		.2byte	0x1
 2126 0076 54       		.byte	0x54
 2127 0077 82000000 		.4byte	.LVL17
 2128 007b 88000000 		.4byte	.LVL18
 2129 007f 0100     		.2byte	0x1
 2130 0081 50       		.byte	0x50
 2131 0082 88000000 		.4byte	.LVL18
 2132 0086 8C000000 		.4byte	.LVL19
 2133 008a 0100     		.2byte	0x1
 2134 008c 54       		.byte	0x54
 2135 008d 8C000000 		.4byte	.LVL19
 2136 0091 A2000000 		.4byte	.LVL20
 2137 0095 0100     		.2byte	0x1
 2138 0097 50       		.byte	0x50
 2139 0098 A2000000 		.4byte	.LVL20
 2140 009c BC000000 		.4byte	.LFE121
 2141 00a0 0100     		.2byte	0x1
 2142 00a2 54       		.byte	0x54
 2143 00a3 00000000 		.4byte	0
 2144 00a7 00000000 		.4byte	0
 2145              	.LLST4:
 2146 00ab 00000000 		.4byte	.LVL22
 2147 00af 08000000 		.4byte	.LVL23
 2148 00b3 0100     		.2byte	0x1
 2149 00b5 50       		.byte	0x50
 2150 00b6 08000000 		.4byte	.LVL23
 2151 00ba 0A000000 		.4byte	.LVL24
 2152 00be 0400     		.2byte	0x4
 2153 00c0 F3       		.byte	0xf3
 2154 00c1 01       		.uleb128 0x1
 2155 00c2 50       		.byte	0x50
ARM GAS  C:\Users\jsyoon\AppData\Local\Temp\ccw7Mq7c.s 			page 39


 2156 00c3 9F       		.byte	0x9f
 2157 00c4 0A000000 		.4byte	.LVL24
 2158 00c8 1C000000 		.4byte	.LVL25
 2159 00cc 0100     		.2byte	0x1
 2160 00ce 50       		.byte	0x50
 2161 00cf 1C000000 		.4byte	.LVL25
 2162 00d3 34000000 		.4byte	.LFE122
 2163 00d7 0400     		.2byte	0x4
 2164 00d9 F3       		.byte	0xf3
 2165 00da 01       		.uleb128 0x1
 2166 00db 50       		.byte	0x50
 2167 00dc 9F       		.byte	0x9f
 2168 00dd 00000000 		.4byte	0
 2169 00e1 00000000 		.4byte	0
 2170              	.LLST5:
 2171 00e5 00000000 		.4byte	.LVL27
 2172 00e9 06000000 		.4byte	.LVL28
 2173 00ed 0100     		.2byte	0x1
 2174 00ef 50       		.byte	0x50
 2175 00f0 06000000 		.4byte	.LVL28
 2176 00f4 58000000 		.4byte	.LFE123
 2177 00f8 0400     		.2byte	0x4
 2178 00fa F3       		.byte	0xf3
 2179 00fb 01       		.uleb128 0x1
 2180 00fc 50       		.byte	0x50
 2181 00fd 9F       		.byte	0x9f
 2182 00fe 00000000 		.4byte	0
 2183 0102 00000000 		.4byte	0
 2184              		.section	.debug_aranges,"",%progbits
 2185 0000 44000000 		.4byte	0x44
 2186 0004 0200     		.2byte	0x2
 2187 0006 00000000 		.4byte	.Ldebug_info0
 2188 000a 04       		.byte	0x4
 2189 000b 00       		.byte	0
 2190 000c 0000     		.2byte	0
 2191 000e 0000     		.2byte	0
 2192 0010 00000000 		.4byte	.LFB119
 2193 0014 8C000000 		.4byte	.LFE119-.LFB119
 2194 0018 00000000 		.4byte	.LFB120
 2195 001c 18000000 		.4byte	.LFE120-.LFB120
 2196 0020 00000000 		.4byte	.LFB121
 2197 0024 BC000000 		.4byte	.LFE121-.LFB121
 2198 0028 00000000 		.4byte	.LFB122
 2199 002c 34000000 		.4byte	.LFE122-.LFB122
 2200 0030 00000000 		.4byte	.LFB123
 2201 0034 58000000 		.4byte	.LFE123-.LFB123
 2202 0038 00000000 		.4byte	.LFB124
 2203 003c 12000000 		.4byte	.LFE124-.LFB124
 2204 0040 00000000 		.4byte	0
 2205 0044 00000000 		.4byte	0
 2206              		.section	.debug_ranges,"",%progbits
 2207              	.Ldebug_ranges0:
 2208 0000 02000000 		.4byte	.LBB8
 2209 0004 3E000000 		.4byte	.LBE8
 2210 0008 46000000 		.4byte	.LBB13
 2211 000c 8C000000 		.4byte	.LBE13
 2212 0010 00000000 		.4byte	0
ARM GAS  C:\Users\jsyoon\AppData\Local\Temp\ccw7Mq7c.s 			page 40


 2213 0014 00000000 		.4byte	0
 2214 0018 00000000 		.4byte	.LFB119
 2215 001c 8C000000 		.4byte	.LFE119
 2216 0020 00000000 		.4byte	.LFB120
 2217 0024 18000000 		.4byte	.LFE120
 2218 0028 00000000 		.4byte	.LFB121
 2219 002c BC000000 		.4byte	.LFE121
 2220 0030 00000000 		.4byte	.LFB122
 2221 0034 34000000 		.4byte	.LFE122
 2222 0038 00000000 		.4byte	.LFB123
 2223 003c 58000000 		.4byte	.LFE123
 2224 0040 00000000 		.4byte	.LFB124
 2225 0044 12000000 		.4byte	.LFE124
 2226 0048 00000000 		.4byte	0
 2227 004c 00000000 		.4byte	0
 2228              		.section	.debug_line,"",%progbits
 2229              	.Ldebug_line0:
 2230 0000 1D030000 		.section	.debug_str,"MS",%progbits,1
 2230      02000F02 
 2230      00000201 
 2230      FB0E0D00 
 2230      01010101 
 2231              	.LASF34:
 2232 0000 41484231 		.ascii	"AHB1LPENR\000"
 2232      4C50454E 
 2232      5200
 2233              	.LASF92:
 2234 000a 6963755F 		.ascii	"icu_lld_stop\000"
 2234      6C6C645F 
 2234      73746F70 
 2234      00
 2235              	.LASF66:
 2236 0017 43434552 		.ascii	"CCER\000"
 2236      00
 2237              	.LASF59:
 2238 001c 77636372 		.ascii	"wccrp\000"
 2238      7000
 2239              	.LASF49:
 2240 0022 4943555F 		.ascii	"ICU_STOP\000"
 2240      53544F50 
 2240      00
 2241              	.LASF24:
 2242 002b 41504231 		.ascii	"APB1RSTR\000"
 2242      52535452 
 2242      00
 2243              	.LASF91:
 2244 0034 6963755F 		.ascii	"icu_lld_start\000"
 2244      6C6C645F 
 2244      73746172 
 2244      7400
 2245              	.LASF28:
 2246 0042 41484232 		.ascii	"AHB2ENR\000"
 2246      454E5200 
 2247              	.LASF68:
 2248 004a 444D4152 		.ascii	"DMAR\000"
 2248      00
 2249              	.LASF103:
ARM GAS  C:\Users\jsyoon\AppData\Local\Temp\ccw7Mq7c.s 			page 41


 2250 004f 6963755F 		.ascii	"icu_lld_serve_interrupt\000"
 2250      6C6C645F 
 2250      73657276 
 2250      655F696E 
 2250      74657272 
 2251              	.LASF56:
 2252 0067 73746174 		.ascii	"state\000"
 2252      6500
 2253              	.LASF3:
 2254 006d 73686F72 		.ascii	"short int\000"
 2254      7420696E 
 2254      7400
 2255              	.LASF93:
 2256 0077 69637570 		.ascii	"icup\000"
 2256      00
 2257              	.LASF16:
 2258 007c 73697A65 		.ascii	"sizetype\000"
 2258      74797065 
 2258      00
 2259              	.LASF41:
 2260 0085 42444352 		.ascii	"BDCR\000"
 2260      00
 2261              	.LASF94:
 2262 008a 6963755F 		.ascii	"icu_lld_enable\000"
 2262      6C6C645F 
 2262      656E6162 
 2262      6C6500
 2263              	.LASF99:
 2264 0099 6E766963 		.ascii	"nvicEnableVector\000"
 2264      456E6162 
 2264      6C655665 
 2264      63746F72 
 2264      00
 2265              	.LASF105:
 2266 00aa 6E766963 		.ascii	"nvicDisableVector\000"
 2266      44697361 
 2266      626C6556 
 2266      6563746F 
 2266      7200
 2267              	.LASF102:
 2268 00bc 453A5C4D 		.ascii	"E:\\Maker\\BLDC\\test_eval\\try2\\OROCA-BLDC_R15080"
 2268      616B6572 
 2268      5C424C44 
 2268      435C7465 
 2268      73745F65 
 2269 00ea 3700     		.ascii	"7\000"
 2270              	.LASF8:
 2271 00ec 5F5F7569 		.ascii	"__uint32_t\000"
 2271      6E743332 
 2271      5F7400
 2272              	.LASF39:
 2273 00f7 41504232 		.ascii	"APB2LPENR\000"
 2273      4C50454E 
 2273      5200
 2274              	.LASF80:
 2275 0101 6D6F6465 		.ascii	"mode\000"
 2275      00
ARM GAS  C:\Users\jsyoon\AppData\Local\Temp\ccw7Mq7c.s 			page 42


 2276              	.LASF5:
 2277 0106 5F5F7569 		.ascii	"__uint16_t\000"
 2277      6E743136 
 2277      5F7400
 2278              	.LASF43:
 2279 0111 53534347 		.ascii	"SSCGR\000"
 2279      5200
 2280              	.LASF36:
 2281 0117 41484233 		.ascii	"AHB3LPENR\000"
 2281      4C50454E 
 2281      5200
 2282              	.LASF57:
 2283 0121 636F6E66 		.ascii	"config\000"
 2283      696700
 2284              	.LASF19:
 2285 0128 43464752 		.ascii	"CFGR\000"
 2285      00
 2286              	.LASF26:
 2287 012d 52455345 		.ascii	"RESERVED1\000"
 2287      52564544 
 2287      3100
 2288              	.LASF100:
 2289 0137 474E5520 		.ascii	"GNU C 4.8.4 20140526 (release) [ARM/embedded-4_8-br"
 2289      4320342E 
 2289      382E3420 
 2289      32303134 
 2289      30353236 
 2290 016a 616E6368 		.ascii	"anch revision 211358] -mcpu=cortex-m4 -mfloat-abi=h"
 2290      20726576 
 2290      6973696F 
 2290      6E203231 
 2290      31333538 
 2291 019d 61726420 		.ascii	"ard -mfpu=fpv4-sp-d16 -mno-thumb-interwork -mthumb "
 2291      2D6D6670 
 2291      753D6670 
 2291      76342D73 
 2291      702D6431 
 2292 01d0 2D676764 		.ascii	"-ggdb -O2 -std=gnu99 -fomit-frame-pointer -falign-f"
 2292      62202D4F 
 2292      32202D73 
 2292      74643D67 
 2292      6E753939 
 2293 0203 756E6374 		.ascii	"unctions=16 -ffunction-sections -fdata-sections -fn"
 2293      696F6E73 
 2293      3D313620 
 2293      2D666675 
 2293      6E637469 
 2294 0236 6F2D636F 		.ascii	"o-common -fsingle-precision-constant\000"
 2294      6D6D6F6E 
 2294      202D6673 
 2294      696E676C 
 2294      652D7072 
 2295              	.LASF31:
 2296 025b 41504231 		.ascii	"APB1ENR\000"
 2296      454E5200 
 2297              	.LASF101:
 2298 0263 43686962 		.ascii	"ChibiOS_2.6.6/os/hal/platforms/STM32/TIMv1/icu_lld."
ARM GAS  C:\Users\jsyoon\AppData\Local\Temp\ccw7Mq7c.s 			page 43


 2298      694F535F 
 2298      322E362E 
 2298      362F6F73 
 2298      2F68616C 
 2299 0296 6300     		.ascii	"c\000"
 2300              	.LASF42:
 2301 0298 52455345 		.ascii	"RESERVED6\000"
 2301      52564544 
 2301      3600
 2302              	.LASF77:
 2303 02a2 4943555F 		.ascii	"ICU_CHANNEL_1\000"
 2303      4348414E 
 2303      4E454C5F 
 2303      3100
 2304              	.LASF78:
 2305 02b0 4943555F 		.ascii	"ICU_CHANNEL_2\000"
 2305      4348414E 
 2305      4E454C5F 
 2305      3200
 2306              	.LASF14:
 2307 02be 75696E74 		.ascii	"uint32_t\000"
 2307      33325F74 
 2307      00
 2308              	.LASF46:
 2309 02c7 44434B43 		.ascii	"DCKCFGR\000"
 2309      46475200 
 2310              	.LASF29:
 2311 02cf 41484233 		.ascii	"AHB3ENR\000"
 2311      454E5200 
 2312              	.LASF52:
 2313 02d7 4943555F 		.ascii	"ICU_ACTIVE\000"
 2313      41435449 
 2313      564500
 2314              	.LASF10:
 2315 02e2 6C6F6E67 		.ascii	"long long int\000"
 2315      206C6F6E 
 2315      6720696E 
 2315      7400
 2316              	.LASF11:
 2317 02f0 6C6F6E67 		.ascii	"long long unsigned int\000"
 2317      206C6F6E 
 2317      6720756E 
 2317      7369676E 
 2317      65642069 
 2318              	.LASF75:
 2319 0307 6963756D 		.ascii	"icumode_t\000"
 2319      6F64655F 
 2319      7400
 2320              	.LASF17:
 2321 0311 63686172 		.ascii	"char\000"
 2321      00
 2322              	.LASF7:
 2323 0316 6C6F6E67 		.ascii	"long int\000"
 2323      20696E74 
 2323      00
 2324              	.LASF44:
 2325 031f 504C4C49 		.ascii	"PLLI2SCFGR\000"
ARM GAS  C:\Users\jsyoon\AppData\Local\Temp\ccw7Mq7c.s 			page 44


 2325      32534346 
 2325      475200
 2326              	.LASF70:
 2327 032a 43435235 		.ascii	"CCR5\000"
 2327      00
 2328              	.LASF47:
 2329 032f 5243435F 		.ascii	"RCC_TypeDef\000"
 2329      54797065 
 2329      44656600 
 2330              	.LASF60:
 2331 033b 70636372 		.ascii	"pccrp\000"
 2331      7000
 2332              	.LASF25:
 2333 0341 41504232 		.ascii	"APB2RSTR\000"
 2333      52535452 
 2333      00
 2334              	.LASF64:
 2335 034a 43434D52 		.ascii	"CCMR1\000"
 2335      3100
 2336              	.LASF89:
 2337 0350 56656374 		.ascii	"VectorB4\000"
 2337      6F724234 
 2337      00
 2338              	.LASF69:
 2339 0359 43434D52 		.ascii	"CCMR3\000"
 2339      3300
 2340              	.LASF65:
 2341 035f 43434D52 		.ascii	"CCMR2\000"
 2341      3200
 2342              	.LASF53:
 2343 0365 4943555F 		.ascii	"ICU_IDLE\000"
 2343      49444C45 
 2343      00
 2344              	.LASF62:
 2345 036e 534D4352 		.ascii	"SMCR\000"
 2345      00
 2346              	.LASF104:
 2347 0373 5F706F72 		.ascii	"_port_irq_epilogue\000"
 2347      745F6972 
 2347      715F6570 
 2347      696C6F67 
 2347      756500
 2348              	.LASF2:
 2349 0386 756E7369 		.ascii	"unsigned char\000"
 2349      676E6564 
 2349      20636861 
 2349      7200
 2350              	.LASF87:
 2351 0394 49435543 		.ascii	"ICUConfig\000"
 2351      6F6E6669 
 2351      6700
 2352              	.LASF32:
 2353 039e 41504232 		.ascii	"APB2ENR\000"
 2353      454E5200 
 2354              	.LASF71:
 2355 03a6 43435236 		.ascii	"CCR6\000"
 2355      00
ARM GAS  C:\Users\jsyoon\AppData\Local\Temp\ccw7Mq7c.s 			page 45


 2356              	.LASF1:
 2357 03ab 7369676E 		.ascii	"signed char\000"
 2357      65642063 
 2357      68617200 
 2358              	.LASF97:
 2359 03b7 49435544 		.ascii	"ICUD3\000"
 2359      3300
 2360              	.LASF95:
 2361 03bd 6963755F 		.ascii	"icu_lld_disable\000"
 2361      6C6C645F 
 2361      64697361 
 2361      626C6500 
 2362              	.LASF0:
 2363 03cd 756E7369 		.ascii	"unsigned int\000"
 2363      676E6564 
 2363      20696E74 
 2363      00
 2364              	.LASF21:
 2365 03da 41484232 		.ascii	"AHB2RSTR\000"
 2365      52535452 
 2365      00
 2366              	.LASF12:
 2367 03e3 75696E74 		.ascii	"uint16_t\000"
 2367      31365F74 
 2367      00
 2368              	.LASF63:
 2369 03ec 44494552 		.ascii	"DIER\000"
 2369      00
 2370              	.LASF76:
 2371 03f1 69637566 		.ascii	"icufreq_t\000"
 2371      7265715F 
 2371      7400
 2372              	.LASF18:
 2373 03fb 504C4C43 		.ascii	"PLLCFGR\000"
 2373      46475200 
 2374              	.LASF4:
 2375 0403 73686F72 		.ascii	"short unsigned int\000"
 2375      7420756E 
 2375      7369676E 
 2375      65642069 
 2375      6E7400
 2376              	.LASF74:
 2377 0416 4943555F 		.ascii	"ICU_INPUT_ACTIVE_LOW\000"
 2377      494E5055 
 2377      545F4143 
 2377      54495645 
 2377      5F4C4F57 
 2378              	.LASF79:
 2379 042b 69637563 		.ascii	"icuchannel_t\000"
 2379      68616E6E 
 2379      656C5F74 
 2379      00
 2380              	.LASF61:
 2381 0438 69637563 		.ascii	"icucallback_t\000"
 2381      616C6C62 
 2381      61636B5F 
 2381      7400
ARM GAS  C:\Users\jsyoon\AppData\Local\Temp\ccw7Mq7c.s 			page 46


 2382              	.LASF72:
 2383 0446 73746D33 		.ascii	"stm32_tim_t\000"
 2383      325F7469 
 2383      6D5F7400 
 2384              	.LASF83:
 2385 0452 70657269 		.ascii	"period_cb\000"
 2385      6F645F63 
 2385      6200
 2386              	.LASF67:
 2387 045c 42445452 		.ascii	"BDTR\000"
 2387      00
 2388              	.LASF13:
 2389 0461 696E7433 		.ascii	"int32_t\000"
 2389      325F7400 
 2390              	.LASF15:
 2391 0469 5F426F6F 		.ascii	"_Bool\000"
 2391      6C00
 2392              	.LASF85:
 2393 046f 6368616E 		.ascii	"channel\000"
 2393      6E656C00 
 2394              	.LASF48:
 2395 0477 4943555F 		.ascii	"ICU_UNINIT\000"
 2395      554E494E 
 2395      495400
 2396              	.LASF35:
 2397 0482 41484232 		.ascii	"AHB2LPENR\000"
 2397      4C50454E 
 2397      5200
 2398              	.LASF23:
 2399 048c 52455345 		.ascii	"RESERVED0\000"
 2399      52564544 
 2399      3000
 2400              	.LASF73:
 2401 0496 4943555F 		.ascii	"ICU_INPUT_ACTIVE_HIGH\000"
 2401      494E5055 
 2401      545F4143 
 2401      54495645 
 2401      5F484947 
 2402              	.LASF30:
 2403 04ac 52455345 		.ascii	"RESERVED2\000"
 2403      52564544 
 2403      3200
 2404              	.LASF33:
 2405 04b6 52455345 		.ascii	"RESERVED3\000"
 2405      52564544 
 2405      3300
 2406              	.LASF37:
 2407 04c0 52455345 		.ascii	"RESERVED4\000"
 2407      52564544 
 2407      3400
 2408              	.LASF40:
 2409 04ca 52455345 		.ascii	"RESERVED5\000"
 2409      52564544 
 2409      3500
 2410              	.LASF9:
 2411 04d4 6C6F6E67 		.ascii	"long unsigned int\000"
 2411      20756E73 
ARM GAS  C:\Users\jsyoon\AppData\Local\Temp\ccw7Mq7c.s 			page 47


 2411      69676E65 
 2411      6420696E 
 2411      7400
 2412              	.LASF58:
 2413 04e6 636C6F63 		.ascii	"clock\000"
 2413      6B00
 2414              	.LASF90:
 2415 04ec 6963755F 		.ascii	"icu_lld_init\000"
 2415      6C6C645F 
 2415      696E6974 
 2415      00
 2416              	.LASF27:
 2417 04f9 41484231 		.ascii	"AHB1ENR\000"
 2417      454E5200 
 2418              	.LASF84:
 2419 0501 6F766572 		.ascii	"overflow_cb\000"
 2419      666C6F77 
 2419      5F636200 
 2420              	.LASF82:
 2421 050d 77696474 		.ascii	"width_cb\000"
 2421      685F6362 
 2421      00
 2422              	.LASF6:
 2423 0516 5F5F696E 		.ascii	"__int32_t\000"
 2423      7433325F 
 2423      7400
 2424              	.LASF86:
 2425 0520 64696572 		.ascii	"dier\000"
 2425      00
 2426              	.LASF55:
 2427 0525 49435544 		.ascii	"ICUDriver\000"
 2427      72697665 
 2427      7200
 2428              	.LASF81:
 2429 052f 66726571 		.ascii	"frequency\000"
 2429      75656E63 
 2429      7900
 2430              	.LASF50:
 2431 0539 4943555F 		.ascii	"ICU_READY\000"
 2431      52454144 
 2431      5900
 2432              	.LASF20:
 2433 0543 41484231 		.ascii	"AHB1RSTR\000"
 2433      52535452 
 2433      00
 2434              	.LASF88:
 2435 054c 70726576 		.ascii	"previous_state\000"
 2435      696F7573 
 2435      5F737461 
 2435      746500
 2436              	.LASF22:
 2437 055b 41484233 		.ascii	"AHB3RSTR\000"
 2437      52535452 
 2437      00
 2438              	.LASF98:
 2439 0564 6963754F 		.ascii	"icuObjectInit\000"
 2439      626A6563 
ARM GAS  C:\Users\jsyoon\AppData\Local\Temp\ccw7Mq7c.s 			page 48


 2439      74496E69 
 2439      7400
 2440              	.LASF96:
 2441 0572 49544D5F 		.ascii	"ITM_RxBuffer\000"
 2441      52784275 
 2441      66666572 
 2441      00
 2442              	.LASF45:
 2443 057f 504C4C53 		.ascii	"PLLSAICFGR\000"
 2443      41494346 
 2443      475200
 2444              	.LASF38:
 2445 058a 41504231 		.ascii	"APB1LPENR\000"
 2445      4C50454E 
 2445      5200
 2446              	.LASF54:
 2447 0594 69637573 		.ascii	"icustate_t\000"
 2447      74617465 
 2447      5F7400
 2448              	.LASF51:
 2449 059f 4943555F 		.ascii	"ICU_WAITING\000"
 2449      57414954 
 2449      494E4700 
 2450              		.ident	"GCC: (GNU Tools for ARM Embedded Processors) 4.8.4 20140526 (release) [ARM/embedded-4_8-br
ARM GAS  C:\Users\jsyoon\AppData\Local\Temp\ccw7Mq7c.s 			page 49


DEFINED SYMBOLS
                            *ABS*:00000000 icu_lld.c
C:\Users\jsyoon\AppData\Local\Temp\ccw7Mq7c.s:21     .text.VectorB4:00000000 $t
C:\Users\jsyoon\AppData\Local\Temp\ccw7Mq7c.s:27     .text.VectorB4:00000000 VectorB4
C:\Users\jsyoon\AppData\Local\Temp\ccw7Mq7c.s:155    .text.VectorB4:00000088 $d
C:\Users\jsyoon\AppData\Local\Temp\ccw7Mq7c.s:162    .text.icu_lld_init:00000000 $t
C:\Users\jsyoon\AppData\Local\Temp\ccw7Mq7c.s:168    .text.icu_lld_init:00000000 icu_lld_init
C:\Users\jsyoon\AppData\Local\Temp\ccw7Mq7c.s:190    .text.icu_lld_init:00000010 $d
C:\Users\jsyoon\AppData\Local\Temp\ccw7Mq7c.s:196    .text.icu_lld_start:00000000 $t
C:\Users\jsyoon\AppData\Local\Temp\ccw7Mq7c.s:202    .text.icu_lld_start:00000000 icu_lld_start
C:\Users\jsyoon\AppData\Local\Temp\ccw7Mq7c.s:365    .text.icu_lld_start:000000b0 $d
C:\Users\jsyoon\AppData\Local\Temp\ccw7Mq7c.s:372    .text.icu_lld_stop:00000000 $t
C:\Users\jsyoon\AppData\Local\Temp\ccw7Mq7c.s:378    .text.icu_lld_stop:00000000 icu_lld_stop
C:\Users\jsyoon\AppData\Local\Temp\ccw7Mq7c.s:427    .text.icu_lld_stop:0000002c $d
C:\Users\jsyoon\AppData\Local\Temp\ccw7Mq7c.s:433    .text.icu_lld_enable:00000000 $t
C:\Users\jsyoon\AppData\Local\Temp\ccw7Mq7c.s:439    .text.icu_lld_enable:00000000 icu_lld_enable
C:\Users\jsyoon\AppData\Local\Temp\ccw7Mq7c.s:519    .text.icu_lld_disable:00000000 $t
C:\Users\jsyoon\AppData\Local\Temp\ccw7Mq7c.s:525    .text.icu_lld_disable:00000000 icu_lld_disable
C:\Users\jsyoon\AppData\Local\Temp\ccw7Mq7c.s:553    .bss.ICUD3:00000000 ICUD3
C:\Users\jsyoon\AppData\Local\Temp\ccw7Mq7c.s:549    .bss.ICUD3:00000000 $d
                     .debug_frame:00000010 $d
C:\Users\jsyoon\AppData\Local\Temp\ccw7Mq7c.s:161    .text.VectorB4:0000008c $t
C:\Users\jsyoon\AppData\Local\Temp\ccw7Mq7c.s:195    .text.icu_lld_init:00000018 $t
C:\Users\jsyoon\AppData\Local\Temp\ccw7Mq7c.s:371    .text.icu_lld_start:000000bc $t
C:\Users\jsyoon\AppData\Local\Temp\ccw7Mq7c.s:432    .text.icu_lld_stop:00000034 $t

UNDEFINED SYMBOLS
_port_irq_epilogue
icuObjectInit
nvicEnableVector
nvicDisableVector
