ARM GAS  C:\Users\jsyoon\AppData\Local\Temp\ccw7Mq7c.s 			page 1


   1              		.syntax unified
   2              		.cpu cortex-m4
   3              		.eabi_attribute 27, 3
   4              		.eabi_attribute 28, 1
   5              		.fpu fpv4-sp-d16
   6              		.eabi_attribute 20, 1
   7              		.eabi_attribute 21, 1
   8              		.eabi_attribute 23, 3
   9              		.eabi_attribute 24, 1
  10              		.eabi_attribute 25, 1
  11              		.eabi_attribute 26, 1
  12              		.eabi_attribute 30, 2
  13              		.eabi_attribute 34, 1
  14              		.eabi_attribute 18, 4
  15              		.thumb
  16              		.file	"icu_lld.c"
  17              		.text
  18              	.Ltext0:
  19              		.cfi_sections	.debug_frame
  20              		.section	.text.VectorB4,"ax",%progbits
  21              		.align	2
  22              		.p2align 4,,15
  23              		.global	VectorB4
  24              		.thumb
  25              		.thumb_func
  26              		.type	VectorB4, %function
  27              	VectorB4:
  28              	.LFB119:
  29              		.file 1 "ChibiOS_2.6.6/os/hal/platforms/STM32/TIMv1/icu_lld.c"
  30              		.loc 1 212 0
  31              		.cfi_startproc
  32              		@ args = 0, pretend = 0, frame = 0
  33              		@ frame_needed = 0, uses_anonymous_args = 0
  34              	.LVL0:
  35 0000 38B5     		push	{r3, r4, r5, lr}
  36              		.cfi_def_cfa_offset 16
  37              		.cfi_offset 3, -16
  38              		.cfi_offset 4, -12
  39              		.cfi_offset 5, -8
  40              		.cfi_offset 14, -4
  41              	.LBB8:
  42              	.LBB9:
  43              		.loc 1 114 0
  44 0002 214C     		ldr	r4, .L34
  45 0004 E368     		ldr	r3, [r4, #12]
  46              		.loc 1 117 0
  47 0006 6268     		ldr	r2, [r4, #4]
  48              		.loc 1 114 0
  49 0008 1869     		ldr	r0, [r3, #16]
  50              	.LVL1:
  51              		.loc 1 115 0
  52 000a DD68     		ldr	r5, [r3, #12]
  53              		.loc 1 117 0
  54 000c 117D     		ldrb	r1, [r2, #20]	@ zero_extendqisi2
  55              		.loc 1 115 0
  56 000e 0540     		ands	r5, r5, r0
  57 0010 ADB2     		uxth	r5, r5
ARM GAS  C:\Users\jsyoon\AppData\Local\Temp\ccw7Mq7c.s 			page 2


  58              	.LVL2:
  59              		.loc 1 116 0
  60 0012 E8B2     		uxtb	r0, r5
  61 0014 C043     		mvns	r0, r0
  62 0016 1861     		str	r0, [r3, #16]
  63              		.loc 1 117 0
  64 0018 A9B9     		cbnz	r1, .L2
  65              		.loc 1 118 0
  66 001a AB07     		lsls	r3, r5, #30
  67 001c 07D5     		bpl	.L4
  68              	.LBB10:
  69              		.loc 1 119 0
  70 001e 2378     		ldrb	r3, [r4]	@ zero_extendqisi2
  71              	.LVL3:
  72 0020 0421     		movs	r1, #4
  73 0022 032B     		cmp	r3, #3
  74 0024 2170     		strb	r1, [r4]
  75 0026 02D0     		beq	.L4
  76 0028 D368     		ldr	r3, [r2, #12]
  77 002a 2046     		mov	r0, r4
  78 002c 9847     		blx	r3
  79              	.LVL4:
  80              	.L4:
  81              	.LBE10:
  82              		.loc 1 120 0
  83 002e 6807     		lsls	r0, r5, #29
  84 0030 1FD4     		bmi	.L33
  85              	.L7:
  86              		.loc 1 128 0
  87 0032 EB07     		lsls	r3, r5, #31
  88 0034 03D5     		bpl	.L10
  89              		.loc 1 129 0
  90 0036 6368     		ldr	r3, [r4, #4]
  91 0038 1348     		ldr	r0, .L34
  92 003a 1B69     		ldr	r3, [r3, #16]
  93 003c 9847     		blx	r3
  94              	.LVL5:
  95              	.L10:
  96              	.LBE9:
  97              	.LBE8:
  98              		.loc 1 219 0
  99 003e BDE83840 		pop	{r3, r4, r5, lr}
 100              	.LVL6:
 101              		.loc 1 218 0
 102 0042 FFF7FEBF 		b	_port_irq_epilogue
 103              	.LVL7:
 104              	.L2:
 105              	.LBB13:
 106              	.LBB12:
 107              		.loc 1 123 0
 108 0046 A907     		lsls	r1, r5, #30
 109 0048 07D5     		bpl	.L9
 110              		.loc 1 124 0
 111 004a 2378     		ldrb	r3, [r4]	@ zero_extendqisi2
 112 004c 032B     		cmp	r3, #3
 113 004e 04D0     		beq	.L9
 114 0050 0521     		movs	r1, #5
ARM GAS  C:\Users\jsyoon\AppData\Local\Temp\ccw7Mq7c.s 			page 3


 115 0052 9368     		ldr	r3, [r2, #8]
 116 0054 2170     		strb	r1, [r4]
 117 0056 2046     		mov	r0, r4
 118 0058 9847     		blx	r3
 119              	.LVL8:
 120              	.L9:
 121              		.loc 1 125 0
 122 005a 6A07     		lsls	r2, r5, #29
 123 005c E9D5     		bpl	.L7
 124              	.LBB11:
 125              		.loc 1 126 0
 126 005e 2378     		ldrb	r3, [r4]	@ zero_extendqisi2
 127              	.LVL9:
 128 0060 0948     		ldr	r0, .L34
 129 0062 0422     		movs	r2, #4
 130 0064 032B     		cmp	r3, #3
 131 0066 2270     		strb	r2, [r4]
 132 0068 E3D0     		beq	.L7
 133 006a 4368     		ldr	r3, [r0, #4]
 134 006c DB68     		ldr	r3, [r3, #12]
 135 006e 9847     		blx	r3
 136              	.LVL10:
 137 0070 DFE7     		b	.L7
 138              	.L33:
 139              	.LBE11:
 140              		.loc 1 121 0
 141 0072 2378     		ldrb	r3, [r4]	@ zero_extendqisi2
 142 0074 0448     		ldr	r0, .L34
 143 0076 032B     		cmp	r3, #3
 144 0078 DBD0     		beq	.L7
 145 007a 4368     		ldr	r3, [r0, #4]
 146 007c 0522     		movs	r2, #5
 147 007e 9B68     		ldr	r3, [r3, #8]
 148 0080 0270     		strb	r2, [r0]
 149 0082 9847     		blx	r3
 150              	.LVL11:
 151 0084 D5E7     		b	.L7
 152              	.L35:
 153 0086 00BF     		.align	2
 154              	.L34:
 155 0088 00000000 		.word	.LANCHOR0
 156              	.LBE12:
 157              	.LBE13:
 158              		.cfi_endproc
 159              	.LFE119:
 160              		.size	VectorB4, .-VectorB4
 161 008c AFF30080 		.section	.text.icu_lld_init,"ax",%progbits
 162              		.align	2
 163              		.p2align 4,,15
 164              		.global	icu_lld_init
 165              		.thumb
 166              		.thumb_func
 167              		.type	icu_lld_init, %function
 168              	icu_lld_init:
 169              	.LFB120:
 170              		.loc 1 339 0
 171              		.cfi_startproc
ARM GAS  C:\Users\jsyoon\AppData\Local\Temp\ccw7Mq7c.s 			page 4


 172              		@ args = 0, pretend = 0, frame = 0
 173              		@ frame_needed = 0, uses_anonymous_args = 0
 174 0000 10B5     		push	{r4, lr}
 175              		.cfi_def_cfa_offset 8
 176              		.cfi_offset 4, -8
 177              		.cfi_offset 14, -4
 178              		.loc 1 355 0
 179 0002 034C     		ldr	r4, .L37
 180 0004 2046     		mov	r0, r4
 181 0006 FFF7FEFF 		bl	icuObjectInit
 182              	.LVL12:
 183              		.loc 1 356 0
 184 000a 024B     		ldr	r3, .L37+4
 185 000c E360     		str	r3, [r4, #12]
 186 000e 10BD     		pop	{r4, pc}
 187              	.L38:
 188              		.align	2
 189              	.L37:
 190 0010 00000000 		.word	.LANCHOR0
 191 0014 00040040 		.word	1073742848
 192              		.cfi_endproc
 193              	.LFE120:
 194              		.size	icu_lld_init, .-icu_lld_init
 195 0018 AFF30080 		.section	.text.icu_lld_start,"ax",%progbits
 195      AFF30080 
 196              		.align	2
 197              		.p2align 4,,15
 198              		.global	icu_lld_start
 199              		.thumb
 200              		.thumb_func
 201              		.type	icu_lld_start, %function
 202              	icu_lld_start:
 203              	.LFB121:
 204              		.loc 1 391 0
 205              		.cfi_startproc
 206              		@ args = 0, pretend = 0, frame = 0
 207              		@ frame_needed = 0, uses_anonymous_args = 0
 208              	.LVL13:
 209 0000 F8B5     		push	{r3, r4, r5, r6, r7, lr}
 210              		.cfi_def_cfa_offset 24
 211              		.cfi_offset 3, -24
 212              		.cfi_offset 4, -20
 213              		.cfi_offset 5, -16
 214              		.cfi_offset 6, -12
 215              		.cfi_offset 7, -8
 216              		.cfi_offset 14, -4
 217              		.loc 1 398 0
 218 0002 0378     		ldrb	r3, [r0]	@ zero_extendqisi2
 219 0004 012B     		cmp	r3, #1
 220              		.loc 1 391 0
 221 0006 0446     		mov	r4, r0
 222              		.loc 1 398 0
 223 0008 3BD0     		beq	.L50
 224              		.loc 1 478 0
 225 000a C368     		ldr	r3, [r0, #12]
 226 000c 0022     		movs	r2, #0
 227 000e 1A60     		str	r2, [r3]
ARM GAS  C:\Users\jsyoon\AppData\Local\Temp\ccw7Mq7c.s 			page 5


 228              		.loc 1 479 0
 229 0010 5A63     		str	r2, [r3, #52]
 230              		.loc 1 480 0
 231 0012 9A63     		str	r2, [r3, #56]
 232              		.loc 1 481 0
 233 0014 5A62     		str	r2, [r3, #36]
 234              	.LVL14:
 235              	.L42:
 236              		.loc 1 486 0
 237 0016 6268     		ldr	r2, [r4, #4]
 238              		.loc 1 488 0
 239 0018 A568     		ldr	r5, [r4, #8]
 240 001a 5068     		ldr	r0, [r2, #4]
 241              		.loc 1 486 0
 242 001c 9169     		ldr	r1, [r2, #24]
 243              		.loc 1 495 0
 244 001e 167D     		ldrb	r6, [r2, #20]	@ zero_extendqisi2
 245              		.loc 1 508 0
 246 0020 1278     		ldrb	r2, [r2]	@ zero_extendqisi2
 247              		.loc 1 488 0
 248 0022 B5FBF0F0 		udiv	r0, r5, r0
 249 0026 0138     		subs	r0, r0, #1
 250              		.loc 1 492 0
 251 0028 80B2     		uxth	r0, r0
 252              		.loc 1 486 0
 253 002a 21F0FF01 		bic	r1, r1, #255
 254              		.loc 1 485 0
 255 002e 0025     		movs	r5, #0
 256              		.loc 1 493 0
 257 0030 4FF6FF77 		movw	r7, #65535
 258              		.loc 1 485 0
 259 0034 1D61     		str	r5, [r3, #16]
 260              		.loc 1 486 0
 261 0036 D960     		str	r1, [r3, #12]
 262              		.loc 1 492 0
 263 0038 9862     		str	r0, [r3, #40]
 264              		.loc 1 493 0
 265 003a DF62     		str	r7, [r3, #44]
 266              		.loc 1 495 0
 267 003c 6EB9     		cbnz	r6, .L43
 268              		.loc 1 499 0
 269 003e 40F20120 		movw	r0, #513
 270              		.loc 1 503 0
 271 0042 5421     		movs	r1, #84
 272              		.loc 1 499 0
 273 0044 9861     		str	r0, [r3, #24]
 274              		.loc 1 503 0
 275 0046 9960     		str	r1, [r3, #8]
 276              		.loc 1 508 0
 277 0048 C2B1     		cbz	r2, .L51
 278              		.loc 1 512 0
 279 004a 1322     		movs	r2, #19
 280 004c 1A62     		str	r2, [r3, #32]
 281              	.L45:
 282              		.loc 1 517 0 discriminator 1
 283 004e 03F13802 		add	r2, r3, #56
 284              		.loc 1 518 0 discriminator 1
ARM GAS  C:\Users\jsyoon\AppData\Local\Temp\ccw7Mq7c.s 			page 6


 285 0052 3433     		adds	r3, r3, #52
 286              		.loc 1 517 0 discriminator 1
 287 0054 2261     		str	r2, [r4, #16]
 288              		.loc 1 518 0 discriminator 1
 289 0056 6361     		str	r3, [r4, #20]
 290 0058 F8BD     		pop	{r3, r4, r5, r6, r7, pc}
 291              	.LVL15:
 292              	.L43:
 293              		.loc 1 523 0
 294 005a 4FF48170 		mov	r0, #258
 295              		.loc 1 527 0
 296 005e 6421     		movs	r1, #100
 297              		.loc 1 523 0
 298 0060 9861     		str	r0, [r3, #24]
 299              		.loc 1 527 0
 300 0062 9960     		str	r1, [r3, #8]
 301              		.loc 1 532 0
 302 0064 3AB1     		cbz	r2, .L52
 303              		.loc 1 536 0
 304 0066 3122     		movs	r2, #49
 305 0068 1A62     		str	r2, [r3, #32]
 306              	.L48:
 307              		.loc 1 541 0
 308 006a 03F13402 		add	r2, r3, #52
 309              		.loc 1 542 0
 310 006e 3833     		adds	r3, r3, #56
 311              		.loc 1 541 0
 312 0070 2261     		str	r2, [r4, #16]
 313              		.loc 1 542 0
 314 0072 6361     		str	r3, [r4, #20]
 315 0074 F8BD     		pop	{r3, r4, r5, r6, r7, pc}
 316              	.LVL16:
 317              	.L52:
 318              		.loc 1 533 0
 319 0076 1322     		movs	r2, #19
 320 0078 1A62     		str	r2, [r3, #32]
 321 007a F6E7     		b	.L48
 322              	.L51:
 323              		.loc 1 509 0
 324 007c 3122     		movs	r2, #49
 325 007e 1A62     		str	r2, [r3, #32]
 326 0080 E5E7     		b	.L45
 327              	.LVL17:
 328              	.L50:
 329              		.loc 1 425 0
 330 0082 0B4B     		ldr	r3, .L53
 331 0084 9842     		cmp	r0, r3
 332 0086 01D0     		beq	.L41
 333              	.LVL18:
 334              	.L49:
 335 0088 E368     		ldr	r3, [r4, #12]
 336 008a C4E7     		b	.L42
 337              	.LVL19:
 338              	.L41:
 339              		.loc 1 426 0
 340 008c 094B     		ldr	r3, .L53+4
 341 008e 1A6C     		ldr	r2, [r3, #64]
ARM GAS  C:\Users\jsyoon\AppData\Local\Temp\ccw7Mq7c.s 			page 7


 342 0090 42F00202 		orr	r2, r2, #2
 343 0094 1A64     		str	r2, [r3, #64]
 344              		.loc 1 427 0
 345 0096 196A     		ldr	r1, [r3, #32]
 346 0098 0022     		movs	r2, #0
 347 009a 41F00201 		orr	r1, r1, #2
 348 009e 1962     		str	r1, [r3, #32]
 349              		.loc 1 428 0
 350 00a0 1D20     		movs	r0, #29
 351              	.LVL20:
 352              		.loc 1 427 0
 353 00a2 1A62     		str	r2, [r3, #32]
 354              		.loc 1 428 0
 355 00a4 7021     		movs	r1, #112
 356 00a6 FFF7FEFF 		bl	nvicEnableVector
 357              	.LVL21:
 358              		.loc 1 430 0
 359 00aa 034B     		ldr	r3, .L53+8
 360 00ac A360     		str	r3, [r4, #8]
 361 00ae EBE7     		b	.L49
 362              	.L54:
 363              		.align	2
 364              	.L53:
 365 00b0 00000000 		.word	.LANCHOR0
 366 00b4 00380240 		.word	1073887232
 367 00b8 00BD0105 		.word	84000000
 368              		.cfi_endproc
 369              	.LFE121:
 370              		.size	icu_lld_start, .-icu_lld_start
 371 00bc AFF30080 		.section	.text.icu_lld_stop,"ax",%progbits
 372              		.align	2
 373              		.p2align 4,,15
 374              		.global	icu_lld_stop
 375              		.thumb
 376              		.thumb_func
 377              		.type	icu_lld_stop, %function
 378              	icu_lld_stop:
 379              	.LFB122:
 380              		.loc 1 553 0
 381              		.cfi_startproc
 382              		@ args = 0, pretend = 0, frame = 0
 383              		@ frame_needed = 0, uses_anonymous_args = 0
 384              	.LVL22:
 385 0000 08B5     		push	{r3, lr}
 386              		.cfi_def_cfa_offset 8
 387              		.cfi_offset 3, -8
 388              		.cfi_offset 14, -4
 389              		.loc 1 555 0
 390 0002 0378     		ldrb	r3, [r0]	@ zero_extendqisi2
 391 0004 022B     		cmp	r3, #2
 392 0006 00D0     		beq	.L59
 393              	.LVL23:
 394              	.L55:
 395 0008 08BD     		pop	{r3, pc}
 396              	.LVL24:
 397              	.L59:
 398              		.loc 1 575 0
ARM GAS  C:\Users\jsyoon\AppData\Local\Temp\ccw7Mq7c.s 			page 8


 399 000a 0849     		ldr	r1, .L60
 400              		.loc 1 557 0
 401 000c C368     		ldr	r3, [r0, #12]
 402 000e 0022     		movs	r2, #0
 403              		.loc 1 575 0
 404 0010 8842     		cmp	r0, r1
 405              		.loc 1 557 0
 406 0012 1A60     		str	r2, [r3]
 407              		.loc 1 558 0
 408 0014 DA60     		str	r2, [r3, #12]
 409              		.loc 1 559 0
 410 0016 1A61     		str	r2, [r3, #16]
 411              		.loc 1 575 0
 412 0018 F6D1     		bne	.L55
 413              		.loc 1 576 0
 414 001a 1D20     		movs	r0, #29
 415              	.LVL25:
 416 001c FFF7FEFF 		bl	nvicDisableVector
 417              	.LVL26:
 418              		.loc 1 577 0
 419 0020 034B     		ldr	r3, .L60+4
 420 0022 1A6C     		ldr	r2, [r3, #64]
 421 0024 22F00202 		bic	r2, r2, #2
 422 0028 1A64     		str	r2, [r3, #64]
 423 002a EDE7     		b	.L55
 424              	.L61:
 425              		.align	2
 426              	.L60:
 427 002c 00000000 		.word	.LANCHOR0
 428 0030 00380240 		.word	1073887232
 429              		.cfi_endproc
 430              	.LFE122:
 431              		.size	icu_lld_stop, .-icu_lld_stop
 432 0034 AFF30080 		.section	.text.icu_lld_enable,"ax",%progbits
 432      AFF30080 
 432      AFF30080 
 433              		.align	2
 434              		.p2align 4,,15
 435              		.global	icu_lld_enable
 436              		.thumb
 437              		.thumb_func
 438              		.type	icu_lld_enable, %function
 439              	icu_lld_enable:
 440              	.LFB123:
 441              		.loc 1 615 0
 442              		.cfi_startproc
 443              		@ args = 0, pretend = 0, frame = 0
 444              		@ frame_needed = 0, uses_anonymous_args = 0
 445              		@ link register save eliminated.
 446              	.LVL27:
 447              		.loc 1 617 0
 448 0000 C368     		ldr	r3, [r0, #12]
 449              		.loc 1 619 0
 450 0002 4268     		ldr	r2, [r0, #4]
 451              		.loc 1 617 0
 452 0004 5869     		ldr	r0, [r3, #20]
 453              	.LVL28:
ARM GAS  C:\Users\jsyoon\AppData\Local\Temp\ccw7Mq7c.s 			page 9


 454              		.loc 1 619 0
 455 0006 117D     		ldrb	r1, [r2, #20]	@ zero_extendqisi2
 456              		.loc 1 615 0
 457 0008 10B4     		push	{r4}
 458              		.cfi_def_cfa_offset 4
 459              		.cfi_offset 4, -4
 460              		.loc 1 617 0
 461 000a 40F00100 		orr	r0, r0, #1
 462              		.loc 1 618 0
 463 000e 0024     		movs	r4, #0
 464              		.loc 1 617 0
 465 0010 5861     		str	r0, [r3, #20]
 466              		.loc 1 618 0
 467 0012 1C61     		str	r4, [r3, #16]
 468              		.loc 1 619 0
 469 0014 B1B9     		cbnz	r1, .L63
 470              		.loc 1 620 0
 471 0016 D168     		ldr	r1, [r2, #12]
 472 0018 19B1     		cbz	r1, .L64
 473              		.loc 1 621 0
 474 001a D968     		ldr	r1, [r3, #12]
 475 001c 41F00201 		orr	r1, r1, #2
 476 0020 D960     		str	r1, [r3, #12]
 477              	.L64:
 478              		.loc 1 622 0
 479 0022 9168     		ldr	r1, [r2, #8]
 480 0024 19B1     		cbz	r1, .L66
 481              	.L82:
 482              		.loc 1 628 0
 483 0026 D968     		ldr	r1, [r3, #12]
 484 0028 41F00401 		orr	r1, r1, #4
 485 002c D960     		str	r1, [r3, #12]
 486              	.L66:
 487              		.loc 1 630 0
 488 002e 1269     		ldr	r2, [r2, #16]
 489 0030 1AB1     		cbz	r2, .L69
 490              		.loc 1 631 0
 491 0032 DA68     		ldr	r2, [r3, #12]
 492 0034 42F00102 		orr	r2, r2, #1
 493 0038 DA60     		str	r2, [r3, #12]
 494              	.L69:
 495              		.loc 1 632 0
 496 003a 0522     		movs	r2, #5
 497 003c 1A60     		str	r2, [r3]
 498              		.loc 1 633 0
 499 003e 5DF8044B 		ldr	r4, [sp], #4
 500 0042 7047     		bx	lr
 501              	.L63:
 502              		.loc 1 625 0
 503 0044 9168     		ldr	r1, [r2, #8]
 504 0046 19B1     		cbz	r1, .L67
 505              		.loc 1 626 0
 506 0048 D968     		ldr	r1, [r3, #12]
 507 004a 41F00201 		orr	r1, r1, #2
 508 004e D960     		str	r1, [r3, #12]
 509              	.L67:
 510              		.loc 1 627 0
ARM GAS  C:\Users\jsyoon\AppData\Local\Temp\ccw7Mq7c.s 			page 10


 511 0050 D168     		ldr	r1, [r2, #12]
 512 0052 0029     		cmp	r1, #0
 513 0054 E7D1     		bne	.L82
 514 0056 EAE7     		b	.L66
 515              		.cfi_endproc
 516              	.LFE123:
 517              		.size	icu_lld_enable, .-icu_lld_enable
 518 0058 AFF30080 		.section	.text.icu_lld_disable,"ax",%progbits
 518      AFF30080 
 519              		.align	2
 520              		.p2align 4,,15
 521              		.global	icu_lld_disable
 522              		.thumb
 523              		.thumb_func
 524              		.type	icu_lld_disable, %function
 525              	icu_lld_disable:
 526              	.LFB124:
 527              		.loc 1 642 0
 528              		.cfi_startproc
 529              		@ args = 0, pretend = 0, frame = 0
 530              		@ frame_needed = 0, uses_anonymous_args = 0
 531              		@ link register save eliminated.
 532              	.LVL29:
 533              		.loc 1 644 0
 534 0000 C368     		ldr	r3, [r0, #12]
 535 0002 0022     		movs	r2, #0
 536 0004 1A60     		str	r2, [r3]
 537              		.loc 1 645 0
 538 0006 1A61     		str	r2, [r3, #16]
 539              		.loc 1 648 0
 540 0008 DA68     		ldr	r2, [r3, #12]
 541 000a 22F0FF02 		bic	r2, r2, #255
 542 000e DA60     		str	r2, [r3, #12]
 543 0010 7047     		bx	lr
 544              		.cfi_endproc
 545              	.LFE124:
 546              		.size	icu_lld_disable, .-icu_lld_disable
 547              		.global	ICUD3
 548 0012 00BFAFF3 		.section	.bss.ICUD3,"aw",%nobits
 548      0080AFF3 
 548      0080AFF3 
 548      0080
 549              		.align	2
 550              		.set	.LANCHOR0,. + 0
 551              		.type	ICUD3, %object
 552              		.size	ICUD3, 24
 553              	ICUD3:
 554 0000 00000000 		.space	24
 554      00000000 
 554      00000000 
 554      00000000 
 554      00000000 
 555              		.text
 556              	.Letext0:
 557              		.file 2 "c:\\crosstools\\gcc-arm-embedded\\4.8_2014q2\\arm-none-eabi\\include\\machine\\_default_t
 558              		.file 3 "c:\\crosstools\\gcc-arm-embedded\\4.8_2014q2\\arm-none-eabi\\include\\stdint.h"
 559              		.file 4 "ChibiOS_2.6.6/os/hal/platforms/STM32F4xx/stm32f4xx.h"
ARM GAS  C:\Users\jsyoon\AppData\Local\Temp\ccw7Mq7c.s 			page 11


 560              		.file 5 "ChibiOS_2.6.6/os/hal/include/icu.h"
 561              		.file 6 "ChibiOS_2.6.6/os/hal/platforms/STM32/TIMv1/icu_lld.h"
 562              		.file 7 "ChibiOS_2.6.6/os/hal/platforms/STM32/TIMv1/stm32_tim.h"
 563              		.file 8 "ChibiOS_2.6.6/os/ports/common/ARMCMx/CMSIS/include/core_cm4.h"
 564              		.file 9 "ChibiOS_2.6.6/os/ports/common/ARMCMx/nvic.h"
 565              		.file 10 "ChibiOS_2.6.6/os/ports/GCC/ARMCMx/chcore_v7m.h"