ARM GAS  C:\Users\jsyoon\AppData\Local\Temp\cccZW9Eu.s 			page 1


   1              		.syntax unified
   2              		.cpu cortex-m4
   3              		.eabi_attribute 27, 3
   4              		.eabi_attribute 28, 1
   5              		.fpu fpv4-sp-d16
   6              		.eabi_attribute 20, 1
   7              		.eabi_attribute 21, 1
   8              		.eabi_attribute 23, 3
   9              		.eabi_attribute 24, 1
  10              		.eabi_attribute 25, 1
  11              		.eabi_attribute 26, 1
  12              		.eabi_attribute 30, 2
  13              		.eabi_attribute 34, 1
  14              		.eabi_attribute 18, 4
  15              		.thumb
  16              		.file	"irq_handlers.c"
  17              		.text
  18              	.Ltext0:
  19              		.cfi_sections	.debug_frame
  20              		.section	.text.Vector11C,"ax",%progbits
  21              		.align	2
  22              		.p2align 4,,15
  23              		.global	Vector11C
  24              		.thumb
  25              		.thumb_func
  26              		.type	Vector11C, %function
  27              	Vector11C:
  28              	.LFB118:
  29              		.file 1 "irq_handlers.c"
  30              		.loc 1 27 0
  31              		.cfi_startproc
  32              		@ args = 0, pretend = 0, frame = 0
  33              		@ frame_needed = 0, uses_anonymous_args = 0
  34 0000 08B5     		push	{r3, lr}
  35              		.cfi_def_cfa_offset 8
  36              		.cfi_offset 3, -8
  37              		.cfi_offset 14, -4
  38              		.loc 1 29 0
  39 0002 0548     		ldr	r0, .L2
  40 0004 0121     		movs	r1, #1
  41 0006 FFF7FEFF 		bl	TIM_ClearITPendingBit
  42              	.LVL0:
  43              		.loc 1 30 0
  44 000a FFF7FEFF 		bl	servo_irq
  45              	.LVL1:
  46              		.loc 1 32 0
  47 000e BDE80840 		pop	{r3, lr}
  48              		.loc 1 31 0
  49 0012 FFF7FEBF 		b	_port_irq_epilogue
  50              	.LVL2:
  51              	.L3:
  52 0016 00BF     		.align	2
  53              	.L2:
  54 0018 00140040 		.word	1073746944
  55              		.cfi_endproc
  56              	.LFE118:
  57              		.size	Vector11C, .-Vector11C
ARM GAS  C:\Users\jsyoon\AppData\Local\Temp\cccZW9Eu.s 			page 2


  58 001c AFF30080 		.section	.text.Vector88,"ax",%progbits
  59              		.align	2
  60              		.p2align 4,,15
  61              		.global	Vector88
  62              		.thumb
  63              		.thumb_func
  64              		.type	Vector88, %function
  65              	Vector88:
  66              	.LFB119:
  67              		.loc 1 34 0
  68              		.cfi_startproc
  69              		@ args = 0, pretend = 0, frame = 0
  70              		@ frame_needed = 0, uses_anonymous_args = 0
  71 0000 08B5     		push	{r3, lr}
  72              		.cfi_def_cfa_offset 8
  73              		.cfi_offset 3, -8
  74              		.cfi_offset 14, -4
  75              		.loc 1 36 0
  76 0002 0548     		ldr	r0, .L5
  77 0004 40F20741 		movw	r1, #1031
  78 0008 FFF7FEFF 		bl	ADC_ClearITPendingBit
  79              	.LVL3:
  80              		.loc 1 37 0
  81 000c FFF7FEFF 		bl	mcpwm_adc_inj_int_handler
  82              	.LVL4:
  83              		.loc 1 39 0
  84 0010 BDE80840 		pop	{r3, lr}
  85              		.loc 1 38 0
  86 0014 FFF7FEBF 		b	_port_irq_epilogue
  87              	.LVL5:
  88              	.L6:
  89              		.align	2
  90              	.L5:
  91 0018 00200140 		.word	1073815552
  92              		.cfi_endproc
  93              	.LFE119:
  94              		.size	Vector88, .-Vector88
  95 001c AFF30080 		.section	.text.VectorE0,"ax",%progbits
  96              		.align	2
  97              		.p2align 4,,15
  98              		.global	VectorE0
  99              		.thumb
 100              		.thumb_func
 101              		.type	VectorE0, %function
 102              	VectorE0:
 103              	.LFB120:
 104              		.loc 1 41 0
 105              		.cfi_startproc
 106              		@ args = 0, pretend = 0, frame = 0
 107              		@ frame_needed = 0, uses_anonymous_args = 0
 108 0000 08B5     		push	{r3, lr}
 109              		.cfi_def_cfa_offset 8
 110              		.cfi_offset 3, -8
 111              		.cfi_offset 14, -4
 112              		.loc 1 42 0
 113 0002 4FF40060 		mov	r0, #2048
 114 0006 FFF7FEFF 		bl	EXTI_GetITStatus
ARM GAS  C:\Users\jsyoon\AppData\Local\Temp\cccZW9Eu.s 			page 3


 115              	.LVL6:
 116 000a 00B9     		cbnz	r0, .L10
 117 000c 08BD     		pop	{r3, pc}
 118              	.L10:
 119              		.loc 1 44 0
 120 000e 044B     		ldr	r3, .L11
 121 0010 0022     		movs	r2, #0
 122 0012 5A62     		str	r2, [r3, #36]
 123              		.loc 1 47 0
 124 0014 4FF40060 		mov	r0, #2048
 125              		.loc 1 49 0
 126 0018 BDE80840 		pop	{r3, lr}
 127              		.loc 1 47 0
 128 001c FFF7FEBF 		b	EXTI_ClearITPendingBit
 129              	.LVL7:
 130              	.L12:
 131              		.align	2
 132              	.L11:
 133 0020 00080040 		.word	1073743872
 134              		.cfi_endproc
 135              	.LFE120:
 136              		.size	VectorE0, .-VectorE0
 137 0024 AFF30080 		.text
 137      AFF30080 
 137      AFF30080 
 138              	.Letext0:
 139              		.file 2 "c:\\crosstools\\gcc-arm-embedded\\4.8_2014q2\\arm-none-eabi\\include\\machine\\_default_t
 140              		.file 3 "c:\\crosstools\\gcc-arm-embedded\\4.8_2014q2\\arm-none-eabi\\include\\stdint.h"
 141              		.file 4 "ChibiOS_2.6.6/os/hal/platforms/STM32F4xx/stm32f4xx.h"
 142              		.file 5 "servo.h"
 143              		.file 6 "ChibiOS_2.6.6/os/ports/GCC/ARMCMx/chcore_v7m.h"
 144              		.file 7 "ChibiOS_2.6.6/ext/stdperiph_stm32f4/inc/stm32f4xx_tim.h"
 145              		.file 8 "ChibiOS_2.6.6/ext/stdperiph_stm32f4/inc/stm32f4xx_adc.h"
 146              		.file 9 "mcpwm.h"
 147              		.file 10 "ChibiOS_2.6.6/os/ports/common/ARMCMx/CMSIS/include/core_cm4.h"
 148              		.file 11 "ChibiOS_2.6.6/ext/stdperiph_stm32f4/inc/stm32f4xx_exti.h"