ARM GAS  C:\Users\jsyoon\AppData\Local\Temp\ccendiwk.s 			page 1


   1              		.syntax unified
   2              		.cpu cortex-m4
   3              		.eabi_attribute 27, 3
   4              		.eabi_attribute 28, 1
   5              		.fpu fpv4-sp-d16
   6              		.eabi_attribute 20, 1
   7              		.eabi_attribute 21, 1
   8              		.eabi_attribute 23, 3
   9              		.eabi_attribute 24, 1
  10              		.eabi_attribute 25, 1
  11              		.eabi_attribute 26, 1
  12              		.eabi_attribute 30, 2
  13              		.eabi_attribute 34, 1
  14              		.eabi_attribute 18, 4
  15              		.thumb
  16              		.file	"ledpwm.c"
  17              		.text
  18              	.Ltext0:
  19              		.cfi_sections	.debug_frame
  20              		.section	.text.ledpwm_init,"ax",%progbits
  21              		.align	2
  22              		.p2align 4,,15
  23              		.global	ledpwm_init
  24              		.thumb
  25              		.thumb_func
  26              		.type	ledpwm_init, %function
  27              	ledpwm_init:
  28              	.LFB118:
  29              		.file 1 "ledpwm.c"
  30              		.loc 1 36 0
  31              		.cfi_startproc
  32              		@ args = 0, pretend = 0, frame = 0
  33              		@ frame_needed = 0, uses_anonymous_args = 0
  34 0000 38B5     		push	{r3, r4, r5, lr}
  35              		.cfi_def_cfa_offset 16
  36              		.cfi_offset 3, -16
  37              		.cfi_offset 4, -12
  38              		.cfi_offset 5, -8
  39              		.cfi_offset 14, -4
  40              		.loc 1 37 0
  41 0002 114B     		ldr	r3, .L5
  42 0004 114D     		ldr	r5, .L5+4
  43              		.loc 1 36 0
  44 0006 2DED028B 		fstmfdd	sp!, {d8}
  45              		.cfi_def_cfa_offset 24
  46              		.cfi_offset 80, -24
  47              		.loc 1 37 0
  48 000a 0024     		movs	r4, #0
  49              	.LBB2:
  50              		.loc 1 41 0
  51 000c 9FED108A 		flds	s16, .L5+8
  52              	.LBE2:
  53              		.loc 1 37 0
  54 0010 1C60     		str	r4, [r3]
  55 0012 5C60     		str	r4, [r3, #4]
  56              	.LVL0:
  57              	.L3:
ARM GAS  C:\Users\jsyoon\AppData\Local\Temp\ccendiwk.s 			page 2


  58              	.LBB3:
  59              		.loc 1 41 0 discriminator 2
  60 0014 07EE904A 		fmsr	s15, r4	@ int
  61 0018 B8EEE70A 		fsitos	s0, s15
  62 001c DFED0D0A 		flds	s1, .L5+12
  63 0020 80EE080A 		fdivs	s0, s0, s16
  64 0024 FFF7FEFF 		bl	powf
  65              	.LVL1:
  66 0028 20EE080A 		fmuls	s0, s0, s16
  67 002c FFF7FEFF 		bl	roundf
  68              	.LVL2:
  69 0030 BDEEC00A 		ftosizs	s0, s0
  70 0034 10EE103A 		fmrs	r3, s0	@ int
  71 0038 2B55     		strb	r3, [r5, r4]
  72              		.loc 1 40 0 discriminator 2
  73 003a 0134     		adds	r4, r4, #1
  74              	.LVL3:
  75 003c C92C     		cmp	r4, #201
  76 003e E9D1     		bne	.L3
  77              	.LBE3:
  78              		.loc 1 43 0
  79 0040 BDEC028B 		fldmfdd	sp!, {d8}
  80 0044 38BD     		pop	{r3, r4, r5, pc}
  81              	.LVL4:
  82              	.L6:
  83 0046 00BF     		.align	2
  84              	.L5:
  85 0048 00000000 		.word	.LANCHOR0
  86 004c 00000000 		.word	.LANCHOR1
  87 0050 00004843 		.word	1128792064
  88 0054 E4380E40 		.word	1074673892
  89              		.cfi_endproc
  90              	.LFE118:
  91              		.size	ledpwm_init, .-ledpwm_init
  92              		.section	.text.ledpwm_set_intensity,"ax",%progbits
  93              		.align	2
  94              		.p2align 4,,15
  95              		.global	ledpwm_set_intensity
  96              		.thumb
  97              		.thumb_func
  98              		.type	ledpwm_set_intensity, %function
  99              	ledpwm_set_intensity:
 100              	.LFB119:
 101              		.loc 1 51 0
 102              		.cfi_startproc
 103              		@ args = 0, pretend = 0, frame = 0
 104              		@ frame_needed = 0, uses_anonymous_args = 0
 105              		@ link register save eliminated.
 106              	.LVL5:
 107              		.loc 1 52 0
 108 0000 0128     		cmp	r0, #1
 109 0002 00D9     		bls	.L12
 110 0004 7047     		bx	lr
 111              	.L12:
 112              		.loc 1 56 0
 113 0006 B5EEC00A 		fcmpezs	s0
 114 000a F1EE10FA 		fmstat
ARM GAS  C:\Users\jsyoon\AppData\Local\Temp\ccendiwk.s 			page 3


 115 000e 0ED4     		bmi	.L10
 116              		.loc 1 60 0
 117 0010 F7EE007A 		fconsts	s15, #112
 118 0014 B4EEE70A 		fcmpes	s0, s15
 119 0018 F1EE10FA 		fmstat
 120 001c C8BF     		it	gt
 121 001e C823     		movgt	r3, #200
 122 0020 07DD     		ble	.L13
 123              	.LVL6:
 124              	.L9:
 125              		.loc 1 64 0
 126 0022 0849     		ldr	r1, .L14
 127 0024 084A     		ldr	r2, .L14+4
 128 0026 CB5C     		ldrb	r3, [r1, r3]	@ zero_extendqisi2
 129 0028 42F82030 		str	r3, [r2, r0, lsl #2]
 130 002c 7047     		bx	lr
 131              	.LVL7:
 132              	.L10:
 133 002e 0023     		movs	r3, #0
 134 0030 F7E7     		b	.L9
 135              	.L13:
 136 0032 DFED067A 		flds	s15, .L14+8
 137 0036 20EE270A 		fmuls	s0, s0, s15
 138              	.LVL8:
 139 003a BDEEC00A 		ftosizs	s0, s0
 140 003e 10EE103A 		fmrs	r3, s0	@ int
 141 0042 EEE7     		b	.L9
 142              	.L15:
 143              		.align	2
 144              	.L14:
 145 0044 00000000 		.word	.LANCHOR1
 146 0048 00000000 		.word	.LANCHOR0
 147 004c 00004843 		.word	1128792064
 148              		.cfi_endproc
 149              	.LFE119:
 150              		.size	ledpwm_set_intensity, .-ledpwm_set_intensity
 151              		.section	.text.ledpwm_led_on,"ax",%progbits
 152              		.align	2
 153              		.p2align 4,,15
 154              		.global	ledpwm_led_on
 155              		.thumb
 156              		.thumb_func
 157              		.type	ledpwm_led_on, %function
 158              	ledpwm_led_on:
 159              	.LFB120:
 160              		.loc 1 67 0
 161              		.cfi_startproc
 162              		@ args = 0, pretend = 0, frame = 0
 163              		@ frame_needed = 0, uses_anonymous_args = 0
 164              		@ link register save eliminated.
 165              	.LVL9:
 166              		.loc 1 68 0
 167 0000 0128     		cmp	r0, #1
 168 0002 03DC     		bgt	.L16
 169              		.loc 1 72 0
 170 0004 024B     		ldr	r3, .L18
 171 0006 C822     		movs	r2, #200
ARM GAS  C:\Users\jsyoon\AppData\Local\Temp\ccendiwk.s 			page 4


 172 0008 43F82020 		str	r2, [r3, r0, lsl #2]
 173              	.L16:
 174 000c 7047     		bx	lr
 175              	.L19:
 176 000e 00BF     		.align	2
 177              	.L18:
 178 0010 00000000 		.word	.LANCHOR0
 179              		.cfi_endproc
 180              	.LFE120:
 181              		.size	ledpwm_led_on, .-ledpwm_led_on
 182 0014 AFF30080 		.section	.text.ledpwm_led_off,"ax",%progbits
 182      AFF30080 
 182      AFF30080 
 183              		.align	2
 184              		.p2align 4,,15
 185              		.global	ledpwm_led_off
 186              		.thumb
 187              		.thumb_func
 188              		.type	ledpwm_led_off, %function
 189              	ledpwm_led_off:
 190              	.LFB121:
 191              		.loc 1 75 0
 192              		.cfi_startproc
 193              		@ args = 0, pretend = 0, frame = 0
 194              		@ frame_needed = 0, uses_anonymous_args = 0
 195              		@ link register save eliminated.
 196              	.LVL10:
 197              		.loc 1 76 0
 198 0000 0128     		cmp	r0, #1
 199 0002 03DC     		bgt	.L20
 200              		.loc 1 80 0
 201 0004 024B     		ldr	r3, .L22
 202 0006 0022     		movs	r2, #0
 203 0008 43F82020 		str	r2, [r3, r0, lsl #2]
 204              	.L20:
 205 000c 7047     		bx	lr
 206              	.L23:
 207 000e 00BF     		.align	2
 208              	.L22:
 209 0010 00000000 		.word	.LANCHOR0
 210              		.cfi_endproc
 211              	.LFE121:
 212              		.size	ledpwm_led_off, .-ledpwm_led_off
 213 0014 AFF30080 		.section	.text.ledpwm_update_pwm,"ax",%progbits
 213      AFF30080 
 213      AFF30080 
 214              		.align	2
 215              		.p2align 4,,15
 216              		.global	ledpwm_update_pwm
 217              		.thumb
 218              		.thumb_func
 219              		.type	ledpwm_update_pwm, %function
 220              	ledpwm_update_pwm:
 221              	.LFB122:
 222              		.loc 1 86 0
 223              		.cfi_startproc
 224              		@ args = 0, pretend = 0, frame = 0
ARM GAS  C:\Users\jsyoon\AppData\Local\Temp\ccendiwk.s 			page 5


 225              		@ frame_needed = 0, uses_anonymous_args = 0
 226              		@ link register save eliminated.
 227              		.loc 1 88 0
 228 0000 0C4A     		ldr	r2, .L32
 229 0002 1368     		ldr	r3, [r2]
 230 0004 0133     		adds	r3, r3, #1
 231              		.loc 1 89 0
 232 0006 C82B     		cmp	r3, #200
 233              		.loc 1 90 0
 234 0008 08BF     		it	eq
 235 000a 0023     		moveq	r3, #0
 236 000c 1360     		str	r3, [r2]
 237              		.loc 1 93 0
 238 000e 0A4A     		ldr	r2, .L32+4
 239 0010 1168     		ldr	r1, [r2]
 240 0012 9942     		cmp	r1, r3
 241              		.loc 1 94 0
 242 0014 0949     		ldr	r1, .L32+8
 243 0016 4FF01000 		mov	r0, #16
 244 001a D4BF     		ite	le
 245 001c 4883     		strhle	r0, [r1, #26]	@ movhi
 246              		.loc 1 96 0
 247 001e 0883     		strhgt	r0, [r1, #24]	@ movhi
 248              		.loc 1 99 0
 249 0020 5268     		ldr	r2, [r2, #4]
 250 0022 9A42     		cmp	r2, r3
 251              		.loc 1 100 0
 252 0024 064B     		ldr	r3, .L32+12
 253 0026 4FF08002 		mov	r2, #128
 254 002a D4BF     		ite	le
 255 002c 5A83     		strhle	r2, [r3, #26]	@ movhi
 256              		.loc 1 102 0
 257 002e 1A83     		strhgt	r2, [r3, #24]	@ movhi
 258 0030 7047     		bx	lr
 259              	.L33:
 260 0032 00BF     		.align	2
 261              	.L32:
 262 0034 00000000 		.word	.LANCHOR2
 263 0038 00000000 		.word	.LANCHOR0
 264 003c 00080240 		.word	1073874944
 265 0040 00000240 		.word	1073872896
 266              		.cfi_endproc
 267              	.LFE122:
 268              		.size	ledpwm_update_pwm, .-ledpwm_update_pwm
 269 0044 AFF30080 		.section	.bss.led_values,"aw",%nobits
 269      AFF30080 
 269      AFF30080 
 270              		.align	2
 271              		.set	.LANCHOR0,. + 0
 272              		.type	led_values, %object
 273              		.size	led_values, 8
 274              	led_values:
 275 0000 00000000 		.space	8
 275      00000000 
 276              		.section	.bss.cnt.10211,"aw",%nobits
 277              		.align	2
 278              		.set	.LANCHOR2,. + 0
ARM GAS  C:\Users\jsyoon\AppData\Local\Temp\ccendiwk.s 			page 6


 279              		.type	cnt.10211, %object
 280              		.size	cnt.10211, 4
 281              	cnt.10211:
 282 0000 00000000 		.space	4
 283              		.section	.bss.gamma_table,"aw",%nobits
 284              		.align	2
 285              		.set	.LANCHOR1,. + 0
 286              		.type	gamma_table, %object
 287              		.size	gamma_table, 201
 288              	gamma_table:
 289 0000 00000000 		.space	201
 289      00000000 
 289      00000000 
 289      00000000 
 289      00000000 
 290 00c9 000000   		.text
 291              	.Letext0:
 292              		.file 2 "c:\\crosstools\\gcc-arm-embedded\\4.8_2014q2\\arm-none-eabi\\include\\machine\\_default_t
 293              		.file 3 "c:\\crosstools\\gcc-arm-embedded\\4.8_2014q2\\arm-none-eabi\\include\\stdint.h"
 294              		.file 4 "ChibiOS_2.6.6/os/hal/platforms/STM32/GPIOv2/pal_lld.h"
 295              		.file 5 "ChibiOS_2.6.6/os/ports/common/ARMCMx/CMSIS/include/core_cm4.h"
 296              		.file 6 "c:\\crosstools\\gcc-arm-embedded\\4.8_2014q2\\arm-none-eabi\\include\\math.h"
 297              		.section	.debug_info,"",%progbits
 298              	.Ldebug_info0:
 299 0000 46030000 		.4byte	0x346
 300 0004 0400     		.2byte	0x4
 301 0006 00000000 		.4byte	.Ldebug_abbrev0
 302 000a 04       		.byte	0x4
 303 000b 01       		.uleb128 0x1
 304 000c 44000000 		.4byte	.LASF42
 305 0010 01       		.byte	0x1
 306 0011 3B000000 		.4byte	.LASF43
 307 0015 A9020000 		.4byte	.LASF44
 308 0019 18000000 		.4byte	.Ldebug_ranges0+0x18
 309 001d 00000000 		.4byte	0
 310 0021 00000000 		.4byte	.Ldebug_line0
 311 0025 02       		.uleb128 0x2
 312 0026 04       		.byte	0x4
 313 0027 04       		.byte	0x4
 314 0028 68010000 		.4byte	.LASF0
 315 002c 03       		.uleb128 0x3
 316 002d 04       		.byte	0x4
 317 002e 05       		.byte	0x5
 318 002f 696E7400 		.ascii	"int\000"
 319 0033 02       		.uleb128 0x2
 320 0034 04       		.byte	0x4
 321 0035 07       		.byte	0x7
 322 0036 7D010000 		.4byte	.LASF1
 323 003a 02       		.uleb128 0x2
 324 003b 01       		.byte	0x1
 325 003c 06       		.byte	0x6
 326 003d 0D030000 		.4byte	.LASF2
 327 0041 04       		.uleb128 0x4
 328 0042 0E000000 		.4byte	.LASF5
 329 0046 02       		.byte	0x2
 330 0047 1C       		.byte	0x1c
 331 0048 4C000000 		.4byte	0x4c
ARM GAS  C:\Users\jsyoon\AppData\Local\Temp\ccendiwk.s 			page 7


 332 004c 02       		.uleb128 0x2
 333 004d 01       		.byte	0x1
 334 004e 08       		.byte	0x8
 335 004f C0010000 		.4byte	.LASF3
 336 0053 02       		.uleb128 0x2
 337 0054 02       		.byte	0x2
 338 0055 05       		.byte	0x5
 339 0056 E2020000 		.4byte	.LASF4
 340 005a 04       		.uleb128 0x4
 341 005b 2D020000 		.4byte	.LASF6
 342 005f 02       		.byte	0x2
 343 0060 26       		.byte	0x26
 344 0061 65000000 		.4byte	0x65
 345 0065 02       		.uleb128 0x2
 346 0066 02       		.byte	0x2
 347 0067 07       		.byte	0x7
 348 0068 FE010000 		.4byte	.LASF7
 349 006c 04       		.uleb128 0x4
 350 006d 6E010000 		.4byte	.LASF8
 351 0071 02       		.byte	0x2
 352 0072 37       		.byte	0x37
 353 0073 77000000 		.4byte	0x77
 354 0077 02       		.uleb128 0x2
 355 0078 04       		.byte	0x4
 356 0079 05       		.byte	0x5
 357 007a F8020000 		.4byte	.LASF9
 358 007e 04       		.uleb128 0x4
 359 007f 3F020000 		.4byte	.LASF10
 360 0083 02       		.byte	0x2
 361 0084 38       		.byte	0x38
 362 0085 89000000 		.4byte	0x89
 363 0089 02       		.uleb128 0x2
 364 008a 04       		.byte	0x4
 365 008b 07       		.byte	0x7
 366 008c E0010000 		.4byte	.LASF11
 367 0090 02       		.uleb128 0x2
 368 0091 08       		.byte	0x8
 369 0092 05       		.byte	0x5
 370 0093 00000000 		.4byte	.LASF12
 371 0097 02       		.uleb128 0x2
 372 0098 08       		.byte	0x8
 373 0099 07       		.byte	0x7
 374 009a A4010000 		.4byte	.LASF13
 375 009e 04       		.uleb128 0x4
 376 009f 6B020000 		.4byte	.LASF14
 377 00a3 03       		.byte	0x3
 378 00a4 2A       		.byte	0x2a
 379 00a5 41000000 		.4byte	0x41
 380 00a9 04       		.uleb128 0x4
 381 00aa D9020000 		.4byte	.LASF15
 382 00ae 03       		.byte	0x3
 383 00af 36       		.byte	0x36
 384 00b0 5A000000 		.4byte	0x5a
 385 00b4 04       		.uleb128 0x4
 386 00b5 8B020000 		.4byte	.LASF16
 387 00b9 03       		.byte	0x3
 388 00ba 41       		.byte	0x41
ARM GAS  C:\Users\jsyoon\AppData\Local\Temp\ccendiwk.s 			page 8


 389 00bb 6C000000 		.4byte	0x6c
 390 00bf 04       		.uleb128 0x4
 391 00c0 16020000 		.4byte	.LASF17
 392 00c4 03       		.byte	0x3
 393 00c5 42       		.byte	0x42
 394 00c6 7E000000 		.4byte	0x7e
 395 00ca 02       		.uleb128 0x2
 396 00cb 01       		.byte	0x1
 397 00cc 02       		.byte	0x2
 398 00cd 19030000 		.4byte	.LASF18
 399 00d1 05       		.uleb128 0x5
 400 00d2 BF000000 		.4byte	0xbf
 401 00d6 02       		.uleb128 0x2
 402 00d7 04       		.byte	0x4
 403 00d8 07       		.byte	0x7
 404 00d9 93020000 		.4byte	.LASF19
 405 00dd 02       		.uleb128 0x2
 406 00de 01       		.byte	0x1
 407 00df 08       		.byte	0x8
 408 00e0 66020000 		.4byte	.LASF20
 409 00e4 05       		.uleb128 0x5
 410 00e5 B4000000 		.4byte	0xb4
 411 00e9 06       		.uleb128 0x6
 412 00ea 04       		.byte	0x4
 413 00eb 04       		.byte	0x4
 414 00ec 96       		.byte	0x96
 415 00ed 0A010000 		.4byte	0x10a
 416 00f1 07       		.uleb128 0x7
 417 00f2 73657400 		.ascii	"set\000"
 418 00f6 04       		.byte	0x4
 419 00f7 97       		.byte	0x97
 420 00f8 A9000000 		.4byte	0xa9
 421 00fc 00       		.byte	0
 422 00fd 08       		.uleb128 0x8
 423 00fe 20000000 		.4byte	.LASF21
 424 0102 04       		.byte	0x4
 425 0103 98       		.byte	0x98
 426 0104 A9000000 		.4byte	0xa9
 427 0108 02       		.byte	0x2
 428 0109 00       		.byte	0
 429 010a 09       		.uleb128 0x9
 430 010b 04       		.byte	0x4
 431 010c 04       		.byte	0x4
 432 010d 94       		.byte	0x94
 433 010e 25010000 		.4byte	0x125
 434 0112 0A       		.uleb128 0xa
 435 0113 5700     		.ascii	"W\000"
 436 0115 04       		.byte	0x4
 437 0116 95       		.byte	0x95
 438 0117 BF000000 		.4byte	0xbf
 439 011b 0A       		.uleb128 0xa
 440 011c 4800     		.ascii	"H\000"
 441 011e 04       		.byte	0x4
 442 011f 99       		.byte	0x99
 443 0120 E9000000 		.4byte	0xe9
 444 0124 00       		.byte	0
 445 0125 06       		.uleb128 0x6
ARM GAS  C:\Users\jsyoon\AppData\Local\Temp\ccendiwk.s 			page 9


 446 0126 28       		.byte	0x28
 447 0127 04       		.byte	0x4
 448 0128 8C       		.byte	0x8c
 449 0129 A6010000 		.4byte	0x1a6
 450 012d 08       		.uleb128 0x8
 451 012e 8A010000 		.4byte	.LASF22
 452 0132 04       		.byte	0x4
 453 0133 8E       		.byte	0x8e
 454 0134 D1000000 		.4byte	0xd1
 455 0138 00       		.byte	0
 456 0139 08       		.uleb128 0x8
 457 013a 9D010000 		.4byte	.LASF23
 458 013e 04       		.byte	0x4
 459 013f 8F       		.byte	0x8f
 460 0140 D1000000 		.4byte	0xd1
 461 0144 04       		.byte	0x4
 462 0145 08       		.uleb128 0x8
 463 0146 18000000 		.4byte	.LASF24
 464 014a 04       		.byte	0x4
 465 014b 90       		.byte	0x90
 466 014c D1000000 		.4byte	0xd1
 467 0150 08       		.byte	0x8
 468 0151 08       		.uleb128 0x8
 469 0152 9C020000 		.4byte	.LASF25
 470 0156 04       		.byte	0x4
 471 0157 91       		.byte	0x91
 472 0158 D1000000 		.4byte	0xd1
 473 015c 0C       		.byte	0xc
 474 015d 07       		.uleb128 0x7
 475 015e 49445200 		.ascii	"IDR\000"
 476 0162 04       		.byte	0x4
 477 0163 92       		.byte	0x92
 478 0164 D1000000 		.4byte	0xd1
 479 0168 10       		.byte	0x10
 480 0169 07       		.uleb128 0x7
 481 016a 4F445200 		.ascii	"ODR\000"
 482 016e 04       		.byte	0x4
 483 016f 93       		.byte	0x93
 484 0170 D1000000 		.4byte	0xd1
 485 0174 14       		.byte	0x14
 486 0175 08       		.uleb128 0x8
 487 0176 78010000 		.4byte	.LASF26
 488 017a 04       		.byte	0x4
 489 017b 9A       		.byte	0x9a
 490 017c A6010000 		.4byte	0x1a6
 491 0180 18       		.byte	0x18
 492 0181 08       		.uleb128 0x8
 493 0182 2E030000 		.4byte	.LASF27
 494 0186 04       		.byte	0x4
 495 0187 9B       		.byte	0x9b
 496 0188 D1000000 		.4byte	0xd1
 497 018c 1C       		.byte	0x1c
 498 018d 08       		.uleb128 0x8
 499 018e 11020000 		.4byte	.LASF28
 500 0192 04       		.byte	0x4
 501 0193 9C       		.byte	0x9c
 502 0194 D1000000 		.4byte	0xd1
ARM GAS  C:\Users\jsyoon\AppData\Local\Temp\ccendiwk.s 			page 10


 503 0198 20       		.byte	0x20
 504 0199 08       		.uleb128 0x8
 505 019a 54020000 		.4byte	.LASF29
 506 019e 04       		.byte	0x4
 507 019f 9D       		.byte	0x9d
 508 01a0 D1000000 		.4byte	0xd1
 509 01a4 24       		.byte	0x24
 510 01a5 00       		.byte	0
 511 01a6 05       		.uleb128 0x5
 512 01a7 0A010000 		.4byte	0x10a
 513 01ab 04       		.uleb128 0x4
 514 01ac 59020000 		.4byte	.LASF30
 515 01b0 04       		.byte	0x4
 516 01b1 9E       		.byte	0x9e
 517 01b2 25010000 		.4byte	0x125
 518 01b6 04       		.uleb128 0x4
 519 01b7 90010000 		.4byte	.LASF31
 520 01bb 04       		.byte	0x4
 521 01bc F0       		.byte	0xf0
 522 01bd BF000000 		.4byte	0xbf
 523 01c1 02       		.uleb128 0x2
 524 01c2 08       		.byte	0x8
 525 01c3 04       		.byte	0x4
 526 01c4 38020000 		.4byte	.LASF32
 527 01c8 02       		.uleb128 0x2
 528 01c9 08       		.byte	0x8
 529 01ca 04       		.byte	0x4
 530 01cb 01030000 		.4byte	.LASF33
 531 01cf 0B       		.uleb128 0xb
 532 01d0 F2010000 		.4byte	.LASF34
 533 01d4 01       		.byte	0x1
 534 01d5 24       		.byte	0x24
 535 01d6 00000000 		.4byte	.LFB118
 536 01da 58000000 		.4byte	.LFE118-.LFB118
 537 01de 01       		.uleb128 0x1
 538 01df 9C       		.byte	0x9c
 539 01e0 2A020000 		.4byte	0x22a
 540 01e4 0C       		.uleb128 0xc
 541 01e5 00000000 		.4byte	.Ldebug_ranges0+0
 542 01e9 0D       		.uleb128 0xd
 543 01ea 6900     		.ascii	"i\000"
 544 01ec 01       		.byte	0x1
 545 01ed 28       		.byte	0x28
 546 01ee 2C000000 		.4byte	0x2c
 547 01f2 00000000 		.4byte	.LLST0
 548 01f6 0E       		.uleb128 0xe
 549 01f7 28000000 		.4byte	.LVL1
 550 01fb 1C030000 		.4byte	0x31c
 551 01ff 1F020000 		.4byte	0x21f
 552 0203 0F       		.uleb128 0xf
 553 0204 02       		.uleb128 0x2
 554 0205 90       		.byte	0x90
 555 0206 41       		.uleb128 0x41
 556 0207 07       		.uleb128 0x7
 557 0208 F4       		.byte	0xf4
 558 0209 25       		.uleb128 0x25
 559 020a 04       		.byte	0x4
ARM GAS  C:\Users\jsyoon\AppData\Local\Temp\ccendiwk.s 			page 11


 560 020b E4380E40 		.4byte	0x400e38e4
 561 020f 0F       		.uleb128 0xf
 562 0210 02       		.uleb128 0x2
 563 0211 90       		.byte	0x90
 564 0212 40       		.uleb128 0x40
 565 0213 0A       		.uleb128 0xa
 566 0214 74       		.byte	0x74
 567 0215 00       		.sleb128 0
 568 0216 F7       		.byte	0xf7
 569 0217 2C       		.uleb128 0x2c
 570 0218 F7       		.byte	0xf7
 571 0219 25       		.uleb128 0x25
 572 021a F5       		.byte	0xf5
 573 021b 50       		.uleb128 0x50
 574 021c 25       		.uleb128 0x25
 575 021d 1B       		.byte	0x1b
 576 021e 00       		.byte	0
 577 021f 10       		.uleb128 0x10
 578 0220 30000000 		.4byte	.LVL2
 579 0224 37030000 		.4byte	0x337
 580 0228 00       		.byte	0
 581 0229 00       		.byte	0
 582 022a 0B       		.uleb128 0xb
 583 022b 26000000 		.4byte	.LASF35
 584 022f 01       		.byte	0x1
 585 0230 33       		.byte	0x33
 586 0231 00000000 		.4byte	.LFB119
 587 0235 50000000 		.4byte	.LFE119-.LFB119
 588 0239 01       		.uleb128 0x1
 589 023a 9C       		.byte	0x9c
 590 023b 5C020000 		.4byte	0x25c
 591 023f 11       		.uleb128 0x11
 592 0240 6C656400 		.ascii	"led\000"
 593 0244 01       		.byte	0x1
 594 0245 33       		.byte	0x33
 595 0246 33000000 		.4byte	0x33
 596 024a 01       		.uleb128 0x1
 597 024b 50       		.byte	0x50
 598 024c 12       		.uleb128 0x12
 599 024d 4A020000 		.4byte	.LASF36
 600 0251 01       		.byte	0x1
 601 0252 33       		.byte	0x33
 602 0253 25000000 		.4byte	0x25
 603 0257 13000000 		.4byte	.LLST1
 604 025b 00       		.byte	0
 605 025c 0B       		.uleb128 0xb
 606 025d 1F020000 		.4byte	.LASF37
 607 0261 01       		.byte	0x1
 608 0262 43       		.byte	0x43
 609 0263 00000000 		.4byte	.LFB120
 610 0267 14000000 		.4byte	.LFE120-.LFB120
 611 026b 01       		.uleb128 0x1
 612 026c 9C       		.byte	0x9c
 613 026d 7F020000 		.4byte	0x27f
 614 0271 11       		.uleb128 0x11
 615 0272 6C656400 		.ascii	"led\000"
 616 0276 01       		.byte	0x1
ARM GAS  C:\Users\jsyoon\AppData\Local\Temp\ccendiwk.s 			page 12


 617 0277 43       		.byte	0x43
 618 0278 2C000000 		.4byte	0x2c
 619 027c 01       		.uleb128 0x1
 620 027d 50       		.byte	0x50
 621 027e 00       		.byte	0
 622 027f 0B       		.uleb128 0xb
 623 0280 1F030000 		.4byte	.LASF38
 624 0284 01       		.byte	0x1
 625 0285 4B       		.byte	0x4b
 626 0286 00000000 		.4byte	.LFB121
 627 028a 14000000 		.4byte	.LFE121-.LFB121
 628 028e 01       		.uleb128 0x1
 629 028f 9C       		.byte	0x9c
 630 0290 A2020000 		.4byte	0x2a2
 631 0294 11       		.uleb128 0x11
 632 0295 6C656400 		.ascii	"led\000"
 633 0299 01       		.byte	0x1
 634 029a 4B       		.byte	0x4b
 635 029b 2C000000 		.4byte	0x2c
 636 029f 01       		.uleb128 0x1
 637 02a0 50       		.byte	0x50
 638 02a1 00       		.byte	0
 639 02a2 0B       		.uleb128 0xb
 640 02a3 CE010000 		.4byte	.LASF39
 641 02a7 01       		.byte	0x1
 642 02a8 56       		.byte	0x56
 643 02a9 00000000 		.4byte	.LFB122
 644 02ad 44000000 		.4byte	.LFE122-.LFB122
 645 02b1 01       		.uleb128 0x1
 646 02b2 9C       		.byte	0x9c
 647 02b3 C9020000 		.4byte	0x2c9
 648 02b7 13       		.uleb128 0x13
 649 02b8 636E7400 		.ascii	"cnt\000"
 650 02bc 01       		.byte	0x1
 651 02bd 57       		.byte	0x57
 652 02be 2C000000 		.4byte	0x2c
 653 02c2 05       		.uleb128 0x5
 654 02c3 03       		.byte	0x3
 655 02c4 00000000 		.4byte	cnt.10211
 656 02c8 00       		.byte	0
 657 02c9 14       		.uleb128 0x14
 658 02ca 2C000000 		.4byte	0x2c
 659 02ce D9020000 		.4byte	0x2d9
 660 02d2 15       		.uleb128 0x15
 661 02d3 D6000000 		.4byte	0xd6
 662 02d7 01       		.byte	0x1
 663 02d8 00       		.byte	0
 664 02d9 16       		.uleb128 0x16
 665 02da 80020000 		.4byte	.LASF40
 666 02de 01       		.byte	0x1
 667 02df 21       		.byte	0x21
 668 02e0 EA020000 		.4byte	0x2ea
 669 02e4 05       		.uleb128 0x5
 670 02e5 03       		.byte	0x3
 671 02e6 00000000 		.4byte	led_values
 672 02ea 05       		.uleb128 0x5
 673 02eb C9020000 		.4byte	0x2c9
ARM GAS  C:\Users\jsyoon\AppData\Local\Temp\ccendiwk.s 			page 13


 674 02ef 14       		.uleb128 0x14
 675 02f0 9E000000 		.4byte	0x9e
 676 02f4 FF020000 		.4byte	0x2ff
 677 02f8 15       		.uleb128 0x15
 678 02f9 D6000000 		.4byte	0xd6
 679 02fd C8       		.byte	0xc8
 680 02fe 00       		.byte	0
 681 02ff 16       		.uleb128 0x16
 682 0300 EC020000 		.4byte	.LASF41
 683 0304 01       		.byte	0x1
 684 0305 22       		.byte	0x22
 685 0306 EF020000 		.4byte	0x2ef
 686 030a 05       		.uleb128 0x5
 687 030b 03       		.byte	0x3
 688 030c 00000000 		.4byte	gamma_table
 689 0310 17       		.uleb128 0x17
 690 0311 73020000 		.4byte	.LASF45
 691 0315 05       		.byte	0x5
 692 0316 9806     		.2byte	0x698
 693 0318 E4000000 		.4byte	0xe4
 694 031c 18       		.uleb128 0x18
 695 031d BB010000 		.4byte	.LASF46
 696 0321 06       		.byte	0x6
 697 0322 4E01     		.2byte	0x14e
 698 0324 25000000 		.4byte	0x25
 699 0328 37030000 		.4byte	0x337
 700 032c 19       		.uleb128 0x19
 701 032d 25000000 		.4byte	0x25
 702 0331 19       		.uleb128 0x19
 703 0332 25000000 		.4byte	0x25
 704 0336 00       		.byte	0
 705 0337 1A       		.uleb128 0x1a
 706 0338 A2020000 		.4byte	.LASF47
 707 033c 06       		.byte	0x6
 708 033d 5B01     		.2byte	0x15b
 709 033f 25000000 		.4byte	0x25
 710 0343 19       		.uleb128 0x19
 711 0344 25000000 		.4byte	0x25
 712 0348 00       		.byte	0
 713 0349 00       		.byte	0
 714              		.section	.debug_abbrev,"",%progbits
 715              	.Ldebug_abbrev0:
 716 0000 01       		.uleb128 0x1
 717 0001 11       		.uleb128 0x11
 718 0002 01       		.byte	0x1
 719 0003 25       		.uleb128 0x25
 720 0004 0E       		.uleb128 0xe
 721 0005 13       		.uleb128 0x13
 722 0006 0B       		.uleb128 0xb
 723 0007 03       		.uleb128 0x3
 724 0008 0E       		.uleb128 0xe
 725 0009 1B       		.uleb128 0x1b
 726 000a 0E       		.uleb128 0xe
 727 000b 55       		.uleb128 0x55
 728 000c 17       		.uleb128 0x17
 729 000d 11       		.uleb128 0x11
 730 000e 01       		.uleb128 0x1
ARM GAS  C:\Users\jsyoon\AppData\Local\Temp\ccendiwk.s 			page 14


 731 000f 10       		.uleb128 0x10
 732 0010 17       		.uleb128 0x17
 733 0011 00       		.byte	0
 734 0012 00       		.byte	0
 735 0013 02       		.uleb128 0x2
 736 0014 24       		.uleb128 0x24
 737 0015 00       		.byte	0
 738 0016 0B       		.uleb128 0xb
 739 0017 0B       		.uleb128 0xb
 740 0018 3E       		.uleb128 0x3e
 741 0019 0B       		.uleb128 0xb
 742 001a 03       		.uleb128 0x3
 743 001b 0E       		.uleb128 0xe
 744 001c 00       		.byte	0
 745 001d 00       		.byte	0
 746 001e 03       		.uleb128 0x3
 747 001f 24       		.uleb128 0x24
 748 0020 00       		.byte	0
 749 0021 0B       		.uleb128 0xb
 750 0022 0B       		.uleb128 0xb
 751 0023 3E       		.uleb128 0x3e
 752 0024 0B       		.uleb128 0xb
 753 0025 03       		.uleb128 0x3
 754 0026 08       		.uleb128 0x8
 755 0027 00       		.byte	0
 756 0028 00       		.byte	0
 757 0029 04       		.uleb128 0x4
 758 002a 16       		.uleb128 0x16
 759 002b 00       		.byte	0
 760 002c 03       		.uleb128 0x3
 761 002d 0E       		.uleb128 0xe
 762 002e 3A       		.uleb128 0x3a
 763 002f 0B       		.uleb128 0xb
 764 0030 3B       		.uleb128 0x3b
 765 0031 0B       		.uleb128 0xb
 766 0032 49       		.uleb128 0x49
 767 0033 13       		.uleb128 0x13
 768 0034 00       		.byte	0
 769 0035 00       		.byte	0
 770 0036 05       		.uleb128 0x5
 771 0037 35       		.uleb128 0x35
 772 0038 00       		.byte	0
 773 0039 49       		.uleb128 0x49
 774 003a 13       		.uleb128 0x13
 775 003b 00       		.byte	0
 776 003c 00       		.byte	0
 777 003d 06       		.uleb128 0x6
 778 003e 13       		.uleb128 0x13
 779 003f 01       		.byte	0x1
 780 0040 0B       		.uleb128 0xb
 781 0041 0B       		.uleb128 0xb
 782 0042 3A       		.uleb128 0x3a
 783 0043 0B       		.uleb128 0xb
 784 0044 3B       		.uleb128 0x3b
 785 0045 0B       		.uleb128 0xb
 786 0046 01       		.uleb128 0x1
 787 0047 13       		.uleb128 0x13
ARM GAS  C:\Users\jsyoon\AppData\Local\Temp\ccendiwk.s 			page 15


 788 0048 00       		.byte	0
 789 0049 00       		.byte	0
 790 004a 07       		.uleb128 0x7
 791 004b 0D       		.uleb128 0xd
 792 004c 00       		.byte	0
 793 004d 03       		.uleb128 0x3
 794 004e 08       		.uleb128 0x8
 795 004f 3A       		.uleb128 0x3a
 796 0050 0B       		.uleb128 0xb
 797 0051 3B       		.uleb128 0x3b
 798 0052 0B       		.uleb128 0xb
 799 0053 49       		.uleb128 0x49
 800 0054 13       		.uleb128 0x13
 801 0055 38       		.uleb128 0x38
 802 0056 0B       		.uleb128 0xb
 803 0057 00       		.byte	0
 804 0058 00       		.byte	0
 805 0059 08       		.uleb128 0x8
 806 005a 0D       		.uleb128 0xd
 807 005b 00       		.byte	0
 808 005c 03       		.uleb128 0x3
 809 005d 0E       		.uleb128 0xe
 810 005e 3A       		.uleb128 0x3a
 811 005f 0B       		.uleb128 0xb
 812 0060 3B       		.uleb128 0x3b
 813 0061 0B       		.uleb128 0xb
 814 0062 49       		.uleb128 0x49
 815 0063 13       		.uleb128 0x13
 816 0064 38       		.uleb128 0x38
 817 0065 0B       		.uleb128 0xb
 818 0066 00       		.byte	0
 819 0067 00       		.byte	0
 820 0068 09       		.uleb128 0x9
 821 0069 17       		.uleb128 0x17
 822 006a 01       		.byte	0x1
 823 006b 0B       		.uleb128 0xb
 824 006c 0B       		.uleb128 0xb
 825 006d 3A       		.uleb128 0x3a
 826 006e 0B       		.uleb128 0xb
 827 006f 3B       		.uleb128 0x3b
 828 0070 0B       		.uleb128 0xb
 829 0071 01       		.uleb128 0x1
 830 0072 13       		.uleb128 0x13
 831 0073 00       		.byte	0
 832 0074 00       		.byte	0
 833 0075 0A       		.uleb128 0xa
 834 0076 0D       		.uleb128 0xd
 835 0077 00       		.byte	0
 836 0078 03       		.uleb128 0x3
 837 0079 08       		.uleb128 0x8
 838 007a 3A       		.uleb128 0x3a
 839 007b 0B       		.uleb128 0xb
 840 007c 3B       		.uleb128 0x3b
 841 007d 0B       		.uleb128 0xb
 842 007e 49       		.uleb128 0x49
 843 007f 13       		.uleb128 0x13
 844 0080 00       		.byte	0
ARM GAS  C:\Users\jsyoon\AppData\Local\Temp\ccendiwk.s 			page 16


 845 0081 00       		.byte	0
 846 0082 0B       		.uleb128 0xb
 847 0083 2E       		.uleb128 0x2e
 848 0084 01       		.byte	0x1
 849 0085 3F       		.uleb128 0x3f
 850 0086 19       		.uleb128 0x19
 851 0087 03       		.uleb128 0x3
 852 0088 0E       		.uleb128 0xe
 853 0089 3A       		.uleb128 0x3a
 854 008a 0B       		.uleb128 0xb
 855 008b 3B       		.uleb128 0x3b
 856 008c 0B       		.uleb128 0xb
 857 008d 27       		.uleb128 0x27
 858 008e 19       		.uleb128 0x19
 859 008f 11       		.uleb128 0x11
 860 0090 01       		.uleb128 0x1
 861 0091 12       		.uleb128 0x12
 862 0092 06       		.uleb128 0x6
 863 0093 40       		.uleb128 0x40
 864 0094 18       		.uleb128 0x18
 865 0095 9742     		.uleb128 0x2117
 866 0097 19       		.uleb128 0x19
 867 0098 01       		.uleb128 0x1
 868 0099 13       		.uleb128 0x13
 869 009a 00       		.byte	0
 870 009b 00       		.byte	0
 871 009c 0C       		.uleb128 0xc
 872 009d 0B       		.uleb128 0xb
 873 009e 01       		.byte	0x1
 874 009f 55       		.uleb128 0x55
 875 00a0 17       		.uleb128 0x17
 876 00a1 00       		.byte	0
 877 00a2 00       		.byte	0
 878 00a3 0D       		.uleb128 0xd
 879 00a4 34       		.uleb128 0x34
 880 00a5 00       		.byte	0
 881 00a6 03       		.uleb128 0x3
 882 00a7 08       		.uleb128 0x8
 883 00a8 3A       		.uleb128 0x3a
 884 00a9 0B       		.uleb128 0xb
 885 00aa 3B       		.uleb128 0x3b
 886 00ab 0B       		.uleb128 0xb
 887 00ac 49       		.uleb128 0x49
 888 00ad 13       		.uleb128 0x13
 889 00ae 02       		.uleb128 0x2
 890 00af 17       		.uleb128 0x17
 891 00b0 00       		.byte	0
 892 00b1 00       		.byte	0
 893 00b2 0E       		.uleb128 0xe
 894 00b3 898201   		.uleb128 0x4109
 895 00b6 01       		.byte	0x1
 896 00b7 11       		.uleb128 0x11
 897 00b8 01       		.uleb128 0x1
 898 00b9 31       		.uleb128 0x31
 899 00ba 13       		.uleb128 0x13
 900 00bb 01       		.uleb128 0x1
 901 00bc 13       		.uleb128 0x13
ARM GAS  C:\Users\jsyoon\AppData\Local\Temp\ccendiwk.s 			page 17


 902 00bd 00       		.byte	0
 903 00be 00       		.byte	0
 904 00bf 0F       		.uleb128 0xf
 905 00c0 8A8201   		.uleb128 0x410a
 906 00c3 00       		.byte	0
 907 00c4 02       		.uleb128 0x2
 908 00c5 18       		.uleb128 0x18
 909 00c6 9142     		.uleb128 0x2111
 910 00c8 18       		.uleb128 0x18
 911 00c9 00       		.byte	0
 912 00ca 00       		.byte	0
 913 00cb 10       		.uleb128 0x10
 914 00cc 898201   		.uleb128 0x4109
 915 00cf 00       		.byte	0
 916 00d0 11       		.uleb128 0x11
 917 00d1 01       		.uleb128 0x1
 918 00d2 31       		.uleb128 0x31
 919 00d3 13       		.uleb128 0x13
 920 00d4 00       		.byte	0
 921 00d5 00       		.byte	0
 922 00d6 11       		.uleb128 0x11
 923 00d7 05       		.uleb128 0x5
 924 00d8 00       		.byte	0
 925 00d9 03       		.uleb128 0x3
 926 00da 08       		.uleb128 0x8
 927 00db 3A       		.uleb128 0x3a
 928 00dc 0B       		.uleb128 0xb
 929 00dd 3B       		.uleb128 0x3b
 930 00de 0B       		.uleb128 0xb
 931 00df 49       		.uleb128 0x49
 932 00e0 13       		.uleb128 0x13
 933 00e1 02       		.uleb128 0x2
 934 00e2 18       		.uleb128 0x18
 935 00e3 00       		.byte	0
 936 00e4 00       		.byte	0
 937 00e5 12       		.uleb128 0x12
 938 00e6 05       		.uleb128 0x5
 939 00e7 00       		.byte	0
 940 00e8 03       		.uleb128 0x3
 941 00e9 0E       		.uleb128 0xe
 942 00ea 3A       		.uleb128 0x3a
 943 00eb 0B       		.uleb128 0xb
 944 00ec 3B       		.uleb128 0x3b
 945 00ed 0B       		.uleb128 0xb
 946 00ee 49       		.uleb128 0x49
 947 00ef 13       		.uleb128 0x13
 948 00f0 02       		.uleb128 0x2
 949 00f1 17       		.uleb128 0x17
 950 00f2 00       		.byte	0
 951 00f3 00       		.byte	0
 952 00f4 13       		.uleb128 0x13
 953 00f5 34       		.uleb128 0x34
 954 00f6 00       		.byte	0
 955 00f7 03       		.uleb128 0x3
 956 00f8 08       		.uleb128 0x8
 957 00f9 3A       		.uleb128 0x3a
 958 00fa 0B       		.uleb128 0xb
ARM GAS  C:\Users\jsyoon\AppData\Local\Temp\ccendiwk.s 			page 18


 959 00fb 3B       		.uleb128 0x3b
 960 00fc 0B       		.uleb128 0xb
 961 00fd 49       		.uleb128 0x49
 962 00fe 13       		.uleb128 0x13
 963 00ff 02       		.uleb128 0x2
 964 0100 18       		.uleb128 0x18
 965 0101 00       		.byte	0
 966 0102 00       		.byte	0
 967 0103 14       		.uleb128 0x14
 968 0104 01       		.uleb128 0x1
 969 0105 01       		.byte	0x1
 970 0106 49       		.uleb128 0x49
 971 0107 13       		.uleb128 0x13
 972 0108 01       		.uleb128 0x1
 973 0109 13       		.uleb128 0x13
 974 010a 00       		.byte	0
 975 010b 00       		.byte	0
 976 010c 15       		.uleb128 0x15
 977 010d 21       		.uleb128 0x21
 978 010e 00       		.byte	0
 979 010f 49       		.uleb128 0x49
 980 0110 13       		.uleb128 0x13
 981 0111 2F       		.uleb128 0x2f
 982 0112 0B       		.uleb128 0xb
 983 0113 00       		.byte	0
 984 0114 00       		.byte	0
 985 0115 16       		.uleb128 0x16
 986 0116 34       		.uleb128 0x34
 987 0117 00       		.byte	0
 988 0118 03       		.uleb128 0x3
 989 0119 0E       		.uleb128 0xe
 990 011a 3A       		.uleb128 0x3a
 991 011b 0B       		.uleb128 0xb
 992 011c 3B       		.uleb128 0x3b
 993 011d 0B       		.uleb128 0xb
 994 011e 49       		.uleb128 0x49
 995 011f 13       		.uleb128 0x13
 996 0120 02       		.uleb128 0x2
 997 0121 18       		.uleb128 0x18
 998 0122 00       		.byte	0
 999 0123 00       		.byte	0
 1000 0124 17       		.uleb128 0x17
 1001 0125 34       		.uleb128 0x34
 1002 0126 00       		.byte	0
 1003 0127 03       		.uleb128 0x3
 1004 0128 0E       		.uleb128 0xe
 1005 0129 3A       		.uleb128 0x3a
 1006 012a 0B       		.uleb128 0xb
 1007 012b 3B       		.uleb128 0x3b
 1008 012c 05       		.uleb128 0x5
 1009 012d 49       		.uleb128 0x49
 1010 012e 13       		.uleb128 0x13
 1011 012f 3F       		.uleb128 0x3f
 1012 0130 19       		.uleb128 0x19
 1013 0131 3C       		.uleb128 0x3c
 1014 0132 19       		.uleb128 0x19
 1015 0133 00       		.byte	0
ARM GAS  C:\Users\jsyoon\AppData\Local\Temp\ccendiwk.s 			page 19


 1016 0134 00       		.byte	0
 1017 0135 18       		.uleb128 0x18
 1018 0136 2E       		.uleb128 0x2e
 1019 0137 01       		.byte	0x1
 1020 0138 3F       		.uleb128 0x3f
 1021 0139 19       		.uleb128 0x19
 1022 013a 03       		.uleb128 0x3
 1023 013b 0E       		.uleb128 0xe
 1024 013c 3A       		.uleb128 0x3a
 1025 013d 0B       		.uleb128 0xb
 1026 013e 3B       		.uleb128 0x3b
 1027 013f 05       		.uleb128 0x5
 1028 0140 27       		.uleb128 0x27
 1029 0141 19       		.uleb128 0x19
 1030 0142 49       		.uleb128 0x49
 1031 0143 13       		.uleb128 0x13
 1032 0144 3C       		.uleb128 0x3c
 1033 0145 19       		.uleb128 0x19
 1034 0146 01       		.uleb128 0x1
 1035 0147 13       		.uleb128 0x13
 1036 0148 00       		.byte	0
 1037 0149 00       		.byte	0
 1038 014a 19       		.uleb128 0x19
 1039 014b 05       		.uleb128 0x5
 1040 014c 00       		.byte	0
 1041 014d 49       		.uleb128 0x49
 1042 014e 13       		.uleb128 0x13
 1043 014f 00       		.byte	0
 1044 0150 00       		.byte	0
 1045 0151 1A       		.uleb128 0x1a
 1046 0152 2E       		.uleb128 0x2e
 1047 0153 01       		.byte	0x1
 1048 0154 3F       		.uleb128 0x3f
 1049 0155 19       		.uleb128 0x19
 1050 0156 03       		.uleb128 0x3
 1051 0157 0E       		.uleb128 0xe
 1052 0158 3A       		.uleb128 0x3a
 1053 0159 0B       		.uleb128 0xb
 1054 015a 3B       		.uleb128 0x3b
 1055 015b 05       		.uleb128 0x5
 1056 015c 27       		.uleb128 0x27
 1057 015d 19       		.uleb128 0x19
 1058 015e 49       		.uleb128 0x49
 1059 015f 13       		.uleb128 0x13
 1060 0160 3C       		.uleb128 0x3c
 1061 0161 19       		.uleb128 0x19
 1062 0162 00       		.byte	0
 1063 0163 00       		.byte	0
 1064 0164 00       		.byte	0
 1065              		.section	.debug_loc,"",%progbits
 1066              	.Ldebug_loc0:
 1067              	.LLST0:
 1068 0000 14000000 		.4byte	.LVL0
 1069 0004 46000000 		.4byte	.LVL4
 1070 0008 0100     		.2byte	0x1
 1071 000a 54       		.byte	0x54
 1072 000b 00000000 		.4byte	0
ARM GAS  C:\Users\jsyoon\AppData\Local\Temp\ccendiwk.s 			page 20


 1073 000f 00000000 		.4byte	0
 1074              	.LLST1:
 1075 0013 00000000 		.4byte	.LVL5
 1076 0017 22000000 		.4byte	.LVL6
 1077 001b 0200     		.2byte	0x2
 1078 001d 90       		.byte	0x90
 1079 001e 40       		.uleb128 0x40
 1080 001f 2E000000 		.4byte	.LVL7
 1081 0023 3A000000 		.4byte	.LVL8
 1082 0027 0200     		.2byte	0x2
 1083 0029 90       		.byte	0x90
 1084 002a 40       		.uleb128 0x40
 1085 002b 3A000000 		.4byte	.LVL8
 1086 002f 50000000 		.4byte	.LFE119
 1087 0033 0600     		.2byte	0x6
 1088 0035 F3       		.byte	0xf3
 1089 0036 03       		.uleb128 0x3
 1090 0037 F5       		.byte	0xf5
 1091 0038 40       		.uleb128 0x40
 1092 0039 25       		.uleb128 0x25
 1093 003a 9F       		.byte	0x9f
 1094 003b 00000000 		.4byte	0
 1095 003f 00000000 		.4byte	0
 1096              		.section	.debug_aranges,"",%progbits
 1097 0000 3C000000 		.4byte	0x3c
 1098 0004 0200     		.2byte	0x2
 1099 0006 00000000 		.4byte	.Ldebug_info0
 1100 000a 04       		.byte	0x4
 1101 000b 00       		.byte	0
 1102 000c 0000     		.2byte	0
 1103 000e 0000     		.2byte	0
 1104 0010 00000000 		.4byte	.LFB118
 1105 0014 58000000 		.4byte	.LFE118-.LFB118
 1106 0018 00000000 		.4byte	.LFB119
 1107 001c 50000000 		.4byte	.LFE119-.LFB119
 1108 0020 00000000 		.4byte	.LFB120
 1109 0024 14000000 		.4byte	.LFE120-.LFB120
 1110 0028 00000000 		.4byte	.LFB121
 1111 002c 14000000 		.4byte	.LFE121-.LFB121
 1112 0030 00000000 		.4byte	.LFB122
 1113 0034 44000000 		.4byte	.LFE122-.LFB122
 1114 0038 00000000 		.4byte	0
 1115 003c 00000000 		.4byte	0
 1116              		.section	.debug_ranges,"",%progbits
 1117              	.Ldebug_ranges0:
 1118 0000 0C000000 		.4byte	.LBB2
 1119 0004 10000000 		.4byte	.LBE2
 1120 0008 14000000 		.4byte	.LBB3
 1121 000c 40000000 		.4byte	.LBE3
 1122 0010 00000000 		.4byte	0
 1123 0014 00000000 		.4byte	0
 1124 0018 00000000 		.4byte	.LFB118
 1125 001c 58000000 		.4byte	.LFE118
 1126 0020 00000000 		.4byte	.LFB119
 1127 0024 50000000 		.4byte	.LFE119
 1128 0028 00000000 		.4byte	.LFB120
 1129 002c 14000000 		.4byte	.LFE120
ARM GAS  C:\Users\jsyoon\AppData\Local\Temp\ccendiwk.s 			page 21


 1130 0030 00000000 		.4byte	.LFB121
 1131 0034 14000000 		.4byte	.LFE121
 1132 0038 00000000 		.4byte	.LFB122
 1133 003c 44000000 		.4byte	.LFE122
 1134 0040 00000000 		.4byte	0
 1135 0044 00000000 		.4byte	0
 1136              		.section	.debug_line,"",%progbits
 1137              	.Ldebug_line0:
 1138 0000 C1010000 		.section	.debug_str,"MS",%progbits,1
 1138      02004B01 
 1138      00000201 
 1138      FB0E0D00 
 1138      01010101 
 1139              	.LASF12:
 1140 0000 6C6F6E67 		.ascii	"long long int\000"
 1140      206C6F6E 
 1140      6720696E 
 1140      7400
 1141              	.LASF5:
 1142 000e 5F5F7569 		.ascii	"__uint8_t\000"
 1142      6E74385F 
 1142      7400
 1143              	.LASF24:
 1144 0018 4F535045 		.ascii	"OSPEEDR\000"
 1144      45445200 
 1145              	.LASF21:
 1146 0020 636C6561 		.ascii	"clear\000"
 1146      7200
 1147              	.LASF35:
 1148 0026 6C656470 		.ascii	"ledpwm_set_intensity\000"
 1148      776D5F73 
 1148      65745F69 
 1148      6E74656E 
 1148      73697479 
 1149              	.LASF43:
 1150 003b 6C656470 		.ascii	"ledpwm.c\000"
 1150      776D2E63 
 1150      00
 1151              	.LASF42:
 1152 0044 474E5520 		.ascii	"GNU C 4.8.4 20140526 (release) [ARM/embedded-4_8-br"
 1152      4320342E 
 1152      382E3420 
 1152      32303134 
 1152      30353236 
 1153 0077 616E6368 		.ascii	"anch revision 211358] -mcpu=cortex-m4 -mfloat-abi=h"
 1153      20726576 
 1153      6973696F 
 1153      6E203231 
 1153      31333538 
 1154 00aa 61726420 		.ascii	"ard -mfpu=fpv4-sp-d16 -mno-thumb-interwork -mthumb "
 1154      2D6D6670 
 1154      753D6670 
 1154      76342D73 
 1154      702D6431 
 1155 00dd 2D676764 		.ascii	"-ggdb -O2 -std=gnu99 -fomit-frame-pointer -falign-f"
 1155      62202D4F 
 1155      32202D73 
ARM GAS  C:\Users\jsyoon\AppData\Local\Temp\ccendiwk.s 			page 22


 1155      74643D67 
 1155      6E753939 
 1156 0110 756E6374 		.ascii	"unctions=16 -ffunction-sections -fdata-sections -fn"
 1156      696F6E73 
 1156      3D313620 
 1156      2D666675 
 1156      6E637469 
 1157 0143 6F2D636F 		.ascii	"o-common -fsingle-precision-constant\000"
 1157      6D6D6F6E 
 1157      202D6673 
 1157      696E676C 
 1157      652D7072 
 1158              	.LASF0:
 1159 0168 666C6F61 		.ascii	"float\000"
 1159      7400
 1160              	.LASF8:
 1161 016e 5F5F696E 		.ascii	"__int32_t\000"
 1161      7433325F 
 1161      7400
 1162              	.LASF26:
 1163 0178 42535252 		.ascii	"BSRR\000"
 1163      00
 1164              	.LASF1:
 1165 017d 756E7369 		.ascii	"unsigned int\000"
 1165      676E6564 
 1165      20696E74 
 1165      00
 1166              	.LASF22:
 1167 018a 4D4F4445 		.ascii	"MODER\000"
 1167      5200
 1168              	.LASF31:
 1169 0190 696F706F 		.ascii	"ioportmask_t\000"
 1169      72746D61 
 1169      736B5F74 
 1169      00
 1170              	.LASF23:
 1171 019d 4F545950 		.ascii	"OTYPER\000"
 1171      455200
 1172              	.LASF13:
 1173 01a4 6C6F6E67 		.ascii	"long long unsigned int\000"
 1173      206C6F6E 
 1173      6720756E 
 1173      7369676E 
 1173      65642069 
 1174              	.LASF46:
 1175 01bb 706F7766 		.ascii	"powf\000"
 1175      00
 1176              	.LASF3:
 1177 01c0 756E7369 		.ascii	"unsigned char\000"
 1177      676E6564 
 1177      20636861 
 1177      7200
 1178              	.LASF39:
 1179 01ce 6C656470 		.ascii	"ledpwm_update_pwm\000"
 1179      776D5F75 
 1179      70646174 
 1179      655F7077 
ARM GAS  C:\Users\jsyoon\AppData\Local\Temp\ccendiwk.s 			page 23


 1179      6D00
 1180              	.LASF11:
 1181 01e0 6C6F6E67 		.ascii	"long unsigned int\000"
 1181      20756E73 
 1181      69676E65 
 1181      6420696E 
 1181      7400
 1182              	.LASF34:
 1183 01f2 6C656470 		.ascii	"ledpwm_init\000"
 1183      776D5F69 
 1183      6E697400 
 1184              	.LASF7:
 1185 01fe 73686F72 		.ascii	"short unsigned int\000"
 1185      7420756E 
 1185      7369676E 
 1185      65642069 
 1185      6E7400
 1186              	.LASF28:
 1187 0211 4146524C 		.ascii	"AFRL\000"
 1187      00
 1188              	.LASF17:
 1189 0216 75696E74 		.ascii	"uint32_t\000"
 1189      33325F74 
 1189      00
 1190              	.LASF37:
 1191 021f 6C656470 		.ascii	"ledpwm_led_on\000"
 1191      776D5F6C 
 1191      65645F6F 
 1191      6E00
 1192              	.LASF6:
 1193 022d 5F5F7569 		.ascii	"__uint16_t\000"
 1193      6E743136 
 1193      5F7400
 1194              	.LASF32:
 1195 0238 646F7562 		.ascii	"double\000"
 1195      6C6500
 1196              	.LASF10:
 1197 023f 5F5F7569 		.ascii	"__uint32_t\000"
 1197      6E743332 
 1197      5F7400
 1198              	.LASF36:
 1199 024a 696E7465 		.ascii	"intensity\000"
 1199      6E736974 
 1199      7900
 1200              	.LASF29:
 1201 0254 41465248 		.ascii	"AFRH\000"
 1201      00
 1202              	.LASF30:
 1203 0259 4750494F 		.ascii	"GPIO_TypeDef\000"
 1203      5F547970 
 1203      65446566 
 1203      00
 1204              	.LASF20:
 1205 0266 63686172 		.ascii	"char\000"
 1205      00
 1206              	.LASF14:
 1207 026b 75696E74 		.ascii	"uint8_t\000"
ARM GAS  C:\Users\jsyoon\AppData\Local\Temp\ccendiwk.s 			page 24


 1207      385F7400 
 1208              	.LASF45:
 1209 0273 49544D5F 		.ascii	"ITM_RxBuffer\000"
 1209      52784275 
 1209      66666572 
 1209      00
 1210              	.LASF40:
 1211 0280 6C65645F 		.ascii	"led_values\000"
 1211      76616C75 
 1211      657300
 1212              	.LASF16:
 1213 028b 696E7433 		.ascii	"int32_t\000"
 1213      325F7400 
 1214              	.LASF19:
 1215 0293 73697A65 		.ascii	"sizetype\000"
 1215      74797065 
 1215      00
 1216              	.LASF25:
 1217 029c 50555044 		.ascii	"PUPDR\000"
 1217      5200
 1218              	.LASF47:
 1219 02a2 726F756E 		.ascii	"roundf\000"
 1219      646600
 1220              	.LASF44:
 1221 02a9 453A5C4D 		.ascii	"E:\\Maker\\BLDC\\test_eval\\try2\\OROCA-BLDC_R15080"
 1221      616B6572 
 1221      5C424C44 
 1221      435C7465 
 1221      73745F65 
 1222 02d7 3700     		.ascii	"7\000"
 1223              	.LASF15:
 1224 02d9 75696E74 		.ascii	"uint16_t\000"
 1224      31365F74 
 1224      00
 1225              	.LASF4:
 1226 02e2 73686F72 		.ascii	"short int\000"
 1226      7420696E 
 1226      7400
 1227              	.LASF41:
 1228 02ec 67616D6D 		.ascii	"gamma_table\000"
 1228      615F7461 
 1228      626C6500 
 1229              	.LASF9:
 1230 02f8 6C6F6E67 		.ascii	"long int\000"
 1230      20696E74 
 1230      00
 1231              	.LASF33:
 1232 0301 6C6F6E67 		.ascii	"long double\000"
 1232      20646F75 
 1232      626C6500 
 1233              	.LASF2:
 1234 030d 7369676E 		.ascii	"signed char\000"
 1234      65642063 
 1234      68617200 
 1235              	.LASF18:
 1236 0319 5F426F6F 		.ascii	"_Bool\000"
 1236      6C00
ARM GAS  C:\Users\jsyoon\AppData\Local\Temp\ccendiwk.s 			page 25


 1237              	.LASF38:
 1238 031f 6C656470 		.ascii	"ledpwm_led_off\000"
 1238      776D5F6C 
 1238      65645F6F 
 1238      666600
 1239              	.LASF27:
 1240 032e 4C434B52 		.ascii	"LCKR\000"
 1240      00
 1241              		.ident	"GCC: (GNU Tools for ARM Embedded Processors) 4.8.4 20140526 (release) [ARM/embedded-4_8-br
ARM GAS  C:\Users\jsyoon\AppData\Local\Temp\ccendiwk.s 			page 26


DEFINED SYMBOLS
                            *ABS*:00000000 ledpwm.c
C:\Users\jsyoon\AppData\Local\Temp\ccendiwk.s:21     .text.ledpwm_init:00000000 $t
C:\Users\jsyoon\AppData\Local\Temp\ccendiwk.s:27     .text.ledpwm_init:00000000 ledpwm_init
C:\Users\jsyoon\AppData\Local\Temp\ccendiwk.s:85     .text.ledpwm_init:00000048 $d
C:\Users\jsyoon\AppData\Local\Temp\ccendiwk.s:93     .text.ledpwm_set_intensity:00000000 $t
C:\Users\jsyoon\AppData\Local\Temp\ccendiwk.s:99     .text.ledpwm_set_intensity:00000000 ledpwm_set_intensity
C:\Users\jsyoon\AppData\Local\Temp\ccendiwk.s:145    .text.ledpwm_set_intensity:00000044 $d
C:\Users\jsyoon\AppData\Local\Temp\ccendiwk.s:152    .text.ledpwm_led_on:00000000 $t
C:\Users\jsyoon\AppData\Local\Temp\ccendiwk.s:158    .text.ledpwm_led_on:00000000 ledpwm_led_on
C:\Users\jsyoon\AppData\Local\Temp\ccendiwk.s:178    .text.ledpwm_led_on:00000010 $d
C:\Users\jsyoon\AppData\Local\Temp\ccendiwk.s:183    .text.ledpwm_led_off:00000000 $t
C:\Users\jsyoon\AppData\Local\Temp\ccendiwk.s:189    .text.ledpwm_led_off:00000000 ledpwm_led_off
C:\Users\jsyoon\AppData\Local\Temp\ccendiwk.s:209    .text.ledpwm_led_off:00000010 $d
C:\Users\jsyoon\AppData\Local\Temp\ccendiwk.s:214    .text.ledpwm_update_pwm:00000000 $t
C:\Users\jsyoon\AppData\Local\Temp\ccendiwk.s:220    .text.ledpwm_update_pwm:00000000 ledpwm_update_pwm
C:\Users\jsyoon\AppData\Local\Temp\ccendiwk.s:262    .text.ledpwm_update_pwm:00000034 $d
C:\Users\jsyoon\AppData\Local\Temp\ccendiwk.s:270    .bss.led_values:00000000 $d
C:\Users\jsyoon\AppData\Local\Temp\ccendiwk.s:274    .bss.led_values:00000000 led_values
C:\Users\jsyoon\AppData\Local\Temp\ccendiwk.s:277    .bss.cnt.10211:00000000 $d
C:\Users\jsyoon\AppData\Local\Temp\ccendiwk.s:281    .bss.cnt.10211:00000000 cnt.10211
C:\Users\jsyoon\AppData\Local\Temp\ccendiwk.s:284    .bss.gamma_table:00000000 $d
C:\Users\jsyoon\AppData\Local\Temp\ccendiwk.s:288    .bss.gamma_table:00000000 gamma_table
                     .debug_frame:00000010 $d
C:\Users\jsyoon\AppData\Local\Temp\ccendiwk.s:1241   .text.ledpwm_init:00000058 $t
C:\Users\jsyoon\AppData\Local\Temp\ccendiwk.s:182    .text.ledpwm_led_on:00000014 $t
C:\Users\jsyoon\AppData\Local\Temp\ccendiwk.s:213    .text.ledpwm_led_off:00000014 $t
C:\Users\jsyoon\AppData\Local\Temp\ccendiwk.s:269    .text.ledpwm_update_pwm:00000044 $t

UNDEFINED SYMBOLS
powf
roundf
