ARM GAS  C:\Users\jsyoon\AppData\Local\Temp\ccendiwk.s 			page 1


   1              		.syntax unified
   2              		.cpu cortex-m4
   3              		.eabi_attribute 27, 3
   4              		.eabi_attribute 28, 1
   5              		.fpu fpv4-sp-d16
   6              		.eabi_attribute 20, 1
   7              		.eabi_attribute 21, 1
   8              		.eabi_attribute 23, 3
   9              		.eabi_attribute 24, 1
  10              		.eabi_attribute 25, 1
  11              		.eabi_attribute 26, 1
  12              		.eabi_attribute 30, 2
  13              		.eabi_attribute 34, 1
  14              		.eabi_attribute 18, 4
  15              		.thumb
  16              		.file	"ledpwm.c"
  17              		.text
  18              	.Ltext0:
  19              		.cfi_sections	.debug_frame
  20              		.section	.text.ledpwm_init,"ax",%progbits
  21              		.align	2
  22              		.p2align 4,,15
  23              		.global	ledpwm_init
  24              		.thumb
  25              		.thumb_func
  26              		.type	ledpwm_init, %function
  27              	ledpwm_init:
  28              	.LFB118:
  29              		.file 1 "ledpwm.c"
  30              		.loc 1 36 0
  31              		.cfi_startproc
  32              		@ args = 0, pretend = 0, frame = 0
  33              		@ frame_needed = 0, uses_anonymous_args = 0
  34 0000 38B5     		push	{r3, r4, r5, lr}
  35              		.cfi_def_cfa_offset 16
  36              		.cfi_offset 3, -16
  37              		.cfi_offset 4, -12
  38              		.cfi_offset 5, -8
  39              		.cfi_offset 14, -4
  40              		.loc 1 37 0
  41 0002 114B     		ldr	r3, .L5
  42 0004 114D     		ldr	r5, .L5+4
  43              		.loc 1 36 0
  44 0006 2DED028B 		fstmfdd	sp!, {d8}
  45              		.cfi_def_cfa_offset 24
  46              		.cfi_offset 80, -24
  47              		.loc 1 37 0
  48 000a 0024     		movs	r4, #0
  49              	.LBB2:
  50              		.loc 1 41 0
  51 000c 9FED108A 		flds	s16, .L5+8
  52              	.LBE2:
  53              		.loc 1 37 0
  54 0010 1C60     		str	r4, [r3]
  55 0012 5C60     		str	r4, [r3, #4]
  56              	.LVL0:
  57              	.L3:
ARM GAS  C:\Users\jsyoon\AppData\Local\Temp\ccendiwk.s 			page 2


  58              	.LBB3:
  59              		.loc 1 41 0 discriminator 2
  60 0014 07EE904A 		fmsr	s15, r4	@ int
  61 0018 B8EEE70A 		fsitos	s0, s15
  62 001c DFED0D0A 		flds	s1, .L5+12
  63 0020 80EE080A 		fdivs	s0, s0, s16
  64 0024 FFF7FEFF 		bl	powf
  65              	.LVL1:
  66 0028 20EE080A 		fmuls	s0, s0, s16
  67 002c FFF7FEFF 		bl	roundf
  68              	.LVL2:
  69 0030 BDEEC00A 		ftosizs	s0, s0
  70 0034 10EE103A 		fmrs	r3, s0	@ int
  71 0038 2B55     		strb	r3, [r5, r4]
  72              		.loc 1 40 0 discriminator 2
  73 003a 0134     		adds	r4, r4, #1
  74              	.LVL3:
  75 003c C92C     		cmp	r4, #201
  76 003e E9D1     		bne	.L3
  77              	.LBE3:
  78              		.loc 1 43 0
  79 0040 BDEC028B 		fldmfdd	sp!, {d8}
  80 0044 38BD     		pop	{r3, r4, r5, pc}
  81              	.LVL4:
  82              	.L6:
  83 0046 00BF     		.align	2
  84              	.L5:
  85 0048 00000000 		.word	.LANCHOR0
  86 004c 00000000 		.word	.LANCHOR1
  87 0050 00004843 		.word	1128792064
  88 0054 E4380E40 		.word	1074673892
  89              		.cfi_endproc
  90              	.LFE118:
  91              		.size	ledpwm_init, .-ledpwm_init
  92              		.section	.text.ledpwm_set_intensity,"ax",%progbits
  93              		.align	2
  94              		.p2align 4,,15
  95              		.global	ledpwm_set_intensity
  96              		.thumb
  97              		.thumb_func
  98              		.type	ledpwm_set_intensity, %function
  99              	ledpwm_set_intensity:
 100              	.LFB119:
 101              		.loc 1 51 0
 102              		.cfi_startproc
 103              		@ args = 0, pretend = 0, frame = 0
 104              		@ frame_needed = 0, uses_anonymous_args = 0
 105              		@ link register save eliminated.
 106              	.LVL5:
 107              		.loc 1 52 0
 108 0000 0128     		cmp	r0, #1
 109 0002 00D9     		bls	.L12
 110 0004 7047     		bx	lr
 111              	.L12:
 112              		.loc 1 56 0
 113 0006 B5EEC00A 		fcmpezs	s0
 114 000a F1EE10FA 		fmstat
ARM GAS  C:\Users\jsyoon\AppData\Local\Temp\ccendiwk.s 			page 3


 115 000e 0ED4     		bmi	.L10
 116              		.loc 1 60 0
 117 0010 F7EE007A 		fconsts	s15, #112
 118 0014 B4EEE70A 		fcmpes	s0, s15
 119 0018 F1EE10FA 		fmstat
 120 001c C8BF     		it	gt
 121 001e C823     		movgt	r3, #200
 122 0020 07DD     		ble	.L13
 123              	.LVL6:
 124              	.L9:
 125              		.loc 1 64 0
 126 0022 0849     		ldr	r1, .L14
 127 0024 084A     		ldr	r2, .L14+4
 128 0026 CB5C     		ldrb	r3, [r1, r3]	@ zero_extendqisi2
 129 0028 42F82030 		str	r3, [r2, r0, lsl #2]
 130 002c 7047     		bx	lr
 131              	.LVL7:
 132              	.L10:
 133 002e 0023     		movs	r3, #0
 134 0030 F7E7     		b	.L9
 135              	.L13:
 136 0032 DFED067A 		flds	s15, .L14+8
 137 0036 20EE270A 		fmuls	s0, s0, s15
 138              	.LVL8:
 139 003a BDEEC00A 		ftosizs	s0, s0
 140 003e 10EE103A 		fmrs	r3, s0	@ int
 141 0042 EEE7     		b	.L9
 142              	.L15:
 143              		.align	2
 144              	.L14:
 145 0044 00000000 		.word	.LANCHOR1
 146 0048 00000000 		.word	.LANCHOR0
 147 004c 00004843 		.word	1128792064
 148              		.cfi_endproc
 149              	.LFE119:
 150              		.size	ledpwm_set_intensity, .-ledpwm_set_intensity
 151              		.section	.text.ledpwm_led_on,"ax",%progbits
 152              		.align	2
 153              		.p2align 4,,15
 154              		.global	ledpwm_led_on
 155              		.thumb
 156              		.thumb_func
 157              		.type	ledpwm_led_on, %function
 158              	ledpwm_led_on:
 159              	.LFB120:
 160              		.loc 1 67 0
 161              		.cfi_startproc
 162              		@ args = 0, pretend = 0, frame = 0
 163              		@ frame_needed = 0, uses_anonymous_args = 0
 164              		@ link register save eliminated.
 165              	.LVL9:
 166              		.loc 1 68 0
 167 0000 0128     		cmp	r0, #1
 168 0002 03DC     		bgt	.L16
 169              		.loc 1 72 0
 170 0004 024B     		ldr	r3, .L18
 171 0006 C822     		movs	r2, #200
ARM GAS  C:\Users\jsyoon\AppData\Local\Temp\ccendiwk.s 			page 4


 172 0008 43F82020 		str	r2, [r3, r0, lsl #2]
 173              	.L16:
 174 000c 7047     		bx	lr
 175              	.L19:
 176 000e 00BF     		.align	2
 177              	.L18:
 178 0010 00000000 		.word	.LANCHOR0
 179              		.cfi_endproc
 180              	.LFE120:
 181              		.size	ledpwm_led_on, .-ledpwm_led_on
 182 0014 AFF30080 		.section	.text.ledpwm_led_off,"ax",%progbits
 182      AFF30080 
 182      AFF30080 
 183              		.align	2
 184              		.p2align 4,,15
 185              		.global	ledpwm_led_off
 186              		.thumb
 187              		.thumb_func
 188              		.type	ledpwm_led_off, %function
 189              	ledpwm_led_off:
 190              	.LFB121:
 191              		.loc 1 75 0
 192              		.cfi_startproc
 193              		@ args = 0, pretend = 0, frame = 0
 194              		@ frame_needed = 0, uses_anonymous_args = 0
 195              		@ link register save eliminated.
 196              	.LVL10:
 197              		.loc 1 76 0
 198 0000 0128     		cmp	r0, #1
 199 0002 03DC     		bgt	.L20
 200              		.loc 1 80 0
 201 0004 024B     		ldr	r3, .L22
 202 0006 0022     		movs	r2, #0
 203 0008 43F82020 		str	r2, [r3, r0, lsl #2]
 204              	.L20:
 205 000c 7047     		bx	lr
 206              	.L23:
 207 000e 00BF     		.align	2
 208              	.L22:
 209 0010 00000000 		.word	.LANCHOR0
 210              		.cfi_endproc
 211              	.LFE121:
 212              		.size	ledpwm_led_off, .-ledpwm_led_off
 213 0014 AFF30080 		.section	.text.ledpwm_update_pwm,"ax",%progbits
 213      AFF30080 
 213      AFF30080 
 214              		.align	2
 215              		.p2align 4,,15
 216              		.global	ledpwm_update_pwm
 217              		.thumb
 218              		.thumb_func
 219              		.type	ledpwm_update_pwm, %function
 220              	ledpwm_update_pwm:
 221              	.LFB122:
 222              		.loc 1 86 0
 223              		.cfi_startproc
 224              		@ args = 0, pretend = 0, frame = 0
ARM GAS  C:\Users\jsyoon\AppData\Local\Temp\ccendiwk.s 			page 5


 225              		@ frame_needed = 0, uses_anonymous_args = 0
 226              		@ link register save eliminated.
 227              		.loc 1 88 0
 228 0000 0C4A     		ldr	r2, .L32
 229 0002 1368     		ldr	r3, [r2]
 230 0004 0133     		adds	r3, r3, #1
 231              		.loc 1 89 0
 232 0006 C82B     		cmp	r3, #200
 233              		.loc 1 90 0
 234 0008 08BF     		it	eq
 235 000a 0023     		moveq	r3, #0
 236 000c 1360     		str	r3, [r2]
 237              		.loc 1 93 0
 238 000e 0A4A     		ldr	r2, .L32+4
 239 0010 1168     		ldr	r1, [r2]
 240 0012 9942     		cmp	r1, r3
 241              		.loc 1 94 0
 242 0014 0949     		ldr	r1, .L32+8
 243 0016 4FF01000 		mov	r0, #16
 244 001a D4BF     		ite	le
 245 001c 4883     		strhle	r0, [r1, #26]	@ movhi
 246              		.loc 1 96 0
 247 001e 0883     		strhgt	r0, [r1, #24]	@ movhi
 248              		.loc 1 99 0
 249 0020 5268     		ldr	r2, [r2, #4]
 250 0022 9A42     		cmp	r2, r3
 251              		.loc 1 100 0
 252 0024 064B     		ldr	r3, .L32+12
 253 0026 4FF08002 		mov	r2, #128
 254 002a D4BF     		ite	le
 255 002c 5A83     		strhle	r2, [r3, #26]	@ movhi
 256              		.loc 1 102 0
 257 002e 1A83     		strhgt	r2, [r3, #24]	@ movhi
 258 0030 7047     		bx	lr
 259              	.L33:
 260 0032 00BF     		.align	2
 261              	.L32:
 262 0034 00000000 		.word	.LANCHOR2
 263 0038 00000000 		.word	.LANCHOR0
 264 003c 00080240 		.word	1073874944
 265 0040 00000240 		.word	1073872896
 266              		.cfi_endproc
 267              	.LFE122:
 268              		.size	ledpwm_update_pwm, .-ledpwm_update_pwm
 269 0044 AFF30080 		.section	.bss.led_values,"aw",%nobits
 269      AFF30080 
 269      AFF30080 
 270              		.align	2
 271              		.set	.LANCHOR0,. + 0
 272              		.type	led_values, %object
 273              		.size	led_values, 8
 274              	led_values:
 275 0000 00000000 		.space	8
 275      00000000 
 276              		.section	.bss.cnt.10211,"aw",%nobits
 277              		.align	2
 278              		.set	.LANCHOR2,. + 0
ARM GAS  C:\Users\jsyoon\AppData\Local\Temp\ccendiwk.s 			page 6


 279              		.type	cnt.10211, %object
 280              		.size	cnt.10211, 4
 281              	cnt.10211:
 282 0000 00000000 		.space	4
 283              		.section	.bss.gamma_table,"aw",%nobits
 284              		.align	2
 285              		.set	.LANCHOR1,. + 0
 286              		.type	gamma_table, %object
 287              		.size	gamma_table, 201
 288              	gamma_table:
 289 0000 00000000 		.space	201
 289      00000000 
 289      00000000 
 289      00000000 
 289      00000000 
 290 00c9 000000   		.text
 291              	.Letext0:
 292              		.file 2 "c:\\crosstools\\gcc-arm-embedded\\4.8_2014q2\\arm-none-eabi\\include\\machine\\_default_t
 293              		.file 3 "c:\\crosstools\\gcc-arm-embedded\\4.8_2014q2\\arm-none-eabi\\include\\stdint.h"
 294              		.file 4 "ChibiOS_2.6.6/os/hal/platforms/STM32/GPIOv2/pal_lld.h"
 295              		.file 5 "ChibiOS_2.6.6/os/ports/common/ARMCMx/CMSIS/include/core_cm4.h"
 296              		.file 6 "c:\\crosstools\\gcc-arm-embedded\\4.8_2014q2\\arm-none-eabi\\include\\math.h"