ARM GAS  C:\Users\ADMINI~1\AppData\Local\Temp\ccqwSzVP.s 			page 1


   1              		.syntax unified
   2              		.cpu cortex-m4
   3              		.eabi_attribute 27, 1
   4              		.eabi_attribute 28, 1
   5              		.fpu fpv4-sp-d16
   6              		.eabi_attribute 20, 1
   7              		.eabi_attribute 21, 1
   8              		.eabi_attribute 23, 3
   9              		.eabi_attribute 24, 1
  10              		.eabi_attribute 25, 1
  11              		.eabi_attribute 26, 1
  12              		.eabi_attribute 30, 2
  13              		.eabi_attribute 34, 1
  14              		.eabi_attribute 18, 4
  15              		.thumb
  16              		.file	"main.c"
  17              		.text
  18              	.Ltext0:
  19              		.cfi_sections	.debug_frame
  20              		.section	.text.timer_thread,"ax",%progbits
  21              		.align	2
  22              		.p2align 4,,15
  23              		.thumb
  24              		.thumb_func
  25              		.type	timer_thread, %function
  26              	timer_thread:
  27              	.LFB122:
  28              		.file 1 "main.c"
  29              		.loc 1 254 0
  30              		.cfi_startproc
  31              		@ Volatile: function does not return.
  32              		@ args = 0, pretend = 0, frame = 0
  33              		@ frame_needed = 0, uses_anonymous_args = 0
  34              	.LVL0:
  35 0000 08B5     		push	{r3, lr}
  36              		.cfi_def_cfa_offset 8
  37              		.cfi_offset 3, -8
  38              		.cfi_offset 14, -4
  39              		.loc 1 257 0
  40 0002 054B     		ldr	r3, .L5
  41 0004 054A     		ldr	r2, .L5+4
  42 0006 9B69     		ldr	r3, [r3, #24]
  43 0008 9A61     		str	r2, [r3, #24]
  44              	.LVL1:
  45              	.L2:
  46              		.loc 1 260 0 discriminator 1
  47 000a FFF7FEFF 		bl	packet_timerfunc
  48              	.LVL2:
  49              		.loc 1 261 0 discriminator 1
  50 000e 0A20     		movs	r0, #10
  51 0010 FFF7FEFF 		bl	chThdSleep
  52              	.LVL3:
  53              		.loc 1 262 0 discriminator 1
  54 0014 F9E7     		b	.L2
  55              	.L6:
  56 0016 00BF     		.align	2
  57              	.L5:
ARM GAS  C:\Users\ADMINI~1\AppData\Local\Temp\ccqwSzVP.s 			page 2


  58 0018 00000000 		.word	rlist
  59 001c 00000000 		.word	.LC0
  60              		.cfi_endproc
  61              	.LFE122:
  62              		.size	timer_thread, .-timer_thread
  63              		.section	.text.sample_send_thread,"ax",%progbits
  64              		.align	2
  65              		.p2align 4,,15
  66              		.thumb
  67              		.thumb_func
  68              		.type	sample_send_thread, %function
  69              	sample_send_thread:
  70              	.LFB121:
  71              		.loc 1 215 0
  72              		.cfi_startproc
  73              		@ args = 0, pretend = 0, frame = 32
  74              		@ frame_needed = 0, uses_anonymous_args = 0
  75              	.LVL4:
  76 0000 2DE9F04F 		push	{r4, r5, r6, r7, r8, r9, r10, fp, lr}
  77              		.cfi_def_cfa_offset 36
  78              		.cfi_offset 4, -36
  79              		.cfi_offset 5, -32
  80              		.cfi_offset 6, -28
  81              		.cfi_offset 7, -24
  82              		.cfi_offset 8, -20
  83              		.cfi_offset 9, -16
  84              		.cfi_offset 10, -12
  85              		.cfi_offset 11, -8
  86              		.cfi_offset 14, -4
  87              		.loc 1 218 0
  88 0004 3D4B     		ldr	r3, .L14
  89              		.loc 1 220 0
  90 0006 3E4A     		ldr	r2, .L14+4
  91              		.loc 1 218 0
  92 0008 9B69     		ldr	r3, [r3, #24]
  93 000a 3E49     		ldr	r1, .L14+8
  94 000c DFF810B1 		ldr	fp, .L14+36
  95 0010 DFF810A1 		ldr	r10, .L14+40
  96 0014 DFF81091 		ldr	r9, .L14+44
  97 0018 DFF81081 		ldr	r8, .L14+48
  98 001c 3A4F     		ldr	r7, .L14+12
  99 001e 3B4E     		ldr	r6, .L14+16
 100 0020 3B4D     		ldr	r5, .L14+20
 101 0022 3C4C     		ldr	r4, .L14+24
 102 0024 9961     		str	r1, [r3, #24]
 103              		.loc 1 215 0
 104 0026 89B0     		sub	sp, sp, #36
 105              		.cfi_def_cfa_offset 72
 106              		.loc 1 220 0
 107 0028 1360     		str	r3, [r2]
 108              	.LVL5:
 109              	.L9:
 110              		.loc 1 223 0
 111 002a 0120     		movs	r0, #1
 112 002c FFF7FEFF 		bl	chEvtWaitAny
 113              	.LVL6:
 114              	.LBB2:
ARM GAS  C:\Users\ADMINI~1\AppData\Local\Temp\ccqwSzVP.s 			page 3


 115              		.loc 1 225 0
 116 0030 394B     		ldr	r3, .L14+28
 117 0032 1B68     		ldr	r3, [r3]
 118 0034 002B     		cmp	r3, #0
 119 0036 F8DD     		ble	.L9
 120 0038 0023     		movs	r3, #0
 121              	.LVL7:
 122              	.L8:
 123              	.LBB3:
 124              		.loc 1 229 0 discriminator 3
 125 003a 3BF81300 		ldrh	r0, [fp, r3, lsl #1]
 126              		.loc 1 230 0 discriminator 3
 127 003e 3BF81320 		ldrh	r2, [fp, r3, lsl #1]
 128 0042 8DF80D20 		strb	r2, [sp, #13]
 129              		.loc 1 231 0 discriminator 3
 130 0046 3AF81310 		ldrh	r1, [r10, r3, lsl #1]
 131              		.loc 1 232 0 discriminator 3
 132 004a 3AF813E0 		ldrh	lr, [r10, r3, lsl #1]
 133              		.loc 1 233 0 discriminator 3
 134 004e 39F81320 		ldrh	r2, [r9, r3, lsl #1]
 135              		.loc 1 232 0 discriminator 3
 136 0052 8DF80FE0 		strb	lr, [sp, #15]
 137              		.loc 1 234 0 discriminator 3
 138 0056 39F813E0 		ldrh	lr, [r9, r3, lsl #1]
 139 005a 8DF811E0 		strb	lr, [sp, #17]
 140              		.loc 1 233 0 discriminator 3
 141 005e 42F30722 		sbfx	r2, r2, #8, #8
 142              		.loc 1 235 0 discriminator 3
 143 0062 38F813E0 		ldrh	lr, [r8, r3, lsl #1]
 144              		.loc 1 233 0 discriminator 3
 145 0066 8DF81020 		strb	r2, [sp, #16]
 146              		.loc 1 241 0 discriminator 3
 147 006a 2C4A     		ldr	r2, .L14+32
 148              		.loc 1 236 0 discriminator 3
 149 006c 38F813C0 		ldrh	ip, [r8, r3, lsl #1]
 150 0070 8DF813C0 		strb	ip, [sp, #19]
 151              		.loc 1 229 0 discriminator 3
 152 0074 40F30720 		sbfx	r0, r0, #8, #8
 153              		.loc 1 231 0 discriminator 3
 154 0078 41F30721 		sbfx	r1, r1, #8, #8
 155              		.loc 1 235 0 discriminator 3
 156 007c 4EF3072E 		sbfx	lr, lr, #8, #8
 157              		.loc 1 229 0 discriminator 3
 158 0080 8DF80C00 		strb	r0, [sp, #12]
 159              	.LVL8:
 160              		.loc 1 231 0 discriminator 3
 161 0084 8DF80E10 		strb	r1, [sp, #14]
 162              	.LVL9:
 163              		.loc 1 237 0 discriminator 3
 164 0088 37F81300 		ldrh	r0, [r7, r3, lsl #1]
 165              		.loc 1 235 0 discriminator 3
 166 008c 8DF812E0 		strb	lr, [sp, #18]
 167              	.LVL10:
 168              		.loc 1 238 0 discriminator 3
 169 0090 37F81310 		ldrh	r1, [r7, r3, lsl #1]
 170              		.loc 1 239 0 discriminator 3
 171 0094 36F813C0 		ldrh	ip, [r6, r3, lsl #1]
ARM GAS  C:\Users\ADMINI~1\AppData\Local\Temp\ccqwSzVP.s 			page 4


 172              		.loc 1 240 0 discriminator 3
 173 0098 36F813E0 		ldrh	lr, [r6, r3, lsl #1]
 174              		.loc 1 241 0 discriminator 3
 175 009c D25C     		ldrb	r2, [r2, r3]	@ zero_extendqisi2
 176              		.loc 1 238 0 discriminator 3
 177 009e 8DF81510 		strb	r1, [sp, #21]
 178              		.loc 1 241 0 discriminator 3
 179 00a2 8DF81820 		strb	r2, [sp, #24]
 180              		.loc 1 242 0 discriminator 3
 181 00a6 35F81310 		ldrh	r1, [r5, r3, lsl #1]
 182              		.loc 1 243 0 discriminator 3
 183 00aa 35F81320 		ldrh	r2, [r5, r3, lsl #1]
 184 00ae 8DF81A20 		strb	r2, [sp, #26]
 185              		.loc 1 244 0 discriminator 3
 186 00b2 34F81320 		ldrh	r2, [r4, r3, lsl #1]
 187              		.loc 1 240 0 discriminator 3
 188 00b6 8DF817E0 		strb	lr, [sp, #23]
 189              		.loc 1 237 0 discriminator 3
 190 00ba 40F30720 		sbfx	r0, r0, #8, #8
 191              		.loc 1 242 0 discriminator 3
 192 00be 41F30721 		sbfx	r1, r1, #8, #8
 193              		.loc 1 245 0 discriminator 3
 194 00c2 34F813E0 		ldrh	lr, [r4, r3, lsl #1]
 195              		.loc 1 237 0 discriminator 3
 196 00c6 8DF81400 		strb	r0, [sp, #20]
 197              	.LVL11:
 198              		.loc 1 244 0 discriminator 3
 199 00ca 42F30722 		sbfx	r2, r2, #8, #8
 200              		.loc 1 239 0 discriminator 3
 201 00ce 4CF3072C 		sbfx	ip, ip, #8, #8
 202              		.loc 1 242 0 discriminator 3
 203 00d2 8DF81910 		strb	r1, [sp, #25]
 204              		.loc 1 247 0 discriminator 3
 205 00d6 03A8     		add	r0, sp, #12
 206 00d8 1121     		movs	r1, #17
 207              		.loc 1 245 0 discriminator 3
 208 00da 0193     		str	r3, [sp, #4]
 209              		.loc 1 239 0 discriminator 3
 210 00dc 8DF816C0 		strb	ip, [sp, #22]
 211              	.LVL12:
 212              		.loc 1 244 0 discriminator 3
 213 00e0 8DF81B20 		strb	r2, [sp, #27]
 214              	.LVL13:
 215              		.loc 1 245 0 discriminator 3
 216 00e4 8DF81CE0 		strb	lr, [sp, #28]
 217              		.loc 1 247 0 discriminator 3
 218 00e8 FFF7FEFF 		bl	commands_send_samples
 219              	.LVL14:
 220              	.LBE3:
 221              		.loc 1 225 0 discriminator 3
 222 00ec 0A4B     		ldr	r3, .L14+28
 223 00ee 1A68     		ldr	r2, [r3]
 224 00f0 019B     		ldr	r3, [sp, #4]
 225 00f2 0133     		adds	r3, r3, #1
 226              	.LVL15:
 227 00f4 9A42     		cmp	r2, r3
 228 00f6 A0DC     		bgt	.L8
ARM GAS  C:\Users\ADMINI~1\AppData\Local\Temp\ccqwSzVP.s 			page 5


 229 00f8 97E7     		b	.L9
 230              	.L15:
 231 00fa 00BF     		.align	2
 232              	.L14:
 233 00fc 00000000 		.word	rlist
 234 0100 00000000 		.word	.LANCHOR0
 235 0104 0C000000 		.word	.LC1
 236 0108 00000000 		.word	.LANCHOR6
 237 010c 00000000 		.word	.LANCHOR7
 238 0110 00000000 		.word	.LANCHOR9
 239 0114 00000000 		.word	.LANCHOR10
 240 0118 00000000 		.word	.LANCHOR1
 241 011c 00000000 		.word	.LANCHOR8
 242 0120 00000000 		.word	.LANCHOR2
 243 0124 00000000 		.word	.LANCHOR3
 244 0128 00000000 		.word	.LANCHOR4
 245 012c 00000000 		.word	.LANCHOR5
 246              	.LBE2:
 247              		.cfi_endproc
 248              	.LFE121:
 249              		.size	sample_send_thread, .-sample_send_thread
 250              		.section	.text.periodic_thread,"ax",%progbits
 251              		.align	2
 252              		.p2align 4,,15
 253              		.thumb
 254              		.thumb_func
 255              		.type	periodic_thread, %function
 256              	periodic_thread:
 257              	.LFB120:
 258              		.loc 1 165 0
 259              		.cfi_startproc
 260              		@ args = 0, pretend = 0, frame = 0
 261              		@ frame_needed = 0, uses_anonymous_args = 0
 262              	.LVL16:
 263 0000 38B5     		push	{r3, r4, r5, lr}
 264              		.cfi_def_cfa_offset 16
 265              		.cfi_offset 3, -16
 266              		.cfi_offset 4, -12
 267              		.cfi_offset 5, -8
 268              		.cfi_offset 14, -4
 269              		.loc 1 168 0
 270 0002 1D4B     		ldr	r3, .L32
 271 0004 1D4A     		ldr	r2, .L32+4
 272 0006 9B69     		ldr	r3, [r3, #24]
 273 0008 9A61     		str	r2, [r3, #24]
 274              	.LVL17:
 275              	.L22:
 276              	.LBB4:
 277              		.loc 1 174 0
 278 000a FFF7FEFF 		bl	mcpwm_get_state
 279              	.LVL18:
 280 000e 0228     		cmp	r0, #2
 281              		.loc 1 175 0
 282 0010 08BF     		it	eq
 283 0012 B7EE000A 		fconstseq	s0, #112
 284 0016 4FF00000 		mov	r0, #0
 285              		.loc 1 177 0
ARM GAS  C:\Users\ADMINI~1\AppData\Local\Temp\ccqwSzVP.s 			page 6


 286 001a 18BF     		it	ne
 287 001c 9FED180A 		fldsne	s0, .L32+8
 288 0020 FFF7FEFF 		bl	ledpwm_set_intensity
 289              	.LVL19:
 290              		.loc 1 180 0
 291 0024 FFF7FEFF 		bl	mcpwm_get_fault
 292              	.LVL20:
 293              		.loc 1 181 0
 294 0028 0546     		mov	r5, r0
 295 002a F8B1     		cbz	r0, .L31
 296              	.LVL21:
 297              	.LBB5:
 298              		.loc 1 187 0
 299 002c 0024     		movs	r4, #0
 300              	.LVL22:
 301              	.L20:
 302              		.loc 1 188 0 discriminator 3
 303 002e B7EE000A 		fconsts	s0, #112
 304 0032 0120     		movs	r0, #1
 305 0034 FFF7FEFF 		bl	ledpwm_set_intensity
 306              	.LVL23:
 307              		.loc 1 189 0 discriminator 3
 308 0038 40F6C410 		movw	r0, #2500
 309 003c FFF7FEFF 		bl	chThdSleep
 310              	.LVL24:
 311              		.loc 1 190 0 discriminator 3
 312 0040 0120     		movs	r0, #1
 313 0042 9FED100A 		flds	s0, .L32+12
 314              		.loc 1 187 0 discriminator 3
 315 0046 0444     		add	r4, r4, r0
 316              	.LVL25:
 317              		.loc 1 190 0 discriminator 3
 318 0048 FFF7FEFF 		bl	ledpwm_set_intensity
 319              	.LVL26:
 320              		.loc 1 191 0 discriminator 3
 321 004c 40F6C410 		movw	r0, #2500
 322 0050 FFF7FEFF 		bl	chThdSleep
 323              	.LVL27:
 324              		.loc 1 187 0 discriminator 3
 325 0054 AC42     		cmp	r4, r5
 326 0056 EAD1     		bne	.L20
 327              	.LBE5:
 328              		.loc 1 194 0
 329 0058 41F28830 		movw	r0, #5000
 330 005c FFF7FEFF 		bl	chThdSleep
 331              	.LVL28:
 332              	.L19:
 333              		.loc 1 200 0
 334 0060 FFF7FEFF 		bl	mcpwm_get_state
 335              	.LVL29:
 336              		.loc 1 209 0
 337 0064 6420     		movs	r0, #100
 338 0066 FFF7FEFF 		bl	chThdSleep
 339              	.LVL30:
 340              	.LBE4:
 341              		.loc 1 210 0
 342 006a CEE7     		b	.L22
ARM GAS  C:\Users\ADMINI~1\AppData\Local\Temp\ccqwSzVP.s 			page 7


 343              	.LVL31:
 344              	.L31:
 345              	.LBB6:
 346              		.loc 1 196 0
 347 006c 0120     		movs	r0, #1
 348              	.LVL32:
 349 006e 9FED050A 		flds	s0, .L32+12
 350 0072 FFF7FEFF 		bl	ledpwm_set_intensity
 351              	.LVL33:
 352 0076 F3E7     		b	.L19
 353              	.L33:
 354              		.align	2
 355              	.L32:
 356 0078 00000000 		.word	rlist
 357 007c 18000000 		.word	.LC2
 358 0080 CDCC4C3E 		.word	1045220557
 359 0084 00000000 		.word	0
 360              	.LBE6:
 361              		.cfi_endproc
 362              	.LFE120:
 363              		.size	periodic_thread, .-periodic_thread
 364              		.section	.text.debug_print_usb,"ax",%progbits
 365              		.align	2
 366              		.p2align 4,,15
 367              		.global	debug_print_usb
 368              		.thumb
 369              		.thumb_func
 370              		.type	debug_print_usb, %function
 371              	debug_print_usb:
 372              	.LFB119:
 373              		.loc 1 62 0
 374              		.cfi_startproc
 375              		@ args = 4, pretend = 16, frame = 24
 376              		@ frame_needed = 0, uses_anonymous_args = 1
 377              	.LVL34:
 378 0000 0FB4     		push	{r0, r1, r2, r3}
 379              		.cfi_def_cfa_offset 16
 380              		.cfi_offset 0, -16
 381              		.cfi_offset 1, -12
 382              		.cfi_offset 2, -8
 383              		.cfi_offset 3, -4
 384 0002 70B5     		push	{r4, r5, r6, lr}
 385              		.cfi_def_cfa_offset 32
 386              		.cfi_offset 4, -32
 387              		.cfi_offset 5, -28
 388              		.cfi_offset 6, -24
 389              		.cfi_offset 14, -20
 390 0004 86B0     		sub	sp, sp, #24
 391              		.cfi_def_cfa_offset 56
 392              		.loc 1 62 0
 393 0006 0AAC     		add	r4, sp, #40
 394              		.loc 1 78 0
 395 0008 114D     		ldr	r5, .L36
 396              		.loc 1 62 0
 397 000a 54F8046B 		ldr	r6, [r4], #4
 398              		.loc 1 78 0
 399 000e 2946     		mov	r1, r5
ARM GAS  C:\Users\ADMINI~1\AppData\Local\Temp\ccqwSzVP.s 			page 8


 400 0010 01A8     		add	r0, sp, #4
 401 0012 0023     		movs	r3, #0
 402 0014 4FF48062 		mov	r2, #1024
 403 0018 FFF7FEFF 		bl	msObjectInit
 404              	.LVL35:
 405              		.loc 1 83 0
 406 001c 2246     		mov	r2, r4
 407 001e 3146     		mov	r1, r6
 408 0020 01A8     		add	r0, sp, #4
 409              	.LVL36:
 410              		.loc 1 82 0
 411 0022 0094     		str	r4, [sp]
 412              		.loc 1 83 0
 413 0024 FFF7FEFF 		bl	chvprintf
 414              	.LVL37:
 415              		.loc 1 87 0
 416 0028 019B     		ldr	r3, [sp, #4]
 417 002a 01A8     		add	r0, sp, #4
 418              	.LVL38:
 419 002c 9B68     		ldr	r3, [r3, #8]
 420 002e 0021     		movs	r1, #0
 421 0030 9847     		blx	r3
 422              	.LVL39:
 423              		.loc 1 88 0
 424 0032 049C     		ldr	r4, [sp, #16]
 425              		.loc 1 93 0
 426 0034 0748     		ldr	r0, .L36+4
 427              		.loc 1 88 0
 428 0036 013C     		subs	r4, r4, #1
 429              	.LVL40:
 430              		.loc 1 93 0
 431 0038 2946     		mov	r1, r5
 432 003a 2246     		mov	r2, r4
 433 003c 0023     		movs	r3, #0
 434 003e FFF7FEFF 		bl	chOQWriteTimeout
 435              	.LVL41:
 436              		.loc 1 96 0
 437 0042 2046     		mov	r0, r4
 438 0044 06B0     		add	sp, sp, #24
 439              		.cfi_def_cfa_offset 32
 440              		@ sp needed
 441 0046 BDE87040 		pop	{r4, r5, r6, lr}
 442              		.cfi_restore 14
 443              		.cfi_restore 6
 444              		.cfi_restore 5
 445              		.cfi_restore 4
 446              		.cfi_def_cfa_offset 16
 447              	.LVL42:
 448 004a 04B0     		add	sp, sp, #16
 449              		.cfi_restore 3
 450              		.cfi_restore 2
 451              		.cfi_restore 1
 452              		.cfi_restore 0
 453              		.cfi_def_cfa_offset 0
 454 004c 7047     		bx	lr
 455              	.L37:
 456 004e 00BF     		.align	2
ARM GAS  C:\Users\ADMINI~1\AppData\Local\Temp\ccqwSzVP.s 			page 9


 457              	.L36:
 458 0050 00000000 		.word	.LANCHOR11
 459 0054 30000000 		.word	SDU1+48
 460              		.cfi_endproc
 461              	.LFE119:
 462              		.size	debug_print_usb, .-debug_print_usb
 463              		.section	.text.main_dma_adc_handler,"ax",%progbits
 464              		.align	2
 465              		.p2align 4,,15
 466              		.global	main_dma_adc_handler
 467              		.thumb
 468              		.thumb_func
 469              		.type	main_dma_adc_handler, %function
 470              	main_dma_adc_handler:
 471              	.LFB123:
 472              		.loc 1 271 0
 473              		.cfi_startproc
 474              		@ args = 0, pretend = 0, frame = 0
 475              		@ frame_needed = 0, uses_anonymous_args = 0
 476              		@ link register save eliminated.
 477 0000 7047     		bx	lr
 478              		.cfi_endproc
 479              	.LFE123:
 480              		.size	main_dma_adc_handler, .-main_dma_adc_handler
 481 0002 00BF     		.section	.text.main_get_last_adc_isr_duration,"ax",%progbits
 482              		.align	2
 483              		.p2align 4,,15
 484              		.global	main_get_last_adc_isr_duration
 485              		.thumb
 486              		.thumb_func
 487              		.type	main_get_last_adc_isr_duration, %function
 488              	main_get_last_adc_isr_duration:
 489              	.LFB124:
 490              		.loc 1 279 0
 491              		.cfi_startproc
 492              		@ args = 0, pretend = 0, frame = 0
 493              		@ frame_needed = 0, uses_anonymous_args = 0
 494              		@ link register save eliminated.
 495              		.loc 1 280 0
 496 0000 014B     		ldr	r3, .L40
 497 0002 93ED000A 		flds	s0, [r3]
 498              		.loc 1 281 0
 499 0006 7047     		bx	lr
 500              	.L41:
 501              		.align	2
 502              	.L40:
 503 0008 00000000 		.word	.LANCHOR12
 504              		.cfi_endproc
 505              	.LFE124:
 506              		.size	main_get_last_adc_isr_duration, .-main_get_last_adc_isr_duration
 507              		.section	.text.main_sample_print_data,"ax",%progbits
 508              		.align	2
 509              		.p2align 4,,15
 510              		.global	main_sample_print_data
 511              		.thumb
 512              		.thumb_func
 513              		.type	main_sample_print_data, %function
ARM GAS  C:\Users\ADMINI~1\AppData\Local\Temp\ccqwSzVP.s 			page 10


 514              	main_sample_print_data:
 515              	.LFB125:
 516              		.loc 1 283 0
 517              		.cfi_startproc
 518              		@ args = 0, pretend = 0, frame = 0
 519              		@ frame_needed = 0, uses_anonymous_args = 0
 520              		@ link register save eliminated.
 521              	.LVL43:
 522 0000 7047     		bx	lr
 523              		.cfi_endproc
 524              	.LFE125:
 525              		.size	main_sample_print_data, .-main_sample_print_data
 526 0002 00BF     		.section	.text.test_dac_loop,"ax",%progbits
 527              		.align	2
 528              		.p2align 4,,15
 529              		.global	test_dac_loop
 530              		.thumb
 531              		.thumb_func
 532              		.type	test_dac_loop, %function
 533              	test_dac_loop:
 534              	.LFB126:
 535              		.loc 1 292 0
 536              		.cfi_startproc
 537              		@ Volatile: function does not return.
 538              		@ args = 0, pretend = 0, frame = 0
 539              		@ frame_needed = 0, uses_anonymous_args = 0
 540              		.loc 1 292 0
 541 0000 08B5     		push	{r3, lr}
 542              		.cfi_def_cfa_offset 8
 543              		.cfi_offset 3, -8
 544              		.cfi_offset 14, -4
 545 0002 0B4C     		ldr	r4, .L48
 546              	.LBB7:
 547              		.loc 1 301 0
 548 0004 0026     		movs	r6, #0
 549              		.loc 1 298 0
 550 0006 2546     		mov	r5, r4
 551              	.L44:
 552 0008 2088     		ldrh	r0, [r4]
 553 000a 00B2     		sxth	r0, r0
 554 000c FFF7FEFF 		bl	spi_dac_write_A
 555              	.LVL44:
 556              		.loc 1 299 0
 557 0010 2088     		ldrh	r0, [r4]
 558 0012 80B2     		uxth	r0, r0
 559 0014 431C     		adds	r3, r0, #1
 560 0016 9BB2     		uxth	r3, r3
 561 0018 00B2     		sxth	r0, r0
 562 001a 2380     		strh	r3, [r4]	@ movhi
 563 001c FFF7FEFF 		bl	spi_dac_write_B
 564              	.LVL45:
 565              		.loc 1 301 0
 566 0020 2388     		ldrh	r3, [r4]
 567 0022 1BB2     		sxth	r3, r3
 568 0024 B3F5006F 		cmp	r3, #2048
 569 0028 C8BF     		it	gt
 570 002a 2E80     		strhgt	r6, [r5]	@ movhi
ARM GAS  C:\Users\ADMINI~1\AppData\Local\Temp\ccqwSzVP.s 			page 11


 571 002c ECE7     		b	.L44
 572              	.L49:
 573 002e 00BF     		.align	2
 574              	.L48:
 575 0030 00000000 		.word	.LANCHOR13
 576              	.LBE7:
 577              		.cfi_endproc
 578              	.LFE126:
 579              		.size	test_dac_loop, .-test_dac_loop
 580              		.section	.text.startup.main,"ax",%progbits
 581              		.align	2
 582              		.p2align 4,,15
 583              		.global	main
 584              		.thumb
 585              		.thumb_func
 586              		.type	main, %function
 587              	main:
 588              	.LFB127:
 589              		.loc 1 315 0
 590              		.cfi_startproc
 591              		@ args = 0, pretend = 0, frame = 320
 592              		@ frame_needed = 0, uses_anonymous_args = 0
 593 0000 10B5     		push	{r4, lr}
 594              		.cfi_def_cfa_offset 8
 595              		.cfi_offset 4, -8
 596              		.cfi_offset 14, -4
 597 0002 D2B0     		sub	sp, sp, #328
 598              		.cfi_def_cfa_offset 336
 599              		.loc 1 316 0
 600 0004 FFF7FEFF 		bl	halInit
 601              	.LVL46:
 602              		.loc 1 317 0
 603 0008 FFF7FEFF 		bl	chSysInit
 604              	.LVL47:
 605              		.loc 1 319 0
 606 000c 42F21070 		movw	r0, #10000
 607 0010 FFF7FEFF 		bl	chThdSleep
 608              	.LVL48:
 609              		.loc 1 321 0
 610 0014 FFF7FEFF 		bl	conf_general_init
 611              	.LVL49:
 612              		.loc 1 322 0
 613 0018 FFF7FEFF 		bl	hw_init_gpio
 614              	.LVL50:
 615              		.loc 1 325 0
 616 001c FFF7FEFF 		bl	spi_dac_hw_init
 617              	.LVL51:
 618              		.loc 1 327 0
 619 0020 FFF7FEFF 		bl	ledpwm_init
 620              	.LVL52:
 621              		.loc 1 338 0
 622 0024 26A8     		add	r0, sp, #152
 623 0026 FFF7FEFF 		bl	conf_general_read_mc_configuration
 624              	.LVL53:
 625              		.loc 1 339 0
 626 002a 26A8     		add	r0, sp, #152
 627 002c FFF7FEFF 		bl	mcpwm_init
ARM GAS  C:\Users\ADMINI~1\AppData\Local\Temp\ccqwSzVP.s 			page 12


 628              	.LVL54:
 629              		.loc 1 341 0
 630 0030 FFF7FEFF 		bl	commands_init
 631              	.LVL55:
 632              		.loc 1 342 0
 633 0034 FFF7FEFF 		bl	comm_usb_init
 634              	.LVL56:
 635              		.loc 1 345 0
 636 0038 03A8     		add	r0, sp, #12
 637 003a FFF7FEFF 		bl	conf_general_read_app_configuration
 638              	.LVL57:
 639              		.loc 1 346 0
 640 003e 03A8     		add	r0, sp, #12
 641 0040 FFF7FEFF 		bl	app_init
 642              	.LVL58:
 643              		.loc 1 365 0
 644 0044 0024     		movs	r4, #0
 645              		.loc 1 348 0
 646 0046 FFF7FEFF 		bl	timeout_init
 647              	.LVL59:
 648              		.loc 1 349 0
 649 004a 9DED050A 		flds	s0, [sp, #20]
 650 004e 0498     		ldr	r0, [sp, #16]
 651 0050 FFF7FEFF 		bl	timeout_configure
 652              	.LVL60:
 653              		.loc 1 365 0
 654 0054 0E4B     		ldr	r3, .L53
 655 0056 0094     		str	r4, [sp]
 656 0058 4FF4B361 		mov	r1, #1432
 657 005c 4022     		movs	r2, #64
 658 005e 0D48     		ldr	r0, .L53+4
 659 0060 FFF7FEFF 		bl	chThdCreateStatic
 660              	.LVL61:
 661              		.loc 1 366 0
 662 0064 0C4B     		ldr	r3, .L53+8
 663 0066 0094     		str	r4, [sp]
 664 0068 4FF4B361 		mov	r1, #1432
 665 006c 3F22     		movs	r2, #63
 666 006e 0B48     		ldr	r0, .L53+12
 667 0070 FFF7FEFF 		bl	chThdCreateStatic
 668              	.LVL62:
 669              		.loc 1 367 0
 670 0074 0094     		str	r4, [sp]
 671 0076 0A48     		ldr	r0, .L53+16
 672 0078 0A4B     		ldr	r3, .L53+20
 673 007a 4FF40671 		mov	r1, #536
 674 007e 4022     		movs	r2, #64
 675 0080 FFF7FEFF 		bl	chThdCreateStatic
 676              	.LVL63:
 677              	.L51:
 678              		.loc 1 393 0 discriminator 1
 679 0084 4FF4FA60 		mov	r0, #2000
 680 0088 FFF7FEFF 		bl	chThdSleep
 681              	.LVL64:
 682              		.loc 1 397 0 discriminator 1
 683 008c FAE7     		b	.L51
 684              	.L54:
ARM GAS  C:\Users\ADMINI~1\AppData\Local\Temp\ccqwSzVP.s 			page 13


 685 008e 00BF     		.align	2
 686              	.L53:
 687 0090 00000000 		.word	periodic_thread
 688 0094 00000000 		.word	.LANCHOR14
 689 0098 00000000 		.word	sample_send_thread
 690 009c 00000000 		.word	.LANCHOR15
 691 00a0 00000000 		.word	.LANCHOR16
 692 00a4 00000000 		.word	timer_thread
 693              		.cfi_endproc
 694              	.LFE127:
 695              		.size	main, .-main
 696              		.section	.bss.sample_now,"aw",%nobits
 697              		.align	2
 698              		.type	sample_now, %object
 699              		.size	sample_now, 4
 700              	sample_now:
 701 0000 00000000 		.space	4
 702              		.section	.bss.status_samples,"aw",%nobits
 703              		.align	2
 704              		.set	.LANCHOR8,. + 0
 705              		.type	status_samples, %object
 706              		.size	status_samples, 2000
 707              	status_samples:
 708 0000 00000000 		.space	2000
 708      00000000 
 708      00000000 
 708      00000000 
 708      00000000 
 709              		.section	.bss.dacDataA,"aw",%nobits
 710              		.align	1
 711              		.set	.LANCHOR13,. + 0
 712              		.type	dacDataA, %object
 713              		.size	dacDataA, 2
 714              	dacDataA:
 715 0000 0000     		.space	2
 716              		.section	.bss.debug_usb_buff.11721,"aw",%nobits
 717              		.align	2
 718              		.set	.LANCHOR11,. + 0
 719              		.type	debug_usb_buff.11721, %object
 720              		.size	debug_usb_buff.11721, 1024
 721              	debug_usb_buff.11721:
 722 0000 00000000 		.space	1024
 722      00000000 
 722      00000000 
 722      00000000 
 722      00000000 
 723              		.section	.bss.f_sw_samples,"aw",%nobits
 724              		.align	2
 725              		.set	.LANCHOR10,. + 0
 726              		.type	f_sw_samples, %object
 727              		.size	f_sw_samples, 4000
 728              	f_sw_samples:
 729 0000 00000000 		.space	4000
 729      00000000 
 729      00000000 
 729      00000000 
 729      00000000 
ARM GAS  C:\Users\ADMINI~1\AppData\Local\Temp\ccqwSzVP.s 			page 14


 730              		.section	.bss.ph2_samples,"aw",%nobits
 731              		.align	2
 732              		.set	.LANCHOR5,. + 0
 733              		.type	ph2_samples, %object
 734              		.size	ph2_samples, 4000
 735              	ph2_samples:
 736 0000 00000000 		.space	4000
 736      00000000 
 736      00000000 
 736      00000000 
 736      00000000 
 737              		.section	.bss.vzero_samples,"aw",%nobits
 738              		.align	2
 739              		.set	.LANCHOR7,. + 0
 740              		.type	vzero_samples, %object
 741              		.size	vzero_samples, 4000
 742              	vzero_samples:
 743 0000 00000000 		.space	4000
 743      00000000 
 743      00000000 
 743      00000000 
 743      00000000 
 744              		.section	.bss.curr0_samples,"aw",%nobits
 745              		.align	2
 746              		.set	.LANCHOR2,. + 0
 747              		.type	curr0_samples, %object
 748              		.size	curr0_samples, 4000
 749              	curr0_samples:
 750 0000 00000000 		.space	4000
 750      00000000 
 750      00000000 
 750      00000000 
 750      00000000 
 751              		.section	.data.sample_int,"aw",%progbits
 752              		.align	2
 753              		.type	sample_int, %object
 754              		.size	sample_int, 4
 755              	sample_int:
 756 0000 01000000 		.word	1
 757              		.section	.bss.curr_fir_samples,"aw",%nobits
 758              		.align	2
 759              		.set	.LANCHOR9,. + 0
 760              		.type	curr_fir_samples, %object
 761              		.size	curr_fir_samples, 4000
 762              	curr_fir_samples:
 763 0000 00000000 		.space	4000
 763      00000000 
 763      00000000 
 763      00000000 
 763      00000000 
 764              		.section	.bss.sample_send_thread_wa,"aw",%nobits
 765              		.align	3
 766              		.set	.LANCHOR15,. + 0
 767              		.type	sample_send_thread_wa, %object
 768              		.size	sample_send_thread_wa, 1432
 769              	sample_send_thread_wa:
 770 0000 00000000 		.space	1432
ARM GAS  C:\Users\ADMINI~1\AppData\Local\Temp\ccqwSzVP.s 			page 15


 770      00000000 
 770      00000000 
 770      00000000 
 770      00000000 
 771              		.section	.bss.was_start_sample,"aw",%nobits
 772              		.align	2
 773              		.type	was_start_sample, %object
 774              		.size	was_start_sample, 4
 775              	was_start_sample:
 776 0000 00000000 		.space	4
 777              		.section	.bss.sample_at_start,"aw",%nobits
 778              		.align	2
 779              		.type	sample_at_start, %object
 780              		.size	sample_at_start, 4
 781              	sample_at_start:
 782 0000 00000000 		.space	4
 783              		.section	.rodata.str1.4,"aMS",%progbits,1
 784              		.align	2
 785              	.LC0:
 786 0000 6D736563 		.ascii	"msec_timer\000"
 786      5F74696D 
 786      657200
 787 000b 00       		.space	1
 788              	.LC1:
 789 000c 4D61696E 		.ascii	"Main sample\000"
 789      2073616D 
 789      706C6500 
 790              	.LC2:
 791 0018 4D61696E 		.ascii	"Main periodic\000"
 791      20706572 
 791      696F6469 
 791      6300
 792              		.section	.bss.main_last_adc_duration,"aw",%nobits
 793              		.align	2
 794              		.set	.LANCHOR12,. + 0
 795              		.type	main_last_adc_duration, %object
 796              		.size	main_last_adc_duration, 4
 797              	main_last_adc_duration:
 798 0000 00000000 		.space	4
 799              		.section	.bss.ph3_samples,"aw",%nobits
 800              		.align	2
 801              		.set	.LANCHOR6,. + 0
 802              		.type	ph3_samples, %object
 803              		.size	ph3_samples, 4000
 804              	ph3_samples:
 805 0000 00000000 		.space	4000
 805      00000000 
 805      00000000 
 805      00000000 
 805      00000000 
 806              		.section	.bss.start_comm,"aw",%nobits
 807              		.align	2
 808              		.type	start_comm, %object
 809              		.size	start_comm, 4
 810              	start_comm:
 811 0000 00000000 		.space	4
 812              		.section	.bss.curr1_samples,"aw",%nobits
ARM GAS  C:\Users\ADMINI~1\AppData\Local\Temp\ccqwSzVP.s 			page 16


 813              		.align	2
 814              		.set	.LANCHOR3,. + 0
 815              		.type	curr1_samples, %object
 816              		.size	curr1_samples, 4000
 817              	curr1_samples:
 818 0000 00000000 		.space	4000
 818      00000000 
 818      00000000 
 818      00000000 
 818      00000000 
 819              		.section	.bss.ph1_samples,"aw",%nobits
 820              		.align	2
 821              		.set	.LANCHOR4,. + 0
 822              		.type	ph1_samples, %object
 823              		.size	ph1_samples, 4000
 824              	ph1_samples:
 825 0000 00000000 		.space	4000
 825      00000000 
 825      00000000 
 825      00000000 
 825      00000000 
 826              		.section	.data.sample_len,"aw",%progbits
 827              		.align	2
 828              		.set	.LANCHOR1,. + 0
 829              		.type	sample_len, %object
 830              		.size	sample_len, 4
 831              	sample_len:
 832 0000 E8030000 		.word	1000
 833              		.section	.data.sample_ready,"aw",%progbits
 834              		.align	2
 835              		.type	sample_ready, %object
 836              		.size	sample_ready, 4
 837              	sample_ready:
 838 0000 01000000 		.word	1
 839              		.section	.bss.timer_thread_wa,"aw",%nobits
 840              		.align	3
 841              		.set	.LANCHOR16,. + 0
 842              		.type	timer_thread_wa, %object
 843              		.size	timer_thread_wa, 536
 844              	timer_thread_wa:
 845 0000 00000000 		.space	536
 845      00000000 
 845      00000000 
 845      00000000 
 845      00000000 
 846              		.section	.bss.sample_send_tp,"aw",%nobits
 847              		.align	2
 848              		.set	.LANCHOR0,. + 0
 849              		.type	sample_send_tp, %object
 850              		.size	sample_send_tp, 4
 851              	sample_send_tp:
 852 0000 00000000 		.space	4
 853              		.section	.bss.periodic_thread_wa,"aw",%nobits
 854              		.align	3
 855              		.set	.LANCHOR14,. + 0
 856              		.type	periodic_thread_wa, %object
 857              		.size	periodic_thread_wa, 1432
ARM GAS  C:\Users\ADMINI~1\AppData\Local\Temp\ccqwSzVP.s 			page 17


 858              	periodic_thread_wa:
 859 0000 00000000 		.space	1432
 859      00000000 
 859      00000000 
 859      00000000 
 859      00000000 
 860              		.text
 861              	.Letext0:
 862              		.file 2 "c:\\program files\\gnu tools arm embedded\\4.9 2015q2\\lib\\gcc\\arm-none-eabi\\4.9.3\\in
 863              		.file 3 "c:\\program files\\gnu tools arm embedded\\4.9 2015q2\\arm-none-eabi\\include\\machine\\_
 864              		.file 4 "c:\\program files\\gnu tools arm embedded\\4.9 2015q2\\arm-none-eabi\\include\\sys\\_stdi
 865              		.file 5 "ChibiOS_2.6.6/os/ports/GCC/ARMCMx/chtypes.h"
 866              		.file 6 "ChibiOS_2.6.6/os/kernel/include/chlists.h"
 867              		.file 7 "ChibiOS_2.6.6/os/kernel/include/chthreads.h"
 868              		.file 8 "ChibiOS_2.6.6/os/ports/GCC/ARMCMx/chcore_v7m.h"
 869              		.file 9 "ChibiOS_2.6.6/os/kernel/include/chschd.h"
 870              		.file 10 "ChibiOS_2.6.6/os/kernel/include/chmtx.h"
 871              		.file 11 "ChibiOS_2.6.6/os/kernel/include/chevents.h"
 872              		.file 12 "ChibiOS_2.6.6/os/kernel/include/chqueues.h"
 873              		.file 13 "ChibiOS_2.6.6/os/kernel/include/chstreams.h"
 874              		.file 14 "ChibiOS_2.6.6/os/hal/include/usb.h"
 875              		.file 15 "ChibiOS_2.6.6/os/hal/platforms/STM32/OTGv1/usb_lld.h"
 876              		.file 16 "ChibiOS_2.6.6/os/hal/platforms/STM32/OTGv1/stm32_otg.h"
 877              		.file 17 "ChibiOS_2.6.6/os/hal/include/serial_usb.h"
 878              		.file 18 "c:\\program files\\gnu tools arm embedded\\4.9 2015q2\\lib\\gcc\\arm-none-eabi\\4.9.3\\i
 879              		.file 19 "<built-in>"
 880              		.file 20 "datatypes.h"
 881              		.file 21 "ChibiOS_2.6.6/os/various/memstreams.h"
 882              		.file 22 "ChibiOS_2.6.6/os/ports/common/ARMCMx/CMSIS/include/core_cm4.h"
 883              		.file 23 "commands.h"
 884              		.file 24 "ledpwm.h"
 885              		.file 25 "mcpwm.h"
 886              		.file 26 "ChibiOS_2.6.6/os/various/chprintf.h"
 887              		.file 27 "main.h"
 888              		.file 28 "packet.h"
 889              		.file 29 "ChibiOS_2.6.6/os/hal/include/hal.h"
 890              		.file 30 "ChibiOS_2.6.6/os/kernel/include/chsys.h"
 891              		.file 31 "conf_general.h"
 892              		.file 32 "hwconf/hw.h"
 893              		.file 33 "comm_usb.h"
 894              		.file 34 "applications/app.h"
 895              		.file 35 "timeout.h"