ARM GAS  C:\Users\jsyoon\AppData\Local\Temp\ccGrCXsO.s 			page 1


   1              		.syntax unified
   2              		.cpu cortex-m4
   3              		.eabi_attribute 27, 3
   4              		.eabi_attribute 28, 1
   5              		.fpu fpv4-sp-d16
   6              		.eabi_attribute 20, 1
   7              		.eabi_attribute 21, 1
   8              		.eabi_attribute 23, 3
   9              		.eabi_attribute 24, 1
  10              		.eabi_attribute 25, 1
  11              		.eabi_attribute 26, 1
  12              		.eabi_attribute 30, 2
  13              		.eabi_attribute 34, 1
  14              		.eabi_attribute 18, 4
  15              		.thumb
  16              		.file	"memstreams.c"
  17              		.text
  18              	.Ltext0:
  19              		.cfi_sections	.debug_frame
  20              		.section	.text.put,"ax",%progbits
  21              		.align	2
  22              		.p2align 4,,15
  23              		.thumb
  24              		.thumb_func
  25              		.type	put, %function
  26              	put:
  27              	.LFB9:
  28              		.file 1 "ChibiOS_2.6.6/os/various/memstreams.c"
  29              		.loc 1 66 0
  30              		.cfi_startproc
  31              		@ args = 0, pretend = 0, frame = 0
  32              		@ frame_needed = 0, uses_anonymous_args = 0
  33              		@ link register save eliminated.
  34              	.LVL0:
  35              		.loc 1 69 0
  36 0000 C368     		ldr	r3, [r0, #12]
  37 0002 8268     		ldr	r2, [r0, #8]
  38 0004 9A42     		cmp	r2, r3
  39 0006 06D0     		beq	.L3
  40              		.loc 1 71 0
  41 0008 4268     		ldr	r2, [r0, #4]
  42 000a D154     		strb	r1, [r2, r3]
  43              		.loc 1 72 0
  44 000c C368     		ldr	r3, [r0, #12]
  45 000e 0133     		adds	r3, r3, #1
  46 0010 C360     		str	r3, [r0, #12]
  47              		.loc 1 73 0
  48 0012 0020     		movs	r0, #0
  49              	.LVL1:
  50 0014 7047     		bx	lr
  51              	.LVL2:
  52              	.L3:
  53              		.loc 1 70 0
  54 0016 6FF00100 		mvn	r0, #1
  55              	.LVL3:
  56              		.loc 1 74 0
  57 001a 7047     		bx	lr
ARM GAS  C:\Users\jsyoon\AppData\Local\Temp\ccGrCXsO.s 			page 2


  58              		.cfi_endproc
  59              	.LFE9:
  60              		.size	put, .-put
  61 001c AFF30080 		.section	.text.get,"ax",%progbits
  62              		.align	2
  63              		.p2align 4,,15
  64              		.thumb
  65              		.thumb_func
  66              		.type	get, %function
  67              	get:
  68              	.LFB10:
  69              		.loc 1 76 0
  70              		.cfi_startproc
  71              		@ args = 0, pretend = 0, frame = 0
  72              		@ frame_needed = 0, uses_anonymous_args = 0
  73              		@ link register save eliminated.
  74              	.LVL4:
  75              		.loc 1 80 0
  76 0000 0269     		ldr	r2, [r0, #16]
  77 0002 C168     		ldr	r1, [r0, #12]
  78 0004 9142     		cmp	r1, r2
  79              		.loc 1 76 0
  80 0006 0346     		mov	r3, r0
  81              	.LVL5:
  82              		.loc 1 80 0
  83 0008 04D0     		beq	.L7
  84              		.loc 1 82 0
  85 000a 4168     		ldr	r1, [r0, #4]
  86 000c 885C     		ldrb	r0, [r1, r2]	@ zero_extendqisi2
  87              	.LVL6:
  88              		.loc 1 83 0
  89 000e 0132     		adds	r2, r2, #1
  90              	.LVL7:
  91 0010 1A61     		str	r2, [r3, #16]
  92              	.LVL8:
  93              		.loc 1 84 0
  94 0012 7047     		bx	lr
  95              	.LVL9:
  96              	.L7:
  97              		.loc 1 81 0
  98 0014 6FF00100 		mvn	r0, #1
  99              	.LVL10:
 100              		.loc 1 85 0
 101 0018 7047     		bx	lr
 102              		.cfi_endproc
 103              	.LFE10:
 104              		.size	get, .-get
 105 001a 00BFAFF3 		.section	.text.reads,"ax",%progbits
 105      0080
 106              		.align	2
 107              		.p2align 4,,15
 108              		.thumb
 109              		.thumb_func
 110              		.type	reads, %function
 111              	reads:
 112              	.LFB8:
 113              		.loc 1 56 0
ARM GAS  C:\Users\jsyoon\AppData\Local\Temp\ccGrCXsO.s 			page 3


 114              		.cfi_startproc
 115              		@ args = 0, pretend = 0, frame = 0
 116              		@ frame_needed = 0, uses_anonymous_args = 0
 117              	.LVL11:
 118 0000 38B5     		push	{r3, r4, r5, lr}
 119              		.cfi_def_cfa_offset 16
 120              		.cfi_offset 3, -16
 121              		.cfi_offset 4, -12
 122              		.cfi_offset 5, -8
 123              		.cfi_offset 14, -4
 124              		.loc 1 56 0
 125 0002 0446     		mov	r4, r0
 126              	.LVL12:
 127              		.loc 1 61 0
 128 0004 0846     		mov	r0, r1
 129              	.LVL13:
 130              		.loc 1 59 0
 131 0006 2369     		ldr	r3, [r4, #16]
 132 0008 E568     		ldr	r5, [r4, #12]
 133              		.loc 1 61 0
 134 000a 6168     		ldr	r1, [r4, #4]
 135              	.LVL14:
 136              		.loc 1 59 0
 137 000c ED1A     		subs	r5, r5, r3
 138 000e AA42     		cmp	r2, r5
 139 0010 38BF     		it	cc
 140 0012 1546     		movcc	r5, r2
 141              	.LVL15:
 142              		.loc 1 61 0
 143 0014 1944     		add	r1, r1, r3
 144 0016 2A46     		mov	r2, r5
 145 0018 FFF7FEFF 		bl	memcpy
 146              	.LVL16:
 147              		.loc 1 62 0
 148 001c 2369     		ldr	r3, [r4, #16]
 149 001e 2B44     		add	r3, r3, r5
 150 0020 2361     		str	r3, [r4, #16]
 151              		.loc 1 64 0
 152 0022 2846     		mov	r0, r5
 153 0024 38BD     		pop	{r3, r4, r5, pc}
 154              		.cfi_endproc
 155              	.LFE8:
 156              		.size	reads, .-reads
 157 0026 00BFAFF3 		.section	.text.writes,"ax",%progbits
 157      0080AFF3 
 157      0080
 158              		.align	2
 159              		.p2align 4,,15
 160              		.thumb
 161              		.thumb_func
 162              		.type	writes, %function
 163              	writes:
 164              	.LFB7:
 165              		.loc 1 46 0
 166              		.cfi_startproc
 167              		@ args = 0, pretend = 0, frame = 0
 168              		@ frame_needed = 0, uses_anonymous_args = 0
ARM GAS  C:\Users\jsyoon\AppData\Local\Temp\ccGrCXsO.s 			page 4


 169              	.LVL17:
 170 0000 38B5     		push	{r3, r4, r5, lr}
 171              		.cfi_def_cfa_offset 16
 172              		.cfi_offset 3, -16
 173              		.cfi_offset 4, -12
 174              		.cfi_offset 5, -8
 175              		.cfi_offset 14, -4
 176              		.loc 1 49 0
 177 0002 C368     		ldr	r3, [r0, #12]
 178 0004 8568     		ldr	r5, [r0, #8]
 179              		.loc 1 46 0
 180 0006 0446     		mov	r4, r0
 181              	.LVL18:
 182              		.loc 1 49 0
 183 0008 ED1A     		subs	r5, r5, r3
 184              		.loc 1 51 0
 185 000a 4068     		ldr	r0, [r0, #4]
 186              	.LVL19:
 187 000c AA42     		cmp	r2, r5
 188 000e 38BF     		it	cc
 189 0010 1546     		movcc	r5, r2
 190              	.LVL20:
 191 0012 1844     		add	r0, r0, r3
 192 0014 2A46     		mov	r2, r5
 193 0016 FFF7FEFF 		bl	memcpy
 194              	.LVL21:
 195              		.loc 1 52 0
 196 001a E368     		ldr	r3, [r4, #12]
 197 001c 2B44     		add	r3, r3, r5
 198 001e E360     		str	r3, [r4, #12]
 199              		.loc 1 54 0
 200 0020 2846     		mov	r0, r5
 201 0022 38BD     		pop	{r3, r4, r5, pc}
 202              		.cfi_endproc
 203              	.LFE7:
 204              		.size	writes, .-writes
 205 0024 AFF30080 		.section	.text.msObjectInit,"ax",%progbits
 205      AFF30080 
 205      AFF30080 
 206              		.align	2
 207              		.p2align 4,,15
 208              		.global	msObjectInit
 209              		.thumb
 210              		.thumb_func
 211              		.type	msObjectInit, %function
 212              	msObjectInit:
 213              	.LFB11:
 214              		.loc 1 104 0
 215              		.cfi_startproc
 216              		@ args = 0, pretend = 0, frame = 0
 217              		@ frame_needed = 0, uses_anonymous_args = 0
 218              		@ link register save eliminated.
 219              	.LVL22:
 220 0000 10B4     		push	{r4}
 221              		.cfi_def_cfa_offset 4
 222              		.cfi_offset 4, -4
 223              		.loc 1 107 0
ARM GAS  C:\Users\jsyoon\AppData\Local\Temp\ccGrCXsO.s 			page 5


 224 0002 4160     		str	r1, [r0, #4]
 225              		.loc 1 106 0
 226 0004 044C     		ldr	r4, .L11
 227 0006 0460     		str	r4, [r0]
 228              		.loc 1 110 0
 229 0008 0021     		movs	r1, #0
 230              	.LVL23:
 231              		.loc 1 108 0
 232 000a 8260     		str	r2, [r0, #8]
 233              		.loc 1 109 0
 234 000c C360     		str	r3, [r0, #12]
 235              		.loc 1 110 0
 236 000e 0161     		str	r1, [r0, #16]
 237              		.loc 1 111 0
 238 0010 5DF8044B 		ldr	r4, [sp], #4
 239 0014 7047     		bx	lr
 240              	.L12:
 241 0016 00BF     		.align	2
 242              	.L11:
 243 0018 00000000 		.word	.LANCHOR0
 244              		.cfi_endproc
 245              	.LFE11:
 246              		.size	msObjectInit, .-msObjectInit
 247 001c AFF30080 		.section	.rodata.vmt,"a",%progbits
 248              		.align	2
 249              		.set	.LANCHOR0,. + 0
 250              		.type	vmt, %object
 251              		.size	vmt, 16
 252              	vmt:
 253 0000 00000000 		.word	writes
 254 0004 00000000 		.word	reads
 255 0008 00000000 		.word	put
 256 000c 00000000 		.word	get
 257              		.text
 258              	.Letext0:
 259              		.file 2 "c:\\crosstools\\gcc-arm-embedded\\4.8_2014q2\\lib\\gcc\\arm-none-eabi\\4.8.4\\include\\st
 260              		.file 3 "c:\\crosstools\\gcc-arm-embedded\\4.8_2014q2\\arm-none-eabi\\include\\machine\\_default_t
 261              		.file 4 "c:\\crosstools\\gcc-arm-embedded\\4.8_2014q2\\arm-none-eabi\\include\\stdint.h"
 262              		.file 5 "ChibiOS_2.6.6/os/ports/GCC/ARMCMx/chtypes.h"
 263              		.file 6 "ChibiOS_2.6.6/os/various/memstreams.h"