ARM GAS  C:\Users\jsyoon\AppData\Local\Temp\ccGrCXsO.s 			page 1


   1              		.syntax unified
   2              		.cpu cortex-m4
   3              		.eabi_attribute 27, 3
   4              		.eabi_attribute 28, 1
   5              		.fpu fpv4-sp-d16
   6              		.eabi_attribute 20, 1
   7              		.eabi_attribute 21, 1
   8              		.eabi_attribute 23, 3
   9              		.eabi_attribute 24, 1
  10              		.eabi_attribute 25, 1
  11              		.eabi_attribute 26, 1
  12              		.eabi_attribute 30, 2
  13              		.eabi_attribute 34, 1
  14              		.eabi_attribute 18, 4
  15              		.thumb
  16              		.file	"memstreams.c"
  17              		.text
  18              	.Ltext0:
  19              		.cfi_sections	.debug_frame
  20              		.section	.text.put,"ax",%progbits
  21              		.align	2
  22              		.p2align 4,,15
  23              		.thumb
  24              		.thumb_func
  25              		.type	put, %function
  26              	put:
  27              	.LFB9:
  28              		.file 1 "ChibiOS_2.6.6/os/various/memstreams.c"
  29              		.loc 1 66 0
  30              		.cfi_startproc
  31              		@ args = 0, pretend = 0, frame = 0
  32              		@ frame_needed = 0, uses_anonymous_args = 0
  33              		@ link register save eliminated.
  34              	.LVL0:
  35              		.loc 1 69 0
  36 0000 C368     		ldr	r3, [r0, #12]
  37 0002 8268     		ldr	r2, [r0, #8]
  38 0004 9A42     		cmp	r2, r3
  39 0006 06D0     		beq	.L3
  40              		.loc 1 71 0
  41 0008 4268     		ldr	r2, [r0, #4]
  42 000a D154     		strb	r1, [r2, r3]
  43              		.loc 1 72 0
  44 000c C368     		ldr	r3, [r0, #12]
  45 000e 0133     		adds	r3, r3, #1
  46 0010 C360     		str	r3, [r0, #12]
  47              		.loc 1 73 0
  48 0012 0020     		movs	r0, #0
  49              	.LVL1:
  50 0014 7047     		bx	lr
  51              	.LVL2:
  52              	.L3:
  53              		.loc 1 70 0
  54 0016 6FF00100 		mvn	r0, #1
  55              	.LVL3:
  56              		.loc 1 74 0
  57 001a 7047     		bx	lr
ARM GAS  C:\Users\jsyoon\AppData\Local\Temp\ccGrCXsO.s 			page 2


  58              		.cfi_endproc
  59              	.LFE9:
  60              		.size	put, .-put
  61 001c AFF30080 		.section	.text.get,"ax",%progbits
  62              		.align	2
  63              		.p2align 4,,15
  64              		.thumb
  65              		.thumb_func
  66              		.type	get, %function
  67              	get:
  68              	.LFB10:
  69              		.loc 1 76 0
  70              		.cfi_startproc
  71              		@ args = 0, pretend = 0, frame = 0
  72              		@ frame_needed = 0, uses_anonymous_args = 0
  73              		@ link register save eliminated.
  74              	.LVL4:
  75              		.loc 1 80 0
  76 0000 0269     		ldr	r2, [r0, #16]
  77 0002 C168     		ldr	r1, [r0, #12]
  78 0004 9142     		cmp	r1, r2
  79              		.loc 1 76 0
  80 0006 0346     		mov	r3, r0
  81              	.LVL5:
  82              		.loc 1 80 0
  83 0008 04D0     		beq	.L7
  84              		.loc 1 82 0
  85 000a 4168     		ldr	r1, [r0, #4]
  86 000c 885C     		ldrb	r0, [r1, r2]	@ zero_extendqisi2
  87              	.LVL6:
  88              		.loc 1 83 0
  89 000e 0132     		adds	r2, r2, #1
  90              	.LVL7:
  91 0010 1A61     		str	r2, [r3, #16]
  92              	.LVL8:
  93              		.loc 1 84 0
  94 0012 7047     		bx	lr
  95              	.LVL9:
  96              	.L7:
  97              		.loc 1 81 0
  98 0014 6FF00100 		mvn	r0, #1
  99              	.LVL10:
 100              		.loc 1 85 0
 101 0018 7047     		bx	lr
 102              		.cfi_endproc
 103              	.LFE10:
 104              		.size	get, .-get
 105 001a 00BFAFF3 		.section	.text.reads,"ax",%progbits
 105      0080
 106              		.align	2
 107              		.p2align 4,,15
 108              		.thumb
 109              		.thumb_func
 110              		.type	reads, %function
 111              	reads:
 112              	.LFB8:
 113              		.loc 1 56 0
ARM GAS  C:\Users\jsyoon\AppData\Local\Temp\ccGrCXsO.s 			page 3


 114              		.cfi_startproc
 115              		@ args = 0, pretend = 0, frame = 0
 116              		@ frame_needed = 0, uses_anonymous_args = 0
 117              	.LVL11:
 118 0000 38B5     		push	{r3, r4, r5, lr}
 119              		.cfi_def_cfa_offset 16
 120              		.cfi_offset 3, -16
 121              		.cfi_offset 4, -12
 122              		.cfi_offset 5, -8
 123              		.cfi_offset 14, -4
 124              		.loc 1 56 0
 125 0002 0446     		mov	r4, r0
 126              	.LVL12:
 127              		.loc 1 61 0
 128 0004 0846     		mov	r0, r1
 129              	.LVL13:
 130              		.loc 1 59 0
 131 0006 2369     		ldr	r3, [r4, #16]
 132 0008 E568     		ldr	r5, [r4, #12]
 133              		.loc 1 61 0
 134 000a 6168     		ldr	r1, [r4, #4]
 135              	.LVL14:
 136              		.loc 1 59 0
 137 000c ED1A     		subs	r5, r5, r3
 138 000e AA42     		cmp	r2, r5
 139 0010 38BF     		it	cc
 140 0012 1546     		movcc	r5, r2
 141              	.LVL15:
 142              		.loc 1 61 0
 143 0014 1944     		add	r1, r1, r3
 144 0016 2A46     		mov	r2, r5
 145 0018 FFF7FEFF 		bl	memcpy
 146              	.LVL16:
 147              		.loc 1 62 0
 148 001c 2369     		ldr	r3, [r4, #16]
 149 001e 2B44     		add	r3, r3, r5
 150 0020 2361     		str	r3, [r4, #16]
 151              		.loc 1 64 0
 152 0022 2846     		mov	r0, r5
 153 0024 38BD     		pop	{r3, r4, r5, pc}
 154              		.cfi_endproc
 155              	.LFE8:
 156              		.size	reads, .-reads
 157 0026 00BFAFF3 		.section	.text.writes,"ax",%progbits
 157      0080AFF3 
 157      0080
 158              		.align	2
 159              		.p2align 4,,15
 160              		.thumb
 161              		.thumb_func
 162              		.type	writes, %function
 163              	writes:
 164              	.LFB7:
 165              		.loc 1 46 0
 166              		.cfi_startproc
 167              		@ args = 0, pretend = 0, frame = 0
 168              		@ frame_needed = 0, uses_anonymous_args = 0
ARM GAS  C:\Users\jsyoon\AppData\Local\Temp\ccGrCXsO.s 			page 4


 169              	.LVL17:
 170 0000 38B5     		push	{r3, r4, r5, lr}
 171              		.cfi_def_cfa_offset 16
 172              		.cfi_offset 3, -16
 173              		.cfi_offset 4, -12
 174              		.cfi_offset 5, -8
 175              		.cfi_offset 14, -4
 176              		.loc 1 49 0
 177 0002 C368     		ldr	r3, [r0, #12]
 178 0004 8568     		ldr	r5, [r0, #8]
 179              		.loc 1 46 0
 180 0006 0446     		mov	r4, r0
 181              	.LVL18:
 182              		.loc 1 49 0
 183 0008 ED1A     		subs	r5, r5, r3
 184              		.loc 1 51 0
 185 000a 4068     		ldr	r0, [r0, #4]
 186              	.LVL19:
 187 000c AA42     		cmp	r2, r5
 188 000e 38BF     		it	cc
 189 0010 1546     		movcc	r5, r2
 190              	.LVL20:
 191 0012 1844     		add	r0, r0, r3
 192 0014 2A46     		mov	r2, r5
 193 0016 FFF7FEFF 		bl	memcpy
 194              	.LVL21:
 195              		.loc 1 52 0
 196 001a E368     		ldr	r3, [r4, #12]
 197 001c 2B44     		add	r3, r3, r5
 198 001e E360     		str	r3, [r4, #12]
 199              		.loc 1 54 0
 200 0020 2846     		mov	r0, r5
 201 0022 38BD     		pop	{r3, r4, r5, pc}
 202              		.cfi_endproc
 203              	.LFE7:
 204              		.size	writes, .-writes
 205 0024 AFF30080 		.section	.text.msObjectInit,"ax",%progbits
 205      AFF30080 
 205      AFF30080 
 206              		.align	2
 207              		.p2align 4,,15
 208              		.global	msObjectInit
 209              		.thumb
 210              		.thumb_func
 211              		.type	msObjectInit, %function
 212              	msObjectInit:
 213              	.LFB11:
 214              		.loc 1 104 0
 215              		.cfi_startproc
 216              		@ args = 0, pretend = 0, frame = 0
 217              		@ frame_needed = 0, uses_anonymous_args = 0
 218              		@ link register save eliminated.
 219              	.LVL22:
 220 0000 10B4     		push	{r4}
 221              		.cfi_def_cfa_offset 4
 222              		.cfi_offset 4, -4
 223              		.loc 1 107 0
ARM GAS  C:\Users\jsyoon\AppData\Local\Temp\ccGrCXsO.s 			page 5


 224 0002 4160     		str	r1, [r0, #4]
 225              		.loc 1 106 0
 226 0004 044C     		ldr	r4, .L11
 227 0006 0460     		str	r4, [r0]
 228              		.loc 1 110 0
 229 0008 0021     		movs	r1, #0
 230              	.LVL23:
 231              		.loc 1 108 0
 232 000a 8260     		str	r2, [r0, #8]
 233              		.loc 1 109 0
 234 000c C360     		str	r3, [r0, #12]
 235              		.loc 1 110 0
 236 000e 0161     		str	r1, [r0, #16]
 237              		.loc 1 111 0
 238 0010 5DF8044B 		ldr	r4, [sp], #4
 239 0014 7047     		bx	lr
 240              	.L12:
 241 0016 00BF     		.align	2
 242              	.L11:
 243 0018 00000000 		.word	.LANCHOR0
 244              		.cfi_endproc
 245              	.LFE11:
 246              		.size	msObjectInit, .-msObjectInit
 247 001c AFF30080 		.section	.rodata.vmt,"a",%progbits
 248              		.align	2
 249              		.set	.LANCHOR0,. + 0
 250              		.type	vmt, %object
 251              		.size	vmt, 16
 252              	vmt:
 253 0000 00000000 		.word	writes
 254 0004 00000000 		.word	reads
 255 0008 00000000 		.word	put
 256 000c 00000000 		.word	get
 257              		.text
 258              	.Letext0:
 259              		.file 2 "c:\\crosstools\\gcc-arm-embedded\\4.8_2014q2\\lib\\gcc\\arm-none-eabi\\4.8.4\\include\\st
 260              		.file 3 "c:\\crosstools\\gcc-arm-embedded\\4.8_2014q2\\arm-none-eabi\\include\\machine\\_default_t
 261              		.file 4 "c:\\crosstools\\gcc-arm-embedded\\4.8_2014q2\\arm-none-eabi\\include\\stdint.h"
 262              		.file 5 "ChibiOS_2.6.6/os/ports/GCC/ARMCMx/chtypes.h"
 263              		.file 6 "ChibiOS_2.6.6/os/various/memstreams.h"
 264              		.section	.debug_info,"",%progbits
 265              	.Ldebug_info0:
 266 0000 B6030000 		.4byte	0x3b6
 267 0004 0400     		.2byte	0x4
 268 0006 00000000 		.4byte	.Ldebug_abbrev0
 269 000a 04       		.byte	0x4
 270 000b 01       		.uleb128 0x1
 271 000c 11000000 		.4byte	.LASF26
 272 0010 01       		.byte	0x1
 273 0011 EA010000 		.4byte	.LASF27
 274 0015 2C020000 		.4byte	.LASF28
 275 0019 00000000 		.4byte	.Ldebug_ranges0+0
 276 001d 00000000 		.4byte	0
 277 0021 00000000 		.4byte	.Ldebug_line0
 278 0025 02       		.uleb128 0x2
 279 0026 04       		.byte	0x4
 280 0027 05       		.byte	0x5
ARM GAS  C:\Users\jsyoon\AppData\Local\Temp\ccGrCXsO.s 			page 6


 281 0028 696E7400 		.ascii	"int\000"
 282 002c 03       		.uleb128 0x3
 283 002d 0A000000 		.4byte	.LASF2
 284 0031 02       		.byte	0x2
 285 0032 D4       		.byte	0xd4
 286 0033 37000000 		.4byte	0x37
 287 0037 04       		.uleb128 0x4
 288 0038 04       		.byte	0x4
 289 0039 07       		.byte	0x7
 290 003a B0010000 		.4byte	.LASF0
 291 003e 04       		.uleb128 0x4
 292 003f 01       		.byte	0x1
 293 0040 06       		.byte	0x6
 294 0041 46010000 		.4byte	.LASF1
 295 0045 03       		.uleb128 0x3
 296 0046 00000000 		.4byte	.LASF3
 297 004a 03       		.byte	0x3
 298 004b 1C       		.byte	0x1c
 299 004c 50000000 		.4byte	0x50
 300 0050 04       		.uleb128 0x4
 301 0051 01       		.byte	0x1
 302 0052 08       		.byte	0x8
 303 0053 7E010000 		.4byte	.LASF4
 304 0057 04       		.uleb128 0x4
 305 0058 02       		.byte	0x2
 306 0059 05       		.byte	0x5
 307 005a 63020000 		.4byte	.LASF5
 308 005e 04       		.uleb128 0x4
 309 005f 02       		.byte	0x2
 310 0060 07       		.byte	0x7
 311 0061 58010000 		.4byte	.LASF6
 312 0065 03       		.uleb128 0x3
 313 0066 35010000 		.4byte	.LASF7
 314 006a 03       		.byte	0x3
 315 006b 37       		.byte	0x37
 316 006c 70000000 		.4byte	0x70
 317 0070 04       		.uleb128 0x4
 318 0071 04       		.byte	0x4
 319 0072 05       		.byte	0x5
 320 0073 7B020000 		.4byte	.LASF8
 321 0077 04       		.uleb128 0x4
 322 0078 04       		.byte	0x4
 323 0079 07       		.byte	0x7
 324 007a 9E010000 		.4byte	.LASF9
 325 007e 04       		.uleb128 0x4
 326 007f 08       		.byte	0x8
 327 0080 05       		.byte	0x5
 328 0081 19020000 		.4byte	.LASF10
 329 0085 04       		.uleb128 0x4
 330 0086 08       		.byte	0x8
 331 0087 07       		.byte	0x7
 332 0088 BD010000 		.4byte	.LASF11
 333 008c 04       		.uleb128 0x4
 334 008d 04       		.byte	0x4
 335 008e 07       		.byte	0x7
 336 008f 10020000 		.4byte	.LASF12
 337 0093 05       		.uleb128 0x5
ARM GAS  C:\Users\jsyoon\AppData\Local\Temp\ccGrCXsO.s 			page 7


 338 0094 04       		.byte	0x4
 339 0095 04       		.uleb128 0x4
 340 0096 01       		.byte	0x1
 341 0097 08       		.byte	0x8
 342 0098 27020000 		.4byte	.LASF13
 343 009c 03       		.uleb128 0x3
 344 009d D4010000 		.4byte	.LASF14
 345 00a1 04       		.byte	0x4
 346 00a2 2A       		.byte	0x2a
 347 00a3 45000000 		.4byte	0x45
 348 00a7 03       		.uleb128 0x3
 349 00a8 E2010000 		.4byte	.LASF15
 350 00ac 04       		.byte	0x4
 351 00ad 41       		.byte	0x41
 352 00ae 65000000 		.4byte	0x65
 353 00b2 04       		.uleb128 0x4
 354 00b3 01       		.byte	0x1
 355 00b4 02       		.byte	0x2
 356 00b5 96020000 		.4byte	.LASF16
 357 00b9 03       		.uleb128 0x3
 358 00ba DC010000 		.4byte	.LASF17
 359 00be 05       		.byte	0x5
 360 00bf 31       		.byte	0x31
 361 00c0 A7000000 		.4byte	0xa7
 362 00c4 06       		.uleb128 0x6
 363 00c5 04       		.byte	0x4
 364 00c6 CA000000 		.4byte	0xca
 365 00ca 07       		.uleb128 0x7
 366 00cb B9000000 		.4byte	0xb9
 367 00cf D9000000 		.4byte	0xd9
 368 00d3 08       		.uleb128 0x8
 369 00d4 93000000 		.4byte	0x93
 370 00d8 00       		.byte	0
 371 00d9 06       		.uleb128 0x6
 372 00da 04       		.byte	0x4
 373 00db 9C000000 		.4byte	0x9c
 374 00df 07       		.uleb128 0x7
 375 00e0 2C000000 		.4byte	0x2c
 376 00e4 F8000000 		.4byte	0xf8
 377 00e8 08       		.uleb128 0x8
 378 00e9 93000000 		.4byte	0x93
 379 00ed 08       		.uleb128 0x8
 380 00ee F8000000 		.4byte	0xf8
 381 00f2 08       		.uleb128 0x8
 382 00f3 2C000000 		.4byte	0x2c
 383 00f7 00       		.byte	0
 384 00f8 06       		.uleb128 0x6
 385 00f9 04       		.byte	0x4
 386 00fa FE000000 		.4byte	0xfe
 387 00fe 09       		.uleb128 0x9
 388 00ff 9C000000 		.4byte	0x9c
 389 0103 06       		.uleb128 0x6
 390 0104 04       		.byte	0x4
 391 0105 DF000000 		.4byte	0xdf
 392 0109 07       		.uleb128 0x7
 393 010a 2C000000 		.4byte	0x2c
 394 010e 22010000 		.4byte	0x122
ARM GAS  C:\Users\jsyoon\AppData\Local\Temp\ccGrCXsO.s 			page 8


 395 0112 08       		.uleb128 0x8
 396 0113 93000000 		.4byte	0x93
 397 0117 08       		.uleb128 0x8
 398 0118 D9000000 		.4byte	0xd9
 399 011c 08       		.uleb128 0x8
 400 011d 2C000000 		.4byte	0x2c
 401 0121 00       		.byte	0
 402 0122 06       		.uleb128 0x6
 403 0123 04       		.byte	0x4
 404 0124 09010000 		.4byte	0x109
 405 0128 07       		.uleb128 0x7
 406 0129 B9000000 		.4byte	0xb9
 407 012d 3C010000 		.4byte	0x13c
 408 0131 08       		.uleb128 0x8
 409 0132 93000000 		.4byte	0x93
 410 0136 08       		.uleb128 0x8
 411 0137 9C000000 		.4byte	0x9c
 412 013b 00       		.byte	0
 413 013c 06       		.uleb128 0x6
 414 013d 04       		.byte	0x4
 415 013e 28010000 		.4byte	0x128
 416 0142 0A       		.uleb128 0xa
 417 0143 71010000 		.4byte	.LASF29
 418 0147 10       		.byte	0x10
 419 0148 06       		.byte	0x6
 420 0149 3D       		.byte	0x3d
 421 014a 7F010000 		.4byte	0x17f
 422 014e 0B       		.uleb128 0xb
 423 014f 6B010000 		.4byte	.LASF18
 424 0153 06       		.byte	0x6
 425 0154 3E       		.byte	0x3e
 426 0155 03010000 		.4byte	0x103
 427 0159 00       		.byte	0
 428 015a 0B       		.uleb128 0xb
 429 015b 99010000 		.4byte	.LASF19
 430 015f 06       		.byte	0x6
 431 0160 3E       		.byte	0x3e
 432 0161 22010000 		.4byte	0x122
 433 0165 04       		.byte	0x4
 434 0166 0C       		.uleb128 0xc
 435 0167 70757400 		.ascii	"put\000"
 436 016b 06       		.byte	0x6
 437 016c 3E       		.byte	0x3e
 438 016d 3C010000 		.4byte	0x13c
 439 0171 08       		.byte	0x8
 440 0172 0C       		.uleb128 0xc
 441 0173 67657400 		.ascii	"get\000"
 442 0177 06       		.byte	0x6
 443 0178 3E       		.byte	0x3e
 444 0179 C4000000 		.4byte	0xc4
 445 017d 0C       		.byte	0xc
 446 017e 00       		.byte	0
 447 017f 0D       		.uleb128 0xd
 448 0180 14       		.byte	0x14
 449 0181 06       		.byte	0x6
 450 0182 46       		.byte	0x46
 451 0183 C4010000 		.4byte	0x1c4
ARM GAS  C:\Users\jsyoon\AppData\Local\Temp\ccGrCXsO.s 			page 9


 452 0187 0C       		.uleb128 0xc
 453 0188 766D7400 		.ascii	"vmt\000"
 454 018c 06       		.byte	0x6
 455 018d 48       		.byte	0x48
 456 018e C4010000 		.4byte	0x1c4
 457 0192 00       		.byte	0
 458 0193 0B       		.uleb128 0xb
 459 0194 6D020000 		.4byte	.LASF20
 460 0198 06       		.byte	0x6
 461 0199 49       		.byte	0x49
 462 019a D9000000 		.4byte	0xd9
 463 019e 04       		.byte	0x4
 464 019f 0B       		.uleb128 0xb
 465 01a0 91020000 		.4byte	.LASF21
 466 01a4 06       		.byte	0x6
 467 01a5 49       		.byte	0x49
 468 01a6 2C000000 		.4byte	0x2c
 469 01aa 08       		.byte	0x8
 470 01ab 0C       		.uleb128 0xc
 471 01ac 656F7300 		.ascii	"eos\000"
 472 01b0 06       		.byte	0x6
 473 01b1 49       		.byte	0x49
 474 01b2 2C000000 		.4byte	0x2c
 475 01b6 0C       		.byte	0xc
 476 01b7 0B       		.uleb128 0xb
 477 01b8 5C020000 		.4byte	.LASF22
 478 01bc 06       		.byte	0x6
 479 01bd 49       		.byte	0x49
 480 01be 2C000000 		.4byte	0x2c
 481 01c2 10       		.byte	0x10
 482 01c3 00       		.byte	0
 483 01c4 06       		.uleb128 0x6
 484 01c5 04       		.byte	0x4
 485 01c6 CA010000 		.4byte	0x1ca
 486 01ca 09       		.uleb128 0x9
 487 01cb 42010000 		.4byte	0x142
 488 01cf 03       		.uleb128 0x3
 489 01d0 84020000 		.4byte	.LASF23
 490 01d4 06       		.byte	0x6
 491 01d5 4A       		.byte	0x4a
 492 01d6 7F010000 		.4byte	0x17f
 493 01da 0E       		.uleb128 0xe
 494 01db 70757400 		.ascii	"put\000"
 495 01df 01       		.byte	0x1
 496 01e0 42       		.byte	0x42
 497 01e1 B9000000 		.4byte	0xb9
 498 01e5 00000000 		.4byte	.LFB9
 499 01e9 1C000000 		.4byte	.LFE9-.LFB9
 500 01ed 01       		.uleb128 0x1
 501 01ee 9C       		.byte	0x9c
 502 01ef 1C020000 		.4byte	0x21c
 503 01f3 0F       		.uleb128 0xf
 504 01f4 697000   		.ascii	"ip\000"
 505 01f7 01       		.byte	0x1
 506 01f8 42       		.byte	0x42
 507 01f9 93000000 		.4byte	0x93
 508 01fd 00000000 		.4byte	.LLST0
ARM GAS  C:\Users\jsyoon\AppData\Local\Temp\ccGrCXsO.s 			page 10


 509 0201 10       		.uleb128 0x10
 510 0202 6200     		.ascii	"b\000"
 511 0204 01       		.byte	0x1
 512 0205 42       		.byte	0x42
 513 0206 9C000000 		.4byte	0x9c
 514 020a 01       		.uleb128 0x1
 515 020b 51       		.byte	0x51
 516 020c 11       		.uleb128 0x11
 517 020d 6D737000 		.ascii	"msp\000"
 518 0211 01       		.byte	0x1
 519 0212 43       		.byte	0x43
 520 0213 1C020000 		.4byte	0x21c
 521 0217 00000000 		.4byte	.LLST0
 522 021b 00       		.byte	0
 523 021c 06       		.uleb128 0x6
 524 021d 04       		.byte	0x4
 525 021e CF010000 		.4byte	0x1cf
 526 0222 0E       		.uleb128 0xe
 527 0223 67657400 		.ascii	"get\000"
 528 0227 01       		.byte	0x1
 529 0228 4C       		.byte	0x4c
 530 0229 B9000000 		.4byte	0xb9
 531 022d 00000000 		.4byte	.LFB10
 532 0231 1A000000 		.4byte	.LFE10-.LFB10
 533 0235 01       		.uleb128 0x1
 534 0236 9C       		.byte	0x9c
 535 0237 66020000 		.4byte	0x266
 536 023b 0F       		.uleb128 0xf
 537 023c 697000   		.ascii	"ip\000"
 538 023f 01       		.byte	0x1
 539 0240 4C       		.byte	0x4c
 540 0241 93000000 		.4byte	0x93
 541 0245 3A000000 		.4byte	.LLST2
 542 0249 11       		.uleb128 0x11
 543 024a 6200     		.ascii	"b\000"
 544 024c 01       		.byte	0x1
 545 024d 4D       		.byte	0x4d
 546 024e 9C000000 		.4byte	0x9c
 547 0252 6E000000 		.4byte	.LLST3
 548 0256 11       		.uleb128 0x11
 549 0257 6D737000 		.ascii	"msp\000"
 550 025b 01       		.byte	0x1
 551 025c 4E       		.byte	0x4e
 552 025d 1C020000 		.4byte	0x21c
 553 0261 A0000000 		.4byte	.LLST4
 554 0265 00       		.byte	0
 555 0266 12       		.uleb128 0x12
 556 0267 52010000 		.4byte	.LASF24
 557 026b 01       		.byte	0x1
 558 026c 38       		.byte	0x38
 559 026d 2C000000 		.4byte	0x2c
 560 0271 00000000 		.4byte	.LFB8
 561 0275 26000000 		.4byte	.LFE8-.LFB8
 562 0279 01       		.uleb128 0x1
 563 027a 9C       		.byte	0x9c
 564 027b CF020000 		.4byte	0x2cf
 565 027f 0F       		.uleb128 0xf
ARM GAS  C:\Users\jsyoon\AppData\Local\Temp\ccGrCXsO.s 			page 11


 566 0280 697000   		.ascii	"ip\000"
 567 0283 01       		.byte	0x1
 568 0284 38       		.byte	0x38
 569 0285 93000000 		.4byte	0x93
 570 0289 D4000000 		.4byte	.LLST5
 571 028d 0F       		.uleb128 0xf
 572 028e 627000   		.ascii	"bp\000"
 573 0291 01       		.byte	0x1
 574 0292 38       		.byte	0x38
 575 0293 D9000000 		.4byte	0xd9
 576 0297 F2000000 		.4byte	.LLST6
 577 029b 0F       		.uleb128 0xf
 578 029c 6E00     		.ascii	"n\000"
 579 029e 01       		.byte	0x1
 580 029f 38       		.byte	0x38
 581 02a0 2C000000 		.4byte	0x2c
 582 02a4 1E010000 		.4byte	.LLST7
 583 02a8 11       		.uleb128 0x11
 584 02a9 6D737000 		.ascii	"msp\000"
 585 02ad 01       		.byte	0x1
 586 02ae 39       		.byte	0x39
 587 02af 1C020000 		.4byte	0x21c
 588 02b3 3C010000 		.4byte	.LLST8
 589 02b7 13       		.uleb128 0x13
 590 02b8 1C000000 		.4byte	.LVL16
 591 02bc 95030000 		.4byte	0x395
 592 02c0 14       		.uleb128 0x14
 593 02c1 01       		.uleb128 0x1
 594 02c2 52       		.byte	0x52
 595 02c3 02       		.uleb128 0x2
 596 02c4 75       		.byte	0x75
 597 02c5 00       		.sleb128 0
 598 02c6 14       		.uleb128 0x14
 599 02c7 01       		.uleb128 0x1
 600 02c8 50       		.byte	0x50
 601 02c9 03       		.uleb128 0x3
 602 02ca F3       		.byte	0xf3
 603 02cb 01       		.uleb128 0x1
 604 02cc 51       		.byte	0x51
 605 02cd 00       		.byte	0
 606 02ce 00       		.byte	0
 607 02cf 12       		.uleb128 0x12
 608 02d0 3F010000 		.4byte	.LASF25
 609 02d4 01       		.byte	0x1
 610 02d5 2E       		.byte	0x2e
 611 02d6 2C000000 		.4byte	0x2c
 612 02da 00000000 		.4byte	.LFB7
 613 02de 24000000 		.4byte	.LFE7-.LFB7
 614 02e2 01       		.uleb128 0x1
 615 02e3 9C       		.byte	0x9c
 616 02e4 38030000 		.4byte	0x338
 617 02e8 0F       		.uleb128 0xf
 618 02e9 697000   		.ascii	"ip\000"
 619 02ec 01       		.byte	0x1
 620 02ed 2E       		.byte	0x2e
 621 02ee 93000000 		.4byte	0x93
 622 02f2 5A010000 		.4byte	.LLST9
ARM GAS  C:\Users\jsyoon\AppData\Local\Temp\ccGrCXsO.s 			page 12


 623 02f6 0F       		.uleb128 0xf
 624 02f7 627000   		.ascii	"bp\000"
 625 02fa 01       		.byte	0x1
 626 02fb 2E       		.byte	0x2e
 627 02fc F8000000 		.4byte	0xf8
 628 0300 78010000 		.4byte	.LLST10
 629 0304 0F       		.uleb128 0xf
 630 0305 6E00     		.ascii	"n\000"
 631 0307 01       		.byte	0x1
 632 0308 2E       		.byte	0x2e
 633 0309 2C000000 		.4byte	0x2c
 634 030d 99010000 		.4byte	.LLST11
 635 0311 11       		.uleb128 0x11
 636 0312 6D737000 		.ascii	"msp\000"
 637 0316 01       		.byte	0x1
 638 0317 2F       		.byte	0x2f
 639 0318 1C020000 		.4byte	0x21c
 640 031c B7010000 		.4byte	.LLST12
 641 0320 13       		.uleb128 0x13
 642 0321 1A000000 		.4byte	.LVL21
 643 0325 95030000 		.4byte	0x395
 644 0329 14       		.uleb128 0x14
 645 032a 01       		.uleb128 0x1
 646 032b 52       		.byte	0x52
 647 032c 02       		.uleb128 0x2
 648 032d 75       		.byte	0x75
 649 032e 00       		.sleb128 0
 650 032f 14       		.uleb128 0x14
 651 0330 01       		.uleb128 0x1
 652 0331 51       		.byte	0x51
 653 0332 03       		.uleb128 0x3
 654 0333 F3       		.byte	0xf3
 655 0334 01       		.uleb128 0x1
 656 0335 51       		.byte	0x51
 657 0336 00       		.byte	0
 658 0337 00       		.byte	0
 659 0338 15       		.uleb128 0x15
 660 0339 8C010000 		.4byte	.LASF30
 661 033d 01       		.byte	0x1
 662 033e 67       		.byte	0x67
 663 033f 00000000 		.4byte	.LFB11
 664 0343 1C000000 		.4byte	.LFE11-.LFB11
 665 0347 01       		.uleb128 0x1
 666 0348 9C       		.byte	0x9c
 667 0349 84030000 		.4byte	0x384
 668 034d 10       		.uleb128 0x10
 669 034e 6D737000 		.ascii	"msp\000"
 670 0352 01       		.byte	0x1
 671 0353 67       		.byte	0x67
 672 0354 1C020000 		.4byte	0x21c
 673 0358 01       		.uleb128 0x1
 674 0359 50       		.byte	0x50
 675 035a 16       		.uleb128 0x16
 676 035b 6D020000 		.4byte	.LASF20
 677 035f 01       		.byte	0x1
 678 0360 67       		.byte	0x67
 679 0361 D9000000 		.4byte	0xd9
ARM GAS  C:\Users\jsyoon\AppData\Local\Temp\ccGrCXsO.s 			page 13


 680 0365 D5010000 		.4byte	.LLST13
 681 0369 17       		.uleb128 0x17
 682 036a 91020000 		.4byte	.LASF21
 683 036e 01       		.byte	0x1
 684 036f 68       		.byte	0x68
 685 0370 2C000000 		.4byte	0x2c
 686 0374 01       		.uleb128 0x1
 687 0375 52       		.byte	0x52
 688 0376 10       		.uleb128 0x10
 689 0377 656F7300 		.ascii	"eos\000"
 690 037b 01       		.byte	0x1
 691 037c 68       		.byte	0x68
 692 037d 2C000000 		.4byte	0x2c
 693 0381 01       		.uleb128 0x1
 694 0382 53       		.byte	0x53
 695 0383 00       		.byte	0
 696 0384 18       		.uleb128 0x18
 697 0385 766D7400 		.ascii	"vmt\000"
 698 0389 01       		.byte	0x1
 699 038a 57       		.byte	0x57
 700 038b CA010000 		.4byte	0x1ca
 701 038f 05       		.uleb128 0x5
 702 0390 03       		.byte	0x3
 703 0391 00000000 		.4byte	vmt
 704 0395 19       		.uleb128 0x19
 705 0396 74020000 		.4byte	.LASF31
 706 039a 93000000 		.4byte	0x93
 707 039e B2030000 		.4byte	0x3b2
 708 03a2 08       		.uleb128 0x8
 709 03a3 93000000 		.4byte	0x93
 710 03a7 08       		.uleb128 0x8
 711 03a8 B2030000 		.4byte	0x3b2
 712 03ac 08       		.uleb128 0x8
 713 03ad 8C000000 		.4byte	0x8c
 714 03b1 00       		.byte	0
 715 03b2 06       		.uleb128 0x6
 716 03b3 04       		.byte	0x4
 717 03b4 B8030000 		.4byte	0x3b8
 718 03b8 1A       		.uleb128 0x1a
 719 03b9 00       		.byte	0
 720              		.section	.debug_abbrev,"",%progbits
 721              	.Ldebug_abbrev0:
 722 0000 01       		.uleb128 0x1
 723 0001 11       		.uleb128 0x11
 724 0002 01       		.byte	0x1
 725 0003 25       		.uleb128 0x25
 726 0004 0E       		.uleb128 0xe
 727 0005 13       		.uleb128 0x13
 728 0006 0B       		.uleb128 0xb
 729 0007 03       		.uleb128 0x3
 730 0008 0E       		.uleb128 0xe
 731 0009 1B       		.uleb128 0x1b
 732 000a 0E       		.uleb128 0xe
 733 000b 55       		.uleb128 0x55
 734 000c 17       		.uleb128 0x17
 735 000d 11       		.uleb128 0x11
 736 000e 01       		.uleb128 0x1
ARM GAS  C:\Users\jsyoon\AppData\Local\Temp\ccGrCXsO.s 			page 14


 737 000f 10       		.uleb128 0x10
 738 0010 17       		.uleb128 0x17
 739 0011 00       		.byte	0
 740 0012 00       		.byte	0
 741 0013 02       		.uleb128 0x2
 742 0014 24       		.uleb128 0x24
 743 0015 00       		.byte	0
 744 0016 0B       		.uleb128 0xb
 745 0017 0B       		.uleb128 0xb
 746 0018 3E       		.uleb128 0x3e
 747 0019 0B       		.uleb128 0xb
 748 001a 03       		.uleb128 0x3
 749 001b 08       		.uleb128 0x8
 750 001c 00       		.byte	0
 751 001d 00       		.byte	0
 752 001e 03       		.uleb128 0x3
 753 001f 16       		.uleb128 0x16
 754 0020 00       		.byte	0
 755 0021 03       		.uleb128 0x3
 756 0022 0E       		.uleb128 0xe
 757 0023 3A       		.uleb128 0x3a
 758 0024 0B       		.uleb128 0xb
 759 0025 3B       		.uleb128 0x3b
 760 0026 0B       		.uleb128 0xb
 761 0027 49       		.uleb128 0x49
 762 0028 13       		.uleb128 0x13
 763 0029 00       		.byte	0
 764 002a 00       		.byte	0
 765 002b 04       		.uleb128 0x4
 766 002c 24       		.uleb128 0x24
 767 002d 00       		.byte	0
 768 002e 0B       		.uleb128 0xb
 769 002f 0B       		.uleb128 0xb
 770 0030 3E       		.uleb128 0x3e
 771 0031 0B       		.uleb128 0xb
 772 0032 03       		.uleb128 0x3
 773 0033 0E       		.uleb128 0xe
 774 0034 00       		.byte	0
 775 0035 00       		.byte	0
 776 0036 05       		.uleb128 0x5
 777 0037 0F       		.uleb128 0xf
 778 0038 00       		.byte	0
 779 0039 0B       		.uleb128 0xb
 780 003a 0B       		.uleb128 0xb
 781 003b 00       		.byte	0
 782 003c 00       		.byte	0
 783 003d 06       		.uleb128 0x6
 784 003e 0F       		.uleb128 0xf
 785 003f 00       		.byte	0
 786 0040 0B       		.uleb128 0xb
 787 0041 0B       		.uleb128 0xb
 788 0042 49       		.uleb128 0x49
 789 0043 13       		.uleb128 0x13
 790 0044 00       		.byte	0
 791 0045 00       		.byte	0
 792 0046 07       		.uleb128 0x7
 793 0047 15       		.uleb128 0x15
ARM GAS  C:\Users\jsyoon\AppData\Local\Temp\ccGrCXsO.s 			page 15


 794 0048 01       		.byte	0x1
 795 0049 27       		.uleb128 0x27
 796 004a 19       		.uleb128 0x19
 797 004b 49       		.uleb128 0x49
 798 004c 13       		.uleb128 0x13
 799 004d 01       		.uleb128 0x1
 800 004e 13       		.uleb128 0x13
 801 004f 00       		.byte	0
 802 0050 00       		.byte	0
 803 0051 08       		.uleb128 0x8
 804 0052 05       		.uleb128 0x5
 805 0053 00       		.byte	0
 806 0054 49       		.uleb128 0x49
 807 0055 13       		.uleb128 0x13
 808 0056 00       		.byte	0
 809 0057 00       		.byte	0
 810 0058 09       		.uleb128 0x9
 811 0059 26       		.uleb128 0x26
 812 005a 00       		.byte	0
 813 005b 49       		.uleb128 0x49
 814 005c 13       		.uleb128 0x13
 815 005d 00       		.byte	0
 816 005e 00       		.byte	0
 817 005f 0A       		.uleb128 0xa
 818 0060 13       		.uleb128 0x13
 819 0061 01       		.byte	0x1
 820 0062 03       		.uleb128 0x3
 821 0063 0E       		.uleb128 0xe
 822 0064 0B       		.uleb128 0xb
 823 0065 0B       		.uleb128 0xb
 824 0066 3A       		.uleb128 0x3a
 825 0067 0B       		.uleb128 0xb
 826 0068 3B       		.uleb128 0x3b
 827 0069 0B       		.uleb128 0xb
 828 006a 01       		.uleb128 0x1
 829 006b 13       		.uleb128 0x13
 830 006c 00       		.byte	0
 831 006d 00       		.byte	0
 832 006e 0B       		.uleb128 0xb
 833 006f 0D       		.uleb128 0xd
 834 0070 00       		.byte	0
 835 0071 03       		.uleb128 0x3
 836 0072 0E       		.uleb128 0xe
 837 0073 3A       		.uleb128 0x3a
 838 0074 0B       		.uleb128 0xb
 839 0075 3B       		.uleb128 0x3b
 840 0076 0B       		.uleb128 0xb
 841 0077 49       		.uleb128 0x49
 842 0078 13       		.uleb128 0x13
 843 0079 38       		.uleb128 0x38
 844 007a 0B       		.uleb128 0xb
 845 007b 00       		.byte	0
 846 007c 00       		.byte	0
 847 007d 0C       		.uleb128 0xc
 848 007e 0D       		.uleb128 0xd
 849 007f 00       		.byte	0
 850 0080 03       		.uleb128 0x3
ARM GAS  C:\Users\jsyoon\AppData\Local\Temp\ccGrCXsO.s 			page 16


 851 0081 08       		.uleb128 0x8
 852 0082 3A       		.uleb128 0x3a
 853 0083 0B       		.uleb128 0xb
 854 0084 3B       		.uleb128 0x3b
 855 0085 0B       		.uleb128 0xb
 856 0086 49       		.uleb128 0x49
 857 0087 13       		.uleb128 0x13
 858 0088 38       		.uleb128 0x38
 859 0089 0B       		.uleb128 0xb
 860 008a 00       		.byte	0
 861 008b 00       		.byte	0
 862 008c 0D       		.uleb128 0xd
 863 008d 13       		.uleb128 0x13
 864 008e 01       		.byte	0x1
 865 008f 0B       		.uleb128 0xb
 866 0090 0B       		.uleb128 0xb
 867 0091 3A       		.uleb128 0x3a
 868 0092 0B       		.uleb128 0xb
 869 0093 3B       		.uleb128 0x3b
 870 0094 0B       		.uleb128 0xb
 871 0095 01       		.uleb128 0x1
 872 0096 13       		.uleb128 0x13
 873 0097 00       		.byte	0
 874 0098 00       		.byte	0
 875 0099 0E       		.uleb128 0xe
 876 009a 2E       		.uleb128 0x2e
 877 009b 01       		.byte	0x1
 878 009c 03       		.uleb128 0x3
 879 009d 08       		.uleb128 0x8
 880 009e 3A       		.uleb128 0x3a
 881 009f 0B       		.uleb128 0xb
 882 00a0 3B       		.uleb128 0x3b
 883 00a1 0B       		.uleb128 0xb
 884 00a2 27       		.uleb128 0x27
 885 00a3 19       		.uleb128 0x19
 886 00a4 49       		.uleb128 0x49
 887 00a5 13       		.uleb128 0x13
 888 00a6 11       		.uleb128 0x11
 889 00a7 01       		.uleb128 0x1
 890 00a8 12       		.uleb128 0x12
 891 00a9 06       		.uleb128 0x6
 892 00aa 40       		.uleb128 0x40
 893 00ab 18       		.uleb128 0x18
 894 00ac 9742     		.uleb128 0x2117
 895 00ae 19       		.uleb128 0x19
 896 00af 01       		.uleb128 0x1
 897 00b0 13       		.uleb128 0x13
 898 00b1 00       		.byte	0
 899 00b2 00       		.byte	0
 900 00b3 0F       		.uleb128 0xf
 901 00b4 05       		.uleb128 0x5
 902 00b5 00       		.byte	0
 903 00b6 03       		.uleb128 0x3
 904 00b7 08       		.uleb128 0x8
 905 00b8 3A       		.uleb128 0x3a
 906 00b9 0B       		.uleb128 0xb
 907 00ba 3B       		.uleb128 0x3b
ARM GAS  C:\Users\jsyoon\AppData\Local\Temp\ccGrCXsO.s 			page 17


 908 00bb 0B       		.uleb128 0xb
 909 00bc 49       		.uleb128 0x49
 910 00bd 13       		.uleb128 0x13
 911 00be 02       		.uleb128 0x2
 912 00bf 17       		.uleb128 0x17
 913 00c0 00       		.byte	0
 914 00c1 00       		.byte	0
 915 00c2 10       		.uleb128 0x10
 916 00c3 05       		.uleb128 0x5
 917 00c4 00       		.byte	0
 918 00c5 03       		.uleb128 0x3
 919 00c6 08       		.uleb128 0x8
 920 00c7 3A       		.uleb128 0x3a
 921 00c8 0B       		.uleb128 0xb
 922 00c9 3B       		.uleb128 0x3b
 923 00ca 0B       		.uleb128 0xb
 924 00cb 49       		.uleb128 0x49
 925 00cc 13       		.uleb128 0x13
 926 00cd 02       		.uleb128 0x2
 927 00ce 18       		.uleb128 0x18
 928 00cf 00       		.byte	0
 929 00d0 00       		.byte	0
 930 00d1 11       		.uleb128 0x11
 931 00d2 34       		.uleb128 0x34
 932 00d3 00       		.byte	0
 933 00d4 03       		.uleb128 0x3
 934 00d5 08       		.uleb128 0x8
 935 00d6 3A       		.uleb128 0x3a
 936 00d7 0B       		.uleb128 0xb
 937 00d8 3B       		.uleb128 0x3b
 938 00d9 0B       		.uleb128 0xb
 939 00da 49       		.uleb128 0x49
 940 00db 13       		.uleb128 0x13
 941 00dc 02       		.uleb128 0x2
 942 00dd 17       		.uleb128 0x17
 943 00de 00       		.byte	0
 944 00df 00       		.byte	0
 945 00e0 12       		.uleb128 0x12
 946 00e1 2E       		.uleb128 0x2e
 947 00e2 01       		.byte	0x1
 948 00e3 03       		.uleb128 0x3
 949 00e4 0E       		.uleb128 0xe
 950 00e5 3A       		.uleb128 0x3a
 951 00e6 0B       		.uleb128 0xb
 952 00e7 3B       		.uleb128 0x3b
 953 00e8 0B       		.uleb128 0xb
 954 00e9 27       		.uleb128 0x27
 955 00ea 19       		.uleb128 0x19
 956 00eb 49       		.uleb128 0x49
 957 00ec 13       		.uleb128 0x13
 958 00ed 11       		.uleb128 0x11
 959 00ee 01       		.uleb128 0x1
 960 00ef 12       		.uleb128 0x12
 961 00f0 06       		.uleb128 0x6
 962 00f1 40       		.uleb128 0x40
 963 00f2 18       		.uleb128 0x18
 964 00f3 9742     		.uleb128 0x2117
ARM GAS  C:\Users\jsyoon\AppData\Local\Temp\ccGrCXsO.s 			page 18


 965 00f5 19       		.uleb128 0x19
 966 00f6 01       		.uleb128 0x1
 967 00f7 13       		.uleb128 0x13
 968 00f8 00       		.byte	0
 969 00f9 00       		.byte	0
 970 00fa 13       		.uleb128 0x13
 971 00fb 898201   		.uleb128 0x4109
 972 00fe 01       		.byte	0x1
 973 00ff 11       		.uleb128 0x11
 974 0100 01       		.uleb128 0x1
 975 0101 31       		.uleb128 0x31
 976 0102 13       		.uleb128 0x13
 977 0103 00       		.byte	0
 978 0104 00       		.byte	0
 979 0105 14       		.uleb128 0x14
 980 0106 8A8201   		.uleb128 0x410a
 981 0109 00       		.byte	0
 982 010a 02       		.uleb128 0x2
 983 010b 18       		.uleb128 0x18
 984 010c 9142     		.uleb128 0x2111
 985 010e 18       		.uleb128 0x18
 986 010f 00       		.byte	0
 987 0110 00       		.byte	0
 988 0111 15       		.uleb128 0x15
 989 0112 2E       		.uleb128 0x2e
 990 0113 01       		.byte	0x1
 991 0114 3F       		.uleb128 0x3f
 992 0115 19       		.uleb128 0x19
 993 0116 03       		.uleb128 0x3
 994 0117 0E       		.uleb128 0xe
 995 0118 3A       		.uleb128 0x3a
 996 0119 0B       		.uleb128 0xb
 997 011a 3B       		.uleb128 0x3b
 998 011b 0B       		.uleb128 0xb
 999 011c 27       		.uleb128 0x27
 1000 011d 19       		.uleb128 0x19
 1001 011e 11       		.uleb128 0x11
 1002 011f 01       		.uleb128 0x1
 1003 0120 12       		.uleb128 0x12
 1004 0121 06       		.uleb128 0x6
 1005 0122 40       		.uleb128 0x40
 1006 0123 18       		.uleb128 0x18
 1007 0124 9742     		.uleb128 0x2117
 1008 0126 19       		.uleb128 0x19
 1009 0127 01       		.uleb128 0x1
 1010 0128 13       		.uleb128 0x13
 1011 0129 00       		.byte	0
 1012 012a 00       		.byte	0
 1013 012b 16       		.uleb128 0x16
 1014 012c 05       		.uleb128 0x5
 1015 012d 00       		.byte	0
 1016 012e 03       		.uleb128 0x3
 1017 012f 0E       		.uleb128 0xe
 1018 0130 3A       		.uleb128 0x3a
 1019 0131 0B       		.uleb128 0xb
 1020 0132 3B       		.uleb128 0x3b
 1021 0133 0B       		.uleb128 0xb
ARM GAS  C:\Users\jsyoon\AppData\Local\Temp\ccGrCXsO.s 			page 19


 1022 0134 49       		.uleb128 0x49
 1023 0135 13       		.uleb128 0x13
 1024 0136 02       		.uleb128 0x2
 1025 0137 17       		.uleb128 0x17
 1026 0138 00       		.byte	0
 1027 0139 00       		.byte	0
 1028 013a 17       		.uleb128 0x17
 1029 013b 05       		.uleb128 0x5
 1030 013c 00       		.byte	0
 1031 013d 03       		.uleb128 0x3
 1032 013e 0E       		.uleb128 0xe
 1033 013f 3A       		.uleb128 0x3a
 1034 0140 0B       		.uleb128 0xb
 1035 0141 3B       		.uleb128 0x3b
 1036 0142 0B       		.uleb128 0xb
 1037 0143 49       		.uleb128 0x49
 1038 0144 13       		.uleb128 0x13
 1039 0145 02       		.uleb128 0x2
 1040 0146 18       		.uleb128 0x18
 1041 0147 00       		.byte	0
 1042 0148 00       		.byte	0
 1043 0149 18       		.uleb128 0x18
 1044 014a 34       		.uleb128 0x34
 1045 014b 00       		.byte	0
 1046 014c 03       		.uleb128 0x3
 1047 014d 08       		.uleb128 0x8
 1048 014e 3A       		.uleb128 0x3a
 1049 014f 0B       		.uleb128 0xb
 1050 0150 3B       		.uleb128 0x3b
 1051 0151 0B       		.uleb128 0xb
 1052 0152 49       		.uleb128 0x49
 1053 0153 13       		.uleb128 0x13
 1054 0154 02       		.uleb128 0x2
 1055 0155 18       		.uleb128 0x18
 1056 0156 00       		.byte	0
 1057 0157 00       		.byte	0
 1058 0158 19       		.uleb128 0x19
 1059 0159 2E       		.uleb128 0x2e
 1060 015a 01       		.byte	0x1
 1061 015b 3F       		.uleb128 0x3f
 1062 015c 19       		.uleb128 0x19
 1063 015d 03       		.uleb128 0x3
 1064 015e 0E       		.uleb128 0xe
 1065 015f 27       		.uleb128 0x27
 1066 0160 19       		.uleb128 0x19
 1067 0161 49       		.uleb128 0x49
 1068 0162 13       		.uleb128 0x13
 1069 0163 34       		.uleb128 0x34
 1070 0164 19       		.uleb128 0x19
 1071 0165 3C       		.uleb128 0x3c
 1072 0166 19       		.uleb128 0x19
 1073 0167 01       		.uleb128 0x1
 1074 0168 13       		.uleb128 0x13
 1075 0169 00       		.byte	0
 1076 016a 00       		.byte	0
 1077 016b 1A       		.uleb128 0x1a
 1078 016c 26       		.uleb128 0x26
ARM GAS  C:\Users\jsyoon\AppData\Local\Temp\ccGrCXsO.s 			page 20


 1079 016d 00       		.byte	0
 1080 016e 00       		.byte	0
 1081 016f 00       		.byte	0
 1082 0170 00       		.byte	0
 1083              		.section	.debug_loc,"",%progbits
 1084              	.Ldebug_loc0:
 1085              	.LLST0:
 1086 0000 00000000 		.4byte	.LVL0
 1087 0004 14000000 		.4byte	.LVL1
 1088 0008 0100     		.2byte	0x1
 1089 000a 50       		.byte	0x50
 1090 000b 14000000 		.4byte	.LVL1
 1091 000f 16000000 		.4byte	.LVL2
 1092 0013 0400     		.2byte	0x4
 1093 0015 F3       		.byte	0xf3
 1094 0016 01       		.uleb128 0x1
 1095 0017 50       		.byte	0x50
 1096 0018 9F       		.byte	0x9f
 1097 0019 16000000 		.4byte	.LVL2
 1098 001d 1A000000 		.4byte	.LVL3
 1099 0021 0100     		.2byte	0x1
 1100 0023 50       		.byte	0x50
 1101 0024 1A000000 		.4byte	.LVL3
 1102 0028 1C000000 		.4byte	.LFE9
 1103 002c 0400     		.2byte	0x4
 1104 002e F3       		.byte	0xf3
 1105 002f 01       		.uleb128 0x1
 1106 0030 50       		.byte	0x50
 1107 0031 9F       		.byte	0x9f
 1108 0032 00000000 		.4byte	0
 1109 0036 00000000 		.4byte	0
 1110              	.LLST2:
 1111 003a 00000000 		.4byte	.LVL4
 1112 003e 0E000000 		.4byte	.LVL6
 1113 0042 0100     		.2byte	0x1
 1114 0044 50       		.byte	0x50
 1115 0045 0E000000 		.4byte	.LVL6
 1116 0049 14000000 		.4byte	.LVL9
 1117 004d 0100     		.2byte	0x1
 1118 004f 53       		.byte	0x53
 1119 0050 14000000 		.4byte	.LVL9
 1120 0054 18000000 		.4byte	.LVL10
 1121 0058 0100     		.2byte	0x1
 1122 005a 50       		.byte	0x50
 1123 005b 18000000 		.4byte	.LVL10
 1124 005f 1A000000 		.4byte	.LFE10
 1125 0063 0100     		.2byte	0x1
 1126 0065 53       		.byte	0x53
 1127 0066 00000000 		.4byte	0
 1128 006a 00000000 		.4byte	0
 1129              	.LLST3:
 1130 006e 0E000000 		.4byte	.LVL6
 1131 0072 10000000 		.4byte	.LVL7
 1132 0076 0500     		.2byte	0x5
 1133 0078 71       		.byte	0x71
 1134 0079 00       		.sleb128 0
 1135 007a 72       		.byte	0x72
ARM GAS  C:\Users\jsyoon\AppData\Local\Temp\ccGrCXsO.s 			page 21


 1136 007b 00       		.sleb128 0
 1137 007c 22       		.byte	0x22
 1138 007d 10000000 		.4byte	.LVL7
 1139 0081 12000000 		.4byte	.LVL8
 1140 0085 0600     		.2byte	0x6
 1141 0087 71       		.byte	0x71
 1142 0088 00       		.sleb128 0
 1143 0089 73       		.byte	0x73
 1144 008a 10       		.sleb128 16
 1145 008b 06       		.byte	0x6
 1146 008c 22       		.byte	0x22
 1147 008d 12000000 		.4byte	.LVL8
 1148 0091 14000000 		.4byte	.LVL9
 1149 0095 0100     		.2byte	0x1
 1150 0097 50       		.byte	0x50
 1151 0098 00000000 		.4byte	0
 1152 009c 00000000 		.4byte	0
 1153              	.LLST4:
 1154 00a0 08000000 		.4byte	.LVL5
 1155 00a4 0E000000 		.4byte	.LVL6
 1156 00a8 0100     		.2byte	0x1
 1157 00aa 50       		.byte	0x50
 1158 00ab 0E000000 		.4byte	.LVL6
 1159 00af 14000000 		.4byte	.LVL9
 1160 00b3 0100     		.2byte	0x1
 1161 00b5 53       		.byte	0x53
 1162 00b6 14000000 		.4byte	.LVL9
 1163 00ba 18000000 		.4byte	.LVL10
 1164 00be 0100     		.2byte	0x1
 1165 00c0 50       		.byte	0x50
 1166 00c1 18000000 		.4byte	.LVL10
 1167 00c5 1A000000 		.4byte	.LFE10
 1168 00c9 0100     		.2byte	0x1
 1169 00cb 53       		.byte	0x53
 1170 00cc 00000000 		.4byte	0
 1171 00d0 00000000 		.4byte	0
 1172              	.LLST5:
 1173 00d4 00000000 		.4byte	.LVL11
 1174 00d8 06000000 		.4byte	.LVL13
 1175 00dc 0100     		.2byte	0x1
 1176 00de 50       		.byte	0x50
 1177 00df 06000000 		.4byte	.LVL13
 1178 00e3 26000000 		.4byte	.LFE8
 1179 00e7 0100     		.2byte	0x1
 1180 00e9 54       		.byte	0x54
 1181 00ea 00000000 		.4byte	0
 1182 00ee 00000000 		.4byte	0
 1183              	.LLST6:
 1184 00f2 00000000 		.4byte	.LVL11
 1185 00f6 0C000000 		.4byte	.LVL14
 1186 00fa 0100     		.2byte	0x1
 1187 00fc 51       		.byte	0x51
 1188 00fd 0C000000 		.4byte	.LVL14
 1189 0101 1B000000 		.4byte	.LVL16-1
 1190 0105 0100     		.2byte	0x1
 1191 0107 50       		.byte	0x50
 1192 0108 1B000000 		.4byte	.LVL16-1
ARM GAS  C:\Users\jsyoon\AppData\Local\Temp\ccGrCXsO.s 			page 22


 1193 010c 26000000 		.4byte	.LFE8
 1194 0110 0400     		.2byte	0x4
 1195 0112 F3       		.byte	0xf3
 1196 0113 01       		.uleb128 0x1
 1197 0114 51       		.byte	0x51
 1198 0115 9F       		.byte	0x9f
 1199 0116 00000000 		.4byte	0
 1200 011a 00000000 		.4byte	0
 1201              	.LLST7:
 1202 011e 00000000 		.4byte	.LVL11
 1203 0122 14000000 		.4byte	.LVL15
 1204 0126 0100     		.2byte	0x1
 1205 0128 52       		.byte	0x52
 1206 0129 14000000 		.4byte	.LVL15
 1207 012d 26000000 		.4byte	.LFE8
 1208 0131 0100     		.2byte	0x1
 1209 0133 55       		.byte	0x55
 1210 0134 00000000 		.4byte	0
 1211 0138 00000000 		.4byte	0
 1212              	.LLST8:
 1213 013c 04000000 		.4byte	.LVL12
 1214 0140 06000000 		.4byte	.LVL13
 1215 0144 0100     		.2byte	0x1
 1216 0146 50       		.byte	0x50
 1217 0147 06000000 		.4byte	.LVL13
 1218 014b 26000000 		.4byte	.LFE8
 1219 014f 0100     		.2byte	0x1
 1220 0151 54       		.byte	0x54
 1221 0152 00000000 		.4byte	0
 1222 0156 00000000 		.4byte	0
 1223              	.LLST9:
 1224 015a 00000000 		.4byte	.LVL17
 1225 015e 0C000000 		.4byte	.LVL19
 1226 0162 0100     		.2byte	0x1
 1227 0164 50       		.byte	0x50
 1228 0165 0C000000 		.4byte	.LVL19
 1229 0169 24000000 		.4byte	.LFE7
 1230 016d 0100     		.2byte	0x1
 1231 016f 54       		.byte	0x54
 1232 0170 00000000 		.4byte	0
 1233 0174 00000000 		.4byte	0
 1234              	.LLST10:
 1235 0178 00000000 		.4byte	.LVL17
 1236 017c 19000000 		.4byte	.LVL21-1
 1237 0180 0100     		.2byte	0x1
 1238 0182 51       		.byte	0x51
 1239 0183 19000000 		.4byte	.LVL21-1
 1240 0187 24000000 		.4byte	.LFE7
 1241 018b 0400     		.2byte	0x4
 1242 018d F3       		.byte	0xf3
 1243 018e 01       		.uleb128 0x1
 1244 018f 51       		.byte	0x51
 1245 0190 9F       		.byte	0x9f
 1246 0191 00000000 		.4byte	0
 1247 0195 00000000 		.4byte	0
 1248              	.LLST11:
 1249 0199 00000000 		.4byte	.LVL17
ARM GAS  C:\Users\jsyoon\AppData\Local\Temp\ccGrCXsO.s 			page 23


 1250 019d 12000000 		.4byte	.LVL20
 1251 01a1 0100     		.2byte	0x1
 1252 01a3 52       		.byte	0x52
 1253 01a4 12000000 		.4byte	.LVL20
 1254 01a8 24000000 		.4byte	.LFE7
 1255 01ac 0100     		.2byte	0x1
 1256 01ae 55       		.byte	0x55
 1257 01af 00000000 		.4byte	0
 1258 01b3 00000000 		.4byte	0
 1259              	.LLST12:
 1260 01b7 08000000 		.4byte	.LVL18
 1261 01bb 0C000000 		.4byte	.LVL19
 1262 01bf 0100     		.2byte	0x1
 1263 01c1 50       		.byte	0x50
 1264 01c2 0C000000 		.4byte	.LVL19
 1265 01c6 24000000 		.4byte	.LFE7
 1266 01ca 0100     		.2byte	0x1
 1267 01cc 54       		.byte	0x54
 1268 01cd 00000000 		.4byte	0
 1269 01d1 00000000 		.4byte	0
 1270              	.LLST13:
 1271 01d5 00000000 		.4byte	.LVL22
 1272 01d9 0A000000 		.4byte	.LVL23
 1273 01dd 0100     		.2byte	0x1
 1274 01df 51       		.byte	0x51
 1275 01e0 0A000000 		.4byte	.LVL23
 1276 01e4 1C000000 		.4byte	.LFE11
 1277 01e8 0200     		.2byte	0x2
 1278 01ea 70       		.byte	0x70
 1279 01eb 04       		.sleb128 4
 1280 01ec 00000000 		.4byte	0
 1281 01f0 00000000 		.4byte	0
 1282              		.section	.debug_aranges,"",%progbits
 1283 0000 3C000000 		.4byte	0x3c
 1284 0004 0200     		.2byte	0x2
 1285 0006 00000000 		.4byte	.Ldebug_info0
 1286 000a 04       		.byte	0x4
 1287 000b 00       		.byte	0
 1288 000c 0000     		.2byte	0
 1289 000e 0000     		.2byte	0
 1290 0010 00000000 		.4byte	.LFB9
 1291 0014 1C000000 		.4byte	.LFE9-.LFB9
 1292 0018 00000000 		.4byte	.LFB10
 1293 001c 1A000000 		.4byte	.LFE10-.LFB10
 1294 0020 00000000 		.4byte	.LFB8
 1295 0024 26000000 		.4byte	.LFE8-.LFB8
 1296 0028 00000000 		.4byte	.LFB7
 1297 002c 24000000 		.4byte	.LFE7-.LFB7
 1298 0030 00000000 		.4byte	.LFB11
 1299 0034 1C000000 		.4byte	.LFE11-.LFB11
 1300 0038 00000000 		.4byte	0
 1301 003c 00000000 		.4byte	0
 1302              		.section	.debug_ranges,"",%progbits
 1303              	.Ldebug_ranges0:
 1304 0000 00000000 		.4byte	.LFB9
 1305 0004 1C000000 		.4byte	.LFE9
 1306 0008 00000000 		.4byte	.LFB10
ARM GAS  C:\Users\jsyoon\AppData\Local\Temp\ccGrCXsO.s 			page 24


 1307 000c 1A000000 		.4byte	.LFE10
 1308 0010 00000000 		.4byte	.LFB8
 1309 0014 26000000 		.4byte	.LFE8
 1310 0018 00000000 		.4byte	.LFB7
 1311 001c 24000000 		.4byte	.LFE7
 1312 0020 00000000 		.4byte	.LFB11
 1313 0024 1C000000 		.4byte	.LFE11
 1314 0028 00000000 		.4byte	0
 1315 002c 00000000 		.4byte	0
 1316              		.section	.debug_line,"",%progbits
 1317              	.Ldebug_line0:
 1318 0000 F4010000 		.section	.debug_str,"MS",%progbits,1
 1318      02007D01 
 1318      00000201 
 1318      FB0E0D00 
 1318      01010101 
 1319              	.LASF3:
 1320 0000 5F5F7569 		.ascii	"__uint8_t\000"
 1320      6E74385F 
 1320      7400
 1321              	.LASF2:
 1322 000a 73697A65 		.ascii	"size_t\000"
 1322      5F7400
 1323              	.LASF26:
 1324 0011 474E5520 		.ascii	"GNU C 4.8.4 20140526 (release) [ARM/embedded-4_8-br"
 1324      4320342E 
 1324      382E3420 
 1324      32303134 
 1324      30353236 
 1325 0044 616E6368 		.ascii	"anch revision 211358] -mcpu=cortex-m4 -mfloat-abi=h"
 1325      20726576 
 1325      6973696F 
 1325      6E203231 
 1325      31333538 
 1326 0077 61726420 		.ascii	"ard -mfpu=fpv4-sp-d16 -mno-thumb-interwork -mthumb "
 1326      2D6D6670 
 1326      753D6670 
 1326      76342D73 
 1326      702D6431 
 1327 00aa 2D676764 		.ascii	"-ggdb -O2 -std=gnu99 -fomit-frame-pointer -falign-f"
 1327      62202D4F 
 1327      32202D73 
 1327      74643D67 
 1327      6E753939 
 1328 00dd 756E6374 		.ascii	"unctions=16 -ffunction-sections -fdata-sections -fn"
 1328      696F6E73 
 1328      3D313620 
 1328      2D666675 
 1328      6E637469 
 1329 0110 6F2D636F 		.ascii	"o-common -fsingle-precision-constant\000"
 1329      6D6D6F6E 
 1329      202D6673 
 1329      696E676C 
 1329      652D7072 
 1330              	.LASF7:
 1331 0135 5F5F696E 		.ascii	"__int32_t\000"
 1331      7433325F 
ARM GAS  C:\Users\jsyoon\AppData\Local\Temp\ccGrCXsO.s 			page 25


 1331      7400
 1332              	.LASF25:
 1333 013f 77726974 		.ascii	"writes\000"
 1333      657300
 1334              	.LASF1:
 1335 0146 7369676E 		.ascii	"signed char\000"
 1335      65642063 
 1335      68617200 
 1336              	.LASF24:
 1337 0152 72656164 		.ascii	"reads\000"
 1337      7300
 1338              	.LASF6:
 1339 0158 73686F72 		.ascii	"short unsigned int\000"
 1339      7420756E 
 1339      7369676E 
 1339      65642069 
 1339      6E7400
 1340              	.LASF18:
 1341 016b 77726974 		.ascii	"write\000"
 1341      6500
 1342              	.LASF29:
 1343 0171 4D656D53 		.ascii	"MemStreamVMT\000"
 1343      74726561 
 1343      6D564D54 
 1343      00
 1344              	.LASF4:
 1345 017e 756E7369 		.ascii	"unsigned char\000"
 1345      676E6564 
 1345      20636861 
 1345      7200
 1346              	.LASF30:
 1347 018c 6D734F62 		.ascii	"msObjectInit\000"
 1347      6A656374 
 1347      496E6974 
 1347      00
 1348              	.LASF19:
 1349 0199 72656164 		.ascii	"read\000"
 1349      00
 1350              	.LASF9:
 1351 019e 6C6F6E67 		.ascii	"long unsigned int\000"
 1351      20756E73 
 1351      69676E65 
 1351      6420696E 
 1351      7400
 1352              	.LASF0:
 1353 01b0 756E7369 		.ascii	"unsigned int\000"
 1353      676E6564 
 1353      20696E74 
 1353      00
 1354              	.LASF11:
 1355 01bd 6C6F6E67 		.ascii	"long long unsigned int\000"
 1355      206C6F6E 
 1355      6720756E 
 1355      7369676E 
 1355      65642069 
 1356              	.LASF14:
 1357 01d4 75696E74 		.ascii	"uint8_t\000"
ARM GAS  C:\Users\jsyoon\AppData\Local\Temp\ccGrCXsO.s 			page 26


 1357      385F7400 
 1358              	.LASF17:
 1359 01dc 6D73675F 		.ascii	"msg_t\000"
 1359      7400
 1360              	.LASF15:
 1361 01e2 696E7433 		.ascii	"int32_t\000"
 1361      325F7400 
 1362              	.LASF27:
 1363 01ea 43686962 		.ascii	"ChibiOS_2.6.6/os/various/memstreams.c\000"
 1363      694F535F 
 1363      322E362E 
 1363      362F6F73 
 1363      2F766172 
 1364              	.LASF12:
 1365 0210 73697A65 		.ascii	"sizetype\000"
 1365      74797065 
 1365      00
 1366              	.LASF10:
 1367 0219 6C6F6E67 		.ascii	"long long int\000"
 1367      206C6F6E 
 1367      6720696E 
 1367      7400
 1368              	.LASF13:
 1369 0227 63686172 		.ascii	"char\000"
 1369      00
 1370              	.LASF28:
 1371 022c 453A5C4D 		.ascii	"E:\\Maker\\BLDC\\test_eval\\try2\\OROCA-BLDC_R15080"
 1371      616B6572 
 1371      5C424C44 
 1371      435C7465 
 1371      73745F65 
 1372 025a 3700     		.ascii	"7\000"
 1373              	.LASF22:
 1374 025c 6F666673 		.ascii	"offset\000"
 1374      657400
 1375              	.LASF5:
 1376 0263 73686F72 		.ascii	"short int\000"
 1376      7420696E 
 1376      7400
 1377              	.LASF20:
 1378 026d 62756666 		.ascii	"buffer\000"
 1378      657200
 1379              	.LASF31:
 1380 0274 6D656D63 		.ascii	"memcpy\000"
 1380      707900
 1381              	.LASF8:
 1382 027b 6C6F6E67 		.ascii	"long int\000"
 1382      20696E74 
 1382      00
 1383              	.LASF23:
 1384 0284 4D656D6F 		.ascii	"MemoryStream\000"
 1384      72795374 
 1384      7265616D 
 1384      00
 1385              	.LASF21:
 1386 0291 73697A65 		.ascii	"size\000"
 1386      00
ARM GAS  C:\Users\jsyoon\AppData\Local\Temp\ccGrCXsO.s 			page 27


 1387              	.LASF16:
 1388 0296 5F426F6F 		.ascii	"_Bool\000"
 1388      6C00
 1389              		.ident	"GCC: (GNU Tools for ARM Embedded Processors) 4.8.4 20140526 (release) [ARM/embedded-4_8-br
ARM GAS  C:\Users\jsyoon\AppData\Local\Temp\ccGrCXsO.s 			page 28


DEFINED SYMBOLS
                            *ABS*:00000000 memstreams.c
C:\Users\jsyoon\AppData\Local\Temp\ccGrCXsO.s:21     .text.put:00000000 $t
C:\Users\jsyoon\AppData\Local\Temp\ccGrCXsO.s:26     .text.put:00000000 put
C:\Users\jsyoon\AppData\Local\Temp\ccGrCXsO.s:62     .text.get:00000000 $t
C:\Users\jsyoon\AppData\Local\Temp\ccGrCXsO.s:67     .text.get:00000000 get
C:\Users\jsyoon\AppData\Local\Temp\ccGrCXsO.s:106    .text.reads:00000000 $t
C:\Users\jsyoon\AppData\Local\Temp\ccGrCXsO.s:111    .text.reads:00000000 reads
C:\Users\jsyoon\AppData\Local\Temp\ccGrCXsO.s:158    .text.writes:00000000 $t
C:\Users\jsyoon\AppData\Local\Temp\ccGrCXsO.s:163    .text.writes:00000000 writes
C:\Users\jsyoon\AppData\Local\Temp\ccGrCXsO.s:206    .text.msObjectInit:00000000 $t
C:\Users\jsyoon\AppData\Local\Temp\ccGrCXsO.s:212    .text.msObjectInit:00000000 msObjectInit
C:\Users\jsyoon\AppData\Local\Temp\ccGrCXsO.s:243    .text.msObjectInit:00000018 $d
C:\Users\jsyoon\AppData\Local\Temp\ccGrCXsO.s:248    .rodata.vmt:00000000 $d
C:\Users\jsyoon\AppData\Local\Temp\ccGrCXsO.s:252    .rodata.vmt:00000000 vmt
                     .debug_frame:00000010 $d
C:\Users\jsyoon\AppData\Local\Temp\ccGrCXsO.s:247    .text.msObjectInit:0000001c $t

UNDEFINED SYMBOLS
memcpy
