ARM GAS  C:\Users\ADMINI~1\AppData\Local\Temp\ccuylufO.s 			page 1


   1              		.syntax unified
   2              		.cpu cortex-m4
   3              		.eabi_attribute 27, 1
   4              		.eabi_attribute 28, 1
   5              		.fpu fpv4-sp-d16
   6              		.eabi_attribute 20, 1
   7              		.eabi_attribute 21, 1
   8              		.eabi_attribute 23, 3
   9              		.eabi_attribute 24, 1
  10              		.eabi_attribute 25, 1
  11              		.eabi_attribute 26, 1
  12              		.eabi_attribute 30, 2
  13              		.eabi_attribute 34, 1
  14              		.eabi_attribute 18, 4
  15              		.thumb
  16              		.file	"myUSB.c"
  17              		.text
  18              	.Ltext0:
  19              		.cfi_sections	.debug_frame
  20              		.section	.text.get_descriptor,"ax",%progbits
  21              		.align	2
  22              		.p2align 4,,15
  23              		.thumb
  24              		.thumb_func
  25              		.type	get_descriptor, %function
  26              	get_descriptor:
  27              	.LFB118:
  28              		.file 1 "myUSB.c"
  29              		.loc 1 35 0
  30              		.cfi_startproc
  31              		@ args = 0, pretend = 0, frame = 0
  32              		@ frame_needed = 0, uses_anonymous_args = 0
  33              		@ link register save eliminated.
  34              	.LVL0:
  35              		.loc 1 39 0
  36 0000 0229     		cmp	r1, #2
  37 0002 06D0     		beq	.L3
  38 0004 0329     		cmp	r1, #3
  39 0006 06D0     		beq	.L4
  40 0008 0129     		cmp	r1, #1
  41              		.loc 1 48 0
  42 000a 0648     		ldr	r0, .L9
  43              	.LVL1:
  44 000c 18BF     		it	ne
  45 000e 0020     		movne	r0, #0
  46 0010 7047     		bx	lr
  47              	.LVL2:
  48              	.L3:
  49              		.loc 1 43 0
  50 0012 0548     		ldr	r0, .L9+4
  51              	.LVL3:
  52 0014 7047     		bx	lr
  53              	.LVL4:
  54              	.L4:
  55              		.loc 1 45 0
  56 0016 032A     		cmp	r2, #3
  57              		.loc 1 46 0
ARM GAS  C:\Users\ADMINI~1\AppData\Local\Temp\ccuylufO.s 			page 2


  58 0018 9ABF     		itte	ls
  59 001a 044B     		ldrls	r3, .L9+8
  60              	.LVL5:
  61 001c 03EBC200 		addls	r0, r3, r2, lsl #3
  62              	.LVL6:
  63              		.loc 1 48 0
  64 0020 0020     		movhi	r0, #0
  65              		.loc 1 49 0
  66 0022 7047     		bx	lr
  67              	.L10:
  68              		.align	2
  69              	.L9:
  70 0024 00000000 		.word	.LANCHOR0
  71 0028 00000000 		.word	.LANCHOR1
  72 002c 00000000 		.word	.LANCHOR2
  73              		.cfi_endproc
  74              	.LFE118:
  75              		.size	get_descriptor, .-get_descriptor
  76              		.section	.text.usb_event,"ax",%progbits
  77              		.align	2
  78              		.p2align 4,,15
  79              		.thumb
  80              		.thumb_func
  81              		.type	usb_event, %function
  82              	usb_event:
  83              	.LFB119:
  84              		.loc 1 101 0
  85              		.cfi_startproc
  86              		@ args = 0, pretend = 0, frame = 0
  87              		@ frame_needed = 0, uses_anonymous_args = 0
  88              	.LVL7:
  89              		.loc 1 104 0
  90 0000 0229     		cmp	r1, #2
  91 0002 11D1     		bne	.L15
  92              		.loc 1 101 0
  93 0004 38B5     		push	{r3, r4, r5, lr}
  94              		.cfi_def_cfa_offset 16
  95              		.cfi_offset 3, -16
  96              		.cfi_offset 4, -12
  97              		.cfi_offset 5, -8
  98              		.cfi_offset 14, -4
  99 0006 0546     		mov	r5, r0
 100 0008 0C46     		mov	r4, r1
 101              	.LVL8:
 102              	.LBB4:
 103              	.LBB5:
 104              		.loc 1 110 0
 105              	@ 110 "myUSB.c" 1
 106 000a 72B6     		cpsid   i
 107              	@ 0 "" 2
 108              		.loc 1 115 0
 109              		.thumb
 110 000c 0121     		movs	r1, #1
 111              	.LVL9:
 112 000e 074A     		ldr	r2, .L16
 113 0010 FFF7FEFF 		bl	usbInitEndpointI
 114              	.LVL10:
ARM GAS  C:\Users\ADMINI~1\AppData\Local\Temp\ccuylufO.s 			page 3


 115              		.loc 1 116 0
 116 0014 2846     		mov	r0, r5
 117 0016 2146     		mov	r1, r4
 118 0018 054A     		ldr	r2, .L16+4
 119 001a FFF7FEFF 		bl	usbInitEndpointI
 120              	.LVL11:
 121              		.loc 1 119 0
 122 001e 0548     		ldr	r0, .L16+8
 123 0020 FFF7FEFF 		bl	sduConfigureHookI
 124              	.LVL12:
 125              		.loc 1 121 0
 126              	@ 121 "myUSB.c" 1
 127 0024 62B6     		cpsie   i
 128              	@ 0 "" 2
 129              		.thumb
 130 0026 38BD     		pop	{r3, r4, r5, pc}
 131              	.LVL13:
 132              	.L15:
 133              		.cfi_def_cfa_offset 0
 134              		.cfi_restore 3
 135              		.cfi_restore 4
 136              		.cfi_restore 5
 137              		.cfi_restore 14
 138 0028 7047     		bx	lr
 139              	.L17:
 140 002a 00BF     		.align	2
 141              	.L16:
 142 002c 00000000 		.word	.LANCHOR3
 143 0030 00000000 		.word	.LANCHOR4
 144 0034 00000000 		.word	.LANCHOR5
 145              	.LBE5:
 146              	.LBE4:
 147              		.cfi_endproc
 148              	.LFE119:
 149              		.size	usb_event, .-usb_event
 150              		.section	.text.isUsbActive,"ax",%progbits
 151              		.align	2
 152              		.p2align 4,,15
 153              		.global	isUsbActive
 154              		.thumb
 155              		.thumb_func
 156              		.type	isUsbActive, %function
 157              	isUsbActive:
 158              	.LFB120:
 159              		.loc 1 153 0
 160              		.cfi_startproc
 161              		@ args = 0, pretend = 0, frame = 0
 162              		@ frame_needed = 0, uses_anonymous_args = 0
 163              		@ link register save eliminated.
 164              		.loc 1 154 0
 165 0000 054B     		ldr	r3, .L19
 166 0002 D3F85432 		ldr	r3, [r3, #596]
 167 0006 1B68     		ldr	r3, [r3]
 168 0008 1878     		ldrb	r0, [r3]	@ zero_extendqisi2
 169              		.loc 1 155 0
 170 000a A0F10400 		sub	r0, #4
 171 000e B0FA80F0 		clz	r0, r0
ARM GAS  C:\Users\ADMINI~1\AppData\Local\Temp\ccuylufO.s 			page 4


 172 0012 4009     		lsrs	r0, r0, #5
 173 0014 7047     		bx	lr
 174              	.L20:
 175 0016 00BF     		.align	2
 176              	.L19:
 177 0018 00000000 		.word	.LANCHOR5
 178              		.cfi_endproc
 179              	.LFE120:
 180              		.size	isUsbActive, .-isUsbActive
 181              		.section	.text.myUSBinit,"ax",%progbits
 182              		.align	2
 183              		.p2align 4,,15
 184              		.global	myUSBinit
 185              		.thumb
 186              		.thumb_func
 187              		.type	myUSBinit, %function
 188              	myUSBinit:
 189              	.LFB121:
 190              		.loc 1 157 0
 191              		.cfi_startproc
 192              		@ args = 0, pretend = 0, frame = 0
 193              		@ frame_needed = 0, uses_anonymous_args = 0
 194 0000 38B5     		push	{r3, r4, r5, lr}
 195              		.cfi_def_cfa_offset 16
 196              		.cfi_offset 3, -16
 197              		.cfi_offset 4, -12
 198              		.cfi_offset 5, -8
 199              		.cfi_offset 14, -4
 200              		.loc 1 161 0
 201 0002 0E4D     		ldr	r5, .L23
 202              		.loc 1 169 0
 203 0004 0E4C     		ldr	r4, .L23+4
 204              		.loc 1 161 0
 205 0006 2846     		mov	r0, r5
 206 0008 FFF7FEFF 		bl	sduObjectInit
 207              	.LVL14:
 208              		.loc 1 162 0
 209 000c 0D49     		ldr	r1, .L23+8
 210 000e 2846     		mov	r0, r5
 211 0010 FFF7FEFF 		bl	sduStart
 212              	.LVL15:
 213              		.loc 1 169 0
 214 0014 226D     		ldr	r2, [r4, #80]
 215 0016 936B     		ldr	r3, [r2, #56]
 216 0018 23F40023 		bic	r3, r3, #524288
 217 001c 9363     		str	r3, [r2, #56]
 218              		.loc 1 170 0
 219 001e 42F21070 		movw	r0, #10000
 220 0022 FFF7FEFF 		bl	chThdSleep
 221              	.LVL16:
 222              		.loc 1 171 0
 223 0026 2046     		mov	r0, r4
 224 0028 0749     		ldr	r1, .L23+12
 225 002a FFF7FEFF 		bl	usbStart
 226              	.LVL17:
 227              		.loc 1 172 0
 228 002e 226D     		ldr	r2, [r4, #80]
ARM GAS  C:\Users\ADMINI~1\AppData\Local\Temp\ccuylufO.s 			page 5


 229 0030 936B     		ldr	r3, [r2, #56]
 230 0032 43F40023 		orr	r3, r3, #524288
 231 0036 9363     		str	r3, [r2, #56]
 232 0038 38BD     		pop	{r3, r4, r5, pc}
 233              	.L24:
 234 003a 00BF     		.align	2
 235              	.L23:
 236 003c 00000000 		.word	.LANCHOR5
 237 0040 00000000 		.word	USBD1
 238 0044 00000000 		.word	.LANCHOR6
 239 0048 00000000 		.word	.LANCHOR7
 240              		.cfi_endproc
 241              	.LFE121:
 242              		.size	myUSBinit, .-myUSBinit
 243              		.global	serusbcfg
 244              		.global	usbcfg
 245              		.global	SDU1
 246              		.section	.rodata.ep1config,"a",%progbits
 247              		.align	2
 248              		.set	.LANCHOR3,. + 0
 249              		.type	ep1config, %object
 250              		.size	ep1config, 36
 251              	ep1config:
 252 0000 02000000 		.word	2
 253 0004 00000000 		.word	0
 254 0008 00000000 		.word	sduDataTransmitted
 255 000c 00000000 		.word	sduDataReceived
 256 0010 4000     		.short	64
 257 0012 4000     		.short	64
 258 0014 00000000 		.word	ep1instate
 259 0018 00000000 		.word	ep1outstate
 260 001c 0200     		.short	2
 261 001e 0000     		.space	2
 262 0020 00000000 		.word	0
 263              		.section	.bss.ep2instate,"aw",%nobits
 264              		.align	2
 265              		.type	ep2instate, %object
 266              		.size	ep2instate, 20
 267              	ep2instate:
 268 0000 00000000 		.space	20
 268      00000000 
 268      00000000 
 268      00000000 
 268      00000000 
 269              		.section	.bss.SDU1,"aw",%nobits
 270              		.align	2
 271              		.set	.LANCHOR5,. + 0
 272              		.type	SDU1, %object
 273              		.size	SDU1, 600
 274              	SDU1:
 275 0000 00000000 		.space	600
 275      00000000 
 275      00000000 
 275      00000000 
 275      00000000 
 276              		.section	.bss.ep1instate,"aw",%nobits
 277              		.align	2
ARM GAS  C:\Users\ADMINI~1\AppData\Local\Temp\ccuylufO.s 			page 6


 278              		.type	ep1instate, %object
 279              		.size	ep1instate, 20
 280              	ep1instate:
 281 0000 00000000 		.space	20
 281      00000000 
 281      00000000 
 281      00000000 
 281      00000000 
 282              		.section	.rodata.vcom_configuration_descriptor,"a",%progbits
 283              		.align	2
 284              		.set	.LANCHOR1,. + 0
 285              		.type	vcom_configuration_descriptor, %object
 286              		.size	vcom_configuration_descriptor, 8
 287              	vcom_configuration_descriptor:
 288 0000 43000000 		.word	67
 289 0004 00000000 		.word	vcom_configuration_descriptor_data
 290              		.section	.rodata.ep2config,"a",%progbits
 291              		.align	2
 292              		.set	.LANCHOR4,. + 0
 293              		.type	ep2config, %object
 294              		.size	ep2config, 36
 295              	ep2config:
 296 0000 03000000 		.word	3
 297 0004 00000000 		.word	0
 298 0008 00000000 		.word	sduInterruptTransmitted
 299 000c 00000000 		.word	0
 300 0010 1000     		.short	16
 301 0012 0000     		.short	0
 302 0014 00000000 		.word	ep2instate
 303 0018 00000000 		.word	0
 304 001c 0100     		.short	1
 305 001e 0000     		.space	2
 306 0020 00000000 		.word	0
 307              		.section	.rodata.usbcfg,"a",%progbits
 308              		.align	2
 309              		.set	.LANCHOR7,. + 0
 310              		.type	usbcfg, %object
 311              		.size	usbcfg, 16
 312              	usbcfg:
 313 0000 00000000 		.word	usb_event
 314 0004 00000000 		.word	get_descriptor
 315 0008 00000000 		.word	sduRequestsHook
 316 000c 00000000 		.word	0
 317              		.section	.rodata.vcom_configuration_descriptor_data,"a",%progbits
 318              		.align	2
 319              		.type	vcom_configuration_descriptor_data, %object
 320              		.size	vcom_configuration_descriptor_data, 67
 321              	vcom_configuration_descriptor_data:
 322 0000 09       		.byte	9
 323 0001 02       		.byte	2
 324 0002 43       		.byte	67
 325 0003 00       		.byte	0
 326 0004 02       		.byte	2
 327 0005 01       		.byte	1
 328 0006 00       		.byte	0
 329 0007 C0       		.byte	-64
 330 0008 32       		.byte	50
ARM GAS  C:\Users\ADMINI~1\AppData\Local\Temp\ccuylufO.s 			page 7


 331 0009 09       		.byte	9
 332 000a 04       		.byte	4
 333 000b 00       		.byte	0
 334 000c 00       		.byte	0
 335 000d 01       		.byte	1
 336 000e 02       		.byte	2
 337 000f 02       		.byte	2
 338 0010 01       		.byte	1
 339 0011 00       		.byte	0
 340 0012 05       		.byte	5
 341 0013 24       		.byte	36
 342 0014 00       		.byte	0
 343 0015 10       		.byte	16
 344 0016 01       		.byte	1
 345 0017 05       		.byte	5
 346 0018 24       		.byte	36
 347 0019 01       		.byte	1
 348 001a 00       		.byte	0
 349 001b 01       		.byte	1
 350 001c 04       		.byte	4
 351 001d 24       		.byte	36
 352 001e 02       		.byte	2
 353 001f 02       		.byte	2
 354 0020 05       		.byte	5
 355 0021 24       		.byte	36
 356 0022 06       		.byte	6
 357 0023 00       		.byte	0
 358 0024 01       		.byte	1
 359 0025 07       		.byte	7
 360 0026 05       		.byte	5
 361 0027 82       		.byte	-126
 362 0028 03       		.byte	3
 363 0029 08       		.byte	8
 364 002a 00       		.byte	0
 365 002b FF       		.byte	-1
 366 002c 09       		.byte	9
 367 002d 04       		.byte	4
 368 002e 01       		.byte	1
 369 002f 00       		.byte	0
 370 0030 02       		.byte	2
 371 0031 0A       		.byte	10
 372 0032 00       		.byte	0
 373 0033 00       		.byte	0
 374 0034 00       		.byte	0
 375 0035 07       		.byte	7
 376 0036 05       		.byte	5
 377 0037 01       		.byte	1
 378 0038 02       		.byte	2
 379 0039 40       		.byte	64
 380 003a 00       		.byte	0
 381 003b 00       		.byte	0
 382 003c 07       		.byte	7
 383 003d 05       		.byte	5
 384 003e 81       		.byte	-127
 385 003f 02       		.byte	2
 386 0040 40       		.byte	64
 387 0041 00       		.byte	0
ARM GAS  C:\Users\ADMINI~1\AppData\Local\Temp\ccuylufO.s 			page 8


 388 0042 00       		.byte	0
 389              		.section	.rodata.vcom_device_descriptor_data,"a",%progbits
 390              		.align	2
 391              		.type	vcom_device_descriptor_data, %object
 392              		.size	vcom_device_descriptor_data, 18
 393              	vcom_device_descriptor_data:
 394 0000 12       		.byte	18
 395 0001 01       		.byte	1
 396 0002 10       		.byte	16
 397 0003 01       		.byte	1
 398 0004 02       		.byte	2
 399 0005 00       		.byte	0
 400 0006 00       		.byte	0
 401 0007 40       		.byte	64
 402 0008 83       		.byte	-125
 403 0009 04       		.byte	4
 404 000a 40       		.byte	64
 405 000b 57       		.byte	87
 406 000c 00       		.byte	0
 407 000d 02       		.byte	2
 408 000e 01       		.byte	1
 409 000f 02       		.byte	2
 410 0010 03       		.byte	3
 411 0011 01       		.byte	1
 412              		.section	.bss.ep1outstate,"aw",%nobits
 413              		.align	2
 414              		.type	ep1outstate, %object
 415              		.size	ep1outstate, 20
 416              	ep1outstate:
 417 0000 00000000 		.space	20
 417      00000000 
 417      00000000 
 417      00000000 
 417      00000000 
 418              		.section	.rodata.vcom_string0,"a",%progbits
 419              		.align	2
 420              		.type	vcom_string0, %object
 421              		.size	vcom_string0, 4
 422              	vcom_string0:
 423 0000 04       		.byte	4
 424 0001 03       		.byte	3
 425 0002 09       		.byte	9
 426 0003 04       		.byte	4
 427              		.section	.rodata.vcom_string1,"a",%progbits
 428              		.align	2
 429              		.type	vcom_string1, %object
 430              		.size	vcom_string1, 38
 431              	vcom_string1:
 432 0000 26       		.byte	38
 433 0001 03       		.byte	3
 434 0002 53       		.byte	83
 435 0003 00       		.byte	0
 436 0004 54       		.byte	84
 437 0005 00       		.byte	0
 438 0006 4D       		.byte	77
 439 0007 00       		.byte	0
 440 0008 69       		.byte	105
ARM GAS  C:\Users\ADMINI~1\AppData\Local\Temp\ccuylufO.s 			page 9


 441 0009 00       		.byte	0
 442 000a 63       		.byte	99
 443 000b 00       		.byte	0
 444 000c 72       		.byte	114
 445 000d 00       		.byte	0
 446 000e 6F       		.byte	111
 447 000f 00       		.byte	0
 448 0010 65       		.byte	101
 449 0011 00       		.byte	0
 450 0012 6C       		.byte	108
 451 0013 00       		.byte	0
 452 0014 65       		.byte	101
 453 0015 00       		.byte	0
 454 0016 63       		.byte	99
 455 0017 00       		.byte	0
 456 0018 74       		.byte	116
 457 0019 00       		.byte	0
 458 001a 72       		.byte	114
 459 001b 00       		.byte	0
 460 001c 6F       		.byte	111
 461 001d 00       		.byte	0
 462 001e 6E       		.byte	110
 463 001f 00       		.byte	0
 464 0020 69       		.byte	105
 465 0021 00       		.byte	0
 466 0022 63       		.byte	99
 467 0023 00       		.byte	0
 468 0024 73       		.byte	115
 469 0025 00       		.byte	0
 470              		.section	.rodata.vcom_string2,"a",%progbits
 471              		.align	2
 472              		.type	vcom_string2, %object
 473              		.size	vcom_string2, 56
 474              	vcom_string2:
 475 0000 38       		.byte	56
 476 0001 03       		.byte	3
 477 0002 43       		.byte	67
 478 0003 00       		.byte	0
 479 0004 68       		.byte	104
 480 0005 00       		.byte	0
 481 0006 69       		.byte	105
 482 0007 00       		.byte	0
 483 0008 62       		.byte	98
 484 0009 00       		.byte	0
 485 000a 69       		.byte	105
 486 000b 00       		.byte	0
 487 000c 4F       		.byte	79
 488 000d 00       		.byte	0
 489 000e 53       		.byte	83
 490 000f 00       		.byte	0
 491 0010 2F       		.byte	47
 492 0011 00       		.byte	0
 493 0012 52       		.byte	82
 494 0013 00       		.byte	0
 495 0014 54       		.byte	84
 496 0015 00       		.byte	0
 497 0016 20       		.byte	32
ARM GAS  C:\Users\ADMINI~1\AppData\Local\Temp\ccuylufO.s 			page 10


 498 0017 00       		.byte	0
 499 0018 56       		.byte	86
 500 0019 00       		.byte	0
 501 001a 69       		.byte	105
 502 001b 00       		.byte	0
 503 001c 72       		.byte	114
 504 001d 00       		.byte	0
 505 001e 74       		.byte	116
 506 001f 00       		.byte	0
 507 0020 75       		.byte	117
 508 0021 00       		.byte	0
 509 0022 61       		.byte	97
 510 0023 00       		.byte	0
 511 0024 6C       		.byte	108
 512 0025 00       		.byte	0
 513 0026 20       		.byte	32
 514 0027 00       		.byte	0
 515 0028 43       		.byte	67
 516 0029 00       		.byte	0
 517 002a 4F       		.byte	79
 518 002b 00       		.byte	0
 519 002c 4D       		.byte	77
 520 002d 00       		.byte	0
 521 002e 20       		.byte	32
 522 002f 00       		.byte	0
 523 0030 50       		.byte	80
 524 0031 00       		.byte	0
 525 0032 6F       		.byte	111
 526 0033 00       		.byte	0
 527 0034 72       		.byte	114
 528 0035 00       		.byte	0
 529 0036 74       		.byte	116
 530 0037 00       		.byte	0
 531              		.section	.rodata.vcom_string3,"a",%progbits
 532              		.align	2
 533              		.type	vcom_string3, %object
 534              		.size	vcom_string3, 8
 535              	vcom_string3:
 536 0000 08       		.byte	8
 537 0001 03       		.byte	3
 538 0002 32       		.byte	50
 539 0003 00       		.byte	0
 540 0004 36       		.byte	54
 541 0005 00       		.byte	0
 542 0006 36       		.byte	54
 543 0007 00       		.byte	0
 544              		.section	.rodata.vcom_strings,"a",%progbits
 545              		.align	2
 546              		.set	.LANCHOR2,. + 0
 547              		.type	vcom_strings, %object
 548              		.size	vcom_strings, 32
 549              	vcom_strings:
 550 0000 04000000 		.word	4
 551 0004 00000000 		.word	vcom_string0
 552 0008 26000000 		.word	38
 553 000c 00000000 		.word	vcom_string1
 554 0010 38000000 		.word	56
ARM GAS  C:\Users\ADMINI~1\AppData\Local\Temp\ccuylufO.s 			page 11


 555 0014 00000000 		.word	vcom_string2
 556 0018 08000000 		.word	8
 557 001c 00000000 		.word	vcom_string3
 558              		.section	.rodata.serusbcfg,"a",%progbits
 559              		.align	2
 560              		.set	.LANCHOR6,. + 0
 561              		.type	serusbcfg, %object
 562              		.size	serusbcfg, 8
 563              	serusbcfg:
 564 0000 00000000 		.word	USBD1
 565 0004 01       		.byte	1
 566 0005 01       		.byte	1
 567 0006 02       		.byte	2
 568 0007 00       		.space	1
 569              		.section	.rodata.vcom_device_descriptor,"a",%progbits
 570              		.align	2
 571              		.set	.LANCHOR0,. + 0
 572              		.type	vcom_device_descriptor, %object
 573              		.size	vcom_device_descriptor, 8
 574              	vcom_device_descriptor:
 575 0000 12000000 		.word	18
 576 0004 00000000 		.word	vcom_device_descriptor_data
 577              		.text
 578              	.Letext0:
 579              		.file 2 "c:\\program files\\gnu tools arm embedded\\4.9 2015q2\\lib\\gcc\\arm-none-eabi\\4.9.3\\in
 580              		.file 3 "c:\\program files\\gnu tools arm embedded\\4.9 2015q2\\arm-none-eabi\\include\\machine\\_
 581              		.file 4 "c:\\program files\\gnu tools arm embedded\\4.9 2015q2\\arm-none-eabi\\include\\sys\\_stdi
 582              		.file 5 "ChibiOS_2.6.6/os/ports/GCC/ARMCMx/chtypes.h"
 583              		.file 6 "ChibiOS_2.6.6/os/kernel/include/chlists.h"
 584              		.file 7 "ChibiOS_2.6.6/os/kernel/include/chthreads.h"
 585              		.file 8 "ChibiOS_2.6.6/os/ports/GCC/ARMCMx/chcore_v7m.h"
 586              		.file 9 "ChibiOS_2.6.6/os/kernel/include/chmtx.h"
 587              		.file 10 "ChibiOS_2.6.6/os/kernel/include/chevents.h"
 588              		.file 11 "ChibiOS_2.6.6/os/kernel/include/chqueues.h"
 589              		.file 12 "ChibiOS_2.6.6/os/hal/include/usb.h"
 590              		.file 13 "ChibiOS_2.6.6/os/hal/platforms/STM32/OTGv1/usb_lld.h"
 591              		.file 14 "ChibiOS_2.6.6/os/hal/platforms/STM32/OTGv1/stm32_otg.h"
 592              		.file 15 "ChibiOS_2.6.6/os/hal/include/serial_usb.h"
 593              		.file 16 "usbdescriptor.h"
 594              		.file 17 "ChibiOS_2.6.6/os/ports/common/ARMCMx/CMSIS/include/core_cm4.h"