ARM GAS  C:\Users\ADMINI~1\AppData\Local\Temp\ccuylufO.s 			page 1


   1              		.syntax unified
   2              		.cpu cortex-m4
   3              		.eabi_attribute 27, 1
   4              		.eabi_attribute 28, 1
   5              		.fpu fpv4-sp-d16
   6              		.eabi_attribute 20, 1
   7              		.eabi_attribute 21, 1
   8              		.eabi_attribute 23, 3
   9              		.eabi_attribute 24, 1
  10              		.eabi_attribute 25, 1
  11              		.eabi_attribute 26, 1
  12              		.eabi_attribute 30, 2
  13              		.eabi_attribute 34, 1
  14              		.eabi_attribute 18, 4
  15              		.thumb
  16              		.file	"myUSB.c"
  17              		.text
  18              	.Ltext0:
  19              		.cfi_sections	.debug_frame
  20              		.section	.text.get_descriptor,"ax",%progbits
  21              		.align	2
  22              		.p2align 4,,15
  23              		.thumb
  24              		.thumb_func
  25              		.type	get_descriptor, %function
  26              	get_descriptor:
  27              	.LFB118:
  28              		.file 1 "myUSB.c"
  29              		.loc 1 35 0
  30              		.cfi_startproc
  31              		@ args = 0, pretend = 0, frame = 0
  32              		@ frame_needed = 0, uses_anonymous_args = 0
  33              		@ link register save eliminated.
  34              	.LVL0:
  35              		.loc 1 39 0
  36 0000 0229     		cmp	r1, #2
  37 0002 06D0     		beq	.L3
  38 0004 0329     		cmp	r1, #3
  39 0006 06D0     		beq	.L4
  40 0008 0129     		cmp	r1, #1
  41              		.loc 1 48 0
  42 000a 0648     		ldr	r0, .L9
  43              	.LVL1:
  44 000c 18BF     		it	ne
  45 000e 0020     		movne	r0, #0
  46 0010 7047     		bx	lr
  47              	.LVL2:
  48              	.L3:
  49              		.loc 1 43 0
  50 0012 0548     		ldr	r0, .L9+4
  51              	.LVL3:
  52 0014 7047     		bx	lr
  53              	.LVL4:
  54              	.L4:
  55              		.loc 1 45 0
  56 0016 032A     		cmp	r2, #3
  57              		.loc 1 46 0
ARM GAS  C:\Users\ADMINI~1\AppData\Local\Temp\ccuylufO.s 			page 2


  58 0018 9ABF     		itte	ls
  59 001a 044B     		ldrls	r3, .L9+8
  60              	.LVL5:
  61 001c 03EBC200 		addls	r0, r3, r2, lsl #3
  62              	.LVL6:
  63              		.loc 1 48 0
  64 0020 0020     		movhi	r0, #0
  65              		.loc 1 49 0
  66 0022 7047     		bx	lr
  67              	.L10:
  68              		.align	2
  69              	.L9:
  70 0024 00000000 		.word	.LANCHOR0
  71 0028 00000000 		.word	.LANCHOR1
  72 002c 00000000 		.word	.LANCHOR2
  73              		.cfi_endproc
  74              	.LFE118:
  75              		.size	get_descriptor, .-get_descriptor
  76              		.section	.text.usb_event,"ax",%progbits
  77              		.align	2
  78              		.p2align 4,,15
  79              		.thumb
  80              		.thumb_func
  81              		.type	usb_event, %function
  82              	usb_event:
  83              	.LFB119:
  84              		.loc 1 101 0
  85              		.cfi_startproc
  86              		@ args = 0, pretend = 0, frame = 0
  87              		@ frame_needed = 0, uses_anonymous_args = 0
  88              	.LVL7:
  89              		.loc 1 104 0
  90 0000 0229     		cmp	r1, #2
  91 0002 11D1     		bne	.L15
  92              		.loc 1 101 0
  93 0004 38B5     		push	{r3, r4, r5, lr}
  94              		.cfi_def_cfa_offset 16
  95              		.cfi_offset 3, -16
  96              		.cfi_offset 4, -12
  97              		.cfi_offset 5, -8
  98              		.cfi_offset 14, -4
  99 0006 0546     		mov	r5, r0
 100 0008 0C46     		mov	r4, r1
 101              	.LVL8:
 102              	.LBB4:
 103              	.LBB5:
 104              		.loc 1 110 0
 105              	@ 110 "myUSB.c" 1
 106 000a 72B6     		cpsid   i
 107              	@ 0 "" 2
 108              		.loc 1 115 0
 109              		.thumb
 110 000c 0121     		movs	r1, #1
 111              	.LVL9:
 112 000e 074A     		ldr	r2, .L16
 113 0010 FFF7FEFF 		bl	usbInitEndpointI
 114              	.LVL10:
ARM GAS  C:\Users\ADMINI~1\AppData\Local\Temp\ccuylufO.s 			page 3


 115              		.loc 1 116 0
 116 0014 2846     		mov	r0, r5
 117 0016 2146     		mov	r1, r4
 118 0018 054A     		ldr	r2, .L16+4
 119 001a FFF7FEFF 		bl	usbInitEndpointI
 120              	.LVL11:
 121              		.loc 1 119 0
 122 001e 0548     		ldr	r0, .L16+8
 123 0020 FFF7FEFF 		bl	sduConfigureHookI
 124              	.LVL12:
 125              		.loc 1 121 0
 126              	@ 121 "myUSB.c" 1
 127 0024 62B6     		cpsie   i
 128              	@ 0 "" 2
 129              		.thumb
 130 0026 38BD     		pop	{r3, r4, r5, pc}
 131              	.LVL13:
 132              	.L15:
 133              		.cfi_def_cfa_offset 0
 134              		.cfi_restore 3
 135              		.cfi_restore 4
 136              		.cfi_restore 5
 137              		.cfi_restore 14
 138 0028 7047     		bx	lr
 139              	.L17:
 140 002a 00BF     		.align	2
 141              	.L16:
 142 002c 00000000 		.word	.LANCHOR3
 143 0030 00000000 		.word	.LANCHOR4
 144 0034 00000000 		.word	.LANCHOR5
 145              	.LBE5:
 146              	.LBE4:
 147              		.cfi_endproc
 148              	.LFE119:
 149              		.size	usb_event, .-usb_event
 150              		.section	.text.isUsbActive,"ax",%progbits
 151              		.align	2
 152              		.p2align 4,,15
 153              		.global	isUsbActive
 154              		.thumb
 155              		.thumb_func
 156              		.type	isUsbActive, %function
 157              	isUsbActive:
 158              	.LFB120:
 159              		.loc 1 153 0
 160              		.cfi_startproc
 161              		@ args = 0, pretend = 0, frame = 0
 162              		@ frame_needed = 0, uses_anonymous_args = 0
 163              		@ link register save eliminated.
 164              		.loc 1 154 0
 165 0000 054B     		ldr	r3, .L19
 166 0002 D3F85432 		ldr	r3, [r3, #596]
 167 0006 1B68     		ldr	r3, [r3]
 168 0008 1878     		ldrb	r0, [r3]	@ zero_extendqisi2
 169              		.loc 1 155 0
 170 000a A0F10400 		sub	r0, #4
 171 000e B0FA80F0 		clz	r0, r0
ARM GAS  C:\Users\ADMINI~1\AppData\Local\Temp\ccuylufO.s 			page 4


 172 0012 4009     		lsrs	r0, r0, #5
 173 0014 7047     		bx	lr
 174              	.L20:
 175 0016 00BF     		.align	2
 176              	.L19:
 177 0018 00000000 		.word	.LANCHOR5
 178              		.cfi_endproc
 179              	.LFE120:
 180              		.size	isUsbActive, .-isUsbActive
 181              		.section	.text.myUSBinit,"ax",%progbits
 182              		.align	2
 183              		.p2align 4,,15
 184              		.global	myUSBinit
 185              		.thumb
 186              		.thumb_func
 187              		.type	myUSBinit, %function
 188              	myUSBinit:
 189              	.LFB121:
 190              		.loc 1 157 0
 191              		.cfi_startproc
 192              		@ args = 0, pretend = 0, frame = 0
 193              		@ frame_needed = 0, uses_anonymous_args = 0
 194 0000 38B5     		push	{r3, r4, r5, lr}
 195              		.cfi_def_cfa_offset 16
 196              		.cfi_offset 3, -16
 197              		.cfi_offset 4, -12
 198              		.cfi_offset 5, -8
 199              		.cfi_offset 14, -4
 200              		.loc 1 161 0
 201 0002 0E4D     		ldr	r5, .L23
 202              		.loc 1 169 0
 203 0004 0E4C     		ldr	r4, .L23+4
 204              		.loc 1 161 0
 205 0006 2846     		mov	r0, r5
 206 0008 FFF7FEFF 		bl	sduObjectInit
 207              	.LVL14:
 208              		.loc 1 162 0
 209 000c 0D49     		ldr	r1, .L23+8
 210 000e 2846     		mov	r0, r5
 211 0010 FFF7FEFF 		bl	sduStart
 212              	.LVL15:
 213              		.loc 1 169 0
 214 0014 226D     		ldr	r2, [r4, #80]
 215 0016 936B     		ldr	r3, [r2, #56]
 216 0018 23F40023 		bic	r3, r3, #524288
 217 001c 9363     		str	r3, [r2, #56]
 218              		.loc 1 170 0
 219 001e 42F21070 		movw	r0, #10000
 220 0022 FFF7FEFF 		bl	chThdSleep
 221              	.LVL16:
 222              		.loc 1 171 0
 223 0026 2046     		mov	r0, r4
 224 0028 0749     		ldr	r1, .L23+12
 225 002a FFF7FEFF 		bl	usbStart
 226              	.LVL17:
 227              		.loc 1 172 0
 228 002e 226D     		ldr	r2, [r4, #80]
ARM GAS  C:\Users\ADMINI~1\AppData\Local\Temp\ccuylufO.s 			page 5


 229 0030 936B     		ldr	r3, [r2, #56]
 230 0032 43F40023 		orr	r3, r3, #524288
 231 0036 9363     		str	r3, [r2, #56]
 232 0038 38BD     		pop	{r3, r4, r5, pc}
 233              	.L24:
 234 003a 00BF     		.align	2
 235              	.L23:
 236 003c 00000000 		.word	.LANCHOR5
 237 0040 00000000 		.word	USBD1
 238 0044 00000000 		.word	.LANCHOR6
 239 0048 00000000 		.word	.LANCHOR7
 240              		.cfi_endproc
 241              	.LFE121:
 242              		.size	myUSBinit, .-myUSBinit
 243              		.global	serusbcfg
 244              		.global	usbcfg
 245              		.global	SDU1
 246              		.section	.rodata.ep1config,"a",%progbits
 247              		.align	2
 248              		.set	.LANCHOR3,. + 0
 249              		.type	ep1config, %object
 250              		.size	ep1config, 36
 251              	ep1config:
 252 0000 02000000 		.word	2
 253 0004 00000000 		.word	0
 254 0008 00000000 		.word	sduDataTransmitted
 255 000c 00000000 		.word	sduDataReceived
 256 0010 4000     		.short	64
 257 0012 4000     		.short	64
 258 0014 00000000 		.word	ep1instate
 259 0018 00000000 		.word	ep1outstate
 260 001c 0200     		.short	2
 261 001e 0000     		.space	2
 262 0020 00000000 		.word	0
 263              		.section	.bss.ep2instate,"aw",%nobits
 264              		.align	2
 265              		.type	ep2instate, %object
 266              		.size	ep2instate, 20
 267              	ep2instate:
 268 0000 00000000 		.space	20
 268      00000000 
 268      00000000 
 268      00000000 
 268      00000000 
 269              		.section	.bss.SDU1,"aw",%nobits
 270              		.align	2
 271              		.set	.LANCHOR5,. + 0
 272              		.type	SDU1, %object
 273              		.size	SDU1, 600
 274              	SDU1:
 275 0000 00000000 		.space	600
 275      00000000 
 275      00000000 
 275      00000000 
 275      00000000 
 276              		.section	.bss.ep1instate,"aw",%nobits
 277              		.align	2
ARM GAS  C:\Users\ADMINI~1\AppData\Local\Temp\ccuylufO.s 			page 6


 278              		.type	ep1instate, %object
 279              		.size	ep1instate, 20
 280              	ep1instate:
 281 0000 00000000 		.space	20
 281      00000000 
 281      00000000 
 281      00000000 
 281      00000000 
 282              		.section	.rodata.vcom_configuration_descriptor,"a",%progbits
 283              		.align	2
 284              		.set	.LANCHOR1,. + 0
 285              		.type	vcom_configuration_descriptor, %object
 286              		.size	vcom_configuration_descriptor, 8
 287              	vcom_configuration_descriptor:
 288 0000 43000000 		.word	67
 289 0004 00000000 		.word	vcom_configuration_descriptor_data
 290              		.section	.rodata.ep2config,"a",%progbits
 291              		.align	2
 292              		.set	.LANCHOR4,. + 0
 293              		.type	ep2config, %object
 294              		.size	ep2config, 36
 295              	ep2config:
 296 0000 03000000 		.word	3
 297 0004 00000000 		.word	0
 298 0008 00000000 		.word	sduInterruptTransmitted
 299 000c 00000000 		.word	0
 300 0010 1000     		.short	16
 301 0012 0000     		.short	0
 302 0014 00000000 		.word	ep2instate
 303 0018 00000000 		.word	0
 304 001c 0100     		.short	1
 305 001e 0000     		.space	2
 306 0020 00000000 		.word	0
 307              		.section	.rodata.usbcfg,"a",%progbits
 308              		.align	2
 309              		.set	.LANCHOR7,. + 0
 310              		.type	usbcfg, %object
 311              		.size	usbcfg, 16
 312              	usbcfg:
 313 0000 00000000 		.word	usb_event
 314 0004 00000000 		.word	get_descriptor
 315 0008 00000000 		.word	sduRequestsHook
 316 000c 00000000 		.word	0
 317              		.section	.rodata.vcom_configuration_descriptor_data,"a",%progbits
 318              		.align	2
 319              		.type	vcom_configuration_descriptor_data, %object
 320              		.size	vcom_configuration_descriptor_data, 67
 321              	vcom_configuration_descriptor_data:
 322 0000 09       		.byte	9
 323 0001 02       		.byte	2
 324 0002 43       		.byte	67
 325 0003 00       		.byte	0
 326 0004 02       		.byte	2
 327 0005 01       		.byte	1
 328 0006 00       		.byte	0
 329 0007 C0       		.byte	-64
 330 0008 32       		.byte	50
ARM GAS  C:\Users\ADMINI~1\AppData\Local\Temp\ccuylufO.s 			page 7


 331 0009 09       		.byte	9
 332 000a 04       		.byte	4
 333 000b 00       		.byte	0
 334 000c 00       		.byte	0
 335 000d 01       		.byte	1
 336 000e 02       		.byte	2
 337 000f 02       		.byte	2
 338 0010 01       		.byte	1
 339 0011 00       		.byte	0
 340 0012 05       		.byte	5
 341 0013 24       		.byte	36
 342 0014 00       		.byte	0
 343 0015 10       		.byte	16
 344 0016 01       		.byte	1
 345 0017 05       		.byte	5
 346 0018 24       		.byte	36
 347 0019 01       		.byte	1
 348 001a 00       		.byte	0
 349 001b 01       		.byte	1
 350 001c 04       		.byte	4
 351 001d 24       		.byte	36
 352 001e 02       		.byte	2
 353 001f 02       		.byte	2
 354 0020 05       		.byte	5
 355 0021 24       		.byte	36
 356 0022 06       		.byte	6
 357 0023 00       		.byte	0
 358 0024 01       		.byte	1
 359 0025 07       		.byte	7
 360 0026 05       		.byte	5
 361 0027 82       		.byte	-126
 362 0028 03       		.byte	3
 363 0029 08       		.byte	8
 364 002a 00       		.byte	0
 365 002b FF       		.byte	-1
 366 002c 09       		.byte	9
 367 002d 04       		.byte	4
 368 002e 01       		.byte	1
 369 002f 00       		.byte	0
 370 0030 02       		.byte	2
 371 0031 0A       		.byte	10
 372 0032 00       		.byte	0
 373 0033 00       		.byte	0
 374 0034 00       		.byte	0
 375 0035 07       		.byte	7
 376 0036 05       		.byte	5
 377 0037 01       		.byte	1
 378 0038 02       		.byte	2
 379 0039 40       		.byte	64
 380 003a 00       		.byte	0
 381 003b 00       		.byte	0
 382 003c 07       		.byte	7
 383 003d 05       		.byte	5
 384 003e 81       		.byte	-127
 385 003f 02       		.byte	2
 386 0040 40       		.byte	64
 387 0041 00       		.byte	0
ARM GAS  C:\Users\ADMINI~1\AppData\Local\Temp\ccuylufO.s 			page 8


 388 0042 00       		.byte	0
 389              		.section	.rodata.vcom_device_descriptor_data,"a",%progbits
 390              		.align	2
 391              		.type	vcom_device_descriptor_data, %object
 392              		.size	vcom_device_descriptor_data, 18
 393              	vcom_device_descriptor_data:
 394 0000 12       		.byte	18
 395 0001 01       		.byte	1
 396 0002 10       		.byte	16
 397 0003 01       		.byte	1
 398 0004 02       		.byte	2
 399 0005 00       		.byte	0
 400 0006 00       		.byte	0
 401 0007 40       		.byte	64
 402 0008 83       		.byte	-125
 403 0009 04       		.byte	4
 404 000a 40       		.byte	64
 405 000b 57       		.byte	87
 406 000c 00       		.byte	0
 407 000d 02       		.byte	2
 408 000e 01       		.byte	1
 409 000f 02       		.byte	2
 410 0010 03       		.byte	3
 411 0011 01       		.byte	1
 412              		.section	.bss.ep1outstate,"aw",%nobits
 413              		.align	2
 414              		.type	ep1outstate, %object
 415              		.size	ep1outstate, 20
 416              	ep1outstate:
 417 0000 00000000 		.space	20
 417      00000000 
 417      00000000 
 417      00000000 
 417      00000000 
 418              		.section	.rodata.vcom_string0,"a",%progbits
 419              		.align	2
 420              		.type	vcom_string0, %object
 421              		.size	vcom_string0, 4
 422              	vcom_string0:
 423 0000 04       		.byte	4
 424 0001 03       		.byte	3
 425 0002 09       		.byte	9
 426 0003 04       		.byte	4
 427              		.section	.rodata.vcom_string1,"a",%progbits
 428              		.align	2
 429              		.type	vcom_string1, %object
 430              		.size	vcom_string1, 38
 431              	vcom_string1:
 432 0000 26       		.byte	38
 433 0001 03       		.byte	3
 434 0002 53       		.byte	83
 435 0003 00       		.byte	0
 436 0004 54       		.byte	84
 437 0005 00       		.byte	0
 438 0006 4D       		.byte	77
 439 0007 00       		.byte	0
 440 0008 69       		.byte	105
ARM GAS  C:\Users\ADMINI~1\AppData\Local\Temp\ccuylufO.s 			page 9


 441 0009 00       		.byte	0
 442 000a 63       		.byte	99
 443 000b 00       		.byte	0
 444 000c 72       		.byte	114
 445 000d 00       		.byte	0
 446 000e 6F       		.byte	111
 447 000f 00       		.byte	0
 448 0010 65       		.byte	101
 449 0011 00       		.byte	0
 450 0012 6C       		.byte	108
 451 0013 00       		.byte	0
 452 0014 65       		.byte	101
 453 0015 00       		.byte	0
 454 0016 63       		.byte	99
 455 0017 00       		.byte	0
 456 0018 74       		.byte	116
 457 0019 00       		.byte	0
 458 001a 72       		.byte	114
 459 001b 00       		.byte	0
 460 001c 6F       		.byte	111
 461 001d 00       		.byte	0
 462 001e 6E       		.byte	110
 463 001f 00       		.byte	0
 464 0020 69       		.byte	105
 465 0021 00       		.byte	0
 466 0022 63       		.byte	99
 467 0023 00       		.byte	0
 468 0024 73       		.byte	115
 469 0025 00       		.byte	0
 470              		.section	.rodata.vcom_string2,"a",%progbits
 471              		.align	2
 472              		.type	vcom_string2, %object
 473              		.size	vcom_string2, 56
 474              	vcom_string2:
 475 0000 38       		.byte	56
 476 0001 03       		.byte	3
 477 0002 43       		.byte	67
 478 0003 00       		.byte	0
 479 0004 68       		.byte	104
 480 0005 00       		.byte	0
 481 0006 69       		.byte	105
 482 0007 00       		.byte	0
 483 0008 62       		.byte	98
 484 0009 00       		.byte	0
 485 000a 69       		.byte	105
 486 000b 00       		.byte	0
 487 000c 4F       		.byte	79
 488 000d 00       		.byte	0
 489 000e 53       		.byte	83
 490 000f 00       		.byte	0
 491 0010 2F       		.byte	47
 492 0011 00       		.byte	0
 493 0012 52       		.byte	82
 494 0013 00       		.byte	0
 495 0014 54       		.byte	84
 496 0015 00       		.byte	0
 497 0016 20       		.byte	32
ARM GAS  C:\Users\ADMINI~1\AppData\Local\Temp\ccuylufO.s 			page 10


 498 0017 00       		.byte	0
 499 0018 56       		.byte	86
 500 0019 00       		.byte	0
 501 001a 69       		.byte	105
 502 001b 00       		.byte	0
 503 001c 72       		.byte	114
 504 001d 00       		.byte	0
 505 001e 74       		.byte	116
 506 001f 00       		.byte	0
 507 0020 75       		.byte	117
 508 0021 00       		.byte	0
 509 0022 61       		.byte	97
 510 0023 00       		.byte	0
 511 0024 6C       		.byte	108
 512 0025 00       		.byte	0
 513 0026 20       		.byte	32
 514 0027 00       		.byte	0
 515 0028 43       		.byte	67
 516 0029 00       		.byte	0
 517 002a 4F       		.byte	79
 518 002b 00       		.byte	0
 519 002c 4D       		.byte	77
 520 002d 00       		.byte	0
 521 002e 20       		.byte	32
 522 002f 00       		.byte	0
 523 0030 50       		.byte	80
 524 0031 00       		.byte	0
 525 0032 6F       		.byte	111
 526 0033 00       		.byte	0
 527 0034 72       		.byte	114
 528 0035 00       		.byte	0
 529 0036 74       		.byte	116
 530 0037 00       		.byte	0
 531              		.section	.rodata.vcom_string3,"a",%progbits
 532              		.align	2
 533              		.type	vcom_string3, %object
 534              		.size	vcom_string3, 8
 535              	vcom_string3:
 536 0000 08       		.byte	8
 537 0001 03       		.byte	3
 538 0002 32       		.byte	50
 539 0003 00       		.byte	0
 540 0004 36       		.byte	54
 541 0005 00       		.byte	0
 542 0006 36       		.byte	54
 543 0007 00       		.byte	0
 544              		.section	.rodata.vcom_strings,"a",%progbits
 545              		.align	2
 546              		.set	.LANCHOR2,. + 0
 547              		.type	vcom_strings, %object
 548              		.size	vcom_strings, 32
 549              	vcom_strings:
 550 0000 04000000 		.word	4
 551 0004 00000000 		.word	vcom_string0
 552 0008 26000000 		.word	38
 553 000c 00000000 		.word	vcom_string1
 554 0010 38000000 		.word	56
ARM GAS  C:\Users\ADMINI~1\AppData\Local\Temp\ccuylufO.s 			page 11


 555 0014 00000000 		.word	vcom_string2
 556 0018 08000000 		.word	8
 557 001c 00000000 		.word	vcom_string3
 558              		.section	.rodata.serusbcfg,"a",%progbits
 559              		.align	2
 560              		.set	.LANCHOR6,. + 0
 561              		.type	serusbcfg, %object
 562              		.size	serusbcfg, 8
 563              	serusbcfg:
 564 0000 00000000 		.word	USBD1
 565 0004 01       		.byte	1
 566 0005 01       		.byte	1
 567 0006 02       		.byte	2
 568 0007 00       		.space	1
 569              		.section	.rodata.vcom_device_descriptor,"a",%progbits
 570              		.align	2
 571              		.set	.LANCHOR0,. + 0
 572              		.type	vcom_device_descriptor, %object
 573              		.size	vcom_device_descriptor, 8
 574              	vcom_device_descriptor:
 575 0000 12000000 		.word	18
 576 0004 00000000 		.word	vcom_device_descriptor_data
 577              		.text
 578              	.Letext0:
 579              		.file 2 "c:\\program files\\gnu tools arm embedded\\4.9 2015q2\\lib\\gcc\\arm-none-eabi\\4.9.3\\in
 580              		.file 3 "c:\\program files\\gnu tools arm embedded\\4.9 2015q2\\arm-none-eabi\\include\\machine\\_
 581              		.file 4 "c:\\program files\\gnu tools arm embedded\\4.9 2015q2\\arm-none-eabi\\include\\sys\\_stdi
 582              		.file 5 "ChibiOS_2.6.6/os/ports/GCC/ARMCMx/chtypes.h"
 583              		.file 6 "ChibiOS_2.6.6/os/kernel/include/chlists.h"
 584              		.file 7 "ChibiOS_2.6.6/os/kernel/include/chthreads.h"
 585              		.file 8 "ChibiOS_2.6.6/os/ports/GCC/ARMCMx/chcore_v7m.h"
 586              		.file 9 "ChibiOS_2.6.6/os/kernel/include/chmtx.h"
 587              		.file 10 "ChibiOS_2.6.6/os/kernel/include/chevents.h"
 588              		.file 11 "ChibiOS_2.6.6/os/kernel/include/chqueues.h"
 589              		.file 12 "ChibiOS_2.6.6/os/hal/include/usb.h"
 590              		.file 13 "ChibiOS_2.6.6/os/hal/platforms/STM32/OTGv1/usb_lld.h"
 591              		.file 14 "ChibiOS_2.6.6/os/hal/platforms/STM32/OTGv1/stm32_otg.h"
 592              		.file 15 "ChibiOS_2.6.6/os/hal/include/serial_usb.h"
 593              		.file 16 "usbdescriptor.h"
 594              		.file 17 "ChibiOS_2.6.6/os/ports/common/ARMCMx/CMSIS/include/core_cm4.h"
 595              		.section	.debug_info,"",%progbits
 596              	.Ldebug_info0:
 597 0000 66170000 		.4byte	0x1766
 598 0004 0400     		.2byte	0x4
 599 0006 00000000 		.4byte	.Ldebug_abbrev0
 600 000a 04       		.byte	0x4
 601 000b 01       		.uleb128 0x1
 602 000c 19060000 		.4byte	.LASF295
 603 0010 01       		.byte	0x1
 604 0011 77000000 		.4byte	.LASF296
 605 0015 14080000 		.4byte	.LASF297
 606 0019 00000000 		.4byte	.Ldebug_ranges0+0
 607 001d 00000000 		.4byte	0
 608 0021 00000000 		.4byte	.Ldebug_line0
 609 0025 02       		.uleb128 0x2
 610 0026 04       		.byte	0x4
 611 0027 05       		.byte	0x5
ARM GAS  C:\Users\ADMINI~1\AppData\Local\Temp\ccuylufO.s 			page 12


 612 0028 696E7400 		.ascii	"int\000"
 613 002c 03       		.uleb128 0x3
 614 002d 07040000 		.4byte	.LASF2
 615 0031 02       		.byte	0x2
 616 0032 D4       		.byte	0xd4
 617 0033 37000000 		.4byte	0x37
 618 0037 04       		.uleb128 0x4
 619 0038 04       		.byte	0x4
 620 0039 07       		.byte	0x7
 621 003a F5000000 		.4byte	.LASF0
 622 003e 04       		.uleb128 0x4
 623 003f 01       		.byte	0x1
 624 0040 06       		.byte	0x6
 625 0041 80020000 		.4byte	.LASF1
 626 0045 03       		.uleb128 0x3
 627 0046 880B0000 		.4byte	.LASF3
 628 004a 03       		.byte	0x3
 629 004b 1D       		.byte	0x1d
 630 004c 50000000 		.4byte	0x50
 631 0050 04       		.uleb128 0x4
 632 0051 01       		.byte	0x1
 633 0052 08       		.byte	0x8
 634 0053 990A0000 		.4byte	.LASF4
 635 0057 04       		.uleb128 0x4
 636 0058 02       		.byte	0x2
 637 0059 05       		.byte	0x5
 638 005a CC070000 		.4byte	.LASF5
 639 005e 03       		.uleb128 0x3
 640 005f 89030000 		.4byte	.LASF6
 641 0063 03       		.byte	0x3
 642 0064 2B       		.byte	0x2b
 643 0065 69000000 		.4byte	0x69
 644 0069 04       		.uleb128 0x4
 645 006a 02       		.byte	0x2
 646 006b 07       		.byte	0x7
 647 006c F10B0000 		.4byte	.LASF7
 648 0070 03       		.uleb128 0x3
 649 0071 13050000 		.4byte	.LASF8
 650 0075 03       		.byte	0x3
 651 0076 3F       		.byte	0x3f
 652 0077 7B000000 		.4byte	0x7b
 653 007b 04       		.uleb128 0x4
 654 007c 04       		.byte	0x4
 655 007d 05       		.byte	0x5
 656 007e E9080000 		.4byte	.LASF9
 657 0082 03       		.uleb128 0x3
 658 0083 B70A0000 		.4byte	.LASF10
 659 0087 03       		.byte	0x3
 660 0088 41       		.byte	0x41
 661 0089 8D000000 		.4byte	0x8d
 662 008d 04       		.uleb128 0x4
 663 008e 04       		.byte	0x4
 664 008f 07       		.byte	0x7
 665 0090 340A0000 		.4byte	.LASF11
 666 0094 04       		.uleb128 0x4
 667 0095 08       		.byte	0x8
 668 0096 05       		.byte	0x5
ARM GAS  C:\Users\ADMINI~1\AppData\Local\Temp\ccuylufO.s 			page 13


 669 0097 BF050000 		.4byte	.LASF12
 670 009b 03       		.uleb128 0x3
 671 009c 83040000 		.4byte	.LASF13
 672 00a0 03       		.byte	0x3
 673 00a1 5B       		.byte	0x5b
 674 00a2 A6000000 		.4byte	0xa6
 675 00a6 04       		.uleb128 0x4
 676 00a7 08       		.byte	0x8
 677 00a8 07       		.byte	0x7
 678 00a9 3B030000 		.4byte	.LASF14
 679 00ad 03       		.uleb128 0x3
 680 00ae 5E050000 		.4byte	.LASF15
 681 00b2 04       		.byte	0x4
 682 00b3 14       		.byte	0x14
 683 00b4 45000000 		.4byte	0x45
 684 00b8 03       		.uleb128 0x3
 685 00b9 5D080000 		.4byte	.LASF16
 686 00bd 04       		.byte	0x4
 687 00be 1A       		.byte	0x1a
 688 00bf 5E000000 		.4byte	0x5e
 689 00c3 03       		.uleb128 0x3
 690 00c4 770A0000 		.4byte	.LASF17
 691 00c8 04       		.byte	0x4
 692 00c9 1F       		.byte	0x1f
 693 00ca 70000000 		.4byte	0x70
 694 00ce 03       		.uleb128 0x3
 695 00cf 9C020000 		.4byte	.LASF18
 696 00d3 04       		.byte	0x4
 697 00d4 20       		.byte	0x20
 698 00d5 82000000 		.4byte	0x82
 699 00d9 03       		.uleb128 0x3
 700 00da 5F090000 		.4byte	.LASF19
 701 00de 04       		.byte	0x4
 702 00df 26       		.byte	0x26
 703 00e0 9B000000 		.4byte	0x9b
 704 00e4 03       		.uleb128 0x3
 705 00e5 15040000 		.4byte	.LASF20
 706 00e9 05       		.byte	0x5
 707 00ea 2B       		.byte	0x2b
 708 00eb EF000000 		.4byte	0xef
 709 00ef 04       		.uleb128 0x4
 710 00f0 01       		.byte	0x1
 711 00f1 02       		.byte	0x2
 712 00f2 27040000 		.4byte	.LASF21
 713 00f6 03       		.uleb128 0x3
 714 00f7 26080000 		.4byte	.LASF22
 715 00fb 05       		.byte	0x5
 716 00fc 2C       		.byte	0x2c
 717 00fd AD000000 		.4byte	0xad
 718 0101 03       		.uleb128 0x3
 719 0102 3D050000 		.4byte	.LASF23
 720 0106 05       		.byte	0x5
 721 0107 2D       		.byte	0x2d
 722 0108 AD000000 		.4byte	0xad
 723 010c 03       		.uleb128 0x3
 724 010d 1E0A0000 		.4byte	.LASF24
 725 0111 05       		.byte	0x5
ARM GAS  C:\Users\ADMINI~1\AppData\Local\Temp\ccuylufO.s 			page 14


 726 0112 2E       		.byte	0x2e
 727 0113 AD000000 		.4byte	0xad
 728 0117 03       		.uleb128 0x3
 729 0118 C2070000 		.4byte	.LASF25
 730 011c 05       		.byte	0x5
 731 011d 2F       		.byte	0x2f
 732 011e AD000000 		.4byte	0xad
 733 0122 03       		.uleb128 0x3
 734 0123 F3020000 		.4byte	.LASF26
 735 0127 05       		.byte	0x5
 736 0128 30       		.byte	0x30
 737 0129 CE000000 		.4byte	0xce
 738 012d 03       		.uleb128 0x3
 739 012e F6050000 		.4byte	.LASF27
 740 0132 05       		.byte	0x5
 741 0133 31       		.byte	0x31
 742 0134 C3000000 		.4byte	0xc3
 743 0138 03       		.uleb128 0x3
 744 0139 AE020000 		.4byte	.LASF28
 745 013d 05       		.byte	0x5
 746 013e 33       		.byte	0x33
 747 013f CE000000 		.4byte	0xce
 748 0143 03       		.uleb128 0x3
 749 0144 94050000 		.4byte	.LASF29
 750 0148 05       		.byte	0x5
 751 0149 34       		.byte	0x34
 752 014a CE000000 		.4byte	0xce
 753 014e 03       		.uleb128 0x3
 754 014f AE000000 		.4byte	.LASF30
 755 0153 05       		.byte	0x5
 756 0154 35       		.byte	0x35
 757 0155 CE000000 		.4byte	0xce
 758 0159 03       		.uleb128 0x3
 759 015a 36050000 		.4byte	.LASF31
 760 015e 06       		.byte	0x6
 761 015f 2A       		.byte	0x2a
 762 0160 64010000 		.4byte	0x164
 763 0164 05       		.uleb128 0x5
 764 0165 36050000 		.4byte	.LASF31
 765 0169 48       		.byte	0x48
 766 016a 07       		.byte	0x7
 767 016b 5E       		.byte	0x5e
 768 016c 61020000 		.4byte	0x261
 769 0170 06       		.uleb128 0x6
 770 0171 49090000 		.4byte	.LASF32
 771 0175 07       		.byte	0x7
 772 0176 5F       		.byte	0x5f
 773 0177 82020000 		.4byte	0x282
 774 017b 00       		.byte	0
 775 017c 06       		.uleb128 0x6
 776 017d 2E090000 		.4byte	.LASF33
 777 0181 07       		.byte	0x7
 778 0182 61       		.byte	0x61
 779 0183 82020000 		.4byte	0x282
 780 0187 04       		.byte	0x4
 781 0188 06       		.uleb128 0x6
 782 0189 57000000 		.4byte	.LASF34
ARM GAS  C:\Users\ADMINI~1\AppData\Local\Temp\ccuylufO.s 			page 15


 783 018d 07       		.byte	0x7
 784 018e 63       		.byte	0x63
 785 018f 22010000 		.4byte	0x122
 786 0193 08       		.byte	0x8
 787 0194 06       		.uleb128 0x6
 788 0195 68090000 		.4byte	.LASF35
 789 0199 07       		.byte	0x7
 790 019a 64       		.byte	0x64
 791 019b 17040000 		.4byte	0x417
 792 019f 0C       		.byte	0xc
 793 01a0 06       		.uleb128 0x6
 794 01a1 9B030000 		.4byte	.LASF36
 795 01a5 07       		.byte	0x7
 796 01a6 66       		.byte	0x66
 797 01a7 82020000 		.4byte	0x282
 798 01ab 10       		.byte	0x10
 799 01ac 06       		.uleb128 0x6
 800 01ad 4E050000 		.4byte	.LASF37
 801 01b1 07       		.byte	0x7
 802 01b2 67       		.byte	0x67
 803 01b3 82020000 		.4byte	0x282
 804 01b7 14       		.byte	0x14
 805 01b8 06       		.uleb128 0x6
 806 01b9 DB040000 		.4byte	.LASF38
 807 01bd 07       		.byte	0x7
 808 01be 6E       		.byte	0x6e
 809 01bf 32050000 		.4byte	0x532
 810 01c3 18       		.byte	0x18
 811 01c4 06       		.uleb128 0x6
 812 01c5 56050000 		.4byte	.LASF39
 813 01c9 07       		.byte	0x7
 814 01ca 79       		.byte	0x79
 815 01cb 01010000 		.4byte	0x101
 816 01cf 1C       		.byte	0x1c
 817 01d0 06       		.uleb128 0x6
 818 01d1 47070000 		.4byte	.LASF40
 819 01d5 07       		.byte	0x7
 820 01d6 7D       		.byte	0x7d
 821 01d7 F6000000 		.4byte	0xf6
 822 01db 1D       		.byte	0x1d
 823 01dc 06       		.uleb128 0x6
 824 01dd DF0A0000 		.4byte	.LASF41
 825 01e1 07       		.byte	0x7
 826 01e2 82       		.byte	0x82
 827 01e3 0C010000 		.4byte	0x10c
 828 01e7 1E       		.byte	0x1e
 829 01e8 06       		.uleb128 0x6
 830 01e9 260B0000 		.4byte	.LASF42
 831 01ed 07       		.byte	0x7
 832 01ee 88       		.byte	0x88
 833 01ef 17010000 		.4byte	0x117
 834 01f3 1F       		.byte	0x1f
 835 01f4 06       		.uleb128 0x6
 836 01f5 30000000 		.4byte	.LASF43
 837 01f9 07       		.byte	0x7
 838 01fa 8F       		.byte	0x8f
 839 01fb 44040000 		.4byte	0x444
ARM GAS  C:\Users\ADMINI~1\AppData\Local\Temp\ccuylufO.s 			page 16


 840 01ff 20       		.byte	0x20
 841 0200 07       		.uleb128 0x7
 842 0201 705F7500 		.ascii	"p_u\000"
 843 0205 07       		.byte	0x7
 844 0206 B4       		.byte	0xb4
 845 0207 FD040000 		.4byte	0x4fd
 846 020b 24       		.byte	0x24
 847 020c 06       		.uleb128 0x6
 848 020d 21010000 		.4byte	.LASF44
 849 0211 07       		.byte	0x7
 850 0212 B9       		.byte	0xb9
 851 0213 A8020000 		.4byte	0x2a8
 852 0217 28       		.byte	0x28
 853 0218 06       		.uleb128 0x6
 854 0219 DF000000 		.4byte	.LASF45
 855 021d 07       		.byte	0x7
 856 021e BF       		.byte	0xbf
 857 021f 88020000 		.4byte	0x288
 858 0223 2C       		.byte	0x2c
 859 0224 06       		.uleb128 0x6
 860 0225 06080000 		.4byte	.LASF46
 861 0229 07       		.byte	0x7
 862 022a C3       		.byte	0xc3
 863 022b 2D010000 		.4byte	0x12d
 864 022f 34       		.byte	0x34
 865 0230 06       		.uleb128 0x6
 866 0231 620B0000 		.4byte	.LASF47
 867 0235 07       		.byte	0x7
 868 0236 C9       		.byte	0xc9
 869 0237 38010000 		.4byte	0x138
 870 023b 38       		.byte	0x38
 871 023c 06       		.uleb128 0x6
 872 023d 8A050000 		.4byte	.LASF48
 873 0241 07       		.byte	0x7
 874 0242 D0       		.byte	0xd0
 875 0243 44050000 		.4byte	0x544
 876 0247 3C       		.byte	0x3c
 877 0248 06       		.uleb128 0x6
 878 0249 B9080000 		.4byte	.LASF49
 879 024d 07       		.byte	0x7
 880 024e D4       		.byte	0xd4
 881 024f 22010000 		.4byte	0x122
 882 0253 40       		.byte	0x40
 883 0254 06       		.uleb128 0x6
 884 0255 7C050000 		.4byte	.LASF50
 885 0259 07       		.byte	0x7
 886 025a DA       		.byte	0xda
 887 025b BE020000 		.4byte	0x2be
 888 025f 44       		.byte	0x44
 889 0260 00       		.byte	0
 890 0261 08       		.uleb128 0x8
 891 0262 08       		.byte	0x8
 892 0263 06       		.byte	0x6
 893 0264 61       		.byte	0x61
 894 0265 82020000 		.4byte	0x282
 895 0269 06       		.uleb128 0x6
 896 026a 49090000 		.4byte	.LASF32
ARM GAS  C:\Users\ADMINI~1\AppData\Local\Temp\ccuylufO.s 			page 17


 897 026e 06       		.byte	0x6
 898 026f 62       		.byte	0x62
 899 0270 82020000 		.4byte	0x282
 900 0274 00       		.byte	0
 901 0275 06       		.uleb128 0x6
 902 0276 2E090000 		.4byte	.LASF33
 903 027a 06       		.byte	0x6
 904 027b 64       		.byte	0x64
 905 027c 82020000 		.4byte	0x282
 906 0280 04       		.byte	0x4
 907 0281 00       		.byte	0
 908 0282 09       		.uleb128 0x9
 909 0283 04       		.byte	0x4
 910 0284 59010000 		.4byte	0x159
 911 0288 03       		.uleb128 0x3
 912 0289 E70C0000 		.4byte	.LASF51
 913 028d 06       		.byte	0x6
 914 028e 66       		.byte	0x66
 915 028f 61020000 		.4byte	0x261
 916 0293 08       		.uleb128 0x8
 917 0294 04       		.byte	0x4
 918 0295 06       		.byte	0x6
 919 0296 6B       		.byte	0x6b
 920 0297 A8020000 		.4byte	0x2a8
 921 029b 06       		.uleb128 0x6
 922 029c 49090000 		.4byte	.LASF32
 923 02a0 06       		.byte	0x6
 924 02a1 6D       		.byte	0x6d
 925 02a2 82020000 		.4byte	0x282
 926 02a6 00       		.byte	0
 927 02a7 00       		.byte	0
 928 02a8 03       		.uleb128 0x3
 929 02a9 00000000 		.4byte	.LASF52
 930 02ad 06       		.byte	0x6
 931 02ae 70       		.byte	0x70
 932 02af 93020000 		.4byte	0x293
 933 02b3 03       		.uleb128 0x3
 934 02b4 47000000 		.4byte	.LASF53
 935 02b8 08       		.byte	0x8
 936 02b9 E5       		.byte	0xe5
 937 02ba BE020000 		.4byte	0x2be
 938 02be 0A       		.uleb128 0xa
 939 02bf 04       		.byte	0x4
 940 02c0 03       		.uleb128 0x3
 941 02c1 040C0000 		.4byte	.LASF54
 942 02c5 08       		.byte	0x8
 943 02c6 EB       		.byte	0xeb
 944 02c7 D9000000 		.4byte	0xd9
 945 02cb 0B       		.uleb128 0xb
 946 02cc 88080000 		.4byte	.LASF55
 947 02d0 64       		.byte	0x64
 948 02d1 08       		.byte	0x8
 949 02d2 0C01     		.2byte	0x10c
 950 02d4 17040000 		.4byte	0x417
 951 02d8 0C       		.uleb128 0xc
 952 02d9 73313600 		.ascii	"s16\000"
 953 02dd 08       		.byte	0x8
ARM GAS  C:\Users\ADMINI~1\AppData\Local\Temp\ccuylufO.s 			page 18


 954 02de 0E01     		.2byte	0x10e
 955 02e0 B3020000 		.4byte	0x2b3
 956 02e4 00       		.byte	0
 957 02e5 0C       		.uleb128 0xc
 958 02e6 73313700 		.ascii	"s17\000"
 959 02ea 08       		.byte	0x8
 960 02eb 0F01     		.2byte	0x10f
 961 02ed B3020000 		.4byte	0x2b3
 962 02f1 04       		.byte	0x4
 963 02f2 0C       		.uleb128 0xc
 964 02f3 73313800 		.ascii	"s18\000"
 965 02f7 08       		.byte	0x8
 966 02f8 1001     		.2byte	0x110
 967 02fa B3020000 		.4byte	0x2b3
 968 02fe 08       		.byte	0x8
 969 02ff 0C       		.uleb128 0xc
 970 0300 73313900 		.ascii	"s19\000"
 971 0304 08       		.byte	0x8
 972 0305 1101     		.2byte	0x111
 973 0307 B3020000 		.4byte	0x2b3
 974 030b 0C       		.byte	0xc
 975 030c 0C       		.uleb128 0xc
 976 030d 73323000 		.ascii	"s20\000"
 977 0311 08       		.byte	0x8
 978 0312 1201     		.2byte	0x112
 979 0314 B3020000 		.4byte	0x2b3
 980 0318 10       		.byte	0x10
 981 0319 0C       		.uleb128 0xc
 982 031a 73323100 		.ascii	"s21\000"
 983 031e 08       		.byte	0x8
 984 031f 1301     		.2byte	0x113
 985 0321 B3020000 		.4byte	0x2b3
 986 0325 14       		.byte	0x14
 987 0326 0C       		.uleb128 0xc
 988 0327 73323200 		.ascii	"s22\000"
 989 032b 08       		.byte	0x8
 990 032c 1401     		.2byte	0x114
 991 032e B3020000 		.4byte	0x2b3
 992 0332 18       		.byte	0x18
 993 0333 0C       		.uleb128 0xc
 994 0334 73323300 		.ascii	"s23\000"
 995 0338 08       		.byte	0x8
 996 0339 1501     		.2byte	0x115
 997 033b B3020000 		.4byte	0x2b3
 998 033f 1C       		.byte	0x1c
 999 0340 0C       		.uleb128 0xc
 1000 0341 73323400 		.ascii	"s24\000"
 1001 0345 08       		.byte	0x8
 1002 0346 1601     		.2byte	0x116
 1003 0348 B3020000 		.4byte	0x2b3
 1004 034c 20       		.byte	0x20
 1005 034d 0C       		.uleb128 0xc
 1006 034e 73323500 		.ascii	"s25\000"
 1007 0352 08       		.byte	0x8
 1008 0353 1701     		.2byte	0x117
 1009 0355 B3020000 		.4byte	0x2b3
 1010 0359 24       		.byte	0x24
ARM GAS  C:\Users\ADMINI~1\AppData\Local\Temp\ccuylufO.s 			page 19


 1011 035a 0C       		.uleb128 0xc
 1012 035b 73323600 		.ascii	"s26\000"
 1013 035f 08       		.byte	0x8
 1014 0360 1801     		.2byte	0x118
 1015 0362 B3020000 		.4byte	0x2b3
 1016 0366 28       		.byte	0x28
 1017 0367 0C       		.uleb128 0xc
 1018 0368 73323700 		.ascii	"s27\000"
 1019 036c 08       		.byte	0x8
 1020 036d 1901     		.2byte	0x119
 1021 036f B3020000 		.4byte	0x2b3
 1022 0373 2C       		.byte	0x2c
 1023 0374 0C       		.uleb128 0xc
 1024 0375 73323800 		.ascii	"s28\000"
 1025 0379 08       		.byte	0x8
 1026 037a 1A01     		.2byte	0x11a
 1027 037c B3020000 		.4byte	0x2b3
 1028 0380 30       		.byte	0x30
 1029 0381 0C       		.uleb128 0xc
 1030 0382 73323900 		.ascii	"s29\000"
 1031 0386 08       		.byte	0x8
 1032 0387 1B01     		.2byte	0x11b
 1033 0389 B3020000 		.4byte	0x2b3
 1034 038d 34       		.byte	0x34
 1035 038e 0C       		.uleb128 0xc
 1036 038f 73333000 		.ascii	"s30\000"
 1037 0393 08       		.byte	0x8
 1038 0394 1C01     		.2byte	0x11c
 1039 0396 B3020000 		.4byte	0x2b3
 1040 039a 38       		.byte	0x38
 1041 039b 0C       		.uleb128 0xc
 1042 039c 73333100 		.ascii	"s31\000"
 1043 03a0 08       		.byte	0x8
 1044 03a1 1D01     		.2byte	0x11d
 1045 03a3 B3020000 		.4byte	0x2b3
 1046 03a7 3C       		.byte	0x3c
 1047 03a8 0C       		.uleb128 0xc
 1048 03a9 723400   		.ascii	"r4\000"
 1049 03ac 08       		.byte	0x8
 1050 03ad 1F01     		.2byte	0x11f
 1051 03af B3020000 		.4byte	0x2b3
 1052 03b3 40       		.byte	0x40
 1053 03b4 0C       		.uleb128 0xc
 1054 03b5 723500   		.ascii	"r5\000"
 1055 03b8 08       		.byte	0x8
 1056 03b9 2001     		.2byte	0x120
 1057 03bb B3020000 		.4byte	0x2b3
 1058 03bf 44       		.byte	0x44
 1059 03c0 0C       		.uleb128 0xc
 1060 03c1 723600   		.ascii	"r6\000"
 1061 03c4 08       		.byte	0x8
 1062 03c5 2101     		.2byte	0x121
 1063 03c7 B3020000 		.4byte	0x2b3
 1064 03cb 48       		.byte	0x48
 1065 03cc 0C       		.uleb128 0xc
 1066 03cd 723700   		.ascii	"r7\000"
 1067 03d0 08       		.byte	0x8
ARM GAS  C:\Users\ADMINI~1\AppData\Local\Temp\ccuylufO.s 			page 20


 1068 03d1 2201     		.2byte	0x122
 1069 03d3 B3020000 		.4byte	0x2b3
 1070 03d7 4C       		.byte	0x4c
 1071 03d8 0C       		.uleb128 0xc
 1072 03d9 723800   		.ascii	"r8\000"
 1073 03dc 08       		.byte	0x8
 1074 03dd 2301     		.2byte	0x123
 1075 03df B3020000 		.4byte	0x2b3
 1076 03e3 50       		.byte	0x50
 1077 03e4 0C       		.uleb128 0xc
 1078 03e5 723900   		.ascii	"r9\000"
 1079 03e8 08       		.byte	0x8
 1080 03e9 2401     		.2byte	0x124
 1081 03eb B3020000 		.4byte	0x2b3
 1082 03ef 54       		.byte	0x54
 1083 03f0 0C       		.uleb128 0xc
 1084 03f1 72313000 		.ascii	"r10\000"
 1085 03f5 08       		.byte	0x8
 1086 03f6 2501     		.2byte	0x125
 1087 03f8 B3020000 		.4byte	0x2b3
 1088 03fc 58       		.byte	0x58
 1089 03fd 0C       		.uleb128 0xc
 1090 03fe 72313100 		.ascii	"r11\000"
 1091 0402 08       		.byte	0x8
 1092 0403 2601     		.2byte	0x126
 1093 0405 B3020000 		.4byte	0x2b3
 1094 0409 5C       		.byte	0x5c
 1095 040a 0C       		.uleb128 0xc
 1096 040b 6C7200   		.ascii	"lr\000"
 1097 040e 08       		.byte	0x8
 1098 040f 2701     		.2byte	0x127
 1099 0411 B3020000 		.4byte	0x2b3
 1100 0415 60       		.byte	0x60
 1101 0416 00       		.byte	0
 1102 0417 0B       		.uleb128 0xb
 1103 0418 06060000 		.4byte	.LASF56
 1104 041c 04       		.byte	0x4
 1105 041d 08       		.byte	0x8
 1106 041e 3101     		.2byte	0x131
 1107 0420 32040000 		.4byte	0x432
 1108 0424 0C       		.uleb128 0xc
 1109 0425 72313300 		.ascii	"r13\000"
 1110 0429 08       		.byte	0x8
 1111 042a 3201     		.2byte	0x132
 1112 042c 32040000 		.4byte	0x432
 1113 0430 00       		.byte	0
 1114 0431 00       		.byte	0
 1115 0432 09       		.uleb128 0x9
 1116 0433 04       		.byte	0x4
 1117 0434 CB020000 		.4byte	0x2cb
 1118 0438 0D       		.uleb128 0xd
 1119 0439 CE000000 		.4byte	0xce
 1120 043d 04       		.uleb128 0x4
 1121 043e 04       		.byte	0x4
 1122 043f 07       		.byte	0x7
 1123 0440 150A0000 		.4byte	.LASF57
 1124 0444 0D       		.uleb128 0xd
ARM GAS  C:\Users\ADMINI~1\AppData\Local\Temp\ccuylufO.s 			page 21


 1125 0445 4E010000 		.4byte	0x14e
 1126 0449 05       		.uleb128 0x5
 1127 044a BE040000 		.4byte	.LASF58
 1128 044e 10       		.byte	0x10
 1129 044f 09       		.byte	0x9
 1130 0450 2C       		.byte	0x2c
 1131 0451 7A040000 		.4byte	0x47a
 1132 0455 06       		.uleb128 0x6
 1133 0456 E1080000 		.4byte	.LASF59
 1134 045a 09       		.byte	0x9
 1135 045b 2D       		.byte	0x2d
 1136 045c 88020000 		.4byte	0x288
 1137 0460 00       		.byte	0
 1138 0461 06       		.uleb128 0x6
 1139 0462 C6000000 		.4byte	.LASF60
 1140 0466 09       		.byte	0x9
 1141 0467 2F       		.byte	0x2f
 1142 0468 82020000 		.4byte	0x282
 1143 046c 08       		.byte	0x8
 1144 046d 06       		.uleb128 0x6
 1145 046e B60B0000 		.4byte	.LASF61
 1146 0472 09       		.byte	0x9
 1147 0473 31       		.byte	0x31
 1148 0474 7A040000 		.4byte	0x47a
 1149 0478 0C       		.byte	0xc
 1150 0479 00       		.byte	0
 1151 047a 09       		.uleb128 0x9
 1152 047b 04       		.byte	0x4
 1153 047c 49040000 		.4byte	0x449
 1154 0480 03       		.uleb128 0x3
 1155 0481 BE040000 		.4byte	.LASF58
 1156 0485 09       		.byte	0x9
 1157 0486 33       		.byte	0x33
 1158 0487 49040000 		.4byte	0x449
 1159 048b 03       		.uleb128 0x3
 1160 048c 260A0000 		.4byte	.LASF62
 1161 0490 0A       		.byte	0xa
 1162 0491 2C       		.byte	0x2c
 1163 0492 96040000 		.4byte	0x496
 1164 0496 05       		.uleb128 0x5
 1165 0497 260A0000 		.4byte	.LASF62
 1166 049b 10       		.byte	0x10
 1167 049c 0A       		.byte	0xa
 1168 049d 31       		.byte	0x31
 1169 049e D3040000 		.4byte	0x4d3
 1170 04a2 06       		.uleb128 0x6
 1171 04a3 FE070000 		.4byte	.LASF63
 1172 04a7 0A       		.byte	0xa
 1173 04a8 32       		.byte	0x32
 1174 04a9 D3040000 		.4byte	0x4d3
 1175 04ad 00       		.byte	0
 1176 04ae 06       		.uleb128 0x6
 1177 04af 4F0C0000 		.4byte	.LASF64
 1178 04b3 0A       		.byte	0xa
 1179 04b4 35       		.byte	0x35
 1180 04b5 82020000 		.4byte	0x282
 1181 04b9 04       		.byte	0x4
ARM GAS  C:\Users\ADMINI~1\AppData\Local\Temp\ccuylufO.s 			page 22


 1182 04ba 06       		.uleb128 0x6
 1183 04bb 55010000 		.4byte	.LASF65
 1184 04bf 0A       		.byte	0xa
 1185 04c0 37       		.byte	0x37
 1186 04c1 38010000 		.4byte	0x138
 1187 04c5 08       		.byte	0x8
 1188 04c6 06       		.uleb128 0x6
 1189 04c7 CC0C0000 		.4byte	.LASF66
 1190 04cb 0A       		.byte	0xa
 1191 04cc 3A       		.byte	0x3a
 1192 04cd 43010000 		.4byte	0x143
 1193 04d1 0C       		.byte	0xc
 1194 04d2 00       		.byte	0
 1195 04d3 09       		.uleb128 0x9
 1196 04d4 04       		.byte	0x4
 1197 04d5 8B040000 		.4byte	0x48b
 1198 04d9 05       		.uleb128 0x5
 1199 04da FB030000 		.4byte	.LASF67
 1200 04de 04       		.byte	0x4
 1201 04df 0A       		.byte	0xa
 1202 04e0 41       		.byte	0x41
 1203 04e1 F2040000 		.4byte	0x4f2
 1204 04e5 06       		.uleb128 0x6
 1205 04e6 0C080000 		.4byte	.LASF68
 1206 04ea 0A       		.byte	0xa
 1207 04eb 42       		.byte	0x42
 1208 04ec D3040000 		.4byte	0x4d3
 1209 04f0 00       		.byte	0
 1210 04f1 00       		.byte	0
 1211 04f2 03       		.uleb128 0x3
 1212 04f3 FB030000 		.4byte	.LASF67
 1213 04f7 0A       		.byte	0xa
 1214 04f8 45       		.byte	0x45
 1215 04f9 D9040000 		.4byte	0x4d9
 1216 04fd 0E       		.uleb128 0xe
 1217 04fe 04       		.byte	0x4
 1218 04ff 07       		.byte	0x7
 1219 0500 96       		.byte	0x96
 1220 0501 32050000 		.4byte	0x532
 1221 0505 0F       		.uleb128 0xf
 1222 0506 0E040000 		.4byte	.LASF69
 1223 050a 07       		.byte	0x7
 1224 050b 9D       		.byte	0x9d
 1225 050c 2D010000 		.4byte	0x12d
 1226 0510 0F       		.uleb128 0xf
 1227 0511 D50C0000 		.4byte	.LASF70
 1228 0515 07       		.byte	0x7
 1229 0516 A4       		.byte	0xa4
 1230 0517 2D010000 		.4byte	0x12d
 1231 051b 0F       		.uleb128 0xf
 1232 051c 86010000 		.4byte	.LASF71
 1233 0520 07       		.byte	0x7
 1234 0521 AB       		.byte	0xab
 1235 0522 BE020000 		.4byte	0x2be
 1236 0526 0F       		.uleb128 0xf
 1237 0527 BE010000 		.4byte	.LASF72
 1238 052b 07       		.byte	0x7
ARM GAS  C:\Users\ADMINI~1\AppData\Local\Temp\ccuylufO.s 			page 23


 1239 052c B2       		.byte	0xb2
 1240 052d 38010000 		.4byte	0x138
 1241 0531 00       		.byte	0
 1242 0532 09       		.uleb128 0x9
 1243 0533 04       		.byte	0x4
 1244 0534 38050000 		.4byte	0x538
 1245 0538 10       		.uleb128 0x10
 1246 0539 3D050000 		.4byte	0x53d
 1247 053d 04       		.uleb128 0x4
 1248 053e 01       		.byte	0x1
 1249 053f 08       		.byte	0x8
 1250 0540 0E050000 		.4byte	.LASF73
 1251 0544 09       		.uleb128 0x9
 1252 0545 04       		.byte	0x4
 1253 0546 80040000 		.4byte	0x480
 1254 054a 09       		.uleb128 0x9
 1255 054b 04       		.byte	0x4
 1256 054c 50050000 		.4byte	0x550
 1257 0550 11       		.uleb128 0x11
 1258 0551 2D010000 		.4byte	0x12d
 1259 0555 5F050000 		.4byte	0x55f
 1260 0559 12       		.uleb128 0x12
 1261 055a BE020000 		.4byte	0x2be
 1262 055e 00       		.byte	0
 1263 055f 03       		.uleb128 0x3
 1264 0560 36080000 		.4byte	.LASF74
 1265 0564 0B       		.byte	0xb
 1266 0565 37       		.byte	0x37
 1267 0566 6A050000 		.4byte	0x56a
 1268 056a 05       		.uleb128 0x5
 1269 056b 36080000 		.4byte	.LASF74
 1270 056f 24       		.byte	0x24
 1271 0570 0B       		.byte	0xb
 1272 0571 45       		.byte	0x45
 1273 0572 D7050000 		.4byte	0x5d7
 1274 0576 06       		.uleb128 0x6
 1275 0577 AC030000 		.4byte	.LASF75
 1276 057b 0B       		.byte	0xb
 1277 057c 46       		.byte	0x46
 1278 057d 88020000 		.4byte	0x288
 1279 0581 00       		.byte	0
 1280 0582 06       		.uleb128 0x6
 1281 0583 F8090000 		.4byte	.LASF76
 1282 0587 0B       		.byte	0xb
 1283 0588 47       		.byte	0x47
 1284 0589 2C000000 		.4byte	0x2c
 1285 058d 08       		.byte	0x8
 1286 058e 06       		.uleb128 0x6
 1287 058f F40C0000 		.4byte	.LASF77
 1288 0593 0B       		.byte	0xb
 1289 0594 48       		.byte	0x48
 1290 0595 F9050000 		.4byte	0x5f9
 1291 0599 0C       		.byte	0xc
 1292 059a 06       		.uleb128 0x6
 1293 059b 070A0000 		.4byte	.LASF78
 1294 059f 0B       		.byte	0xb
 1295 05a0 49       		.byte	0x49
ARM GAS  C:\Users\ADMINI~1\AppData\Local\Temp\ccuylufO.s 			page 24


 1296 05a1 F9050000 		.4byte	0x5f9
 1297 05a5 10       		.byte	0x10
 1298 05a6 06       		.uleb128 0x6
 1299 05a7 26050000 		.4byte	.LASF79
 1300 05ab 0B       		.byte	0xb
 1301 05ac 4B       		.byte	0x4b
 1302 05ad F9050000 		.4byte	0x5f9
 1303 05b1 14       		.byte	0x14
 1304 05b2 06       		.uleb128 0x6
 1305 05b3 2B010000 		.4byte	.LASF80
 1306 05b7 0B       		.byte	0xb
 1307 05b8 4C       		.byte	0x4c
 1308 05b9 F9050000 		.4byte	0x5f9
 1309 05bd 18       		.byte	0x18
 1310 05be 06       		.uleb128 0x6
 1311 05bf A9090000 		.4byte	.LASF81
 1312 05c3 0B       		.byte	0xb
 1313 05c4 4D       		.byte	0x4d
 1314 05c5 D7050000 		.4byte	0x5d7
 1315 05c9 1C       		.byte	0x1c
 1316 05ca 06       		.uleb128 0x6
 1317 05cb C9080000 		.4byte	.LASF82
 1318 05cf 0B       		.byte	0xb
 1319 05d0 4E       		.byte	0x4e
 1320 05d1 BE020000 		.4byte	0x2be
 1321 05d5 20       		.byte	0x20
 1322 05d6 00       		.byte	0
 1323 05d7 03       		.uleb128 0x3
 1324 05d8 4B010000 		.4byte	.LASF83
 1325 05dc 0B       		.byte	0xb
 1326 05dd 3A       		.byte	0x3a
 1327 05de E2050000 		.4byte	0x5e2
 1328 05e2 09       		.uleb128 0x9
 1329 05e3 04       		.byte	0x4
 1330 05e4 E8050000 		.4byte	0x5e8
 1331 05e8 13       		.uleb128 0x13
 1332 05e9 F3050000 		.4byte	0x5f3
 1333 05ed 12       		.uleb128 0x12
 1334 05ee F3050000 		.4byte	0x5f3
 1335 05f2 00       		.byte	0
 1336 05f3 09       		.uleb128 0x9
 1337 05f4 04       		.byte	0x4
 1338 05f5 5F050000 		.4byte	0x55f
 1339 05f9 09       		.uleb128 0x9
 1340 05fa 04       		.byte	0x4
 1341 05fb AD000000 		.4byte	0xad
 1342 05ff 03       		.uleb128 0x3
 1343 0600 D0040000 		.4byte	.LASF84
 1344 0604 0B       		.byte	0xb
 1345 0605 82       		.byte	0x82
 1346 0606 5F050000 		.4byte	0x55f
 1347 060a 03       		.uleb128 0x3
 1348 060b C4040000 		.4byte	.LASF85
 1349 060f 0B       		.byte	0xb
 1350 0610 F5       		.byte	0xf5
 1351 0611 5F050000 		.4byte	0x55f
 1352 0615 11       		.uleb128 0x11
ARM GAS  C:\Users\ADMINI~1\AppData\Local\Temp\ccuylufO.s 			page 25


 1353 0616 2C000000 		.4byte	0x2c
 1354 061a 2E060000 		.4byte	0x62e
 1355 061e 12       		.uleb128 0x12
 1356 061f BE020000 		.4byte	0x2be
 1357 0623 12       		.uleb128 0x12
 1358 0624 2E060000 		.4byte	0x62e
 1359 0628 12       		.uleb128 0x12
 1360 0629 2C000000 		.4byte	0x2c
 1361 062d 00       		.byte	0
 1362 062e 09       		.uleb128 0x9
 1363 062f 04       		.byte	0x4
 1364 0630 34060000 		.4byte	0x634
 1365 0634 10       		.uleb128 0x10
 1366 0635 AD000000 		.4byte	0xad
 1367 0639 09       		.uleb128 0x9
 1368 063a 04       		.byte	0x4
 1369 063b 15060000 		.4byte	0x615
 1370 063f 11       		.uleb128 0x11
 1371 0640 2C000000 		.4byte	0x2c
 1372 0644 58060000 		.4byte	0x658
 1373 0648 12       		.uleb128 0x12
 1374 0649 BE020000 		.4byte	0x2be
 1375 064d 12       		.uleb128 0x12
 1376 064e F9050000 		.4byte	0x5f9
 1377 0652 12       		.uleb128 0x12
 1378 0653 2C000000 		.4byte	0x2c
 1379 0657 00       		.byte	0
 1380 0658 09       		.uleb128 0x9
 1381 0659 04       		.byte	0x4
 1382 065a 3F060000 		.4byte	0x63f
 1383 065e 11       		.uleb128 0x11
 1384 065f 2D010000 		.4byte	0x12d
 1385 0663 72060000 		.4byte	0x672
 1386 0667 12       		.uleb128 0x12
 1387 0668 BE020000 		.4byte	0x2be
 1388 066c 12       		.uleb128 0x12
 1389 066d AD000000 		.4byte	0xad
 1390 0671 00       		.byte	0
 1391 0672 09       		.uleb128 0x9
 1392 0673 04       		.byte	0x4
 1393 0674 5E060000 		.4byte	0x65e
 1394 0678 14       		.uleb128 0x14
 1395 0679 CE000000 		.4byte	0xce
 1396 067d 88060000 		.4byte	0x688
 1397 0681 15       		.uleb128 0x15
 1398 0682 3D040000 		.4byte	0x43d
 1399 0686 0E       		.byte	0xe
 1400 0687 00       		.byte	0
 1401 0688 0D       		.uleb128 0xd
 1402 0689 C3000000 		.4byte	0xc3
 1403 068d 11       		.uleb128 0x11
 1404 068e 2D010000 		.4byte	0x12d
 1405 0692 A6060000 		.4byte	0x6a6
 1406 0696 12       		.uleb128 0x12
 1407 0697 BE020000 		.4byte	0x2be
 1408 069b 12       		.uleb128 0x12
 1409 069c AD000000 		.4byte	0xad
ARM GAS  C:\Users\ADMINI~1\AppData\Local\Temp\ccuylufO.s 			page 26


 1410 06a0 12       		.uleb128 0x12
 1411 06a1 4E010000 		.4byte	0x14e
 1412 06a5 00       		.byte	0
 1413 06a6 09       		.uleb128 0x9
 1414 06a7 04       		.byte	0x4
 1415 06a8 8D060000 		.4byte	0x68d
 1416 06ac 11       		.uleb128 0x11
 1417 06ad 2D010000 		.4byte	0x12d
 1418 06b1 C0060000 		.4byte	0x6c0
 1419 06b5 12       		.uleb128 0x12
 1420 06b6 BE020000 		.4byte	0x2be
 1421 06ba 12       		.uleb128 0x12
 1422 06bb 4E010000 		.4byte	0x14e
 1423 06bf 00       		.byte	0
 1424 06c0 09       		.uleb128 0x9
 1425 06c1 04       		.byte	0x4
 1426 06c2 AC060000 		.4byte	0x6ac
 1427 06c6 11       		.uleb128 0x11
 1428 06c7 2C000000 		.4byte	0x2c
 1429 06cb E4060000 		.4byte	0x6e4
 1430 06cf 12       		.uleb128 0x12
 1431 06d0 BE020000 		.4byte	0x2be
 1432 06d4 12       		.uleb128 0x12
 1433 06d5 2E060000 		.4byte	0x62e
 1434 06d9 12       		.uleb128 0x12
 1435 06da 2C000000 		.4byte	0x2c
 1436 06de 12       		.uleb128 0x12
 1437 06df 4E010000 		.4byte	0x14e
 1438 06e3 00       		.byte	0
 1439 06e4 09       		.uleb128 0x9
 1440 06e5 04       		.byte	0x4
 1441 06e6 C6060000 		.4byte	0x6c6
 1442 06ea 11       		.uleb128 0x11
 1443 06eb 2C000000 		.4byte	0x2c
 1444 06ef 08070000 		.4byte	0x708
 1445 06f3 12       		.uleb128 0x12
 1446 06f4 BE020000 		.4byte	0x2be
 1447 06f8 12       		.uleb128 0x12
 1448 06f9 F9050000 		.4byte	0x5f9
 1449 06fd 12       		.uleb128 0x12
 1450 06fe 2C000000 		.4byte	0x2c
 1451 0702 12       		.uleb128 0x12
 1452 0703 4E010000 		.4byte	0x14e
 1453 0707 00       		.byte	0
 1454 0708 09       		.uleb128 0x9
 1455 0709 04       		.byte	0x4
 1456 070a EA060000 		.4byte	0x6ea
 1457 070e 14       		.uleb128 0x14
 1458 070f AD000000 		.4byte	0xad
 1459 0713 1E070000 		.4byte	0x71e
 1460 0717 15       		.uleb128 0x15
 1461 0718 3D040000 		.4byte	0x43d
 1462 071c 07       		.byte	0x7
 1463 071d 00       		.byte	0
 1464 071e 03       		.uleb128 0x3
 1465 071f DE0B0000 		.4byte	.LASF86
 1466 0723 0C       		.byte	0xc
ARM GAS  C:\Users\ADMINI~1\AppData\Local\Temp\ccuylufO.s 			page 27


 1467 0724 E9       		.byte	0xe9
 1468 0725 29070000 		.4byte	0x729
 1469 0729 16       		.uleb128 0x16
 1470 072a DE0B0000 		.4byte	.LASF86
 1471 072e 8002     		.2byte	0x280
 1472 0730 0D       		.byte	0xd
 1473 0731 7201     		.2byte	0x172
 1474 0733 56080000 		.4byte	0x856
 1475 0737 17       		.uleb128 0x17
 1476 0738 540B0000 		.4byte	.LASF87
 1477 073c 0D       		.byte	0xd
 1478 073d 7601     		.2byte	0x176
 1479 073f 88080000 		.4byte	0x888
 1480 0743 00       		.byte	0
 1481 0744 17       		.uleb128 0x17
 1482 0745 B2080000 		.4byte	.LASF88
 1483 0749 0D       		.byte	0xd
 1484 074a 7A01     		.2byte	0x17a
 1485 074c A3110000 		.4byte	0x11a3
 1486 0750 04       		.byte	0x4
 1487 0751 17       		.uleb128 0x17
 1488 0752 60030000 		.4byte	.LASF89
 1489 0756 0D       		.byte	0xd
 1490 0757 7E01     		.2byte	0x17e
 1491 0759 B8000000 		.4byte	0xb8
 1492 075d 08       		.byte	0x8
 1493 075e 17       		.uleb128 0x17
 1494 075f 7F030000 		.4byte	.LASF90
 1495 0763 0D       		.byte	0xd
 1496 0764 8201     		.2byte	0x182
 1497 0766 B8000000 		.4byte	0xb8
 1498 076a 0A       		.byte	0xa
 1499 076b 0C       		.uleb128 0xc
 1500 076c 65706300 		.ascii	"epc\000"
 1501 0770 0D       		.byte	0xd
 1502 0771 8601     		.2byte	0x186
 1503 0773 AE110000 		.4byte	0x11ae
 1504 0777 0C       		.byte	0xc
 1505 0778 17       		.uleb128 0x17
 1506 0779 6C070000 		.4byte	.LASF91
 1507 077d 0D       		.byte	0xd
 1508 077e 8D01     		.2byte	0x18d
 1509 0780 C9110000 		.4byte	0x11c9
 1510 0784 1C       		.byte	0x1c
 1511 0785 17       		.uleb128 0x17
 1512 0786 D6080000 		.4byte	.LASF92
 1513 078a 0D       		.byte	0xd
 1514 078b 9401     		.2byte	0x194
 1515 078d C9110000 		.4byte	0x11c9
 1516 0791 28       		.byte	0x28
 1517 0792 17       		.uleb128 0x17
 1518 0793 43080000 		.4byte	.LASF93
 1519 0797 0D       		.byte	0xd
 1520 0798 9801     		.2byte	0x198
 1521 079a C7080000 		.4byte	0x8c7
 1522 079e 34       		.byte	0x34
 1523 079f 17       		.uleb128 0x17
ARM GAS  C:\Users\ADMINI~1\AppData\Local\Temp\ccuylufO.s 			page 28


 1524 07a0 46050000 		.4byte	.LASF94
 1525 07a4 0D       		.byte	0xd
 1526 07a5 9C01     		.2byte	0x19c
 1527 07a7 F9050000 		.4byte	0x5f9
 1528 07ab 38       		.byte	0x38
 1529 07ac 17       		.uleb128 0x17
 1530 07ad 0E060000 		.4byte	.LASF95
 1531 07b1 0D       		.byte	0xd
 1532 07b2 A001     		.2byte	0x1a0
 1533 07b4 2C000000 		.4byte	0x2c
 1534 07b8 3C       		.byte	0x3c
 1535 07b9 17       		.uleb128 0x17
 1536 07ba 8D010000 		.4byte	.LASF96
 1537 07be 0D       		.byte	0xd
 1538 07bf A401     		.2byte	0x1a4
 1539 07c1 3D090000 		.4byte	0x93d
 1540 07c5 40       		.byte	0x40
 1541 07c6 17       		.uleb128 0x17
 1542 07c7 04030000 		.4byte	.LASF97
 1543 07cb 0D       		.byte	0xd
 1544 07cc A801     		.2byte	0x1a8
 1545 07ce 0E070000 		.4byte	0x70e
 1546 07d2 44       		.byte	0x44
 1547 07d3 17       		.uleb128 0x17
 1548 07d4 66050000 		.4byte	.LASF98
 1549 07d8 0D       		.byte	0xd
 1550 07d9 AC01     		.2byte	0x1ac
 1551 07db B8000000 		.4byte	0xb8
 1552 07df 4C       		.byte	0x4c
 1553 07e0 17       		.uleb128 0x17
 1554 07e1 460A0000 		.4byte	.LASF99
 1555 07e5 0D       		.byte	0xd
 1556 07e6 B001     		.2byte	0x1b0
 1557 07e8 AD000000 		.4byte	0xad
 1558 07ec 4E       		.byte	0x4e
 1559 07ed 17       		.uleb128 0x17
 1560 07ee DB070000 		.4byte	.LASF100
 1561 07f2 0D       		.byte	0xd
 1562 07f3 B401     		.2byte	0x1b4
 1563 07f5 AD000000 		.4byte	0xad
 1564 07f9 4F       		.byte	0x4f
 1565 07fa 0C       		.uleb128 0xc
 1566 07fb 6F746700 		.ascii	"otg\000"
 1567 07ff 0D       		.byte	0xd
 1568 0800 BC01     		.2byte	0x1bc
 1569 0802 D9110000 		.4byte	0x11d9
 1570 0806 50       		.byte	0x50
 1571 0807 17       		.uleb128 0x17
 1572 0808 0F0C0000 		.4byte	.LASF101
 1573 080c 0D       		.byte	0xd
 1574 080d C001     		.2byte	0x1c0
 1575 080f DF110000 		.4byte	0x11df
 1576 0813 54       		.byte	0x54
 1577 0814 17       		.uleb128 0x17
 1578 0815 B00A0000 		.4byte	.LASF102
 1579 0819 0D       		.byte	0xd
 1580 081a C401     		.2byte	0x1c4
ARM GAS  C:\Users\ADMINI~1\AppData\Local\Temp\ccuylufO.s 			page 29


 1581 081c CE000000 		.4byte	0xce
 1582 0820 58       		.byte	0x58
 1583 0821 17       		.uleb128 0x17
 1584 0822 F60A0000 		.4byte	.LASF103
 1585 0826 0D       		.byte	0xd
 1586 0827 C801     		.2byte	0x1c8
 1587 0829 CE000000 		.4byte	0xce
 1588 082d 5C       		.byte	0x5c
 1589 082e 17       		.uleb128 0x17
 1590 082f DD020000 		.4byte	.LASF104
 1591 0833 0D       		.byte	0xd
 1592 0834 CC01     		.2byte	0x1cc
 1593 0836 82020000 		.4byte	0x282
 1594 083a 60       		.byte	0x60
 1595 083b 17       		.uleb128 0x17
 1596 083c EE010000 		.4byte	.LASF105
 1597 0840 0D       		.byte	0xd
 1598 0841 D001     		.2byte	0x1d0
 1599 0843 82020000 		.4byte	0x282
 1600 0847 64       		.byte	0x64
 1601 0848 17       		.uleb128 0x17
 1602 0849 700C0000 		.4byte	.LASF106
 1603 084d 0D       		.byte	0xd
 1604 084e D401     		.2byte	0x1d4
 1605 0850 EA110000 		.4byte	0x11ea
 1606 0854 68       		.byte	0x68
 1607 0855 00       		.byte	0
 1608 0856 03       		.uleb128 0x3
 1609 0857 E60A0000 		.4byte	.LASF107
 1610 085b 0C       		.byte	0xc
 1611 085c EE       		.byte	0xee
 1612 085d AD000000 		.4byte	0xad
 1613 0861 18       		.uleb128 0x18
 1614 0862 01       		.byte	0x1
 1615 0863 0C       		.byte	0xc
 1616 0864 F3       		.byte	0xf3
 1617 0865 88080000 		.4byte	0x888
 1618 0869 19       		.uleb128 0x19
 1619 086a 63000000 		.4byte	.LASF108
 1620 086e 00       		.sleb128 0
 1621 086f 19       		.uleb128 0x19
 1622 0870 DE0C0000 		.4byte	.LASF109
 1623 0874 01       		.sleb128 1
 1624 0875 19       		.uleb128 0x19
 1625 0876 8B000000 		.4byte	.LASF110
 1626 087a 02       		.sleb128 2
 1627 087b 19       		.uleb128 0x19
 1628 087c 76090000 		.4byte	.LASF111
 1629 0880 03       		.sleb128 3
 1630 0881 19       		.uleb128 0x19
 1631 0882 1C040000 		.4byte	.LASF112
 1632 0886 04       		.sleb128 4
 1633 0887 00       		.byte	0
 1634 0888 03       		.uleb128 0x3
 1635 0889 A0050000 		.4byte	.LASF113
 1636 088d 0C       		.byte	0xc
 1637 088e F9       		.byte	0xf9
ARM GAS  C:\Users\ADMINI~1\AppData\Local\Temp\ccuylufO.s 			page 30


 1638 088f 61080000 		.4byte	0x861
 1639 0893 1A       		.uleb128 0x1a
 1640 0894 01       		.byte	0x1
 1641 0895 0C       		.byte	0xc
 1642 0896 0701     		.2byte	0x107
 1643 0898 C7080000 		.4byte	0x8c7
 1644 089c 19       		.uleb128 0x19
 1645 089d 28020000 		.4byte	.LASF114
 1646 08a1 00       		.sleb128 0
 1647 08a2 19       		.uleb128 0x19
 1648 08a3 EA000000 		.4byte	.LASF115
 1649 08a7 01       		.sleb128 1
 1650 08a8 19       		.uleb128 0x19
 1651 08a9 0A030000 		.4byte	.LASF116
 1652 08ad 02       		.sleb128 2
 1653 08ae 19       		.uleb128 0x19
 1654 08af 96040000 		.4byte	.LASF117
 1655 08b3 03       		.sleb128 3
 1656 08b4 19       		.uleb128 0x19
 1657 08b5 970C0000 		.4byte	.LASF118
 1658 08b9 04       		.sleb128 4
 1659 08ba 19       		.uleb128 0x19
 1660 08bb 350C0000 		.4byte	.LASF119
 1661 08bf 05       		.sleb128 5
 1662 08c0 19       		.uleb128 0x19
 1663 08c1 CB0A0000 		.4byte	.LASF120
 1664 08c5 06       		.sleb128 6
 1665 08c6 00       		.byte	0
 1666 08c7 1B       		.uleb128 0x1b
 1667 08c8 A90C0000 		.4byte	.LASF121
 1668 08cc 0C       		.byte	0xc
 1669 08cd 0F01     		.2byte	0x10f
 1670 08cf 93080000 		.4byte	0x893
 1671 08d3 1A       		.uleb128 0x1a
 1672 08d4 01       		.byte	0x1
 1673 08d5 0C       		.byte	0xc
 1674 08d6 1401     		.2byte	0x114
 1675 08d8 01090000 		.4byte	0x901
 1676 08dc 19       		.uleb128 0x19
 1677 08dd 0A020000 		.4byte	.LASF122
 1678 08e1 00       		.sleb128 0
 1679 08e2 19       		.uleb128 0x19
 1680 08e3 F3040000 		.4byte	.LASF123
 1681 08e7 01       		.sleb128 1
 1682 08e8 19       		.uleb128 0x19
 1683 08e9 B70C0000 		.4byte	.LASF124
 1684 08ed 02       		.sleb128 2
 1685 08ee 19       		.uleb128 0x19
 1686 08ef 9C000000 		.4byte	.LASF125
 1687 08f3 03       		.sleb128 3
 1688 08f4 19       		.uleb128 0x19
 1689 08f5 430B0000 		.4byte	.LASF126
 1690 08f9 04       		.sleb128 4
 1691 08fa 19       		.uleb128 0x19
 1692 08fb B0070000 		.4byte	.LASF127
 1693 08ff 05       		.sleb128 5
 1694 0900 00       		.byte	0
ARM GAS  C:\Users\ADMINI~1\AppData\Local\Temp\ccuylufO.s 			page 31


 1695 0901 1B       		.uleb128 0x1b
 1696 0902 830C0000 		.4byte	.LASF128
 1697 0906 0C       		.byte	0xc
 1698 0907 1B01     		.2byte	0x11b
 1699 0909 D3080000 		.4byte	0x8d3
 1700 090d 1C       		.uleb128 0x1c
 1701 090e 08       		.byte	0x8
 1702 090f 0C       		.byte	0xc
 1703 0910 2001     		.2byte	0x120
 1704 0912 31090000 		.4byte	0x931
 1705 0916 17       		.uleb128 0x17
 1706 0917 96010000 		.4byte	.LASF129
 1707 091b 0C       		.byte	0xc
 1708 091c 2401     		.2byte	0x124
 1709 091e 2C000000 		.4byte	0x2c
 1710 0922 00       		.byte	0
 1711 0923 17       		.uleb128 0x17
 1712 0924 390B0000 		.4byte	.LASF130
 1713 0928 0C       		.byte	0xc
 1714 0929 2801     		.2byte	0x128
 1715 092b 2E060000 		.4byte	0x62e
 1716 092f 04       		.byte	0x4
 1717 0930 00       		.byte	0
 1718 0931 1B       		.uleb128 0x1b
 1719 0932 7A080000 		.4byte	.LASF131
 1720 0936 0C       		.byte	0xc
 1721 0937 2901     		.2byte	0x129
 1722 0939 0D090000 		.4byte	0x90d
 1723 093d 1B       		.uleb128 0x1b
 1724 093e BA020000 		.4byte	.LASF132
 1725 0942 0C       		.byte	0xc
 1726 0943 3101     		.2byte	0x131
 1727 0945 49090000 		.4byte	0x949
 1728 0949 09       		.uleb128 0x9
 1729 094a 04       		.byte	0x4
 1730 094b 4F090000 		.4byte	0x94f
 1731 094f 13       		.uleb128 0x13
 1732 0950 5A090000 		.4byte	0x95a
 1733 0954 12       		.uleb128 0x12
 1734 0955 5A090000 		.4byte	0x95a
 1735 0959 00       		.byte	0
 1736 095a 09       		.uleb128 0x9
 1737 095b 04       		.byte	0x4
 1738 095c 1E070000 		.4byte	0x71e
 1739 0960 1B       		.uleb128 0x1b
 1740 0961 C6090000 		.4byte	.LASF133
 1741 0965 0C       		.byte	0xc
 1742 0966 3A01     		.2byte	0x13a
 1743 0968 6C090000 		.4byte	0x96c
 1744 096c 09       		.uleb128 0x9
 1745 096d 04       		.byte	0x4
 1746 096e 72090000 		.4byte	0x972
 1747 0972 13       		.uleb128 0x13
 1748 0973 82090000 		.4byte	0x982
 1749 0977 12       		.uleb128 0x12
 1750 0978 5A090000 		.4byte	0x95a
 1751 097c 12       		.uleb128 0x12
ARM GAS  C:\Users\ADMINI~1\AppData\Local\Temp\ccuylufO.s 			page 32


 1752 097d 56080000 		.4byte	0x856
 1753 0981 00       		.byte	0
 1754 0982 1B       		.uleb128 0x1b
 1755 0983 9E010000 		.4byte	.LASF134
 1756 0987 0C       		.byte	0xc
 1757 0988 4301     		.2byte	0x143
 1758 098a 8E090000 		.4byte	0x98e
 1759 098e 09       		.uleb128 0x9
 1760 098f 04       		.byte	0x4
 1761 0990 94090000 		.4byte	0x994
 1762 0994 13       		.uleb128 0x13
 1763 0995 A4090000 		.4byte	0x9a4
 1764 0999 12       		.uleb128 0x12
 1765 099a 5A090000 		.4byte	0x95a
 1766 099e 12       		.uleb128 0x12
 1767 099f 01090000 		.4byte	0x901
 1768 09a3 00       		.byte	0
 1769 09a4 1B       		.uleb128 0x1b
 1770 09a5 030D0000 		.4byte	.LASF135
 1771 09a9 0C       		.byte	0xc
 1772 09aa 4F01     		.2byte	0x14f
 1773 09ac B0090000 		.4byte	0x9b0
 1774 09b0 09       		.uleb128 0x9
 1775 09b1 04       		.byte	0x4
 1776 09b2 B6090000 		.4byte	0x9b6
 1777 09b6 11       		.uleb128 0x11
 1778 09b7 E4000000 		.4byte	0xe4
 1779 09bb C5090000 		.4byte	0x9c5
 1780 09bf 12       		.uleb128 0x12
 1781 09c0 5A090000 		.4byte	0x95a
 1782 09c4 00       		.byte	0
 1783 09c5 1B       		.uleb128 0x1b
 1784 09c6 1B090000 		.4byte	.LASF136
 1785 09ca 0C       		.byte	0xc
 1786 09cb 5401     		.2byte	0x154
 1787 09cd D1090000 		.4byte	0x9d1
 1788 09d1 09       		.uleb128 0x9
 1789 09d2 04       		.byte	0x4
 1790 09d3 D7090000 		.4byte	0x9d7
 1791 09d7 11       		.uleb128 0x11
 1792 09d8 F5090000 		.4byte	0x9f5
 1793 09dc F5090000 		.4byte	0x9f5
 1794 09e0 12       		.uleb128 0x12
 1795 09e1 5A090000 		.4byte	0x95a
 1796 09e5 12       		.uleb128 0x12
 1797 09e6 AD000000 		.4byte	0xad
 1798 09ea 12       		.uleb128 0x12
 1799 09eb AD000000 		.4byte	0xad
 1800 09ef 12       		.uleb128 0x12
 1801 09f0 B8000000 		.4byte	0xb8
 1802 09f4 00       		.byte	0
 1803 09f5 09       		.uleb128 0x9
 1804 09f6 04       		.byte	0x4
 1805 09f7 FB090000 		.4byte	0x9fb
 1806 09fb 10       		.uleb128 0x10
 1807 09fc 31090000 		.4byte	0x931
 1808 0a00 08       		.uleb128 0x8
ARM GAS  C:\Users\ADMINI~1\AppData\Local\Temp\ccuylufO.s 			page 33


 1809 0a01 20       		.byte	0x20
 1810 0a02 0E       		.byte	0xe
 1811 0a03 35       		.byte	0x35
 1812 0a04 690A0000 		.4byte	0xa69
 1813 0a08 06       		.uleb128 0x6
 1814 0a09 7C040000 		.4byte	.LASF137
 1815 0a0d 0E       		.byte	0xe
 1816 0a0e 36       		.byte	0x36
 1817 0a0f 38040000 		.4byte	0x438
 1818 0a13 00       		.byte	0
 1819 0a14 06       		.uleb128 0x6
 1820 0a15 95000000 		.4byte	.LASF138
 1821 0a19 0E       		.byte	0xe
 1822 0a1a 38       		.byte	0x38
 1823 0a1b 38040000 		.4byte	0x438
 1824 0a1f 04       		.byte	0x4
 1825 0a20 06       		.uleb128 0x6
 1826 0a21 D0080000 		.4byte	.LASF139
 1827 0a25 0E       		.byte	0xe
 1828 0a26 39       		.byte	0x39
 1829 0a27 38040000 		.4byte	0x438
 1830 0a2b 08       		.byte	0x8
 1831 0a2c 06       		.uleb128 0x6
 1832 0a2d 5A070000 		.4byte	.LASF140
 1833 0a31 0E       		.byte	0xe
 1834 0a32 3A       		.byte	0x3a
 1835 0a33 38040000 		.4byte	0x438
 1836 0a37 0C       		.byte	0xc
 1837 0a38 06       		.uleb128 0x6
 1838 0a39 B8000000 		.4byte	.LASF141
 1839 0a3d 0E       		.byte	0xe
 1840 0a3e 3C       		.byte	0x3c
 1841 0a3f 38040000 		.4byte	0x438
 1842 0a43 10       		.byte	0x10
 1843 0a44 06       		.uleb128 0x6
 1844 0a45 33010000 		.4byte	.LASF142
 1845 0a49 0E       		.byte	0xe
 1846 0a4a 3E       		.byte	0x3e
 1847 0a4b 38040000 		.4byte	0x438
 1848 0a4f 14       		.byte	0x14
 1849 0a50 06       		.uleb128 0x6
 1850 0a51 43010000 		.4byte	.LASF143
 1851 0a55 0E       		.byte	0xe
 1852 0a56 3F       		.byte	0x3f
 1853 0a57 38040000 		.4byte	0x438
 1854 0a5b 18       		.byte	0x18
 1855 0a5c 06       		.uleb128 0x6
 1856 0a5d CA010000 		.4byte	.LASF144
 1857 0a61 0E       		.byte	0xe
 1858 0a62 40       		.byte	0x40
 1859 0a63 38040000 		.4byte	0x438
 1860 0a67 1C       		.byte	0x1c
 1861 0a68 00       		.byte	0
 1862 0a69 03       		.uleb128 0x3
 1863 0a6a 8A070000 		.4byte	.LASF145
 1864 0a6e 0E       		.byte	0xe
 1865 0a6f 41       		.byte	0x41
ARM GAS  C:\Users\ADMINI~1\AppData\Local\Temp\ccuylufO.s 			page 34


 1866 0a70 000A0000 		.4byte	0xa00
 1867 0a74 08       		.uleb128 0x8
 1868 0a75 20       		.byte	0x20
 1869 0a76 0E       		.byte	0xe
 1870 0a77 46       		.byte	0x46
 1871 0a78 DD0A0000 		.4byte	0xadd
 1872 0a7c 06       		.uleb128 0x6
 1873 0a7d 13090000 		.4byte	.LASF146
 1874 0a81 0E       		.byte	0xe
 1875 0a82 47       		.byte	0x47
 1876 0a83 38040000 		.4byte	0x438
 1877 0a87 00       		.byte	0
 1878 0a88 06       		.uleb128 0x6
 1879 0a89 7F000000 		.4byte	.LASF147
 1880 0a8d 0E       		.byte	0xe
 1881 0a8e 49       		.byte	0x49
 1882 0a8f 38040000 		.4byte	0x438
 1883 0a93 04       		.byte	0x4
 1884 0a94 06       		.uleb128 0x6
 1885 0a95 5A0B0000 		.4byte	.LASF148
 1886 0a99 0E       		.byte	0xe
 1887 0a9a 4A       		.byte	0x4a
 1888 0a9b 38040000 		.4byte	0x438
 1889 0a9f 08       		.byte	0x8
 1890 0aa0 06       		.uleb128 0x6
 1891 0aa1 BF000000 		.4byte	.LASF149
 1892 0aa5 0E       		.byte	0xe
 1893 0aa6 4C       		.byte	0x4c
 1894 0aa7 38040000 		.4byte	0x438
 1895 0aab 0C       		.byte	0xc
 1896 0aac 06       		.uleb128 0x6
 1897 0aad 16000000 		.4byte	.LASF150
 1898 0ab1 0E       		.byte	0xe
 1899 0ab2 4D       		.byte	0x4d
 1900 0ab3 38040000 		.4byte	0x438
 1901 0ab7 10       		.byte	0x10
 1902 0ab8 06       		.uleb128 0x6
 1903 0ab9 33010000 		.4byte	.LASF142
 1904 0abd 0E       		.byte	0xe
 1905 0abe 4F       		.byte	0x4f
 1906 0abf 38040000 		.4byte	0x438
 1907 0ac3 14       		.byte	0x14
 1908 0ac4 06       		.uleb128 0x6
 1909 0ac5 76070000 		.4byte	.LASF151
 1910 0ac9 0E       		.byte	0xe
 1911 0aca 50       		.byte	0x50
 1912 0acb 38040000 		.4byte	0x438
 1913 0acf 18       		.byte	0x18
 1914 0ad0 06       		.uleb128 0x6
 1915 0ad1 69010000 		.4byte	.LASF152
 1916 0ad5 0E       		.byte	0xe
 1917 0ad6 52       		.byte	0x52
 1918 0ad7 38040000 		.4byte	0x438
 1919 0adb 1C       		.byte	0x1c
 1920 0adc 00       		.byte	0
 1921 0add 03       		.uleb128 0x3
 1922 0ade CB030000 		.4byte	.LASF153
ARM GAS  C:\Users\ADMINI~1\AppData\Local\Temp\ccuylufO.s 			page 35


 1923 0ae2 0E       		.byte	0xe
 1924 0ae3 53       		.byte	0x53
 1925 0ae4 740A0000 		.4byte	0xa74
 1926 0ae8 08       		.uleb128 0x8
 1927 0ae9 20       		.byte	0x20
 1928 0aea 0E       		.byte	0xe
 1929 0aeb 58       		.byte	0x58
 1930 0aec 510B0000 		.4byte	0xb51
 1931 0af0 06       		.uleb128 0x6
 1932 0af1 DB050000 		.4byte	.LASF154
 1933 0af5 0E       		.byte	0xe
 1934 0af6 59       		.byte	0x59
 1935 0af7 38040000 		.4byte	0x438
 1936 0afb 00       		.byte	0
 1937 0afc 06       		.uleb128 0x6
 1938 0afd 7F000000 		.4byte	.LASF147
 1939 0b01 0E       		.byte	0xe
 1940 0b02 5B       		.byte	0x5b
 1941 0b03 38040000 		.4byte	0x438
 1942 0b07 04       		.byte	0x4
 1943 0b08 06       		.uleb128 0x6
 1944 0b09 CD050000 		.4byte	.LASF155
 1945 0b0d 0E       		.byte	0xe
 1946 0b0e 5C       		.byte	0x5c
 1947 0b0f 38040000 		.4byte	0x438
 1948 0b13 08       		.byte	0x8
 1949 0b14 06       		.uleb128 0x6
 1950 0b15 BF000000 		.4byte	.LASF149
 1951 0b19 0E       		.byte	0xe
 1952 0b1a 5E       		.byte	0x5e
 1953 0b1b 38040000 		.4byte	0x438
 1954 0b1f 0C       		.byte	0xc
 1955 0b20 06       		.uleb128 0x6
 1956 0b21 A3030000 		.4byte	.LASF156
 1957 0b25 0E       		.byte	0xe
 1958 0b26 5F       		.byte	0x5f
 1959 0b27 38040000 		.4byte	0x438
 1960 0b2b 10       		.byte	0x10
 1961 0b2c 06       		.uleb128 0x6
 1962 0b2d 33010000 		.4byte	.LASF142
 1963 0b31 0E       		.byte	0xe
 1964 0b32 61       		.byte	0x61
 1965 0b33 38040000 		.4byte	0x438
 1966 0b37 14       		.byte	0x14
 1967 0b38 06       		.uleb128 0x6
 1968 0b39 43010000 		.4byte	.LASF143
 1969 0b3d 0E       		.byte	0xe
 1970 0b3e 62       		.byte	0x62
 1971 0b3f 38040000 		.4byte	0x438
 1972 0b43 18       		.byte	0x18
 1973 0b44 06       		.uleb128 0x6
 1974 0b45 69010000 		.4byte	.LASF152
 1975 0b49 0E       		.byte	0xe
 1976 0b4a 63       		.byte	0x63
 1977 0b4b 38040000 		.4byte	0x438
 1978 0b4f 1C       		.byte	0x1c
 1979 0b50 00       		.byte	0
ARM GAS  C:\Users\ADMINI~1\AppData\Local\Temp\ccuylufO.s 			page 36


 1980 0b51 03       		.uleb128 0x3
 1981 0b52 7F0A0000 		.4byte	.LASF157
 1982 0b56 0E       		.byte	0xe
 1983 0b57 64       		.byte	0x64
 1984 0b58 E80A0000 		.4byte	0xae8
 1985 0b5c 1D       		.uleb128 0x1d
 1986 0b5d 00100100 		.4byte	0x11000
 1987 0b61 0E       		.byte	0xe
 1988 0b62 69       		.byte	0x69
 1989 0b63 390E0000 		.4byte	0xe39
 1990 0b67 06       		.uleb128 0x6
 1991 0b68 E7090000 		.4byte	.LASF158
 1992 0b6c 0E       		.byte	0xe
 1993 0b6d 6A       		.byte	0x6a
 1994 0b6e 38040000 		.4byte	0x438
 1995 0b72 00       		.byte	0
 1996 0b73 06       		.uleb128 0x6
 1997 0b74 DF090000 		.4byte	.LASF159
 1998 0b78 0E       		.byte	0xe
 1999 0b79 6B       		.byte	0x6b
 2000 0b7a 38040000 		.4byte	0x438
 2001 0b7e 04       		.byte	0x4
 2002 0b7f 06       		.uleb128 0x6
 2003 0b80 66080000 		.4byte	.LASF160
 2004 0b84 0E       		.byte	0xe
 2005 0b85 6C       		.byte	0x6c
 2006 0b86 38040000 		.4byte	0x438
 2007 0b8a 08       		.byte	0x8
 2008 0b8b 06       		.uleb128 0x6
 2009 0b8c 270C0000 		.4byte	.LASF161
 2010 0b90 0E       		.byte	0xe
 2011 0b91 6D       		.byte	0x6d
 2012 0b92 38040000 		.4byte	0x438
 2013 0b96 0C       		.byte	0xc
 2014 0b97 06       		.uleb128 0x6
 2015 0b98 2E050000 		.4byte	.LASF162
 2016 0b9c 0E       		.byte	0xe
 2017 0b9d 6E       		.byte	0x6e
 2018 0b9e 38040000 		.4byte	0x438
 2019 0ba2 10       		.byte	0x10
 2020 0ba3 06       		.uleb128 0x6
 2021 0ba4 3B010000 		.4byte	.LASF163
 2022 0ba8 0E       		.byte	0xe
 2023 0ba9 6F       		.byte	0x6f
 2024 0baa 38040000 		.4byte	0x438
 2025 0bae 14       		.byte	0x14
 2026 0baf 06       		.uleb128 0x6
 2027 0bb0 8F080000 		.4byte	.LASF164
 2028 0bb4 0E       		.byte	0xe
 2029 0bb5 70       		.byte	0x70
 2030 0bb6 38040000 		.4byte	0x438
 2031 0bba 18       		.byte	0x18
 2032 0bbb 06       		.uleb128 0x6
 2033 0bbc 560A0000 		.4byte	.LASF165
 2034 0bc0 0E       		.byte	0xe
 2035 0bc1 71       		.byte	0x71
 2036 0bc2 38040000 		.4byte	0x438
ARM GAS  C:\Users\ADMINI~1\AppData\Local\Temp\ccuylufO.s 			page 37


 2037 0bc6 1C       		.byte	0x1c
 2038 0bc7 06       		.uleb128 0x6
 2039 0bc8 4E0A0000 		.4byte	.LASF166
 2040 0bcc 0E       		.byte	0xe
 2041 0bcd 73       		.byte	0x73
 2042 0bce 38040000 		.4byte	0x438
 2043 0bd2 20       		.byte	0x20
 2044 0bd3 06       		.uleb128 0x6
 2045 0bd4 58030000 		.4byte	.LASF167
 2046 0bd8 0E       		.byte	0xe
 2047 0bd9 75       		.byte	0x75
 2048 0bda 38040000 		.4byte	0x438
 2049 0bde 24       		.byte	0x24
 2050 0bdf 06       		.uleb128 0x6
 2051 0be0 D6090000 		.4byte	.LASF168
 2052 0be4 0E       		.byte	0xe
 2053 0be5 76       		.byte	0x76
 2054 0be6 38040000 		.4byte	0x438
 2055 0bea 28       		.byte	0x28
 2056 0beb 06       		.uleb128 0x6
 2057 0bec 9F070000 		.4byte	.LASF169
 2058 0bf0 0E       		.byte	0xe
 2059 0bf1 78       		.byte	0x78
 2060 0bf2 38040000 		.4byte	0x438
 2061 0bf6 2C       		.byte	0x2c
 2062 0bf7 06       		.uleb128 0x6
 2063 0bf8 EB020000 		.4byte	.LASF170
 2064 0bfc 0E       		.byte	0xe
 2065 0bfd 7A       		.byte	0x7a
 2066 0bfe 38040000 		.4byte	0x438
 2067 0c02 30       		.byte	0x30
 2068 0c03 06       		.uleb128 0x6
 2069 0c04 19010000 		.4byte	.LASF171
 2070 0c08 0E       		.byte	0xe
 2071 0c09 7B       		.byte	0x7b
 2072 0c0a 38040000 		.4byte	0x438
 2073 0c0e 34       		.byte	0x34
 2074 0c0f 06       		.uleb128 0x6
 2075 0c10 5D010000 		.4byte	.LASF172
 2076 0c14 0E       		.byte	0xe
 2077 0c15 7C       		.byte	0x7c
 2078 0c16 38040000 		.4byte	0x438
 2079 0c1a 38       		.byte	0x38
 2080 0c1b 07       		.uleb128 0x7
 2081 0c1c 43494400 		.ascii	"CID\000"
 2082 0c20 0E       		.byte	0xe
 2083 0c21 7D       		.byte	0x7d
 2084 0c22 38040000 		.4byte	0x438
 2085 0c26 3C       		.byte	0x3c
 2086 0c27 06       		.uleb128 0x6
 2087 0c28 8E040000 		.4byte	.LASF173
 2088 0c2c 0E       		.byte	0xe
 2089 0c2d 7E       		.byte	0x7e
 2090 0c2e 490E0000 		.4byte	0xe49
 2091 0c32 40       		.byte	0x40
 2092 0c33 1E       		.uleb128 0x1e
 2093 0c34 97080000 		.4byte	.LASF174
ARM GAS  C:\Users\ADMINI~1\AppData\Local\Temp\ccuylufO.s 			page 38


 2094 0c38 0E       		.byte	0xe
 2095 0c39 7F       		.byte	0x7f
 2096 0c3a 38040000 		.4byte	0x438
 2097 0c3e 0001     		.2byte	0x100
 2098 0c40 1E       		.uleb128 0x1e
 2099 0c41 720B0000 		.4byte	.LASF175
 2100 0c45 0E       		.byte	0xe
 2101 0c46 81       		.byte	0x81
 2102 0c47 4E0E0000 		.4byte	0xe4e
 2103 0c4b 0401     		.2byte	0x104
 2104 0c4d 1E       		.uleb128 0x1e
 2105 0c4e 8C020000 		.4byte	.LASF176
 2106 0c52 0E       		.byte	0xe
 2107 0c53 83       		.byte	0x83
 2108 0c54 630E0000 		.4byte	0xe63
 2109 0c58 4001     		.2byte	0x140
 2110 0c5a 1E       		.uleb128 0x1e
 2111 0c5b 5D040000 		.4byte	.LASF177
 2112 0c5f 0E       		.byte	0xe
 2113 0c60 84       		.byte	0x84
 2114 0c61 38040000 		.4byte	0x438
 2115 0c65 0004     		.2byte	0x400
 2116 0c67 1E       		.uleb128 0x1e
 2117 0c68 6D0B0000 		.4byte	.LASF178
 2118 0c6c 0E       		.byte	0xe
 2119 0c6d 85       		.byte	0x85
 2120 0c6e 38040000 		.4byte	0x438
 2121 0c72 0404     		.2byte	0x404
 2122 0c74 1E       		.uleb128 0x1e
 2123 0c75 D90A0000 		.4byte	.LASF179
 2124 0c79 0E       		.byte	0xe
 2125 0c7a 86       		.byte	0x86
 2126 0c7b 38040000 		.4byte	0x438
 2127 0c7f 0804     		.2byte	0x408
 2128 0c81 1E       		.uleb128 0x1e
 2129 0c82 B5010000 		.4byte	.LASF180
 2130 0c86 0E       		.byte	0xe
 2131 0c87 88       		.byte	0x88
 2132 0c88 38040000 		.4byte	0x438
 2133 0c8c 0C04     		.2byte	0x40c
 2134 0c8e 1E       		.uleb128 0x1e
 2135 0c8f A8070000 		.4byte	.LASF181
 2136 0c93 0E       		.byte	0xe
 2137 0c94 89       		.byte	0x89
 2138 0c95 38040000 		.4byte	0x438
 2139 0c99 1004     		.2byte	0x410
 2140 0c9b 1E       		.uleb128 0x1e
 2141 0c9c 13060000 		.4byte	.LASF182
 2142 0ca0 0E       		.byte	0xe
 2143 0ca1 8B       		.byte	0x8b
 2144 0ca2 38040000 		.4byte	0x438
 2145 0ca6 1404     		.2byte	0x414
 2146 0ca8 1E       		.uleb128 0x1e
 2147 0ca9 05050000 		.4byte	.LASF183
 2148 0cad 0E       		.byte	0xe
 2149 0cae 8D       		.byte	0x8d
 2150 0caf 38040000 		.4byte	0x438
ARM GAS  C:\Users\ADMINI~1\AppData\Local\Temp\ccuylufO.s 			page 39


 2151 0cb3 1804     		.2byte	0x418
 2152 0cb5 1E       		.uleb128 0x1e
 2153 0cb6 A5020000 		.4byte	.LASF184
 2154 0cba 0E       		.byte	0xe
 2155 0cbb 8F       		.byte	0x8f
 2156 0cbc 780E0000 		.4byte	0xe78
 2157 0cc0 1C04     		.2byte	0x41c
 2158 0cc2 1E       		.uleb128 0x1e
 2159 0cc3 BD030000 		.4byte	.LASF185
 2160 0cc7 0E       		.byte	0xe
 2161 0cc8 90       		.byte	0x90
 2162 0cc9 38040000 		.4byte	0x438
 2163 0ccd 4004     		.2byte	0x440
 2164 0ccf 1E       		.uleb128 0x1e
 2165 0cd0 E8030000 		.4byte	.LASF186
 2166 0cd4 0E       		.byte	0xe
 2167 0cd5 92       		.byte	0x92
 2168 0cd6 8D0E0000 		.4byte	0xe8d
 2169 0cda 4404     		.2byte	0x444
 2170 0cdc 1F       		.uleb128 0x1f
 2171 0cdd 686300   		.ascii	"hc\000"
 2172 0ce0 0E       		.byte	0xe
 2173 0ce1 93       		.byte	0x93
 2174 0ce2 920E0000 		.4byte	0xe92
 2175 0ce6 0005     		.2byte	0x500
 2176 0ce8 1E       		.uleb128 0x1e
 2177 0ce9 C2030000 		.4byte	.LASF187
 2178 0ced 0E       		.byte	0xe
 2179 0cee 94       		.byte	0x94
 2180 0cef B20E0000 		.4byte	0xeb2
 2181 0cf3 0007     		.2byte	0x700
 2182 0cf5 1E       		.uleb128 0x1e
 2183 0cf6 5E000000 		.4byte	.LASF188
 2184 0cfa 0E       		.byte	0xe
 2185 0cfb 95       		.byte	0x95
 2186 0cfc 38040000 		.4byte	0x438
 2187 0d00 0008     		.2byte	0x800
 2188 0d02 1E       		.uleb128 0x1e
 2189 0d03 830B0000 		.4byte	.LASF189
 2190 0d07 0E       		.byte	0xe
 2191 0d08 96       		.byte	0x96
 2192 0d09 38040000 		.4byte	0x438
 2193 0d0d 0408     		.2byte	0x804
 2194 0d0f 1E       		.uleb128 0x1e
 2195 0d10 F1030000 		.4byte	.LASF190
 2196 0d14 0E       		.byte	0xe
 2197 0d15 97       		.byte	0x97
 2198 0d16 38040000 		.4byte	0x438
 2199 0d1a 0808     		.2byte	0x808
 2200 0d1c 1E       		.uleb128 0x1e
 2201 0d1d 56090000 		.4byte	.LASF191
 2202 0d21 0E       		.byte	0xe
 2203 0d22 98       		.byte	0x98
 2204 0d23 38040000 		.4byte	0x438
 2205 0d27 0C08     		.2byte	0x80c
 2206 0d29 1E       		.uleb128 0x1e
 2207 0d2a 0D0A0000 		.4byte	.LASF192
ARM GAS  C:\Users\ADMINI~1\AppData\Local\Temp\ccuylufO.s 			page 40


 2208 0d2e 0E       		.byte	0xe
 2209 0d2f 99       		.byte	0x99
 2210 0d30 38040000 		.4byte	0x438
 2211 0d34 1008     		.2byte	0x810
 2212 0d36 1E       		.uleb128 0x1e
 2213 0d37 EB040000 		.4byte	.LASF193
 2214 0d3b 0E       		.byte	0xe
 2215 0d3c 9B       		.byte	0x9b
 2216 0d3d 38040000 		.4byte	0x438
 2217 0d41 1408     		.2byte	0x814
 2218 0d43 1E       		.uleb128 0x1e
 2219 0d44 2F0C0000 		.4byte	.LASF194
 2220 0d48 0E       		.byte	0xe
 2221 0d49 9D       		.byte	0x9d
 2222 0d4a 38040000 		.4byte	0x438
 2223 0d4e 1808     		.2byte	0x818
 2224 0d50 1E       		.uleb128 0x1e
 2225 0d51 EF090000 		.4byte	.LASF195
 2226 0d55 0E       		.byte	0xe
 2227 0d56 9F       		.byte	0x9f
 2228 0d57 38040000 		.4byte	0x438
 2229 0d5b 1C08     		.2byte	0x81c
 2230 0d5d 1E       		.uleb128 0x1e
 2231 0d5e A70A0000 		.4byte	.LASF196
 2232 0d62 0E       		.byte	0xe
 2233 0d63 A1       		.byte	0xa1
 2234 0d64 38040000 		.4byte	0x438
 2235 0d68 2008     		.2byte	0x820
 2236 0d6a 1E       		.uleb128 0x1e
 2237 0d6b C20A0000 		.4byte	.LASF197
 2238 0d6f 0E       		.byte	0xe
 2239 0d70 A2       		.byte	0xa2
 2240 0d71 38040000 		.4byte	0x438
 2241 0d75 2408     		.2byte	0x824
 2242 0d77 1E       		.uleb128 0x1e
 2243 0d78 F7010000 		.4byte	.LASF198
 2244 0d7c 0E       		.byte	0xe
 2245 0d7d A3       		.byte	0xa3
 2246 0d7e 38040000 		.4byte	0x438
 2247 0d82 2808     		.2byte	0x828
 2248 0d84 1E       		.uleb128 0x1e
 2249 0d85 F3070000 		.4byte	.LASF199
 2250 0d89 0E       		.byte	0xe
 2251 0d8a A5       		.byte	0xa5
 2252 0d8b 38040000 		.4byte	0x438
 2253 0d8f 2C08     		.2byte	0x82c
 2254 0d91 1E       		.uleb128 0x1e
 2255 0d92 A70B0000 		.4byte	.LASF200
 2256 0d96 0E       		.byte	0xe
 2257 0d97 A7       		.byte	0xa7
 2258 0d98 38040000 		.4byte	0x438
 2259 0d9c 3008     		.2byte	0x830
 2260 0d9e 1E       		.uleb128 0x1e
 2261 0d9f C8020000 		.4byte	.LASF201
 2262 0da3 0E       		.byte	0xe
 2263 0da4 A8       		.byte	0xa8
 2264 0da5 38040000 		.4byte	0x438
ARM GAS  C:\Users\ADMINI~1\AppData\Local\Temp\ccuylufO.s 			page 41


 2265 0da9 3408     		.2byte	0x834
 2266 0dab 1E       		.uleb128 0x1e
 2267 0dac E2040000 		.4byte	.LASF202
 2268 0db0 0E       		.byte	0xe
 2269 0db1 AA       		.byte	0xaa
 2270 0db2 38040000 		.4byte	0x438
 2271 0db6 3808     		.2byte	0x838
 2272 0db8 1E       		.uleb128 0x1e
 2273 0db9 E80B0000 		.4byte	.LASF203
 2274 0dbd 0E       		.byte	0xe
 2275 0dbe AB       		.byte	0xab
 2276 0dbf 38040000 		.4byte	0x438
 2277 0dc3 3C08     		.2byte	0x83c
 2278 0dc5 1E       		.uleb128 0x1e
 2279 0dc6 8E0C0000 		.4byte	.LASF204
 2280 0dca 0E       		.byte	0xe
 2281 0dcb AC       		.byte	0xac
 2282 0dcc C70E0000 		.4byte	0xec7
 2283 0dd0 4008     		.2byte	0x840
 2284 0dd2 1E       		.uleb128 0x1e
 2285 0dd3 FB020000 		.4byte	.LASF205
 2286 0dd7 0E       		.byte	0xe
 2287 0dd8 AD       		.byte	0xad
 2288 0dd9 CC0E0000 		.4byte	0xecc
 2289 0ddd 8008     		.2byte	0x880
 2290 0ddf 1E       		.uleb128 0x1e
 2291 0de0 5B0C0000 		.4byte	.LASF206
 2292 0de4 0E       		.byte	0xe
 2293 0de5 AE       		.byte	0xae
 2294 0de6 D10E0000 		.4byte	0xed1
 2295 0dea C008     		.2byte	0x8c0
 2296 0dec 1F       		.uleb128 0x1f
 2297 0ded 696500   		.ascii	"ie\000"
 2298 0df0 0E       		.byte	0xe
 2299 0df1 AF       		.byte	0xaf
 2300 0df2 D60E0000 		.4byte	0xed6
 2301 0df6 0009     		.2byte	0x900
 2302 0df8 1F       		.uleb128 0x1f
 2303 0df9 6F6500   		.ascii	"oe\000"
 2304 0dfc 0E       		.byte	0xe
 2305 0dfd B0       		.byte	0xb0
 2306 0dfe E60E0000 		.4byte	0xee6
 2307 0e02 000B     		.2byte	0xb00
 2308 0e04 1E       		.uleb128 0x1e
 2309 0e05 6D050000 		.4byte	.LASF207
 2310 0e09 0E       		.byte	0xe
 2311 0e0a B1       		.byte	0xb1
 2312 0e0b F60E0000 		.4byte	0xef6
 2313 0e0f 000D     		.2byte	0xd00
 2314 0e11 1E       		.uleb128 0x1e
 2315 0e12 6E090000 		.4byte	.LASF208
 2316 0e16 0E       		.byte	0xe
 2317 0e17 B2       		.byte	0xb2
 2318 0e18 38040000 		.4byte	0x438
 2319 0e1c 000E     		.2byte	0xe00
 2320 0e1e 1E       		.uleb128 0x1e
 2321 0e1f 300B0000 		.4byte	.LASF209
ARM GAS  C:\Users\ADMINI~1\AppData\Local\Temp\ccuylufO.s 			page 42


 2322 0e23 0E       		.byte	0xe
 2323 0e24 B4       		.byte	0xb4
 2324 0e25 0B0F0000 		.4byte	0xf0b
 2325 0e29 040E     		.2byte	0xe04
 2326 0e2b 1E       		.uleb128 0x1e
 2327 0e2c D6070000 		.4byte	.LASF210
 2328 0e30 0E       		.byte	0xe
 2329 0e31 B5       		.byte	0xb5
 2330 0e32 270F0000 		.4byte	0xf27
 2331 0e36 0010     		.2byte	0x1000
 2332 0e38 00       		.byte	0
 2333 0e39 14       		.uleb128 0x14
 2334 0e3a CE000000 		.4byte	0xce
 2335 0e3e 490E0000 		.4byte	0xe49
 2336 0e42 15       		.uleb128 0x15
 2337 0e43 3D040000 		.4byte	0x43d
 2338 0e47 2F       		.byte	0x2f
 2339 0e48 00       		.byte	0
 2340 0e49 0D       		.uleb128 0xd
 2341 0e4a 390E0000 		.4byte	0xe39
 2342 0e4e 0D       		.uleb128 0xd
 2343 0e4f 78060000 		.4byte	0x678
 2344 0e53 14       		.uleb128 0x14
 2345 0e54 CE000000 		.4byte	0xce
 2346 0e58 630E0000 		.4byte	0xe63
 2347 0e5c 15       		.uleb128 0x15
 2348 0e5d 3D040000 		.4byte	0x43d
 2349 0e61 AF       		.byte	0xaf
 2350 0e62 00       		.byte	0
 2351 0e63 0D       		.uleb128 0xd
 2352 0e64 530E0000 		.4byte	0xe53
 2353 0e68 14       		.uleb128 0x14
 2354 0e69 CE000000 		.4byte	0xce
 2355 0e6d 780E0000 		.4byte	0xe78
 2356 0e71 15       		.uleb128 0x15
 2357 0e72 3D040000 		.4byte	0x43d
 2358 0e76 08       		.byte	0x8
 2359 0e77 00       		.byte	0
 2360 0e78 0D       		.uleb128 0xd
 2361 0e79 680E0000 		.4byte	0xe68
 2362 0e7d 14       		.uleb128 0x14
 2363 0e7e CE000000 		.4byte	0xce
 2364 0e82 8D0E0000 		.4byte	0xe8d
 2365 0e86 15       		.uleb128 0x15
 2366 0e87 3D040000 		.4byte	0x43d
 2367 0e8b 2E       		.byte	0x2e
 2368 0e8c 00       		.byte	0
 2369 0e8d 0D       		.uleb128 0xd
 2370 0e8e 7D0E0000 		.4byte	0xe7d
 2371 0e92 14       		.uleb128 0x14
 2372 0e93 690A0000 		.4byte	0xa69
 2373 0e97 A20E0000 		.4byte	0xea2
 2374 0e9b 15       		.uleb128 0x15
 2375 0e9c 3D040000 		.4byte	0x43d
 2376 0ea0 0F       		.byte	0xf
 2377 0ea1 00       		.byte	0
 2378 0ea2 14       		.uleb128 0x14
ARM GAS  C:\Users\ADMINI~1\AppData\Local\Temp\ccuylufO.s 			page 43


 2379 0ea3 CE000000 		.4byte	0xce
 2380 0ea7 B20E0000 		.4byte	0xeb2
 2381 0eab 15       		.uleb128 0x15
 2382 0eac 3D040000 		.4byte	0x43d
 2383 0eb0 3F       		.byte	0x3f
 2384 0eb1 00       		.byte	0
 2385 0eb2 0D       		.uleb128 0xd
 2386 0eb3 A20E0000 		.4byte	0xea2
 2387 0eb7 14       		.uleb128 0x14
 2388 0eb8 CE000000 		.4byte	0xce
 2389 0ebc C70E0000 		.4byte	0xec7
 2390 0ec0 15       		.uleb128 0x15
 2391 0ec1 3D040000 		.4byte	0x43d
 2392 0ec5 0F       		.byte	0xf
 2393 0ec6 00       		.byte	0
 2394 0ec7 0D       		.uleb128 0xd
 2395 0ec8 B70E0000 		.4byte	0xeb7
 2396 0ecc 0D       		.uleb128 0xd
 2397 0ecd B70E0000 		.4byte	0xeb7
 2398 0ed1 0D       		.uleb128 0xd
 2399 0ed2 B70E0000 		.4byte	0xeb7
 2400 0ed6 14       		.uleb128 0x14
 2401 0ed7 DD0A0000 		.4byte	0xadd
 2402 0edb E60E0000 		.4byte	0xee6
 2403 0edf 15       		.uleb128 0x15
 2404 0ee0 3D040000 		.4byte	0x43d
 2405 0ee4 0F       		.byte	0xf
 2406 0ee5 00       		.byte	0
 2407 0ee6 14       		.uleb128 0x14
 2408 0ee7 510B0000 		.4byte	0xb51
 2409 0eeb F60E0000 		.4byte	0xef6
 2410 0eef 15       		.uleb128 0x15
 2411 0ef0 3D040000 		.4byte	0x43d
 2412 0ef4 0F       		.byte	0xf
 2413 0ef5 00       		.byte	0
 2414 0ef6 0D       		.uleb128 0xd
 2415 0ef7 A20E0000 		.4byte	0xea2
 2416 0efb 14       		.uleb128 0x14
 2417 0efc CE000000 		.4byte	0xce
 2418 0f00 0B0F0000 		.4byte	0xf0b
 2419 0f04 15       		.uleb128 0x15
 2420 0f05 3D040000 		.4byte	0x43d
 2421 0f09 7E       		.byte	0x7e
 2422 0f0a 00       		.byte	0
 2423 0f0b 0D       		.uleb128 0xd
 2424 0f0c FB0E0000 		.4byte	0xefb
 2425 0f10 14       		.uleb128 0x14
 2426 0f11 CE000000 		.4byte	0xce
 2427 0f15 270F0000 		.4byte	0xf27
 2428 0f19 15       		.uleb128 0x15
 2429 0f1a 3D040000 		.4byte	0x43d
 2430 0f1e 0F       		.byte	0xf
 2431 0f1f 20       		.uleb128 0x20
 2432 0f20 3D040000 		.4byte	0x43d
 2433 0f24 FF03     		.2byte	0x3ff
 2434 0f26 00       		.byte	0
 2435 0f27 0D       		.uleb128 0xd
ARM GAS  C:\Users\ADMINI~1\AppData\Local\Temp\ccuylufO.s 			page 44


 2436 0f28 100F0000 		.4byte	0xf10
 2437 0f2c 03       		.uleb128 0x3
 2438 0f2d 6E080000 		.4byte	.LASF211
 2439 0f31 0E       		.byte	0xe
 2440 0f32 B6       		.byte	0xb6
 2441 0f33 5C0B0000 		.4byte	0xb5c
 2442 0f37 08       		.uleb128 0x8
 2443 0f38 0C       		.byte	0xc
 2444 0f39 0D       		.byte	0xd
 2445 0f3a C1       		.byte	0xc1
 2446 0f3b 640F0000 		.4byte	0xf64
 2447 0f3f 06       		.uleb128 0x6
 2448 0f40 2D040000 		.4byte	.LASF212
 2449 0f44 0D       		.byte	0xd
 2450 0f45 C2       		.byte	0xc2
 2451 0f46 CE000000 		.4byte	0xce
 2452 0f4a 00       		.byte	0
 2453 0f4b 06       		.uleb128 0x6
 2454 0f4c 71010000 		.4byte	.LASF213
 2455 0f50 0D       		.byte	0xd
 2456 0f51 C3       		.byte	0xc3
 2457 0f52 CE000000 		.4byte	0xce
 2458 0f56 04       		.byte	0x4
 2459 0f57 06       		.uleb128 0x6
 2460 0f58 3E020000 		.4byte	.LASF214
 2461 0f5c 0D       		.byte	0xd
 2462 0f5d C4       		.byte	0xc4
 2463 0f5e CE000000 		.4byte	0xce
 2464 0f62 08       		.byte	0x8
 2465 0f63 00       		.byte	0
 2466 0f64 03       		.uleb128 0x3
 2467 0f65 E3050000 		.4byte	.LASF215
 2468 0f69 0D       		.byte	0xd
 2469 0f6a C5       		.byte	0xc5
 2470 0f6b 370F0000 		.4byte	0xf37
 2471 0f6f 08       		.uleb128 0x8
 2472 0f70 04       		.byte	0x4
 2473 0f71 0D       		.byte	0xd
 2474 0f72 D8       		.byte	0xd8
 2475 0f73 840F0000 		.4byte	0xf84
 2476 0f77 06       		.uleb128 0x6
 2477 0f78 50090000 		.4byte	.LASF216
 2478 0f7c 0D       		.byte	0xd
 2479 0f7d DC       		.byte	0xdc
 2480 0f7e 2E060000 		.4byte	0x62e
 2481 0f82 00       		.byte	0
 2482 0f83 00       		.byte	0
 2483 0f84 08       		.uleb128 0x8
 2484 0f85 04       		.byte	0x4
 2485 0f86 0D       		.byte	0xd
 2486 0f87 DE       		.byte	0xde
 2487 0f88 990F0000 		.4byte	0xf99
 2488 0f8c 06       		.uleb128 0x6
 2489 0f8d A1090000 		.4byte	.LASF217
 2490 0f91 0D       		.byte	0xd
 2491 0f92 E2       		.byte	0xe2
 2492 0f93 990F0000 		.4byte	0xf99
ARM GAS  C:\Users\ADMINI~1\AppData\Local\Temp\ccuylufO.s 			page 45


 2493 0f97 00       		.byte	0
 2494 0f98 00       		.byte	0
 2495 0f99 09       		.uleb128 0x9
 2496 0f9a 04       		.byte	0x4
 2497 0f9b 0A060000 		.4byte	0x60a
 2498 0f9f 0E       		.uleb128 0xe
 2499 0fa0 04       		.byte	0x4
 2500 0fa1 0D       		.byte	0xd
 2501 0fa2 D7       		.byte	0xd7
 2502 0fa3 BE0F0000 		.4byte	0xfbe
 2503 0fa7 0F       		.uleb128 0xf
 2504 0fa8 94030000 		.4byte	.LASF218
 2505 0fac 0D       		.byte	0xd
 2506 0fad DD       		.byte	0xdd
 2507 0fae 6F0F0000 		.4byte	0xf6f
 2508 0fb2 0F       		.uleb128 0xf
 2509 0fb3 710A0000 		.4byte	.LASF219
 2510 0fb7 0D       		.byte	0xd
 2511 0fb8 E3       		.byte	0xe3
 2512 0fb9 840F0000 		.4byte	0xf84
 2513 0fbd 00       		.byte	0
 2514 0fbe 08       		.uleb128 0x8
 2515 0fbf 14       		.byte	0x14
 2516 0fc0 0D       		.byte	0xd
 2517 0fc1 CA       		.byte	0xca
 2518 0fc2 03100000 		.4byte	0x1003
 2519 0fc6 06       		.uleb128 0x6
 2520 0fc7 63070000 		.4byte	.LASF220
 2521 0fcb 0D       		.byte	0xd
 2522 0fcc CE       		.byte	0xce
 2523 0fcd E4000000 		.4byte	0xe4
 2524 0fd1 00       		.byte	0
 2525 0fd2 06       		.uleb128 0x6
 2526 0fd3 50000000 		.4byte	.LASF221
 2527 0fd7 0D       		.byte	0xd
 2528 0fd8 D2       		.byte	0xd2
 2529 0fd9 2C000000 		.4byte	0x2c
 2530 0fdd 04       		.byte	0x4
 2531 0fde 06       		.uleb128 0x6
 2532 0fdf 52030000 		.4byte	.LASF222
 2533 0fe3 0D       		.byte	0xd
 2534 0fe4 D6       		.byte	0xd6
 2535 0fe5 2C000000 		.4byte	0x2c
 2536 0fe9 08       		.byte	0x8
 2537 0fea 06       		.uleb128 0x6
 2538 0feb C5010000 		.4byte	.LASF223
 2539 0fef 0D       		.byte	0xd
 2540 0ff0 E4       		.byte	0xe4
 2541 0ff1 9F0F0000 		.4byte	0xf9f
 2542 0ff5 0C       		.byte	0xc
 2543 0ff6 06       		.uleb128 0x6
 2544 0ff7 EE0A0000 		.4byte	.LASF224
 2545 0ffb 0D       		.byte	0xd
 2546 0ffc E8       		.byte	0xe8
 2547 0ffd 2C000000 		.4byte	0x2c
 2548 1001 10       		.byte	0x10
 2549 1002 00       		.byte	0
ARM GAS  C:\Users\ADMINI~1\AppData\Local\Temp\ccuylufO.s 			page 46


 2550 1003 03       		.uleb128 0x3
 2551 1004 BD0B0000 		.4byte	.LASF225
 2552 1008 0D       		.byte	0xd
 2553 1009 E9       		.byte	0xe9
 2554 100a BE0F0000 		.4byte	0xfbe
 2555 100e 08       		.uleb128 0x8
 2556 100f 04       		.byte	0x4
 2557 1010 0D       		.byte	0xd
 2558 1011 FC       		.byte	0xfc
 2559 1012 24100000 		.4byte	0x1024
 2560 1016 17       		.uleb128 0x17
 2561 1017 FD0C0000 		.4byte	.LASF226
 2562 101b 0D       		.byte	0xd
 2563 101c 0001     		.2byte	0x100
 2564 101e F9050000 		.4byte	0x5f9
 2565 1022 00       		.byte	0
 2566 1023 00       		.byte	0
 2567 1024 1C       		.uleb128 0x1c
 2568 1025 04       		.byte	0x4
 2569 1026 0D       		.byte	0xd
 2570 1027 0201     		.2byte	0x102
 2571 1029 3B100000 		.4byte	0x103b
 2572 102d 17       		.uleb128 0x17
 2573 102e 2E080000 		.4byte	.LASF227
 2574 1032 0D       		.byte	0xd
 2575 1033 0601     		.2byte	0x106
 2576 1035 3B100000 		.4byte	0x103b
 2577 1039 00       		.byte	0
 2578 103a 00       		.byte	0
 2579 103b 09       		.uleb128 0x9
 2580 103c 04       		.byte	0x4
 2581 103d FF050000 		.4byte	0x5ff
 2582 1041 0E       		.uleb128 0xe
 2583 1042 04       		.byte	0x4
 2584 1043 0D       		.byte	0xd
 2585 1044 FB       		.byte	0xfb
 2586 1045 62100000 		.4byte	0x1062
 2587 1049 21       		.uleb128 0x21
 2588 104a 94030000 		.4byte	.LASF218
 2589 104e 0D       		.byte	0xd
 2590 104f 0101     		.2byte	0x101
 2591 1051 0E100000 		.4byte	0x100e
 2592 1055 21       		.uleb128 0x21
 2593 1056 710A0000 		.4byte	.LASF219
 2594 105a 0D       		.byte	0xd
 2595 105b 0701     		.2byte	0x107
 2596 105d 24100000 		.4byte	0x1024
 2597 1061 00       		.byte	0
 2598 1062 08       		.uleb128 0x8
 2599 1063 14       		.byte	0x14
 2600 1064 0D       		.byte	0xd
 2601 1065 EE       		.byte	0xee
 2602 1066 A9100000 		.4byte	0x10a9
 2603 106a 06       		.uleb128 0x6
 2604 106b 5E0A0000 		.4byte	.LASF228
 2605 106f 0D       		.byte	0xd
 2606 1070 F2       		.byte	0xf2
ARM GAS  C:\Users\ADMINI~1\AppData\Local\Temp\ccuylufO.s 			page 47


 2607 1071 E4000000 		.4byte	0xe4
 2608 1075 00       		.byte	0
 2609 1076 06       		.uleb128 0x6
 2610 1077 1A020000 		.4byte	.LASF229
 2611 107b 0D       		.byte	0xd
 2612 107c F6       		.byte	0xf6
 2613 107d 2C000000 		.4byte	0x2c
 2614 1081 04       		.byte	0x4
 2615 1082 06       		.uleb128 0x6
 2616 1083 490C0000 		.4byte	.LASF230
 2617 1087 0D       		.byte	0xd
 2618 1088 FA       		.byte	0xfa
 2619 1089 2C000000 		.4byte	0x2c
 2620 108d 08       		.byte	0x8
 2621 108e 17       		.uleb128 0x17
 2622 108f C5010000 		.4byte	.LASF223
 2623 1093 0D       		.byte	0xd
 2624 1094 0801     		.2byte	0x108
 2625 1096 41100000 		.4byte	0x1041
 2626 109a 0C       		.byte	0xc
 2627 109b 17       		.uleb128 0x17
 2628 109c EE0A0000 		.4byte	.LASF224
 2629 10a0 0D       		.byte	0xd
 2630 10a1 0C01     		.2byte	0x10c
 2631 10a3 2C000000 		.4byte	0x2c
 2632 10a7 10       		.byte	0x10
 2633 10a8 00       		.byte	0
 2634 10a9 1B       		.uleb128 0x1b
 2635 10aa F2080000 		.4byte	.LASF231
 2636 10ae 0D       		.byte	0xd
 2637 10af 0D01     		.2byte	0x10d
 2638 10b1 62100000 		.4byte	0x1062
 2639 10b5 1C       		.uleb128 0x1c
 2640 10b6 24       		.byte	0x24
 2641 10b7 0D       		.byte	0xd
 2642 10b8 1301     		.2byte	0x113
 2643 10ba 41110000 		.4byte	0x1141
 2644 10be 17       		.uleb128 0x17
 2645 10bf 7E010000 		.4byte	.LASF232
 2646 10c3 0D       		.byte	0xd
 2647 10c4 1701     		.2byte	0x117
 2648 10c6 CE000000 		.4byte	0xce
 2649 10ca 00       		.byte	0
 2650 10cb 17       		.uleb128 0x17
 2651 10cc 000B0000 		.4byte	.LASF233
 2652 10d0 0D       		.byte	0xd
 2653 10d1 2201     		.2byte	0x122
 2654 10d3 60090000 		.4byte	0x960
 2655 10d7 04       		.byte	0x4
 2656 10d8 17       		.uleb128 0x17
 2657 10d9 76050000 		.4byte	.LASF234
 2658 10dd 0D       		.byte	0xd
 2659 10de 2801     		.2byte	0x128
 2660 10e0 60090000 		.4byte	0x960
 2661 10e4 08       		.byte	0x8
 2662 10e5 17       		.uleb128 0x17
 2663 10e6 B6030000 		.4byte	.LASF235
ARM GAS  C:\Users\ADMINI~1\AppData\Local\Temp\ccuylufO.s 			page 48


 2664 10ea 0D       		.byte	0xd
 2665 10eb 2E01     		.2byte	0x12e
 2666 10ed 60090000 		.4byte	0x960
 2667 10f1 0C       		.byte	0xc
 2668 10f2 17       		.uleb128 0x17
 2669 10f3 780C0000 		.4byte	.LASF236
 2670 10f7 0D       		.byte	0xd
 2671 10f8 3401     		.2byte	0x134
 2672 10fa B8000000 		.4byte	0xb8
 2673 10fe 10       		.byte	0x10
 2674 10ff 17       		.uleb128 0x17
 2675 1100 9B0B0000 		.4byte	.LASF237
 2676 1104 0D       		.byte	0xd
 2677 1105 3A01     		.2byte	0x13a
 2678 1107 B8000000 		.4byte	0xb8
 2679 110b 12       		.byte	0x12
 2680 110c 17       		.uleb128 0x17
 2681 110d 1D050000 		.4byte	.LASF238
 2682 1111 0D       		.byte	0xd
 2683 1112 3F01     		.2byte	0x13f
 2684 1114 41110000 		.4byte	0x1141
 2685 1118 14       		.byte	0x14
 2686 1119 17       		.uleb128 0x17
 2687 111a 3D070000 		.4byte	.LASF239
 2688 111e 0D       		.byte	0xd
 2689 111f 4401     		.2byte	0x144
 2690 1121 47110000 		.4byte	0x1147
 2691 1125 18       		.byte	0x18
 2692 1126 17       		.uleb128 0x17
 2693 1127 190C0000 		.4byte	.LASF240
 2694 112b 0D       		.byte	0xd
 2695 112c 4B01     		.2byte	0x14b
 2696 112e B8000000 		.4byte	0xb8
 2697 1132 1C       		.byte	0x1c
 2698 1133 17       		.uleb128 0x17
 2699 1134 E9070000 		.4byte	.LASF241
 2700 1138 0D       		.byte	0xd
 2701 1139 5101     		.2byte	0x151
 2702 113b F9050000 		.4byte	0x5f9
 2703 113f 20       		.byte	0x20
 2704 1140 00       		.byte	0
 2705 1141 09       		.uleb128 0x9
 2706 1142 04       		.byte	0x4
 2707 1143 03100000 		.4byte	0x1003
 2708 1147 09       		.uleb128 0x9
 2709 1148 04       		.byte	0x4
 2710 1149 A9100000 		.4byte	0x10a9
 2711 114d 1B       		.uleb128 0x1b
 2712 114e 6D030000 		.4byte	.LASF242
 2713 1152 0D       		.byte	0xd
 2714 1153 5201     		.2byte	0x152
 2715 1155 B5100000 		.4byte	0x10b5
 2716 1159 1C       		.uleb128 0x1c
 2717 115a 10       		.byte	0x10
 2718 115b 0D       		.byte	0xd
 2719 115c 5701     		.2byte	0x157
 2720 115e 97110000 		.4byte	0x1197
ARM GAS  C:\Users\ADMINI~1\AppData\Local\Temp\ccuylufO.s 			page 49


 2721 1162 17       		.uleb128 0x17
 2722 1163 920B0000 		.4byte	.LASF243
 2723 1167 0D       		.byte	0xd
 2724 1168 5C01     		.2byte	0x15c
 2725 116a 82090000 		.4byte	0x982
 2726 116e 00       		.byte	0
 2727 116f 17       		.uleb128 0x17
 2728 1170 140B0000 		.4byte	.LASF244
 2729 1174 0D       		.byte	0xd
 2730 1175 6101     		.2byte	0x161
 2731 1177 C5090000 		.4byte	0x9c5
 2732 117b 04       		.byte	0x4
 2733 117c 17       		.uleb128 0x17
 2734 117d CE000000 		.4byte	.LASF245
 2735 1181 0D       		.byte	0xd
 2736 1182 6701     		.2byte	0x167
 2737 1184 A4090000 		.4byte	0x9a4
 2738 1188 08       		.byte	0x8
 2739 1189 17       		.uleb128 0x17
 2740 118a 7E070000 		.4byte	.LASF246
 2741 118e 0D       		.byte	0xd
 2742 118f 6B01     		.2byte	0x16b
 2743 1191 3D090000 		.4byte	0x93d
 2744 1195 0C       		.byte	0xc
 2745 1196 00       		.byte	0
 2746 1197 1B       		.uleb128 0x1b
 2747 1198 4C080000 		.4byte	.LASF247
 2748 119c 0D       		.byte	0xd
 2749 119d 6D01     		.2byte	0x16d
 2750 119f 59110000 		.4byte	0x1159
 2751 11a3 09       		.uleb128 0x9
 2752 11a4 04       		.byte	0x4
 2753 11a5 A9110000 		.4byte	0x11a9
 2754 11a9 10       		.uleb128 0x10
 2755 11aa 97110000 		.4byte	0x1197
 2756 11ae 14       		.uleb128 0x14
 2757 11af BE110000 		.4byte	0x11be
 2758 11b3 BE110000 		.4byte	0x11be
 2759 11b7 15       		.uleb128 0x15
 2760 11b8 3D040000 		.4byte	0x43d
 2761 11bc 03       		.byte	0x3
 2762 11bd 00       		.byte	0
 2763 11be 09       		.uleb128 0x9
 2764 11bf 04       		.byte	0x4
 2765 11c0 C4110000 		.4byte	0x11c4
 2766 11c4 10       		.uleb128 0x10
 2767 11c5 4D110000 		.4byte	0x114d
 2768 11c9 14       		.uleb128 0x14
 2769 11ca BE020000 		.4byte	0x2be
 2770 11ce D9110000 		.4byte	0x11d9
 2771 11d2 15       		.uleb128 0x15
 2772 11d3 3D040000 		.4byte	0x43d
 2773 11d7 02       		.byte	0x2
 2774 11d8 00       		.byte	0
 2775 11d9 09       		.uleb128 0x9
 2776 11da 04       		.byte	0x4
 2777 11db 2C0F0000 		.4byte	0xf2c
ARM GAS  C:\Users\ADMINI~1\AppData\Local\Temp\ccuylufO.s 			page 50


 2778 11df 09       		.uleb128 0x9
 2779 11e0 04       		.byte	0x4
 2780 11e1 E5110000 		.4byte	0x11e5
 2781 11e5 10       		.uleb128 0x10
 2782 11e6 640F0000 		.4byte	0xf64
 2783 11ea 14       		.uleb128 0x14
 2784 11eb C0020000 		.4byte	0x2c0
 2785 11ef FA110000 		.4byte	0x11fa
 2786 11f3 15       		.uleb128 0x15
 2787 11f4 3D040000 		.4byte	0x43d
 2788 11f8 42       		.byte	0x42
 2789 11f9 00       		.byte	0
 2790 11fa 14       		.uleb128 0x14
 2791 11fb AD000000 		.4byte	0xad
 2792 11ff 0A120000 		.4byte	0x120a
 2793 1203 15       		.uleb128 0x15
 2794 1204 3D040000 		.4byte	0x43d
 2795 1208 03       		.byte	0x3
 2796 1209 00       		.byte	0
 2797 120a 18       		.uleb128 0x18
 2798 120b 01       		.byte	0x1
 2799 120c 0F       		.byte	0xf
 2800 120d 83       		.byte	0x83
 2801 120e 25120000 		.4byte	0x1225
 2802 1212 19       		.uleb128 0x19
 2803 1213 AB050000 		.4byte	.LASF248
 2804 1217 00       		.sleb128 0
 2805 1218 19       		.uleb128 0x19
 2806 1219 B5040000 		.4byte	.LASF249
 2807 121d 01       		.sleb128 1
 2808 121e 19       		.uleb128 0x19
 2809 121f 0C000000 		.4byte	.LASF250
 2810 1223 02       		.sleb128 2
 2811 1224 00       		.byte	0
 2812 1225 03       		.uleb128 0x3
 2813 1226 4F070000 		.4byte	.LASF251
 2814 122a 0F       		.byte	0xf
 2815 122b 87       		.byte	0x87
 2816 122c 0A120000 		.4byte	0x120a
 2817 1230 03       		.uleb128 0x3
 2818 1231 37000000 		.4byte	.LASF252
 2819 1235 0F       		.byte	0xf
 2820 1236 8C       		.byte	0x8c
 2821 1237 3B120000 		.4byte	0x123b
 2822 123b 22       		.uleb128 0x22
 2823 123c 37000000 		.4byte	.LASF252
 2824 1240 5802     		.2byte	0x258
 2825 1242 0F       		.byte	0xf
 2826 1243 CF       		.byte	0xcf
 2827 1244 A9120000 		.4byte	0x12a9
 2828 1248 07       		.uleb128 0x7
 2829 1249 766D7400 		.ascii	"vmt\000"
 2830 124d 0F       		.byte	0xf
 2831 124e D1       		.byte	0xd1
 2832 124f 5A130000 		.4byte	0x135a
 2833 1253 00       		.byte	0
 2834 1254 06       		.uleb128 0x6
ARM GAS  C:\Users\ADMINI~1\AppData\Local\Temp\ccuylufO.s 			page 51


 2835 1255 E5020000 		.4byte	.LASF253
 2836 1259 0F       		.byte	0xf
 2837 125a D2       		.byte	0xd2
 2838 125b F2040000 		.4byte	0x4f2
 2839 125f 04       		.byte	0x4
 2840 1260 06       		.uleb128 0x6
 2841 1261 540B0000 		.4byte	.LASF87
 2842 1265 0F       		.byte	0xf
 2843 1266 D2       		.byte	0xd2
 2844 1267 25120000 		.4byte	0x1225
 2845 126b 08       		.byte	0x8
 2846 126c 06       		.uleb128 0x6
 2847 126d 95020000 		.4byte	.LASF254
 2848 1271 0F       		.byte	0xf
 2849 1272 D2       		.byte	0xd2
 2850 1273 FF050000 		.4byte	0x5ff
 2851 1277 0C       		.byte	0xc
 2852 1278 06       		.uleb128 0x6
 2853 1279 56080000 		.4byte	.LASF255
 2854 127d 0F       		.byte	0xf
 2855 127e D2       		.byte	0xd2
 2856 127f 0A060000 		.4byte	0x60a
 2857 1283 30       		.byte	0x30
 2858 1284 07       		.uleb128 0x7
 2859 1285 696200   		.ascii	"ib\000"
 2860 1288 0F       		.byte	0xf
 2861 1289 D2       		.byte	0xd2
 2862 128a 65130000 		.4byte	0x1365
 2863 128e 54       		.byte	0x54
 2864 128f 1F       		.uleb128 0x1f
 2865 1290 6F6200   		.ascii	"ob\000"
 2866 1293 0F       		.byte	0xf
 2867 1294 D2       		.byte	0xd2
 2868 1295 65130000 		.4byte	0x1365
 2869 1299 5401     		.2byte	0x154
 2870 129b 1E       		.uleb128 0x1e
 2871 129c B2080000 		.4byte	.LASF88
 2872 12a0 0F       		.byte	0xf
 2873 12a1 D2       		.byte	0xd2
 2874 12a2 75130000 		.4byte	0x1375
 2875 12a6 5402     		.2byte	0x254
 2876 12a8 00       		.byte	0
 2877 12a9 08       		.uleb128 0x8
 2878 12aa 08       		.byte	0x8
 2879 12ab 0F       		.byte	0xf
 2880 12ac 93       		.byte	0x93
 2881 12ad E2120000 		.4byte	0x12e2
 2882 12b1 06       		.uleb128 0x6
 2883 12b2 85070000 		.4byte	.LASF256
 2884 12b6 0F       		.byte	0xf
 2885 12b7 97       		.byte	0x97
 2886 12b8 5A090000 		.4byte	0x95a
 2887 12bc 00       		.byte	0
 2888 12bd 06       		.uleb128 0x6
 2889 12be 35090000 		.4byte	.LASF257
 2890 12c2 0F       		.byte	0xf
 2891 12c3 9B       		.byte	0x9b
ARM GAS  C:\Users\ADMINI~1\AppData\Local\Temp\ccuylufO.s 			page 52


 2892 12c4 56080000 		.4byte	0x856
 2893 12c8 04       		.byte	0x4
 2894 12c9 06       		.uleb128 0x6
 2895 12ca 6E000000 		.4byte	.LASF258
 2896 12ce 0F       		.byte	0xf
 2897 12cf 9F       		.byte	0x9f
 2898 12d0 56080000 		.4byte	0x856
 2899 12d4 05       		.byte	0x5
 2900 12d5 06       		.uleb128 0x6
 2901 12d6 A20C0000 		.4byte	.LASF259
 2902 12da 0F       		.byte	0xf
 2903 12db A3       		.byte	0xa3
 2904 12dc 56080000 		.4byte	0x856
 2905 12e0 06       		.byte	0x6
 2906 12e1 00       		.byte	0
 2907 12e2 03       		.uleb128 0x3
 2908 12e3 1E030000 		.4byte	.LASF260
 2909 12e7 0F       		.byte	0xf
 2910 12e8 A4       		.byte	0xa4
 2911 12e9 A9120000 		.4byte	0x12a9
 2912 12ed 05       		.uleb128 0x5
 2913 12ee 62040000 		.4byte	.LASF261
 2914 12f2 20       		.byte	0x20
 2915 12f3 0F       		.byte	0xf
 2916 12f4 C4       		.byte	0xc4
 2917 12f5 5A130000 		.4byte	0x135a
 2918 12f9 06       		.uleb128 0x6
 2919 12fa D5050000 		.4byte	.LASF262
 2920 12fe 0F       		.byte	0xf
 2921 12ff C5       		.byte	0xc5
 2922 1300 39060000 		.4byte	0x639
 2923 1304 00       		.byte	0
 2924 1305 06       		.uleb128 0x6
 2925 1306 C1090000 		.4byte	.LASF263
 2926 130a 0F       		.byte	0xf
 2927 130b C5       		.byte	0xc5
 2928 130c 58060000 		.4byte	0x658
 2929 1310 04       		.byte	0x4
 2930 1311 07       		.uleb128 0x7
 2931 1312 70757400 		.ascii	"put\000"
 2932 1316 0F       		.byte	0xf
 2933 1317 C5       		.byte	0xc5
 2934 1318 72060000 		.4byte	0x672
 2935 131c 08       		.byte	0x8
 2936 131d 07       		.uleb128 0x7
 2937 131e 67657400 		.ascii	"get\000"
 2938 1322 0F       		.byte	0xf
 2939 1323 C5       		.byte	0xc5
 2940 1324 4A050000 		.4byte	0x54a
 2941 1328 0C       		.byte	0xc
 2942 1329 06       		.uleb128 0x6
 2943 132a F6030000 		.4byte	.LASF264
 2944 132e 0F       		.byte	0xf
 2945 132f C5       		.byte	0xc5
 2946 1330 A6060000 		.4byte	0x6a6
 2947 1334 10       		.byte	0x10
 2948 1335 06       		.uleb128 0x6
ARM GAS  C:\Users\ADMINI~1\AppData\Local\Temp\ccuylufO.s 			page 53


 2949 1336 020A0000 		.4byte	.LASF265
 2950 133a 0F       		.byte	0xf
 2951 133b C5       		.byte	0xc5
 2952 133c C0060000 		.4byte	0x6c0
 2953 1340 14       		.byte	0x14
 2954 1341 06       		.uleb128 0x6
 2955 1342 21020000 		.4byte	.LASF266
 2956 1346 0F       		.byte	0xf
 2957 1347 C5       		.byte	0xc5
 2958 1348 E4060000 		.4byte	0x6e4
 2959 134c 18       		.byte	0x18
 2960 134d 06       		.uleb128 0x6
 2961 134e 63010000 		.4byte	.LASF267
 2962 1352 0F       		.byte	0xf
 2963 1353 C5       		.byte	0xc5
 2964 1354 08070000 		.4byte	0x708
 2965 1358 1C       		.byte	0x1c
 2966 1359 00       		.byte	0
 2967 135a 09       		.uleb128 0x9
 2968 135b 04       		.byte	0x4
 2969 135c 60130000 		.4byte	0x1360
 2970 1360 10       		.uleb128 0x10
 2971 1361 ED120000 		.4byte	0x12ed
 2972 1365 14       		.uleb128 0x14
 2973 1366 AD000000 		.4byte	0xad
 2974 136a 75130000 		.4byte	0x1375
 2975 136e 15       		.uleb128 0x15
 2976 136f 3D040000 		.4byte	0x43d
 2977 1373 FF       		.byte	0xff
 2978 1374 00       		.byte	0
 2979 1375 09       		.uleb128 0x9
 2980 1376 04       		.byte	0x4
 2981 1377 7B130000 		.4byte	0x137b
 2982 137b 10       		.uleb128 0x10
 2983 137c E2120000 		.4byte	0x12e2
 2984 1380 23       		.uleb128 0x23
 2985 1381 670A0000 		.4byte	.LASF298
 2986 1385 01       		.byte	0x1
 2987 1386 65       		.byte	0x65
 2988 1387 01       		.byte	0x1
 2989 1388 AE130000 		.4byte	0x13ae
 2990 138c 24       		.uleb128 0x24
 2991 138d 85070000 		.4byte	.LASF256
 2992 1391 01       		.byte	0x1
 2993 1392 65       		.byte	0x65
 2994 1393 5A090000 		.4byte	0x95a
 2995 1397 24       		.uleb128 0x24
 2996 1398 E5020000 		.4byte	.LASF253
 2997 139c 01       		.byte	0x1
 2998 139d 65       		.byte	0x65
 2999 139e 01090000 		.4byte	0x901
 3000 13a2 25       		.uleb128 0x25
 3001 13a3 86000000 		.4byte	.LASF271
 3002 13a7 01       		.byte	0x1
 3003 13a8 66       		.byte	0x66
 3004 13a9 30120000 		.4byte	0x1230
 3005 13ad 00       		.byte	0
ARM GAS  C:\Users\ADMINI~1\AppData\Local\Temp\ccuylufO.s 			page 54


 3006 13ae 26       		.uleb128 0x26
 3007 13af B2090000 		.4byte	.LASF299
 3008 13b3 01       		.byte	0x1
 3009 13b4 20       		.byte	0x20
 3010 13b5 F5090000 		.4byte	0x9f5
 3011 13b9 00000000 		.4byte	.LFB118
 3012 13bd 30000000 		.4byte	.LFE118-.LFB118
 3013 13c1 01       		.uleb128 0x1
 3014 13c2 9C       		.byte	0x9c
 3015 13c3 00140000 		.4byte	0x1400
 3016 13c7 27       		.uleb128 0x27
 3017 13c8 85070000 		.4byte	.LASF256
 3018 13cc 01       		.byte	0x1
 3019 13cd 20       		.byte	0x20
 3020 13ce 5A090000 		.4byte	0x95a
 3021 13d2 00000000 		.4byte	.LLST0
 3022 13d6 28       		.uleb128 0x28
 3023 13d7 84050000 		.4byte	.LASF268
 3024 13db 01       		.byte	0x1
 3025 13dc 21       		.byte	0x21
 3026 13dd AD000000 		.4byte	0xad
 3027 13e1 01       		.uleb128 0x1
 3028 13e2 51       		.byte	0x51
 3029 13e3 28       		.uleb128 0x28
 3030 13e4 75040000 		.4byte	.LASF269
 3031 13e8 01       		.byte	0x1
 3032 13e9 22       		.byte	0x22
 3033 13ea AD000000 		.4byte	0xad
 3034 13ee 01       		.uleb128 0x1
 3035 13ef 52       		.byte	0x52
 3036 13f0 27       		.uleb128 0x27
 3037 13f1 C4080000 		.4byte	.LASF270
 3038 13f5 01       		.byte	0x1
 3039 13f6 23       		.byte	0x23
 3040 13f7 B8000000 		.4byte	0xb8
 3041 13fb 53000000 		.4byte	.LLST1
 3042 13ff 00       		.byte	0
 3043 1400 29       		.uleb128 0x29
 3044 1401 80130000 		.4byte	0x1380
 3045 1405 00000000 		.4byte	.LFB119
 3046 1409 38000000 		.4byte	.LFE119-.LFB119
 3047 140d 01       		.uleb128 0x1
 3048 140e 9C       		.byte	0x9c
 3049 140f B4140000 		.4byte	0x14b4
 3050 1413 2A       		.uleb128 0x2a
 3051 1414 8C130000 		.4byte	0x138c
 3052 1418 74000000 		.4byte	.LLST2
 3053 141c 2A       		.uleb128 0x2a
 3054 141d 97130000 		.4byte	0x1397
 3055 1421 9D000000 		.4byte	.LLST3
 3056 1425 25       		.uleb128 0x25
 3057 1426 86000000 		.4byte	.LASF271
 3058 142a 01       		.byte	0x1
 3059 142b 66       		.byte	0x66
 3060 142c 30120000 		.4byte	0x1230
 3061 1430 2B       		.uleb128 0x2b
 3062 1431 0A000000 		.4byte	.LBB4
ARM GAS  C:\Users\ADMINI~1\AppData\Local\Temp\ccuylufO.s 			page 55


 3063 1435 2E000000 		.4byte	.LBE4-.LBB4
 3064 1439 2A       		.uleb128 0x2a
 3065 143a 97130000 		.4byte	0x1397
 3066 143e C9000000 		.4byte	.LLST4
 3067 1442 2A       		.uleb128 0x2a
 3068 1443 8C130000 		.4byte	0x138c
 3069 1447 DD000000 		.4byte	.LLST5
 3070 144b 2B       		.uleb128 0x2b
 3071 144c 0A000000 		.4byte	.LBB5
 3072 1450 2E000000 		.4byte	.LBE5-.LBB5
 3073 1454 2C       		.uleb128 0x2c
 3074 1455 25140000 		.4byte	0x1425
 3075 1459 2D       		.uleb128 0x2d
 3076 145a 14000000 		.4byte	.LVL10
 3077 145e EA160000 		.4byte	0x16ea
 3078 1462 7B140000 		.4byte	0x147b
 3079 1466 2E       		.uleb128 0x2e
 3080 1467 01       		.uleb128 0x1
 3081 1468 52       		.byte	0x52
 3082 1469 05       		.uleb128 0x5
 3083 146a 03       		.byte	0x3
 3084 146b 00000000 		.4byte	.LANCHOR3
 3085 146f 2E       		.uleb128 0x2e
 3086 1470 01       		.uleb128 0x1
 3087 1471 51       		.byte	0x51
 3088 1472 01       		.uleb128 0x1
 3089 1473 31       		.byte	0x31
 3090 1474 2E       		.uleb128 0x2e
 3091 1475 01       		.uleb128 0x1
 3092 1476 50       		.byte	0x50
 3093 1477 02       		.uleb128 0x2
 3094 1478 75       		.byte	0x75
 3095 1479 00       		.sleb128 0
 3096 147a 00       		.byte	0
 3097 147b 2D       		.uleb128 0x2d
 3098 147c 1E000000 		.4byte	.LVL11
 3099 1480 EA160000 		.4byte	0x16ea
 3100 1484 9E140000 		.4byte	0x149e
 3101 1488 2E       		.uleb128 0x2e
 3102 1489 01       		.uleb128 0x1
 3103 148a 52       		.byte	0x52
 3104 148b 05       		.uleb128 0x5
 3105 148c 03       		.byte	0x3
 3106 148d 00000000 		.4byte	.LANCHOR4
 3107 1491 2E       		.uleb128 0x2e
 3108 1492 01       		.uleb128 0x1
 3109 1493 51       		.byte	0x51
 3110 1494 02       		.uleb128 0x2
 3111 1495 74       		.byte	0x74
 3112 1496 00       		.sleb128 0
 3113 1497 2E       		.uleb128 0x2e
 3114 1498 01       		.uleb128 0x1
 3115 1499 50       		.byte	0x50
 3116 149a 02       		.uleb128 0x2
 3117 149b 75       		.byte	0x75
 3118 149c 00       		.sleb128 0
 3119 149d 00       		.byte	0
ARM GAS  C:\Users\ADMINI~1\AppData\Local\Temp\ccuylufO.s 			page 56


 3120 149e 2F       		.uleb128 0x2f
 3121 149f 24000000 		.4byte	.LVL12
 3122 14a3 06170000 		.4byte	0x1706
 3123 14a7 2E       		.uleb128 0x2e
 3124 14a8 01       		.uleb128 0x1
 3125 14a9 50       		.byte	0x50
 3126 14aa 05       		.uleb128 0x5
 3127 14ab 03       		.byte	0x3
 3128 14ac 00000000 		.4byte	.LANCHOR5
 3129 14b0 00       		.byte	0
 3130 14b1 00       		.byte	0
 3131 14b2 00       		.byte	0
 3132 14b3 00       		.byte	0
 3133 14b4 30       		.uleb128 0x30
 3134 14b5 640C0000 		.4byte	.LASF300
 3135 14b9 01       		.byte	0x1
 3136 14ba 99       		.byte	0x99
 3137 14bb 25000000 		.4byte	0x25
 3138 14bf 00000000 		.4byte	.LFB120
 3139 14c3 1C000000 		.4byte	.LFE120-.LFB120
 3140 14c7 01       		.uleb128 0x1
 3141 14c8 9C       		.byte	0x9c
 3142 14c9 31       		.uleb128 0x31
 3143 14ca AB010000 		.4byte	.LASF301
 3144 14ce 01       		.byte	0x1
 3145 14cf 9D       		.byte	0x9d
 3146 14d0 00000000 		.4byte	.LFB121
 3147 14d4 4C000000 		.4byte	.LFE121-.LFB121
 3148 14d8 01       		.uleb128 0x1
 3149 14d9 9C       		.byte	0x9c
 3150 14da 3E150000 		.4byte	0x153e
 3151 14de 2D       		.uleb128 0x2d
 3152 14df 0C000000 		.4byte	.LVL14
 3153 14e3 1D170000 		.4byte	0x171d
 3154 14e7 F2140000 		.4byte	0x14f2
 3155 14eb 2E       		.uleb128 0x2e
 3156 14ec 01       		.uleb128 0x1
 3157 14ed 50       		.byte	0x50
 3158 14ee 02       		.uleb128 0x2
 3159 14ef 75       		.byte	0x75
 3160 14f0 00       		.sleb128 0
 3161 14f1 00       		.byte	0
 3162 14f2 2D       		.uleb128 0x2d
 3163 14f3 14000000 		.4byte	.LVL15
 3164 14f7 2E170000 		.4byte	0x172e
 3165 14fb 0F150000 		.4byte	0x150f
 3166 14ff 2E       		.uleb128 0x2e
 3167 1500 01       		.uleb128 0x1
 3168 1501 51       		.byte	0x51
 3169 1502 05       		.uleb128 0x5
 3170 1503 03       		.byte	0x3
 3171 1504 00000000 		.4byte	.LANCHOR6
 3172 1508 2E       		.uleb128 0x2e
 3173 1509 01       		.uleb128 0x1
 3174 150a 50       		.byte	0x50
 3175 150b 02       		.uleb128 0x2
 3176 150c 75       		.byte	0x75
ARM GAS  C:\Users\ADMINI~1\AppData\Local\Temp\ccuylufO.s 			page 57


 3177 150d 00       		.sleb128 0
 3178 150e 00       		.byte	0
 3179 150f 2D       		.uleb128 0x2d
 3180 1510 26000000 		.4byte	.LVL16
 3181 1514 44170000 		.4byte	0x1744
 3182 1518 24150000 		.4byte	0x1524
 3183 151c 2E       		.uleb128 0x2e
 3184 151d 01       		.uleb128 0x1
 3185 151e 50       		.byte	0x50
 3186 151f 03       		.uleb128 0x3
 3187 1520 0A       		.byte	0xa
 3188 1521 1027     		.2byte	0x2710
 3189 1523 00       		.byte	0
 3190 1524 2F       		.uleb128 0x2f
 3191 1525 2E000000 		.4byte	.LVL17
 3192 1529 56170000 		.4byte	0x1756
 3193 152d 2E       		.uleb128 0x2e
 3194 152e 01       		.uleb128 0x1
 3195 152f 51       		.byte	0x51
 3196 1530 05       		.uleb128 0x5
 3197 1531 03       		.byte	0x3
 3198 1532 00000000 		.4byte	.LANCHOR7
 3199 1536 2E       		.uleb128 0x2e
 3200 1537 01       		.uleb128 0x1
 3201 1538 50       		.byte	0x50
 3202 1539 02       		.uleb128 0x2
 3203 153a 74       		.byte	0x74
 3204 153b 00       		.sleb128 0
 3205 153c 00       		.byte	0
 3206 153d 00       		.byte	0
 3207 153e 14       		.uleb128 0x14
 3208 153f AD000000 		.4byte	0xad
 3209 1543 4E150000 		.4byte	0x154e
 3210 1547 15       		.uleb128 0x15
 3211 1548 3D040000 		.4byte	0x43d
 3212 154c 11       		.byte	0x11
 3213 154d 00       		.byte	0
 3214 154e 32       		.uleb128 0x32
 3215 154f D2010000 		.4byte	.LASF272
 3216 1553 10       		.byte	0x10
 3217 1554 0E       		.byte	0xe
 3218 1555 5F150000 		.4byte	0x155f
 3219 1559 05       		.uleb128 0x5
 3220 155a 03       		.byte	0x3
 3221 155b 00000000 		.4byte	vcom_device_descriptor_data
 3222 155f 10       		.uleb128 0x10
 3223 1560 3E150000 		.4byte	0x153e
 3224 1564 32       		.uleb128 0x32
 3225 1565 02010000 		.4byte	.LASF273
 3226 1569 10       		.byte	0x10
 3227 156a 20       		.byte	0x20
 3228 156b FB090000 		.4byte	0x9fb
 3229 156f 05       		.uleb128 0x5
 3230 1570 03       		.byte	0x3
 3231 1571 00000000 		.4byte	vcom_device_descriptor
 3232 1575 14       		.uleb128 0x14
 3233 1576 AD000000 		.4byte	0xad
ARM GAS  C:\Users\ADMINI~1\AppData\Local\Temp\ccuylufO.s 			page 58


 3234 157a 85150000 		.4byte	0x1585
 3235 157e 15       		.uleb128 0x15
 3236 157f 3D040000 		.4byte	0x43d
 3237 1583 42       		.byte	0x42
 3238 1584 00       		.byte	0
 3239 1585 32       		.uleb128 0x32
 3240 1586 3A040000 		.4byte	.LASF274
 3241 158a 10       		.byte	0x10
 3242 158b 26       		.byte	0x26
 3243 158c 96150000 		.4byte	0x1596
 3244 1590 05       		.uleb128 0x5
 3245 1591 03       		.byte	0x3
 3246 1592 00000000 		.4byte	vcom_configuration_descriptor_data
 3247 1596 10       		.uleb128 0x10
 3248 1597 75150000 		.4byte	0x1575
 3249 159b 32       		.uleb128 0x32
 3250 159c 83090000 		.4byte	.LASF275
 3251 15a0 10       		.byte	0x10
 3252 15a1 75       		.byte	0x75
 3253 15a2 FB090000 		.4byte	0x9fb
 3254 15a6 05       		.uleb128 0x5
 3255 15a7 03       		.byte	0x3
 3256 15a8 00000000 		.4byte	vcom_configuration_descriptor
 3257 15ac 32       		.uleb128 0x32
 3258 15ad 4C020000 		.4byte	.LASF276
 3259 15b1 10       		.byte	0x10
 3260 15b2 7D       		.byte	0x7d
 3261 15b3 BD150000 		.4byte	0x15bd
 3262 15b7 05       		.uleb128 0x5
 3263 15b8 03       		.byte	0x3
 3264 15b9 00000000 		.4byte	vcom_string0
 3265 15bd 10       		.uleb128 0x10
 3266 15be FA110000 		.4byte	0x11fa
 3267 15c2 14       		.uleb128 0x14
 3268 15c3 AD000000 		.4byte	0xad
 3269 15c7 D2150000 		.4byte	0x15d2
 3270 15cb 15       		.uleb128 0x15
 3271 15cc 3D040000 		.4byte	0x43d
 3272 15d0 25       		.byte	0x25
 3273 15d1 00       		.byte	0
 3274 15d2 32       		.uleb128 0x32
 3275 15d3 59020000 		.4byte	.LASF277
 3276 15d7 10       		.byte	0x10
 3277 15d8 86       		.byte	0x86
 3278 15d9 E3150000 		.4byte	0x15e3
 3279 15dd 05       		.uleb128 0x5
 3280 15de 03       		.byte	0x3
 3281 15df 00000000 		.4byte	vcom_string1
 3282 15e3 10       		.uleb128 0x10
 3283 15e4 C2150000 		.4byte	0x15c2
 3284 15e8 14       		.uleb128 0x14
 3285 15e9 AD000000 		.4byte	0xad
 3286 15ed F8150000 		.4byte	0x15f8
 3287 15f1 15       		.uleb128 0x15
 3288 15f2 3D040000 		.4byte	0x43d
 3289 15f6 37       		.byte	0x37
 3290 15f7 00       		.byte	0
ARM GAS  C:\Users\ADMINI~1\AppData\Local\Temp\ccuylufO.s 			page 59


 3291 15f8 32       		.uleb128 0x32
 3292 15f9 66020000 		.4byte	.LASF278
 3293 15fd 10       		.byte	0x10
 3294 15fe 91       		.byte	0x91
 3295 15ff 09160000 		.4byte	0x1609
 3296 1603 05       		.uleb128 0x5
 3297 1604 03       		.byte	0x3
 3298 1605 00000000 		.4byte	vcom_string2
 3299 1609 10       		.uleb128 0x10
 3300 160a E8150000 		.4byte	0x15e8
 3301 160e 32       		.uleb128 0x32
 3302 160f 73020000 		.4byte	.LASF279
 3303 1613 10       		.byte	0x10
 3304 1614 9D       		.byte	0x9d
 3305 1615 1F160000 		.4byte	0x161f
 3306 1619 05       		.uleb128 0x5
 3307 161a 03       		.byte	0x3
 3308 161b 00000000 		.4byte	vcom_string3
 3309 161f 10       		.uleb128 0x10
 3310 1620 0E070000 		.4byte	0x70e
 3311 1624 14       		.uleb128 0x14
 3312 1625 31090000 		.4byte	0x931
 3313 1629 34160000 		.4byte	0x1634
 3314 162d 15       		.uleb128 0x15
 3315 162e 3D040000 		.4byte	0x43d
 3316 1632 03       		.byte	0x3
 3317 1633 00       		.byte	0
 3318 1634 32       		.uleb128 0x32
 3319 1635 2E030000 		.4byte	.LASF280
 3320 1639 10       		.byte	0x10
 3321 163a A8       		.byte	0xa8
 3322 163b 45160000 		.4byte	0x1645
 3323 163f 05       		.uleb128 0x5
 3324 1640 03       		.byte	0x3
 3325 1641 00000000 		.4byte	vcom_strings
 3326 1645 10       		.uleb128 0x10
 3327 1646 24160000 		.4byte	0x1624
 3328 164a 32       		.uleb128 0x32
 3329 164b AA040000 		.4byte	.LASF281
 3330 164f 01       		.byte	0x1
 3331 1650 36       		.byte	0x36
 3332 1651 03100000 		.4byte	0x1003
 3333 1655 05       		.uleb128 0x5
 3334 1656 03       		.byte	0x3
 3335 1657 00000000 		.4byte	ep1instate
 3336 165b 32       		.uleb128 0x32
 3337 165c 3D090000 		.4byte	.LASF282
 3338 1660 01       		.byte	0x1
 3339 1661 3B       		.byte	0x3b
 3340 1662 A9100000 		.4byte	0x10a9
 3341 1666 05       		.uleb128 0x5
 3342 1667 03       		.byte	0x3
 3343 1668 00000000 		.4byte	ep1outstate
 3344 166c 32       		.uleb128 0x32
 3345 166d 00020000 		.4byte	.LASF283
 3346 1671 01       		.byte	0x1
 3347 1672 40       		.byte	0x40
ARM GAS  C:\Users\ADMINI~1\AppData\Local\Temp\ccuylufO.s 			page 60


 3348 1673 C4110000 		.4byte	0x11c4
 3349 1677 05       		.uleb128 0x5
 3350 1678 03       		.byte	0x3
 3351 1679 00000000 		.4byte	ep1config
 3352 167d 32       		.uleb128 0x32
 3353 167e DD030000 		.4byte	.LASF284
 3354 1682 01       		.byte	0x1
 3355 1683 50       		.byte	0x50
 3356 1684 03100000 		.4byte	0x1003
 3357 1688 05       		.uleb128 0x5
 3358 1689 03       		.byte	0x3
 3359 168a 00000000 		.4byte	ep2instate
 3360 168e 32       		.uleb128 0x32
 3361 168f D3020000 		.4byte	.LASF285
 3362 1693 01       		.byte	0x1
 3363 1694 55       		.byte	0x55
 3364 1695 C4110000 		.4byte	0x11c4
 3365 1699 05       		.uleb128 0x5
 3366 169a 03       		.byte	0x3
 3367 169b 00000000 		.4byte	ep2config
 3368 169f 33       		.uleb128 0x33
 3369 16a0 06090000 		.4byte	.LASF286
 3370 16a4 11       		.byte	0x11
 3371 16a5 9806     		.2byte	0x698
 3372 16a7 88060000 		.4byte	0x688
 3373 16ab 33       		.uleb128 0x33
 3374 16ac B00B0000 		.4byte	.LASF287
 3375 16b0 0D       		.byte	0xd
 3376 16b1 FF01     		.2byte	0x1ff
 3377 16b3 1E070000 		.4byte	0x71e
 3378 16b7 34       		.uleb128 0x34
 3379 16b8 86000000 		.4byte	.LASF271
 3380 16bc 01       		.byte	0x1
 3381 16bd 66       		.byte	0x66
 3382 16be 30120000 		.4byte	0x1230
 3383 16c2 05       		.uleb128 0x5
 3384 16c3 03       		.byte	0x3
 3385 16c4 00000000 		.4byte	SDU1
 3386 16c8 34       		.uleb128 0x34
 3387 16c9 920A0000 		.4byte	.LASF288
 3388 16cd 01       		.byte	0x1
 3389 16ce 88       		.byte	0x88
 3390 16cf A9110000 		.4byte	0x11a9
 3391 16d3 05       		.uleb128 0x5
 3392 16d4 03       		.byte	0x3
 3393 16d5 00000000 		.4byte	usbcfg
 3394 16d9 34       		.uleb128 0x34
 3395 16da FC050000 		.4byte	.LASF289
 3396 16de 01       		.byte	0x1
 3397 16df 92       		.byte	0x92
 3398 16e0 7B130000 		.4byte	0x137b
 3399 16e4 05       		.uleb128 0x5
 3400 16e5 03       		.byte	0x3
 3401 16e6 00000000 		.4byte	serusbcfg
 3402 16ea 35       		.uleb128 0x35
 3403 16eb 1F000000 		.4byte	.LASF290
 3404 16ef 0C       		.byte	0xc
ARM GAS  C:\Users\ADMINI~1\AppData\Local\Temp\ccuylufO.s 			page 61


 3405 16f0 2D02     		.2byte	0x22d
 3406 16f2 06170000 		.4byte	0x1706
 3407 16f6 12       		.uleb128 0x12
 3408 16f7 5A090000 		.4byte	0x95a
 3409 16fb 12       		.uleb128 0x12
 3410 16fc 56080000 		.4byte	0x856
 3411 1700 12       		.uleb128 0x12
 3412 1701 BE110000 		.4byte	0x11be
 3413 1705 00       		.byte	0
 3414 1706 36       		.uleb128 0x36
 3415 1707 A0080000 		.4byte	.LASF291
 3416 170b 0F       		.byte	0xf
 3417 170c E4       		.byte	0xe4
 3418 170d 17170000 		.4byte	0x1717
 3419 1711 12       		.uleb128 0x12
 3420 1712 17170000 		.4byte	0x1717
 3421 1716 00       		.byte	0
 3422 1717 09       		.uleb128 0x9
 3423 1718 04       		.byte	0x4
 3424 1719 30120000 		.4byte	0x1230
 3425 171d 36       		.uleb128 0x36
 3426 171e D00B0000 		.4byte	.LASF292
 3427 1722 0F       		.byte	0xf
 3428 1723 E1       		.byte	0xe1
 3429 1724 2E170000 		.4byte	0x172e
 3430 1728 12       		.uleb128 0x12
 3431 1729 17170000 		.4byte	0x1717
 3432 172d 00       		.byte	0
 3433 172e 36       		.uleb128 0x36
 3434 172f 7A0B0000 		.4byte	.LASF293
 3435 1733 0F       		.byte	0xf
 3436 1734 E2       		.byte	0xe2
 3437 1735 44170000 		.4byte	0x1744
 3438 1739 12       		.uleb128 0x12
 3439 173a 17170000 		.4byte	0x1717
 3440 173e 12       		.uleb128 0x12
 3441 173f 75130000 		.4byte	0x1375
 3442 1743 00       		.byte	0
 3443 1744 35       		.uleb128 0x35
 3444 1745 090B0000 		.4byte	.LASF294
 3445 1749 07       		.byte	0x7
 3446 174a 7501     		.2byte	0x175
 3447 174c 56170000 		.4byte	0x1756
 3448 1750 12       		.uleb128 0x12
 3449 1751 4E010000 		.4byte	0x14e
 3450 1755 00       		.byte	0
 3451 1756 37       		.uleb128 0x37
 3452 1757 B6050000 		.4byte	.LASF302
 3453 175b 0C       		.byte	0xc
 3454 175c 2B02     		.2byte	0x22b
 3455 175e 12       		.uleb128 0x12
 3456 175f 5A090000 		.4byte	0x95a
 3457 1763 12       		.uleb128 0x12
 3458 1764 A3110000 		.4byte	0x11a3
 3459 1768 00       		.byte	0
 3460 1769 00       		.byte	0
 3461              		.section	.debug_abbrev,"",%progbits
ARM GAS  C:\Users\ADMINI~1\AppData\Local\Temp\ccuylufO.s 			page 62


 3462              	.Ldebug_abbrev0:
 3463 0000 01       		.uleb128 0x1
 3464 0001 11       		.uleb128 0x11
 3465 0002 01       		.byte	0x1
 3466 0003 25       		.uleb128 0x25
 3467 0004 0E       		.uleb128 0xe
 3468 0005 13       		.uleb128 0x13
 3469 0006 0B       		.uleb128 0xb
 3470 0007 03       		.uleb128 0x3
 3471 0008 0E       		.uleb128 0xe
 3472 0009 1B       		.uleb128 0x1b
 3473 000a 0E       		.uleb128 0xe
 3474 000b 55       		.uleb128 0x55
 3475 000c 17       		.uleb128 0x17
 3476 000d 11       		.uleb128 0x11
 3477 000e 01       		.uleb128 0x1
 3478 000f 10       		.uleb128 0x10
 3479 0010 17       		.uleb128 0x17
 3480 0011 00       		.byte	0
 3481 0012 00       		.byte	0
 3482 0013 02       		.uleb128 0x2
 3483 0014 24       		.uleb128 0x24
 3484 0015 00       		.byte	0
 3485 0016 0B       		.uleb128 0xb
 3486 0017 0B       		.uleb128 0xb
 3487 0018 3E       		.uleb128 0x3e
 3488 0019 0B       		.uleb128 0xb
 3489 001a 03       		.uleb128 0x3
 3490 001b 08       		.uleb128 0x8
 3491 001c 00       		.byte	0
 3492 001d 00       		.byte	0
 3493 001e 03       		.uleb128 0x3
 3494 001f 16       		.uleb128 0x16
 3495 0020 00       		.byte	0
 3496 0021 03       		.uleb128 0x3
 3497 0022 0E       		.uleb128 0xe
 3498 0023 3A       		.uleb128 0x3a
 3499 0024 0B       		.uleb128 0xb
 3500 0025 3B       		.uleb128 0x3b
 3501 0026 0B       		.uleb128 0xb
 3502 0027 49       		.uleb128 0x49
 3503 0028 13       		.uleb128 0x13
 3504 0029 00       		.byte	0
 3505 002a 00       		.byte	0
 3506 002b 04       		.uleb128 0x4
 3507 002c 24       		.uleb128 0x24
 3508 002d 00       		.byte	0
 3509 002e 0B       		.uleb128 0xb
 3510 002f 0B       		.uleb128 0xb
 3511 0030 3E       		.uleb128 0x3e
 3512 0031 0B       		.uleb128 0xb
 3513 0032 03       		.uleb128 0x3
 3514 0033 0E       		.uleb128 0xe
 3515 0034 00       		.byte	0
 3516 0035 00       		.byte	0
 3517 0036 05       		.uleb128 0x5
 3518 0037 13       		.uleb128 0x13
ARM GAS  C:\Users\ADMINI~1\AppData\Local\Temp\ccuylufO.s 			page 63


 3519 0038 01       		.byte	0x1
 3520 0039 03       		.uleb128 0x3
 3521 003a 0E       		.uleb128 0xe
 3522 003b 0B       		.uleb128 0xb
 3523 003c 0B       		.uleb128 0xb
 3524 003d 3A       		.uleb128 0x3a
 3525 003e 0B       		.uleb128 0xb
 3526 003f 3B       		.uleb128 0x3b
 3527 0040 0B       		.uleb128 0xb
 3528 0041 01       		.uleb128 0x1
 3529 0042 13       		.uleb128 0x13
 3530 0043 00       		.byte	0
 3531 0044 00       		.byte	0
 3532 0045 06       		.uleb128 0x6
 3533 0046 0D       		.uleb128 0xd
 3534 0047 00       		.byte	0
 3535 0048 03       		.uleb128 0x3
 3536 0049 0E       		.uleb128 0xe
 3537 004a 3A       		.uleb128 0x3a
 3538 004b 0B       		.uleb128 0xb
 3539 004c 3B       		.uleb128 0x3b
 3540 004d 0B       		.uleb128 0xb
 3541 004e 49       		.uleb128 0x49
 3542 004f 13       		.uleb128 0x13
 3543 0050 38       		.uleb128 0x38
 3544 0051 0B       		.uleb128 0xb
 3545 0052 00       		.byte	0
 3546 0053 00       		.byte	0
 3547 0054 07       		.uleb128 0x7
 3548 0055 0D       		.uleb128 0xd
 3549 0056 00       		.byte	0
 3550 0057 03       		.uleb128 0x3
 3551 0058 08       		.uleb128 0x8
 3552 0059 3A       		.uleb128 0x3a
 3553 005a 0B       		.uleb128 0xb
 3554 005b 3B       		.uleb128 0x3b
 3555 005c 0B       		.uleb128 0xb
 3556 005d 49       		.uleb128 0x49
 3557 005e 13       		.uleb128 0x13
 3558 005f 38       		.uleb128 0x38
 3559 0060 0B       		.uleb128 0xb
 3560 0061 00       		.byte	0
 3561 0062 00       		.byte	0
 3562 0063 08       		.uleb128 0x8
 3563 0064 13       		.uleb128 0x13
 3564 0065 01       		.byte	0x1
 3565 0066 0B       		.uleb128 0xb
 3566 0067 0B       		.uleb128 0xb
 3567 0068 3A       		.uleb128 0x3a
 3568 0069 0B       		.uleb128 0xb
 3569 006a 3B       		.uleb128 0x3b
 3570 006b 0B       		.uleb128 0xb
 3571 006c 01       		.uleb128 0x1
 3572 006d 13       		.uleb128 0x13
 3573 006e 00       		.byte	0
 3574 006f 00       		.byte	0
 3575 0070 09       		.uleb128 0x9
ARM GAS  C:\Users\ADMINI~1\AppData\Local\Temp\ccuylufO.s 			page 64


 3576 0071 0F       		.uleb128 0xf
 3577 0072 00       		.byte	0
 3578 0073 0B       		.uleb128 0xb
 3579 0074 0B       		.uleb128 0xb
 3580 0075 49       		.uleb128 0x49
 3581 0076 13       		.uleb128 0x13
 3582 0077 00       		.byte	0
 3583 0078 00       		.byte	0
 3584 0079 0A       		.uleb128 0xa
 3585 007a 0F       		.uleb128 0xf
 3586 007b 00       		.byte	0
 3587 007c 0B       		.uleb128 0xb
 3588 007d 0B       		.uleb128 0xb
 3589 007e 00       		.byte	0
 3590 007f 00       		.byte	0
 3591 0080 0B       		.uleb128 0xb
 3592 0081 13       		.uleb128 0x13
 3593 0082 01       		.byte	0x1
 3594 0083 03       		.uleb128 0x3
 3595 0084 0E       		.uleb128 0xe
 3596 0085 0B       		.uleb128 0xb
 3597 0086 0B       		.uleb128 0xb
 3598 0087 3A       		.uleb128 0x3a
 3599 0088 0B       		.uleb128 0xb
 3600 0089 3B       		.uleb128 0x3b
 3601 008a 05       		.uleb128 0x5
 3602 008b 01       		.uleb128 0x1
 3603 008c 13       		.uleb128 0x13
 3604 008d 00       		.byte	0
 3605 008e 00       		.byte	0
 3606 008f 0C       		.uleb128 0xc
 3607 0090 0D       		.uleb128 0xd
 3608 0091 00       		.byte	0
 3609 0092 03       		.uleb128 0x3
 3610 0093 08       		.uleb128 0x8
 3611 0094 3A       		.uleb128 0x3a
 3612 0095 0B       		.uleb128 0xb
 3613 0096 3B       		.uleb128 0x3b
 3614 0097 05       		.uleb128 0x5
 3615 0098 49       		.uleb128 0x49
 3616 0099 13       		.uleb128 0x13
 3617 009a 38       		.uleb128 0x38
 3618 009b 0B       		.uleb128 0xb
 3619 009c 00       		.byte	0
 3620 009d 00       		.byte	0
 3621 009e 0D       		.uleb128 0xd
 3622 009f 35       		.uleb128 0x35
 3623 00a0 00       		.byte	0
 3624 00a1 49       		.uleb128 0x49
 3625 00a2 13       		.uleb128 0x13
 3626 00a3 00       		.byte	0
 3627 00a4 00       		.byte	0
 3628 00a5 0E       		.uleb128 0xe
 3629 00a6 17       		.uleb128 0x17
 3630 00a7 01       		.byte	0x1
 3631 00a8 0B       		.uleb128 0xb
 3632 00a9 0B       		.uleb128 0xb
ARM GAS  C:\Users\ADMINI~1\AppData\Local\Temp\ccuylufO.s 			page 65


 3633 00aa 3A       		.uleb128 0x3a
 3634 00ab 0B       		.uleb128 0xb
 3635 00ac 3B       		.uleb128 0x3b
 3636 00ad 0B       		.uleb128 0xb
 3637 00ae 01       		.uleb128 0x1
 3638 00af 13       		.uleb128 0x13
 3639 00b0 00       		.byte	0
 3640 00b1 00       		.byte	0
 3641 00b2 0F       		.uleb128 0xf
 3642 00b3 0D       		.uleb128 0xd
 3643 00b4 00       		.byte	0
 3644 00b5 03       		.uleb128 0x3
 3645 00b6 0E       		.uleb128 0xe
 3646 00b7 3A       		.uleb128 0x3a
 3647 00b8 0B       		.uleb128 0xb
 3648 00b9 3B       		.uleb128 0x3b
 3649 00ba 0B       		.uleb128 0xb
 3650 00bb 49       		.uleb128 0x49
 3651 00bc 13       		.uleb128 0x13
 3652 00bd 00       		.byte	0
 3653 00be 00       		.byte	0
 3654 00bf 10       		.uleb128 0x10
 3655 00c0 26       		.uleb128 0x26
 3656 00c1 00       		.byte	0
 3657 00c2 49       		.uleb128 0x49
 3658 00c3 13       		.uleb128 0x13
 3659 00c4 00       		.byte	0
 3660 00c5 00       		.byte	0
 3661 00c6 11       		.uleb128 0x11
 3662 00c7 15       		.uleb128 0x15
 3663 00c8 01       		.byte	0x1
 3664 00c9 27       		.uleb128 0x27
 3665 00ca 19       		.uleb128 0x19
 3666 00cb 49       		.uleb128 0x49
 3667 00cc 13       		.uleb128 0x13
 3668 00cd 01       		.uleb128 0x1
 3669 00ce 13       		.uleb128 0x13
 3670 00cf 00       		.byte	0
 3671 00d0 00       		.byte	0
 3672 00d1 12       		.uleb128 0x12
 3673 00d2 05       		.uleb128 0x5
 3674 00d3 00       		.byte	0
 3675 00d4 49       		.uleb128 0x49
 3676 00d5 13       		.uleb128 0x13
 3677 00d6 00       		.byte	0
 3678 00d7 00       		.byte	0
 3679 00d8 13       		.uleb128 0x13
 3680 00d9 15       		.uleb128 0x15
 3681 00da 01       		.byte	0x1
 3682 00db 27       		.uleb128 0x27
 3683 00dc 19       		.uleb128 0x19
 3684 00dd 01       		.uleb128 0x1
 3685 00de 13       		.uleb128 0x13
 3686 00df 00       		.byte	0
 3687 00e0 00       		.byte	0
 3688 00e1 14       		.uleb128 0x14
 3689 00e2 01       		.uleb128 0x1
ARM GAS  C:\Users\ADMINI~1\AppData\Local\Temp\ccuylufO.s 			page 66


 3690 00e3 01       		.byte	0x1
 3691 00e4 49       		.uleb128 0x49
 3692 00e5 13       		.uleb128 0x13
 3693 00e6 01       		.uleb128 0x1
 3694 00e7 13       		.uleb128 0x13
 3695 00e8 00       		.byte	0
 3696 00e9 00       		.byte	0
 3697 00ea 15       		.uleb128 0x15
 3698 00eb 21       		.uleb128 0x21
 3699 00ec 00       		.byte	0
 3700 00ed 49       		.uleb128 0x49
 3701 00ee 13       		.uleb128 0x13
 3702 00ef 2F       		.uleb128 0x2f
 3703 00f0 0B       		.uleb128 0xb
 3704 00f1 00       		.byte	0
 3705 00f2 00       		.byte	0
 3706 00f3 16       		.uleb128 0x16
 3707 00f4 13       		.uleb128 0x13
 3708 00f5 01       		.byte	0x1
 3709 00f6 03       		.uleb128 0x3
 3710 00f7 0E       		.uleb128 0xe
 3711 00f8 0B       		.uleb128 0xb
 3712 00f9 05       		.uleb128 0x5
 3713 00fa 3A       		.uleb128 0x3a
 3714 00fb 0B       		.uleb128 0xb
 3715 00fc 3B       		.uleb128 0x3b
 3716 00fd 05       		.uleb128 0x5
 3717 00fe 01       		.uleb128 0x1
 3718 00ff 13       		.uleb128 0x13
 3719 0100 00       		.byte	0
 3720 0101 00       		.byte	0
 3721 0102 17       		.uleb128 0x17
 3722 0103 0D       		.uleb128 0xd
 3723 0104 00       		.byte	0
 3724 0105 03       		.uleb128 0x3
 3725 0106 0E       		.uleb128 0xe
 3726 0107 3A       		.uleb128 0x3a
 3727 0108 0B       		.uleb128 0xb
 3728 0109 3B       		.uleb128 0x3b
 3729 010a 05       		.uleb128 0x5
 3730 010b 49       		.uleb128 0x49
 3731 010c 13       		.uleb128 0x13
 3732 010d 38       		.uleb128 0x38
 3733 010e 0B       		.uleb128 0xb
 3734 010f 00       		.byte	0
 3735 0110 00       		.byte	0
 3736 0111 18       		.uleb128 0x18
 3737 0112 04       		.uleb128 0x4
 3738 0113 01       		.byte	0x1
 3739 0114 0B       		.uleb128 0xb
 3740 0115 0B       		.uleb128 0xb
 3741 0116 3A       		.uleb128 0x3a
 3742 0117 0B       		.uleb128 0xb
 3743 0118 3B       		.uleb128 0x3b
 3744 0119 0B       		.uleb128 0xb
 3745 011a 01       		.uleb128 0x1
 3746 011b 13       		.uleb128 0x13
ARM GAS  C:\Users\ADMINI~1\AppData\Local\Temp\ccuylufO.s 			page 67


 3747 011c 00       		.byte	0
 3748 011d 00       		.byte	0
 3749 011e 19       		.uleb128 0x19
 3750 011f 28       		.uleb128 0x28
 3751 0120 00       		.byte	0
 3752 0121 03       		.uleb128 0x3
 3753 0122 0E       		.uleb128 0xe
 3754 0123 1C       		.uleb128 0x1c
 3755 0124 0D       		.uleb128 0xd
 3756 0125 00       		.byte	0
 3757 0126 00       		.byte	0
 3758 0127 1A       		.uleb128 0x1a
 3759 0128 04       		.uleb128 0x4
 3760 0129 01       		.byte	0x1
 3761 012a 0B       		.uleb128 0xb
 3762 012b 0B       		.uleb128 0xb
 3763 012c 3A       		.uleb128 0x3a
 3764 012d 0B       		.uleb128 0xb
 3765 012e 3B       		.uleb128 0x3b
 3766 012f 05       		.uleb128 0x5
 3767 0130 01       		.uleb128 0x1
 3768 0131 13       		.uleb128 0x13
 3769 0132 00       		.byte	0
 3770 0133 00       		.byte	0
 3771 0134 1B       		.uleb128 0x1b
 3772 0135 16       		.uleb128 0x16
 3773 0136 00       		.byte	0
 3774 0137 03       		.uleb128 0x3
 3775 0138 0E       		.uleb128 0xe
 3776 0139 3A       		.uleb128 0x3a
 3777 013a 0B       		.uleb128 0xb
 3778 013b 3B       		.uleb128 0x3b
 3779 013c 05       		.uleb128 0x5
 3780 013d 49       		.uleb128 0x49
 3781 013e 13       		.uleb128 0x13
 3782 013f 00       		.byte	0
 3783 0140 00       		.byte	0
 3784 0141 1C       		.uleb128 0x1c
 3785 0142 13       		.uleb128 0x13
 3786 0143 01       		.byte	0x1
 3787 0144 0B       		.uleb128 0xb
 3788 0145 0B       		.uleb128 0xb
 3789 0146 3A       		.uleb128 0x3a
 3790 0147 0B       		.uleb128 0xb
 3791 0148 3B       		.uleb128 0x3b
 3792 0149 05       		.uleb128 0x5
 3793 014a 01       		.uleb128 0x1
 3794 014b 13       		.uleb128 0x13
 3795 014c 00       		.byte	0
 3796 014d 00       		.byte	0
 3797 014e 1D       		.uleb128 0x1d
 3798 014f 13       		.uleb128 0x13
 3799 0150 01       		.byte	0x1
 3800 0151 0B       		.uleb128 0xb
 3801 0152 06       		.uleb128 0x6
 3802 0153 3A       		.uleb128 0x3a
 3803 0154 0B       		.uleb128 0xb
ARM GAS  C:\Users\ADMINI~1\AppData\Local\Temp\ccuylufO.s 			page 68


 3804 0155 3B       		.uleb128 0x3b
 3805 0156 0B       		.uleb128 0xb
 3806 0157 01       		.uleb128 0x1
 3807 0158 13       		.uleb128 0x13
 3808 0159 00       		.byte	0
 3809 015a 00       		.byte	0
 3810 015b 1E       		.uleb128 0x1e
 3811 015c 0D       		.uleb128 0xd
 3812 015d 00       		.byte	0
 3813 015e 03       		.uleb128 0x3
 3814 015f 0E       		.uleb128 0xe
 3815 0160 3A       		.uleb128 0x3a
 3816 0161 0B       		.uleb128 0xb
 3817 0162 3B       		.uleb128 0x3b
 3818 0163 0B       		.uleb128 0xb
 3819 0164 49       		.uleb128 0x49
 3820 0165 13       		.uleb128 0x13
 3821 0166 38       		.uleb128 0x38
 3822 0167 05       		.uleb128 0x5
 3823 0168 00       		.byte	0
 3824 0169 00       		.byte	0
 3825 016a 1F       		.uleb128 0x1f
 3826 016b 0D       		.uleb128 0xd
 3827 016c 00       		.byte	0
 3828 016d 03       		.uleb128 0x3
 3829 016e 08       		.uleb128 0x8
 3830 016f 3A       		.uleb128 0x3a
 3831 0170 0B       		.uleb128 0xb
 3832 0171 3B       		.uleb128 0x3b
 3833 0172 0B       		.uleb128 0xb
 3834 0173 49       		.uleb128 0x49
 3835 0174 13       		.uleb128 0x13
 3836 0175 38       		.uleb128 0x38
 3837 0176 05       		.uleb128 0x5
 3838 0177 00       		.byte	0
 3839 0178 00       		.byte	0
 3840 0179 20       		.uleb128 0x20
 3841 017a 21       		.uleb128 0x21
 3842 017b 00       		.byte	0
 3843 017c 49       		.uleb128 0x49
 3844 017d 13       		.uleb128 0x13
 3845 017e 2F       		.uleb128 0x2f
 3846 017f 05       		.uleb128 0x5
 3847 0180 00       		.byte	0
 3848 0181 00       		.byte	0
 3849 0182 21       		.uleb128 0x21
 3850 0183 0D       		.uleb128 0xd
 3851 0184 00       		.byte	0
 3852 0185 03       		.uleb128 0x3
 3853 0186 0E       		.uleb128 0xe
 3854 0187 3A       		.uleb128 0x3a
 3855 0188 0B       		.uleb128 0xb
 3856 0189 3B       		.uleb128 0x3b
 3857 018a 05       		.uleb128 0x5
 3858 018b 49       		.uleb128 0x49
 3859 018c 13       		.uleb128 0x13
 3860 018d 00       		.byte	0
ARM GAS  C:\Users\ADMINI~1\AppData\Local\Temp\ccuylufO.s 			page 69


 3861 018e 00       		.byte	0
 3862 018f 22       		.uleb128 0x22
 3863 0190 13       		.uleb128 0x13
 3864 0191 01       		.byte	0x1
 3865 0192 03       		.uleb128 0x3
 3866 0193 0E       		.uleb128 0xe
 3867 0194 0B       		.uleb128 0xb
 3868 0195 05       		.uleb128 0x5
 3869 0196 3A       		.uleb128 0x3a
 3870 0197 0B       		.uleb128 0xb
 3871 0198 3B       		.uleb128 0x3b
 3872 0199 0B       		.uleb128 0xb
 3873 019a 01       		.uleb128 0x1
 3874 019b 13       		.uleb128 0x13
 3875 019c 00       		.byte	0
 3876 019d 00       		.byte	0
 3877 019e 23       		.uleb128 0x23
 3878 019f 2E       		.uleb128 0x2e
 3879 01a0 01       		.byte	0x1
 3880 01a1 03       		.uleb128 0x3
 3881 01a2 0E       		.uleb128 0xe
 3882 01a3 3A       		.uleb128 0x3a
 3883 01a4 0B       		.uleb128 0xb
 3884 01a5 3B       		.uleb128 0x3b
 3885 01a6 0B       		.uleb128 0xb
 3886 01a7 27       		.uleb128 0x27
 3887 01a8 19       		.uleb128 0x19
 3888 01a9 20       		.uleb128 0x20
 3889 01aa 0B       		.uleb128 0xb
 3890 01ab 01       		.uleb128 0x1
 3891 01ac 13       		.uleb128 0x13
 3892 01ad 00       		.byte	0
 3893 01ae 00       		.byte	0
 3894 01af 24       		.uleb128 0x24
 3895 01b0 05       		.uleb128 0x5
 3896 01b1 00       		.byte	0
 3897 01b2 03       		.uleb128 0x3
 3898 01b3 0E       		.uleb128 0xe
 3899 01b4 3A       		.uleb128 0x3a
 3900 01b5 0B       		.uleb128 0xb
 3901 01b6 3B       		.uleb128 0x3b
 3902 01b7 0B       		.uleb128 0xb
 3903 01b8 49       		.uleb128 0x49
 3904 01b9 13       		.uleb128 0x13
 3905 01ba 00       		.byte	0
 3906 01bb 00       		.byte	0
 3907 01bc 25       		.uleb128 0x25
 3908 01bd 34       		.uleb128 0x34
 3909 01be 00       		.byte	0
 3910 01bf 03       		.uleb128 0x3
 3911 01c0 0E       		.uleb128 0xe
 3912 01c1 3A       		.uleb128 0x3a
 3913 01c2 0B       		.uleb128 0xb
 3914 01c3 3B       		.uleb128 0x3b
 3915 01c4 0B       		.uleb128 0xb
 3916 01c5 49       		.uleb128 0x49
 3917 01c6 13       		.uleb128 0x13
ARM GAS  C:\Users\ADMINI~1\AppData\Local\Temp\ccuylufO.s 			page 70


 3918 01c7 3F       		.uleb128 0x3f
 3919 01c8 19       		.uleb128 0x19
 3920 01c9 3C       		.uleb128 0x3c
 3921 01ca 19       		.uleb128 0x19
 3922 01cb 00       		.byte	0
 3923 01cc 00       		.byte	0
 3924 01cd 26       		.uleb128 0x26
 3925 01ce 2E       		.uleb128 0x2e
 3926 01cf 01       		.byte	0x1
 3927 01d0 03       		.uleb128 0x3
 3928 01d1 0E       		.uleb128 0xe
 3929 01d2 3A       		.uleb128 0x3a
 3930 01d3 0B       		.uleb128 0xb
 3931 01d4 3B       		.uleb128 0x3b
 3932 01d5 0B       		.uleb128 0xb
 3933 01d6 27       		.uleb128 0x27
 3934 01d7 19       		.uleb128 0x19
 3935 01d8 49       		.uleb128 0x49
 3936 01d9 13       		.uleb128 0x13
 3937 01da 11       		.uleb128 0x11
 3938 01db 01       		.uleb128 0x1
 3939 01dc 12       		.uleb128 0x12
 3940 01dd 06       		.uleb128 0x6
 3941 01de 40       		.uleb128 0x40
 3942 01df 18       		.uleb128 0x18
 3943 01e0 9742     		.uleb128 0x2117
 3944 01e2 19       		.uleb128 0x19
 3945 01e3 01       		.uleb128 0x1
 3946 01e4 13       		.uleb128 0x13
 3947 01e5 00       		.byte	0
 3948 01e6 00       		.byte	0
 3949 01e7 27       		.uleb128 0x27
 3950 01e8 05       		.uleb128 0x5
 3951 01e9 00       		.byte	0
 3952 01ea 03       		.uleb128 0x3
 3953 01eb 0E       		.uleb128 0xe
 3954 01ec 3A       		.uleb128 0x3a
 3955 01ed 0B       		.uleb128 0xb
 3956 01ee 3B       		.uleb128 0x3b
 3957 01ef 0B       		.uleb128 0xb
 3958 01f0 49       		.uleb128 0x49
 3959 01f1 13       		.uleb128 0x13
 3960 01f2 02       		.uleb128 0x2
 3961 01f3 17       		.uleb128 0x17
 3962 01f4 00       		.byte	0
 3963 01f5 00       		.byte	0
 3964 01f6 28       		.uleb128 0x28
 3965 01f7 05       		.uleb128 0x5
 3966 01f8 00       		.byte	0
 3967 01f9 03       		.uleb128 0x3
 3968 01fa 0E       		.uleb128 0xe
 3969 01fb 3A       		.uleb128 0x3a
 3970 01fc 0B       		.uleb128 0xb
 3971 01fd 3B       		.uleb128 0x3b
 3972 01fe 0B       		.uleb128 0xb
 3973 01ff 49       		.uleb128 0x49
 3974 0200 13       		.uleb128 0x13
ARM GAS  C:\Users\ADMINI~1\AppData\Local\Temp\ccuylufO.s 			page 71


 3975 0201 02       		.uleb128 0x2
 3976 0202 18       		.uleb128 0x18
 3977 0203 00       		.byte	0
 3978 0204 00       		.byte	0
 3979 0205 29       		.uleb128 0x29
 3980 0206 2E       		.uleb128 0x2e
 3981 0207 01       		.byte	0x1
 3982 0208 31       		.uleb128 0x31
 3983 0209 13       		.uleb128 0x13
 3984 020a 11       		.uleb128 0x11
 3985 020b 01       		.uleb128 0x1
 3986 020c 12       		.uleb128 0x12
 3987 020d 06       		.uleb128 0x6
 3988 020e 40       		.uleb128 0x40
 3989 020f 18       		.uleb128 0x18
 3990 0210 9742     		.uleb128 0x2117
 3991 0212 19       		.uleb128 0x19
 3992 0213 01       		.uleb128 0x1
 3993 0214 13       		.uleb128 0x13
 3994 0215 00       		.byte	0
 3995 0216 00       		.byte	0
 3996 0217 2A       		.uleb128 0x2a
 3997 0218 05       		.uleb128 0x5
 3998 0219 00       		.byte	0
 3999 021a 31       		.uleb128 0x31
 4000 021b 13       		.uleb128 0x13
 4001 021c 02       		.uleb128 0x2
 4002 021d 17       		.uleb128 0x17
 4003 021e 00       		.byte	0
 4004 021f 00       		.byte	0
 4005 0220 2B       		.uleb128 0x2b
 4006 0221 0B       		.uleb128 0xb
 4007 0222 01       		.byte	0x1
 4008 0223 11       		.uleb128 0x11
 4009 0224 01       		.uleb128 0x1
 4010 0225 12       		.uleb128 0x12
 4011 0226 06       		.uleb128 0x6
 4012 0227 00       		.byte	0
 4013 0228 00       		.byte	0
 4014 0229 2C       		.uleb128 0x2c
 4015 022a 34       		.uleb128 0x34
 4016 022b 00       		.byte	0
 4017 022c 31       		.uleb128 0x31
 4018 022d 13       		.uleb128 0x13
 4019 022e 3C       		.uleb128 0x3c
 4020 022f 19       		.uleb128 0x19
 4021 0230 00       		.byte	0
 4022 0231 00       		.byte	0
 4023 0232 2D       		.uleb128 0x2d
 4024 0233 898201   		.uleb128 0x4109
 4025 0236 01       		.byte	0x1
 4026 0237 11       		.uleb128 0x11
 4027 0238 01       		.uleb128 0x1
 4028 0239 31       		.uleb128 0x31
 4029 023a 13       		.uleb128 0x13
 4030 023b 01       		.uleb128 0x1
 4031 023c 13       		.uleb128 0x13
ARM GAS  C:\Users\ADMINI~1\AppData\Local\Temp\ccuylufO.s 			page 72


 4032 023d 00       		.byte	0
 4033 023e 00       		.byte	0
 4034 023f 2E       		.uleb128 0x2e
 4035 0240 8A8201   		.uleb128 0x410a
 4036 0243 00       		.byte	0
 4037 0244 02       		.uleb128 0x2
 4038 0245 18       		.uleb128 0x18
 4039 0246 9142     		.uleb128 0x2111
 4040 0248 18       		.uleb128 0x18
 4041 0249 00       		.byte	0
 4042 024a 00       		.byte	0
 4043 024b 2F       		.uleb128 0x2f
 4044 024c 898201   		.uleb128 0x4109
 4045 024f 01       		.byte	0x1
 4046 0250 11       		.uleb128 0x11
 4047 0251 01       		.uleb128 0x1
 4048 0252 31       		.uleb128 0x31
 4049 0253 13       		.uleb128 0x13
 4050 0254 00       		.byte	0
 4051 0255 00       		.byte	0
 4052 0256 30       		.uleb128 0x30
 4053 0257 2E       		.uleb128 0x2e
 4054 0258 00       		.byte	0
 4055 0259 3F       		.uleb128 0x3f
 4056 025a 19       		.uleb128 0x19
 4057 025b 03       		.uleb128 0x3
 4058 025c 0E       		.uleb128 0xe
 4059 025d 3A       		.uleb128 0x3a
 4060 025e 0B       		.uleb128 0xb
 4061 025f 3B       		.uleb128 0x3b
 4062 0260 0B       		.uleb128 0xb
 4063 0261 27       		.uleb128 0x27
 4064 0262 19       		.uleb128 0x19
 4065 0263 49       		.uleb128 0x49
 4066 0264 13       		.uleb128 0x13
 4067 0265 11       		.uleb128 0x11
 4068 0266 01       		.uleb128 0x1
 4069 0267 12       		.uleb128 0x12
 4070 0268 06       		.uleb128 0x6
 4071 0269 40       		.uleb128 0x40
 4072 026a 18       		.uleb128 0x18
 4073 026b 9742     		.uleb128 0x2117
 4074 026d 19       		.uleb128 0x19
 4075 026e 00       		.byte	0
 4076 026f 00       		.byte	0
 4077 0270 31       		.uleb128 0x31
 4078 0271 2E       		.uleb128 0x2e
 4079 0272 01       		.byte	0x1
 4080 0273 3F       		.uleb128 0x3f
 4081 0274 19       		.uleb128 0x19
 4082 0275 03       		.uleb128 0x3
 4083 0276 0E       		.uleb128 0xe
 4084 0277 3A       		.uleb128 0x3a
 4085 0278 0B       		.uleb128 0xb
 4086 0279 3B       		.uleb128 0x3b
 4087 027a 0B       		.uleb128 0xb
 4088 027b 27       		.uleb128 0x27
ARM GAS  C:\Users\ADMINI~1\AppData\Local\Temp\ccuylufO.s 			page 73


 4089 027c 19       		.uleb128 0x19
 4090 027d 11       		.uleb128 0x11
 4091 027e 01       		.uleb128 0x1
 4092 027f 12       		.uleb128 0x12
 4093 0280 06       		.uleb128 0x6
 4094 0281 40       		.uleb128 0x40
 4095 0282 18       		.uleb128 0x18
 4096 0283 9742     		.uleb128 0x2117
 4097 0285 19       		.uleb128 0x19
 4098 0286 01       		.uleb128 0x1
 4099 0287 13       		.uleb128 0x13
 4100 0288 00       		.byte	0
 4101 0289 00       		.byte	0
 4102 028a 32       		.uleb128 0x32
 4103 028b 34       		.uleb128 0x34
 4104 028c 00       		.byte	0
 4105 028d 03       		.uleb128 0x3
 4106 028e 0E       		.uleb128 0xe
 4107 028f 3A       		.uleb128 0x3a
 4108 0290 0B       		.uleb128 0xb
 4109 0291 3B       		.uleb128 0x3b
 4110 0292 0B       		.uleb128 0xb
 4111 0293 49       		.uleb128 0x49
 4112 0294 13       		.uleb128 0x13
 4113 0295 02       		.uleb128 0x2
 4114 0296 18       		.uleb128 0x18
 4115 0297 00       		.byte	0
 4116 0298 00       		.byte	0
 4117 0299 33       		.uleb128 0x33
 4118 029a 34       		.uleb128 0x34
 4119 029b 00       		.byte	0
 4120 029c 03       		.uleb128 0x3
 4121 029d 0E       		.uleb128 0xe
 4122 029e 3A       		.uleb128 0x3a
 4123 029f 0B       		.uleb128 0xb
 4124 02a0 3B       		.uleb128 0x3b
 4125 02a1 05       		.uleb128 0x5
 4126 02a2 49       		.uleb128 0x49
 4127 02a3 13       		.uleb128 0x13
 4128 02a4 3F       		.uleb128 0x3f
 4129 02a5 19       		.uleb128 0x19
 4130 02a6 3C       		.uleb128 0x3c
 4131 02a7 19       		.uleb128 0x19
 4132 02a8 00       		.byte	0
 4133 02a9 00       		.byte	0
 4134 02aa 34       		.uleb128 0x34
 4135 02ab 34       		.uleb128 0x34
 4136 02ac 00       		.byte	0
 4137 02ad 03       		.uleb128 0x3
 4138 02ae 0E       		.uleb128 0xe
 4139 02af 3A       		.uleb128 0x3a
 4140 02b0 0B       		.uleb128 0xb
 4141 02b1 3B       		.uleb128 0x3b
 4142 02b2 0B       		.uleb128 0xb
 4143 02b3 49       		.uleb128 0x49
 4144 02b4 13       		.uleb128 0x13
 4145 02b5 3F       		.uleb128 0x3f
ARM GAS  C:\Users\ADMINI~1\AppData\Local\Temp\ccuylufO.s 			page 74


 4146 02b6 19       		.uleb128 0x19
 4147 02b7 02       		.uleb128 0x2
 4148 02b8 18       		.uleb128 0x18
 4149 02b9 00       		.byte	0
 4150 02ba 00       		.byte	0
 4151 02bb 35       		.uleb128 0x35
 4152 02bc 2E       		.uleb128 0x2e
 4153 02bd 01       		.byte	0x1
 4154 02be 3F       		.uleb128 0x3f
 4155 02bf 19       		.uleb128 0x19
 4156 02c0 03       		.uleb128 0x3
 4157 02c1 0E       		.uleb128 0xe
 4158 02c2 3A       		.uleb128 0x3a
 4159 02c3 0B       		.uleb128 0xb
 4160 02c4 3B       		.uleb128 0x3b
 4161 02c5 05       		.uleb128 0x5
 4162 02c6 27       		.uleb128 0x27
 4163 02c7 19       		.uleb128 0x19
 4164 02c8 3C       		.uleb128 0x3c
 4165 02c9 19       		.uleb128 0x19
 4166 02ca 01       		.uleb128 0x1
 4167 02cb 13       		.uleb128 0x13
 4168 02cc 00       		.byte	0
 4169 02cd 00       		.byte	0
 4170 02ce 36       		.uleb128 0x36
 4171 02cf 2E       		.uleb128 0x2e
 4172 02d0 01       		.byte	0x1
 4173 02d1 3F       		.uleb128 0x3f
 4174 02d2 19       		.uleb128 0x19
 4175 02d3 03       		.uleb128 0x3
 4176 02d4 0E       		.uleb128 0xe
 4177 02d5 3A       		.uleb128 0x3a
 4178 02d6 0B       		.uleb128 0xb
 4179 02d7 3B       		.uleb128 0x3b
 4180 02d8 0B       		.uleb128 0xb
 4181 02d9 27       		.uleb128 0x27
 4182 02da 19       		.uleb128 0x19
 4183 02db 3C       		.uleb128 0x3c
 4184 02dc 19       		.uleb128 0x19
 4185 02dd 01       		.uleb128 0x1
 4186 02de 13       		.uleb128 0x13
 4187 02df 00       		.byte	0
 4188 02e0 00       		.byte	0
 4189 02e1 37       		.uleb128 0x37
 4190 02e2 2E       		.uleb128 0x2e
 4191 02e3 01       		.byte	0x1
 4192 02e4 3F       		.uleb128 0x3f
 4193 02e5 19       		.uleb128 0x19
 4194 02e6 03       		.uleb128 0x3
 4195 02e7 0E       		.uleb128 0xe
 4196 02e8 3A       		.uleb128 0x3a
 4197 02e9 0B       		.uleb128 0xb
 4198 02ea 3B       		.uleb128 0x3b
 4199 02eb 05       		.uleb128 0x5
 4200 02ec 27       		.uleb128 0x27
 4201 02ed 19       		.uleb128 0x19
 4202 02ee 3C       		.uleb128 0x3c
ARM GAS  C:\Users\ADMINI~1\AppData\Local\Temp\ccuylufO.s 			page 75


 4203 02ef 19       		.uleb128 0x19
 4204 02f0 00       		.byte	0
 4205 02f1 00       		.byte	0
 4206 02f2 00       		.byte	0
 4207              		.section	.debug_loc,"",%progbits
 4208              	.Ldebug_loc0:
 4209              	.LLST0:
 4210 0000 00000000 		.4byte	.LVL0
 4211 0004 0C000000 		.4byte	.LVL1
 4212 0008 0100     		.2byte	0x1
 4213 000a 50       		.byte	0x50
 4214 000b 0C000000 		.4byte	.LVL1
 4215 000f 12000000 		.4byte	.LVL2
 4216 0013 0400     		.2byte	0x4
 4217 0015 F3       		.byte	0xf3
 4218 0016 01       		.uleb128 0x1
 4219 0017 50       		.byte	0x50
 4220 0018 9F       		.byte	0x9f
 4221 0019 12000000 		.4byte	.LVL2
 4222 001d 14000000 		.4byte	.LVL3
 4223 0021 0100     		.2byte	0x1
 4224 0023 50       		.byte	0x50
 4225 0024 14000000 		.4byte	.LVL3
 4226 0028 16000000 		.4byte	.LVL4
 4227 002c 0400     		.2byte	0x4
 4228 002e F3       		.byte	0xf3
 4229 002f 01       		.uleb128 0x1
 4230 0030 50       		.byte	0x50
 4231 0031 9F       		.byte	0x9f
 4232 0032 16000000 		.4byte	.LVL4
 4233 0036 20000000 		.4byte	.LVL6
 4234 003a 0100     		.2byte	0x1
 4235 003c 50       		.byte	0x50
 4236 003d 20000000 		.4byte	.LVL6
 4237 0041 30000000 		.4byte	.LFE118
 4238 0045 0400     		.2byte	0x4
 4239 0047 F3       		.byte	0xf3
 4240 0048 01       		.uleb128 0x1
 4241 0049 50       		.byte	0x50
 4242 004a 9F       		.byte	0x9f
 4243 004b 00000000 		.4byte	0
 4244 004f 00000000 		.4byte	0
 4245              	.LLST1:
 4246 0053 00000000 		.4byte	.LVL0
 4247 0057 1C000000 		.4byte	.LVL5
 4248 005b 0100     		.2byte	0x1
 4249 005d 53       		.byte	0x53
 4250 005e 1C000000 		.4byte	.LVL5
 4251 0062 30000000 		.4byte	.LFE118
 4252 0066 0400     		.2byte	0x4
 4253 0068 F3       		.byte	0xf3
 4254 0069 01       		.uleb128 0x1
 4255 006a 53       		.byte	0x53
 4256 006b 9F       		.byte	0x9f
 4257 006c 00000000 		.4byte	0
 4258 0070 00000000 		.4byte	0
 4259              	.LLST2:
ARM GAS  C:\Users\ADMINI~1\AppData\Local\Temp\ccuylufO.s 			page 76


 4260 0074 00000000 		.4byte	.LVL7
 4261 0078 13000000 		.4byte	.LVL10-1
 4262 007c 0100     		.2byte	0x1
 4263 007e 50       		.byte	0x50
 4264 007f 13000000 		.4byte	.LVL10-1
 4265 0083 28000000 		.4byte	.LVL13
 4266 0087 0100     		.2byte	0x1
 4267 0089 55       		.byte	0x55
 4268 008a 28000000 		.4byte	.LVL13
 4269 008e 38000000 		.4byte	.LFE119
 4270 0092 0100     		.2byte	0x1
 4271 0094 50       		.byte	0x50
 4272 0095 00000000 		.4byte	0
 4273 0099 00000000 		.4byte	0
 4274              	.LLST3:
 4275 009d 00000000 		.4byte	.LVL7
 4276 00a1 0E000000 		.4byte	.LVL9
 4277 00a5 0100     		.2byte	0x1
 4278 00a7 51       		.byte	0x51
 4279 00a8 0E000000 		.4byte	.LVL9
 4280 00ac 28000000 		.4byte	.LVL13
 4281 00b0 0400     		.2byte	0x4
 4282 00b2 F3       		.byte	0xf3
 4283 00b3 01       		.uleb128 0x1
 4284 00b4 51       		.byte	0x51
 4285 00b5 9F       		.byte	0x9f
 4286 00b6 28000000 		.4byte	.LVL13
 4287 00ba 38000000 		.4byte	.LFE119
 4288 00be 0100     		.2byte	0x1
 4289 00c0 51       		.byte	0x51
 4290 00c1 00000000 		.4byte	0
 4291 00c5 00000000 		.4byte	0
 4292              	.LLST4:
 4293 00c9 0A000000 		.4byte	.LVL8
 4294 00cd 28000000 		.4byte	.LVL13
 4295 00d1 0200     		.2byte	0x2
 4296 00d3 32       		.byte	0x32
 4297 00d4 9F       		.byte	0x9f
 4298 00d5 00000000 		.4byte	0
 4299 00d9 00000000 		.4byte	0
 4300              	.LLST5:
 4301 00dd 0A000000 		.4byte	.LVL8
 4302 00e1 13000000 		.4byte	.LVL10-1
 4303 00e5 0100     		.2byte	0x1
 4304 00e7 50       		.byte	0x50
 4305 00e8 13000000 		.4byte	.LVL10-1
 4306 00ec 28000000 		.4byte	.LVL13
 4307 00f0 0100     		.2byte	0x1
 4308 00f2 55       		.byte	0x55
 4309 00f3 00000000 		.4byte	0
 4310 00f7 00000000 		.4byte	0
 4311              		.section	.debug_aranges,"",%progbits
 4312 0000 34000000 		.4byte	0x34
 4313 0004 0200     		.2byte	0x2
 4314 0006 00000000 		.4byte	.Ldebug_info0
 4315 000a 04       		.byte	0x4
 4316 000b 00       		.byte	0
ARM GAS  C:\Users\ADMINI~1\AppData\Local\Temp\ccuylufO.s 			page 77


 4317 000c 0000     		.2byte	0
 4318 000e 0000     		.2byte	0
 4319 0010 00000000 		.4byte	.LFB118
 4320 0014 30000000 		.4byte	.LFE118-.LFB118
 4321 0018 00000000 		.4byte	.LFB119
 4322 001c 38000000 		.4byte	.LFE119-.LFB119
 4323 0020 00000000 		.4byte	.LFB120
 4324 0024 1C000000 		.4byte	.LFE120-.LFB120
 4325 0028 00000000 		.4byte	.LFB121
 4326 002c 4C000000 		.4byte	.LFE121-.LFB121
 4327 0030 00000000 		.4byte	0
 4328 0034 00000000 		.4byte	0
 4329              		.section	.debug_ranges,"",%progbits
 4330              	.Ldebug_ranges0:
 4331 0000 00000000 		.4byte	.LFB118
 4332 0004 30000000 		.4byte	.LFE118
 4333 0008 00000000 		.4byte	.LFB119
 4334 000c 38000000 		.4byte	.LFE119
 4335 0010 00000000 		.4byte	.LFB120
 4336 0014 1C000000 		.4byte	.LFE120
 4337 0018 00000000 		.4byte	.LFB121
 4338 001c 4C000000 		.4byte	.LFE121
 4339 0020 00000000 		.4byte	0
 4340 0024 00000000 		.4byte	0
 4341              		.section	.debug_line,"",%progbits
 4342              	.Ldebug_line0:
 4343 0000 16030000 		.section	.debug_str,"MS",%progbits,1
 4343      0200B302 
 4343      00000201 
 4343      FB0E0D00 
 4343      01010101 
 4344              	.LASF52:
 4345 0000 54687265 		.ascii	"ThreadsList\000"
 4345      6164734C 
 4345      69737400 
 4346              	.LASF250:
 4347 000c 5344555F 		.ascii	"SDU_READY\000"
 4347      52454144 
 4347      5900
 4348              	.LASF150:
 4349 0016 44494550 		.ascii	"DIEPTSIZ\000"
 4349      5453495A 
 4349      00
 4350              	.LASF290:
 4351 001f 75736249 		.ascii	"usbInitEndpointI\000"
 4351      6E697445 
 4351      6E64706F 
 4351      696E7449 
 4351      00
 4352              	.LASF43:
 4353 0030 705F7469 		.ascii	"p_time\000"
 4353      6D6500
 4354              	.LASF252:
 4355 0037 53657269 		.ascii	"SerialUSBDriver\000"
 4355      616C5553 
 4355      42447269 
 4355      76657200 
ARM GAS  C:\Users\ADMINI~1\AppData\Local\Temp\ccuylufO.s 			page 78


 4356              	.LASF53:
 4357 0047 72656761 		.ascii	"regarm_t\000"
 4357      726D5F74 
 4357      00
 4358              	.LASF221:
 4359 0050 74787369 		.ascii	"txsize\000"
 4359      7A6500
 4360              	.LASF34:
 4361 0057 705F7072 		.ascii	"p_prio\000"
 4361      696F00
 4362              	.LASF188:
 4363 005e 44434647 		.ascii	"DCFG\000"
 4363      00
 4364              	.LASF108:
 4365 0063 5553425F 		.ascii	"USB_UNINIT\000"
 4365      554E494E 
 4365      495400
 4366              	.LASF258:
 4367 006e 62756C6B 		.ascii	"bulk_out\000"
 4367      5F6F7574 
 4367      00
 4368              	.LASF296:
 4369 0077 6D795553 		.ascii	"myUSB.c\000"
 4369      422E6300 
 4370              	.LASF147:
 4371 007f 72657376 		.ascii	"resvd4\000"
 4371      643400
 4372              	.LASF271:
 4373 0086 53445531 		.ascii	"SDU1\000"
 4373      00
 4374              	.LASF110:
 4375 008b 5553425F 		.ascii	"USB_READY\000"
 4375      52454144 
 4375      5900
 4376              	.LASF138:
 4377 0095 72657376 		.ascii	"resvd8\000"
 4377      643800
 4378              	.LASF125:
 4379 009c 5553425F 		.ascii	"USB_EVENT_SUSPEND\000"
 4379      4556454E 
 4379      545F5355 
 4379      5350454E 
 4379      4400
 4380              	.LASF30:
 4381 00ae 73797374 		.ascii	"systime_t\000"
 4381      696D655F 
 4381      7400
 4382              	.LASF141:
 4383 00b8 48435453 		.ascii	"HCTSIZ\000"
 4383      495A00
 4384              	.LASF149:
 4385 00bf 72657376 		.ascii	"resvdC\000"
 4385      644300
 4386              	.LASF60:
 4387 00c6 6D5F6F77 		.ascii	"m_owner\000"
 4387      6E657200 
 4388              	.LASF245:
ARM GAS  C:\Users\ADMINI~1\AppData\Local\Temp\ccuylufO.s 			page 79


 4389 00ce 72657175 		.ascii	"requests_hook_cb\000"
 4389      65737473 
 4389      5F686F6F 
 4389      6B5F6362 
 4389      00
 4390              	.LASF45:
 4391 00df 705F6D73 		.ascii	"p_msgqueue\000"
 4391      67717565 
 4391      756500
 4392              	.LASF115:
 4393 00ea 5553425F 		.ascii	"USB_EP0_TX\000"
 4393      4550305F 
 4393      545800
 4394              	.LASF0:
 4395 00f5 756E7369 		.ascii	"unsigned int\000"
 4395      676E6564 
 4395      20696E74 
 4395      00
 4396              	.LASF273:
 4397 0102 76636F6D 		.ascii	"vcom_device_descriptor\000"
 4397      5F646576 
 4397      6963655F 
 4397      64657363 
 4397      72697074 
 4398              	.LASF171:
 4399 0119 72657376 		.ascii	"resvd34\000"
 4399      64333400 
 4400              	.LASF44:
 4401 0121 705F7761 		.ascii	"p_waiting\000"
 4401      6974696E 
 4401      6700
 4402              	.LASF80:
 4403 012b 715F7264 		.ascii	"q_rdptr\000"
 4403      70747200 
 4404              	.LASF142:
 4405 0133 72657376 		.ascii	"resvd14\000"
 4405      64313400 
 4406              	.LASF163:
 4407 013b 47494E54 		.ascii	"GINTSTS\000"
 4407      53545300 
 4408              	.LASF143:
 4409 0143 72657376 		.ascii	"resvd18\000"
 4409      64313800 
 4410              	.LASF83:
 4411 014b 716E6F74 		.ascii	"qnotify_t\000"
 4411      6966795F 
 4411      7400
 4412              	.LASF65:
 4413 0155 656C5F6D 		.ascii	"el_mask\000"
 4413      61736B00 
 4414              	.LASF172:
 4415 015d 47434346 		.ascii	"GCCFG\000"
 4415      4700
 4416              	.LASF267:
 4417 0163 72656164 		.ascii	"readt\000"
 4417      7400
 4418              	.LASF152:
ARM GAS  C:\Users\ADMINI~1\AppData\Local\Temp\ccuylufO.s 			page 80


 4419 0169 72657376 		.ascii	"resvd1C\000"
 4419      64314300 
 4420              	.LASF213:
 4421 0171 6F74675F 		.ascii	"otg_ram_size\000"
 4421      72616D5F 
 4421      73697A65 
 4421      00
 4422              	.LASF232:
 4423 017e 65705F6D 		.ascii	"ep_mode\000"
 4423      6F646500 
 4424              	.LASF71:
 4425 0186 77746F62 		.ascii	"wtobjp\000"
 4425      6A7000
 4426              	.LASF96:
 4427 018d 65703065 		.ascii	"ep0endcb\000"
 4427      6E646362 
 4427      00
 4428              	.LASF129:
 4429 0196 75645F73 		.ascii	"ud_size\000"
 4429      697A6500 
 4430              	.LASF134:
 4431 019e 75736265 		.ascii	"usbeventcb_t\000"
 4431      76656E74 
 4431      63625F74 
 4431      00
 4432              	.LASF301:
 4433 01ab 6D795553 		.ascii	"myUSBinit\000"
 4433      42696E69 
 4433      7400
 4434              	.LASF180:
 4435 01b5 72657376 		.ascii	"resvd40C\000"
 4435      64343043 
 4435      00
 4436              	.LASF72:
 4437 01be 65776D61 		.ascii	"ewmask\000"
 4437      736B00
 4438              	.LASF223:
 4439 01c5 6D6F6465 		.ascii	"mode\000"
 4439      00
 4440              	.LASF144:
 4441 01ca 72657376 		.ascii	"resvd1c\000"
 4441      64316300 
 4442              	.LASF272:
 4443 01d2 76636F6D 		.ascii	"vcom_device_descriptor_data\000"
 4443      5F646576 
 4443      6963655F 
 4443      64657363 
 4443      72697074 
 4444              	.LASF105:
 4445 01ee 7468645F 		.ascii	"thd_wait\000"
 4445      77616974 
 4445      00
 4446              	.LASF198:
 4447 01f7 44564255 		.ascii	"DVBUSDIS\000"
 4447      53444953 
 4447      00
 4448              	.LASF283:
ARM GAS  C:\Users\ADMINI~1\AppData\Local\Temp\ccuylufO.s 			page 81


 4449 0200 65703163 		.ascii	"ep1config\000"
 4449      6F6E6669 
 4449      6700
 4450              	.LASF122:
 4451 020a 5553425F 		.ascii	"USB_EVENT_RESET\000"
 4451      4556454E 
 4451      545F5245 
 4451      53455400 
 4452              	.LASF229:
 4453 021a 72787369 		.ascii	"rxsize\000"
 4453      7A6500
 4454              	.LASF266:
 4455 0221 77726974 		.ascii	"writet\000"
 4455      657400
 4456              	.LASF114:
 4457 0228 5553425F 		.ascii	"USB_EP0_WAITING_SETUP\000"
 4457      4550305F 
 4457      57414954 
 4457      494E475F 
 4457      53455455 
 4458              	.LASF214:
 4459 023e 6E756D5F 		.ascii	"num_endpoints\000"
 4459      656E6470 
 4459      6F696E74 
 4459      7300
 4460              	.LASF276:
 4461 024c 76636F6D 		.ascii	"vcom_string0\000"
 4461      5F737472 
 4461      696E6730 
 4461      00
 4462              	.LASF277:
 4463 0259 76636F6D 		.ascii	"vcom_string1\000"
 4463      5F737472 
 4463      696E6731 
 4463      00
 4464              	.LASF278:
 4465 0266 76636F6D 		.ascii	"vcom_string2\000"
 4465      5F737472 
 4465      696E6732 
 4465      00
 4466              	.LASF279:
 4467 0273 76636F6D 		.ascii	"vcom_string3\000"
 4467      5F737472 
 4467      696E6733 
 4467      00
 4468              	.LASF1:
 4469 0280 7369676E 		.ascii	"signed char\000"
 4469      65642063 
 4469      68617200 
 4470              	.LASF176:
 4471 028c 72657376 		.ascii	"resvd140\000"
 4471      64313430 
 4471      00
 4472              	.LASF254:
 4473 0295 69717565 		.ascii	"iqueue\000"
 4473      756500
 4474              	.LASF18:
ARM GAS  C:\Users\ADMINI~1\AppData\Local\Temp\ccuylufO.s 			page 82


 4475 029c 75696E74 		.ascii	"uint32_t\000"
 4475      33325F74 
 4475      00
 4476              	.LASF184:
 4477 02a5 72657376 		.ascii	"resvd41C\000"
 4477      64343143 
 4477      00
 4478              	.LASF28:
 4479 02ae 6576656E 		.ascii	"eventmask_t\000"
 4479      746D6173 
 4479      6B5F7400 
 4480              	.LASF132:
 4481 02ba 75736263 		.ascii	"usbcallback_t\000"
 4481      616C6C62 
 4481      61636B5F 
 4481      7400
 4482              	.LASF201:
 4483 02c8 44494550 		.ascii	"DIEPEMPMSK\000"
 4483      454D504D 
 4483      534B00
 4484              	.LASF285:
 4485 02d3 65703263 		.ascii	"ep2config\000"
 4485      6F6E6669 
 4485      6700
 4486              	.LASF104:
 4487 02dd 7468645F 		.ascii	"thd_ptr\000"
 4487      70747200 
 4488              	.LASF253:
 4489 02e5 6576656E 		.ascii	"event\000"
 4489      7400
 4490              	.LASF170:
 4491 02eb 72657376 		.ascii	"resvd30\000"
 4491      64333000 
 4492              	.LASF26:
 4493 02f3 74707269 		.ascii	"tprio_t\000"
 4493      6F5F7400 
 4494              	.LASF205:
 4495 02fb 72657376 		.ascii	"resvd880\000"
 4495      64383830 
 4495      00
 4496              	.LASF97:
 4497 0304 73657475 		.ascii	"setup\000"
 4497      7000
 4498              	.LASF116:
 4499 030a 5553425F 		.ascii	"USB_EP0_WAITING_TX0\000"
 4499      4550305F 
 4499      57414954 
 4499      494E475F 
 4499      54583000 
 4500              	.LASF260:
 4501 031e 53657269 		.ascii	"SerialUSBConfig\000"
 4501      616C5553 
 4501      42436F6E 
 4501      66696700 
 4502              	.LASF280:
 4503 032e 76636F6D 		.ascii	"vcom_strings\000"
 4503      5F737472 
ARM GAS  C:\Users\ADMINI~1\AppData\Local\Temp\ccuylufO.s 			page 83


 4503      696E6773 
 4503      00
 4504              	.LASF14:
 4505 033b 6C6F6E67 		.ascii	"long long unsigned int\000"
 4505      206C6F6E 
 4505      6720756E 
 4505      7369676E 
 4505      65642069 
 4506              	.LASF222:
 4507 0352 7478636E 		.ascii	"txcnt\000"
 4507      7400
 4508              	.LASF167:
 4509 0358 47525846 		.ascii	"GRXFSIZ\000"
 4509      53495A00 
 4510              	.LASF89:
 4511 0360 7472616E 		.ascii	"transmitting\000"
 4511      736D6974 
 4511      74696E67 
 4511      00
 4512              	.LASF242:
 4513 036d 55534245 		.ascii	"USBEndpointConfig\000"
 4513      6E64706F 
 4513      696E7443 
 4513      6F6E6669 
 4513      6700
 4514              	.LASF90:
 4515 037f 72656365 		.ascii	"receiving\000"
 4515      6976696E 
 4515      6700
 4516              	.LASF6:
 4517 0389 5F5F7569 		.ascii	"__uint16_t\000"
 4517      6E743136 
 4517      5F7400
 4518              	.LASF218:
 4519 0394 6C696E65 		.ascii	"linear\000"
 4519      617200
 4520              	.LASF36:
 4521 039b 705F6E65 		.ascii	"p_newer\000"
 4521      77657200 
 4522              	.LASF156:
 4523 03a3 444F4550 		.ascii	"DOEPTSIZ\000"
 4523      5453495A 
 4523      00
 4524              	.LASF75:
 4525 03ac 715F7761 		.ascii	"q_waiting\000"
 4525      6974696E 
 4525      6700
 4526              	.LASF235:
 4527 03b6 6F75745F 		.ascii	"out_cb\000"
 4527      636200
 4528              	.LASF185:
 4529 03bd 48505254 		.ascii	"HPRT\000"
 4529      00
 4530              	.LASF187:
 4531 03c2 72657376 		.ascii	"resvd700\000"
 4531      64373030 
 4531      00
ARM GAS  C:\Users\ADMINI~1\AppData\Local\Temp\ccuylufO.s 			page 84


 4532              	.LASF153:
 4533 03cb 73746D33 		.ascii	"stm32_otg_in_ep_t\000"
 4533      325F6F74 
 4533      675F696E 
 4533      5F65705F 
 4533      7400
 4534              	.LASF284:
 4535 03dd 65703269 		.ascii	"ep2instate\000"
 4535      6E737461 
 4535      746500
 4536              	.LASF186:
 4537 03e8 72657376 		.ascii	"resvd444\000"
 4537      64343434 
 4537      00
 4538              	.LASF190:
 4539 03f1 44535453 		.ascii	"DSTS\000"
 4539      00
 4540              	.LASF264:
 4541 03f6 70757474 		.ascii	"putt\000"
 4541      00
 4542              	.LASF67:
 4543 03fb 4576656E 		.ascii	"EventSource\000"
 4543      74536F75 
 4543      72636500 
 4544              	.LASF2:
 4545 0407 73697A65 		.ascii	"size_t\000"
 4545      5F7400
 4546              	.LASF69:
 4547 040e 7264796D 		.ascii	"rdymsg\000"
 4547      736700
 4548              	.LASF20:
 4549 0415 626F6F6C 		.ascii	"bool_t\000"
 4549      5F7400
 4550              	.LASF112:
 4551 041c 5553425F 		.ascii	"USB_ACTIVE\000"
 4551      41435449 
 4551      564500
 4552              	.LASF21:
 4553 0427 5F426F6F 		.ascii	"_Bool\000"
 4553      6C00
 4554              	.LASF212:
 4555 042d 72785F66 		.ascii	"rx_fifo_size\000"
 4555      69666F5F 
 4555      73697A65 
 4555      00
 4556              	.LASF274:
 4557 043a 76636F6D 		.ascii	"vcom_configuration_descriptor_data\000"
 4557      5F636F6E 
 4557      66696775 
 4557      72617469 
 4557      6F6E5F64 
 4558              	.LASF177:
 4559 045d 48434647 		.ascii	"HCFG\000"
 4559      00
 4560              	.LASF261:
 4561 0462 53657269 		.ascii	"SerialUSBDriverVMT\000"
 4561      616C5553 
ARM GAS  C:\Users\ADMINI~1\AppData\Local\Temp\ccuylufO.s 			page 85


 4561      42447269 
 4561      76657256 
 4561      4D5400
 4562              	.LASF269:
 4563 0475 64696E64 		.ascii	"dindex\000"
 4563      657800
 4564              	.LASF137:
 4565 047c 48434348 		.ascii	"HCCHAR\000"
 4565      415200
 4566              	.LASF13:
 4567 0483 5F5F7569 		.ascii	"__uint64_t\000"
 4567      6E743634 
 4567      5F7400
 4568              	.LASF173:
 4569 048e 72657376 		.ascii	"resvd58\000"
 4569      64353800 
 4570              	.LASF117:
 4571 0496 5553425F 		.ascii	"USB_EP0_WAITING_STS\000"
 4571      4550305F 
 4571      57414954 
 4571      494E475F 
 4571      53545300 
 4572              	.LASF281:
 4573 04aa 65703169 		.ascii	"ep1instate\000"
 4573      6E737461 
 4573      746500
 4574              	.LASF249:
 4575 04b5 5344555F 		.ascii	"SDU_STOP\000"
 4575      53544F50 
 4575      00
 4576              	.LASF58:
 4577 04be 4D757465 		.ascii	"Mutex\000"
 4577      7800
 4578              	.LASF85:
 4579 04c4 4F757470 		.ascii	"OutputQueue\000"
 4579      75745175 
 4579      65756500 
 4580              	.LASF84:
 4581 04d0 496E7075 		.ascii	"InputQueue\000"
 4581      74517565 
 4581      756500
 4582              	.LASF38:
 4583 04db 705F6E61 		.ascii	"p_name\000"
 4583      6D6500
 4584              	.LASF202:
 4585 04e2 72657376 		.ascii	"resvd838\000"
 4585      64383338 
 4585      00
 4586              	.LASF193:
 4587 04eb 444F4550 		.ascii	"DOEPMSK\000"
 4587      4D534B00 
 4588              	.LASF123:
 4589 04f3 5553425F 		.ascii	"USB_EVENT_ADDRESS\000"
 4589      4556454E 
 4589      545F4144 
 4589      44524553 
 4589      5300
ARM GAS  C:\Users\ADMINI~1\AppData\Local\Temp\ccuylufO.s 			page 86


 4590              	.LASF183:
 4591 0505 4841494E 		.ascii	"HAINTMSK\000"
 4591      544D534B 
 4591      00
 4592              	.LASF73:
 4593 050e 63686172 		.ascii	"char\000"
 4593      00
 4594              	.LASF8:
 4595 0513 5F5F696E 		.ascii	"__int32_t\000"
 4595      7433325F 
 4595      7400
 4596              	.LASF238:
 4597 051d 696E5F73 		.ascii	"in_state\000"
 4597      74617465 
 4597      00
 4598              	.LASF79:
 4599 0526 715F7772 		.ascii	"q_wrptr\000"
 4599      70747200 
 4600              	.LASF162:
 4601 052e 47525354 		.ascii	"GRSTCTL\000"
 4601      43544C00 
 4602              	.LASF31:
 4603 0536 54687265 		.ascii	"Thread\000"
 4603      616400
 4604              	.LASF23:
 4605 053d 74737461 		.ascii	"tstate_t\000"
 4605      74655F74 
 4605      00
 4606              	.LASF94:
 4607 0546 6570306E 		.ascii	"ep0next\000"
 4607      65787400 
 4608              	.LASF37:
 4609 054e 705F6F6C 		.ascii	"p_older\000"
 4609      64657200 
 4610              	.LASF39:
 4611 0556 705F7374 		.ascii	"p_state\000"
 4611      61746500 
 4612              	.LASF15:
 4613 055e 75696E74 		.ascii	"uint8_t\000"
 4613      385F7400 
 4614              	.LASF98:
 4615 0566 73746174 		.ascii	"status\000"
 4615      757300
 4616              	.LASF207:
 4617 056d 72657376 		.ascii	"resvdD00\000"
 4617      64443030 
 4617      00
 4618              	.LASF234:
 4619 0576 696E5F63 		.ascii	"in_cb\000"
 4619      6200
 4620              	.LASF50:
 4621 057c 705F6D70 		.ascii	"p_mpool\000"
 4621      6F6F6C00 
 4622              	.LASF268:
 4623 0584 64747970 		.ascii	"dtype\000"
 4623      6500
 4624              	.LASF48:
ARM GAS  C:\Users\ADMINI~1\AppData\Local\Temp\ccuylufO.s 			page 87


 4625 058a 705F6D74 		.ascii	"p_mtxlist\000"
 4625      786C6973 
 4625      7400
 4626              	.LASF29:
 4627 0594 666C6167 		.ascii	"flagsmask_t\000"
 4627      736D6173 
 4627      6B5F7400 
 4628              	.LASF113:
 4629 05a0 75736273 		.ascii	"usbstate_t\000"
 4629      74617465 
 4629      5F7400
 4630              	.LASF248:
 4631 05ab 5344555F 		.ascii	"SDU_UNINIT\000"
 4631      554E494E 
 4631      495400
 4632              	.LASF302:
 4633 05b6 75736253 		.ascii	"usbStart\000"
 4633      74617274 
 4633      00
 4634              	.LASF12:
 4635 05bf 6C6F6E67 		.ascii	"long long int\000"
 4635      206C6F6E 
 4635      6720696E 
 4635      7400
 4636              	.LASF155:
 4637 05cd 444F4550 		.ascii	"DOEPINT\000"
 4637      494E5400 
 4638              	.LASF262:
 4639 05d5 77726974 		.ascii	"write\000"
 4639      6500
 4640              	.LASF154:
 4641 05db 444F4550 		.ascii	"DOEPCTL\000"
 4641      43544C00 
 4642              	.LASF215:
 4643 05e3 73746D33 		.ascii	"stm32_otg_params_t\000"
 4643      325F6F74 
 4643      675F7061 
 4643      72616D73 
 4643      5F7400
 4644              	.LASF27:
 4645 05f6 6D73675F 		.ascii	"msg_t\000"
 4645      7400
 4646              	.LASF289:
 4647 05fc 73657275 		.ascii	"serusbcfg\000"
 4647      73626366 
 4647      6700
 4648              	.LASF56:
 4649 0606 636F6E74 		.ascii	"context\000"
 4649      65787400 
 4650              	.LASF95:
 4651 060e 6570306E 		.ascii	"ep0n\000"
 4651      00
 4652              	.LASF182:
 4653 0613 4841494E 		.ascii	"HAINT\000"
 4653      5400
 4654              	.LASF295:
 4655 0619 474E5520 		.ascii	"GNU C 4.9.3 20150529 (release) [ARM/embedded-4_9-br"
ARM GAS  C:\Users\ADMINI~1\AppData\Local\Temp\ccuylufO.s 			page 88


 4655      4320342E 
 4655      392E3320 
 4655      32303135 
 4655      30353239 
 4656 064c 616E6368 		.ascii	"anch revision 224288] -mcpu=cortex-m4 -mfloat-abi=h"
 4656      20726576 
 4656      6973696F 
 4656      6E203232 
 4656      34323838 
 4657 067f 61726420 		.ascii	"ard -mfpu=fpv4-sp-d16 -mno-thumb-interwork -mthumb "
 4657      2D6D6670 
 4657      753D6670 
 4657      76342D73 
 4657      702D6431 
 4658 06b2 2D676764 		.ascii	"-ggdb -O2 -std=gnu99 -fomit-frame-pointer -falign-f"
 4658      62202D4F 
 4658      32202D73 
 4658      74643D67 
 4658      6E753939 
 4659 06e5 756E6374 		.ascii	"unctions=16 -ffunction-sections -fdata-sections -fn"
 4659      696F6E73 
 4659      3D313620 
 4659      2D666675 
 4659      6E637469 
 4660 0718 6F2D636F 		.ascii	"o-common -fsingle-precision-constant\000"
 4660      6D6D6F6E 
 4660      202D6673 
 4660      696E676C 
 4660      652D7072 
 4661              	.LASF239:
 4662 073d 6F75745F 		.ascii	"out_state\000"
 4662      73746174 
 4662      6500
 4663              	.LASF40:
 4664 0747 705F666C 		.ascii	"p_flags\000"
 4664      61677300 
 4665              	.LASF251:
 4666 074f 73647573 		.ascii	"sdustate_t\000"
 4666      74617465 
 4666      5F7400
 4667              	.LASF140:
 4668 075a 4843494E 		.ascii	"HCINTMSK\000"
 4668      544D534B 
 4668      00
 4669              	.LASF220:
 4670 0763 74787175 		.ascii	"txqueued\000"
 4670      65756564 
 4670      00
 4671              	.LASF91:
 4672 076c 696E5F70 		.ascii	"in_params\000"
 4672      6172616D 
 4672      7300
 4673              	.LASF151:
 4674 0776 44545846 		.ascii	"DTXFSTS\000"
 4674      53545300 
 4675              	.LASF246:
 4676 077e 736F665F 		.ascii	"sof_cb\000"
ARM GAS  C:\Users\ADMINI~1\AppData\Local\Temp\ccuylufO.s 			page 89


 4676      636200
 4677              	.LASF256:
 4678 0785 75736270 		.ascii	"usbp\000"
 4678      00
 4679              	.LASF145:
 4680 078a 73746D33 		.ascii	"stm32_otg_host_chn_t\000"
 4680      325F6F74 
 4680      675F686F 
 4680      73745F63 
 4680      686E5F74 
 4681              	.LASF169:
 4682 079f 484E5054 		.ascii	"HNPTXSTS\000"
 4682      58535453 
 4682      00
 4683              	.LASF181:
 4684 07a8 48505458 		.ascii	"HPTXSTS\000"
 4684      53545300 
 4685              	.LASF127:
 4686 07b0 5553425F 		.ascii	"USB_EVENT_STALLED\000"
 4686      4556454E 
 4686      545F5354 
 4686      414C4C45 
 4686      4400
 4687              	.LASF25:
 4688 07c2 74736C69 		.ascii	"tslices_t\000"
 4688      6365735F 
 4688      7400
 4689              	.LASF5:
 4690 07cc 73686F72 		.ascii	"short int\000"
 4690      7420696E 
 4690      7400
 4691              	.LASF210:
 4692 07d6 4649464F 		.ascii	"FIFO\000"
 4692      00
 4693              	.LASF100:
 4694 07db 636F6E66 		.ascii	"configuration\000"
 4694      69677572 
 4694      6174696F 
 4694      6E00
 4695              	.LASF241:
 4696 07e9 73657475 		.ascii	"setup_buf\000"
 4696      705F6275 
 4696      6600
 4697              	.LASF199:
 4698 07f3 44564255 		.ascii	"DVBUSPULSE\000"
 4698      5350554C 
 4698      534500
 4699              	.LASF63:
 4700 07fe 656C5F6E 		.ascii	"el_next\000"
 4700      65787400 
 4701              	.LASF46:
 4702 0806 705F6D73 		.ascii	"p_msg\000"
 4702      6700
 4703              	.LASF68:
 4704 080c 65735F6E 		.ascii	"es_next\000"
 4704      65787400 
 4705              	.LASF297:
ARM GAS  C:\Users\ADMINI~1\AppData\Local\Temp\ccuylufO.s 			page 90


 4706 0814 563A5C6F 		.ascii	"V:\\oroca_bldc_dev\000"
 4706      726F6361 
 4706      5F626C64 
 4706      635F6465 
 4706      7600
 4707              	.LASF22:
 4708 0826 746D6F64 		.ascii	"tmode_t\000"
 4708      655F7400 
 4709              	.LASF227:
 4710 082e 72787175 		.ascii	"rxqueue\000"
 4710      65756500 
 4711              	.LASF74:
 4712 0836 47656E65 		.ascii	"GenericQueue\000"
 4712      72696351 
 4712      75657565 
 4712      00
 4713              	.LASF93:
 4714 0843 65703073 		.ascii	"ep0state\000"
 4714      74617465 
 4714      00
 4715              	.LASF247:
 4716 084c 55534243 		.ascii	"USBConfig\000"
 4716      6F6E6669 
 4716      6700
 4717              	.LASF255:
 4718 0856 6F717565 		.ascii	"oqueue\000"
 4718      756500
 4719              	.LASF16:
 4720 085d 75696E74 		.ascii	"uint16_t\000"
 4720      31365F74 
 4720      00
 4721              	.LASF160:
 4722 0866 47414842 		.ascii	"GAHBCFG\000"
 4722      43464700 
 4723              	.LASF211:
 4724 086e 73746D33 		.ascii	"stm32_otg_t\000"
 4724      325F6F74 
 4724      675F7400 
 4725              	.LASF131:
 4726 087a 55534244 		.ascii	"USBDescriptor\000"
 4726      65736372 
 4726      6970746F 
 4726      7200
 4727              	.LASF55:
 4728 0888 696E7463 		.ascii	"intctx\000"
 4728      747800
 4729              	.LASF164:
 4730 088f 47494E54 		.ascii	"GINTMSK\000"
 4730      4D534B00 
 4731              	.LASF174:
 4732 0897 48505458 		.ascii	"HPTXFSIZ\000"
 4732      4653495A 
 4732      00
 4733              	.LASF291:
 4734 08a0 73647543 		.ascii	"sduConfigureHookI\000"
 4734      6F6E6669 
 4734      67757265 
ARM GAS  C:\Users\ADMINI~1\AppData\Local\Temp\ccuylufO.s 			page 91


 4734      486F6F6B 
 4734      4900
 4735              	.LASF88:
 4736 08b2 636F6E66 		.ascii	"config\000"
 4736      696700
 4737              	.LASF49:
 4738 08b9 705F7265 		.ascii	"p_realprio\000"
 4738      616C7072 
 4738      696F00
 4739              	.LASF270:
 4740 08c4 6C616E67 		.ascii	"lang\000"
 4740      00
 4741              	.LASF82:
 4742 08c9 715F6C69 		.ascii	"q_link\000"
 4742      6E6B00
 4743              	.LASF139:
 4744 08d0 4843494E 		.ascii	"HCINT\000"
 4744      5400
 4745              	.LASF92:
 4746 08d6 6F75745F 		.ascii	"out_params\000"
 4746      70617261 
 4746      6D7300
 4747              	.LASF59:
 4748 08e1 6D5F7175 		.ascii	"m_queue\000"
 4748      65756500 
 4749              	.LASF9:
 4750 08e9 6C6F6E67 		.ascii	"long int\000"
 4750      20696E74 
 4750      00
 4751              	.LASF231:
 4752 08f2 5553424F 		.ascii	"USBOutEndpointState\000"
 4752      7574456E 
 4752      64706F69 
 4752      6E745374 
 4752      61746500 
 4753              	.LASF286:
 4754 0906 49544D5F 		.ascii	"ITM_RxBuffer\000"
 4754      52784275 
 4754      66666572 
 4754      00
 4755              	.LASF146:
 4756 0913 44494550 		.ascii	"DIEPCTL\000"
 4756      43544C00 
 4757              	.LASF136:
 4758 091b 75736267 		.ascii	"usbgetdescriptor_t\000"
 4758      65746465 
 4758      73637269 
 4758      70746F72 
 4758      5F7400
 4759              	.LASF33:
 4760 092e 705F7072 		.ascii	"p_prev\000"
 4760      657600
 4761              	.LASF257:
 4762 0935 62756C6B 		.ascii	"bulk_in\000"
 4762      5F696E00 
 4763              	.LASF282:
 4764 093d 6570316F 		.ascii	"ep1outstate\000"
ARM GAS  C:\Users\ADMINI~1\AppData\Local\Temp\ccuylufO.s 			page 92


 4764      75747374 
 4764      61746500 
 4765              	.LASF32:
 4766 0949 705F6E65 		.ascii	"p_next\000"
 4766      787400
 4767              	.LASF216:
 4768 0950 74786275 		.ascii	"txbuf\000"
 4768      6600
 4769              	.LASF191:
 4770 0956 72657376 		.ascii	"resvd80C\000"
 4770      64383043 
 4770      00
 4771              	.LASF19:
 4772 095f 75696E74 		.ascii	"uint64_t\000"
 4772      36345F74 
 4772      00
 4773              	.LASF35:
 4774 0968 705F6374 		.ascii	"p_ctx\000"
 4774      7800
 4775              	.LASF208:
 4776 096e 50434743 		.ascii	"PCGCCTL\000"
 4776      43544C00 
 4777              	.LASF111:
 4778 0976 5553425F 		.ascii	"USB_SELECTED\000"
 4778      53454C45 
 4778      43544544 
 4778      00
 4779              	.LASF275:
 4780 0983 76636F6D 		.ascii	"vcom_configuration_descriptor\000"
 4780      5F636F6E 
 4780      66696775 
 4780      72617469 
 4780      6F6E5F64 
 4781              	.LASF217:
 4782 09a1 74787175 		.ascii	"txqueue\000"
 4782      65756500 
 4783              	.LASF81:
 4784 09a9 715F6E6F 		.ascii	"q_notify\000"
 4784      74696679 
 4784      00
 4785              	.LASF299:
 4786 09b2 6765745F 		.ascii	"get_descriptor\000"
 4786      64657363 
 4786      72697074 
 4786      6F7200
 4787              	.LASF263:
 4788 09c1 72656164 		.ascii	"read\000"
 4788      00
 4789              	.LASF133:
 4790 09c6 75736265 		.ascii	"usbepcallback_t\000"
 4790      7063616C 
 4790      6C626163 
 4790      6B5F7400 
 4791              	.LASF168:
 4792 09d6 44494550 		.ascii	"DIEPTXF0\000"
 4792      54584630 
 4792      00
ARM GAS  C:\Users\ADMINI~1\AppData\Local\Temp\ccuylufO.s 			page 93


 4793              	.LASF159:
 4794 09df 474F5447 		.ascii	"GOTGINT\000"
 4794      494E5400 
 4795              	.LASF158:
 4796 09e7 474F5447 		.ascii	"GOTGCTL\000"
 4796      43544C00 
 4797              	.LASF195:
 4798 09ef 4441494E 		.ascii	"DAINTMSK\000"
 4798      544D534B 
 4798      00
 4799              	.LASF76:
 4800 09f8 715F636F 		.ascii	"q_counter\000"
 4800      756E7465 
 4800      7200
 4801              	.LASF265:
 4802 0a02 67657474 		.ascii	"gett\000"
 4802      00
 4803              	.LASF78:
 4804 0a07 715F746F 		.ascii	"q_top\000"
 4804      7000
 4805              	.LASF192:
 4806 0a0d 44494550 		.ascii	"DIEPMSK\000"
 4806      4D534B00 
 4807              	.LASF57:
 4808 0a15 73697A65 		.ascii	"sizetype\000"
 4808      74797065 
 4808      00
 4809              	.LASF24:
 4810 0a1e 74726566 		.ascii	"trefs_t\000"
 4810      735F7400 
 4811              	.LASF62:
 4812 0a26 4576656E 		.ascii	"EventListener\000"
 4812      744C6973 
 4812      74656E65 
 4812      7200
 4813              	.LASF11:
 4814 0a34 6C6F6E67 		.ascii	"long unsigned int\000"
 4814      20756E73 
 4814      69676E65 
 4814      6420696E 
 4814      7400
 4815              	.LASF99:
 4816 0a46 61646472 		.ascii	"address\000"
 4816      65737300 
 4817              	.LASF166:
 4818 0a4e 47525853 		.ascii	"GRXSTSP\000"
 4818      54535000 
 4819              	.LASF165:
 4820 0a56 47525853 		.ascii	"GRXSTSR\000"
 4820      54535200 
 4821              	.LASF228:
 4822 0a5e 72787175 		.ascii	"rxqueued\000"
 4822      65756564 
 4822      00
 4823              	.LASF298:
 4824 0a67 7573625F 		.ascii	"usb_event\000"
 4824      6576656E 
ARM GAS  C:\Users\ADMINI~1\AppData\Local\Temp\ccuylufO.s 			page 94


 4824      7400
 4825              	.LASF219:
 4826 0a71 71756575 		.ascii	"queue\000"
 4826      6500
 4827              	.LASF17:
 4828 0a77 696E7433 		.ascii	"int32_t\000"
 4828      325F7400 
 4829              	.LASF157:
 4830 0a7f 73746D33 		.ascii	"stm32_otg_out_ep_t\000"
 4830      325F6F74 
 4830      675F6F75 
 4830      745F6570 
 4830      5F7400
 4831              	.LASF288:
 4832 0a92 75736263 		.ascii	"usbcfg\000"
 4832      666700
 4833              	.LASF4:
 4834 0a99 756E7369 		.ascii	"unsigned char\000"
 4834      676E6564 
 4834      20636861 
 4834      7200
 4835              	.LASF196:
 4836 0aa7 72657376 		.ascii	"resvd820\000"
 4836      64383230 
 4836      00
 4837              	.LASF102:
 4838 0ab0 706D6E65 		.ascii	"pmnext\000"
 4838      787400
 4839              	.LASF10:
 4840 0ab7 5F5F7569 		.ascii	"__uint32_t\000"
 4840      6E743332 
 4840      5F7400
 4841              	.LASF197:
 4842 0ac2 72657376 		.ascii	"resvd824\000"
 4842      64383234 
 4842      00
 4843              	.LASF120:
 4844 0acb 5553425F 		.ascii	"USB_EP0_ERROR\000"
 4844      4550305F 
 4844      4552524F 
 4844      5200
 4845              	.LASF179:
 4846 0ad9 48464E55 		.ascii	"HFNUM\000"
 4846      4D00
 4847              	.LASF41:
 4848 0adf 705F7265 		.ascii	"p_refs\000"
 4848      667300
 4849              	.LASF107:
 4850 0ae6 75736265 		.ascii	"usbep_t\000"
 4850      705F7400 
 4851              	.LASF224:
 4852 0aee 746F7473 		.ascii	"totsize\000"
 4852      697A6500 
 4853              	.LASF103:
 4854 0af6 74787065 		.ascii	"txpending\000"
 4854      6E64696E 
 4854      6700
ARM GAS  C:\Users\ADMINI~1\AppData\Local\Temp\ccuylufO.s 			page 95


 4855              	.LASF233:
 4856 0b00 73657475 		.ascii	"setup_cb\000"
 4856      705F6362 
 4856      00
 4857              	.LASF294:
 4858 0b09 63685468 		.ascii	"chThdSleep\000"
 4858      64536C65 
 4858      657000
 4859              	.LASF244:
 4860 0b14 6765745F 		.ascii	"get_descriptor_cb\000"
 4860      64657363 
 4860      72697074 
 4860      6F725F63 
 4860      6200
 4861              	.LASF42:
 4862 0b26 705F7072 		.ascii	"p_preempt\000"
 4862      65656D70 
 4862      7400
 4863              	.LASF209:
 4864 0b30 72657376 		.ascii	"resvdE04\000"
 4864      64453034 
 4864      00
 4865              	.LASF130:
 4866 0b39 75645F73 		.ascii	"ud_string\000"
 4866      7472696E 
 4866      6700
 4867              	.LASF126:
 4868 0b43 5553425F 		.ascii	"USB_EVENT_WAKEUP\000"
 4868      4556454E 
 4868      545F5741 
 4868      4B455550 
 4868      00
 4869              	.LASF87:
 4870 0b54 73746174 		.ascii	"state\000"
 4870      6500
 4871              	.LASF148:
 4872 0b5a 44494550 		.ascii	"DIEPINT\000"
 4872      494E5400 
 4873              	.LASF47:
 4874 0b62 705F6570 		.ascii	"p_epending\000"
 4874      656E6469 
 4874      6E6700
 4875              	.LASF178:
 4876 0b6d 48464952 		.ascii	"HFIR\000"
 4876      00
 4877              	.LASF175:
 4878 0b72 44494550 		.ascii	"DIEPTXF\000"
 4878      54584600 
 4879              	.LASF293:
 4880 0b7a 73647553 		.ascii	"sduStart\000"
 4880      74617274 
 4880      00
 4881              	.LASF189:
 4882 0b83 4443544C 		.ascii	"DCTL\000"
 4882      00
 4883              	.LASF3:
 4884 0b88 5F5F7569 		.ascii	"__uint8_t\000"
ARM GAS  C:\Users\ADMINI~1\AppData\Local\Temp\ccuylufO.s 			page 96


 4884      6E74385F 
 4884      7400
 4885              	.LASF243:
 4886 0b92 6576656E 		.ascii	"event_cb\000"
 4886      745F6362 
 4886      00
 4887              	.LASF237:
 4888 0b9b 6F75745F 		.ascii	"out_maxsize\000"
 4888      6D617873 
 4888      697A6500 
 4889              	.LASF200:
 4890 0ba7 72657376 		.ascii	"resvd830\000"
 4890      64383330 
 4890      00
 4891              	.LASF287:
 4892 0bb0 55534244 		.ascii	"USBD1\000"
 4892      3100
 4893              	.LASF61:
 4894 0bb6 6D5F6E65 		.ascii	"m_next\000"
 4894      787400
 4895              	.LASF225:
 4896 0bbd 55534249 		.ascii	"USBInEndpointState\000"
 4896      6E456E64 
 4896      706F696E 
 4896      74537461 
 4896      746500
 4897              	.LASF292:
 4898 0bd0 7364754F 		.ascii	"sduObjectInit\000"
 4898      626A6563 
 4898      74496E69 
 4898      7400
 4899              	.LASF86:
 4900 0bde 55534244 		.ascii	"USBDriver\000"
 4900      72697665 
 4900      7200
 4901              	.LASF203:
 4902 0be8 72657376 		.ascii	"resvd83C\000"
 4902      64383343 
 4902      00
 4903              	.LASF7:
 4904 0bf1 73686F72 		.ascii	"short unsigned int\000"
 4904      7420756E 
 4904      7369676E 
 4904      65642069 
 4904      6E7400
 4905              	.LASF54:
 4906 0c04 73746B61 		.ascii	"stkalign_t\000"
 4906      6C69676E 
 4906      5F7400
 4907              	.LASF101:
 4908 0c0f 6F746770 		.ascii	"otgparams\000"
 4908      6172616D 
 4908      7300
 4909              	.LASF240:
 4910 0c19 696E5F6D 		.ascii	"in_multiplier\000"
 4910      756C7469 
 4910      706C6965 
ARM GAS  C:\Users\ADMINI~1\AppData\Local\Temp\ccuylufO.s 			page 97


 4910      7200
 4911              	.LASF161:
 4912 0c27 47555342 		.ascii	"GUSBCFG\000"
 4912      43464700 
 4913              	.LASF194:
 4914 0c2f 4441494E 		.ascii	"DAINT\000"
 4914      5400
 4915              	.LASF119:
 4916 0c35 5553425F 		.ascii	"USB_EP0_SENDING_STS\000"
 4916      4550305F 
 4916      53454E44 
 4916      494E475F 
 4916      53545300 
 4917              	.LASF230:
 4918 0c49 7278636E 		.ascii	"rxcnt\000"
 4918      7400
 4919              	.LASF64:
 4920 0c4f 656C5F6C 		.ascii	"el_listener\000"
 4920      69737465 
 4920      6E657200 
 4921              	.LASF206:
 4922 0c5b 72657376 		.ascii	"resvd8C0\000"
 4922      64384330 
 4922      00
 4923              	.LASF300:
 4924 0c64 69735573 		.ascii	"isUsbActive\000"
 4924      62416374 
 4924      69766500 
 4925              	.LASF106:
 4926 0c70 77615F70 		.ascii	"wa_pump\000"
 4926      756D7000 
 4927              	.LASF236:
 4928 0c78 696E5F6D 		.ascii	"in_maxsize\000"
 4928      61787369 
 4928      7A6500
 4929              	.LASF128:
 4930 0c83 75736265 		.ascii	"usbevent_t\000"
 4930      76656E74 
 4930      5F7400
 4931              	.LASF204:
 4932 0c8e 72657376 		.ascii	"resvd840\000"
 4932      64383430 
 4932      00
 4933              	.LASF118:
 4934 0c97 5553425F 		.ascii	"USB_EP0_RX\000"
 4934      4550305F 
 4934      525800
 4935              	.LASF259:
 4936 0ca2 696E745F 		.ascii	"int_in\000"
 4936      696E00
 4937              	.LASF121:
 4938 0ca9 75736265 		.ascii	"usbep0state_t\000"
 4938      70307374 
 4938      6174655F 
 4938      7400
 4939              	.LASF124:
 4940 0cb7 5553425F 		.ascii	"USB_EVENT_CONFIGURED\000"
ARM GAS  C:\Users\ADMINI~1\AppData\Local\Temp\ccuylufO.s 			page 98


 4940      4556454E 
 4940      545F434F 
 4940      4E464947 
 4940      55524544 
 4941              	.LASF66:
 4942 0ccc 656C5F66 		.ascii	"el_flags\000"
 4942      6C616773 
 4942      00
 4943              	.LASF70:
 4944 0cd5 65786974 		.ascii	"exitcode\000"
 4944      636F6465 
 4944      00
 4945              	.LASF109:
 4946 0cde 5553425F 		.ascii	"USB_STOP\000"
 4946      53544F50 
 4946      00
 4947              	.LASF51:
 4948 0ce7 54687265 		.ascii	"ThreadsQueue\000"
 4948      61647351 
 4948      75657565 
 4948      00
 4949              	.LASF77:
 4950 0cf4 715F6275 		.ascii	"q_buffer\000"
 4950      66666572 
 4950      00
 4951              	.LASF226:
 4952 0cfd 72786275 		.ascii	"rxbuf\000"
 4952      6600
 4953              	.LASF135:
 4954 0d03 75736272 		.ascii	"usbreqhandler_t\000"
 4954      65716861 
 4954      6E646C65 
 4954      725F7400 
 4955              		.ident	"GCC: (GNU Tools for ARM Embedded Processors) 4.9.3 20150529 (release) [ARM/embedded-4_9-br
ARM GAS  C:\Users\ADMINI~1\AppData\Local\Temp\ccuylufO.s 			page 99


DEFINED SYMBOLS
                            *ABS*:00000000 myUSB.c
C:\Users\ADMINI~1\AppData\Local\Temp\ccuylufO.s:21     .text.get_descriptor:00000000 $t
C:\Users\ADMINI~1\AppData\Local\Temp\ccuylufO.s:26     .text.get_descriptor:00000000 get_descriptor
C:\Users\ADMINI~1\AppData\Local\Temp\ccuylufO.s:70     .text.get_descriptor:00000024 $d
C:\Users\ADMINI~1\AppData\Local\Temp\ccuylufO.s:77     .text.usb_event:00000000 $t
C:\Users\ADMINI~1\AppData\Local\Temp\ccuylufO.s:82     .text.usb_event:00000000 usb_event
C:\Users\ADMINI~1\AppData\Local\Temp\ccuylufO.s:142    .text.usb_event:0000002c $d
C:\Users\ADMINI~1\AppData\Local\Temp\ccuylufO.s:151    .text.isUsbActive:00000000 $t
C:\Users\ADMINI~1\AppData\Local\Temp\ccuylufO.s:157    .text.isUsbActive:00000000 isUsbActive
C:\Users\ADMINI~1\AppData\Local\Temp\ccuylufO.s:177    .text.isUsbActive:00000018 $d
C:\Users\ADMINI~1\AppData\Local\Temp\ccuylufO.s:182    .text.myUSBinit:00000000 $t
C:\Users\ADMINI~1\AppData\Local\Temp\ccuylufO.s:188    .text.myUSBinit:00000000 myUSBinit
C:\Users\ADMINI~1\AppData\Local\Temp\ccuylufO.s:236    .text.myUSBinit:0000003c $d
C:\Users\ADMINI~1\AppData\Local\Temp\ccuylufO.s:563    .rodata.serusbcfg:00000000 serusbcfg
C:\Users\ADMINI~1\AppData\Local\Temp\ccuylufO.s:312    .rodata.usbcfg:00000000 usbcfg
C:\Users\ADMINI~1\AppData\Local\Temp\ccuylufO.s:274    .bss.SDU1:00000000 SDU1
C:\Users\ADMINI~1\AppData\Local\Temp\ccuylufO.s:247    .rodata.ep1config:00000000 $d
C:\Users\ADMINI~1\AppData\Local\Temp\ccuylufO.s:251    .rodata.ep1config:00000000 ep1config
C:\Users\ADMINI~1\AppData\Local\Temp\ccuylufO.s:280    .bss.ep1instate:00000000 ep1instate
C:\Users\ADMINI~1\AppData\Local\Temp\ccuylufO.s:416    .bss.ep1outstate:00000000 ep1outstate
C:\Users\ADMINI~1\AppData\Local\Temp\ccuylufO.s:264    .bss.ep2instate:00000000 $d
C:\Users\ADMINI~1\AppData\Local\Temp\ccuylufO.s:267    .bss.ep2instate:00000000 ep2instate
C:\Users\ADMINI~1\AppData\Local\Temp\ccuylufO.s:270    .bss.SDU1:00000000 $d
C:\Users\ADMINI~1\AppData\Local\Temp\ccuylufO.s:277    .bss.ep1instate:00000000 $d
C:\Users\ADMINI~1\AppData\Local\Temp\ccuylufO.s:283    .rodata.vcom_configuration_descriptor:00000000 $d
C:\Users\ADMINI~1\AppData\Local\Temp\ccuylufO.s:287    .rodata.vcom_configuration_descriptor:00000000 vcom_configuration_descriptor
C:\Users\ADMINI~1\AppData\Local\Temp\ccuylufO.s:321    .rodata.vcom_configuration_descriptor_data:00000000 vcom_configuration_descriptor_data
C:\Users\ADMINI~1\AppData\Local\Temp\ccuylufO.s:291    .rodata.ep2config:00000000 $d
C:\Users\ADMINI~1\AppData\Local\Temp\ccuylufO.s:295    .rodata.ep2config:00000000 ep2config
C:\Users\ADMINI~1\AppData\Local\Temp\ccuylufO.s:308    .rodata.usbcfg:00000000 $d
C:\Users\ADMINI~1\AppData\Local\Temp\ccuylufO.s:318    .rodata.vcom_configuration_descriptor_data:00000000 $d
C:\Users\ADMINI~1\AppData\Local\Temp\ccuylufO.s:390    .rodata.vcom_device_descriptor_data:00000000 $d
C:\Users\ADMINI~1\AppData\Local\Temp\ccuylufO.s:393    .rodata.vcom_device_descriptor_data:00000000 vcom_device_descriptor_data
C:\Users\ADMINI~1\AppData\Local\Temp\ccuylufO.s:413    .bss.ep1outstate:00000000 $d
C:\Users\ADMINI~1\AppData\Local\Temp\ccuylufO.s:419    .rodata.vcom_string0:00000000 $d
C:\Users\ADMINI~1\AppData\Local\Temp\ccuylufO.s:422    .rodata.vcom_string0:00000000 vcom_string0
C:\Users\ADMINI~1\AppData\Local\Temp\ccuylufO.s:428    .rodata.vcom_string1:00000000 $d
C:\Users\ADMINI~1\AppData\Local\Temp\ccuylufO.s:431    .rodata.vcom_string1:00000000 vcom_string1
C:\Users\ADMINI~1\AppData\Local\Temp\ccuylufO.s:471    .rodata.vcom_string2:00000000 $d
C:\Users\ADMINI~1\AppData\Local\Temp\ccuylufO.s:474    .rodata.vcom_string2:00000000 vcom_string2
C:\Users\ADMINI~1\AppData\Local\Temp\ccuylufO.s:532    .rodata.vcom_string3:00000000 $d
C:\Users\ADMINI~1\AppData\Local\Temp\ccuylufO.s:535    .rodata.vcom_string3:00000000 vcom_string3
C:\Users\ADMINI~1\AppData\Local\Temp\ccuylufO.s:545    .rodata.vcom_strings:00000000 $d
C:\Users\ADMINI~1\AppData\Local\Temp\ccuylufO.s:549    .rodata.vcom_strings:00000000 vcom_strings
C:\Users\ADMINI~1\AppData\Local\Temp\ccuylufO.s:559    .rodata.serusbcfg:00000000 $d
C:\Users\ADMINI~1\AppData\Local\Temp\ccuylufO.s:570    .rodata.vcom_device_descriptor:00000000 $d
C:\Users\ADMINI~1\AppData\Local\Temp\ccuylufO.s:574    .rodata.vcom_device_descriptor:00000000 vcom_device_descriptor
                     .debug_frame:00000010 $d

UNDEFINED SYMBOLS
usbInitEndpointI
sduConfigureHookI
sduObjectInit
sduStart
chThdSleep
usbStart
ARM GAS  C:\Users\ADMINI~1\AppData\Local\Temp\ccuylufO.s 			page 100


USBD1
sduDataTransmitted
sduDataReceived
sduInterruptTransmitted
sduRequestsHook
