ARM GAS  C:\Users\ADMINI~1\AppData\Local\Temp\cclc6TcK.s 			page 1


   1              		.syntax unified
   2              		.cpu cortex-m4
   3              		.eabi_attribute 27, 1
   4              		.eabi_attribute 28, 1
   5              		.fpu fpv4-sp-d16
   6              		.eabi_attribute 20, 1
   7              		.eabi_attribute 21, 1
   8              		.eabi_attribute 23, 3
   9              		.eabi_attribute 24, 1
  10              		.eabi_attribute 25, 1
  11              		.eabi_attribute 26, 1
  12              		.eabi_attribute 30, 2
  13              		.eabi_attribute 34, 1
  14              		.eabi_attribute 18, 4
  15              		.thumb
  16              		.file	"nrf_driver.c"
  17              		.text
  18              	.Ltext0:
  19              		.cfi_sections	.debug_frame
  20              		.section	.text.tx_thread,"ax",%progbits
  21              		.align	2
  22              		.p2align 4,,15
  23              		.thumb
  24              		.thumb_func
  25              		.type	tx_thread, %function
  26              	tx_thread:
  27              	.LFB8:
  28              		.file 1 "nrf/nrf_driver.c"
  29              		.loc 1 55 0
  30              		.cfi_startproc
  31              		@ Volatile: function does not return.
  32              		@ args = 0, pretend = 0, frame = 0
  33              		@ frame_needed = 0, uses_anonymous_args = 0
  34              	.LVL0:
  35 0000 08B5     		push	{r3, lr}
  36              		.cfi_def_cfa_offset 8
  37              		.cfi_offset 3, -8
  38              		.cfi_offset 14, -4
  39              		.loc 1 58 0
  40 0002 044B     		ldr	r3, .L5
  41 0004 044A     		ldr	r2, .L5+4
  42 0006 9B69     		ldr	r3, [r3, #24]
  43 0008 9A61     		str	r2, [r3, #24]
  44              	.LVL1:
  45              	.L2:
  46              		.loc 1 63 0 discriminator 1
  47 000a 41F28830 		movw	r0, #5000
  48 000e FFF7FEFF 		bl	chThdSleep
  49              	.LVL2:
  50              		.loc 1 64 0 discriminator 1
  51 0012 FAE7     		b	.L2
  52              	.L6:
  53              		.align	2
  54              	.L5:
  55 0014 00000000 		.word	rlist
  56 0018 00000000 		.word	.LC0
  57              		.cfi_endproc
ARM GAS  C:\Users\ADMINI~1\AppData\Local\Temp\cclc6TcK.s 			page 2


  58              	.LFE8:
  59              		.size	tx_thread, .-tx_thread
  60              		.section	.text.rx_thread,"ax",%progbits
  61              		.align	2
  62              		.p2align 4,,15
  63              		.thumb
  64              		.thumb_func
  65              		.type	rx_thread, %function
  66              	rx_thread:
  67              	.LFB9:
  68              		.loc 1 69 0
  69              		.cfi_startproc
  70              		@ args = 0, pretend = 0, frame = 72
  71              		@ frame_needed = 0, uses_anonymous_args = 0
  72              	.LVL3:
  73 0000 F0B5     		push	{r4, r5, r6, r7, lr}
  74              		.cfi_def_cfa_offset 20
  75              		.cfi_offset 4, -20
  76              		.cfi_offset 5, -16
  77              		.cfi_offset 6, -12
  78              		.cfi_offset 7, -8
  79              		.cfi_offset 14, -4
  80              		.loc 1 72 0
  81 0002 2B4B     		ldr	r3, .L18
  82 0004 2B4A     		ldr	r2, .L18+4
  83 0006 9B69     		ldr	r3, [r3, #24]
  84 0008 2B4C     		ldr	r4, .L18+8
  85              		.loc 1 69 0
  86 000a 2DED028B 		fstmfdd	sp!, {d8}
  87              		.cfi_def_cfa_offset 28
  88              		.cfi_offset 80, -28
  89              		.cfi_offset 81, -24
  90              		.loc 1 74 0
  91 000e 0026     		movs	r6, #0
  92              	.LBB2:
  93              	.LBB3:
  94              	.LBB4:
  95              		.loc 1 104 0
  96 0010 9FED2A8A 		flds	s16, .L18+12
  97              	.LBE4:
  98              	.LBE3:
  99              	.LBE2:
 100              		.loc 1 72 0
 101 0014 9A61     		str	r2, [r3, #24]
 102              	.LVL4:
 103              		.loc 1 69 0
 104 0016 93B0     		sub	sp, sp, #76
 105              		.cfi_def_cfa_offset 104
 106              	.LBB7:
 107              	.LBB6:
 108              		.loc 1 84 0
 109 0018 3746     		mov	r7, r6
 110              	.LVL5:
 111              	.L8:
 112              		.loc 1 82 0
 113 001a 0AA8     		add	r0, sp, #40
 114 001c 01A9     		add	r1, sp, #4
ARM GAS  C:\Users\ADMINI~1\AppData\Local\Temp\cclc6TcK.s 			page 3


 115 001e 02AA     		add	r2, sp, #8
 116 0020 FFF7FEFF 		bl	rfhelp_read_rx_data
 117              	.LVL6:
 118              		.loc 1 88 0
 119 0024 051E     		subs	r5, r0, #0
 120              		.loc 1 84 0
 121 0026 0397     		str	r7, [sp, #12]
 122              		.loc 1 88 0
 123 0028 38DB     		blt	.L9
 124              	.LBB5:
 125              		.loc 1 91 0
 126 002a 9DF82830 		ldrb	r3, [sp, #40]	@ zero_extendqisi2
 127 002e 012B     		cmp	r3, #1
 128              		.loc 1 104 0
 129 0030 03A9     		add	r1, sp, #12
 130              		.loc 1 100 0
 131 0032 4FF00402 		mov	r2, #4
 132              		.loc 1 104 0
 133 0036 0AA8     		add	r0, sp, #40
 134              	.LVL7:
 135              		.loc 1 91 0
 136 0038 2BD1     		bne	.L10
 137              		.loc 1 100 0
 138 003a 9DF82B30 		ldrb	r3, [sp, #43]	@ zero_extendqisi2
 139              	.LVL8:
 140 003e 0392     		str	r2, [sp, #12]
 141              		.loc 1 101 0
 142 0040 03F00102 		and	r2, r3, #1
 143 0044 A270     		strb	r2, [r4, #2]
 144              		.loc 1 102 0
 145 0046 C3F34002 		ubfx	r2, r3, #1, #1
 146              		.loc 1 98 0
 147 004a 9DF829E0 		ldrb	lr, [sp, #41]	@ zero_extendqisi2
 148              		.loc 1 102 0
 149 004e E270     		strb	r2, [r4, #3]
 150              		.loc 1 103 0
 151 0050 C3F38003 		ubfx	r3, r3, #2, #1
 152              	.LVL9:
 153              		.loc 1 99 0
 154 0054 9DF82A20 		ldrb	r2, [sp, #42]	@ zero_extendqisi2
 155              		.loc 1 103 0
 156 0058 2371     		strb	r3, [r4, #4]
 157              		.loc 1 99 0
 158 005a 6270     		strb	r2, [r4, #1]
 159              		.loc 1 98 0
 160 005c 84F800E0 		strb	lr, [r4]
 161              		.loc 1 104 0
 162 0060 FFF7FEFF 		bl	buffer_get_int16
 163              	.LVL10:
 164 0064 07EE900A 		fmsr	s15, r0	@ int
 165 0068 F8EEE77A 		fsitos	s15, s15
 166              		.loc 1 106 0
 167 006c 2378     		ldrb	r3, [r4]	@ zero_extendqisi2
 168              		.loc 1 107 0
 169 006e 6078     		ldrb	r0, [r4, #1]	@ zero_extendqisi2
 170              		.loc 1 108 0
 171 0070 A178     		ldrb	r1, [r4, #2]	@ zero_extendqisi2
ARM GAS  C:\Users\ADMINI~1\AppData\Local\Temp\cclc6TcK.s 			page 4


 172              		.loc 1 109 0
 173 0072 E278     		ldrb	r2, [r4, #3]	@ zero_extendqisi2
 174              		.loc 1 107 0
 175 0074 0590     		str	r0, [sp, #20]
 176              		.loc 1 104 0
 177 0076 C7EE887A 		fdivs	s15, s15, s16
 178              		.loc 1 106 0
 179 007a C3F1FF03 		rsb	r3, r3, #255
 180              		.loc 1 111 0
 181 007e 04A8     		add	r0, sp, #16
 182              		.loc 1 106 0
 183 0080 0493     		str	r3, [sp, #16]
 184              		.loc 1 108 0
 185 0082 8DF82410 		strb	r1, [sp, #36]
 186              		.loc 1 109 0
 187 0086 8DF82520 		strb	r2, [sp, #37]
 188              		.loc 1 104 0
 189 008a C4ED027A 		fsts	s15, [r4, #8]
 190              		.loc 1 111 0
 191 008e FFF7FEFF 		bl	app_nunchuk_update_output
 192              	.LVL11:
 193              	.L10:
 194              	.LBE5:
 195              		.loc 1 124 0
 196 0092 3220     		movs	r0, #50
 197              		.loc 1 120 0
 198 0094 15B1     		cbz	r5, .L9
 199              		.loc 1 124 0
 200 0096 FFF7FEFF 		bl	chThdSleep
 201              	.LVL12:
 202              	.LBE6:
 203              		.loc 1 126 0
 204 009a BEE7     		b	.L8
 205              	.L9:
 206              		.loc 1 131 0
 207 009c 0136     		adds	r6, r6, #1
 208              	.LVL13:
 209              		.loc 1 128 0
 210 009e 3220     		movs	r0, #50
 211 00a0 FFF7FEFF 		bl	chThdSleep
 212              	.LVL14:
 213              		.loc 1 132 0
 214 00a4 142E     		cmp	r6, #20
 215 00a6 B8DD     		ble	.L8
 216              	.LVL15:
 217              		.loc 1 134 0
 218 00a8 FFF7FEFF 		bl	rfhelp_restart
 219              	.LVL16:
 220              		.loc 1 133 0
 221 00ac 0026     		movs	r6, #0
 222              	.LBE7:
 223              		.loc 1 136 0
 224 00ae B4E7     		b	.L8
 225              	.L19:
 226              		.align	2
 227              	.L18:
 228 00b0 00000000 		.word	rlist
ARM GAS  C:\Users\ADMINI~1\AppData\Local\Temp\cclc6TcK.s 			page 5


 229 00b4 08000000 		.word	.LC1
 230 00b8 00000000 		.word	.LANCHOR0
 231 00bc 00007A44 		.word	1148846080
 232              		.cfi_endproc
 233              	.LFE9:
 234              		.size	rx_thread, .-rx_thread
 235              		.section	.text.nrf_driver_init,"ax",%progbits
 236              		.align	2
 237              		.p2align 4,,15
 238              		.global	nrf_driver_init
 239              		.thumb
 240              		.thumb_func
 241              		.type	nrf_driver_init, %function
 242              	nrf_driver_init:
 243              	.LFB7:
 244              		.loc 1 42 0
 245              		.cfi_startproc
 246              		@ args = 0, pretend = 0, frame = 8
 247              		@ frame_needed = 0, uses_anonymous_args = 0
 248 0000 10B5     		push	{r4, lr}
 249              		.cfi_def_cfa_offset 8
 250              		.cfi_offset 4, -8
 251              		.cfi_offset 14, -4
 252 0002 84B0     		sub	sp, sp, #16
 253              		.cfi_def_cfa_offset 24
 254              		.loc 1 43 0
 255 0004 FFF7FEFF 		bl	rf_init
 256              	.LVL17:
 257              		.loc 1 44 0
 258 0008 FFF7FEFF 		bl	rfhelp_init
 259              	.LVL18:
 260              		.loc 1 47 0
 261 000c C521     		movs	r1, #197
 262 000e C622     		movs	r2, #198
 263 0010 C723     		movs	r3, #199
 264 0012 C420     		movs	r0, #196
 265 0014 8DF80910 		strb	r1, [sp, #9]
 266 0018 8DF80A20 		strb	r2, [sp, #10]
 267 001c 8DF80B30 		strb	r3, [sp, #11]
 268 0020 8DF80800 		strb	r0, [sp, #8]
 269 0024 FFF7FEFF 		bl	app_get_configuration
 270              	.LVL19:
 271              		.loc 1 48 0
 272 0028 02A9     		add	r1, sp, #8
 273              		.loc 1 47 0
 274 002a 0378     		ldrb	r3, [r0]	@ zero_extendqisi2
 275 002c 8DF80C30 		strb	r3, [sp, #12]
 276              		.loc 1 48 0
 277 0030 0522     		movs	r2, #5
 278 0032 0020     		movs	r0, #0
 279 0034 FFF7FEFF 		bl	rfhelp_set_rx_addr
 280              	.LVL20:
 281              		.loc 1 51 0
 282 0038 0024     		movs	r4, #0
 283              		.loc 1 49 0
 284 003a 02A8     		add	r0, sp, #8
 285 003c 0521     		movs	r1, #5
ARM GAS  C:\Users\ADMINI~1\AppData\Local\Temp\cclc6TcK.s 			page 6


 286 003e FFF7FEFF 		bl	rfhelp_set_tx_addr
 287              	.LVL21:
 288              		.loc 1 51 0
 289 0042 0094     		str	r4, [sp]
 290 0044 084B     		ldr	r3, .L22
 291 0046 0948     		ldr	r0, .L22+4
 292 0048 4FF4B361 		mov	r1, #1432
 293 004c 3F22     		movs	r2, #63
 294 004e FFF7FEFF 		bl	chThdCreateStatic
 295              	.LVL22:
 296              		.loc 1 52 0
 297 0052 0094     		str	r4, [sp]
 298 0054 064B     		ldr	r3, .L22+8
 299 0056 0748     		ldr	r0, .L22+12
 300 0058 4FF46671 		mov	r1, #920
 301 005c 3F22     		movs	r2, #63
 302 005e FFF7FEFF 		bl	chThdCreateStatic
 303              	.LVL23:
 304              		.loc 1 53 0
 305 0062 04B0     		add	sp, sp, #16
 306              		.cfi_def_cfa_offset 8
 307              		@ sp needed
 308 0064 10BD     		pop	{r4, pc}
 309              	.L23:
 310 0066 00BF     		.align	2
 311              	.L22:
 312 0068 00000000 		.word	rx_thread
 313 006c 00000000 		.word	.LANCHOR1
 314 0070 00000000 		.word	tx_thread
 315 0074 00000000 		.word	.LANCHOR2
 316              		.cfi_endproc
 317              	.LFE7:
 318              		.size	nrf_driver_init, .-nrf_driver_init
 319              		.section	.rodata.str1.4,"aMS",%progbits,1
 320              		.align	2
 321              	.LC0:
 322 0000 4E726620 		.ascii	"Nrf TX\000"
 322      545800
 323 0007 00       		.space	1
 324              	.LC1:
 325 0008 525800   		.ascii	"RX\000"
 326              		.section	.bss.rx_thread_wa,"aw",%nobits
 327              		.align	3
 328              		.set	.LANCHOR1,. + 0
 329              		.type	rx_thread_wa, %object
 330              		.size	rx_thread_wa, 1432
 331              	rx_thread_wa:
 332 0000 00000000 		.space	1432
 332      00000000 
 332      00000000 
 332      00000000 
 332      00000000 
 333              		.section	.bss.mstate,"aw",%nobits
 334              		.align	2
 335              		.set	.LANCHOR0,. + 0
 336              		.type	mstate, %object
 337              		.size	mstate, 12
ARM GAS  C:\Users\ADMINI~1\AppData\Local\Temp\cclc6TcK.s 			page 7


 338              	mstate:
 339 0000 00000000 		.space	12
 339      00000000 
 339      00000000 
 340              		.section	.bss.tx_thread_wa,"aw",%nobits
 341              		.align	3
 342              		.set	.LANCHOR2,. + 0
 343              		.type	tx_thread_wa, %object
 344              		.size	tx_thread_wa, 920
 345              	tx_thread_wa:
 346 0000 00000000 		.space	920
 346      00000000 
 346      00000000 
 346      00000000 
 346      00000000 
 347              		.text
 348              	.Letext0:
 349              		.file 2 "c:\\program files\\gnu tools arm embedded\\4.9 2015q2\\arm-none-eabi\\include\\machine\\_
 350              		.file 3 "c:\\program files\\gnu tools arm embedded\\4.9 2015q2\\arm-none-eabi\\include\\sys\\_stdi
 351              		.file 4 "c:\\program files\\gnu tools arm embedded\\4.9 2015q2\\lib\\gcc\\arm-none-eabi\\4.9.3\\in
 352              		.file 5 "ChibiOS_2.6.6/os/ports/GCC/ARMCMx/chtypes.h"
 353              		.file 6 "ChibiOS_2.6.6/os/kernel/include/chlists.h"
 354              		.file 7 "ChibiOS_2.6.6/os/kernel/include/chthreads.h"
 355              		.file 8 "ChibiOS_2.6.6/os/ports/GCC/ARMCMx/chcore_v7m.h"
 356              		.file 9 "ChibiOS_2.6.6/os/kernel/include/chschd.h"
 357              		.file 10 "ChibiOS_2.6.6/os/kernel/include/chmtx.h"
 358              		.file 11 "./datatypes.h"
 359              		.file 12 "applications/app.h"
 360              		.file 13 "./buffer.h"
 361              		.file 14 "nrf/rfhelp.h"
 362              		.file 15 "nrf/rf.h"
 363              		.section	.debug_info,"",%progbits
 364              	.Ldebug_info0:
 365 0000 790D0000 		.4byte	0xd79
 366 0004 0400     		.2byte	0x4
 367 0006 00000000 		.4byte	.Ldebug_abbrev0
 368 000a 04       		.byte	0x4
 369 000b 01       		.uleb128 0x1
 370 000c E4040000 		.4byte	.LASF176
 371 0010 01       		.byte	0x1
 372 0011 A0020000 		.4byte	.LASF177
 373 0015 0E090000 		.4byte	.LASF178
 374 0019 48000000 		.4byte	.Ldebug_ranges0+0x48
 375 001d 00000000 		.4byte	0
 376 0021 00000000 		.4byte	.Ldebug_line0
 377 0025 02       		.uleb128 0x2
 378 0026 01       		.byte	0x1
 379 0027 06       		.byte	0x6
 380 0028 27090000 		.4byte	.LASF0
 381 002c 03       		.uleb128 0x3
 382 002d B2070000 		.4byte	.LASF2
 383 0031 02       		.byte	0x2
 384 0032 1D       		.byte	0x1d
 385 0033 37000000 		.4byte	0x37
 386 0037 02       		.uleb128 0x2
 387 0038 01       		.byte	0x1
 388 0039 08       		.byte	0x8
ARM GAS  C:\Users\ADMINI~1\AppData\Local\Temp\cclc6TcK.s 			page 8


 389 003a 1F080000 		.4byte	.LASF1
 390 003e 03       		.uleb128 0x3
 391 003f 10060000 		.4byte	.LASF3
 392 0043 02       		.byte	0x2
 393 0044 29       		.byte	0x29
 394 0045 49000000 		.4byte	0x49
 395 0049 02       		.uleb128 0x2
 396 004a 02       		.byte	0x2
 397 004b 05       		.byte	0x5
 398 004c 30070000 		.4byte	.LASF4
 399 0050 02       		.uleb128 0x2
 400 0051 02       		.byte	0x2
 401 0052 07       		.byte	0x7
 402 0053 3B090000 		.4byte	.LASF5
 403 0057 03       		.uleb128 0x3
 404 0058 D8000000 		.4byte	.LASF6
 405 005c 02       		.byte	0x2
 406 005d 3F       		.byte	0x3f
 407 005e 62000000 		.4byte	0x62
 408 0062 02       		.uleb128 0x2
 409 0063 04       		.byte	0x4
 410 0064 05       		.byte	0x5
 411 0065 57070000 		.4byte	.LASF7
 412 0069 03       		.uleb128 0x3
 413 006a 4B080000 		.4byte	.LASF8
 414 006e 02       		.byte	0x2
 415 006f 41       		.byte	0x41
 416 0070 74000000 		.4byte	0x74
 417 0074 02       		.uleb128 0x2
 418 0075 04       		.byte	0x4
 419 0076 07       		.byte	0x7
 420 0077 D4070000 		.4byte	.LASF9
 421 007b 02       		.uleb128 0x2
 422 007c 08       		.byte	0x8
 423 007d 05       		.byte	0x5
 424 007e 6A040000 		.4byte	.LASF10
 425 0082 03       		.uleb128 0x3
 426 0083 21030000 		.4byte	.LASF11
 427 0087 02       		.byte	0x2
 428 0088 5B       		.byte	0x5b
 429 0089 8D000000 		.4byte	0x8d
 430 008d 02       		.uleb128 0x2
 431 008e 08       		.byte	0x8
 432 008f 07       		.byte	0x7
 433 0090 39020000 		.4byte	.LASF12
 434 0094 04       		.uleb128 0x4
 435 0095 04       		.byte	0x4
 436 0096 05       		.byte	0x5
 437 0097 696E7400 		.ascii	"int\000"
 438 009b 02       		.uleb128 0x2
 439 009c 04       		.byte	0x4
 440 009d 07       		.byte	0x7
 441 009e B3000000 		.4byte	.LASF13
 442 00a2 03       		.uleb128 0x3
 443 00a3 F6030000 		.4byte	.LASF14
 444 00a7 03       		.byte	0x3
 445 00a8 14       		.byte	0x14
ARM GAS  C:\Users\ADMINI~1\AppData\Local\Temp\cclc6TcK.s 			page 9


 446 00a9 2C000000 		.4byte	0x2c
 447 00ad 03       		.uleb128 0x3
 448 00ae 23020000 		.4byte	.LASF15
 449 00b2 03       		.byte	0x3
 450 00b3 19       		.byte	0x19
 451 00b4 3E000000 		.4byte	0x3e
 452 00b8 03       		.uleb128 0x3
 453 00b9 F8070000 		.4byte	.LASF16
 454 00bd 03       		.byte	0x3
 455 00be 1F       		.byte	0x1f
 456 00bf 57000000 		.4byte	0x57
 457 00c3 03       		.uleb128 0x3
 458 00c4 B9010000 		.4byte	.LASF17
 459 00c8 03       		.byte	0x3
 460 00c9 20       		.byte	0x20
 461 00ca 69000000 		.4byte	0x69
 462 00ce 03       		.uleb128 0x3
 463 00cf 9D070000 		.4byte	.LASF18
 464 00d3 03       		.byte	0x3
 465 00d4 26       		.byte	0x26
 466 00d5 82000000 		.4byte	0x82
 467 00d9 03       		.uleb128 0x3
 468 00da D7020000 		.4byte	.LASF19
 469 00de 04       		.byte	0x4
 470 00df D4       		.byte	0xd4
 471 00e0 9B000000 		.4byte	0x9b
 472 00e4 02       		.uleb128 0x2
 473 00e5 01       		.byte	0x1
 474 00e6 02       		.byte	0x2
 475 00e7 F4020000 		.4byte	.LASF20
 476 00eb 03       		.uleb128 0x3
 477 00ec AC060000 		.4byte	.LASF21
 478 00f0 05       		.byte	0x5
 479 00f1 2C       		.byte	0x2c
 480 00f2 A2000000 		.4byte	0xa2
 481 00f6 03       		.uleb128 0x3
 482 00f7 AB030000 		.4byte	.LASF22
 483 00fb 05       		.byte	0x5
 484 00fc 2D       		.byte	0x2d
 485 00fd A2000000 		.4byte	0xa2
 486 0101 03       		.uleb128 0x3
 487 0102 CC070000 		.4byte	.LASF23
 488 0106 05       		.byte	0x5
 489 0107 2E       		.byte	0x2e
 490 0108 A2000000 		.4byte	0xa2
 491 010c 03       		.uleb128 0x3
 492 010d 77060000 		.4byte	.LASF24
 493 0111 05       		.byte	0x5
 494 0112 2F       		.byte	0x2f
 495 0113 A2000000 		.4byte	0xa2
 496 0117 03       		.uleb128 0x3
 497 0118 15020000 		.4byte	.LASF25
 498 011c 05       		.byte	0x5
 499 011d 30       		.byte	0x30
 500 011e C3000000 		.4byte	0xc3
 501 0122 03       		.uleb128 0x3
 502 0123 C2040000 		.4byte	.LASF26
ARM GAS  C:\Users\ADMINI~1\AppData\Local\Temp\cclc6TcK.s 			page 10


 503 0127 05       		.byte	0x5
 504 0128 31       		.byte	0x31
 505 0129 B8000000 		.4byte	0xb8
 506 012d 03       		.uleb128 0x3
 507 012e EF010000 		.4byte	.LASF27
 508 0132 05       		.byte	0x5
 509 0133 33       		.byte	0x33
 510 0134 C3000000 		.4byte	0xc3
 511 0138 03       		.uleb128 0x3
 512 0139 8B000000 		.4byte	.LASF28
 513 013d 05       		.byte	0x5
 514 013e 35       		.byte	0x35
 515 013f C3000000 		.4byte	0xc3
 516 0143 03       		.uleb128 0x3
 517 0144 A4030000 		.4byte	.LASF29
 518 0148 06       		.byte	0x6
 519 0149 2A       		.byte	0x2a
 520 014a 4E010000 		.4byte	0x14e
 521 014e 05       		.uleb128 0x5
 522 014f A4030000 		.4byte	.LASF29
 523 0153 48       		.byte	0x48
 524 0154 07       		.byte	0x7
 525 0155 5E       		.byte	0x5e
 526 0156 4B020000 		.4byte	0x24b
 527 015a 06       		.uleb128 0x6
 528 015b 96070000 		.4byte	.LASF30
 529 015f 07       		.byte	0x7
 530 0160 5F       		.byte	0x5f
 531 0161 6C020000 		.4byte	0x26c
 532 0165 00       		.byte	0
 533 0166 06       		.uleb128 0x6
 534 0167 BC070000 		.4byte	.LASF31
 535 016b 07       		.byte	0x7
 536 016c 61       		.byte	0x61
 537 016d 6C020000 		.4byte	0x26c
 538 0171 04       		.byte	0x4
 539 0172 06       		.uleb128 0x6
 540 0173 67000000 		.4byte	.LASF32
 541 0177 07       		.byte	0x7
 542 0178 63       		.byte	0x63
 543 0179 17010000 		.4byte	0x117
 544 017d 08       		.byte	0x8
 545 017e 06       		.uleb128 0x6
 546 017f A6070000 		.4byte	.LASF33
 547 0183 07       		.byte	0x7
 548 0184 64       		.byte	0x64
 549 0185 01040000 		.4byte	0x401
 550 0189 0C       		.byte	0xc
 551 018a 06       		.uleb128 0x6
 552 018b 98020000 		.4byte	.LASF34
 553 018f 07       		.byte	0x7
 554 0190 66       		.byte	0x66
 555 0191 6C020000 		.4byte	0x26c
 556 0195 10       		.byte	0x10
 557 0196 06       		.uleb128 0x6
 558 0197 E6030000 		.4byte	.LASF35
 559 019b 07       		.byte	0x7
ARM GAS  C:\Users\ADMINI~1\AppData\Local\Temp\cclc6TcK.s 			page 11


 560 019c 67       		.byte	0x67
 561 019d 6C020000 		.4byte	0x26c
 562 01a1 14       		.byte	0x14
 563 01a2 06       		.uleb128 0x6
 564 01a3 49030000 		.4byte	.LASF36
 565 01a7 07       		.byte	0x7
 566 01a8 6E       		.byte	0x6e
 567 01a9 01050000 		.4byte	0x501
 568 01ad 18       		.byte	0x18
 569 01ae 06       		.uleb128 0x6
 570 01af EE030000 		.4byte	.LASF37
 571 01b3 07       		.byte	0x7
 572 01b4 79       		.byte	0x79
 573 01b5 F6000000 		.4byte	0xf6
 574 01b9 1C       		.byte	0x1c
 575 01ba 06       		.uleb128 0x6
 576 01bb 08060000 		.4byte	.LASF38
 577 01bf 07       		.byte	0x7
 578 01c0 7D       		.byte	0x7d
 579 01c1 EB000000 		.4byte	0xeb
 580 01c5 1D       		.byte	0x1d
 581 01c6 06       		.uleb128 0x6
 582 01c7 56080000 		.4byte	.LASF39
 583 01cb 07       		.byte	0x7
 584 01cc 82       		.byte	0x82
 585 01cd 01010000 		.4byte	0x101
 586 01d1 1E       		.byte	0x1e
 587 01d2 06       		.uleb128 0x6
 588 01d3 89080000 		.4byte	.LASF40
 589 01d7 07       		.byte	0x7
 590 01d8 88       		.byte	0x88
 591 01d9 0C010000 		.4byte	0x10c
 592 01dd 1F       		.byte	0x1f
 593 01de 06       		.uleb128 0x6
 594 01df 57000000 		.4byte	.LASF41
 595 01e3 07       		.byte	0x7
 596 01e4 8F       		.byte	0x8f
 597 01e5 29040000 		.4byte	0x429
 598 01e9 20       		.byte	0x20
 599 01ea 07       		.uleb128 0x7
 600 01eb 705F7500 		.ascii	"p_u\000"
 601 01ef 07       		.byte	0x7
 602 01f0 B4       		.byte	0xb4
 603 01f1 CC040000 		.4byte	0x4cc
 604 01f5 24       		.byte	0x24
 605 01f6 06       		.uleb128 0x6
 606 01f7 2F000000 		.4byte	.LASF42
 607 01fb 07       		.byte	0x7
 608 01fc B9       		.byte	0xb9
 609 01fd 92020000 		.4byte	0x292
 610 0201 28       		.byte	0x28
 611 0202 06       		.uleb128 0x6
 612 0203 9D000000 		.4byte	.LASF43
 613 0207 07       		.byte	0x7
 614 0208 BF       		.byte	0xbf
 615 0209 72020000 		.4byte	0x272
 616 020d 2C       		.byte	0x2c
ARM GAS  C:\Users\ADMINI~1\AppData\Local\Temp\cclc6TcK.s 			page 12


 617 020e 06       		.uleb128 0x6
 618 020f A6060000 		.4byte	.LASF44
 619 0213 07       		.byte	0x7
 620 0214 C3       		.byte	0xc3
 621 0215 22010000 		.4byte	0x122
 622 0219 34       		.byte	0x34
 623 021a 06       		.uleb128 0x6
 624 021b 44070000 		.4byte	.LASF45
 625 021f 07       		.byte	0x7
 626 0220 C9       		.byte	0xc9
 627 0221 2D010000 		.4byte	0x12d
 628 0225 38       		.byte	0x38
 629 0226 06       		.uleb128 0x6
 630 0227 1A040000 		.4byte	.LASF46
 631 022b 07       		.byte	0x7
 632 022c D0       		.byte	0xd0
 633 022d 13050000 		.4byte	0x513
 634 0231 3C       		.byte	0x3c
 635 0232 06       		.uleb128 0x6
 636 0233 0C070000 		.4byte	.LASF47
 637 0237 07       		.byte	0x7
 638 0238 D4       		.byte	0xd4
 639 0239 17010000 		.4byte	0x117
 640 023d 40       		.byte	0x40
 641 023e 06       		.uleb128 0x6
 642 023f 12040000 		.4byte	.LASF48
 643 0243 07       		.byte	0x7
 644 0244 DA       		.byte	0xda
 645 0245 A8020000 		.4byte	0x2a8
 646 0249 44       		.byte	0x44
 647 024a 00       		.byte	0
 648 024b 08       		.uleb128 0x8
 649 024c 08       		.byte	0x8
 650 024d 06       		.byte	0x6
 651 024e 61       		.byte	0x61
 652 024f 6C020000 		.4byte	0x26c
 653 0253 06       		.uleb128 0x6
 654 0254 96070000 		.4byte	.LASF30
 655 0258 06       		.byte	0x6
 656 0259 62       		.byte	0x62
 657 025a 6C020000 		.4byte	0x26c
 658 025e 00       		.byte	0
 659 025f 06       		.uleb128 0x6
 660 0260 BC070000 		.4byte	.LASF31
 661 0264 06       		.byte	0x6
 662 0265 64       		.byte	0x64
 663 0266 6C020000 		.4byte	0x26c
 664 026a 04       		.byte	0x4
 665 026b 00       		.byte	0
 666 026c 09       		.uleb128 0x9
 667 026d 04       		.byte	0x4
 668 026e 43010000 		.4byte	0x143
 669 0272 03       		.uleb128 0x3
 670 0273 75030000 		.4byte	.LASF49
 671 0277 06       		.byte	0x6
 672 0278 66       		.byte	0x66
 673 0279 4B020000 		.4byte	0x24b
ARM GAS  C:\Users\ADMINI~1\AppData\Local\Temp\cclc6TcK.s 			page 13


 674 027d 08       		.uleb128 0x8
 675 027e 04       		.byte	0x4
 676 027f 06       		.byte	0x6
 677 0280 6B       		.byte	0x6b
 678 0281 92020000 		.4byte	0x292
 679 0285 06       		.uleb128 0x6
 680 0286 96070000 		.4byte	.LASF30
 681 028a 06       		.byte	0x6
 682 028b 6D       		.byte	0x6d
 683 028c 6C020000 		.4byte	0x26c
 684 0290 00       		.byte	0
 685 0291 00       		.byte	0
 686 0292 03       		.uleb128 0x3
 687 0293 23000000 		.4byte	.LASF50
 688 0297 06       		.byte	0x6
 689 0298 70       		.byte	0x70
 690 0299 7D020000 		.4byte	0x27d
 691 029d 03       		.uleb128 0x3
 692 029e 5E000000 		.4byte	.LASF51
 693 02a2 08       		.byte	0x8
 694 02a3 E5       		.byte	0xe5
 695 02a4 A8020000 		.4byte	0x2a8
 696 02a8 0A       		.uleb128 0xa
 697 02a9 04       		.byte	0x4
 698 02aa 03       		.uleb128 0x3
 699 02ab 6E090000 		.4byte	.LASF52
 700 02af 08       		.byte	0x8
 701 02b0 EB       		.byte	0xeb
 702 02b1 CE000000 		.4byte	0xce
 703 02b5 0B       		.uleb128 0xb
 704 02b6 05070000 		.4byte	.LASF53
 705 02ba 64       		.byte	0x64
 706 02bb 08       		.byte	0x8
 707 02bc 0C01     		.2byte	0x10c
 708 02be 01040000 		.4byte	0x401
 709 02c2 0C       		.uleb128 0xc
 710 02c3 73313600 		.ascii	"s16\000"
 711 02c7 08       		.byte	0x8
 712 02c8 0E01     		.2byte	0x10e
 713 02ca 9D020000 		.4byte	0x29d
 714 02ce 00       		.byte	0
 715 02cf 0C       		.uleb128 0xc
 716 02d0 73313700 		.ascii	"s17\000"
 717 02d4 08       		.byte	0x8
 718 02d5 0F01     		.2byte	0x10f
 719 02d7 9D020000 		.4byte	0x29d
 720 02db 04       		.byte	0x4
 721 02dc 0C       		.uleb128 0xc
 722 02dd 73313800 		.ascii	"s18\000"
 723 02e1 08       		.byte	0x8
 724 02e2 1001     		.2byte	0x110
 725 02e4 9D020000 		.4byte	0x29d
 726 02e8 08       		.byte	0x8
 727 02e9 0C       		.uleb128 0xc
 728 02ea 73313900 		.ascii	"s19\000"
 729 02ee 08       		.byte	0x8
 730 02ef 1101     		.2byte	0x111
ARM GAS  C:\Users\ADMINI~1\AppData\Local\Temp\cclc6TcK.s 			page 14


 731 02f1 9D020000 		.4byte	0x29d
 732 02f5 0C       		.byte	0xc
 733 02f6 0C       		.uleb128 0xc
 734 02f7 73323000 		.ascii	"s20\000"
 735 02fb 08       		.byte	0x8
 736 02fc 1201     		.2byte	0x112
 737 02fe 9D020000 		.4byte	0x29d
 738 0302 10       		.byte	0x10
 739 0303 0C       		.uleb128 0xc
 740 0304 73323100 		.ascii	"s21\000"
 741 0308 08       		.byte	0x8
 742 0309 1301     		.2byte	0x113
 743 030b 9D020000 		.4byte	0x29d
 744 030f 14       		.byte	0x14
 745 0310 0C       		.uleb128 0xc
 746 0311 73323200 		.ascii	"s22\000"
 747 0315 08       		.byte	0x8
 748 0316 1401     		.2byte	0x114
 749 0318 9D020000 		.4byte	0x29d
 750 031c 18       		.byte	0x18
 751 031d 0C       		.uleb128 0xc
 752 031e 73323300 		.ascii	"s23\000"
 753 0322 08       		.byte	0x8
 754 0323 1501     		.2byte	0x115
 755 0325 9D020000 		.4byte	0x29d
 756 0329 1C       		.byte	0x1c
 757 032a 0C       		.uleb128 0xc
 758 032b 73323400 		.ascii	"s24\000"
 759 032f 08       		.byte	0x8
 760 0330 1601     		.2byte	0x116
 761 0332 9D020000 		.4byte	0x29d
 762 0336 20       		.byte	0x20
 763 0337 0C       		.uleb128 0xc
 764 0338 73323500 		.ascii	"s25\000"
 765 033c 08       		.byte	0x8
 766 033d 1701     		.2byte	0x117
 767 033f 9D020000 		.4byte	0x29d
 768 0343 24       		.byte	0x24
 769 0344 0C       		.uleb128 0xc
 770 0345 73323600 		.ascii	"s26\000"
 771 0349 08       		.byte	0x8
 772 034a 1801     		.2byte	0x118
 773 034c 9D020000 		.4byte	0x29d
 774 0350 28       		.byte	0x28
 775 0351 0C       		.uleb128 0xc
 776 0352 73323700 		.ascii	"s27\000"
 777 0356 08       		.byte	0x8
 778 0357 1901     		.2byte	0x119
 779 0359 9D020000 		.4byte	0x29d
 780 035d 2C       		.byte	0x2c
 781 035e 0C       		.uleb128 0xc
 782 035f 73323800 		.ascii	"s28\000"
 783 0363 08       		.byte	0x8
 784 0364 1A01     		.2byte	0x11a
 785 0366 9D020000 		.4byte	0x29d
 786 036a 30       		.byte	0x30
 787 036b 0C       		.uleb128 0xc
ARM GAS  C:\Users\ADMINI~1\AppData\Local\Temp\cclc6TcK.s 			page 15


 788 036c 73323900 		.ascii	"s29\000"
 789 0370 08       		.byte	0x8
 790 0371 1B01     		.2byte	0x11b
 791 0373 9D020000 		.4byte	0x29d
 792 0377 34       		.byte	0x34
 793 0378 0C       		.uleb128 0xc
 794 0379 73333000 		.ascii	"s30\000"
 795 037d 08       		.byte	0x8
 796 037e 1C01     		.2byte	0x11c
 797 0380 9D020000 		.4byte	0x29d
 798 0384 38       		.byte	0x38
 799 0385 0C       		.uleb128 0xc
 800 0386 73333100 		.ascii	"s31\000"
 801 038a 08       		.byte	0x8
 802 038b 1D01     		.2byte	0x11d
 803 038d 9D020000 		.4byte	0x29d
 804 0391 3C       		.byte	0x3c
 805 0392 0C       		.uleb128 0xc
 806 0393 723400   		.ascii	"r4\000"
 807 0396 08       		.byte	0x8
 808 0397 1F01     		.2byte	0x11f
 809 0399 9D020000 		.4byte	0x29d
 810 039d 40       		.byte	0x40
 811 039e 0C       		.uleb128 0xc
 812 039f 723500   		.ascii	"r5\000"
 813 03a2 08       		.byte	0x8
 814 03a3 2001     		.2byte	0x120
 815 03a5 9D020000 		.4byte	0x29d
 816 03a9 44       		.byte	0x44
 817 03aa 0C       		.uleb128 0xc
 818 03ab 723600   		.ascii	"r6\000"
 819 03ae 08       		.byte	0x8
 820 03af 2101     		.2byte	0x121
 821 03b1 9D020000 		.4byte	0x29d
 822 03b5 48       		.byte	0x48
 823 03b6 0C       		.uleb128 0xc
 824 03b7 723700   		.ascii	"r7\000"
 825 03ba 08       		.byte	0x8
 826 03bb 2201     		.2byte	0x122
 827 03bd 9D020000 		.4byte	0x29d
 828 03c1 4C       		.byte	0x4c
 829 03c2 0C       		.uleb128 0xc
 830 03c3 723800   		.ascii	"r8\000"
 831 03c6 08       		.byte	0x8
 832 03c7 2301     		.2byte	0x123
 833 03c9 9D020000 		.4byte	0x29d
 834 03cd 50       		.byte	0x50
 835 03ce 0C       		.uleb128 0xc
 836 03cf 723900   		.ascii	"r9\000"
 837 03d2 08       		.byte	0x8
 838 03d3 2401     		.2byte	0x124
 839 03d5 9D020000 		.4byte	0x29d
 840 03d9 54       		.byte	0x54
 841 03da 0C       		.uleb128 0xc
 842 03db 72313000 		.ascii	"r10\000"
 843 03df 08       		.byte	0x8
 844 03e0 2501     		.2byte	0x125
ARM GAS  C:\Users\ADMINI~1\AppData\Local\Temp\cclc6TcK.s 			page 16


 845 03e2 9D020000 		.4byte	0x29d
 846 03e6 58       		.byte	0x58
 847 03e7 0C       		.uleb128 0xc
 848 03e8 72313100 		.ascii	"r11\000"
 849 03ec 08       		.byte	0x8
 850 03ed 2601     		.2byte	0x126
 851 03ef 9D020000 		.4byte	0x29d
 852 03f3 5C       		.byte	0x5c
 853 03f4 0C       		.uleb128 0xc
 854 03f5 6C7200   		.ascii	"lr\000"
 855 03f8 08       		.byte	0x8
 856 03f9 2701     		.2byte	0x127
 857 03fb 9D020000 		.4byte	0x29d
 858 03ff 60       		.byte	0x60
 859 0400 00       		.byte	0
 860 0401 0B       		.uleb128 0xb
 861 0402 C8040000 		.4byte	.LASF54
 862 0406 04       		.byte	0x4
 863 0407 08       		.byte	0x8
 864 0408 3101     		.2byte	0x131
 865 040a 1C040000 		.4byte	0x41c
 866 040e 0C       		.uleb128 0xc
 867 040f 72313300 		.ascii	"r13\000"
 868 0413 08       		.byte	0x8
 869 0414 3201     		.2byte	0x132
 870 0416 1C040000 		.4byte	0x41c
 871 041a 00       		.byte	0
 872 041b 00       		.byte	0
 873 041c 09       		.uleb128 0x9
 874 041d 04       		.byte	0x4
 875 041e B5020000 		.4byte	0x2b5
 876 0422 02       		.uleb128 0x2
 877 0423 04       		.byte	0x4
 878 0424 07       		.byte	0x7
 879 0425 C3070000 		.4byte	.LASF55
 880 0429 0D       		.uleb128 0xd
 881 042a 38010000 		.4byte	0x138
 882 042e 08       		.uleb128 0x8
 883 042f 1C       		.byte	0x1c
 884 0430 09       		.byte	0x9
 885 0431 5E       		.byte	0x5e
 886 0432 7F040000 		.4byte	0x47f
 887 0436 06       		.uleb128 0x6
 888 0437 A3040000 		.4byte	.LASF56
 889 043b 09       		.byte	0x9
 890 043c 5F       		.byte	0x5f
 891 043d 72020000 		.4byte	0x272
 892 0441 00       		.byte	0
 893 0442 06       		.uleb128 0x6
 894 0443 FB010000 		.4byte	.LASF57
 895 0447 09       		.byte	0x9
 896 0448 60       		.byte	0x60
 897 0449 17010000 		.4byte	0x117
 898 044d 08       		.byte	0x8
 899 044e 06       		.uleb128 0x6
 900 044f 4E090000 		.4byte	.LASF58
 901 0453 09       		.byte	0x9
ARM GAS  C:\Users\ADMINI~1\AppData\Local\Temp\cclc6TcK.s 			page 17


 902 0454 62       		.byte	0x62
 903 0455 01040000 		.4byte	0x401
 904 0459 0C       		.byte	0xc
 905 045a 06       		.uleb128 0x6
 906 045b 9C030000 		.4byte	.LASF59
 907 045f 09       		.byte	0x9
 908 0460 65       		.byte	0x65
 909 0461 6C020000 		.4byte	0x26c
 910 0465 10       		.byte	0x10
 911 0466 06       		.uleb128 0x6
 912 0467 81060000 		.4byte	.LASF60
 913 046b 09       		.byte	0x9
 914 046c 66       		.byte	0x66
 915 046d 6C020000 		.4byte	0x26c
 916 0471 14       		.byte	0x14
 917 0472 06       		.uleb128 0x6
 918 0473 3A070000 		.4byte	.LASF61
 919 0477 09       		.byte	0x9
 920 0478 69       		.byte	0x69
 921 0479 6C020000 		.4byte	0x26c
 922 047d 18       		.byte	0x18
 923 047e 00       		.byte	0
 924 047f 03       		.uleb128 0x3
 925 0480 5D080000 		.4byte	.LASF62
 926 0484 09       		.byte	0x9
 927 0485 6B       		.byte	0x6b
 928 0486 2E040000 		.4byte	0x42e
 929 048a 05       		.uleb128 0x5
 930 048b 38030000 		.4byte	.LASF63
 931 048f 10       		.byte	0x10
 932 0490 0A       		.byte	0xa
 933 0491 2C       		.byte	0x2c
 934 0492 BB040000 		.4byte	0x4bb
 935 0496 06       		.uleb128 0x6
 936 0497 4F070000 		.4byte	.LASF64
 937 049b 0A       		.byte	0xa
 938 049c 2D       		.byte	0x2d
 939 049d 72020000 		.4byte	0x272
 940 04a1 00       		.byte	0
 941 04a2 06       		.uleb128 0x6
 942 04a3 95000000 		.4byte	.LASF65
 943 04a7 0A       		.byte	0xa
 944 04a8 2F       		.byte	0x2f
 945 04a9 6C020000 		.4byte	0x26c
 946 04ad 08       		.byte	0x8
 947 04ae 06       		.uleb128 0x6
 948 04af 20090000 		.4byte	.LASF66
 949 04b3 0A       		.byte	0xa
 950 04b4 31       		.byte	0x31
 951 04b5 BB040000 		.4byte	0x4bb
 952 04b9 0C       		.byte	0xc
 953 04ba 00       		.byte	0
 954 04bb 09       		.uleb128 0x9
 955 04bc 04       		.byte	0x4
 956 04bd 8A040000 		.4byte	0x48a
 957 04c1 03       		.uleb128 0x3
 958 04c2 38030000 		.4byte	.LASF63
ARM GAS  C:\Users\ADMINI~1\AppData\Local\Temp\cclc6TcK.s 			page 18


 959 04c6 0A       		.byte	0xa
 960 04c7 33       		.byte	0x33
 961 04c8 8A040000 		.4byte	0x48a
 962 04cc 0E       		.uleb128 0xe
 963 04cd 04       		.byte	0x4
 964 04ce 07       		.byte	0x7
 965 04cf 96       		.byte	0x96
 966 04d0 01050000 		.4byte	0x501
 967 04d4 0F       		.uleb128 0xf
 968 04d5 DE020000 		.4byte	.LASF67
 969 04d9 07       		.byte	0x7
 970 04da 9D       		.byte	0x9d
 971 04db 22010000 		.4byte	0x122
 972 04df 0F       		.uleb128 0xf
 973 04e0 F4090000 		.4byte	.LASF68
 974 04e4 07       		.byte	0x7
 975 04e5 A4       		.byte	0xa4
 976 04e6 22010000 		.4byte	0x122
 977 04ea 0F       		.uleb128 0xf
 978 04eb EC000000 		.4byte	.LASF69
 979 04ef 07       		.byte	0x7
 980 04f0 AB       		.byte	0xab
 981 04f1 A8020000 		.4byte	0x2a8
 982 04f5 0F       		.uleb128 0xf
 983 04f6 23010000 		.4byte	.LASF70
 984 04fa 07       		.byte	0x7
 985 04fb B2       		.byte	0xb2
 986 04fc 2D010000 		.4byte	0x12d
 987 0500 00       		.byte	0
 988 0501 09       		.uleb128 0x9
 989 0502 04       		.byte	0x4
 990 0503 07050000 		.4byte	0x507
 991 0507 10       		.uleb128 0x10
 992 0508 0C050000 		.4byte	0x50c
 993 050c 02       		.uleb128 0x2
 994 050d 01       		.byte	0x1
 995 050e 08       		.byte	0x8
 996 050f 8F030000 		.4byte	.LASF71
 997 0513 09       		.uleb128 0x9
 998 0514 04       		.byte	0x4
 999 0515 C1040000 		.4byte	0x4c1
 1000 0519 03       		.uleb128 0x3
 1001 051a C8090000 		.4byte	.LASF72
 1002 051e 07       		.byte	0x7
 1003 051f E5       		.byte	0xe5
 1004 0520 24050000 		.4byte	0x524
 1005 0524 09       		.uleb128 0x9
 1006 0525 04       		.byte	0x4
 1007 0526 2A050000 		.4byte	0x52a
 1008 052a 11       		.uleb128 0x11
 1009 052b 22010000 		.4byte	0x122
 1010 052f 39050000 		.4byte	0x539
 1011 0533 12       		.uleb128 0x12
 1012 0534 A8020000 		.4byte	0x2a8
 1013 0538 00       		.byte	0
 1014 0539 09       		.uleb128 0x9
 1015 053a 04       		.byte	0x4
ARM GAS  C:\Users\ADMINI~1\AppData\Local\Temp\cclc6TcK.s 			page 19


 1016 053b 3F050000 		.4byte	0x53f
 1017 053f 10       		.uleb128 0x10
 1018 0540 A2000000 		.4byte	0xa2
 1019 0544 02       		.uleb128 0x2
 1020 0545 04       		.byte	0x4
 1021 0546 04       		.byte	0x4
 1022 0547 02020000 		.4byte	.LASF73
 1023 054b 13       		.uleb128 0x13
 1024 054c 01       		.byte	0x1
 1025 054d 0B       		.byte	0xb
 1026 054e 95       		.byte	0x95
 1027 054f 8A050000 		.4byte	0x58a
 1028 0553 14       		.uleb128 0x14
 1029 0554 6E060000 		.4byte	.LASF74
 1030 0558 00       		.sleb128 0
 1031 0559 14       		.uleb128 0x14
 1032 055a 3C010000 		.4byte	.LASF75
 1033 055e 01       		.sleb128 1
 1034 055f 14       		.uleb128 0x14
 1035 0560 94030000 		.4byte	.LASF76
 1036 0564 02       		.sleb128 2
 1037 0565 14       		.uleb128 0x14
 1038 0566 EB020000 		.4byte	.LASF77
 1039 056a 03       		.sleb128 3
 1040 056b 14       		.uleb128 0x14
 1041 056c 79090000 		.4byte	.LASF78
 1042 0570 04       		.sleb128 4
 1043 0571 14       		.uleb128 0x14
 1044 0572 23070000 		.4byte	.LASF79
 1045 0576 05       		.sleb128 5
 1046 0577 14       		.uleb128 0x14
 1047 0578 80070000 		.4byte	.LASF80
 1048 057c 06       		.sleb128 6
 1049 057d 14       		.uleb128 0x14
 1050 057e 62040000 		.4byte	.LASF81
 1051 0582 07       		.sleb128 7
 1052 0583 14       		.uleb128 0x14
 1053 0584 CD000000 		.4byte	.LASF82
 1054 0588 08       		.sleb128 8
 1055 0589 00       		.byte	0
 1056 058a 03       		.uleb128 0x3
 1057 058b 08020000 		.4byte	.LASF83
 1058 058f 0B       		.byte	0xb
 1059 0590 9F       		.byte	0x9f
 1060 0591 4B050000 		.4byte	0x54b
 1061 0595 13       		.uleb128 0x13
 1062 0596 01       		.byte	0x1
 1063 0597 0B       		.byte	0xb
 1064 0598 A2       		.byte	0xa2
 1065 0599 CE050000 		.4byte	0x5ce
 1066 059d 14       		.uleb128 0x14
 1067 059e 50030000 		.4byte	.LASF84
 1068 05a2 00       		.sleb128 0
 1069 05a3 14       		.uleb128 0x14
 1070 05a4 A3010000 		.4byte	.LASF85
 1071 05a8 01       		.sleb128 1
 1072 05a9 14       		.uleb128 0x14
ARM GAS  C:\Users\ADMINI~1\AppData\Local\Temp\cclc6TcK.s 			page 20


 1073 05aa 07010000 		.4byte	.LASF86
 1074 05ae 02       		.sleb128 2
 1075 05af 14       		.uleb128 0x14
 1076 05b0 B4030000 		.4byte	.LASF87
 1077 05b4 03       		.sleb128 3
 1078 05b5 14       		.uleb128 0x14
 1079 05b6 29040000 		.4byte	.LASF88
 1080 05ba 04       		.sleb128 4
 1081 05bb 14       		.uleb128 0x14
 1082 05bc 50020000 		.4byte	.LASF89
 1083 05c0 05       		.sleb128 5
 1084 05c1 14       		.uleb128 0x14
 1085 05c2 2A010000 		.4byte	.LASF90
 1086 05c6 06       		.sleb128 6
 1087 05c7 14       		.uleb128 0x14
 1088 05c8 B1020000 		.4byte	.LASF91
 1089 05cc 07       		.sleb128 7
 1090 05cd 00       		.byte	0
 1091 05ce 03       		.uleb128 0x3
 1092 05cf D0090000 		.4byte	.LASF92
 1093 05d3 0B       		.byte	0xb
 1094 05d4 AB       		.byte	0xab
 1095 05d5 95050000 		.4byte	0x595
 1096 05d9 08       		.uleb128 0x8
 1097 05da 28       		.byte	0x28
 1098 05db 0B       		.byte	0xb
 1099 05dc AD       		.byte	0xad
 1100 05dd 71060000 		.4byte	0x671
 1101 05e1 06       		.uleb128 0x6
 1102 05e2 EE070000 		.4byte	.LASF93
 1103 05e6 0B       		.byte	0xb
 1104 05e7 AE       		.byte	0xae
 1105 05e8 CE050000 		.4byte	0x5ce
 1106 05ec 00       		.byte	0
 1107 05ed 06       		.uleb128 0x6
 1108 05ee 82030000 		.4byte	.LASF94
 1109 05f2 0B       		.byte	0xb
 1110 05f3 AF       		.byte	0xaf
 1111 05f4 44050000 		.4byte	0x544
 1112 05f8 04       		.byte	0x4
 1113 05f9 06       		.uleb128 0x6
 1114 05fa 10020000 		.4byte	.LASF95
 1115 05fe 0B       		.byte	0xb
 1116 05ff B0       		.byte	0xb0
 1117 0600 44050000 		.4byte	0x544
 1118 0604 08       		.byte	0x8
 1119 0605 06       		.uleb128 0x6
 1120 0606 17070000 		.4byte	.LASF96
 1121 060a 0B       		.byte	0xb
 1122 060b B1       		.byte	0xb1
 1123 060c 44050000 		.4byte	0x544
 1124 0610 0C       		.byte	0xc
 1125 0611 06       		.uleb128 0x6
 1126 0612 78040000 		.4byte	.LASF97
 1127 0616 0B       		.byte	0xb
 1128 0617 B2       		.byte	0xb2
 1129 0618 44050000 		.4byte	0x544
ARM GAS  C:\Users\ADMINI~1\AppData\Local\Temp\cclc6TcK.s 			page 21


 1130 061c 10       		.byte	0x10
 1131 061d 06       		.uleb128 0x6
 1132 061e E1010000 		.4byte	.LASF98
 1133 0622 0B       		.byte	0xb
 1134 0623 B3       		.byte	0xb3
 1135 0624 E4000000 		.4byte	0xe4
 1136 0628 14       		.byte	0x14
 1137 0629 06       		.uleb128 0x6
 1138 062a A8000000 		.4byte	.LASF99
 1139 062e 0B       		.byte	0xb
 1140 062f B4       		.byte	0xb4
 1141 0630 E4000000 		.4byte	0xe4
 1142 0634 15       		.byte	0x15
 1143 0635 06       		.uleb128 0x6
 1144 0636 C8080000 		.4byte	.LASF100
 1145 063a 0B       		.byte	0xb
 1146 063b B5       		.byte	0xb5
 1147 063c 44050000 		.4byte	0x544
 1148 0640 18       		.byte	0x18
 1149 0641 06       		.uleb128 0x6
 1150 0642 2C030000 		.4byte	.LASF101
 1151 0646 0B       		.byte	0xb
 1152 0647 B6       		.byte	0xb6
 1153 0648 44050000 		.4byte	0x544
 1154 064c 1C       		.byte	0x1c
 1155 064d 06       		.uleb128 0x6
 1156 064e E2000000 		.4byte	.LASF102
 1157 0652 0B       		.byte	0xb
 1158 0653 B7       		.byte	0xb7
 1159 0654 E4000000 		.4byte	0xe4
 1160 0658 20       		.byte	0x20
 1161 0659 07       		.uleb128 0x7
 1162 065a 746300   		.ascii	"tc\000"
 1163 065d 0B       		.byte	0xb
 1164 065e B8       		.byte	0xb8
 1165 065f E4000000 		.4byte	0xe4
 1166 0663 21       		.byte	0x21
 1167 0664 06       		.uleb128 0x6
 1168 0665 3F080000 		.4byte	.LASF103
 1169 0669 0B       		.byte	0xb
 1170 066a B9       		.byte	0xb9
 1171 066b 44050000 		.4byte	0x544
 1172 066f 24       		.byte	0x24
 1173 0670 00       		.byte	0
 1174 0671 03       		.uleb128 0x3
 1175 0672 89060000 		.4byte	.LASF104
 1176 0676 0B       		.byte	0xb
 1177 0677 BA       		.byte	0xba
 1178 0678 D9050000 		.4byte	0x5d9
 1179 067c 13       		.uleb128 0x13
 1180 067d 01       		.byte	0x1
 1181 067e 0B       		.byte	0xb
 1182 067f BD       		.byte	0xbd
 1183 0680 BB060000 		.4byte	0x6bb
 1184 0684 14       		.uleb128 0x14
 1185 0685 E1090000 		.4byte	.LASF105
 1186 0689 00       		.sleb128 0
ARM GAS  C:\Users\ADMINI~1\AppData\Local\Temp\cclc6TcK.s 			page 22


 1187 068a 14       		.uleb128 0x14
 1188 068b 6A070000 		.4byte	.LASF106
 1189 068f 01       		.sleb128 1
 1190 0690 14       		.uleb128 0x14
 1191 0691 34060000 		.4byte	.LASF107
 1192 0695 02       		.sleb128 2
 1193 0696 14       		.uleb128 0x14
 1194 0697 82040000 		.4byte	.LASF108
 1195 069b 03       		.sleb128 3
 1196 069c 14       		.uleb128 0x14
 1197 069d 44010000 		.4byte	.LASF109
 1198 06a1 04       		.sleb128 4
 1199 06a2 14       		.uleb128 0x14
 1200 06a3 7A010000 		.4byte	.LASF110
 1201 06a7 05       		.sleb128 5
 1202 06a8 14       		.uleb128 0x14
 1203 06a9 00000000 		.4byte	.LASF111
 1204 06ad 06       		.sleb128 6
 1205 06ae 14       		.uleb128 0x14
 1206 06af 39000000 		.4byte	.LASF112
 1207 06b3 07       		.sleb128 7
 1208 06b4 14       		.uleb128 0x14
 1209 06b5 D1060000 		.4byte	.LASF113
 1210 06b9 08       		.sleb128 8
 1211 06ba 00       		.byte	0
 1212 06bb 03       		.uleb128 0x3
 1213 06bc C2010000 		.4byte	.LASF114
 1214 06c0 0B       		.byte	0xb
 1215 06c1 C7       		.byte	0xc7
 1216 06c2 7C060000 		.4byte	0x67c
 1217 06c6 08       		.uleb128 0x8
 1218 06c7 28       		.byte	0x28
 1219 06c8 0B       		.byte	0xb
 1220 06c9 C9       		.byte	0xc9
 1221 06ca 76070000 		.4byte	0x776
 1222 06ce 06       		.uleb128 0x6
 1223 06cf EE070000 		.4byte	.LASF93
 1224 06d3 0B       		.byte	0xb
 1225 06d4 CA       		.byte	0xca
 1226 06d5 BB060000 		.4byte	0x6bb
 1227 06d9 00       		.byte	0
 1228 06da 06       		.uleb128 0x6
 1229 06db 10020000 		.4byte	.LASF95
 1230 06df 0B       		.byte	0xb
 1231 06e0 CB       		.byte	0xcb
 1232 06e1 44050000 		.4byte	0x544
 1233 06e5 04       		.byte	0x4
 1234 06e6 06       		.uleb128 0x6
 1235 06e7 2B020000 		.4byte	.LASF115
 1236 06eb 0B       		.byte	0xb
 1237 06ec CC       		.byte	0xcc
 1238 06ed 44050000 		.4byte	0x544
 1239 06f1 08       		.byte	0x8
 1240 06f2 06       		.uleb128 0x6
 1241 06f3 75020000 		.4byte	.LASF116
 1242 06f7 0B       		.byte	0xb
 1243 06f8 CD       		.byte	0xcd
ARM GAS  C:\Users\ADMINI~1\AppData\Local\Temp\cclc6TcK.s 			page 23


 1244 06f9 44050000 		.4byte	0x544
 1245 06fd 0C       		.byte	0xc
 1246 06fe 06       		.uleb128 0x6
 1247 06ff 67080000 		.4byte	.LASF117
 1248 0703 0B       		.byte	0xb
 1249 0704 CE       		.byte	0xce
 1250 0705 E4000000 		.4byte	0xe4
 1251 0709 10       		.byte	0x10
 1252 070a 06       		.uleb128 0x6
 1253 070b A8000000 		.4byte	.LASF99
 1254 070f 0B       		.byte	0xb
 1255 0710 CF       		.byte	0xcf
 1256 0711 E4000000 		.4byte	0xe4
 1257 0715 11       		.byte	0x11
 1258 0716 06       		.uleb128 0x6
 1259 0717 D6030000 		.4byte	.LASF118
 1260 071b 0B       		.byte	0xb
 1261 071c D0       		.byte	0xd0
 1262 071d E4000000 		.4byte	0xe4
 1263 0721 12       		.byte	0x12
 1264 0722 06       		.uleb128 0x6
 1265 0723 EF060000 		.4byte	.LASF119
 1266 0727 0B       		.byte	0xb
 1267 0728 D1       		.byte	0xd1
 1268 0729 E4000000 		.4byte	0xe4
 1269 072d 13       		.byte	0x13
 1270 072e 06       		.uleb128 0x6
 1271 072f C8080000 		.4byte	.LASF100
 1272 0733 0B       		.byte	0xb
 1273 0734 D2       		.byte	0xd2
 1274 0735 44050000 		.4byte	0x544
 1275 0739 14       		.byte	0x14
 1276 073a 06       		.uleb128 0x6
 1277 073b 2C030000 		.4byte	.LASF101
 1278 073f 0B       		.byte	0xb
 1279 0740 D3       		.byte	0xd3
 1280 0741 44050000 		.4byte	0x544
 1281 0745 18       		.byte	0x18
 1282 0746 06       		.uleb128 0x6
 1283 0747 E2000000 		.4byte	.LASF102
 1284 074b 0B       		.byte	0xb
 1285 074c D4       		.byte	0xd4
 1286 074d E4000000 		.4byte	0xe4
 1287 0751 1C       		.byte	0x1c
 1288 0752 07       		.uleb128 0x7
 1289 0753 746300   		.ascii	"tc\000"
 1290 0756 0B       		.byte	0xb
 1291 0757 D5       		.byte	0xd5
 1292 0758 E4000000 		.4byte	0xe4
 1293 075c 1D       		.byte	0x1d
 1294 075d 06       		.uleb128 0x6
 1295 075e 3F080000 		.4byte	.LASF103
 1296 0762 0B       		.byte	0xb
 1297 0763 D6       		.byte	0xd6
 1298 0764 44050000 		.4byte	0x544
 1299 0768 20       		.byte	0x20
 1300 0769 06       		.uleb128 0x6
ARM GAS  C:\Users\ADMINI~1\AppData\Local\Temp\cclc6TcK.s 			page 24


 1301 076a 55060000 		.4byte	.LASF120
 1302 076e 0B       		.byte	0xb
 1303 076f D7       		.byte	0xd7
 1304 0770 C3000000 		.4byte	0xc3
 1305 0774 24       		.byte	0x24
 1306 0775 00       		.byte	0
 1307 0776 03       		.uleb128 0x3
 1308 0777 FD090000 		.4byte	.LASF121
 1309 077b 0B       		.byte	0xb
 1310 077c D8       		.byte	0xd8
 1311 077d C6060000 		.4byte	0x6c6
 1312 0781 13       		.uleb128 0x13
 1313 0782 01       		.byte	0x1
 1314 0783 0B       		.byte	0xb
 1315 0784 DB       		.byte	0xdb
 1316 0785 9C070000 		.4byte	0x79c
 1317 0789 14       		.uleb128 0x14
 1318 078a FE030000 		.4byte	.LASF122
 1319 078e 00       		.sleb128 0
 1320 078f 14       		.uleb128 0x14
 1321 0790 AB040000 		.4byte	.LASF123
 1322 0794 01       		.sleb128 1
 1323 0795 14       		.uleb128 0x14
 1324 0796 6E000000 		.4byte	.LASF124
 1325 079a 02       		.sleb128 2
 1326 079b 00       		.byte	0
 1327 079c 03       		.uleb128 0x3
 1328 079d 86020000 		.4byte	.LASF125
 1329 07a1 0B       		.byte	0xb
 1330 07a2 DF       		.byte	0xdf
 1331 07a3 81070000 		.4byte	0x781
 1332 07a7 08       		.uleb128 0x8
 1333 07a8 20       		.byte	0x20
 1334 07a9 0B       		.byte	0xb
 1335 07aa E1       		.byte	0xe1
 1336 07ab 1B080000 		.4byte	0x81b
 1337 07af 06       		.uleb128 0x6
 1338 07b0 EE070000 		.4byte	.LASF93
 1339 07b4 0B       		.byte	0xb
 1340 07b5 E2       		.byte	0xe2
 1341 07b6 9C070000 		.4byte	0x79c
 1342 07ba 00       		.byte	0
 1343 07bb 06       		.uleb128 0x6
 1344 07bc 10020000 		.4byte	.LASF95
 1345 07c0 0B       		.byte	0xb
 1346 07c1 E3       		.byte	0xe3
 1347 07c2 44050000 		.4byte	0x544
 1348 07c6 04       		.byte	0x4
 1349 07c7 06       		.uleb128 0x6
 1350 07c8 C8080000 		.4byte	.LASF100
 1351 07cc 0B       		.byte	0xb
 1352 07cd E4       		.byte	0xe4
 1353 07ce 44050000 		.4byte	0x544
 1354 07d2 08       		.byte	0x8
 1355 07d3 06       		.uleb128 0x6
 1356 07d4 2C030000 		.4byte	.LASF101
 1357 07d8 0B       		.byte	0xb
ARM GAS  C:\Users\ADMINI~1\AppData\Local\Temp\cclc6TcK.s 			page 25


 1358 07d9 E5       		.byte	0xe5
 1359 07da 44050000 		.4byte	0x544
 1360 07de 0C       		.byte	0xc
 1361 07df 06       		.uleb128 0x6
 1362 07e0 C9020000 		.4byte	.LASF126
 1363 07e4 0B       		.byte	0xb
 1364 07e5 E6       		.byte	0xe6
 1365 07e6 44050000 		.4byte	0x544
 1366 07ea 10       		.byte	0x10
 1367 07eb 06       		.uleb128 0x6
 1368 07ec D3010000 		.4byte	.LASF127
 1369 07f0 0B       		.byte	0xb
 1370 07f1 E7       		.byte	0xe7
 1371 07f2 44050000 		.4byte	0x544
 1372 07f6 14       		.byte	0x14
 1373 07f7 06       		.uleb128 0x6
 1374 07f8 E2000000 		.4byte	.LASF102
 1375 07fc 0B       		.byte	0xb
 1376 07fd E8       		.byte	0xe8
 1377 07fe E4000000 		.4byte	0xe4
 1378 0802 18       		.byte	0x18
 1379 0803 07       		.uleb128 0x7
 1380 0804 746300   		.ascii	"tc\000"
 1381 0807 0B       		.byte	0xb
 1382 0808 E9       		.byte	0xe9
 1383 0809 E4000000 		.4byte	0xe4
 1384 080d 19       		.byte	0x19
 1385 080e 06       		.uleb128 0x6
 1386 080f 3F080000 		.4byte	.LASF103
 1387 0813 0B       		.byte	0xb
 1388 0814 EA       		.byte	0xea
 1389 0815 44050000 		.4byte	0x544
 1390 0819 1C       		.byte	0x1c
 1391 081a 00       		.byte	0
 1392 081b 03       		.uleb128 0x3
 1393 081c 7D080000 		.4byte	.LASF128
 1394 0820 0B       		.byte	0xb
 1395 0821 EB       		.byte	0xeb
 1396 0822 A7070000 		.4byte	0x7a7
 1397 0826 08       		.uleb128 0x8
 1398 0827 8C       		.byte	0x8c
 1399 0828 0B       		.byte	0xb
 1400 0829 ED       		.byte	0xed
 1401 082a A8080000 		.4byte	0x8a8
 1402 082e 06       		.uleb128 0x6
 1403 082f 3C040000 		.4byte	.LASF129
 1404 0833 0B       		.byte	0xb
 1405 0834 EF       		.byte	0xef
 1406 0835 A2000000 		.4byte	0xa2
 1407 0839 00       		.byte	0
 1408 083a 06       		.uleb128 0x6
 1409 083b 14030000 		.4byte	.LASF130
 1410 083f 0B       		.byte	0xb
 1411 0840 F0       		.byte	0xf0
 1412 0841 C3000000 		.4byte	0xc3
 1413 0845 04       		.byte	0x4
 1414 0846 06       		.uleb128 0x6
ARM GAS  C:\Users\ADMINI~1\AppData\Local\Temp\cclc6TcK.s 			page 26


 1415 0847 F8080000 		.4byte	.LASF131
 1416 084b 0B       		.byte	0xb
 1417 084c F1       		.byte	0xf1
 1418 084d 44050000 		.4byte	0x544
 1419 0851 08       		.byte	0x8
 1420 0852 06       		.uleb128 0x6
 1421 0853 13000000 		.4byte	.LASF132
 1422 0857 0B       		.byte	0xb
 1423 0858 F2       		.byte	0xf2
 1424 0859 E4000000 		.4byte	0xe4
 1425 085d 0C       		.byte	0xc
 1426 085e 06       		.uleb128 0x6
 1427 085f 4A040000 		.4byte	.LASF133
 1428 0863 0B       		.byte	0xb
 1429 0864 F3       		.byte	0xf3
 1430 0865 C3000000 		.4byte	0xc3
 1431 0869 10       		.byte	0x10
 1432 086a 06       		.uleb128 0x6
 1433 086b 3E030000 		.4byte	.LASF134
 1434 086f 0B       		.byte	0xb
 1435 0870 F6       		.byte	0xf6
 1436 0871 8A050000 		.4byte	0x58a
 1437 0875 14       		.byte	0x14
 1438 0876 06       		.uleb128 0x6
 1439 0877 C0000000 		.4byte	.LASF135
 1440 087b 0B       		.byte	0xb
 1441 087c F9       		.byte	0xf9
 1442 087d 71060000 		.4byte	0x671
 1443 0881 18       		.byte	0x18
 1444 0882 06       		.uleb128 0x6
 1445 0883 86090000 		.4byte	.LASF136
 1446 0887 0B       		.byte	0xb
 1447 0888 FC       		.byte	0xfc
 1448 0889 76070000 		.4byte	0x776
 1449 088d 40       		.byte	0x40
 1450 088e 06       		.uleb128 0x6
 1451 088f 2D080000 		.4byte	.LASF137
 1452 0893 0B       		.byte	0xb
 1453 0894 FF       		.byte	0xff
 1454 0895 C3000000 		.4byte	0xc3
 1455 0899 68       		.byte	0x68
 1456 089a 15       		.uleb128 0x15
 1457 089b C3060000 		.4byte	.LASF138
 1458 089f 0B       		.byte	0xb
 1459 08a0 0201     		.2byte	0x102
 1460 08a2 1B080000 		.4byte	0x81b
 1461 08a6 6C       		.byte	0x6c
 1462 08a7 00       		.byte	0
 1463 08a8 16       		.uleb128 0x16
 1464 08a9 63030000 		.4byte	.LASF139
 1465 08ad 0B       		.byte	0xb
 1466 08ae 0301     		.2byte	0x103
 1467 08b0 26080000 		.4byte	0x826
 1468 08b4 17       		.uleb128 0x17
 1469 08b5 18       		.byte	0x18
 1470 08b6 0B       		.byte	0xb
 1471 08b7 4E01     		.2byte	0x14e
ARM GAS  C:\Users\ADMINI~1\AppData\Local\Temp\cclc6TcK.s 			page 27


 1472 08b9 19090000 		.4byte	0x919
 1473 08bd 15       		.uleb128 0x15
 1474 08be 60070000 		.4byte	.LASF140
 1475 08c2 0B       		.byte	0xb
 1476 08c3 4F01     		.2byte	0x14f
 1477 08c5 94000000 		.4byte	0x94
 1478 08c9 00       		.byte	0
 1479 08ca 15       		.uleb128 0x15
 1480 08cb 65070000 		.4byte	.LASF141
 1481 08cf 0B       		.byte	0xb
 1482 08d0 5001     		.2byte	0x150
 1483 08d2 94000000 		.4byte	0x94
 1484 08d6 04       		.byte	0x4
 1485 08d7 15       		.uleb128 0x15
 1486 08d8 D6080000 		.4byte	.LASF142
 1487 08dc 0B       		.byte	0xb
 1488 08dd 5101     		.2byte	0x151
 1489 08df 94000000 		.4byte	0x94
 1490 08e3 08       		.byte	0x8
 1491 08e4 15       		.uleb128 0x15
 1492 08e5 DC080000 		.4byte	.LASF143
 1493 08e9 0B       		.byte	0xb
 1494 08ea 5201     		.2byte	0x152
 1495 08ec 94000000 		.4byte	0x94
 1496 08f0 0C       		.byte	0xc
 1497 08f1 15       		.uleb128 0x15
 1498 08f2 E2080000 		.4byte	.LASF144
 1499 08f6 0B       		.byte	0xb
 1500 08f7 5301     		.2byte	0x153
 1501 08f9 94000000 		.4byte	0x94
 1502 08fd 10       		.byte	0x10
 1503 08fe 15       		.uleb128 0x15
 1504 08ff 00070000 		.4byte	.LASF145
 1505 0903 0B       		.byte	0xb
 1506 0904 5401     		.2byte	0x154
 1507 0906 E4000000 		.4byte	0xe4
 1508 090a 14       		.byte	0x14
 1509 090b 15       		.uleb128 0x15
 1510 090c 24040000 		.4byte	.LASF146
 1511 0910 0B       		.byte	0xb
 1512 0911 5501     		.2byte	0x155
 1513 0913 E4000000 		.4byte	0xe4
 1514 0917 15       		.byte	0x15
 1515 0918 00       		.byte	0
 1516 0919 16       		.uleb128 0x16
 1517 091a 14080000 		.4byte	.LASF147
 1518 091e 0B       		.byte	0xb
 1519 091f 5601     		.2byte	0x156
 1520 0921 B4080000 		.4byte	0x8b4
 1521 0925 17       		.uleb128 0x17
 1522 0926 0C       		.byte	0xc
 1523 0927 0B       		.byte	0xb
 1524 0928 6001     		.2byte	0x160
 1525 092a 7D090000 		.4byte	0x97d
 1526 092e 15       		.uleb128 0x15
 1527 092f 60070000 		.4byte	.LASF140
 1528 0933 0B       		.byte	0xb
ARM GAS  C:\Users\ADMINI~1\AppData\Local\Temp\cclc6TcK.s 			page 28


 1529 0934 6101     		.2byte	0x161
 1530 0936 A2000000 		.4byte	0xa2
 1531 093a 00       		.byte	0
 1532 093b 15       		.uleb128 0x15
 1533 093c 65070000 		.4byte	.LASF141
 1534 0940 0B       		.byte	0xb
 1535 0941 6201     		.2byte	0x162
 1536 0943 A2000000 		.4byte	0xa2
 1537 0947 01       		.byte	0x1
 1538 0948 15       		.uleb128 0x15
 1539 0949 00070000 		.4byte	.LASF145
 1540 094d 0B       		.byte	0xb
 1541 094e 6301     		.2byte	0x163
 1542 0950 E4000000 		.4byte	0xe4
 1543 0954 02       		.byte	0x2
 1544 0955 15       		.uleb128 0x15
 1545 0956 24040000 		.4byte	.LASF146
 1546 095a 0B       		.byte	0xb
 1547 095b 6401     		.2byte	0x164
 1548 095d E4000000 		.4byte	0xe4
 1549 0961 03       		.byte	0x3
 1550 0962 15       		.uleb128 0x15
 1551 0963 93090000 		.4byte	.LASF148
 1552 0967 0B       		.byte	0xb
 1553 0968 6501     		.2byte	0x165
 1554 096a E4000000 		.4byte	0xe4
 1555 096e 04       		.byte	0x4
 1556 096f 15       		.uleb128 0x15
 1557 0970 F3080000 		.4byte	.LASF149
 1558 0974 0B       		.byte	0xb
 1559 0975 6601     		.2byte	0x166
 1560 0977 44050000 		.4byte	0x544
 1561 097b 08       		.byte	0x8
 1562 097c 00       		.byte	0
 1563 097d 16       		.uleb128 0x16
 1564 097e E8080000 		.4byte	.LASF150
 1565 0982 0B       		.byte	0xb
 1566 0983 6701     		.2byte	0x167
 1567 0985 25090000 		.4byte	0x925
 1568 0989 18       		.uleb128 0x18
 1569 098a 01       		.byte	0x1
 1570 098b 0B       		.byte	0xb
 1571 098c 6901     		.2byte	0x169
 1572 098e 9F090000 		.4byte	0x99f
 1573 0992 14       		.uleb128 0x14
 1574 0993 B1090000 		.4byte	.LASF151
 1575 0997 00       		.sleb128 0
 1576 0998 14       		.uleb128 0x14
 1577 0999 D0040000 		.4byte	.LASF152
 1578 099d 01       		.sleb128 1
 1579 099e 00       		.byte	0
 1580 099f 16       		.uleb128 0x16
 1581 09a0 69020000 		.4byte	.LASF153
 1582 09a4 0B       		.byte	0xb
 1583 09a5 6C01     		.2byte	0x16c
 1584 09a7 89090000 		.4byte	0x989
 1585 09ab 19       		.uleb128 0x19
ARM GAS  C:\Users\ADMINI~1\AppData\Local\Temp\cclc6TcK.s 			page 29


 1586 09ac 0A030000 		.4byte	.LASF154
 1587 09b0 01       		.byte	0x1
 1588 09b1 37       		.byte	0x37
 1589 09b2 22010000 		.4byte	0x122
 1590 09b6 00000000 		.4byte	.LFB8
 1591 09ba 1C000000 		.4byte	.LFE8-.LFB8
 1592 09be 01       		.uleb128 0x1
 1593 09bf 9C       		.byte	0x9c
 1594 09c0 E5090000 		.4byte	0x9e5
 1595 09c4 1A       		.uleb128 0x1a
 1596 09c5 61726700 		.ascii	"arg\000"
 1597 09c9 01       		.byte	0x1
 1598 09ca 37       		.byte	0x37
 1599 09cb A8020000 		.4byte	0x2a8
 1600 09cf 00000000 		.4byte	.LLST0
 1601 09d3 1B       		.uleb128 0x1b
 1602 09d4 12000000 		.4byte	.LVL2
 1603 09d8 860C0000 		.4byte	0xc86
 1604 09dc 1C       		.uleb128 0x1c
 1605 09dd 01       		.uleb128 0x1
 1606 09de 50       		.byte	0x50
 1607 09df 03       		.uleb128 0x3
 1608 09e0 0A       		.byte	0xa
 1609 09e1 8813     		.2byte	0x1388
 1610 09e3 00       		.byte	0
 1611 09e4 00       		.byte	0
 1612 09e5 19       		.uleb128 0x19
 1613 09e6 64060000 		.4byte	.LASF155
 1614 09ea 01       		.byte	0x1
 1615 09eb 45       		.byte	0x45
 1616 09ec 22010000 		.4byte	0x122
 1617 09f0 00000000 		.4byte	.LFB9
 1618 09f4 C0000000 		.4byte	.LFE9-.LFB9
 1619 09f8 01       		.uleb128 0x1
 1620 09f9 9C       		.byte	0x9c
 1621 09fa 290B0000 		.4byte	0xb29
 1622 09fe 1A       		.uleb128 0x1a
 1623 09ff 61726700 		.ascii	"arg\000"
 1624 0a03 01       		.byte	0x1
 1625 0a04 45       		.byte	0x45
 1626 0a05 A8020000 		.4byte	0x2a8
 1627 0a09 21000000 		.4byte	.LLST1
 1628 0a0d 1D       		.uleb128 0x1d
 1629 0a0e 8C070000 		.4byte	.LASF156
 1630 0a12 01       		.byte	0x1
 1631 0a13 4A       		.byte	0x4a
 1632 0a14 94000000 		.4byte	0x94
 1633 0a18 42000000 		.4byte	.LLST2
 1634 0a1c 1E       		.uleb128 0x1e
 1635 0a1d 00000000 		.4byte	.Ldebug_ranges0+0
 1636 0a21 1F       		.uleb128 0x1f
 1637 0a22 62756600 		.ascii	"buf\000"
 1638 0a26 01       		.byte	0x1
 1639 0a27 4D       		.byte	0x4d
 1640 0a28 290B0000 		.4byte	0xb29
 1641 0a2c 02       		.uleb128 0x2
 1642 0a2d 91       		.byte	0x91
ARM GAS  C:\Users\ADMINI~1\AppData\Local\Temp\cclc6TcK.s 			page 30


 1643 0a2e 40       		.sleb128 -64
 1644 0a2f 1F       		.uleb128 0x1f
 1645 0a30 6C656E00 		.ascii	"len\000"
 1646 0a34 01       		.byte	0x1
 1647 0a35 4E       		.byte	0x4e
 1648 0a36 94000000 		.4byte	0x94
 1649 0a3a 03       		.uleb128 0x3
 1650 0a3b 91       		.byte	0x91
 1651 0a3c 9C7F     		.sleb128 -100
 1652 0a3e 20       		.uleb128 0x20
 1653 0a3f 81020000 		.4byte	.LASF157
 1654 0a43 01       		.byte	0x1
 1655 0a44 4F       		.byte	0x4f
 1656 0a45 94000000 		.4byte	0x94
 1657 0a49 03       		.uleb128 0x3
 1658 0a4a 91       		.byte	0x91
 1659 0a4b A07F     		.sleb128 -96
 1660 0a4d 21       		.uleb128 0x21
 1661 0a4e 18000000 		.4byte	.Ldebug_ranges0+0x18
 1662 0a52 0A0B0000 		.4byte	0xb0a
 1663 0a56 22       		.uleb128 0x22
 1664 0a57 72657300 		.ascii	"res\000"
 1665 0a5b 01       		.byte	0x1
 1666 0a5c 52       		.byte	0x52
 1667 0a5d 94000000 		.4byte	0x94
 1668 0a61 85000000 		.4byte	.LLST3
 1669 0a65 20       		.uleb128 0x20
 1670 0a66 E5020000 		.4byte	.LASF158
 1671 0a6a 01       		.byte	0x1
 1672 0a6b 53       		.byte	0x53
 1673 0a6c 19090000 		.4byte	0x919
 1674 0a70 03       		.uleb128 0x3
 1675 0a71 91       		.byte	0x91
 1676 0a72 A87F     		.sleb128 -88
 1677 0a74 20       		.uleb128 0x20
 1678 0a75 1D020000 		.4byte	.LASF159
 1679 0a79 01       		.byte	0x1
 1680 0a7a 54       		.byte	0x54
 1681 0a7b B8000000 		.4byte	0xb8
 1682 0a7f 03       		.uleb128 0x3
 1683 0a80 91       		.byte	0x91
 1684 0a81 A47F     		.sleb128 -92
 1685 0a83 1D       		.uleb128 0x1d
 1686 0a84 E6070000 		.4byte	.LASF160
 1687 0a88 01       		.byte	0x1
 1688 0a89 55       		.byte	0x55
 1689 0a8a 94000000 		.4byte	0x94
 1690 0a8e A3000000 		.4byte	.LLST4
 1691 0a92 21       		.uleb128 0x21
 1692 0a93 30000000 		.4byte	.Ldebug_ranges0+0x30
 1693 0a97 D70A0000 		.4byte	0xad7
 1694 0a9b 1D       		.uleb128 0x1d
 1695 0a9c 00080000 		.4byte	.LASF161
 1696 0aa0 01       		.byte	0x1
 1697 0aa1 59       		.byte	0x59
 1698 0aa2 9F090000 		.4byte	0x99f
 1699 0aa6 CD000000 		.4byte	.LLST5
ARM GAS  C:\Users\ADMINI~1\AppData\Local\Temp\cclc6TcK.s 			page 31


 1700 0aaa 23       		.uleb128 0x23
 1701 0aab 64000000 		.4byte	.LVL10
 1702 0aaf 980C0000 		.4byte	0xc98
 1703 0ab3 C50A0000 		.4byte	0xac5
 1704 0ab7 1C       		.uleb128 0x1c
 1705 0ab8 01       		.uleb128 0x1
 1706 0ab9 51       		.byte	0x51
 1707 0aba 03       		.uleb128 0x3
 1708 0abb 91       		.byte	0x91
 1709 0abc A47F     		.sleb128 -92
 1710 0abe 1C       		.uleb128 0x1c
 1711 0abf 01       		.uleb128 0x1
 1712 0ac0 50       		.byte	0x50
 1713 0ac1 02       		.uleb128 0x2
 1714 0ac2 91       		.byte	0x91
 1715 0ac3 40       		.sleb128 -64
 1716 0ac4 00       		.byte	0
 1717 0ac5 1B       		.uleb128 0x1b
 1718 0ac6 92000000 		.4byte	.LVL11
 1719 0aca B80C0000 		.4byte	0xcb8
 1720 0ace 1C       		.uleb128 0x1c
 1721 0acf 01       		.uleb128 0x1
 1722 0ad0 50       		.byte	0x50
 1723 0ad1 03       		.uleb128 0x3
 1724 0ad2 91       		.byte	0x91
 1725 0ad3 A87F     		.sleb128 -88
 1726 0ad5 00       		.byte	0
 1727 0ad6 00       		.byte	0
 1728 0ad7 23       		.uleb128 0x23
 1729 0ad8 24000000 		.4byte	.LVL6
 1730 0adc CF0C0000 		.4byte	0xccf
 1731 0ae0 F90A0000 		.4byte	0xaf9
 1732 0ae4 1C       		.uleb128 0x1c
 1733 0ae5 01       		.uleb128 0x1
 1734 0ae6 52       		.byte	0x52
 1735 0ae7 03       		.uleb128 0x3
 1736 0ae8 91       		.byte	0x91
 1737 0ae9 A07F     		.sleb128 -96
 1738 0aeb 1C       		.uleb128 0x1c
 1739 0aec 01       		.uleb128 0x1
 1740 0aed 51       		.byte	0x51
 1741 0aee 03       		.uleb128 0x3
 1742 0aef 91       		.byte	0x91
 1743 0af0 9C7F     		.sleb128 -100
 1744 0af2 1C       		.uleb128 0x1c
 1745 0af3 01       		.uleb128 0x1
 1746 0af4 50       		.byte	0x50
 1747 0af5 02       		.uleb128 0x2
 1748 0af6 91       		.byte	0x91
 1749 0af7 40       		.sleb128 -64
 1750 0af8 00       		.byte	0
 1751 0af9 1B       		.uleb128 0x1b
 1752 0afa 9A000000 		.4byte	.LVL12
 1753 0afe 860C0000 		.4byte	0xc86
 1754 0b02 1C       		.uleb128 0x1c
 1755 0b03 01       		.uleb128 0x1
 1756 0b04 50       		.byte	0x50
ARM GAS  C:\Users\ADMINI~1\AppData\Local\Temp\cclc6TcK.s 			page 32


 1757 0b05 02       		.uleb128 0x2
 1758 0b06 08       		.byte	0x8
 1759 0b07 32       		.byte	0x32
 1760 0b08 00       		.byte	0
 1761 0b09 00       		.byte	0
 1762 0b0a 23       		.uleb128 0x23
 1763 0b0b A4000000 		.4byte	.LVL14
 1764 0b0f 860C0000 		.4byte	0xc86
 1765 0b13 1E0B0000 		.4byte	0xb1e
 1766 0b17 1C       		.uleb128 0x1c
 1767 0b18 01       		.uleb128 0x1
 1768 0b19 50       		.byte	0x50
 1769 0b1a 02       		.uleb128 0x2
 1770 0b1b 08       		.byte	0x8
 1771 0b1c 32       		.byte	0x32
 1772 0b1d 00       		.byte	0
 1773 0b1e 24       		.uleb128 0x24
 1774 0b1f AC000000 		.4byte	.LVL16
 1775 0b23 FA0C0000 		.4byte	0xcfa
 1776 0b27 00       		.byte	0
 1777 0b28 00       		.byte	0
 1778 0b29 25       		.uleb128 0x25
 1779 0b2a A2000000 		.4byte	0xa2
 1780 0b2e 390B0000 		.4byte	0xb39
 1781 0b32 26       		.uleb128 0x26
 1782 0b33 22040000 		.4byte	0x422
 1783 0b37 1F       		.byte	0x1f
 1784 0b38 00       		.byte	0
 1785 0b39 27       		.uleb128 0x27
 1786 0b3a FA020000 		.4byte	.LASF179
 1787 0b3e 01       		.byte	0x1
 1788 0b3f 2A       		.byte	0x2a
 1789 0b40 00000000 		.4byte	.LFB7
 1790 0b44 78000000 		.4byte	.LFE7-.LFB7
 1791 0b48 01       		.uleb128 0x1
 1792 0b49 9C       		.byte	0x9c
 1793 0b4a 130C0000 		.4byte	0xc13
 1794 0b4e 20       		.uleb128 0x20
 1795 0b4f A4080000 		.4byte	.LASF162
 1796 0b53 01       		.byte	0x1
 1797 0b54 2F       		.byte	0x2f
 1798 0b55 230C0000 		.4byte	0xc23
 1799 0b59 02       		.uleb128 0x2
 1800 0b5a 91       		.byte	0x91
 1801 0b5b 70       		.sleb128 -16
 1802 0b5c 24       		.uleb128 0x24
 1803 0b5d 08000000 		.4byte	.LVL17
 1804 0b61 010D0000 		.4byte	0xd01
 1805 0b65 24       		.uleb128 0x24
 1806 0b66 0C000000 		.4byte	.LVL18
 1807 0b6a 080D0000 		.4byte	0xd08
 1808 0b6e 24       		.uleb128 0x24
 1809 0b6f 28000000 		.4byte	.LVL19
 1810 0b73 0F0D0000 		.4byte	0xd0f
 1811 0b77 23       		.uleb128 0x23
 1812 0b78 38000000 		.4byte	.LVL20
 1813 0b7c 250D0000 		.4byte	0xd25
ARM GAS  C:\Users\ADMINI~1\AppData\Local\Temp\cclc6TcK.s 			page 33


 1814 0b80 950B0000 		.4byte	0xb95
 1815 0b84 1C       		.uleb128 0x1c
 1816 0b85 01       		.uleb128 0x1
 1817 0b86 52       		.byte	0x52
 1818 0b87 01       		.uleb128 0x1
 1819 0b88 35       		.byte	0x35
 1820 0b89 1C       		.uleb128 0x1c
 1821 0b8a 01       		.uleb128 0x1
 1822 0b8b 51       		.byte	0x51
 1823 0b8c 02       		.uleb128 0x2
 1824 0b8d 91       		.byte	0x91
 1825 0b8e 70       		.sleb128 -16
 1826 0b8f 1C       		.uleb128 0x1c
 1827 0b90 01       		.uleb128 0x1
 1828 0b91 50       		.byte	0x50
 1829 0b92 01       		.uleb128 0x1
 1830 0b93 30       		.byte	0x30
 1831 0b94 00       		.byte	0
 1832 0b95 23       		.uleb128 0x23
 1833 0b96 42000000 		.4byte	.LVL21
 1834 0b9a 400D0000 		.4byte	0xd40
 1835 0b9e AE0B0000 		.4byte	0xbae
 1836 0ba2 1C       		.uleb128 0x1c
 1837 0ba3 01       		.uleb128 0x1
 1838 0ba4 51       		.byte	0x51
 1839 0ba5 01       		.uleb128 0x1
 1840 0ba6 35       		.byte	0x35
 1841 0ba7 1C       		.uleb128 0x1c
 1842 0ba8 01       		.uleb128 0x1
 1843 0ba9 50       		.byte	0x50
 1844 0baa 02       		.uleb128 0x2
 1845 0bab 91       		.byte	0x91
 1846 0bac 70       		.sleb128 -16
 1847 0bad 00       		.byte	0
 1848 0bae 23       		.uleb128 0x23
 1849 0baf 52000000 		.4byte	.LVL22
 1850 0bb3 560D0000 		.4byte	0xd56
 1851 0bb7 E20B0000 		.4byte	0xbe2
 1852 0bbb 1C       		.uleb128 0x1c
 1853 0bbc 01       		.uleb128 0x1
 1854 0bbd 53       		.byte	0x53
 1855 0bbe 05       		.uleb128 0x5
 1856 0bbf 03       		.byte	0x3
 1857 0bc0 00000000 		.4byte	rx_thread
 1858 0bc4 1C       		.uleb128 0x1c
 1859 0bc5 01       		.uleb128 0x1
 1860 0bc6 52       		.byte	0x52
 1861 0bc7 02       		.uleb128 0x2
 1862 0bc8 08       		.byte	0x8
 1863 0bc9 3F       		.byte	0x3f
 1864 0bca 1C       		.uleb128 0x1c
 1865 0bcb 01       		.uleb128 0x1
 1866 0bcc 51       		.byte	0x51
 1867 0bcd 03       		.uleb128 0x3
 1868 0bce 0A       		.byte	0xa
 1869 0bcf 9805     		.2byte	0x598
 1870 0bd1 1C       		.uleb128 0x1c
ARM GAS  C:\Users\ADMINI~1\AppData\Local\Temp\cclc6TcK.s 			page 34


 1871 0bd2 01       		.uleb128 0x1
 1872 0bd3 50       		.byte	0x50
 1873 0bd4 05       		.uleb128 0x5
 1874 0bd5 03       		.byte	0x3
 1875 0bd6 00000000 		.4byte	.LANCHOR1
 1876 0bda 1C       		.uleb128 0x1c
 1877 0bdb 02       		.uleb128 0x2
 1878 0bdc 7D       		.byte	0x7d
 1879 0bdd 00       		.sleb128 0
 1880 0bde 02       		.uleb128 0x2
 1881 0bdf 74       		.byte	0x74
 1882 0be0 00       		.sleb128 0
 1883 0be1 00       		.byte	0
 1884 0be2 1B       		.uleb128 0x1b
 1885 0be3 62000000 		.4byte	.LVL23
 1886 0be7 560D0000 		.4byte	0xd56
 1887 0beb 1C       		.uleb128 0x1c
 1888 0bec 01       		.uleb128 0x1
 1889 0bed 53       		.byte	0x53
 1890 0bee 05       		.uleb128 0x5
 1891 0bef 03       		.byte	0x3
 1892 0bf0 00000000 		.4byte	tx_thread
 1893 0bf4 1C       		.uleb128 0x1c
 1894 0bf5 01       		.uleb128 0x1
 1895 0bf6 52       		.byte	0x52
 1896 0bf7 02       		.uleb128 0x2
 1897 0bf8 08       		.byte	0x8
 1898 0bf9 3F       		.byte	0x3f
 1899 0bfa 1C       		.uleb128 0x1c
 1900 0bfb 01       		.uleb128 0x1
 1901 0bfc 51       		.byte	0x51
 1902 0bfd 03       		.uleb128 0x3
 1903 0bfe 0A       		.byte	0xa
 1904 0bff 9803     		.2byte	0x398
 1905 0c01 1C       		.uleb128 0x1c
 1906 0c02 01       		.uleb128 0x1
 1907 0c03 50       		.byte	0x50
 1908 0c04 05       		.uleb128 0x5
 1909 0c05 03       		.byte	0x3
 1910 0c06 00000000 		.4byte	.LANCHOR2
 1911 0c0a 1C       		.uleb128 0x1c
 1912 0c0b 02       		.uleb128 0x2
 1913 0c0c 7D       		.byte	0x7d
 1914 0c0d 00       		.sleb128 0
 1915 0c0e 02       		.uleb128 0x2
 1916 0c0f 74       		.byte	0x74
 1917 0c10 00       		.sleb128 0
 1918 0c11 00       		.byte	0
 1919 0c12 00       		.byte	0
 1920 0c13 25       		.uleb128 0x25
 1921 0c14 0C050000 		.4byte	0x50c
 1922 0c18 230C0000 		.4byte	0xc23
 1923 0c1c 26       		.uleb128 0x26
 1924 0c1d 22040000 		.4byte	0x422
 1925 0c21 04       		.byte	0x4
 1926 0c22 00       		.byte	0
 1927 0c23 10       		.uleb128 0x10
ARM GAS  C:\Users\ADMINI~1\AppData\Local\Temp\cclc6TcK.s 			page 35


 1928 0c24 130C0000 		.4byte	0xc13
 1929 0c28 25       		.uleb128 0x25
 1930 0c29 AA020000 		.4byte	0x2aa
 1931 0c2d 380C0000 		.4byte	0xc38
 1932 0c31 26       		.uleb128 0x26
 1933 0c32 22040000 		.4byte	0x422
 1934 0c36 B2       		.byte	0xb2
 1935 0c37 00       		.byte	0
 1936 0c38 20       		.uleb128 0x20
 1937 0c39 6D010000 		.4byte	.LASF163
 1938 0c3d 01       		.byte	0x1
 1939 0c3e 22       		.byte	0x22
 1940 0c3f 280C0000 		.4byte	0xc28
 1941 0c43 05       		.uleb128 0x5
 1942 0c44 03       		.byte	0x3
 1943 0c45 00000000 		.4byte	rx_thread_wa
 1944 0c49 25       		.uleb128 0x25
 1945 0c4a AA020000 		.4byte	0x2aa
 1946 0c4e 590C0000 		.4byte	0xc59
 1947 0c52 26       		.uleb128 0x26
 1948 0c53 22040000 		.4byte	0x422
 1949 0c57 72       		.byte	0x72
 1950 0c58 00       		.byte	0
 1951 0c59 20       		.uleb128 0x20
 1952 0c5a 07080000 		.4byte	.LASF164
 1953 0c5e 01       		.byte	0x1
 1954 0c5f 23       		.byte	0x23
 1955 0c60 490C0000 		.4byte	0xc49
 1956 0c64 05       		.uleb128 0x5
 1957 0c65 03       		.byte	0x3
 1958 0c66 00000000 		.4byte	tx_thread_wa
 1959 0c6a 20       		.uleb128 0x20
 1960 0c6b 1A060000 		.4byte	.LASF165
 1961 0c6f 01       		.byte	0x1
 1962 0c70 24       		.byte	0x24
 1963 0c71 7D090000 		.4byte	0x97d
 1964 0c75 05       		.uleb128 0x5
 1965 0c76 03       		.byte	0x3
 1966 0c77 00000000 		.4byte	mstate
 1967 0c7b 28       		.uleb128 0x28
 1968 0c7c AC070000 		.4byte	.LASF180
 1969 0c80 09       		.byte	0x9
 1970 0c81 6F       		.byte	0x6f
 1971 0c82 7F040000 		.4byte	0x47f
 1972 0c86 29       		.uleb128 0x29
 1973 0c87 72080000 		.4byte	.LASF166
 1974 0c8b 07       		.byte	0x7
 1975 0c8c 7501     		.2byte	0x175
 1976 0c8e 980C0000 		.4byte	0xc98
 1977 0c92 12       		.uleb128 0x12
 1978 0c93 38010000 		.4byte	0x138
 1979 0c97 00       		.byte	0
 1980 0c98 2A       		.uleb128 0x2a
 1981 0c99 93080000 		.4byte	.LASF168
 1982 0c9d 0D       		.byte	0xd
 1983 0c9e 22       		.byte	0x22
 1984 0c9f AD000000 		.4byte	0xad
ARM GAS  C:\Users\ADMINI~1\AppData\Local\Temp\cclc6TcK.s 			page 36


 1985 0ca3 B20C0000 		.4byte	0xcb2
 1986 0ca7 12       		.uleb128 0x12
 1987 0ca8 39050000 		.4byte	0x539
 1988 0cac 12       		.uleb128 0x12
 1989 0cad B20C0000 		.4byte	0xcb2
 1990 0cb1 00       		.byte	0
 1991 0cb2 09       		.uleb128 0x9
 1992 0cb3 04       		.byte	0x4
 1993 0cb4 B8000000 		.4byte	0xb8
 1994 0cb8 2B       		.uleb128 0x2b
 1995 0cb9 54090000 		.4byte	.LASF167
 1996 0cbd 0C       		.byte	0xc
 1997 0cbe 2F       		.byte	0x2f
 1998 0cbf C90C0000 		.4byte	0xcc9
 1999 0cc3 12       		.uleb128 0x12
 2000 0cc4 C90C0000 		.4byte	0xcc9
 2001 0cc8 00       		.byte	0
 2002 0cc9 09       		.uleb128 0x9
 2003 0cca 04       		.byte	0x4
 2004 0ccb 19090000 		.4byte	0x919
 2005 0ccf 2A       		.uleb128 0x2a
 2006 0cd0 F3000000 		.4byte	.LASF169
 2007 0cd4 0E       		.byte	0xe
 2008 0cd5 19       		.byte	0x19
 2009 0cd6 94000000 		.4byte	0x94
 2010 0cda EE0C0000 		.4byte	0xcee
 2011 0cde 12       		.uleb128 0x12
 2012 0cdf EE0C0000 		.4byte	0xcee
 2013 0ce3 12       		.uleb128 0x12
 2014 0ce4 F40C0000 		.4byte	0xcf4
 2015 0ce8 12       		.uleb128 0x12
 2016 0ce9 F40C0000 		.4byte	0xcf4
 2017 0ced 00       		.byte	0
 2018 0cee 09       		.uleb128 0x9
 2019 0cef 04       		.byte	0x4
 2020 0cf0 0C050000 		.4byte	0x50c
 2021 0cf4 09       		.uleb128 0x9
 2022 0cf5 04       		.byte	0x4
 2023 0cf6 94000000 		.4byte	0x94
 2024 0cfa 2C       		.uleb128 0x2c
 2025 0cfb B4060000 		.4byte	.LASF170
 2026 0cff 0E       		.byte	0xe
 2027 0d00 17       		.byte	0x17
 2028 0d01 2C       		.uleb128 0x2c
 2029 0d02 33090000 		.4byte	.LASF171
 2030 0d06 0F       		.byte	0xf
 2031 0d07 A3       		.byte	0xa3
 2032 0d08 2C       		.uleb128 0x2c
 2033 0d09 A9080000 		.4byte	.LASF172
 2034 0d0d 0E       		.byte	0xe
 2035 0d0e 16       		.byte	0x16
 2036 0d0f 2D       		.uleb128 0x2d
 2037 0d10 9B090000 		.4byte	.LASF181
 2038 0d14 0C       		.byte	0xc
 2039 0d15 20       		.byte	0x20
 2040 0d16 1A0D0000 		.4byte	0xd1a
 2041 0d1a 09       		.uleb128 0x9
ARM GAS  C:\Users\ADMINI~1\AppData\Local\Temp\cclc6TcK.s 			page 37


 2042 0d1b 04       		.byte	0x4
 2043 0d1c 200D0000 		.4byte	0xd20
 2044 0d20 10       		.uleb128 0x10
 2045 0d21 A8080000 		.4byte	0x8a8
 2046 0d25 2B       		.uleb128 0x2b
 2047 0d26 B5080000 		.4byte	.LASF173
 2048 0d2a 0E       		.byte	0xe
 2049 0d2b 1C       		.byte	0x1c
 2050 0d2c 400D0000 		.4byte	0xd40
 2051 0d30 12       		.uleb128 0x12
 2052 0d31 94000000 		.4byte	0x94
 2053 0d35 12       		.uleb128 0x12
 2054 0d36 01050000 		.4byte	0x501
 2055 0d3a 12       		.uleb128 0x12
 2056 0d3b 94000000 		.4byte	0x94
 2057 0d3f 00       		.byte	0
 2058 0d40 2B       		.uleb128 0x2b
 2059 0d41 21060000 		.4byte	.LASF174
 2060 0d45 0E       		.byte	0xe
 2061 0d46 1B       		.byte	0x1b
 2062 0d47 560D0000 		.4byte	0xd56
 2063 0d4b 12       		.uleb128 0x12
 2064 0d4c 01050000 		.4byte	0x501
 2065 0d50 12       		.uleb128 0x12
 2066 0d51 94000000 		.4byte	0x94
 2067 0d55 00       		.byte	0
 2068 0d56 2E       		.uleb128 0x2e
 2069 0d57 94060000 		.4byte	.LASF175
 2070 0d5b 07       		.byte	0x7
 2071 0d5c 7001     		.2byte	0x170
 2072 0d5e 6C020000 		.4byte	0x26c
 2073 0d62 12       		.uleb128 0x12
 2074 0d63 A8020000 		.4byte	0x2a8
 2075 0d67 12       		.uleb128 0x12
 2076 0d68 D9000000 		.4byte	0xd9
 2077 0d6c 12       		.uleb128 0x12
 2078 0d6d 17010000 		.4byte	0x117
 2079 0d71 12       		.uleb128 0x12
 2080 0d72 19050000 		.4byte	0x519
 2081 0d76 12       		.uleb128 0x12
 2082 0d77 A8020000 		.4byte	0x2a8
 2083 0d7b 00       		.byte	0
 2084 0d7c 00       		.byte	0
 2085              		.section	.debug_abbrev,"",%progbits
 2086              	.Ldebug_abbrev0:
 2087 0000 01       		.uleb128 0x1
 2088 0001 11       		.uleb128 0x11
 2089 0002 01       		.byte	0x1
 2090 0003 25       		.uleb128 0x25
 2091 0004 0E       		.uleb128 0xe
 2092 0005 13       		.uleb128 0x13
 2093 0006 0B       		.uleb128 0xb
 2094 0007 03       		.uleb128 0x3
 2095 0008 0E       		.uleb128 0xe
 2096 0009 1B       		.uleb128 0x1b
 2097 000a 0E       		.uleb128 0xe
 2098 000b 55       		.uleb128 0x55
ARM GAS  C:\Users\ADMINI~1\AppData\Local\Temp\cclc6TcK.s 			page 38


 2099 000c 17       		.uleb128 0x17
 2100 000d 11       		.uleb128 0x11
 2101 000e 01       		.uleb128 0x1
 2102 000f 10       		.uleb128 0x10
 2103 0010 17       		.uleb128 0x17
 2104 0011 00       		.byte	0
 2105 0012 00       		.byte	0
 2106 0013 02       		.uleb128 0x2
 2107 0014 24       		.uleb128 0x24
 2108 0015 00       		.byte	0
 2109 0016 0B       		.uleb128 0xb
 2110 0017 0B       		.uleb128 0xb
 2111 0018 3E       		.uleb128 0x3e
 2112 0019 0B       		.uleb128 0xb
 2113 001a 03       		.uleb128 0x3
 2114 001b 0E       		.uleb128 0xe
 2115 001c 00       		.byte	0
 2116 001d 00       		.byte	0
 2117 001e 03       		.uleb128 0x3
 2118 001f 16       		.uleb128 0x16
 2119 0020 00       		.byte	0
 2120 0021 03       		.uleb128 0x3
 2121 0022 0E       		.uleb128 0xe
 2122 0023 3A       		.uleb128 0x3a
 2123 0024 0B       		.uleb128 0xb
 2124 0025 3B       		.uleb128 0x3b
 2125 0026 0B       		.uleb128 0xb
 2126 0027 49       		.uleb128 0x49
 2127 0028 13       		.uleb128 0x13
 2128 0029 00       		.byte	0
 2129 002a 00       		.byte	0
 2130 002b 04       		.uleb128 0x4
 2131 002c 24       		.uleb128 0x24
 2132 002d 00       		.byte	0
 2133 002e 0B       		.uleb128 0xb
 2134 002f 0B       		.uleb128 0xb
 2135 0030 3E       		.uleb128 0x3e
 2136 0031 0B       		.uleb128 0xb
 2137 0032 03       		.uleb128 0x3
 2138 0033 08       		.uleb128 0x8
 2139 0034 00       		.byte	0
 2140 0035 00       		.byte	0
 2141 0036 05       		.uleb128 0x5
 2142 0037 13       		.uleb128 0x13
 2143 0038 01       		.byte	0x1
 2144 0039 03       		.uleb128 0x3
 2145 003a 0E       		.uleb128 0xe
 2146 003b 0B       		.uleb128 0xb
 2147 003c 0B       		.uleb128 0xb
 2148 003d 3A       		.uleb128 0x3a
 2149 003e 0B       		.uleb128 0xb
 2150 003f 3B       		.uleb128 0x3b
 2151 0040 0B       		.uleb128 0xb
 2152 0041 01       		.uleb128 0x1
 2153 0042 13       		.uleb128 0x13
 2154 0043 00       		.byte	0
 2155 0044 00       		.byte	0
ARM GAS  C:\Users\ADMINI~1\AppData\Local\Temp\cclc6TcK.s 			page 39


 2156 0045 06       		.uleb128 0x6
 2157 0046 0D       		.uleb128 0xd
 2158 0047 00       		.byte	0
 2159 0048 03       		.uleb128 0x3
 2160 0049 0E       		.uleb128 0xe
 2161 004a 3A       		.uleb128 0x3a
 2162 004b 0B       		.uleb128 0xb
 2163 004c 3B       		.uleb128 0x3b
 2164 004d 0B       		.uleb128 0xb
 2165 004e 49       		.uleb128 0x49
 2166 004f 13       		.uleb128 0x13
 2167 0050 38       		.uleb128 0x38
 2168 0051 0B       		.uleb128 0xb
 2169 0052 00       		.byte	0
 2170 0053 00       		.byte	0
 2171 0054 07       		.uleb128 0x7
 2172 0055 0D       		.uleb128 0xd
 2173 0056 00       		.byte	0
 2174 0057 03       		.uleb128 0x3
 2175 0058 08       		.uleb128 0x8
 2176 0059 3A       		.uleb128 0x3a
 2177 005a 0B       		.uleb128 0xb
 2178 005b 3B       		.uleb128 0x3b
 2179 005c 0B       		.uleb128 0xb
 2180 005d 49       		.uleb128 0x49
 2181 005e 13       		.uleb128 0x13
 2182 005f 38       		.uleb128 0x38
 2183 0060 0B       		.uleb128 0xb
 2184 0061 00       		.byte	0
 2185 0062 00       		.byte	0
 2186 0063 08       		.uleb128 0x8
 2187 0064 13       		.uleb128 0x13
 2188 0065 01       		.byte	0x1
 2189 0066 0B       		.uleb128 0xb
 2190 0067 0B       		.uleb128 0xb
 2191 0068 3A       		.uleb128 0x3a
 2192 0069 0B       		.uleb128 0xb
 2193 006a 3B       		.uleb128 0x3b
 2194 006b 0B       		.uleb128 0xb
 2195 006c 01       		.uleb128 0x1
 2196 006d 13       		.uleb128 0x13
 2197 006e 00       		.byte	0
 2198 006f 00       		.byte	0
 2199 0070 09       		.uleb128 0x9
 2200 0071 0F       		.uleb128 0xf
 2201 0072 00       		.byte	0
 2202 0073 0B       		.uleb128 0xb
 2203 0074 0B       		.uleb128 0xb
 2204 0075 49       		.uleb128 0x49
 2205 0076 13       		.uleb128 0x13
 2206 0077 00       		.byte	0
 2207 0078 00       		.byte	0
 2208 0079 0A       		.uleb128 0xa
 2209 007a 0F       		.uleb128 0xf
 2210 007b 00       		.byte	0
 2211 007c 0B       		.uleb128 0xb
 2212 007d 0B       		.uleb128 0xb
ARM GAS  C:\Users\ADMINI~1\AppData\Local\Temp\cclc6TcK.s 			page 40


 2213 007e 00       		.byte	0
 2214 007f 00       		.byte	0
 2215 0080 0B       		.uleb128 0xb
 2216 0081 13       		.uleb128 0x13
 2217 0082 01       		.byte	0x1
 2218 0083 03       		.uleb128 0x3
 2219 0084 0E       		.uleb128 0xe
 2220 0085 0B       		.uleb128 0xb
 2221 0086 0B       		.uleb128 0xb
 2222 0087 3A       		.uleb128 0x3a
 2223 0088 0B       		.uleb128 0xb
 2224 0089 3B       		.uleb128 0x3b
 2225 008a 05       		.uleb128 0x5
 2226 008b 01       		.uleb128 0x1
 2227 008c 13       		.uleb128 0x13
 2228 008d 00       		.byte	0
 2229 008e 00       		.byte	0
 2230 008f 0C       		.uleb128 0xc
 2231 0090 0D       		.uleb128 0xd
 2232 0091 00       		.byte	0
 2233 0092 03       		.uleb128 0x3
 2234 0093 08       		.uleb128 0x8
 2235 0094 3A       		.uleb128 0x3a
 2236 0095 0B       		.uleb128 0xb
 2237 0096 3B       		.uleb128 0x3b
 2238 0097 05       		.uleb128 0x5
 2239 0098 49       		.uleb128 0x49
 2240 0099 13       		.uleb128 0x13
 2241 009a 38       		.uleb128 0x38
 2242 009b 0B       		.uleb128 0xb
 2243 009c 00       		.byte	0
 2244 009d 00       		.byte	0
 2245 009e 0D       		.uleb128 0xd
 2246 009f 35       		.uleb128 0x35
 2247 00a0 00       		.byte	0
 2248 00a1 49       		.uleb128 0x49
 2249 00a2 13       		.uleb128 0x13
 2250 00a3 00       		.byte	0
 2251 00a4 00       		.byte	0
 2252 00a5 0E       		.uleb128 0xe
 2253 00a6 17       		.uleb128 0x17
 2254 00a7 01       		.byte	0x1
 2255 00a8 0B       		.uleb128 0xb
 2256 00a9 0B       		.uleb128 0xb
 2257 00aa 3A       		.uleb128 0x3a
 2258 00ab 0B       		.uleb128 0xb
 2259 00ac 3B       		.uleb128 0x3b
 2260 00ad 0B       		.uleb128 0xb
 2261 00ae 01       		.uleb128 0x1
 2262 00af 13       		.uleb128 0x13
 2263 00b0 00       		.byte	0
 2264 00b1 00       		.byte	0
 2265 00b2 0F       		.uleb128 0xf
 2266 00b3 0D       		.uleb128 0xd
 2267 00b4 00       		.byte	0
 2268 00b5 03       		.uleb128 0x3
 2269 00b6 0E       		.uleb128 0xe
ARM GAS  C:\Users\ADMINI~1\AppData\Local\Temp\cclc6TcK.s 			page 41


 2270 00b7 3A       		.uleb128 0x3a
 2271 00b8 0B       		.uleb128 0xb
 2272 00b9 3B       		.uleb128 0x3b
 2273 00ba 0B       		.uleb128 0xb
 2274 00bb 49       		.uleb128 0x49
 2275 00bc 13       		.uleb128 0x13
 2276 00bd 00       		.byte	0
 2277 00be 00       		.byte	0
 2278 00bf 10       		.uleb128 0x10
 2279 00c0 26       		.uleb128 0x26
 2280 00c1 00       		.byte	0
 2281 00c2 49       		.uleb128 0x49
 2282 00c3 13       		.uleb128 0x13
 2283 00c4 00       		.byte	0
 2284 00c5 00       		.byte	0
 2285 00c6 11       		.uleb128 0x11
 2286 00c7 15       		.uleb128 0x15
 2287 00c8 01       		.byte	0x1
 2288 00c9 27       		.uleb128 0x27
 2289 00ca 19       		.uleb128 0x19
 2290 00cb 49       		.uleb128 0x49
 2291 00cc 13       		.uleb128 0x13
 2292 00cd 01       		.uleb128 0x1
 2293 00ce 13       		.uleb128 0x13
 2294 00cf 00       		.byte	0
 2295 00d0 00       		.byte	0
 2296 00d1 12       		.uleb128 0x12
 2297 00d2 05       		.uleb128 0x5
 2298 00d3 00       		.byte	0
 2299 00d4 49       		.uleb128 0x49
 2300 00d5 13       		.uleb128 0x13
 2301 00d6 00       		.byte	0
 2302 00d7 00       		.byte	0
 2303 00d8 13       		.uleb128 0x13
 2304 00d9 04       		.uleb128 0x4
 2305 00da 01       		.byte	0x1
 2306 00db 0B       		.uleb128 0xb
 2307 00dc 0B       		.uleb128 0xb
 2308 00dd 3A       		.uleb128 0x3a
 2309 00de 0B       		.uleb128 0xb
 2310 00df 3B       		.uleb128 0x3b
 2311 00e0 0B       		.uleb128 0xb
 2312 00e1 01       		.uleb128 0x1
 2313 00e2 13       		.uleb128 0x13
 2314 00e3 00       		.byte	0
 2315 00e4 00       		.byte	0
 2316 00e5 14       		.uleb128 0x14
 2317 00e6 28       		.uleb128 0x28
 2318 00e7 00       		.byte	0
 2319 00e8 03       		.uleb128 0x3
 2320 00e9 0E       		.uleb128 0xe
 2321 00ea 1C       		.uleb128 0x1c
 2322 00eb 0D       		.uleb128 0xd
 2323 00ec 00       		.byte	0
 2324 00ed 00       		.byte	0
 2325 00ee 15       		.uleb128 0x15
 2326 00ef 0D       		.uleb128 0xd
ARM GAS  C:\Users\ADMINI~1\AppData\Local\Temp\cclc6TcK.s 			page 42


 2327 00f0 00       		.byte	0
 2328 00f1 03       		.uleb128 0x3
 2329 00f2 0E       		.uleb128 0xe
 2330 00f3 3A       		.uleb128 0x3a
 2331 00f4 0B       		.uleb128 0xb
 2332 00f5 3B       		.uleb128 0x3b
 2333 00f6 05       		.uleb128 0x5
 2334 00f7 49       		.uleb128 0x49
 2335 00f8 13       		.uleb128 0x13
 2336 00f9 38       		.uleb128 0x38
 2337 00fa 0B       		.uleb128 0xb
 2338 00fb 00       		.byte	0
 2339 00fc 00       		.byte	0
 2340 00fd 16       		.uleb128 0x16
 2341 00fe 16       		.uleb128 0x16
 2342 00ff 00       		.byte	0
 2343 0100 03       		.uleb128 0x3
 2344 0101 0E       		.uleb128 0xe
 2345 0102 3A       		.uleb128 0x3a
 2346 0103 0B       		.uleb128 0xb
 2347 0104 3B       		.uleb128 0x3b
 2348 0105 05       		.uleb128 0x5
 2349 0106 49       		.uleb128 0x49
 2350 0107 13       		.uleb128 0x13
 2351 0108 00       		.byte	0
 2352 0109 00       		.byte	0
 2353 010a 17       		.uleb128 0x17
 2354 010b 13       		.uleb128 0x13
 2355 010c 01       		.byte	0x1
 2356 010d 0B       		.uleb128 0xb
 2357 010e 0B       		.uleb128 0xb
 2358 010f 3A       		.uleb128 0x3a
 2359 0110 0B       		.uleb128 0xb
 2360 0111 3B       		.uleb128 0x3b
 2361 0112 05       		.uleb128 0x5
 2362 0113 01       		.uleb128 0x1
 2363 0114 13       		.uleb128 0x13
 2364 0115 00       		.byte	0
 2365 0116 00       		.byte	0
 2366 0117 18       		.uleb128 0x18
 2367 0118 04       		.uleb128 0x4
 2368 0119 01       		.byte	0x1
 2369 011a 0B       		.uleb128 0xb
 2370 011b 0B       		.uleb128 0xb
 2371 011c 3A       		.uleb128 0x3a
 2372 011d 0B       		.uleb128 0xb
 2373 011e 3B       		.uleb128 0x3b
 2374 011f 05       		.uleb128 0x5
 2375 0120 01       		.uleb128 0x1
 2376 0121 13       		.uleb128 0x13
 2377 0122 00       		.byte	0
 2378 0123 00       		.byte	0
 2379 0124 19       		.uleb128 0x19
 2380 0125 2E       		.uleb128 0x2e
 2381 0126 01       		.byte	0x1
 2382 0127 03       		.uleb128 0x3
 2383 0128 0E       		.uleb128 0xe
ARM GAS  C:\Users\ADMINI~1\AppData\Local\Temp\cclc6TcK.s 			page 43


 2384 0129 3A       		.uleb128 0x3a
 2385 012a 0B       		.uleb128 0xb
 2386 012b 3B       		.uleb128 0x3b
 2387 012c 0B       		.uleb128 0xb
 2388 012d 27       		.uleb128 0x27
 2389 012e 19       		.uleb128 0x19
 2390 012f 49       		.uleb128 0x49
 2391 0130 13       		.uleb128 0x13
 2392 0131 11       		.uleb128 0x11
 2393 0132 01       		.uleb128 0x1
 2394 0133 12       		.uleb128 0x12
 2395 0134 06       		.uleb128 0x6
 2396 0135 40       		.uleb128 0x40
 2397 0136 18       		.uleb128 0x18
 2398 0137 9742     		.uleb128 0x2117
 2399 0139 19       		.uleb128 0x19
 2400 013a 01       		.uleb128 0x1
 2401 013b 13       		.uleb128 0x13
 2402 013c 00       		.byte	0
 2403 013d 00       		.byte	0
 2404 013e 1A       		.uleb128 0x1a
 2405 013f 05       		.uleb128 0x5
 2406 0140 00       		.byte	0
 2407 0141 03       		.uleb128 0x3
 2408 0142 08       		.uleb128 0x8
 2409 0143 3A       		.uleb128 0x3a
 2410 0144 0B       		.uleb128 0xb
 2411 0145 3B       		.uleb128 0x3b
 2412 0146 0B       		.uleb128 0xb
 2413 0147 49       		.uleb128 0x49
 2414 0148 13       		.uleb128 0x13
 2415 0149 02       		.uleb128 0x2
 2416 014a 17       		.uleb128 0x17
 2417 014b 00       		.byte	0
 2418 014c 00       		.byte	0
 2419 014d 1B       		.uleb128 0x1b
 2420 014e 898201   		.uleb128 0x4109
 2421 0151 01       		.byte	0x1
 2422 0152 11       		.uleb128 0x11
 2423 0153 01       		.uleb128 0x1
 2424 0154 31       		.uleb128 0x31
 2425 0155 13       		.uleb128 0x13
 2426 0156 00       		.byte	0
 2427 0157 00       		.byte	0
 2428 0158 1C       		.uleb128 0x1c
 2429 0159 8A8201   		.uleb128 0x410a
 2430 015c 00       		.byte	0
 2431 015d 02       		.uleb128 0x2
 2432 015e 18       		.uleb128 0x18
 2433 015f 9142     		.uleb128 0x2111
 2434 0161 18       		.uleb128 0x18
 2435 0162 00       		.byte	0
 2436 0163 00       		.byte	0
 2437 0164 1D       		.uleb128 0x1d
 2438 0165 34       		.uleb128 0x34
 2439 0166 00       		.byte	0
 2440 0167 03       		.uleb128 0x3
ARM GAS  C:\Users\ADMINI~1\AppData\Local\Temp\cclc6TcK.s 			page 44


 2441 0168 0E       		.uleb128 0xe
 2442 0169 3A       		.uleb128 0x3a
 2443 016a 0B       		.uleb128 0xb
 2444 016b 3B       		.uleb128 0x3b
 2445 016c 0B       		.uleb128 0xb
 2446 016d 49       		.uleb128 0x49
 2447 016e 13       		.uleb128 0x13
 2448 016f 02       		.uleb128 0x2
 2449 0170 17       		.uleb128 0x17
 2450 0171 00       		.byte	0
 2451 0172 00       		.byte	0
 2452 0173 1E       		.uleb128 0x1e
 2453 0174 0B       		.uleb128 0xb
 2454 0175 01       		.byte	0x1
 2455 0176 55       		.uleb128 0x55
 2456 0177 17       		.uleb128 0x17
 2457 0178 00       		.byte	0
 2458 0179 00       		.byte	0
 2459 017a 1F       		.uleb128 0x1f
 2460 017b 34       		.uleb128 0x34
 2461 017c 00       		.byte	0
 2462 017d 03       		.uleb128 0x3
 2463 017e 08       		.uleb128 0x8
 2464 017f 3A       		.uleb128 0x3a
 2465 0180 0B       		.uleb128 0xb
 2466 0181 3B       		.uleb128 0x3b
 2467 0182 0B       		.uleb128 0xb
 2468 0183 49       		.uleb128 0x49
 2469 0184 13       		.uleb128 0x13
 2470 0185 02       		.uleb128 0x2
 2471 0186 18       		.uleb128 0x18
 2472 0187 00       		.byte	0
 2473 0188 00       		.byte	0
 2474 0189 20       		.uleb128 0x20
 2475 018a 34       		.uleb128 0x34
 2476 018b 00       		.byte	0
 2477 018c 03       		.uleb128 0x3
 2478 018d 0E       		.uleb128 0xe
 2479 018e 3A       		.uleb128 0x3a
 2480 018f 0B       		.uleb128 0xb
 2481 0190 3B       		.uleb128 0x3b
 2482 0191 0B       		.uleb128 0xb
 2483 0192 49       		.uleb128 0x49
 2484 0193 13       		.uleb128 0x13
 2485 0194 02       		.uleb128 0x2
 2486 0195 18       		.uleb128 0x18
 2487 0196 00       		.byte	0
 2488 0197 00       		.byte	0
 2489 0198 21       		.uleb128 0x21
 2490 0199 0B       		.uleb128 0xb
 2491 019a 01       		.byte	0x1
 2492 019b 55       		.uleb128 0x55
 2493 019c 17       		.uleb128 0x17
 2494 019d 01       		.uleb128 0x1
 2495 019e 13       		.uleb128 0x13
 2496 019f 00       		.byte	0
 2497 01a0 00       		.byte	0
ARM GAS  C:\Users\ADMINI~1\AppData\Local\Temp\cclc6TcK.s 			page 45


 2498 01a1 22       		.uleb128 0x22
 2499 01a2 34       		.uleb128 0x34
 2500 01a3 00       		.byte	0
 2501 01a4 03       		.uleb128 0x3
 2502 01a5 08       		.uleb128 0x8
 2503 01a6 3A       		.uleb128 0x3a
 2504 01a7 0B       		.uleb128 0xb
 2505 01a8 3B       		.uleb128 0x3b
 2506 01a9 0B       		.uleb128 0xb
 2507 01aa 49       		.uleb128 0x49
 2508 01ab 13       		.uleb128 0x13
 2509 01ac 02       		.uleb128 0x2
 2510 01ad 17       		.uleb128 0x17
 2511 01ae 00       		.byte	0
 2512 01af 00       		.byte	0
 2513 01b0 23       		.uleb128 0x23
 2514 01b1 898201   		.uleb128 0x4109
 2515 01b4 01       		.byte	0x1
 2516 01b5 11       		.uleb128 0x11
 2517 01b6 01       		.uleb128 0x1
 2518 01b7 31       		.uleb128 0x31
 2519 01b8 13       		.uleb128 0x13
 2520 01b9 01       		.uleb128 0x1
 2521 01ba 13       		.uleb128 0x13
 2522 01bb 00       		.byte	0
 2523 01bc 00       		.byte	0
 2524 01bd 24       		.uleb128 0x24
 2525 01be 898201   		.uleb128 0x4109
 2526 01c1 00       		.byte	0
 2527 01c2 11       		.uleb128 0x11
 2528 01c3 01       		.uleb128 0x1
 2529 01c4 31       		.uleb128 0x31
 2530 01c5 13       		.uleb128 0x13
 2531 01c6 00       		.byte	0
 2532 01c7 00       		.byte	0
 2533 01c8 25       		.uleb128 0x25
 2534 01c9 01       		.uleb128 0x1
 2535 01ca 01       		.byte	0x1
 2536 01cb 49       		.uleb128 0x49
 2537 01cc 13       		.uleb128 0x13
 2538 01cd 01       		.uleb128 0x1
 2539 01ce 13       		.uleb128 0x13
 2540 01cf 00       		.byte	0
 2541 01d0 00       		.byte	0
 2542 01d1 26       		.uleb128 0x26
 2543 01d2 21       		.uleb128 0x21
 2544 01d3 00       		.byte	0
 2545 01d4 49       		.uleb128 0x49
 2546 01d5 13       		.uleb128 0x13
 2547 01d6 2F       		.uleb128 0x2f
 2548 01d7 0B       		.uleb128 0xb
 2549 01d8 00       		.byte	0
 2550 01d9 00       		.byte	0
 2551 01da 27       		.uleb128 0x27
 2552 01db 2E       		.uleb128 0x2e
 2553 01dc 01       		.byte	0x1
 2554 01dd 3F       		.uleb128 0x3f
ARM GAS  C:\Users\ADMINI~1\AppData\Local\Temp\cclc6TcK.s 			page 46


 2555 01de 19       		.uleb128 0x19
 2556 01df 03       		.uleb128 0x3
 2557 01e0 0E       		.uleb128 0xe
 2558 01e1 3A       		.uleb128 0x3a
 2559 01e2 0B       		.uleb128 0xb
 2560 01e3 3B       		.uleb128 0x3b
 2561 01e4 0B       		.uleb128 0xb
 2562 01e5 27       		.uleb128 0x27
 2563 01e6 19       		.uleb128 0x19
 2564 01e7 11       		.uleb128 0x11
 2565 01e8 01       		.uleb128 0x1
 2566 01e9 12       		.uleb128 0x12
 2567 01ea 06       		.uleb128 0x6
 2568 01eb 40       		.uleb128 0x40
 2569 01ec 18       		.uleb128 0x18
 2570 01ed 9742     		.uleb128 0x2117
 2571 01ef 19       		.uleb128 0x19
 2572 01f0 01       		.uleb128 0x1
 2573 01f1 13       		.uleb128 0x13
 2574 01f2 00       		.byte	0
 2575 01f3 00       		.byte	0
 2576 01f4 28       		.uleb128 0x28
 2577 01f5 34       		.uleb128 0x34
 2578 01f6 00       		.byte	0
 2579 01f7 03       		.uleb128 0x3
 2580 01f8 0E       		.uleb128 0xe
 2581 01f9 3A       		.uleb128 0x3a
 2582 01fa 0B       		.uleb128 0xb
 2583 01fb 3B       		.uleb128 0x3b
 2584 01fc 0B       		.uleb128 0xb
 2585 01fd 49       		.uleb128 0x49
 2586 01fe 13       		.uleb128 0x13
 2587 01ff 3F       		.uleb128 0x3f
 2588 0200 19       		.uleb128 0x19
 2589 0201 3C       		.uleb128 0x3c
 2590 0202 19       		.uleb128 0x19
 2591 0203 00       		.byte	0
 2592 0204 00       		.byte	0
 2593 0205 29       		.uleb128 0x29
 2594 0206 2E       		.uleb128 0x2e
 2595 0207 01       		.byte	0x1
 2596 0208 3F       		.uleb128 0x3f
 2597 0209 19       		.uleb128 0x19
 2598 020a 03       		.uleb128 0x3
 2599 020b 0E       		.uleb128 0xe
 2600 020c 3A       		.uleb128 0x3a
 2601 020d 0B       		.uleb128 0xb
 2602 020e 3B       		.uleb128 0x3b
 2603 020f 05       		.uleb128 0x5
 2604 0210 27       		.uleb128 0x27
 2605 0211 19       		.uleb128 0x19
 2606 0212 3C       		.uleb128 0x3c
 2607 0213 19       		.uleb128 0x19
 2608 0214 01       		.uleb128 0x1
 2609 0215 13       		.uleb128 0x13
 2610 0216 00       		.byte	0
 2611 0217 00       		.byte	0
ARM GAS  C:\Users\ADMINI~1\AppData\Local\Temp\cclc6TcK.s 			page 47


 2612 0218 2A       		.uleb128 0x2a
 2613 0219 2E       		.uleb128 0x2e
 2614 021a 01       		.byte	0x1
 2615 021b 3F       		.uleb128 0x3f
 2616 021c 19       		.uleb128 0x19
 2617 021d 03       		.uleb128 0x3
 2618 021e 0E       		.uleb128 0xe
 2619 021f 3A       		.uleb128 0x3a
 2620 0220 0B       		.uleb128 0xb
 2621 0221 3B       		.uleb128 0x3b
 2622 0222 0B       		.uleb128 0xb
 2623 0223 27       		.uleb128 0x27
 2624 0224 19       		.uleb128 0x19
 2625 0225 49       		.uleb128 0x49
 2626 0226 13       		.uleb128 0x13
 2627 0227 3C       		.uleb128 0x3c
 2628 0228 19       		.uleb128 0x19
 2629 0229 01       		.uleb128 0x1
 2630 022a 13       		.uleb128 0x13
 2631 022b 00       		.byte	0
 2632 022c 00       		.byte	0
 2633 022d 2B       		.uleb128 0x2b
 2634 022e 2E       		.uleb128 0x2e
 2635 022f 01       		.byte	0x1
 2636 0230 3F       		.uleb128 0x3f
 2637 0231 19       		.uleb128 0x19
 2638 0232 03       		.uleb128 0x3
 2639 0233 0E       		.uleb128 0xe
 2640 0234 3A       		.uleb128 0x3a
 2641 0235 0B       		.uleb128 0xb
 2642 0236 3B       		.uleb128 0x3b
 2643 0237 0B       		.uleb128 0xb
 2644 0238 27       		.uleb128 0x27
 2645 0239 19       		.uleb128 0x19
 2646 023a 3C       		.uleb128 0x3c
 2647 023b 19       		.uleb128 0x19
 2648 023c 01       		.uleb128 0x1
 2649 023d 13       		.uleb128 0x13
 2650 023e 00       		.byte	0
 2651 023f 00       		.byte	0
 2652 0240 2C       		.uleb128 0x2c
 2653 0241 2E       		.uleb128 0x2e
 2654 0242 00       		.byte	0
 2655 0243 3F       		.uleb128 0x3f
 2656 0244 19       		.uleb128 0x19
 2657 0245 03       		.uleb128 0x3
 2658 0246 0E       		.uleb128 0xe
 2659 0247 3A       		.uleb128 0x3a
 2660 0248 0B       		.uleb128 0xb
 2661 0249 3B       		.uleb128 0x3b
 2662 024a 0B       		.uleb128 0xb
 2663 024b 27       		.uleb128 0x27
 2664 024c 19       		.uleb128 0x19
 2665 024d 3C       		.uleb128 0x3c
 2666 024e 19       		.uleb128 0x19
 2667 024f 00       		.byte	0
 2668 0250 00       		.byte	0
ARM GAS  C:\Users\ADMINI~1\AppData\Local\Temp\cclc6TcK.s 			page 48


 2669 0251 2D       		.uleb128 0x2d
 2670 0252 2E       		.uleb128 0x2e
 2671 0253 00       		.byte	0
 2672 0254 3F       		.uleb128 0x3f
 2673 0255 19       		.uleb128 0x19
 2674 0256 03       		.uleb128 0x3
 2675 0257 0E       		.uleb128 0xe
 2676 0258 3A       		.uleb128 0x3a
 2677 0259 0B       		.uleb128 0xb
 2678 025a 3B       		.uleb128 0x3b
 2679 025b 0B       		.uleb128 0xb
 2680 025c 27       		.uleb128 0x27
 2681 025d 19       		.uleb128 0x19
 2682 025e 49       		.uleb128 0x49
 2683 025f 13       		.uleb128 0x13
 2684 0260 3C       		.uleb128 0x3c
 2685 0261 19       		.uleb128 0x19
 2686 0262 00       		.byte	0
 2687 0263 00       		.byte	0
 2688 0264 2E       		.uleb128 0x2e
 2689 0265 2E       		.uleb128 0x2e
 2690 0266 01       		.byte	0x1
 2691 0267 3F       		.uleb128 0x3f
 2692 0268 19       		.uleb128 0x19
 2693 0269 03       		.uleb128 0x3
 2694 026a 0E       		.uleb128 0xe
 2695 026b 3A       		.uleb128 0x3a
 2696 026c 0B       		.uleb128 0xb
 2697 026d 3B       		.uleb128 0x3b
 2698 026e 05       		.uleb128 0x5
 2699 026f 27       		.uleb128 0x27
 2700 0270 19       		.uleb128 0x19
 2701 0271 49       		.uleb128 0x49
 2702 0272 13       		.uleb128 0x13
 2703 0273 3C       		.uleb128 0x3c
 2704 0274 19       		.uleb128 0x19
 2705 0275 00       		.byte	0
 2706 0276 00       		.byte	0
 2707 0277 00       		.byte	0
 2708              		.section	.debug_loc,"",%progbits
 2709              	.Ldebug_loc0:
 2710              	.LLST0:
 2711 0000 00000000 		.4byte	.LVL0
 2712 0004 0A000000 		.4byte	.LVL1
 2713 0008 0100     		.2byte	0x1
 2714 000a 50       		.byte	0x50
 2715 000b 0A000000 		.4byte	.LVL1
 2716 000f 1C000000 		.4byte	.LFE8
 2717 0013 0400     		.2byte	0x4
 2718 0015 F3       		.byte	0xf3
 2719 0016 01       		.uleb128 0x1
 2720 0017 50       		.byte	0x50
 2721 0018 9F       		.byte	0x9f
 2722 0019 00000000 		.4byte	0
 2723 001d 00000000 		.4byte	0
 2724              	.LLST1:
 2725 0021 00000000 		.4byte	.LVL3
ARM GAS  C:\Users\ADMINI~1\AppData\Local\Temp\cclc6TcK.s 			page 49


 2726 0025 1A000000 		.4byte	.LVL5
 2727 0029 0100     		.2byte	0x1
 2728 002b 50       		.byte	0x50
 2729 002c 1A000000 		.4byte	.LVL5
 2730 0030 C0000000 		.4byte	.LFE9
 2731 0034 0400     		.2byte	0x4
 2732 0036 F3       		.byte	0xf3
 2733 0037 01       		.uleb128 0x1
 2734 0038 50       		.byte	0x50
 2735 0039 9F       		.byte	0x9f
 2736 003a 00000000 		.4byte	0
 2737 003e 00000000 		.4byte	0
 2738              	.LLST2:
 2739 0042 16000000 		.4byte	.LVL4
 2740 0046 1A000000 		.4byte	.LVL5
 2741 004a 0200     		.2byte	0x2
 2742 004c 30       		.byte	0x30
 2743 004d 9F       		.byte	0x9f
 2744 004e 1A000000 		.4byte	.LVL5
 2745 0052 9E000000 		.4byte	.LVL13
 2746 0056 0100     		.2byte	0x1
 2747 0058 56       		.byte	0x56
 2748 0059 9E000000 		.4byte	.LVL13
 2749 005d A4000000 		.4byte	.LVL14
 2750 0061 0300     		.2byte	0x3
 2751 0063 76       		.byte	0x76
 2752 0064 7F       		.sleb128 -1
 2753 0065 9F       		.byte	0x9f
 2754 0066 A4000000 		.4byte	.LVL14
 2755 006a A8000000 		.4byte	.LVL15
 2756 006e 0100     		.2byte	0x1
 2757 0070 56       		.byte	0x56
 2758 0071 A8000000 		.4byte	.LVL15
 2759 0075 C0000000 		.4byte	.LFE9
 2760 0079 0200     		.2byte	0x2
 2761 007b 30       		.byte	0x30
 2762 007c 9F       		.byte	0x9f
 2763 007d 00000000 		.4byte	0
 2764 0081 00000000 		.4byte	0
 2765              	.LLST3:
 2766 0085 24000000 		.4byte	.LVL6
 2767 0089 38000000 		.4byte	.LVL7
 2768 008d 0100     		.2byte	0x1
 2769 008f 50       		.byte	0x50
 2770 0090 38000000 		.4byte	.LVL7
 2771 0094 C0000000 		.4byte	.LFE9
 2772 0098 0100     		.2byte	0x1
 2773 009a 55       		.byte	0x55
 2774 009b 00000000 		.4byte	0
 2775 009f 00000000 		.4byte	0
 2776              	.LLST4:
 2777 00a3 3E000000 		.4byte	.LVL8
 2778 00a7 54000000 		.4byte	.LVL9
 2779 00ab 0600     		.2byte	0x6
 2780 00ad 73       		.byte	0x73
 2781 00ae 00       		.sleb128 0
 2782 00af 08       		.byte	0x8
ARM GAS  C:\Users\ADMINI~1\AppData\Local\Temp\cclc6TcK.s 			page 50


 2783 00b0 FF       		.byte	0xff
 2784 00b1 1A       		.byte	0x1a
 2785 00b2 9F       		.byte	0x9f
 2786 00b3 54000000 		.4byte	.LVL9
 2787 00b7 63000000 		.4byte	.LVL10-1
 2788 00bb 0800     		.2byte	0x8
 2789 00bd 91       		.byte	0x91
 2790 00be 43       		.sleb128 -61
 2791 00bf 94       		.byte	0x94
 2792 00c0 01       		.byte	0x1
 2793 00c1 08       		.byte	0x8
 2794 00c2 FF       		.byte	0xff
 2795 00c3 1A       		.byte	0x1a
 2796 00c4 9F       		.byte	0x9f
 2797 00c5 00000000 		.4byte	0
 2798 00c9 00000000 		.4byte	0
 2799              	.LLST5:
 2800 00cd 24000000 		.4byte	.LVL6
 2801 00d1 38000000 		.4byte	.LVL7
 2802 00d5 0200     		.2byte	0x2
 2803 00d7 91       		.byte	0x91
 2804 00d8 40       		.sleb128 -64
 2805 00d9 38000000 		.4byte	.LVL7
 2806 00dd 63000000 		.4byte	.LVL10-1
 2807 00e1 0200     		.2byte	0x2
 2808 00e3 70       		.byte	0x70
 2809 00e4 00       		.sleb128 0
 2810 00e5 00000000 		.4byte	0
 2811 00e9 00000000 		.4byte	0
 2812              		.section	.debug_aranges,"",%progbits
 2813 0000 2C000000 		.4byte	0x2c
 2814 0004 0200     		.2byte	0x2
 2815 0006 00000000 		.4byte	.Ldebug_info0
 2816 000a 04       		.byte	0x4
 2817 000b 00       		.byte	0
 2818 000c 0000     		.2byte	0
 2819 000e 0000     		.2byte	0
 2820 0010 00000000 		.4byte	.LFB8
 2821 0014 1C000000 		.4byte	.LFE8-.LFB8
 2822 0018 00000000 		.4byte	.LFB9
 2823 001c C0000000 		.4byte	.LFE9-.LFB9
 2824 0020 00000000 		.4byte	.LFB7
 2825 0024 78000000 		.4byte	.LFE7-.LFB7
 2826 0028 00000000 		.4byte	0
 2827 002c 00000000 		.4byte	0
 2828              		.section	.debug_ranges,"",%progbits
 2829              	.Ldebug_ranges0:
 2830 0000 10000000 		.4byte	.LBB2
 2831 0004 14000000 		.4byte	.LBE2
 2832 0008 18000000 		.4byte	.LBB7
 2833 000c AE000000 		.4byte	.LBE7
 2834 0010 00000000 		.4byte	0
 2835 0014 00000000 		.4byte	0
 2836 0018 10000000 		.4byte	.LBB3
 2837 001c 14000000 		.4byte	.LBE3
 2838 0020 18000000 		.4byte	.LBB6
 2839 0024 9A000000 		.4byte	.LBE6
ARM GAS  C:\Users\ADMINI~1\AppData\Local\Temp\cclc6TcK.s 			page 51


 2840 0028 00000000 		.4byte	0
 2841 002c 00000000 		.4byte	0
 2842 0030 10000000 		.4byte	.LBB4
 2843 0034 14000000 		.4byte	.LBE4
 2844 0038 2A000000 		.4byte	.LBB5
 2845 003c 92000000 		.4byte	.LBE5
 2846 0040 00000000 		.4byte	0
 2847 0044 00000000 		.4byte	0
 2848 0048 00000000 		.4byte	.LFB8
 2849 004c 1C000000 		.4byte	.LFE8
 2850 0050 00000000 		.4byte	.LFB9
 2851 0054 C0000000 		.4byte	.LFE9
 2852 0058 00000000 		.4byte	.LFB7
 2853 005c 78000000 		.4byte	.LFE7
 2854 0060 00000000 		.4byte	0
 2855 0064 00000000 		.4byte	0
 2856              		.section	.debug_line,"",%progbits
 2857              	.Ldebug_line0:
 2858 0000 AE020000 		.section	.debug_str,"MS",%progbits,1
 2858      02002402 
 2858      00000201 
 2858      FB0E0D00 
 2858      01010101 
 2859              	.LASF111:
 2860 0000 4144435F 		.ascii	"ADC_CTRL_TYPE_DUTY\000"
 2860      4354524C 
 2860      5F545950 
 2860      455F4455 
 2860      545900
 2861              	.LASF132:
 2862 0013 73656E64 		.ascii	"send_can_status\000"
 2862      5F63616E 
 2862      5F737461 
 2862      74757300 
 2863              	.LASF50:
 2864 0023 54687265 		.ascii	"ThreadsList\000"
 2864      6164734C 
 2864      69737400 
 2865              	.LASF42:
 2866 002f 705F7761 		.ascii	"p_waiting\000"
 2866      6974696E 
 2866      6700
 2867              	.LASF112:
 2868 0039 4144435F 		.ascii	"ADC_CTRL_TYPE_DUTY_REV_CENTER\000"
 2868      4354524C 
 2868      5F545950 
 2868      455F4455 
 2868      54595F52 
 2869              	.LASF41:
 2870 0057 705F7469 		.ascii	"p_time\000"
 2870      6D6500
 2871              	.LASF51:
 2872 005e 72656761 		.ascii	"regarm_t\000"
 2872      726D5F74 
 2872      00
 2873              	.LASF32:
 2874 0067 705F7072 		.ascii	"p_prio\000"
ARM GAS  C:\Users\ADMINI~1\AppData\Local\Temp\cclc6TcK.s 			page 52


 2874      696F00
 2875              	.LASF124:
 2876 006e 4348554B 		.ascii	"CHUK_CTRL_TYPE_CURRENT_NOREV\000"
 2876      5F435452 
 2876      4C5F5459 
 2876      50455F43 
 2876      55525245 
 2877              	.LASF28:
 2878 008b 73797374 		.ascii	"systime_t\000"
 2878      696D655F 
 2878      7400
 2879              	.LASF65:
 2880 0095 6D5F6F77 		.ascii	"m_owner\000"
 2880      6E657200 
 2881              	.LASF43:
 2882 009d 705F6D73 		.ascii	"p_msgqueue\000"
 2882      67717565 
 2882      756500
 2883              	.LASF99:
 2884 00a8 73616665 		.ascii	"safe_start\000"
 2884      5F737461 
 2884      727400
 2885              	.LASF13:
 2886 00b3 756E7369 		.ascii	"unsigned int\000"
 2886      676E6564 
 2886      20696E74 
 2886      00
 2887              	.LASF135:
 2888 00c0 6170705F 		.ascii	"app_ppm_conf\000"
 2888      70706D5F 
 2888      636F6E66 
 2888      00
 2889              	.LASF82:
 2890 00cd 4150505F 		.ascii	"APP_CUSTOM\000"
 2890      43555354 
 2890      4F4D00
 2891              	.LASF6:
 2892 00d8 5F5F696E 		.ascii	"__int32_t\000"
 2892      7433325F 
 2892      7400
 2893              	.LASF102:
 2894 00e2 6D756C74 		.ascii	"multi_esc\000"
 2894      695F6573 
 2894      6300
 2895              	.LASF69:
 2896 00ec 77746F62 		.ascii	"wtobjp\000"
 2896      6A7000
 2897              	.LASF169:
 2898 00f3 72666865 		.ascii	"rfhelp_read_rx_data\000"
 2898      6C705F72 
 2898      6561645F 
 2898      72785F64 
 2898      61746100 
 2899              	.LASF86:
 2900 0107 50504D5F 		.ascii	"PPM_CTRL_TYPE_CURRENT_NOREV\000"
 2900      4354524C 
 2900      5F545950 
ARM GAS  C:\Users\ADMINI~1\AppData\Local\Temp\cclc6TcK.s 			page 53


 2900      455F4355 
 2900      5252454E 
 2901              	.LASF70:
 2902 0123 65776D61 		.ascii	"ewmask\000"
 2902      736B00
 2903              	.LASF90:
 2904 012a 50504D5F 		.ascii	"PPM_CTRL_TYPE_PID\000"
 2904      4354524C 
 2904      5F545950 
 2904      455F5049 
 2904      4400
 2905              	.LASF75:
 2906 013c 4150505F 		.ascii	"APP_PPM\000"
 2906      50504D00 
 2907              	.LASF109:
 2908 0144 4144435F 		.ascii	"ADC_CTRL_TYPE_CURRENT_NOREV_BRAKE_CENTER\000"
 2908      4354524C 
 2908      5F545950 
 2908      455F4355 
 2908      5252454E 
 2909              	.LASF163:
 2910 016d 72785F74 		.ascii	"rx_thread_wa\000"
 2910      68726561 
 2910      645F7761 
 2910      00
 2911              	.LASF110:
 2912 017a 4144435F 		.ascii	"ADC_CTRL_TYPE_CURRENT_NOREV_BRAKE_BUTTON\000"
 2912      4354524C 
 2912      5F545950 
 2912      455F4355 
 2912      5252454E 
 2913              	.LASF85:
 2914 01a3 50504D5F 		.ascii	"PPM_CTRL_TYPE_CURRENT\000"
 2914      4354524C 
 2914      5F545950 
 2914      455F4355 
 2914      5252454E 
 2915              	.LASF17:
 2916 01b9 75696E74 		.ascii	"uint32_t\000"
 2916      33325F74 
 2916      00
 2917              	.LASF114:
 2918 01c2 6164635F 		.ascii	"adc_control_type\000"
 2918      636F6E74 
 2918      726F6C5F 
 2918      74797065 
 2918      00
 2919              	.LASF127:
 2920 01d3 72616D70 		.ascii	"ramp_time_neg\000"
 2920      5F74696D 
 2920      655F6E65 
 2920      6700
 2921              	.LASF98:
 2922 01e1 6D656469 		.ascii	"median_filter\000"
 2922      616E5F66 
 2922      696C7465 
 2922      7200
ARM GAS  C:\Users\ADMINI~1\AppData\Local\Temp\cclc6TcK.s 			page 54


 2923              	.LASF27:
 2924 01ef 6576656E 		.ascii	"eventmask_t\000"
 2924      746D6173 
 2924      6B5F7400 
 2925              	.LASF57:
 2926 01fb 725F7072 		.ascii	"r_prio\000"
 2926      696F00
 2927              	.LASF73:
 2928 0202 666C6F61 		.ascii	"float\000"
 2928      7400
 2929              	.LASF83:
 2930 0208 6170705F 		.ascii	"app_use\000"
 2930      75736500 
 2931              	.LASF95:
 2932 0210 68797374 		.ascii	"hyst\000"
 2932      00
 2933              	.LASF25:
 2934 0215 74707269 		.ascii	"tprio_t\000"
 2934      6F5F7400 
 2935              	.LASF159:
 2936 021d 696E6465 		.ascii	"index\000"
 2936      7800
 2937              	.LASF15:
 2938 0223 696E7431 		.ascii	"int16_t\000"
 2938      365F7400 
 2939              	.LASF115:
 2940 022b 766F6C74 		.ascii	"voltage_start\000"
 2940      6167655F 
 2940      73746172 
 2940      7400
 2941              	.LASF12:
 2942 0239 6C6F6E67 		.ascii	"long long unsigned int\000"
 2942      206C6F6E 
 2942      6720756E 
 2942      7369676E 
 2942      65642069 
 2943              	.LASF89:
 2944 0250 50504D5F 		.ascii	"PPM_CTRL_TYPE_DUTY_NOREV\000"
 2944      4354524C 
 2944      5F545950 
 2944      455F4455 
 2944      54595F4E 
 2945              	.LASF153:
 2946 0269 4D4F5445 		.ascii	"MOTE_PACKET\000"
 2946      5F504143 
 2946      4B455400 
 2947              	.LASF116:
 2948 0275 766F6C74 		.ascii	"voltage_end\000"
 2948      6167655F 
 2948      656E6400 
 2949              	.LASF157:
 2950 0281 70697065 		.ascii	"pipe\000"
 2950      00
 2951              	.LASF125:
 2952 0286 6368756B 		.ascii	"chuk_control_type\000"
 2952      5F636F6E 
 2952      74726F6C 
ARM GAS  C:\Users\ADMINI~1\AppData\Local\Temp\cclc6TcK.s 			page 55


 2952      5F747970 
 2952      6500
 2953              	.LASF34:
 2954 0298 705F6E65 		.ascii	"p_newer\000"
 2954      77657200 
 2955              	.LASF177:
 2956 02a0 6E72662F 		.ascii	"nrf/nrf_driver.c\000"
 2956      6E72665F 
 2956      64726976 
 2956      65722E63 
 2956      00
 2957              	.LASF91:
 2958 02b1 50504D5F 		.ascii	"PPM_CTRL_TYPE_PID_NOREV\000"
 2958      4354524C 
 2958      5F545950 
 2958      455F5049 
 2958      445F4E4F 
 2959              	.LASF126:
 2960 02c9 72616D70 		.ascii	"ramp_time_pos\000"
 2960      5F74696D 
 2960      655F706F 
 2960      7300
 2961              	.LASF19:
 2962 02d7 73697A65 		.ascii	"size_t\000"
 2962      5F7400
 2963              	.LASF67:
 2964 02de 7264796D 		.ascii	"rdymsg\000"
 2964      736700
 2965              	.LASF158:
 2966 02e5 63646174 		.ascii	"cdata\000"
 2966      6100
 2967              	.LASF77:
 2968 02eb 4150505F 		.ascii	"APP_UART\000"
 2968      55415254 
 2968      00
 2969              	.LASF20:
 2970 02f4 5F426F6F 		.ascii	"_Bool\000"
 2970      6C00
 2971              	.LASF179:
 2972 02fa 6E72665F 		.ascii	"nrf_driver_init\000"
 2972      64726976 
 2972      65725F69 
 2972      6E697400 
 2973              	.LASF154:
 2974 030a 74785F74 		.ascii	"tx_thread\000"
 2974      68726561 
 2974      6400
 2975              	.LASF130:
 2976 0314 74696D65 		.ascii	"timeout_msec\000"
 2976      6F75745F 
 2976      6D736563 
 2976      00
 2977              	.LASF11:
 2978 0321 5F5F7569 		.ascii	"__uint64_t\000"
 2978      6E743634 
 2978      5F7400
 2979              	.LASF101:
ARM GAS  C:\Users\ADMINI~1\AppData\Local\Temp\cclc6TcK.s 			page 56


 2980 032c 72706D5F 		.ascii	"rpm_lim_end\000"
 2980      6C696D5F 
 2980      656E6400 
 2981              	.LASF63:
 2982 0338 4D757465 		.ascii	"Mutex\000"
 2982      7800
 2983              	.LASF134:
 2984 033e 6170705F 		.ascii	"app_to_use\000"
 2984      746F5F75 
 2984      736500
 2985              	.LASF36:
 2986 0349 705F6E61 		.ascii	"p_name\000"
 2986      6D6500
 2987              	.LASF84:
 2988 0350 50504D5F 		.ascii	"PPM_CTRL_TYPE_NONE\000"
 2988      4354524C 
 2988      5F545950 
 2988      455F4E4F 
 2988      4E4500
 2989              	.LASF139:
 2990 0363 6170705F 		.ascii	"app_configuration\000"
 2990      636F6E66 
 2990      69677572 
 2990      6174696F 
 2990      6E00
 2991              	.LASF49:
 2992 0375 54687265 		.ascii	"ThreadsQueue\000"
 2992      61647351 
 2992      75657565 
 2992      00
 2993              	.LASF94:
 2994 0382 7069645F 		.ascii	"pid_max_erpm\000"
 2994      6D61785F 
 2994      6572706D 
 2994      00
 2995              	.LASF71:
 2996 038f 63686172 		.ascii	"char\000"
 2996      00
 2997              	.LASF76:
 2998 0394 4150505F 		.ascii	"APP_ADC\000"
 2998      41444300 
 2999              	.LASF59:
 3000 039c 725F6E65 		.ascii	"r_newer\000"
 3000      77657200 
 3001              	.LASF29:
 3002 03a4 54687265 		.ascii	"Thread\000"
 3002      616400
 3003              	.LASF22:
 3004 03ab 74737461 		.ascii	"tstate_t\000"
 3004      74655F74 
 3004      00
 3005              	.LASF87:
 3006 03b4 50504D5F 		.ascii	"PPM_CTRL_TYPE_CURRENT_NOREV_BRAKE\000"
 3006      4354524C 
 3006      5F545950 
 3006      455F4355 
 3006      5252454E 
ARM GAS  C:\Users\ADMINI~1\AppData\Local\Temp\cclc6TcK.s 			page 57


 3007              	.LASF118:
 3008 03d6 62757474 		.ascii	"button_inverted\000"
 3008      6F6E5F69 
 3008      6E766572 
 3008      74656400 
 3009              	.LASF35:
 3010 03e6 705F6F6C 		.ascii	"p_older\000"
 3010      64657200 
 3011              	.LASF37:
 3012 03ee 705F7374 		.ascii	"p_state\000"
 3012      61746500 
 3013              	.LASF14:
 3014 03f6 75696E74 		.ascii	"uint8_t\000"
 3014      385F7400 
 3015              	.LASF122:
 3016 03fe 4348554B 		.ascii	"CHUK_CTRL_TYPE_NONE\000"
 3016      5F435452 
 3016      4C5F5459 
 3016      50455F4E 
 3016      4F4E4500 
 3017              	.LASF48:
 3018 0412 705F6D70 		.ascii	"p_mpool\000"
 3018      6F6F6C00 
 3019              	.LASF46:
 3020 041a 705F6D74 		.ascii	"p_mtxlist\000"
 3020      786C6973 
 3020      7400
 3021              	.LASF146:
 3022 0424 62745F7A 		.ascii	"bt_z\000"
 3022      00
 3023              	.LASF88:
 3024 0429 50504D5F 		.ascii	"PPM_CTRL_TYPE_DUTY\000"
 3024      4354524C 
 3024      5F545950 
 3024      455F4455 
 3024      545900
 3025              	.LASF129:
 3026 043c 636F6E74 		.ascii	"controller_id\000"
 3026      726F6C6C 
 3026      65725F69 
 3026      6400
 3027              	.LASF133:
 3028 044a 73656E64 		.ascii	"send_can_status_rate_hz\000"
 3028      5F63616E 
 3028      5F737461 
 3028      7475735F 
 3028      72617465 
 3029              	.LASF81:
 3030 0462 4150505F 		.ascii	"APP_NRF\000"
 3030      4E524600 
 3031              	.LASF10:
 3032 046a 6C6F6E67 		.ascii	"long long int\000"
 3032      206C6F6E 
 3032      6720696E 
 3032      7400
 3033              	.LASF97:
 3034 0478 70756C73 		.ascii	"pulse_end\000"
ARM GAS  C:\Users\ADMINI~1\AppData\Local\Temp\cclc6TcK.s 			page 58


 3034      655F656E 
 3034      6400
 3035              	.LASF108:
 3036 0482 4144435F 		.ascii	"ADC_CTRL_TYPE_CURRENT_REV_BUTTON\000"
 3036      4354524C 
 3036      5F545950 
 3036      455F4355 
 3036      5252454E 
 3037              	.LASF56:
 3038 04a3 725F7175 		.ascii	"r_queue\000"
 3038      65756500 
 3039              	.LASF123:
 3040 04ab 4348554B 		.ascii	"CHUK_CTRL_TYPE_CURRENT\000"
 3040      5F435452 
 3040      4C5F5459 
 3040      50455F43 
 3040      55525245 
 3041              	.LASF26:
 3042 04c2 6D73675F 		.ascii	"msg_t\000"
 3042      7400
 3043              	.LASF54:
 3044 04c8 636F6E74 		.ascii	"context\000"
 3044      65787400 
 3045              	.LASF152:
 3046 04d0 4D4F5445 		.ascii	"MOTE_PACKET_BUTTONS\000"
 3046      5F504143 
 3046      4B45545F 
 3046      42555454 
 3046      4F4E5300 
 3047              	.LASF176:
 3048 04e4 474E5520 		.ascii	"GNU C 4.9.3 20150529 (release) [ARM/embedded-4_9-br"
 3048      4320342E 
 3048      392E3320 
 3048      32303135 
 3048      30353239 
 3049 0517 616E6368 		.ascii	"anch revision 224288] -mcpu=cortex-m4 -mfloat-abi=h"
 3049      20726576 
 3049      6973696F 
 3049      6E203232 
 3049      34323838 
 3050 054a 61726420 		.ascii	"ard -mfpu=fpv4-sp-d16 -mno-thumb-interwork -mthumb "
 3050      2D6D6670 
 3050      753D6670 
 3050      76342D73 
 3050      702D6431 
 3051 057d 2D676764 		.ascii	"-ggdb -O2 -std=gnu99 -fomit-frame-pointer -falign-f"
 3051      62202D4F 
 3051      32202D73 
 3051      74643D67 
 3051      6E753939 
 3052 05b0 756E6374 		.ascii	"unctions=16 -ffunction-sections -fdata-sections -fn"
 3052      696F6E73 
 3052      3D313620 
 3052      2D666675 
 3052      6E637469 
 3053 05e3 6F2D636F 		.ascii	"o-common -fsingle-precision-constant\000"
 3053      6D6D6F6E 
ARM GAS  C:\Users\ADMINI~1\AppData\Local\Temp\cclc6TcK.s 			page 59


 3053      202D6673 
 3053      696E676C 
 3053      652D7072 
 3054              	.LASF38:
 3055 0608 705F666C 		.ascii	"p_flags\000"
 3055      61677300 
 3056              	.LASF3:
 3057 0610 5F5F696E 		.ascii	"__int16_t\000"
 3057      7431365F 
 3057      7400
 3058              	.LASF165:
 3059 061a 6D737461 		.ascii	"mstate\000"
 3059      746500
 3060              	.LASF174:
 3061 0621 72666865 		.ascii	"rfhelp_set_tx_addr\000"
 3061      6C705F73 
 3061      65745F74 
 3061      785F6164 
 3061      647200
 3062              	.LASF107:
 3063 0634 4144435F 		.ascii	"ADC_CTRL_TYPE_CURRENT_REV_CENTER\000"
 3063      4354524C 
 3063      5F545950 
 3063      455F4355 
 3063      5252454E 
 3064              	.LASF120:
 3065 0655 75706461 		.ascii	"update_rate_hz\000"
 3065      74655F72 
 3065      6174655F 
 3065      687A00
 3066              	.LASF155:
 3067 0664 72785F74 		.ascii	"rx_thread\000"
 3067      68726561 
 3067      6400
 3068              	.LASF74:
 3069 066e 4150505F 		.ascii	"APP_NONE\000"
 3069      4E4F4E45 
 3069      00
 3070              	.LASF24:
 3071 0677 74736C69 		.ascii	"tslices_t\000"
 3071      6365735F 
 3071      7400
 3072              	.LASF60:
 3073 0681 725F6F6C 		.ascii	"r_older\000"
 3073      64657200 
 3074              	.LASF104:
 3075 0689 70706D5F 		.ascii	"ppm_config\000"
 3075      636F6E66 
 3075      696700
 3076              	.LASF175:
 3077 0694 63685468 		.ascii	"chThdCreateStatic\000"
 3077      64437265 
 3077      61746553 
 3077      74617469 
 3077      6300
 3078              	.LASF44:
 3079 06a6 705F6D73 		.ascii	"p_msg\000"
ARM GAS  C:\Users\ADMINI~1\AppData\Local\Temp\cclc6TcK.s 			page 60


 3079      6700
 3080              	.LASF21:
 3081 06ac 746D6F64 		.ascii	"tmode_t\000"
 3081      655F7400 
 3082              	.LASF170:
 3083 06b4 72666865 		.ascii	"rfhelp_restart\000"
 3083      6C705F72 
 3083      65737461 
 3083      727400
 3084              	.LASF138:
 3085 06c3 6170705F 		.ascii	"app_chuk_conf\000"
 3085      6368756B 
 3085      5F636F6E 
 3085      6600
 3086              	.LASF113:
 3087 06d1 4144435F 		.ascii	"ADC_CTRL_TYPE_DUTY_REV_BUTTON\000"
 3087      4354524C 
 3087      5F545950 
 3087      455F4455 
 3087      54595F52 
 3088              	.LASF119:
 3089 06ef 766F6C74 		.ascii	"voltage_inverted\000"
 3089      6167655F 
 3089      696E7665 
 3089      72746564 
 3089      00
 3090              	.LASF145:
 3091 0700 62745F63 		.ascii	"bt_c\000"
 3091      00
 3092              	.LASF53:
 3093 0705 696E7463 		.ascii	"intctx\000"
 3093      747800
 3094              	.LASF47:
 3095 070c 705F7265 		.ascii	"p_realprio\000"
 3095      616C7072 
 3095      696F00
 3096              	.LASF96:
 3097 0717 70756C73 		.ascii	"pulse_start\000"
 3097      655F7374 
 3097      61727400 
 3098              	.LASF79:
 3099 0723 4150505F 		.ascii	"APP_ADC_UART\000"
 3099      4144435F 
 3099      55415254 
 3099      00
 3100              	.LASF4:
 3101 0730 73686F72 		.ascii	"short int\000"
 3101      7420696E 
 3101      7400
 3102              	.LASF61:
 3103 073a 725F6375 		.ascii	"r_current\000"
 3103      7272656E 
 3103      7400
 3104              	.LASF45:
 3105 0744 705F6570 		.ascii	"p_epending\000"
 3105      656E6469 
 3105      6E6700
ARM GAS  C:\Users\ADMINI~1\AppData\Local\Temp\cclc6TcK.s 			page 61


 3106              	.LASF64:
 3107 074f 6D5F7175 		.ascii	"m_queue\000"
 3107      65756500 
 3108              	.LASF7:
 3109 0757 6C6F6E67 		.ascii	"long int\000"
 3109      20696E74 
 3109      00
 3110              	.LASF140:
 3111 0760 6A735F78 		.ascii	"js_x\000"
 3111      00
 3112              	.LASF141:
 3113 0765 6A735F79 		.ascii	"js_y\000"
 3113      00
 3114              	.LASF106:
 3115 076a 4144435F 		.ascii	"ADC_CTRL_TYPE_CURRENT\000"
 3115      4354524C 
 3115      5F545950 
 3115      455F4355 
 3115      5252454E 
 3116              	.LASF80:
 3117 0780 4150505F 		.ascii	"APP_NUNCHUK\000"
 3117      4E554E43 
 3117      48554B00 
 3118              	.LASF156:
 3119 078c 72657365 		.ascii	"reset_cnt\000"
 3119      745F636E 
 3119      7400
 3120              	.LASF30:
 3121 0796 705F6E65 		.ascii	"p_next\000"
 3121      787400
 3122              	.LASF18:
 3123 079d 75696E74 		.ascii	"uint64_t\000"
 3123      36345F74 
 3123      00
 3124              	.LASF33:
 3125 07a6 705F6374 		.ascii	"p_ctx\000"
 3125      7800
 3126              	.LASF180:
 3127 07ac 726C6973 		.ascii	"rlist\000"
 3127      7400
 3128              	.LASF2:
 3129 07b2 5F5F7569 		.ascii	"__uint8_t\000"
 3129      6E74385F 
 3129      7400
 3130              	.LASF31:
 3131 07bc 705F7072 		.ascii	"p_prev\000"
 3131      657600
 3132              	.LASF55:
 3133 07c3 73697A65 		.ascii	"sizetype\000"
 3133      74797065 
 3133      00
 3134              	.LASF23:
 3135 07cc 74726566 		.ascii	"trefs_t\000"
 3135      735F7400 
 3136              	.LASF9:
 3137 07d4 6C6F6E67 		.ascii	"long unsigned int\000"
 3137      20756E73 
ARM GAS  C:\Users\ADMINI~1\AppData\Local\Temp\cclc6TcK.s 			page 62


 3137      69676E65 
 3137      6420696E 
 3137      7400
 3138              	.LASF160:
 3139 07e6 62757474 		.ascii	"buttons\000"
 3139      6F6E7300 
 3140              	.LASF93:
 3141 07ee 6374726C 		.ascii	"ctrl_type\000"
 3141      5F747970 
 3141      6500
 3142              	.LASF16:
 3143 07f8 696E7433 		.ascii	"int32_t\000"
 3143      325F7400 
 3144              	.LASF161:
 3145 0800 7061636B 		.ascii	"packet\000"
 3145      657400
 3146              	.LASF164:
 3147 0807 74785F74 		.ascii	"tx_thread_wa\000"
 3147      68726561 
 3147      645F7761 
 3147      00
 3148              	.LASF147:
 3149 0814 63687563 		.ascii	"chuck_data\000"
 3149      6B5F6461 
 3149      746100
 3150              	.LASF1:
 3151 081f 756E7369 		.ascii	"unsigned char\000"
 3151      676E6564 
 3151      20636861 
 3151      7200
 3152              	.LASF137:
 3153 082d 6170705F 		.ascii	"app_uart_baudrate\000"
 3153      75617274 
 3153      5F626175 
 3153      64726174 
 3153      6500
 3154              	.LASF103:
 3155 083f 74635F6D 		.ascii	"tc_max_diff\000"
 3155      61785F64 
 3155      69666600 
 3156              	.LASF8:
 3157 084b 5F5F7569 		.ascii	"__uint32_t\000"
 3157      6E743332 
 3157      5F7400
 3158              	.LASF39:
 3159 0856 705F7265 		.ascii	"p_refs\000"
 3159      667300
 3160              	.LASF62:
 3161 085d 52656164 		.ascii	"ReadyList\000"
 3161      794C6973 
 3161      7400
 3162              	.LASF117:
 3163 0867 7573655F 		.ascii	"use_filter\000"
 3163      66696C74 
 3163      657200
 3164              	.LASF166:
 3165 0872 63685468 		.ascii	"chThdSleep\000"
ARM GAS  C:\Users\ADMINI~1\AppData\Local\Temp\cclc6TcK.s 			page 63


 3165      64536C65 
 3165      657000
 3166              	.LASF128:
 3167 087d 6368756B 		.ascii	"chuk_config\000"
 3167      5F636F6E 
 3167      66696700 
 3168              	.LASF40:
 3169 0889 705F7072 		.ascii	"p_preempt\000"
 3169      65656D70 
 3169      7400
 3170              	.LASF168:
 3171 0893 62756666 		.ascii	"buffer_get_int16\000"
 3171      65725F67 
 3171      65745F69 
 3171      6E743136 
 3171      00
 3172              	.LASF162:
 3173 08a4 61646472 		.ascii	"addr\000"
 3173      00
 3174              	.LASF172:
 3175 08a9 72666865 		.ascii	"rfhelp_init\000"
 3175      6C705F69 
 3175      6E697400 
 3176              	.LASF173:
 3177 08b5 72666865 		.ascii	"rfhelp_set_rx_addr\000"
 3177      6C705F73 
 3177      65745F72 
 3177      785F6164 
 3177      647200
 3178              	.LASF100:
 3179 08c8 72706D5F 		.ascii	"rpm_lim_start\000"
 3179      6C696D5F 
 3179      73746172 
 3179      7400
 3180              	.LASF142:
 3181 08d6 6163635F 		.ascii	"acc_x\000"
 3181      7800
 3182              	.LASF143:
 3183 08dc 6163635F 		.ascii	"acc_y\000"
 3183      7900
 3184              	.LASF144:
 3185 08e2 6163635F 		.ascii	"acc_z\000"
 3185      7A00
 3186              	.LASF150:
 3187 08e8 6D6F7465 		.ascii	"mote_state\000"
 3187      5F737461 
 3187      746500
 3188              	.LASF149:
 3189 08f3 76626174 		.ascii	"vbat\000"
 3189      00
 3190              	.LASF131:
 3191 08f8 74696D65 		.ascii	"timeout_brake_current\000"
 3191      6F75745F 
 3191      6272616B 
 3191      655F6375 
 3191      7272656E 
 3192              	.LASF178:
ARM GAS  C:\Users\ADMINI~1\AppData\Local\Temp\cclc6TcK.s 			page 64


 3193 090e 563A5C6F 		.ascii	"V:\\oroca_bldc_dev\000"
 3193      726F6361 
 3193      5F626C64 
 3193      635F6465 
 3193      7600
 3194              	.LASF66:
 3195 0920 6D5F6E65 		.ascii	"m_next\000"
 3195      787400
 3196              	.LASF0:
 3197 0927 7369676E 		.ascii	"signed char\000"
 3197      65642063 
 3197      68617200 
 3198              	.LASF171:
 3199 0933 72665F69 		.ascii	"rf_init\000"
 3199      6E697400 
 3200              	.LASF5:
 3201 093b 73686F72 		.ascii	"short unsigned int\000"
 3201      7420756E 
 3201      7369676E 
 3201      65642069 
 3201      6E7400
 3202              	.LASF58:
 3203 094e 725F6374 		.ascii	"r_ctx\000"
 3203      7800
 3204              	.LASF167:
 3205 0954 6170705F 		.ascii	"app_nunchuk_update_output\000"
 3205      6E756E63 
 3205      68756B5F 
 3205      75706461 
 3205      74655F6F 
 3206              	.LASF52:
 3207 096e 73746B61 		.ascii	"stkalign_t\000"
 3207      6C69676E 
 3207      5F7400
 3208              	.LASF78:
 3209 0979 4150505F 		.ascii	"APP_PPM_UART\000"
 3209      50504D5F 
 3209      55415254 
 3209      00
 3210              	.LASF136:
 3211 0986 6170705F 		.ascii	"app_adc_conf\000"
 3211      6164635F 
 3211      636F6E66 
 3211      00
 3212              	.LASF148:
 3213 0993 62745F70 		.ascii	"bt_push\000"
 3213      75736800 
 3214              	.LASF181:
 3215 099b 6170705F 		.ascii	"app_get_configuration\000"
 3215      6765745F 
 3215      636F6E66 
 3215      69677572 
 3215      6174696F 
 3216              	.LASF151:
 3217 09b1 4D4F5445 		.ascii	"MOTE_PACKET_BATT_LEVEL\000"
 3217      5F504143 
 3217      4B45545F 
ARM GAS  C:\Users\ADMINI~1\AppData\Local\Temp\cclc6TcK.s 			page 65


 3217      42415454 
 3217      5F4C4556 
 3218              	.LASF72:
 3219 09c8 7466756E 		.ascii	"tfunc_t\000"
 3219      635F7400 
 3220              	.LASF92:
 3221 09d0 70706D5F 		.ascii	"ppm_control_type\000"
 3221      636F6E74 
 3221      726F6C5F 
 3221      74797065 
 3221      00
 3222              	.LASF105:
 3223 09e1 4144435F 		.ascii	"ADC_CTRL_TYPE_NONE\000"
 3223      4354524C 
 3223      5F545950 
 3223      455F4E4F 
 3223      4E4500
 3224              	.LASF68:
 3225 09f4 65786974 		.ascii	"exitcode\000"
 3225      636F6465 
 3225      00
 3226              	.LASF121:
 3227 09fd 6164635F 		.ascii	"adc_config\000"
 3227      636F6E66 
 3227      696700
 3228              		.ident	"GCC: (GNU Tools for ARM Embedded Processors) 4.9.3 20150529 (release) [ARM/embedded-4_9-br
ARM GAS  C:\Users\ADMINI~1\AppData\Local\Temp\cclc6TcK.s 			page 66


DEFINED SYMBOLS
                            *ABS*:00000000 nrf_driver.c
C:\Users\ADMINI~1\AppData\Local\Temp\cclc6TcK.s:21     .text.tx_thread:00000000 $t
C:\Users\ADMINI~1\AppData\Local\Temp\cclc6TcK.s:26     .text.tx_thread:00000000 tx_thread
C:\Users\ADMINI~1\AppData\Local\Temp\cclc6TcK.s:55     .text.tx_thread:00000014 $d
C:\Users\ADMINI~1\AppData\Local\Temp\cclc6TcK.s:61     .text.rx_thread:00000000 $t
C:\Users\ADMINI~1\AppData\Local\Temp\cclc6TcK.s:66     .text.rx_thread:00000000 rx_thread
C:\Users\ADMINI~1\AppData\Local\Temp\cclc6TcK.s:228    .text.rx_thread:000000b0 $d
C:\Users\ADMINI~1\AppData\Local\Temp\cclc6TcK.s:236    .text.nrf_driver_init:00000000 $t
C:\Users\ADMINI~1\AppData\Local\Temp\cclc6TcK.s:242    .text.nrf_driver_init:00000000 nrf_driver_init
C:\Users\ADMINI~1\AppData\Local\Temp\cclc6TcK.s:312    .text.nrf_driver_init:00000068 $d
C:\Users\ADMINI~1\AppData\Local\Temp\cclc6TcK.s:320    .rodata.str1.4:00000000 $d
C:\Users\ADMINI~1\AppData\Local\Temp\cclc6TcK.s:327    .bss.rx_thread_wa:00000000 $d
C:\Users\ADMINI~1\AppData\Local\Temp\cclc6TcK.s:331    .bss.rx_thread_wa:00000000 rx_thread_wa
C:\Users\ADMINI~1\AppData\Local\Temp\cclc6TcK.s:334    .bss.mstate:00000000 $d
C:\Users\ADMINI~1\AppData\Local\Temp\cclc6TcK.s:338    .bss.mstate:00000000 mstate
C:\Users\ADMINI~1\AppData\Local\Temp\cclc6TcK.s:341    .bss.tx_thread_wa:00000000 $d
C:\Users\ADMINI~1\AppData\Local\Temp\cclc6TcK.s:345    .bss.tx_thread_wa:00000000 tx_thread_wa
                     .debug_frame:00000010 $d

UNDEFINED SYMBOLS
chThdSleep
rlist
rfhelp_read_rx_data
buffer_get_int16
app_nunchuk_update_output
rfhelp_restart
rf_init
rfhelp_init
app_get_configuration
rfhelp_set_rx_addr
rfhelp_set_tx_addr
chThdCreateStatic
