ARM GAS  C:\Users\ADMINI~1\AppData\Local\Temp\cclc6TcK.s 			page 1


   1              		.syntax unified
   2              		.cpu cortex-m4
   3              		.eabi_attribute 27, 1
   4              		.eabi_attribute 28, 1
   5              		.fpu fpv4-sp-d16
   6              		.eabi_attribute 20, 1
   7              		.eabi_attribute 21, 1
   8              		.eabi_attribute 23, 3
   9              		.eabi_attribute 24, 1
  10              		.eabi_attribute 25, 1
  11              		.eabi_attribute 26, 1
  12              		.eabi_attribute 30, 2
  13              		.eabi_attribute 34, 1
  14              		.eabi_attribute 18, 4
  15              		.thumb
  16              		.file	"nrf_driver.c"
  17              		.text
  18              	.Ltext0:
  19              		.cfi_sections	.debug_frame
  20              		.section	.text.tx_thread,"ax",%progbits
  21              		.align	2
  22              		.p2align 4,,15
  23              		.thumb
  24              		.thumb_func
  25              		.type	tx_thread, %function
  26              	tx_thread:
  27              	.LFB8:
  28              		.file 1 "nrf/nrf_driver.c"
  29              		.loc 1 55 0
  30              		.cfi_startproc
  31              		@ Volatile: function does not return.
  32              		@ args = 0, pretend = 0, frame = 0
  33              		@ frame_needed = 0, uses_anonymous_args = 0
  34              	.LVL0:
  35 0000 08B5     		push	{r3, lr}
  36              		.cfi_def_cfa_offset 8
  37              		.cfi_offset 3, -8
  38              		.cfi_offset 14, -4
  39              		.loc 1 58 0
  40 0002 044B     		ldr	r3, .L5
  41 0004 044A     		ldr	r2, .L5+4
  42 0006 9B69     		ldr	r3, [r3, #24]
  43 0008 9A61     		str	r2, [r3, #24]
  44              	.LVL1:
  45              	.L2:
  46              		.loc 1 63 0 discriminator 1
  47 000a 41F28830 		movw	r0, #5000
  48 000e FFF7FEFF 		bl	chThdSleep
  49              	.LVL2:
  50              		.loc 1 64 0 discriminator 1
  51 0012 FAE7     		b	.L2
  52              	.L6:
  53              		.align	2
  54              	.L5:
  55 0014 00000000 		.word	rlist
  56 0018 00000000 		.word	.LC0
  57              		.cfi_endproc
ARM GAS  C:\Users\ADMINI~1\AppData\Local\Temp\cclc6TcK.s 			page 2


  58              	.LFE8:
  59              		.size	tx_thread, .-tx_thread
  60              		.section	.text.rx_thread,"ax",%progbits
  61              		.align	2
  62              		.p2align 4,,15
  63              		.thumb
  64              		.thumb_func
  65              		.type	rx_thread, %function
  66              	rx_thread:
  67              	.LFB9:
  68              		.loc 1 69 0
  69              		.cfi_startproc
  70              		@ args = 0, pretend = 0, frame = 72
  71              		@ frame_needed = 0, uses_anonymous_args = 0
  72              	.LVL3:
  73 0000 F0B5     		push	{r4, r5, r6, r7, lr}
  74              		.cfi_def_cfa_offset 20
  75              		.cfi_offset 4, -20
  76              		.cfi_offset 5, -16
  77              		.cfi_offset 6, -12
  78              		.cfi_offset 7, -8
  79              		.cfi_offset 14, -4
  80              		.loc 1 72 0
  81 0002 2B4B     		ldr	r3, .L18
  82 0004 2B4A     		ldr	r2, .L18+4
  83 0006 9B69     		ldr	r3, [r3, #24]
  84 0008 2B4C     		ldr	r4, .L18+8
  85              		.loc 1 69 0
  86 000a 2DED028B 		fstmfdd	sp!, {d8}
  87              		.cfi_def_cfa_offset 28
  88              		.cfi_offset 80, -28
  89              		.cfi_offset 81, -24
  90              		.loc 1 74 0
  91 000e 0026     		movs	r6, #0
  92              	.LBB2:
  93              	.LBB3:
  94              	.LBB4:
  95              		.loc 1 104 0
  96 0010 9FED2A8A 		flds	s16, .L18+12
  97              	.LBE4:
  98              	.LBE3:
  99              	.LBE2:
 100              		.loc 1 72 0
 101 0014 9A61     		str	r2, [r3, #24]
 102              	.LVL4:
 103              		.loc 1 69 0
 104 0016 93B0     		sub	sp, sp, #76
 105              		.cfi_def_cfa_offset 104
 106              	.LBB7:
 107              	.LBB6:
 108              		.loc 1 84 0
 109 0018 3746     		mov	r7, r6
 110              	.LVL5:
 111              	.L8:
 112              		.loc 1 82 0
 113 001a 0AA8     		add	r0, sp, #40
 114 001c 01A9     		add	r1, sp, #4
ARM GAS  C:\Users\ADMINI~1\AppData\Local\Temp\cclc6TcK.s 			page 3


 115 001e 02AA     		add	r2, sp, #8
 116 0020 FFF7FEFF 		bl	rfhelp_read_rx_data
 117              	.LVL6:
 118              		.loc 1 88 0
 119 0024 051E     		subs	r5, r0, #0
 120              		.loc 1 84 0
 121 0026 0397     		str	r7, [sp, #12]
 122              		.loc 1 88 0
 123 0028 38DB     		blt	.L9
 124              	.LBB5:
 125              		.loc 1 91 0
 126 002a 9DF82830 		ldrb	r3, [sp, #40]	@ zero_extendqisi2
 127 002e 012B     		cmp	r3, #1
 128              		.loc 1 104 0
 129 0030 03A9     		add	r1, sp, #12
 130              		.loc 1 100 0
 131 0032 4FF00402 		mov	r2, #4
 132              		.loc 1 104 0
 133 0036 0AA8     		add	r0, sp, #40
 134              	.LVL7:
 135              		.loc 1 91 0
 136 0038 2BD1     		bne	.L10
 137              		.loc 1 100 0
 138 003a 9DF82B30 		ldrb	r3, [sp, #43]	@ zero_extendqisi2
 139              	.LVL8:
 140 003e 0392     		str	r2, [sp, #12]
 141              		.loc 1 101 0
 142 0040 03F00102 		and	r2, r3, #1
 143 0044 A270     		strb	r2, [r4, #2]
 144              		.loc 1 102 0
 145 0046 C3F34002 		ubfx	r2, r3, #1, #1
 146              		.loc 1 98 0
 147 004a 9DF829E0 		ldrb	lr, [sp, #41]	@ zero_extendqisi2
 148              		.loc 1 102 0
 149 004e E270     		strb	r2, [r4, #3]
 150              		.loc 1 103 0
 151 0050 C3F38003 		ubfx	r3, r3, #2, #1
 152              	.LVL9:
 153              		.loc 1 99 0
 154 0054 9DF82A20 		ldrb	r2, [sp, #42]	@ zero_extendqisi2
 155              		.loc 1 103 0
 156 0058 2371     		strb	r3, [r4, #4]
 157              		.loc 1 99 0
 158 005a 6270     		strb	r2, [r4, #1]
 159              		.loc 1 98 0
 160 005c 84F800E0 		strb	lr, [r4]
 161              		.loc 1 104 0
 162 0060 FFF7FEFF 		bl	buffer_get_int16
 163              	.LVL10:
 164 0064 07EE900A 		fmsr	s15, r0	@ int
 165 0068 F8EEE77A 		fsitos	s15, s15
 166              		.loc 1 106 0
 167 006c 2378     		ldrb	r3, [r4]	@ zero_extendqisi2
 168              		.loc 1 107 0
 169 006e 6078     		ldrb	r0, [r4, #1]	@ zero_extendqisi2
 170              		.loc 1 108 0
 171 0070 A178     		ldrb	r1, [r4, #2]	@ zero_extendqisi2
ARM GAS  C:\Users\ADMINI~1\AppData\Local\Temp\cclc6TcK.s 			page 4


 172              		.loc 1 109 0
 173 0072 E278     		ldrb	r2, [r4, #3]	@ zero_extendqisi2
 174              		.loc 1 107 0
 175 0074 0590     		str	r0, [sp, #20]
 176              		.loc 1 104 0
 177 0076 C7EE887A 		fdivs	s15, s15, s16
 178              		.loc 1 106 0
 179 007a C3F1FF03 		rsb	r3, r3, #255
 180              		.loc 1 111 0
 181 007e 04A8     		add	r0, sp, #16
 182              		.loc 1 106 0
 183 0080 0493     		str	r3, [sp, #16]
 184              		.loc 1 108 0
 185 0082 8DF82410 		strb	r1, [sp, #36]
 186              		.loc 1 109 0
 187 0086 8DF82520 		strb	r2, [sp, #37]
 188              		.loc 1 104 0
 189 008a C4ED027A 		fsts	s15, [r4, #8]
 190              		.loc 1 111 0
 191 008e FFF7FEFF 		bl	app_nunchuk_update_output
 192              	.LVL11:
 193              	.L10:
 194              	.LBE5:
 195              		.loc 1 124 0
 196 0092 3220     		movs	r0, #50
 197              		.loc 1 120 0
 198 0094 15B1     		cbz	r5, .L9
 199              		.loc 1 124 0
 200 0096 FFF7FEFF 		bl	chThdSleep
 201              	.LVL12:
 202              	.LBE6:
 203              		.loc 1 126 0
 204 009a BEE7     		b	.L8
 205              	.L9:
 206              		.loc 1 131 0
 207 009c 0136     		adds	r6, r6, #1
 208              	.LVL13:
 209              		.loc 1 128 0
 210 009e 3220     		movs	r0, #50
 211 00a0 FFF7FEFF 		bl	chThdSleep
 212              	.LVL14:
 213              		.loc 1 132 0
 214 00a4 142E     		cmp	r6, #20
 215 00a6 B8DD     		ble	.L8
 216              	.LVL15:
 217              		.loc 1 134 0
 218 00a8 FFF7FEFF 		bl	rfhelp_restart
 219              	.LVL16:
 220              		.loc 1 133 0
 221 00ac 0026     		movs	r6, #0
 222              	.LBE7:
 223              		.loc 1 136 0
 224 00ae B4E7     		b	.L8
 225              	.L19:
 226              		.align	2
 227              	.L18:
 228 00b0 00000000 		.word	rlist
ARM GAS  C:\Users\ADMINI~1\AppData\Local\Temp\cclc6TcK.s 			page 5


 229 00b4 08000000 		.word	.LC1
 230 00b8 00000000 		.word	.LANCHOR0
 231 00bc 00007A44 		.word	1148846080
 232              		.cfi_endproc
 233              	.LFE9:
 234              		.size	rx_thread, .-rx_thread
 235              		.section	.text.nrf_driver_init,"ax",%progbits
 236              		.align	2
 237              		.p2align 4,,15
 238              		.global	nrf_driver_init
 239              		.thumb
 240              		.thumb_func
 241              		.type	nrf_driver_init, %function
 242              	nrf_driver_init:
 243              	.LFB7:
 244              		.loc 1 42 0
 245              		.cfi_startproc
 246              		@ args = 0, pretend = 0, frame = 8
 247              		@ frame_needed = 0, uses_anonymous_args = 0
 248 0000 10B5     		push	{r4, lr}
 249              		.cfi_def_cfa_offset 8
 250              		.cfi_offset 4, -8
 251              		.cfi_offset 14, -4
 252 0002 84B0     		sub	sp, sp, #16
 253              		.cfi_def_cfa_offset 24
 254              		.loc 1 43 0
 255 0004 FFF7FEFF 		bl	rf_init
 256              	.LVL17:
 257              		.loc 1 44 0
 258 0008 FFF7FEFF 		bl	rfhelp_init
 259              	.LVL18:
 260              		.loc 1 47 0
 261 000c C521     		movs	r1, #197
 262 000e C622     		movs	r2, #198
 263 0010 C723     		movs	r3, #199
 264 0012 C420     		movs	r0, #196
 265 0014 8DF80910 		strb	r1, [sp, #9]
 266 0018 8DF80A20 		strb	r2, [sp, #10]
 267 001c 8DF80B30 		strb	r3, [sp, #11]
 268 0020 8DF80800 		strb	r0, [sp, #8]
 269 0024 FFF7FEFF 		bl	app_get_configuration
 270              	.LVL19:
 271              		.loc 1 48 0
 272 0028 02A9     		add	r1, sp, #8
 273              		.loc 1 47 0
 274 002a 0378     		ldrb	r3, [r0]	@ zero_extendqisi2
 275 002c 8DF80C30 		strb	r3, [sp, #12]
 276              		.loc 1 48 0
 277 0030 0522     		movs	r2, #5
 278 0032 0020     		movs	r0, #0
 279 0034 FFF7FEFF 		bl	rfhelp_set_rx_addr
 280              	.LVL20:
 281              		.loc 1 51 0
 282 0038 0024     		movs	r4, #0
 283              		.loc 1 49 0
 284 003a 02A8     		add	r0, sp, #8
 285 003c 0521     		movs	r1, #5
ARM GAS  C:\Users\ADMINI~1\AppData\Local\Temp\cclc6TcK.s 			page 6


 286 003e FFF7FEFF 		bl	rfhelp_set_tx_addr
 287              	.LVL21:
 288              		.loc 1 51 0
 289 0042 0094     		str	r4, [sp]
 290 0044 084B     		ldr	r3, .L22
 291 0046 0948     		ldr	r0, .L22+4
 292 0048 4FF4B361 		mov	r1, #1432
 293 004c 3F22     		movs	r2, #63
 294 004e FFF7FEFF 		bl	chThdCreateStatic
 295              	.LVL22:
 296              		.loc 1 52 0
 297 0052 0094     		str	r4, [sp]
 298 0054 064B     		ldr	r3, .L22+8
 299 0056 0748     		ldr	r0, .L22+12
 300 0058 4FF46671 		mov	r1, #920
 301 005c 3F22     		movs	r2, #63
 302 005e FFF7FEFF 		bl	chThdCreateStatic
 303              	.LVL23:
 304              		.loc 1 53 0
 305 0062 04B0     		add	sp, sp, #16
 306              		.cfi_def_cfa_offset 8
 307              		@ sp needed
 308 0064 10BD     		pop	{r4, pc}
 309              	.L23:
 310 0066 00BF     		.align	2
 311              	.L22:
 312 0068 00000000 		.word	rx_thread
 313 006c 00000000 		.word	.LANCHOR1
 314 0070 00000000 		.word	tx_thread
 315 0074 00000000 		.word	.LANCHOR2
 316              		.cfi_endproc
 317              	.LFE7:
 318              		.size	nrf_driver_init, .-nrf_driver_init
 319              		.section	.rodata.str1.4,"aMS",%progbits,1
 320              		.align	2
 321              	.LC0:
 322 0000 4E726620 		.ascii	"Nrf TX\000"
 322      545800
 323 0007 00       		.space	1
 324              	.LC1:
 325 0008 525800   		.ascii	"RX\000"
 326              		.section	.bss.rx_thread_wa,"aw",%nobits
 327              		.align	3
 328              		.set	.LANCHOR1,. + 0
 329              		.type	rx_thread_wa, %object
 330              		.size	rx_thread_wa, 1432
 331              	rx_thread_wa:
 332 0000 00000000 		.space	1432
 332      00000000 
 332      00000000 
 332      00000000 
 332      00000000 
 333              		.section	.bss.mstate,"aw",%nobits
 334              		.align	2
 335              		.set	.LANCHOR0,. + 0
 336              		.type	mstate, %object
 337              		.size	mstate, 12
ARM GAS  C:\Users\ADMINI~1\AppData\Local\Temp\cclc6TcK.s 			page 7


 338              	mstate:
 339 0000 00000000 		.space	12
 339      00000000 
 339      00000000 
 340              		.section	.bss.tx_thread_wa,"aw",%nobits
 341              		.align	3
 342              		.set	.LANCHOR2,. + 0
 343              		.type	tx_thread_wa, %object
 344              		.size	tx_thread_wa, 920
 345              	tx_thread_wa:
 346 0000 00000000 		.space	920
 346      00000000 
 346      00000000 
 346      00000000 
 346      00000000 
 347              		.text
 348              	.Letext0:
 349              		.file 2 "c:\\program files\\gnu tools arm embedded\\4.9 2015q2\\arm-none-eabi\\include\\machine\\_
 350              		.file 3 "c:\\program files\\gnu tools arm embedded\\4.9 2015q2\\arm-none-eabi\\include\\sys\\_stdi
 351              		.file 4 "c:\\program files\\gnu tools arm embedded\\4.9 2015q2\\lib\\gcc\\arm-none-eabi\\4.9.3\\in
 352              		.file 5 "ChibiOS_2.6.6/os/ports/GCC/ARMCMx/chtypes.h"
 353              		.file 6 "ChibiOS_2.6.6/os/kernel/include/chlists.h"
 354              		.file 7 "ChibiOS_2.6.6/os/kernel/include/chthreads.h"
 355              		.file 8 "ChibiOS_2.6.6/os/ports/GCC/ARMCMx/chcore_v7m.h"
 356              		.file 9 "ChibiOS_2.6.6/os/kernel/include/chschd.h"
 357              		.file 10 "ChibiOS_2.6.6/os/kernel/include/chmtx.h"
 358              		.file 11 "./datatypes.h"
 359              		.file 12 "applications/app.h"
 360              		.file 13 "./buffer.h"
 361              		.file 14 "nrf/rfhelp.h"
 362              		.file 15 "nrf/rf.h"