ARM GAS  C:\Users\jsyoon\AppData\Local\Temp\ccu2kUr6.s 			page 1


   1              		.syntax unified
   2              		.cpu cortex-m4
   3              		.eabi_attribute 27, 3
   4              		.eabi_attribute 28, 1
   5              		.fpu fpv4-sp-d16
   6              		.eabi_attribute 20, 1
   7              		.eabi_attribute 21, 1
   8              		.eabi_attribute 23, 3
   9              		.eabi_attribute 24, 1
  10              		.eabi_attribute 25, 1
  11              		.eabi_attribute 26, 1
  12              		.eabi_attribute 30, 2
  13              		.eabi_attribute 34, 1
  14              		.eabi_attribute 18, 4
  15              		.thumb
  16              		.file	"nvic.c"
  17              		.text
  18              	.Ltext0:
  19              		.cfi_sections	.debug_frame
  20              		.section	.text.nvicEnableVector,"ax",%progbits
  21              		.align	2
  22              		.p2align 4,,15
  23              		.global	nvicEnableVector
  24              		.thumb
  25              		.thumb_func
  26              		.type	nvicEnableVector, %function
  27              	nvicEnableVector:
  28              	.LFB7:
  29              		.file 1 "ChibiOS_2.6.6/os/ports/common/ARMCMx/nvic.c"
  30              		.loc 1 46 0
  31              		.cfi_startproc
  32              		@ args = 0, pretend = 0, frame = 0
  33              		@ frame_needed = 0, uses_anonymous_args = 0
  34              		@ link register save eliminated.
  35              	.LVL0:
  36 0000 20F00302 		bic	r2, r0, #3
  37 0004 02F16042 		add	r2, r2, #-536870912
  38 0008 02F56142 		add	r2, r2, #57600
  39 000c F0B4     		push	{r4, r5, r6, r7}
  40              		.cfi_def_cfa_offset 16
  41              		.cfi_offset 4, -16
  42              		.cfi_offset 5, -12
  43              		.cfi_offset 6, -8
  44              		.cfi_offset 7, -4
  45              		.loc 1 50 0
  46 000e 4309     		lsrs	r3, r0, #5
  47              		.loc 1 47 0
  48 0010 00F00304 		and	r4, r0, #3
  49              		.loc 1 49 0
  50 0014 D2F80053 		ldr	r5, [r2, #768]
  51              		.loc 1 47 0
  52 0018 E400     		lsls	r4, r4, #3
  53              	.LVL1:
  54              		.loc 1 49 0
  55 001a FF26     		movs	r6, #255
  56 001c 9B00     		lsls	r3, r3, #2
  57 001e A640     		lsls	r6, r6, r4
ARM GAS  C:\Users\jsyoon\AppData\Local\Temp\ccu2kUr6.s 			page 2


  58 0020 03F16043 		add	r3, r3, #-536870912
  59 0024 25EA0605 		bic	r5, r5, r6
  60 0028 03F56143 		add	r3, r3, #57600
  61              		.loc 1 50 0
  62 002c 0127     		movs	r7, #1
  63              		.loc 1 49 0
  64 002e A140     		lsls	r1, r1, r4
  65              	.LVL2:
  66              		.loc 1 50 0
  67 0030 00F01F00 		and	r0, r0, #31
  68              	.LVL3:
  69 0034 07FA00F0 		lsl	r0, r7, r0
  70              		.loc 1 49 0
  71 0038 45EA0104 		orr	r4, r5, r1
  72              	.LVL4:
  73 003c C2F80043 		str	r4, [r2, #768]
  74              		.loc 1 50 0
  75 0040 C3F88001 		str	r0, [r3, #384]
  76              		.loc 1 52 0
  77 0044 F0BC     		pop	{r4, r5, r6, r7}
  78              		.loc 1 51 0
  79 0046 1860     		str	r0, [r3]
  80              		.loc 1 52 0
  81 0048 7047     		bx	lr
  82              		.cfi_endproc
  83              	.LFE7:
  84              		.size	nvicEnableVector, .-nvicEnableVector
  85 004a 00BFAFF3 		.section	.text.nvicDisableVector,"ax",%progbits
  85      0080
  86              		.align	2
  87              		.p2align 4,,15
  88              		.global	nvicDisableVector
  89              		.thumb
  90              		.thumb_func
  91              		.type	nvicDisableVector, %function
  92              	nvicDisableVector:
  93              	.LFB8:
  94              		.loc 1 60 0
  95              		.cfi_startproc
  96              		@ args = 0, pretend = 0, frame = 0
  97              		@ frame_needed = 0, uses_anonymous_args = 0
  98              		@ link register save eliminated.
  99              	.LVL5:
 100              		.loc 1 63 0
 101 0000 4109     		lsrs	r1, r0, #5
 102              		.loc 1 60 0
 103 0002 30B4     		push	{r4, r5}
 104              		.cfi_def_cfa_offset 8
 105              		.cfi_offset 4, -8
 106              		.cfi_offset 5, -4
 107              		.loc 1 63 0
 108 0004 2031     		adds	r1, r1, #32
 109 0006 00F01F04 		and	r4, r0, #31
 110 000a 0125     		movs	r5, #1
 111 000c 0C4A     		ldr	r2, .L3
 112 000e 20F00303 		bic	r3, r0, #3
 113 0012 05FA04F4 		lsl	r4, r5, r4
ARM GAS  C:\Users\jsyoon\AppData\Local\Temp\ccu2kUr6.s 			page 3


 114 0016 03F16043 		add	r3, r3, #-536870912
 115 001a 42F82140 		str	r4, [r2, r1, lsl #2]
 116 001e 03F56143 		add	r3, r3, #57600
 117              		.loc 1 61 0
 118 0022 00F00300 		and	r0, r0, #3
 119              	.LVL6:
 120              		.loc 1 64 0
 121 0026 D3F80023 		ldr	r2, [r3, #768]
 122              		.loc 1 61 0
 123 002a C000     		lsls	r0, r0, #3
 124              	.LVL7:
 125              		.loc 1 64 0
 126 002c FF21     		movs	r1, #255
 127 002e 01FA00F0 		lsl	r0, r1, r0
 128              	.LVL8:
 129 0032 22EA0000 		bic	r0, r2, r0
 130 0036 C3F80003 		str	r0, [r3, #768]
 131              		.loc 1 65 0
 132 003a 30BC     		pop	{r4, r5}
 133 003c 7047     		bx	lr
 134              	.L4:
 135 003e 00BF     		.align	2
 136              	.L3:
 137 0040 00E100E0 		.word	-536813312
 138              		.cfi_endproc
 139              	.LFE8:
 140              		.size	nvicDisableVector, .-nvicDisableVector
 141 0044 AFF30080 		.section	.text.nvicSetSystemHandlerPriority,"ax",%progbits
 141      AFF30080 
 141      AFF30080 
 142              		.align	2
 143              		.p2align 4,,15
 144              		.global	nvicSetSystemHandlerPriority
 145              		.thumb
 146              		.thumb_func
 147              		.type	nvicSetSystemHandlerPriority, %function
 148              	nvicSetSystemHandlerPriority:
 149              	.LFB9:
 150              		.loc 1 74 0
 151              		.cfi_startproc
 152              		@ args = 0, pretend = 0, frame = 0
 153              		@ frame_needed = 0, uses_anonymous_args = 0
 154              		@ link register save eliminated.
 155              	.LVL9:
 156 0000 20F00303 		bic	r3, r0, #3
 157 0004 03F16043 		add	r3, r3, #-536870912
 158 0008 03F56D43 		add	r3, r3, #60672
 159              		.loc 1 75 0
 160 000c 00F00300 		and	r0, r0, #3
 161              	.LVL10:
 162              		.loc 1 74 0
 163 0010 10B4     		push	{r4}
 164              		.cfi_def_cfa_offset 4
 165              		.cfi_offset 4, -4
 166              		.loc 1 75 0
 167 0012 C000     		lsls	r0, r0, #3
 168              	.LVL11:
ARM GAS  C:\Users\jsyoon\AppData\Local\Temp\ccu2kUr6.s 			page 4


 169              		.loc 1 77 0
 170 0014 9A69     		ldr	r2, [r3, #24]
 171              		.loc 1 78 0
 172 0016 FF24     		movs	r4, #255
 173 0018 8440     		lsls	r4, r4, r0
 174              		.loc 1 77 0
 175 001a 22EA0402 		bic	r2, r2, r4
 176              		.loc 1 78 0
 177 001e 8140     		lsls	r1, r1, r0
 178              	.LVL12:
 179 0020 0A43     		orrs	r2, r2, r1
 180              		.loc 1 77 0
 181 0022 9A61     		str	r2, [r3, #24]
 182              		.loc 1 79 0
 183 0024 5DF8044B 		ldr	r4, [sp], #4
 184 0028 7047     		bx	lr
 185              		.cfi_endproc
 186              	.LFE9:
 187              		.size	nvicSetSystemHandlerPriority, .-nvicSetSystemHandlerPriority
 188 002a 00BFAFF3 		.text
 188      0080
 189              	.Letext0:
 190              		.file 2 "c:\\crosstools\\gcc-arm-embedded\\4.8_2014q2\\arm-none-eabi\\include\\machine\\_default_t
 191              		.file 3 "c:\\crosstools\\gcc-arm-embedded\\4.8_2014q2\\arm-none-eabi\\include\\stdint.h"
 192              		.file 4 "ChibiOS_2.6.6/os/ports/common/ARMCMx/nvic.h"