ARM GAS  C:\Users\jsyoon\AppData\Local\Temp\ccu2kUr6.s 			page 1


   1              		.syntax unified
   2              		.cpu cortex-m4
   3              		.eabi_attribute 27, 3
   4              		.eabi_attribute 28, 1
   5              		.fpu fpv4-sp-d16
   6              		.eabi_attribute 20, 1
   7              		.eabi_attribute 21, 1
   8              		.eabi_attribute 23, 3
   9              		.eabi_attribute 24, 1
  10              		.eabi_attribute 25, 1
  11              		.eabi_attribute 26, 1
  12              		.eabi_attribute 30, 2
  13              		.eabi_attribute 34, 1
  14              		.eabi_attribute 18, 4
  15              		.thumb
  16              		.file	"nvic.c"
  17              		.text
  18              	.Ltext0:
  19              		.cfi_sections	.debug_frame
  20              		.section	.text.nvicEnableVector,"ax",%progbits
  21              		.align	2
  22              		.p2align 4,,15
  23              		.global	nvicEnableVector
  24              		.thumb
  25              		.thumb_func
  26              		.type	nvicEnableVector, %function
  27              	nvicEnableVector:
  28              	.LFB7:
  29              		.file 1 "ChibiOS_2.6.6/os/ports/common/ARMCMx/nvic.c"
  30              		.loc 1 46 0
  31              		.cfi_startproc
  32              		@ args = 0, pretend = 0, frame = 0
  33              		@ frame_needed = 0, uses_anonymous_args = 0
  34              		@ link register save eliminated.
  35              	.LVL0:
  36 0000 20F00302 		bic	r2, r0, #3
  37 0004 02F16042 		add	r2, r2, #-536870912
  38 0008 02F56142 		add	r2, r2, #57600
  39 000c F0B4     		push	{r4, r5, r6, r7}
  40              		.cfi_def_cfa_offset 16
  41              		.cfi_offset 4, -16
  42              		.cfi_offset 5, -12
  43              		.cfi_offset 6, -8
  44              		.cfi_offset 7, -4
  45              		.loc 1 50 0
  46 000e 4309     		lsrs	r3, r0, #5
  47              		.loc 1 47 0
  48 0010 00F00304 		and	r4, r0, #3
  49              		.loc 1 49 0
  50 0014 D2F80053 		ldr	r5, [r2, #768]
  51              		.loc 1 47 0
  52 0018 E400     		lsls	r4, r4, #3
  53              	.LVL1:
  54              		.loc 1 49 0
  55 001a FF26     		movs	r6, #255
  56 001c 9B00     		lsls	r3, r3, #2
  57 001e A640     		lsls	r6, r6, r4
ARM GAS  C:\Users\jsyoon\AppData\Local\Temp\ccu2kUr6.s 			page 2


  58 0020 03F16043 		add	r3, r3, #-536870912
  59 0024 25EA0605 		bic	r5, r5, r6
  60 0028 03F56143 		add	r3, r3, #57600
  61              		.loc 1 50 0
  62 002c 0127     		movs	r7, #1
  63              		.loc 1 49 0
  64 002e A140     		lsls	r1, r1, r4
  65              	.LVL2:
  66              		.loc 1 50 0
  67 0030 00F01F00 		and	r0, r0, #31
  68              	.LVL3:
  69 0034 07FA00F0 		lsl	r0, r7, r0
  70              		.loc 1 49 0
  71 0038 45EA0104 		orr	r4, r5, r1
  72              	.LVL4:
  73 003c C2F80043 		str	r4, [r2, #768]
  74              		.loc 1 50 0
  75 0040 C3F88001 		str	r0, [r3, #384]
  76              		.loc 1 52 0
  77 0044 F0BC     		pop	{r4, r5, r6, r7}
  78              		.loc 1 51 0
  79 0046 1860     		str	r0, [r3]
  80              		.loc 1 52 0
  81 0048 7047     		bx	lr
  82              		.cfi_endproc
  83              	.LFE7:
  84              		.size	nvicEnableVector, .-nvicEnableVector
  85 004a 00BFAFF3 		.section	.text.nvicDisableVector,"ax",%progbits
  85      0080
  86              		.align	2
  87              		.p2align 4,,15
  88              		.global	nvicDisableVector
  89              		.thumb
  90              		.thumb_func
  91              		.type	nvicDisableVector, %function
  92              	nvicDisableVector:
  93              	.LFB8:
  94              		.loc 1 60 0
  95              		.cfi_startproc
  96              		@ args = 0, pretend = 0, frame = 0
  97              		@ frame_needed = 0, uses_anonymous_args = 0
  98              		@ link register save eliminated.
  99              	.LVL5:
 100              		.loc 1 63 0
 101 0000 4109     		lsrs	r1, r0, #5
 102              		.loc 1 60 0
 103 0002 30B4     		push	{r4, r5}
 104              		.cfi_def_cfa_offset 8
 105              		.cfi_offset 4, -8
 106              		.cfi_offset 5, -4
 107              		.loc 1 63 0
 108 0004 2031     		adds	r1, r1, #32
 109 0006 00F01F04 		and	r4, r0, #31
 110 000a 0125     		movs	r5, #1
 111 000c 0C4A     		ldr	r2, .L3
 112 000e 20F00303 		bic	r3, r0, #3
 113 0012 05FA04F4 		lsl	r4, r5, r4
ARM GAS  C:\Users\jsyoon\AppData\Local\Temp\ccu2kUr6.s 			page 3


 114 0016 03F16043 		add	r3, r3, #-536870912
 115 001a 42F82140 		str	r4, [r2, r1, lsl #2]
 116 001e 03F56143 		add	r3, r3, #57600
 117              		.loc 1 61 0
 118 0022 00F00300 		and	r0, r0, #3
 119              	.LVL6:
 120              		.loc 1 64 0
 121 0026 D3F80023 		ldr	r2, [r3, #768]
 122              		.loc 1 61 0
 123 002a C000     		lsls	r0, r0, #3
 124              	.LVL7:
 125              		.loc 1 64 0
 126 002c FF21     		movs	r1, #255
 127 002e 01FA00F0 		lsl	r0, r1, r0
 128              	.LVL8:
 129 0032 22EA0000 		bic	r0, r2, r0
 130 0036 C3F80003 		str	r0, [r3, #768]
 131              		.loc 1 65 0
 132 003a 30BC     		pop	{r4, r5}
 133 003c 7047     		bx	lr
 134              	.L4:
 135 003e 00BF     		.align	2
 136              	.L3:
 137 0040 00E100E0 		.word	-536813312
 138              		.cfi_endproc
 139              	.LFE8:
 140              		.size	nvicDisableVector, .-nvicDisableVector
 141 0044 AFF30080 		.section	.text.nvicSetSystemHandlerPriority,"ax",%progbits
 141      AFF30080 
 141      AFF30080 
 142              		.align	2
 143              		.p2align 4,,15
 144              		.global	nvicSetSystemHandlerPriority
 145              		.thumb
 146              		.thumb_func
 147              		.type	nvicSetSystemHandlerPriority, %function
 148              	nvicSetSystemHandlerPriority:
 149              	.LFB9:
 150              		.loc 1 74 0
 151              		.cfi_startproc
 152              		@ args = 0, pretend = 0, frame = 0
 153              		@ frame_needed = 0, uses_anonymous_args = 0
 154              		@ link register save eliminated.
 155              	.LVL9:
 156 0000 20F00303 		bic	r3, r0, #3
 157 0004 03F16043 		add	r3, r3, #-536870912
 158 0008 03F56D43 		add	r3, r3, #60672
 159              		.loc 1 75 0
 160 000c 00F00300 		and	r0, r0, #3
 161              	.LVL10:
 162              		.loc 1 74 0
 163 0010 10B4     		push	{r4}
 164              		.cfi_def_cfa_offset 4
 165              		.cfi_offset 4, -4
 166              		.loc 1 75 0
 167 0012 C000     		lsls	r0, r0, #3
 168              	.LVL11:
ARM GAS  C:\Users\jsyoon\AppData\Local\Temp\ccu2kUr6.s 			page 4


 169              		.loc 1 77 0
 170 0014 9A69     		ldr	r2, [r3, #24]
 171              		.loc 1 78 0
 172 0016 FF24     		movs	r4, #255
 173 0018 8440     		lsls	r4, r4, r0
 174              		.loc 1 77 0
 175 001a 22EA0402 		bic	r2, r2, r4
 176              		.loc 1 78 0
 177 001e 8140     		lsls	r1, r1, r0
 178              	.LVL12:
 179 0020 0A43     		orrs	r2, r2, r1
 180              		.loc 1 77 0
 181 0022 9A61     		str	r2, [r3, #24]
 182              		.loc 1 79 0
 183 0024 5DF8044B 		ldr	r4, [sp], #4
 184 0028 7047     		bx	lr
 185              		.cfi_endproc
 186              	.LFE9:
 187              		.size	nvicSetSystemHandlerPriority, .-nvicSetSystemHandlerPriority
 188 002a 00BFAFF3 		.text
 188      0080
 189              	.Letext0:
 190              		.file 2 "c:\\crosstools\\gcc-arm-embedded\\4.8_2014q2\\arm-none-eabi\\include\\machine\\_default_t
 191              		.file 3 "c:\\crosstools\\gcc-arm-embedded\\4.8_2014q2\\arm-none-eabi\\include\\stdint.h"
 192              		.file 4 "ChibiOS_2.6.6/os/ports/common/ARMCMx/nvic.h"
 193              		.section	.debug_info,"",%progbits
 194              	.Ldebug_info0:
 195 0000 02040000 		.4byte	0x402
 196 0004 0400     		.2byte	0x4
 197 0006 00000000 		.4byte	.Ldebug_abbrev0
 198 000a 04       		.byte	0x4
 199 000b 01       		.uleb128 0x1
 200 000c 0F000000 		.4byte	.LASF47
 201 0010 01       		.byte	0x1
 202 0011 70010000 		.4byte	.LASF48
 203 0015 8F020000 		.4byte	.LASF49
 204 0019 00000000 		.4byte	.Ldebug_ranges0+0
 205 001d 00000000 		.4byte	0
 206 0021 00000000 		.4byte	.Ldebug_line0
 207 0025 02       		.uleb128 0x2
 208 0026 04       		.byte	0x4
 209 0027 05       		.byte	0x5
 210 0028 696E7400 		.ascii	"int\000"
 211 002c 03       		.uleb128 0x3
 212 002d 04       		.byte	0x4
 213 002e 07       		.byte	0x7
 214 002f 1F020000 		.4byte	.LASF0
 215 0033 03       		.uleb128 0x3
 216 0034 01       		.byte	0x1
 217 0035 06       		.byte	0x6
 218 0036 EC020000 		.4byte	.LASF1
 219 003a 03       		.uleb128 0x3
 220 003b 01       		.byte	0x1
 221 003c 08       		.byte	0x8
 222 003d 9C010000 		.4byte	.LASF2
 223 0041 03       		.uleb128 0x3
 224 0042 02       		.byte	0x2
ARM GAS  C:\Users\jsyoon\AppData\Local\Temp\ccu2kUr6.s 			page 5


 225 0043 05       		.byte	0x5
 226 0044 53010000 		.4byte	.LASF3
 227 0048 03       		.uleb128 0x3
 228 0049 02       		.byte	0x2
 229 004a 07       		.byte	0x7
 230 004b DA010000 		.4byte	.LASF4
 231 004f 03       		.uleb128 0x3
 232 0050 04       		.byte	0x4
 233 0051 05       		.byte	0x5
 234 0052 DE020000 		.4byte	.LASF5
 235 0056 04       		.uleb128 0x4
 236 0057 14020000 		.4byte	.LASF9
 237 005b 02       		.byte	0x2
 238 005c 38       		.byte	0x38
 239 005d 61000000 		.4byte	0x61
 240 0061 03       		.uleb128 0x3
 241 0062 04       		.byte	0x4
 242 0063 07       		.byte	0x7
 243 0064 F7010000 		.4byte	.LASF6
 244 0068 03       		.uleb128 0x3
 245 0069 08       		.byte	0x8
 246 006a 05       		.byte	0x5
 247 006b 76020000 		.4byte	.LASF7
 248 006f 03       		.uleb128 0x3
 249 0070 08       		.byte	0x8
 250 0071 07       		.byte	0x7
 251 0072 36020000 		.4byte	.LASF8
 252 0076 04       		.uleb128 0x4
 253 0077 D5020000 		.4byte	.LASF10
 254 007b 03       		.byte	0x3
 255 007c 42       		.byte	0x42
 256 007d 56000000 		.4byte	0x56
 257 0081 03       		.uleb128 0x3
 258 0082 01       		.byte	0x1
 259 0083 02       		.byte	0x2
 260 0084 5D010000 		.4byte	.LASF11
 261 0088 04       		.uleb128 0x4
 262 0089 68010000 		.4byte	.LASF12
 263 008d 04       		.byte	0x4
 264 008e 3A       		.byte	0x3a
 265 008f 93000000 		.4byte	0x93
 266 0093 05       		.uleb128 0x5
 267 0094 76000000 		.4byte	0x76
 268 0098 06       		.uleb128 0x6
 269 0099 040E     		.2byte	0xe04
 270 009b 04       		.byte	0x4
 271 009c 6A       		.byte	0x6a
 272 009d 47010000 		.4byte	0x147
 273 00a1 07       		.uleb128 0x7
 274 00a2 BF020000 		.4byte	.LASF13
 275 00a6 04       		.byte	0x4
 276 00a7 6B       		.byte	0x6b
 277 00a8 5E010000 		.4byte	0x15e
 278 00ac 00       		.byte	0
 279 00ad 07       		.uleb128 0x7
 280 00ae AA010000 		.4byte	.LASF14
 281 00b2 04       		.byte	0x4
ARM GAS  C:\Users\jsyoon\AppData\Local\Temp\ccu2kUr6.s 			page 6


 282 00b3 6C       		.byte	0x6c
 283 00b4 73010000 		.4byte	0x173
 284 00b8 20       		.byte	0x20
 285 00b9 07       		.uleb128 0x7
 286 00ba 63010000 		.4byte	.LASF15
 287 00be 04       		.byte	0x4
 288 00bf 6D       		.byte	0x6d
 289 00c0 78010000 		.4byte	0x178
 290 00c4 80       		.byte	0x80
 291 00c5 07       		.uleb128 0x7
 292 00c6 B2010000 		.4byte	.LASF16
 293 00ca 04       		.byte	0x4
 294 00cb 6E       		.byte	0x6e
 295 00cc 7D010000 		.4byte	0x17d
 296 00d0 A0       		.byte	0xa0
 297 00d1 08       		.uleb128 0x8
 298 00d2 2C020000 		.4byte	.LASF17
 299 00d6 04       		.byte	0x4
 300 00d7 6F       		.byte	0x6f
 301 00d8 82010000 		.4byte	0x182
 302 00dc 0001     		.2byte	0x100
 303 00de 08       		.uleb128 0x8
 304 00df BA010000 		.4byte	.LASF18
 305 00e3 04       		.byte	0x4
 306 00e4 70       		.byte	0x70
 307 00e5 87010000 		.4byte	0x187
 308 00e9 2001     		.2byte	0x120
 309 00eb 08       		.uleb128 0x8
 310 00ec 05000000 		.4byte	.LASF19
 311 00f0 04       		.byte	0x4
 312 00f1 71       		.byte	0x71
 313 00f2 8C010000 		.4byte	0x18c
 314 00f6 8001     		.2byte	0x180
 315 00f8 08       		.uleb128 0x8
 316 00f9 C2010000 		.4byte	.LASF20
 317 00fd 04       		.byte	0x4
 318 00fe 72       		.byte	0x72
 319 00ff 91010000 		.4byte	0x191
 320 0103 A001     		.2byte	0x1a0
 321 0105 08       		.uleb128 0x8
 322 0106 15030000 		.4byte	.LASF21
 323 010a 04       		.byte	0x4
 324 010b 73       		.byte	0x73
 325 010c 96010000 		.4byte	0x196
 326 0110 0002     		.2byte	0x200
 327 0112 08       		.uleb128 0x8
 328 0113 CA010000 		.4byte	.LASF22
 329 0117 04       		.byte	0x4
 330 0118 74       		.byte	0x74
 331 0119 AB010000 		.4byte	0x1ab
 332 011d 2002     		.2byte	0x220
 333 011f 09       		.uleb128 0x9
 334 0120 49505200 		.ascii	"IPR\000"
 335 0124 04       		.byte	0x4
 336 0125 75       		.byte	0x75
 337 0126 C0010000 		.4byte	0x1c0
 338 012a 0003     		.2byte	0x300
ARM GAS  C:\Users\jsyoon\AppData\Local\Temp\ccu2kUr6.s 			page 7


 339 012c 08       		.uleb128 0x8
 340 012d D2010000 		.4byte	.LASF23
 341 0131 04       		.byte	0x4
 342 0132 76       		.byte	0x76
 343 0133 D6010000 		.4byte	0x1d6
 344 0137 F003     		.2byte	0x3f0
 345 0139 08       		.uleb128 0x8
 346 013a 0F020000 		.4byte	.LASF24
 347 013e 04       		.byte	0x4
 348 013f 77       		.byte	0x77
 349 0140 88000000 		.4byte	0x88
 350 0144 000E     		.2byte	0xe00
 351 0146 00       		.byte	0
 352 0147 0A       		.uleb128 0xa
 353 0148 88000000 		.4byte	0x88
 354 014c 57010000 		.4byte	0x157
 355 0150 0B       		.uleb128 0xb
 356 0151 57010000 		.4byte	0x157
 357 0155 07       		.byte	0x7
 358 0156 00       		.byte	0
 359 0157 03       		.uleb128 0x3
 360 0158 04       		.byte	0x4
 361 0159 07       		.byte	0x7
 362 015a 6D020000 		.4byte	.LASF25
 363 015e 05       		.uleb128 0x5
 364 015f 47010000 		.4byte	0x147
 365 0163 0A       		.uleb128 0xa
 366 0164 88000000 		.4byte	0x88
 367 0168 73010000 		.4byte	0x173
 368 016c 0B       		.uleb128 0xb
 369 016d 57010000 		.4byte	0x157
 370 0171 17       		.byte	0x17
 371 0172 00       		.byte	0
 372 0173 05       		.uleb128 0x5
 373 0174 63010000 		.4byte	0x163
 374 0178 05       		.uleb128 0x5
 375 0179 47010000 		.4byte	0x147
 376 017d 05       		.uleb128 0x5
 377 017e 63010000 		.4byte	0x163
 378 0182 05       		.uleb128 0x5
 379 0183 47010000 		.4byte	0x147
 380 0187 05       		.uleb128 0x5
 381 0188 63010000 		.4byte	0x163
 382 018c 05       		.uleb128 0x5
 383 018d 47010000 		.4byte	0x147
 384 0191 05       		.uleb128 0x5
 385 0192 63010000 		.4byte	0x163
 386 0196 05       		.uleb128 0x5
 387 0197 47010000 		.4byte	0x147
 388 019b 0A       		.uleb128 0xa
 389 019c 88000000 		.4byte	0x88
 390 01a0 AB010000 		.4byte	0x1ab
 391 01a4 0B       		.uleb128 0xb
 392 01a5 57010000 		.4byte	0x157
 393 01a9 37       		.byte	0x37
 394 01aa 00       		.byte	0
 395 01ab 05       		.uleb128 0x5
ARM GAS  C:\Users\jsyoon\AppData\Local\Temp\ccu2kUr6.s 			page 8


 396 01ac 9B010000 		.4byte	0x19b
 397 01b0 0A       		.uleb128 0xa
 398 01b1 88000000 		.4byte	0x88
 399 01b5 C0010000 		.4byte	0x1c0
 400 01b9 0B       		.uleb128 0xb
 401 01ba 57010000 		.4byte	0x157
 402 01be 3B       		.byte	0x3b
 403 01bf 00       		.byte	0
 404 01c0 05       		.uleb128 0x5
 405 01c1 B0010000 		.4byte	0x1b0
 406 01c5 0A       		.uleb128 0xa
 407 01c6 88000000 		.4byte	0x88
 408 01ca D6010000 		.4byte	0x1d6
 409 01ce 0C       		.uleb128 0xc
 410 01cf 57010000 		.4byte	0x157
 411 01d3 8302     		.2byte	0x283
 412 01d5 00       		.byte	0
 413 01d6 05       		.uleb128 0x5
 414 01d7 C5010000 		.4byte	0x1c5
 415 01db 04       		.uleb128 0x4
 416 01dc 45010000 		.4byte	.LASF26
 417 01e0 04       		.byte	0x4
 418 01e1 78       		.byte	0x78
 419 01e2 98000000 		.4byte	0x98
 420 01e6 0D       		.uleb128 0xd
 421 01e7 8C       		.byte	0x8c
 422 01e8 04       		.byte	0x4
 423 01e9 89       		.byte	0x89
 424 01ea EB020000 		.4byte	0x2eb
 425 01ee 07       		.uleb128 0x7
 426 01ef 84020000 		.4byte	.LASF27
 427 01f3 04       		.byte	0x4
 428 01f4 8A       		.byte	0x8a
 429 01f5 88000000 		.4byte	0x88
 430 01f9 00       		.byte	0
 431 01fa 07       		.uleb128 0x7
 432 01fb 4D020000 		.4byte	.LASF28
 433 01ff 04       		.byte	0x4
 434 0200 8B       		.byte	0x8b
 435 0201 88000000 		.4byte	0x88
 436 0205 04       		.byte	0x4
 437 0206 07       		.uleb128 0x7
 438 0207 4E010000 		.4byte	.LASF29
 439 020b 04       		.byte	0x4
 440 020c 8C       		.byte	0x8c
 441 020d 88000000 		.4byte	0x88
 442 0211 08       		.byte	0x8
 443 0212 07       		.uleb128 0x7
 444 0213 5A020000 		.4byte	.LASF30
 445 0217 04       		.byte	0x4
 446 0218 8D       		.byte	0x8d
 447 0219 88000000 		.4byte	0x88
 448 021d 0C       		.byte	0xc
 449 021e 0E       		.uleb128 0xe
 450 021f 53435200 		.ascii	"SCR\000"
 451 0223 04       		.byte	0x4
 452 0224 8E       		.byte	0x8e
ARM GAS  C:\Users\jsyoon\AppData\Local\Temp\ccu2kUr6.s 			page 9


 453 0225 88000000 		.4byte	0x88
 454 0229 10       		.byte	0x10
 455 022a 0E       		.uleb128 0xe
 456 022b 43435200 		.ascii	"CCR\000"
 457 022f 04       		.byte	0x4
 458 0230 8F       		.byte	0x8f
 459 0231 88000000 		.4byte	0x88
 460 0235 14       		.byte	0x14
 461 0236 07       		.uleb128 0x7
 462 0237 E7020000 		.4byte	.LASF31
 463 023b 04       		.byte	0x4
 464 023c 90       		.byte	0x90
 465 023d FB020000 		.4byte	0x2fb
 466 0241 18       		.byte	0x18
 467 0242 07       		.uleb128 0x7
 468 0243 CF020000 		.4byte	.LASF32
 469 0247 04       		.byte	0x4
 470 0248 91       		.byte	0x91
 471 0249 88000000 		.4byte	0x88
 472 024d 24       		.byte	0x24
 473 024e 07       		.uleb128 0x7
 474 024f ED010000 		.4byte	.LASF33
 475 0253 04       		.byte	0x4
 476 0254 92       		.byte	0x92
 477 0255 88000000 		.4byte	0x88
 478 0259 28       		.byte	0x28
 479 025a 07       		.uleb128 0x7
 480 025b F2010000 		.4byte	.LASF34
 481 025f 04       		.byte	0x4
 482 0260 93       		.byte	0x93
 483 0261 88000000 		.4byte	0x88
 484 0265 2C       		.byte	0x2c
 485 0266 07       		.uleb128 0x7
 486 0267 31020000 		.4byte	.LASF35
 487 026b 04       		.byte	0x4
 488 026c 94       		.byte	0x94
 489 026d 88000000 		.4byte	0x88
 490 0271 30       		.byte	0x30
 491 0272 07       		.uleb128 0x7
 492 0273 C9020000 		.4byte	.LASF36
 493 0277 04       		.byte	0x4
 494 0278 95       		.byte	0x95
 495 0279 88000000 		.4byte	0x88
 496 027d 34       		.byte	0x34
 497 027e 07       		.uleb128 0x7
 498 027f 60020000 		.4byte	.LASF37
 499 0283 04       		.byte	0x4
 500 0284 96       		.byte	0x96
 501 0285 88000000 		.4byte	0x88
 502 0289 38       		.byte	0x38
 503 028a 07       		.uleb128 0x7
 504 028b C4020000 		.4byte	.LASF38
 505 028f 04       		.byte	0x4
 506 0290 97       		.byte	0x97
 507 0291 88000000 		.4byte	0x88
 508 0295 3C       		.byte	0x3c
 509 0296 0E       		.uleb128 0xe
ARM GAS  C:\Users\jsyoon\AppData\Local\Temp\ccu2kUr6.s 			page 10


 510 0297 50465200 		.ascii	"PFR\000"
 511 029b 04       		.byte	0x4
 512 029c 98       		.byte	0x98
 513 029d 10030000 		.4byte	0x310
 514 02a1 40       		.byte	0x40
 515 02a2 0E       		.uleb128 0xe
 516 02a3 44465200 		.ascii	"DFR\000"
 517 02a7 04       		.byte	0x4
 518 02a8 99       		.byte	0x99
 519 02a9 88000000 		.4byte	0x88
 520 02ad 48       		.byte	0x48
 521 02ae 0E       		.uleb128 0xe
 522 02af 41445200 		.ascii	"ADR\000"
 523 02b3 04       		.byte	0x4
 524 02b4 9A       		.byte	0x9a
 525 02b5 88000000 		.4byte	0x88
 526 02b9 4C       		.byte	0x4c
 527 02ba 07       		.uleb128 0x7
 528 02bb 0A000000 		.4byte	.LASF39
 529 02bf 04       		.byte	0x4
 530 02c0 9B       		.byte	0x9b
 531 02c1 25030000 		.4byte	0x325
 532 02c5 50       		.byte	0x50
 533 02c6 0E       		.uleb128 0xe
 534 02c7 53415200 		.ascii	"SAR\000"
 535 02cb 04       		.byte	0x4
 536 02cc 9C       		.byte	0x9c
 537 02cd 3A030000 		.4byte	0x33a
 538 02d1 60       		.byte	0x60
 539 02d2 07       		.uleb128 0x7
 540 02d3 AA010000 		.4byte	.LASF14
 541 02d7 04       		.byte	0x4
 542 02d8 9D       		.byte	0x9d
 543 02d9 3F030000 		.4byte	0x33f
 544 02dd 74       		.byte	0x74
 545 02de 07       		.uleb128 0x7
 546 02df 09020000 		.4byte	.LASF40
 547 02e3 04       		.byte	0x4
 548 02e4 9E       		.byte	0x9e
 549 02e5 88000000 		.4byte	0x88
 550 02e9 88       		.byte	0x88
 551 02ea 00       		.byte	0
 552 02eb 0A       		.uleb128 0xa
 553 02ec 88000000 		.4byte	0x88
 554 02f0 FB020000 		.4byte	0x2fb
 555 02f4 0B       		.uleb128 0xb
 556 02f5 57010000 		.4byte	0x157
 557 02f9 02       		.byte	0x2
 558 02fa 00       		.byte	0
 559 02fb 05       		.uleb128 0x5
 560 02fc EB020000 		.4byte	0x2eb
 561 0300 0A       		.uleb128 0xa
 562 0301 88000000 		.4byte	0x88
 563 0305 10030000 		.4byte	0x310
 564 0309 0B       		.uleb128 0xb
 565 030a 57010000 		.4byte	0x157
 566 030e 01       		.byte	0x1
ARM GAS  C:\Users\jsyoon\AppData\Local\Temp\ccu2kUr6.s 			page 11


 567 030f 00       		.byte	0
 568 0310 05       		.uleb128 0x5
 569 0311 00030000 		.4byte	0x300
 570 0315 0A       		.uleb128 0xa
 571 0316 88000000 		.4byte	0x88
 572 031a 25030000 		.4byte	0x325
 573 031e 0B       		.uleb128 0xb
 574 031f 57010000 		.4byte	0x157
 575 0323 03       		.byte	0x3
 576 0324 00       		.byte	0
 577 0325 05       		.uleb128 0x5
 578 0326 15030000 		.4byte	0x315
 579 032a 0A       		.uleb128 0xa
 580 032b 88000000 		.4byte	0x88
 581 032f 3A030000 		.4byte	0x33a
 582 0333 0B       		.uleb128 0xb
 583 0334 57010000 		.4byte	0x157
 584 0338 04       		.byte	0x4
 585 0339 00       		.byte	0
 586 033a 05       		.uleb128 0x5
 587 033b 2A030000 		.4byte	0x32a
 588 033f 05       		.uleb128 0x5
 589 0340 2A030000 		.4byte	0x32a
 590 0344 04       		.uleb128 0x4
 591 0345 52020000 		.4byte	.LASF41
 592 0349 04       		.byte	0x4
 593 034a 9F       		.byte	0x9f
 594 034b E6010000 		.4byte	0x1e6
 595 034f 03       		.uleb128 0x3
 596 0350 01       		.byte	0x1
 597 0351 08       		.byte	0x8
 598 0352 8A020000 		.4byte	.LASF42
 599 0356 0F       		.uleb128 0xf
 600 0357 1A030000 		.4byte	.LASF44
 601 035b 01       		.byte	0x1
 602 035c 2E       		.byte	0x2e
 603 035d 00000000 		.4byte	.LFB7
 604 0361 4A000000 		.4byte	.LFE7-.LFB7
 605 0365 01       		.uleb128 0x1
 606 0366 9C       		.byte	0x9c
 607 0367 96030000 		.4byte	0x396
 608 036b 10       		.uleb128 0x10
 609 036c 6E00     		.ascii	"n\000"
 610 036e 01       		.byte	0x1
 611 036f 2E       		.byte	0x2e
 612 0370 76000000 		.4byte	0x76
 613 0374 00000000 		.4byte	.LLST0
 614 0378 11       		.uleb128 0x11
 615 0379 00000000 		.4byte	.LASF43
 616 037d 01       		.byte	0x1
 617 037e 2E       		.byte	0x2e
 618 037f 76000000 		.4byte	0x76
 619 0383 21000000 		.4byte	.LLST1
 620 0387 12       		.uleb128 0x12
 621 0388 736800   		.ascii	"sh\000"
 622 038b 01       		.byte	0x1
 623 038c 2F       		.byte	0x2f
ARM GAS  C:\Users\jsyoon\AppData\Local\Temp\ccu2kUr6.s 			page 12


 624 038d 2C000000 		.4byte	0x2c
 625 0391 42000000 		.4byte	.LLST2
 626 0395 00       		.byte	0
 627 0396 0F       		.uleb128 0xf
 628 0397 33010000 		.4byte	.LASF45
 629 039b 01       		.byte	0x1
 630 039c 3C       		.byte	0x3c
 631 039d 00000000 		.4byte	.LFB8
 632 03a1 44000000 		.4byte	.LFE8-.LFB8
 633 03a5 01       		.uleb128 0x1
 634 03a6 9C       		.byte	0x9c
 635 03a7 C7030000 		.4byte	0x3c7
 636 03ab 10       		.uleb128 0x10
 637 03ac 6E00     		.ascii	"n\000"
 638 03ae 01       		.byte	0x1
 639 03af 3C       		.byte	0x3c
 640 03b0 76000000 		.4byte	0x76
 641 03b4 78000000 		.4byte	.LLST3
 642 03b8 12       		.uleb128 0x12
 643 03b9 736800   		.ascii	"sh\000"
 644 03bc 01       		.byte	0x1
 645 03bd 3D       		.byte	0x3d
 646 03be 2C000000 		.4byte	0x2c
 647 03c2 99000000 		.4byte	.LLST4
 648 03c6 00       		.byte	0
 649 03c7 13       		.uleb128 0x13
 650 03c8 F8020000 		.4byte	.LASF50
 651 03cc 01       		.byte	0x1
 652 03cd 4A       		.byte	0x4a
 653 03ce 00000000 		.4byte	.LFB9
 654 03d2 2A000000 		.4byte	.LFE9-.LFB9
 655 03d6 01       		.uleb128 0x1
 656 03d7 9C       		.byte	0x9c
 657 03d8 11       		.uleb128 0x11
 658 03d9 65020000 		.4byte	.LASF46
 659 03dd 01       		.byte	0x1
 660 03de 4A       		.byte	0x4a
 661 03df 76000000 		.4byte	0x76
 662 03e3 E1000000 		.4byte	.LLST5
 663 03e7 11       		.uleb128 0x11
 664 03e8 00000000 		.4byte	.LASF43
 665 03ec 01       		.byte	0x1
 666 03ed 4A       		.byte	0x4a
 667 03ee 76000000 		.4byte	0x76
 668 03f2 02010000 		.4byte	.LLST6
 669 03f6 12       		.uleb128 0x12
 670 03f7 736800   		.ascii	"sh\000"
 671 03fa 01       		.byte	0x1
 672 03fb 4B       		.byte	0x4b
 673 03fc 2C000000 		.4byte	0x2c
 674 0400 23010000 		.4byte	.LLST7
 675 0404 00       		.byte	0
 676 0405 00       		.byte	0
 677              		.section	.debug_abbrev,"",%progbits
 678              	.Ldebug_abbrev0:
 679 0000 01       		.uleb128 0x1
 680 0001 11       		.uleb128 0x11
ARM GAS  C:\Users\jsyoon\AppData\Local\Temp\ccu2kUr6.s 			page 13


 681 0002 01       		.byte	0x1
 682 0003 25       		.uleb128 0x25
 683 0004 0E       		.uleb128 0xe
 684 0005 13       		.uleb128 0x13
 685 0006 0B       		.uleb128 0xb
 686 0007 03       		.uleb128 0x3
 687 0008 0E       		.uleb128 0xe
 688 0009 1B       		.uleb128 0x1b
 689 000a 0E       		.uleb128 0xe
 690 000b 55       		.uleb128 0x55
 691 000c 17       		.uleb128 0x17
 692 000d 11       		.uleb128 0x11
 693 000e 01       		.uleb128 0x1
 694 000f 10       		.uleb128 0x10
 695 0010 17       		.uleb128 0x17
 696 0011 00       		.byte	0
 697 0012 00       		.byte	0
 698 0013 02       		.uleb128 0x2
 699 0014 24       		.uleb128 0x24
 700 0015 00       		.byte	0
 701 0016 0B       		.uleb128 0xb
 702 0017 0B       		.uleb128 0xb
 703 0018 3E       		.uleb128 0x3e
 704 0019 0B       		.uleb128 0xb
 705 001a 03       		.uleb128 0x3
 706 001b 08       		.uleb128 0x8
 707 001c 00       		.byte	0
 708 001d 00       		.byte	0
 709 001e 03       		.uleb128 0x3
 710 001f 24       		.uleb128 0x24
 711 0020 00       		.byte	0
 712 0021 0B       		.uleb128 0xb
 713 0022 0B       		.uleb128 0xb
 714 0023 3E       		.uleb128 0x3e
 715 0024 0B       		.uleb128 0xb
 716 0025 03       		.uleb128 0x3
 717 0026 0E       		.uleb128 0xe
 718 0027 00       		.byte	0
 719 0028 00       		.byte	0
 720 0029 04       		.uleb128 0x4
 721 002a 16       		.uleb128 0x16
 722 002b 00       		.byte	0
 723 002c 03       		.uleb128 0x3
 724 002d 0E       		.uleb128 0xe
 725 002e 3A       		.uleb128 0x3a
 726 002f 0B       		.uleb128 0xb
 727 0030 3B       		.uleb128 0x3b
 728 0031 0B       		.uleb128 0xb
 729 0032 49       		.uleb128 0x49
 730 0033 13       		.uleb128 0x13
 731 0034 00       		.byte	0
 732 0035 00       		.byte	0
 733 0036 05       		.uleb128 0x5
 734 0037 35       		.uleb128 0x35
 735 0038 00       		.byte	0
 736 0039 49       		.uleb128 0x49
 737 003a 13       		.uleb128 0x13
ARM GAS  C:\Users\jsyoon\AppData\Local\Temp\ccu2kUr6.s 			page 14


 738 003b 00       		.byte	0
 739 003c 00       		.byte	0
 740 003d 06       		.uleb128 0x6
 741 003e 13       		.uleb128 0x13
 742 003f 01       		.byte	0x1
 743 0040 0B       		.uleb128 0xb
 744 0041 05       		.uleb128 0x5
 745 0042 3A       		.uleb128 0x3a
 746 0043 0B       		.uleb128 0xb
 747 0044 3B       		.uleb128 0x3b
 748 0045 0B       		.uleb128 0xb
 749 0046 01       		.uleb128 0x1
 750 0047 13       		.uleb128 0x13
 751 0048 00       		.byte	0
 752 0049 00       		.byte	0
 753 004a 07       		.uleb128 0x7
 754 004b 0D       		.uleb128 0xd
 755 004c 00       		.byte	0
 756 004d 03       		.uleb128 0x3
 757 004e 0E       		.uleb128 0xe
 758 004f 3A       		.uleb128 0x3a
 759 0050 0B       		.uleb128 0xb
 760 0051 3B       		.uleb128 0x3b
 761 0052 0B       		.uleb128 0xb
 762 0053 49       		.uleb128 0x49
 763 0054 13       		.uleb128 0x13
 764 0055 38       		.uleb128 0x38
 765 0056 0B       		.uleb128 0xb
 766 0057 00       		.byte	0
 767 0058 00       		.byte	0
 768 0059 08       		.uleb128 0x8
 769 005a 0D       		.uleb128 0xd
 770 005b 00       		.byte	0
 771 005c 03       		.uleb128 0x3
 772 005d 0E       		.uleb128 0xe
 773 005e 3A       		.uleb128 0x3a
 774 005f 0B       		.uleb128 0xb
 775 0060 3B       		.uleb128 0x3b
 776 0061 0B       		.uleb128 0xb
 777 0062 49       		.uleb128 0x49
 778 0063 13       		.uleb128 0x13
 779 0064 38       		.uleb128 0x38
 780 0065 05       		.uleb128 0x5
 781 0066 00       		.byte	0
 782 0067 00       		.byte	0
 783 0068 09       		.uleb128 0x9
 784 0069 0D       		.uleb128 0xd
 785 006a 00       		.byte	0
 786 006b 03       		.uleb128 0x3
 787 006c 08       		.uleb128 0x8
 788 006d 3A       		.uleb128 0x3a
 789 006e 0B       		.uleb128 0xb
 790 006f 3B       		.uleb128 0x3b
 791 0070 0B       		.uleb128 0xb
 792 0071 49       		.uleb128 0x49
 793 0072 13       		.uleb128 0x13
 794 0073 38       		.uleb128 0x38
ARM GAS  C:\Users\jsyoon\AppData\Local\Temp\ccu2kUr6.s 			page 15


 795 0074 05       		.uleb128 0x5
 796 0075 00       		.byte	0
 797 0076 00       		.byte	0
 798 0077 0A       		.uleb128 0xa
 799 0078 01       		.uleb128 0x1
 800 0079 01       		.byte	0x1
 801 007a 49       		.uleb128 0x49
 802 007b 13       		.uleb128 0x13
 803 007c 01       		.uleb128 0x1
 804 007d 13       		.uleb128 0x13
 805 007e 00       		.byte	0
 806 007f 00       		.byte	0
 807 0080 0B       		.uleb128 0xb
 808 0081 21       		.uleb128 0x21
 809 0082 00       		.byte	0
 810 0083 49       		.uleb128 0x49
 811 0084 13       		.uleb128 0x13
 812 0085 2F       		.uleb128 0x2f
 813 0086 0B       		.uleb128 0xb
 814 0087 00       		.byte	0
 815 0088 00       		.byte	0
 816 0089 0C       		.uleb128 0xc
 817 008a 21       		.uleb128 0x21
 818 008b 00       		.byte	0
 819 008c 49       		.uleb128 0x49
 820 008d 13       		.uleb128 0x13
 821 008e 2F       		.uleb128 0x2f
 822 008f 05       		.uleb128 0x5
 823 0090 00       		.byte	0
 824 0091 00       		.byte	0
 825 0092 0D       		.uleb128 0xd
 826 0093 13       		.uleb128 0x13
 827 0094 01       		.byte	0x1
 828 0095 0B       		.uleb128 0xb
 829 0096 0B       		.uleb128 0xb
 830 0097 3A       		.uleb128 0x3a
 831 0098 0B       		.uleb128 0xb
 832 0099 3B       		.uleb128 0x3b
 833 009a 0B       		.uleb128 0xb
 834 009b 01       		.uleb128 0x1
 835 009c 13       		.uleb128 0x13
 836 009d 00       		.byte	0
 837 009e 00       		.byte	0
 838 009f 0E       		.uleb128 0xe
 839 00a0 0D       		.uleb128 0xd
 840 00a1 00       		.byte	0
 841 00a2 03       		.uleb128 0x3
 842 00a3 08       		.uleb128 0x8
 843 00a4 3A       		.uleb128 0x3a
 844 00a5 0B       		.uleb128 0xb
 845 00a6 3B       		.uleb128 0x3b
 846 00a7 0B       		.uleb128 0xb
 847 00a8 49       		.uleb128 0x49
 848 00a9 13       		.uleb128 0x13
 849 00aa 38       		.uleb128 0x38
 850 00ab 0B       		.uleb128 0xb
 851 00ac 00       		.byte	0
ARM GAS  C:\Users\jsyoon\AppData\Local\Temp\ccu2kUr6.s 			page 16


 852 00ad 00       		.byte	0
 853 00ae 0F       		.uleb128 0xf
 854 00af 2E       		.uleb128 0x2e
 855 00b0 01       		.byte	0x1
 856 00b1 3F       		.uleb128 0x3f
 857 00b2 19       		.uleb128 0x19
 858 00b3 03       		.uleb128 0x3
 859 00b4 0E       		.uleb128 0xe
 860 00b5 3A       		.uleb128 0x3a
 861 00b6 0B       		.uleb128 0xb
 862 00b7 3B       		.uleb128 0x3b
 863 00b8 0B       		.uleb128 0xb
 864 00b9 27       		.uleb128 0x27
 865 00ba 19       		.uleb128 0x19
 866 00bb 11       		.uleb128 0x11
 867 00bc 01       		.uleb128 0x1
 868 00bd 12       		.uleb128 0x12
 869 00be 06       		.uleb128 0x6
 870 00bf 40       		.uleb128 0x40
 871 00c0 18       		.uleb128 0x18
 872 00c1 9742     		.uleb128 0x2117
 873 00c3 19       		.uleb128 0x19
 874 00c4 01       		.uleb128 0x1
 875 00c5 13       		.uleb128 0x13
 876 00c6 00       		.byte	0
 877 00c7 00       		.byte	0
 878 00c8 10       		.uleb128 0x10
 879 00c9 05       		.uleb128 0x5
 880 00ca 00       		.byte	0
 881 00cb 03       		.uleb128 0x3
 882 00cc 08       		.uleb128 0x8
 883 00cd 3A       		.uleb128 0x3a
 884 00ce 0B       		.uleb128 0xb
 885 00cf 3B       		.uleb128 0x3b
 886 00d0 0B       		.uleb128 0xb
 887 00d1 49       		.uleb128 0x49
 888 00d2 13       		.uleb128 0x13
 889 00d3 02       		.uleb128 0x2
 890 00d4 17       		.uleb128 0x17
 891 00d5 00       		.byte	0
 892 00d6 00       		.byte	0
 893 00d7 11       		.uleb128 0x11
 894 00d8 05       		.uleb128 0x5
 895 00d9 00       		.byte	0
 896 00da 03       		.uleb128 0x3
 897 00db 0E       		.uleb128 0xe
 898 00dc 3A       		.uleb128 0x3a
 899 00dd 0B       		.uleb128 0xb
 900 00de 3B       		.uleb128 0x3b
 901 00df 0B       		.uleb128 0xb
 902 00e0 49       		.uleb128 0x49
 903 00e1 13       		.uleb128 0x13
 904 00e2 02       		.uleb128 0x2
 905 00e3 17       		.uleb128 0x17
 906 00e4 00       		.byte	0
 907 00e5 00       		.byte	0
 908 00e6 12       		.uleb128 0x12
ARM GAS  C:\Users\jsyoon\AppData\Local\Temp\ccu2kUr6.s 			page 17


 909 00e7 34       		.uleb128 0x34
 910 00e8 00       		.byte	0
 911 00e9 03       		.uleb128 0x3
 912 00ea 08       		.uleb128 0x8
 913 00eb 3A       		.uleb128 0x3a
 914 00ec 0B       		.uleb128 0xb
 915 00ed 3B       		.uleb128 0x3b
 916 00ee 0B       		.uleb128 0xb
 917 00ef 49       		.uleb128 0x49
 918 00f0 13       		.uleb128 0x13
 919 00f1 02       		.uleb128 0x2
 920 00f2 17       		.uleb128 0x17
 921 00f3 00       		.byte	0
 922 00f4 00       		.byte	0
 923 00f5 13       		.uleb128 0x13
 924 00f6 2E       		.uleb128 0x2e
 925 00f7 01       		.byte	0x1
 926 00f8 3F       		.uleb128 0x3f
 927 00f9 19       		.uleb128 0x19
 928 00fa 03       		.uleb128 0x3
 929 00fb 0E       		.uleb128 0xe
 930 00fc 3A       		.uleb128 0x3a
 931 00fd 0B       		.uleb128 0xb
 932 00fe 3B       		.uleb128 0x3b
 933 00ff 0B       		.uleb128 0xb
 934 0100 27       		.uleb128 0x27
 935 0101 19       		.uleb128 0x19
 936 0102 11       		.uleb128 0x11
 937 0103 01       		.uleb128 0x1
 938 0104 12       		.uleb128 0x12
 939 0105 06       		.uleb128 0x6
 940 0106 40       		.uleb128 0x40
 941 0107 18       		.uleb128 0x18
 942 0108 9742     		.uleb128 0x2117
 943 010a 19       		.uleb128 0x19
 944 010b 00       		.byte	0
 945 010c 00       		.byte	0
 946 010d 00       		.byte	0
 947              		.section	.debug_loc,"",%progbits
 948              	.Ldebug_loc0:
 949              	.LLST0:
 950 0000 00000000 		.4byte	.LVL0
 951 0004 34000000 		.4byte	.LVL3
 952 0008 0100     		.2byte	0x1
 953 000a 50       		.byte	0x50
 954 000b 34000000 		.4byte	.LVL3
 955 000f 4A000000 		.4byte	.LFE7
 956 0013 0400     		.2byte	0x4
 957 0015 F3       		.byte	0xf3
 958 0016 01       		.uleb128 0x1
 959 0017 50       		.byte	0x50
 960 0018 9F       		.byte	0x9f
 961 0019 00000000 		.4byte	0
 962 001d 00000000 		.4byte	0
 963              	.LLST1:
 964 0021 00000000 		.4byte	.LVL0
 965 0025 30000000 		.4byte	.LVL2
ARM GAS  C:\Users\jsyoon\AppData\Local\Temp\ccu2kUr6.s 			page 18


 966 0029 0100     		.2byte	0x1
 967 002b 51       		.byte	0x51
 968 002c 30000000 		.4byte	.LVL2
 969 0030 4A000000 		.4byte	.LFE7
 970 0034 0400     		.2byte	0x4
 971 0036 F3       		.byte	0xf3
 972 0037 01       		.uleb128 0x1
 973 0038 51       		.byte	0x51
 974 0039 9F       		.byte	0x9f
 975 003a 00000000 		.4byte	0
 976 003e 00000000 		.4byte	0
 977              	.LLST2:
 978 0042 00000000 		.4byte	.LVL0
 979 0046 1A000000 		.4byte	.LVL1
 980 004a 0700     		.2byte	0x7
 981 004c 70       		.byte	0x70
 982 004d 00       		.sleb128 0
 983 004e 33       		.byte	0x33
 984 004f 1A       		.byte	0x1a
 985 0050 33       		.byte	0x33
 986 0051 24       		.byte	0x24
 987 0052 9F       		.byte	0x9f
 988 0053 1A000000 		.4byte	.LVL1
 989 0057 3C000000 		.4byte	.LVL4
 990 005b 0100     		.2byte	0x1
 991 005d 54       		.byte	0x54
 992 005e 3C000000 		.4byte	.LVL4
 993 0062 4A000000 		.4byte	.LFE7
 994 0066 0800     		.2byte	0x8
 995 0068 F3       		.byte	0xf3
 996 0069 01       		.uleb128 0x1
 997 006a 50       		.byte	0x50
 998 006b 33       		.byte	0x33
 999 006c 1A       		.byte	0x1a
 1000 006d 33       		.byte	0x33
 1001 006e 24       		.byte	0x24
 1002 006f 9F       		.byte	0x9f
 1003 0070 00000000 		.4byte	0
 1004 0074 00000000 		.4byte	0
 1005              	.LLST3:
 1006 0078 00000000 		.4byte	.LVL5
 1007 007c 26000000 		.4byte	.LVL6
 1008 0080 0100     		.2byte	0x1
 1009 0082 50       		.byte	0x50
 1010 0083 26000000 		.4byte	.LVL6
 1011 0087 44000000 		.4byte	.LFE8
 1012 008b 0400     		.2byte	0x4
 1013 008d F3       		.byte	0xf3
 1014 008e 01       		.uleb128 0x1
 1015 008f 50       		.byte	0x50
 1016 0090 9F       		.byte	0x9f
 1017 0091 00000000 		.4byte	0
 1018 0095 00000000 		.4byte	0
 1019              	.LLST4:
 1020 0099 00000000 		.4byte	.LVL5
 1021 009d 26000000 		.4byte	.LVL6
 1022 00a1 0700     		.2byte	0x7
ARM GAS  C:\Users\jsyoon\AppData\Local\Temp\ccu2kUr6.s 			page 19


 1023 00a3 70       		.byte	0x70
 1024 00a4 00       		.sleb128 0
 1025 00a5 33       		.byte	0x33
 1026 00a6 1A       		.byte	0x1a
 1027 00a7 33       		.byte	0x33
 1028 00a8 24       		.byte	0x24
 1029 00a9 9F       		.byte	0x9f
 1030 00aa 26000000 		.4byte	.LVL6
 1031 00ae 2C000000 		.4byte	.LVL7
 1032 00b2 0800     		.2byte	0x8
 1033 00b4 F3       		.byte	0xf3
 1034 00b5 01       		.uleb128 0x1
 1035 00b6 50       		.byte	0x50
 1036 00b7 33       		.byte	0x33
 1037 00b8 1A       		.byte	0x1a
 1038 00b9 33       		.byte	0x33
 1039 00ba 24       		.byte	0x24
 1040 00bb 9F       		.byte	0x9f
 1041 00bc 2C000000 		.4byte	.LVL7
 1042 00c0 32000000 		.4byte	.LVL8
 1043 00c4 0100     		.2byte	0x1
 1044 00c6 50       		.byte	0x50
 1045 00c7 32000000 		.4byte	.LVL8
 1046 00cb 44000000 		.4byte	.LFE8
 1047 00cf 0800     		.2byte	0x8
 1048 00d1 F3       		.byte	0xf3
 1049 00d2 01       		.uleb128 0x1
 1050 00d3 50       		.byte	0x50
 1051 00d4 33       		.byte	0x33
 1052 00d5 1A       		.byte	0x1a
 1053 00d6 33       		.byte	0x33
 1054 00d7 24       		.byte	0x24
 1055 00d8 9F       		.byte	0x9f
 1056 00d9 00000000 		.4byte	0
 1057 00dd 00000000 		.4byte	0
 1058              	.LLST5:
 1059 00e1 00000000 		.4byte	.LVL9
 1060 00e5 10000000 		.4byte	.LVL10
 1061 00e9 0100     		.2byte	0x1
 1062 00eb 50       		.byte	0x50
 1063 00ec 10000000 		.4byte	.LVL10
 1064 00f0 2A000000 		.4byte	.LFE9
 1065 00f4 0400     		.2byte	0x4
 1066 00f6 F3       		.byte	0xf3
 1067 00f7 01       		.uleb128 0x1
 1068 00f8 50       		.byte	0x50
 1069 00f9 9F       		.byte	0x9f
 1070 00fa 00000000 		.4byte	0
 1071 00fe 00000000 		.4byte	0
 1072              	.LLST6:
 1073 0102 00000000 		.4byte	.LVL9
 1074 0106 20000000 		.4byte	.LVL12
 1075 010a 0100     		.2byte	0x1
 1076 010c 51       		.byte	0x51
 1077 010d 20000000 		.4byte	.LVL12
 1078 0111 2A000000 		.4byte	.LFE9
 1079 0115 0400     		.2byte	0x4
ARM GAS  C:\Users\jsyoon\AppData\Local\Temp\ccu2kUr6.s 			page 20


 1080 0117 F3       		.byte	0xf3
 1081 0118 01       		.uleb128 0x1
 1082 0119 51       		.byte	0x51
 1083 011a 9F       		.byte	0x9f
 1084 011b 00000000 		.4byte	0
 1085 011f 00000000 		.4byte	0
 1086              	.LLST7:
 1087 0123 00000000 		.4byte	.LVL9
 1088 0127 10000000 		.4byte	.LVL10
 1089 012b 0700     		.2byte	0x7
 1090 012d 70       		.byte	0x70
 1091 012e 00       		.sleb128 0
 1092 012f 33       		.byte	0x33
 1093 0130 1A       		.byte	0x1a
 1094 0131 33       		.byte	0x33
 1095 0132 24       		.byte	0x24
 1096 0133 9F       		.byte	0x9f
 1097 0134 10000000 		.4byte	.LVL10
 1098 0138 14000000 		.4byte	.LVL11
 1099 013c 0800     		.2byte	0x8
 1100 013e F3       		.byte	0xf3
 1101 013f 01       		.uleb128 0x1
 1102 0140 50       		.byte	0x50
 1103 0141 33       		.byte	0x33
 1104 0142 1A       		.byte	0x1a
 1105 0143 33       		.byte	0x33
 1106 0144 24       		.byte	0x24
 1107 0145 9F       		.byte	0x9f
 1108 0146 14000000 		.4byte	.LVL11
 1109 014a 2A000000 		.4byte	.LFE9
 1110 014e 0100     		.2byte	0x1
 1111 0150 50       		.byte	0x50
 1112 0151 00000000 		.4byte	0
 1113 0155 00000000 		.4byte	0
 1114              		.section	.debug_aranges,"",%progbits
 1115 0000 2C000000 		.4byte	0x2c
 1116 0004 0200     		.2byte	0x2
 1117 0006 00000000 		.4byte	.Ldebug_info0
 1118 000a 04       		.byte	0x4
 1119 000b 00       		.byte	0
 1120 000c 0000     		.2byte	0
 1121 000e 0000     		.2byte	0
 1122 0010 00000000 		.4byte	.LFB7
 1123 0014 4A000000 		.4byte	.LFE7-.LFB7
 1124 0018 00000000 		.4byte	.LFB8
 1125 001c 44000000 		.4byte	.LFE8-.LFB8
 1126 0020 00000000 		.4byte	.LFB9
 1127 0024 2A000000 		.4byte	.LFE9-.LFB9
 1128 0028 00000000 		.4byte	0
 1129 002c 00000000 		.4byte	0
 1130              		.section	.debug_ranges,"",%progbits
 1131              	.Ldebug_ranges0:
 1132 0000 00000000 		.4byte	.LFB7
 1133 0004 4A000000 		.4byte	.LFE7
 1134 0008 00000000 		.4byte	.LFB8
 1135 000c 44000000 		.4byte	.LFE8
 1136 0010 00000000 		.4byte	.LFB9
ARM GAS  C:\Users\jsyoon\AppData\Local\Temp\ccu2kUr6.s 			page 21


 1137 0014 2A000000 		.4byte	.LFE9
 1138 0018 00000000 		.4byte	0
 1139 001c 00000000 		.4byte	0
 1140              		.section	.debug_line,"",%progbits
 1141              	.Ldebug_line0:
 1142 0000 46010000 		.section	.debug_str,"MS",%progbits,1
 1142      0200F400 
 1142      00000201 
 1142      FB0E0D00 
 1142      01010101 
 1143              	.LASF43:
 1144 0000 7072696F 		.ascii	"prio\000"
 1144      00
 1145              	.LASF19:
 1146 0005 49435052 		.ascii	"ICPR\000"
 1146      00
 1147              	.LASF39:
 1148 000a 4D4D4652 		.ascii	"MMFR\000"
 1148      00
 1149              	.LASF47:
 1150 000f 474E5520 		.ascii	"GNU C 4.8.4 20140526 (release) [ARM/embedded-4_8-br"
 1150      4320342E 
 1150      382E3420 
 1150      32303134 
 1150      30353236 
 1151 0042 616E6368 		.ascii	"anch revision 211358] -mcpu=cortex-m4 -mfloat-abi=h"
 1151      20726576 
 1151      6973696F 
 1151      6E203231 
 1151      31333538 
 1152 0075 61726420 		.ascii	"ard -mfpu=fpv4-sp-d16 -mno-thumb-interwork -mthumb "
 1152      2D6D6670 
 1152      753D6670 
 1152      76342D73 
 1152      702D6431 
 1153 00a8 2D676764 		.ascii	"-ggdb -O2 -std=gnu99 -fomit-frame-pointer -falign-f"
 1153      62202D4F 
 1153      32202D73 
 1153      74643D67 
 1153      6E753939 
 1154 00db 756E6374 		.ascii	"unctions=16 -ffunction-sections -fdata-sections -fn"
 1154      696F6E73 
 1154      3D313620 
 1154      2D666675 
 1154      6E637469 
 1155 010e 6F2D636F 		.ascii	"o-common -fsingle-precision-constant\000"
 1155      6D6D6F6E 
 1155      202D6673 
 1155      696E676C 
 1155      652D7072 
 1156              	.LASF45:
 1157 0133 6E766963 		.ascii	"nvicDisableVector\000"
 1157      44697361 
 1157      626C6556 
 1157      6563746F 
 1157      7200
 1158              	.LASF26:
ARM GAS  C:\Users\jsyoon\AppData\Local\Temp\ccu2kUr6.s 			page 22


 1159 0145 434D785F 		.ascii	"CMx_NVIC\000"
 1159      4E564943 
 1159      00
 1160              	.LASF29:
 1161 014e 56544F52 		.ascii	"VTOR\000"
 1161      00
 1162              	.LASF3:
 1163 0153 73686F72 		.ascii	"short int\000"
 1163      7420696E 
 1163      7400
 1164              	.LASF11:
 1165 015d 5F426F6F 		.ascii	"_Bool\000"
 1165      6C00
 1166              	.LASF15:
 1167 0163 49434552 		.ascii	"ICER\000"
 1167      00
 1168              	.LASF12:
 1169 0168 494F5245 		.ascii	"IOREG32\000"
 1169      47333200 
 1170              	.LASF48:
 1171 0170 43686962 		.ascii	"ChibiOS_2.6.6/os/ports/common/ARMCMx/nvic.c\000"
 1171      694F535F 
 1171      322E362E 
 1171      362F6F73 
 1171      2F706F72 
 1172              	.LASF2:
 1173 019c 756E7369 		.ascii	"unsigned char\000"
 1173      676E6564 
 1173      20636861 
 1173      7200
 1174              	.LASF14:
 1175 01aa 756E7573 		.ascii	"unused1\000"
 1175      65643100 
 1176              	.LASF16:
 1177 01b2 756E7573 		.ascii	"unused2\000"
 1177      65643200 
 1178              	.LASF18:
 1179 01ba 756E7573 		.ascii	"unused3\000"
 1179      65643300 
 1180              	.LASF20:
 1181 01c2 756E7573 		.ascii	"unused4\000"
 1181      65643400 
 1182              	.LASF22:
 1183 01ca 756E7573 		.ascii	"unused5\000"
 1183      65643500 
 1184              	.LASF23:
 1185 01d2 756E7573 		.ascii	"unused6\000"
 1185      65643600 
 1186              	.LASF4:
 1187 01da 73686F72 		.ascii	"short unsigned int\000"
 1187      7420756E 
 1187      7369676E 
 1187      65642069 
 1187      6E7400
 1188              	.LASF33:
 1189 01ed 43465352 		.ascii	"CFSR\000"
 1189      00
ARM GAS  C:\Users\jsyoon\AppData\Local\Temp\ccu2kUr6.s 			page 23


 1190              	.LASF34:
 1191 01f2 48465352 		.ascii	"HFSR\000"
 1191      00
 1192              	.LASF6:
 1193 01f7 6C6F6E67 		.ascii	"long unsigned int\000"
 1193      20756E73 
 1193      69676E65 
 1193      6420696E 
 1193      7400
 1194              	.LASF40:
 1195 0209 43504143 		.ascii	"CPACR\000"
 1195      5200
 1196              	.LASF24:
 1197 020f 53544952 		.ascii	"STIR\000"
 1197      00
 1198              	.LASF9:
 1199 0214 5F5F7569 		.ascii	"__uint32_t\000"
 1199      6E743332 
 1199      5F7400
 1200              	.LASF0:
 1201 021f 756E7369 		.ascii	"unsigned int\000"
 1201      676E6564 
 1201      20696E74 
 1201      00
 1202              	.LASF17:
 1203 022c 49535052 		.ascii	"ISPR\000"
 1203      00
 1204              	.LASF35:
 1205 0231 44465352 		.ascii	"DFSR\000"
 1205      00
 1206              	.LASF8:
 1207 0236 6C6F6E67 		.ascii	"long long unsigned int\000"
 1207      206C6F6E 
 1207      6720756E 
 1207      7369676E 
 1207      65642069 
 1208              	.LASF28:
 1209 024d 49435352 		.ascii	"ICSR\000"
 1209      00
 1210              	.LASF41:
 1211 0252 434D785F 		.ascii	"CMx_SCB\000"
 1211      53434200 
 1212              	.LASF30:
 1213 025a 41495243 		.ascii	"AIRCR\000"
 1213      5200
 1214              	.LASF37:
 1215 0260 42464152 		.ascii	"BFAR\000"
 1215      00
 1216              	.LASF46:
 1217 0265 68616E64 		.ascii	"handler\000"
 1217      6C657200 
 1218              	.LASF25:
 1219 026d 73697A65 		.ascii	"sizetype\000"
 1219      74797065 
 1219      00
 1220              	.LASF7:
 1221 0276 6C6F6E67 		.ascii	"long long int\000"
ARM GAS  C:\Users\jsyoon\AppData\Local\Temp\ccu2kUr6.s 			page 24


 1221      206C6F6E 
 1221      6720696E 
 1221      7400
 1222              	.LASF27:
 1223 0284 43505549 		.ascii	"CPUID\000"
 1223      4400
 1224              	.LASF42:
 1225 028a 63686172 		.ascii	"char\000"
 1225      00
 1226              	.LASF49:
 1227 028f 453A5C4D 		.ascii	"E:\\Maker\\BLDC\\test_eval\\try2\\OROCA-BLDC_R15080"
 1227      616B6572 
 1227      5C424C44 
 1227      435C7465 
 1227      73745F65 
 1228 02bd 3700     		.ascii	"7\000"
 1229              	.LASF13:
 1230 02bf 49534552 		.ascii	"ISER\000"
 1230      00
 1231              	.LASF38:
 1232 02c4 41465352 		.ascii	"AFSR\000"
 1232      00
 1233              	.LASF36:
 1234 02c9 4D4D4641 		.ascii	"MMFAR\000"
 1234      5200
 1235              	.LASF32:
 1236 02cf 53484353 		.ascii	"SHCSR\000"
 1236      5200
 1237              	.LASF10:
 1238 02d5 75696E74 		.ascii	"uint32_t\000"
 1238      33325F74 
 1238      00
 1239              	.LASF5:
 1240 02de 6C6F6E67 		.ascii	"long int\000"
 1240      20696E74 
 1240      00
 1241              	.LASF31:
 1242 02e7 53485052 		.ascii	"SHPR\000"
 1242      00
 1243              	.LASF1:
 1244 02ec 7369676E 		.ascii	"signed char\000"
 1244      65642063 
 1244      68617200 
 1245              	.LASF50:
 1246 02f8 6E766963 		.ascii	"nvicSetSystemHandlerPriority\000"
 1246      53657453 
 1246      79737465 
 1246      6D48616E 
 1246      646C6572 
 1247              	.LASF21:
 1248 0315 49414252 		.ascii	"IABR\000"
 1248      00
 1249              	.LASF44:
 1250 031a 6E766963 		.ascii	"nvicEnableVector\000"
 1250      456E6162 
 1250      6C655665 
 1250      63746F72 
ARM GAS  C:\Users\jsyoon\AppData\Local\Temp\ccu2kUr6.s 			page 25


 1250      00
 1251              		.ident	"GCC: (GNU Tools for ARM Embedded Processors) 4.8.4 20140526 (release) [ARM/embedded-4_8-br
ARM GAS  C:\Users\jsyoon\AppData\Local\Temp\ccu2kUr6.s 			page 26


DEFINED SYMBOLS
                            *ABS*:00000000 nvic.c
C:\Users\jsyoon\AppData\Local\Temp\ccu2kUr6.s:21     .text.nvicEnableVector:00000000 $t
C:\Users\jsyoon\AppData\Local\Temp\ccu2kUr6.s:27     .text.nvicEnableVector:00000000 nvicEnableVector
C:\Users\jsyoon\AppData\Local\Temp\ccu2kUr6.s:86     .text.nvicDisableVector:00000000 $t
C:\Users\jsyoon\AppData\Local\Temp\ccu2kUr6.s:92     .text.nvicDisableVector:00000000 nvicDisableVector
C:\Users\jsyoon\AppData\Local\Temp\ccu2kUr6.s:137    .text.nvicDisableVector:00000040 $d
C:\Users\jsyoon\AppData\Local\Temp\ccu2kUr6.s:142    .text.nvicSetSystemHandlerPriority:00000000 $t
C:\Users\jsyoon\AppData\Local\Temp\ccu2kUr6.s:148    .text.nvicSetSystemHandlerPriority:00000000 nvicSetSystemHandlerPriority
                     .debug_frame:00000010 $d
C:\Users\jsyoon\AppData\Local\Temp\ccu2kUr6.s:141    .text.nvicDisableVector:00000044 $t

NO UNDEFINED SYMBOLS
