ARM GAS  C:\Users\jsyoon\AppData\Local\Temp\cccpbzKF.s 			page 1


   1              		.syntax unified
   2              		.cpu cortex-m4
   3              		.eabi_attribute 27, 3
   4              		.eabi_attribute 28, 1
   5              		.fpu fpv4-sp-d16
   6              		.eabi_attribute 20, 1
   7              		.eabi_attribute 21, 1
   8              		.eabi_attribute 23, 3
   9              		.eabi_attribute 24, 1
  10              		.eabi_attribute 25, 1
  11              		.eabi_attribute 26, 1
  12              		.eabi_attribute 30, 2
  13              		.eabi_attribute 34, 1
  14              		.eabi_attribute 18, 4
  15              		.thumb
  16              		.file	"packet.c"
  17              		.text
  18              	.Ltext0:
  19              		.cfi_sections	.debug_frame
  20              		.section	.text.packet_init,"ax",%progbits
  21              		.align	2
  22              		.p2align 4,,15
  23              		.global	packet_init
  24              		.thumb
  25              		.thumb_func
  26              		.type	packet_init, %function
  27              	packet_init:
  28              	.LFB0:
  29              		.file 1 "packet.c"
  30              		.loc 1 45 0
  31              		.cfi_startproc
  32              		@ args = 0, pretend = 0, frame = 0
  33              		@ frame_needed = 0, uses_anonymous_args = 0
  34              		@ link register save eliminated.
  35              	.LVL0:
  36              		.loc 1 46 0
  37 0000 034B     		ldr	r3, .L2
  38 0002 02EB8212 		add	r2, r2, r2, lsl #6
  39              	.LVL1:
  40 0006 03EB4212 		add	r2, r3, r2, lsl #5
  41 000a 5060     		str	r0, [r2, #4]
  42              		.loc 1 47 0
  43 000c 9160     		str	r1, [r2, #8]
  44 000e 7047     		bx	lr
  45              	.L3:
  46              		.align	2
  47              	.L2:
  48 0010 00000000 		.word	.LANCHOR0
  49              		.cfi_endproc
  50              	.LFE0:
  51              		.size	packet_init, .-packet_init
  52 0014 AFF30080 		.section	.text.packet_send_packet,"ax",%progbits
  52      AFF30080 
  52      AFF30080 
  53              		.align	2
  54              		.p2align 4,,15
  55              		.global	packet_send_packet
ARM GAS  C:\Users\jsyoon\AppData\Local\Temp\cccpbzKF.s 			page 2


  56              		.thumb
  57              		.thumb_func
  58              		.type	packet_send_packet, %function
  59              	packet_send_packet:
  60              	.LFB1:
  61              		.loc 1 50 0
  62              		.cfi_startproc
  63              		@ args = 0, pretend = 0, frame = 0
  64              		@ frame_needed = 0, uses_anonymous_args = 0
  65              	.LVL2:
  66              		.loc 1 51 0
  67 0000 B1F5806F 		cmp	r1, #1024
  68              		.loc 1 50 0
  69 0004 2DE9F843 		push	{r3, r4, r5, r6, r7, r8, r9, lr}
  70              		.cfi_def_cfa_offset 32
  71              		.cfi_offset 3, -32
  72              		.cfi_offset 4, -28
  73              		.cfi_offset 5, -24
  74              		.cfi_offset 6, -20
  75              		.cfi_offset 7, -16
  76              		.cfi_offset 8, -12
  77              		.cfi_offset 9, -8
  78              		.cfi_offset 14, -4
  79              		.loc 1 50 0
  80 0008 1746     		mov	r7, r2
  81              		.loc 1 51 0
  82 000a 3CD8     		bhi	.L4
  83              	.LVL3:
  84              		.loc 1 58 0
  85 000c 4FEA8219 		lsl	r9, r2, #6
  86 0010 DFF88C80 		ldr	r8, .L20
  87 0014 09EB0203 		add	r3, r9, r2
  88              		.loc 1 57 0
  89 0018 B1F5807F 		cmp	r1, #256
  90              		.loc 1 58 0
  91 001c 08EB4313 		add	r3, r8, r3, lsl #5
  92              		.loc 1 57 0
  93 0020 33D9     		bls	.L19
  94              	.LVL4:
  95              		.loc 1 62 0
  96 0022 0C0A     		lsrs	r4, r1, #8
  97              		.loc 1 61 0
  98 0024 0322     		movs	r2, #3
  99              	.LVL5:
 100              		.loc 1 63 0
 101 0026 83F81214 		strb	r1, [r3, #1042]
 102              		.loc 1 62 0
 103 002a 83F81144 		strb	r4, [r3, #1041]
 104              		.loc 1 61 0
 105 002e 83F81024 		strb	r2, [r3, #1040]
 106              	.LVL6:
 107              	.L8:
 108 0032 09EB0706 		add	r6, r9, r7
 109 0036 02EB4616 		add	r6, r2, r6, lsl #5
 110 003a 4644     		add	r6, r6, r8
 111              		.loc 1 63 0
 112 003c 0023     		movs	r3, #0
ARM GAS  C:\Users\jsyoon\AppData\Local\Temp\cccpbzKF.s 			page 3


 113              	.LVL7:
 114              	.L11:
 115 003e F418     		adds	r4, r6, r3
 116              	.LBB2:
 117              		.loc 1 67 0 discriminator 2
 118 0040 C55C     		ldrb	r5, [r0, r3]	@ zero_extendqisi2
 119 0042 84F81054 		strb	r5, [r4, #1040]
 120              		.loc 1 66 0 discriminator 2
 121 0046 0133     		adds	r3, r3, #1
 122              	.LVL8:
 123 0048 8B42     		cmp	r3, r1
 124 004a F8D1     		bne	.L11
 125 004c 5418     		adds	r4, r2, r1
 126 004e 661C     		adds	r6, r4, #1
 127              	.LVL9:
 128              	.L9:
 129              	.LBE2:
 130              		.loc 1 71 0
 131 0050 09EB0705 		add	r5, r9, r7
 132 0054 6D01     		lsls	r5, r5, #5
 133              		.loc 1 70 0
 134 0056 FFF7FEFF 		bl	crc16
 135              	.LVL10:
 136              		.loc 1 71 0
 137 005a 08EB0503 		add	r3, r8, r5
 138 005e 1A19     		adds	r2, r3, r4
 139              		.loc 1 72 0
 140 0060 1E44     		add	r6, r6, r3
 141              	.LVL11:
 142              		.loc 1 75 0
 143 0062 5B68     		ldr	r3, [r3, #4]
 144              		.loc 1 71 0
 145 0064 DFF83880 		ldr	r8, .L20
 146              		.loc 1 73 0
 147 0068 0327     		movs	r7, #3
 148              	.LVL12:
 149              		.loc 1 71 0
 150 006a 4FEA102C 		lsr	ip, r0, #8
 151 006e 82F810C4 		strb	ip, [r2, #1040]
 152              		.loc 1 73 0
 153 0072 E119     		adds	r1, r4, r7
 154              	.LVL13:
 155              		.loc 1 72 0
 156 0074 86F81004 		strb	r0, [r6, #1040]
 157              		.loc 1 73 0
 158 0078 82F81274 		strb	r7, [r2, #1042]
 159              		.loc 1 75 0
 160 007c 1BB1     		cbz	r3, .L4
 161              		.loc 1 76 0
 162 007e 05F58260 		add	r0, r5, #1040
 163              	.LVL14:
 164 0082 4044     		add	r0, r0, r8
 165 0084 9847     		blx	r3
 166              	.LVL15:
 167              	.L4:
 168 0086 BDE8F883 		pop	{r3, r4, r5, r6, r7, r8, r9, pc}
 169              	.LVL16:
ARM GAS  C:\Users\jsyoon\AppData\Local\Temp\cccpbzKF.s 			page 4


 170              	.L19:
 171              		.loc 1 58 0
 172 008a 0222     		movs	r2, #2
 173              	.LVL17:
 174              		.loc 1 59 0
 175 008c 83F81114 		strb	r1, [r3, #1041]
 176              		.loc 1 58 0
 177 0090 83F81024 		strb	r2, [r3, #1040]
 178              	.LVL18:
 179              	.LBB3:
 180              		.loc 1 66 0
 181 0094 0029     		cmp	r1, #0
 182 0096 CCD1     		bne	.L8
 183              	.LBE3:
 184              		.loc 1 59 0
 185 0098 1446     		mov	r4, r2
 186              	.LBB4:
 187              		.loc 1 66 0
 188 009a 0326     		movs	r6, #3
 189 009c D8E7     		b	.L9
 190              	.L21:
 191 009e 00BF     		.align	2
 192              	.L20:
 193 00a0 00000000 		.word	.LANCHOR0
 194              	.LBE4:
 195              		.cfi_endproc
 196              	.LFE1:
 197              		.size	packet_send_packet, .-packet_send_packet
 198 00a4 AFF30080 		.section	.text.packet_timerfunc,"ax",%progbits
 198      AFF30080 
 198      AFF30080 
 199              		.align	2
 200              		.p2align 4,,15
 201              		.global	packet_timerfunc
 202              		.thumb
 203              		.thumb_func
 204              		.type	packet_timerfunc, %function
 205              	packet_timerfunc:
 206              	.LFB2:
 207              		.loc 1 83 0
 208              		.cfi_startproc
 209              		@ args = 0, pretend = 0, frame = 0
 210              		@ frame_needed = 0, uses_anonymous_args = 0
 211              		@ link register save eliminated.
 212              	.LVL19:
 213              	.LBB5:
 214              		.loc 1 85 0
 215 0000 104B     		ldr	r3, .L28
 216 0002 5A78     		ldrb	r2, [r3, #1]	@ zero_extendqisi2
 217 0004 02F0FF01 		and	r1, r2, #255
 218 0008 82B9     		cbnz	r2, .L23
 219              	.LVL20:
 220              		.loc 1 88 0
 221 000a 1970     		strb	r1, [r3]
 222              		.loc 1 85 0
 223 000c 93F82138 		ldrb	r3, [r3, #2081]	@ zero_extendqisi2
 224 0010 0C4A     		ldr	r2, .L28
ARM GAS  C:\Users\jsyoon\AppData\Local\Temp\cccpbzKF.s 			page 5


 225 0012 03F0FF01 		and	r1, r3, #255
 226 0016 33B1     		cbz	r3, .L27
 227              	.L25:
 228              		.loc 1 86 0
 229 0018 92F82138 		ldrb	r3, [r2, #2081]	@ zero_extendqisi2
 230 001c 013B     		subs	r3, r3, #1
 231 001e DBB2     		uxtb	r3, r3
 232 0020 82F82138 		strb	r3, [r2, #2081]
 233              	.LVL21:
 234 0024 7047     		bx	lr
 235              	.LVL22:
 236              	.L27:
 237              		.loc 1 88 0
 238 0026 82F82018 		strb	r1, [r2, #2080]
 239 002a 7047     		bx	lr
 240              	.LVL23:
 241              	.L23:
 242              		.loc 1 86 0
 243 002c 5A78     		ldrb	r2, [r3, #1]	@ zero_extendqisi2
 244 002e 013A     		subs	r2, r2, #1
 245 0030 D2B2     		uxtb	r2, r2
 246 0032 5A70     		strb	r2, [r3, #1]
 247              	.LVL24:
 248              		.loc 1 85 0
 249 0034 93F82138 		ldrb	r3, [r3, #2081]	@ zero_extendqisi2
 250 0038 024A     		ldr	r2, .L28
 251 003a 03F0FF01 		and	r1, r3, #255
 252 003e 002B     		cmp	r3, #0
 253 0040 EAD1     		bne	.L25
 254 0042 F0E7     		b	.L27
 255              	.L29:
 256              		.align	2
 257              	.L28:
 258 0044 00000000 		.word	.LANCHOR0
 259              	.LBE5:
 260              		.cfi_endproc
 261              	.LFE2:
 262              		.size	packet_timerfunc, .-packet_timerfunc
 263 0048 AFF30080 		.section	.text.packet_process_byte,"ax",%progbits
 263      AFF30080 
 264              		.align	2
 265              		.p2align 4,,15
 266              		.global	packet_process_byte
 267              		.thumb
 268              		.thumb_func
 269              		.type	packet_process_byte, %function
 270              	packet_process_byte:
 271              	.LFB3:
 272              		.loc 1 93 0
 273              		.cfi_startproc
 274              		@ args = 0, pretend = 0, frame = 0
 275              		@ frame_needed = 0, uses_anonymous_args = 0
 276              	.LVL25:
 277 0000 2DE9F843 		push	{r3, r4, r5, r6, r7, r8, r9, lr}
 278              		.cfi_def_cfa_offset 32
 279              		.cfi_offset 3, -32
 280              		.cfi_offset 4, -28
ARM GAS  C:\Users\jsyoon\AppData\Local\Temp\cccpbzKF.s 			page 6


 281              		.cfi_offset 5, -24
 282              		.cfi_offset 6, -20
 283              		.cfi_offset 7, -16
 284              		.cfi_offset 8, -12
 285              		.cfi_offset 9, -8
 286              		.cfi_offset 14, -4
 287              		.loc 1 94 0
 288 0004 8E01     		lsls	r6, r1, #6
 289 0006 7318     		adds	r3, r6, r1
 290 0008 5B01     		lsls	r3, r3, #5
 291 000a 4C4D     		ldr	r5, .L55
 292 000c EB5C     		ldrb	r3, [r5, r3]	@ zero_extendqisi2
 293              		.loc 1 93 0
 294 000e 0C46     		mov	r4, r1
 295              		.loc 1 94 0
 296 0010 062B     		cmp	r3, #6
 297 0012 1ED8     		bhi	.L31
 298 0014 DFE803F0 		tbb	[pc, r3]
 299              	.L33:
 300 0018 23       		.byte	(.L32-.L33)/2
 301 0019 37       		.byte	(.L34-.L33)/2
 302 001a 44       		.byte	(.L35-.L33)/2
 303 001b 56       		.byte	(.L36-.L33)/2
 304 001c 74       		.byte	(.L37-.L33)/2
 305 001d 81       		.byte	(.L38-.L33)/2
 306 001e 04       		.byte	(.L39-.L33)/2
 307 001f 00       		.p2align 1
 308              	.L39:
 309              		.loc 1 150 0
 310 0020 0328     		cmp	r0, #3
 311 0022 16D1     		bne	.L31
 312              		.loc 1 151 0
 313 0024 7318     		adds	r3, r6, r1
 314 0026 5B01     		lsls	r3, r3, #5
 315 0028 EF18     		adds	r7, r5, r3
 316 002a 1033     		adds	r3, r3, #16
 317 002c 05EB0309 		add	r9, r5, r3
 318 0030 4846     		mov	r0, r9
 319              	.LVL26:
 320 0032 F968     		ldr	r1, [r7, #12]
 321              	.LVL27:
 322 0034 FFF7FEFF 		bl	crc16
 323              	.LVL28:
 324              		.loc 1 152 0
 325 0038 97F81D28 		ldrb	r2, [r7, #2077]	@ zero_extendqisi2
 326              		.loc 1 153 0
 327 003c 97F81C38 		ldrb	r3, [r7, #2076]	@ zero_extendqisi2
 328 0040 43EA0223 		orr	r3, r3, r2, lsl #8
 329              		.loc 1 151 0
 330 0044 9842     		cmp	r0, r3
 331 0046 04D1     		bne	.L31
 332              		.loc 1 155 0
 333 0048 BB68     		ldr	r3, [r7, #8]
 334 004a 13B1     		cbz	r3, .L31
 335              		.loc 1 156 0
 336 004c 4846     		mov	r0, r9
 337 004e F968     		ldr	r1, [r7, #12]
ARM GAS  C:\Users\jsyoon\AppData\Local\Temp\cccpbzKF.s 			page 7


 338 0050 9847     		blx	r3
 339              	.LVL29:
 340              	.L31:
 341              		.loc 1 165 0
 342 0052 3444     		add	r4, r4, r6
 343              	.LVL30:
 344 0054 6401     		lsls	r4, r4, #5
 345              	.L53:
 346 0056 0023     		movs	r3, #0
 347 0058 2B55     		strb	r3, [r5, r4]
 348 005a BDE8F883 		pop	{r3, r4, r5, r6, r7, r8, r9, pc}
 349              	.LVL31:
 350              	.L32:
 351              		.loc 1 98 0
 352 005e 3444     		add	r4, r4, r6
 353              		.loc 1 96 0
 354 0060 0228     		cmp	r0, #2
 355              		.loc 1 98 0
 356 0062 4FEA4414 		lsl	r4, r4, #5
 357              		.loc 1 96 0
 358 0066 63D0     		beq	.L54
 359              		.loc 1 102 0
 360 0068 0328     		cmp	r0, #3
 361 006a F4D1     		bne	.L53
 362              		.loc 1 104 0
 363 006c 2E5D     		ldrb	r6, [r5, r4]	@ zero_extendqisi2
 364 006e 0136     		adds	r6, r6, #1
 365 0070 2B19     		adds	r3, r5, r4
 366 0072 F6B2     		uxtb	r6, r6
 367              		.loc 1 105 0
 368 0074 0220     		movs	r0, #2
 369              	.LVL32:
 370              	.L51:
 371              		.loc 1 104 0
 372 0076 2E55     		strb	r6, [r5, r4]
 373              		.loc 1 106 0
 374 0078 0022     		movs	r2, #0
 375              		.loc 1 105 0
 376 007a 5870     		strb	r0, [r3, #1]
 377              		.loc 1 106 0
 378 007c C3F81828 		str	r2, [r3, #2072]
 379              		.loc 1 107 0
 380 0080 DA60     		str	r2, [r3, #12]
 381 0082 BDE8F883 		pop	{r3, r4, r5, r6, r7, r8, r9, pc}
 382              	.LVL33:
 383              	.L34:
 384              		.loc 1 114 0
 385 0086 3444     		add	r4, r4, r6
 386 0088 6401     		lsls	r4, r4, #5
 387 008a 2B19     		adds	r3, r5, r4
 388              		.loc 1 115 0
 389 008c 295D     		ldrb	r1, [r5, r4]	@ zero_extendqisi2
 390              	.LVL34:
 391 008e 0131     		adds	r1, r1, #1
 392              		.loc 1 114 0
 393 0090 0002     		lsls	r0, r0, #8
 394              	.LVL35:
ARM GAS  C:\Users\jsyoon\AppData\Local\Temp\cccpbzKF.s 			page 8


 395              		.loc 1 115 0
 396 0092 C9B2     		uxtb	r1, r1
 397              		.loc 1 116 0
 398 0094 0222     		movs	r2, #2
 399              		.loc 1 114 0
 400 0096 D860     		str	r0, [r3, #12]
 401              		.loc 1 115 0
 402 0098 2955     		strb	r1, [r5, r4]
 403              		.loc 1 116 0
 404 009a 5A70     		strb	r2, [r3, #1]
 405              		.loc 1 117 0
 406 009c BDE8F883 		pop	{r3, r4, r5, r6, r7, r8, r9, pc}
 407              	.LVL36:
 408              	.L35:
 409              		.loc 1 120 0
 410 00a0 3444     		add	r4, r4, r6
 411 00a2 6401     		lsls	r4, r4, #5
 412 00a4 2544     		add	r5, r5, r4
 413 00a6 254A     		ldr	r2, .L55
 414 00a8 E968     		ldr	r1, [r5, #12]
 415              	.LVL37:
 416 00aa 0843     		orrs	r0, r0, r1
 417              	.LVL38:
 418              		.loc 1 121 0
 419 00ac B0F5806F 		cmp	r0, #1024
 420              		.loc 1 120 0
 421 00b0 E860     		str	r0, [r5, #12]
 422              		.loc 1 121 0
 423 00b2 39D8     		bhi	.L43
 424              		.loc 1 122 0
 425 00b4 115D     		ldrb	r1, [r2, r4]	@ zero_extendqisi2
 426 00b6 0131     		adds	r1, r1, #1
 427 00b8 C9B2     		uxtb	r1, r1
 428              		.loc 1 123 0
 429 00ba 0223     		movs	r3, #2
 430              		.loc 1 122 0
 431 00bc 1155     		strb	r1, [r2, r4]
 432              		.loc 1 123 0
 433 00be 6B70     		strb	r3, [r5, #1]
 434 00c0 BDE8F883 		pop	{r3, r4, r5, r6, r7, r8, r9, pc}
 435              	.LVL39:
 436              	.L36:
 437              		.loc 1 130 0
 438 00c4 7118     		adds	r1, r6, r1
 439              	.LVL40:
 440 00c6 4901     		lsls	r1, r1, #5
 441 00c8 6B18     		adds	r3, r5, r1
 442 00ca DFF87080 		ldr	r8, .L55
 443 00ce D3F81828 		ldr	r2, [r3, #2072]
 444              		.loc 1 131 0
 445 00d2 DF68     		ldr	r7, [r3, #12]
 446              		.loc 1 130 0
 447 00d4 03EB020C 		add	ip, r3, r2
 448 00d8 0132     		adds	r2, r2, #1
 449              		.loc 1 131 0
 450 00da BA42     		cmp	r2, r7
 451              		.loc 1 130 0
ARM GAS  C:\Users\jsyoon\AppData\Local\Temp\cccpbzKF.s 			page 9


 452 00dc C3F81828 		str	r2, [r3, #2072]
 453 00e0 8CF81000 		strb	r0, [ip, #16]
 454              		.loc 1 131 0
 455 00e4 05D1     		bne	.L44
 456              		.loc 1 132 0
 457 00e6 18F80130 		ldrb	r3, [r8, r1]	@ zero_extendqisi2
 458 00ea 0133     		adds	r3, r3, #1
 459 00ec DBB2     		uxtb	r3, r3
 460 00ee 08F80130 		strb	r3, [r8, r1]
 461              	.L44:
 462              		.loc 1 134 0
 463 00f2 3444     		add	r4, r4, r6
 464              	.LVL41:
 465 00f4 05EB4415 		add	r5, r5, r4, lsl #5
 466 00f8 0223     		movs	r3, #2
 467 00fa 6B70     		strb	r3, [r5, #1]
 468              		.loc 1 135 0
 469 00fc BDE8F883 		pop	{r3, r4, r5, r6, r7, r8, r9, pc}
 470              	.LVL42:
 471              	.L37:
 472              		.loc 1 138 0
 473 0100 3444     		add	r4, r4, r6
 474 0102 6401     		lsls	r4, r4, #5
 475 0104 2B19     		adds	r3, r5, r4
 476              		.loc 1 139 0
 477 0106 295D     		ldrb	r1, [r5, r4]	@ zero_extendqisi2
 478              	.LVL43:
 479              		.loc 1 138 0
 480 0108 83F81D08 		strb	r0, [r3, #2077]
 481              	.L52:
 482              		.loc 1 145 0
 483 010c 0131     		adds	r1, r1, #1
 484 010e C9B2     		uxtb	r1, r1
 485              		.loc 1 146 0
 486 0110 0222     		movs	r2, #2
 487              		.loc 1 145 0
 488 0112 2955     		strb	r1, [r5, r4]
 489              		.loc 1 146 0
 490 0114 5A70     		strb	r2, [r3, #1]
 491              		.loc 1 147 0
 492 0116 BDE8F883 		pop	{r3, r4, r5, r6, r7, r8, r9, pc}
 493              	.LVL44:
 494              	.L38:
 495              		.loc 1 144 0
 496 011a 3444     		add	r4, r4, r6
 497 011c 6401     		lsls	r4, r4, #5
 498 011e 2B19     		adds	r3, r5, r4
 499              		.loc 1 145 0
 500 0120 295D     		ldrb	r1, [r5, r4]	@ zero_extendqisi2
 501              	.LVL45:
 502              		.loc 1 144 0
 503 0122 83F81C08 		strb	r0, [r3, #2076]
 504 0126 F1E7     		b	.L52
 505              	.LVL46:
 506              	.L43:
 507              		.loc 1 125 0
 508 0128 0023     		movs	r3, #0
ARM GAS  C:\Users\jsyoon\AppData\Local\Temp\cccpbzKF.s 			page 10


 509 012a 1355     		strb	r3, [r2, r4]
 510 012c BDE8F883 		pop	{r3, r4, r5, r6, r7, r8, r9, pc}
 511              	.LVL47:
 512              	.L54:
 513              		.loc 1 98 0
 514 0130 2E5D     		ldrb	r6, [r5, r4]	@ zero_extendqisi2
 515 0132 0236     		adds	r6, r6, #2
 516 0134 2B19     		adds	r3, r5, r4
 517 0136 F6B2     		uxtb	r6, r6
 518 0138 9DE7     		b	.L51
 519              	.L56:
 520 013a 00BF     		.align	2
 521              	.L55:
 522 013c 00000000 		.word	.LANCHOR0
 523              		.cfi_endproc
 524              	.LFE3:
 525              		.size	packet_process_byte, .-packet_process_byte
 526              		.section	.bss.handler_states,"aw",%nobits
 527              		.align	2
 528              		.set	.LANCHOR0,. + 0
 529              		.type	handler_states, %object
 530              		.size	handler_states, 4160
 531              	handler_states:
 532 0000 00000000 		.space	4160
 532      00000000 
 532      00000000 
 532      00000000 
 532      00000000 
 533              		.text
 534              	.Letext0:
 535              		.file 2 "c:\\crosstools\\gcc-arm-embedded\\4.8_2014q2\\arm-none-eabi\\include\\machine\\_default_t
 536              		.file 3 "c:\\crosstools\\gcc-arm-embedded\\4.8_2014q2\\arm-none-eabi\\include\\stdint.h"
 537              		.file 4 "crc.h"