ARM GAS  C:\Users\ADMINI~1\AppData\Local\Temp\ccrDo7T3.s 			page 1


   1              		.syntax unified
   2              		.cpu cortex-m4
   3              		.eabi_attribute 27, 1
   4              		.eabi_attribute 28, 1
   5              		.fpu fpv4-sp-d16
   6              		.eabi_attribute 20, 1
   7              		.eabi_attribute 21, 1
   8              		.eabi_attribute 23, 3
   9              		.eabi_attribute 24, 1
  10              		.eabi_attribute 25, 1
  11              		.eabi_attribute 26, 1
  12              		.eabi_attribute 30, 2
  13              		.eabi_attribute 34, 1
  14              		.eabi_attribute 18, 4
  15              		.thumb
  16              		.file	"packet.c"
  17              		.text
  18              	.Ltext0:
  19              		.cfi_sections	.debug_frame
  20              		.section	.text.packet_init,"ax",%progbits
  21              		.align	2
  22              		.p2align 4,,15
  23              		.global	packet_init
  24              		.thumb
  25              		.thumb_func
  26              		.type	packet_init, %function
  27              	packet_init:
  28              	.LFB0:
  29              		.file 1 "packet.c"
  30              		.loc 1 45 0
  31              		.cfi_startproc
  32              		@ args = 0, pretend = 0, frame = 0
  33              		@ frame_needed = 0, uses_anonymous_args = 0
  34              		@ link register save eliminated.
  35              	.LVL0:
  36              		.loc 1 46 0
  37 0000 034B     		ldr	r3, .L2
  38 0002 02EB8212 		add	r2, r2, r2, lsl #6
  39              	.LVL1:
  40 0006 03EB4212 		add	r2, r3, r2, lsl #5
  41 000a 5060     		str	r0, [r2, #4]
  42              		.loc 1 47 0
  43 000c 9160     		str	r1, [r2, #8]
  44 000e 7047     		bx	lr
  45              	.L3:
  46              		.align	2
  47              	.L2:
  48 0010 00000000 		.word	.LANCHOR0
  49              		.cfi_endproc
  50              	.LFE0:
  51              		.size	packet_init, .-packet_init
  52              		.section	.text.packet_send_packet,"ax",%progbits
  53              		.align	2
  54              		.p2align 4,,15
  55              		.global	packet_send_packet
  56              		.thumb
  57              		.thumb_func
ARM GAS  C:\Users\ADMINI~1\AppData\Local\Temp\ccrDo7T3.s 			page 2


  58              		.type	packet_send_packet, %function
  59              	packet_send_packet:
  60              	.LFB1:
  61              		.loc 1 50 0
  62              		.cfi_startproc
  63              		@ args = 0, pretend = 0, frame = 0
  64              		@ frame_needed = 0, uses_anonymous_args = 0
  65              	.LVL2:
  66              		.loc 1 51 0
  67 0000 B1F5806F 		cmp	r1, #1024
  68 0004 53D8     		bhi	.L18
  69              		.loc 1 50 0
  70 0006 2DE9F047 		push	{r4, r5, r6, r7, r8, r9, r10, lr}
  71              		.cfi_def_cfa_offset 32
  72              		.cfi_offset 4, -32
  73              		.cfi_offset 5, -28
  74              		.cfi_offset 6, -24
  75              		.cfi_offset 7, -20
  76              		.cfi_offset 8, -16
  77              		.cfi_offset 9, -12
  78              		.cfi_offset 10, -8
  79              		.cfi_offset 14, -4
  80              		.loc 1 58 0
  81 000a 4FEA8219 		lsl	r9, r2, #6
  82 000e DFF8A480 		ldr	r8, .L21
  83 0012 09EB0203 		add	r3, r9, r2
  84              		.loc 1 57 0
  85 0016 B1F5807F 		cmp	r1, #256
  86 001a 1746     		mov	r7, r2
  87              	.LVL3:
  88              		.loc 1 58 0
  89 001c 08EB4313 		add	r3, r8, r3, lsl #5
  90              		.loc 1 57 0
  91 0020 3BD9     		bls	.L20
  92              	.LVL4:
  93              		.loc 1 62 0
  94 0022 0C0A     		lsrs	r4, r1, #8
  95              		.loc 1 61 0
  96 0024 0322     		movs	r2, #3
  97              	.LVL5:
  98              		.loc 1 63 0
  99 0026 83F81214 		strb	r1, [r3, #1042]
 100              		.loc 1 62 0
 101 002a 83F81144 		strb	r4, [r3, #1041]
 102              		.loc 1 61 0
 103 002e 83F81024 		strb	r2, [r3, #1040]
 104              	.LVL6:
 105              	.L8:
 106 0032 09EB0703 		add	r3, r9, r7
 107 0036 5B01     		lsls	r3, r3, #5
 108 0038 CE18     		adds	r6, r1, r3
 109 003a 06F20F46 		addw	r6, r6, #1039
 110 003e 03F20F43 		addw	r3, r3, #1039
 111 0042 1644     		add	r6, r6, r2
 112 0044 1344     		add	r3, r3, r2
 113 0046 4644     		add	r6, r6, r8
 114 0048 4344     		add	r3, r3, r8
ARM GAS  C:\Users\ADMINI~1\AppData\Local\Temp\ccrDo7T3.s 			page 3


 115 004a 441E     		subs	r4, r0, #1
 116              	.LVL7:
 117              	.L10:
 118              	.LBB2:
 119              		.loc 1 67 0 discriminator 3
 120 004c 14F8015F 		ldrb	r5, [r4, #1]!	@ zero_extendqisi2
 121 0050 03F8015F 		strb	r5, [r3, #1]!
 122              		.loc 1 66 0 discriminator 3
 123 0054 B342     		cmp	r3, r6
 124 0056 F9D1     		bne	.L10
 125 0058 8C18     		adds	r4, r1, r2
 126 005a 651C     		adds	r5, r4, #1
 127              	.L9:
 128              	.LBE2:
 129              		.loc 1 70 0
 130 005c FFF7FEFF 		bl	crc16
 131              	.LVL8:
 132              		.loc 1 71 0
 133 0060 09EB0703 		add	r3, r9, r7
 134 0064 5B01     		lsls	r3, r3, #5
 135 0066 9844     		add	r8, r8, r3
 136 0068 08EB0402 		add	r2, r8, r4
 137              		.loc 1 72 0
 138 006c 4544     		add	r5, r5, r8
 139              	.LVL9:
 140              		.loc 1 75 0
 141 006e D8F80460 		ldr	r6, [r8, #4]
 142              		.loc 1 71 0
 143 0072 DFF840C0 		ldr	ip, .L21
 144              		.loc 1 73 0
 145 0076 0327     		movs	r7, #3
 146              	.LVL10:
 147              		.loc 1 71 0
 148 0078 4FEA102E 		lsr	lr, r0, #8
 149 007c 82F810E4 		strb	lr, [r2, #1040]
 150              		.loc 1 73 0
 151 0080 E119     		adds	r1, r4, r7
 152              	.LVL11:
 153              		.loc 1 72 0
 154 0082 85F81004 		strb	r0, [r5, #1040]
 155              		.loc 1 73 0
 156 0086 82F81274 		strb	r7, [r2, #1042]
 157              		.loc 1 75 0
 158 008a 8EB1     		cbz	r6, .L4
 159              		.loc 1 76 0
 160 008c 03F58260 		add	r0, r3, #1040
 161              	.LVL12:
 162 0090 6044     		add	r0, r0, ip
 163 0092 3346     		mov	r3, r6
 164              		.loc 1 78 0
 165 0094 BDE8F047 		pop	{r4, r5, r6, r7, r8, r9, r10, lr}
 166              		.cfi_remember_state
 167              		.cfi_restore 14
 168              		.cfi_restore 10
 169              		.cfi_restore 9
 170              		.cfi_restore 8
 171              		.cfi_restore 7
ARM GAS  C:\Users\ADMINI~1\AppData\Local\Temp\ccrDo7T3.s 			page 4


 172              		.cfi_restore 6
 173              		.cfi_restore 5
 174              		.cfi_restore 4
 175              		.cfi_def_cfa_offset 0
 176              		.loc 1 76 0
 177 0098 1847     		bx	r3	@ indirect register sibling call
 178              	.LVL13:
 179              	.L20:
 180              		.cfi_restore_state
 181              		.loc 1 58 0
 182 009a 0222     		movs	r2, #2
 183              	.LVL14:
 184              		.loc 1 59 0
 185 009c 83F81114 		strb	r1, [r3, #1041]
 186              		.loc 1 58 0
 187 00a0 83F81024 		strb	r2, [r3, #1040]
 188              	.LVL15:
 189              	.LBB3:
 190              		.loc 1 66 0
 191 00a4 0029     		cmp	r1, #0
 192 00a6 C4D1     		bne	.L8
 193              	.LBE3:
 194              		.loc 1 59 0
 195 00a8 1446     		mov	r4, r2
 196              	.LBB4:
 197              		.loc 1 66 0
 198 00aa 0325     		movs	r5, #3
 199 00ac D6E7     		b	.L9
 200              	.LVL16:
 201              	.L18:
 202              		.cfi_def_cfa_offset 0
 203              		.cfi_restore 4
 204              		.cfi_restore 5
 205              		.cfi_restore 6
 206              		.cfi_restore 7
 207              		.cfi_restore 8
 208              		.cfi_restore 9
 209              		.cfi_restore 10
 210              		.cfi_restore 14
 211 00ae 7047     		bx	lr
 212              	.LVL17:
 213              	.L4:
 214              		.cfi_def_cfa_offset 32
 215              		.cfi_offset 4, -32
 216              		.cfi_offset 5, -28
 217              		.cfi_offset 6, -24
 218              		.cfi_offset 7, -20
 219              		.cfi_offset 8, -16
 220              		.cfi_offset 9, -12
 221              		.cfi_offset 10, -8
 222              		.cfi_offset 14, -4
 223 00b0 BDE8F087 		pop	{r4, r5, r6, r7, r8, r9, r10, pc}
 224              	.L22:
 225              		.align	2
 226              	.L21:
 227 00b4 00000000 		.word	.LANCHOR0
 228              	.LBE4:
ARM GAS  C:\Users\ADMINI~1\AppData\Local\Temp\ccrDo7T3.s 			page 5


 229              		.cfi_endproc
 230              	.LFE1:
 231              		.size	packet_send_packet, .-packet_send_packet
 232              		.section	.text.packet_timerfunc,"ax",%progbits
 233              		.align	2
 234              		.p2align 4,,15
 235              		.global	packet_timerfunc
 236              		.thumb
 237              		.thumb_func
 238              		.type	packet_timerfunc, %function
 239              	packet_timerfunc:
 240              	.LFB2:
 241              		.loc 1 83 0
 242              		.cfi_startproc
 243              		@ args = 0, pretend = 0, frame = 0
 244              		@ frame_needed = 0, uses_anonymous_args = 0
 245              		@ link register save eliminated.
 246              	.LVL18:
 247              	.LBB5:
 248              		.loc 1 85 0
 249 0000 104B     		ldr	r3, .L29
 250 0002 5A78     		ldrb	r2, [r3, #1]	@ zero_extendqisi2
 251 0004 02F0FF01 		and	r1, r2, #255
 252 0008 82B9     		cbnz	r2, .L24
 253              	.LVL19:
 254              		.loc 1 88 0
 255 000a 1970     		strb	r1, [r3]
 256              		.loc 1 85 0
 257 000c 93F82138 		ldrb	r3, [r3, #2081]	@ zero_extendqisi2
 258 0010 0C4A     		ldr	r2, .L29
 259 0012 03F0FF01 		and	r1, r3, #255
 260 0016 33B1     		cbz	r3, .L28
 261              	.L26:
 262              		.loc 1 86 0
 263 0018 92F82138 		ldrb	r3, [r2, #2081]	@ zero_extendqisi2
 264 001c 013B     		subs	r3, r3, #1
 265 001e DBB2     		uxtb	r3, r3
 266 0020 82F82138 		strb	r3, [r2, #2081]
 267              	.LVL20:
 268 0024 7047     		bx	lr
 269              	.LVL21:
 270              	.L28:
 271              		.loc 1 88 0
 272 0026 82F82018 		strb	r1, [r2, #2080]
 273 002a 7047     		bx	lr
 274              	.LVL22:
 275              	.L24:
 276              		.loc 1 86 0
 277 002c 5A78     		ldrb	r2, [r3, #1]	@ zero_extendqisi2
 278 002e 013A     		subs	r2, r2, #1
 279 0030 D2B2     		uxtb	r2, r2
 280 0032 5A70     		strb	r2, [r3, #1]
 281              	.LVL23:
 282              		.loc 1 85 0
 283 0034 93F82138 		ldrb	r3, [r3, #2081]	@ zero_extendqisi2
 284 0038 024A     		ldr	r2, .L29
 285 003a 03F0FF01 		and	r1, r3, #255
ARM GAS  C:\Users\ADMINI~1\AppData\Local\Temp\ccrDo7T3.s 			page 6


 286 003e 002B     		cmp	r3, #0
 287 0040 EAD1     		bne	.L26
 288 0042 F0E7     		b	.L28
 289              	.L30:
 290              		.align	2
 291              	.L29:
 292 0044 00000000 		.word	.LANCHOR0
 293              	.LBE5:
 294              		.cfi_endproc
 295              	.LFE2:
 296              		.size	packet_timerfunc, .-packet_timerfunc
 297              		.section	.text.packet_process_byte,"ax",%progbits
 298              		.align	2
 299              		.p2align 4,,15
 300              		.global	packet_process_byte
 301              		.thumb
 302              		.thumb_func
 303              		.type	packet_process_byte, %function
 304              	packet_process_byte:
 305              	.LFB3:
 306              		.loc 1 93 0
 307              		.cfi_startproc
 308              		@ args = 0, pretend = 0, frame = 0
 309              		@ frame_needed = 0, uses_anonymous_args = 0
 310              	.LVL24:
 311 0000 2DE9F843 		push	{r3, r4, r5, r6, r7, r8, r9, lr}
 312              		.cfi_def_cfa_offset 32
 313              		.cfi_offset 3, -32
 314              		.cfi_offset 4, -28
 315              		.cfi_offset 5, -24
 316              		.cfi_offset 6, -20
 317              		.cfi_offset 7, -16
 318              		.cfi_offset 8, -12
 319              		.cfi_offset 9, -8
 320              		.cfi_offset 14, -4
 321              		.loc 1 94 0
 322 0004 8E01     		lsls	r6, r1, #6
 323 0006 7318     		adds	r3, r6, r1
 324 0008 5B01     		lsls	r3, r3, #5
 325 000a 4D4D     		ldr	r5, .L57
 326 000c EB5C     		ldrb	r3, [r5, r3]	@ zero_extendqisi2
 327              		.loc 1 93 0
 328 000e 0C46     		mov	r4, r1
 329              		.loc 1 94 0
 330 0010 062B     		cmp	r3, #6
 331 0012 21D8     		bhi	.L32
 332 0014 DFE803F0 		tbb	[pc, r3]
 333              	.L34:
 334 0018 26       		.byte	(.L33-.L34)/2
 335 0019 3A       		.byte	(.L35-.L34)/2
 336 001a 47       		.byte	(.L36-.L34)/2
 337 001b 59       		.byte	(.L37-.L34)/2
 338 001c 77       		.byte	(.L38-.L34)/2
 339 001d 84       		.byte	(.L39-.L34)/2
 340 001e 04       		.byte	(.L40-.L34)/2
 341 001f 00       		.p2align 1
 342              	.L40:
ARM GAS  C:\Users\ADMINI~1\AppData\Local\Temp\ccrDo7T3.s 			page 7


 343              		.loc 1 150 0
 344 0020 0328     		cmp	r0, #3
 345 0022 19D1     		bne	.L32
 346              		.loc 1 151 0
 347 0024 7318     		adds	r3, r6, r1
 348 0026 5B01     		lsls	r3, r3, #5
 349 0028 05EB0308 		add	r8, r5, r3
 350 002c 1033     		adds	r3, r3, #16
 351 002e EF18     		adds	r7, r5, r3
 352 0030 D8F80C10 		ldr	r1, [r8, #12]
 353              	.LVL25:
 354 0034 3846     		mov	r0, r7
 355              	.LVL26:
 356 0036 FFF7FEFF 		bl	crc16
 357              	.LVL27:
 358              		.loc 1 152 0
 359 003a 98F81D18 		ldrb	r1, [r8, #2077]	@ zero_extendqisi2
 360              		.loc 1 153 0
 361 003e 98F81C38 		ldrb	r3, [r8, #2076]	@ zero_extendqisi2
 362 0042 43EA0123 		orr	r3, r3, r1, lsl #8
 363              		.loc 1 151 0
 364 0046 9842     		cmp	r0, r3
 365 0048 06D1     		bne	.L32
 366              		.loc 1 155 0
 367 004a D8F80830 		ldr	r3, [r8, #8]
 368 004e 1BB1     		cbz	r3, .L32
 369              		.loc 1 156 0
 370 0050 3846     		mov	r0, r7
 371 0052 D8F80C10 		ldr	r1, [r8, #12]
 372 0056 9847     		blx	r3
 373              	.LVL28:
 374              	.L32:
 375              		.loc 1 165 0
 376 0058 3444     		add	r4, r4, r6
 377              	.LVL29:
 378 005a 6401     		lsls	r4, r4, #5
 379              	.L55:
 380 005c 0023     		movs	r3, #0
 381 005e 2B55     		strb	r3, [r5, r4]
 382 0060 BDE8F883 		pop	{r3, r4, r5, r6, r7, r8, r9, pc}
 383              	.LVL30:
 384              	.L33:
 385              		.loc 1 98 0
 386 0064 3444     		add	r4, r4, r6
 387              		.loc 1 96 0
 388 0066 0228     		cmp	r0, #2
 389              		.loc 1 98 0
 390 0068 4FEA4414 		lsl	r4, r4, #5
 391              		.loc 1 96 0
 392 006c 63D0     		beq	.L56
 393              		.loc 1 102 0
 394 006e 0328     		cmp	r0, #3
 395 0070 F4D1     		bne	.L55
 396              		.loc 1 104 0
 397 0072 2B5D     		ldrb	r3, [r5, r4]	@ zero_extendqisi2
 398 0074 0133     		adds	r3, r3, #1
 399 0076 2A19     		adds	r2, r5, r4
ARM GAS  C:\Users\ADMINI~1\AppData\Local\Temp\ccrDo7T3.s 			page 8


 400 0078 DBB2     		uxtb	r3, r3
 401              		.loc 1 105 0
 402 007a 0220     		movs	r0, #2
 403              	.LVL31:
 404              	.L53:
 405              		.loc 1 104 0
 406 007c 2B55     		strb	r3, [r5, r4]
 407              		.loc 1 106 0
 408 007e 0021     		movs	r1, #0
 409              	.LVL32:
 410              		.loc 1 105 0
 411 0080 5070     		strb	r0, [r2, #1]
 412              		.loc 1 107 0
 413 0082 D160     		str	r1, [r2, #12]
 414              		.loc 1 106 0
 415 0084 C2F81818 		str	r1, [r2, #2072]
 416 0088 BDE8F883 		pop	{r3, r4, r5, r6, r7, r8, r9, pc}
 417              	.LVL33:
 418              	.L35:
 419              		.loc 1 114 0
 420 008c 3444     		add	r4, r4, r6
 421 008e 6401     		lsls	r4, r4, #5
 422 0090 2A19     		adds	r2, r5, r4
 423              		.loc 1 115 0
 424 0092 2B5D     		ldrb	r3, [r5, r4]	@ zero_extendqisi2
 425 0094 0133     		adds	r3, r3, #1
 426 0096 DBB2     		uxtb	r3, r3
 427              		.loc 1 116 0
 428 0098 0221     		movs	r1, #2
 429              	.LVL34:
 430              		.loc 1 115 0
 431 009a 2B55     		strb	r3, [r5, r4]
 432              		.loc 1 114 0
 433 009c 0002     		lsls	r0, r0, #8
 434              	.LVL35:
 435              		.loc 1 116 0
 436 009e 5170     		strb	r1, [r2, #1]
 437              		.loc 1 114 0
 438 00a0 D060     		str	r0, [r2, #12]
 439              		.loc 1 117 0
 440 00a2 BDE8F883 		pop	{r3, r4, r5, r6, r7, r8, r9, pc}
 441              	.LVL36:
 442              	.L36:
 443              		.loc 1 120 0
 444 00a6 3444     		add	r4, r4, r6
 445 00a8 6401     		lsls	r4, r4, #5
 446 00aa 2544     		add	r5, r5, r4
 447 00ac 2449     		ldr	r1, .L57
 448              	.LVL37:
 449 00ae EB68     		ldr	r3, [r5, #12]
 450 00b0 1843     		orrs	r0, r0, r3
 451              	.LVL38:
 452              		.loc 1 121 0
 453 00b2 B0F5806F 		cmp	r0, #1024
 454              		.loc 1 120 0
 455 00b6 E860     		str	r0, [r5, #12]
 456              		.loc 1 121 0
ARM GAS  C:\Users\ADMINI~1\AppData\Local\Temp\ccrDo7T3.s 			page 9


 457 00b8 39D8     		bhi	.L44
 458              		.loc 1 122 0
 459 00ba 0B5D     		ldrb	r3, [r1, r4]	@ zero_extendqisi2
 460 00bc 0133     		adds	r3, r3, #1
 461 00be DBB2     		uxtb	r3, r3
 462              		.loc 1 123 0
 463 00c0 0222     		movs	r2, #2
 464              		.loc 1 122 0
 465 00c2 0B55     		strb	r3, [r1, r4]
 466              		.loc 1 123 0
 467 00c4 6A70     		strb	r2, [r5, #1]
 468 00c6 BDE8F883 		pop	{r3, r4, r5, r6, r7, r8, r9, pc}
 469              	.LVL39:
 470              	.L37:
 471              		.loc 1 130 0
 472 00ca 7118     		adds	r1, r6, r1
 473              	.LVL40:
 474 00cc 4901     		lsls	r1, r1, #5
 475 00ce 6A18     		adds	r2, r5, r1
 476 00d0 DFF86CC0 		ldr	ip, .L57
 477 00d4 D2F81838 		ldr	r3, [r2, #2072]
 478              		.loc 1 131 0
 479 00d8 D768     		ldr	r7, [r2, #12]
 480              		.loc 1 130 0
 481 00da 02EB030E 		add	lr, r2, r3
 482 00de 0133     		adds	r3, r3, #1
 483              		.loc 1 131 0
 484 00e0 BB42     		cmp	r3, r7
 485              		.loc 1 130 0
 486 00e2 8EF81000 		strb	r0, [lr, #16]
 487 00e6 C2F81838 		str	r3, [r2, #2072]
 488              		.loc 1 131 0
 489 00ea 05D1     		bne	.L45
 490              		.loc 1 132 0
 491 00ec 1CF80130 		ldrb	r3, [ip, r1]	@ zero_extendqisi2
 492 00f0 0133     		adds	r3, r3, #1
 493 00f2 DBB2     		uxtb	r3, r3
 494 00f4 0CF80130 		strb	r3, [ip, r1]
 495              	.L45:
 496              		.loc 1 134 0
 497 00f8 3444     		add	r4, r4, r6
 498              	.LVL41:
 499 00fa 05EB4414 		add	r4, r5, r4, lsl #5
 500 00fe 0223     		movs	r3, #2
 501 0100 6370     		strb	r3, [r4, #1]
 502              		.loc 1 135 0
 503 0102 BDE8F883 		pop	{r3, r4, r5, r6, r7, r8, r9, pc}
 504              	.LVL42:
 505              	.L38:
 506              		.loc 1 138 0
 507 0106 3444     		add	r4, r4, r6
 508 0108 6401     		lsls	r4, r4, #5
 509 010a 2A19     		adds	r2, r5, r4
 510              		.loc 1 139 0
 511 010c 2B5D     		ldrb	r3, [r5, r4]	@ zero_extendqisi2
 512              		.loc 1 138 0
 513 010e 82F81D08 		strb	r0, [r2, #2077]
ARM GAS  C:\Users\ADMINI~1\AppData\Local\Temp\ccrDo7T3.s 			page 10


 514              	.L54:
 515              		.loc 1 145 0
 516 0112 0133     		adds	r3, r3, #1
 517 0114 DBB2     		uxtb	r3, r3
 518              		.loc 1 146 0
 519 0116 0221     		movs	r1, #2
 520              	.LVL43:
 521              		.loc 1 145 0
 522 0118 2B55     		strb	r3, [r5, r4]
 523              		.loc 1 146 0
 524 011a 5170     		strb	r1, [r2, #1]
 525              		.loc 1 147 0
 526 011c BDE8F883 		pop	{r3, r4, r5, r6, r7, r8, r9, pc}
 527              	.LVL44:
 528              	.L39:
 529              		.loc 1 144 0
 530 0120 3444     		add	r4, r4, r6
 531 0122 6401     		lsls	r4, r4, #5
 532 0124 2A19     		adds	r2, r5, r4
 533              		.loc 1 145 0
 534 0126 2B5D     		ldrb	r3, [r5, r4]	@ zero_extendqisi2
 535              		.loc 1 144 0
 536 0128 82F81C08 		strb	r0, [r2, #2076]
 537 012c F1E7     		b	.L54
 538              	.LVL45:
 539              	.L44:
 540              		.loc 1 125 0
 541 012e 0023     		movs	r3, #0
 542 0130 0B55     		strb	r3, [r1, r4]
 543 0132 BDE8F883 		pop	{r3, r4, r5, r6, r7, r8, r9, pc}
 544              	.LVL46:
 545              	.L56:
 546              		.loc 1 98 0
 547 0136 2B5D     		ldrb	r3, [r5, r4]	@ zero_extendqisi2
 548 0138 0233     		adds	r3, r3, #2
 549 013a 2A19     		adds	r2, r5, r4
 550 013c DBB2     		uxtb	r3, r3
 551 013e 9DE7     		b	.L53
 552              	.L58:
 553              		.align	2
 554              	.L57:
 555 0140 00000000 		.word	.LANCHOR0
 556              		.cfi_endproc
 557              	.LFE3:
 558              		.size	packet_process_byte, .-packet_process_byte
 559              		.section	.bss.handler_states,"aw",%nobits
 560              		.align	2
 561              		.set	.LANCHOR0,. + 0
 562              		.type	handler_states, %object
 563              		.size	handler_states, 4160
 564              	handler_states:
 565 0000 00000000 		.space	4160
 565      00000000 
 565      00000000 
 565      00000000 
 565      00000000 
 566              		.text
ARM GAS  C:\Users\ADMINI~1\AppData\Local\Temp\ccrDo7T3.s 			page 11


 567              	.Letext0:
 568              		.file 2 "c:\\program files\\gnu tools arm embedded\\4.9 2015q2\\arm-none-eabi\\include\\machine\\_
 569              		.file 3 "c:\\program files\\gnu tools arm embedded\\4.9 2015q2\\arm-none-eabi\\include\\sys\\_stdi
 570              		.file 4 "crc.h"
 571              		.section	.debug_info,"",%progbits
 572              	.Ldebug_info0:
 573 0000 F3020000 		.4byte	0x2f3
 574 0004 0400     		.2byte	0x4
 575 0006 00000000 		.4byte	.Ldebug_abbrev0
 576 000a 04       		.byte	0x4
 577 000b 01       		.uleb128 0x1
 578 000c 3F000000 		.4byte	.LASF35
 579 0010 01       		.byte	0x1
 580 0011 09000000 		.4byte	.LASF36
 581 0015 8D020000 		.4byte	.LASF37
 582 0019 20000000 		.4byte	.Ldebug_ranges0+0x20
 583 001d 00000000 		.4byte	0
 584 0021 00000000 		.4byte	.Ldebug_line0
 585 0025 02       		.uleb128 0x2
 586 0026 04       		.byte	0x4
 587 0027 05       		.byte	0x5
 588 0028 696E7400 		.ascii	"int\000"
 589 002c 03       		.uleb128 0x3
 590 002d 04       		.byte	0x4
 591 002e 07       		.byte	0x7
 592 002f DD010000 		.4byte	.LASF0
 593 0033 03       		.uleb128 0x3
 594 0034 01       		.byte	0x1
 595 0035 06       		.byte	0x6
 596 0036 CE020000 		.4byte	.LASF1
 597 003a 04       		.uleb128 0x4
 598 003b 12000000 		.4byte	.LASF11
 599 003f 02       		.byte	0x2
 600 0040 1D       		.byte	0x1d
 601 0041 45000000 		.4byte	0x45
 602 0045 03       		.uleb128 0x3
 603 0046 01       		.byte	0x1
 604 0047 08       		.byte	0x8
 605 0048 AA010000 		.4byte	.LASF2
 606 004c 03       		.uleb128 0x3
 607 004d 02       		.byte	0x2
 608 004e 05       		.byte	0x5
 609 004f 83020000 		.4byte	.LASF3
 610 0053 03       		.uleb128 0x3
 611 0054 02       		.byte	0x2
 612 0055 07       		.byte	0x7
 613 0056 CA010000 		.4byte	.LASF4
 614 005a 03       		.uleb128 0x3
 615 005b 04       		.byte	0x4
 616 005c 05       		.byte	0x5
 617 005d B4020000 		.4byte	.LASF5
 618 0061 03       		.uleb128 0x3
 619 0062 04       		.byte	0x4
 620 0063 07       		.byte	0x7
 621 0064 B8010000 		.4byte	.LASF6
 622 0068 03       		.uleb128 0x3
 623 0069 08       		.byte	0x8
ARM GAS  C:\Users\ADMINI~1\AppData\Local\Temp\ccrDo7T3.s 			page 12


 624 006a 05       		.byte	0x5
 625 006b 5A020000 		.4byte	.LASF7
 626 006f 03       		.uleb128 0x3
 627 0070 08       		.byte	0x8
 628 0071 07       		.byte	0x7
 629 0072 FB010000 		.4byte	.LASF8
 630 0076 03       		.uleb128 0x3
 631 0077 04       		.byte	0x4
 632 0078 07       		.byte	0x7
 633 0079 51020000 		.4byte	.LASF9
 634 007d 05       		.uleb128 0x5
 635 007e 04       		.byte	0x4
 636 007f 45000000 		.4byte	0x45
 637 0083 03       		.uleb128 0x3
 638 0084 01       		.byte	0x1
 639 0085 08       		.byte	0x8
 640 0086 BD020000 		.4byte	.LASF10
 641 008a 04       		.uleb128 0x4
 642 008b 12020000 		.4byte	.LASF12
 643 008f 03       		.byte	0x3
 644 0090 14       		.byte	0x14
 645 0091 3A000000 		.4byte	0x3a
 646 0095 06       		.uleb128 0x6
 647 0096 2008     		.2byte	0x820
 648 0098 01       		.byte	0x1
 649 0099 1D       		.byte	0x1d
 650 009a 1B010000 		.4byte	0x11b
 651 009e 07       		.uleb128 0x7
 652 009f DA020000 		.4byte	.LASF13
 653 00a3 01       		.byte	0x1
 654 00a4 1E       		.byte	0x1e
 655 00a5 1B010000 		.4byte	0x11b
 656 00a9 00       		.byte	0
 657 00aa 07       		.uleb128 0x7
 658 00ab 35020000 		.4byte	.LASF14
 659 00af 01       		.byte	0x1
 660 00b0 1F       		.byte	0x1f
 661 00b1 1B010000 		.4byte	0x11b
 662 00b5 01       		.byte	0x1
 663 00b6 07       		.uleb128 0x7
 664 00b7 47020000 		.4byte	.LASF15
 665 00bb 01       		.byte	0x1
 666 00bc 20       		.byte	0x20
 667 00bd 30010000 		.4byte	0x130
 668 00c1 04       		.byte	0x4
 669 00c2 07       		.uleb128 0x7
 670 00c3 93010000 		.4byte	.LASF16
 671 00c7 01       		.byte	0x1
 672 00c8 21       		.byte	0x21
 673 00c9 30010000 		.4byte	0x130
 674 00cd 08       		.byte	0x8
 675 00ce 07       		.uleb128 0x7
 676 00cf 9F020000 		.4byte	.LASF17
 677 00d3 01       		.byte	0x1
 678 00d4 22       		.byte	0x22
 679 00d5 2C000000 		.4byte	0x2c
 680 00d9 0C       		.byte	0xc
ARM GAS  C:\Users\ADMINI~1\AppData\Local\Temp\ccrDo7T3.s 			page 13


 681 00da 07       		.uleb128 0x7
 682 00db A0010000 		.4byte	.LASF18
 683 00df 01       		.byte	0x1
 684 00e0 23       		.byte	0x23
 685 00e1 36010000 		.4byte	0x136
 686 00e5 10       		.byte	0x10
 687 00e6 08       		.uleb128 0x8
 688 00e7 7E010000 		.4byte	.LASF19
 689 00eb 01       		.byte	0x1
 690 00ec 24       		.byte	0x24
 691 00ed 47010000 		.4byte	0x147
 692 00f1 1004     		.2byte	0x410
 693 00f3 08       		.uleb128 0x8
 694 00f4 72010000 		.4byte	.LASF20
 695 00f8 01       		.byte	0x1
 696 00f9 25       		.byte	0x25
 697 00fa 2C000000 		.4byte	0x2c
 698 00fe 1808     		.2byte	0x818
 699 0100 08       		.uleb128 0x8
 700 0101 2D020000 		.4byte	.LASF21
 701 0105 01       		.byte	0x1
 702 0106 26       		.byte	0x26
 703 0107 45000000 		.4byte	0x45
 704 010b 1C08     		.2byte	0x81c
 705 010d 08       		.uleb128 0x8
 706 010e 00000000 		.4byte	.LASF22
 707 0112 01       		.byte	0x1
 708 0113 27       		.byte	0x27
 709 0114 45000000 		.4byte	0x45
 710 0118 1D08     		.2byte	0x81d
 711 011a 00       		.byte	0
 712 011b 09       		.uleb128 0x9
 713 011c 45000000 		.4byte	0x45
 714 0120 0A       		.uleb128 0xa
 715 0121 30010000 		.4byte	0x130
 716 0125 0B       		.uleb128 0xb
 717 0126 7D000000 		.4byte	0x7d
 718 012a 0B       		.uleb128 0xb
 719 012b 2C000000 		.4byte	0x2c
 720 012f 00       		.byte	0
 721 0130 05       		.uleb128 0x5
 722 0131 04       		.byte	0x4
 723 0132 20010000 		.4byte	0x120
 724 0136 0C       		.uleb128 0xc
 725 0137 45000000 		.4byte	0x45
 726 013b 47010000 		.4byte	0x147
 727 013f 0D       		.uleb128 0xd
 728 0140 76000000 		.4byte	0x76
 729 0144 FF03     		.2byte	0x3ff
 730 0146 00       		.byte	0
 731 0147 0C       		.uleb128 0xc
 732 0148 45000000 		.4byte	0x45
 733 014c 58010000 		.4byte	0x158
 734 0150 0D       		.uleb128 0xd
 735 0151 76000000 		.4byte	0x76
 736 0155 0504     		.2byte	0x405
 737 0157 00       		.byte	0
ARM GAS  C:\Users\ADMINI~1\AppData\Local\Temp\ccrDo7T3.s 			page 14


 738 0158 04       		.uleb128 0x4
 739 0159 63010000 		.4byte	.LASF23
 740 015d 01       		.byte	0x1
 741 015e 28       		.byte	0x28
 742 015f 95000000 		.4byte	0x95
 743 0163 0E       		.uleb128 0xe
 744 0164 C2020000 		.4byte	.LASF27
 745 0168 01       		.byte	0x1
 746 0169 2C       		.byte	0x2c
 747 016a 00000000 		.4byte	.LFB0
 748 016e 14000000 		.4byte	.LFE0-.LFB0
 749 0172 01       		.uleb128 0x1
 750 0173 9C       		.byte	0x9c
 751 0174 A2010000 		.4byte	0x1a2
 752 0178 0F       		.uleb128 0xf
 753 0179 40020000 		.4byte	.LASF24
 754 017d 01       		.byte	0x1
 755 017e 2C       		.byte	0x2c
 756 017f 30010000 		.4byte	0x130
 757 0183 01       		.uleb128 0x1
 758 0184 50       		.byte	0x50
 759 0185 0F       		.uleb128 0xf
 760 0186 68020000 		.4byte	.LASF25
 761 018a 01       		.byte	0x1
 762 018b 2D       		.byte	0x2d
 763 018c 30010000 		.4byte	0x130
 764 0190 01       		.uleb128 0x1
 765 0191 51       		.byte	0x51
 766 0192 10       		.uleb128 0x10
 767 0193 2B000000 		.4byte	.LASF26
 768 0197 01       		.byte	0x1
 769 0198 2D       		.byte	0x2d
 770 0199 25000000 		.4byte	0x25
 771 019d 00000000 		.4byte	.LLST0
 772 01a1 00       		.byte	0
 773 01a2 0E       		.uleb128 0xe
 774 01a3 1A020000 		.4byte	.LASF28
 775 01a7 01       		.byte	0x1
 776 01a8 32       		.byte	0x32
 777 01a9 00000000 		.4byte	.LFB1
 778 01ad B8000000 		.4byte	.LFE1-.LFB1
 779 01b1 01       		.uleb128 0x1
 780 01b2 9C       		.byte	0x9c
 781 01b3 3E020000 		.4byte	0x23e
 782 01b7 10       		.uleb128 0x10
 783 01b8 88010000 		.4byte	.LASF29
 784 01bc 01       		.byte	0x1
 785 01bd 32       		.byte	0x32
 786 01be 7D000000 		.4byte	0x7d
 787 01c2 21000000 		.4byte	.LLST1
 788 01c6 11       		.uleb128 0x11
 789 01c7 6C656E00 		.ascii	"len\000"
 790 01cb 01       		.byte	0x1
 791 01cc 32       		.byte	0x32
 792 01cd 2C000000 		.4byte	0x2c
 793 01d1 5B000000 		.4byte	.LLST2
 794 01d5 10       		.uleb128 0x10
ARM GAS  C:\Users\ADMINI~1\AppData\Local\Temp\ccrDo7T3.s 			page 15


 795 01d6 2B000000 		.4byte	.LASF26
 796 01da 01       		.byte	0x1
 797 01db 32       		.byte	0x32
 798 01dc 25000000 		.4byte	0x25
 799 01e0 95000000 		.4byte	.LLST3
 800 01e4 12       		.uleb128 0x12
 801 01e5 8D010000 		.4byte	.LASF30
 802 01e9 01       		.byte	0x1
 803 01ea 37       		.byte	0x37
 804 01eb 25000000 		.4byte	0x25
 805 01ef F0000000 		.4byte	.LLST4
 806 01f3 13       		.uleb128 0x13
 807 01f4 63726300 		.ascii	"crc\000"
 808 01f8 01       		.byte	0x1
 809 01f9 46       		.byte	0x46
 810 01fa 53000000 		.4byte	0x53
 811 01fe 49010000 		.4byte	.LLST5
 812 0202 14       		.uleb128 0x14
 813 0203 00000000 		.4byte	.Ldebug_ranges0+0
 814 0207 19020000 		.4byte	0x219
 815 020b 13       		.uleb128 0x13
 816 020c 6900     		.ascii	"i\000"
 817 020e 01       		.byte	0x1
 818 020f 42       		.byte	0x42
 819 0210 2C000000 		.4byte	0x2c
 820 0214 67010000 		.4byte	.LLST6
 821 0218 00       		.byte	0
 822 0219 15       		.uleb128 0x15
 823 021a 60000000 		.4byte	.LVL8
 824 021e E0020000 		.4byte	0x2e0
 825 0222 16       		.uleb128 0x16
 826 0223 9A000000 		.4byte	.LVL13
 827 0227 17       		.uleb128 0x17
 828 0228 01       		.uleb128 0x1
 829 0229 50       		.byte	0x50
 830 022a 11       		.uleb128 0x11
 831 022b F3       		.byte	0xf3
 832 022c 01       		.uleb128 0x1
 833 022d 52       		.byte	0x52
 834 022e 36       		.byte	0x36
 835 022f 24       		.byte	0x24
 836 0230 F3       		.byte	0xf3
 837 0231 01       		.uleb128 0x1
 838 0232 52       		.byte	0x52
 839 0233 22       		.byte	0x22
 840 0234 35       		.byte	0x35
 841 0235 24       		.byte	0x24
 842 0236 03       		.byte	0x3
 843 0237 10040000 		.4byte	.LANCHOR0+1040
 844 023b 22       		.byte	0x22
 845 023c 00       		.byte	0
 846 023d 00       		.byte	0
 847 023e 0E       		.uleb128 0xe
 848 023f EA010000 		.4byte	.LASF31
 849 0243 01       		.byte	0x1
 850 0244 53       		.byte	0x53
 851 0245 00000000 		.4byte	.LFB2
ARM GAS  C:\Users\ADMINI~1\AppData\Local\Temp\ccrDo7T3.s 			page 16


 852 0249 48000000 		.4byte	.LFE2-.LFB2
 853 024d 01       		.uleb128 0x1
 854 024e 9C       		.byte	0x9c
 855 024f 6B020000 		.4byte	0x26b
 856 0253 18       		.uleb128 0x18
 857 0254 00000000 		.4byte	.LBB5
 858 0258 48000000 		.4byte	.LBE5-.LBB5
 859 025c 13       		.uleb128 0x13
 860 025d 6900     		.ascii	"i\000"
 861 025f 01       		.byte	0x1
 862 0260 54       		.byte	0x54
 863 0261 25000000 		.4byte	0x25
 864 0265 87010000 		.4byte	.LLST7
 865 0269 00       		.byte	0
 866 026a 00       		.byte	0
 867 026b 0E       		.uleb128 0xe
 868 026c 6F020000 		.4byte	.LASF32
 869 0270 01       		.byte	0x1
 870 0271 5D       		.byte	0x5d
 871 0272 00000000 		.4byte	.LFB3
 872 0276 44010000 		.4byte	.LFE3-.LFB3
 873 027a 01       		.uleb128 0x1
 874 027b 9C       		.byte	0x9c
 875 027c BF020000 		.4byte	0x2bf
 876 0280 10       		.uleb128 0x10
 877 0281 37000000 		.4byte	.LASF33
 878 0285 01       		.byte	0x1
 879 0286 5D       		.byte	0x5d
 880 0287 8A000000 		.4byte	0x8a
 881 028b D7010000 		.4byte	.LLST8
 882 028f 10       		.uleb128 0x10
 883 0290 2B000000 		.4byte	.LASF26
 884 0294 01       		.byte	0x1
 885 0295 5D       		.byte	0x5d
 886 0296 25000000 		.4byte	0x25
 887 029a 67020000 		.4byte	.LLST9
 888 029e 19       		.uleb128 0x19
 889 029f 3A000000 		.4byte	.LVL27
 890 02a3 E0020000 		.4byte	0x2e0
 891 02a7 B2020000 		.4byte	0x2b2
 892 02ab 17       		.uleb128 0x17
 893 02ac 01       		.uleb128 0x1
 894 02ad 50       		.byte	0x50
 895 02ae 02       		.uleb128 0x2
 896 02af 77       		.byte	0x77
 897 02b0 00       		.sleb128 0
 898 02b1 00       		.byte	0
 899 02b2 1A       		.uleb128 0x1a
 900 02b3 58000000 		.4byte	.LVL28
 901 02b7 17       		.uleb128 0x17
 902 02b8 01       		.uleb128 0x1
 903 02b9 50       		.byte	0x50
 904 02ba 02       		.uleb128 0x2
 905 02bb 77       		.byte	0x77
 906 02bc 00       		.sleb128 0
 907 02bd 00       		.byte	0
 908 02be 00       		.byte	0
ARM GAS  C:\Users\ADMINI~1\AppData\Local\Temp\ccrDo7T3.s 			page 17


 909 02bf 0C       		.uleb128 0xc
 910 02c0 58010000 		.4byte	0x158
 911 02c4 CF020000 		.4byte	0x2cf
 912 02c8 1B       		.uleb128 0x1b
 913 02c9 76000000 		.4byte	0x76
 914 02cd 01       		.byte	0x1
 915 02ce 00       		.byte	0
 916 02cf 1C       		.uleb128 0x1c
 917 02d0 1C000000 		.4byte	.LASF34
 918 02d4 01       		.byte	0x1
 919 02d5 2A       		.byte	0x2a
 920 02d6 BF020000 		.4byte	0x2bf
 921 02da 05       		.uleb128 0x5
 922 02db 03       		.byte	0x3
 923 02dc 00000000 		.4byte	handler_states
 924 02e0 1D       		.uleb128 0x1d
 925 02e1 AE020000 		.4byte	.LASF38
 926 02e5 04       		.byte	0x4
 927 02e6 1F       		.byte	0x1f
 928 02e7 53000000 		.4byte	0x53
 929 02eb 0B       		.uleb128 0xb
 930 02ec 7D000000 		.4byte	0x7d
 931 02f0 0B       		.uleb128 0xb
 932 02f1 2C000000 		.4byte	0x2c
 933 02f5 00       		.byte	0
 934 02f6 00       		.byte	0
 935              		.section	.debug_abbrev,"",%progbits
 936              	.Ldebug_abbrev0:
 937 0000 01       		.uleb128 0x1
 938 0001 11       		.uleb128 0x11
 939 0002 01       		.byte	0x1
 940 0003 25       		.uleb128 0x25
 941 0004 0E       		.uleb128 0xe
 942 0005 13       		.uleb128 0x13
 943 0006 0B       		.uleb128 0xb
 944 0007 03       		.uleb128 0x3
 945 0008 0E       		.uleb128 0xe
 946 0009 1B       		.uleb128 0x1b
 947 000a 0E       		.uleb128 0xe
 948 000b 55       		.uleb128 0x55
 949 000c 17       		.uleb128 0x17
 950 000d 11       		.uleb128 0x11
 951 000e 01       		.uleb128 0x1
 952 000f 10       		.uleb128 0x10
 953 0010 17       		.uleb128 0x17
 954 0011 00       		.byte	0
 955 0012 00       		.byte	0
 956 0013 02       		.uleb128 0x2
 957 0014 24       		.uleb128 0x24
 958 0015 00       		.byte	0
 959 0016 0B       		.uleb128 0xb
 960 0017 0B       		.uleb128 0xb
 961 0018 3E       		.uleb128 0x3e
 962 0019 0B       		.uleb128 0xb
 963 001a 03       		.uleb128 0x3
 964 001b 08       		.uleb128 0x8
 965 001c 00       		.byte	0
ARM GAS  C:\Users\ADMINI~1\AppData\Local\Temp\ccrDo7T3.s 			page 18


 966 001d 00       		.byte	0
 967 001e 03       		.uleb128 0x3
 968 001f 24       		.uleb128 0x24
 969 0020 00       		.byte	0
 970 0021 0B       		.uleb128 0xb
 971 0022 0B       		.uleb128 0xb
 972 0023 3E       		.uleb128 0x3e
 973 0024 0B       		.uleb128 0xb
 974 0025 03       		.uleb128 0x3
 975 0026 0E       		.uleb128 0xe
 976 0027 00       		.byte	0
 977 0028 00       		.byte	0
 978 0029 04       		.uleb128 0x4
 979 002a 16       		.uleb128 0x16
 980 002b 00       		.byte	0
 981 002c 03       		.uleb128 0x3
 982 002d 0E       		.uleb128 0xe
 983 002e 3A       		.uleb128 0x3a
 984 002f 0B       		.uleb128 0xb
 985 0030 3B       		.uleb128 0x3b
 986 0031 0B       		.uleb128 0xb
 987 0032 49       		.uleb128 0x49
 988 0033 13       		.uleb128 0x13
 989 0034 00       		.byte	0
 990 0035 00       		.byte	0
 991 0036 05       		.uleb128 0x5
 992 0037 0F       		.uleb128 0xf
 993 0038 00       		.byte	0
 994 0039 0B       		.uleb128 0xb
 995 003a 0B       		.uleb128 0xb
 996 003b 49       		.uleb128 0x49
 997 003c 13       		.uleb128 0x13
 998 003d 00       		.byte	0
 999 003e 00       		.byte	0
 1000 003f 06       		.uleb128 0x6
 1001 0040 13       		.uleb128 0x13
 1002 0041 01       		.byte	0x1
 1003 0042 0B       		.uleb128 0xb
 1004 0043 05       		.uleb128 0x5
 1005 0044 3A       		.uleb128 0x3a
 1006 0045 0B       		.uleb128 0xb
 1007 0046 3B       		.uleb128 0x3b
 1008 0047 0B       		.uleb128 0xb
 1009 0048 01       		.uleb128 0x1
 1010 0049 13       		.uleb128 0x13
 1011 004a 00       		.byte	0
 1012 004b 00       		.byte	0
 1013 004c 07       		.uleb128 0x7
 1014 004d 0D       		.uleb128 0xd
 1015 004e 00       		.byte	0
 1016 004f 03       		.uleb128 0x3
 1017 0050 0E       		.uleb128 0xe
 1018 0051 3A       		.uleb128 0x3a
 1019 0052 0B       		.uleb128 0xb
 1020 0053 3B       		.uleb128 0x3b
 1021 0054 0B       		.uleb128 0xb
 1022 0055 49       		.uleb128 0x49
ARM GAS  C:\Users\ADMINI~1\AppData\Local\Temp\ccrDo7T3.s 			page 19


 1023 0056 13       		.uleb128 0x13
 1024 0057 38       		.uleb128 0x38
 1025 0058 0B       		.uleb128 0xb
 1026 0059 00       		.byte	0
 1027 005a 00       		.byte	0
 1028 005b 08       		.uleb128 0x8
 1029 005c 0D       		.uleb128 0xd
 1030 005d 00       		.byte	0
 1031 005e 03       		.uleb128 0x3
 1032 005f 0E       		.uleb128 0xe
 1033 0060 3A       		.uleb128 0x3a
 1034 0061 0B       		.uleb128 0xb
 1035 0062 3B       		.uleb128 0x3b
 1036 0063 0B       		.uleb128 0xb
 1037 0064 49       		.uleb128 0x49
 1038 0065 13       		.uleb128 0x13
 1039 0066 38       		.uleb128 0x38
 1040 0067 05       		.uleb128 0x5
 1041 0068 00       		.byte	0
 1042 0069 00       		.byte	0
 1043 006a 09       		.uleb128 0x9
 1044 006b 35       		.uleb128 0x35
 1045 006c 00       		.byte	0
 1046 006d 49       		.uleb128 0x49
 1047 006e 13       		.uleb128 0x13
 1048 006f 00       		.byte	0
 1049 0070 00       		.byte	0
 1050 0071 0A       		.uleb128 0xa
 1051 0072 15       		.uleb128 0x15
 1052 0073 01       		.byte	0x1
 1053 0074 27       		.uleb128 0x27
 1054 0075 19       		.uleb128 0x19
 1055 0076 01       		.uleb128 0x1
 1056 0077 13       		.uleb128 0x13
 1057 0078 00       		.byte	0
 1058 0079 00       		.byte	0
 1059 007a 0B       		.uleb128 0xb
 1060 007b 05       		.uleb128 0x5
 1061 007c 00       		.byte	0
 1062 007d 49       		.uleb128 0x49
 1063 007e 13       		.uleb128 0x13
 1064 007f 00       		.byte	0
 1065 0080 00       		.byte	0
 1066 0081 0C       		.uleb128 0xc
 1067 0082 01       		.uleb128 0x1
 1068 0083 01       		.byte	0x1
 1069 0084 49       		.uleb128 0x49
 1070 0085 13       		.uleb128 0x13
 1071 0086 01       		.uleb128 0x1
 1072 0087 13       		.uleb128 0x13
 1073 0088 00       		.byte	0
 1074 0089 00       		.byte	0
 1075 008a 0D       		.uleb128 0xd
 1076 008b 21       		.uleb128 0x21
 1077 008c 00       		.byte	0
 1078 008d 49       		.uleb128 0x49
 1079 008e 13       		.uleb128 0x13
ARM GAS  C:\Users\ADMINI~1\AppData\Local\Temp\ccrDo7T3.s 			page 20


 1080 008f 2F       		.uleb128 0x2f
 1081 0090 05       		.uleb128 0x5
 1082 0091 00       		.byte	0
 1083 0092 00       		.byte	0
 1084 0093 0E       		.uleb128 0xe
 1085 0094 2E       		.uleb128 0x2e
 1086 0095 01       		.byte	0x1
 1087 0096 3F       		.uleb128 0x3f
 1088 0097 19       		.uleb128 0x19
 1089 0098 03       		.uleb128 0x3
 1090 0099 0E       		.uleb128 0xe
 1091 009a 3A       		.uleb128 0x3a
 1092 009b 0B       		.uleb128 0xb
 1093 009c 3B       		.uleb128 0x3b
 1094 009d 0B       		.uleb128 0xb
 1095 009e 27       		.uleb128 0x27
 1096 009f 19       		.uleb128 0x19
 1097 00a0 11       		.uleb128 0x11
 1098 00a1 01       		.uleb128 0x1
 1099 00a2 12       		.uleb128 0x12
 1100 00a3 06       		.uleb128 0x6
 1101 00a4 40       		.uleb128 0x40
 1102 00a5 18       		.uleb128 0x18
 1103 00a6 9742     		.uleb128 0x2117
 1104 00a8 19       		.uleb128 0x19
 1105 00a9 01       		.uleb128 0x1
 1106 00aa 13       		.uleb128 0x13
 1107 00ab 00       		.byte	0
 1108 00ac 00       		.byte	0
 1109 00ad 0F       		.uleb128 0xf
 1110 00ae 05       		.uleb128 0x5
 1111 00af 00       		.byte	0
 1112 00b0 03       		.uleb128 0x3
 1113 00b1 0E       		.uleb128 0xe
 1114 00b2 3A       		.uleb128 0x3a
 1115 00b3 0B       		.uleb128 0xb
 1116 00b4 3B       		.uleb128 0x3b
 1117 00b5 0B       		.uleb128 0xb
 1118 00b6 49       		.uleb128 0x49
 1119 00b7 13       		.uleb128 0x13
 1120 00b8 02       		.uleb128 0x2
 1121 00b9 18       		.uleb128 0x18
 1122 00ba 00       		.byte	0
 1123 00bb 00       		.byte	0
 1124 00bc 10       		.uleb128 0x10
 1125 00bd 05       		.uleb128 0x5
 1126 00be 00       		.byte	0
 1127 00bf 03       		.uleb128 0x3
 1128 00c0 0E       		.uleb128 0xe
 1129 00c1 3A       		.uleb128 0x3a
 1130 00c2 0B       		.uleb128 0xb
 1131 00c3 3B       		.uleb128 0x3b
 1132 00c4 0B       		.uleb128 0xb
 1133 00c5 49       		.uleb128 0x49
 1134 00c6 13       		.uleb128 0x13
 1135 00c7 02       		.uleb128 0x2
 1136 00c8 17       		.uleb128 0x17
ARM GAS  C:\Users\ADMINI~1\AppData\Local\Temp\ccrDo7T3.s 			page 21


 1137 00c9 00       		.byte	0
 1138 00ca 00       		.byte	0
 1139 00cb 11       		.uleb128 0x11
 1140 00cc 05       		.uleb128 0x5
 1141 00cd 00       		.byte	0
 1142 00ce 03       		.uleb128 0x3
 1143 00cf 08       		.uleb128 0x8
 1144 00d0 3A       		.uleb128 0x3a
 1145 00d1 0B       		.uleb128 0xb
 1146 00d2 3B       		.uleb128 0x3b
 1147 00d3 0B       		.uleb128 0xb
 1148 00d4 49       		.uleb128 0x49
 1149 00d5 13       		.uleb128 0x13
 1150 00d6 02       		.uleb128 0x2
 1151 00d7 17       		.uleb128 0x17
 1152 00d8 00       		.byte	0
 1153 00d9 00       		.byte	0
 1154 00da 12       		.uleb128 0x12
 1155 00db 34       		.uleb128 0x34
 1156 00dc 00       		.byte	0
 1157 00dd 03       		.uleb128 0x3
 1158 00de 0E       		.uleb128 0xe
 1159 00df 3A       		.uleb128 0x3a
 1160 00e0 0B       		.uleb128 0xb
 1161 00e1 3B       		.uleb128 0x3b
 1162 00e2 0B       		.uleb128 0xb
 1163 00e3 49       		.uleb128 0x49
 1164 00e4 13       		.uleb128 0x13
 1165 00e5 02       		.uleb128 0x2
 1166 00e6 17       		.uleb128 0x17
 1167 00e7 00       		.byte	0
 1168 00e8 00       		.byte	0
 1169 00e9 13       		.uleb128 0x13
 1170 00ea 34       		.uleb128 0x34
 1171 00eb 00       		.byte	0
 1172 00ec 03       		.uleb128 0x3
 1173 00ed 08       		.uleb128 0x8
 1174 00ee 3A       		.uleb128 0x3a
 1175 00ef 0B       		.uleb128 0xb
 1176 00f0 3B       		.uleb128 0x3b
 1177 00f1 0B       		.uleb128 0xb
 1178 00f2 49       		.uleb128 0x49
 1179 00f3 13       		.uleb128 0x13
 1180 00f4 02       		.uleb128 0x2
 1181 00f5 17       		.uleb128 0x17
 1182 00f6 00       		.byte	0
 1183 00f7 00       		.byte	0
 1184 00f8 14       		.uleb128 0x14
 1185 00f9 0B       		.uleb128 0xb
 1186 00fa 01       		.byte	0x1
 1187 00fb 55       		.uleb128 0x55
 1188 00fc 17       		.uleb128 0x17
 1189 00fd 01       		.uleb128 0x1
 1190 00fe 13       		.uleb128 0x13
 1191 00ff 00       		.byte	0
 1192 0100 00       		.byte	0
 1193 0101 15       		.uleb128 0x15
ARM GAS  C:\Users\ADMINI~1\AppData\Local\Temp\ccrDo7T3.s 			page 22


 1194 0102 898201   		.uleb128 0x4109
 1195 0105 00       		.byte	0
 1196 0106 11       		.uleb128 0x11
 1197 0107 01       		.uleb128 0x1
 1198 0108 31       		.uleb128 0x31
 1199 0109 13       		.uleb128 0x13
 1200 010a 00       		.byte	0
 1201 010b 00       		.byte	0
 1202 010c 16       		.uleb128 0x16
 1203 010d 898201   		.uleb128 0x4109
 1204 0110 01       		.byte	0x1
 1205 0111 11       		.uleb128 0x11
 1206 0112 01       		.uleb128 0x1
 1207 0113 9542     		.uleb128 0x2115
 1208 0115 19       		.uleb128 0x19
 1209 0116 00       		.byte	0
 1210 0117 00       		.byte	0
 1211 0118 17       		.uleb128 0x17
 1212 0119 8A8201   		.uleb128 0x410a
 1213 011c 00       		.byte	0
 1214 011d 02       		.uleb128 0x2
 1215 011e 18       		.uleb128 0x18
 1216 011f 9142     		.uleb128 0x2111
 1217 0121 18       		.uleb128 0x18
 1218 0122 00       		.byte	0
 1219 0123 00       		.byte	0
 1220 0124 18       		.uleb128 0x18
 1221 0125 0B       		.uleb128 0xb
 1222 0126 01       		.byte	0x1
 1223 0127 11       		.uleb128 0x11
 1224 0128 01       		.uleb128 0x1
 1225 0129 12       		.uleb128 0x12
 1226 012a 06       		.uleb128 0x6
 1227 012b 00       		.byte	0
 1228 012c 00       		.byte	0
 1229 012d 19       		.uleb128 0x19
 1230 012e 898201   		.uleb128 0x4109
 1231 0131 01       		.byte	0x1
 1232 0132 11       		.uleb128 0x11
 1233 0133 01       		.uleb128 0x1
 1234 0134 31       		.uleb128 0x31
 1235 0135 13       		.uleb128 0x13
 1236 0136 01       		.uleb128 0x1
 1237 0137 13       		.uleb128 0x13
 1238 0138 00       		.byte	0
 1239 0139 00       		.byte	0
 1240 013a 1A       		.uleb128 0x1a
 1241 013b 898201   		.uleb128 0x4109
 1242 013e 01       		.byte	0x1
 1243 013f 11       		.uleb128 0x11
 1244 0140 01       		.uleb128 0x1
 1245 0141 00       		.byte	0
 1246 0142 00       		.byte	0
 1247 0143 1B       		.uleb128 0x1b
 1248 0144 21       		.uleb128 0x21
 1249 0145 00       		.byte	0
 1250 0146 49       		.uleb128 0x49
ARM GAS  C:\Users\ADMINI~1\AppData\Local\Temp\ccrDo7T3.s 			page 23


 1251 0147 13       		.uleb128 0x13
 1252 0148 2F       		.uleb128 0x2f
 1253 0149 0B       		.uleb128 0xb
 1254 014a 00       		.byte	0
 1255 014b 00       		.byte	0
 1256 014c 1C       		.uleb128 0x1c
 1257 014d 34       		.uleb128 0x34
 1258 014e 00       		.byte	0
 1259 014f 03       		.uleb128 0x3
 1260 0150 0E       		.uleb128 0xe
 1261 0151 3A       		.uleb128 0x3a
 1262 0152 0B       		.uleb128 0xb
 1263 0153 3B       		.uleb128 0x3b
 1264 0154 0B       		.uleb128 0xb
 1265 0155 49       		.uleb128 0x49
 1266 0156 13       		.uleb128 0x13
 1267 0157 02       		.uleb128 0x2
 1268 0158 18       		.uleb128 0x18
 1269 0159 00       		.byte	0
 1270 015a 00       		.byte	0
 1271 015b 1D       		.uleb128 0x1d
 1272 015c 2E       		.uleb128 0x2e
 1273 015d 01       		.byte	0x1
 1274 015e 3F       		.uleb128 0x3f
 1275 015f 19       		.uleb128 0x19
 1276 0160 03       		.uleb128 0x3
 1277 0161 0E       		.uleb128 0xe
 1278 0162 3A       		.uleb128 0x3a
 1279 0163 0B       		.uleb128 0xb
 1280 0164 3B       		.uleb128 0x3b
 1281 0165 0B       		.uleb128 0xb
 1282 0166 27       		.uleb128 0x27
 1283 0167 19       		.uleb128 0x19
 1284 0168 49       		.uleb128 0x49
 1285 0169 13       		.uleb128 0x13
 1286 016a 3C       		.uleb128 0x3c
 1287 016b 19       		.uleb128 0x19
 1288 016c 00       		.byte	0
 1289 016d 00       		.byte	0
 1290 016e 00       		.byte	0
 1291              		.section	.debug_loc,"",%progbits
 1292              	.Ldebug_loc0:
 1293              	.LLST0:
 1294 0000 00000000 		.4byte	.LVL0
 1295 0004 06000000 		.4byte	.LVL1
 1296 0008 0100     		.2byte	0x1
 1297 000a 52       		.byte	0x52
 1298 000b 06000000 		.4byte	.LVL1
 1299 000f 14000000 		.4byte	.LFE0
 1300 0013 0400     		.2byte	0x4
 1301 0015 F3       		.byte	0xf3
 1302 0016 01       		.uleb128 0x1
 1303 0017 52       		.byte	0x52
 1304 0018 9F       		.byte	0x9f
 1305 0019 00000000 		.4byte	0
 1306 001d 00000000 		.4byte	0
 1307              	.LLST1:
ARM GAS  C:\Users\ADMINI~1\AppData\Local\Temp\ccrDo7T3.s 			page 24


 1308 0021 00000000 		.4byte	.LVL2
 1309 0025 5F000000 		.4byte	.LVL8-1
 1310 0029 0100     		.2byte	0x1
 1311 002b 50       		.byte	0x50
 1312 002c 5F000000 		.4byte	.LVL8-1
 1313 0030 9A000000 		.4byte	.LVL13
 1314 0034 0400     		.2byte	0x4
 1315 0036 F3       		.byte	0xf3
 1316 0037 01       		.uleb128 0x1
 1317 0038 50       		.byte	0x50
 1318 0039 9F       		.byte	0x9f
 1319 003a 9A000000 		.4byte	.LVL13
 1320 003e B0000000 		.4byte	.LVL17
 1321 0042 0100     		.2byte	0x1
 1322 0044 50       		.byte	0x50
 1323 0045 B0000000 		.4byte	.LVL17
 1324 0049 B8000000 		.4byte	.LFE1
 1325 004d 0400     		.2byte	0x4
 1326 004f F3       		.byte	0xf3
 1327 0050 01       		.uleb128 0x1
 1328 0051 50       		.byte	0x50
 1329 0052 9F       		.byte	0x9f
 1330 0053 00000000 		.4byte	0
 1331 0057 00000000 		.4byte	0
 1332              	.LLST2:
 1333 005b 00000000 		.4byte	.LVL2
 1334 005f 5F000000 		.4byte	.LVL8-1
 1335 0063 0100     		.2byte	0x1
 1336 0065 51       		.byte	0x51
 1337 0066 5F000000 		.4byte	.LVL8-1
 1338 006a 9A000000 		.4byte	.LVL13
 1339 006e 0400     		.2byte	0x4
 1340 0070 F3       		.byte	0xf3
 1341 0071 01       		.uleb128 0x1
 1342 0072 51       		.byte	0x51
 1343 0073 9F       		.byte	0x9f
 1344 0074 9A000000 		.4byte	.LVL13
 1345 0078 B0000000 		.4byte	.LVL17
 1346 007c 0100     		.2byte	0x1
 1347 007e 51       		.byte	0x51
 1348 007f B0000000 		.4byte	.LVL17
 1349 0083 B8000000 		.4byte	.LFE1
 1350 0087 0400     		.2byte	0x4
 1351 0089 F3       		.byte	0xf3
 1352 008a 01       		.uleb128 0x1
 1353 008b 51       		.byte	0x51
 1354 008c 9F       		.byte	0x9f
 1355 008d 00000000 		.4byte	0
 1356 0091 00000000 		.4byte	0
 1357              	.LLST3:
 1358 0095 00000000 		.4byte	.LVL2
 1359 0099 26000000 		.4byte	.LVL5
 1360 009d 0100     		.2byte	0x1
 1361 009f 52       		.byte	0x52
 1362 00a0 26000000 		.4byte	.LVL5
 1363 00a4 78000000 		.4byte	.LVL10
 1364 00a8 0100     		.2byte	0x1
ARM GAS  C:\Users\ADMINI~1\AppData\Local\Temp\ccrDo7T3.s 			page 25


 1365 00aa 57       		.byte	0x57
 1366 00ab 78000000 		.4byte	.LVL10
 1367 00af 9A000000 		.4byte	.LVL13
 1368 00b3 0400     		.2byte	0x4
 1369 00b5 F3       		.byte	0xf3
 1370 00b6 01       		.uleb128 0x1
 1371 00b7 52       		.byte	0x52
 1372 00b8 9F       		.byte	0x9f
 1373 00b9 9A000000 		.4byte	.LVL13
 1374 00bd 9C000000 		.4byte	.LVL14
 1375 00c1 0100     		.2byte	0x1
 1376 00c3 52       		.byte	0x52
 1377 00c4 9C000000 		.4byte	.LVL14
 1378 00c8 AE000000 		.4byte	.LVL16
 1379 00cc 0100     		.2byte	0x1
 1380 00ce 57       		.byte	0x57
 1381 00cf AE000000 		.4byte	.LVL16
 1382 00d3 B0000000 		.4byte	.LVL17
 1383 00d7 0100     		.2byte	0x1
 1384 00d9 52       		.byte	0x52
 1385 00da B0000000 		.4byte	.LVL17
 1386 00de B8000000 		.4byte	.LFE1
 1387 00e2 0400     		.2byte	0x4
 1388 00e4 F3       		.byte	0xf3
 1389 00e5 01       		.uleb128 0x1
 1390 00e6 52       		.byte	0x52
 1391 00e7 9F       		.byte	0x9f
 1392 00e8 00000000 		.4byte	0
 1393 00ec 00000000 		.4byte	0
 1394              	.LLST4:
 1395 00f0 1C000000 		.4byte	.LVL3
 1396 00f4 22000000 		.4byte	.LVL4
 1397 00f8 0200     		.2byte	0x2
 1398 00fa 30       		.byte	0x30
 1399 00fb 9F       		.byte	0x9f
 1400 00fc 22000000 		.4byte	.LVL4
 1401 0100 32000000 		.4byte	.LVL6
 1402 0104 0200     		.2byte	0x2
 1403 0106 31       		.byte	0x31
 1404 0107 9F       		.byte	0x9f
 1405 0108 60000000 		.4byte	.LVL8
 1406 010c 6E000000 		.4byte	.LVL9
 1407 0110 0100     		.2byte	0x1
 1408 0112 55       		.byte	0x55
 1409 0113 82000000 		.4byte	.LVL11
 1410 0117 99000000 		.4byte	.LVL13-1
 1411 011b 0100     		.2byte	0x1
 1412 011d 51       		.byte	0x51
 1413 011e 9A000000 		.4byte	.LVL13
 1414 0122 A4000000 		.4byte	.LVL15
 1415 0126 0200     		.2byte	0x2
 1416 0128 31       		.byte	0x31
 1417 0129 9F       		.byte	0x9f
 1418 012a A4000000 		.4byte	.LVL15
 1419 012e AE000000 		.4byte	.LVL16
 1420 0132 0200     		.2byte	0x2
 1421 0134 32       		.byte	0x32
ARM GAS  C:\Users\ADMINI~1\AppData\Local\Temp\ccrDo7T3.s 			page 26


 1422 0135 9F       		.byte	0x9f
 1423 0136 B0000000 		.4byte	.LVL17
 1424 013a B8000000 		.4byte	.LFE1
 1425 013e 0100     		.2byte	0x1
 1426 0140 51       		.byte	0x51
 1427 0141 00000000 		.4byte	0
 1428 0145 00000000 		.4byte	0
 1429              	.LLST5:
 1430 0149 60000000 		.4byte	.LVL8
 1431 014d 90000000 		.4byte	.LVL12
 1432 0151 0100     		.2byte	0x1
 1433 0153 50       		.byte	0x50
 1434 0154 B0000000 		.4byte	.LVL17
 1435 0158 B8000000 		.4byte	.LFE1
 1436 015c 0100     		.2byte	0x1
 1437 015e 50       		.byte	0x50
 1438 015f 00000000 		.4byte	0
 1439 0163 00000000 		.4byte	0
 1440              	.LLST6:
 1441 0167 32000000 		.4byte	.LVL6
 1442 016b 4C000000 		.4byte	.LVL7
 1443 016f 0200     		.2byte	0x2
 1444 0171 30       		.byte	0x30
 1445 0172 9F       		.byte	0x9f
 1446 0173 A4000000 		.4byte	.LVL15
 1447 0177 AE000000 		.4byte	.LVL16
 1448 017b 0200     		.2byte	0x2
 1449 017d 30       		.byte	0x30
 1450 017e 9F       		.byte	0x9f
 1451 017f 00000000 		.4byte	0
 1452 0183 00000000 		.4byte	0
 1453              	.LLST7:
 1454 0187 00000000 		.4byte	.LVL18
 1455 018b 0A000000 		.4byte	.LVL19
 1456 018f 0200     		.2byte	0x2
 1457 0191 30       		.byte	0x30
 1458 0192 9F       		.byte	0x9f
 1459 0193 0A000000 		.4byte	.LVL19
 1460 0197 24000000 		.4byte	.LVL20
 1461 019b 0200     		.2byte	0x2
 1462 019d 31       		.byte	0x31
 1463 019e 9F       		.byte	0x9f
 1464 019f 24000000 		.4byte	.LVL20
 1465 01a3 26000000 		.4byte	.LVL21
 1466 01a7 0200     		.2byte	0x2
 1467 01a9 32       		.byte	0x32
 1468 01aa 9F       		.byte	0x9f
 1469 01ab 26000000 		.4byte	.LVL21
 1470 01af 2C000000 		.4byte	.LVL22
 1471 01b3 0200     		.2byte	0x2
 1472 01b5 31       		.byte	0x31
 1473 01b6 9F       		.byte	0x9f
 1474 01b7 2C000000 		.4byte	.LVL22
 1475 01bb 34000000 		.4byte	.LVL23
 1476 01bf 0200     		.2byte	0x2
 1477 01c1 30       		.byte	0x30
 1478 01c2 9F       		.byte	0x9f
ARM GAS  C:\Users\ADMINI~1\AppData\Local\Temp\ccrDo7T3.s 			page 27


 1479 01c3 34000000 		.4byte	.LVL23
 1480 01c7 48000000 		.4byte	.LFE2
 1481 01cb 0200     		.2byte	0x2
 1482 01cd 31       		.byte	0x31
 1483 01ce 9F       		.byte	0x9f
 1484 01cf 00000000 		.4byte	0
 1485 01d3 00000000 		.4byte	0
 1486              	.LLST8:
 1487 01d7 00000000 		.4byte	.LVL24
 1488 01db 36000000 		.4byte	.LVL26
 1489 01df 0100     		.2byte	0x1
 1490 01e1 50       		.byte	0x50
 1491 01e2 36000000 		.4byte	.LVL26
 1492 01e6 64000000 		.4byte	.LVL30
 1493 01ea 0400     		.2byte	0x4
 1494 01ec F3       		.byte	0xf3
 1495 01ed 01       		.uleb128 0x1
 1496 01ee 50       		.byte	0x50
 1497 01ef 9F       		.byte	0x9f
 1498 01f0 64000000 		.4byte	.LVL30
 1499 01f4 7C000000 		.4byte	.LVL31
 1500 01f8 0100     		.2byte	0x1
 1501 01fa 50       		.byte	0x50
 1502 01fb 7C000000 		.4byte	.LVL31
 1503 01ff 8C000000 		.4byte	.LVL33
 1504 0203 0400     		.2byte	0x4
 1505 0205 F3       		.byte	0xf3
 1506 0206 01       		.uleb128 0x1
 1507 0207 50       		.byte	0x50
 1508 0208 9F       		.byte	0x9f
 1509 0209 8C000000 		.4byte	.LVL33
 1510 020d 9E000000 		.4byte	.LVL35
 1511 0211 0100     		.2byte	0x1
 1512 0213 50       		.byte	0x50
 1513 0214 9E000000 		.4byte	.LVL35
 1514 0218 A6000000 		.4byte	.LVL36
 1515 021c 0400     		.2byte	0x4
 1516 021e F3       		.byte	0xf3
 1517 021f 01       		.uleb128 0x1
 1518 0220 50       		.byte	0x50
 1519 0221 9F       		.byte	0x9f
 1520 0222 A6000000 		.4byte	.LVL36
 1521 0226 B2000000 		.4byte	.LVL38
 1522 022a 0100     		.2byte	0x1
 1523 022c 50       		.byte	0x50
 1524 022d B2000000 		.4byte	.LVL38
 1525 0231 CA000000 		.4byte	.LVL39
 1526 0235 0400     		.2byte	0x4
 1527 0237 F3       		.byte	0xf3
 1528 0238 01       		.uleb128 0x1
 1529 0239 50       		.byte	0x50
 1530 023a 9F       		.byte	0x9f
 1531 023b CA000000 		.4byte	.LVL39
 1532 023f 2E010000 		.4byte	.LVL45
 1533 0243 0100     		.2byte	0x1
 1534 0245 50       		.byte	0x50
 1535 0246 2E010000 		.4byte	.LVL45
ARM GAS  C:\Users\ADMINI~1\AppData\Local\Temp\ccrDo7T3.s 			page 28


 1536 024a 36010000 		.4byte	.LVL46
 1537 024e 0400     		.2byte	0x4
 1538 0250 F3       		.byte	0xf3
 1539 0251 01       		.uleb128 0x1
 1540 0252 50       		.byte	0x50
 1541 0253 9F       		.byte	0x9f
 1542 0254 36010000 		.4byte	.LVL46
 1543 0258 44010000 		.4byte	.LFE3
 1544 025c 0100     		.2byte	0x1
 1545 025e 50       		.byte	0x50
 1546 025f 00000000 		.4byte	0
 1547 0263 00000000 		.4byte	0
 1548              	.LLST9:
 1549 0267 00000000 		.4byte	.LVL24
 1550 026b 34000000 		.4byte	.LVL25
 1551 026f 0100     		.2byte	0x1
 1552 0271 51       		.byte	0x51
 1553 0272 34000000 		.4byte	.LVL25
 1554 0276 5A000000 		.4byte	.LVL29
 1555 027a 0100     		.2byte	0x1
 1556 027c 54       		.byte	0x54
 1557 027d 5A000000 		.4byte	.LVL29
 1558 0281 64000000 		.4byte	.LVL30
 1559 0285 0400     		.2byte	0x4
 1560 0287 F3       		.byte	0xf3
 1561 0288 01       		.uleb128 0x1
 1562 0289 51       		.byte	0x51
 1563 028a 9F       		.byte	0x9f
 1564 028b 64000000 		.4byte	.LVL30
 1565 028f 80000000 		.4byte	.LVL32
 1566 0293 0100     		.2byte	0x1
 1567 0295 51       		.byte	0x51
 1568 0296 80000000 		.4byte	.LVL32
 1569 029a 8C000000 		.4byte	.LVL33
 1570 029e 0400     		.2byte	0x4
 1571 02a0 F3       		.byte	0xf3
 1572 02a1 01       		.uleb128 0x1
 1573 02a2 51       		.byte	0x51
 1574 02a3 9F       		.byte	0x9f
 1575 02a4 8C000000 		.4byte	.LVL33
 1576 02a8 9A000000 		.4byte	.LVL34
 1577 02ac 0100     		.2byte	0x1
 1578 02ae 51       		.byte	0x51
 1579 02af 9A000000 		.4byte	.LVL34
 1580 02b3 A6000000 		.4byte	.LVL36
 1581 02b7 0400     		.2byte	0x4
 1582 02b9 F3       		.byte	0xf3
 1583 02ba 01       		.uleb128 0x1
 1584 02bb 51       		.byte	0x51
 1585 02bc 9F       		.byte	0x9f
 1586 02bd A6000000 		.4byte	.LVL36
 1587 02c1 AE000000 		.4byte	.LVL37
 1588 02c5 0100     		.2byte	0x1
 1589 02c7 51       		.byte	0x51
 1590 02c8 AE000000 		.4byte	.LVL37
 1591 02cc CA000000 		.4byte	.LVL39
 1592 02d0 0400     		.2byte	0x4
ARM GAS  C:\Users\ADMINI~1\AppData\Local\Temp\ccrDo7T3.s 			page 29


 1593 02d2 F3       		.byte	0xf3
 1594 02d3 01       		.uleb128 0x1
 1595 02d4 51       		.byte	0x51
 1596 02d5 9F       		.byte	0x9f
 1597 02d6 CA000000 		.4byte	.LVL39
 1598 02da CC000000 		.4byte	.LVL40
 1599 02de 0100     		.2byte	0x1
 1600 02e0 51       		.byte	0x51
 1601 02e1 CC000000 		.4byte	.LVL40
 1602 02e5 FA000000 		.4byte	.LVL41
 1603 02e9 0100     		.2byte	0x1
 1604 02eb 54       		.byte	0x54
 1605 02ec FA000000 		.4byte	.LVL41
 1606 02f0 06010000 		.4byte	.LVL42
 1607 02f4 0400     		.2byte	0x4
 1608 02f6 F3       		.byte	0xf3
 1609 02f7 01       		.uleb128 0x1
 1610 02f8 51       		.byte	0x51
 1611 02f9 9F       		.byte	0x9f
 1612 02fa 06010000 		.4byte	.LVL42
 1613 02fe 18010000 		.4byte	.LVL43
 1614 0302 0100     		.2byte	0x1
 1615 0304 51       		.byte	0x51
 1616 0305 18010000 		.4byte	.LVL43
 1617 0309 20010000 		.4byte	.LVL44
 1618 030d 0400     		.2byte	0x4
 1619 030f F3       		.byte	0xf3
 1620 0310 01       		.uleb128 0x1
 1621 0311 51       		.byte	0x51
 1622 0312 9F       		.byte	0x9f
 1623 0313 20010000 		.4byte	.LVL44
 1624 0317 2E010000 		.4byte	.LVL45
 1625 031b 0100     		.2byte	0x1
 1626 031d 51       		.byte	0x51
 1627 031e 2E010000 		.4byte	.LVL45
 1628 0322 36010000 		.4byte	.LVL46
 1629 0326 0400     		.2byte	0x4
 1630 0328 F3       		.byte	0xf3
 1631 0329 01       		.uleb128 0x1
 1632 032a 51       		.byte	0x51
 1633 032b 9F       		.byte	0x9f
 1634 032c 36010000 		.4byte	.LVL46
 1635 0330 44010000 		.4byte	.LFE3
 1636 0334 0100     		.2byte	0x1
 1637 0336 51       		.byte	0x51
 1638 0337 00000000 		.4byte	0
 1639 033b 00000000 		.4byte	0
 1640              		.section	.debug_aranges,"",%progbits
 1641 0000 34000000 		.4byte	0x34
 1642 0004 0200     		.2byte	0x2
 1643 0006 00000000 		.4byte	.Ldebug_info0
 1644 000a 04       		.byte	0x4
 1645 000b 00       		.byte	0
 1646 000c 0000     		.2byte	0
 1647 000e 0000     		.2byte	0
 1648 0010 00000000 		.4byte	.LFB0
 1649 0014 14000000 		.4byte	.LFE0-.LFB0
ARM GAS  C:\Users\ADMINI~1\AppData\Local\Temp\ccrDo7T3.s 			page 30


 1650 0018 00000000 		.4byte	.LFB1
 1651 001c B8000000 		.4byte	.LFE1-.LFB1
 1652 0020 00000000 		.4byte	.LFB2
 1653 0024 48000000 		.4byte	.LFE2-.LFB2
 1654 0028 00000000 		.4byte	.LFB3
 1655 002c 44010000 		.4byte	.LFE3-.LFB3
 1656 0030 00000000 		.4byte	0
 1657 0034 00000000 		.4byte	0
 1658              		.section	.debug_ranges,"",%progbits
 1659              	.Ldebug_ranges0:
 1660 0000 4C000000 		.4byte	.LBB2
 1661 0004 5C000000 		.4byte	.LBE2
 1662 0008 A4000000 		.4byte	.LBB3
 1663 000c A8000000 		.4byte	.LBE3
 1664 0010 AA000000 		.4byte	.LBB4
 1665 0014 B8000000 		.4byte	.LBE4
 1666 0018 00000000 		.4byte	0
 1667 001c 00000000 		.4byte	0
 1668 0020 00000000 		.4byte	.LFB0
 1669 0024 14000000 		.4byte	.LFE0
 1670 0028 00000000 		.4byte	.LFB1
 1671 002c B8000000 		.4byte	.LFE1
 1672 0030 00000000 		.4byte	.LFB2
 1673 0034 48000000 		.4byte	.LFE2
 1674 0038 00000000 		.4byte	.LFB3
 1675 003c 44010000 		.4byte	.LFE3
 1676 0040 00000000 		.4byte	0
 1677 0044 00000000 		.4byte	0
 1678              		.section	.debug_line,"",%progbits
 1679              	.Ldebug_line0:
 1680 0000 A9010000 		.section	.debug_str,"MS",%progbits,1
 1680      0200E700 
 1680      00000201 
 1680      FB0E0D00 
 1680      01010101 
 1681              	.LASF22:
 1682 0000 6372635F 		.ascii	"crc_high\000"
 1682      68696768 
 1682      00
 1683              	.LASF36:
 1684 0009 7061636B 		.ascii	"packet.c\000"
 1684      65742E63 
 1684      00
 1685              	.LASF11:
 1686 0012 5F5F7569 		.ascii	"__uint8_t\000"
 1686      6E74385F 
 1686      7400
 1687              	.LASF34:
 1688 001c 68616E64 		.ascii	"handler_states\000"
 1688      6C65725F 
 1688      73746174 
 1688      657300
 1689              	.LASF26:
 1690 002b 68616E64 		.ascii	"handler_num\000"
 1690      6C65725F 
 1690      6E756D00 
 1691              	.LASF33:
ARM GAS  C:\Users\ADMINI~1\AppData\Local\Temp\ccrDo7T3.s 			page 31


 1692 0037 72785F64 		.ascii	"rx_data\000"
 1692      61746100 
 1693              	.LASF35:
 1694 003f 474E5520 		.ascii	"GNU C 4.9.3 20150529 (release) [ARM/embedded-4_9-br"
 1694      4320342E 
 1694      392E3320 
 1694      32303135 
 1694      30353239 
 1695 0072 616E6368 		.ascii	"anch revision 224288] -mcpu=cortex-m4 -mfloat-abi=h"
 1695      20726576 
 1695      6973696F 
 1695      6E203232 
 1695      34323838 
 1696 00a5 61726420 		.ascii	"ard -mfpu=fpv4-sp-d16 -mno-thumb-interwork -mthumb "
 1696      2D6D6670 
 1696      753D6670 
 1696      76342D73 
 1696      702D6431 
 1697 00d8 2D676764 		.ascii	"-ggdb -O2 -std=gnu99 -fomit-frame-pointer -falign-f"
 1697      62202D4F 
 1697      32202D73 
 1697      74643D67 
 1697      6E753939 
 1698 010b 756E6374 		.ascii	"unctions=16 -ffunction-sections -fdata-sections -fn"
 1698      696F6E73 
 1698      3D313620 
 1698      2D666675 
 1698      6E637469 
 1699 013e 6F2D636F 		.ascii	"o-common -fsingle-precision-constant\000"
 1699      6D6D6F6E 
 1699      202D6673 
 1699      696E676C 
 1699      652D7072 
 1700              	.LASF23:
 1701 0163 5041434B 		.ascii	"PACKET_STATE_t\000"
 1701      45545F53 
 1701      54415445 
 1701      5F7400
 1702              	.LASF20:
 1703 0172 72785F64 		.ascii	"rx_data_ptr\000"
 1703      6174615F 
 1703      70747200 
 1704              	.LASF19:
 1705 017e 74785F62 		.ascii	"tx_buffer\000"
 1705      75666665 
 1705      7200
 1706              	.LASF29:
 1707 0188 64617461 		.ascii	"data\000"
 1707      00
 1708              	.LASF30:
 1709 018d 625F696E 		.ascii	"b_ind\000"
 1709      6400
 1710              	.LASF16:
 1711 0193 70726F63 		.ascii	"process_func\000"
 1711      6573735F 
 1711      66756E63 
 1711      00
ARM GAS  C:\Users\ADMINI~1\AppData\Local\Temp\ccrDo7T3.s 			page 32


 1712              	.LASF18:
 1713 01a0 72785F62 		.ascii	"rx_buffer\000"
 1713      75666665 
 1713      7200
 1714              	.LASF2:
 1715 01aa 756E7369 		.ascii	"unsigned char\000"
 1715      676E6564 
 1715      20636861 
 1715      7200
 1716              	.LASF6:
 1717 01b8 6C6F6E67 		.ascii	"long unsigned int\000"
 1717      20756E73 
 1717      69676E65 
 1717      6420696E 
 1717      7400
 1718              	.LASF4:
 1719 01ca 73686F72 		.ascii	"short unsigned int\000"
 1719      7420756E 
 1719      7369676E 
 1719      65642069 
 1719      6E7400
 1720              	.LASF0:
 1721 01dd 756E7369 		.ascii	"unsigned int\000"
 1721      676E6564 
 1721      20696E74 
 1721      00
 1722              	.LASF31:
 1723 01ea 7061636B 		.ascii	"packet_timerfunc\000"
 1723      65745F74 
 1723      696D6572 
 1723      66756E63 
 1723      00
 1724              	.LASF8:
 1725 01fb 6C6F6E67 		.ascii	"long long unsigned int\000"
 1725      206C6F6E 
 1725      6720756E 
 1725      7369676E 
 1725      65642069 
 1726              	.LASF12:
 1727 0212 75696E74 		.ascii	"uint8_t\000"
 1727      385F7400 
 1728              	.LASF28:
 1729 021a 7061636B 		.ascii	"packet_send_packet\000"
 1729      65745F73 
 1729      656E645F 
 1729      7061636B 
 1729      657400
 1730              	.LASF21:
 1731 022d 6372635F 		.ascii	"crc_low\000"
 1731      6C6F7700 
 1732              	.LASF14:
 1733 0235 72785F74 		.ascii	"rx_timeout\000"
 1733      696D656F 
 1733      757400
 1734              	.LASF24:
 1735 0240 735F6675 		.ascii	"s_func\000"
 1735      6E6300
ARM GAS  C:\Users\ADMINI~1\AppData\Local\Temp\ccrDo7T3.s 			page 33


 1736              	.LASF15:
 1737 0247 73656E64 		.ascii	"send_func\000"
 1737      5F66756E 
 1737      6300
 1738              	.LASF9:
 1739 0251 73697A65 		.ascii	"sizetype\000"
 1739      74797065 
 1739      00
 1740              	.LASF7:
 1741 025a 6C6F6E67 		.ascii	"long long int\000"
 1741      206C6F6E 
 1741      6720696E 
 1741      7400
 1742              	.LASF25:
 1743 0268 705F6675 		.ascii	"p_func\000"
 1743      6E6300
 1744              	.LASF32:
 1745 026f 7061636B 		.ascii	"packet_process_byte\000"
 1745      65745F70 
 1745      726F6365 
 1745      73735F62 
 1745      79746500 
 1746              	.LASF3:
 1747 0283 73686F72 		.ascii	"short int\000"
 1747      7420696E 
 1747      7400
 1748              	.LASF37:
 1749 028d 563A5C6F 		.ascii	"V:\\oroca_bldc_dev\000"
 1749      726F6361 
 1749      5F626C64 
 1749      635F6465 
 1749      7600
 1750              	.LASF17:
 1751 029f 7061796C 		.ascii	"payload_length\000"
 1751      6F61645F 
 1751      6C656E67 
 1751      746800
 1752              	.LASF38:
 1753 02ae 63726331 		.ascii	"crc16\000"
 1753      3600
 1754              	.LASF5:
 1755 02b4 6C6F6E67 		.ascii	"long int\000"
 1755      20696E74 
 1755      00
 1756              	.LASF10:
 1757 02bd 63686172 		.ascii	"char\000"
 1757      00
 1758              	.LASF27:
 1759 02c2 7061636B 		.ascii	"packet_init\000"
 1759      65745F69 
 1759      6E697400 
 1760              	.LASF1:
 1761 02ce 7369676E 		.ascii	"signed char\000"
 1761      65642063 
 1761      68617200 
 1762              	.LASF13:
 1763 02da 72785F73 		.ascii	"rx_state\000"
ARM GAS  C:\Users\ADMINI~1\AppData\Local\Temp\ccrDo7T3.s 			page 34


 1763      74617465 
 1763      00
 1764              		.ident	"GCC: (GNU Tools for ARM Embedded Processors) 4.9.3 20150529 (release) [ARM/embedded-4_9-br
ARM GAS  C:\Users\ADMINI~1\AppData\Local\Temp\ccrDo7T3.s 			page 35


DEFINED SYMBOLS
                            *ABS*:00000000 packet.c
C:\Users\ADMINI~1\AppData\Local\Temp\ccrDo7T3.s:21     .text.packet_init:00000000 $t
C:\Users\ADMINI~1\AppData\Local\Temp\ccrDo7T3.s:27     .text.packet_init:00000000 packet_init
C:\Users\ADMINI~1\AppData\Local\Temp\ccrDo7T3.s:48     .text.packet_init:00000010 $d
C:\Users\ADMINI~1\AppData\Local\Temp\ccrDo7T3.s:53     .text.packet_send_packet:00000000 $t
C:\Users\ADMINI~1\AppData\Local\Temp\ccrDo7T3.s:59     .text.packet_send_packet:00000000 packet_send_packet
C:\Users\ADMINI~1\AppData\Local\Temp\ccrDo7T3.s:227    .text.packet_send_packet:000000b4 $d
C:\Users\ADMINI~1\AppData\Local\Temp\ccrDo7T3.s:233    .text.packet_timerfunc:00000000 $t
C:\Users\ADMINI~1\AppData\Local\Temp\ccrDo7T3.s:239    .text.packet_timerfunc:00000000 packet_timerfunc
C:\Users\ADMINI~1\AppData\Local\Temp\ccrDo7T3.s:292    .text.packet_timerfunc:00000044 $d
C:\Users\ADMINI~1\AppData\Local\Temp\ccrDo7T3.s:298    .text.packet_process_byte:00000000 $t
C:\Users\ADMINI~1\AppData\Local\Temp\ccrDo7T3.s:304    .text.packet_process_byte:00000000 packet_process_byte
C:\Users\ADMINI~1\AppData\Local\Temp\ccrDo7T3.s:334    .text.packet_process_byte:00000018 $d
C:\Users\ADMINI~1\AppData\Local\Temp\ccrDo7T3.s:555    .text.packet_process_byte:00000140 $d
C:\Users\ADMINI~1\AppData\Local\Temp\ccrDo7T3.s:560    .bss.handler_states:00000000 $d
C:\Users\ADMINI~1\AppData\Local\Temp\ccrDo7T3.s:564    .bss.handler_states:00000000 handler_states
                     .debug_frame:00000010 $d
C:\Users\ADMINI~1\AppData\Local\Temp\ccrDo7T3.s:341    .text.packet_process_byte:0000001f $d
C:\Users\ADMINI~1\AppData\Local\Temp\ccrDo7T3.s:341    .text.packet_process_byte:00000020 $t

UNDEFINED SYMBOLS
crc16
