ARM GAS  C:\Users\jsyoon\AppData\Local\Temp\cccpbzKF.s 			page 1


   1              		.syntax unified
   2              		.cpu cortex-m4
   3              		.eabi_attribute 27, 3
   4              		.eabi_attribute 28, 1
   5              		.fpu fpv4-sp-d16
   6              		.eabi_attribute 20, 1
   7              		.eabi_attribute 21, 1
   8              		.eabi_attribute 23, 3
   9              		.eabi_attribute 24, 1
  10              		.eabi_attribute 25, 1
  11              		.eabi_attribute 26, 1
  12              		.eabi_attribute 30, 2
  13              		.eabi_attribute 34, 1
  14              		.eabi_attribute 18, 4
  15              		.thumb
  16              		.file	"packet.c"
  17              		.text
  18              	.Ltext0:
  19              		.cfi_sections	.debug_frame
  20              		.section	.text.packet_init,"ax",%progbits
  21              		.align	2
  22              		.p2align 4,,15
  23              		.global	packet_init
  24              		.thumb
  25              		.thumb_func
  26              		.type	packet_init, %function
  27              	packet_init:
  28              	.LFB0:
  29              		.file 1 "packet.c"
  30              		.loc 1 45 0
  31              		.cfi_startproc
  32              		@ args = 0, pretend = 0, frame = 0
  33              		@ frame_needed = 0, uses_anonymous_args = 0
  34              		@ link register save eliminated.
  35              	.LVL0:
  36              		.loc 1 46 0
  37 0000 034B     		ldr	r3, .L2
  38 0002 02EB8212 		add	r2, r2, r2, lsl #6
  39              	.LVL1:
  40 0006 03EB4212 		add	r2, r3, r2, lsl #5
  41 000a 5060     		str	r0, [r2, #4]
  42              		.loc 1 47 0
  43 000c 9160     		str	r1, [r2, #8]
  44 000e 7047     		bx	lr
  45              	.L3:
  46              		.align	2
  47              	.L2:
  48 0010 00000000 		.word	.LANCHOR0
  49              		.cfi_endproc
  50              	.LFE0:
  51              		.size	packet_init, .-packet_init
  52 0014 AFF30080 		.section	.text.packet_send_packet,"ax",%progbits
  52      AFF30080 
  52      AFF30080 
  53              		.align	2
  54              		.p2align 4,,15
  55              		.global	packet_send_packet
ARM GAS  C:\Users\jsyoon\AppData\Local\Temp\cccpbzKF.s 			page 2


  56              		.thumb
  57              		.thumb_func
  58              		.type	packet_send_packet, %function
  59              	packet_send_packet:
  60              	.LFB1:
  61              		.loc 1 50 0
  62              		.cfi_startproc
  63              		@ args = 0, pretend = 0, frame = 0
  64              		@ frame_needed = 0, uses_anonymous_args = 0
  65              	.LVL2:
  66              		.loc 1 51 0
  67 0000 B1F5806F 		cmp	r1, #1024
  68              		.loc 1 50 0
  69 0004 2DE9F843 		push	{r3, r4, r5, r6, r7, r8, r9, lr}
  70              		.cfi_def_cfa_offset 32
  71              		.cfi_offset 3, -32
  72              		.cfi_offset 4, -28
  73              		.cfi_offset 5, -24
  74              		.cfi_offset 6, -20
  75              		.cfi_offset 7, -16
  76              		.cfi_offset 8, -12
  77              		.cfi_offset 9, -8
  78              		.cfi_offset 14, -4
  79              		.loc 1 50 0
  80 0008 1746     		mov	r7, r2
  81              		.loc 1 51 0
  82 000a 3CD8     		bhi	.L4
  83              	.LVL3:
  84              		.loc 1 58 0
  85 000c 4FEA8219 		lsl	r9, r2, #6
  86 0010 DFF88C80 		ldr	r8, .L20
  87 0014 09EB0203 		add	r3, r9, r2
  88              		.loc 1 57 0
  89 0018 B1F5807F 		cmp	r1, #256
  90              		.loc 1 58 0
  91 001c 08EB4313 		add	r3, r8, r3, lsl #5
  92              		.loc 1 57 0
  93 0020 33D9     		bls	.L19
  94              	.LVL4:
  95              		.loc 1 62 0
  96 0022 0C0A     		lsrs	r4, r1, #8
  97              		.loc 1 61 0
  98 0024 0322     		movs	r2, #3
  99              	.LVL5:
 100              		.loc 1 63 0
 101 0026 83F81214 		strb	r1, [r3, #1042]
 102              		.loc 1 62 0
 103 002a 83F81144 		strb	r4, [r3, #1041]
 104              		.loc 1 61 0
 105 002e 83F81024 		strb	r2, [r3, #1040]
 106              	.LVL6:
 107              	.L8:
 108 0032 09EB0706 		add	r6, r9, r7
 109 0036 02EB4616 		add	r6, r2, r6, lsl #5
 110 003a 4644     		add	r6, r6, r8
 111              		.loc 1 63 0
 112 003c 0023     		movs	r3, #0
ARM GAS  C:\Users\jsyoon\AppData\Local\Temp\cccpbzKF.s 			page 3


 113              	.LVL7:
 114              	.L11:
 115 003e F418     		adds	r4, r6, r3
 116              	.LBB2:
 117              		.loc 1 67 0 discriminator 2
 118 0040 C55C     		ldrb	r5, [r0, r3]	@ zero_extendqisi2
 119 0042 84F81054 		strb	r5, [r4, #1040]
 120              		.loc 1 66 0 discriminator 2
 121 0046 0133     		adds	r3, r3, #1
 122              	.LVL8:
 123 0048 8B42     		cmp	r3, r1
 124 004a F8D1     		bne	.L11
 125 004c 5418     		adds	r4, r2, r1
 126 004e 661C     		adds	r6, r4, #1
 127              	.LVL9:
 128              	.L9:
 129              	.LBE2:
 130              		.loc 1 71 0
 131 0050 09EB0705 		add	r5, r9, r7
 132 0054 6D01     		lsls	r5, r5, #5
 133              		.loc 1 70 0
 134 0056 FFF7FEFF 		bl	crc16
 135              	.LVL10:
 136              		.loc 1 71 0
 137 005a 08EB0503 		add	r3, r8, r5
 138 005e 1A19     		adds	r2, r3, r4
 139              		.loc 1 72 0
 140 0060 1E44     		add	r6, r6, r3
 141              	.LVL11:
 142              		.loc 1 75 0
 143 0062 5B68     		ldr	r3, [r3, #4]
 144              		.loc 1 71 0
 145 0064 DFF83880 		ldr	r8, .L20
 146              		.loc 1 73 0
 147 0068 0327     		movs	r7, #3
 148              	.LVL12:
 149              		.loc 1 71 0
 150 006a 4FEA102C 		lsr	ip, r0, #8
 151 006e 82F810C4 		strb	ip, [r2, #1040]
 152              		.loc 1 73 0
 153 0072 E119     		adds	r1, r4, r7
 154              	.LVL13:
 155              		.loc 1 72 0
 156 0074 86F81004 		strb	r0, [r6, #1040]
 157              		.loc 1 73 0
 158 0078 82F81274 		strb	r7, [r2, #1042]
 159              		.loc 1 75 0
 160 007c 1BB1     		cbz	r3, .L4
 161              		.loc 1 76 0
 162 007e 05F58260 		add	r0, r5, #1040
 163              	.LVL14:
 164 0082 4044     		add	r0, r0, r8
 165 0084 9847     		blx	r3
 166              	.LVL15:
 167              	.L4:
 168 0086 BDE8F883 		pop	{r3, r4, r5, r6, r7, r8, r9, pc}
 169              	.LVL16:
ARM GAS  C:\Users\jsyoon\AppData\Local\Temp\cccpbzKF.s 			page 4


 170              	.L19:
 171              		.loc 1 58 0
 172 008a 0222     		movs	r2, #2
 173              	.LVL17:
 174              		.loc 1 59 0
 175 008c 83F81114 		strb	r1, [r3, #1041]
 176              		.loc 1 58 0
 177 0090 83F81024 		strb	r2, [r3, #1040]
 178              	.LVL18:
 179              	.LBB3:
 180              		.loc 1 66 0
 181 0094 0029     		cmp	r1, #0
 182 0096 CCD1     		bne	.L8
 183              	.LBE3:
 184              		.loc 1 59 0
 185 0098 1446     		mov	r4, r2
 186              	.LBB4:
 187              		.loc 1 66 0
 188 009a 0326     		movs	r6, #3
 189 009c D8E7     		b	.L9
 190              	.L21:
 191 009e 00BF     		.align	2
 192              	.L20:
 193 00a0 00000000 		.word	.LANCHOR0
 194              	.LBE4:
 195              		.cfi_endproc
 196              	.LFE1:
 197              		.size	packet_send_packet, .-packet_send_packet
 198 00a4 AFF30080 		.section	.text.packet_timerfunc,"ax",%progbits
 198      AFF30080 
 198      AFF30080 
 199              		.align	2
 200              		.p2align 4,,15
 201              		.global	packet_timerfunc
 202              		.thumb
 203              		.thumb_func
 204              		.type	packet_timerfunc, %function
 205              	packet_timerfunc:
 206              	.LFB2:
 207              		.loc 1 83 0
 208              		.cfi_startproc
 209              		@ args = 0, pretend = 0, frame = 0
 210              		@ frame_needed = 0, uses_anonymous_args = 0
 211              		@ link register save eliminated.
 212              	.LVL19:
 213              	.LBB5:
 214              		.loc 1 85 0
 215 0000 104B     		ldr	r3, .L28
 216 0002 5A78     		ldrb	r2, [r3, #1]	@ zero_extendqisi2
 217 0004 02F0FF01 		and	r1, r2, #255
 218 0008 82B9     		cbnz	r2, .L23
 219              	.LVL20:
 220              		.loc 1 88 0
 221 000a 1970     		strb	r1, [r3]
 222              		.loc 1 85 0
 223 000c 93F82138 		ldrb	r3, [r3, #2081]	@ zero_extendqisi2
 224 0010 0C4A     		ldr	r2, .L28
ARM GAS  C:\Users\jsyoon\AppData\Local\Temp\cccpbzKF.s 			page 5


 225 0012 03F0FF01 		and	r1, r3, #255
 226 0016 33B1     		cbz	r3, .L27
 227              	.L25:
 228              		.loc 1 86 0
 229 0018 92F82138 		ldrb	r3, [r2, #2081]	@ zero_extendqisi2
 230 001c 013B     		subs	r3, r3, #1
 231 001e DBB2     		uxtb	r3, r3
 232 0020 82F82138 		strb	r3, [r2, #2081]
 233              	.LVL21:
 234 0024 7047     		bx	lr
 235              	.LVL22:
 236              	.L27:
 237              		.loc 1 88 0
 238 0026 82F82018 		strb	r1, [r2, #2080]
 239 002a 7047     		bx	lr
 240              	.LVL23:
 241              	.L23:
 242              		.loc 1 86 0
 243 002c 5A78     		ldrb	r2, [r3, #1]	@ zero_extendqisi2
 244 002e 013A     		subs	r2, r2, #1
 245 0030 D2B2     		uxtb	r2, r2
 246 0032 5A70     		strb	r2, [r3, #1]
 247              	.LVL24:
 248              		.loc 1 85 0
 249 0034 93F82138 		ldrb	r3, [r3, #2081]	@ zero_extendqisi2
 250 0038 024A     		ldr	r2, .L28
 251 003a 03F0FF01 		and	r1, r3, #255
 252 003e 002B     		cmp	r3, #0
 253 0040 EAD1     		bne	.L25
 254 0042 F0E7     		b	.L27
 255              	.L29:
 256              		.align	2
 257              	.L28:
 258 0044 00000000 		.word	.LANCHOR0
 259              	.LBE5:
 260              		.cfi_endproc
 261              	.LFE2:
 262              		.size	packet_timerfunc, .-packet_timerfunc
 263 0048 AFF30080 		.section	.text.packet_process_byte,"ax",%progbits
 263      AFF30080 
 264              		.align	2
 265              		.p2align 4,,15
 266              		.global	packet_process_byte
 267              		.thumb
 268              		.thumb_func
 269              		.type	packet_process_byte, %function
 270              	packet_process_byte:
 271              	.LFB3:
 272              		.loc 1 93 0
 273              		.cfi_startproc
 274              		@ args = 0, pretend = 0, frame = 0
 275              		@ frame_needed = 0, uses_anonymous_args = 0
 276              	.LVL25:
 277 0000 2DE9F843 		push	{r3, r4, r5, r6, r7, r8, r9, lr}
 278              		.cfi_def_cfa_offset 32
 279              		.cfi_offset 3, -32
 280              		.cfi_offset 4, -28
ARM GAS  C:\Users\jsyoon\AppData\Local\Temp\cccpbzKF.s 			page 6


 281              		.cfi_offset 5, -24
 282              		.cfi_offset 6, -20
 283              		.cfi_offset 7, -16
 284              		.cfi_offset 8, -12
 285              		.cfi_offset 9, -8
 286              		.cfi_offset 14, -4
 287              		.loc 1 94 0
 288 0004 8E01     		lsls	r6, r1, #6
 289 0006 7318     		adds	r3, r6, r1
 290 0008 5B01     		lsls	r3, r3, #5
 291 000a 4C4D     		ldr	r5, .L55
 292 000c EB5C     		ldrb	r3, [r5, r3]	@ zero_extendqisi2
 293              		.loc 1 93 0
 294 000e 0C46     		mov	r4, r1
 295              		.loc 1 94 0
 296 0010 062B     		cmp	r3, #6
 297 0012 1ED8     		bhi	.L31
 298 0014 DFE803F0 		tbb	[pc, r3]
 299              	.L33:
 300 0018 23       		.byte	(.L32-.L33)/2
 301 0019 37       		.byte	(.L34-.L33)/2
 302 001a 44       		.byte	(.L35-.L33)/2
 303 001b 56       		.byte	(.L36-.L33)/2
 304 001c 74       		.byte	(.L37-.L33)/2
 305 001d 81       		.byte	(.L38-.L33)/2
 306 001e 04       		.byte	(.L39-.L33)/2
 307 001f 00       		.p2align 1
 308              	.L39:
 309              		.loc 1 150 0
 310 0020 0328     		cmp	r0, #3
 311 0022 16D1     		bne	.L31
 312              		.loc 1 151 0
 313 0024 7318     		adds	r3, r6, r1
 314 0026 5B01     		lsls	r3, r3, #5
 315 0028 EF18     		adds	r7, r5, r3
 316 002a 1033     		adds	r3, r3, #16
 317 002c 05EB0309 		add	r9, r5, r3
 318 0030 4846     		mov	r0, r9
 319              	.LVL26:
 320 0032 F968     		ldr	r1, [r7, #12]
 321              	.LVL27:
 322 0034 FFF7FEFF 		bl	crc16
 323              	.LVL28:
 324              		.loc 1 152 0
 325 0038 97F81D28 		ldrb	r2, [r7, #2077]	@ zero_extendqisi2
 326              		.loc 1 153 0
 327 003c 97F81C38 		ldrb	r3, [r7, #2076]	@ zero_extendqisi2
 328 0040 43EA0223 		orr	r3, r3, r2, lsl #8
 329              		.loc 1 151 0
 330 0044 9842     		cmp	r0, r3
 331 0046 04D1     		bne	.L31
 332              		.loc 1 155 0
 333 0048 BB68     		ldr	r3, [r7, #8]
 334 004a 13B1     		cbz	r3, .L31
 335              		.loc 1 156 0
 336 004c 4846     		mov	r0, r9
 337 004e F968     		ldr	r1, [r7, #12]
ARM GAS  C:\Users\jsyoon\AppData\Local\Temp\cccpbzKF.s 			page 7


 338 0050 9847     		blx	r3
 339              	.LVL29:
 340              	.L31:
 341              		.loc 1 165 0
 342 0052 3444     		add	r4, r4, r6
 343              	.LVL30:
 344 0054 6401     		lsls	r4, r4, #5
 345              	.L53:
 346 0056 0023     		movs	r3, #0
 347 0058 2B55     		strb	r3, [r5, r4]
 348 005a BDE8F883 		pop	{r3, r4, r5, r6, r7, r8, r9, pc}
 349              	.LVL31:
 350              	.L32:
 351              		.loc 1 98 0
 352 005e 3444     		add	r4, r4, r6
 353              		.loc 1 96 0
 354 0060 0228     		cmp	r0, #2
 355              		.loc 1 98 0
 356 0062 4FEA4414 		lsl	r4, r4, #5
 357              		.loc 1 96 0
 358 0066 63D0     		beq	.L54
 359              		.loc 1 102 0
 360 0068 0328     		cmp	r0, #3
 361 006a F4D1     		bne	.L53
 362              		.loc 1 104 0
 363 006c 2E5D     		ldrb	r6, [r5, r4]	@ zero_extendqisi2
 364 006e 0136     		adds	r6, r6, #1
 365 0070 2B19     		adds	r3, r5, r4
 366 0072 F6B2     		uxtb	r6, r6
 367              		.loc 1 105 0
 368 0074 0220     		movs	r0, #2
 369              	.LVL32:
 370              	.L51:
 371              		.loc 1 104 0
 372 0076 2E55     		strb	r6, [r5, r4]
 373              		.loc 1 106 0
 374 0078 0022     		movs	r2, #0
 375              		.loc 1 105 0
 376 007a 5870     		strb	r0, [r3, #1]
 377              		.loc 1 106 0
 378 007c C3F81828 		str	r2, [r3, #2072]
 379              		.loc 1 107 0
 380 0080 DA60     		str	r2, [r3, #12]
 381 0082 BDE8F883 		pop	{r3, r4, r5, r6, r7, r8, r9, pc}
 382              	.LVL33:
 383              	.L34:
 384              		.loc 1 114 0
 385 0086 3444     		add	r4, r4, r6
 386 0088 6401     		lsls	r4, r4, #5
 387 008a 2B19     		adds	r3, r5, r4
 388              		.loc 1 115 0
 389 008c 295D     		ldrb	r1, [r5, r4]	@ zero_extendqisi2
 390              	.LVL34:
 391 008e 0131     		adds	r1, r1, #1
 392              		.loc 1 114 0
 393 0090 0002     		lsls	r0, r0, #8
 394              	.LVL35:
ARM GAS  C:\Users\jsyoon\AppData\Local\Temp\cccpbzKF.s 			page 8


 395              		.loc 1 115 0
 396 0092 C9B2     		uxtb	r1, r1
 397              		.loc 1 116 0
 398 0094 0222     		movs	r2, #2
 399              		.loc 1 114 0
 400 0096 D860     		str	r0, [r3, #12]
 401              		.loc 1 115 0
 402 0098 2955     		strb	r1, [r5, r4]
 403              		.loc 1 116 0
 404 009a 5A70     		strb	r2, [r3, #1]
 405              		.loc 1 117 0
 406 009c BDE8F883 		pop	{r3, r4, r5, r6, r7, r8, r9, pc}
 407              	.LVL36:
 408              	.L35:
 409              		.loc 1 120 0
 410 00a0 3444     		add	r4, r4, r6
 411 00a2 6401     		lsls	r4, r4, #5
 412 00a4 2544     		add	r5, r5, r4
 413 00a6 254A     		ldr	r2, .L55
 414 00a8 E968     		ldr	r1, [r5, #12]
 415              	.LVL37:
 416 00aa 0843     		orrs	r0, r0, r1
 417              	.LVL38:
 418              		.loc 1 121 0
 419 00ac B0F5806F 		cmp	r0, #1024
 420              		.loc 1 120 0
 421 00b0 E860     		str	r0, [r5, #12]
 422              		.loc 1 121 0
 423 00b2 39D8     		bhi	.L43
 424              		.loc 1 122 0
 425 00b4 115D     		ldrb	r1, [r2, r4]	@ zero_extendqisi2
 426 00b6 0131     		adds	r1, r1, #1
 427 00b8 C9B2     		uxtb	r1, r1
 428              		.loc 1 123 0
 429 00ba 0223     		movs	r3, #2
 430              		.loc 1 122 0
 431 00bc 1155     		strb	r1, [r2, r4]
 432              		.loc 1 123 0
 433 00be 6B70     		strb	r3, [r5, #1]
 434 00c0 BDE8F883 		pop	{r3, r4, r5, r6, r7, r8, r9, pc}
 435              	.LVL39:
 436              	.L36:
 437              		.loc 1 130 0
 438 00c4 7118     		adds	r1, r6, r1
 439              	.LVL40:
 440 00c6 4901     		lsls	r1, r1, #5
 441 00c8 6B18     		adds	r3, r5, r1
 442 00ca DFF87080 		ldr	r8, .L55
 443 00ce D3F81828 		ldr	r2, [r3, #2072]
 444              		.loc 1 131 0
 445 00d2 DF68     		ldr	r7, [r3, #12]
 446              		.loc 1 130 0
 447 00d4 03EB020C 		add	ip, r3, r2
 448 00d8 0132     		adds	r2, r2, #1
 449              		.loc 1 131 0
 450 00da BA42     		cmp	r2, r7
 451              		.loc 1 130 0
ARM GAS  C:\Users\jsyoon\AppData\Local\Temp\cccpbzKF.s 			page 9


 452 00dc C3F81828 		str	r2, [r3, #2072]
 453 00e0 8CF81000 		strb	r0, [ip, #16]
 454              		.loc 1 131 0
 455 00e4 05D1     		bne	.L44
 456              		.loc 1 132 0
 457 00e6 18F80130 		ldrb	r3, [r8, r1]	@ zero_extendqisi2
 458 00ea 0133     		adds	r3, r3, #1
 459 00ec DBB2     		uxtb	r3, r3
 460 00ee 08F80130 		strb	r3, [r8, r1]
 461              	.L44:
 462              		.loc 1 134 0
 463 00f2 3444     		add	r4, r4, r6
 464              	.LVL41:
 465 00f4 05EB4415 		add	r5, r5, r4, lsl #5
 466 00f8 0223     		movs	r3, #2
 467 00fa 6B70     		strb	r3, [r5, #1]
 468              		.loc 1 135 0
 469 00fc BDE8F883 		pop	{r3, r4, r5, r6, r7, r8, r9, pc}
 470              	.LVL42:
 471              	.L37:
 472              		.loc 1 138 0
 473 0100 3444     		add	r4, r4, r6
 474 0102 6401     		lsls	r4, r4, #5
 475 0104 2B19     		adds	r3, r5, r4
 476              		.loc 1 139 0
 477 0106 295D     		ldrb	r1, [r5, r4]	@ zero_extendqisi2
 478              	.LVL43:
 479              		.loc 1 138 0
 480 0108 83F81D08 		strb	r0, [r3, #2077]
 481              	.L52:
 482              		.loc 1 145 0
 483 010c 0131     		adds	r1, r1, #1
 484 010e C9B2     		uxtb	r1, r1
 485              		.loc 1 146 0
 486 0110 0222     		movs	r2, #2
 487              		.loc 1 145 0
 488 0112 2955     		strb	r1, [r5, r4]
 489              		.loc 1 146 0
 490 0114 5A70     		strb	r2, [r3, #1]
 491              		.loc 1 147 0
 492 0116 BDE8F883 		pop	{r3, r4, r5, r6, r7, r8, r9, pc}
 493              	.LVL44:
 494              	.L38:
 495              		.loc 1 144 0
 496 011a 3444     		add	r4, r4, r6
 497 011c 6401     		lsls	r4, r4, #5
 498 011e 2B19     		adds	r3, r5, r4
 499              		.loc 1 145 0
 500 0120 295D     		ldrb	r1, [r5, r4]	@ zero_extendqisi2
 501              	.LVL45:
 502              		.loc 1 144 0
 503 0122 83F81C08 		strb	r0, [r3, #2076]
 504 0126 F1E7     		b	.L52
 505              	.LVL46:
 506              	.L43:
 507              		.loc 1 125 0
 508 0128 0023     		movs	r3, #0
ARM GAS  C:\Users\jsyoon\AppData\Local\Temp\cccpbzKF.s 			page 10


 509 012a 1355     		strb	r3, [r2, r4]
 510 012c BDE8F883 		pop	{r3, r4, r5, r6, r7, r8, r9, pc}
 511              	.LVL47:
 512              	.L54:
 513              		.loc 1 98 0
 514 0130 2E5D     		ldrb	r6, [r5, r4]	@ zero_extendqisi2
 515 0132 0236     		adds	r6, r6, #2
 516 0134 2B19     		adds	r3, r5, r4
 517 0136 F6B2     		uxtb	r6, r6
 518 0138 9DE7     		b	.L51
 519              	.L56:
 520 013a 00BF     		.align	2
 521              	.L55:
 522 013c 00000000 		.word	.LANCHOR0
 523              		.cfi_endproc
 524              	.LFE3:
 525              		.size	packet_process_byte, .-packet_process_byte
 526              		.section	.bss.handler_states,"aw",%nobits
 527              		.align	2
 528              		.set	.LANCHOR0,. + 0
 529              		.type	handler_states, %object
 530              		.size	handler_states, 4160
 531              	handler_states:
 532 0000 00000000 		.space	4160
 532      00000000 
 532      00000000 
 532      00000000 
 532      00000000 
 533              		.text
 534              	.Letext0:
 535              		.file 2 "c:\\crosstools\\gcc-arm-embedded\\4.8_2014q2\\arm-none-eabi\\include\\machine\\_default_t
 536              		.file 3 "c:\\crosstools\\gcc-arm-embedded\\4.8_2014q2\\arm-none-eabi\\include\\stdint.h"
 537              		.file 4 "crc.h"
 538              		.section	.debug_info,"",%progbits
 539              	.Ldebug_info0:
 540 0000 F3020000 		.4byte	0x2f3
 541 0004 0400     		.2byte	0x4
 542 0006 00000000 		.4byte	.Ldebug_abbrev0
 543 000a 04       		.byte	0x4
 544 000b 01       		.uleb128 0x1
 545 000c 3F000000 		.4byte	.LASF35
 546 0010 01       		.byte	0x1
 547 0011 09000000 		.4byte	.LASF36
 548 0015 83020000 		.4byte	.LASF37
 549 0019 20000000 		.4byte	.Ldebug_ranges0+0x20
 550 001d 00000000 		.4byte	0
 551 0021 00000000 		.4byte	.Ldebug_line0
 552 0025 02       		.uleb128 0x2
 553 0026 04       		.byte	0x4
 554 0027 05       		.byte	0x5
 555 0028 696E7400 		.ascii	"int\000"
 556 002c 03       		.uleb128 0x3
 557 002d 04       		.byte	0x4
 558 002e 07       		.byte	0x7
 559 002f E7010000 		.4byte	.LASF0
 560 0033 03       		.uleb128 0x3
 561 0034 01       		.byte	0x1
ARM GAS  C:\Users\jsyoon\AppData\Local\Temp\cccpbzKF.s 			page 11


 562 0035 06       		.byte	0x6
 563 0036 EC020000 		.4byte	.LASF1
 564 003a 04       		.uleb128 0x4
 565 003b 12000000 		.4byte	.LASF11
 566 003f 02       		.byte	0x2
 567 0040 1C       		.byte	0x1c
 568 0041 45000000 		.4byte	0x45
 569 0045 03       		.uleb128 0x3
 570 0046 01       		.byte	0x1
 571 0047 08       		.byte	0x8
 572 0048 AA010000 		.4byte	.LASF2
 573 004c 03       		.uleb128 0x3
 574 004d 02       		.byte	0x2
 575 004e 05       		.byte	0x5
 576 004f B3020000 		.4byte	.LASF3
 577 0053 03       		.uleb128 0x3
 578 0054 02       		.byte	0x2
 579 0055 07       		.byte	0x7
 580 0056 D4010000 		.4byte	.LASF4
 581 005a 03       		.uleb128 0x3
 582 005b 04       		.byte	0x4
 583 005c 05       		.byte	0x5
 584 005d D2020000 		.4byte	.LASF5
 585 0061 03       		.uleb128 0x3
 586 0062 04       		.byte	0x4
 587 0063 07       		.byte	0x7
 588 0064 C2010000 		.4byte	.LASF6
 589 0068 03       		.uleb128 0x3
 590 0069 08       		.byte	0x8
 591 006a 05       		.byte	0x5
 592 006b 5A020000 		.4byte	.LASF7
 593 006f 03       		.uleb128 0x3
 594 0070 08       		.byte	0x8
 595 0071 07       		.byte	0x7
 596 0072 05020000 		.4byte	.LASF8
 597 0076 03       		.uleb128 0x3
 598 0077 04       		.byte	0x4
 599 0078 07       		.byte	0x7
 600 0079 51020000 		.4byte	.LASF9
 601 007d 05       		.uleb128 0x5
 602 007e 04       		.byte	0x4
 603 007f 45000000 		.4byte	0x45
 604 0083 03       		.uleb128 0x3
 605 0084 01       		.byte	0x1
 606 0085 08       		.byte	0x8
 607 0086 DB020000 		.4byte	.LASF10
 608 008a 04       		.uleb128 0x4
 609 008b 1C020000 		.4byte	.LASF12
 610 008f 03       		.byte	0x3
 611 0090 2A       		.byte	0x2a
 612 0091 3A000000 		.4byte	0x3a
 613 0095 06       		.uleb128 0x6
 614 0096 2008     		.2byte	0x820
 615 0098 01       		.byte	0x1
 616 0099 1D       		.byte	0x1d
 617 009a 1B010000 		.4byte	0x11b
 618 009e 07       		.uleb128 0x7
ARM GAS  C:\Users\jsyoon\AppData\Local\Temp\cccpbzKF.s 			page 12


 619 009f F8020000 		.4byte	.LASF13
 620 00a3 01       		.byte	0x1
 621 00a4 1E       		.byte	0x1e
 622 00a5 1B010000 		.4byte	0x11b
 623 00a9 00       		.byte	0
 624 00aa 07       		.uleb128 0x7
 625 00ab 3F020000 		.4byte	.LASF14
 626 00af 01       		.byte	0x1
 627 00b0 1F       		.byte	0x1f
 628 00b1 1B010000 		.4byte	0x11b
 629 00b5 01       		.byte	0x1
 630 00b6 07       		.uleb128 0x7
 631 00b7 B8010000 		.4byte	.LASF15
 632 00bb 01       		.byte	0x1
 633 00bc 20       		.byte	0x20
 634 00bd 30010000 		.4byte	0x130
 635 00c1 04       		.byte	0x4
 636 00c2 07       		.uleb128 0x7
 637 00c3 93010000 		.4byte	.LASF16
 638 00c7 01       		.byte	0x1
 639 00c8 21       		.byte	0x21
 640 00c9 30010000 		.4byte	0x130
 641 00cd 08       		.byte	0x8
 642 00ce 07       		.uleb128 0x7
 643 00cf BD020000 		.4byte	.LASF17
 644 00d3 01       		.byte	0x1
 645 00d4 22       		.byte	0x22
 646 00d5 2C000000 		.4byte	0x2c
 647 00d9 0C       		.byte	0xc
 648 00da 07       		.uleb128 0x7
 649 00db A0010000 		.4byte	.LASF18
 650 00df 01       		.byte	0x1
 651 00e0 23       		.byte	0x23
 652 00e1 36010000 		.4byte	0x136
 653 00e5 10       		.byte	0x10
 654 00e6 08       		.uleb128 0x8
 655 00e7 7E010000 		.4byte	.LASF19
 656 00eb 01       		.byte	0x1
 657 00ec 24       		.byte	0x24
 658 00ed 47010000 		.4byte	0x147
 659 00f1 1004     		.2byte	0x410
 660 00f3 08       		.uleb128 0x8
 661 00f4 72010000 		.4byte	.LASF20
 662 00f8 01       		.byte	0x1
 663 00f9 25       		.byte	0x25
 664 00fa 2C000000 		.4byte	0x2c
 665 00fe 1808     		.2byte	0x818
 666 0100 08       		.uleb128 0x8
 667 0101 37020000 		.4byte	.LASF21
 668 0105 01       		.byte	0x1
 669 0106 26       		.byte	0x26
 670 0107 45000000 		.4byte	0x45
 671 010b 1C08     		.2byte	0x81c
 672 010d 08       		.uleb128 0x8
 673 010e 00000000 		.4byte	.LASF22
 674 0112 01       		.byte	0x1
 675 0113 27       		.byte	0x27
ARM GAS  C:\Users\jsyoon\AppData\Local\Temp\cccpbzKF.s 			page 13


 676 0114 45000000 		.4byte	0x45
 677 0118 1D08     		.2byte	0x81d
 678 011a 00       		.byte	0
 679 011b 09       		.uleb128 0x9
 680 011c 45000000 		.4byte	0x45
 681 0120 0A       		.uleb128 0xa
 682 0121 30010000 		.4byte	0x130
 683 0125 0B       		.uleb128 0xb
 684 0126 7D000000 		.4byte	0x7d
 685 012a 0B       		.uleb128 0xb
 686 012b 2C000000 		.4byte	0x2c
 687 012f 00       		.byte	0
 688 0130 05       		.uleb128 0x5
 689 0131 04       		.byte	0x4
 690 0132 20010000 		.4byte	0x120
 691 0136 0C       		.uleb128 0xc
 692 0137 45000000 		.4byte	0x45
 693 013b 47010000 		.4byte	0x147
 694 013f 0D       		.uleb128 0xd
 695 0140 76000000 		.4byte	0x76
 696 0144 FF03     		.2byte	0x3ff
 697 0146 00       		.byte	0
 698 0147 0C       		.uleb128 0xc
 699 0148 45000000 		.4byte	0x45
 700 014c 58010000 		.4byte	0x158
 701 0150 0D       		.uleb128 0xd
 702 0151 76000000 		.4byte	0x76
 703 0155 0504     		.2byte	0x405
 704 0157 00       		.byte	0
 705 0158 04       		.uleb128 0x4
 706 0159 63010000 		.4byte	.LASF23
 707 015d 01       		.byte	0x1
 708 015e 28       		.byte	0x28
 709 015f 95000000 		.4byte	0x95
 710 0163 0E       		.uleb128 0xe
 711 0164 E0020000 		.4byte	.LASF27
 712 0168 01       		.byte	0x1
 713 0169 2C       		.byte	0x2c
 714 016a 00000000 		.4byte	.LFB0
 715 016e 14000000 		.4byte	.LFE0-.LFB0
 716 0172 01       		.uleb128 0x1
 717 0173 9C       		.byte	0x9c
 718 0174 A2010000 		.4byte	0x1a2
 719 0178 0F       		.uleb128 0xf
 720 0179 4A020000 		.4byte	.LASF24
 721 017d 01       		.byte	0x1
 722 017e 2C       		.byte	0x2c
 723 017f 30010000 		.4byte	0x130
 724 0183 01       		.uleb128 0x1
 725 0184 50       		.byte	0x50
 726 0185 0F       		.uleb128 0xf
 727 0186 68020000 		.4byte	.LASF25
 728 018a 01       		.byte	0x1
 729 018b 2D       		.byte	0x2d
 730 018c 30010000 		.4byte	0x130
 731 0190 01       		.uleb128 0x1
 732 0191 51       		.byte	0x51
ARM GAS  C:\Users\jsyoon\AppData\Local\Temp\cccpbzKF.s 			page 14


 733 0192 10       		.uleb128 0x10
 734 0193 2B000000 		.4byte	.LASF26
 735 0197 01       		.byte	0x1
 736 0198 2D       		.byte	0x2d
 737 0199 25000000 		.4byte	0x25
 738 019d 00000000 		.4byte	.LLST0
 739 01a1 00       		.byte	0
 740 01a2 0E       		.uleb128 0xe
 741 01a3 24020000 		.4byte	.LASF28
 742 01a7 01       		.byte	0x1
 743 01a8 32       		.byte	0x32
 744 01a9 00000000 		.4byte	.LFB1
 745 01ad A4000000 		.4byte	.LFE1-.LFB1
 746 01b1 01       		.uleb128 0x1
 747 01b2 9C       		.byte	0x9c
 748 01b3 3E020000 		.4byte	0x23e
 749 01b7 10       		.uleb128 0x10
 750 01b8 88010000 		.4byte	.LASF29
 751 01bc 01       		.byte	0x1
 752 01bd 32       		.byte	0x32
 753 01be 7D000000 		.4byte	0x7d
 754 01c2 21000000 		.4byte	.LLST1
 755 01c6 11       		.uleb128 0x11
 756 01c7 6C656E00 		.ascii	"len\000"
 757 01cb 01       		.byte	0x1
 758 01cc 32       		.byte	0x32
 759 01cd 2C000000 		.4byte	0x2c
 760 01d1 4D000000 		.4byte	.LLST2
 761 01d5 10       		.uleb128 0x10
 762 01d6 2B000000 		.4byte	.LASF26
 763 01da 01       		.byte	0x1
 764 01db 32       		.byte	0x32
 765 01dc 25000000 		.4byte	0x25
 766 01e0 79000000 		.4byte	.LLST3
 767 01e4 12       		.uleb128 0x12
 768 01e5 8D010000 		.4byte	.LASF30
 769 01e9 01       		.byte	0x1
 770 01ea 37       		.byte	0x37
 771 01eb 25000000 		.4byte	0x25
 772 01ef BB000000 		.4byte	.LLST4
 773 01f3 13       		.uleb128 0x13
 774 01f4 63726300 		.ascii	"crc\000"
 775 01f8 01       		.byte	0x1
 776 01f9 46       		.byte	0x46
 777 01fa 53000000 		.4byte	0x53
 778 01fe 19010000 		.4byte	.LLST5
 779 0202 14       		.uleb128 0x14
 780 0203 00000000 		.4byte	.Ldebug_ranges0+0
 781 0207 19020000 		.4byte	0x219
 782 020b 13       		.uleb128 0x13
 783 020c 6900     		.ascii	"i\000"
 784 020e 01       		.byte	0x1
 785 020f 42       		.byte	0x42
 786 0210 2C000000 		.4byte	0x2c
 787 0214 2C010000 		.4byte	.LLST6
 788 0218 00       		.byte	0
 789 0219 15       		.uleb128 0x15
ARM GAS  C:\Users\jsyoon\AppData\Local\Temp\cccpbzKF.s 			page 15


 790 021a 5A000000 		.4byte	.LVL10
 791 021e E0020000 		.4byte	0x2e0
 792 0222 16       		.uleb128 0x16
 793 0223 86000000 		.4byte	.LVL15
 794 0227 17       		.uleb128 0x17
 795 0228 01       		.uleb128 0x1
 796 0229 51       		.byte	0x51
 797 022a 05       		.uleb128 0x5
 798 022b 74       		.byte	0x74
 799 022c 00       		.sleb128 0
 800 022d 77       		.byte	0x77
 801 022e 00       		.sleb128 0
 802 022f 22       		.byte	0x22
 803 0230 17       		.uleb128 0x17
 804 0231 01       		.uleb128 0x1
 805 0232 50       		.byte	0x50
 806 0233 08       		.uleb128 0x8
 807 0234 78       		.byte	0x78
 808 0235 00       		.sleb128 0
 809 0236 75       		.byte	0x75
 810 0237 00       		.sleb128 0
 811 0238 22       		.byte	0x22
 812 0239 23       		.byte	0x23
 813 023a 9008     		.uleb128 0x410
 814 023c 00       		.byte	0
 815 023d 00       		.byte	0
 816 023e 0E       		.uleb128 0xe
 817 023f F4010000 		.4byte	.LASF31
 818 0243 01       		.byte	0x1
 819 0244 53       		.byte	0x53
 820 0245 00000000 		.4byte	.LFB2
 821 0249 48000000 		.4byte	.LFE2-.LFB2
 822 024d 01       		.uleb128 0x1
 823 024e 9C       		.byte	0x9c
 824 024f 6B020000 		.4byte	0x26b
 825 0253 18       		.uleb128 0x18
 826 0254 00000000 		.4byte	.LBB5
 827 0258 48000000 		.4byte	.LBE5-.LBB5
 828 025c 13       		.uleb128 0x13
 829 025d 6900     		.ascii	"i\000"
 830 025f 01       		.byte	0x1
 831 0260 54       		.byte	0x54
 832 0261 25000000 		.4byte	0x25
 833 0265 57010000 		.4byte	.LLST7
 834 0269 00       		.byte	0
 835 026a 00       		.byte	0
 836 026b 0E       		.uleb128 0xe
 837 026c 6F020000 		.4byte	.LASF32
 838 0270 01       		.byte	0x1
 839 0271 5D       		.byte	0x5d
 840 0272 00000000 		.4byte	.LFB3
 841 0276 40010000 		.4byte	.LFE3-.LFB3
 842 027a 01       		.uleb128 0x1
 843 027b 9C       		.byte	0x9c
 844 027c BF020000 		.4byte	0x2bf
 845 0280 10       		.uleb128 0x10
 846 0281 37000000 		.4byte	.LASF33
ARM GAS  C:\Users\jsyoon\AppData\Local\Temp\cccpbzKF.s 			page 16


 847 0285 01       		.byte	0x1
 848 0286 5D       		.byte	0x5d
 849 0287 8A000000 		.4byte	0x8a
 850 028b A7010000 		.4byte	.LLST8
 851 028f 10       		.uleb128 0x10
 852 0290 2B000000 		.4byte	.LASF26
 853 0294 01       		.byte	0x1
 854 0295 5D       		.byte	0x5d
 855 0296 25000000 		.4byte	0x25
 856 029a 37020000 		.4byte	.LLST9
 857 029e 19       		.uleb128 0x19
 858 029f 38000000 		.4byte	.LVL28
 859 02a3 E0020000 		.4byte	0x2e0
 860 02a7 B2020000 		.4byte	0x2b2
 861 02ab 17       		.uleb128 0x17
 862 02ac 01       		.uleb128 0x1
 863 02ad 50       		.byte	0x50
 864 02ae 02       		.uleb128 0x2
 865 02af 79       		.byte	0x79
 866 02b0 00       		.sleb128 0
 867 02b1 00       		.byte	0
 868 02b2 16       		.uleb128 0x16
 869 02b3 52000000 		.4byte	.LVL29
 870 02b7 17       		.uleb128 0x17
 871 02b8 01       		.uleb128 0x1
 872 02b9 50       		.byte	0x50
 873 02ba 02       		.uleb128 0x2
 874 02bb 79       		.byte	0x79
 875 02bc 00       		.sleb128 0
 876 02bd 00       		.byte	0
 877 02be 00       		.byte	0
 878 02bf 0C       		.uleb128 0xc
 879 02c0 58010000 		.4byte	0x158
 880 02c4 CF020000 		.4byte	0x2cf
 881 02c8 1A       		.uleb128 0x1a
 882 02c9 76000000 		.4byte	0x76
 883 02cd 01       		.byte	0x1
 884 02ce 00       		.byte	0
 885 02cf 1B       		.uleb128 0x1b
 886 02d0 1C000000 		.4byte	.LASF34
 887 02d4 01       		.byte	0x1
 888 02d5 2A       		.byte	0x2a
 889 02d6 BF020000 		.4byte	0x2bf
 890 02da 05       		.uleb128 0x5
 891 02db 03       		.byte	0x3
 892 02dc 00000000 		.4byte	handler_states
 893 02e0 1C       		.uleb128 0x1c
 894 02e1 CC020000 		.4byte	.LASF38
 895 02e5 04       		.byte	0x4
 896 02e6 1F       		.byte	0x1f
 897 02e7 53000000 		.4byte	0x53
 898 02eb 0B       		.uleb128 0xb
 899 02ec 7D000000 		.4byte	0x7d
 900 02f0 0B       		.uleb128 0xb
 901 02f1 2C000000 		.4byte	0x2c
 902 02f5 00       		.byte	0
 903 02f6 00       		.byte	0
ARM GAS  C:\Users\jsyoon\AppData\Local\Temp\cccpbzKF.s 			page 17


 904              		.section	.debug_abbrev,"",%progbits
 905              	.Ldebug_abbrev0:
 906 0000 01       		.uleb128 0x1
 907 0001 11       		.uleb128 0x11
 908 0002 01       		.byte	0x1
 909 0003 25       		.uleb128 0x25
 910 0004 0E       		.uleb128 0xe
 911 0005 13       		.uleb128 0x13
 912 0006 0B       		.uleb128 0xb
 913 0007 03       		.uleb128 0x3
 914 0008 0E       		.uleb128 0xe
 915 0009 1B       		.uleb128 0x1b
 916 000a 0E       		.uleb128 0xe
 917 000b 55       		.uleb128 0x55
 918 000c 17       		.uleb128 0x17
 919 000d 11       		.uleb128 0x11
 920 000e 01       		.uleb128 0x1
 921 000f 10       		.uleb128 0x10
 922 0010 17       		.uleb128 0x17
 923 0011 00       		.byte	0
 924 0012 00       		.byte	0
 925 0013 02       		.uleb128 0x2
 926 0014 24       		.uleb128 0x24
 927 0015 00       		.byte	0
 928 0016 0B       		.uleb128 0xb
 929 0017 0B       		.uleb128 0xb
 930 0018 3E       		.uleb128 0x3e
 931 0019 0B       		.uleb128 0xb
 932 001a 03       		.uleb128 0x3
 933 001b 08       		.uleb128 0x8
 934 001c 00       		.byte	0
 935 001d 00       		.byte	0
 936 001e 03       		.uleb128 0x3
 937 001f 24       		.uleb128 0x24
 938 0020 00       		.byte	0
 939 0021 0B       		.uleb128 0xb
 940 0022 0B       		.uleb128 0xb
 941 0023 3E       		.uleb128 0x3e
 942 0024 0B       		.uleb128 0xb
 943 0025 03       		.uleb128 0x3
 944 0026 0E       		.uleb128 0xe
 945 0027 00       		.byte	0
 946 0028 00       		.byte	0
 947 0029 04       		.uleb128 0x4
 948 002a 16       		.uleb128 0x16
 949 002b 00       		.byte	0
 950 002c 03       		.uleb128 0x3
 951 002d 0E       		.uleb128 0xe
 952 002e 3A       		.uleb128 0x3a
 953 002f 0B       		.uleb128 0xb
 954 0030 3B       		.uleb128 0x3b
 955 0031 0B       		.uleb128 0xb
 956 0032 49       		.uleb128 0x49
 957 0033 13       		.uleb128 0x13
 958 0034 00       		.byte	0
 959 0035 00       		.byte	0
 960 0036 05       		.uleb128 0x5
ARM GAS  C:\Users\jsyoon\AppData\Local\Temp\cccpbzKF.s 			page 18


 961 0037 0F       		.uleb128 0xf
 962 0038 00       		.byte	0
 963 0039 0B       		.uleb128 0xb
 964 003a 0B       		.uleb128 0xb
 965 003b 49       		.uleb128 0x49
 966 003c 13       		.uleb128 0x13
 967 003d 00       		.byte	0
 968 003e 00       		.byte	0
 969 003f 06       		.uleb128 0x6
 970 0040 13       		.uleb128 0x13
 971 0041 01       		.byte	0x1
 972 0042 0B       		.uleb128 0xb
 973 0043 05       		.uleb128 0x5
 974 0044 3A       		.uleb128 0x3a
 975 0045 0B       		.uleb128 0xb
 976 0046 3B       		.uleb128 0x3b
 977 0047 0B       		.uleb128 0xb
 978 0048 01       		.uleb128 0x1
 979 0049 13       		.uleb128 0x13
 980 004a 00       		.byte	0
 981 004b 00       		.byte	0
 982 004c 07       		.uleb128 0x7
 983 004d 0D       		.uleb128 0xd
 984 004e 00       		.byte	0
 985 004f 03       		.uleb128 0x3
 986 0050 0E       		.uleb128 0xe
 987 0051 3A       		.uleb128 0x3a
 988 0052 0B       		.uleb128 0xb
 989 0053 3B       		.uleb128 0x3b
 990 0054 0B       		.uleb128 0xb
 991 0055 49       		.uleb128 0x49
 992 0056 13       		.uleb128 0x13
 993 0057 38       		.uleb128 0x38
 994 0058 0B       		.uleb128 0xb
 995 0059 00       		.byte	0
 996 005a 00       		.byte	0
 997 005b 08       		.uleb128 0x8
 998 005c 0D       		.uleb128 0xd
 999 005d 00       		.byte	0
 1000 005e 03       		.uleb128 0x3
 1001 005f 0E       		.uleb128 0xe
 1002 0060 3A       		.uleb128 0x3a
 1003 0061 0B       		.uleb128 0xb
 1004 0062 3B       		.uleb128 0x3b
 1005 0063 0B       		.uleb128 0xb
 1006 0064 49       		.uleb128 0x49
 1007 0065 13       		.uleb128 0x13
 1008 0066 38       		.uleb128 0x38
 1009 0067 05       		.uleb128 0x5
 1010 0068 00       		.byte	0
 1011 0069 00       		.byte	0
 1012 006a 09       		.uleb128 0x9
 1013 006b 35       		.uleb128 0x35
 1014 006c 00       		.byte	0
 1015 006d 49       		.uleb128 0x49
 1016 006e 13       		.uleb128 0x13
 1017 006f 00       		.byte	0
ARM GAS  C:\Users\jsyoon\AppData\Local\Temp\cccpbzKF.s 			page 19


 1018 0070 00       		.byte	0
 1019 0071 0A       		.uleb128 0xa
 1020 0072 15       		.uleb128 0x15
 1021 0073 01       		.byte	0x1
 1022 0074 27       		.uleb128 0x27
 1023 0075 19       		.uleb128 0x19
 1024 0076 01       		.uleb128 0x1
 1025 0077 13       		.uleb128 0x13
 1026 0078 00       		.byte	0
 1027 0079 00       		.byte	0
 1028 007a 0B       		.uleb128 0xb
 1029 007b 05       		.uleb128 0x5
 1030 007c 00       		.byte	0
 1031 007d 49       		.uleb128 0x49
 1032 007e 13       		.uleb128 0x13
 1033 007f 00       		.byte	0
 1034 0080 00       		.byte	0
 1035 0081 0C       		.uleb128 0xc
 1036 0082 01       		.uleb128 0x1
 1037 0083 01       		.byte	0x1
 1038 0084 49       		.uleb128 0x49
 1039 0085 13       		.uleb128 0x13
 1040 0086 01       		.uleb128 0x1
 1041 0087 13       		.uleb128 0x13
 1042 0088 00       		.byte	0
 1043 0089 00       		.byte	0
 1044 008a 0D       		.uleb128 0xd
 1045 008b 21       		.uleb128 0x21
 1046 008c 00       		.byte	0
 1047 008d 49       		.uleb128 0x49
 1048 008e 13       		.uleb128 0x13
 1049 008f 2F       		.uleb128 0x2f
 1050 0090 05       		.uleb128 0x5
 1051 0091 00       		.byte	0
 1052 0092 00       		.byte	0
 1053 0093 0E       		.uleb128 0xe
 1054 0094 2E       		.uleb128 0x2e
 1055 0095 01       		.byte	0x1
 1056 0096 3F       		.uleb128 0x3f
 1057 0097 19       		.uleb128 0x19
 1058 0098 03       		.uleb128 0x3
 1059 0099 0E       		.uleb128 0xe
 1060 009a 3A       		.uleb128 0x3a
 1061 009b 0B       		.uleb128 0xb
 1062 009c 3B       		.uleb128 0x3b
 1063 009d 0B       		.uleb128 0xb
 1064 009e 27       		.uleb128 0x27
 1065 009f 19       		.uleb128 0x19
 1066 00a0 11       		.uleb128 0x11
 1067 00a1 01       		.uleb128 0x1
 1068 00a2 12       		.uleb128 0x12
 1069 00a3 06       		.uleb128 0x6
 1070 00a4 40       		.uleb128 0x40
 1071 00a5 18       		.uleb128 0x18
 1072 00a6 9742     		.uleb128 0x2117
 1073 00a8 19       		.uleb128 0x19
 1074 00a9 01       		.uleb128 0x1
ARM GAS  C:\Users\jsyoon\AppData\Local\Temp\cccpbzKF.s 			page 20


 1075 00aa 13       		.uleb128 0x13
 1076 00ab 00       		.byte	0
 1077 00ac 00       		.byte	0
 1078 00ad 0F       		.uleb128 0xf
 1079 00ae 05       		.uleb128 0x5
 1080 00af 00       		.byte	0
 1081 00b0 03       		.uleb128 0x3
 1082 00b1 0E       		.uleb128 0xe
 1083 00b2 3A       		.uleb128 0x3a
 1084 00b3 0B       		.uleb128 0xb
 1085 00b4 3B       		.uleb128 0x3b
 1086 00b5 0B       		.uleb128 0xb
 1087 00b6 49       		.uleb128 0x49
 1088 00b7 13       		.uleb128 0x13
 1089 00b8 02       		.uleb128 0x2
 1090 00b9 18       		.uleb128 0x18
 1091 00ba 00       		.byte	0
 1092 00bb 00       		.byte	0
 1093 00bc 10       		.uleb128 0x10
 1094 00bd 05       		.uleb128 0x5
 1095 00be 00       		.byte	0
 1096 00bf 03       		.uleb128 0x3
 1097 00c0 0E       		.uleb128 0xe
 1098 00c1 3A       		.uleb128 0x3a
 1099 00c2 0B       		.uleb128 0xb
 1100 00c3 3B       		.uleb128 0x3b
 1101 00c4 0B       		.uleb128 0xb
 1102 00c5 49       		.uleb128 0x49
 1103 00c6 13       		.uleb128 0x13
 1104 00c7 02       		.uleb128 0x2
 1105 00c8 17       		.uleb128 0x17
 1106 00c9 00       		.byte	0
 1107 00ca 00       		.byte	0
 1108 00cb 11       		.uleb128 0x11
 1109 00cc 05       		.uleb128 0x5
 1110 00cd 00       		.byte	0
 1111 00ce 03       		.uleb128 0x3
 1112 00cf 08       		.uleb128 0x8
 1113 00d0 3A       		.uleb128 0x3a
 1114 00d1 0B       		.uleb128 0xb
 1115 00d2 3B       		.uleb128 0x3b
 1116 00d3 0B       		.uleb128 0xb
 1117 00d4 49       		.uleb128 0x49
 1118 00d5 13       		.uleb128 0x13
 1119 00d6 02       		.uleb128 0x2
 1120 00d7 17       		.uleb128 0x17
 1121 00d8 00       		.byte	0
 1122 00d9 00       		.byte	0
 1123 00da 12       		.uleb128 0x12
 1124 00db 34       		.uleb128 0x34
 1125 00dc 00       		.byte	0
 1126 00dd 03       		.uleb128 0x3
 1127 00de 0E       		.uleb128 0xe
 1128 00df 3A       		.uleb128 0x3a
 1129 00e0 0B       		.uleb128 0xb
 1130 00e1 3B       		.uleb128 0x3b
 1131 00e2 0B       		.uleb128 0xb
ARM GAS  C:\Users\jsyoon\AppData\Local\Temp\cccpbzKF.s 			page 21


 1132 00e3 49       		.uleb128 0x49
 1133 00e4 13       		.uleb128 0x13
 1134 00e5 02       		.uleb128 0x2
 1135 00e6 17       		.uleb128 0x17
 1136 00e7 00       		.byte	0
 1137 00e8 00       		.byte	0
 1138 00e9 13       		.uleb128 0x13
 1139 00ea 34       		.uleb128 0x34
 1140 00eb 00       		.byte	0
 1141 00ec 03       		.uleb128 0x3
 1142 00ed 08       		.uleb128 0x8
 1143 00ee 3A       		.uleb128 0x3a
 1144 00ef 0B       		.uleb128 0xb
 1145 00f0 3B       		.uleb128 0x3b
 1146 00f1 0B       		.uleb128 0xb
 1147 00f2 49       		.uleb128 0x49
 1148 00f3 13       		.uleb128 0x13
 1149 00f4 02       		.uleb128 0x2
 1150 00f5 17       		.uleb128 0x17
 1151 00f6 00       		.byte	0
 1152 00f7 00       		.byte	0
 1153 00f8 14       		.uleb128 0x14
 1154 00f9 0B       		.uleb128 0xb
 1155 00fa 01       		.byte	0x1
 1156 00fb 55       		.uleb128 0x55
 1157 00fc 17       		.uleb128 0x17
 1158 00fd 01       		.uleb128 0x1
 1159 00fe 13       		.uleb128 0x13
 1160 00ff 00       		.byte	0
 1161 0100 00       		.byte	0
 1162 0101 15       		.uleb128 0x15
 1163 0102 898201   		.uleb128 0x4109
 1164 0105 00       		.byte	0
 1165 0106 11       		.uleb128 0x11
 1166 0107 01       		.uleb128 0x1
 1167 0108 31       		.uleb128 0x31
 1168 0109 13       		.uleb128 0x13
 1169 010a 00       		.byte	0
 1170 010b 00       		.byte	0
 1171 010c 16       		.uleb128 0x16
 1172 010d 898201   		.uleb128 0x4109
 1173 0110 01       		.byte	0x1
 1174 0111 11       		.uleb128 0x11
 1175 0112 01       		.uleb128 0x1
 1176 0113 00       		.byte	0
 1177 0114 00       		.byte	0
 1178 0115 17       		.uleb128 0x17
 1179 0116 8A8201   		.uleb128 0x410a
 1180 0119 00       		.byte	0
 1181 011a 02       		.uleb128 0x2
 1182 011b 18       		.uleb128 0x18
 1183 011c 9142     		.uleb128 0x2111
 1184 011e 18       		.uleb128 0x18
 1185 011f 00       		.byte	0
 1186 0120 00       		.byte	0
 1187 0121 18       		.uleb128 0x18
 1188 0122 0B       		.uleb128 0xb
ARM GAS  C:\Users\jsyoon\AppData\Local\Temp\cccpbzKF.s 			page 22


 1189 0123 01       		.byte	0x1
 1190 0124 11       		.uleb128 0x11
 1191 0125 01       		.uleb128 0x1
 1192 0126 12       		.uleb128 0x12
 1193 0127 06       		.uleb128 0x6
 1194 0128 00       		.byte	0
 1195 0129 00       		.byte	0
 1196 012a 19       		.uleb128 0x19
 1197 012b 898201   		.uleb128 0x4109
 1198 012e 01       		.byte	0x1
 1199 012f 11       		.uleb128 0x11
 1200 0130 01       		.uleb128 0x1
 1201 0131 31       		.uleb128 0x31
 1202 0132 13       		.uleb128 0x13
 1203 0133 01       		.uleb128 0x1
 1204 0134 13       		.uleb128 0x13
 1205 0135 00       		.byte	0
 1206 0136 00       		.byte	0
 1207 0137 1A       		.uleb128 0x1a
 1208 0138 21       		.uleb128 0x21
 1209 0139 00       		.byte	0
 1210 013a 49       		.uleb128 0x49
 1211 013b 13       		.uleb128 0x13
 1212 013c 2F       		.uleb128 0x2f
 1213 013d 0B       		.uleb128 0xb
 1214 013e 00       		.byte	0
 1215 013f 00       		.byte	0
 1216 0140 1B       		.uleb128 0x1b
 1217 0141 34       		.uleb128 0x34
 1218 0142 00       		.byte	0
 1219 0143 03       		.uleb128 0x3
 1220 0144 0E       		.uleb128 0xe
 1221 0145 3A       		.uleb128 0x3a
 1222 0146 0B       		.uleb128 0xb
 1223 0147 3B       		.uleb128 0x3b
 1224 0148 0B       		.uleb128 0xb
 1225 0149 49       		.uleb128 0x49
 1226 014a 13       		.uleb128 0x13
 1227 014b 02       		.uleb128 0x2
 1228 014c 18       		.uleb128 0x18
 1229 014d 00       		.byte	0
 1230 014e 00       		.byte	0
 1231 014f 1C       		.uleb128 0x1c
 1232 0150 2E       		.uleb128 0x2e
 1233 0151 01       		.byte	0x1
 1234 0152 3F       		.uleb128 0x3f
 1235 0153 19       		.uleb128 0x19
 1236 0154 03       		.uleb128 0x3
 1237 0155 0E       		.uleb128 0xe
 1238 0156 3A       		.uleb128 0x3a
 1239 0157 0B       		.uleb128 0xb
 1240 0158 3B       		.uleb128 0x3b
 1241 0159 0B       		.uleb128 0xb
 1242 015a 27       		.uleb128 0x27
 1243 015b 19       		.uleb128 0x19
 1244 015c 49       		.uleb128 0x49
 1245 015d 13       		.uleb128 0x13
ARM GAS  C:\Users\jsyoon\AppData\Local\Temp\cccpbzKF.s 			page 23


 1246 015e 3C       		.uleb128 0x3c
 1247 015f 19       		.uleb128 0x19
 1248 0160 00       		.byte	0
 1249 0161 00       		.byte	0
 1250 0162 00       		.byte	0
 1251              		.section	.debug_loc,"",%progbits
 1252              	.Ldebug_loc0:
 1253              	.LLST0:
 1254 0000 00000000 		.4byte	.LVL0
 1255 0004 06000000 		.4byte	.LVL1
 1256 0008 0100     		.2byte	0x1
 1257 000a 52       		.byte	0x52
 1258 000b 06000000 		.4byte	.LVL1
 1259 000f 14000000 		.4byte	.LFE0
 1260 0013 0400     		.2byte	0x4
 1261 0015 F3       		.byte	0xf3
 1262 0016 01       		.uleb128 0x1
 1263 0017 52       		.byte	0x52
 1264 0018 9F       		.byte	0x9f
 1265 0019 00000000 		.4byte	0
 1266 001d 00000000 		.4byte	0
 1267              	.LLST1:
 1268 0021 00000000 		.4byte	.LVL2
 1269 0025 59000000 		.4byte	.LVL10-1
 1270 0029 0100     		.2byte	0x1
 1271 002b 50       		.byte	0x50
 1272 002c 59000000 		.4byte	.LVL10-1
 1273 0030 8A000000 		.4byte	.LVL16
 1274 0034 0400     		.2byte	0x4
 1275 0036 F3       		.byte	0xf3
 1276 0037 01       		.uleb128 0x1
 1277 0038 50       		.byte	0x50
 1278 0039 9F       		.byte	0x9f
 1279 003a 8A000000 		.4byte	.LVL16
 1280 003e A4000000 		.4byte	.LFE1
 1281 0042 0100     		.2byte	0x1
 1282 0044 50       		.byte	0x50
 1283 0045 00000000 		.4byte	0
 1284 0049 00000000 		.4byte	0
 1285              	.LLST2:
 1286 004d 00000000 		.4byte	.LVL2
 1287 0051 59000000 		.4byte	.LVL10-1
 1288 0055 0100     		.2byte	0x1
 1289 0057 51       		.byte	0x51
 1290 0058 59000000 		.4byte	.LVL10-1
 1291 005c 8A000000 		.4byte	.LVL16
 1292 0060 0400     		.2byte	0x4
 1293 0062 F3       		.byte	0xf3
 1294 0063 01       		.uleb128 0x1
 1295 0064 51       		.byte	0x51
 1296 0065 9F       		.byte	0x9f
 1297 0066 8A000000 		.4byte	.LVL16
 1298 006a A4000000 		.4byte	.LFE1
 1299 006e 0100     		.2byte	0x1
 1300 0070 51       		.byte	0x51
 1301 0071 00000000 		.4byte	0
 1302 0075 00000000 		.4byte	0
ARM GAS  C:\Users\jsyoon\AppData\Local\Temp\cccpbzKF.s 			page 24


 1303              	.LLST3:
 1304 0079 00000000 		.4byte	.LVL2
 1305 007d 26000000 		.4byte	.LVL5
 1306 0081 0100     		.2byte	0x1
 1307 0083 52       		.byte	0x52
 1308 0084 26000000 		.4byte	.LVL5
 1309 0088 6A000000 		.4byte	.LVL12
 1310 008c 0100     		.2byte	0x1
 1311 008e 57       		.byte	0x57
 1312 008f 6A000000 		.4byte	.LVL12
 1313 0093 8A000000 		.4byte	.LVL16
 1314 0097 0400     		.2byte	0x4
 1315 0099 F3       		.byte	0xf3
 1316 009a 01       		.uleb128 0x1
 1317 009b 52       		.byte	0x52
 1318 009c 9F       		.byte	0x9f
 1319 009d 8A000000 		.4byte	.LVL16
 1320 00a1 8C000000 		.4byte	.LVL17
 1321 00a5 0100     		.2byte	0x1
 1322 00a7 52       		.byte	0x52
 1323 00a8 8C000000 		.4byte	.LVL17
 1324 00ac A4000000 		.4byte	.LFE1
 1325 00b0 0100     		.2byte	0x1
 1326 00b2 57       		.byte	0x57
 1327 00b3 00000000 		.4byte	0
 1328 00b7 00000000 		.4byte	0
 1329              	.LLST4:
 1330 00bb 0C000000 		.4byte	.LVL3
 1331 00bf 22000000 		.4byte	.LVL4
 1332 00c3 0200     		.2byte	0x2
 1333 00c5 30       		.byte	0x30
 1334 00c6 9F       		.byte	0x9f
 1335 00c7 22000000 		.4byte	.LVL4
 1336 00cb 32000000 		.4byte	.LVL6
 1337 00cf 0200     		.2byte	0x2
 1338 00d1 31       		.byte	0x31
 1339 00d2 9F       		.byte	0x9f
 1340 00d3 5A000000 		.4byte	.LVL10
 1341 00d7 62000000 		.4byte	.LVL11
 1342 00db 0100     		.2byte	0x1
 1343 00dd 56       		.byte	0x56
 1344 00de 74000000 		.4byte	.LVL13
 1345 00e2 85000000 		.4byte	.LVL15-1
 1346 00e6 0100     		.2byte	0x1
 1347 00e8 51       		.byte	0x51
 1348 00e9 85000000 		.4byte	.LVL15-1
 1349 00ed 86000000 		.4byte	.LVL15
 1350 00f1 0600     		.2byte	0x6
 1351 00f3 74       		.byte	0x74
 1352 00f4 00       		.sleb128 0
 1353 00f5 77       		.byte	0x77
 1354 00f6 00       		.sleb128 0
 1355 00f7 22       		.byte	0x22
 1356 00f8 9F       		.byte	0x9f
 1357 00f9 8A000000 		.4byte	.LVL16
 1358 00fd 94000000 		.4byte	.LVL18
 1359 0101 0200     		.2byte	0x2
ARM GAS  C:\Users\jsyoon\AppData\Local\Temp\cccpbzKF.s 			page 25


 1360 0103 31       		.byte	0x31
 1361 0104 9F       		.byte	0x9f
 1362 0105 94000000 		.4byte	.LVL18
 1363 0109 A4000000 		.4byte	.LFE1
 1364 010d 0200     		.2byte	0x2
 1365 010f 32       		.byte	0x32
 1366 0110 9F       		.byte	0x9f
 1367 0111 00000000 		.4byte	0
 1368 0115 00000000 		.4byte	0
 1369              	.LLST5:
 1370 0119 5A000000 		.4byte	.LVL10
 1371 011d 82000000 		.4byte	.LVL14
 1372 0121 0100     		.2byte	0x1
 1373 0123 50       		.byte	0x50
 1374 0124 00000000 		.4byte	0
 1375 0128 00000000 		.4byte	0
 1376              	.LLST6:
 1377 012c 32000000 		.4byte	.LVL6
 1378 0130 3E000000 		.4byte	.LVL7
 1379 0134 0200     		.2byte	0x2
 1380 0136 30       		.byte	0x30
 1381 0137 9F       		.byte	0x9f
 1382 0138 3E000000 		.4byte	.LVL7
 1383 013c 50000000 		.4byte	.LVL9
 1384 0140 0100     		.2byte	0x1
 1385 0142 53       		.byte	0x53
 1386 0143 94000000 		.4byte	.LVL18
 1387 0147 A4000000 		.4byte	.LFE1
 1388 014b 0200     		.2byte	0x2
 1389 014d 30       		.byte	0x30
 1390 014e 9F       		.byte	0x9f
 1391 014f 00000000 		.4byte	0
 1392 0153 00000000 		.4byte	0
 1393              	.LLST7:
 1394 0157 00000000 		.4byte	.LVL19
 1395 015b 0A000000 		.4byte	.LVL20
 1396 015f 0200     		.2byte	0x2
 1397 0161 30       		.byte	0x30
 1398 0162 9F       		.byte	0x9f
 1399 0163 0A000000 		.4byte	.LVL20
 1400 0167 24000000 		.4byte	.LVL21
 1401 016b 0200     		.2byte	0x2
 1402 016d 31       		.byte	0x31
 1403 016e 9F       		.byte	0x9f
 1404 016f 24000000 		.4byte	.LVL21
 1405 0173 26000000 		.4byte	.LVL22
 1406 0177 0200     		.2byte	0x2
 1407 0179 32       		.byte	0x32
 1408 017a 9F       		.byte	0x9f
 1409 017b 26000000 		.4byte	.LVL22
 1410 017f 2C000000 		.4byte	.LVL23
 1411 0183 0200     		.2byte	0x2
 1412 0185 31       		.byte	0x31
 1413 0186 9F       		.byte	0x9f
 1414 0187 2C000000 		.4byte	.LVL23
 1415 018b 34000000 		.4byte	.LVL24
 1416 018f 0200     		.2byte	0x2
ARM GAS  C:\Users\jsyoon\AppData\Local\Temp\cccpbzKF.s 			page 26


 1417 0191 30       		.byte	0x30
 1418 0192 9F       		.byte	0x9f
 1419 0193 34000000 		.4byte	.LVL24
 1420 0197 48000000 		.4byte	.LFE2
 1421 019b 0200     		.2byte	0x2
 1422 019d 31       		.byte	0x31
 1423 019e 9F       		.byte	0x9f
 1424 019f 00000000 		.4byte	0
 1425 01a3 00000000 		.4byte	0
 1426              	.LLST8:
 1427 01a7 00000000 		.4byte	.LVL25
 1428 01ab 32000000 		.4byte	.LVL26
 1429 01af 0100     		.2byte	0x1
 1430 01b1 50       		.byte	0x50
 1431 01b2 32000000 		.4byte	.LVL26
 1432 01b6 5E000000 		.4byte	.LVL31
 1433 01ba 0400     		.2byte	0x4
 1434 01bc F3       		.byte	0xf3
 1435 01bd 01       		.uleb128 0x1
 1436 01be 50       		.byte	0x50
 1437 01bf 9F       		.byte	0x9f
 1438 01c0 5E000000 		.4byte	.LVL31
 1439 01c4 76000000 		.4byte	.LVL32
 1440 01c8 0100     		.2byte	0x1
 1441 01ca 50       		.byte	0x50
 1442 01cb 76000000 		.4byte	.LVL32
 1443 01cf 86000000 		.4byte	.LVL33
 1444 01d3 0400     		.2byte	0x4
 1445 01d5 F3       		.byte	0xf3
 1446 01d6 01       		.uleb128 0x1
 1447 01d7 50       		.byte	0x50
 1448 01d8 9F       		.byte	0x9f
 1449 01d9 86000000 		.4byte	.LVL33
 1450 01dd 92000000 		.4byte	.LVL35
 1451 01e1 0100     		.2byte	0x1
 1452 01e3 50       		.byte	0x50
 1453 01e4 92000000 		.4byte	.LVL35
 1454 01e8 A0000000 		.4byte	.LVL36
 1455 01ec 0400     		.2byte	0x4
 1456 01ee F3       		.byte	0xf3
 1457 01ef 01       		.uleb128 0x1
 1458 01f0 50       		.byte	0x50
 1459 01f1 9F       		.byte	0x9f
 1460 01f2 A0000000 		.4byte	.LVL36
 1461 01f6 AC000000 		.4byte	.LVL38
 1462 01fa 0100     		.2byte	0x1
 1463 01fc 50       		.byte	0x50
 1464 01fd AC000000 		.4byte	.LVL38
 1465 0201 C4000000 		.4byte	.LVL39
 1466 0205 0400     		.2byte	0x4
 1467 0207 F3       		.byte	0xf3
 1468 0208 01       		.uleb128 0x1
 1469 0209 50       		.byte	0x50
 1470 020a 9F       		.byte	0x9f
 1471 020b C4000000 		.4byte	.LVL39
 1472 020f 28010000 		.4byte	.LVL46
 1473 0213 0100     		.2byte	0x1
ARM GAS  C:\Users\jsyoon\AppData\Local\Temp\cccpbzKF.s 			page 27


 1474 0215 50       		.byte	0x50
 1475 0216 28010000 		.4byte	.LVL46
 1476 021a 30010000 		.4byte	.LVL47
 1477 021e 0400     		.2byte	0x4
 1478 0220 F3       		.byte	0xf3
 1479 0221 01       		.uleb128 0x1
 1480 0222 50       		.byte	0x50
 1481 0223 9F       		.byte	0x9f
 1482 0224 30010000 		.4byte	.LVL47
 1483 0228 40010000 		.4byte	.LFE3
 1484 022c 0100     		.2byte	0x1
 1485 022e 50       		.byte	0x50
 1486 022f 00000000 		.4byte	0
 1487 0233 00000000 		.4byte	0
 1488              	.LLST9:
 1489 0237 00000000 		.4byte	.LVL25
 1490 023b 34000000 		.4byte	.LVL27
 1491 023f 0100     		.2byte	0x1
 1492 0241 51       		.byte	0x51
 1493 0242 34000000 		.4byte	.LVL27
 1494 0246 54000000 		.4byte	.LVL30
 1495 024a 0100     		.2byte	0x1
 1496 024c 54       		.byte	0x54
 1497 024d 54000000 		.4byte	.LVL30
 1498 0251 5E000000 		.4byte	.LVL31
 1499 0255 0400     		.2byte	0x4
 1500 0257 F3       		.byte	0xf3
 1501 0258 01       		.uleb128 0x1
 1502 0259 51       		.byte	0x51
 1503 025a 9F       		.byte	0x9f
 1504 025b 5E000000 		.4byte	.LVL31
 1505 025f 8E000000 		.4byte	.LVL34
 1506 0263 0100     		.2byte	0x1
 1507 0265 51       		.byte	0x51
 1508 0266 8E000000 		.4byte	.LVL34
 1509 026a A0000000 		.4byte	.LVL36
 1510 026e 0400     		.2byte	0x4
 1511 0270 F3       		.byte	0xf3
 1512 0271 01       		.uleb128 0x1
 1513 0272 51       		.byte	0x51
 1514 0273 9F       		.byte	0x9f
 1515 0274 A0000000 		.4byte	.LVL36
 1516 0278 AA000000 		.4byte	.LVL37
 1517 027c 0100     		.2byte	0x1
 1518 027e 51       		.byte	0x51
 1519 027f AA000000 		.4byte	.LVL37
 1520 0283 C4000000 		.4byte	.LVL39
 1521 0287 0400     		.2byte	0x4
 1522 0289 F3       		.byte	0xf3
 1523 028a 01       		.uleb128 0x1
 1524 028b 51       		.byte	0x51
 1525 028c 9F       		.byte	0x9f
 1526 028d C4000000 		.4byte	.LVL39
 1527 0291 C6000000 		.4byte	.LVL40
 1528 0295 0100     		.2byte	0x1
 1529 0297 51       		.byte	0x51
 1530 0298 C6000000 		.4byte	.LVL40
ARM GAS  C:\Users\jsyoon\AppData\Local\Temp\cccpbzKF.s 			page 28


 1531 029c F4000000 		.4byte	.LVL41
 1532 02a0 0100     		.2byte	0x1
 1533 02a2 54       		.byte	0x54
 1534 02a3 F4000000 		.4byte	.LVL41
 1535 02a7 00010000 		.4byte	.LVL42
 1536 02ab 0400     		.2byte	0x4
 1537 02ad F3       		.byte	0xf3
 1538 02ae 01       		.uleb128 0x1
 1539 02af 51       		.byte	0x51
 1540 02b0 9F       		.byte	0x9f
 1541 02b1 00010000 		.4byte	.LVL42
 1542 02b5 08010000 		.4byte	.LVL43
 1543 02b9 0100     		.2byte	0x1
 1544 02bb 51       		.byte	0x51
 1545 02bc 08010000 		.4byte	.LVL43
 1546 02c0 1A010000 		.4byte	.LVL44
 1547 02c4 0400     		.2byte	0x4
 1548 02c6 F3       		.byte	0xf3
 1549 02c7 01       		.uleb128 0x1
 1550 02c8 51       		.byte	0x51
 1551 02c9 9F       		.byte	0x9f
 1552 02ca 1A010000 		.4byte	.LVL44
 1553 02ce 22010000 		.4byte	.LVL45
 1554 02d2 0100     		.2byte	0x1
 1555 02d4 51       		.byte	0x51
 1556 02d5 22010000 		.4byte	.LVL45
 1557 02d9 30010000 		.4byte	.LVL47
 1558 02dd 0400     		.2byte	0x4
 1559 02df F3       		.byte	0xf3
 1560 02e0 01       		.uleb128 0x1
 1561 02e1 51       		.byte	0x51
 1562 02e2 9F       		.byte	0x9f
 1563 02e3 30010000 		.4byte	.LVL47
 1564 02e7 40010000 		.4byte	.LFE3
 1565 02eb 0100     		.2byte	0x1
 1566 02ed 51       		.byte	0x51
 1567 02ee 00000000 		.4byte	0
 1568 02f2 00000000 		.4byte	0
 1569              		.section	.debug_aranges,"",%progbits
 1570 0000 34000000 		.4byte	0x34
 1571 0004 0200     		.2byte	0x2
 1572 0006 00000000 		.4byte	.Ldebug_info0
 1573 000a 04       		.byte	0x4
 1574 000b 00       		.byte	0
 1575 000c 0000     		.2byte	0
 1576 000e 0000     		.2byte	0
 1577 0010 00000000 		.4byte	.LFB0
 1578 0014 14000000 		.4byte	.LFE0-.LFB0
 1579 0018 00000000 		.4byte	.LFB1
 1580 001c A4000000 		.4byte	.LFE1-.LFB1
 1581 0020 00000000 		.4byte	.LFB2
 1582 0024 48000000 		.4byte	.LFE2-.LFB2
 1583 0028 00000000 		.4byte	.LFB3
 1584 002c 40010000 		.4byte	.LFE3-.LFB3
 1585 0030 00000000 		.4byte	0
 1586 0034 00000000 		.4byte	0
 1587              		.section	.debug_ranges,"",%progbits
ARM GAS  C:\Users\jsyoon\AppData\Local\Temp\cccpbzKF.s 			page 29


 1588              	.Ldebug_ranges0:
 1589 0000 40000000 		.4byte	.LBB2
 1590 0004 50000000 		.4byte	.LBE2
 1591 0008 94000000 		.4byte	.LBB3
 1592 000c 98000000 		.4byte	.LBE3
 1593 0010 9A000000 		.4byte	.LBB4
 1594 0014 A4000000 		.4byte	.LBE4
 1595 0018 00000000 		.4byte	0
 1596 001c 00000000 		.4byte	0
 1597 0020 00000000 		.4byte	.LFB0
 1598 0024 14000000 		.4byte	.LFE0
 1599 0028 00000000 		.4byte	.LFB1
 1600 002c A4000000 		.4byte	.LFE1
 1601 0030 00000000 		.4byte	.LFB2
 1602 0034 48000000 		.4byte	.LFE2
 1603 0038 00000000 		.4byte	.LFB3
 1604 003c 40010000 		.4byte	.LFE3
 1605 0040 00000000 		.4byte	0
 1606 0044 00000000 		.4byte	0
 1607              		.section	.debug_line,"",%progbits
 1608              	.Ldebug_line0:
 1609 0000 95010000 		.section	.debug_str,"MS",%progbits,1
 1609      0200D000 
 1609      00000201 
 1609      FB0E0D00 
 1609      01010101 
 1610              	.LASF22:
 1611 0000 6372635F 		.ascii	"crc_high\000"
 1611      68696768 
 1611      00
 1612              	.LASF36:
 1613 0009 7061636B 		.ascii	"packet.c\000"
 1613      65742E63 
 1613      00
 1614              	.LASF11:
 1615 0012 5F5F7569 		.ascii	"__uint8_t\000"
 1615      6E74385F 
 1615      7400
 1616              	.LASF34:
 1617 001c 68616E64 		.ascii	"handler_states\000"
 1617      6C65725F 
 1617      73746174 
 1617      657300
 1618              	.LASF26:
 1619 002b 68616E64 		.ascii	"handler_num\000"
 1619      6C65725F 
 1619      6E756D00 
 1620              	.LASF33:
 1621 0037 72785F64 		.ascii	"rx_data\000"
 1621      61746100 
 1622              	.LASF35:
 1623 003f 474E5520 		.ascii	"GNU C 4.8.4 20140526 (release) [ARM/embedded-4_8-br"
 1623      4320342E 
 1623      382E3420 
 1623      32303134 
 1623      30353236 
 1624 0072 616E6368 		.ascii	"anch revision 211358] -mcpu=cortex-m4 -mfloat-abi=h"
ARM GAS  C:\Users\jsyoon\AppData\Local\Temp\cccpbzKF.s 			page 30


 1624      20726576 
 1624      6973696F 
 1624      6E203231 
 1624      31333538 
 1625 00a5 61726420 		.ascii	"ard -mfpu=fpv4-sp-d16 -mno-thumb-interwork -mthumb "
 1625      2D6D6670 
 1625      753D6670 
 1625      76342D73 
 1625      702D6431 
 1626 00d8 2D676764 		.ascii	"-ggdb -O2 -std=gnu99 -fomit-frame-pointer -falign-f"
 1626      62202D4F 
 1626      32202D73 
 1626      74643D67 
 1626      6E753939 
 1627 010b 756E6374 		.ascii	"unctions=16 -ffunction-sections -fdata-sections -fn"
 1627      696F6E73 
 1627      3D313620 
 1627      2D666675 
 1627      6E637469 
 1628 013e 6F2D636F 		.ascii	"o-common -fsingle-precision-constant\000"
 1628      6D6D6F6E 
 1628      202D6673 
 1628      696E676C 
 1628      652D7072 
 1629              	.LASF23:
 1630 0163 5041434B 		.ascii	"PACKET_STATE_t\000"
 1630      45545F53 
 1630      54415445 
 1630      5F7400
 1631              	.LASF20:
 1632 0172 72785F64 		.ascii	"rx_data_ptr\000"
 1632      6174615F 
 1632      70747200 
 1633              	.LASF19:
 1634 017e 74785F62 		.ascii	"tx_buffer\000"
 1634      75666665 
 1634      7200
 1635              	.LASF29:
 1636 0188 64617461 		.ascii	"data\000"
 1636      00
 1637              	.LASF30:
 1638 018d 625F696E 		.ascii	"b_ind\000"
 1638      6400
 1639              	.LASF16:
 1640 0193 70726F63 		.ascii	"process_func\000"
 1640      6573735F 
 1640      66756E63 
 1640      00
 1641              	.LASF18:
 1642 01a0 72785F62 		.ascii	"rx_buffer\000"
 1642      75666665 
 1642      7200
 1643              	.LASF2:
 1644 01aa 756E7369 		.ascii	"unsigned char\000"
 1644      676E6564 
 1644      20636861 
 1644      7200
ARM GAS  C:\Users\jsyoon\AppData\Local\Temp\cccpbzKF.s 			page 31


 1645              	.LASF15:
 1646 01b8 73656E64 		.ascii	"send_func\000"
 1646      5F66756E 
 1646      6300
 1647              	.LASF6:
 1648 01c2 6C6F6E67 		.ascii	"long unsigned int\000"
 1648      20756E73 
 1648      69676E65 
 1648      6420696E 
 1648      7400
 1649              	.LASF4:
 1650 01d4 73686F72 		.ascii	"short unsigned int\000"
 1650      7420756E 
 1650      7369676E 
 1650      65642069 
 1650      6E7400
 1651              	.LASF0:
 1652 01e7 756E7369 		.ascii	"unsigned int\000"
 1652      676E6564 
 1652      20696E74 
 1652      00
 1653              	.LASF31:
 1654 01f4 7061636B 		.ascii	"packet_timerfunc\000"
 1654      65745F74 
 1654      696D6572 
 1654      66756E63 
 1654      00
 1655              	.LASF8:
 1656 0205 6C6F6E67 		.ascii	"long long unsigned int\000"
 1656      206C6F6E 
 1656      6720756E 
 1656      7369676E 
 1656      65642069 
 1657              	.LASF12:
 1658 021c 75696E74 		.ascii	"uint8_t\000"
 1658      385F7400 
 1659              	.LASF28:
 1660 0224 7061636B 		.ascii	"packet_send_packet\000"
 1660      65745F73 
 1660      656E645F 
 1660      7061636B 
 1660      657400
 1661              	.LASF21:
 1662 0237 6372635F 		.ascii	"crc_low\000"
 1662      6C6F7700 
 1663              	.LASF14:
 1664 023f 72785F74 		.ascii	"rx_timeout\000"
 1664      696D656F 
 1664      757400
 1665              	.LASF24:
 1666 024a 735F6675 		.ascii	"s_func\000"
 1666      6E6300
 1667              	.LASF9:
 1668 0251 73697A65 		.ascii	"sizetype\000"
 1668      74797065 
 1668      00
 1669              	.LASF7:
ARM GAS  C:\Users\jsyoon\AppData\Local\Temp\cccpbzKF.s 			page 32


 1670 025a 6C6F6E67 		.ascii	"long long int\000"
 1670      206C6F6E 
 1670      6720696E 
 1670      7400
 1671              	.LASF25:
 1672 0268 705F6675 		.ascii	"p_func\000"
 1672      6E6300
 1673              	.LASF32:
 1674 026f 7061636B 		.ascii	"packet_process_byte\000"
 1674      65745F70 
 1674      726F6365 
 1674      73735F62 
 1674      79746500 
 1675              	.LASF37:
 1676 0283 453A5C4D 		.ascii	"E:\\Maker\\BLDC\\test_eval\\try2\\OROCA-BLDC_R15080"
 1676      616B6572 
 1676      5C424C44 
 1676      435C7465 
 1676      73745F65 
 1677 02b1 3700     		.ascii	"7\000"
 1678              	.LASF3:
 1679 02b3 73686F72 		.ascii	"short int\000"
 1679      7420696E 
 1679      7400
 1680              	.LASF17:
 1681 02bd 7061796C 		.ascii	"payload_length\000"
 1681      6F61645F 
 1681      6C656E67 
 1681      746800
 1682              	.LASF38:
 1683 02cc 63726331 		.ascii	"crc16\000"
 1683      3600
 1684              	.LASF5:
 1685 02d2 6C6F6E67 		.ascii	"long int\000"
 1685      20696E74 
 1685      00
 1686              	.LASF10:
 1687 02db 63686172 		.ascii	"char\000"
 1687      00
 1688              	.LASF27:
 1689 02e0 7061636B 		.ascii	"packet_init\000"
 1689      65745F69 
 1689      6E697400 
 1690              	.LASF1:
 1691 02ec 7369676E 		.ascii	"signed char\000"
 1691      65642063 
 1691      68617200 
 1692              	.LASF13:
 1693 02f8 72785F73 		.ascii	"rx_state\000"
 1693      74617465 
 1693      00
 1694              		.ident	"GCC: (GNU Tools for ARM Embedded Processors) 4.8.4 20140526 (release) [ARM/embedded-4_8-br
ARM GAS  C:\Users\jsyoon\AppData\Local\Temp\cccpbzKF.s 			page 33


DEFINED SYMBOLS
                            *ABS*:00000000 packet.c
C:\Users\jsyoon\AppData\Local\Temp\cccpbzKF.s:21     .text.packet_init:00000000 $t
C:\Users\jsyoon\AppData\Local\Temp\cccpbzKF.s:27     .text.packet_init:00000000 packet_init
C:\Users\jsyoon\AppData\Local\Temp\cccpbzKF.s:48     .text.packet_init:00000010 $d
C:\Users\jsyoon\AppData\Local\Temp\cccpbzKF.s:53     .text.packet_send_packet:00000000 $t
C:\Users\jsyoon\AppData\Local\Temp\cccpbzKF.s:59     .text.packet_send_packet:00000000 packet_send_packet
C:\Users\jsyoon\AppData\Local\Temp\cccpbzKF.s:193    .text.packet_send_packet:000000a0 $d
C:\Users\jsyoon\AppData\Local\Temp\cccpbzKF.s:199    .text.packet_timerfunc:00000000 $t
C:\Users\jsyoon\AppData\Local\Temp\cccpbzKF.s:205    .text.packet_timerfunc:00000000 packet_timerfunc
C:\Users\jsyoon\AppData\Local\Temp\cccpbzKF.s:258    .text.packet_timerfunc:00000044 $d
C:\Users\jsyoon\AppData\Local\Temp\cccpbzKF.s:264    .text.packet_process_byte:00000000 $t
C:\Users\jsyoon\AppData\Local\Temp\cccpbzKF.s:270    .text.packet_process_byte:00000000 packet_process_byte
C:\Users\jsyoon\AppData\Local\Temp\cccpbzKF.s:300    .text.packet_process_byte:00000018 $d
C:\Users\jsyoon\AppData\Local\Temp\cccpbzKF.s:522    .text.packet_process_byte:0000013c $d
C:\Users\jsyoon\AppData\Local\Temp\cccpbzKF.s:527    .bss.handler_states:00000000 $d
C:\Users\jsyoon\AppData\Local\Temp\cccpbzKF.s:531    .bss.handler_states:00000000 handler_states
                     .debug_frame:00000010 $d
C:\Users\jsyoon\AppData\Local\Temp\cccpbzKF.s:52     .text.packet_init:00000014 $t
C:\Users\jsyoon\AppData\Local\Temp\cccpbzKF.s:198    .text.packet_send_packet:000000a4 $t
C:\Users\jsyoon\AppData\Local\Temp\cccpbzKF.s:263    .text.packet_timerfunc:00000048 $t
C:\Users\jsyoon\AppData\Local\Temp\cccpbzKF.s:307    .text.packet_process_byte:0000001f $d
C:\Users\jsyoon\AppData\Local\Temp\cccpbzKF.s:307    .text.packet_process_byte:00000020 $t

UNDEFINED SYMBOLS
crc16
