ARM GAS  C:\Users\jsyoon\AppData\Local\Temp\ccIAH7yv.s 			page 1


   1              		.syntax unified
   2              		.cpu cortex-m4
   3              		.eabi_attribute 27, 3
   4              		.eabi_attribute 28, 1
   5              		.fpu fpv4-sp-d16
   6              		.eabi_attribute 20, 1
   7              		.eabi_attribute 21, 1
   8              		.eabi_attribute 23, 3
   9              		.eabi_attribute 24, 1
  10              		.eabi_attribute 25, 1
  11              		.eabi_attribute 26, 1
  12              		.eabi_attribute 30, 2
  13              		.eabi_attribute 34, 1
  14              		.eabi_attribute 18, 4
  15              		.thumb
  16              		.file	"rfhelp.c"
  17              		.text
  18              	.Ltext0:
  19              		.cfi_sections	.debug_frame
  20              		.section	.text.rfhelp_init,"ax",%progbits
  21              		.align	2
  22              		.p2align 4,,15
  23              		.global	rfhelp_init
  24              		.thumb
  25              		.thumb_func
  26              		.type	rfhelp_init, %function
  27              	rfhelp_init:
  28              	.LFB118:
  29              		.file 1 "nrf/rfhelp.c"
  30              		.loc 1 33 0
  31              		.cfi_startproc
  32              		@ args = 0, pretend = 0, frame = 0
  33              		@ frame_needed = 0, uses_anonymous_args = 0
  34 0000 2DE9F041 		push	{r4, r5, r6, r7, r8, lr}
  35              		.cfi_def_cfa_offset 24
  36              		.cfi_offset 4, -24
  37              		.cfi_offset 5, -20
  38              		.cfi_offset 6, -16
  39              		.cfi_offset 7, -12
  40              		.cfi_offset 8, -8
  41              		.cfi_offset 14, -4
  42              		.loc 1 34 0
  43 0004 1448     		ldr	r0, .L6
  44              		.loc 1 37 0
  45 0006 154E     		ldr	r6, .L6+4
  46 0008 154C     		ldr	r4, .L6+8
  47 000a 164D     		ldr	r5, .L6+12
  48              		.loc 1 34 0
  49 000c FFF7FEFF 		bl	chMtxInit
  50              	.LVL0:
  51              		.loc 1 37 0
  52 0010 0522     		movs	r2, #5
  53 0012 3260     		str	r2, [r6]
  54              	.LVL1:
  55 0014 04F10608 		add	r8, r4, #6
  56              	.LBB2:
  57              		.loc 1 46 0
ARM GAS  C:\Users\jsyoon\AppData\Local\Temp\ccIAH7yv.s 			page 2


  58 0018 0027     		movs	r7, #0
  59 001a 00E0     		b	.L3
  60              	.LVL2:
  61              	.L5:
  62 001c 3268     		ldr	r2, [r6]
  63              	.LVL3:
  64              	.L3:
  65              		.loc 1 45 0 discriminator 2
  66 001e 2946     		mov	r1, r5
  67 0020 0A20     		movs	r0, #10
  68 0022 FFF7FEFF 		bl	rf_read_reg
  69              	.LVL4:
  70              		.loc 1 46 0 discriminator 2
  71 0026 04F8017F 		strb	r7, [r4, #1]!
  72              	.LVL5:
  73              		.loc 1 44 0 discriminator 2
  74 002a 4445     		cmp	r4, r8
  75 002c 05F10505 		add	r5, r5, #5
  76 0030 F4D1     		bne	.L5
  77              	.LBE2:
  78              		.loc 1 48 0
  79 0032 1020     		movs	r0, #16
  80 0034 0C49     		ldr	r1, .L6+16
  81 0036 3268     		ldr	r2, [r6]
  82 0038 FFF7FEFF 		bl	rf_read_reg
  83              	.LVL6:
  84              		.loc 1 50 0
  85 003c 3268     		ldr	r2, [r6]
  86 003e 0948     		ldr	r0, .L6+12
  87 0040 0949     		ldr	r1, .L6+16
  88 0042 FFF7FEFF 		bl	memcmp
  89              	.LVL7:
  90 0046 094B     		ldr	r3, .L6+20
  91 0048 D0F10100 		rsbs	r0, r0, #1
  92 004c 38BF     		it	cc
  93 004e 0020     		movcc	r0, #0
  94 0050 1870     		strb	r0, [r3]
  95 0052 BDE8F081 		pop	{r4, r5, r6, r7, r8, pc}
  96              	.LVL8:
  97              	.L7:
  98 0056 00BF     		.align	2
  99              	.L6:
 100 0058 00000000 		.word	.LANCHOR0
 101 005c 00000000 		.word	.LANCHOR1
 102 0060 FFFFFFFF 		.word	.LANCHOR3-1
 103 0064 00000000 		.word	.LANCHOR2
 104 0068 00000000 		.word	.LANCHOR4
 105 006c 00000000 		.word	.LANCHOR5
 106              		.cfi_endproc
 107              	.LFE118:
 108              		.size	rfhelp_init, .-rfhelp_init
 109              		.section	.text.rfhelp_restart,"ax",%progbits
 110              		.align	2
 111              		.p2align 4,,15
 112              		.global	rfhelp_restart
 113              		.thumb
 114              		.thumb_func
ARM GAS  C:\Users\jsyoon\AppData\Local\Temp\ccIAH7yv.s 			page 3


 115              		.type	rfhelp_restart, %function
 116              	rfhelp_restart:
 117              	.LFB119:
 118              		.loc 1 56 0
 119              		.cfi_startproc
 120              		@ args = 0, pretend = 0, frame = 0
 121              		@ frame_needed = 0, uses_anonymous_args = 0
 122 0000 F8B5     		push	{r3, r4, r5, r6, r7, lr}
 123              		.cfi_def_cfa_offset 24
 124              		.cfi_offset 3, -24
 125              		.cfi_offset 4, -20
 126              		.cfi_offset 5, -16
 127              		.cfi_offset 6, -12
 128              		.cfi_offset 7, -8
 129              		.cfi_offset 14, -4
 130              		.loc 1 60 0
 131 0002 124F     		ldr	r7, .L16
 132              		.loc 1 57 0
 133 0004 1248     		ldr	r0, .L16+4
 134 0006 134D     		ldr	r5, .L16+8
 135 0008 134E     		ldr	r6, .L16+12
 136 000a FFF7FEFF 		bl	chMtxLock
 137              	.LVL9:
 138              		.loc 1 59 0
 139 000e FFF7FEFF 		bl	rf_init
 140              	.LVL10:
 141              		.loc 1 60 0
 142 0012 3968     		ldr	r1, [r7]
 143 0014 1148     		ldr	r0, .L16+16
 144 0016 FFF7FEFF 		bl	rf_set_tx_addr
 145              	.LVL11:
 146              	.LBB3:
 147              		.loc 1 61 0
 148 001a 0024     		movs	r4, #0
 149 001c 04E0     		b	.L11
 150              	.LVL12:
 151              	.L9:
 152 001e 0134     		adds	r4, r4, #1
 153              	.LVL13:
 154 0020 062C     		cmp	r4, #6
 155 0022 05F10505 		add	r5, r5, #5
 156 0026 0CD0     		beq	.L15
 157              	.LVL14:
 158              	.L11:
 159              		.loc 1 62 0
 160 0028 335D     		ldrb	r3, [r6, r4]	@ zero_extendqisi2
 161 002a 002B     		cmp	r3, #0
 162 002c F7D0     		beq	.L9
 163              		.loc 1 63 0
 164 002e 2046     		mov	r0, r4
 165 0030 2946     		mov	r1, r5
 166 0032 3A68     		ldr	r2, [r7]
 167              		.loc 1 61 0
 168 0034 0134     		adds	r4, r4, #1
 169              	.LVL15:
 170              		.loc 1 63 0
 171 0036 FFF7FEFF 		bl	rf_set_rx_addr
ARM GAS  C:\Users\jsyoon\AppData\Local\Temp\ccIAH7yv.s 			page 4


 172              	.LVL16:
 173              		.loc 1 61 0
 174 003a 062C     		cmp	r4, #6
 175 003c 05F10505 		add	r5, r5, #5
 176 0040 F2D1     		bne	.L11
 177              	.L15:
 178              	.LBE3:
 179              		.loc 1 68 0
 180 0042 BDE8F840 		pop	{r3, r4, r5, r6, r7, lr}
 181              	.LVL17:
 182              		.loc 1 67 0
 183 0046 FFF7FEBF 		b	chMtxUnlock
 184              	.LVL18:
 185              	.L17:
 186 004a 00BF     		.align	2
 187              	.L16:
 188 004c 00000000 		.word	.LANCHOR1
 189 0050 00000000 		.word	.LANCHOR0
 190 0054 00000000 		.word	.LANCHOR2
 191 0058 00000000 		.word	.LANCHOR3
 192 005c 00000000 		.word	.LANCHOR4
 193              		.cfi_endproc
 194              	.LFE119:
 195              		.size	rfhelp_restart, .-rfhelp_restart
 196              		.section	.text.rfhelp_send_data,"ax",%progbits
 197              		.align	2
 198              		.p2align 4,,15
 199              		.global	rfhelp_send_data
 200              		.thumb
 201              		.thumb_func
 202              		.type	rfhelp_send_data, %function
 203              	rfhelp_send_data:
 204              	.LFB120:
 205              		.loc 1 84 0
 206              		.cfi_startproc
 207              		@ args = 0, pretend = 0, frame = 0
 208              		@ frame_needed = 0, uses_anonymous_args = 0
 209              	.LVL19:
 210 0000 70B5     		push	{r4, r5, r6, lr}
 211              		.cfi_def_cfa_offset 16
 212              		.cfi_offset 4, -16
 213              		.cfi_offset 5, -12
 214              		.cfi_offset 6, -8
 215              		.cfi_offset 14, -4
 216              		.loc 1 84 0
 217 0002 0D46     		mov	r5, r1
 218 0004 0446     		mov	r4, r0
 219              		.loc 1 97 0
 220 0006 1D4E     		ldr	r6, .L30
 221              		.loc 1 88 0
 222 0008 1D48     		ldr	r0, .L30+4
 223              	.LVL20:
 224 000a FFF7FEFF 		bl	chMtxLock
 225              	.LVL21:
 226              		.loc 1 90 0
 227 000e FFF7FEFF 		bl	rf_mode_tx
 228              	.LVL22:
ARM GAS  C:\Users\jsyoon\AppData\Local\Temp\ccIAH7yv.s 			page 5


 229              		.loc 1 91 0
 230 0012 FFF7FEFF 		bl	rf_clear_irq
 231              	.LVL23:
 232              		.loc 1 92 0
 233 0016 FFF7FEFF 		bl	rf_flush_all
 234              	.LVL24:
 235              		.loc 1 94 0
 236 001a 2046     		mov	r0, r4
 237 001c 2946     		mov	r1, r5
 238 001e FFF7FEFF 		bl	rf_write_tx_payload
 239              	.LVL25:
 240              		.loc 1 97 0
 241 0022 3078     		ldrb	r0, [r6]	@ zero_extendqisi2
 242 0024 00B3     		cbz	r0, .L26
 243              	.L19:
 244              		.loc 1 84 0
 245 0026 3C25     		movs	r5, #60
 246              	.LVL26:
 247 0028 03E0     		b	.L22
 248              	.LVL27:
 249              	.L29:
 250              	.LBB4:
 251              		.loc 1 110 0
 252 002a E306     		lsls	r3, r4, #27
 253 002c 17D4     		bmi	.L27
 254              		.loc 1 114 0
 255 002e 013D     		subs	r5, r5, #1
 256              	.LVL28:
 257 0030 20D0     		beq	.L28
 258              	.LVL29:
 259              	.L22:
 260              		.loc 1 102 0
 261 0032 FFF7FEFF 		bl	rf_status
 262              	.LVL30:
 263 0036 0446     		mov	r4, r0
 264              	.LVL31:
 265              		.loc 1 104 0
 266 0038 0A20     		movs	r0, #10
 267              	.LVL32:
 268 003a FFF7FEFF 		bl	chThdSleep
 269              	.LVL33:
 270              		.loc 1 107 0
 271 003e A206     		lsls	r2, r4, #26
 272 0040 F3D5     		bpl	.L29
 273              		.loc 1 108 0
 274 0042 0024     		movs	r4, #0
 275              	.LVL34:
 276              	.L20:
 277              	.LBE4:
 278              		.loc 1 121 0
 279 0044 3078     		ldrb	r0, [r6]	@ zero_extendqisi2
 280 0046 20B9     		cbnz	r0, .L23
 281              		.loc 1 122 0
 282 0048 0E4A     		ldr	r2, .L30+8
 283 004a 0F49     		ldr	r1, .L30+12
 284 004c 1268     		ldr	r2, [r2]
 285 004e FFF7FEFF 		bl	rf_set_rx_addr
ARM GAS  C:\Users\jsyoon\AppData\Local\Temp\ccIAH7yv.s 			page 6


 286              	.LVL35:
 287              	.L23:
 288              		.loc 1 125 0
 289 0052 FFF7FEFF 		bl	rf_mode_rx
 290              	.LVL36:
 291              		.loc 1 127 0
 292 0056 FFF7FEFF 		bl	chMtxUnlock
 293              	.LVL37:
 294              		.loc 1 130 0
 295 005a 2046     		mov	r0, r4
 296 005c 70BD     		pop	{r4, r5, r6, pc}
 297              	.LVL38:
 298              	.L27:
 299              	.LBB5:
 300              		.loc 1 111 0
 301 005e FFF7FEFF 		bl	rf_clear_maxrt_irq
 302              	.LVL39:
 303              		.loc 1 112 0
 304 0062 4FF0FF34 		mov	r4, #-1
 305              	.LVL40:
 306              		.loc 1 113 0
 307 0066 EDE7     		b	.L20
 308              	.LVL41:
 309              	.L26:
 310              	.LBE5:
 311              		.loc 1 98 0
 312 0068 064B     		ldr	r3, .L30+8
 313 006a 0849     		ldr	r1, .L30+16
 314 006c 1A68     		ldr	r2, [r3]
 315 006e FFF7FEFF 		bl	rf_set_rx_addr
 316              	.LVL42:
 317 0072 D8E7     		b	.L19
 318              	.LVL43:
 319              	.L28:
 320              	.LBB6:
 321              		.loc 1 115 0
 322 0074 6FF00104 		mvn	r4, #1
 323              	.LVL44:
 324 0078 E4E7     		b	.L20
 325              	.L31:
 326 007a 00BF     		.align	2
 327              	.L30:
 328 007c 00000000 		.word	.LANCHOR5
 329 0080 00000000 		.word	.LANCHOR0
 330 0084 00000000 		.word	.LANCHOR1
 331 0088 00000000 		.word	.LANCHOR2
 332 008c 00000000 		.word	.LANCHOR4
 333              	.LBE6:
 334              		.cfi_endproc
 335              	.LFE120:
 336              		.size	rfhelp_send_data, .-rfhelp_send_data
 337              		.section	.text.rfhelp_read_rx_data,"ax",%progbits
 338              		.align	2
 339              		.p2align 4,,15
 340              		.global	rfhelp_read_rx_data
 341              		.thumb
 342              		.thumb_func
ARM GAS  C:\Users\jsyoon\AppData\Local\Temp\ccIAH7yv.s 			page 7


 343              		.type	rfhelp_read_rx_data, %function
 344              	rfhelp_read_rx_data:
 345              	.LFB121:
 346              		.loc 1 150 0
 347              		.cfi_startproc
 348              		@ args = 0, pretend = 0, frame = 0
 349              		@ frame_needed = 0, uses_anonymous_args = 0
 350              	.LVL45:
 351 0000 F8B5     		push	{r3, r4, r5, r6, r7, lr}
 352              		.cfi_def_cfa_offset 24
 353              		.cfi_offset 3, -24
 354              		.cfi_offset 4, -20
 355              		.cfi_offset 5, -16
 356              		.cfi_offset 6, -12
 357              		.cfi_offset 7, -8
 358              		.cfi_offset 14, -4
 359              		.loc 1 150 0
 360 0002 0746     		mov	r7, r0
 361              		.loc 1 153 0
 362 0004 1548     		ldr	r0, .L40
 363              	.LVL46:
 364              		.loc 1 150 0
 365 0006 0C46     		mov	r4, r1
 366 0008 1646     		mov	r6, r2
 367              		.loc 1 153 0
 368 000a FFF7FEFF 		bl	chMtxLock
 369              	.LVL47:
 370              		.loc 1 155 0
 371 000e FFF7FEFF 		bl	rf_status
 372              	.LVL48:
 373              		.loc 1 156 0
 374 0012 C0F34205 		ubfx	r5, r0, #1, #3
 375              	.LVL49:
 376              		.loc 1 158 0
 377 0016 072D     		cmp	r5, #7
 378 0018 1DD0     		beq	.L36
 379              		.loc 1 159 0
 380 001a FFF7FEFF 		bl	rf_get_payload_width
 381              	.LVL50:
 382 001e 0146     		mov	r1, r0
 383 0020 2060     		str	r0, [r4]
 384              		.loc 1 160 0
 385 0022 0EB1     		cbz	r6, .L34
 386              		.loc 1 161 0
 387 0024 3560     		str	r5, [r6]
 388 0026 2168     		ldr	r1, [r4]
 389              	.L34:
 390              		.loc 1 163 0
 391 0028 2029     		cmp	r1, #32
 392 002a 0FD8     		bhi	.L35
 393              		.loc 1 164 0
 394 002c 3846     		mov	r0, r7
 395 002e FFF7FEFF 		bl	rf_read_rx_payload
 396              	.LVL51:
 397              		.loc 1 165 0
 398 0032 FFF7FEFF 		bl	rf_clear_rx_irq
 399              	.LVL52:
ARM GAS  C:\Users\jsyoon\AppData\Local\Temp\ccIAH7yv.s 			page 8


 400              		.loc 1 167 0
 401 0036 FFF7FEFF 		bl	rf_status
 402              	.LVL53:
 403              		.loc 1 168 0
 404 003a C0F34200 		ubfx	r0, r0, #1, #3
 405              	.LVL54:
 406 003e C41F     		subs	r4, r0, #7
 407              	.LVL55:
 408 0040 18BF     		it	ne
 409 0042 0124     		movne	r4, #1
 410              	.LVL56:
 411              	.L33:
 412              		.loc 1 179 0
 413 0044 FFF7FEFF 		bl	chMtxUnlock
 414              	.LVL57:
 415              		.loc 1 182 0
 416 0048 2046     		mov	r0, r4
 417 004a F8BD     		pop	{r3, r4, r5, r6, r7, pc}
 418              	.LVL58:
 419              	.L35:
 420              		.loc 1 174 0
 421 004c 0023     		movs	r3, #0
 422 004e 2360     		str	r3, [r4]
 423              	.LVL59:
 424              		.loc 1 175 0
 425 0050 6FF00104 		mvn	r4, #1
 426              	.LVL60:
 427 0054 F6E7     		b	.L33
 428              	.LVL61:
 429              	.L36:
 430              		.loc 1 151 0
 431 0056 4FF0FF34 		mov	r4, #-1
 432              	.LVL62:
 433 005a F3E7     		b	.L33
 434              	.L41:
 435              		.align	2
 436              	.L40:
 437 005c 00000000 		.word	.LANCHOR0
 438              		.cfi_endproc
 439              	.LFE121:
 440              		.size	rfhelp_read_rx_data, .-rfhelp_read_rx_data
 441              		.section	.text.rfhelp_rf_status,"ax",%progbits
 442              		.align	2
 443              		.p2align 4,,15
 444              		.global	rfhelp_rf_status
 445              		.thumb
 446              		.thumb_func
 447              		.type	rfhelp_rf_status, %function
 448              	rfhelp_rf_status:
 449              	.LFB122:
 450              		.loc 1 184 0
 451              		.cfi_startproc
 452              		@ args = 0, pretend = 0, frame = 0
 453              		@ frame_needed = 0, uses_anonymous_args = 0
 454 0000 10B5     		push	{r4, lr}
 455              		.cfi_def_cfa_offset 8
 456              		.cfi_offset 4, -8
ARM GAS  C:\Users\jsyoon\AppData\Local\Temp\ccIAH7yv.s 			page 9


 457              		.cfi_offset 14, -4
 458              		.loc 1 185 0
 459 0002 0548     		ldr	r0, .L43
 460 0004 FFF7FEFF 		bl	chMtxLock
 461              	.LVL63:
 462              		.loc 1 186 0
 463 0008 FFF7FEFF 		bl	rf_status
 464              	.LVL64:
 465 000c 0446     		mov	r4, r0
 466              	.LVL65:
 467              		.loc 1 187 0
 468 000e FFF7FEFF 		bl	chMtxUnlock
 469              	.LVL66:
 470              		.loc 1 190 0
 471 0012 2046     		mov	r0, r4
 472 0014 10BD     		pop	{r4, pc}
 473              	.LVL67:
 474              	.L44:
 475 0016 00BF     		.align	2
 476              	.L43:
 477 0018 00000000 		.word	.LANCHOR0
 478              		.cfi_endproc
 479              	.LFE122:
 480              		.size	rfhelp_rf_status, .-rfhelp_rf_status
 481 001c AFF30080 		.section	.text.rfhelp_set_tx_addr,"ax",%progbits
 482              		.align	2
 483              		.p2align 4,,15
 484              		.global	rfhelp_set_tx_addr
 485              		.thumb
 486              		.thumb_func
 487              		.type	rfhelp_set_tx_addr, %function
 488              	rfhelp_set_tx_addr:
 489              	.LFB123:
 490              		.loc 1 192 0
 491              		.cfi_startproc
 492              		@ args = 0, pretend = 0, frame = 0
 493              		@ frame_needed = 0, uses_anonymous_args = 0
 494              	.LVL68:
 495 0000 70B5     		push	{r4, r5, r6, lr}
 496              		.cfi_def_cfa_offset 16
 497              		.cfi_offset 4, -16
 498              		.cfi_offset 5, -12
 499              		.cfi_offset 6, -8
 500              		.cfi_offset 14, -4
 501              		.loc 1 194 0
 502 0002 104D     		ldr	r5, .L46
 503              		.loc 1 192 0
 504 0004 0C46     		mov	r4, r1
 505 0006 0646     		mov	r6, r0
 506              		.loc 1 193 0
 507 0008 0F48     		ldr	r0, .L46+4
 508              	.LVL69:
 509 000a FFF7FEFF 		bl	chMtxLock
 510              	.LVL70:
 511              		.loc 1 194 0
 512 000e 3146     		mov	r1, r6
 513 0010 2246     		mov	r2, r4
ARM GAS  C:\Users\jsyoon\AppData\Local\Temp\ccIAH7yv.s 			page 10


 514 0012 2846     		mov	r0, r5
 515 0014 FFF7FEFF 		bl	memcpy
 516              	.LVL71:
 517              		.loc 1 195 0
 518 0018 0C4B     		ldr	r3, .L46+8
 519              		.loc 1 197 0
 520 001a 0D48     		ldr	r0, .L46+12
 521              		.loc 1 195 0
 522 001c 1C60     		str	r4, [r3]
 523              		.loc 1 197 0
 524 001e 2946     		mov	r1, r5
 525 0020 2246     		mov	r2, r4
 526 0022 FFF7FEFF 		bl	memcmp
 527              	.LVL72:
 528 0026 0B4B     		ldr	r3, .L46+16
 529 0028 D0F10102 		rsbs	r2, r0, #1
 530 002c 38BF     		it	cc
 531 002e 0022     		movcc	r2, #0
 532              		.loc 1 199 0
 533 0030 2146     		mov	r1, r4
 534 0032 2846     		mov	r0, r5
 535              		.loc 1 197 0
 536 0034 1A70     		strb	r2, [r3]
 537              		.loc 1 199 0
 538 0036 FFF7FEFF 		bl	rf_set_tx_addr
 539              	.LVL73:
 540              		.loc 1 201 0
 541 003a BDE87040 		pop	{r4, r5, r6, lr}
 542              	.LVL74:
 543              		.loc 1 200 0
 544 003e FFF7FEBF 		b	chMtxUnlock
 545              	.LVL75:
 546              	.L47:
 547 0042 00BF     		.align	2
 548              	.L46:
 549 0044 00000000 		.word	.LANCHOR4
 550 0048 00000000 		.word	.LANCHOR0
 551 004c 00000000 		.word	.LANCHOR1
 552 0050 00000000 		.word	.LANCHOR2
 553 0054 00000000 		.word	.LANCHOR5
 554              		.cfi_endproc
 555              	.LFE123:
 556              		.size	rfhelp_set_tx_addr, .-rfhelp_set_tx_addr
 557 0058 AFF30080 		.section	.text.rfhelp_set_rx_addr,"ax",%progbits
 557      AFF30080 
 558              		.align	2
 559              		.p2align 4,,15
 560              		.global	rfhelp_set_rx_addr
 561              		.thumb
 562              		.thumb_func
 563              		.type	rfhelp_set_rx_addr, %function
 564              	rfhelp_set_rx_addr:
 565              	.LFB124:
 566              		.loc 1 203 0
 567              		.cfi_startproc
 568              		@ args = 0, pretend = 0, frame = 0
 569              		@ frame_needed = 0, uses_anonymous_args = 0
ARM GAS  C:\Users\jsyoon\AppData\Local\Temp\ccIAH7yv.s 			page 11


 570              	.LVL76:
 571 0000 F8B5     		push	{r3, r4, r5, r6, r7, lr}
 572              		.cfi_def_cfa_offset 24
 573              		.cfi_offset 3, -24
 574              		.cfi_offset 4, -20
 575              		.cfi_offset 5, -16
 576              		.cfi_offset 6, -12
 577              		.cfi_offset 7, -8
 578              		.cfi_offset 14, -4
 579              		.loc 1 203 0
 580 0002 0546     		mov	r5, r0
 581              		.loc 1 205 0
 582 0004 134F     		ldr	r7, .L49
 583              		.loc 1 204 0
 584 0006 1448     		ldr	r0, .L49+4
 585              	.LVL77:
 586              		.loc 1 203 0
 587 0008 1446     		mov	r4, r2
 588 000a 0E46     		mov	r6, r1
 589              		.loc 1 204 0
 590 000c FFF7FEFF 		bl	chMtxLock
 591              	.LVL78:
 592              		.loc 1 205 0
 593 0010 05EB8500 		add	r0, r5, r5, lsl #2
 594 0014 3146     		mov	r1, r6
 595 0016 2246     		mov	r2, r4
 596 0018 3844     		add	r0, r0, r7
 597 001a FFF7FEFF 		bl	memcpy
 598              	.LVL79:
 599              		.loc 1 206 0
 600 001e 0F4B     		ldr	r3, .L49+8
 601              		.loc 1 208 0
 602 0020 0F49     		ldr	r1, .L49+12
 603              		.loc 1 206 0
 604 0022 1C60     		str	r4, [r3]
 605              		.loc 1 208 0
 606 0024 2246     		mov	r2, r4
 607 0026 3846     		mov	r0, r7
 608 0028 FFF7FEFF 		bl	memcmp
 609              	.LVL80:
 610 002c 0D4F     		ldr	r7, .L49+16
 611              		.loc 1 209 0
 612 002e 0E4B     		ldr	r3, .L49+20
 613              		.loc 1 208 0
 614 0030 D0F1010E 		rsbs	lr, r0, #1
 615 0034 38BF     		it	cc
 616 0036 4FF0000E 		movcc	lr, #0
 617              		.loc 1 211 0
 618 003a 3146     		mov	r1, r6
 619 003c 2246     		mov	r2, r4
 620 003e 2846     		mov	r0, r5
 621              		.loc 1 209 0
 622 0040 0124     		movs	r4, #1
 623              	.LVL81:
 624              		.loc 1 208 0
 625 0042 87F800E0 		strb	lr, [r7]
 626              		.loc 1 209 0
ARM GAS  C:\Users\jsyoon\AppData\Local\Temp\ccIAH7yv.s 			page 12


 627 0046 5C55     		strb	r4, [r3, r5]
 628              		.loc 1 211 0
 629 0048 FFF7FEFF 		bl	rf_set_rx_addr
 630              	.LVL82:
 631              		.loc 1 213 0
 632 004c BDE8F840 		pop	{r3, r4, r5, r6, r7, lr}
 633              	.LVL83:
 634              		.loc 1 212 0
 635 0050 FFF7FEBF 		b	chMtxUnlock
 636              	.LVL84:
 637              	.L50:
 638              		.align	2
 639              	.L49:
 640 0054 00000000 		.word	.LANCHOR2
 641 0058 00000000 		.word	.LANCHOR0
 642 005c 00000000 		.word	.LANCHOR1
 643 0060 00000000 		.word	.LANCHOR4
 644 0064 00000000 		.word	.LANCHOR5
 645 0068 00000000 		.word	.LANCHOR3
 646              		.cfi_endproc
 647              	.LFE124:
 648              		.size	rfhelp_set_rx_addr, .-rfhelp_set_rx_addr
 649 006c AFF30080 		.section	.bss.tx_addr,"aw",%nobits
 650              		.align	2
 651              		.set	.LANCHOR4,. + 0
 652              		.type	tx_addr, %object
 653              		.size	tx_addr, 5
 654              	tx_addr:
 655 0000 00000000 		.space	5
 655      00
 656 0005 000000   		.section	.bss.rx_addr_set,"aw",%nobits
 657              		.align	2
 658              		.set	.LANCHOR3,. + 0
 659              		.type	rx_addr_set, %object
 660              		.size	rx_addr_set, 6
 661              	rx_addr_set:
 662 0000 00000000 		.space	6
 662      0000
 663 0006 0000     		.section	.bss.rf_mutex,"aw",%nobits
 664              		.align	2
 665              		.set	.LANCHOR0,. + 0
 666              		.type	rf_mutex, %object
 667              		.size	rf_mutex, 16
 668              	rf_mutex:
 669 0000 00000000 		.space	16
 669      00000000 
 669      00000000 
 669      00000000 
 670              		.section	.bss.rx_addr,"aw",%nobits
 671              		.align	2
 672              		.set	.LANCHOR2,. + 0
 673              		.type	rx_addr, %object
 674              		.size	rx_addr, 30
 675              	rx_addr:
 676 0000 00000000 		.space	30
 676      00000000 
 676      00000000 
ARM GAS  C:\Users\jsyoon\AppData\Local\Temp\ccIAH7yv.s 			page 13


 676      00000000 
 676      00000000 
 677 001e 0000     		.section	.bss.address_length,"aw",%nobits
 678              		.align	2
 679              		.set	.LANCHOR1,. + 0
 680              		.type	address_length, %object
 681              		.size	address_length, 4
 682              	address_length:
 683 0000 00000000 		.space	4
 684              		.section	.bss.tx_pipe0_addr_eq,"aw",%nobits
 685              		.set	.LANCHOR5,. + 0
 686              		.type	tx_pipe0_addr_eq, %object
 687              		.size	tx_pipe0_addr_eq, 1
 688              	tx_pipe0_addr_eq:
 689 0000 00       		.space	1
 690              		.text
 691              	.Letext0:
 692              		.file 2 "c:\\crosstools\\gcc-arm-embedded\\4.8_2014q2\\arm-none-eabi\\include\\machine\\_default_t
 693              		.file 3 "c:\\crosstools\\gcc-arm-embedded\\4.8_2014q2\\arm-none-eabi\\include\\stdint.h"
 694              		.file 4 "c:\\crosstools\\gcc-arm-embedded\\4.8_2014q2\\lib\\gcc\\arm-none-eabi\\4.8.4\\include\\st
 695              		.file 5 "ChibiOS_2.6.6/os/ports/GCC/ARMCMx/chtypes.h"
 696              		.file 6 "ChibiOS_2.6.6/os/kernel/include/chlists.h"
 697              		.file 7 "ChibiOS_2.6.6/os/kernel/include/chthreads.h"
 698              		.file 8 "ChibiOS_2.6.6/os/ports/GCC/ARMCMx/chcore_v7m.h"
 699              		.file 9 "ChibiOS_2.6.6/os/kernel/include/chmtx.h"
 700              		.file 10 "nrf/rf.h"
 701              		.file 11 "ChibiOS_2.6.6/os/ports/common/ARMCMx/CMSIS/include/core_cm4.h"
 702              		.file 12 "c:\\crosstools\\gcc-arm-embedded\\4.8_2014q2\\arm-none-eabi\\include\\string.h"