ARM GAS  C:\Users\jsyoon\AppData\Local\Temp\ccIAH7yv.s 			page 1


   1              		.syntax unified
   2              		.cpu cortex-m4
   3              		.eabi_attribute 27, 3
   4              		.eabi_attribute 28, 1
   5              		.fpu fpv4-sp-d16
   6              		.eabi_attribute 20, 1
   7              		.eabi_attribute 21, 1
   8              		.eabi_attribute 23, 3
   9              		.eabi_attribute 24, 1
  10              		.eabi_attribute 25, 1
  11              		.eabi_attribute 26, 1
  12              		.eabi_attribute 30, 2
  13              		.eabi_attribute 34, 1
  14              		.eabi_attribute 18, 4
  15              		.thumb
  16              		.file	"rfhelp.c"
  17              		.text
  18              	.Ltext0:
  19              		.cfi_sections	.debug_frame
  20              		.section	.text.rfhelp_init,"ax",%progbits
  21              		.align	2
  22              		.p2align 4,,15
  23              		.global	rfhelp_init
  24              		.thumb
  25              		.thumb_func
  26              		.type	rfhelp_init, %function
  27              	rfhelp_init:
  28              	.LFB118:
  29              		.file 1 "nrf/rfhelp.c"
  30              		.loc 1 33 0
  31              		.cfi_startproc
  32              		@ args = 0, pretend = 0, frame = 0
  33              		@ frame_needed = 0, uses_anonymous_args = 0
  34 0000 2DE9F041 		push	{r4, r5, r6, r7, r8, lr}
  35              		.cfi_def_cfa_offset 24
  36              		.cfi_offset 4, -24
  37              		.cfi_offset 5, -20
  38              		.cfi_offset 6, -16
  39              		.cfi_offset 7, -12
  40              		.cfi_offset 8, -8
  41              		.cfi_offset 14, -4
  42              		.loc 1 34 0
  43 0004 1448     		ldr	r0, .L6
  44              		.loc 1 37 0
  45 0006 154E     		ldr	r6, .L6+4
  46 0008 154C     		ldr	r4, .L6+8
  47 000a 164D     		ldr	r5, .L6+12
  48              		.loc 1 34 0
  49 000c FFF7FEFF 		bl	chMtxInit
  50              	.LVL0:
  51              		.loc 1 37 0
  52 0010 0522     		movs	r2, #5
  53 0012 3260     		str	r2, [r6]
  54              	.LVL1:
  55 0014 04F10608 		add	r8, r4, #6
  56              	.LBB2:
  57              		.loc 1 46 0
ARM GAS  C:\Users\jsyoon\AppData\Local\Temp\ccIAH7yv.s 			page 2


  58 0018 0027     		movs	r7, #0
  59 001a 00E0     		b	.L3
  60              	.LVL2:
  61              	.L5:
  62 001c 3268     		ldr	r2, [r6]
  63              	.LVL3:
  64              	.L3:
  65              		.loc 1 45 0 discriminator 2
  66 001e 2946     		mov	r1, r5
  67 0020 0A20     		movs	r0, #10
  68 0022 FFF7FEFF 		bl	rf_read_reg
  69              	.LVL4:
  70              		.loc 1 46 0 discriminator 2
  71 0026 04F8017F 		strb	r7, [r4, #1]!
  72              	.LVL5:
  73              		.loc 1 44 0 discriminator 2
  74 002a 4445     		cmp	r4, r8
  75 002c 05F10505 		add	r5, r5, #5
  76 0030 F4D1     		bne	.L5
  77              	.LBE2:
  78              		.loc 1 48 0
  79 0032 1020     		movs	r0, #16
  80 0034 0C49     		ldr	r1, .L6+16
  81 0036 3268     		ldr	r2, [r6]
  82 0038 FFF7FEFF 		bl	rf_read_reg
  83              	.LVL6:
  84              		.loc 1 50 0
  85 003c 3268     		ldr	r2, [r6]
  86 003e 0948     		ldr	r0, .L6+12
  87 0040 0949     		ldr	r1, .L6+16
  88 0042 FFF7FEFF 		bl	memcmp
  89              	.LVL7:
  90 0046 094B     		ldr	r3, .L6+20
  91 0048 D0F10100 		rsbs	r0, r0, #1
  92 004c 38BF     		it	cc
  93 004e 0020     		movcc	r0, #0
  94 0050 1870     		strb	r0, [r3]
  95 0052 BDE8F081 		pop	{r4, r5, r6, r7, r8, pc}
  96              	.LVL8:
  97              	.L7:
  98 0056 00BF     		.align	2
  99              	.L6:
 100 0058 00000000 		.word	.LANCHOR0
 101 005c 00000000 		.word	.LANCHOR1
 102 0060 FFFFFFFF 		.word	.LANCHOR3-1
 103 0064 00000000 		.word	.LANCHOR2
 104 0068 00000000 		.word	.LANCHOR4
 105 006c 00000000 		.word	.LANCHOR5
 106              		.cfi_endproc
 107              	.LFE118:
 108              		.size	rfhelp_init, .-rfhelp_init
 109              		.section	.text.rfhelp_restart,"ax",%progbits
 110              		.align	2
 111              		.p2align 4,,15
 112              		.global	rfhelp_restart
 113              		.thumb
 114              		.thumb_func
ARM GAS  C:\Users\jsyoon\AppData\Local\Temp\ccIAH7yv.s 			page 3


 115              		.type	rfhelp_restart, %function
 116              	rfhelp_restart:
 117              	.LFB119:
 118              		.loc 1 56 0
 119              		.cfi_startproc
 120              		@ args = 0, pretend = 0, frame = 0
 121              		@ frame_needed = 0, uses_anonymous_args = 0
 122 0000 F8B5     		push	{r3, r4, r5, r6, r7, lr}
 123              		.cfi_def_cfa_offset 24
 124              		.cfi_offset 3, -24
 125              		.cfi_offset 4, -20
 126              		.cfi_offset 5, -16
 127              		.cfi_offset 6, -12
 128              		.cfi_offset 7, -8
 129              		.cfi_offset 14, -4
 130              		.loc 1 60 0
 131 0002 124F     		ldr	r7, .L16
 132              		.loc 1 57 0
 133 0004 1248     		ldr	r0, .L16+4
 134 0006 134D     		ldr	r5, .L16+8
 135 0008 134E     		ldr	r6, .L16+12
 136 000a FFF7FEFF 		bl	chMtxLock
 137              	.LVL9:
 138              		.loc 1 59 0
 139 000e FFF7FEFF 		bl	rf_init
 140              	.LVL10:
 141              		.loc 1 60 0
 142 0012 3968     		ldr	r1, [r7]
 143 0014 1148     		ldr	r0, .L16+16
 144 0016 FFF7FEFF 		bl	rf_set_tx_addr
 145              	.LVL11:
 146              	.LBB3:
 147              		.loc 1 61 0
 148 001a 0024     		movs	r4, #0
 149 001c 04E0     		b	.L11
 150              	.LVL12:
 151              	.L9:
 152 001e 0134     		adds	r4, r4, #1
 153              	.LVL13:
 154 0020 062C     		cmp	r4, #6
 155 0022 05F10505 		add	r5, r5, #5
 156 0026 0CD0     		beq	.L15
 157              	.LVL14:
 158              	.L11:
 159              		.loc 1 62 0
 160 0028 335D     		ldrb	r3, [r6, r4]	@ zero_extendqisi2
 161 002a 002B     		cmp	r3, #0
 162 002c F7D0     		beq	.L9
 163              		.loc 1 63 0
 164 002e 2046     		mov	r0, r4
 165 0030 2946     		mov	r1, r5
 166 0032 3A68     		ldr	r2, [r7]
 167              		.loc 1 61 0
 168 0034 0134     		adds	r4, r4, #1
 169              	.LVL15:
 170              		.loc 1 63 0
 171 0036 FFF7FEFF 		bl	rf_set_rx_addr
ARM GAS  C:\Users\jsyoon\AppData\Local\Temp\ccIAH7yv.s 			page 4


 172              	.LVL16:
 173              		.loc 1 61 0
 174 003a 062C     		cmp	r4, #6
 175 003c 05F10505 		add	r5, r5, #5
 176 0040 F2D1     		bne	.L11
 177              	.L15:
 178              	.LBE3:
 179              		.loc 1 68 0
 180 0042 BDE8F840 		pop	{r3, r4, r5, r6, r7, lr}
 181              	.LVL17:
 182              		.loc 1 67 0
 183 0046 FFF7FEBF 		b	chMtxUnlock
 184              	.LVL18:
 185              	.L17:
 186 004a 00BF     		.align	2
 187              	.L16:
 188 004c 00000000 		.word	.LANCHOR1
 189 0050 00000000 		.word	.LANCHOR0
 190 0054 00000000 		.word	.LANCHOR2
 191 0058 00000000 		.word	.LANCHOR3
 192 005c 00000000 		.word	.LANCHOR4
 193              		.cfi_endproc
 194              	.LFE119:
 195              		.size	rfhelp_restart, .-rfhelp_restart
 196              		.section	.text.rfhelp_send_data,"ax",%progbits
 197              		.align	2
 198              		.p2align 4,,15
 199              		.global	rfhelp_send_data
 200              		.thumb
 201              		.thumb_func
 202              		.type	rfhelp_send_data, %function
 203              	rfhelp_send_data:
 204              	.LFB120:
 205              		.loc 1 84 0
 206              		.cfi_startproc
 207              		@ args = 0, pretend = 0, frame = 0
 208              		@ frame_needed = 0, uses_anonymous_args = 0
 209              	.LVL19:
 210 0000 70B5     		push	{r4, r5, r6, lr}
 211              		.cfi_def_cfa_offset 16
 212              		.cfi_offset 4, -16
 213              		.cfi_offset 5, -12
 214              		.cfi_offset 6, -8
 215              		.cfi_offset 14, -4
 216              		.loc 1 84 0
 217 0002 0D46     		mov	r5, r1
 218 0004 0446     		mov	r4, r0
 219              		.loc 1 97 0
 220 0006 1D4E     		ldr	r6, .L30
 221              		.loc 1 88 0
 222 0008 1D48     		ldr	r0, .L30+4
 223              	.LVL20:
 224 000a FFF7FEFF 		bl	chMtxLock
 225              	.LVL21:
 226              		.loc 1 90 0
 227 000e FFF7FEFF 		bl	rf_mode_tx
 228              	.LVL22:
ARM GAS  C:\Users\jsyoon\AppData\Local\Temp\ccIAH7yv.s 			page 5


 229              		.loc 1 91 0
 230 0012 FFF7FEFF 		bl	rf_clear_irq
 231              	.LVL23:
 232              		.loc 1 92 0
 233 0016 FFF7FEFF 		bl	rf_flush_all
 234              	.LVL24:
 235              		.loc 1 94 0
 236 001a 2046     		mov	r0, r4
 237 001c 2946     		mov	r1, r5
 238 001e FFF7FEFF 		bl	rf_write_tx_payload
 239              	.LVL25:
 240              		.loc 1 97 0
 241 0022 3078     		ldrb	r0, [r6]	@ zero_extendqisi2
 242 0024 00B3     		cbz	r0, .L26
 243              	.L19:
 244              		.loc 1 84 0
 245 0026 3C25     		movs	r5, #60
 246              	.LVL26:
 247 0028 03E0     		b	.L22
 248              	.LVL27:
 249              	.L29:
 250              	.LBB4:
 251              		.loc 1 110 0
 252 002a E306     		lsls	r3, r4, #27
 253 002c 17D4     		bmi	.L27
 254              		.loc 1 114 0
 255 002e 013D     		subs	r5, r5, #1
 256              	.LVL28:
 257 0030 20D0     		beq	.L28
 258              	.LVL29:
 259              	.L22:
 260              		.loc 1 102 0
 261 0032 FFF7FEFF 		bl	rf_status
 262              	.LVL30:
 263 0036 0446     		mov	r4, r0
 264              	.LVL31:
 265              		.loc 1 104 0
 266 0038 0A20     		movs	r0, #10
 267              	.LVL32:
 268 003a FFF7FEFF 		bl	chThdSleep
 269              	.LVL33:
 270              		.loc 1 107 0
 271 003e A206     		lsls	r2, r4, #26
 272 0040 F3D5     		bpl	.L29
 273              		.loc 1 108 0
 274 0042 0024     		movs	r4, #0
 275              	.LVL34:
 276              	.L20:
 277              	.LBE4:
 278              		.loc 1 121 0
 279 0044 3078     		ldrb	r0, [r6]	@ zero_extendqisi2
 280 0046 20B9     		cbnz	r0, .L23
 281              		.loc 1 122 0
 282 0048 0E4A     		ldr	r2, .L30+8
 283 004a 0F49     		ldr	r1, .L30+12
 284 004c 1268     		ldr	r2, [r2]
 285 004e FFF7FEFF 		bl	rf_set_rx_addr
ARM GAS  C:\Users\jsyoon\AppData\Local\Temp\ccIAH7yv.s 			page 6


 286              	.LVL35:
 287              	.L23:
 288              		.loc 1 125 0
 289 0052 FFF7FEFF 		bl	rf_mode_rx
 290              	.LVL36:
 291              		.loc 1 127 0
 292 0056 FFF7FEFF 		bl	chMtxUnlock
 293              	.LVL37:
 294              		.loc 1 130 0
 295 005a 2046     		mov	r0, r4
 296 005c 70BD     		pop	{r4, r5, r6, pc}
 297              	.LVL38:
 298              	.L27:
 299              	.LBB5:
 300              		.loc 1 111 0
 301 005e FFF7FEFF 		bl	rf_clear_maxrt_irq
 302              	.LVL39:
 303              		.loc 1 112 0
 304 0062 4FF0FF34 		mov	r4, #-1
 305              	.LVL40:
 306              		.loc 1 113 0
 307 0066 EDE7     		b	.L20
 308              	.LVL41:
 309              	.L26:
 310              	.LBE5:
 311              		.loc 1 98 0
 312 0068 064B     		ldr	r3, .L30+8
 313 006a 0849     		ldr	r1, .L30+16
 314 006c 1A68     		ldr	r2, [r3]
 315 006e FFF7FEFF 		bl	rf_set_rx_addr
 316              	.LVL42:
 317 0072 D8E7     		b	.L19
 318              	.LVL43:
 319              	.L28:
 320              	.LBB6:
 321              		.loc 1 115 0
 322 0074 6FF00104 		mvn	r4, #1
 323              	.LVL44:
 324 0078 E4E7     		b	.L20
 325              	.L31:
 326 007a 00BF     		.align	2
 327              	.L30:
 328 007c 00000000 		.word	.LANCHOR5
 329 0080 00000000 		.word	.LANCHOR0
 330 0084 00000000 		.word	.LANCHOR1
 331 0088 00000000 		.word	.LANCHOR2
 332 008c 00000000 		.word	.LANCHOR4
 333              	.LBE6:
 334              		.cfi_endproc
 335              	.LFE120:
 336              		.size	rfhelp_send_data, .-rfhelp_send_data
 337              		.section	.text.rfhelp_read_rx_data,"ax",%progbits
 338              		.align	2
 339              		.p2align 4,,15
 340              		.global	rfhelp_read_rx_data
 341              		.thumb
 342              		.thumb_func
ARM GAS  C:\Users\jsyoon\AppData\Local\Temp\ccIAH7yv.s 			page 7


 343              		.type	rfhelp_read_rx_data, %function
 344              	rfhelp_read_rx_data:
 345              	.LFB121:
 346              		.loc 1 150 0
 347              		.cfi_startproc
 348              		@ args = 0, pretend = 0, frame = 0
 349              		@ frame_needed = 0, uses_anonymous_args = 0
 350              	.LVL45:
 351 0000 F8B5     		push	{r3, r4, r5, r6, r7, lr}
 352              		.cfi_def_cfa_offset 24
 353              		.cfi_offset 3, -24
 354              		.cfi_offset 4, -20
 355              		.cfi_offset 5, -16
 356              		.cfi_offset 6, -12
 357              		.cfi_offset 7, -8
 358              		.cfi_offset 14, -4
 359              		.loc 1 150 0
 360 0002 0746     		mov	r7, r0
 361              		.loc 1 153 0
 362 0004 1548     		ldr	r0, .L40
 363              	.LVL46:
 364              		.loc 1 150 0
 365 0006 0C46     		mov	r4, r1
 366 0008 1646     		mov	r6, r2
 367              		.loc 1 153 0
 368 000a FFF7FEFF 		bl	chMtxLock
 369              	.LVL47:
 370              		.loc 1 155 0
 371 000e FFF7FEFF 		bl	rf_status
 372              	.LVL48:
 373              		.loc 1 156 0
 374 0012 C0F34205 		ubfx	r5, r0, #1, #3
 375              	.LVL49:
 376              		.loc 1 158 0
 377 0016 072D     		cmp	r5, #7
 378 0018 1DD0     		beq	.L36
 379              		.loc 1 159 0
 380 001a FFF7FEFF 		bl	rf_get_payload_width
 381              	.LVL50:
 382 001e 0146     		mov	r1, r0
 383 0020 2060     		str	r0, [r4]
 384              		.loc 1 160 0
 385 0022 0EB1     		cbz	r6, .L34
 386              		.loc 1 161 0
 387 0024 3560     		str	r5, [r6]
 388 0026 2168     		ldr	r1, [r4]
 389              	.L34:
 390              		.loc 1 163 0
 391 0028 2029     		cmp	r1, #32
 392 002a 0FD8     		bhi	.L35
 393              		.loc 1 164 0
 394 002c 3846     		mov	r0, r7
 395 002e FFF7FEFF 		bl	rf_read_rx_payload
 396              	.LVL51:
 397              		.loc 1 165 0
 398 0032 FFF7FEFF 		bl	rf_clear_rx_irq
 399              	.LVL52:
ARM GAS  C:\Users\jsyoon\AppData\Local\Temp\ccIAH7yv.s 			page 8


 400              		.loc 1 167 0
 401 0036 FFF7FEFF 		bl	rf_status
 402              	.LVL53:
 403              		.loc 1 168 0
 404 003a C0F34200 		ubfx	r0, r0, #1, #3
 405              	.LVL54:
 406 003e C41F     		subs	r4, r0, #7
 407              	.LVL55:
 408 0040 18BF     		it	ne
 409 0042 0124     		movne	r4, #1
 410              	.LVL56:
 411              	.L33:
 412              		.loc 1 179 0
 413 0044 FFF7FEFF 		bl	chMtxUnlock
 414              	.LVL57:
 415              		.loc 1 182 0
 416 0048 2046     		mov	r0, r4
 417 004a F8BD     		pop	{r3, r4, r5, r6, r7, pc}
 418              	.LVL58:
 419              	.L35:
 420              		.loc 1 174 0
 421 004c 0023     		movs	r3, #0
 422 004e 2360     		str	r3, [r4]
 423              	.LVL59:
 424              		.loc 1 175 0
 425 0050 6FF00104 		mvn	r4, #1
 426              	.LVL60:
 427 0054 F6E7     		b	.L33
 428              	.LVL61:
 429              	.L36:
 430              		.loc 1 151 0
 431 0056 4FF0FF34 		mov	r4, #-1
 432              	.LVL62:
 433 005a F3E7     		b	.L33
 434              	.L41:
 435              		.align	2
 436              	.L40:
 437 005c 00000000 		.word	.LANCHOR0
 438              		.cfi_endproc
 439              	.LFE121:
 440              		.size	rfhelp_read_rx_data, .-rfhelp_read_rx_data
 441              		.section	.text.rfhelp_rf_status,"ax",%progbits
 442              		.align	2
 443              		.p2align 4,,15
 444              		.global	rfhelp_rf_status
 445              		.thumb
 446              		.thumb_func
 447              		.type	rfhelp_rf_status, %function
 448              	rfhelp_rf_status:
 449              	.LFB122:
 450              		.loc 1 184 0
 451              		.cfi_startproc
 452              		@ args = 0, pretend = 0, frame = 0
 453              		@ frame_needed = 0, uses_anonymous_args = 0
 454 0000 10B5     		push	{r4, lr}
 455              		.cfi_def_cfa_offset 8
 456              		.cfi_offset 4, -8
ARM GAS  C:\Users\jsyoon\AppData\Local\Temp\ccIAH7yv.s 			page 9


 457              		.cfi_offset 14, -4
 458              		.loc 1 185 0
 459 0002 0548     		ldr	r0, .L43
 460 0004 FFF7FEFF 		bl	chMtxLock
 461              	.LVL63:
 462              		.loc 1 186 0
 463 0008 FFF7FEFF 		bl	rf_status
 464              	.LVL64:
 465 000c 0446     		mov	r4, r0
 466              	.LVL65:
 467              		.loc 1 187 0
 468 000e FFF7FEFF 		bl	chMtxUnlock
 469              	.LVL66:
 470              		.loc 1 190 0
 471 0012 2046     		mov	r0, r4
 472 0014 10BD     		pop	{r4, pc}
 473              	.LVL67:
 474              	.L44:
 475 0016 00BF     		.align	2
 476              	.L43:
 477 0018 00000000 		.word	.LANCHOR0
 478              		.cfi_endproc
 479              	.LFE122:
 480              		.size	rfhelp_rf_status, .-rfhelp_rf_status
 481 001c AFF30080 		.section	.text.rfhelp_set_tx_addr,"ax",%progbits
 482              		.align	2
 483              		.p2align 4,,15
 484              		.global	rfhelp_set_tx_addr
 485              		.thumb
 486              		.thumb_func
 487              		.type	rfhelp_set_tx_addr, %function
 488              	rfhelp_set_tx_addr:
 489              	.LFB123:
 490              		.loc 1 192 0
 491              		.cfi_startproc
 492              		@ args = 0, pretend = 0, frame = 0
 493              		@ frame_needed = 0, uses_anonymous_args = 0
 494              	.LVL68:
 495 0000 70B5     		push	{r4, r5, r6, lr}
 496              		.cfi_def_cfa_offset 16
 497              		.cfi_offset 4, -16
 498              		.cfi_offset 5, -12
 499              		.cfi_offset 6, -8
 500              		.cfi_offset 14, -4
 501              		.loc 1 194 0
 502 0002 104D     		ldr	r5, .L46
 503              		.loc 1 192 0
 504 0004 0C46     		mov	r4, r1
 505 0006 0646     		mov	r6, r0
 506              		.loc 1 193 0
 507 0008 0F48     		ldr	r0, .L46+4
 508              	.LVL69:
 509 000a FFF7FEFF 		bl	chMtxLock
 510              	.LVL70:
 511              		.loc 1 194 0
 512 000e 3146     		mov	r1, r6
 513 0010 2246     		mov	r2, r4
ARM GAS  C:\Users\jsyoon\AppData\Local\Temp\ccIAH7yv.s 			page 10


 514 0012 2846     		mov	r0, r5
 515 0014 FFF7FEFF 		bl	memcpy
 516              	.LVL71:
 517              		.loc 1 195 0
 518 0018 0C4B     		ldr	r3, .L46+8
 519              		.loc 1 197 0
 520 001a 0D48     		ldr	r0, .L46+12
 521              		.loc 1 195 0
 522 001c 1C60     		str	r4, [r3]
 523              		.loc 1 197 0
 524 001e 2946     		mov	r1, r5
 525 0020 2246     		mov	r2, r4
 526 0022 FFF7FEFF 		bl	memcmp
 527              	.LVL72:
 528 0026 0B4B     		ldr	r3, .L46+16
 529 0028 D0F10102 		rsbs	r2, r0, #1
 530 002c 38BF     		it	cc
 531 002e 0022     		movcc	r2, #0
 532              		.loc 1 199 0
 533 0030 2146     		mov	r1, r4
 534 0032 2846     		mov	r0, r5
 535              		.loc 1 197 0
 536 0034 1A70     		strb	r2, [r3]
 537              		.loc 1 199 0
 538 0036 FFF7FEFF 		bl	rf_set_tx_addr
 539              	.LVL73:
 540              		.loc 1 201 0
 541 003a BDE87040 		pop	{r4, r5, r6, lr}
 542              	.LVL74:
 543              		.loc 1 200 0
 544 003e FFF7FEBF 		b	chMtxUnlock
 545              	.LVL75:
 546              	.L47:
 547 0042 00BF     		.align	2
 548              	.L46:
 549 0044 00000000 		.word	.LANCHOR4
 550 0048 00000000 		.word	.LANCHOR0
 551 004c 00000000 		.word	.LANCHOR1
 552 0050 00000000 		.word	.LANCHOR2
 553 0054 00000000 		.word	.LANCHOR5
 554              		.cfi_endproc
 555              	.LFE123:
 556              		.size	rfhelp_set_tx_addr, .-rfhelp_set_tx_addr
 557 0058 AFF30080 		.section	.text.rfhelp_set_rx_addr,"ax",%progbits
 557      AFF30080 
 558              		.align	2
 559              		.p2align 4,,15
 560              		.global	rfhelp_set_rx_addr
 561              		.thumb
 562              		.thumb_func
 563              		.type	rfhelp_set_rx_addr, %function
 564              	rfhelp_set_rx_addr:
 565              	.LFB124:
 566              		.loc 1 203 0
 567              		.cfi_startproc
 568              		@ args = 0, pretend = 0, frame = 0
 569              		@ frame_needed = 0, uses_anonymous_args = 0
ARM GAS  C:\Users\jsyoon\AppData\Local\Temp\ccIAH7yv.s 			page 11


 570              	.LVL76:
 571 0000 F8B5     		push	{r3, r4, r5, r6, r7, lr}
 572              		.cfi_def_cfa_offset 24
 573              		.cfi_offset 3, -24
 574              		.cfi_offset 4, -20
 575              		.cfi_offset 5, -16
 576              		.cfi_offset 6, -12
 577              		.cfi_offset 7, -8
 578              		.cfi_offset 14, -4
 579              		.loc 1 203 0
 580 0002 0546     		mov	r5, r0
 581              		.loc 1 205 0
 582 0004 134F     		ldr	r7, .L49
 583              		.loc 1 204 0
 584 0006 1448     		ldr	r0, .L49+4
 585              	.LVL77:
 586              		.loc 1 203 0
 587 0008 1446     		mov	r4, r2
 588 000a 0E46     		mov	r6, r1
 589              		.loc 1 204 0
 590 000c FFF7FEFF 		bl	chMtxLock
 591              	.LVL78:
 592              		.loc 1 205 0
 593 0010 05EB8500 		add	r0, r5, r5, lsl #2
 594 0014 3146     		mov	r1, r6
 595 0016 2246     		mov	r2, r4
 596 0018 3844     		add	r0, r0, r7
 597 001a FFF7FEFF 		bl	memcpy
 598              	.LVL79:
 599              		.loc 1 206 0
 600 001e 0F4B     		ldr	r3, .L49+8
 601              		.loc 1 208 0
 602 0020 0F49     		ldr	r1, .L49+12
 603              		.loc 1 206 0
 604 0022 1C60     		str	r4, [r3]
 605              		.loc 1 208 0
 606 0024 2246     		mov	r2, r4
 607 0026 3846     		mov	r0, r7
 608 0028 FFF7FEFF 		bl	memcmp
 609              	.LVL80:
 610 002c 0D4F     		ldr	r7, .L49+16
 611              		.loc 1 209 0
 612 002e 0E4B     		ldr	r3, .L49+20
 613              		.loc 1 208 0
 614 0030 D0F1010E 		rsbs	lr, r0, #1
 615 0034 38BF     		it	cc
 616 0036 4FF0000E 		movcc	lr, #0
 617              		.loc 1 211 0
 618 003a 3146     		mov	r1, r6
 619 003c 2246     		mov	r2, r4
 620 003e 2846     		mov	r0, r5
 621              		.loc 1 209 0
 622 0040 0124     		movs	r4, #1
 623              	.LVL81:
 624              		.loc 1 208 0
 625 0042 87F800E0 		strb	lr, [r7]
 626              		.loc 1 209 0
ARM GAS  C:\Users\jsyoon\AppData\Local\Temp\ccIAH7yv.s 			page 12


 627 0046 5C55     		strb	r4, [r3, r5]
 628              		.loc 1 211 0
 629 0048 FFF7FEFF 		bl	rf_set_rx_addr
 630              	.LVL82:
 631              		.loc 1 213 0
 632 004c BDE8F840 		pop	{r3, r4, r5, r6, r7, lr}
 633              	.LVL83:
 634              		.loc 1 212 0
 635 0050 FFF7FEBF 		b	chMtxUnlock
 636              	.LVL84:
 637              	.L50:
 638              		.align	2
 639              	.L49:
 640 0054 00000000 		.word	.LANCHOR2
 641 0058 00000000 		.word	.LANCHOR0
 642 005c 00000000 		.word	.LANCHOR1
 643 0060 00000000 		.word	.LANCHOR4
 644 0064 00000000 		.word	.LANCHOR5
 645 0068 00000000 		.word	.LANCHOR3
 646              		.cfi_endproc
 647              	.LFE124:
 648              		.size	rfhelp_set_rx_addr, .-rfhelp_set_rx_addr
 649 006c AFF30080 		.section	.bss.tx_addr,"aw",%nobits
 650              		.align	2
 651              		.set	.LANCHOR4,. + 0
 652              		.type	tx_addr, %object
 653              		.size	tx_addr, 5
 654              	tx_addr:
 655 0000 00000000 		.space	5
 655      00
 656 0005 000000   		.section	.bss.rx_addr_set,"aw",%nobits
 657              		.align	2
 658              		.set	.LANCHOR3,. + 0
 659              		.type	rx_addr_set, %object
 660              		.size	rx_addr_set, 6
 661              	rx_addr_set:
 662 0000 00000000 		.space	6
 662      0000
 663 0006 0000     		.section	.bss.rf_mutex,"aw",%nobits
 664              		.align	2
 665              		.set	.LANCHOR0,. + 0
 666              		.type	rf_mutex, %object
 667              		.size	rf_mutex, 16
 668              	rf_mutex:
 669 0000 00000000 		.space	16
 669      00000000 
 669      00000000 
 669      00000000 
 670              		.section	.bss.rx_addr,"aw",%nobits
 671              		.align	2
 672              		.set	.LANCHOR2,. + 0
 673              		.type	rx_addr, %object
 674              		.size	rx_addr, 30
 675              	rx_addr:
 676 0000 00000000 		.space	30
 676      00000000 
 676      00000000 
ARM GAS  C:\Users\jsyoon\AppData\Local\Temp\ccIAH7yv.s 			page 13


 676      00000000 
 676      00000000 
 677 001e 0000     		.section	.bss.address_length,"aw",%nobits
 678              		.align	2
 679              		.set	.LANCHOR1,. + 0
 680              		.type	address_length, %object
 681              		.size	address_length, 4
 682              	address_length:
 683 0000 00000000 		.space	4
 684              		.section	.bss.tx_pipe0_addr_eq,"aw",%nobits
 685              		.set	.LANCHOR5,. + 0
 686              		.type	tx_pipe0_addr_eq, %object
 687              		.size	tx_pipe0_addr_eq, 1
 688              	tx_pipe0_addr_eq:
 689 0000 00       		.space	1
 690              		.text
 691              	.Letext0:
 692              		.file 2 "c:\\crosstools\\gcc-arm-embedded\\4.8_2014q2\\arm-none-eabi\\include\\machine\\_default_t
 693              		.file 3 "c:\\crosstools\\gcc-arm-embedded\\4.8_2014q2\\arm-none-eabi\\include\\stdint.h"
 694              		.file 4 "c:\\crosstools\\gcc-arm-embedded\\4.8_2014q2\\lib\\gcc\\arm-none-eabi\\4.8.4\\include\\st
 695              		.file 5 "ChibiOS_2.6.6/os/ports/GCC/ARMCMx/chtypes.h"
 696              		.file 6 "ChibiOS_2.6.6/os/kernel/include/chlists.h"
 697              		.file 7 "ChibiOS_2.6.6/os/kernel/include/chthreads.h"
 698              		.file 8 "ChibiOS_2.6.6/os/ports/GCC/ARMCMx/chcore_v7m.h"
 699              		.file 9 "ChibiOS_2.6.6/os/kernel/include/chmtx.h"
 700              		.file 10 "nrf/rf.h"
 701              		.file 11 "ChibiOS_2.6.6/os/ports/common/ARMCMx/CMSIS/include/core_cm4.h"
 702              		.file 12 "c:\\crosstools\\gcc-arm-embedded\\4.8_2014q2\\arm-none-eabi\\include\\string.h"
 703              		.section	.debug_info,"",%progbits
 704              	.Ldebug_info0:
 705 0000 470B0000 		.4byte	0xb47
 706 0004 0400     		.2byte	0x4
 707 0006 00000000 		.4byte	.Ldebug_abbrev0
 708 000a 04       		.byte	0x4
 709 000b 01       		.uleb128 0x1
 710 000c 34010000 		.4byte	.LASF98
 711 0010 01       		.byte	0x1
 712 0011 27050000 		.4byte	.LASF99
 713 0015 F2000000 		.4byte	.LASF100
 714 0019 20000000 		.4byte	.Ldebug_ranges0+0x20
 715 001d 00000000 		.4byte	0
 716 0021 00000000 		.4byte	.Ldebug_line0
 717 0025 02       		.uleb128 0x2
 718 0026 01       		.byte	0x1
 719 0027 06       		.byte	0x6
 720 0028 B5000000 		.4byte	.LASF0
 721 002c 03       		.uleb128 0x3
 722 002d 36000000 		.4byte	.LASF4
 723 0031 02       		.byte	0x2
 724 0032 1C       		.byte	0x1c
 725 0033 37000000 		.4byte	0x37
 726 0037 02       		.uleb128 0x2
 727 0038 01       		.byte	0x1
 728 0039 08       		.byte	0x8
 729 003a A8030000 		.4byte	.LASF1
 730 003e 02       		.uleb128 0x2
 731 003f 02       		.byte	0x2
ARM GAS  C:\Users\jsyoon\AppData\Local\Temp\ccIAH7yv.s 			page 14


 732 0040 05       		.byte	0x5
 733 0041 E1030000 		.4byte	.LASF2
 734 0045 02       		.uleb128 0x2
 735 0046 02       		.byte	0x2
 736 0047 07       		.byte	0x7
 737 0048 E8020000 		.4byte	.LASF3
 738 004c 03       		.uleb128 0x3
 739 004d D0040000 		.4byte	.LASF5
 740 0051 02       		.byte	0x2
 741 0052 37       		.byte	0x37
 742 0053 57000000 		.4byte	0x57
 743 0057 02       		.uleb128 0x2
 744 0058 04       		.byte	0x4
 745 0059 05       		.byte	0x5
 746 005a 22010000 		.4byte	.LASF6
 747 005e 03       		.uleb128 0x3
 748 005f 8F020000 		.4byte	.LASF7
 749 0063 02       		.byte	0x2
 750 0064 38       		.byte	0x38
 751 0065 69000000 		.4byte	0x69
 752 0069 02       		.uleb128 0x2
 753 006a 04       		.byte	0x4
 754 006b 07       		.byte	0x7
 755 006c 98040000 		.4byte	.LASF8
 756 0070 02       		.uleb128 0x2
 757 0071 08       		.byte	0x8
 758 0072 05       		.byte	0x5
 759 0073 A3020000 		.4byte	.LASF9
 760 0077 02       		.uleb128 0x2
 761 0078 08       		.byte	0x8
 762 0079 07       		.byte	0x7
 763 007a C9000000 		.4byte	.LASF10
 764 007e 04       		.uleb128 0x4
 765 007f 04       		.byte	0x4
 766 0080 05       		.byte	0x5
 767 0081 696E7400 		.ascii	"int\000"
 768 0085 02       		.uleb128 0x2
 769 0086 04       		.byte	0x4
 770 0087 07       		.byte	0x7
 771 0088 B1020000 		.4byte	.LASF11
 772 008c 03       		.uleb128 0x3
 773 008d 34050000 		.4byte	.LASF12
 774 0091 03       		.byte	0x3
 775 0092 2A       		.byte	0x2a
 776 0093 2C000000 		.4byte	0x2c
 777 0097 03       		.uleb128 0x3
 778 0098 A0030000 		.4byte	.LASF13
 779 009c 03       		.byte	0x3
 780 009d 41       		.byte	0x41
 781 009e 4C000000 		.4byte	0x4c
 782 00a2 03       		.uleb128 0x3
 783 00a3 5C040000 		.4byte	.LASF14
 784 00a7 03       		.byte	0x3
 785 00a8 42       		.byte	0x42
 786 00a9 5E000000 		.4byte	0x5e
 787 00ad 03       		.uleb128 0x3
 788 00ae 08000000 		.4byte	.LASF15
ARM GAS  C:\Users\jsyoon\AppData\Local\Temp\ccIAH7yv.s 			page 15


 789 00b2 04       		.byte	0x4
 790 00b3 D4       		.byte	0xd4
 791 00b4 85000000 		.4byte	0x85
 792 00b8 02       		.uleb128 0x2
 793 00b9 01       		.byte	0x1
 794 00ba 02       		.byte	0x2
 795 00bb 9A030000 		.4byte	.LASF16
 796 00bf 03       		.uleb128 0x3
 797 00c0 15030000 		.4byte	.LASF17
 798 00c4 05       		.byte	0x5
 799 00c5 2C       		.byte	0x2c
 800 00c6 8C000000 		.4byte	0x8c
 801 00ca 03       		.uleb128 0x3
 802 00cb 2B010000 		.4byte	.LASF18
 803 00cf 05       		.byte	0x5
 804 00d0 2D       		.byte	0x2d
 805 00d1 8C000000 		.4byte	0x8c
 806 00d5 03       		.uleb128 0x3
 807 00d6 7E030000 		.4byte	.LASF19
 808 00da 05       		.byte	0x5
 809 00db 2E       		.byte	0x2e
 810 00dc 8C000000 		.4byte	0x8c
 811 00e0 03       		.uleb128 0x3
 812 00e1 E8000000 		.4byte	.LASF20
 813 00e5 05       		.byte	0x5
 814 00e6 2F       		.byte	0x2f
 815 00e7 8C000000 		.4byte	0x8c
 816 00eb 03       		.uleb128 0x3
 817 00ec 8D030000 		.4byte	.LASF21
 818 00f0 05       		.byte	0x5
 819 00f1 30       		.byte	0x30
 820 00f2 A2000000 		.4byte	0xa2
 821 00f6 03       		.uleb128 0x3
 822 00f7 FB020000 		.4byte	.LASF22
 823 00fb 05       		.byte	0x5
 824 00fc 31       		.byte	0x31
 825 00fd 97000000 		.4byte	0x97
 826 0101 03       		.uleb128 0x3
 827 0102 29030000 		.4byte	.LASF23
 828 0106 05       		.byte	0x5
 829 0107 33       		.byte	0x33
 830 0108 A2000000 		.4byte	0xa2
 831 010c 03       		.uleb128 0x3
 832 010d BB040000 		.4byte	.LASF24
 833 0111 05       		.byte	0x5
 834 0112 35       		.byte	0x35
 835 0113 A2000000 		.4byte	0xa2
 836 0117 03       		.uleb128 0x3
 837 0118 37040000 		.4byte	.LASF25
 838 011c 06       		.byte	0x6
 839 011d 2A       		.byte	0x2a
 840 011e 22010000 		.4byte	0x122
 841 0122 05       		.uleb128 0x5
 842 0123 37040000 		.4byte	.LASF25
 843 0127 48       		.byte	0x48
 844 0128 07       		.byte	0x7
 845 0129 5E       		.byte	0x5e
ARM GAS  C:\Users\jsyoon\AppData\Local\Temp\ccIAH7yv.s 			page 16


 846 012a 1F020000 		.4byte	0x21f
 847 012e 06       		.uleb128 0x6
 848 012f 28040000 		.4byte	.LASF26
 849 0133 07       		.byte	0x7
 850 0134 5F       		.byte	0x5f
 851 0135 40020000 		.4byte	0x240
 852 0139 00       		.byte	0
 853 013a 06       		.uleb128 0x6
 854 013b 86030000 		.4byte	.LASF27
 855 013f 07       		.byte	0x7
 856 0140 61       		.byte	0x61
 857 0141 40020000 		.4byte	0x240
 858 0145 04       		.byte	0x4
 859 0146 06       		.uleb128 0x6
 860 0147 A2000000 		.4byte	.LASF28
 861 014b 07       		.byte	0x7
 862 014c 63       		.byte	0x63
 863 014d EB000000 		.4byte	0xeb
 864 0151 08       		.byte	0x8
 865 0152 06       		.uleb128 0x6
 866 0153 7A050000 		.4byte	.LASF29
 867 0157 07       		.byte	0x7
 868 0158 64       		.byte	0x64
 869 0159 CA030000 		.4byte	0x3ca
 870 015d 0C       		.byte	0xc
 871 015e 06       		.uleb128 0x6
 872 015f 6B020000 		.4byte	.LASF30
 873 0163 07       		.byte	0x7
 874 0164 66       		.byte	0x66
 875 0165 40020000 		.4byte	0x240
 876 0169 10       		.byte	0x10
 877 016a 06       		.uleb128 0x6
 878 016b 76030000 		.4byte	.LASF31
 879 016f 07       		.byte	0x7
 880 0170 67       		.byte	0x67
 881 0171 40020000 		.4byte	0x240
 882 0175 14       		.byte	0x14
 883 0176 06       		.uleb128 0x6
 884 0177 65050000 		.4byte	.LASF32
 885 017b 07       		.byte	0x7
 886 017c 6E       		.byte	0x6e
 887 017d 6E040000 		.4byte	0x46e
 888 0181 18       		.byte	0x18
 889 0182 06       		.uleb128 0x6
 890 0183 EB030000 		.4byte	.LASF33
 891 0187 07       		.byte	0x7
 892 0188 79       		.byte	0x79
 893 0189 CA000000 		.4byte	0xca
 894 018d 1C       		.byte	0x1c
 895 018e 06       		.uleb128 0x6
 896 018f 2F040000 		.4byte	.LASF34
 897 0193 07       		.byte	0x7
 898 0194 7D       		.byte	0x7d
 899 0195 BF000000 		.4byte	0xbf
 900 0199 1D       		.byte	0x1d
 901 019a 06       		.uleb128 0x6
 902 019b 20050000 		.4byte	.LASF35
ARM GAS  C:\Users\jsyoon\AppData\Local\Temp\ccIAH7yv.s 			page 17


 903 019f 07       		.byte	0x7
 904 01a0 82       		.byte	0x82
 905 01a1 D5000000 		.4byte	0xd5
 906 01a5 1E       		.byte	0x1e
 907 01a6 06       		.uleb128 0x6
 908 01a7 F3030000 		.4byte	.LASF36
 909 01ab 07       		.byte	0x7
 910 01ac 88       		.byte	0x88
 911 01ad E0000000 		.4byte	0xe0
 912 01b1 1F       		.byte	0x1f
 913 01b2 06       		.uleb128 0x6
 914 01b3 F2040000 		.4byte	.LASF37
 915 01b7 07       		.byte	0x7
 916 01b8 8F       		.byte	0x8f
 917 01b9 F2030000 		.4byte	0x3f2
 918 01bd 20       		.byte	0x20
 919 01be 07       		.uleb128 0x7
 920 01bf 705F7500 		.ascii	"p_u\000"
 921 01c3 07       		.byte	0x7
 922 01c4 B4       		.byte	0xb4
 923 01c5 39040000 		.4byte	0x439
 924 01c9 24       		.byte	0x24
 925 01ca 06       		.uleb128 0x6
 926 01cb 80050000 		.4byte	.LASF38
 927 01cf 07       		.byte	0x7
 928 01d0 B9       		.byte	0xb9
 929 01d1 66020000 		.4byte	0x266
 930 01d5 28       		.byte	0x28
 931 01d6 06       		.uleb128 0x6
 932 01d7 00050000 		.4byte	.LASF39
 933 01db 07       		.byte	0x7
 934 01dc BF       		.byte	0xbf
 935 01dd 46020000 		.4byte	0x246
 936 01e1 2C       		.byte	0x2c
 937 01e2 06       		.uleb128 0x6
 938 01e3 6C050000 		.4byte	.LASF40
 939 01e7 07       		.byte	0x7
 940 01e8 C3       		.byte	0xc3
 941 01e9 F6000000 		.4byte	0xf6
 942 01ed 34       		.byte	0x34
 943 01ee 06       		.uleb128 0x6
 944 01ef 51040000 		.4byte	.LASF41
 945 01f3 07       		.byte	0x7
 946 01f4 C9       		.byte	0xc9
 947 01f5 01010000 		.4byte	0x101
 948 01f9 38       		.byte	0x38
 949 01fa 06       		.uleb128 0x6
 950 01fb D7030000 		.4byte	.LASF42
 951 01ff 07       		.byte	0x7
 952 0200 D0       		.byte	0xd0
 953 0201 80040000 		.4byte	0x480
 954 0205 3C       		.byte	0x3c
 955 0206 06       		.uleb128 0x6
 956 0207 C5040000 		.4byte	.LASF43
 957 020b 07       		.byte	0x7
 958 020c D4       		.byte	0xd4
 959 020d EB000000 		.4byte	0xeb
ARM GAS  C:\Users\jsyoon\AppData\Local\Temp\ccIAH7yv.s 			page 18


 960 0211 40       		.byte	0x40
 961 0212 06       		.uleb128 0x6
 962 0213 C1000000 		.4byte	.LASF44
 963 0217 07       		.byte	0x7
 964 0218 DA       		.byte	0xda
 965 0219 7C020000 		.4byte	0x27c
 966 021d 44       		.byte	0x44
 967 021e 00       		.byte	0
 968 021f 08       		.uleb128 0x8
 969 0220 08       		.byte	0x8
 970 0221 06       		.byte	0x6
 971 0222 61       		.byte	0x61
 972 0223 40020000 		.4byte	0x240
 973 0227 06       		.uleb128 0x6
 974 0228 28040000 		.4byte	.LASF26
 975 022c 06       		.byte	0x6
 976 022d 62       		.byte	0x62
 977 022e 40020000 		.4byte	0x240
 978 0232 00       		.byte	0
 979 0233 06       		.uleb128 0x6
 980 0234 86030000 		.4byte	.LASF27
 981 0238 06       		.byte	0x6
 982 0239 64       		.byte	0x64
 983 023a 40020000 		.4byte	0x240
 984 023e 04       		.byte	0x4
 985 023f 00       		.byte	0
 986 0240 09       		.uleb128 0x9
 987 0241 04       		.byte	0x4
 988 0242 17010000 		.4byte	0x117
 989 0246 03       		.uleb128 0x3
 990 0247 66000000 		.4byte	.LASF45
 991 024b 06       		.byte	0x6
 992 024c 66       		.byte	0x66
 993 024d 1F020000 		.4byte	0x21f
 994 0251 08       		.uleb128 0x8
 995 0252 04       		.byte	0x4
 996 0253 06       		.byte	0x6
 997 0254 6B       		.byte	0x6b
 998 0255 66020000 		.4byte	0x266
 999 0259 06       		.uleb128 0x6
 1000 025a 28040000 		.4byte	.LASF26
 1001 025e 06       		.byte	0x6
 1002 025f 6D       		.byte	0x6d
 1003 0260 40020000 		.4byte	0x240
 1004 0264 00       		.byte	0
 1005 0265 00       		.byte	0
 1006 0266 03       		.uleb128 0x3
 1007 0267 1D030000 		.4byte	.LASF46
 1008 026b 06       		.byte	0x6
 1009 026c 70       		.byte	0x70
 1010 026d 51020000 		.4byte	0x251
 1011 0271 03       		.uleb128 0x3
 1012 0272 9A020000 		.4byte	.LASF47
 1013 0276 08       		.byte	0x8
 1014 0277 E5       		.byte	0xe5
 1015 0278 7C020000 		.4byte	0x27c
 1016 027c 0A       		.uleb128 0xa
ARM GAS  C:\Users\jsyoon\AppData\Local\Temp\ccIAH7yv.s 			page 19


 1017 027d 04       		.byte	0x4
 1018 027e 0B       		.uleb128 0xb
 1019 027f F9040000 		.4byte	.LASF48
 1020 0283 64       		.byte	0x64
 1021 0284 08       		.byte	0x8
 1022 0285 0C01     		.2byte	0x10c
 1023 0287 CA030000 		.4byte	0x3ca
 1024 028b 0C       		.uleb128 0xc
 1025 028c 73313600 		.ascii	"s16\000"
 1026 0290 08       		.byte	0x8
 1027 0291 0E01     		.2byte	0x10e
 1028 0293 71020000 		.4byte	0x271
 1029 0297 00       		.byte	0
 1030 0298 0C       		.uleb128 0xc
 1031 0299 73313700 		.ascii	"s17\000"
 1032 029d 08       		.byte	0x8
 1033 029e 0F01     		.2byte	0x10f
 1034 02a0 71020000 		.4byte	0x271
 1035 02a4 04       		.byte	0x4
 1036 02a5 0C       		.uleb128 0xc
 1037 02a6 73313800 		.ascii	"s18\000"
 1038 02aa 08       		.byte	0x8
 1039 02ab 1001     		.2byte	0x110
 1040 02ad 71020000 		.4byte	0x271
 1041 02b1 08       		.byte	0x8
 1042 02b2 0C       		.uleb128 0xc
 1043 02b3 73313900 		.ascii	"s19\000"
 1044 02b7 08       		.byte	0x8
 1045 02b8 1101     		.2byte	0x111
 1046 02ba 71020000 		.4byte	0x271
 1047 02be 0C       		.byte	0xc
 1048 02bf 0C       		.uleb128 0xc
 1049 02c0 73323000 		.ascii	"s20\000"
 1050 02c4 08       		.byte	0x8
 1051 02c5 1201     		.2byte	0x112
 1052 02c7 71020000 		.4byte	0x271
 1053 02cb 10       		.byte	0x10
 1054 02cc 0C       		.uleb128 0xc
 1055 02cd 73323100 		.ascii	"s21\000"
 1056 02d1 08       		.byte	0x8
 1057 02d2 1301     		.2byte	0x113
 1058 02d4 71020000 		.4byte	0x271
 1059 02d8 14       		.byte	0x14
 1060 02d9 0C       		.uleb128 0xc
 1061 02da 73323200 		.ascii	"s22\000"
 1062 02de 08       		.byte	0x8
 1063 02df 1401     		.2byte	0x114
 1064 02e1 71020000 		.4byte	0x271
 1065 02e5 18       		.byte	0x18
 1066 02e6 0C       		.uleb128 0xc
 1067 02e7 73323300 		.ascii	"s23\000"
 1068 02eb 08       		.byte	0x8
 1069 02ec 1501     		.2byte	0x115
 1070 02ee 71020000 		.4byte	0x271
 1071 02f2 1C       		.byte	0x1c
 1072 02f3 0C       		.uleb128 0xc
 1073 02f4 73323400 		.ascii	"s24\000"
ARM GAS  C:\Users\jsyoon\AppData\Local\Temp\ccIAH7yv.s 			page 20


 1074 02f8 08       		.byte	0x8
 1075 02f9 1601     		.2byte	0x116
 1076 02fb 71020000 		.4byte	0x271
 1077 02ff 20       		.byte	0x20
 1078 0300 0C       		.uleb128 0xc
 1079 0301 73323500 		.ascii	"s25\000"
 1080 0305 08       		.byte	0x8
 1081 0306 1701     		.2byte	0x117
 1082 0308 71020000 		.4byte	0x271
 1083 030c 24       		.byte	0x24
 1084 030d 0C       		.uleb128 0xc
 1085 030e 73323600 		.ascii	"s26\000"
 1086 0312 08       		.byte	0x8
 1087 0313 1801     		.2byte	0x118
 1088 0315 71020000 		.4byte	0x271
 1089 0319 28       		.byte	0x28
 1090 031a 0C       		.uleb128 0xc
 1091 031b 73323700 		.ascii	"s27\000"
 1092 031f 08       		.byte	0x8
 1093 0320 1901     		.2byte	0x119
 1094 0322 71020000 		.4byte	0x271
 1095 0326 2C       		.byte	0x2c
 1096 0327 0C       		.uleb128 0xc
 1097 0328 73323800 		.ascii	"s28\000"
 1098 032c 08       		.byte	0x8
 1099 032d 1A01     		.2byte	0x11a
 1100 032f 71020000 		.4byte	0x271
 1101 0333 30       		.byte	0x30
 1102 0334 0C       		.uleb128 0xc
 1103 0335 73323900 		.ascii	"s29\000"
 1104 0339 08       		.byte	0x8
 1105 033a 1B01     		.2byte	0x11b
 1106 033c 71020000 		.4byte	0x271
 1107 0340 34       		.byte	0x34
 1108 0341 0C       		.uleb128 0xc
 1109 0342 73333000 		.ascii	"s30\000"
 1110 0346 08       		.byte	0x8
 1111 0347 1C01     		.2byte	0x11c
 1112 0349 71020000 		.4byte	0x271
 1113 034d 38       		.byte	0x38
 1114 034e 0C       		.uleb128 0xc
 1115 034f 73333100 		.ascii	"s31\000"
 1116 0353 08       		.byte	0x8
 1117 0354 1D01     		.2byte	0x11d
 1118 0356 71020000 		.4byte	0x271
 1119 035a 3C       		.byte	0x3c
 1120 035b 0C       		.uleb128 0xc
 1121 035c 723400   		.ascii	"r4\000"
 1122 035f 08       		.byte	0x8
 1123 0360 1F01     		.2byte	0x11f
 1124 0362 71020000 		.4byte	0x271
 1125 0366 40       		.byte	0x40
 1126 0367 0C       		.uleb128 0xc
 1127 0368 723500   		.ascii	"r5\000"
 1128 036b 08       		.byte	0x8
 1129 036c 2001     		.2byte	0x120
 1130 036e 71020000 		.4byte	0x271
ARM GAS  C:\Users\jsyoon\AppData\Local\Temp\ccIAH7yv.s 			page 21


 1131 0372 44       		.byte	0x44
 1132 0373 0C       		.uleb128 0xc
 1133 0374 723600   		.ascii	"r6\000"
 1134 0377 08       		.byte	0x8
 1135 0378 2101     		.2byte	0x121
 1136 037a 71020000 		.4byte	0x271
 1137 037e 48       		.byte	0x48
 1138 037f 0C       		.uleb128 0xc
 1139 0380 723700   		.ascii	"r7\000"
 1140 0383 08       		.byte	0x8
 1141 0384 2201     		.2byte	0x122
 1142 0386 71020000 		.4byte	0x271
 1143 038a 4C       		.byte	0x4c
 1144 038b 0C       		.uleb128 0xc
 1145 038c 723800   		.ascii	"r8\000"
 1146 038f 08       		.byte	0x8
 1147 0390 2301     		.2byte	0x123
 1148 0392 71020000 		.4byte	0x271
 1149 0396 50       		.byte	0x50
 1150 0397 0C       		.uleb128 0xc
 1151 0398 723900   		.ascii	"r9\000"
 1152 039b 08       		.byte	0x8
 1153 039c 2401     		.2byte	0x124
 1154 039e 71020000 		.4byte	0x271
 1155 03a2 54       		.byte	0x54
 1156 03a3 0C       		.uleb128 0xc
 1157 03a4 72313000 		.ascii	"r10\000"
 1158 03a8 08       		.byte	0x8
 1159 03a9 2501     		.2byte	0x125
 1160 03ab 71020000 		.4byte	0x271
 1161 03af 58       		.byte	0x58
 1162 03b0 0C       		.uleb128 0xc
 1163 03b1 72313100 		.ascii	"r11\000"
 1164 03b5 08       		.byte	0x8
 1165 03b6 2601     		.2byte	0x126
 1166 03b8 71020000 		.4byte	0x271
 1167 03bc 5C       		.byte	0x5c
 1168 03bd 0C       		.uleb128 0xc
 1169 03be 6C7200   		.ascii	"lr\000"
 1170 03c1 08       		.byte	0x8
 1171 03c2 2701     		.2byte	0x127
 1172 03c4 71020000 		.4byte	0x271
 1173 03c8 60       		.byte	0x60
 1174 03c9 00       		.byte	0
 1175 03ca 0B       		.uleb128 0xb
 1176 03cb E0020000 		.4byte	.LASF49
 1177 03cf 04       		.byte	0x4
 1178 03d0 08       		.byte	0x8
 1179 03d1 3101     		.2byte	0x131
 1180 03d3 E5030000 		.4byte	0x3e5
 1181 03d7 0C       		.uleb128 0xc
 1182 03d8 72313300 		.ascii	"r13\000"
 1183 03dc 08       		.byte	0x8
 1184 03dd 3201     		.2byte	0x132
 1185 03df E5030000 		.4byte	0x3e5
 1186 03e3 00       		.byte	0
 1187 03e4 00       		.byte	0
ARM GAS  C:\Users\jsyoon\AppData\Local\Temp\ccIAH7yv.s 			page 22


 1188 03e5 09       		.uleb128 0x9
 1189 03e6 04       		.byte	0x4
 1190 03e7 7E020000 		.4byte	0x27e
 1191 03eb 02       		.uleb128 0x2
 1192 03ec 04       		.byte	0x4
 1193 03ed 07       		.byte	0x7
 1194 03ee 53030000 		.4byte	.LASF50
 1195 03f2 0D       		.uleb128 0xd
 1196 03f3 0C010000 		.4byte	0x10c
 1197 03f7 05       		.uleb128 0x5
 1198 03f8 DA020000 		.4byte	.LASF51
 1199 03fc 10       		.byte	0x10
 1200 03fd 09       		.byte	0x9
 1201 03fe 2C       		.byte	0x2c
 1202 03ff 28040000 		.4byte	0x428
 1203 0403 06       		.uleb128 0x6
 1204 0404 E0000000 		.4byte	.LASF52
 1205 0408 09       		.byte	0x9
 1206 0409 2D       		.byte	0x2d
 1207 040a 46020000 		.4byte	0x246
 1208 040e 00       		.byte	0
 1209 040f 06       		.uleb128 0x6
 1210 0410 72050000 		.4byte	.LASF53
 1211 0414 09       		.byte	0x9
 1212 0415 2F       		.byte	0x2f
 1213 0416 40020000 		.4byte	0x240
 1214 041a 08       		.byte	0x8
 1215 041b 06       		.uleb128 0x6
 1216 041c B4040000 		.4byte	.LASF54
 1217 0420 09       		.byte	0x9
 1218 0421 31       		.byte	0x31
 1219 0422 28040000 		.4byte	0x428
 1220 0426 0C       		.byte	0xc
 1221 0427 00       		.byte	0
 1222 0428 09       		.uleb128 0x9
 1223 0429 04       		.byte	0x4
 1224 042a F7030000 		.4byte	0x3f7
 1225 042e 03       		.uleb128 0x3
 1226 042f DA020000 		.4byte	.LASF51
 1227 0433 09       		.byte	0x9
 1228 0434 33       		.byte	0x33
 1229 0435 F7030000 		.4byte	0x3f7
 1230 0439 0E       		.uleb128 0xe
 1231 043a 04       		.byte	0x4
 1232 043b 07       		.byte	0x7
 1233 043c 96       		.byte	0x96
 1234 043d 6E040000 		.4byte	0x46e
 1235 0441 0F       		.uleb128 0xf
 1236 0442 0F000000 		.4byte	.LASF55
 1237 0446 07       		.byte	0x7
 1238 0447 9D       		.byte	0x9d
 1239 0448 F6000000 		.4byte	0xf6
 1240 044c 0F       		.uleb128 0xf
 1241 044d 86020000 		.4byte	.LASF56
 1242 0451 07       		.byte	0x7
 1243 0452 A4       		.byte	0xa4
 1244 0453 F6000000 		.4byte	0xf6
ARM GAS  C:\Users\jsyoon\AppData\Local\Temp\ccIAH7yv.s 			page 23


 1245 0457 0F       		.uleb128 0xf
 1246 0458 5E050000 		.4byte	.LASF57
 1247 045c 07       		.byte	0x7
 1248 045d AB       		.byte	0xab
 1249 045e 7C020000 		.4byte	0x27c
 1250 0462 0F       		.uleb128 0xf
 1251 0463 21040000 		.4byte	.LASF58
 1252 0467 07       		.byte	0x7
 1253 0468 B2       		.byte	0xb2
 1254 0469 01010000 		.4byte	0x101
 1255 046d 00       		.byte	0
 1256 046e 09       		.uleb128 0x9
 1257 046f 04       		.byte	0x4
 1258 0470 74040000 		.4byte	0x474
 1259 0474 10       		.uleb128 0x10
 1260 0475 79040000 		.4byte	0x479
 1261 0479 02       		.uleb128 0x2
 1262 047a 01       		.byte	0x1
 1263 047b 08       		.byte	0x8
 1264 047c AA040000 		.4byte	.LASF59
 1265 0480 09       		.uleb128 0x9
 1266 0481 04       		.byte	0x4
 1267 0482 2E040000 		.4byte	0x42e
 1268 0486 0D       		.uleb128 0xd
 1269 0487 97000000 		.4byte	0x97
 1270 048b 09       		.uleb128 0x9
 1271 048c 04       		.byte	0x4
 1272 048d 79040000 		.4byte	0x479
 1273 0491 11       		.uleb128 0x11
 1274 0492 8C040000 		.4byte	.LASF60
 1275 0496 01       		.byte	0x1
 1276 0497 21       		.byte	0x21
 1277 0498 00000000 		.4byte	.LFB118
 1278 049c 70000000 		.4byte	.LFE118-.LFB118
 1279 04a0 01       		.uleb128 0x1
 1280 04a1 9C       		.byte	0x9c
 1281 04a2 26050000 		.4byte	0x526
 1282 04a6 12       		.uleb128 0x12
 1283 04a7 18000000 		.4byte	.LBB2
 1284 04ab 1A000000 		.4byte	.LBE2-.LBB2
 1285 04af D6040000 		.4byte	0x4d6
 1286 04b3 13       		.uleb128 0x13
 1287 04b4 6900     		.ascii	"i\000"
 1288 04b6 01       		.byte	0x1
 1289 04b7 2C       		.byte	0x2c
 1290 04b8 7E000000 		.4byte	0x7e
 1291 04bc 00000000 		.4byte	.LLST0
 1292 04c0 14       		.uleb128 0x14
 1293 04c1 26000000 		.4byte	.LVL4
 1294 04c5 0D0A0000 		.4byte	0xa0d
 1295 04c9 15       		.uleb128 0x15
 1296 04ca 01       		.uleb128 0x1
 1297 04cb 51       		.byte	0x51
 1298 04cc 02       		.uleb128 0x2
 1299 04cd 75       		.byte	0x75
 1300 04ce 00       		.sleb128 0
 1301 04cf 15       		.uleb128 0x15
ARM GAS  C:\Users\jsyoon\AppData\Local\Temp\ccIAH7yv.s 			page 24


 1302 04d0 01       		.uleb128 0x1
 1303 04d1 50       		.byte	0x50
 1304 04d2 01       		.uleb128 0x1
 1305 04d3 3A       		.byte	0x3a
 1306 04d4 00       		.byte	0
 1307 04d5 00       		.byte	0
 1308 04d6 16       		.uleb128 0x16
 1309 04d7 10000000 		.4byte	.LVL0
 1310 04db 280A0000 		.4byte	0xa28
 1311 04df ED040000 		.4byte	0x4ed
 1312 04e3 15       		.uleb128 0x15
 1313 04e4 01       		.uleb128 0x1
 1314 04e5 50       		.byte	0x50
 1315 04e6 05       		.uleb128 0x5
 1316 04e7 03       		.byte	0x3
 1317 04e8 00000000 		.4byte	.LANCHOR0
 1318 04ec 00       		.byte	0
 1319 04ed 16       		.uleb128 0x16
 1320 04ee 3C000000 		.4byte	.LVL6
 1321 04f2 0D0A0000 		.4byte	0xa0d
 1322 04f6 09050000 		.4byte	0x509
 1323 04fa 15       		.uleb128 0x15
 1324 04fb 01       		.uleb128 0x1
 1325 04fc 51       		.byte	0x51
 1326 04fd 05       		.uleb128 0x5
 1327 04fe 03       		.byte	0x3
 1328 04ff 00000000 		.4byte	.LANCHOR4
 1329 0503 15       		.uleb128 0x15
 1330 0504 01       		.uleb128 0x1
 1331 0505 50       		.byte	0x50
 1332 0506 01       		.uleb128 0x1
 1333 0507 40       		.byte	0x40
 1334 0508 00       		.byte	0
 1335 0509 14       		.uleb128 0x14
 1336 050a 46000000 		.4byte	.LVL7
 1337 050e 390A0000 		.4byte	0xa39
 1338 0512 15       		.uleb128 0x15
 1339 0513 01       		.uleb128 0x1
 1340 0514 51       		.byte	0x51
 1341 0515 05       		.uleb128 0x5
 1342 0516 03       		.byte	0x3
 1343 0517 00000000 		.4byte	.LANCHOR4
 1344 051b 15       		.uleb128 0x15
 1345 051c 01       		.uleb128 0x1
 1346 051d 50       		.byte	0x50
 1347 051e 05       		.uleb128 0x5
 1348 051f 03       		.byte	0x3
 1349 0520 00000000 		.4byte	.LANCHOR2
 1350 0524 00       		.byte	0
 1351 0525 00       		.byte	0
 1352 0526 11       		.uleb128 0x11
 1353 0527 86000000 		.4byte	.LASF61
 1354 052b 01       		.byte	0x1
 1355 052c 38       		.byte	0x38
 1356 052d 00000000 		.4byte	.LFB119
 1357 0531 60000000 		.4byte	.LFE119-.LFB119
 1358 0535 01       		.uleb128 0x1
ARM GAS  C:\Users\jsyoon\AppData\Local\Temp\ccIAH7yv.s 			page 25


 1359 0536 9C       		.byte	0x9c
 1360 0537 AD050000 		.4byte	0x5ad
 1361 053b 12       		.uleb128 0x12
 1362 053c 1A000000 		.4byte	.LBB3
 1363 0540 28000000 		.4byte	.LBE3-.LBB3
 1364 0544 6C050000 		.4byte	0x56c
 1365 0548 13       		.uleb128 0x13
 1366 0549 6900     		.ascii	"i\000"
 1367 054b 01       		.byte	0x1
 1368 054c 3D       		.byte	0x3d
 1369 054d 7E000000 		.4byte	0x7e
 1370 0551 27000000 		.4byte	.LLST1
 1371 0555 14       		.uleb128 0x14
 1372 0556 3A000000 		.4byte	.LVL16
 1373 055a 5F0A0000 		.4byte	0xa5f
 1374 055e 15       		.uleb128 0x15
 1375 055f 01       		.uleb128 0x1
 1376 0560 51       		.byte	0x51
 1377 0561 02       		.uleb128 0x2
 1378 0562 75       		.byte	0x75
 1379 0563 00       		.sleb128 0
 1380 0564 15       		.uleb128 0x15
 1381 0565 01       		.uleb128 0x1
 1382 0566 50       		.byte	0x50
 1383 0567 02       		.uleb128 0x2
 1384 0568 74       		.byte	0x74
 1385 0569 7F       		.sleb128 -1
 1386 056a 00       		.byte	0
 1387 056b 00       		.byte	0
 1388 056c 16       		.uleb128 0x16
 1389 056d 0E000000 		.4byte	.LVL9
 1390 0571 7A0A0000 		.4byte	0xa7a
 1391 0575 83050000 		.4byte	0x583
 1392 0579 15       		.uleb128 0x15
 1393 057a 01       		.uleb128 0x1
 1394 057b 50       		.byte	0x50
 1395 057c 05       		.uleb128 0x5
 1396 057d 03       		.byte	0x3
 1397 057e 00000000 		.4byte	.LANCHOR0
 1398 0582 00       		.byte	0
 1399 0583 17       		.uleb128 0x17
 1400 0584 12000000 		.4byte	.LVL10
 1401 0588 8B0A0000 		.4byte	0xa8b
 1402 058c 16       		.uleb128 0x16
 1403 058d 1A000000 		.4byte	.LVL11
 1404 0591 920A0000 		.4byte	0xa92
 1405 0595 A3050000 		.4byte	0x5a3
 1406 0599 15       		.uleb128 0x15
 1407 059a 01       		.uleb128 0x1
 1408 059b 50       		.byte	0x50
 1409 059c 05       		.uleb128 0x5
 1410 059d 03       		.byte	0x3
 1411 059e 00000000 		.4byte	.LANCHOR4
 1412 05a2 00       		.byte	0
 1413 05a3 18       		.uleb128 0x18
 1414 05a4 4A000000 		.4byte	.LVL18
 1415 05a8 A80A0000 		.4byte	0xaa8
ARM GAS  C:\Users\jsyoon\AppData\Local\Temp\ccIAH7yv.s 			page 26


 1416 05ac 00       		.byte	0
 1417 05ad 19       		.uleb128 0x19
 1418 05ae 4D050000 		.4byte	.LASF65
 1419 05b2 01       		.byte	0x1
 1420 05b3 54       		.byte	0x54
 1421 05b4 7E000000 		.4byte	0x7e
 1422 05b8 00000000 		.4byte	.LFB120
 1423 05bc 90000000 		.4byte	.LFE120-.LFB120
 1424 05c0 01       		.uleb128 0x1
 1425 05c1 9C       		.byte	0x9c
 1426 05c2 C7060000 		.4byte	0x6c7
 1427 05c6 1A       		.uleb128 0x1a
 1428 05c7 ED040000 		.4byte	.LASF62
 1429 05cb 01       		.byte	0x1
 1430 05cc 54       		.byte	0x54
 1431 05cd 8B040000 		.4byte	0x48b
 1432 05d1 69000000 		.4byte	.LLST2
 1433 05d5 1B       		.uleb128 0x1b
 1434 05d6 6C656E00 		.ascii	"len\000"
 1435 05da 01       		.byte	0x1
 1436 05db 54       		.byte	0x54
 1437 05dc 7E000000 		.4byte	0x7e
 1438 05e0 AE000000 		.4byte	.LLST3
 1439 05e4 1C       		.uleb128 0x1c
 1440 05e5 C9020000 		.4byte	.LASF63
 1441 05e9 01       		.byte	0x1
 1442 05ea 55       		.byte	0x55
 1443 05eb 7E000000 		.4byte	0x7e
 1444 05ef F3000000 		.4byte	.LLST4
 1445 05f3 1C       		.uleb128 0x1c
 1446 05f4 57000000 		.4byte	.LASF64
 1447 05f8 01       		.byte	0x1
 1448 05f9 56       		.byte	0x56
 1449 05fa 7E000000 		.4byte	0x7e
 1450 05fe 52010000 		.4byte	.LLST5
 1451 0602 1D       		.uleb128 0x1d
 1452 0603 00000000 		.4byte	.Ldebug_ranges0+0
 1453 0607 3E060000 		.4byte	0x63e
 1454 060b 13       		.uleb128 0x13
 1455 060c 7300     		.ascii	"s\000"
 1456 060e 01       		.byte	0x1
 1457 060f 66       		.byte	0x66
 1458 0610 7E000000 		.4byte	0x7e
 1459 0614 7F010000 		.4byte	.LLST6
 1460 0618 17       		.uleb128 0x17
 1461 0619 36000000 		.4byte	.LVL30
 1462 061d B30A0000 		.4byte	0xab3
 1463 0621 16       		.uleb128 0x16
 1464 0622 3E000000 		.4byte	.LVL33
 1465 0626 BE0A0000 		.4byte	0xabe
 1466 062a 34060000 		.4byte	0x634
 1467 062e 15       		.uleb128 0x15
 1468 062f 01       		.uleb128 0x1
 1469 0630 50       		.byte	0x50
 1470 0631 01       		.uleb128 0x1
 1471 0632 3A       		.byte	0x3a
 1472 0633 00       		.byte	0
ARM GAS  C:\Users\jsyoon\AppData\Local\Temp\ccIAH7yv.s 			page 27


 1473 0634 17       		.uleb128 0x17
 1474 0635 62000000 		.4byte	.LVL39
 1475 0639 D00A0000 		.4byte	0xad0
 1476 063d 00       		.byte	0
 1477 063e 16       		.uleb128 0x16
 1478 063f 0E000000 		.4byte	.LVL21
 1479 0643 7A0A0000 		.4byte	0xa7a
 1480 0647 55060000 		.4byte	0x655
 1481 064b 15       		.uleb128 0x15
 1482 064c 01       		.uleb128 0x1
 1483 064d 50       		.byte	0x50
 1484 064e 05       		.uleb128 0x5
 1485 064f 03       		.byte	0x3
 1486 0650 00000000 		.4byte	.LANCHOR0
 1487 0654 00       		.byte	0
 1488 0655 17       		.uleb128 0x17
 1489 0656 12000000 		.4byte	.LVL22
 1490 065a D70A0000 		.4byte	0xad7
 1491 065e 17       		.uleb128 0x17
 1492 065f 16000000 		.4byte	.LVL23
 1493 0663 DE0A0000 		.4byte	0xade
 1494 0667 17       		.uleb128 0x17
 1495 0668 1A000000 		.4byte	.LVL24
 1496 066c E50A0000 		.4byte	0xae5
 1497 0670 16       		.uleb128 0x16
 1498 0671 22000000 		.4byte	.LVL25
 1499 0675 EC0A0000 		.4byte	0xaec
 1500 0679 8A060000 		.4byte	0x68a
 1501 067d 15       		.uleb128 0x15
 1502 067e 01       		.uleb128 0x1
 1503 067f 51       		.byte	0x51
 1504 0680 02       		.uleb128 0x2
 1505 0681 75       		.byte	0x75
 1506 0682 00       		.sleb128 0
 1507 0683 15       		.uleb128 0x15
 1508 0684 01       		.uleb128 0x1
 1509 0685 50       		.byte	0x50
 1510 0686 02       		.uleb128 0x2
 1511 0687 74       		.byte	0x74
 1512 0688 00       		.sleb128 0
 1513 0689 00       		.byte	0
 1514 068a 16       		.uleb128 0x16
 1515 068b 52000000 		.4byte	.LVL35
 1516 068f 5F0A0000 		.4byte	0xa5f
 1517 0693 A1060000 		.4byte	0x6a1
 1518 0697 15       		.uleb128 0x15
 1519 0698 01       		.uleb128 0x1
 1520 0699 51       		.byte	0x51
 1521 069a 05       		.uleb128 0x5
 1522 069b 03       		.byte	0x3
 1523 069c 00000000 		.4byte	.LANCHOR2
 1524 06a0 00       		.byte	0
 1525 06a1 17       		.uleb128 0x17
 1526 06a2 56000000 		.4byte	.LVL36
 1527 06a6 020B0000 		.4byte	0xb02
 1528 06aa 17       		.uleb128 0x17
 1529 06ab 5A000000 		.4byte	.LVL37
ARM GAS  C:\Users\jsyoon\AppData\Local\Temp\ccIAH7yv.s 			page 28


 1530 06af A80A0000 		.4byte	0xaa8
 1531 06b3 14       		.uleb128 0x14
 1532 06b4 72000000 		.4byte	.LVL42
 1533 06b8 5F0A0000 		.4byte	0xa5f
 1534 06bc 15       		.uleb128 0x15
 1535 06bd 01       		.uleb128 0x1
 1536 06be 51       		.byte	0x51
 1537 06bf 05       		.uleb128 0x5
 1538 06c0 03       		.byte	0x3
 1539 06c1 00000000 		.4byte	.LANCHOR4
 1540 06c5 00       		.byte	0
 1541 06c6 00       		.byte	0
 1542 06c7 19       		.uleb128 0x19
 1543 06c8 65040000 		.4byte	.LASF66
 1544 06cc 01       		.byte	0x1
 1545 06cd 96       		.byte	0x96
 1546 06ce 7E000000 		.4byte	0x7e
 1547 06d2 00000000 		.4byte	.LFB121
 1548 06d6 60000000 		.4byte	.LFE121-.LFB121
 1549 06da 01       		.uleb128 0x1
 1550 06db 9C       		.byte	0x9c
 1551 06dc 8F070000 		.4byte	0x78f
 1552 06e0 1A       		.uleb128 0x1a
 1553 06e1 ED040000 		.4byte	.LASF62
 1554 06e5 01       		.byte	0x1
 1555 06e6 96       		.byte	0x96
 1556 06e7 8B040000 		.4byte	0x48b
 1557 06eb BE010000 		.4byte	.LLST7
 1558 06ef 1B       		.uleb128 0x1b
 1559 06f0 6C656E00 		.ascii	"len\000"
 1560 06f4 01       		.byte	0x1
 1561 06f5 96       		.byte	0x96
 1562 06f6 8F070000 		.4byte	0x78f
 1563 06fa DC010000 		.4byte	.LLST8
 1564 06fe 1A       		.uleb128 0x1a
 1565 06ff AF040000 		.4byte	.LASF67
 1566 0703 01       		.byte	0x1
 1567 0704 96       		.byte	0x96
 1568 0705 8F070000 		.4byte	0x78f
 1569 0709 3A020000 		.4byte	.LLST9
 1570 070d 1C       		.uleb128 0x1c
 1571 070e 57000000 		.4byte	.LASF64
 1572 0712 01       		.byte	0x1
 1573 0713 97       		.byte	0x97
 1574 0714 7E000000 		.4byte	0x7e
 1575 0718 58020000 		.4byte	.LLST10
 1576 071c 13       		.uleb128 0x13
 1577 071d 7300     		.ascii	"s\000"
 1578 071f 01       		.byte	0x1
 1579 0720 9B       		.byte	0x9b
 1580 0721 7E000000 		.4byte	0x7e
 1581 0725 9F020000 		.4byte	.LLST11
 1582 0729 1E       		.uleb128 0x1e
 1583 072a 35030000 		.4byte	.LASF68
 1584 072e 01       		.byte	0x1
 1585 072f 9C       		.byte	0x9c
 1586 0730 7E000000 		.4byte	0x7e
ARM GAS  C:\Users\jsyoon\AppData\Local\Temp\ccIAH7yv.s 			page 29


 1587 0734 01       		.uleb128 0x1
 1588 0735 55       		.byte	0x55
 1589 0736 16       		.uleb128 0x16
 1590 0737 0E000000 		.4byte	.LVL47
 1591 073b 7A0A0000 		.4byte	0xa7a
 1592 073f 4D070000 		.4byte	0x74d
 1593 0743 15       		.uleb128 0x15
 1594 0744 01       		.uleb128 0x1
 1595 0745 50       		.byte	0x50
 1596 0746 05       		.uleb128 0x5
 1597 0747 03       		.byte	0x3
 1598 0748 00000000 		.4byte	.LANCHOR0
 1599 074c 00       		.byte	0
 1600 074d 17       		.uleb128 0x17
 1601 074e 12000000 		.4byte	.LVL48
 1602 0752 B30A0000 		.4byte	0xab3
 1603 0756 17       		.uleb128 0x17
 1604 0757 1E000000 		.4byte	.LVL50
 1605 075b 090B0000 		.4byte	0xb09
 1606 075f 16       		.uleb128 0x16
 1607 0760 32000000 		.4byte	.LVL51
 1608 0764 140B0000 		.4byte	0xb14
 1609 0768 73070000 		.4byte	0x773
 1610 076c 15       		.uleb128 0x15
 1611 076d 01       		.uleb128 0x1
 1612 076e 50       		.byte	0x50
 1613 076f 02       		.uleb128 0x2
 1614 0770 77       		.byte	0x77
 1615 0771 00       		.sleb128 0
 1616 0772 00       		.byte	0
 1617 0773 17       		.uleb128 0x17
 1618 0774 36000000 		.4byte	.LVL52
 1619 0778 2A0B0000 		.4byte	0xb2a
 1620 077c 17       		.uleb128 0x17
 1621 077d 3A000000 		.4byte	.LVL53
 1622 0781 B30A0000 		.4byte	0xab3
 1623 0785 17       		.uleb128 0x17
 1624 0786 48000000 		.4byte	.LVL57
 1625 078a A80A0000 		.4byte	0xaa8
 1626 078e 00       		.byte	0
 1627 078f 09       		.uleb128 0x9
 1628 0790 04       		.byte	0x4
 1629 0791 7E000000 		.4byte	0x7e
 1630 0795 19       		.uleb128 0x19
 1631 0796 16000000 		.4byte	.LASF69
 1632 079a 01       		.byte	0x1
 1633 079b B8       		.byte	0xb8
 1634 079c 7E000000 		.4byte	0x7e
 1635 07a0 00000000 		.4byte	.LFB122
 1636 07a4 1C000000 		.4byte	.LFE122-.LFB122
 1637 07a8 01       		.uleb128 0x1
 1638 07a9 9C       		.byte	0x9c
 1639 07aa E5070000 		.4byte	0x7e5
 1640 07ae 13       		.uleb128 0x13
 1641 07af 7300     		.ascii	"s\000"
 1642 07b1 01       		.byte	0x1
 1643 07b2 BA       		.byte	0xba
ARM GAS  C:\Users\jsyoon\AppData\Local\Temp\ccIAH7yv.s 			page 30


 1644 07b3 7E000000 		.4byte	0x7e
 1645 07b7 C8020000 		.4byte	.LLST12
 1646 07bb 16       		.uleb128 0x16
 1647 07bc 08000000 		.4byte	.LVL63
 1648 07c0 7A0A0000 		.4byte	0xa7a
 1649 07c4 D2070000 		.4byte	0x7d2
 1650 07c8 15       		.uleb128 0x15
 1651 07c9 01       		.uleb128 0x1
 1652 07ca 50       		.byte	0x50
 1653 07cb 05       		.uleb128 0x5
 1654 07cc 03       		.byte	0x3
 1655 07cd 00000000 		.4byte	.LANCHOR0
 1656 07d1 00       		.byte	0
 1657 07d2 17       		.uleb128 0x17
 1658 07d3 0C000000 		.4byte	.LVL64
 1659 07d7 B30A0000 		.4byte	0xab3
 1660 07db 17       		.uleb128 0x17
 1661 07dc 12000000 		.4byte	.LVL66
 1662 07e0 A80A0000 		.4byte	0xaa8
 1663 07e4 00       		.byte	0
 1664 07e5 11       		.uleb128 0x11
 1665 07e6 79040000 		.4byte	.LASF70
 1666 07ea 01       		.byte	0x1
 1667 07eb C0       		.byte	0xc0
 1668 07ec 00000000 		.4byte	.LFB123
 1669 07f0 58000000 		.4byte	.LFE123-.LFB123
 1670 07f4 01       		.uleb128 0x1
 1671 07f5 9C       		.byte	0x9c
 1672 07f6 96080000 		.4byte	0x896
 1673 07fa 1A       		.uleb128 0x1a
 1674 07fb 95030000 		.4byte	.LASF71
 1675 07ff 01       		.byte	0x1
 1676 0800 C0       		.byte	0xc0
 1677 0801 6E040000 		.4byte	0x46e
 1678 0805 F1020000 		.4byte	.LLST13
 1679 0809 1A       		.uleb128 0x1a
 1680 080a D1020000 		.4byte	.LASF72
 1681 080e 01       		.byte	0x1
 1682 080f C0       		.byte	0xc0
 1683 0810 7E000000 		.4byte	0x7e
 1684 0814 1D030000 		.4byte	.LLST14
 1685 0818 16       		.uleb128 0x16
 1686 0819 0E000000 		.4byte	.LVL70
 1687 081d 7A0A0000 		.4byte	0xa7a
 1688 0821 2F080000 		.4byte	0x82f
 1689 0825 15       		.uleb128 0x15
 1690 0826 01       		.uleb128 0x1
 1691 0827 50       		.byte	0x50
 1692 0828 05       		.uleb128 0x5
 1693 0829 03       		.byte	0x3
 1694 082a 00000000 		.4byte	.LANCHOR0
 1695 082e 00       		.byte	0
 1696 082f 16       		.uleb128 0x16
 1697 0830 18000000 		.4byte	.LVL71
 1698 0834 310B0000 		.4byte	0xb31
 1699 0838 4F080000 		.4byte	0x84f
 1700 083c 15       		.uleb128 0x15
ARM GAS  C:\Users\jsyoon\AppData\Local\Temp\ccIAH7yv.s 			page 31


 1701 083d 01       		.uleb128 0x1
 1702 083e 52       		.byte	0x52
 1703 083f 02       		.uleb128 0x2
 1704 0840 74       		.byte	0x74
 1705 0841 00       		.sleb128 0
 1706 0842 15       		.uleb128 0x15
 1707 0843 01       		.uleb128 0x1
 1708 0844 51       		.byte	0x51
 1709 0845 02       		.uleb128 0x2
 1710 0846 76       		.byte	0x76
 1711 0847 00       		.sleb128 0
 1712 0848 15       		.uleb128 0x15
 1713 0849 01       		.uleb128 0x1
 1714 084a 50       		.byte	0x50
 1715 084b 02       		.uleb128 0x2
 1716 084c 75       		.byte	0x75
 1717 084d 00       		.sleb128 0
 1718 084e 00       		.byte	0
 1719 084f 16       		.uleb128 0x16
 1720 0850 26000000 		.4byte	.LVL72
 1721 0854 390A0000 		.4byte	0xa39
 1722 0858 72080000 		.4byte	0x872
 1723 085c 15       		.uleb128 0x15
 1724 085d 01       		.uleb128 0x1
 1725 085e 52       		.byte	0x52
 1726 085f 02       		.uleb128 0x2
 1727 0860 74       		.byte	0x74
 1728 0861 00       		.sleb128 0
 1729 0862 15       		.uleb128 0x15
 1730 0863 01       		.uleb128 0x1
 1731 0864 51       		.byte	0x51
 1732 0865 02       		.uleb128 0x2
 1733 0866 75       		.byte	0x75
 1734 0867 00       		.sleb128 0
 1735 0868 15       		.uleb128 0x15
 1736 0869 01       		.uleb128 0x1
 1737 086a 50       		.byte	0x50
 1738 086b 05       		.uleb128 0x5
 1739 086c 03       		.byte	0x3
 1740 086d 00000000 		.4byte	.LANCHOR2
 1741 0871 00       		.byte	0
 1742 0872 16       		.uleb128 0x16
 1743 0873 3A000000 		.4byte	.LVL73
 1744 0877 920A0000 		.4byte	0xa92
 1745 087b 8C080000 		.4byte	0x88c
 1746 087f 15       		.uleb128 0x15
 1747 0880 01       		.uleb128 0x1
 1748 0881 51       		.byte	0x51
 1749 0882 02       		.uleb128 0x2
 1750 0883 74       		.byte	0x74
 1751 0884 00       		.sleb128 0
 1752 0885 15       		.uleb128 0x15
 1753 0886 01       		.uleb128 0x1
 1754 0887 50       		.byte	0x50
 1755 0888 02       		.uleb128 0x2
 1756 0889 75       		.byte	0x75
 1757 088a 00       		.sleb128 0
ARM GAS  C:\Users\jsyoon\AppData\Local\Temp\ccIAH7yv.s 			page 32


 1758 088b 00       		.byte	0
 1759 088c 18       		.uleb128 0x18
 1760 088d 42000000 		.4byte	.LVL75
 1761 0891 A80A0000 		.4byte	0xaa8
 1762 0895 00       		.byte	0
 1763 0896 11       		.uleb128 0x11
 1764 0897 3E040000 		.4byte	.LASF73
 1765 089b 01       		.byte	0x1
 1766 089c CB       		.byte	0xcb
 1767 089d 00000000 		.4byte	.LFB124
 1768 08a1 6C000000 		.4byte	.LFE124-.LFB124
 1769 08a5 01       		.uleb128 0x1
 1770 08a6 9C       		.byte	0x9c
 1771 08a7 65090000 		.4byte	0x965
 1772 08ab 1A       		.uleb128 0x1a
 1773 08ac AF040000 		.4byte	.LASF67
 1774 08b0 01       		.byte	0x1
 1775 08b1 CB       		.byte	0xcb
 1776 08b2 7E000000 		.4byte	0x7e
 1777 08b6 49030000 		.4byte	.LLST15
 1778 08ba 1A       		.uleb128 0x1a
 1779 08bb 95030000 		.4byte	.LASF71
 1780 08bf 01       		.byte	0x1
 1781 08c0 CB       		.byte	0xcb
 1782 08c1 6E040000 		.4byte	0x46e
 1783 08c5 75030000 		.4byte	.LLST16
 1784 08c9 1A       		.uleb128 0x1a
 1785 08ca D1020000 		.4byte	.LASF72
 1786 08ce 01       		.byte	0x1
 1787 08cf CB       		.byte	0xcb
 1788 08d0 7E000000 		.4byte	0x7e
 1789 08d4 A1030000 		.4byte	.LLST17
 1790 08d8 16       		.uleb128 0x16
 1791 08d9 10000000 		.4byte	.LVL78
 1792 08dd 7A0A0000 		.4byte	0xa7a
 1793 08e1 EF080000 		.4byte	0x8ef
 1794 08e5 15       		.uleb128 0x15
 1795 08e6 01       		.uleb128 0x1
 1796 08e7 50       		.byte	0x50
 1797 08e8 05       		.uleb128 0x5
 1798 08e9 03       		.byte	0x3
 1799 08ea 00000000 		.4byte	.LANCHOR0
 1800 08ee 00       		.byte	0
 1801 08ef 16       		.uleb128 0x16
 1802 08f0 1E000000 		.4byte	.LVL79
 1803 08f4 310B0000 		.4byte	0xb31
 1804 08f8 17090000 		.4byte	0x917
 1805 08fc 15       		.uleb128 0x15
 1806 08fd 01       		.uleb128 0x1
 1807 08fe 52       		.byte	0x52
 1808 08ff 02       		.uleb128 0x2
 1809 0900 74       		.byte	0x74
 1810 0901 00       		.sleb128 0
 1811 0902 15       		.uleb128 0x15
 1812 0903 01       		.uleb128 0x1
 1813 0904 51       		.byte	0x51
 1814 0905 02       		.uleb128 0x2
ARM GAS  C:\Users\jsyoon\AppData\Local\Temp\ccIAH7yv.s 			page 33


 1815 0906 76       		.byte	0x76
 1816 0907 00       		.sleb128 0
 1817 0908 15       		.uleb128 0x15
 1818 0909 01       		.uleb128 0x1
 1819 090a 50       		.byte	0x50
 1820 090b 0A       		.uleb128 0xa
 1821 090c 75       		.byte	0x75
 1822 090d 00       		.sleb128 0
 1823 090e 32       		.byte	0x32
 1824 090f 24       		.byte	0x24
 1825 0910 75       		.byte	0x75
 1826 0911 00       		.sleb128 0
 1827 0912 22       		.byte	0x22
 1828 0913 77       		.byte	0x77
 1829 0914 00       		.sleb128 0
 1830 0915 22       		.byte	0x22
 1831 0916 00       		.byte	0
 1832 0917 16       		.uleb128 0x16
 1833 0918 2C000000 		.4byte	.LVL80
 1834 091c 390A0000 		.4byte	0xa39
 1835 0920 3A090000 		.4byte	0x93a
 1836 0924 15       		.uleb128 0x15
 1837 0925 01       		.uleb128 0x1
 1838 0926 52       		.byte	0x52
 1839 0927 02       		.uleb128 0x2
 1840 0928 74       		.byte	0x74
 1841 0929 00       		.sleb128 0
 1842 092a 15       		.uleb128 0x15
 1843 092b 01       		.uleb128 0x1
 1844 092c 51       		.byte	0x51
 1845 092d 05       		.uleb128 0x5
 1846 092e 03       		.byte	0x3
 1847 092f 00000000 		.4byte	.LANCHOR4
 1848 0933 15       		.uleb128 0x15
 1849 0934 01       		.uleb128 0x1
 1850 0935 50       		.byte	0x50
 1851 0936 02       		.uleb128 0x2
 1852 0937 77       		.byte	0x77
 1853 0938 00       		.sleb128 0
 1854 0939 00       		.byte	0
 1855 093a 16       		.uleb128 0x16
 1856 093b 4C000000 		.4byte	.LVL82
 1857 093f 5F0A0000 		.4byte	0xa5f
 1858 0943 5B090000 		.4byte	0x95b
 1859 0947 15       		.uleb128 0x15
 1860 0948 01       		.uleb128 0x1
 1861 0949 52       		.byte	0x52
 1862 094a 03       		.uleb128 0x3
 1863 094b F3       		.byte	0xf3
 1864 094c 01       		.uleb128 0x1
 1865 094d 52       		.byte	0x52
 1866 094e 15       		.uleb128 0x15
 1867 094f 01       		.uleb128 0x1
 1868 0950 51       		.byte	0x51
 1869 0951 02       		.uleb128 0x2
 1870 0952 76       		.byte	0x76
 1871 0953 00       		.sleb128 0
ARM GAS  C:\Users\jsyoon\AppData\Local\Temp\ccIAH7yv.s 			page 34


 1872 0954 15       		.uleb128 0x15
 1873 0955 01       		.uleb128 0x1
 1874 0956 50       		.byte	0x50
 1875 0957 02       		.uleb128 0x2
 1876 0958 75       		.byte	0x75
 1877 0959 00       		.sleb128 0
 1878 095a 00       		.byte	0
 1879 095b 18       		.uleb128 0x18
 1880 095c 54000000 		.4byte	.LVL84
 1881 0960 A80A0000 		.4byte	0xaa8
 1882 0964 00       		.byte	0
 1883 0965 1E       		.uleb128 0x1e
 1884 0966 CE030000 		.4byte	.LASF74
 1885 096a 01       		.byte	0x1
 1886 096b 1A       		.byte	0x1a
 1887 096c 2E040000 		.4byte	0x42e
 1888 0970 05       		.uleb128 0x5
 1889 0971 03       		.byte	0x3
 1890 0972 00000000 		.4byte	rf_mutex
 1891 0976 1F       		.uleb128 0x1f
 1892 0977 79040000 		.4byte	0x479
 1893 097b 8C090000 		.4byte	0x98c
 1894 097f 20       		.uleb128 0x20
 1895 0980 EB030000 		.4byte	0x3eb
 1896 0984 05       		.byte	0x5
 1897 0985 20       		.uleb128 0x20
 1898 0986 EB030000 		.4byte	0x3eb
 1899 098a 04       		.byte	0x4
 1900 098b 00       		.byte	0
 1901 098c 1E       		.uleb128 0x1e
 1902 098d 40000000 		.4byte	.LASF75
 1903 0991 01       		.byte	0x1
 1904 0992 1B       		.byte	0x1b
 1905 0993 76090000 		.4byte	0x976
 1906 0997 05       		.uleb128 0x5
 1907 0998 03       		.byte	0x3
 1908 0999 00000000 		.4byte	rx_addr
 1909 099d 1F       		.uleb128 0x1f
 1910 099e 79040000 		.4byte	0x479
 1911 09a2 AD090000 		.4byte	0x9ad
 1912 09a6 20       		.uleb128 0x20
 1913 09a7 EB030000 		.4byte	0x3eb
 1914 09ab 04       		.byte	0x4
 1915 09ac 00       		.byte	0
 1916 09ad 1E       		.uleb128 0x1e
 1917 09ae 5E000000 		.4byte	.LASF76
 1918 09b2 01       		.byte	0x1
 1919 09b3 1C       		.byte	0x1c
 1920 09b4 9D090000 		.4byte	0x99d
 1921 09b8 05       		.uleb128 0x5
 1922 09b9 03       		.byte	0x3
 1923 09ba 00000000 		.4byte	tx_addr
 1924 09be 1F       		.uleb128 0x1f
 1925 09bf B8000000 		.4byte	0xb8
 1926 09c3 CE090000 		.4byte	0x9ce
 1927 09c7 20       		.uleb128 0x20
 1928 09c8 EB030000 		.4byte	0x3eb
ARM GAS  C:\Users\jsyoon\AppData\Local\Temp\ccIAH7yv.s 			page 35


 1929 09cc 05       		.byte	0x5
 1930 09cd 00       		.byte	0
 1931 09ce 1E       		.uleb128 0x1e
 1932 09cf 5F020000 		.4byte	.LASF77
 1933 09d3 01       		.byte	0x1
 1934 09d4 1D       		.byte	0x1d
 1935 09d5 BE090000 		.4byte	0x9be
 1936 09d9 05       		.uleb128 0x5
 1937 09da 03       		.byte	0x3
 1938 09db 00000000 		.4byte	rx_addr_set
 1939 09df 1E       		.uleb128 0x1e
 1940 09e0 FD030000 		.4byte	.LASF78
 1941 09e4 01       		.byte	0x1
 1942 09e5 1E       		.byte	0x1e
 1943 09e6 7E000000 		.4byte	0x7e
 1944 09ea 05       		.uleb128 0x5
 1945 09eb 03       		.byte	0x3
 1946 09ec 00000000 		.4byte	address_length
 1947 09f0 1E       		.uleb128 0x1e
 1948 09f1 3C050000 		.4byte	.LASF79
 1949 09f5 01       		.byte	0x1
 1950 09f6 1F       		.byte	0x1f
 1951 09f7 B8000000 		.4byte	0xb8
 1952 09fb 05       		.uleb128 0x5
 1953 09fc 03       		.byte	0x3
 1954 09fd 00000000 		.4byte	tx_pipe0_addr_eq
 1955 0a01 21       		.uleb128 0x21
 1956 0a02 B6030000 		.4byte	.LASF101
 1957 0a06 0B       		.byte	0xb
 1958 0a07 9806     		.2byte	0x698
 1959 0a09 86040000 		.4byte	0x486
 1960 0a0d 22       		.uleb128 0x22
 1961 0a0e DA040000 		.4byte	.LASF80
 1962 0a12 0A       		.byte	0xa
 1963 0a13 CB       		.byte	0xcb
 1964 0a14 280A0000 		.4byte	0xa28
 1965 0a18 23       		.uleb128 0x23
 1966 0a19 7E000000 		.4byte	0x7e
 1967 0a1d 23       		.uleb128 0x23
 1968 0a1e 8B040000 		.4byte	0x48b
 1969 0a22 23       		.uleb128 0x23
 1970 0a23 7E000000 		.4byte	0x7e
 1971 0a27 00       		.byte	0
 1972 0a28 22       		.uleb128 0x22
 1973 0a29 0B050000 		.4byte	.LASF81
 1974 0a2d 09       		.byte	0x9
 1975 0a2e 38       		.byte	0x38
 1976 0a2f 390A0000 		.4byte	0xa39
 1977 0a33 23       		.uleb128 0x23
 1978 0a34 80040000 		.4byte	0x480
 1979 0a38 00       		.byte	0
 1980 0a39 24       		.uleb128 0x24
 1981 0a3a E6040000 		.4byte	.LASF102
 1982 0a3e 0C       		.byte	0xc
 1983 0a3f 16       		.byte	0x16
 1984 0a40 7E000000 		.4byte	0x7e
 1985 0a44 580A0000 		.4byte	0xa58
ARM GAS  C:\Users\jsyoon\AppData\Local\Temp\ccIAH7yv.s 			page 36


 1986 0a48 23       		.uleb128 0x23
 1987 0a49 580A0000 		.4byte	0xa58
 1988 0a4d 23       		.uleb128 0x23
 1989 0a4e 580A0000 		.4byte	0xa58
 1990 0a52 23       		.uleb128 0x23
 1991 0a53 AD000000 		.4byte	0xad
 1992 0a57 00       		.byte	0
 1993 0a58 09       		.uleb128 0x9
 1994 0a59 04       		.byte	0x4
 1995 0a5a 5E0A0000 		.4byte	0xa5e
 1996 0a5e 25       		.uleb128 0x25
 1997 0a5f 22       		.uleb128 0x22
 1998 0a60 27000000 		.4byte	.LASF82
 1999 0a64 0A       		.byte	0xa
 2000 0a65 AA       		.byte	0xaa
 2001 0a66 7A0A0000 		.4byte	0xa7a
 2002 0a6a 23       		.uleb128 0x23
 2003 0a6b 7E000000 		.4byte	0x7e
 2004 0a6f 23       		.uleb128 0x23
 2005 0a70 6E040000 		.4byte	0x46e
 2006 0a74 23       		.uleb128 0x23
 2007 0a75 7E000000 		.4byte	0x7e
 2008 0a79 00       		.byte	0
 2009 0a7a 22       		.uleb128 0x22
 2010 0a7b 5C030000 		.4byte	.LASF83
 2011 0a7f 09       		.byte	0x9
 2012 0a80 39       		.byte	0x39
 2013 0a81 8B0A0000 		.4byte	0xa8b
 2014 0a85 23       		.uleb128 0x23
 2015 0a86 80040000 		.4byte	0x480
 2016 0a8a 00       		.byte	0
 2017 0a8b 26       		.uleb128 0x26
 2018 0a8c 00000000 		.4byte	.LASF88
 2019 0a90 0A       		.byte	0xa
 2020 0a91 A3       		.byte	0xa3
 2021 0a92 22       		.uleb128 0x22
 2022 0a93 48000000 		.4byte	.LASF84
 2023 0a97 0A       		.byte	0xa
 2024 0a98 AB       		.byte	0xab
 2025 0a99 A80A0000 		.4byte	0xaa8
 2026 0a9d 23       		.uleb128 0x23
 2027 0a9e 6E040000 		.4byte	0x46e
 2028 0aa2 23       		.uleb128 0x23
 2029 0aa3 7E000000 		.4byte	0x7e
 2030 0aa7 00       		.byte	0
 2031 0aa8 27       		.uleb128 0x27
 2032 0aa9 A9000000 		.4byte	.LASF85
 2033 0aad 09       		.byte	0x9
 2034 0aae 3D       		.byte	0x3d
 2035 0aaf 80040000 		.4byte	0x480
 2036 0ab3 27       		.uleb128 0x27
 2037 0ab4 49030000 		.4byte	.LASF86
 2038 0ab8 0A       		.byte	0xa
 2039 0ab9 C5       		.byte	0xc5
 2040 0aba 7E000000 		.4byte	0x7e
 2041 0abe 28       		.uleb128 0x28
 2042 0abf 15050000 		.4byte	.LASF87
ARM GAS  C:\Users\jsyoon\AppData\Local\Temp\ccIAH7yv.s 			page 37


 2043 0ac3 07       		.byte	0x7
 2044 0ac4 7501     		.2byte	0x175
 2045 0ac6 D00A0000 		.4byte	0xad0
 2046 0aca 23       		.uleb128 0x23
 2047 0acb 0C010000 		.4byte	0x10c
 2048 0acf 00       		.byte	0
 2049 0ad0 26       		.uleb128 0x26
 2050 0ad1 73000000 		.4byte	.LASF89
 2051 0ad5 0A       		.byte	0xa
 2052 0ad6 C3       		.byte	0xc3
 2053 0ad7 26       		.uleb128 0x26
 2054 0ad8 BE020000 		.4byte	.LASF90
 2055 0adc 0A       		.byte	0xa
 2056 0add B5       		.byte	0xb5
 2057 0ade 26       		.uleb128 0x26
 2058 0adf 95000000 		.4byte	.LASF91
 2059 0ae3 0A       		.byte	0xa
 2060 0ae4 C0       		.byte	0xc0
 2061 0ae5 26       		.uleb128 0x26
 2062 0ae6 3C030000 		.4byte	.LASF92
 2063 0aea 0A       		.byte	0xa
 2064 0aeb BE       		.byte	0xbe
 2065 0aec 22       		.uleb128 0x22
 2066 0aed 01030000 		.4byte	.LASF93
 2067 0af1 0A       		.byte	0xa
 2068 0af2 AC       		.byte	0xac
 2069 0af3 020B0000 		.4byte	0xb02
 2070 0af7 23       		.uleb128 0x23
 2071 0af8 6E040000 		.4byte	0x46e
 2072 0afc 23       		.uleb128 0x23
 2073 0afd 7E000000 		.4byte	0x7e
 2074 0b01 00       		.byte	0
 2075 0b02 26       		.uleb128 0x26
 2076 0b03 C3030000 		.4byte	.LASF94
 2077 0b07 0A       		.byte	0xa
 2078 0b08 B6       		.byte	0xb6
 2079 0b09 27       		.uleb128 0x27
 2080 0b0a 0C040000 		.4byte	.LASF95
 2081 0b0e 0A       		.byte	0xa
 2082 0b0f C4       		.byte	0xc4
 2083 0b10 7E000000 		.4byte	0x7e
 2084 0b14 22       		.uleb128 0x22
 2085 0b15 73020000 		.4byte	.LASF96
 2086 0b19 0A       		.byte	0xa
 2087 0b1a AF       		.byte	0xaf
 2088 0b1b 2A0B0000 		.4byte	0xb2a
 2089 0b1f 23       		.uleb128 0x23
 2090 0b20 8B040000 		.4byte	0x48b
 2091 0b24 23       		.uleb128 0x23
 2092 0b25 7E000000 		.4byte	0x7e
 2093 0b29 00       		.byte	0
 2094 0b2a 26       		.uleb128 0x26
 2095 0b2b 66030000 		.4byte	.LASF97
 2096 0b2f 0A       		.byte	0xa
 2097 0b30 C1       		.byte	0xc1
 2098 0b31 29       		.uleb128 0x29
 2099 0b32 58020000 		.4byte	.LASF103
ARM GAS  C:\Users\jsyoon\AppData\Local\Temp\ccIAH7yv.s 			page 38


 2100 0b36 7C020000 		.4byte	0x27c
 2101 0b3a 23       		.uleb128 0x23
 2102 0b3b 7C020000 		.4byte	0x27c
 2103 0b3f 23       		.uleb128 0x23
 2104 0b40 580A0000 		.4byte	0xa58
 2105 0b44 23       		.uleb128 0x23
 2106 0b45 EB030000 		.4byte	0x3eb
 2107 0b49 00       		.byte	0
 2108 0b4a 00       		.byte	0
 2109              		.section	.debug_abbrev,"",%progbits
 2110              	.Ldebug_abbrev0:
 2111 0000 01       		.uleb128 0x1
 2112 0001 11       		.uleb128 0x11
 2113 0002 01       		.byte	0x1
 2114 0003 25       		.uleb128 0x25
 2115 0004 0E       		.uleb128 0xe
 2116 0005 13       		.uleb128 0x13
 2117 0006 0B       		.uleb128 0xb
 2118 0007 03       		.uleb128 0x3
 2119 0008 0E       		.uleb128 0xe
 2120 0009 1B       		.uleb128 0x1b
 2121 000a 0E       		.uleb128 0xe
 2122 000b 55       		.uleb128 0x55
 2123 000c 17       		.uleb128 0x17
 2124 000d 11       		.uleb128 0x11
 2125 000e 01       		.uleb128 0x1
 2126 000f 10       		.uleb128 0x10
 2127 0010 17       		.uleb128 0x17
 2128 0011 00       		.byte	0
 2129 0012 00       		.byte	0
 2130 0013 02       		.uleb128 0x2
 2131 0014 24       		.uleb128 0x24
 2132 0015 00       		.byte	0
 2133 0016 0B       		.uleb128 0xb
 2134 0017 0B       		.uleb128 0xb
 2135 0018 3E       		.uleb128 0x3e
 2136 0019 0B       		.uleb128 0xb
 2137 001a 03       		.uleb128 0x3
 2138 001b 0E       		.uleb128 0xe
 2139 001c 00       		.byte	0
 2140 001d 00       		.byte	0
 2141 001e 03       		.uleb128 0x3
 2142 001f 16       		.uleb128 0x16
 2143 0020 00       		.byte	0
 2144 0021 03       		.uleb128 0x3
 2145 0022 0E       		.uleb128 0xe
 2146 0023 3A       		.uleb128 0x3a
 2147 0024 0B       		.uleb128 0xb
 2148 0025 3B       		.uleb128 0x3b
 2149 0026 0B       		.uleb128 0xb
 2150 0027 49       		.uleb128 0x49
 2151 0028 13       		.uleb128 0x13
 2152 0029 00       		.byte	0
 2153 002a 00       		.byte	0
 2154 002b 04       		.uleb128 0x4
 2155 002c 24       		.uleb128 0x24
 2156 002d 00       		.byte	0
ARM GAS  C:\Users\jsyoon\AppData\Local\Temp\ccIAH7yv.s 			page 39


 2157 002e 0B       		.uleb128 0xb
 2158 002f 0B       		.uleb128 0xb
 2159 0030 3E       		.uleb128 0x3e
 2160 0031 0B       		.uleb128 0xb
 2161 0032 03       		.uleb128 0x3
 2162 0033 08       		.uleb128 0x8
 2163 0034 00       		.byte	0
 2164 0035 00       		.byte	0
 2165 0036 05       		.uleb128 0x5
 2166 0037 13       		.uleb128 0x13
 2167 0038 01       		.byte	0x1
 2168 0039 03       		.uleb128 0x3
 2169 003a 0E       		.uleb128 0xe
 2170 003b 0B       		.uleb128 0xb
 2171 003c 0B       		.uleb128 0xb
 2172 003d 3A       		.uleb128 0x3a
 2173 003e 0B       		.uleb128 0xb
 2174 003f 3B       		.uleb128 0x3b
 2175 0040 0B       		.uleb128 0xb
 2176 0041 01       		.uleb128 0x1
 2177 0042 13       		.uleb128 0x13
 2178 0043 00       		.byte	0
 2179 0044 00       		.byte	0
 2180 0045 06       		.uleb128 0x6
 2181 0046 0D       		.uleb128 0xd
 2182 0047 00       		.byte	0
 2183 0048 03       		.uleb128 0x3
 2184 0049 0E       		.uleb128 0xe
 2185 004a 3A       		.uleb128 0x3a
 2186 004b 0B       		.uleb128 0xb
 2187 004c 3B       		.uleb128 0x3b
 2188 004d 0B       		.uleb128 0xb
 2189 004e 49       		.uleb128 0x49
 2190 004f 13       		.uleb128 0x13
 2191 0050 38       		.uleb128 0x38
 2192 0051 0B       		.uleb128 0xb
 2193 0052 00       		.byte	0
 2194 0053 00       		.byte	0
 2195 0054 07       		.uleb128 0x7
 2196 0055 0D       		.uleb128 0xd
 2197 0056 00       		.byte	0
 2198 0057 03       		.uleb128 0x3
 2199 0058 08       		.uleb128 0x8
 2200 0059 3A       		.uleb128 0x3a
 2201 005a 0B       		.uleb128 0xb
 2202 005b 3B       		.uleb128 0x3b
 2203 005c 0B       		.uleb128 0xb
 2204 005d 49       		.uleb128 0x49
 2205 005e 13       		.uleb128 0x13
 2206 005f 38       		.uleb128 0x38
 2207 0060 0B       		.uleb128 0xb
 2208 0061 00       		.byte	0
 2209 0062 00       		.byte	0
 2210 0063 08       		.uleb128 0x8
 2211 0064 13       		.uleb128 0x13
 2212 0065 01       		.byte	0x1
 2213 0066 0B       		.uleb128 0xb
ARM GAS  C:\Users\jsyoon\AppData\Local\Temp\ccIAH7yv.s 			page 40


 2214 0067 0B       		.uleb128 0xb
 2215 0068 3A       		.uleb128 0x3a
 2216 0069 0B       		.uleb128 0xb
 2217 006a 3B       		.uleb128 0x3b
 2218 006b 0B       		.uleb128 0xb
 2219 006c 01       		.uleb128 0x1
 2220 006d 13       		.uleb128 0x13
 2221 006e 00       		.byte	0
 2222 006f 00       		.byte	0
 2223 0070 09       		.uleb128 0x9
 2224 0071 0F       		.uleb128 0xf
 2225 0072 00       		.byte	0
 2226 0073 0B       		.uleb128 0xb
 2227 0074 0B       		.uleb128 0xb
 2228 0075 49       		.uleb128 0x49
 2229 0076 13       		.uleb128 0x13
 2230 0077 00       		.byte	0
 2231 0078 00       		.byte	0
 2232 0079 0A       		.uleb128 0xa
 2233 007a 0F       		.uleb128 0xf
 2234 007b 00       		.byte	0
 2235 007c 0B       		.uleb128 0xb
 2236 007d 0B       		.uleb128 0xb
 2237 007e 00       		.byte	0
 2238 007f 00       		.byte	0
 2239 0080 0B       		.uleb128 0xb
 2240 0081 13       		.uleb128 0x13
 2241 0082 01       		.byte	0x1
 2242 0083 03       		.uleb128 0x3
 2243 0084 0E       		.uleb128 0xe
 2244 0085 0B       		.uleb128 0xb
 2245 0086 0B       		.uleb128 0xb
 2246 0087 3A       		.uleb128 0x3a
 2247 0088 0B       		.uleb128 0xb
 2248 0089 3B       		.uleb128 0x3b
 2249 008a 05       		.uleb128 0x5
 2250 008b 01       		.uleb128 0x1
 2251 008c 13       		.uleb128 0x13
 2252 008d 00       		.byte	0
 2253 008e 00       		.byte	0
 2254 008f 0C       		.uleb128 0xc
 2255 0090 0D       		.uleb128 0xd
 2256 0091 00       		.byte	0
 2257 0092 03       		.uleb128 0x3
 2258 0093 08       		.uleb128 0x8
 2259 0094 3A       		.uleb128 0x3a
 2260 0095 0B       		.uleb128 0xb
 2261 0096 3B       		.uleb128 0x3b
 2262 0097 05       		.uleb128 0x5
 2263 0098 49       		.uleb128 0x49
 2264 0099 13       		.uleb128 0x13
 2265 009a 38       		.uleb128 0x38
 2266 009b 0B       		.uleb128 0xb
 2267 009c 00       		.byte	0
 2268 009d 00       		.byte	0
 2269 009e 0D       		.uleb128 0xd
 2270 009f 35       		.uleb128 0x35
ARM GAS  C:\Users\jsyoon\AppData\Local\Temp\ccIAH7yv.s 			page 41


 2271 00a0 00       		.byte	0
 2272 00a1 49       		.uleb128 0x49
 2273 00a2 13       		.uleb128 0x13
 2274 00a3 00       		.byte	0
 2275 00a4 00       		.byte	0
 2276 00a5 0E       		.uleb128 0xe
 2277 00a6 17       		.uleb128 0x17
 2278 00a7 01       		.byte	0x1
 2279 00a8 0B       		.uleb128 0xb
 2280 00a9 0B       		.uleb128 0xb
 2281 00aa 3A       		.uleb128 0x3a
 2282 00ab 0B       		.uleb128 0xb
 2283 00ac 3B       		.uleb128 0x3b
 2284 00ad 0B       		.uleb128 0xb
 2285 00ae 01       		.uleb128 0x1
 2286 00af 13       		.uleb128 0x13
 2287 00b0 00       		.byte	0
 2288 00b1 00       		.byte	0
 2289 00b2 0F       		.uleb128 0xf
 2290 00b3 0D       		.uleb128 0xd
 2291 00b4 00       		.byte	0
 2292 00b5 03       		.uleb128 0x3
 2293 00b6 0E       		.uleb128 0xe
 2294 00b7 3A       		.uleb128 0x3a
 2295 00b8 0B       		.uleb128 0xb
 2296 00b9 3B       		.uleb128 0x3b
 2297 00ba 0B       		.uleb128 0xb
 2298 00bb 49       		.uleb128 0x49
 2299 00bc 13       		.uleb128 0x13
 2300 00bd 00       		.byte	0
 2301 00be 00       		.byte	0
 2302 00bf 10       		.uleb128 0x10
 2303 00c0 26       		.uleb128 0x26
 2304 00c1 00       		.byte	0
 2305 00c2 49       		.uleb128 0x49
 2306 00c3 13       		.uleb128 0x13
 2307 00c4 00       		.byte	0
 2308 00c5 00       		.byte	0
 2309 00c6 11       		.uleb128 0x11
 2310 00c7 2E       		.uleb128 0x2e
 2311 00c8 01       		.byte	0x1
 2312 00c9 3F       		.uleb128 0x3f
 2313 00ca 19       		.uleb128 0x19
 2314 00cb 03       		.uleb128 0x3
 2315 00cc 0E       		.uleb128 0xe
 2316 00cd 3A       		.uleb128 0x3a
 2317 00ce 0B       		.uleb128 0xb
 2318 00cf 3B       		.uleb128 0x3b
 2319 00d0 0B       		.uleb128 0xb
 2320 00d1 27       		.uleb128 0x27
 2321 00d2 19       		.uleb128 0x19
 2322 00d3 11       		.uleb128 0x11
 2323 00d4 01       		.uleb128 0x1
 2324 00d5 12       		.uleb128 0x12
 2325 00d6 06       		.uleb128 0x6
 2326 00d7 40       		.uleb128 0x40
 2327 00d8 18       		.uleb128 0x18
ARM GAS  C:\Users\jsyoon\AppData\Local\Temp\ccIAH7yv.s 			page 42


 2328 00d9 9742     		.uleb128 0x2117
 2329 00db 19       		.uleb128 0x19
 2330 00dc 01       		.uleb128 0x1
 2331 00dd 13       		.uleb128 0x13
 2332 00de 00       		.byte	0
 2333 00df 00       		.byte	0
 2334 00e0 12       		.uleb128 0x12
 2335 00e1 0B       		.uleb128 0xb
 2336 00e2 01       		.byte	0x1
 2337 00e3 11       		.uleb128 0x11
 2338 00e4 01       		.uleb128 0x1
 2339 00e5 12       		.uleb128 0x12
 2340 00e6 06       		.uleb128 0x6
 2341 00e7 01       		.uleb128 0x1
 2342 00e8 13       		.uleb128 0x13
 2343 00e9 00       		.byte	0
 2344 00ea 00       		.byte	0
 2345 00eb 13       		.uleb128 0x13
 2346 00ec 34       		.uleb128 0x34
 2347 00ed 00       		.byte	0
 2348 00ee 03       		.uleb128 0x3
 2349 00ef 08       		.uleb128 0x8
 2350 00f0 3A       		.uleb128 0x3a
 2351 00f1 0B       		.uleb128 0xb
 2352 00f2 3B       		.uleb128 0x3b
 2353 00f3 0B       		.uleb128 0xb
 2354 00f4 49       		.uleb128 0x49
 2355 00f5 13       		.uleb128 0x13
 2356 00f6 02       		.uleb128 0x2
 2357 00f7 17       		.uleb128 0x17
 2358 00f8 00       		.byte	0
 2359 00f9 00       		.byte	0
 2360 00fa 14       		.uleb128 0x14
 2361 00fb 898201   		.uleb128 0x4109
 2362 00fe 01       		.byte	0x1
 2363 00ff 11       		.uleb128 0x11
 2364 0100 01       		.uleb128 0x1
 2365 0101 31       		.uleb128 0x31
 2366 0102 13       		.uleb128 0x13
 2367 0103 00       		.byte	0
 2368 0104 00       		.byte	0
 2369 0105 15       		.uleb128 0x15
 2370 0106 8A8201   		.uleb128 0x410a
 2371 0109 00       		.byte	0
 2372 010a 02       		.uleb128 0x2
 2373 010b 18       		.uleb128 0x18
 2374 010c 9142     		.uleb128 0x2111
 2375 010e 18       		.uleb128 0x18
 2376 010f 00       		.byte	0
 2377 0110 00       		.byte	0
 2378 0111 16       		.uleb128 0x16
 2379 0112 898201   		.uleb128 0x4109
 2380 0115 01       		.byte	0x1
 2381 0116 11       		.uleb128 0x11
 2382 0117 01       		.uleb128 0x1
 2383 0118 31       		.uleb128 0x31
 2384 0119 13       		.uleb128 0x13
ARM GAS  C:\Users\jsyoon\AppData\Local\Temp\ccIAH7yv.s 			page 43


 2385 011a 01       		.uleb128 0x1
 2386 011b 13       		.uleb128 0x13
 2387 011c 00       		.byte	0
 2388 011d 00       		.byte	0
 2389 011e 17       		.uleb128 0x17
 2390 011f 898201   		.uleb128 0x4109
 2391 0122 00       		.byte	0
 2392 0123 11       		.uleb128 0x11
 2393 0124 01       		.uleb128 0x1
 2394 0125 31       		.uleb128 0x31
 2395 0126 13       		.uleb128 0x13
 2396 0127 00       		.byte	0
 2397 0128 00       		.byte	0
 2398 0129 18       		.uleb128 0x18
 2399 012a 898201   		.uleb128 0x4109
 2400 012d 00       		.byte	0
 2401 012e 11       		.uleb128 0x11
 2402 012f 01       		.uleb128 0x1
 2403 0130 9542     		.uleb128 0x2115
 2404 0132 19       		.uleb128 0x19
 2405 0133 31       		.uleb128 0x31
 2406 0134 13       		.uleb128 0x13
 2407 0135 00       		.byte	0
 2408 0136 00       		.byte	0
 2409 0137 19       		.uleb128 0x19
 2410 0138 2E       		.uleb128 0x2e
 2411 0139 01       		.byte	0x1
 2412 013a 3F       		.uleb128 0x3f
 2413 013b 19       		.uleb128 0x19
 2414 013c 03       		.uleb128 0x3
 2415 013d 0E       		.uleb128 0xe
 2416 013e 3A       		.uleb128 0x3a
 2417 013f 0B       		.uleb128 0xb
 2418 0140 3B       		.uleb128 0x3b
 2419 0141 0B       		.uleb128 0xb
 2420 0142 27       		.uleb128 0x27
 2421 0143 19       		.uleb128 0x19
 2422 0144 49       		.uleb128 0x49
 2423 0145 13       		.uleb128 0x13
 2424 0146 11       		.uleb128 0x11
 2425 0147 01       		.uleb128 0x1
 2426 0148 12       		.uleb128 0x12
 2427 0149 06       		.uleb128 0x6
 2428 014a 40       		.uleb128 0x40
 2429 014b 18       		.uleb128 0x18
 2430 014c 9742     		.uleb128 0x2117
 2431 014e 19       		.uleb128 0x19
 2432 014f 01       		.uleb128 0x1
 2433 0150 13       		.uleb128 0x13
 2434 0151 00       		.byte	0
 2435 0152 00       		.byte	0
 2436 0153 1A       		.uleb128 0x1a
 2437 0154 05       		.uleb128 0x5
 2438 0155 00       		.byte	0
 2439 0156 03       		.uleb128 0x3
 2440 0157 0E       		.uleb128 0xe
 2441 0158 3A       		.uleb128 0x3a
ARM GAS  C:\Users\jsyoon\AppData\Local\Temp\ccIAH7yv.s 			page 44


 2442 0159 0B       		.uleb128 0xb
 2443 015a 3B       		.uleb128 0x3b
 2444 015b 0B       		.uleb128 0xb
 2445 015c 49       		.uleb128 0x49
 2446 015d 13       		.uleb128 0x13
 2447 015e 02       		.uleb128 0x2
 2448 015f 17       		.uleb128 0x17
 2449 0160 00       		.byte	0
 2450 0161 00       		.byte	0
 2451 0162 1B       		.uleb128 0x1b
 2452 0163 05       		.uleb128 0x5
 2453 0164 00       		.byte	0
 2454 0165 03       		.uleb128 0x3
 2455 0166 08       		.uleb128 0x8
 2456 0167 3A       		.uleb128 0x3a
 2457 0168 0B       		.uleb128 0xb
 2458 0169 3B       		.uleb128 0x3b
 2459 016a 0B       		.uleb128 0xb
 2460 016b 49       		.uleb128 0x49
 2461 016c 13       		.uleb128 0x13
 2462 016d 02       		.uleb128 0x2
 2463 016e 17       		.uleb128 0x17
 2464 016f 00       		.byte	0
 2465 0170 00       		.byte	0
 2466 0171 1C       		.uleb128 0x1c
 2467 0172 34       		.uleb128 0x34
 2468 0173 00       		.byte	0
 2469 0174 03       		.uleb128 0x3
 2470 0175 0E       		.uleb128 0xe
 2471 0176 3A       		.uleb128 0x3a
 2472 0177 0B       		.uleb128 0xb
 2473 0178 3B       		.uleb128 0x3b
 2474 0179 0B       		.uleb128 0xb
 2475 017a 49       		.uleb128 0x49
 2476 017b 13       		.uleb128 0x13
 2477 017c 02       		.uleb128 0x2
 2478 017d 17       		.uleb128 0x17
 2479 017e 00       		.byte	0
 2480 017f 00       		.byte	0
 2481 0180 1D       		.uleb128 0x1d
 2482 0181 0B       		.uleb128 0xb
 2483 0182 01       		.byte	0x1
 2484 0183 55       		.uleb128 0x55
 2485 0184 17       		.uleb128 0x17
 2486 0185 01       		.uleb128 0x1
 2487 0186 13       		.uleb128 0x13
 2488 0187 00       		.byte	0
 2489 0188 00       		.byte	0
 2490 0189 1E       		.uleb128 0x1e
 2491 018a 34       		.uleb128 0x34
 2492 018b 00       		.byte	0
 2493 018c 03       		.uleb128 0x3
 2494 018d 0E       		.uleb128 0xe
 2495 018e 3A       		.uleb128 0x3a
 2496 018f 0B       		.uleb128 0xb
 2497 0190 3B       		.uleb128 0x3b
 2498 0191 0B       		.uleb128 0xb
ARM GAS  C:\Users\jsyoon\AppData\Local\Temp\ccIAH7yv.s 			page 45


 2499 0192 49       		.uleb128 0x49
 2500 0193 13       		.uleb128 0x13
 2501 0194 02       		.uleb128 0x2
 2502 0195 18       		.uleb128 0x18
 2503 0196 00       		.byte	0
 2504 0197 00       		.byte	0
 2505 0198 1F       		.uleb128 0x1f
 2506 0199 01       		.uleb128 0x1
 2507 019a 01       		.byte	0x1
 2508 019b 49       		.uleb128 0x49
 2509 019c 13       		.uleb128 0x13
 2510 019d 01       		.uleb128 0x1
 2511 019e 13       		.uleb128 0x13
 2512 019f 00       		.byte	0
 2513 01a0 00       		.byte	0
 2514 01a1 20       		.uleb128 0x20
 2515 01a2 21       		.uleb128 0x21
 2516 01a3 00       		.byte	0
 2517 01a4 49       		.uleb128 0x49
 2518 01a5 13       		.uleb128 0x13
 2519 01a6 2F       		.uleb128 0x2f
 2520 01a7 0B       		.uleb128 0xb
 2521 01a8 00       		.byte	0
 2522 01a9 00       		.byte	0
 2523 01aa 21       		.uleb128 0x21
 2524 01ab 34       		.uleb128 0x34
 2525 01ac 00       		.byte	0
 2526 01ad 03       		.uleb128 0x3
 2527 01ae 0E       		.uleb128 0xe
 2528 01af 3A       		.uleb128 0x3a
 2529 01b0 0B       		.uleb128 0xb
 2530 01b1 3B       		.uleb128 0x3b
 2531 01b2 05       		.uleb128 0x5
 2532 01b3 49       		.uleb128 0x49
 2533 01b4 13       		.uleb128 0x13
 2534 01b5 3F       		.uleb128 0x3f
 2535 01b6 19       		.uleb128 0x19
 2536 01b7 3C       		.uleb128 0x3c
 2537 01b8 19       		.uleb128 0x19
 2538 01b9 00       		.byte	0
 2539 01ba 00       		.byte	0
 2540 01bb 22       		.uleb128 0x22
 2541 01bc 2E       		.uleb128 0x2e
 2542 01bd 01       		.byte	0x1
 2543 01be 3F       		.uleb128 0x3f
 2544 01bf 19       		.uleb128 0x19
 2545 01c0 03       		.uleb128 0x3
 2546 01c1 0E       		.uleb128 0xe
 2547 01c2 3A       		.uleb128 0x3a
 2548 01c3 0B       		.uleb128 0xb
 2549 01c4 3B       		.uleb128 0x3b
 2550 01c5 0B       		.uleb128 0xb
 2551 01c6 27       		.uleb128 0x27
 2552 01c7 19       		.uleb128 0x19
 2553 01c8 3C       		.uleb128 0x3c
 2554 01c9 19       		.uleb128 0x19
 2555 01ca 01       		.uleb128 0x1
ARM GAS  C:\Users\jsyoon\AppData\Local\Temp\ccIAH7yv.s 			page 46


 2556 01cb 13       		.uleb128 0x13
 2557 01cc 00       		.byte	0
 2558 01cd 00       		.byte	0
 2559 01ce 23       		.uleb128 0x23
 2560 01cf 05       		.uleb128 0x5
 2561 01d0 00       		.byte	0
 2562 01d1 49       		.uleb128 0x49
 2563 01d2 13       		.uleb128 0x13
 2564 01d3 00       		.byte	0
 2565 01d4 00       		.byte	0
 2566 01d5 24       		.uleb128 0x24
 2567 01d6 2E       		.uleb128 0x2e
 2568 01d7 01       		.byte	0x1
 2569 01d8 3F       		.uleb128 0x3f
 2570 01d9 19       		.uleb128 0x19
 2571 01da 03       		.uleb128 0x3
 2572 01db 0E       		.uleb128 0xe
 2573 01dc 3A       		.uleb128 0x3a
 2574 01dd 0B       		.uleb128 0xb
 2575 01de 3B       		.uleb128 0x3b
 2576 01df 0B       		.uleb128 0xb
 2577 01e0 27       		.uleb128 0x27
 2578 01e1 19       		.uleb128 0x19
 2579 01e2 49       		.uleb128 0x49
 2580 01e3 13       		.uleb128 0x13
 2581 01e4 3C       		.uleb128 0x3c
 2582 01e5 19       		.uleb128 0x19
 2583 01e6 01       		.uleb128 0x1
 2584 01e7 13       		.uleb128 0x13
 2585 01e8 00       		.byte	0
 2586 01e9 00       		.byte	0
 2587 01ea 25       		.uleb128 0x25
 2588 01eb 26       		.uleb128 0x26
 2589 01ec 00       		.byte	0
 2590 01ed 00       		.byte	0
 2591 01ee 00       		.byte	0
 2592 01ef 26       		.uleb128 0x26
 2593 01f0 2E       		.uleb128 0x2e
 2594 01f1 00       		.byte	0
 2595 01f2 3F       		.uleb128 0x3f
 2596 01f3 19       		.uleb128 0x19
 2597 01f4 03       		.uleb128 0x3
 2598 01f5 0E       		.uleb128 0xe
 2599 01f6 3A       		.uleb128 0x3a
 2600 01f7 0B       		.uleb128 0xb
 2601 01f8 3B       		.uleb128 0x3b
 2602 01f9 0B       		.uleb128 0xb
 2603 01fa 27       		.uleb128 0x27
 2604 01fb 19       		.uleb128 0x19
 2605 01fc 3C       		.uleb128 0x3c
 2606 01fd 19       		.uleb128 0x19
 2607 01fe 00       		.byte	0
 2608 01ff 00       		.byte	0
 2609 0200 27       		.uleb128 0x27
 2610 0201 2E       		.uleb128 0x2e
 2611 0202 00       		.byte	0
 2612 0203 3F       		.uleb128 0x3f
ARM GAS  C:\Users\jsyoon\AppData\Local\Temp\ccIAH7yv.s 			page 47


 2613 0204 19       		.uleb128 0x19
 2614 0205 03       		.uleb128 0x3
 2615 0206 0E       		.uleb128 0xe
 2616 0207 3A       		.uleb128 0x3a
 2617 0208 0B       		.uleb128 0xb
 2618 0209 3B       		.uleb128 0x3b
 2619 020a 0B       		.uleb128 0xb
 2620 020b 27       		.uleb128 0x27
 2621 020c 19       		.uleb128 0x19
 2622 020d 49       		.uleb128 0x49
 2623 020e 13       		.uleb128 0x13
 2624 020f 3C       		.uleb128 0x3c
 2625 0210 19       		.uleb128 0x19
 2626 0211 00       		.byte	0
 2627 0212 00       		.byte	0
 2628 0213 28       		.uleb128 0x28
 2629 0214 2E       		.uleb128 0x2e
 2630 0215 01       		.byte	0x1
 2631 0216 3F       		.uleb128 0x3f
 2632 0217 19       		.uleb128 0x19
 2633 0218 03       		.uleb128 0x3
 2634 0219 0E       		.uleb128 0xe
 2635 021a 3A       		.uleb128 0x3a
 2636 021b 0B       		.uleb128 0xb
 2637 021c 3B       		.uleb128 0x3b
 2638 021d 05       		.uleb128 0x5
 2639 021e 27       		.uleb128 0x27
 2640 021f 19       		.uleb128 0x19
 2641 0220 3C       		.uleb128 0x3c
 2642 0221 19       		.uleb128 0x19
 2643 0222 01       		.uleb128 0x1
 2644 0223 13       		.uleb128 0x13
 2645 0224 00       		.byte	0
 2646 0225 00       		.byte	0
 2647 0226 29       		.uleb128 0x29
 2648 0227 2E       		.uleb128 0x2e
 2649 0228 01       		.byte	0x1
 2650 0229 3F       		.uleb128 0x3f
 2651 022a 19       		.uleb128 0x19
 2652 022b 03       		.uleb128 0x3
 2653 022c 0E       		.uleb128 0xe
 2654 022d 27       		.uleb128 0x27
 2655 022e 19       		.uleb128 0x19
 2656 022f 49       		.uleb128 0x49
 2657 0230 13       		.uleb128 0x13
 2658 0231 34       		.uleb128 0x34
 2659 0232 19       		.uleb128 0x19
 2660 0233 3C       		.uleb128 0x3c
 2661 0234 19       		.uleb128 0x19
 2662 0235 00       		.byte	0
 2663 0236 00       		.byte	0
 2664 0237 00       		.byte	0
 2665              		.section	.debug_loc,"",%progbits
 2666              	.Ldebug_loc0:
 2667              	.LLST0:
 2668 0000 14000000 		.4byte	.LVL1
 2669 0004 1C000000 		.4byte	.LVL2
ARM GAS  C:\Users\jsyoon\AppData\Local\Temp\ccIAH7yv.s 			page 48


 2670 0008 0200     		.2byte	0x2
 2671 000a 30       		.byte	0x30
 2672 000b 9F       		.byte	0x9f
 2673 000c 1C000000 		.4byte	.LVL2
 2674 0010 56000000 		.4byte	.LVL8
 2675 0014 0900     		.2byte	0x9
 2676 0016 74       		.byte	0x74
 2677 0017 00       		.sleb128 0
 2678 0018 03       		.byte	0x3
 2679 0019 FFFFFFFF 		.4byte	rx_addr_set-1
 2680 001d 1C       		.byte	0x1c
 2681 001e 9F       		.byte	0x9f
 2682 001f 00000000 		.4byte	0
 2683 0023 00000000 		.4byte	0
 2684              	.LLST1:
 2685 0027 1A000000 		.4byte	.LVL11
 2686 002b 1E000000 		.4byte	.LVL12
 2687 002f 0200     		.2byte	0x2
 2688 0031 30       		.byte	0x30
 2689 0032 9F       		.byte	0x9f
 2690 0033 1E000000 		.4byte	.LVL12
 2691 0037 36000000 		.4byte	.LVL15
 2692 003b 0100     		.2byte	0x1
 2693 003d 54       		.byte	0x54
 2694 003e 36000000 		.4byte	.LVL15
 2695 0042 39000000 		.4byte	.LVL16-1
 2696 0046 0100     		.2byte	0x1
 2697 0048 50       		.byte	0x50
 2698 0049 39000000 		.4byte	.LVL16-1
 2699 004d 3A000000 		.4byte	.LVL16
 2700 0051 0300     		.2byte	0x3
 2701 0053 74       		.byte	0x74
 2702 0054 7F       		.sleb128 -1
 2703 0055 9F       		.byte	0x9f
 2704 0056 3A000000 		.4byte	.LVL16
 2705 005a 46000000 		.4byte	.LVL17
 2706 005e 0100     		.2byte	0x1
 2707 0060 54       		.byte	0x54
 2708 0061 00000000 		.4byte	0
 2709 0065 00000000 		.4byte	0
 2710              	.LLST2:
 2711 0069 00000000 		.4byte	.LVL19
 2712 006d 0A000000 		.4byte	.LVL20
 2713 0071 0100     		.2byte	0x1
 2714 0073 50       		.byte	0x50
 2715 0074 0A000000 		.4byte	.LVL20
 2716 0078 2A000000 		.4byte	.LVL27
 2717 007c 0100     		.2byte	0x1
 2718 007e 54       		.byte	0x54
 2719 007f 2A000000 		.4byte	.LVL27
 2720 0083 68000000 		.4byte	.LVL41
 2721 0087 0400     		.2byte	0x4
 2722 0089 F3       		.byte	0xf3
 2723 008a 01       		.uleb128 0x1
 2724 008b 50       		.byte	0x50
 2725 008c 9F       		.byte	0x9f
 2726 008d 68000000 		.4byte	.LVL41
ARM GAS  C:\Users\jsyoon\AppData\Local\Temp\ccIAH7yv.s 			page 49


 2727 0091 74000000 		.4byte	.LVL43
 2728 0095 0100     		.2byte	0x1
 2729 0097 54       		.byte	0x54
 2730 0098 74000000 		.4byte	.LVL43
 2731 009c 90000000 		.4byte	.LFE120
 2732 00a0 0400     		.2byte	0x4
 2733 00a2 F3       		.byte	0xf3
 2734 00a3 01       		.uleb128 0x1
 2735 00a4 50       		.byte	0x50
 2736 00a5 9F       		.byte	0x9f
 2737 00a6 00000000 		.4byte	0
 2738 00aa 00000000 		.4byte	0
 2739              	.LLST3:
 2740 00ae 00000000 		.4byte	.LVL19
 2741 00b2 0D000000 		.4byte	.LVL21-1
 2742 00b6 0100     		.2byte	0x1
 2743 00b8 51       		.byte	0x51
 2744 00b9 0D000000 		.4byte	.LVL21-1
 2745 00bd 28000000 		.4byte	.LVL26
 2746 00c1 0100     		.2byte	0x1
 2747 00c3 55       		.byte	0x55
 2748 00c4 28000000 		.4byte	.LVL26
 2749 00c8 68000000 		.4byte	.LVL41
 2750 00cc 0400     		.2byte	0x4
 2751 00ce F3       		.byte	0xf3
 2752 00cf 01       		.uleb128 0x1
 2753 00d0 51       		.byte	0x51
 2754 00d1 9F       		.byte	0x9f
 2755 00d2 68000000 		.4byte	.LVL41
 2756 00d6 74000000 		.4byte	.LVL43
 2757 00da 0100     		.2byte	0x1
 2758 00dc 55       		.byte	0x55
 2759 00dd 74000000 		.4byte	.LVL43
 2760 00e1 90000000 		.4byte	.LFE120
 2761 00e5 0400     		.2byte	0x4
 2762 00e7 F3       		.byte	0xf3
 2763 00e8 01       		.uleb128 0x1
 2764 00e9 51       		.byte	0x51
 2765 00ea 9F       		.byte	0x9f
 2766 00eb 00000000 		.4byte	0
 2767 00ef 00000000 		.4byte	0
 2768              	.LLST4:
 2769 00f3 00000000 		.4byte	.LVL19
 2770 00f7 2A000000 		.4byte	.LVL27
 2771 00fb 0300     		.2byte	0x3
 2772 00fd 08       		.byte	0x8
 2773 00fe 3C       		.byte	0x3c
 2774 00ff 9F       		.byte	0x9f
 2775 0100 2A000000 		.4byte	.LVL27
 2776 0104 30000000 		.4byte	.LVL28
 2777 0108 0300     		.2byte	0x3
 2778 010a 75       		.byte	0x75
 2779 010b 7F       		.sleb128 -1
 2780 010c 9F       		.byte	0x9f
 2781 010d 30000000 		.4byte	.LVL28
 2782 0111 3E000000 		.4byte	.LVL33
 2783 0115 0100     		.2byte	0x1
ARM GAS  C:\Users\jsyoon\AppData\Local\Temp\ccIAH7yv.s 			page 50


 2784 0117 55       		.byte	0x55
 2785 0118 3E000000 		.4byte	.LVL33
 2786 011c 44000000 		.4byte	.LVL34
 2787 0120 0300     		.2byte	0x3
 2788 0122 75       		.byte	0x75
 2789 0123 7F       		.sleb128 -1
 2790 0124 9F       		.byte	0x9f
 2791 0125 5E000000 		.4byte	.LVL38
 2792 0129 68000000 		.4byte	.LVL41
 2793 012d 0300     		.2byte	0x3
 2794 012f 75       		.byte	0x75
 2795 0130 7F       		.sleb128 -1
 2796 0131 9F       		.byte	0x9f
 2797 0132 68000000 		.4byte	.LVL41
 2798 0136 74000000 		.4byte	.LVL43
 2799 013a 0300     		.2byte	0x3
 2800 013c 08       		.byte	0x8
 2801 013d 3C       		.byte	0x3c
 2802 013e 9F       		.byte	0x9f
 2803 013f 74000000 		.4byte	.LVL43
 2804 0143 90000000 		.4byte	.LFE120
 2805 0147 0100     		.2byte	0x1
 2806 0149 55       		.byte	0x55
 2807 014a 00000000 		.4byte	0
 2808 014e 00000000 		.4byte	0
 2809              	.LLST5:
 2810 0152 00000000 		.4byte	.LVL19
 2811 0156 44000000 		.4byte	.LVL34
 2812 015a 0300     		.2byte	0x3
 2813 015c 09       		.byte	0x9
 2814 015d FF       		.byte	0xff
 2815 015e 9F       		.byte	0x9f
 2816 015f 44000000 		.4byte	.LVL34
 2817 0163 5E000000 		.4byte	.LVL38
 2818 0167 0100     		.2byte	0x1
 2819 0169 54       		.byte	0x54
 2820 016a 5E000000 		.4byte	.LVL38
 2821 016e 90000000 		.4byte	.LFE120
 2822 0172 0300     		.2byte	0x3
 2823 0174 09       		.byte	0x9
 2824 0175 FF       		.byte	0xff
 2825 0176 9F       		.byte	0x9f
 2826 0177 00000000 		.4byte	0
 2827 017b 00000000 		.4byte	0
 2828              	.LLST6:
 2829 017f 2A000000 		.4byte	.LVL27
 2830 0183 32000000 		.4byte	.LVL29
 2831 0187 0100     		.2byte	0x1
 2832 0189 54       		.byte	0x54
 2833 018a 38000000 		.4byte	.LVL31
 2834 018e 3A000000 		.4byte	.LVL32
 2835 0192 0100     		.2byte	0x1
 2836 0194 50       		.byte	0x50
 2837 0195 3A000000 		.4byte	.LVL32
 2838 0199 44000000 		.4byte	.LVL34
 2839 019d 0100     		.2byte	0x1
 2840 019f 54       		.byte	0x54
ARM GAS  C:\Users\jsyoon\AppData\Local\Temp\ccIAH7yv.s 			page 51


 2841 01a0 5E000000 		.4byte	.LVL38
 2842 01a4 66000000 		.4byte	.LVL40
 2843 01a8 0100     		.2byte	0x1
 2844 01aa 54       		.byte	0x54
 2845 01ab 74000000 		.4byte	.LVL43
 2846 01af 78000000 		.4byte	.LVL44
 2847 01b3 0100     		.2byte	0x1
 2848 01b5 54       		.byte	0x54
 2849 01b6 00000000 		.4byte	0
 2850 01ba 00000000 		.4byte	0
 2851              	.LLST7:
 2852 01be 00000000 		.4byte	.LVL45
 2853 01c2 06000000 		.4byte	.LVL46
 2854 01c6 0100     		.2byte	0x1
 2855 01c8 50       		.byte	0x50
 2856 01c9 06000000 		.4byte	.LVL46
 2857 01cd 60000000 		.4byte	.LFE121
 2858 01d1 0100     		.2byte	0x1
 2859 01d3 57       		.byte	0x57
 2860 01d4 00000000 		.4byte	0
 2861 01d8 00000000 		.4byte	0
 2862              	.LLST8:
 2863 01dc 00000000 		.4byte	.LVL45
 2864 01e0 0D000000 		.4byte	.LVL47-1
 2865 01e4 0100     		.2byte	0x1
 2866 01e6 51       		.byte	0x51
 2867 01e7 0D000000 		.4byte	.LVL47-1
 2868 01eb 40000000 		.4byte	.LVL55
 2869 01ef 0100     		.2byte	0x1
 2870 01f1 54       		.byte	0x54
 2871 01f2 40000000 		.4byte	.LVL55
 2872 01f6 4C000000 		.4byte	.LVL58
 2873 01fa 0400     		.2byte	0x4
 2874 01fc F3       		.byte	0xf3
 2875 01fd 01       		.uleb128 0x1
 2876 01fe 51       		.byte	0x51
 2877 01ff 9F       		.byte	0x9f
 2878 0200 4C000000 		.4byte	.LVL58
 2879 0204 54000000 		.4byte	.LVL60
 2880 0208 0100     		.2byte	0x1
 2881 020a 54       		.byte	0x54
 2882 020b 54000000 		.4byte	.LVL60
 2883 020f 56000000 		.4byte	.LVL61
 2884 0213 0400     		.2byte	0x4
 2885 0215 F3       		.byte	0xf3
 2886 0216 01       		.uleb128 0x1
 2887 0217 51       		.byte	0x51
 2888 0218 9F       		.byte	0x9f
 2889 0219 56000000 		.4byte	.LVL61
 2890 021d 5A000000 		.4byte	.LVL62
 2891 0221 0100     		.2byte	0x1
 2892 0223 54       		.byte	0x54
 2893 0224 5A000000 		.4byte	.LVL62
 2894 0228 60000000 		.4byte	.LFE121
 2895 022c 0400     		.2byte	0x4
 2896 022e F3       		.byte	0xf3
 2897 022f 01       		.uleb128 0x1
ARM GAS  C:\Users\jsyoon\AppData\Local\Temp\ccIAH7yv.s 			page 52


 2898 0230 51       		.byte	0x51
 2899 0231 9F       		.byte	0x9f
 2900 0232 00000000 		.4byte	0
 2901 0236 00000000 		.4byte	0
 2902              	.LLST9:
 2903 023a 00000000 		.4byte	.LVL45
 2904 023e 0D000000 		.4byte	.LVL47-1
 2905 0242 0100     		.2byte	0x1
 2906 0244 52       		.byte	0x52
 2907 0245 0D000000 		.4byte	.LVL47-1
 2908 0249 60000000 		.4byte	.LFE121
 2909 024d 0100     		.2byte	0x1
 2910 024f 56       		.byte	0x56
 2911 0250 00000000 		.4byte	0
 2912 0254 00000000 		.4byte	0
 2913              	.LLST10:
 2914 0258 00000000 		.4byte	.LVL45
 2915 025c 44000000 		.4byte	.LVL56
 2916 0260 0300     		.2byte	0x3
 2917 0262 09       		.byte	0x9
 2918 0263 FF       		.byte	0xff
 2919 0264 9F       		.byte	0x9f
 2920 0265 44000000 		.4byte	.LVL56
 2921 0269 4C000000 		.4byte	.LVL58
 2922 026d 0100     		.2byte	0x1
 2923 026f 54       		.byte	0x54
 2924 0270 4C000000 		.4byte	.LVL58
 2925 0274 50000000 		.4byte	.LVL59
 2926 0278 0300     		.2byte	0x3
 2927 027a 09       		.byte	0x9
 2928 027b FF       		.byte	0xff
 2929 027c 9F       		.byte	0x9f
 2930 027d 50000000 		.4byte	.LVL59
 2931 0281 56000000 		.4byte	.LVL61
 2932 0285 0300     		.2byte	0x3
 2933 0287 09       		.byte	0x9
 2934 0288 FE       		.byte	0xfe
 2935 0289 9F       		.byte	0x9f
 2936 028a 56000000 		.4byte	.LVL61
 2937 028e 60000000 		.4byte	.LFE121
 2938 0292 0300     		.2byte	0x3
 2939 0294 09       		.byte	0x9
 2940 0295 FF       		.byte	0xff
 2941 0296 9F       		.byte	0x9f
 2942 0297 00000000 		.4byte	0
 2943 029b 00000000 		.4byte	0
 2944              	.LLST11:
 2945 029f 12000000 		.4byte	.LVL48
 2946 02a3 1D000000 		.4byte	.LVL50-1
 2947 02a7 0100     		.2byte	0x1
 2948 02a9 50       		.byte	0x50
 2949 02aa 3A000000 		.4byte	.LVL53
 2950 02ae 3E000000 		.4byte	.LVL54
 2951 02b2 0100     		.2byte	0x1
 2952 02b4 50       		.byte	0x50
 2953 02b5 56000000 		.4byte	.LVL61
 2954 02b9 60000000 		.4byte	.LFE121
ARM GAS  C:\Users\jsyoon\AppData\Local\Temp\ccIAH7yv.s 			page 53


 2955 02bd 0100     		.2byte	0x1
 2956 02bf 50       		.byte	0x50
 2957 02c0 00000000 		.4byte	0
 2958 02c4 00000000 		.4byte	0
 2959              	.LLST12:
 2960 02c8 0E000000 		.4byte	.LVL65
 2961 02cc 11000000 		.4byte	.LVL66-1
 2962 02d0 0100     		.2byte	0x1
 2963 02d2 50       		.byte	0x50
 2964 02d3 11000000 		.4byte	.LVL66-1
 2965 02d7 16000000 		.4byte	.LVL67
 2966 02db 0100     		.2byte	0x1
 2967 02dd 54       		.byte	0x54
 2968 02de 16000000 		.4byte	.LVL67
 2969 02e2 1C000000 		.4byte	.LFE122
 2970 02e6 0100     		.2byte	0x1
 2971 02e8 50       		.byte	0x50
 2972 02e9 00000000 		.4byte	0
 2973 02ed 00000000 		.4byte	0
 2974              	.LLST13:
 2975 02f1 00000000 		.4byte	.LVL68
 2976 02f5 0A000000 		.4byte	.LVL69
 2977 02f9 0100     		.2byte	0x1
 2978 02fb 50       		.byte	0x50
 2979 02fc 0A000000 		.4byte	.LVL69
 2980 0300 3E000000 		.4byte	.LVL74
 2981 0304 0100     		.2byte	0x1
 2982 0306 56       		.byte	0x56
 2983 0307 3E000000 		.4byte	.LVL74
 2984 030b 58000000 		.4byte	.LFE123
 2985 030f 0400     		.2byte	0x4
 2986 0311 F3       		.byte	0xf3
 2987 0312 01       		.uleb128 0x1
 2988 0313 50       		.byte	0x50
 2989 0314 9F       		.byte	0x9f
 2990 0315 00000000 		.4byte	0
 2991 0319 00000000 		.4byte	0
 2992              	.LLST14:
 2993 031d 00000000 		.4byte	.LVL68
 2994 0321 0D000000 		.4byte	.LVL70-1
 2995 0325 0100     		.2byte	0x1
 2996 0327 51       		.byte	0x51
 2997 0328 0D000000 		.4byte	.LVL70-1
 2998 032c 3E000000 		.4byte	.LVL74
 2999 0330 0100     		.2byte	0x1
 3000 0332 54       		.byte	0x54
 3001 0333 3E000000 		.4byte	.LVL74
 3002 0337 58000000 		.4byte	.LFE123
 3003 033b 0400     		.2byte	0x4
 3004 033d F3       		.byte	0xf3
 3005 033e 01       		.uleb128 0x1
 3006 033f 51       		.byte	0x51
 3007 0340 9F       		.byte	0x9f
 3008 0341 00000000 		.4byte	0
 3009 0345 00000000 		.4byte	0
 3010              	.LLST15:
 3011 0349 00000000 		.4byte	.LVL76
ARM GAS  C:\Users\jsyoon\AppData\Local\Temp\ccIAH7yv.s 			page 54


 3012 034d 08000000 		.4byte	.LVL77
 3013 0351 0100     		.2byte	0x1
 3014 0353 50       		.byte	0x50
 3015 0354 08000000 		.4byte	.LVL77
 3016 0358 50000000 		.4byte	.LVL83
 3017 035c 0100     		.2byte	0x1
 3018 035e 55       		.byte	0x55
 3019 035f 50000000 		.4byte	.LVL83
 3020 0363 6C000000 		.4byte	.LFE124
 3021 0367 0400     		.2byte	0x4
 3022 0369 F3       		.byte	0xf3
 3023 036a 01       		.uleb128 0x1
 3024 036b 50       		.byte	0x50
 3025 036c 9F       		.byte	0x9f
 3026 036d 00000000 		.4byte	0
 3027 0371 00000000 		.4byte	0
 3028              	.LLST16:
 3029 0375 00000000 		.4byte	.LVL76
 3030 0379 0F000000 		.4byte	.LVL78-1
 3031 037d 0100     		.2byte	0x1
 3032 037f 51       		.byte	0x51
 3033 0380 0F000000 		.4byte	.LVL78-1
 3034 0384 50000000 		.4byte	.LVL83
 3035 0388 0100     		.2byte	0x1
 3036 038a 56       		.byte	0x56
 3037 038b 50000000 		.4byte	.LVL83
 3038 038f 6C000000 		.4byte	.LFE124
 3039 0393 0400     		.2byte	0x4
 3040 0395 F3       		.byte	0xf3
 3041 0396 01       		.uleb128 0x1
 3042 0397 51       		.byte	0x51
 3043 0398 9F       		.byte	0x9f
 3044 0399 00000000 		.4byte	0
 3045 039d 00000000 		.4byte	0
 3046              	.LLST17:
 3047 03a1 00000000 		.4byte	.LVL76
 3048 03a5 0F000000 		.4byte	.LVL78-1
 3049 03a9 0100     		.2byte	0x1
 3050 03ab 52       		.byte	0x52
 3051 03ac 0F000000 		.4byte	.LVL78-1
 3052 03b0 42000000 		.4byte	.LVL81
 3053 03b4 0100     		.2byte	0x1
 3054 03b6 54       		.byte	0x54
 3055 03b7 42000000 		.4byte	.LVL81
 3056 03bb 4B000000 		.4byte	.LVL82-1
 3057 03bf 0100     		.2byte	0x1
 3058 03c1 52       		.byte	0x52
 3059 03c2 4B000000 		.4byte	.LVL82-1
 3060 03c6 6C000000 		.4byte	.LFE124
 3061 03ca 0400     		.2byte	0x4
 3062 03cc F3       		.byte	0xf3
 3063 03cd 01       		.uleb128 0x1
 3064 03ce 52       		.byte	0x52
 3065 03cf 9F       		.byte	0x9f
 3066 03d0 00000000 		.4byte	0
 3067 03d4 00000000 		.4byte	0
 3068              		.section	.debug_aranges,"",%progbits
ARM GAS  C:\Users\jsyoon\AppData\Local\Temp\ccIAH7yv.s 			page 55


 3069 0000 4C000000 		.4byte	0x4c
 3070 0004 0200     		.2byte	0x2
 3071 0006 00000000 		.4byte	.Ldebug_info0
 3072 000a 04       		.byte	0x4
 3073 000b 00       		.byte	0
 3074 000c 0000     		.2byte	0
 3075 000e 0000     		.2byte	0
 3076 0010 00000000 		.4byte	.LFB118
 3077 0014 70000000 		.4byte	.LFE118-.LFB118
 3078 0018 00000000 		.4byte	.LFB119
 3079 001c 60000000 		.4byte	.LFE119-.LFB119
 3080 0020 00000000 		.4byte	.LFB120
 3081 0024 90000000 		.4byte	.LFE120-.LFB120
 3082 0028 00000000 		.4byte	.LFB121
 3083 002c 60000000 		.4byte	.LFE121-.LFB121
 3084 0030 00000000 		.4byte	.LFB122
 3085 0034 1C000000 		.4byte	.LFE122-.LFB122
 3086 0038 00000000 		.4byte	.LFB123
 3087 003c 58000000 		.4byte	.LFE123-.LFB123
 3088 0040 00000000 		.4byte	.LFB124
 3089 0044 6C000000 		.4byte	.LFE124-.LFB124
 3090 0048 00000000 		.4byte	0
 3091 004c 00000000 		.4byte	0
 3092              		.section	.debug_ranges,"",%progbits
 3093              	.Ldebug_ranges0:
 3094 0000 2A000000 		.4byte	.LBB4
 3095 0004 44000000 		.4byte	.LBE4
 3096 0008 5E000000 		.4byte	.LBB5
 3097 000c 68000000 		.4byte	.LBE5
 3098 0010 74000000 		.4byte	.LBB6
 3099 0014 90000000 		.4byte	.LBE6
 3100 0018 00000000 		.4byte	0
 3101 001c 00000000 		.4byte	0
 3102 0020 00000000 		.4byte	.LFB118
 3103 0024 70000000 		.4byte	.LFE118
 3104 0028 00000000 		.4byte	.LFB119
 3105 002c 60000000 		.4byte	.LFE119
 3106 0030 00000000 		.4byte	.LFB120
 3107 0034 90000000 		.4byte	.LFE120
 3108 0038 00000000 		.4byte	.LFB121
 3109 003c 60000000 		.4byte	.LFE121
 3110 0040 00000000 		.4byte	.LFB122
 3111 0044 1C000000 		.4byte	.LFE122
 3112 0048 00000000 		.4byte	.LFB123
 3113 004c 58000000 		.4byte	.LFE123
 3114 0050 00000000 		.4byte	.LFB124
 3115 0054 6C000000 		.4byte	.LFE124
 3116 0058 00000000 		.4byte	0
 3117 005c 00000000 		.4byte	0
 3118              		.section	.debug_line,"",%progbits
 3119              	.Ldebug_line0:
 3120 0000 01030000 		.section	.debug_str,"MS",%progbits,1
 3120      02000002 
 3120      00000201 
 3120      FB0E0D00 
 3120      01010101 
 3121              	.LASF88:
ARM GAS  C:\Users\jsyoon\AppData\Local\Temp\ccIAH7yv.s 			page 56


 3122 0000 72665F69 		.ascii	"rf_init\000"
 3122      6E697400 
 3123              	.LASF15:
 3124 0008 73697A65 		.ascii	"size_t\000"
 3124      5F7400
 3125              	.LASF55:
 3126 000f 7264796D 		.ascii	"rdymsg\000"
 3126      736700
 3127              	.LASF69:
 3128 0016 72666865 		.ascii	"rfhelp_rf_status\000"
 3128      6C705F72 
 3128      665F7374 
 3128      61747573 
 3128      00
 3129              	.LASF82:
 3130 0027 72665F73 		.ascii	"rf_set_rx_addr\000"
 3130      65745F72 
 3130      785F6164 
 3130      647200
 3131              	.LASF4:
 3132 0036 5F5F7569 		.ascii	"__uint8_t\000"
 3132      6E74385F 
 3132      7400
 3133              	.LASF75:
 3134 0040 72785F61 		.ascii	"rx_addr\000"
 3134      64647200 
 3135              	.LASF84:
 3136 0048 72665F73 		.ascii	"rf_set_tx_addr\000"
 3136      65745F74 
 3136      785F6164 
 3136      647200
 3137              	.LASF64:
 3138 0057 72657476 		.ascii	"retval\000"
 3138      616C00
 3139              	.LASF76:
 3140 005e 74785F61 		.ascii	"tx_addr\000"
 3140      64647200 
 3141              	.LASF45:
 3142 0066 54687265 		.ascii	"ThreadsQueue\000"
 3142      61647351 
 3142      75657565 
 3142      00
 3143              	.LASF89:
 3144 0073 72665F63 		.ascii	"rf_clear_maxrt_irq\000"
 3144      6C656172 
 3144      5F6D6178 
 3144      72745F69 
 3144      727100
 3145              	.LASF61:
 3146 0086 72666865 		.ascii	"rfhelp_restart\000"
 3146      6C705F72 
 3146      65737461 
 3146      727400
 3147              	.LASF91:
 3148 0095 72665F63 		.ascii	"rf_clear_irq\000"
 3148      6C656172 
 3148      5F697271 
ARM GAS  C:\Users\jsyoon\AppData\Local\Temp\ccIAH7yv.s 			page 57


 3148      00
 3149              	.LASF28:
 3150 00a2 705F7072 		.ascii	"p_prio\000"
 3150      696F00
 3151              	.LASF85:
 3152 00a9 63684D74 		.ascii	"chMtxUnlock\000"
 3152      78556E6C 
 3152      6F636B00 
 3153              	.LASF0:
 3154 00b5 7369676E 		.ascii	"signed char\000"
 3154      65642063 
 3154      68617200 
 3155              	.LASF44:
 3156 00c1 705F6D70 		.ascii	"p_mpool\000"
 3156      6F6F6C00 
 3157              	.LASF10:
 3158 00c9 6C6F6E67 		.ascii	"long long unsigned int\000"
 3158      206C6F6E 
 3158      6720756E 
 3158      7369676E 
 3158      65642069 
 3159              	.LASF52:
 3160 00e0 6D5F7175 		.ascii	"m_queue\000"
 3160      65756500 
 3161              	.LASF20:
 3162 00e8 74736C69 		.ascii	"tslices_t\000"
 3162      6365735F 
 3162      7400
 3163              	.LASF100:
 3164 00f2 453A5C4D 		.ascii	"E:\\Maker\\BLDC\\test_eval\\try2\\OROCA-BLDC_R15080"
 3164      616B6572 
 3164      5C424C44 
 3164      435C7465 
 3164      73745F65 
 3165 0120 3700     		.ascii	"7\000"
 3166              	.LASF6:
 3167 0122 6C6F6E67 		.ascii	"long int\000"
 3167      20696E74 
 3167      00
 3168              	.LASF18:
 3169 012b 74737461 		.ascii	"tstate_t\000"
 3169      74655F74 
 3169      00
 3170              	.LASF98:
 3171 0134 474E5520 		.ascii	"GNU C 4.8.4 20140526 (release) [ARM/embedded-4_8-br"
 3171      4320342E 
 3171      382E3420 
 3171      32303134 
 3171      30353236 
 3172 0167 616E6368 		.ascii	"anch revision 211358] -mcpu=cortex-m4 -mfloat-abi=h"
 3172      20726576 
 3172      6973696F 
 3172      6E203231 
 3172      31333538 
 3173 019a 61726420 		.ascii	"ard -mfpu=fpv4-sp-d16 -mno-thumb-interwork -mthumb "
 3173      2D6D6670 
 3173      753D6670 
ARM GAS  C:\Users\jsyoon\AppData\Local\Temp\ccIAH7yv.s 			page 58


 3173      76342D73 
 3173      702D6431 
 3174 01cd 2D676764 		.ascii	"-ggdb -O2 -std=gnu99 -fomit-frame-pointer -falign-f"
 3174      62202D4F 
 3174      32202D73 
 3174      74643D67 
 3174      6E753939 
 3175 0200 756E6374 		.ascii	"unctions=16 -ffunction-sections -fdata-sections -fn"
 3175      696F6E73 
 3175      3D313620 
 3175      2D666675 
 3175      6E637469 
 3176 0233 6F2D636F 		.ascii	"o-common -fsingle-precision-constant\000"
 3176      6D6D6F6E 
 3176      202D6673 
 3176      696E676C 
 3176      652D7072 
 3177              	.LASF103:
 3178 0258 6D656D63 		.ascii	"memcpy\000"
 3178      707900
 3179              	.LASF77:
 3180 025f 72785F61 		.ascii	"rx_addr_set\000"
 3180      6464725F 
 3180      73657400 
 3181              	.LASF30:
 3182 026b 705F6E65 		.ascii	"p_newer\000"
 3182      77657200 
 3183              	.LASF96:
 3184 0273 72665F72 		.ascii	"rf_read_rx_payload\000"
 3184      6561645F 
 3184      72785F70 
 3184      61796C6F 
 3184      616400
 3185              	.LASF56:
 3186 0286 65786974 		.ascii	"exitcode\000"
 3186      636F6465 
 3186      00
 3187              	.LASF7:
 3188 028f 5F5F7569 		.ascii	"__uint32_t\000"
 3188      6E743332 
 3188      5F7400
 3189              	.LASF47:
 3190 029a 72656761 		.ascii	"regarm_t\000"
 3190      726D5F74 
 3190      00
 3191              	.LASF9:
 3192 02a3 6C6F6E67 		.ascii	"long long int\000"
 3192      206C6F6E 
 3192      6720696E 
 3192      7400
 3193              	.LASF11:
 3194 02b1 756E7369 		.ascii	"unsigned int\000"
 3194      676E6564 
 3194      20696E74 
 3194      00
 3195              	.LASF90:
 3196 02be 72665F6D 		.ascii	"rf_mode_tx\000"
ARM GAS  C:\Users\jsyoon\AppData\Local\Temp\ccIAH7yv.s 			page 59


 3196      6F64655F 
 3196      747800
 3197              	.LASF63:
 3198 02c9 74696D65 		.ascii	"timeout\000"
 3198      6F757400 
 3199              	.LASF72:
 3200 02d1 61646472 		.ascii	"addr_len\000"
 3200      5F6C656E 
 3200      00
 3201              	.LASF51:
 3202 02da 4D757465 		.ascii	"Mutex\000"
 3202      7800
 3203              	.LASF49:
 3204 02e0 636F6E74 		.ascii	"context\000"
 3204      65787400 
 3205              	.LASF3:
 3206 02e8 73686F72 		.ascii	"short unsigned int\000"
 3206      7420756E 
 3206      7369676E 
 3206      65642069 
 3206      6E7400
 3207              	.LASF22:
 3208 02fb 6D73675F 		.ascii	"msg_t\000"
 3208      7400
 3209              	.LASF93:
 3210 0301 72665F77 		.ascii	"rf_write_tx_payload\000"
 3210      72697465 
 3210      5F74785F 
 3210      7061796C 
 3210      6F616400 
 3211              	.LASF17:
 3212 0315 746D6F64 		.ascii	"tmode_t\000"
 3212      655F7400 
 3213              	.LASF46:
 3214 031d 54687265 		.ascii	"ThreadsList\000"
 3214      6164734C 
 3214      69737400 
 3215              	.LASF23:
 3216 0329 6576656E 		.ascii	"eventmask_t\000"
 3216      746D6173 
 3216      6B5F7400 
 3217              	.LASF68:
 3218 0335 70697065 		.ascii	"pipe_n\000"
 3218      5F6E00
 3219              	.LASF92:
 3220 033c 72665F66 		.ascii	"rf_flush_all\000"
 3220      6C757368 
 3220      5F616C6C 
 3220      00
 3221              	.LASF86:
 3222 0349 72665F73 		.ascii	"rf_status\000"
 3222      74617475 
 3222      7300
 3223              	.LASF50:
 3224 0353 73697A65 		.ascii	"sizetype\000"
 3224      74797065 
 3224      00
ARM GAS  C:\Users\jsyoon\AppData\Local\Temp\ccIAH7yv.s 			page 60


 3225              	.LASF83:
 3226 035c 63684D74 		.ascii	"chMtxLock\000"
 3226      784C6F63 
 3226      6B00
 3227              	.LASF97:
 3228 0366 72665F63 		.ascii	"rf_clear_rx_irq\000"
 3228      6C656172 
 3228      5F72785F 
 3228      69727100 
 3229              	.LASF31:
 3230 0376 705F6F6C 		.ascii	"p_older\000"
 3230      64657200 
 3231              	.LASF19:
 3232 037e 74726566 		.ascii	"trefs_t\000"
 3232      735F7400 
 3233              	.LASF27:
 3234 0386 705F7072 		.ascii	"p_prev\000"
 3234      657600
 3235              	.LASF21:
 3236 038d 74707269 		.ascii	"tprio_t\000"
 3236      6F5F7400 
 3237              	.LASF71:
 3238 0395 61646472 		.ascii	"addr\000"
 3238      00
 3239              	.LASF16:
 3240 039a 5F426F6F 		.ascii	"_Bool\000"
 3240      6C00
 3241              	.LASF13:
 3242 03a0 696E7433 		.ascii	"int32_t\000"
 3242      325F7400 
 3243              	.LASF1:
 3244 03a8 756E7369 		.ascii	"unsigned char\000"
 3244      676E6564 
 3244      20636861 
 3244      7200
 3245              	.LASF101:
 3246 03b6 49544D5F 		.ascii	"ITM_RxBuffer\000"
 3246      52784275 
 3246      66666572 
 3246      00
 3247              	.LASF94:
 3248 03c3 72665F6D 		.ascii	"rf_mode_rx\000"
 3248      6F64655F 
 3248      727800
 3249              	.LASF74:
 3250 03ce 72665F6D 		.ascii	"rf_mutex\000"
 3250      75746578 
 3250      00
 3251              	.LASF42:
 3252 03d7 705F6D74 		.ascii	"p_mtxlist\000"
 3252      786C6973 
 3252      7400
 3253              	.LASF2:
 3254 03e1 73686F72 		.ascii	"short int\000"
 3254      7420696E 
 3254      7400
 3255              	.LASF33:
ARM GAS  C:\Users\jsyoon\AppData\Local\Temp\ccIAH7yv.s 			page 61


 3256 03eb 705F7374 		.ascii	"p_state\000"
 3256      61746500 
 3257              	.LASF36:
 3258 03f3 705F7072 		.ascii	"p_preempt\000"
 3258      65656D70 
 3258      7400
 3259              	.LASF78:
 3260 03fd 61646472 		.ascii	"address_length\000"
 3260      6573735F 
 3260      6C656E67 
 3260      746800
 3261              	.LASF95:
 3262 040c 72665F67 		.ascii	"rf_get_payload_width\000"
 3262      65745F70 
 3262      61796C6F 
 3262      61645F77 
 3262      69647468 
 3263              	.LASF58:
 3264 0421 65776D61 		.ascii	"ewmask\000"
 3264      736B00
 3265              	.LASF26:
 3266 0428 705F6E65 		.ascii	"p_next\000"
 3266      787400
 3267              	.LASF34:
 3268 042f 705F666C 		.ascii	"p_flags\000"
 3268      61677300 
 3269              	.LASF25:
 3270 0437 54687265 		.ascii	"Thread\000"
 3270      616400
 3271              	.LASF73:
 3272 043e 72666865 		.ascii	"rfhelp_set_rx_addr\000"
 3272      6C705F73 
 3272      65745F72 
 3272      785F6164 
 3272      647200
 3273              	.LASF41:
 3274 0451 705F6570 		.ascii	"p_epending\000"
 3274      656E6469 
 3274      6E6700
 3275              	.LASF14:
 3276 045c 75696E74 		.ascii	"uint32_t\000"
 3276      33325F74 
 3276      00
 3277              	.LASF66:
 3278 0465 72666865 		.ascii	"rfhelp_read_rx_data\000"
 3278      6C705F72 
 3278      6561645F 
 3278      72785F64 
 3278      61746100 
 3279              	.LASF70:
 3280 0479 72666865 		.ascii	"rfhelp_set_tx_addr\000"
 3280      6C705F73 
 3280      65745F74 
 3280      785F6164 
 3280      647200
 3281              	.LASF60:
 3282 048c 72666865 		.ascii	"rfhelp_init\000"
ARM GAS  C:\Users\jsyoon\AppData\Local\Temp\ccIAH7yv.s 			page 62


 3282      6C705F69 
 3282      6E697400 
 3283              	.LASF8:
 3284 0498 6C6F6E67 		.ascii	"long unsigned int\000"
 3284      20756E73 
 3284      69676E65 
 3284      6420696E 
 3284      7400
 3285              	.LASF59:
 3286 04aa 63686172 		.ascii	"char\000"
 3286      00
 3287              	.LASF67:
 3288 04af 70697065 		.ascii	"pipe\000"
 3288      00
 3289              	.LASF54:
 3290 04b4 6D5F6E65 		.ascii	"m_next\000"
 3290      787400
 3291              	.LASF24:
 3292 04bb 73797374 		.ascii	"systime_t\000"
 3292      696D655F 
 3292      7400
 3293              	.LASF43:
 3294 04c5 705F7265 		.ascii	"p_realprio\000"
 3294      616C7072 
 3294      696F00
 3295              	.LASF5:
 3296 04d0 5F5F696E 		.ascii	"__int32_t\000"
 3296      7433325F 
 3296      7400
 3297              	.LASF80:
 3298 04da 72665F72 		.ascii	"rf_read_reg\000"
 3298      6561645F 
 3298      72656700 
 3299              	.LASF102:
 3300 04e6 6D656D63 		.ascii	"memcmp\000"
 3300      6D7000
 3301              	.LASF62:
 3302 04ed 64617461 		.ascii	"data\000"
 3302      00
 3303              	.LASF37:
 3304 04f2 705F7469 		.ascii	"p_time\000"
 3304      6D6500
 3305              	.LASF48:
 3306 04f9 696E7463 		.ascii	"intctx\000"
 3306      747800
 3307              	.LASF39:
 3308 0500 705F6D73 		.ascii	"p_msgqueue\000"
 3308      67717565 
 3308      756500
 3309              	.LASF81:
 3310 050b 63684D74 		.ascii	"chMtxInit\000"
 3310      78496E69 
 3310      7400
 3311              	.LASF87:
 3312 0515 63685468 		.ascii	"chThdSleep\000"
 3312      64536C65 
 3312      657000
ARM GAS  C:\Users\jsyoon\AppData\Local\Temp\ccIAH7yv.s 			page 63


 3313              	.LASF35:
 3314 0520 705F7265 		.ascii	"p_refs\000"
 3314      667300
 3315              	.LASF99:
 3316 0527 6E72662F 		.ascii	"nrf/rfhelp.c\000"
 3316      72666865 
 3316      6C702E63 
 3316      00
 3317              	.LASF12:
 3318 0534 75696E74 		.ascii	"uint8_t\000"
 3318      385F7400 
 3319              	.LASF79:
 3320 053c 74785F70 		.ascii	"tx_pipe0_addr_eq\000"
 3320      69706530 
 3320      5F616464 
 3320      725F6571 
 3320      00
 3321              	.LASF65:
 3322 054d 72666865 		.ascii	"rfhelp_send_data\000"
 3322      6C705F73 
 3322      656E645F 
 3322      64617461 
 3322      00
 3323              	.LASF57:
 3324 055e 77746F62 		.ascii	"wtobjp\000"
 3324      6A7000
 3325              	.LASF32:
 3326 0565 705F6E61 		.ascii	"p_name\000"
 3326      6D6500
 3327              	.LASF40:
 3328 056c 705F6D73 		.ascii	"p_msg\000"
 3328      6700
 3329              	.LASF53:
 3330 0572 6D5F6F77 		.ascii	"m_owner\000"
 3330      6E657200 
 3331              	.LASF29:
 3332 057a 705F6374 		.ascii	"p_ctx\000"
 3332      7800
 3333              	.LASF38:
 3334 0580 705F7761 		.ascii	"p_waiting\000"
 3334      6974696E 
 3334      6700
 3335              		.ident	"GCC: (GNU Tools for ARM Embedded Processors) 4.8.4 20140526 (release) [ARM/embedded-4_8-br
ARM GAS  C:\Users\jsyoon\AppData\Local\Temp\ccIAH7yv.s 			page 64


DEFINED SYMBOLS
                            *ABS*:00000000 rfhelp.c
C:\Users\jsyoon\AppData\Local\Temp\ccIAH7yv.s:21     .text.rfhelp_init:00000000 $t
C:\Users\jsyoon\AppData\Local\Temp\ccIAH7yv.s:27     .text.rfhelp_init:00000000 rfhelp_init
C:\Users\jsyoon\AppData\Local\Temp\ccIAH7yv.s:100    .text.rfhelp_init:00000058 $d
C:\Users\jsyoon\AppData\Local\Temp\ccIAH7yv.s:110    .text.rfhelp_restart:00000000 $t
C:\Users\jsyoon\AppData\Local\Temp\ccIAH7yv.s:116    .text.rfhelp_restart:00000000 rfhelp_restart
C:\Users\jsyoon\AppData\Local\Temp\ccIAH7yv.s:188    .text.rfhelp_restart:0000004c $d
C:\Users\jsyoon\AppData\Local\Temp\ccIAH7yv.s:197    .text.rfhelp_send_data:00000000 $t
C:\Users\jsyoon\AppData\Local\Temp\ccIAH7yv.s:203    .text.rfhelp_send_data:00000000 rfhelp_send_data
C:\Users\jsyoon\AppData\Local\Temp\ccIAH7yv.s:328    .text.rfhelp_send_data:0000007c $d
C:\Users\jsyoon\AppData\Local\Temp\ccIAH7yv.s:338    .text.rfhelp_read_rx_data:00000000 $t
C:\Users\jsyoon\AppData\Local\Temp\ccIAH7yv.s:344    .text.rfhelp_read_rx_data:00000000 rfhelp_read_rx_data
C:\Users\jsyoon\AppData\Local\Temp\ccIAH7yv.s:437    .text.rfhelp_read_rx_data:0000005c $d
C:\Users\jsyoon\AppData\Local\Temp\ccIAH7yv.s:442    .text.rfhelp_rf_status:00000000 $t
C:\Users\jsyoon\AppData\Local\Temp\ccIAH7yv.s:448    .text.rfhelp_rf_status:00000000 rfhelp_rf_status
C:\Users\jsyoon\AppData\Local\Temp\ccIAH7yv.s:477    .text.rfhelp_rf_status:00000018 $d
C:\Users\jsyoon\AppData\Local\Temp\ccIAH7yv.s:482    .text.rfhelp_set_tx_addr:00000000 $t
C:\Users\jsyoon\AppData\Local\Temp\ccIAH7yv.s:488    .text.rfhelp_set_tx_addr:00000000 rfhelp_set_tx_addr
C:\Users\jsyoon\AppData\Local\Temp\ccIAH7yv.s:549    .text.rfhelp_set_tx_addr:00000044 $d
C:\Users\jsyoon\AppData\Local\Temp\ccIAH7yv.s:558    .text.rfhelp_set_rx_addr:00000000 $t
C:\Users\jsyoon\AppData\Local\Temp\ccIAH7yv.s:564    .text.rfhelp_set_rx_addr:00000000 rfhelp_set_rx_addr
C:\Users\jsyoon\AppData\Local\Temp\ccIAH7yv.s:640    .text.rfhelp_set_rx_addr:00000054 $d
C:\Users\jsyoon\AppData\Local\Temp\ccIAH7yv.s:650    .bss.tx_addr:00000000 $d
C:\Users\jsyoon\AppData\Local\Temp\ccIAH7yv.s:654    .bss.tx_addr:00000000 tx_addr
C:\Users\jsyoon\AppData\Local\Temp\ccIAH7yv.s:657    .bss.rx_addr_set:00000000 $d
C:\Users\jsyoon\AppData\Local\Temp\ccIAH7yv.s:661    .bss.rx_addr_set:00000000 rx_addr_set
C:\Users\jsyoon\AppData\Local\Temp\ccIAH7yv.s:664    .bss.rf_mutex:00000000 $d
C:\Users\jsyoon\AppData\Local\Temp\ccIAH7yv.s:668    .bss.rf_mutex:00000000 rf_mutex
C:\Users\jsyoon\AppData\Local\Temp\ccIAH7yv.s:671    .bss.rx_addr:00000000 $d
C:\Users\jsyoon\AppData\Local\Temp\ccIAH7yv.s:675    .bss.rx_addr:00000000 rx_addr
C:\Users\jsyoon\AppData\Local\Temp\ccIAH7yv.s:678    .bss.address_length:00000000 $d
C:\Users\jsyoon\AppData\Local\Temp\ccIAH7yv.s:682    .bss.address_length:00000000 address_length
C:\Users\jsyoon\AppData\Local\Temp\ccIAH7yv.s:688    .bss.tx_pipe0_addr_eq:00000000 tx_pipe0_addr_eq
C:\Users\jsyoon\AppData\Local\Temp\ccIAH7yv.s:689    .bss.tx_pipe0_addr_eq:00000000 $d
                     .debug_frame:00000010 $d
C:\Users\jsyoon\AppData\Local\Temp\ccIAH7yv.s:481    .text.rfhelp_rf_status:0000001c $t
C:\Users\jsyoon\AppData\Local\Temp\ccIAH7yv.s:557    .text.rfhelp_set_tx_addr:00000058 $t
C:\Users\jsyoon\AppData\Local\Temp\ccIAH7yv.s:649    .text.rfhelp_set_rx_addr:0000006c $t

UNDEFINED SYMBOLS
chMtxInit
rf_read_reg
memcmp
chMtxLock
rf_init
rf_set_tx_addr
rf_set_rx_addr
chMtxUnlock
rf_mode_tx
rf_clear_irq
rf_flush_all
rf_write_tx_payload
rf_status
chThdSleep
rf_mode_rx
rf_clear_maxrt_irq
ARM GAS  C:\Users\jsyoon\AppData\Local\Temp\ccIAH7yv.s 			page 65


rf_get_payload_width
rf_read_rx_payload
rf_clear_rx_irq
memcpy
