ARM GAS  C:\Users\jsyoon\AppData\Local\Temp\ccolcu6E.s 			page 1


   1              		.syntax unified
   2              		.cpu cortex-m4
   3              		.eabi_attribute 27, 3
   4              		.eabi_attribute 28, 1
   5              		.fpu fpv4-sp-d16
   6              		.eabi_attribute 20, 1
   7              		.eabi_attribute 21, 1
   8              		.eabi_attribute 23, 3
   9              		.eabi_attribute 24, 1
  10              		.eabi_attribute 25, 1
  11              		.eabi_attribute 26, 1
  12              		.eabi_attribute 30, 2
  13              		.eabi_attribute 34, 1
  14              		.eabi_attribute 18, 4
  15              		.thumb
  16              		.file	"serial_usb.c"
  17              		.text
  18              	.Ltext0:
  19              		.cfi_sections	.debug_frame
  20              		.section	.text.onotify,"ax",%progbits
  21              		.align	2
  22              		.p2align 4,,15
  23              		.thumb
  24              		.thumb_func
  25              		.type	onotify, %function
  26              	onotify:
  27              	.LFB127:
  28              		.file 1 "ChibiOS_2.6.6/os/hal/src/serial_usb.c"
  29              		.loc 1 150 0
  30              		.cfi_startproc
  31              		@ args = 0, pretend = 0, frame = 0
  32              		@ frame_needed = 0, uses_anonymous_args = 0
  33              	.LVL0:
  34 0000 10B5     		push	{r4, lr}
  35              		.cfi_def_cfa_offset 8
  36              		.cfi_offset 4, -8
  37              		.cfi_offset 14, -4
  38              		.loc 1 152 0
  39 0002 046A     		ldr	r4, [r0, #32]
  40              	.LVL1:
  41              		.loc 1 156 0
  42 0004 D4F85432 		ldr	r3, [r4, #596]
  43 0008 1A68     		ldr	r2, [r3]
  44 000a 1178     		ldrb	r1, [r2]	@ zero_extendqisi2
  45 000c 0429     		cmp	r1, #4
  46 000e 00D0     		beq	.L7
  47              	.L1:
  48 0010 10BD     		pop	{r4, pc}
  49              	.LVL2:
  50              	.L7:
  51              		.loc 1 156 0 is_stmt 0 discriminator 1
  52 0012 217A     		ldrb	r1, [r4, #8]	@ zero_extendqisi2
  53 0014 0229     		cmp	r1, #2
  54 0016 FBD1     		bne	.L1
  55              		.loc 1 162 0 is_stmt 1
  56 0018 1289     		ldrh	r2, [r2, #8]
  57 001a 1B79     		ldrb	r3, [r3, #4]	@ zero_extendqisi2
ARM GAS  C:\Users\jsyoon\AppData\Local\Temp\ccolcu6E.s 			page 2


  58 001c 42FA03F3 		asr	r3, r2, r3
  59 0020 DB07     		lsls	r3, r3, #31
  60 0022 F5D4     		bmi	.L1
  61              		.loc 1 163 0 discriminator 1
  62 0024 216C     		ldr	r1, [r4, #64]
  63 0026 E26B     		ldr	r2, [r4, #60]
  64 0028 A36B     		ldr	r3, [r4, #56]
  65 002a 8A1A     		subs	r2, r1, r2
  66              	.LVL3:
  67              		.loc 1 162 0 discriminator 1
  68 002c D31A     		subs	r3, r2, r3
  69              	.LVL4:
  70 002e EFD0     		beq	.L1
  71              		.loc 1 164 0
  72              	@ 164 "ChibiOS_2.6.6/os/hal/src/serial_usb.c" 1
  73 0030 62B6     		cpsie   i
  74              	@ 0 "" 2
  75              		.loc 1 166 0
  76              		.thumb
  77 0032 D4F85422 		ldr	r2, [r4, #596]
  78 0036 1068     		ldr	r0, [r2]
  79              	.LVL5:
  80 0038 1179     		ldrb	r1, [r2, #4]	@ zero_extendqisi2
  81 003a 04F13002 		add	r2, r4, #48
  82 003e FFF7FEFF 		bl	usbPrepareQueuedTransmit
  83              	.LVL6:
  84              		.loc 1 170 0
  85              	@ 170 "ChibiOS_2.6.6/os/hal/src/serial_usb.c" 1
  86 0042 72B6     		cpsid   i
  87              	@ 0 "" 2
  88              		.loc 1 171 0
  89              		.thumb
  90 0044 D4F85432 		ldr	r3, [r4, #596]
  91              		.loc 1 173 0
  92 0048 BDE81040 		pop	{r4, lr}
  93              	.LVL7:
  94              		.loc 1 171 0
  95 004c 1868     		ldr	r0, [r3]
  96 004e 1979     		ldrb	r1, [r3, #4]	@ zero_extendqisi2
  97 0050 FFF7FEBF 		b	usbStartTransmitI
  98              	.LVL8:
  99              		.cfi_endproc
 100              	.LFE127:
 101              		.size	onotify, .-onotify
 102 0054 AFF30080 		.section	.text.inotify,"ax",%progbits
 102      AFF30080 
 102      AFF30080 
 103              		.align	2
 104              		.p2align 4,,15
 105              		.thumb
 106              		.thumb_func
 107              		.type	inotify, %function
 108              	inotify:
 109              	.LFB126:
 110              		.loc 1 119 0
 111              		.cfi_startproc
 112              		@ args = 0, pretend = 0, frame = 0
ARM GAS  C:\Users\jsyoon\AppData\Local\Temp\ccolcu6E.s 			page 3


 113              		@ frame_needed = 0, uses_anonymous_args = 0
 114              	.LVL9:
 115 0000 10B5     		push	{r4, lr}
 116              		.cfi_def_cfa_offset 8
 117              		.cfi_offset 4, -8
 118              		.cfi_offset 14, -4
 119              		.loc 1 121 0
 120 0002 046A     		ldr	r4, [r0, #32]
 121              	.LVL10:
 122              		.loc 1 125 0
 123 0004 D4F85422 		ldr	r2, [r4, #596]
 124 0008 1368     		ldr	r3, [r2]
 125 000a 1978     		ldrb	r1, [r3]	@ zero_extendqisi2
 126 000c 0429     		cmp	r1, #4
 127 000e 00D0     		beq	.L10
 128              	.LVL11:
 129              	.L8:
 130 0010 10BD     		pop	{r4, pc}
 131              	.LVL12:
 132              	.L10:
 133              		.loc 1 125 0 is_stmt 0 discriminator 1
 134 0012 217A     		ldrb	r1, [r4, #8]	@ zero_extendqisi2
 135 0014 0229     		cmp	r1, #2
 136 0016 FBD1     		bne	.L8
 137              		.loc 1 132 0 is_stmt 1
 138 0018 5279     		ldrb	r2, [r2, #5]	@ zero_extendqisi2
 139              		.loc 1 133 0
 140 001a 5989     		ldrh	r1, [r3, #10]
 141              		.loc 1 132 0
 142 001c 03EB8203 		add	r3, r3, r2, lsl #2
 143              		.loc 1 133 0
 144 0020 41FA02F2 		asr	r2, r1, r2
 145              		.loc 1 132 0
 146 0024 DB68     		ldr	r3, [r3, #12]
 147              		.loc 1 133 0
 148 0026 D207     		lsls	r2, r2, #31
 149              		.loc 1 132 0
 150 0028 5B8A     		ldrh	r3, [r3, #18]
 151              	.LVL13:
 152              		.loc 1 133 0
 153 002a F1D4     		bmi	.L8
 154              		.loc 1 134 0 discriminator 1
 155 002c E069     		ldr	r0, [r4, #28]
 156              	.LVL14:
 157 002e A269     		ldr	r2, [r4, #24]
 158 0030 6169     		ldr	r1, [r4, #20]
 159 0032 821A     		subs	r2, r0, r2
 160 0034 521A     		subs	r2, r2, r1
 161              	.LVL15:
 162              		.loc 1 133 0 discriminator 1
 163 0036 9342     		cmp	r3, r2
 164 0038 EAD8     		bhi	.L8
 165              		.loc 1 135 0
 166              	@ 135 "ChibiOS_2.6.6/os/hal/src/serial_usb.c" 1
 167 003a 62B6     		cpsie   i
 168              	@ 0 "" 2
 169              		.loc 1 138 0
ARM GAS  C:\Users\jsyoon\AppData\Local\Temp\ccolcu6E.s 			page 4


 170              		.thumb
 171 003c D4F85412 		ldr	r1, [r4, #596]
 172              		.loc 1 137 0
 173 0040 B2FBF3F2 		udiv	r2, r2, r3
 174              	.LVL16:
 175              		.loc 1 138 0
 176 0044 03FB02F3 		mul	r3, r3, r2
 177              	.LVL17:
 178 0048 0868     		ldr	r0, [r1]
 179 004a 4979     		ldrb	r1, [r1, #5]	@ zero_extendqisi2
 180 004c 04F10C02 		add	r2, r4, #12
 181 0050 FFF7FEFF 		bl	usbPrepareQueuedReceive
 182              	.LVL18:
 183              		.loc 1 142 0
 184              	@ 142 "ChibiOS_2.6.6/os/hal/src/serial_usb.c" 1
 185 0054 72B6     		cpsid   i
 186              	@ 0 "" 2
 187              		.loc 1 143 0
 188              		.thumb
 189 0056 D4F85432 		ldr	r3, [r4, #596]
 190              		.loc 1 145 0
 191 005a BDE81040 		pop	{r4, lr}
 192              	.LVL19:
 193              		.loc 1 143 0
 194 005e 1868     		ldr	r0, [r3]
 195 0060 5979     		ldrb	r1, [r3, #5]	@ zero_extendqisi2
 196 0062 FFF7FEBF 		b	usbStartReceiveI
 197              	.LVL20:
 198              		.cfi_endproc
 199              	.LFE126:
 200              		.size	inotify, .-inotify
 201 0066 00BFAFF3 		.section	.text.readt,"ax",%progbits
 201      0080AFF3 
 201      0080
 202              		.align	2
 203              		.p2align 4,,15
 204              		.thumb
 205              		.thumb_func
 206              		.type	readt, %function
 207              	readt:
 208              	.LFB125:
 209              		.loc 1 106 0
 210              		.cfi_startproc
 211              		@ args = 0, pretend = 0, frame = 0
 212              		@ frame_needed = 0, uses_anonymous_args = 0
 213              		@ link register save eliminated.
 214              	.LVL21:
 215              		.loc 1 108 0
 216 0000 0C30     		adds	r0, r0, #12
 217              	.LVL22:
 218 0002 FFF7FEBF 		b	chIQReadTimeout
 219              	.LVL23:
 220              		.cfi_endproc
 221              	.LFE125:
 222              		.size	readt, .-readt
 223 0006 00BFAFF3 		.section	.text.read,"ax",%progbits
 223      0080AFF3 
ARM GAS  C:\Users\jsyoon\AppData\Local\Temp\ccolcu6E.s 			page 5


 223      0080
 224              		.align	2
 225              		.p2align 4,,15
 226              		.thumb
 227              		.thumb_func
 228              		.type	read, %function
 229              	read:
 230              	.LFB119:
 231              		.loc 1 75 0
 232              		.cfi_startproc
 233              		@ args = 0, pretend = 0, frame = 0
 234              		@ frame_needed = 0, uses_anonymous_args = 0
 235              		@ link register save eliminated.
 236              	.LVL24:
 237              		.loc 1 77 0
 238 0000 0C30     		adds	r0, r0, #12
 239              	.LVL25:
 240 0002 4FF0FF33 		mov	r3, #-1
 241 0006 FFF7FEBF 		b	chIQReadTimeout
 242              	.LVL26:
 243              		.cfi_endproc
 244              	.LFE119:
 245              		.size	read, .-read
 246 000a 00BFAFF3 		.section	.text.writet,"ax",%progbits
 246      0080
 247              		.align	2
 248              		.p2align 4,,15
 249              		.thumb
 250              		.thumb_func
 251              		.type	writet, %function
 252              	writet:
 253              	.LFB124:
 254              		.loc 1 101 0
 255              		.cfi_startproc
 256              		@ args = 0, pretend = 0, frame = 0
 257              		@ frame_needed = 0, uses_anonymous_args = 0
 258              		@ link register save eliminated.
 259              	.LVL27:
 260              		.loc 1 103 0
 261 0000 3030     		adds	r0, r0, #48
 262              	.LVL28:
 263 0002 FFF7FEBF 		b	chOQWriteTimeout
 264              	.LVL29:
 265              		.cfi_endproc
 266              	.LFE124:
 267              		.size	writet, .-writet
 268 0006 00BFAFF3 		.section	.text.write,"ax",%progbits
 268      0080AFF3 
 268      0080
 269              		.align	2
 270              		.p2align 4,,15
 271              		.thumb
 272              		.thumb_func
 273              		.type	write, %function
 274              	write:
 275              	.LFB118:
 276              		.loc 1 69 0
ARM GAS  C:\Users\jsyoon\AppData\Local\Temp\ccolcu6E.s 			page 6


 277              		.cfi_startproc
 278              		@ args = 0, pretend = 0, frame = 0
 279              		@ frame_needed = 0, uses_anonymous_args = 0
 280              		@ link register save eliminated.
 281              	.LVL30:
 282              		.loc 1 71 0
 283 0000 3030     		adds	r0, r0, #48
 284              	.LVL31:
 285 0002 4FF0FF33 		mov	r3, #-1
 286 0006 FFF7FEBF 		b	chOQWriteTimeout
 287              	.LVL32:
 288              		.cfi_endproc
 289              	.LFE118:
 290              		.size	write, .-write
 291 000a 00BFAFF3 		.section	.text.gett,"ax",%progbits
 291      0080
 292              		.align	2
 293              		.p2align 4,,15
 294              		.thumb
 295              		.thumb_func
 296              		.type	gett, %function
 297              	gett:
 298              	.LFB123:
 299              		.loc 1 96 0
 300              		.cfi_startproc
 301              		@ args = 0, pretend = 0, frame = 0
 302              		@ frame_needed = 0, uses_anonymous_args = 0
 303              		@ link register save eliminated.
 304              	.LVL33:
 305              		.loc 1 98 0
 306 0000 0C30     		adds	r0, r0, #12
 307              	.LVL34:
 308 0002 FFF7FEBF 		b	chIQGetTimeout
 309              	.LVL35:
 310              		.cfi_endproc
 311              	.LFE123:
 312              		.size	gett, .-gett
 313 0006 00BFAFF3 		.section	.text.get,"ax",%progbits
 313      0080AFF3 
 313      0080
 314              		.align	2
 315              		.p2align 4,,15
 316              		.thumb
 317              		.thumb_func
 318              		.type	get, %function
 319              	get:
 320              	.LFB121:
 321              		.loc 1 86 0
 322              		.cfi_startproc
 323              		@ args = 0, pretend = 0, frame = 0
 324              		@ frame_needed = 0, uses_anonymous_args = 0
 325              		@ link register save eliminated.
 326              	.LVL36:
 327              		.loc 1 88 0
 328 0000 0C30     		adds	r0, r0, #12
 329              	.LVL37:
 330 0002 4FF0FF31 		mov	r1, #-1
ARM GAS  C:\Users\jsyoon\AppData\Local\Temp\ccolcu6E.s 			page 7


 331 0006 FFF7FEBF 		b	chIQGetTimeout
 332              	.LVL38:
 333              		.cfi_endproc
 334              	.LFE121:
 335              		.size	get, .-get
 336 000a 00BFAFF3 		.section	.text.putt,"ax",%progbits
 336      0080
 337              		.align	2
 338              		.p2align 4,,15
 339              		.thumb
 340              		.thumb_func
 341              		.type	putt, %function
 342              	putt:
 343              	.LFB122:
 344              		.loc 1 91 0
 345              		.cfi_startproc
 346              		@ args = 0, pretend = 0, frame = 0
 347              		@ frame_needed = 0, uses_anonymous_args = 0
 348              		@ link register save eliminated.
 349              	.LVL39:
 350              		.loc 1 93 0
 351 0000 3030     		adds	r0, r0, #48
 352              	.LVL40:
 353 0002 FFF7FEBF 		b	chOQPutTimeout
 354              	.LVL41:
 355              		.cfi_endproc
 356              	.LFE122:
 357              		.size	putt, .-putt
 358 0006 00BFAFF3 		.section	.text.put,"ax",%progbits
 358      0080AFF3 
 358      0080
 359              		.align	2
 360              		.p2align 4,,15
 361              		.thumb
 362              		.thumb_func
 363              		.type	put, %function
 364              	put:
 365              	.LFB120:
 366              		.loc 1 81 0
 367              		.cfi_startproc
 368              		@ args = 0, pretend = 0, frame = 0
 369              		@ frame_needed = 0, uses_anonymous_args = 0
 370              		@ link register save eliminated.
 371              	.LVL42:
 372              		.loc 1 83 0
 373 0000 3030     		adds	r0, r0, #48
 374              	.LVL43:
 375 0002 4FF0FF32 		mov	r2, #-1
 376 0006 FFF7FEBF 		b	chOQPutTimeout
 377              	.LVL44:
 378              		.cfi_endproc
 379              	.LFE120:
 380              		.size	put, .-put
 381 000a 00BFAFF3 		.section	.text.sduInit,"ax",%progbits
 381      0080
 382              		.align	2
 383              		.p2align 4,,15
ARM GAS  C:\Users\jsyoon\AppData\Local\Temp\ccolcu6E.s 			page 8


 384              		.global	sduInit
 385              		.thumb
 386              		.thumb_func
 387              		.type	sduInit, %function
 388              	sduInit:
 389              	.LFB128:
 390              		.loc 1 186 0
 391              		.cfi_startproc
 392              		@ args = 0, pretend = 0, frame = 0
 393              		@ frame_needed = 0, uses_anonymous_args = 0
 394              		@ link register save eliminated.
 395 0000 7047     		bx	lr
 396              		.cfi_endproc
 397              	.LFE128:
 398              		.size	sduInit, .-sduInit
 399 0002 00BFAFF3 		.section	.text.sduObjectInit,"ax",%progbits
 399      0080AFF3 
 399      0080AFF3 
 399      0080
 400              		.align	2
 401              		.p2align 4,,15
 402              		.global	sduObjectInit
 403              		.thumb
 404              		.thumb_func
 405              		.type	sduObjectInit, %function
 406              	sduObjectInit:
 407              	.LFB129:
 408              		.loc 1 198 0
 409              		.cfi_startproc
 410              		@ args = 0, pretend = 0, frame = 0
 411              		@ frame_needed = 0, uses_anonymous_args = 0
 412              	.LVL45:
 413              		.loc 1 198 0
 414 0000 10B5     		push	{r4, lr}
 415              		.cfi_def_cfa_offset 8
 416              		.cfi_offset 4, -8
 417              		.cfi_offset 14, -4
 418              		.loc 1 200 0
 419 0002 0346     		mov	r3, r0
 420 0004 0E4A     		ldr	r2, .L21
 421 0006 43F8042B 		str	r2, [r3], #4
 422              		.loc 1 198 0
 423 000a 82B0     		sub	sp, sp, #8
 424              		.cfi_def_cfa_offset 16
 425              		.loc 1 198 0
 426 000c 0446     		mov	r4, r0
 427              		.loc 1 202 0
 428 000e 0122     		movs	r2, #1
 429              		.loc 1 203 0
 430 0010 0090     		str	r0, [sp]
 431 0012 04F15401 		add	r1, r4, #84
 432              		.loc 1 201 0
 433 0016 4360     		str	r3, [r0, #4]
 434              		.loc 1 202 0
 435 0018 0272     		strb	r2, [r0, #8]
 436              		.loc 1 203 0
 437 001a 0A4B     		ldr	r3, .L21+4
ARM GAS  C:\Users\jsyoon\AppData\Local\Temp\ccolcu6E.s 			page 9


 438 001c 0C30     		adds	r0, r0, #12
 439              	.LVL46:
 440 001e 4FF48072 		mov	r2, #256
 441 0022 FFF7FEFF 		bl	chIQInit
 442              	.LVL47:
 443              		.loc 1 204 0
 444 0026 0094     		str	r4, [sp]
 445 0028 04F13000 		add	r0, r4, #48
 446 002c 04F5AA71 		add	r1, r4, #340
 447 0030 4FF48072 		mov	r2, #256
 448 0034 044B     		ldr	r3, .L21+8
 449 0036 FFF7FEFF 		bl	chOQInit
 450              	.LVL48:
 451              		.loc 1 205 0
 452 003a 02B0     		add	sp, sp, #8
 453              		@ sp needed
 454 003c 10BD     		pop	{r4, pc}
 455              	.LVL49:
 456              	.L22:
 457 003e 00BF     		.align	2
 458              	.L21:
 459 0040 00000000 		.word	.LANCHOR0
 460 0044 00000000 		.word	inotify
 461 0048 00000000 		.word	onotify
 462              		.cfi_endproc
 463              	.LFE129:
 464              		.size	sduObjectInit, .-sduObjectInit
 465 004c AFF30080 		.section	.text.sduStart,"ax",%progbits
 466              		.align	2
 467              		.p2align 4,,15
 468              		.global	sduStart
 469              		.thumb
 470              		.thumb_func
 471              		.type	sduStart, %function
 472              	sduStart:
 473              	.LFB130:
 474              		.loc 1 215 0
 475              		.cfi_startproc
 476              		@ args = 0, pretend = 0, frame = 0
 477              		@ frame_needed = 0, uses_anonymous_args = 0
 478              		@ link register save eliminated.
 479              	.LVL50:
 480 0000 10B4     		push	{r4}
 481              		.cfi_def_cfa_offset 4
 482              		.cfi_offset 4, -4
 483              		.loc 1 216 0
 484 0002 0B68     		ldr	r3, [r1]
 485              	.LVL51:
 486              		.loc 1 220 0
 487              	@ 220 "ChibiOS_2.6.6/os/hal/src/serial_usb.c" 1
 488 0004 72B6     		cpsid   i
 489              	@ 0 "" 2
 490              		.loc 1 224 0
 491              		.thumb
 492 0006 0C79     		ldrb	r4, [r1, #4]	@ zero_extendqisi2
 493 0008 03EB8404 		add	r4, r3, r4, lsl #2
 494              		.loc 1 228 0
ARM GAS  C:\Users\jsyoon\AppData\Local\Temp\ccolcu6E.s 			page 10


 495 000c 0222     		movs	r2, #2
 496              		.loc 1 224 0
 497 000e A061     		str	r0, [r4, #24]
 498              		.loc 1 225 0
 499 0010 4C79     		ldrb	r4, [r1, #5]	@ zero_extendqisi2
 500 0012 0934     		adds	r4, r4, #9
 501 0014 43F82400 		str	r0, [r3, r4, lsl #2]
 502              		.loc 1 226 0
 503 0018 8C79     		ldrb	r4, [r1, #6]	@ zero_extendqisi2
 504 001a 03EB8403 		add	r3, r3, r4, lsl #2
 505              	.LVL52:
 506 001e 9861     		str	r0, [r3, #24]
 507              		.loc 1 227 0
 508 0020 C0F85412 		str	r1, [r0, #596]
 509              		.loc 1 228 0
 510 0024 0272     		strb	r2, [r0, #8]
 511              		.loc 1 229 0
 512              	@ 229 "ChibiOS_2.6.6/os/hal/src/serial_usb.c" 1
 513 0026 62B6     		cpsie   i
 514              	@ 0 "" 2
 515              		.loc 1 230 0
 516              		.thumb
 517 0028 5DF8044B 		ldr	r4, [sp], #4
 518 002c 7047     		bx	lr
 519              		.cfi_endproc
 520              	.LFE130:
 521              		.size	sduStart, .-sduStart
 522 002e 00BF     		.section	.text.sduStop,"ax",%progbits
 523              		.align	2
 524              		.p2align 4,,15
 525              		.global	sduStop
 526              		.thumb
 527              		.thumb_func
 528              		.type	sduStop, %function
 529              	sduStop:
 530              	.LFB131:
 531              		.loc 1 241 0
 532              		.cfi_startproc
 533              		@ args = 0, pretend = 0, frame = 0
 534              		@ frame_needed = 0, uses_anonymous_args = 0
 535              	.LVL53:
 536 0000 38B5     		push	{r3, r4, r5, lr}
 537              		.cfi_def_cfa_offset 16
 538              		.cfi_offset 3, -16
 539              		.cfi_offset 4, -12
 540              		.cfi_offset 5, -8
 541              		.cfi_offset 14, -4
 542              		.loc 1 242 0
 543 0002 D0F85432 		ldr	r3, [r0, #596]
 544              		.loc 1 241 0
 545 0006 0446     		mov	r4, r0
 546              		.loc 1 242 0
 547 0008 1A68     		ldr	r2, [r3]
 548              	.LVL54:
 549              		.loc 1 246 0
 550              	@ 246 "ChibiOS_2.6.6/os/hal/src/serial_usb.c" 1
 551 000a 72B6     		cpsid   i
ARM GAS  C:\Users\jsyoon\AppData\Local\Temp\ccolcu6E.s 			page 11


 552              	@ 0 "" 2
 553              		.loc 1 253 0
 554              		.thumb
 555 000c D0F85412 		ldr	r1, [r0, #596]
 556 0010 0879     		ldrb	r0, [r1, #4]	@ zero_extendqisi2
 557              	.LVL55:
 558 0012 0530     		adds	r0, r0, #5
 559 0014 02EB8000 		add	r0, r2, r0, lsl #2
 560 0018 0023     		movs	r3, #0
 561 001a 4360     		str	r3, [r0, #4]
 562              		.loc 1 254 0
 563 001c 4879     		ldrb	r0, [r1, #5]	@ zero_extendqisi2
 564 001e 0930     		adds	r0, r0, #9
 565              		.loc 1 256 0
 566 0020 0125     		movs	r5, #1
 567              		.loc 1 254 0
 568 0022 42F82030 		str	r3, [r2, r0, lsl #2]
 569              		.loc 1 255 0
 570 0026 8979     		ldrb	r1, [r1, #6]	@ zero_extendqisi2
 571 0028 0531     		adds	r1, r1, #5
 572 002a 02EB8102 		add	r2, r2, r1, lsl #2
 573              	.LVL56:
 574              		.loc 1 259 0
 575 002e 201D     		adds	r0, r4, #4
 576              		.loc 1 255 0
 577 0030 5360     		str	r3, [r2, #4]
 578              		.loc 1 259 0
 579 0032 0221     		movs	r1, #2
 580              		.loc 1 256 0
 581 0034 2572     		strb	r5, [r4, #8]
 582              		.loc 1 259 0
 583 0036 FFF7FEFF 		bl	chEvtBroadcastFlagsI
 584              	.LVL57:
 585              		.loc 1 260 0
 586 003a 04F10C00 		add	r0, r4, #12
 587 003e FFF7FEFF 		bl	chIQResetI
 588              	.LVL58:
 589              		.loc 1 261 0
 590 0042 04F13000 		add	r0, r4, #48
 591 0046 FFF7FEFF 		bl	chOQResetI
 592              	.LVL59:
 593              		.loc 1 262 0
 594 004a FFF7FEFF 		bl	chSchRescheduleS
 595              	.LVL60:
 596              		.loc 1 264 0
 597              	@ 264 "ChibiOS_2.6.6/os/hal/src/serial_usb.c" 1
 598 004e 62B6     		cpsie   i
 599              	@ 0 "" 2
 600              		.thumb
 601 0050 38BD     		pop	{r3, r4, r5, pc}
 602              		.cfi_endproc
 603              	.LFE131:
 604              		.size	sduStop, .-sduStop
 605 0052 00BFAFF3 		.section	.text.sduConfigureHookI,"ax",%progbits
 605      0080AFF3 
 605      0080AFF3 
 605      0080
ARM GAS  C:\Users\jsyoon\AppData\Local\Temp\ccolcu6E.s 			page 12


 606              		.align	2
 607              		.p2align 4,,15
 608              		.global	sduConfigureHookI
 609              		.thumb
 610              		.thumb_func
 611              		.type	sduConfigureHookI, %function
 612              	sduConfigureHookI:
 613              	.LFB132:
 614              		.loc 1 274 0
 615              		.cfi_startproc
 616              		@ args = 0, pretend = 0, frame = 0
 617              		@ frame_needed = 0, uses_anonymous_args = 0
 618              	.LVL61:
 619 0000 70B5     		push	{r4, r5, r6, lr}
 620              		.cfi_def_cfa_offset 16
 621              		.cfi_offset 4, -16
 622              		.cfi_offset 5, -12
 623              		.cfi_offset 6, -8
 624              		.cfi_offset 14, -4
 625              		.loc 1 275 0
 626 0002 D0F85432 		ldr	r3, [r0, #596]
 627              		.loc 1 277 0
 628 0006 00F10C06 		add	r6, r0, #12
 629              		.loc 1 274 0
 630 000a 0446     		mov	r4, r0
 631              		.loc 1 277 0
 632 000c 3046     		mov	r0, r6
 633              	.LVL62:
 634              		.loc 1 275 0
 635 000e 1D68     		ldr	r5, [r3]
 636              	.LVL63:
 637              		.loc 1 277 0
 638 0010 FFF7FEFF 		bl	chIQResetI
 639              	.LVL64:
 640              		.loc 1 278 0
 641 0014 04F13000 		add	r0, r4, #48
 642 0018 FFF7FEFF 		bl	chOQResetI
 643              	.LVL65:
 644              		.loc 1 279 0
 645 001c 201D     		adds	r0, r4, #4
 646 001e 0121     		movs	r1, #1
 647 0020 FFF7FEFF 		bl	chEvtBroadcastFlagsI
 648              	.LVL66:
 649              		.loc 1 283 0
 650 0024 D4F85432 		ldr	r3, [r4, #596]
 651 0028 5979     		ldrb	r1, [r3, #5]	@ zero_extendqisi2
 652 002a 05EB8103 		add	r3, r5, r1, lsl #2
 653              		.loc 1 282 0
 654 002e 2846     		mov	r0, r5
 655              		.loc 1 283 0
 656 0030 DB68     		ldr	r3, [r3, #12]
 657              		.loc 1 282 0
 658 0032 3246     		mov	r2, r6
 659 0034 5B8A     		ldrh	r3, [r3, #18]
 660 0036 FFF7FEFF 		bl	usbPrepareQueuedReceive
 661              	.LVL67:
 662              		.loc 1 284 0
ARM GAS  C:\Users\jsyoon\AppData\Local\Temp\ccolcu6E.s 			page 13


 663 003a D4F85432 		ldr	r3, [r4, #596]
 664 003e 2846     		mov	r0, r5
 665 0040 5979     		ldrb	r1, [r3, #5]	@ zero_extendqisi2
 666              		.loc 1 285 0
 667 0042 BDE87040 		pop	{r4, r5, r6, lr}
 668              	.LVL68:
 669              		.loc 1 284 0
 670 0046 FFF7FEBF 		b	usbStartReceiveI
 671              	.LVL69:
 672              		.cfi_endproc
 673              	.LFE132:
 674              		.size	sduConfigureHookI, .-sduConfigureHookI
 675 004a 00BFAFF3 		.section	.text.sduRequestsHook,"ax",%progbits
 675      0080
 676              		.align	2
 677              		.p2align 4,,15
 678              		.global	sduRequestsHook
 679              		.thumb
 680              		.thumb_func
 681              		.type	sduRequestsHook, %function
 682              	sduRequestsHook:
 683              	.LFB133:
 684              		.loc 1 302 0
 685              		.cfi_startproc
 686              		@ args = 0, pretend = 0, frame = 0
 687              		@ frame_needed = 0, uses_anonymous_args = 0
 688              		@ link register save eliminated.
 689              	.LVL70:
 690              		.loc 1 304 0
 691 0000 90F84430 		ldrb	r3, [r0, #68]	@ zero_extendqisi2
 692 0004 03F06003 		and	r3, r3, #96
 693 0008 202B     		cmp	r3, #32
 694 000a 01D0     		beq	.L34
 695              	.L33:
 696              		.loc 1 317 0
 697 000c 0020     		movs	r0, #0
 698              	.LVL71:
 699              		.loc 1 321 0
 700 000e 7047     		bx	lr
 701              	.LVL72:
 702              	.L34:
 703              		.loc 1 305 0
 704 0010 90F84530 		ldrb	r3, [r0, #69]	@ zero_extendqisi2
 705 0014 212B     		cmp	r3, #33
 706 0016 03D0     		beq	.L30
 707 0018 222B     		cmp	r3, #34
 708 001a 09D0     		beq	.L29
 709 001c 202B     		cmp	r3, #32
 710 001e F5D1     		bne	.L33
 711              	.L30:
 712              		.loc 1 310 0
 713 0020 064B     		ldr	r3, .L35
 714 0022 8363     		str	r3, [r0, #56]
 715 0024 0722     		movs	r2, #7
 716 0026 0023     		movs	r3, #0
 717 0028 C263     		str	r2, [r0, #60]
 718 002a 0364     		str	r3, [r0, #64]
ARM GAS  C:\Users\jsyoon\AppData\Local\Temp\ccolcu6E.s 			page 14


 719              		.loc 1 311 0
 720 002c 0120     		movs	r0, #1
 721              	.LVL73:
 722 002e 7047     		bx	lr
 723              	.LVL74:
 724              	.L29:
 725              		.loc 1 314 0
 726 0030 0023     		movs	r3, #0
 727 0032 8363     		str	r3, [r0, #56]
 728 0034 C363     		str	r3, [r0, #60]
 729 0036 0364     		str	r3, [r0, #64]
 730              		.loc 1 315 0
 731 0038 0120     		movs	r0, #1
 732              	.LVL75:
 733 003a 7047     		bx	lr
 734              	.L36:
 735              		.align	2
 736              	.L35:
 737 003c 00000000 		.word	.LANCHOR1
 738              		.cfi_endproc
 739              	.LFE133:
 740              		.size	sduRequestsHook, .-sduRequestsHook
 741              		.section	.text.sduDataTransmitted,"ax",%progbits
 742              		.align	2
 743              		.p2align 4,,15
 744              		.global	sduDataTransmitted
 745              		.thumb
 746              		.thumb_func
 747              		.type	sduDataTransmitted, %function
 748              	sduDataTransmitted:
 749              	.LFB134:
 750              		.loc 1 331 0
 751              		.cfi_startproc
 752              		@ args = 0, pretend = 0, frame = 0
 753              		@ frame_needed = 0, uses_anonymous_args = 0
 754              	.LVL76:
 755              		.loc 1 333 0
 756 0000 00EB8103 		add	r3, r0, r1, lsl #2
 757              		.loc 1 331 0
 758 0004 70B5     		push	{r4, r5, r6, lr}
 759              		.cfi_def_cfa_offset 16
 760              		.cfi_offset 4, -16
 761              		.cfi_offset 5, -12
 762              		.cfi_offset 6, -8
 763              		.cfi_offset 14, -4
 764              		.loc 1 333 0
 765 0006 9C69     		ldr	r4, [r3, #24]
 766              	.LVL77:
 767              		.loc 1 331 0
 768 0008 0646     		mov	r6, r0
 769 000a 0D46     		mov	r5, r1
 770              		.loc 1 335 0
 771 000c 8CB1     		cbz	r4, .L37
 772              		.loc 1 338 0
 773              	@ 338 "ChibiOS_2.6.6/os/hal/src/serial_usb.c" 1
 774 000e 72B6     		cpsid   i
 775              	@ 0 "" 2
ARM GAS  C:\Users\jsyoon\AppData\Local\Temp\ccolcu6E.s 			page 15


 776              		.loc 1 339 0
 777              		.thumb
 778 0010 0821     		movs	r1, #8
 779              	.LVL78:
 780 0012 201D     		adds	r0, r4, #4
 781              	.LVL79:
 782 0014 FFF7FEFF 		bl	chEvtBroadcastFlagsI
 783              	.LVL80:
 784              		.loc 1 341 0
 785 0018 216C     		ldr	r1, [r4, #64]
 786 001a E26B     		ldr	r2, [r4, #60]
 787 001c A36B     		ldr	r3, [r4, #56]
 788 001e 8A1A     		subs	r2, r1, r2
 789              	.LVL81:
 790 0020 D31A     		subs	r3, r2, r3
 791              	.LVL82:
 792 0022 0BD1     		bne	.L47
 793              		.loc 1 351 0
 794 0024 06EB8503 		add	r3, r6, r5, lsl #2
 795              	.LVL83:
 796 0028 DA68     		ldr	r2, [r3, #12]
 797              	.LVL84:
 798 002a 5369     		ldr	r3, [r2, #20]
 799 002c 5B68     		ldr	r3, [r3, #4]
 800 002e 0BB9     		cbnz	r3, .L48
 801              	.LVL85:
 802              	.L40:
 803              		.loc 1 366 0
 804              	@ 366 "ChibiOS_2.6.6/os/hal/src/serial_usb.c" 1
 805 0030 62B6     		cpsie   i
 806              	@ 0 "" 2
 807              		.thumb
 808              	.L37:
 809 0032 70BD     		pop	{r4, r5, r6, pc}
 810              	.LVL86:
 811              	.L48:
 812              		.loc 1 353 0 discriminator 1
 813 0034 128A     		ldrh	r2, [r2, #16]
 814 0036 013A     		subs	r2, r2, #1
 815              		.loc 1 351 0 discriminator 1
 816 0038 1340     		ands	r3, r2, r3
 817 003a F9D1     		bne	.L40
 818              	.L47:
 819              		.loc 1 358 0
 820              	@ 358 "ChibiOS_2.6.6/os/hal/src/serial_usb.c" 1
 821 003c 62B6     		cpsie   i
 822              	@ 0 "" 2
 823              		.loc 1 360 0
 824              		.thumb
 825 003e 04F13002 		add	r2, r4, #48
 826 0042 3046     		mov	r0, r6
 827 0044 2946     		mov	r1, r5
 828              	.LVL87:
 829 0046 FFF7FEFF 		bl	usbPrepareQueuedTransmit
 830              	.LVL88:
 831              		.loc 1 362 0
 832              	@ 362 "ChibiOS_2.6.6/os/hal/src/serial_usb.c" 1
ARM GAS  C:\Users\jsyoon\AppData\Local\Temp\ccolcu6E.s 			page 16


 833 004a 72B6     		cpsid   i
 834              	@ 0 "" 2
 835              		.loc 1 363 0
 836              		.thumb
 837 004c 3046     		mov	r0, r6
 838 004e 2946     		mov	r1, r5
 839 0050 FFF7FEFF 		bl	usbStartTransmitI
 840              	.LVL89:
 841 0054 ECE7     		b	.L40
 842              		.cfi_endproc
 843              	.LFE134:
 844              		.size	sduDataTransmitted, .-sduDataTransmitted
 845 0056 00BFAFF3 		.section	.text.sduDataReceived,"ax",%progbits
 845      0080AFF3 
 845      0080
 846              		.align	2
 847              		.p2align 4,,15
 848              		.global	sduDataReceived
 849              		.thumb
 850              		.thumb_func
 851              		.type	sduDataReceived, %function
 852              	sduDataReceived:
 853              	.LFB135:
 854              		.loc 1 377 0
 855              		.cfi_startproc
 856              		@ args = 0, pretend = 0, frame = 0
 857              		@ frame_needed = 0, uses_anonymous_args = 0
 858              	.LVL90:
 859              		.loc 1 379 0
 860 0000 01F10903 		add	r3, r1, #9
 861              		.loc 1 377 0
 862 0004 70B5     		push	{r4, r5, r6, lr}
 863              		.cfi_def_cfa_offset 16
 864              		.cfi_offset 4, -16
 865              		.cfi_offset 5, -12
 866              		.cfi_offset 6, -8
 867              		.cfi_offset 14, -4
 868              		.loc 1 379 0
 869 0006 50F82340 		ldr	r4, [r0, r3, lsl #2]
 870              	.LVL91:
 871              		.loc 1 377 0
 872 000a 0D46     		mov	r5, r1
 873 000c 0646     		mov	r6, r0
 874              		.loc 1 381 0
 875 000e 84B1     		cbz	r4, .L49
 876              		.loc 1 384 0
 877              	@ 384 "ChibiOS_2.6.6/os/hal/src/serial_usb.c" 1
 878 0010 72B6     		cpsid   i
 879              	@ 0 "" 2
 880              		.loc 1 385 0
 881              		.thumb
 882 0012 0421     		movs	r1, #4
 883              	.LVL92:
 884 0014 6018     		adds	r0, r4, r1
 885              	.LVL93:
 886 0016 FFF7FEFF 		bl	chEvtBroadcastFlagsI
 887              	.LVL94:
ARM GAS  C:\Users\jsyoon\AppData\Local\Temp\ccolcu6E.s 			page 17


 888              		.loc 1 389 0
 889 001a 06EB8503 		add	r3, r6, r5, lsl #2
 890              		.loc 1 390 0
 891 001e E069     		ldr	r0, [r4, #28]
 892              		.loc 1 389 0
 893 0020 DB68     		ldr	r3, [r3, #12]
 894              		.loc 1 390 0
 895 0022 A269     		ldr	r2, [r4, #24]
 896 0024 6169     		ldr	r1, [r4, #20]
 897              		.loc 1 389 0
 898 0026 5B8A     		ldrh	r3, [r3, #18]
 899              	.LVL95:
 900              		.loc 1 390 0
 901 0028 821A     		subs	r2, r0, r2
 902 002a 521A     		subs	r2, r2, r1
 903              	.LVL96:
 904 002c 9342     		cmp	r3, r2
 905 002e 01D9     		bls	.L55
 906              	.LVL97:
 907              	.L51:
 908              		.loc 1 402 0
 909              	@ 402 "ChibiOS_2.6.6/os/hal/src/serial_usb.c" 1
 910 0030 62B6     		cpsie   i
 911              	@ 0 "" 2
 912              		.thumb
 913              	.L49:
 914 0032 70BD     		pop	{r4, r5, r6, pc}
 915              	.LVL98:
 916              	.L55:
 917              		.loc 1 393 0
 918              	@ 393 "ChibiOS_2.6.6/os/hal/src/serial_usb.c" 1
 919 0034 62B6     		cpsie   i
 920              	@ 0 "" 2
 921              		.loc 1 395 0
 922              		.thumb
 923 0036 B2FBF3F2 		udiv	r2, r2, r3
 924              	.LVL99:
 925              		.loc 1 396 0
 926 003a 03FB02F3 		mul	r3, r3, r2
 927              	.LVL100:
 928 003e 3046     		mov	r0, r6
 929 0040 04F10C02 		add	r2, r4, #12
 930 0044 2946     		mov	r1, r5
 931 0046 FFF7FEFF 		bl	usbPrepareQueuedReceive
 932              	.LVL101:
 933              		.loc 1 398 0
 934              	@ 398 "ChibiOS_2.6.6/os/hal/src/serial_usb.c" 1
 935 004a 72B6     		cpsid   i
 936              	@ 0 "" 2
 937              		.loc 1 399 0
 938              		.thumb
 939 004c 3046     		mov	r0, r6
 940 004e 2946     		mov	r1, r5
 941 0050 FFF7FEFF 		bl	usbStartReceiveI
 942              	.LVL102:
 943 0054 ECE7     		b	.L51
 944              		.cfi_endproc
ARM GAS  C:\Users\jsyoon\AppData\Local\Temp\ccolcu6E.s 			page 18


 945              	.LFE135:
 946              		.size	sduDataReceived, .-sduDataReceived
 947 0056 00BFAFF3 		.section	.text.sduInterruptTransmitted,"ax",%progbits
 947      0080AFF3 
 947      0080
 948              		.align	2
 949              		.p2align 4,,15
 950              		.global	sduInterruptTransmitted
 951              		.thumb
 952              		.thumb_func
 953              		.type	sduInterruptTransmitted, %function
 954              	sduInterruptTransmitted:
 955              	.LFB136:
 956              		.loc 1 413 0
 957              		.cfi_startproc
 958              		@ args = 0, pretend = 0, frame = 0
 959              		@ frame_needed = 0, uses_anonymous_args = 0
 960              		@ link register save eliminated.
 961              	.LVL103:
 962 0000 7047     		bx	lr
 963              		.cfi_endproc
 964              	.LFE136:
 965              		.size	sduInterruptTransmitted, .-sduInterruptTransmitted
 966 0002 00BFAFF3 		.section	.rodata.vmt,"a",%progbits
 966      0080AFF3 
 966      0080AFF3 
 966      0080
 967              		.align	2
 968              		.set	.LANCHOR0,. + 0
 969              		.type	vmt, %object
 970              		.size	vmt, 32
 971              	vmt:
 972 0000 00000000 		.word	write
 973 0004 00000000 		.word	read
 974 0008 00000000 		.word	put
 975 000c 00000000 		.word	get
 976 0010 00000000 		.word	putt
 977 0014 00000000 		.word	gett
 978 0018 00000000 		.word	writet
 979 001c 00000000 		.word	readt
 980              		.section	.data.linecoding,"aw",%progbits
 981              		.align	2
 982              		.set	.LANCHOR1,. + 0
 983              		.type	linecoding, %object
 984              		.size	linecoding, 7
 985              	linecoding:
 986 0000 00       		.byte	0
 987 0001 96       		.byte	-106
 988 0002 00       		.byte	0
 989 0003 00       		.byte	0
 990 0004 00       		.byte	0
 991 0005 00       		.byte	0
 992 0006 08       		.byte	8
 993 0007 00       		.text
 994              	.Letext0:
 995              		.file 2 "c:\\crosstools\\gcc-arm-embedded\\4.8_2014q2\\lib\\gcc\\arm-none-eabi\\4.8.4\\include\\st
 996              		.file 3 "c:\\crosstools\\gcc-arm-embedded\\4.8_2014q2\\arm-none-eabi\\include\\machine\\_default_t
ARM GAS  C:\Users\jsyoon\AppData\Local\Temp\ccolcu6E.s 			page 19


 997              		.file 4 "c:\\crosstools\\gcc-arm-embedded\\4.8_2014q2\\arm-none-eabi\\include\\stdint.h"
 998              		.file 5 "ChibiOS_2.6.6/os/ports/GCC/ARMCMx/chtypes.h"
 999              		.file 6 "ChibiOS_2.6.6/os/kernel/include/chlists.h"
 1000              		.file 7 "ChibiOS_2.6.6/os/kernel/include/chthreads.h"
 1001              		.file 8 "ChibiOS_2.6.6/os/ports/GCC/ARMCMx/chcore_v7m.h"
 1002              		.file 9 "ChibiOS_2.6.6/os/kernel/include/chmtx.h"
 1003              		.file 10 "ChibiOS_2.6.6/os/kernel/include/chevents.h"
 1004              		.file 11 "ChibiOS_2.6.6/os/kernel/include/chqueues.h"
 1005              		.file 12 "ChibiOS_2.6.6/os/hal/include/usb.h"
 1006              		.file 13 "ChibiOS_2.6.6/os/hal/platforms/STM32/OTGv1/usb_lld.h"
 1007              		.file 14 "ChibiOS_2.6.6/os/hal/platforms/STM32/OTGv1/stm32_otg.h"
 1008              		.file 15 "ChibiOS_2.6.6/os/hal/include/serial_usb.h"
 1009              		.file 16 "ChibiOS_2.6.6/os/ports/common/ARMCMx/CMSIS/include/core_cm4.h"
 1010              		.file 17 "ChibiOS_2.6.6/os/kernel/include/chschd.h"