ARM GAS  C:\Users\jsyoon\AppData\Local\Temp\ccodNiGa.s 			page 1


   1              		.syntax unified
   2              		.cpu cortex-m4
   3              		.eabi_attribute 27, 3
   4              		.eabi_attribute 28, 1
   5              		.fpu fpv4-sp-d16
   6              		.eabi_attribute 20, 1
   7              		.eabi_attribute 21, 1
   8              		.eabi_attribute 23, 3
   9              		.eabi_attribute 24, 1
  10              		.eabi_attribute 25, 1
  11              		.eabi_attribute 26, 1
  12              		.eabi_attribute 30, 2
  13              		.eabi_attribute 34, 1
  14              		.eabi_attribute 18, 4
  15              		.thumb
  16              		.file	"servo.c"
  17              		.text
  18              	.Ltext0:
  19              		.cfi_sections	.debug_frame
  20              		.section	.text.servo_cmp_by_pos,"ax",%progbits
  21              		.align	2
  22              		.p2align 4,,15
  23              		.thumb
  24              		.thumb_func
  25              		.type	servo_cmp_by_pos, %function
  26              	servo_cmp_by_pos:
  27              	.LFB123:
  28              		.file 1 "servo.c"
  29              		.loc 1 201 0
  30              		.cfi_startproc
  31              		@ args = 0, pretend = 0, frame = 0
  32              		@ frame_needed = 0, uses_anonymous_args = 0
  33              		@ link register save eliminated.
  34              	.LVL0:
  35 0000 10B4     		push	{r4}
  36              		.cfi_def_cfa_offset 4
  37              		.cfi_offset 4, -4
  38              		.loc 1 205 0
  39 0002 0288     		ldrh	r2, [r0]
  40 0004 8378     		ldrb	r3, [r0, #2]	@ zero_extendqisi2
  41 0006 03FA82F3 		sxtah	r3, r3, r2
  42 000a FE2B     		cmp	r3, #254
  43 000c 05DC     		bgt	.L2
  44              		.loc 1 205 0 is_stmt 0 discriminator 2
  45 000e 0288     		ldrh	r2, [r0]
  46 0010 8378     		ldrb	r3, [r0, #2]	@ zero_extendqisi2
  47 0012 03FA82F3 		sxtah	r3, r3, r2
  48 0016 002B     		cmp	r3, #0
  49 0018 62DD     		ble	.L11
  50              	.L2:
  51              		.loc 1 205 0 discriminator 1
  52 001a 0288     		ldrh	r2, [r0]
  53 001c 8378     		ldrb	r3, [r0, #2]	@ zero_extendqisi2
  54 001e 03FA82F3 		sxtah	r3, r3, r2
  55 0022 FE2B     		cmp	r3, #254
  56 0024 4CDD     		ble	.L22
  57              		.loc 1 205 0
ARM GAS  C:\Users\jsyoon\AppData\Local\Temp\ccodNiGa.s 			page 2


  58 0026 FF24     		movs	r4, #255
  59              	.L3:
  60              		.loc 1 205 0 discriminator 3
  61 0028 0A88     		ldrh	r2, [r1]
  62 002a 8B78     		ldrb	r3, [r1, #2]	@ zero_extendqisi2
  63 002c 03FA82F3 		sxtah	r3, r3, r2
  64 0030 FE2B     		cmp	r3, #254
  65 0032 05DC     		bgt	.L4
  66              		.loc 1 205 0 discriminator 2
  67 0034 0A88     		ldrh	r2, [r1]
  68 0036 8B78     		ldrb	r3, [r1, #2]	@ zero_extendqisi2
  69 0038 03FA82F3 		sxtah	r3, r3, r2
  70 003c 002B     		cmp	r3, #0
  71 003e 51DD     		ble	.L13
  72              	.L4:
  73              		.loc 1 205 0 discriminator 1
  74 0040 0A88     		ldrh	r2, [r1]
  75 0042 8B78     		ldrb	r3, [r1, #2]	@ zero_extendqisi2
  76 0044 03FA82F3 		sxtah	r3, r3, r2
  77 0048 FE2B     		cmp	r3, #254
  78 004a 3EDC     		bgt	.L14
  79 004c 0A88     		ldrh	r2, [r1]
  80 004e 8B78     		ldrb	r3, [r1, #2]	@ zero_extendqisi2
  81 0050 03FA82F3 		sxtah	r3, r3, r2
  82              	.L5:
  83              		.loc 1 205 0 discriminator 3
  84 0054 9C42     		cmp	r4, r3
  85 0056 3BD0     		beq	.L15
  86              	.L23:
  87              		.loc 1 207 0 is_stmt 1
  88 0058 0288     		ldrh	r2, [r0]
  89 005a 8378     		ldrb	r3, [r0, #2]	@ zero_extendqisi2
  90 005c 03FA82F3 		sxtah	r3, r3, r2
  91 0060 FE2B     		cmp	r3, #254
  92 0062 05DC     		bgt	.L7
  93              		.loc 1 207 0 is_stmt 0 discriminator 2
  94 0064 0288     		ldrh	r2, [r0]
  95 0066 8378     		ldrb	r3, [r0, #2]	@ zero_extendqisi2
  96 0068 03FA82F3 		sxtah	r3, r3, r2
  97 006c 002B     		cmp	r3, #0
  98 006e 3DDD     		ble	.L16
  99              	.L7:
 100              		.loc 1 207 0 discriminator 1
 101 0070 0288     		ldrh	r2, [r0]
 102 0072 8378     		ldrb	r3, [r0, #2]	@ zero_extendqisi2
 103 0074 03FA82F3 		sxtah	r3, r3, r2
 104 0078 FE2B     		cmp	r3, #254
 105 007a 2FDC     		bgt	.L17
 106 007c 0288     		ldrh	r2, [r0]
 107 007e 8378     		ldrb	r3, [r0, #2]	@ zero_extendqisi2
 108 0080 03FA82F0 		sxtah	r0, r3, r2
 109              	.LVL1:
 110              	.L8:
 111              		.loc 1 207 0 discriminator 3
 112 0084 0A88     		ldrh	r2, [r1]
 113 0086 8B78     		ldrb	r3, [r1, #2]	@ zero_extendqisi2
 114 0088 03FA82F3 		sxtah	r3, r3, r2
ARM GAS  C:\Users\jsyoon\AppData\Local\Temp\ccodNiGa.s 			page 3


 115 008c FE2B     		cmp	r3, #254
 116 008e 05DC     		bgt	.L9
 117              		.loc 1 207 0 discriminator 2
 118 0090 0A88     		ldrh	r2, [r1]
 119 0092 8B78     		ldrb	r3, [r1, #2]	@ zero_extendqisi2
 120 0094 03FA82F3 		sxtah	r3, r3, r2
 121 0098 002B     		cmp	r3, #0
 122 009a 25DD     		ble	.L18
 123              	.L9:
 124              		.loc 1 207 0 discriminator 1
 125 009c 0A88     		ldrh	r2, [r1]
 126 009e 8B78     		ldrb	r3, [r1, #2]	@ zero_extendqisi2
 127 00a0 03FA82F3 		sxtah	r3, r3, r2
 128 00a4 FE2B     		cmp	r3, #254
 129 00a6 17DC     		bgt	.L19
 130 00a8 0A88     		ldrh	r2, [r1]
 131 00aa 8B78     		ldrb	r3, [r1, #2]	@ zero_extendqisi2
 132 00ac 03FA82F3 		sxtah	r3, r3, r2
 133              	.L10:
 134              		.loc 1 208 0 is_stmt 1 discriminator 3
 135 00b0 9842     		cmp	r0, r3
 136 00b2 ACBF     		ite	ge
 137 00b4 0120     		movge	r0, #1
 138 00b6 4FF0FF30 		movlt	r0, #-1
 139              		.loc 1 212 0 discriminator 3
 140 00ba 5DF8044B 		ldr	r4, [sp], #4
 141 00be 7047     		bx	lr
 142              	.LVL2:
 143              	.L22:
 144              		.loc 1 205 0 discriminator 1
 145 00c0 0488     		ldrh	r4, [r0]
 146 00c2 8378     		ldrb	r3, [r0, #2]	@ zero_extendqisi2
 147 00c4 03FA84F4 		sxtah	r4, r3, r4
 148 00c8 AEE7     		b	.L3
 149              	.L14:
 150              		.loc 1 205 0 is_stmt 0
 151 00ca FF23     		movs	r3, #255
 152 00cc 9C42     		cmp	r4, r3
 153 00ce C3D1     		bne	.L23
 154              	.L15:
 155              		.loc 1 206 0 is_stmt 1
 156 00d0 0020     		movs	r0, #0
 157              	.LVL3:
 158              		.loc 1 212 0
 159 00d2 5DF8044B 		ldr	r4, [sp], #4
 160 00d6 7047     		bx	lr
 161              	.L19:
 162              		.loc 1 207 0
 163 00d8 FF23     		movs	r3, #255
 164 00da E9E7     		b	.L10
 165              	.LVL4:
 166              	.L17:
 167 00dc FF20     		movs	r0, #255
 168              	.LVL5:
 169 00de D1E7     		b	.L8
 170              	.LVL6:
 171              	.L11:
ARM GAS  C:\Users\jsyoon\AppData\Local\Temp\ccodNiGa.s 			page 4


 172              		.loc 1 205 0
 173 00e0 0024     		movs	r4, #0
 174 00e2 A1E7     		b	.L3
 175              	.L13:
 176 00e4 0023     		movs	r3, #0
 177 00e6 B5E7     		b	.L5
 178              	.LVL7:
 179              	.L18:
 180              		.loc 1 207 0
 181 00e8 0023     		movs	r3, #0
 182 00ea E1E7     		b	.L10
 183              	.LVL8:
 184              	.L16:
 185 00ec 0020     		movs	r0, #0
 186              	.LVL9:
 187 00ee C9E7     		b	.L8
 188              		.cfi_endproc
 189              	.LFE123:
 190              		.size	servo_cmp_by_pos, .-servo_cmp_by_pos
 191              		.section	.text.servo_thread,"ax",%progbits
 192              		.align	2
 193              		.p2align 4,,15
 194              		.thumb
 195              		.thumb_func
 196              		.type	servo_thread, %function
 197              	servo_thread:
 198              	.LFB124:
 199              		.loc 1 214 0
 200              		.cfi_startproc
 201              		@ args = 0, pretend = 0, frame = 0
 202              		@ frame_needed = 0, uses_anonymous_args = 0
 203              	.LVL10:
 204 0000 2DE9F84F 		push	{r3, r4, r5, r6, r7, r8, r9, r10, fp, lr}
 205              		.cfi_def_cfa_offset 40
 206              		.cfi_offset 3, -40
 207              		.cfi_offset 4, -36
 208              		.cfi_offset 5, -32
 209              		.cfi_offset 6, -28
 210              		.cfi_offset 7, -24
 211              		.cfi_offset 8, -20
 212              		.cfi_offset 9, -16
 213              		.cfi_offset 10, -12
 214              		.cfi_offset 11, -8
 215              		.cfi_offset 14, -4
 216              		.loc 1 217 0
 217 0004 BC4B     		ldr	r3, .L64
 218              		.loc 1 219 0
 219 0006 BD4A     		ldr	r2, .L64+4
 220              		.loc 1 217 0
 221 0008 9B69     		ldr	r3, [r3, #24]
 222 000a BD4C     		ldr	r4, .L64+8
 223 000c BD49     		ldr	r1, .L64+12
 224 000e DFF82493 		ldr	r9, .L64+60
 225 0012 DFF82483 		ldr	r8, .L64+64
 226 0016 9961     		str	r1, [r3, #24]
 227              		.loc 1 219 0
 228 0018 1360     		str	r3, [r2]
ARM GAS  C:\Users\jsyoon\AppData\Local\Temp\ccodNiGa.s 			page 5


 229              	.LBB7:
 230              		.loc 1 264 0
 231 001a 04F10C05 		add	r5, r4, #12
 232              	.LVL11:
 233              	.L45:
 234              		.loc 1 222 0
 235 001e 0120     		movs	r0, #1
 236 0020 FFF7FEFF 		bl	chEvtWaitAny
 237              	.LVL12:
 238              		.loc 1 228 0
 239 0024 B849     		ldr	r1, .L64+16
 240              		.loc 1 229 0
 241 0026 B94A     		ldr	r2, .L64+20
 242              	.LBB8:
 243              	.LBB9:
 244              		.loc 1 523 0
 245 0028 B94B     		ldr	r3, .L64+24
 246              		.loc 1 525 0
 247 002a B94F     		ldr	r7, .L64+24
 248              	.LBE9:
 249              	.LBE8:
 250              		.loc 1 232 0
 251 002c B448     		ldr	r0, .L64+8
 252              		.loc 1 228 0
 253 002e 0026     		movs	r6, #0
 254 0030 0E70     		strb	r6, [r1]
 255              		.loc 1 229 0
 256 0032 1670     		strb	r6, [r2]
 257              	.LVL13:
 258              	.LBB13:
 259              	.LBB10:
 260              		.loc 1 523 0
 261 0034 5A68     		ldr	r2, [r3, #4]
 262              		.loc 1 524 0
 263 0036 9B68     		ldr	r3, [r3, #8]
 264 0038 A360     		str	r3, [r4, #8]
 265              		.loc 1 525 0
 266 003a 3988     		ldrh	r1, [r7]
 267              		.loc 1 523 0
 268 003c 6260     		str	r2, [r4, #4]
 269              		.loc 1 525 0
 270 003e 8AB2     		uxth	r2, r1
 271 0040 2280     		strh	r2, [r4]	@ movhi
 272              		.loc 1 526 0
 273 0042 BA78     		ldrb	r2, [r7, #2]	@ zero_extendqisi2
 274              	.LBE10:
 275              	.LBE13:
 276              		.loc 1 232 0
 277 0044 B34B     		ldr	r3, .L64+28
 278              	.LBB14:
 279              	.LBB11:
 280              		.loc 1 526 0
 281 0046 D2B2     		uxtb	r2, r2
 282 0048 A270     		strb	r2, [r4, #2]
 283              	.LVL14:
 284              		.loc 1 523 0
 285 004a 3A69     		ldr	r2, [r7, #16]
ARM GAS  C:\Users\jsyoon\AppData\Local\Temp\ccodNiGa.s 			page 6


 286              		.loc 1 524 0
 287 004c 7969     		ldr	r1, [r7, #20]
 288 004e 6161     		str	r1, [r4, #20]
 289              		.loc 1 525 0
 290 0050 B989     		ldrh	r1, [r7, #12]
 291              		.loc 1 523 0
 292 0052 2261     		str	r2, [r4, #16]
 293              		.loc 1 525 0
 294 0054 8AB2     		uxth	r2, r1
 295 0056 A281     		strh	r2, [r4, #12]	@ movhi
 296              		.loc 1 526 0
 297 0058 BF7B     		ldrb	r7, [r7, #14]	@ zero_extendqisi2
 298              	.LBE11:
 299              	.LBE14:
 300              		.loc 1 232 0
 301 005a 0C22     		movs	r2, #12
 302 005c 0221     		movs	r1, #2
 303              	.LBB15:
 304              	.LBB12:
 305              		.loc 1 526 0
 306 005e FFB2     		uxtb	r7, r7
 307 0060 A773     		strb	r7, [r4, #14]
 308              	.LVL15:
 309              	.LBE12:
 310              	.LBE15:
 311              		.loc 1 232 0
 312 0062 FFF7FEFF 		bl	qsort
 313              	.LVL16:
 314              		.loc 1 234 0
 315 0066 2288     		ldrh	r2, [r4]
 316 0068 A378     		ldrb	r3, [r4, #2]	@ zero_extendqisi2
 317 006a 03FA82F3 		sxtah	r3, r3, r2
 318 006e FE2B     		cmp	r3, #254
 319 0070 09DC     		bgt	.L25
 320              		.loc 1 234 0 is_stmt 0 discriminator 2
 321 0072 DFF88CE2 		ldr	lr, .L64+8
 322 0076 BEF80020 		ldrh	r2, [lr]
 323 007a 9EF80230 		ldrb	r3, [lr, #2]	@ zero_extendqisi2
 324 007e 03FA82F3 		sxtah	r3, r3, r2
 325 0082 B342     		cmp	r3, r6
 326 0084 0CDD     		ble	.L26
 327              	.L25:
 328              		.loc 1 234 0 discriminator 1
 329 0086 2288     		ldrh	r2, [r4]
 330 0088 A378     		ldrb	r3, [r4, #2]	@ zero_extendqisi2
 331 008a 03FA82F3 		sxtah	r3, r3, r2
 332 008e FE2B     		cmp	r3, #254
 333 0090 00F31F81 		bgt	.L47
 334              		.loc 1 234 0 discriminator 3
 335 0094 9A49     		ldr	r1, .L64+8
 336 0096 0E88     		ldrh	r6, [r1]
 337 0098 8B78     		ldrb	r3, [r1, #2]	@ zero_extendqisi2
 338 009a 03FA86F6 		sxtah	r6, r3, r6
 339 009e B600     		lsls	r6, r6, #2
 340              	.L26:
 341              		.loc 1 234 0 discriminator 6
 342 00a0 C9F80060 		str	r6, [r9]
ARM GAS  C:\Users\jsyoon\AppData\Local\Temp\ccodNiGa.s 			page 7


 343              		.loc 1 236 0 is_stmt 1 discriminator 6
 344 00a4 9C4A     		ldr	r2, .L64+32
 345              		.loc 1 235 0 discriminator 6
 346 00a6 A168     		ldr	r1, [r4, #8]
 347              		.loc 1 236 0 discriminator 6
 348 00a8 6368     		ldr	r3, [r4, #4]
 349              		.loc 1 241 0 discriminator 6
 350 00aa 9C4F     		ldr	r7, .L64+36
 351              		.loc 1 242 0 discriminator 6
 352 00ac DFF880E2 		ldr	lr, .L64+56
 353              		.loc 1 236 0 discriminator 6
 354 00b0 1360     		str	r3, [r2]
 355              	.LVL17:
 356              		.loc 1 235 0 discriminator 6
 357 00b2 0122     		movs	r2, #1
 358 00b4 02FA01F1 		lsl	r1, r2, r1
 359              		.loc 1 242 0 discriminator 6
 360 00b8 0020     		movs	r0, #0
 361              		.loc 1 235 0 discriminator 6
 362 00ba C8F80010 		str	r1, [r8]
 363              		.loc 1 242 0 discriminator 6
 364 00be 1346     		mov	r3, r2
 365              		.loc 1 241 0 discriminator 6
 366 00c0 3A70     		strb	r2, [r7]
 367              		.loc 1 242 0 discriminator 6
 368 00c2 8EF80020 		strb	r2, [lr]
 369              	.LVL18:
 370              		.loc 1 241 0 discriminator 6
 371 00c6 7A70     		strb	r2, [r7, #1]
 372              		.loc 1 242 0 discriminator 6
 373 00c8 8EF80120 		strb	r2, [lr, #1]
 374              	.LVL19:
 375              		.loc 1 241 0 discriminator 6
 376 00cc BA70     		strb	r2, [r7, #2]
 377              		.loc 1 242 0 discriminator 6
 378 00ce 8EF80220 		strb	r2, [lr, #2]
 379              	.LVL20:
 380 00d2 0746     		mov	r7, r0
 381 00d4 82E0     		b	.L27
 382              	.LVL21:
 383              	.L61:
 384              		.loc 1 248 0 discriminator 1
 385 00d6 34F822C0 		ldrh	ip, [r4, r2, lsl #2]
 386 00da 8A78     		ldrb	r2, [r1, #2]	@ zero_extendqisi2
 387 00dc 02FA8CFC 		sxtah	ip, r2, ip
 388              	.L31:
 389              		.loc 1 248 0 is_stmt 0 discriminator 3
 390 00e0 5A1E     		subs	r2, r3, #1
 391 00e2 5100     		lsls	r1, r2, #1
 392 00e4 8E18     		adds	r6, r1, r2
 393 00e6 04EB860E 		add	lr, r4, r6, lsl #2
 394 00ea 34F826B0 		ldrh	fp, [r4, r6, lsl #2]
 395 00ee 9EF802A0 		ldrb	r10, [lr, #2]	@ zero_extendqisi2
 396 00f2 0AFA8BFA 		sxtah	r10, r10, fp
 397 00f6 BAF1FE0F 		cmp	r10, #254
 398 00fa 08DC     		bgt	.L32
 399              		.loc 1 248 0 discriminator 2
ARM GAS  C:\Users\jsyoon\AppData\Local\Temp\ccodNiGa.s 			page 8


 400 00fc 34F826A0 		ldrh	r10, [r4, r6, lsl #2]
 401 0100 9EF80260 		ldrb	r6, [lr, #2]	@ zero_extendqisi2
 402 0104 06FA8AF6 		sxtah	r6, r6, r10
 403 0108 002E     		cmp	r6, #0
 404 010a 40F3BB80 		ble	.L50
 405              	.L32:
 406              		.loc 1 248 0 discriminator 1
 407 010e 8E18     		adds	r6, r1, r2
 408 0110 04EB860E 		add	lr, r4, r6, lsl #2
 409 0114 34F826B0 		ldrh	fp, [r4, r6, lsl #2]
 410 0118 9EF802A0 		ldrb	r10, [lr, #2]	@ zero_extendqisi2
 411 011c 0AFA8BFA 		sxtah	r10, r10, fp
 412 0120 BAF1FE0F 		cmp	r10, #254
 413 0124 7CDC     		bgt	.L51
 414 0126 34F826A0 		ldrh	r10, [r4, r6, lsl #2]
 415 012a 9EF80260 		ldrb	r6, [lr, #2]	@ zero_extendqisi2
 416 012e 06FA8AF6 		sxtah	r6, r6, r10
 417              	.L33:
 418              		.loc 1 248 0 discriminator 3
 419 0132 B445     		cmp	ip, r6
 420 0134 77D0     		beq	.L60
 421              	.L34:
 422              		.loc 1 261 0 is_stmt 1
 423 0136 0137     		adds	r7, r7, #1
 424              	.LVL22:
 425              		.loc 1 263 0
 426 0138 012B     		cmp	r3, #1
 427              		.loc 1 261 0
 428 013a BFB2     		uxth	r7, r7
 429              	.LVL23:
 430              		.loc 1 263 0
 431 013c 77D1     		bne	.L37
 432              		.loc 1 264 0
 433 013e 2E88     		ldrh	r6, [r5]
 434 0140 AB78     		ldrb	r3, [r5, #2]	@ zero_extendqisi2
 435              	.LVL24:
 436 0142 03FA86F3 		sxtah	r3, r3, r6
 437 0146 FE2B     		cmp	r3, #254
 438 0148 06DC     		bgt	.L38
 439              		.loc 1 264 0 is_stmt 0 discriminator 2
 440 014a 2E88     		ldrh	r6, [r5]
 441 014c AB78     		ldrb	r3, [r5, #2]	@ zero_extendqisi2
 442 014e 03FA86F3 		sxtah	r3, r3, r6
 443 0152 002B     		cmp	r3, #0
 444 0154 40F39B80 		ble	.L52
 445              	.L38:
 446              		.loc 1 264 0 discriminator 1
 447 0158 2E88     		ldrh	r6, [r5]
 448 015a AB78     		ldrb	r3, [r5, #2]	@ zero_extendqisi2
 449 015c 03FA86F3 		sxtah	r3, r3, r6
 450 0160 FE2B     		cmp	r3, #254
 451 0162 00F38C80 		bgt	.L53
 452 0166 B5F800C0 		ldrh	ip, [r5]
 453 016a AB78     		ldrb	r3, [r5, #2]	@ zero_extendqisi2
 454 016c 03FA8CFC 		sxtah	ip, r3, ip
 455              	.L39:
 456              		.loc 1 264 0 discriminator 3
ARM GAS  C:\Users\jsyoon\AppData\Local\Temp\ccodNiGa.s 			page 9


 457 0170 8B18     		adds	r3, r1, r2
 458 0172 04EB8306 		add	r6, r4, r3, lsl #2
 459 0176 34F823A0 		ldrh	r10, [r4, r3, lsl #2]
 460 017a 96F802E0 		ldrb	lr, [r6, #2]	@ zero_extendqisi2
 461 017e 0EFA8AFE 		sxtah	lr, lr, r10
 462 0182 BEF1FE0F 		cmp	lr, #254
 463 0186 06DC     		bgt	.L40
 464              		.loc 1 264 0 discriminator 2
 465 0188 34F823E0 		ldrh	lr, [r4, r3, lsl #2]
 466 018c B378     		ldrb	r3, [r6, #2]	@ zero_extendqisi2
 467 018e 03FA8EF3 		sxtah	r3, r3, lr
 468 0192 002B     		cmp	r3, #0
 469 0194 7EDD     		ble	.L54
 470              	.L40:
 471              		.loc 1 264 0 discriminator 1
 472 0196 0A44     		add	r2, r2, r1
 473              	.LVL25:
 474 0198 04EB8203 		add	r3, r4, r2, lsl #2
 475 019c 34F82260 		ldrh	r6, [r4, r2, lsl #2]
 476 01a0 9978     		ldrb	r1, [r3, #2]	@ zero_extendqisi2
 477 01a2 01FA86F1 		sxtah	r1, r1, r6
 478 01a6 FE29     		cmp	r1, #254
 479 01a8 67DC     		bgt	.L55
 480 01aa 34F82220 		ldrh	r2, [r4, r2, lsl #2]
 481 01ae 9B78     		ldrb	r3, [r3, #2]	@ zero_extendqisi2
 482 01b0 03FA82F3 		sxtah	r3, r3, r2
 483              	.L41:
 484              		.loc 1 264 0 discriminator 3
 485 01b4 C3EB0C03 		rsb	r3, r3, ip
 486 01b8 9B00     		lsls	r3, r3, #2
 487 01ba 49F82730 		str	r3, [r9, r7, lsl #2]
 488              		.loc 1 266 0 is_stmt 1 discriminator 3
 489 01be 584A     		ldr	r2, .L64+40
 490              		.loc 1 265 0 discriminator 3
 491 01c0 5549     		ldr	r1, .L64+32
 492              		.loc 1 266 0 discriminator 3
 493 01c2 1268     		ldr	r2, [r2]
 494              		.loc 1 265 0 discriminator 3
 495 01c4 6B68     		ldr	r3, [r5, #4]
 496 01c6 0130     		adds	r0, r0, #1
 497              	.LVL26:
 498 01c8 80B2     		uxth	r0, r0
 499              	.LVL27:
 500              		.loc 1 266 0 discriminator 3
 501 01ca 4FF0010E 		mov	lr, #1
 502 01ce 0EFA02F2 		lsl	r2, lr, r2
 503              		.loc 1 265 0 discriminator 3
 504 01d2 41F82030 		str	r3, [r1, r0, lsl #2]
 505              		.loc 1 266 0 discriminator 3
 506 01d6 48F82020 		str	r2, [r8, r0, lsl #2]
 507              	.LVL28:
 508              	.L42:
 509 01da 0223     		movs	r3, #2
 510              	.L27:
 511              	.LVL29:
 512              		.loc 1 248 0 discriminator 1
 513 01dc 5900     		lsls	r1, r3, #1
ARM GAS  C:\Users\jsyoon\AppData\Local\Temp\ccodNiGa.s 			page 10


 514 01de CA18     		adds	r2, r1, r3
 515 01e0 04EB8206 		add	r6, r4, r2, lsl #2
 516 01e4 34F822C0 		ldrh	ip, [r4, r2, lsl #2]
 517 01e8 96F802E0 		ldrb	lr, [r6, #2]	@ zero_extendqisi2
 518 01ec 0EFA8CFE 		sxtah	lr, lr, ip
 519 01f0 BEF1FE0F 		cmp	lr, #254
 520 01f4 06DC     		bgt	.L30
 521              		.loc 1 248 0 is_stmt 0 discriminator 2
 522 01f6 34F822E0 		ldrh	lr, [r4, r2, lsl #2]
 523 01fa B278     		ldrb	r2, [r6, #2]	@ zero_extendqisi2
 524 01fc 02FA8EF2 		sxtah	r2, r2, lr
 525 0200 002A     		cmp	r2, #0
 526 0202 41DD     		ble	.L48
 527              	.L30:
 528              		.loc 1 248 0 discriminator 1
 529 0204 CA18     		adds	r2, r1, r3
 530 0206 04EB8201 		add	r1, r4, r2, lsl #2
 531 020a 34F822E0 		ldrh	lr, [r4, r2, lsl #2]
 532 020e 8E78     		ldrb	r6, [r1, #2]	@ zero_extendqisi2
 533 0210 06FA8EF6 		sxtah	r6, r6, lr
 534 0214 FE2E     		cmp	r6, #254
 535 0216 7FF75EAF 		ble	.L61
 536              		.loc 1 248 0
 537 021a 4FF0FF0C 		mov	ip, #255
 538 021e 5FE7     		b	.L31
 539              	.L51:
 540 0220 FF26     		movs	r6, #255
 541 0222 B445     		cmp	ip, r6
 542 0224 87D1     		bne	.L34
 543              	.L60:
 544              		.loc 1 248 0 discriminator 2
 545 0226 012B     		cmp	r3, #1
 546 0228 36D0     		beq	.L62
 547              		.loc 1 261 0 is_stmt 1
 548 022a 0137     		adds	r7, r7, #1
 549              	.LVL30:
 550 022c BFB2     		uxth	r7, r7
 551              	.LVL31:
 552              	.L37:
 553              		.loc 1 276 0
 554 022e A289     		ldrh	r2, [r4, #12]
 555 0230 A37B     		ldrb	r3, [r4, #14]	@ zero_extendqisi2
 556              	.LVL32:
 557 0232 03FA82F3 		sxtah	r3, r3, r2
 558 0236 FE2B     		cmp	r3, #254
 559 0238 06DC     		bgt	.L43
 560              		.loc 1 276 0 is_stmt 0 discriminator 2
 561 023a 314B     		ldr	r3, .L64+8
 562 023c 9A89     		ldrh	r2, [r3, #12]
 563 023e 9B7B     		ldrb	r3, [r3, #14]	@ zero_extendqisi2
 564 0240 03FA82F3 		sxtah	r3, r3, r2
 565 0244 002B     		cmp	r3, #0
 566 0246 54DD     		ble	.L56
 567              	.L43:
 568              		.loc 1 276 0 discriminator 1
 569 0248 A289     		ldrh	r2, [r4, #12]
 570 024a A37B     		ldrb	r3, [r4, #14]	@ zero_extendqisi2
ARM GAS  C:\Users\jsyoon\AppData\Local\Temp\ccodNiGa.s 			page 11


 571 024c 03FA82F3 		sxtah	r3, r3, r2
 572 0250 FE2B     		cmp	r3, #254
 573 0252 3BDC     		bgt	.L57
 574              		.loc 1 276 0 discriminator 3
 575 0254 DFF8A8E0 		ldr	lr, .L64+8
 576 0258 BEF80C20 		ldrh	r2, [lr, #12]
 577 025c 9EF80E30 		ldrb	r3, [lr, #14]	@ zero_extendqisi2
 578 0260 03FA82F3 		sxtah	r3, r3, r2
 579 0264 1E33     		adds	r3, r3, #30
 580 0266 9B00     		lsls	r3, r3, #2
 581              	.L44:
 582              		.loc 1 277 0 is_stmt 1 discriminator 6
 583 0268 2E49     		ldr	r1, .L64+44
 584              		.loc 1 276 0 discriminator 6
 585 026a 49F82730 		str	r3, [r9, r7, lsl #2]
 586              		.loc 1 277 0 discriminator 6
 587 026e FAB2     		uxtb	r2, r7
 588 0270 0A70     		strb	r2, [r1]
 589              		.loc 1 438 0 discriminator 6
 590 0272 2D4A     		ldr	r2, .L64+48
 591 0274 FF23     		movs	r3, #255
 592 0276 1370     		strb	r3, [r2]
 593              	.LBE7:
 594              		.loc 1 439 0 discriminator 6
 595 0278 D1E6     		b	.L45
 596              	.LVL33:
 597              	.L55:
 598              	.LBB16:
 599              		.loc 1 264 0
 600 027a FF23     		movs	r3, #255
 601 027c 9AE7     		b	.L41
 602              	.LVL34:
 603              	.L53:
 604 027e 4FF0FF0C 		mov	ip, #255
 605 0282 75E7     		b	.L39
 606              	.LVL35:
 607              	.L50:
 608              		.loc 1 248 0
 609 0284 0026     		movs	r6, #0
 610 0286 54E7     		b	.L33
 611              	.L48:
 612 0288 4FF0000C 		mov	ip, #0
 613 028c 28E7     		b	.L31
 614              	.LVL36:
 615              	.L52:
 616              		.loc 1 264 0
 617 028e 4FF0000C 		mov	ip, #0
 618 0292 6DE7     		b	.L39
 619              	.L54:
 620 0294 0023     		movs	r3, #0
 621 0296 8DE7     		b	.L41
 622              	.LVL37:
 623              	.L62:
 624              		.loc 1 249 0
 625 0298 0A44     		add	r2, r2, r1
 626 029a 04EB8202 		add	r2, r4, r2, lsl #2
 627 029e 234E     		ldr	r6, .L64+52
ARM GAS  C:\Users\jsyoon\AppData\Local\Temp\ccodNiGa.s 			page 12


 628 02a0 5168     		ldr	r1, [r2, #4]
 629 02a2 7268     		ldr	r2, [r6, #4]
 630 02a4 8A42     		cmp	r2, r1
 631 02a6 17D0     		beq	.L63
 632              		.loc 1 253 0
 633 02a8 DFF870E0 		ldr	lr, .L64+36
 634 02ac 1EF80710 		ldrb	r1, [lr, r7]	@ zero_extendqisi2
 635 02b0 0131     		adds	r1, r1, #1
 636 02b2 C9B2     		uxtb	r1, r1
 637 02b4 0EF80710 		strb	r1, [lr, r7]
 638              		.loc 1 255 0
 639 02b8 B168     		ldr	r1, [r6, #8]
 640              		.loc 1 254 0
 641 02ba 0130     		adds	r0, r0, #1
 642              	.LVL38:
 643 02bc 80B2     		uxth	r0, r0
 644              	.LVL39:
 645              		.loc 1 255 0
 646 02be 8B40     		lsls	r3, r3, r1
 647              	.LVL40:
 648              		.loc 1 254 0
 649 02c0 1549     		ldr	r1, .L64+32
 650              		.loc 1 255 0
 651 02c2 48F82030 		str	r3, [r8, r0, lsl #2]
 652              	.LVL41:
 653              		.loc 1 254 0
 654 02c6 41F82020 		str	r2, [r1, r0, lsl #2]
 655 02ca 86E7     		b	.L42
 656              	.LVL42:
 657              	.L57:
 658              		.loc 1 276 0
 659 02cc 40F27443 		movw	r3, #1140
 660 02d0 CAE7     		b	.L44
 661              	.LVL43:
 662              	.L47:
 663              		.loc 1 234 0
 664 02d2 4FF47F76 		mov	r6, #1020
 665 02d6 E3E6     		b	.L26
 666              	.LVL44:
 667              	.L63:
 668              		.loc 1 250 0
 669 02d8 58F82020 		ldr	r2, [r8, r0, lsl #2]
 670 02dc B168     		ldr	r1, [r6, #8]
 671 02de 8B40     		lsls	r3, r3, r1
 672              	.LVL45:
 673 02e0 1343     		orrs	r3, r3, r2
 674 02e2 48F82030 		str	r3, [r8, r0, lsl #2]
 675              		.loc 1 251 0
 676 02e6 1249     		ldr	r1, .L64+56
 677 02e8 0B5C     		ldrb	r3, [r1, r0]	@ zero_extendqisi2
 678 02ea 0133     		adds	r3, r3, #1
 679 02ec DBB2     		uxtb	r3, r3
 680 02ee 0B54     		strb	r3, [r1, r0]
 681 02f0 73E7     		b	.L42
 682              	.LVL46:
 683              	.L56:
 684              		.loc 1 276 0
ARM GAS  C:\Users\jsyoon\AppData\Local\Temp\ccodNiGa.s 			page 13


 685 02f2 7823     		movs	r3, #120
 686 02f4 B8E7     		b	.L44
 687              	.L65:
 688 02f6 00BF     		.align	2
 689              	.L64:
 690 02f8 00000000 		.word	rlist
 691 02fc 00000000 		.word	.LANCHOR0
 692 0300 00000000 		.word	.LANCHOR4
 693 0304 00000000 		.word	.LC0
 694 0308 00000000 		.word	.LANCHOR1
 695 030c 00000000 		.word	.LANCHOR2
 696 0310 00000000 		.word	.LANCHOR3
 697 0314 00000000 		.word	servo_cmp_by_pos
 698 0318 00000000 		.word	.LANCHOR7
 699 031c 00000000 		.word	.LANCHOR8
 700 0320 14000000 		.word	.LANCHOR4+20
 701 0324 00000000 		.word	.LANCHOR10
 702 0328 00000000 		.word	.LANCHOR11
 703 032c 0C000000 		.word	.LANCHOR4+12
 704 0330 00000000 		.word	.LANCHOR9
 705 0334 00000000 		.word	.LANCHOR5
 706 0338 00000000 		.word	.LANCHOR6
 707              	.LBE16:
 708              		.cfi_endproc
 709              	.LFE124:
 710              		.size	servo_thread, .-servo_thread
 711 033c AFF30080 		.section	.text.servo_init,"ax",%progbits
 712              		.align	2
 713              		.p2align 4,,15
 714              		.global	servo_init
 715              		.thumb
 716              		.thumb_func
 717              		.type	servo_init, %function
 718              	servo_init:
 719              	.LFB119:
 720              		.loc 1 115 0
 721              		.cfi_startproc
 722              		@ args = 0, pretend = 0, frame = 16
 723              		@ frame_needed = 0, uses_anonymous_args = 0
 724 0000 F0B5     		push	{r4, r5, r6, r7, lr}
 725              		.cfi_def_cfa_offset 20
 726              		.cfi_offset 4, -20
 727              		.cfi_offset 5, -16
 728              		.cfi_offset 6, -12
 729              		.cfi_offset 7, -8
 730              		.cfi_offset 14, -4
 731 0002 87B0     		sub	sp, sp, #28
 732              		.cfi_def_cfa_offset 48
 733              		.loc 1 116 0
 734 0004 FFF7FEFF 		bl	hw_setup_servo_outputs
 735              	.LVL47:
 736 0008 2D4F     		ldr	r7, .L69
 737              	.LBB20:
 738              		.loc 1 118 0
 739 000a 0024     		movs	r4, #0
 740              		.loc 1 119 0
 741 000c 0126     		movs	r6, #1
ARM GAS  C:\Users\jsyoon\AppData\Local\Temp\ccodNiGa.s 			page 14


 742              	.LVL48:
 743              	.L68:
 744              		.loc 1 119 0 is_stmt 0 discriminator 2
 745 000e 04EB4405 		add	r5, r4, r4, lsl #1
 746 0012 07EB8505 		add	r5, r7, r5, lsl #2
 747 0016 1922     		movs	r2, #25
 748 0018 6868     		ldr	r0, [r5, #4]
 749 001a A968     		ldr	r1, [r5, #8]
 750 001c 06FA01F1 		lsl	r1, r6, r1
 751 0020 FFF7FEFF 		bl	_pal_lld_setgroupmode
 752              	.LVL49:
 753              		.loc 1 121 0 is_stmt 1 discriminator 2
 754 0024 6B68     		ldr	r3, [r5, #4]
 755 0026 AA68     		ldr	r2, [r5, #8]
 756              		.loc 1 118 0 discriminator 2
 757 0028 0134     		adds	r4, r4, #1
 758              	.LVL50:
 759              		.loc 1 121 0 discriminator 2
 760 002a 06FA02F2 		lsl	r2, r6, r2
 761 002e 92B2     		uxth	r2, r2
 762              		.loc 1 118 0 discriminator 2
 763 0030 022C     		cmp	r4, #2
 764              		.loc 1 121 0 discriminator 2
 765 0032 5A83     		strh	r2, [r3, #26]	@ movhi
 766              		.loc 1 119 0 discriminator 2
 767 0034 4FF00105 		mov	r5, #1
 768              		.loc 1 118 0 discriminator 2
 769 0038 E9D1     		bne	.L68
 770              	.LBE20:
 771              		.loc 1 124 0
 772 003a DFF89CE0 		ldr	lr, .L69+24
 773              		.loc 1 125 0
 774 003e 214F     		ldr	r7, .L69+4
 775              		.loc 1 135 0
 776 0040 214B     		ldr	r3, .L69+8
 777 0042 2248     		ldr	r0, .L69+12
 778              		.loc 1 124 0
 779 0044 0026     		movs	r6, #0
 780              		.loc 1 135 0
 781 0046 0096     		str	r6, [sp]
 782 0048 4022     		movs	r2, #64
 783              		.loc 1 124 0
 784 004a 8EF80060 		strb	r6, [lr]
 785              		.loc 1 135 0
 786 004e 4FF46671 		mov	r1, #920
 787              		.loc 1 125 0
 788 0052 3E70     		strb	r6, [r7]
 789              		.loc 1 135 0
 790 0054 FFF7FEFF 		bl	chThdCreateStatic
 791              	.LVL51:
 792              	.LBB21:
 793              	.LBB22:
 794              		.loc 1 84 0
 795 0058 2946     		mov	r1, r5
 796 005a 2020     		movs	r0, #32
 797 005c FFF7FEFF 		bl	RCC_APB1PeriphClockCmd
 798              	.LVL52:
ARM GAS  C:\Users\jsyoon\AppData\Local\Temp\ccodNiGa.s 			page 15


 799              		.loc 1 89 0
 800 0060 4FF6FF73 		movw	r3, #65535
 801              		.loc 1 93 0
 802 0064 03A9     		add	r1, sp, #12
 803 0066 1A48     		ldr	r0, .L69+16
 804              		.loc 1 89 0
 805 0068 0493     		str	r3, [sp, #16]
 806              		.loc 1 90 0
 807 006a ADF80C60 		strh	r6, [sp, #12]	@ movhi
 808              		.loc 1 91 0
 809 006e ADF81460 		strh	r6, [sp, #20]	@ movhi
 810              		.loc 1 92 0
 811 0072 ADF80E60 		strh	r6, [sp, #14]	@ movhi
 812              		.loc 1 93 0
 813 0076 FFF7FEFF 		bl	TIM_TimeBaseInit
 814              	.LVL53:
 815              		.loc 1 96 0
 816 007a 2A46     		mov	r2, r5
 817 007c 1448     		ldr	r0, .L69+16
 818 007e 5321     		movs	r1, #83
 819 0080 FFF7FEFF 		bl	TIM_PrescalerConfig
 820              	.LVL54:
 821              		.loc 1 99 0
 822 0084 3146     		mov	r1, r6
 823 0086 1248     		ldr	r0, .L69+16
 824 0088 FFF7FEFF 		bl	TIM_ARRPreloadConfig
 825              	.LVL55:
 826              		.loc 1 102 0
 827 008c 2A46     		mov	r2, r5
 828 008e 2946     		mov	r1, r5
 829 0090 0F48     		ldr	r0, .L69+16
 830 0092 FFF7FEFF 		bl	TIM_ITConfig
 831              	.LVL56:
 832              		.loc 1 105 0
 833 0096 2946     		mov	r1, r5
 834 0098 0D48     		ldr	r0, .L69+16
 835 009a FFF7FEFF 		bl	TIM_Cmd
 836              	.LVL57:
 837              		.loc 1 108 0
 838 009e 3723     		movs	r3, #55
 839              		.loc 1 112 0
 840 00a0 02A8     		add	r0, sp, #8
 841              		.loc 1 108 0
 842 00a2 8DF80830 		strb	r3, [sp, #8]
 843              		.loc 1 109 0
 844 00a6 8DF80940 		strb	r4, [sp, #9]
 845              		.loc 1 110 0
 846 00aa 8DF80A40 		strb	r4, [sp, #10]
 847              		.loc 1 111 0
 848 00ae 8DF80B50 		strb	r5, [sp, #11]
 849              		.loc 1 112 0
 850 00b2 FFF7FEFF 		bl	NVIC_Init
 851              	.LVL58:
 852              	.LBE22:
 853              	.LBE21:
 854              		.loc 1 138 0
 855 00b6 074B     		ldr	r3, .L69+20
ARM GAS  C:\Users\jsyoon\AppData\Local\Temp\ccodNiGa.s 			page 16


 856 00b8 1D70     		strb	r5, [r3]
 857              		.loc 1 139 0
 858 00ba 07B0     		add	sp, sp, #28
 859              		@ sp needed
 860 00bc F0BD     		pop	{r4, r5, r6, r7, pc}
 861              	.LVL59:
 862              	.L70:
 863 00be 00BF     		.align	2
 864              	.L69:
 865 00c0 00000000 		.word	.LANCHOR3
 866 00c4 00000000 		.word	.LANCHOR10
 867 00c8 00000000 		.word	servo_thread
 868 00cc 00000000 		.word	.LANCHOR12
 869 00d0 00140040 		.word	1073746944
 870 00d4 00000000 		.word	.LANCHOR13
 871 00d8 00000000 		.word	.LANCHOR11
 872              		.cfi_endproc
 873              	.LFE119:
 874              		.size	servo_init, .-servo_init
 875 00dc AFF30080 		.section	.text.servo_stop_driver,"ax",%progbits
 876              		.align	2
 877              		.p2align 4,,15
 878              		.global	servo_stop_driver
 879              		.thumb
 880              		.thumb_func
 881              		.type	servo_stop_driver, %function
 882              	servo_stop_driver:
 883              	.LFB121:
 884              		.loc 1 151 0
 885              		.cfi_startproc
 886              		@ args = 0, pretend = 0, frame = 0
 887              		@ frame_needed = 0, uses_anonymous_args = 0
 888 0000 08B5     		push	{r3, lr}
 889              		.cfi_def_cfa_offset 8
 890              		.cfi_offset 3, -8
 891              		.cfi_offset 14, -4
 892              		.loc 1 153 0
 893 0002 0420     		movs	r0, #4
 894 0004 0021     		movs	r1, #0
 895 0006 FFF7FEFF 		bl	RCC_AHB1PeriphClockCmd
 896              	.LVL60:
 897              		.loc 1 155 0
 898 000a 0648     		ldr	r0, .L72
 899 000c 0021     		movs	r1, #0
 900 000e FFF7FEFF 		bl	TIM_Cmd
 901              	.LVL61:
 902              		.loc 1 156 0
 903 0012 2020     		movs	r0, #32
 904 0014 0021     		movs	r1, #0
 905 0016 FFF7FEFF 		bl	RCC_APB1PeriphClockCmd
 906              	.LVL62:
 907              		.loc 1 158 0
 908 001a 034B     		ldr	r3, .L72+4
 909 001c 0022     		movs	r2, #0
 910 001e 1A70     		strb	r2, [r3]
 911 0020 08BD     		pop	{r3, pc}
 912              	.L73:
ARM GAS  C:\Users\jsyoon\AppData\Local\Temp\ccodNiGa.s 			page 17


 913 0022 00BF     		.align	2
 914              	.L72:
 915 0024 00140040 		.word	1073746944
 916 0028 00000000 		.word	.LANCHOR13
 917              		.cfi_endproc
 918              	.LFE121:
 919              		.size	servo_stop_driver, .-servo_stop_driver
 920 002c AFF30080 		.section	.text.servo_irq,"ax",%progbits
 921              		.align	2
 922              		.p2align 4,,15
 923              		.global	servo_irq
 924              		.thumb
 925              		.thumb_func
 926              		.type	servo_irq, %function
 927              	servo_irq:
 928              	.LFB122:
 929              		.loc 1 164 0
 930              		.cfi_startproc
 931              		@ args = 0, pretend = 0, frame = 0
 932              		@ frame_needed = 0, uses_anonymous_args = 0
 933 0000 2DE9F041 		push	{r4, r5, r6, r7, r8, lr}
 934              		.cfi_def_cfa_offset 24
 935              		.cfi_offset 4, -24
 936              		.cfi_offset 5, -20
 937              		.cfi_offset 6, -16
 938              		.cfi_offset 7, -12
 939              		.cfi_offset 8, -8
 940              		.cfi_offset 14, -4
 941              		.loc 1 165 0
 942 0004 344E     		ldr	r6, .L85
 943 0006 3378     		ldrb	r3, [r6]	@ zero_extendqisi2
 944 0008 1B06     		lsls	r3, r3, #24
 945 000a 40D4     		bmi	.L84
 946              		.loc 1 173 0
 947 000c 334B     		ldr	r3, .L85+4
 948 000e 3278     		ldrb	r2, [r6]	@ zero_extendqisi2
 949 0010 1B78     		ldrb	r3, [r3]	@ zero_extendqisi2
 950 0012 52B2     		sxtb	r2, r2
 951 0014 9A42     		cmp	r2, r3
 952 0016 51D0     		beq	.L77
 953              		.loc 1 183 0 discriminator 1
 954 0018 3278     		ldrb	r2, [r6]	@ zero_extendqisi2
 955 001a 3148     		ldr	r0, .L85+8
 956 001c 52B2     		sxtb	r2, r2
 957 001e 835C     		ldrb	r3, [r0, r2]	@ zero_extendqisi2
 958 0020 DBB2     		uxtb	r3, r3
 959 0022 591E     		subs	r1, r3, #1
 960 0024 C9B2     		uxtb	r1, r1
 961 0026 8154     		strb	r1, [r0, r2]
 962 0028 23B3     		cbz	r3, .L79
 963 002a 2E4B     		ldr	r3, .L85+12
 964 002c DFF8D080 		ldr	r8, .L85+40
 965 0030 DFF8D0C0 		ldr	ip, .L85+44
 966 0034 2C4F     		ldr	r7, .L85+16
 967 0036 2D4C     		ldr	r4, .L85+20
 968              	.L80:
 969              		.loc 1 184 0
ARM GAS  C:\Users\jsyoon\AppData\Local\Temp\ccodNiGa.s 			page 18


 970 0038 1A78     		ldrb	r2, [r3]	@ zero_extendqisi2
 971 003a 1978     		ldrb	r1, [r3]	@ zero_extendqisi2
 972 003c 49B2     		sxtb	r1, r1
 973 003e 52B2     		sxtb	r2, r2
 974 0040 5CF82110 		ldr	r1, [ip, r1, lsl #2]
 975 0044 58F82220 		ldr	r2, [r8, r2, lsl #2]
 976 0048 89B2     		uxth	r1, r1
 977 004a 5183     		strh	r1, [r2, #26]	@ movhi
 978              		.loc 1 185 0
 979 004c 1A78     		ldrb	r2, [r3]	@ zero_extendqisi2
 980 004e 52B2     		sxtb	r2, r2
 981 0050 B95C     		ldrb	r1, [r7, r2]	@ zero_extendqisi2
 982 0052 2278     		ldrb	r2, [r4]	@ zero_extendqisi2
 983 0054 0A44     		add	r2, r2, r1
 984 0056 D2B2     		uxtb	r2, r2
 985 0058 2270     		strb	r2, [r4]
 986              		.loc 1 186 0
 987 005a 1A78     		ldrb	r2, [r3]	@ zero_extendqisi2
 988 005c 0132     		adds	r2, r2, #1
 989 005e D2B2     		uxtb	r2, r2
 990 0060 1A70     		strb	r2, [r3]
 991              		.loc 1 183 0
 992 0062 3178     		ldrb	r1, [r6]	@ zero_extendqisi2
 993 0064 49B2     		sxtb	r1, r1
 994 0066 425C     		ldrb	r2, [r0, r1]	@ zero_extendqisi2
 995 0068 D2B2     		uxtb	r2, r2
 996 006a 551E     		subs	r5, r2, #1
 997 006c EDB2     		uxtb	r5, r5
 998 006e 4554     		strb	r5, [r0, r1]
 999 0070 002A     		cmp	r2, #0
 1000 0072 E1D1     		bne	.L80
 1001              	.L79:
 1002              		.loc 1 189 0
 1003 0074 3178     		ldrb	r1, [r6]	@ zero_extendqisi2
 1004              		.loc 1 191 0
 1005 0076 1E4A     		ldr	r2, .L85+24
 1006 0078 1E4B     		ldr	r3, .L85+28
 1007              		.loc 1 189 0
 1008 007a 0131     		adds	r1, r1, #1
 1009 007c C9B2     		uxtb	r1, r1
 1010 007e 3170     		strb	r1, [r6]
 1011              		.loc 1 191 0
 1012 0080 3178     		ldrb	r1, [r6]	@ zero_extendqisi2
 1013 0082 49B2     		sxtb	r1, r1
 1014 0084 52F82120 		ldr	r2, [r2, r1, lsl #2]
 1015 0088 DA62     		str	r2, [r3, #44]
 1016 008a BDE8F081 		pop	{r4, r5, r6, r7, r8, pc}
 1017              	.L84:
 1018              	.LVL63:
 1019              	.LBB23:
 1020              	.LBB24:
 1021              		.loc 1 144 0
 1022 008e 1A4B     		ldr	r3, .L85+32
 1023              	.LBE24:
 1024              	.LBE23:
 1025              		.loc 1 168 0
 1026 0090 1748     		ldr	r0, .L85+24
ARM GAS  C:\Users\jsyoon\AppData\Local\Temp\ccodNiGa.s 			page 19


 1027              	.LBB27:
 1028              	.LBB25:
 1029              		.loc 1 144 0
 1030 0092 5C68     		ldr	r4, [r3, #4]
 1031 0094 9D68     		ldr	r5, [r3, #8]
 1032              	.LBE25:
 1033              	.LBE27:
 1034              		.loc 1 168 0
 1035 0096 1749     		ldr	r1, .L85+28
 1036              	.LBB28:
 1037              	.LBB26:
 1038              		.loc 1 144 0
 1039 0098 0122     		movs	r2, #1
 1040 009a 02FA05F5 		lsl	r5, r2, r5
 1041 009e ADB2     		uxth	r5, r5
 1042 00a0 2583     		strh	r5, [r4, #24]	@ movhi
 1043              	.LVL64:
 1044 00a2 1C69     		ldr	r4, [r3, #16]
 1045 00a4 5B69     		ldr	r3, [r3, #20]
 1046 00a6 9A40     		lsls	r2, r2, r3
 1047 00a8 92B2     		uxth	r2, r2
 1048 00aa 2283     		strh	r2, [r4, #24]	@ movhi
 1049              	.LVL65:
 1050              	.LBE26:
 1051              	.LBE28:
 1052              		.loc 1 168 0
 1053 00ac 0268     		ldr	r2, [r0]
 1054              		.loc 1 169 0
 1055 00ae 0023     		movs	r3, #0
 1056              		.loc 1 168 0
 1057 00b0 02F57A72 		add	r2, r2, #1000
 1058 00b4 CA62     		str	r2, [r1, #44]
 1059              		.loc 1 169 0
 1060 00b6 3370     		strb	r3, [r6]
 1061              		.loc 1 170 0
 1062 00b8 BDE8F081 		pop	{r4, r5, r6, r7, r8, pc}
 1063              	.LVL66:
 1064              	.L77:
 1065              		.loc 1 175 0
 1066 00bc 0D4B     		ldr	r3, .L85+28
 1067 00be 44F62062 		movw	r2, #20000
 1068 00c2 DA62     		str	r2, [r3, #44]
 1069              		.loc 1 176 0
 1070              	@ 176 "servo.c" 1
 1071 00c4 72B6     		cpsid   i
 1072              	@ 0 "" 2
 1073              		.loc 1 177 0
 1074              		.thumb
 1075 00c6 0D4B     		ldr	r3, .L85+36
 1076 00c8 0121     		movs	r1, #1
 1077 00ca 1868     		ldr	r0, [r3]
 1078 00cc FFF7FEFF 		bl	chEvtSignalI
 1079              	.LVL67:
 1080              		.loc 1 178 0
 1081              	@ 178 "servo.c" 1
 1082 00d0 62B6     		cpsie   i
 1083              	@ 0 "" 2
ARM GAS  C:\Users\jsyoon\AppData\Local\Temp\ccodNiGa.s 			page 20


 1084              		.loc 1 179 0
 1085              		.thumb
 1086 00d2 BDE8F081 		pop	{r4, r5, r6, r7, r8, pc}
 1087              	.L86:
 1088 00d6 00BF     		.align	2
 1089              	.L85:
 1090 00d8 00000000 		.word	.LANCHOR11
 1091 00dc 00000000 		.word	.LANCHOR10
 1092 00e0 00000000 		.word	.LANCHOR8
 1093 00e4 00000000 		.word	.LANCHOR2
 1094 00e8 00000000 		.word	.LANCHOR9
 1095 00ec 00000000 		.word	.LANCHOR1
 1096 00f0 00000000 		.word	.LANCHOR5
 1097 00f4 00140040 		.word	1073746944
 1098 00f8 00000000 		.word	.LANCHOR3
 1099 00fc 00000000 		.word	.LANCHOR0
 1100 0100 00000000 		.word	.LANCHOR7
 1101 0104 00000000 		.word	.LANCHOR6
 1102              		.cfi_endproc
 1103              	.LFE122:
 1104              		.size	servo_irq, .-servo_irq
 1105 0108 AFF30080 		.section	.text.servo_driver_is_active,"ax",%progbits
 1105      AFF30080 
 1106              		.align	2
 1107              		.p2align 4,,15
 1108              		.global	servo_driver_is_active
 1109              		.thumb
 1110              		.thumb_func
 1111              		.type	servo_driver_is_active, %function
 1112              	servo_driver_is_active:
 1113              	.LFB125:
 1114              		.loc 1 515 0
 1115              		.cfi_startproc
 1116              		@ args = 0, pretend = 0, frame = 0
 1117              		@ frame_needed = 0, uses_anonymous_args = 0
 1118              		@ link register save eliminated.
 1119              		.loc 1 516 0
 1120 0000 014B     		ldr	r3, .L88
 1121 0002 1878     		ldrb	r0, [r3]	@ zero_extendqisi2
 1122              		.loc 1 517 0
 1123 0004 7047     		bx	lr
 1124              	.L89:
 1125 0006 00BF     		.align	2
 1126              	.L88:
 1127 0008 00000000 		.word	.LANCHOR13
 1128              		.cfi_endproc
 1129              	.LFE125:
 1130              		.size	servo_driver_is_active, .-servo_driver_is_active
 1131              		.global	servos
 1132 000c AFF30080 		.section	.bss.same_pos,"aw",%nobits
 1133              		.align	2
 1134              		.set	.LANCHOR8,. + 0
 1135              		.type	same_pos, %object
 1136              		.size	same_pos, 3
 1137              	same_pos:
 1138 0000 000000   		.space	3
 1139 0003 00       		.section	.bss.masks,"aw",%nobits
ARM GAS  C:\Users\jsyoon\AppData\Local\Temp\ccodNiGa.s 			page 21


 1140              		.align	2
 1141              		.set	.LANCHOR6,. + 0
 1142              		.type	masks, %object
 1143              		.size	masks, 8
 1144              	masks:
 1145 0000 00000000 		.space	8
 1145      00000000 
 1146              		.section	.bss.servo_tp,"aw",%nobits
 1147              		.align	2
 1148              		.set	.LANCHOR0,. + 0
 1149              		.type	servo_tp, %object
 1150              		.size	servo_tp, 4
 1151              	servo_tp:
 1152 0000 00000000 		.space	4
 1153              		.section	.bss.sorted_servos,"aw",%nobits
 1154              		.align	2
 1155              		.set	.LANCHOR4,. + 0
 1156              		.type	sorted_servos, %object
 1157              		.size	sorted_servos, 24
 1158              	sorted_servos:
 1159 0000 00000000 		.space	24
 1159      00000000 
 1159      00000000 
 1159      00000000 
 1159      00000000 
 1160              		.section	.bss.servo_thread_wa,"aw",%nobits
 1161              		.align	3
 1162              		.set	.LANCHOR12,. + 0
 1163              		.type	servo_thread_wa, %object
 1164              		.size	servo_thread_wa, 920
 1165              	servo_thread_wa:
 1166 0000 00000000 		.space	920
 1166      00000000 
 1166      00000000 
 1166      00000000 
 1166      00000000 
 1167              		.section	.rodata.str1.4,"aMS",%progbits,1
 1168              		.align	2
 1169              	.LC0:
 1170 0000 53657276 		.ascii	"Servo\000"
 1170      6F00
 1171 0006 0000     		.section	.bss.driver_active,"aw",%nobits
 1172              		.set	.LANCHOR13,. + 0
 1173              		.type	driver_active, %object
 1174              		.size	driver_active, 1
 1175              	driver_active:
 1176 0000 00       		.space	1
 1177              		.section	.bss.int_index,"aw",%nobits
 1178              		.set	.LANCHOR11,. + 0
 1179              		.type	int_index, %object
 1180              		.size	int_index, 1
 1181              	int_index:
 1182 0000 00       		.space	1
 1183              		.section	.bss.length,"aw",%nobits
 1184              		.set	.LANCHOR10,. + 0
 1185              		.type	length, %object
 1186              		.size	length, 1
ARM GAS  C:\Users\jsyoon\AppData\Local\Temp\ccodNiGa.s 			page 22


 1187              	length:
 1188 0000 00       		.space	1
 1189              		.section	.bss.servos,"aw",%nobits
 1190              		.align	2
 1191              		.set	.LANCHOR3,. + 0
 1192              		.type	servos, %object
 1193              		.size	servos, 24
 1194              	servos:
 1195 0000 00000000 		.space	24
 1195      00000000 
 1195      00000000 
 1195      00000000 
 1195      00000000 
 1196              		.section	.bss.delays,"aw",%nobits
 1197              		.align	2
 1198              		.set	.LANCHOR5,. + 0
 1199              		.type	delays, %object
 1200              		.size	delays, 12
 1201              	delays:
 1202 0000 00000000 		.space	12
 1202      00000000 
 1202      00000000 
 1203              		.section	.bss.ports,"aw",%nobits
 1204              		.align	2
 1205              		.set	.LANCHOR7,. + 0
 1206              		.type	ports, %object
 1207              		.size	ports, 8
 1208              	ports:
 1209 0000 00000000 		.space	8
 1209      00000000 
 1210              		.section	.bss.masks_ports_index,"aw",%nobits
 1211              		.set	.LANCHOR2,. + 0
 1212              		.type	masks_ports_index, %object
 1213              		.size	masks_ports_index, 1
 1214              	masks_ports_index:
 1215 0000 00       		.space	1
 1216              		.section	.bss.servo_int_index,"aw",%nobits
 1217              		.set	.LANCHOR1,. + 0
 1218              		.type	servo_int_index, %object
 1219              		.size	servo_int_index, 1
 1220              	servo_int_index:
 1221 0000 00       		.space	1
 1222              		.section	.bss.same_bits,"aw",%nobits
 1223              		.align	2
 1224              		.set	.LANCHOR9,. + 0
 1225              		.type	same_bits, %object
 1226              		.size	same_bits, 3
 1227              	same_bits:
 1228 0000 000000   		.space	3
 1229 0003 00       		.text
 1230              	.Letext0:
 1231              		.file 2 "c:\\crosstools\\gcc-arm-embedded\\4.8_2014q2\\lib\\gcc\\arm-none-eabi\\4.8.4\\include\\st
 1232              		.file 3 "c:\\crosstools\\gcc-arm-embedded\\4.8_2014q2\\arm-none-eabi\\include\\machine\\_default_t
 1233              		.file 4 "c:\\crosstools\\gcc-arm-embedded\\4.8_2014q2\\arm-none-eabi\\include\\stdint.h"
 1234              		.file 5 "ChibiOS_2.6.6/os/ports/GCC/ARMCMx/chtypes.h"
 1235              		.file 6 "ChibiOS_2.6.6/os/kernel/include/chlists.h"
 1236              		.file 7 "ChibiOS_2.6.6/os/kernel/include/chthreads.h"
ARM GAS  C:\Users\jsyoon\AppData\Local\Temp\ccodNiGa.s 			page 23


 1237              		.file 8 "ChibiOS_2.6.6/os/ports/GCC/ARMCMx/chcore_v7m.h"
 1238              		.file 9 "ChibiOS_2.6.6/os/kernel/include/chschd.h"
 1239              		.file 10 "ChibiOS_2.6.6/os/kernel/include/chmtx.h"
 1240              		.file 11 "ChibiOS_2.6.6/os/hal/platforms/STM32F4xx/stm32f4xx.h"
 1241              		.file 12 "ChibiOS_2.6.6/ext/stdperiph_stm32f4/inc/stm32f4xx_tim.h"
 1242              		.file 13 "ChibiOS_2.6.6/ext/stdperiph_stm32f4/inc/misc.h"
 1243              		.file 14 "ChibiOS_2.6.6/os/hal/platforms/STM32/GPIOv2/pal_lld.h"
 1244              		.file 15 "servo.h"
 1245              		.file 16 "c:\\crosstools\\gcc-arm-embedded\\4.8_2014q2\\arm-none-eabi\\include\\stdlib.h"
 1246              		.file 17 "ChibiOS_2.6.6/os/ports/common/ARMCMx/CMSIS/include/core_cm4.h"
 1247              		.file 18 "ChibiOS_2.6.6/ext/stdperiph_stm32f4/inc/stm32f4xx_rcc.h"
 1248              		.file 19 "ChibiOS_2.6.6/os/kernel/include/chevents.h"
 1249              		.file 20 "hwconf/hw.h"