ARM GAS  C:\Users\jsyoon\AppData\Local\Temp\ccTrwxNo.s 			page 1


   1              		.syntax unified
   2              		.cpu cortex-m4
   3              		.eabi_attribute 27, 3
   4              		.eabi_attribute 28, 1
   5              		.fpu fpv4-sp-d16
   6              		.eabi_attribute 20, 1
   7              		.eabi_attribute 21, 1
   8              		.eabi_attribute 23, 3
   9              		.eabi_attribute 24, 1
  10              		.eabi_attribute 25, 1
  11              		.eabi_attribute 26, 1
  12              		.eabi_attribute 30, 2
  13              		.eabi_attribute 34, 1
  14              		.eabi_attribute 18, 4
  15              		.thumb
  16              		.file	"servo_dec.c"
  17              		.text
  18              	.Ltext0:
  19              		.cfi_sections	.debug_frame
  20              		.section	.text.icuwidthcb,"ax",%progbits
  21              		.align	2
  22              		.p2align 4,,15
  23              		.thumb
  24              		.thumb_func
  25              		.type	icuwidthcb, %function
  26              	icuwidthcb:
  27              	.LFB119:
  28              		.file 1 "servo_dec.c"
  29              		.loc 1 61 0
  30              		.cfi_startproc
  31              		@ args = 0, pretend = 0, frame = 0
  32              		@ frame_needed = 0, uses_anonymous_args = 0
  33              	.LVL0:
  34 0000 08B5     		push	{r3, lr}
  35              		.cfi_def_cfa_offset 8
  36              		.cfi_offset 3, -8
  37              		.cfi_offset 14, -4
  38              		.loc 1 62 0
  39 0002 0369     		ldr	r3, [r0, #16]
  40 0004 9FED417A 		flds	s14, .L35
  41 0008 1868     		ldr	r0, [r3]
  42              	.LVL1:
  43 000a 414A     		ldr	r2, .L35+4
  44              		.loc 1 63 0
  45 000c 414B     		ldr	r3, .L35+8
  46              		.loc 1 64 0
  47 000e 4249     		ldr	r1, .L35+12
  48              		.loc 1 62 0
  49 0010 0130     		adds	r0, r0, #1
  50 0012 07EE900A 		fmsr	s15, r0	@ int
  51 0016 F8EE677A 		fuitos	s15, s15
  52 001a C7EE877A 		fdivs	s15, s15, s14
  53 001e C2ED007A 		fsts	s15, [r2]
  54              		.loc 1 63 0
  55 0022 92ED006A 		flds	s12, [r2]
  56 0026 93ED007A 		flds	s14, [r3]
  57              		.loc 1 64 0
ARM GAS  C:\Users\jsyoon\AppData\Local\Temp\ccTrwxNo.s 			page 2


  58 002a D1ED006A 		flds	s13, [r1]
  59 002e D3ED007A 		flds	s15, [r3]
  60              		.loc 1 63 0
  61 0032 36EE477A 		fsubs	s14, s12, s14
  62              	.LVL2:
  63              		.loc 1 64 0
  64 0036 76EEE77A 		fsubs	s15, s13, s15
  65              	.LVL3:
  66              		.loc 1 66 0
  67 003a B4EEE77A 		fcmpes	s14, s15
  68 003e F1EE10FA 		fmstat
  69 0042 0ADD     		ble	.L2
  70              		.loc 1 67 0
  71 0044 DFED356A 		flds	s13, .L35+16
  72 0048 67EEA66A 		fmuls	s13, s15, s13
  73 004c B4EEE67A 		fcmpes	s14, s13
  74 0050 F1EE10FA 		fmstat
  75 0054 1CD5     		bpl	.L1
  76              		.loc 1 68 0
  77 0056 B0EE677A 		fcpys	s14, s15
  78              	.LVL4:
  79              	.L2:
  80              		.loc 1 75 0
  81 005a B5EEC07A 		fcmpezs	s14
  82 005e F1EE10FA 		fmstat
  83 0062 15DD     		ble	.L1
  84              		.loc 1 76 0
  85 0064 2E4B     		ldr	r3, .L35+20
  86 0066 1B78     		ldrb	r3, [r3]	@ zero_extendqisi2
  87              	.LBB5:
  88              		.loc 1 77 0
  89 0068 F0EE006A 		fconsts	s13, #0
  90 006c B0EE676A 		fcpys	s12, s15
  91 0070 97EE266A 		vfnms.f32	s12, s14, s13
  92              	.LBE5:
  93              		.loc 1 76 0
  94 0074 6BB9     		cbnz	r3, .L34
  95              		.loc 1 87 0
  96 0076 C6EE277A 		fdivs	s15, s12, s15
  97              	.LVL5:
  98 007a 2A4B     		ldr	r3, .L35+24
  99 007c C3ED007A 		fsts	s15, [r3]
 100              	.LVL6:
 101              	.L18:
 102              		.loc 1 92 0
 103 0080 294B     		ldr	r3, .L35+28
 104              		.loc 1 90 0
 105 0082 2A49     		ldr	r1, .L35+32
 106 0084 2A4A     		ldr	r2, .L35+36
 107              		.loc 1 92 0
 108 0086 1B68     		ldr	r3, [r3]
 109              		.loc 1 90 0
 110 0088 C968     		ldr	r1, [r1, #12]
 111 008a 1160     		str	r1, [r2]
 112              		.loc 1 92 0
 113 008c 03B1     		cbz	r3, .L1
 114              		.loc 1 93 0
ARM GAS  C:\Users\jsyoon\AppData\Local\Temp\ccTrwxNo.s 			page 3


 115 008e 9847     		blx	r3
 116              	.LVL7:
 117              	.L1:
 118 0090 08BD     		pop	{r3, pc}
 119              	.LVL8:
 120              	.L34:
 121              	.LBB8:
 122              		.loc 1 77 0
 123 0092 C6EE277A 		fdivs	s15, s12, s15
 124              	.LVL9:
 125              		.loc 1 80 0
 126 0096 274B     		ldr	r3, .L35+40
 127 0098 274A     		ldr	r2, .L35+44
 128 009a 93ED007A 		flds	s14, [r3]
 129              	.LVL10:
 130 009e D2ED006A 		flds	s13, [r2]
 131              	.LVL11:
 132              	.LBB6:
 133              	.LBB7:
 134              		.loc 1 51 0
 135 00a2 F4EEC77A 		fcmpes	s15, s14
 136 00a6 F1EE10FA 		fmstat
 137 00aa 0CD8     		bhi	.L8
 138 00ac F4EEE67A 		fcmpes	s15, s13
 139 00b0 F1EE10FA 		fmstat
 140 00b4 07D8     		bhi	.L8
 141              		.loc 1 52 0
 142 00b6 B4EE667A 		fcmps	s14, s13
 143 00ba F1EE10FA 		fmstat
 144 00be 98BF     		it	ls
 145 00c0 F0EE476A 		fcpysls	s13, s14
 146              	.LVL12:
 147 00c4 1AE0     		b	.L11
 148              	.LVL13:
 149              	.L8:
 150              		.loc 1 53 0
 151 00c6 F4EEC77A 		fcmpes	s15, s14
 152 00ca F1EE10FA 		fmstat
 153 00ce 0CDB     		blt	.L13
 154 00d0 B4EEE67A 		fcmpes	s14, s13
 155 00d4 F1EE10FA 		fmstat
 156 00d8 07D8     		bhi	.L13
 157              		.loc 1 54 0
 158 00da F4EE667A 		fcmps	s15, s13
 159 00de F1EE10FA 		fmstat
 160 00e2 98BF     		it	ls
 161 00e4 F0EE676A 		fcpysls	s13, s15
 162              	.LVL14:
 163 00e8 08E0     		b	.L11
 164              	.LVL15:
 165              	.L13:
 166              		.loc 1 56 0
 167 00ea F4EEC77A 		fcmpes	s15, s14
 168 00ee F1EE10FA 		fmstat
 169 00f2 8CBF     		ite	hi
 170 00f4 F0EE476A 		fcpyshi	s13, s14
 171 00f8 F0EE676A 		fcpysls	s13, s15
ARM GAS  C:\Users\jsyoon\AppData\Local\Temp\ccTrwxNo.s 			page 4


 172              	.LVL16:
 173              	.L11:
 174              	.LBE7:
 175              	.LBE6:
 176              		.loc 1 85 0
 177 00fc 0949     		ldr	r1, .L35+24
 178              		.loc 1 82 0
 179 00fe 82ED007A 		fsts	s14, [r2]
 180              		.loc 1 83 0
 181 0102 C3ED007A 		fsts	s15, [r3]
 182              		.loc 1 85 0
 183 0106 C1ED006A 		fsts	s13, [r1]
 184              	.LBE8:
 185 010a B9E7     		b	.L18
 186              	.L36:
 187              		.align	2
 188              	.L35:
 189 010c 00007A44 		.word	1148846080
 190 0110 00000000 		.word	.LANCHOR0
 191 0114 00000000 		.word	.LANCHOR1
 192 0118 00000000 		.word	.LANCHOR2
 193 011c 9A99993F 		.word	1067030938
 194 0120 00000000 		.word	.LANCHOR3
 195 0124 00000000 		.word	.LANCHOR6
 196 0128 00000000 		.word	.LANCHOR8
 197 012c 00000000 		.word	vtlist
 198 0130 00000000 		.word	.LANCHOR7
 199 0134 00000000 		.word	.LANCHOR4
 200 0138 00000000 		.word	.LANCHOR5
 201              		.cfi_endproc
 202              	.LFE119:
 203              		.size	icuwidthcb, .-icuwidthcb
 204 013c AFF30080 		.section	.text.icuperiodcb,"ax",%progbits
 205              		.align	2
 206              		.p2align 4,,15
 207              		.thumb
 208              		.thumb_func
 209              		.type	icuperiodcb, %function
 210              	icuperiodcb:
 211              	.LFB120:
 212              		.loc 1 98 0
 213              		.cfi_startproc
 214              		@ args = 0, pretend = 0, frame = 0
 215              		@ frame_needed = 0, uses_anonymous_args = 0
 216              		@ link register save eliminated.
 217              	.LVL17:
 218 0000 7047     		bx	lr
 219              		.cfi_endproc
 220              	.LFE120:
 221              		.size	icuperiodcb, .-icuperiodcb
 222 0002 00BFAFF3 		.section	.text.servodec_init,"ax",%progbits
 222      0080AFF3 
 222      0080AFF3 
 222      0080
 223              		.align	2
 224              		.p2align 4,,15
 225              		.global	servodec_init
ARM GAS  C:\Users\jsyoon\AppData\Local\Temp\ccTrwxNo.s 			page 5


 226              		.thumb
 227              		.thumb_func
 228              		.type	servodec_init, %function
 229              	servodec_init:
 230              	.LFB121:
 231              		.loc 1 119 0
 232              		.cfi_startproc
 233              		@ args = 0, pretend = 0, frame = 0
 234              		@ frame_needed = 0, uses_anonymous_args = 0
 235              	.LVL18:
 236              		.loc 1 119 0
 237 0000 38B5     		push	{r3, r4, r5, lr}
 238              		.cfi_def_cfa_offset 16
 239              		.cfi_offset 3, -16
 240              		.cfi_offset 4, -12
 241              		.cfi_offset 5, -8
 242              		.cfi_offset 14, -4
 243              		.loc 1 120 0
 244 0002 0B4C     		ldr	r4, .L39
 245 0004 0B49     		ldr	r1, .L39+4
 246              		.loc 1 119 0
 247 0006 0546     		mov	r5, r0
 248              		.loc 1 120 0
 249 0008 2046     		mov	r0, r4
 250              	.LVL19:
 251 000a FFF7FEFF 		bl	icuStart
 252              	.LVL20:
 253              		.loc 1 121 0
 254 000e 2021     		movs	r1, #32
 255 0010 4FF48172 		mov	r2, #258
 256 0014 0848     		ldr	r0, .L39+8
 257 0016 FFF7FEFF 		bl	_pal_lld_setgroupmode
 258              	.LVL21:
 259              		.loc 1 122 0
 260 001a 2046     		mov	r0, r4
 261 001c FFF7FEFF 		bl	icuEnable
 262              	.LVL22:
 263              		.loc 1 130 0
 264 0020 0648     		ldr	r0, .L39+12
 265              	.LBB9:
 266              		.loc 1 125 0
 267 0022 0749     		ldr	r1, .L39+16
 268              		.loc 1 126 0
 269 0024 074A     		ldr	r2, .L39+20
 270              	.LBE9:
 271              		.loc 1 130 0
 272 0026 0560     		str	r5, [r0]
 273              	.LBB10:
 274              		.loc 1 125 0
 275 0028 0023     		movs	r3, #0
 276 002a 0B60     		str	r3, [r1]	@ float
 277              		.loc 1 126 0
 278 002c 1360     		str	r3, [r2]	@ float
 279              	.LVL23:
 280 002e 38BD     		pop	{r3, r4, r5, pc}
 281              	.LVL24:
 282              	.L40:
ARM GAS  C:\Users\jsyoon\AppData\Local\Temp\ccTrwxNo.s 			page 6


 283              		.align	2
 284              	.L39:
 285 0030 00000000 		.word	ICUD3
 286 0034 00000000 		.word	.LANCHOR9
 287 0038 00040240 		.word	1073873920
 288 003c 00000000 		.word	.LANCHOR8
 289 0040 00000000 		.word	.LANCHOR6
 290 0044 00000000 		.word	.LANCHOR0
 291              	.LBE10:
 292              		.cfi_endproc
 293              	.LFE121:
 294              		.size	servodec_init, .-servodec_init
 295 0048 AFF30080 		.section	.text.servodec_set_pulse_options,"ax",%progbits
 295      AFF30080 
 296              		.align	2
 297              		.p2align 4,,15
 298              		.global	servodec_set_pulse_options
 299              		.thumb
 300              		.thumb_func
 301              		.type	servodec_set_pulse_options, %function
 302              	servodec_set_pulse_options:
 303              	.LFB122:
 304              		.loc 1 142 0
 305              		.cfi_startproc
 306              		@ args = 0, pretend = 0, frame = 0
 307              		@ frame_needed = 0, uses_anonymous_args = 0
 308              		@ link register save eliminated.
 309              	.LVL25:
 310              		.loc 1 143 0
 311 0000 0449     		ldr	r1, .L42
 312              		.loc 1 144 0
 313 0002 054A     		ldr	r2, .L42+4
 314              		.loc 1 145 0
 315 0004 054B     		ldr	r3, .L42+8
 316              		.loc 1 143 0
 317 0006 81ED000A 		fsts	s0, [r1]
 318              		.loc 1 144 0
 319 000a C2ED000A 		fsts	s1, [r2]
 320              		.loc 1 145 0
 321 000e 1870     		strb	r0, [r3]
 322 0010 7047     		bx	lr
 323              	.L43:
 324 0012 00BF     		.align	2
 325              	.L42:
 326 0014 00000000 		.word	.LANCHOR1
 327 0018 00000000 		.word	.LANCHOR2
 328 001c 00000000 		.word	.LANCHOR3
 329              		.cfi_endproc
 330              	.LFE122:
 331              		.size	servodec_set_pulse_options, .-servodec_set_pulse_options
 332              		.section	.text.servodec_get_servo,"ax",%progbits
 333              		.align	2
 334              		.p2align 4,,15
 335              		.global	servodec_get_servo
 336              		.thumb
 337              		.thumb_func
 338              		.type	servodec_get_servo, %function
ARM GAS  C:\Users\jsyoon\AppData\Local\Temp\ccTrwxNo.s 			page 7


 339              	servodec_get_servo:
 340              	.LFB123:
 341              		.loc 1 157 0
 342              		.cfi_startproc
 343              		@ args = 0, pretend = 0, frame = 0
 344              		@ frame_needed = 0, uses_anonymous_args = 0
 345              		@ link register save eliminated.
 346              	.LVL26:
 347              		.loc 1 158 0
 348 0000 0028     		cmp	r0, #0
 349              		.loc 1 159 0
 350 0002 DDBF     		ittte	le
 351 0004 034B     		ldrle	r3, .L47
 352 0006 03EB8000 		addle	r0, r3, r0, lsl #2
 353              	.LVL27:
 354 000a 90ED000A 		fldsle	s0, [r0]
 355              		.loc 1 161 0
 356 000e 9FED020A 		fldsgt	s0, .L47+4
 357              		.loc 1 163 0
 358 0012 7047     		bx	lr
 359              	.L48:
 360              		.align	2
 361              	.L47:
 362 0014 00000000 		.word	.LANCHOR6
 363 0018 00000000 		.word	0
 364              		.cfi_endproc
 365              	.LFE123:
 366              		.size	servodec_get_servo, .-servodec_get_servo
 367 001c AFF30080 		.section	.text.servodec_get_time_since_update,"ax",%progbits
 368              		.align	2
 369              		.p2align 4,,15
 370              		.global	servodec_get_time_since_update
 371              		.thumb
 372              		.thumb_func
 373              		.type	servodec_get_time_since_update, %function
 374              	servodec_get_time_since_update:
 375              	.LFB124:
 376              		.loc 1 172 0
 377              		.cfi_startproc
 378              		@ args = 0, pretend = 0, frame = 0
 379              		@ frame_needed = 0, uses_anonymous_args = 0
 380              		@ link register save eliminated.
 381              		.loc 1 173 0
 382 0000 044A     		ldr	r2, .L50
 383 0002 054B     		ldr	r3, .L50+4
 384 0004 D068     		ldr	r0, [r2, #12]
 385 0006 1A68     		ldr	r2, [r3]
 386 0008 044B     		ldr	r3, .L50+8
 387 000a 801A     		subs	r0, r0, r2
 388 000c A3FB0020 		umull	r2, r0, r3, r0
 389              		.loc 1 174 0
 390 0010 C008     		lsrs	r0, r0, #3
 391 0012 7047     		bx	lr
 392              	.L51:
 393              		.align	2
 394              	.L50:
 395 0014 00000000 		.word	vtlist
ARM GAS  C:\Users\jsyoon\AppData\Local\Temp\ccTrwxNo.s 			page 8


 396 0018 00000000 		.word	.LANCHOR7
 397 001c CDCCCCCC 		.word	-858993459
 398              		.cfi_endproc
 399              	.LFE124:
 400              		.size	servodec_get_time_since_update, .-servodec_get_time_since_update
 401              		.section	.text.servodec_get_last_pulse_len,"ax",%progbits
 402              		.align	2
 403              		.p2align 4,,15
 404              		.global	servodec_get_last_pulse_len
 405              		.thumb
 406              		.thumb_func
 407              		.type	servodec_get_last_pulse_len, %function
 408              	servodec_get_last_pulse_len:
 409              	.LFB125:
 410              		.loc 1 185 0
 411              		.cfi_startproc
 412              		@ args = 0, pretend = 0, frame = 0
 413              		@ frame_needed = 0, uses_anonymous_args = 0
 414              		@ link register save eliminated.
 415              	.LVL28:
 416              		.loc 1 186 0
 417 0000 0028     		cmp	r0, #0
 418              		.loc 1 187 0
 419 0002 DDBF     		ittte	le
 420 0004 034B     		ldrle	r3, .L55
 421 0006 03EB8000 		addle	r0, r3, r0, lsl #2
 422              	.LVL29:
 423 000a 90ED000A 		fldsle	s0, [r0]
 424              		.loc 1 189 0
 425 000e 9FED020A 		fldsgt	s0, .L55+4
 426              		.loc 1 191 0
 427 0012 7047     		bx	lr
 428              	.L56:
 429              		.align	2
 430              	.L55:
 431 0014 00000000 		.word	.LANCHOR0
 432 0018 00000000 		.word	0
 433              		.cfi_endproc
 434              	.LFE125:
 435              		.size	servodec_get_last_pulse_len, .-servodec_get_last_pulse_len
 436 001c AFF30080 		.section	.bss.servo_pos,"aw",%nobits
 437              		.align	2
 438              		.set	.LANCHOR6,. + 0
 439              		.type	servo_pos, %object
 440              		.size	servo_pos, 4
 441              	servo_pos:
 442 0000 00000000 		.space	4
 443              		.section	.data.pulse_end,"aw",%progbits
 444              		.align	2
 445              		.set	.LANCHOR2,. + 0
 446              		.type	pulse_end, %object
 447              		.size	pulse_end, 4
 448              	pulse_end:
 449 0000 00000040 		.word	1073741824
 450              		.section	.bss.last_update_time,"aw",%nobits
 451              		.align	2
 452              		.set	.LANCHOR7,. + 0
ARM GAS  C:\Users\jsyoon\AppData\Local\Temp\ccTrwxNo.s 			page 9


 453              		.type	last_update_time, %object
 454              		.size	last_update_time, 4
 455              	last_update_time:
 456 0000 00000000 		.space	4
 457              		.section	.data.c2.9373,"aw",%progbits
 458              		.align	2
 459              		.set	.LANCHOR5,. + 0
 460              		.type	c2.9373, %object
 461              		.size	c2.9373, 4
 462              	c2.9373:
 463 0000 0000003F 		.word	1056964608
 464              		.section	.bss.last_len_received,"aw",%nobits
 465              		.align	2
 466              		.set	.LANCHOR0,. + 0
 467              		.type	last_len_received, %object
 468              		.size	last_len_received, 4
 469              	last_len_received:
 470 0000 00000000 		.space	4
 471              		.section	.bss.use_median_filter,"aw",%nobits
 472              		.set	.LANCHOR3,. + 0
 473              		.type	use_median_filter, %object
 474              		.size	use_median_filter, 1
 475              	use_median_filter:
 476 0000 00       		.space	1
 477              		.section	.data.c1.9372,"aw",%progbits
 478              		.align	2
 479              		.set	.LANCHOR4,. + 0
 480              		.type	c1.9372, %object
 481              		.size	c1.9372, 4
 482              	c1.9372:
 483 0000 0000003F 		.word	1056964608
 484              		.section	.data.pulse_start,"aw",%progbits
 485              		.align	2
 486              		.set	.LANCHOR1,. + 0
 487              		.type	pulse_start, %object
 488              		.size	pulse_start, 4
 489              	pulse_start:
 490 0000 0000803F 		.word	1065353216
 491              		.section	.bss.done_func,"aw",%nobits
 492              		.align	2
 493              		.set	.LANCHOR8,. + 0
 494              		.type	done_func, %object
 495              		.size	done_func, 4
 496              	done_func:
 497 0000 00000000 		.space	4
 498              		.section	.data.icucfg,"aw",%progbits
 499              		.align	2
 500              		.set	.LANCHOR9,. + 0
 501              		.type	icucfg, %object
 502              		.size	icucfg, 28
 503              	icucfg:
 504 0000 00       		.byte	0
 505 0001 000000   		.space	3
 506 0004 40420F00 		.word	1000000
 507 0008 00000000 		.word	icuwidthcb
 508 000c 00000000 		.word	icuperiodcb
 509 0010 00000000 		.word	0
ARM GAS  C:\Users\jsyoon\AppData\Local\Temp\ccTrwxNo.s 			page 10


 510 0014 01       		.byte	1
 511 0015 000000   		.space	3
 512 0018 00000000 		.word	0
 513              		.text
 514              	.Letext0:
 515              		.file 2 "c:\\crosstools\\gcc-arm-embedded\\4.8_2014q2\\arm-none-eabi\\include\\machine\\_default_t
 516              		.file 3 "c:\\crosstools\\gcc-arm-embedded\\4.8_2014q2\\arm-none-eabi\\include\\stdint.h"
 517              		.file 4 "ChibiOS_2.6.6/os/ports/GCC/ARMCMx/chtypes.h"
 518              		.file 5 "ChibiOS_2.6.6/os/kernel/include/chvt.h"
 519              		.file 6 "ChibiOS_2.6.6/os/hal/platforms/STM32/GPIOv2/pal_lld.h"
 520              		.file 7 "ChibiOS_2.6.6/os/hal/include/icu.h"
 521              		.file 8 "ChibiOS_2.6.6/os/hal/platforms/STM32/TIMv1/icu_lld.h"
 522              		.file 9 "ChibiOS_2.6.6/os/hal/platforms/STM32/TIMv1/stm32_tim.h"
 523              		.file 10 "ChibiOS_2.6.6/os/ports/common/ARMCMx/CMSIS/include/core_cm4.h"