ARM GAS  C:\Users\jsyoon\AppData\Local\Temp\ccXNWRFU.s 			page 1


   1              		.syntax unified
   2              		.cpu cortex-m4
   3              		.eabi_attribute 27, 3
   4              		.eabi_attribute 28, 1
   5              		.fpu fpv4-sp-d16
   6              		.eabi_attribute 20, 1
   7              		.eabi_attribute 21, 1
   8              		.eabi_attribute 23, 3
   9              		.eabi_attribute 24, 1
  10              		.eabi_attribute 25, 1
  11              		.eabi_attribute 26, 1
  12              		.eabi_attribute 30, 2
  13              		.eabi_attribute 34, 1
  14              		.eabi_attribute 18, 4
  15              		.thumb
  16              		.file	"stm32f4xx_rcc.c"
  17              		.text
  18              	.Ltext0:
  19              		.cfi_sections	.debug_frame
  20              		.section	.text.RCC_DeInit,"ax",%progbits
  21              		.align	2
  22              		.p2align 4,,15
  23              		.global	RCC_DeInit
  24              		.thumb
  25              		.thumb_func
  26              		.type	RCC_DeInit, %function
  27              	RCC_DeInit:
  28              	.LFB111:
  29              		.file 1 "ChibiOS_2.6.6/ext/stdperiph_stm32f4/src/stm32f4xx_rcc.c"
  30              		.loc 1 203 0
  31              		.cfi_startproc
  32              		@ args = 0, pretend = 0, frame = 0
  33              		@ frame_needed = 0, uses_anonymous_args = 0
  34              		@ link register save eliminated.
  35              		.loc 1 205 0
  36 0000 0A4B     		ldr	r3, .L2
  37              		.loc 1 214 0
  38 0002 0B48     		ldr	r0, .L2+4
  39              		.loc 1 205 0
  40 0004 1A68     		ldr	r2, [r3]
  41              		.loc 1 208 0
  42 0006 0021     		movs	r1, #0
  43              		.loc 1 205 0
  44 0008 42F00102 		orr	r2, r2, #1
  45 000c 1A60     		str	r2, [r3]
  46              		.loc 1 208 0
  47 000e 9960     		str	r1, [r3, #8]
  48              		.loc 1 211 0
  49 0010 1A68     		ldr	r2, [r3]
  50 0012 22F08472 		bic	r2, r2, #17301504
  51 0016 22F48032 		bic	r2, r2, #65536
  52 001a 1A60     		str	r2, [r3]
  53              		.loc 1 214 0
  54 001c 5860     		str	r0, [r3, #4]
  55              		.loc 1 217 0
  56 001e 1A68     		ldr	r2, [r3]
  57 0020 22F48022 		bic	r2, r2, #262144
ARM GAS  C:\Users\jsyoon\AppData\Local\Temp\ccXNWRFU.s 			page 2


  58 0024 1A60     		str	r2, [r3]
  59              		.loc 1 220 0
  60 0026 D960     		str	r1, [r3, #12]
  61 0028 7047     		bx	lr
  62              	.L3:
  63 002a 00BF     		.align	2
  64              	.L2:
  65 002c 00380240 		.word	1073887232
  66 0030 10300024 		.word	603992080
  67              		.cfi_endproc
  68              	.LFE111:
  69              		.size	RCC_DeInit, .-RCC_DeInit
  70 0034 AFF30080 		.section	.text.RCC_HSEConfig,"ax",%progbits
  70      AFF30080 
  70      AFF30080 
  71              		.align	2
  72              		.p2align 4,,15
  73              		.global	RCC_HSEConfig
  74              		.thumb
  75              		.thumb_func
  76              		.type	RCC_HSEConfig, %function
  77              	RCC_HSEConfig:
  78              	.LFB112:
  79              		.loc 1 244 0
  80              		.cfi_startproc
  81              		@ args = 0, pretend = 0, frame = 0
  82              		@ frame_needed = 0, uses_anonymous_args = 0
  83              		@ link register save eliminated.
  84              	.LVL0:
  85              		.loc 1 249 0
  86 0000 024B     		ldr	r3, .L5
  87 0002 0022     		movs	r2, #0
  88 0004 1A70     		strb	r2, [r3]
  89              		.loc 1 252 0
  90 0006 1870     		strb	r0, [r3]
  91 0008 7047     		bx	lr
  92              	.L6:
  93 000a 00BF     		.align	2
  94              	.L5:
  95 000c 02380240 		.word	1073887234
  96              		.cfi_endproc
  97              	.LFE112:
  98              		.size	RCC_HSEConfig, .-RCC_HSEConfig
  99              		.section	.text.RCC_WaitForHSEStartUp,"ax",%progbits
 100              		.align	2
 101              		.p2align 4,,15
 102              		.global	RCC_WaitForHSEStartUp
 103              		.thumb
 104              		.thumb_func
 105              		.type	RCC_WaitForHSEStartUp, %function
 106              	RCC_WaitForHSEStartUp:
 107              	.LFB113:
 108              		.loc 1 268 0
 109              		.cfi_startproc
 110              		@ args = 0, pretend = 0, frame = 8
 111              		@ frame_needed = 0, uses_anonymous_args = 0
 112              		@ link register save eliminated.
ARM GAS  C:\Users\jsyoon\AppData\Local\Temp\ccXNWRFU.s 			page 3


 113 0000 82B0     		sub	sp, sp, #8
 114              		.cfi_def_cfa_offset 8
 115              		.loc 1 269 0
 116 0002 0023     		movs	r3, #0
 117              	.LBB6:
 118              	.LBB7:
 119              		.loc 1 1704 0
 120 0004 0B4A     		ldr	r2, .L19
 121              	.LBE7:
 122              	.LBE6:
 123              		.loc 1 269 0
 124 0006 0193     		str	r3, [sp, #4]
 125              	.LVL1:
 126              	.L11:
 127              	.LBB9:
 128              	.LBB8:
 129              		.loc 1 1704 0 discriminator 1
 130 0008 1368     		ldr	r3, [r2]
 131              	.LVL2:
 132              		.loc 1 1717 0 discriminator 1
 133 000a 9B03     		lsls	r3, r3, #14
 134              	.LVL3:
 135 000c 0CD4     		bmi	.L18
 136              	.LBE8:
 137              	.LBE9:
 138              		.loc 1 276 0
 139 000e 019B     		ldr	r3, [sp, #4]
 140 0010 0133     		adds	r3, r3, #1
 141 0012 0193     		str	r3, [sp, #4]
 142              		.loc 1 277 0
 143 0014 019B     		ldr	r3, [sp, #4]
 144 0016 B3F5A04F 		cmp	r3, #20480
 145 001a F5D1     		bne	.L11
 146              	.LVL4:
 147              	.L10:
 148              	.LBB10:
 149              	.LBB11:
 150              		.loc 1 1704 0
 151 001c 054B     		ldr	r3, .L19
 152 001e 1868     		ldr	r0, [r3]
 153              	.LVL5:
 154              	.LBE11:
 155              	.LBE10:
 156              		.loc 1 287 0
 157 0020 C0F34040 		ubfx	r0, r0, #17, #1
 158              	.LVL6:
 159              		.loc 1 288 0
 160 0024 02B0     		add	sp, sp, #8
 161              		@ sp needed
 162 0026 7047     		bx	lr
 163              	.LVL7:
 164              	.L18:
 165              		.loc 1 276 0
 166 0028 019B     		ldr	r3, [sp, #4]
 167 002a 0133     		adds	r3, r3, #1
 168 002c 0193     		str	r3, [sp, #4]
 169              		.loc 1 277 0
ARM GAS  C:\Users\jsyoon\AppData\Local\Temp\ccXNWRFU.s 			page 4


 170 002e 019B     		ldr	r3, [sp, #4]
 171 0030 F4E7     		b	.L10
 172              	.L20:
 173 0032 00BF     		.align	2
 174              	.L19:
 175 0034 00380240 		.word	1073887232
 176              		.cfi_endproc
 177              	.LFE113:
 178              		.size	RCC_WaitForHSEStartUp, .-RCC_WaitForHSEStartUp
 179 0038 AFF30080 		.section	.text.RCC_AdjustHSICalibrationValue,"ax",%progbits
 179      AFF30080 
 180              		.align	2
 181              		.p2align 4,,15
 182              		.global	RCC_AdjustHSICalibrationValue
 183              		.thumb
 184              		.thumb_func
 185              		.type	RCC_AdjustHSICalibrationValue, %function
 186              	RCC_AdjustHSICalibrationValue:
 187              	.LFB114:
 188              		.loc 1 299 0
 189              		.cfi_startproc
 190              		@ args = 0, pretend = 0, frame = 0
 191              		@ frame_needed = 0, uses_anonymous_args = 0
 192              		@ link register save eliminated.
 193              	.LVL8:
 194              		.loc 1 304 0
 195 0000 034B     		ldr	r3, .L22
 196 0002 1A68     		ldr	r2, [r3]
 197              	.LVL9:
 198              		.loc 1 307 0
 199 0004 22F0F802 		bic	r2, r2, #248
 200              	.LVL10:
 201              		.loc 1 310 0
 202 0008 42EAC000 		orr	r0, r2, r0, lsl #3
 203              	.LVL11:
 204              		.loc 1 313 0
 205 000c 1860     		str	r0, [r3]
 206 000e 7047     		bx	lr
 207              	.L23:
 208              		.align	2
 209              	.L22:
 210 0010 00380240 		.word	1073887232
 211              		.cfi_endproc
 212              	.LFE114:
 213              		.size	RCC_AdjustHSICalibrationValue, .-RCC_AdjustHSICalibrationValue
 214 0014 AFF30080 		.section	.text.RCC_HSICmd,"ax",%progbits
 214      AFF30080 
 214      AFF30080 
 215              		.align	2
 216              		.p2align 4,,15
 217              		.global	RCC_HSICmd
 218              		.thumb
 219              		.thumb_func
 220              		.type	RCC_HSICmd, %function
 221              	RCC_HSICmd:
 222              	.LFB115:
 223              		.loc 1 335 0
ARM GAS  C:\Users\jsyoon\AppData\Local\Temp\ccXNWRFU.s 			page 5


 224              		.cfi_startproc
 225              		@ args = 0, pretend = 0, frame = 0
 226              		@ frame_needed = 0, uses_anonymous_args = 0
 227              		@ link register save eliminated.
 228              	.LVL12:
 229              		.loc 1 339 0
 230 0000 014B     		ldr	r3, .L25
 231 0002 1860     		str	r0, [r3]
 232 0004 7047     		bx	lr
 233              	.L26:
 234 0006 00BF     		.align	2
 235              	.L25:
 236 0008 00004742 		.word	1111949312
 237              		.cfi_endproc
 238              	.LFE115:
 239              		.size	RCC_HSICmd, .-RCC_HSICmd
 240 000c AFF30080 		.section	.text.RCC_LSEConfig,"ax",%progbits
 241              		.align	2
 242              		.p2align 4,,15
 243              		.global	RCC_LSEConfig
 244              		.thumb
 245              		.thumb_func
 246              		.type	RCC_LSEConfig, %function
 247              	RCC_LSEConfig:
 248              	.LFB116:
 249              		.loc 1 360 0
 250              		.cfi_startproc
 251              		@ args = 0, pretend = 0, frame = 0
 252              		@ frame_needed = 0, uses_anonymous_args = 0
 253              		@ link register save eliminated.
 254              	.LVL13:
 255              		.loc 1 366 0
 256 0000 064B     		ldr	r3, .L32
 257 0002 0022     		movs	r2, #0
 258              		.loc 1 372 0
 259 0004 0128     		cmp	r0, #1
 260              		.loc 1 366 0
 261 0006 1A70     		strb	r2, [r3]
 262              		.loc 1 369 0
 263 0008 1A70     		strb	r2, [r3]
 264              		.loc 1 372 0
 265 000a 05D0     		beq	.L29
 266 000c 0428     		cmp	r0, #4
 267 000e 02D1     		bne	.L31
 268              		.loc 1 380 0
 269 0010 0522     		movs	r2, #5
 270 0012 1A70     		strb	r2, [r3]
 271 0014 7047     		bx	lr
 272              	.L31:
 273 0016 7047     		bx	lr
 274              	.L29:
 275              		.loc 1 376 0
 276 0018 1870     		strb	r0, [r3]
 277              		.loc 1 377 0
 278 001a 7047     		bx	lr
 279              	.L33:
 280              		.align	2
ARM GAS  C:\Users\jsyoon\AppData\Local\Temp\ccXNWRFU.s 			page 6


 281              	.L32:
 282 001c 70380240 		.word	1073887344
 283              		.cfi_endproc
 284              	.LFE116:
 285              		.size	RCC_LSEConfig, .-RCC_LSEConfig
 286              		.section	.text.RCC_LSICmd,"ax",%progbits
 287              		.align	2
 288              		.p2align 4,,15
 289              		.global	RCC_LSICmd
 290              		.thumb
 291              		.thumb_func
 292              		.type	RCC_LSICmd, %function
 293              	RCC_LSICmd:
 294              	.LFB117:
 295              		.loc 1 400 0
 296              		.cfi_startproc
 297              		@ args = 0, pretend = 0, frame = 0
 298              		@ frame_needed = 0, uses_anonymous_args = 0
 299              		@ link register save eliminated.
 300              	.LVL14:
 301              		.loc 1 404 0
 302 0000 014B     		ldr	r3, .L35
 303 0002 1860     		str	r0, [r3]
 304 0004 7047     		bx	lr
 305              	.L36:
 306 0006 00BF     		.align	2
 307              	.L35:
 308 0008 800E4742 		.word	1111953024
 309              		.cfi_endproc
 310              	.LFE117:
 311              		.size	RCC_LSICmd, .-RCC_LSICmd
 312 000c AFF30080 		.section	.text.RCC_PLLConfig,"ax",%progbits
 313              		.align	2
 314              		.p2align 4,,15
 315              		.global	RCC_PLLConfig
 316              		.thumb
 317              		.thumb_func
 318              		.type	RCC_PLLConfig, %function
 319              	RCC_PLLConfig:
 320              	.LFB118:
 321              		.loc 1 443 0
 322              		.cfi_startproc
 323              		@ args = 4, pretend = 0, frame = 0
 324              		@ frame_needed = 0, uses_anonymous_args = 0
 325              		@ link register save eliminated.
 326              	.LVL15:
 327 0000 30B4     		push	{r4, r5}
 328              		.cfi_def_cfa_offset 8
 329              		.cfi_offset 4, -8
 330              		.cfi_offset 5, -4
 331              		.loc 1 443 0
 332 0002 029C     		ldr	r4, [sp, #8]
 333              		.loc 1 451 0
 334 0004 064D     		ldr	r5, .L38
 335 0006 40EA0460 		orr	r0, r0, r4, lsl #24
 336              	.LVL16:
 337 000a 5B08     		lsrs	r3, r3, #1
ARM GAS  C:\Users\jsyoon\AppData\Local\Temp\ccXNWRFU.s 			page 7


 338              	.LVL17:
 339 000c 0143     		orrs	r1, r1, r0
 340              	.LVL18:
 341 000e 013B     		subs	r3, r3, #1
 342 0010 41EA8212 		orr	r2, r1, r2, lsl #6
 343              	.LVL19:
 344 0014 42EA0343 		orr	r3, r2, r3, lsl #16
 345 0018 6B60     		str	r3, [r5, #4]
 346              	.LVL20:
 347              		.loc 1 453 0
 348 001a 30BC     		pop	{r4, r5}
 349 001c 7047     		bx	lr
 350              	.L39:
 351 001e 00BF     		.align	2
 352              	.L38:
 353 0020 00380240 		.word	1073887232
 354              		.cfi_endproc
 355              	.LFE118:
 356              		.size	RCC_PLLConfig, .-RCC_PLLConfig
 357 0024 AFF30080 		.section	.text.RCC_PLLCmd,"ax",%progbits
 357      AFF30080 
 357      AFF30080 
 358              		.align	2
 359              		.p2align 4,,15
 360              		.global	RCC_PLLCmd
 361              		.thumb
 362              		.thumb_func
 363              		.type	RCC_PLLCmd, %function
 364              	RCC_PLLCmd:
 365              	.LFB119:
 366              		.loc 1 466 0
 367              		.cfi_startproc
 368              		@ args = 0, pretend = 0, frame = 0
 369              		@ frame_needed = 0, uses_anonymous_args = 0
 370              		@ link register save eliminated.
 371              	.LVL21:
 372              		.loc 1 469 0
 373 0000 014B     		ldr	r3, .L41
 374 0002 1860     		str	r0, [r3]
 375 0004 7047     		bx	lr
 376              	.L42:
 377 0006 00BF     		.align	2
 378              	.L41:
 379 0008 60004742 		.word	1111949408
 380              		.cfi_endproc
 381              	.LFE119:
 382              		.size	RCC_PLLCmd, .-RCC_PLLCmd
 383 000c AFF30080 		.section	.text.RCC_PLLI2SConfig,"ax",%progbits
 384              		.align	2
 385              		.p2align 4,,15
 386              		.global	RCC_PLLI2SConfig
 387              		.thumb
 388              		.thumb_func
 389              		.type	RCC_PLLI2SConfig, %function
 390              	RCC_PLLI2SConfig:
 391              	.LFB120:
 392              		.loc 1 492 0
ARM GAS  C:\Users\jsyoon\AppData\Local\Temp\ccXNWRFU.s 			page 8


 393              		.cfi_startproc
 394              		@ args = 0, pretend = 0, frame = 0
 395              		@ frame_needed = 0, uses_anonymous_args = 0
 396              		@ link register save eliminated.
 397              	.LVL22:
 398              		.loc 1 497 0
 399 0000 0907     		lsls	r1, r1, #28
 400              	.LVL23:
 401 0002 034B     		ldr	r3, .L44
 402 0004 41EA8010 		orr	r0, r1, r0, lsl #6
 403              	.LVL24:
 404 0008 C3F88400 		str	r0, [r3, #132]
 405 000c 7047     		bx	lr
 406              	.L45:
 407 000e 00BF     		.align	2
 408              	.L44:
 409 0010 00380240 		.word	1073887232
 410              		.cfi_endproc
 411              	.LFE120:
 412              		.size	RCC_PLLI2SConfig, .-RCC_PLLI2SConfig
 413 0014 AFF30080 		.section	.text.RCC_PLLI2SCmd,"ax",%progbits
 413      AFF30080 
 413      AFF30080 
 414              		.align	2
 415              		.p2align 4,,15
 416              		.global	RCC_PLLI2SCmd
 417              		.thumb
 418              		.thumb_func
 419              		.type	RCC_PLLI2SCmd, %function
 420              	RCC_PLLI2SCmd:
 421              	.LFB121:
 422              		.loc 1 507 0
 423              		.cfi_startproc
 424              		@ args = 0, pretend = 0, frame = 0
 425              		@ frame_needed = 0, uses_anonymous_args = 0
 426              		@ link register save eliminated.
 427              	.LVL25:
 428              		.loc 1 510 0
 429 0000 014B     		ldr	r3, .L47
 430 0002 1860     		str	r0, [r3]
 431 0004 7047     		bx	lr
 432              	.L48:
 433 0006 00BF     		.align	2
 434              	.L47:
 435 0008 68004742 		.word	1111949416
 436              		.cfi_endproc
 437              	.LFE121:
 438              		.size	RCC_PLLI2SCmd, .-RCC_PLLI2SCmd
 439 000c AFF30080 		.section	.text.RCC_ClockSecuritySystemCmd,"ax",%progbits
 440              		.align	2
 441              		.p2align 4,,15
 442              		.global	RCC_ClockSecuritySystemCmd
 443              		.thumb
 444              		.thumb_func
 445              		.type	RCC_ClockSecuritySystemCmd, %function
 446              	RCC_ClockSecuritySystemCmd:
 447              	.LFB122:
ARM GAS  C:\Users\jsyoon\AppData\Local\Temp\ccXNWRFU.s 			page 9


 448              		.loc 1 525 0
 449              		.cfi_startproc
 450              		@ args = 0, pretend = 0, frame = 0
 451              		@ frame_needed = 0, uses_anonymous_args = 0
 452              		@ link register save eliminated.
 453              	.LVL26:
 454              		.loc 1 528 0
 455 0000 014B     		ldr	r3, .L50
 456 0002 1860     		str	r0, [r3]
 457 0004 7047     		bx	lr
 458              	.L51:
 459 0006 00BF     		.align	2
 460              	.L50:
 461 0008 4C004742 		.word	1111949388
 462              		.cfi_endproc
 463              	.LFE122:
 464              		.size	RCC_ClockSecuritySystemCmd, .-RCC_ClockSecuritySystemCmd
 465 000c AFF30080 		.section	.text.RCC_MCO1Config,"ax",%progbits
 466              		.align	2
 467              		.p2align 4,,15
 468              		.global	RCC_MCO1Config
 469              		.thumb
 470              		.thumb_func
 471              		.type	RCC_MCO1Config, %function
 472              	RCC_MCO1Config:
 473              	.LFB123:
 474              		.loc 1 550 0
 475              		.cfi_startproc
 476              		@ args = 0, pretend = 0, frame = 0
 477              		@ frame_needed = 0, uses_anonymous_args = 0
 478              		@ link register save eliminated.
 479              	.LVL27:
 480              		.loc 1 557 0
 481 0000 034B     		ldr	r3, .L53
 482 0002 9A68     		ldr	r2, [r3, #8]
 483              	.LVL28:
 484              		.loc 1 560 0
 485 0004 22F0EC62 		bic	r2, r2, #123731968
 486              	.LVL29:
 487              		.loc 1 563 0
 488 0008 1143     		orrs	r1, r1, r2
 489              	.LVL30:
 490 000a 0843     		orrs	r0, r0, r1
 491              	.LVL31:
 492              		.loc 1 566 0
 493 000c 9860     		str	r0, [r3, #8]
 494 000e 7047     		bx	lr
 495              	.L54:
 496              		.align	2
 497              	.L53:
 498 0010 00380240 		.word	1073887232
 499              		.cfi_endproc
 500              	.LFE123:
 501              		.size	RCC_MCO1Config, .-RCC_MCO1Config
 502 0014 AFF30080 		.section	.text.RCC_MCO2Config,"ax",%progbits
 502      AFF30080 
 502      AFF30080 
ARM GAS  C:\Users\jsyoon\AppData\Local\Temp\ccXNWRFU.s 			page 10


 503              		.align	2
 504              		.p2align 4,,15
 505              		.global	RCC_MCO2Config
 506              		.thumb
 507              		.thumb_func
 508              		.type	RCC_MCO2Config, %function
 509              	RCC_MCO2Config:
 510              	.LFB124:
 511              		.loc 1 588 0
 512              		.cfi_startproc
 513              		@ args = 0, pretend = 0, frame = 0
 514              		@ frame_needed = 0, uses_anonymous_args = 0
 515              		@ link register save eliminated.
 516              	.LVL32:
 517              		.loc 1 595 0
 518 0000 034B     		ldr	r3, .L56
 519 0002 9A68     		ldr	r2, [r3, #8]
 520              	.LVL33:
 521              		.loc 1 598 0
 522 0004 22F07842 		bic	r2, r2, #-134217728
 523              	.LVL34:
 524              		.loc 1 601 0
 525 0008 1143     		orrs	r1, r1, r2
 526              	.LVL35:
 527 000a 0843     		orrs	r0, r0, r1
 528              	.LVL36:
 529              		.loc 1 604 0
 530 000c 9860     		str	r0, [r3, #8]
 531 000e 7047     		bx	lr
 532              	.L57:
 533              		.align	2
 534              	.L56:
 535 0010 00380240 		.word	1073887232
 536              		.cfi_endproc
 537              	.LFE124:
 538              		.size	RCC_MCO2Config, .-RCC_MCO2Config
 539 0014 AFF30080 		.section	.text.RCC_SYSCLKConfig,"ax",%progbits
 539      AFF30080 
 539      AFF30080 
 540              		.align	2
 541              		.p2align 4,,15
 542              		.global	RCC_SYSCLKConfig
 543              		.thumb
 544              		.thumb_func
 545              		.type	RCC_SYSCLKConfig, %function
 546              	RCC_SYSCLKConfig:
 547              	.LFB125:
 548              		.loc 1 694 0
 549              		.cfi_startproc
 550              		@ args = 0, pretend = 0, frame = 0
 551              		@ frame_needed = 0, uses_anonymous_args = 0
 552              		@ link register save eliminated.
 553              	.LVL37:
 554              		.loc 1 700 0
 555 0000 034B     		ldr	r3, .L59
 556 0002 9A68     		ldr	r2, [r3, #8]
 557              	.LVL38:
ARM GAS  C:\Users\jsyoon\AppData\Local\Temp\ccXNWRFU.s 			page 11


 558              		.loc 1 703 0
 559 0004 22F00302 		bic	r2, r2, #3
 560              	.LVL39:
 561              		.loc 1 706 0
 562 0008 1043     		orrs	r0, r0, r2
 563              	.LVL40:
 564              		.loc 1 709 0
 565 000a 9860     		str	r0, [r3, #8]
 566 000c 7047     		bx	lr
 567              	.L60:
 568 000e 00BF     		.align	2
 569              	.L59:
 570 0010 00380240 		.word	1073887232
 571              		.cfi_endproc
 572              	.LFE125:
 573              		.size	RCC_SYSCLKConfig, .-RCC_SYSCLKConfig
 574 0014 AFF30080 		.section	.text.RCC_GetSYSCLKSource,"ax",%progbits
 574      AFF30080 
 574      AFF30080 
 575              		.align	2
 576              		.p2align 4,,15
 577              		.global	RCC_GetSYSCLKSource
 578              		.thumb
 579              		.thumb_func
 580              		.type	RCC_GetSYSCLKSource, %function
 581              	RCC_GetSYSCLKSource:
 582              	.LFB126:
 583              		.loc 1 722 0
 584              		.cfi_startproc
 585              		@ args = 0, pretend = 0, frame = 0
 586              		@ frame_needed = 0, uses_anonymous_args = 0
 587              		@ link register save eliminated.
 588              		.loc 1 723 0
 589 0000 024B     		ldr	r3, .L62
 590 0002 9868     		ldr	r0, [r3, #8]
 591              		.loc 1 724 0
 592 0004 00F00C00 		and	r0, r0, #12
 593 0008 7047     		bx	lr
 594              	.L63:
 595 000a 00BF     		.align	2
 596              	.L62:
 597 000c 00380240 		.word	1073887232
 598              		.cfi_endproc
 599              	.LFE126:
 600              		.size	RCC_GetSYSCLKSource, .-RCC_GetSYSCLKSource
 601              		.section	.text.RCC_HCLKConfig,"ax",%progbits
 602              		.align	2
 603              		.p2align 4,,15
 604              		.global	RCC_HCLKConfig
 605              		.thumb
 606              		.thumb_func
 607              		.type	RCC_HCLKConfig, %function
 608              	RCC_HCLKConfig:
 609              	.LFB127:
 610              		.loc 1 747 0
 611              		.cfi_startproc
 612              		@ args = 0, pretend = 0, frame = 0
ARM GAS  C:\Users\jsyoon\AppData\Local\Temp\ccXNWRFU.s 			page 12


 613              		@ frame_needed = 0, uses_anonymous_args = 0
 614              		@ link register save eliminated.
 615              	.LVL41:
 616              		.loc 1 753 0
 617 0000 034B     		ldr	r3, .L65
 618 0002 9A68     		ldr	r2, [r3, #8]
 619              	.LVL42:
 620              		.loc 1 756 0
 621 0004 22F0F002 		bic	r2, r2, #240
 622              	.LVL43:
 623              		.loc 1 759 0
 624 0008 1043     		orrs	r0, r0, r2
 625              	.LVL44:
 626              		.loc 1 762 0
 627 000a 9860     		str	r0, [r3, #8]
 628 000c 7047     		bx	lr
 629              	.L66:
 630 000e 00BF     		.align	2
 631              	.L65:
 632 0010 00380240 		.word	1073887232
 633              		.cfi_endproc
 634              	.LFE127:
 635              		.size	RCC_HCLKConfig, .-RCC_HCLKConfig
 636 0014 AFF30080 		.section	.text.RCC_PCLK1Config,"ax",%progbits
 636      AFF30080 
 636      AFF30080 
 637              		.align	2
 638              		.p2align 4,,15
 639              		.global	RCC_PCLK1Config
 640              		.thumb
 641              		.thumb_func
 642              		.type	RCC_PCLK1Config, %function
 643              	RCC_PCLK1Config:
 644              	.LFB128:
 645              		.loc 1 779 0
 646              		.cfi_startproc
 647              		@ args = 0, pretend = 0, frame = 0
 648              		@ frame_needed = 0, uses_anonymous_args = 0
 649              		@ link register save eliminated.
 650              	.LVL45:
 651              		.loc 1 785 0
 652 0000 034B     		ldr	r3, .L68
 653 0002 9A68     		ldr	r2, [r3, #8]
 654              	.LVL46:
 655              		.loc 1 788 0
 656 0004 22F4E052 		bic	r2, r2, #7168
 657              	.LVL47:
 658              		.loc 1 791 0
 659 0008 1043     		orrs	r0, r0, r2
 660              	.LVL48:
 661              		.loc 1 794 0
 662 000a 9860     		str	r0, [r3, #8]
 663 000c 7047     		bx	lr
 664              	.L69:
 665 000e 00BF     		.align	2
 666              	.L68:
 667 0010 00380240 		.word	1073887232
ARM GAS  C:\Users\jsyoon\AppData\Local\Temp\ccXNWRFU.s 			page 13


 668              		.cfi_endproc
 669              	.LFE128:
 670              		.size	RCC_PCLK1Config, .-RCC_PCLK1Config
 671 0014 AFF30080 		.section	.text.RCC_PCLK2Config,"ax",%progbits
 671      AFF30080 
 671      AFF30080 
 672              		.align	2
 673              		.p2align 4,,15
 674              		.global	RCC_PCLK2Config
 675              		.thumb
 676              		.thumb_func
 677              		.type	RCC_PCLK2Config, %function
 678              	RCC_PCLK2Config:
 679              	.LFB129:
 680              		.loc 1 810 0
 681              		.cfi_startproc
 682              		@ args = 0, pretend = 0, frame = 0
 683              		@ frame_needed = 0, uses_anonymous_args = 0
 684              		@ link register save eliminated.
 685              	.LVL49:
 686              		.loc 1 816 0
 687 0000 034B     		ldr	r3, .L71
 688 0002 9A68     		ldr	r2, [r3, #8]
 689              	.LVL50:
 690              		.loc 1 819 0
 691 0004 22F46042 		bic	r2, r2, #57344
 692              	.LVL51:
 693              		.loc 1 822 0
 694 0008 42EAC000 		orr	r0, r2, r0, lsl #3
 695              	.LVL52:
 696              		.loc 1 825 0
 697 000c 9860     		str	r0, [r3, #8]
 698 000e 7047     		bx	lr
 699              	.L72:
 700              		.align	2
 701              	.L71:
 702 0010 00380240 		.word	1073887232
 703              		.cfi_endproc
 704              	.LFE129:
 705              		.size	RCC_PCLK2Config, .-RCC_PCLK2Config
 706 0014 AFF30080 		.section	.text.RCC_GetClocksFreq,"ax",%progbits
 706      AFF30080 
 706      AFF30080 
 707              		.align	2
 708              		.p2align 4,,15
 709              		.global	RCC_GetClocksFreq
 710              		.thumb
 711              		.thumb_func
 712              		.type	RCC_GetClocksFreq, %function
 713              	RCC_GetClocksFreq:
 714              	.LFB130:
 715              		.loc 1 862 0
 716              		.cfi_startproc
 717              		@ args = 0, pretend = 0, frame = 0
 718              		@ frame_needed = 0, uses_anonymous_args = 0
 719              		@ link register save eliminated.
 720              	.LVL53:
ARM GAS  C:\Users\jsyoon\AppData\Local\Temp\ccXNWRFU.s 			page 14


 721              		.loc 1 866 0
 722 0000 1F4A     		ldr	r2, .L82
 723 0002 9368     		ldr	r3, [r2, #8]
 724              	.LVL54:
 725 0004 03F00C03 		and	r3, r3, #12
 726              	.LVL55:
 727              		.loc 1 868 0
 728 0008 042B     		cmp	r3, #4
 729              		.loc 1 862 0
 730 000a 10B4     		push	{r4}
 731              		.cfi_def_cfa_offset 4
 732              		.cfi_offset 4, -4
 733              		.loc 1 868 0
 734 000c 1BD0     		beq	.L75
 735 000e 082B     		cmp	r3, #8
 736 0010 1CD0     		beq	.L76
 737              		.loc 1 899 0
 738 0012 1C4B     		ldr	r3, .L82+4
 739              	.LVL56:
 740 0014 0360     		str	r3, [r0]
 741              	.LVL57:
 742              	.L78:
 743              		.loc 1 905 0
 744 0016 1A49     		ldr	r1, .L82
 745              		.loc 1 907 0
 746 0018 1B4A     		ldr	r2, .L82+8
 747              		.loc 1 905 0
 748 001a 8C68     		ldr	r4, [r1, #8]
 749              	.LVL58:
 750              		.loc 1 906 0
 751 001c C4F30314 		ubfx	r4, r4, #4, #4
 752              	.LVL59:
 753              		.loc 1 907 0
 754 0020 145D     		ldrb	r4, [r2, r4]	@ zero_extendqisi2
 755              	.LVL60:
 756              		.loc 1 909 0
 757 0022 E340     		lsrs	r3, r3, r4
 758 0024 4360     		str	r3, [r0, #4]
 759              		.loc 1 912 0
 760 0026 8C68     		ldr	r4, [r1, #8]
 761              	.LVL61:
 762              		.loc 1 913 0
 763 0028 C4F38224 		ubfx	r4, r4, #10, #3
 764              	.LVL62:
 765              		.loc 1 914 0
 766 002c 145D     		ldrb	r4, [r2, r4]	@ zero_extendqisi2
 767              	.LVL63:
 768              		.loc 1 916 0
 769 002e 23FA04F4 		lsr	r4, r3, r4
 770              	.LVL64:
 771 0032 8460     		str	r4, [r0, #8]
 772              		.loc 1 919 0
 773 0034 8968     		ldr	r1, [r1, #8]
 774              	.LVL65:
 775              		.loc 1 924 0
 776 0036 5DF8044B 		ldr	r4, [sp], #4
 777              		.loc 1 920 0
ARM GAS  C:\Users\jsyoon\AppData\Local\Temp\ccXNWRFU.s 			page 15


 778 003a C1F34231 		ubfx	r1, r1, #13, #3
 779              	.LVL66:
 780              		.loc 1 921 0
 781 003e 525C     		ldrb	r2, [r2, r1]	@ zero_extendqisi2
 782              	.LVL67:
 783              		.loc 1 923 0
 784 0040 D340     		lsrs	r3, r3, r2
 785 0042 C360     		str	r3, [r0, #12]
 786              		.loc 1 924 0
 787 0044 7047     		bx	lr
 788              	.LVL68:
 789              	.L75:
 790              		.loc 1 874 0
 791 0046 114B     		ldr	r3, .L82+12
 792              	.LVL69:
 793 0048 0360     		str	r3, [r0]
 794              		.loc 1 875 0
 795 004a E4E7     		b	.L78
 796              	.LVL70:
 797              	.L76:
 798              		.loc 1 881 0
 799 004c 5468     		ldr	r4, [r2, #4]
 800              	.LVL71:
 801              		.loc 1 882 0
 802 004e 5168     		ldr	r1, [r2, #4]
 803              		.loc 1 887 0
 804 0050 5268     		ldr	r2, [r2, #4]
 805              		.loc 1 884 0
 806 0052 6302     		lsls	r3, r4, #9
 807              	.LVL72:
 808              		.loc 1 887 0
 809 0054 4CBF     		ite	mi
 810 0056 0D4B     		ldrmi	r3, .L82+12
 811              		.loc 1 892 0
 812 0058 0A4B     		ldrpl	r3, .L82+4
 813              		.loc 1 882 0
 814 005a 01F03F01 		and	r1, r1, #63
 815              	.LVL73:
 816              		.loc 1 892 0
 817 005e C2F38812 		ubfx	r2, r2, #6, #9
 818 0062 B3FBF1F3 		udiv	r3, r3, r1
 819 0066 03FB02F3 		mul	r3, r3, r2
 820              	.LVL74:
 821              		.loc 1 895 0
 822 006a 054A     		ldr	r2, .L82
 823 006c 5268     		ldr	r2, [r2, #4]
 824              	.LVL75:
 825 006e C2F30142 		ubfx	r2, r2, #16, #2
 826              	.LVL76:
 827 0072 0132     		adds	r2, r2, #1
 828 0074 5200     		lsls	r2, r2, #1
 829              		.loc 1 896 0
 830 0076 B3FBF2F3 		udiv	r3, r3, r2
 831              	.LVL77:
 832 007a 0360     		str	r3, [r0]
 833              		.loc 1 897 0
 834 007c CBE7     		b	.L78
ARM GAS  C:\Users\jsyoon\AppData\Local\Temp\ccXNWRFU.s 			page 16


 835              	.L83:
 836 007e 00BF     		.align	2
 837              	.L82:
 838 0080 00380240 		.word	1073887232
 839 0084 0024F400 		.word	16000000
 840 0088 00000000 		.word	.LANCHOR0
 841 008c 00127A00 		.word	8000000
 842              		.cfi_endproc
 843              	.LFE130:
 844              		.size	RCC_GetClocksFreq, .-RCC_GetClocksFreq
 845              		.section	.text.RCC_RTCCLKConfig,"ax",%progbits
 846              		.align	2
 847              		.p2align 4,,15
 848              		.global	RCC_RTCCLKConfig
 849              		.thumb
 850              		.thumb_func
 851              		.type	RCC_RTCCLKConfig, %function
 852              	RCC_RTCCLKConfig:
 853              	.LFB131:
 854              		.loc 1 987 0
 855              		.cfi_startproc
 856              		@ args = 0, pretend = 0, frame = 0
 857              		@ frame_needed = 0, uses_anonymous_args = 0
 858              		@ link register save eliminated.
 859              	.LVL78:
 860              		.loc 1 993 0
 861 0000 00F44073 		and	r3, r0, #768
 862 0004 B3F5407F 		cmp	r3, #768
 863 0008 09D1     		bne	.L85
 864              		.loc 1 995 0
 865 000a 084A     		ldr	r2, .L86
 866 000c 9168     		ldr	r1, [r2, #8]
 867              	.LVL79:
 868              		.loc 1 1001 0
 869 000e 20F07043 		bic	r3, r0, #-268435456
 870              		.loc 1 998 0
 871 0012 21F4F811 		bic	r1, r1, #2031616
 872              	.LVL80:
 873              		.loc 1 1001 0
 874 0016 23F44073 		bic	r3, r3, #768
 875 001a 0B43     		orrs	r3, r3, r1
 876              	.LVL81:
 877              		.loc 1 1004 0
 878 001c 9360     		str	r3, [r2, #8]
 879              	.LVL82:
 880              	.L85:
 881              		.loc 1 1008 0
 882 001e 034B     		ldr	r3, .L86
 883 0020 1A6F     		ldr	r2, [r3, #112]
 884 0022 C0F30B00 		ubfx	r0, r0, #0, #12
 885              	.LVL83:
 886 0026 1043     		orrs	r0, r0, r2
 887 0028 1867     		str	r0, [r3, #112]
 888 002a 7047     		bx	lr
 889              	.L87:
 890              		.align	2
 891              	.L86:
ARM GAS  C:\Users\jsyoon\AppData\Local\Temp\ccXNWRFU.s 			page 17


 892 002c 00380240 		.word	1073887232
 893              		.cfi_endproc
 894              	.LFE131:
 895              		.size	RCC_RTCCLKConfig, .-RCC_RTCCLKConfig
 896              		.section	.text.RCC_RTCCLKCmd,"ax",%progbits
 897              		.align	2
 898              		.p2align 4,,15
 899              		.global	RCC_RTCCLKCmd
 900              		.thumb
 901              		.thumb_func
 902              		.type	RCC_RTCCLKCmd, %function
 903              	RCC_RTCCLKCmd:
 904              	.LFB132:
 905              		.loc 1 1019 0
 906              		.cfi_startproc
 907              		@ args = 0, pretend = 0, frame = 0
 908              		@ frame_needed = 0, uses_anonymous_args = 0
 909              		@ link register save eliminated.
 910              	.LVL84:
 911              		.loc 1 1023 0
 912 0000 014B     		ldr	r3, .L89
 913 0002 1860     		str	r0, [r3]
 914 0004 7047     		bx	lr
 915              	.L90:
 916 0006 00BF     		.align	2
 917              	.L89:
 918 0008 3C0E4742 		.word	1111952956
 919              		.cfi_endproc
 920              	.LFE132:
 921              		.size	RCC_RTCCLKCmd, .-RCC_RTCCLKCmd
 922 000c AFF30080 		.section	.text.RCC_BackupResetCmd,"ax",%progbits
 923              		.align	2
 924              		.p2align 4,,15
 925              		.global	RCC_BackupResetCmd
 926              		.thumb
 927              		.thumb_func
 928              		.type	RCC_BackupResetCmd, %function
 929              	RCC_BackupResetCmd:
 930              	.LFB133:
 931              		.loc 1 1036 0
 932              		.cfi_startproc
 933              		@ args = 0, pretend = 0, frame = 0
 934              		@ frame_needed = 0, uses_anonymous_args = 0
 935              		@ link register save eliminated.
 936              	.LVL85:
 937              		.loc 1 1039 0
 938 0000 014B     		ldr	r3, .L92
 939 0002 1860     		str	r0, [r3]
 940 0004 7047     		bx	lr
 941              	.L93:
 942 0006 00BF     		.align	2
 943              	.L92:
 944 0008 400E4742 		.word	1111952960
 945              		.cfi_endproc
 946              	.LFE133:
 947              		.size	RCC_BackupResetCmd, .-RCC_BackupResetCmd
 948 000c AFF30080 		.section	.text.RCC_I2SCLKConfig,"ax",%progbits
ARM GAS  C:\Users\jsyoon\AppData\Local\Temp\ccXNWRFU.s 			page 18


 949              		.align	2
 950              		.p2align 4,,15
 951              		.global	RCC_I2SCLKConfig
 952              		.thumb
 953              		.thumb_func
 954              		.type	RCC_I2SCLKConfig, %function
 955              	RCC_I2SCLKConfig:
 956              	.LFB134:
 957              		.loc 1 1053 0
 958              		.cfi_startproc
 959              		@ args = 0, pretend = 0, frame = 0
 960              		@ frame_needed = 0, uses_anonymous_args = 0
 961              		@ link register save eliminated.
 962              	.LVL86:
 963              		.loc 1 1057 0
 964 0000 014B     		ldr	r3, .L95
 965 0002 1860     		str	r0, [r3]
 966 0004 7047     		bx	lr
 967              	.L96:
 968 0006 00BF     		.align	2
 969              	.L95:
 970 0008 5C014742 		.word	1111949660
 971              		.cfi_endproc
 972              	.LFE134:
 973              		.size	RCC_I2SCLKConfig, .-RCC_I2SCLKConfig
 974 000c AFF30080 		.section	.text.RCC_AHB1PeriphClockCmd,"ax",%progbits
 975              		.align	2
 976              		.p2align 4,,15
 977              		.global	RCC_AHB1PeriphClockCmd
 978              		.thumb
 979              		.thumb_func
 980              		.type	RCC_AHB1PeriphClockCmd, %function
 981              	RCC_AHB1PeriphClockCmd:
 982              	.LFB135:
 983              		.loc 1 1092 0
 984              		.cfi_startproc
 985              		@ args = 0, pretend = 0, frame = 0
 986              		@ frame_needed = 0, uses_anonymous_args = 0
 987              		@ link register save eliminated.
 988              	.LVL87:
 989              		.loc 1 1099 0
 990 0000 044B     		ldr	r3, .L101
 991 0002 1A6B     		ldr	r2, [r3, #48]
 992              		.loc 1 1097 0
 993 0004 19B9     		cbnz	r1, .L100
 994              		.loc 1 1103 0
 995 0006 22EA0000 		bic	r0, r2, r0
 996              	.LVL88:
 997 000a 1863     		str	r0, [r3, #48]
 998 000c 7047     		bx	lr
 999              	.LVL89:
 1000              	.L100:
 1001              		.loc 1 1099 0
 1002 000e 1043     		orrs	r0, r0, r2
 1003              	.LVL90:
 1004 0010 1863     		str	r0, [r3, #48]
 1005 0012 7047     		bx	lr
ARM GAS  C:\Users\jsyoon\AppData\Local\Temp\ccXNWRFU.s 			page 19


 1006              	.L102:
 1007              		.align	2
 1008              	.L101:
 1009 0014 00380240 		.word	1073887232
 1010              		.cfi_endproc
 1011              	.LFE135:
 1012              		.size	RCC_AHB1PeriphClockCmd, .-RCC_AHB1PeriphClockCmd
 1013 0018 AFF30080 		.section	.text.RCC_AHB2PeriphClockCmd,"ax",%progbits
 1013      AFF30080 
 1014              		.align	2
 1015              		.p2align 4,,15
 1016              		.global	RCC_AHB2PeriphClockCmd
 1017              		.thumb
 1018              		.thumb_func
 1019              		.type	RCC_AHB2PeriphClockCmd, %function
 1020              	RCC_AHB2PeriphClockCmd:
 1021              	.LFB136:
 1022              		.loc 1 1124 0
 1023              		.cfi_startproc
 1024              		@ args = 0, pretend = 0, frame = 0
 1025              		@ frame_needed = 0, uses_anonymous_args = 0
 1026              		@ link register save eliminated.
 1027              	.LVL91:
 1028              		.loc 1 1131 0
 1029 0000 044B     		ldr	r3, .L107
 1030 0002 5A6B     		ldr	r2, [r3, #52]
 1031              		.loc 1 1129 0
 1032 0004 19B9     		cbnz	r1, .L106
 1033              		.loc 1 1135 0
 1034 0006 22EA0000 		bic	r0, r2, r0
 1035              	.LVL92:
 1036 000a 5863     		str	r0, [r3, #52]
 1037 000c 7047     		bx	lr
 1038              	.LVL93:
 1039              	.L106:
 1040              		.loc 1 1131 0
 1041 000e 1043     		orrs	r0, r0, r2
 1042              	.LVL94:
 1043 0010 5863     		str	r0, [r3, #52]
 1044 0012 7047     		bx	lr
 1045              	.L108:
 1046              		.align	2
 1047              	.L107:
 1048 0014 00380240 		.word	1073887232
 1049              		.cfi_endproc
 1050              	.LFE136:
 1051              		.size	RCC_AHB2PeriphClockCmd, .-RCC_AHB2PeriphClockCmd
 1052 0018 AFF30080 		.section	.text.RCC_AHB3PeriphClockCmd,"ax",%progbits
 1052      AFF30080 
 1053              		.align	2
 1054              		.p2align 4,,15
 1055              		.global	RCC_AHB3PeriphClockCmd
 1056              		.thumb
 1057              		.thumb_func
 1058              		.type	RCC_AHB3PeriphClockCmd, %function
 1059              	RCC_AHB3PeriphClockCmd:
 1060              	.LFB137:
ARM GAS  C:\Users\jsyoon\AppData\Local\Temp\ccXNWRFU.s 			page 20


 1061              		.loc 1 1151 0
 1062              		.cfi_startproc
 1063              		@ args = 0, pretend = 0, frame = 0
 1064              		@ frame_needed = 0, uses_anonymous_args = 0
 1065              		@ link register save eliminated.
 1066              	.LVL95:
 1067              		.loc 1 1158 0
 1068 0000 044B     		ldr	r3, .L113
 1069 0002 9A6B     		ldr	r2, [r3, #56]
 1070              		.loc 1 1156 0
 1071 0004 19B9     		cbnz	r1, .L112
 1072              		.loc 1 1162 0
 1073 0006 22EA0000 		bic	r0, r2, r0
 1074              	.LVL96:
 1075 000a 9863     		str	r0, [r3, #56]
 1076 000c 7047     		bx	lr
 1077              	.LVL97:
 1078              	.L112:
 1079              		.loc 1 1158 0
 1080 000e 1043     		orrs	r0, r0, r2
 1081              	.LVL98:
 1082 0010 9863     		str	r0, [r3, #56]
 1083 0012 7047     		bx	lr
 1084              	.L114:
 1085              		.align	2
 1086              	.L113:
 1087 0014 00380240 		.word	1073887232
 1088              		.cfi_endproc
 1089              	.LFE137:
 1090              		.size	RCC_AHB3PeriphClockCmd, .-RCC_AHB3PeriphClockCmd
 1091 0018 AFF30080 		.section	.text.RCC_APB1PeriphClockCmd,"ax",%progbits
 1091      AFF30080 
 1092              		.align	2
 1093              		.p2align 4,,15
 1094              		.global	RCC_APB1PeriphClockCmd
 1095              		.thumb
 1096              		.thumb_func
 1097              		.type	RCC_APB1PeriphClockCmd, %function
 1098              	RCC_APB1PeriphClockCmd:
 1099              	.LFB138:
 1100              		.loc 1 1201 0
 1101              		.cfi_startproc
 1102              		@ args = 0, pretend = 0, frame = 0
 1103              		@ frame_needed = 0, uses_anonymous_args = 0
 1104              		@ link register save eliminated.
 1105              	.LVL99:
 1106              		.loc 1 1208 0
 1107 0000 044B     		ldr	r3, .L119
 1108 0002 1A6C     		ldr	r2, [r3, #64]
 1109              		.loc 1 1206 0
 1110 0004 19B9     		cbnz	r1, .L118
 1111              		.loc 1 1212 0
 1112 0006 22EA0000 		bic	r0, r2, r0
 1113              	.LVL100:
 1114 000a 1864     		str	r0, [r3, #64]
 1115 000c 7047     		bx	lr
 1116              	.LVL101:
ARM GAS  C:\Users\jsyoon\AppData\Local\Temp\ccXNWRFU.s 			page 21


 1117              	.L118:
 1118              		.loc 1 1208 0
 1119 000e 1043     		orrs	r0, r0, r2
 1120              	.LVL102:
 1121 0010 1864     		str	r0, [r3, #64]
 1122 0012 7047     		bx	lr
 1123              	.L120:
 1124              		.align	2
 1125              	.L119:
 1126 0014 00380240 		.word	1073887232
 1127              		.cfi_endproc
 1128              	.LFE138:
 1129              		.size	RCC_APB1PeriphClockCmd, .-RCC_APB1PeriphClockCmd
 1130 0018 AFF30080 		.section	.text.RCC_APB2PeriphClockCmd,"ax",%progbits
 1130      AFF30080 
 1131              		.align	2
 1132              		.p2align 4,,15
 1133              		.global	RCC_APB2PeriphClockCmd
 1134              		.thumb
 1135              		.thumb_func
 1136              		.type	RCC_APB2PeriphClockCmd, %function
 1137              	RCC_APB2PeriphClockCmd:
 1138              	.LFB139:
 1139              		.loc 1 1241 0
 1140              		.cfi_startproc
 1141              		@ args = 0, pretend = 0, frame = 0
 1142              		@ frame_needed = 0, uses_anonymous_args = 0
 1143              		@ link register save eliminated.
 1144              	.LVL103:
 1145              		.loc 1 1248 0
 1146 0000 044B     		ldr	r3, .L125
 1147 0002 5A6C     		ldr	r2, [r3, #68]
 1148              		.loc 1 1246 0
 1149 0004 19B9     		cbnz	r1, .L124
 1150              		.loc 1 1252 0
 1151 0006 22EA0000 		bic	r0, r2, r0
 1152              	.LVL104:
 1153 000a 5864     		str	r0, [r3, #68]
 1154 000c 7047     		bx	lr
 1155              	.LVL105:
 1156              	.L124:
 1157              		.loc 1 1248 0
 1158 000e 1043     		orrs	r0, r0, r2
 1159              	.LVL106:
 1160 0010 5864     		str	r0, [r3, #68]
 1161 0012 7047     		bx	lr
 1162              	.L126:
 1163              		.align	2
 1164              	.L125:
 1165 0014 00380240 		.word	1073887232
 1166              		.cfi_endproc
 1167              	.LFE139:
 1168              		.size	RCC_APB2PeriphClockCmd, .-RCC_APB2PeriphClockCmd
 1169 0018 AFF30080 		.section	.text.RCC_AHB1PeriphResetCmd,"ax",%progbits
 1169      AFF30080 
 1170              		.align	2
 1171              		.p2align 4,,15
ARM GAS  C:\Users\jsyoon\AppData\Local\Temp\ccXNWRFU.s 			page 22


 1172              		.global	RCC_AHB1PeriphResetCmd
 1173              		.thumb
 1174              		.thumb_func
 1175              		.type	RCC_AHB1PeriphResetCmd, %function
 1176              	RCC_AHB1PeriphResetCmd:
 1177              	.LFB140:
 1178              		.loc 1 1280 0
 1179              		.cfi_startproc
 1180              		@ args = 0, pretend = 0, frame = 0
 1181              		@ frame_needed = 0, uses_anonymous_args = 0
 1182              		@ link register save eliminated.
 1183              	.LVL107:
 1184              		.loc 1 1287 0
 1185 0000 044B     		ldr	r3, .L131
 1186 0002 1A69     		ldr	r2, [r3, #16]
 1187              		.loc 1 1285 0
 1188 0004 19B9     		cbnz	r1, .L130
 1189              		.loc 1 1291 0
 1190 0006 22EA0000 		bic	r0, r2, r0
 1191              	.LVL108:
 1192 000a 1861     		str	r0, [r3, #16]
 1193 000c 7047     		bx	lr
 1194              	.LVL109:
 1195              	.L130:
 1196              		.loc 1 1287 0
 1197 000e 1043     		orrs	r0, r0, r2
 1198              	.LVL110:
 1199 0010 1861     		str	r0, [r3, #16]
 1200 0012 7047     		bx	lr
 1201              	.L132:
 1202              		.align	2
 1203              	.L131:
 1204 0014 00380240 		.word	1073887232
 1205              		.cfi_endproc
 1206              	.LFE140:
 1207              		.size	RCC_AHB1PeriphResetCmd, .-RCC_AHB1PeriphResetCmd
 1208 0018 AFF30080 		.section	.text.RCC_AHB2PeriphResetCmd,"ax",%progbits
 1208      AFF30080 
 1209              		.align	2
 1210              		.p2align 4,,15
 1211              		.global	RCC_AHB2PeriphResetCmd
 1212              		.thumb
 1213              		.thumb_func
 1214              		.type	RCC_AHB2PeriphResetCmd, %function
 1215              	RCC_AHB2PeriphResetCmd:
 1216              	.LFB141:
 1217              		.loc 1 1309 0
 1218              		.cfi_startproc
 1219              		@ args = 0, pretend = 0, frame = 0
 1220              		@ frame_needed = 0, uses_anonymous_args = 0
 1221              		@ link register save eliminated.
 1222              	.LVL111:
 1223              		.loc 1 1316 0
 1224 0000 044B     		ldr	r3, .L137
 1225 0002 5A69     		ldr	r2, [r3, #20]
 1226              		.loc 1 1314 0
 1227 0004 19B9     		cbnz	r1, .L136
ARM GAS  C:\Users\jsyoon\AppData\Local\Temp\ccXNWRFU.s 			page 23


 1228              		.loc 1 1320 0
 1229 0006 22EA0000 		bic	r0, r2, r0
 1230              	.LVL112:
 1231 000a 5861     		str	r0, [r3, #20]
 1232 000c 7047     		bx	lr
 1233              	.LVL113:
 1234              	.L136:
 1235              		.loc 1 1316 0
 1236 000e 1043     		orrs	r0, r0, r2
 1237              	.LVL114:
 1238 0010 5861     		str	r0, [r3, #20]
 1239 0012 7047     		bx	lr
 1240              	.L138:
 1241              		.align	2
 1242              	.L137:
 1243 0014 00380240 		.word	1073887232
 1244              		.cfi_endproc
 1245              	.LFE141:
 1246              		.size	RCC_AHB2PeriphResetCmd, .-RCC_AHB2PeriphResetCmd
 1247 0018 AFF30080 		.section	.text.RCC_AHB3PeriphResetCmd,"ax",%progbits
 1247      AFF30080 
 1248              		.align	2
 1249              		.p2align 4,,15
 1250              		.global	RCC_AHB3PeriphResetCmd
 1251              		.thumb
 1252              		.thumb_func
 1253              		.type	RCC_AHB3PeriphResetCmd, %function
 1254              	RCC_AHB3PeriphResetCmd:
 1255              	.LFB142:
 1256              		.loc 1 1333 0
 1257              		.cfi_startproc
 1258              		@ args = 0, pretend = 0, frame = 0
 1259              		@ frame_needed = 0, uses_anonymous_args = 0
 1260              		@ link register save eliminated.
 1261              	.LVL115:
 1262              		.loc 1 1340 0
 1263 0000 044B     		ldr	r3, .L143
 1264 0002 9A69     		ldr	r2, [r3, #24]
 1265              		.loc 1 1338 0
 1266 0004 19B9     		cbnz	r1, .L142
 1267              		.loc 1 1344 0
 1268 0006 22EA0000 		bic	r0, r2, r0
 1269              	.LVL116:
 1270 000a 9861     		str	r0, [r3, #24]
 1271 000c 7047     		bx	lr
 1272              	.LVL117:
 1273              	.L142:
 1274              		.loc 1 1340 0
 1275 000e 1043     		orrs	r0, r0, r2
 1276              	.LVL118:
 1277 0010 9861     		str	r0, [r3, #24]
 1278 0012 7047     		bx	lr
 1279              	.L144:
 1280              		.align	2
 1281              	.L143:
 1282 0014 00380240 		.word	1073887232
 1283              		.cfi_endproc
ARM GAS  C:\Users\jsyoon\AppData\Local\Temp\ccXNWRFU.s 			page 24


 1284              	.LFE142:
 1285              		.size	RCC_AHB3PeriphResetCmd, .-RCC_AHB3PeriphResetCmd
 1286 0018 AFF30080 		.section	.text.RCC_APB1PeriphResetCmd,"ax",%progbits
 1286      AFF30080 
 1287              		.align	2
 1288              		.p2align 4,,15
 1289              		.global	RCC_APB1PeriphResetCmd
 1290              		.thumb
 1291              		.thumb_func
 1292              		.type	RCC_APB1PeriphResetCmd, %function
 1293              	RCC_APB1PeriphResetCmd:
 1294              	.LFB143:
 1295              		.loc 1 1380 0
 1296              		.cfi_startproc
 1297              		@ args = 0, pretend = 0, frame = 0
 1298              		@ frame_needed = 0, uses_anonymous_args = 0
 1299              		@ link register save eliminated.
 1300              	.LVL119:
 1301              		.loc 1 1386 0
 1302 0000 044B     		ldr	r3, .L149
 1303 0002 1A6A     		ldr	r2, [r3, #32]
 1304              		.loc 1 1384 0
 1305 0004 19B9     		cbnz	r1, .L148
 1306              		.loc 1 1390 0
 1307 0006 22EA0000 		bic	r0, r2, r0
 1308              	.LVL120:
 1309 000a 1862     		str	r0, [r3, #32]
 1310 000c 7047     		bx	lr
 1311              	.LVL121:
 1312              	.L148:
 1313              		.loc 1 1386 0
 1314 000e 1043     		orrs	r0, r0, r2
 1315              	.LVL122:
 1316 0010 1862     		str	r0, [r3, #32]
 1317 0012 7047     		bx	lr
 1318              	.L150:
 1319              		.align	2
 1320              	.L149:
 1321 0014 00380240 		.word	1073887232
 1322              		.cfi_endproc
 1323              	.LFE143:
 1324              		.size	RCC_APB1PeriphResetCmd, .-RCC_APB1PeriphResetCmd
 1325 0018 AFF30080 		.section	.text.RCC_APB2PeriphResetCmd,"ax",%progbits
 1325      AFF30080 
 1326              		.align	2
 1327              		.p2align 4,,15
 1328              		.global	RCC_APB2PeriphResetCmd
 1329              		.thumb
 1330              		.thumb_func
 1331              		.type	RCC_APB2PeriphResetCmd, %function
 1332              	RCC_APB2PeriphResetCmd:
 1333              	.LFB144:
 1334              		.loc 1 1416 0
 1335              		.cfi_startproc
 1336              		@ args = 0, pretend = 0, frame = 0
 1337              		@ frame_needed = 0, uses_anonymous_args = 0
 1338              		@ link register save eliminated.
ARM GAS  C:\Users\jsyoon\AppData\Local\Temp\ccXNWRFU.s 			page 25


 1339              	.LVL123:
 1340              		.loc 1 1422 0
 1341 0000 044B     		ldr	r3, .L155
 1342 0002 5A6A     		ldr	r2, [r3, #36]
 1343              		.loc 1 1420 0
 1344 0004 19B9     		cbnz	r1, .L154
 1345              		.loc 1 1426 0
 1346 0006 22EA0000 		bic	r0, r2, r0
 1347              	.LVL124:
 1348 000a 5862     		str	r0, [r3, #36]
 1349 000c 7047     		bx	lr
 1350              	.LVL125:
 1351              	.L154:
 1352              		.loc 1 1422 0
 1353 000e 1043     		orrs	r0, r0, r2
 1354              	.LVL126:
 1355 0010 5862     		str	r0, [r3, #36]
 1356 0012 7047     		bx	lr
 1357              	.L156:
 1358              		.align	2
 1359              	.L155:
 1360 0014 00380240 		.word	1073887232
 1361              		.cfi_endproc
 1362              	.LFE144:
 1363              		.size	RCC_APB2PeriphResetCmd, .-RCC_APB2PeriphResetCmd
 1364 0018 AFF30080 		.section	.text.RCC_AHB1PeriphClockLPModeCmd,"ax",%progbits
 1364      AFF30080 
 1365              		.align	2
 1366              		.p2align 4,,15
 1367              		.global	RCC_AHB1PeriphClockLPModeCmd
 1368              		.thumb
 1369              		.thumb_func
 1370              		.type	RCC_AHB1PeriphClockLPModeCmd, %function
 1371              	RCC_AHB1PeriphClockLPModeCmd:
 1372              	.LFB145:
 1373              		.loc 1 1462 0
 1374              		.cfi_startproc
 1375              		@ args = 0, pretend = 0, frame = 0
 1376              		@ frame_needed = 0, uses_anonymous_args = 0
 1377              		@ link register save eliminated.
 1378              	.LVL127:
 1379              		.loc 1 1468 0
 1380 0000 044B     		ldr	r3, .L161
 1381 0002 1A6D     		ldr	r2, [r3, #80]
 1382              		.loc 1 1466 0
 1383 0004 19B9     		cbnz	r1, .L160
 1384              		.loc 1 1472 0
 1385 0006 22EA0000 		bic	r0, r2, r0
 1386              	.LVL128:
 1387 000a 1865     		str	r0, [r3, #80]
 1388 000c 7047     		bx	lr
 1389              	.LVL129:
 1390              	.L160:
 1391              		.loc 1 1468 0
 1392 000e 1043     		orrs	r0, r0, r2
 1393              	.LVL130:
 1394 0010 1865     		str	r0, [r3, #80]
ARM GAS  C:\Users\jsyoon\AppData\Local\Temp\ccXNWRFU.s 			page 26


 1395 0012 7047     		bx	lr
 1396              	.L162:
 1397              		.align	2
 1398              	.L161:
 1399 0014 00380240 		.word	1073887232
 1400              		.cfi_endproc
 1401              	.LFE145:
 1402              		.size	RCC_AHB1PeriphClockLPModeCmd, .-RCC_AHB1PeriphClockLPModeCmd
 1403 0018 AFF30080 		.section	.text.RCC_AHB2PeriphClockLPModeCmd,"ax",%progbits
 1403      AFF30080 
 1404              		.align	2
 1405              		.p2align 4,,15
 1406              		.global	RCC_AHB2PeriphClockLPModeCmd
 1407              		.thumb
 1408              		.thumb_func
 1409              		.type	RCC_AHB2PeriphClockLPModeCmd, %function
 1410              	RCC_AHB2PeriphClockLPModeCmd:
 1411              	.LFB146:
 1412              		.loc 1 1494 0
 1413              		.cfi_startproc
 1414              		@ args = 0, pretend = 0, frame = 0
 1415              		@ frame_needed = 0, uses_anonymous_args = 0
 1416              		@ link register save eliminated.
 1417              	.LVL131:
 1418              		.loc 1 1500 0
 1419 0000 044B     		ldr	r3, .L167
 1420 0002 5A6D     		ldr	r2, [r3, #84]
 1421              		.loc 1 1498 0
 1422 0004 19B9     		cbnz	r1, .L166
 1423              		.loc 1 1504 0
 1424 0006 22EA0000 		bic	r0, r2, r0
 1425              	.LVL132:
 1426 000a 5865     		str	r0, [r3, #84]
 1427 000c 7047     		bx	lr
 1428              	.LVL133:
 1429              	.L166:
 1430              		.loc 1 1500 0
 1431 000e 1043     		orrs	r0, r0, r2
 1432              	.LVL134:
 1433 0010 5865     		str	r0, [r3, #84]
 1434 0012 7047     		bx	lr
 1435              	.L168:
 1436              		.align	2
 1437              	.L167:
 1438 0014 00380240 		.word	1073887232
 1439              		.cfi_endproc
 1440              	.LFE146:
 1441              		.size	RCC_AHB2PeriphClockLPModeCmd, .-RCC_AHB2PeriphClockLPModeCmd
 1442 0018 AFF30080 		.section	.text.RCC_AHB3PeriphClockLPModeCmd,"ax",%progbits
 1442      AFF30080 
 1443              		.align	2
 1444              		.p2align 4,,15
 1445              		.global	RCC_AHB3PeriphClockLPModeCmd
 1446              		.thumb
 1447              		.thumb_func
 1448              		.type	RCC_AHB3PeriphClockLPModeCmd, %function
 1449              	RCC_AHB3PeriphClockLPModeCmd:
ARM GAS  C:\Users\jsyoon\AppData\Local\Temp\ccXNWRFU.s 			page 27


 1450              	.LFB147:
 1451              		.loc 1 1521 0
 1452              		.cfi_startproc
 1453              		@ args = 0, pretend = 0, frame = 0
 1454              		@ frame_needed = 0, uses_anonymous_args = 0
 1455              		@ link register save eliminated.
 1456              	.LVL135:
 1457              		.loc 1 1527 0
 1458 0000 044B     		ldr	r3, .L173
 1459 0002 9A6D     		ldr	r2, [r3, #88]
 1460              		.loc 1 1525 0
 1461 0004 19B9     		cbnz	r1, .L172
 1462              		.loc 1 1531 0
 1463 0006 22EA0000 		bic	r0, r2, r0
 1464              	.LVL136:
 1465 000a 9865     		str	r0, [r3, #88]
 1466 000c 7047     		bx	lr
 1467              	.LVL137:
 1468              	.L172:
 1469              		.loc 1 1527 0
 1470 000e 1043     		orrs	r0, r0, r2
 1471              	.LVL138:
 1472 0010 9865     		str	r0, [r3, #88]
 1473 0012 7047     		bx	lr
 1474              	.L174:
 1475              		.align	2
 1476              	.L173:
 1477 0014 00380240 		.word	1073887232
 1478              		.cfi_endproc
 1479              	.LFE147:
 1480              		.size	RCC_AHB3PeriphClockLPModeCmd, .-RCC_AHB3PeriphClockLPModeCmd
 1481 0018 AFF30080 		.section	.text.RCC_APB1PeriphClockLPModeCmd,"ax",%progbits
 1481      AFF30080 
 1482              		.align	2
 1483              		.p2align 4,,15
 1484              		.global	RCC_APB1PeriphClockLPModeCmd
 1485              		.thumb
 1486              		.thumb_func
 1487              		.type	RCC_APB1PeriphClockLPModeCmd, %function
 1488              	RCC_APB1PeriphClockLPModeCmd:
 1489              	.LFB148:
 1490              		.loc 1 1571 0
 1491              		.cfi_startproc
 1492              		@ args = 0, pretend = 0, frame = 0
 1493              		@ frame_needed = 0, uses_anonymous_args = 0
 1494              		@ link register save eliminated.
 1495              	.LVL139:
 1496              		.loc 1 1577 0
 1497 0000 044B     		ldr	r3, .L179
 1498 0002 1A6E     		ldr	r2, [r3, #96]
 1499              		.loc 1 1575 0
 1500 0004 19B9     		cbnz	r1, .L178
 1501              		.loc 1 1581 0
 1502 0006 22EA0000 		bic	r0, r2, r0
 1503              	.LVL140:
 1504 000a 1866     		str	r0, [r3, #96]
 1505 000c 7047     		bx	lr
ARM GAS  C:\Users\jsyoon\AppData\Local\Temp\ccXNWRFU.s 			page 28


 1506              	.LVL141:
 1507              	.L178:
 1508              		.loc 1 1577 0
 1509 000e 1043     		orrs	r0, r0, r2
 1510              	.LVL142:
 1511 0010 1866     		str	r0, [r3, #96]
 1512 0012 7047     		bx	lr
 1513              	.L180:
 1514              		.align	2
 1515              	.L179:
 1516 0014 00380240 		.word	1073887232
 1517              		.cfi_endproc
 1518              	.LFE148:
 1519              		.size	RCC_APB1PeriphClockLPModeCmd, .-RCC_APB1PeriphClockLPModeCmd
 1520 0018 AFF30080 		.section	.text.RCC_APB2PeriphClockLPModeCmd,"ax",%progbits
 1520      AFF30080 
 1521              		.align	2
 1522              		.p2align 4,,15
 1523              		.global	RCC_APB2PeriphClockLPModeCmd
 1524              		.thumb
 1525              		.thumb_func
 1526              		.type	RCC_APB2PeriphClockLPModeCmd, %function
 1527              	RCC_APB2PeriphClockLPModeCmd:
 1528              	.LFB149:
 1529              		.loc 1 1611 0
 1530              		.cfi_startproc
 1531              		@ args = 0, pretend = 0, frame = 0
 1532              		@ frame_needed = 0, uses_anonymous_args = 0
 1533              		@ link register save eliminated.
 1534              	.LVL143:
 1535              		.loc 1 1617 0
 1536 0000 044B     		ldr	r3, .L185
 1537 0002 5A6E     		ldr	r2, [r3, #100]
 1538              		.loc 1 1615 0
 1539 0004 19B9     		cbnz	r1, .L184
 1540              		.loc 1 1621 0
 1541 0006 22EA0000 		bic	r0, r2, r0
 1542              	.LVL144:
 1543 000a 5866     		str	r0, [r3, #100]
 1544 000c 7047     		bx	lr
 1545              	.LVL145:
 1546              	.L184:
 1547              		.loc 1 1617 0
 1548 000e 1043     		orrs	r0, r0, r2
 1549              	.LVL146:
 1550 0010 5866     		str	r0, [r3, #100]
 1551 0012 7047     		bx	lr
 1552              	.L186:
 1553              		.align	2
 1554              	.L185:
 1555 0014 00380240 		.word	1073887232
 1556              		.cfi_endproc
 1557              	.LFE149:
 1558              		.size	RCC_APB2PeriphClockLPModeCmd, .-RCC_APB2PeriphClockLPModeCmd
 1559 0018 AFF30080 		.section	.text.RCC_ITConfig,"ax",%progbits
 1559      AFF30080 
 1560              		.align	2
ARM GAS  C:\Users\jsyoon\AppData\Local\Temp\ccXNWRFU.s 			page 29


 1561              		.p2align 4,,15
 1562              		.global	RCC_ITConfig
 1563              		.thumb
 1564              		.thumb_func
 1565              		.type	RCC_ITConfig, %function
 1566              	RCC_ITConfig:
 1567              	.LFB150:
 1568              		.loc 1 1656 0
 1569              		.cfi_startproc
 1570              		@ args = 0, pretend = 0, frame = 0
 1571              		@ frame_needed = 0, uses_anonymous_args = 0
 1572              		@ link register save eliminated.
 1573              	.LVL147:
 1574              		.loc 1 1663 0
 1575 0000 044B     		ldr	r3, .L191
 1576 0002 1A78     		ldrb	r2, [r3]	@ zero_extendqisi2
 1577              		.loc 1 1660 0
 1578 0004 19B9     		cbnz	r1, .L190
 1579              		.loc 1 1668 0
 1580 0006 22EA0000 		bic	r0, r2, r0
 1581              	.LVL148:
 1582 000a 1870     		strb	r0, [r3]
 1583 000c 7047     		bx	lr
 1584              	.LVL149:
 1585              	.L190:
 1586              		.loc 1 1663 0
 1587 000e 1043     		orrs	r0, r0, r2
 1588              	.LVL150:
 1589 0010 1870     		strb	r0, [r3]
 1590 0012 7047     		bx	lr
 1591              	.L192:
 1592              		.align	2
 1593              	.L191:
 1594 0014 0D380240 		.word	1073887245
 1595              		.cfi_endproc
 1596              	.LFE150:
 1597              		.size	RCC_ITConfig, .-RCC_ITConfig
 1598 0018 AFF30080 		.section	.text.RCC_GetFlagStatus,"ax",%progbits
 1598      AFF30080 
 1599              		.align	2
 1600              		.p2align 4,,15
 1601              		.global	RCC_GetFlagStatus
 1602              		.thumb
 1603              		.thumb_func
 1604              		.type	RCC_GetFlagStatus, %function
 1605              	RCC_GetFlagStatus:
 1606              	.LFB151:
 1607              		.loc 1 1692 0
 1608              		.cfi_startproc
 1609              		@ args = 0, pretend = 0, frame = 0
 1610              		@ frame_needed = 0, uses_anonymous_args = 0
 1611              		@ link register save eliminated.
 1612              	.LVL151:
 1613              		.loc 1 1701 0
 1614 0000 4309     		lsrs	r3, r0, #5
 1615              	.LVL152:
 1616              		.loc 1 1702 0
ARM GAS  C:\Users\jsyoon\AppData\Local\Temp\ccXNWRFU.s 			page 30


 1617 0002 012B     		cmp	r3, #1
 1618 0004 0BD0     		beq	.L197
 1619              		.loc 1 1706 0
 1620 0006 022B     		cmp	r3, #2
 1621              		.loc 1 1708 0
 1622 0008 094B     		ldr	r3, .L198
 1623              	.LVL153:
 1624 000a 0CBF     		ite	eq
 1625 000c 1B6F     		ldreq	r3, [r3, #112]
 1626              	.LVL154:
 1627              		.loc 1 1712 0
 1628 000e 5B6F     		ldrne	r3, [r3, #116]
 1629              	.LVL155:
 1630              		.loc 1 1717 0
 1631 0010 00F01F00 		and	r0, r0, #31
 1632              	.LVL156:
 1633 0014 23FA00F0 		lsr	r0, r3, r0
 1634              		.loc 1 1727 0
 1635 0018 00F00100 		and	r0, r0, #1
 1636 001c 7047     		bx	lr
 1637              	.LVL157:
 1638              	.L197:
 1639              		.loc 1 1704 0
 1640 001e 044B     		ldr	r3, .L198
 1641              	.LVL158:
 1642 0020 1B68     		ldr	r3, [r3]
 1643              	.LVL159:
 1644              		.loc 1 1717 0
 1645 0022 00F01F00 		and	r0, r0, #31
 1646              	.LVL160:
 1647 0026 23FA00F0 		lsr	r0, r3, r0
 1648              		.loc 1 1727 0
 1649 002a 00F00100 		and	r0, r0, #1
 1650 002e 7047     		bx	lr
 1651              	.L199:
 1652              		.align	2
 1653              	.L198:
 1654 0030 00380240 		.word	1073887232
 1655              		.cfi_endproc
 1656              	.LFE151:
 1657              		.size	RCC_GetFlagStatus, .-RCC_GetFlagStatus
 1658 0034 AFF30080 		.section	.text.RCC_ClearFlag,"ax",%progbits
 1658      AFF30080 
 1658      AFF30080 
 1659              		.align	2
 1660              		.p2align 4,,15
 1661              		.global	RCC_ClearFlag
 1662              		.thumb
 1663              		.thumb_func
 1664              		.type	RCC_ClearFlag, %function
 1665              	RCC_ClearFlag:
 1666              	.LFB152:
 1667              		.loc 1 1737 0
 1668              		.cfi_startproc
 1669              		@ args = 0, pretend = 0, frame = 0
 1670              		@ frame_needed = 0, uses_anonymous_args = 0
 1671              		@ link register save eliminated.
ARM GAS  C:\Users\jsyoon\AppData\Local\Temp\ccXNWRFU.s 			page 31


 1672              		.loc 1 1739 0
 1673 0000 024B     		ldr	r3, .L201
 1674 0002 5A6F     		ldr	r2, [r3, #116]
 1675 0004 42F08072 		orr	r2, r2, #16777216
 1676 0008 5A67     		str	r2, [r3, #116]
 1677 000a 7047     		bx	lr
 1678              	.L202:
 1679              		.align	2
 1680              	.L201:
 1681 000c 00380240 		.word	1073887232
 1682              		.cfi_endproc
 1683              	.LFE152:
 1684              		.size	RCC_ClearFlag, .-RCC_ClearFlag
 1685              		.section	.text.RCC_GetITStatus,"ax",%progbits
 1686              		.align	2
 1687              		.p2align 4,,15
 1688              		.global	RCC_GetITStatus
 1689              		.thumb
 1690              		.thumb_func
 1691              		.type	RCC_GetITStatus, %function
 1692              	RCC_GetITStatus:
 1693              	.LFB153:
 1694              		.loc 1 1756 0
 1695              		.cfi_startproc
 1696              		@ args = 0, pretend = 0, frame = 0
 1697              		@ frame_needed = 0, uses_anonymous_args = 0
 1698              		@ link register save eliminated.
 1699              	.LVL161:
 1700              		.loc 1 1763 0
 1701 0000 034B     		ldr	r3, .L204
 1702 0002 DB68     		ldr	r3, [r3, #12]
 1703              	.LVL162:
 1704 0004 1842     		tst	r0, r3
 1705              		.loc 1 1773 0
 1706 0006 0CBF     		ite	eq
 1707 0008 0020     		moveq	r0, #0
 1708 000a 0120     		movne	r0, #1
 1709              	.LVL163:
 1710 000c 7047     		bx	lr
 1711              	.L205:
 1712 000e 00BF     		.align	2
 1713              	.L204:
 1714 0010 00380240 		.word	1073887232
 1715              		.cfi_endproc
 1716              	.LFE153:
 1717              		.size	RCC_GetITStatus, .-RCC_GetITStatus
 1718 0014 AFF30080 		.section	.text.RCC_ClearITPendingBit,"ax",%progbits
 1718      AFF30080 
 1718      AFF30080 
 1719              		.align	2
 1720              		.p2align 4,,15
 1721              		.global	RCC_ClearITPendingBit
 1722              		.thumb
 1723              		.thumb_func
 1724              		.type	RCC_ClearITPendingBit, %function
 1725              	RCC_ClearITPendingBit:
 1726              	.LFB154:
ARM GAS  C:\Users\jsyoon\AppData\Local\Temp\ccXNWRFU.s 			page 32


 1727              		.loc 1 1789 0
 1728              		.cfi_startproc
 1729              		@ args = 0, pretend = 0, frame = 0
 1730              		@ frame_needed = 0, uses_anonymous_args = 0
 1731              		@ link register save eliminated.
 1732              	.LVL164:
 1733              		.loc 1 1795 0
 1734 0000 014B     		ldr	r3, .L207
 1735 0002 1870     		strb	r0, [r3]
 1736 0004 7047     		bx	lr
 1737              	.L208:
 1738 0006 00BF     		.align	2
 1739              	.L207:
 1740 0008 0E380240 		.word	1073887246
 1741              		.cfi_endproc
 1742              	.LFE154:
 1743              		.size	RCC_ClearITPendingBit, .-RCC_ClearITPendingBit
 1744 000c AFF30080 		.section	.data.APBAHBPrescTable,"aw",%progbits
 1745              		.align	2
 1746              		.set	.LANCHOR0,. + 0
 1747              		.type	APBAHBPrescTable, %object
 1748              		.size	APBAHBPrescTable, 16
 1749              	APBAHBPrescTable:
 1750 0000 00       		.byte	0
 1751 0001 00       		.byte	0
 1752 0002 00       		.byte	0
 1753 0003 00       		.byte	0
 1754 0004 01       		.byte	1
 1755 0005 02       		.byte	2
 1756 0006 03       		.byte	3
 1757 0007 04       		.byte	4
 1758 0008 01       		.byte	1
 1759 0009 02       		.byte	2
 1760 000a 03       		.byte	3
 1761 000b 04       		.byte	4
 1762 000c 06       		.byte	6
 1763 000d 07       		.byte	7
 1764 000e 08       		.byte	8
 1765 000f 09       		.byte	9
 1766              		.text
 1767              	.Letext0:
 1768              		.file 2 "c:\\crosstools\\gcc-arm-embedded\\4.8_2014q2\\arm-none-eabi\\include\\machine\\_default_t
 1769              		.file 3 "c:\\crosstools\\gcc-arm-embedded\\4.8_2014q2\\arm-none-eabi\\include\\stdint.h"
 1770              		.file 4 "ChibiOS_2.6.6/os/hal/platforms/STM32F4xx/stm32f4xx.h"
 1771              		.file 5 "ChibiOS_2.6.6/ext/stdperiph_stm32f4/inc/stm32f4xx_rcc.h"
 1772              		.file 6 "ChibiOS_2.6.6/os/ports/common/ARMCMx/CMSIS/include/core_cm4.h"