ARM GAS  C:\Users\jsyoon\AppData\Local\Temp\ccAMnLSs.s 			page 1


   1              		.syntax unified
   2              		.cpu cortex-m4
   3              		.eabi_attribute 27, 3
   4              		.eabi_attribute 28, 1
   5              		.fpu fpv4-sp-d16
   6              		.eabi_attribute 20, 1
   7              		.eabi_attribute 21, 1
   8              		.eabi_attribute 23, 3
   9              		.eabi_attribute 24, 1
  10              		.eabi_attribute 25, 1
  11              		.eabi_attribute 26, 1
  12              		.eabi_attribute 30, 2
  13              		.eabi_attribute 34, 1
  14              		.eabi_attribute 18, 4
  15              		.thumb
  16              		.file	"stm32f4xx_crc.c"
  17              		.text
  18              	.Ltext0:
  19              		.cfi_sections	.debug_frame
  20              		.section	.text.CRC_ResetDR,"ax",%progbits
  21              		.align	2
  22              		.p2align 4,,15
  23              		.global	CRC_ResetDR
  24              		.thumb
  25              		.thumb_func
  26              		.type	CRC_ResetDR, %function
  27              	CRC_ResetDR:
  28              	.LFB111:
  29              		.file 1 "ChibiOS_2.6.6/ext/stdperiph_stm32f4/src/stm32f4xx_crc.c"
  30              		.loc 1 57 0
  31              		.cfi_startproc
  32              		@ args = 0, pretend = 0, frame = 0
  33              		@ frame_needed = 0, uses_anonymous_args = 0
  34              		@ link register save eliminated.
  35              		.loc 1 59 0
  36 0000 014B     		ldr	r3, .L2
  37 0002 0122     		movs	r2, #1
  38 0004 9A60     		str	r2, [r3, #8]
  39 0006 7047     		bx	lr
  40              	.L3:
  41              		.align	2
  42              	.L2:
  43 0008 00300240 		.word	1073885184
  44              		.cfi_endproc
  45              	.LFE111:
  46              		.size	CRC_ResetDR, .-CRC_ResetDR
  47 000c AFF30080 		.section	.text.CRC_CalcCRC,"ax",%progbits
  48              		.align	2
  49              		.p2align 4,,15
  50              		.global	CRC_CalcCRC
  51              		.thumb
  52              		.thumb_func
  53              		.type	CRC_CalcCRC, %function
  54              	CRC_CalcCRC:
  55              	.LFB112:
  56              		.loc 1 68 0
  57              		.cfi_startproc
ARM GAS  C:\Users\jsyoon\AppData\Local\Temp\ccAMnLSs.s 			page 2


  58              		@ args = 0, pretend = 0, frame = 0
  59              		@ frame_needed = 0, uses_anonymous_args = 0
  60              		@ link register save eliminated.
  61              	.LVL0:
  62              		.loc 1 69 0
  63 0000 014B     		ldr	r3, .L5
  64 0002 1860     		str	r0, [r3]
  65              		.loc 1 71 0
  66 0004 1868     		ldr	r0, [r3]
  67              	.LVL1:
  68              		.loc 1 72 0
  69 0006 7047     		bx	lr
  70              	.L6:
  71              		.align	2
  72              	.L5:
  73 0008 00300240 		.word	1073885184
  74              		.cfi_endproc
  75              	.LFE112:
  76              		.size	CRC_CalcCRC, .-CRC_CalcCRC
  77 000c AFF30080 		.section	.text.CRC_CalcBlockCRC,"ax",%progbits
  78              		.align	2
  79              		.p2align 4,,15
  80              		.global	CRC_CalcBlockCRC
  81              		.thumb
  82              		.thumb_func
  83              		.type	CRC_CalcBlockCRC, %function
  84              	CRC_CalcBlockCRC:
  85              	.LFB113:
  86              		.loc 1 81 0
  87              		.cfi_startproc
  88              		@ args = 0, pretend = 0, frame = 0
  89              		@ frame_needed = 0, uses_anonymous_args = 0
  90              		@ link register save eliminated.
  91              	.LVL2:
  92              		.loc 1 84 0
  93 0000 39B1     		cbz	r1, .L9
  94              		.loc 1 86 0
  95 0002 054A     		ldr	r2, .L14
  96 0004 00EB8101 		add	r1, r0, r1, lsl #2
  97              	.LVL3:
  98              	.L10:
  99              		.loc 1 86 0 is_stmt 0 discriminator 2
 100 0008 50F8043B 		ldr	r3, [r0], #4
 101 000c 1360     		str	r3, [r2]
 102              		.loc 1 84 0 is_stmt 1 discriminator 2
 103 000e 8842     		cmp	r0, r1
 104 0010 FAD1     		bne	.L10
 105              	.L9:
 106              		.loc 1 88 0
 107 0012 014B     		ldr	r3, .L14
 108 0014 1868     		ldr	r0, [r3]
 109 0016 7047     		bx	lr
 110              	.L15:
 111              		.align	2
 112              	.L14:
 113 0018 00300240 		.word	1073885184
 114              		.cfi_endproc
ARM GAS  C:\Users\jsyoon\AppData\Local\Temp\ccAMnLSs.s 			page 3


 115              	.LFE113:
 116              		.size	CRC_CalcBlockCRC, .-CRC_CalcBlockCRC
 117 001c AFF30080 		.section	.text.CRC_GetCRC,"ax",%progbits
 118              		.align	2
 119              		.p2align 4,,15
 120              		.global	CRC_GetCRC
 121              		.thumb
 122              		.thumb_func
 123              		.type	CRC_GetCRC, %function
 124              	CRC_GetCRC:
 125              	.LFB114:
 126              		.loc 1 97 0
 127              		.cfi_startproc
 128              		@ args = 0, pretend = 0, frame = 0
 129              		@ frame_needed = 0, uses_anonymous_args = 0
 130              		@ link register save eliminated.
 131              		.loc 1 98 0
 132 0000 014B     		ldr	r3, .L17
 133 0002 1868     		ldr	r0, [r3]
 134              		.loc 1 99 0
 135 0004 7047     		bx	lr
 136              	.L18:
 137 0006 00BF     		.align	2
 138              	.L17:
 139 0008 00300240 		.word	1073885184
 140              		.cfi_endproc
 141              	.LFE114:
 142              		.size	CRC_GetCRC, .-CRC_GetCRC
 143 000c AFF30080 		.section	.text.CRC_SetIDRegister,"ax",%progbits
 144              		.align	2
 145              		.p2align 4,,15
 146              		.global	CRC_SetIDRegister
 147              		.thumb
 148              		.thumb_func
 149              		.type	CRC_SetIDRegister, %function
 150              	CRC_SetIDRegister:
 151              	.LFB115:
 152              		.loc 1 107 0
 153              		.cfi_startproc
 154              		@ args = 0, pretend = 0, frame = 0
 155              		@ frame_needed = 0, uses_anonymous_args = 0
 156              		@ link register save eliminated.
 157              	.LVL4:
 158              		.loc 1 108 0
 159 0000 014B     		ldr	r3, .L20
 160 0002 1871     		strb	r0, [r3, #4]
 161 0004 7047     		bx	lr
 162              	.L21:
 163 0006 00BF     		.align	2
 164              	.L20:
 165 0008 00300240 		.word	1073885184
 166              		.cfi_endproc
 167              	.LFE115:
 168              		.size	CRC_SetIDRegister, .-CRC_SetIDRegister
 169 000c AFF30080 		.section	.text.CRC_GetIDRegister,"ax",%progbits
 170              		.align	2
 171              		.p2align 4,,15
ARM GAS  C:\Users\jsyoon\AppData\Local\Temp\ccAMnLSs.s 			page 4


 172              		.global	CRC_GetIDRegister
 173              		.thumb
 174              		.thumb_func
 175              		.type	CRC_GetIDRegister, %function
 176              	CRC_GetIDRegister:
 177              	.LFB116:
 178              		.loc 1 117 0
 179              		.cfi_startproc
 180              		@ args = 0, pretend = 0, frame = 0
 181              		@ frame_needed = 0, uses_anonymous_args = 0
 182              		@ link register save eliminated.
 183              		.loc 1 118 0
 184 0000 014B     		ldr	r3, .L23
 185 0002 1879     		ldrb	r0, [r3, #4]	@ zero_extendqisi2
 186              		.loc 1 119 0
 187 0004 7047     		bx	lr
 188              	.L24:
 189 0006 00BF     		.align	2
 190              	.L23:
 191 0008 00300240 		.word	1073885184
 192              		.cfi_endproc
 193              	.LFE116:
 194              		.size	CRC_GetIDRegister, .-CRC_GetIDRegister
 195 000c AFF30080 		.text
 196              	.Letext0:
 197              		.file 2 "c:\\crosstools\\gcc-arm-embedded\\4.8_2014q2\\arm-none-eabi\\include\\machine\\_default_t
 198              		.file 3 "c:\\crosstools\\gcc-arm-embedded\\4.8_2014q2\\arm-none-eabi\\include\\stdint.h"
 199              		.file 4 "ChibiOS_2.6.6/os/hal/platforms/STM32F4xx/stm32f4xx.h"
 200              		.file 5 "ChibiOS_2.6.6/os/ports/common/ARMCMx/CMSIS/include/core_cm4.h"