ARM GAS  C:\Users\jsyoon\AppData\Local\Temp\ccDGobdh.s 			page 1


   1              		.syntax unified
   2              		.cpu cortex-m4
   3              		.eabi_attribute 27, 3
   4              		.eabi_attribute 28, 1
   5              		.fpu fpv4-sp-d16
   6              		.eabi_attribute 20, 1
   7              		.eabi_attribute 21, 1
   8              		.eabi_attribute 23, 3
   9              		.eabi_attribute 24, 1
  10              		.eabi_attribute 25, 1
  11              		.eabi_attribute 26, 1
  12              		.eabi_attribute 30, 2
  13              		.eabi_attribute 34, 1
  14              		.eabi_attribute 18, 4
  15              		.thumb
  16              		.file	"stm32f4xx_tim.c"
  17              		.text
  18              	.Ltext0:
  19              		.cfi_sections	.debug_frame
  20              		.section	.text.TIM_DeInit,"ax",%progbits
  21              		.align	2
  22              		.p2align 4,,15
  23              		.global	TIM_DeInit
  24              		.thumb
  25              		.thumb_func
  26              		.type	TIM_DeInit, %function
  27              	TIM_DeInit:
  28              	.LFB111:
  29              		.file 1 "ChibiOS_2.6.6/ext/stdperiph_stm32f4/src/stm32f4xx_tim.c"
  30              		.loc 1 201 0
  31              		.cfi_startproc
  32              		@ args = 0, pretend = 0, frame = 0
  33              		@ frame_needed = 0, uses_anonymous_args = 0
  34              	.LVL0:
  35 0000 08B5     		push	{r3, lr}
  36              		.cfi_def_cfa_offset 8
  37              		.cfi_offset 3, -8
  38              		.cfi_offset 14, -4
  39              		.loc 1 205 0
  40 0002 604B     		ldr	r3, .L31
  41 0004 9842     		cmp	r0, r3
  42 0006 35D0     		beq	.L17
  43              		.loc 1 210 0
  44 0008 B0F1804F 		cmp	r0, #1073741824
  45 000c 3CD0     		beq	.L18
  46              		.loc 1 215 0
  47 000e 5E4B     		ldr	r3, .L31+4
  48 0010 9842     		cmp	r0, r3
  49 0012 43D0     		beq	.L19
  50              		.loc 1 220 0
  51 0014 5D4B     		ldr	r3, .L31+8
  52 0016 9842     		cmp	r0, r3
  53 0018 4AD0     		beq	.L20
  54              		.loc 1 225 0
  55 001a 5D4B     		ldr	r3, .L31+12
  56 001c 9842     		cmp	r0, r3
  57 001e 51D0     		beq	.L21
ARM GAS  C:\Users\jsyoon\AppData\Local\Temp\ccDGobdh.s 			page 2


  58              		.loc 1 230 0
  59 0020 5C4B     		ldr	r3, .L31+16
  60 0022 9842     		cmp	r0, r3
  61 0024 58D0     		beq	.L22
  62              		.loc 1 235 0
  63 0026 5C4B     		ldr	r3, .L31+20
  64 0028 9842     		cmp	r0, r3
  65 002a 5FD0     		beq	.L23
  66              		.loc 1 240 0
  67 002c 5B4B     		ldr	r3, .L31+24
  68 002e 9842     		cmp	r0, r3
  69 0030 66D0     		beq	.L24
  70              		.loc 1 245 0
  71 0032 5B4B     		ldr	r3, .L31+28
  72 0034 9842     		cmp	r0, r3
  73 0036 6DD0     		beq	.L25
  74              		.loc 1 250 0
  75 0038 5A4B     		ldr	r3, .L31+32
  76 003a 9842     		cmp	r0, r3
  77 003c 76D0     		beq	.L26
  78              		.loc 1 255 0
  79 003e 5A4B     		ldr	r3, .L31+36
  80 0040 9842     		cmp	r0, r3
  81 0042 7FD0     		beq	.L27
  82              		.loc 1 260 0
  83 0044 594B     		ldr	r3, .L31+40
  84 0046 9842     		cmp	r0, r3
  85 0048 00F08880 		beq	.L28
  86              		.loc 1 265 0
  87 004c 584B     		ldr	r3, .L31+44
  88 004e 9842     		cmp	r0, r3
  89 0050 00F08E80 		beq	.L29
  90              		.loc 1 272 0
  91 0054 574B     		ldr	r3, .L31+48
  92 0056 9842     		cmp	r0, r3
  93 0058 00D0     		beq	.L30
  94 005a 08BD     		pop	{r3, pc}
  95              	.L30:
  96              		.loc 1 274 0
  97 005c 4FF48070 		mov	r0, #256
  98              	.LVL1:
  99 0060 0121     		movs	r1, #1
 100 0062 FFF7FEFF 		bl	RCC_APB1PeriphResetCmd
 101              	.LVL2:
 102              		.loc 1 275 0
 103 0066 4FF48070 		mov	r0, #256
 104 006a 0021     		movs	r1, #0
 105              		.loc 1 278 0
 106 006c BDE80840 		pop	{r3, lr}
 107              		.loc 1 275 0
 108 0070 FFF7FEBF 		b	RCC_APB1PeriphResetCmd
 109              	.LVL3:
 110              	.L17:
 111              		.loc 1 207 0
 112 0074 0120     		movs	r0, #1
 113              	.LVL4:
 114 0076 0146     		mov	r1, r0
ARM GAS  C:\Users\jsyoon\AppData\Local\Temp\ccDGobdh.s 			page 3


 115 0078 FFF7FEFF 		bl	RCC_APB2PeriphResetCmd
 116              	.LVL5:
 117              		.loc 1 208 0
 118 007c 0120     		movs	r0, #1
 119 007e 0021     		movs	r1, #0
 120              		.loc 1 278 0
 121 0080 BDE80840 		pop	{r3, lr}
 122              		.loc 1 208 0
 123 0084 FFF7FEBF 		b	RCC_APB2PeriphResetCmd
 124              	.LVL6:
 125              	.L18:
 126              		.loc 1 212 0
 127 0088 0120     		movs	r0, #1
 128              	.LVL7:
 129 008a 0146     		mov	r1, r0
 130 008c FFF7FEFF 		bl	RCC_APB1PeriphResetCmd
 131              	.LVL8:
 132              		.loc 1 213 0
 133 0090 0120     		movs	r0, #1
 134 0092 0021     		movs	r1, #0
 135              		.loc 1 278 0
 136 0094 BDE80840 		pop	{r3, lr}
 137              		.loc 1 213 0
 138 0098 FFF7FEBF 		b	RCC_APB1PeriphResetCmd
 139              	.LVL9:
 140              	.L19:
 141              		.loc 1 217 0
 142 009c 0220     		movs	r0, #2
 143              	.LVL10:
 144 009e 0121     		movs	r1, #1
 145 00a0 FFF7FEFF 		bl	RCC_APB1PeriphResetCmd
 146              	.LVL11:
 147              		.loc 1 218 0
 148 00a4 0220     		movs	r0, #2
 149 00a6 0021     		movs	r1, #0
 150              		.loc 1 278 0
 151 00a8 BDE80840 		pop	{r3, lr}
 152              		.loc 1 218 0
 153 00ac FFF7FEBF 		b	RCC_APB1PeriphResetCmd
 154              	.LVL12:
 155              	.L20:
 156              		.loc 1 222 0
 157 00b0 0420     		movs	r0, #4
 158              	.LVL13:
 159 00b2 0121     		movs	r1, #1
 160 00b4 FFF7FEFF 		bl	RCC_APB1PeriphResetCmd
 161              	.LVL14:
 162              		.loc 1 223 0
 163 00b8 0420     		movs	r0, #4
 164 00ba 0021     		movs	r1, #0
 165              		.loc 1 278 0
 166 00bc BDE80840 		pop	{r3, lr}
 167              		.loc 1 223 0
 168 00c0 FFF7FEBF 		b	RCC_APB1PeriphResetCmd
 169              	.LVL15:
 170              	.L21:
 171              		.loc 1 227 0
ARM GAS  C:\Users\jsyoon\AppData\Local\Temp\ccDGobdh.s 			page 4


 172 00c4 0820     		movs	r0, #8
 173              	.LVL16:
 174 00c6 0121     		movs	r1, #1
 175 00c8 FFF7FEFF 		bl	RCC_APB1PeriphResetCmd
 176              	.LVL17:
 177              		.loc 1 228 0
 178 00cc 0820     		movs	r0, #8
 179 00ce 0021     		movs	r1, #0
 180              		.loc 1 278 0
 181 00d0 BDE80840 		pop	{r3, lr}
 182              		.loc 1 228 0
 183 00d4 FFF7FEBF 		b	RCC_APB1PeriphResetCmd
 184              	.LVL18:
 185              	.L22:
 186              		.loc 1 232 0
 187 00d8 1020     		movs	r0, #16
 188              	.LVL19:
 189 00da 0121     		movs	r1, #1
 190 00dc FFF7FEFF 		bl	RCC_APB1PeriphResetCmd
 191              	.LVL20:
 192              		.loc 1 233 0
 193 00e0 1020     		movs	r0, #16
 194 00e2 0021     		movs	r1, #0
 195              		.loc 1 278 0
 196 00e4 BDE80840 		pop	{r3, lr}
 197              		.loc 1 233 0
 198 00e8 FFF7FEBF 		b	RCC_APB1PeriphResetCmd
 199              	.LVL21:
 200              	.L23:
 201              		.loc 1 237 0
 202 00ec 2020     		movs	r0, #32
 203              	.LVL22:
 204 00ee 0121     		movs	r1, #1
 205 00f0 FFF7FEFF 		bl	RCC_APB1PeriphResetCmd
 206              	.LVL23:
 207              		.loc 1 238 0
 208 00f4 2020     		movs	r0, #32
 209 00f6 0021     		movs	r1, #0
 210              		.loc 1 278 0
 211 00f8 BDE80840 		pop	{r3, lr}
 212              		.loc 1 238 0
 213 00fc FFF7FEBF 		b	RCC_APB1PeriphResetCmd
 214              	.LVL24:
 215              	.L24:
 216              		.loc 1 242 0
 217 0100 0220     		movs	r0, #2
 218              	.LVL25:
 219 0102 0121     		movs	r1, #1
 220 0104 FFF7FEFF 		bl	RCC_APB2PeriphResetCmd
 221              	.LVL26:
 222              		.loc 1 243 0
 223 0108 0220     		movs	r0, #2
 224 010a 0021     		movs	r1, #0
 225              		.loc 1 278 0
 226 010c BDE80840 		pop	{r3, lr}
 227              		.loc 1 243 0
 228 0110 FFF7FEBF 		b	RCC_APB2PeriphResetCmd
ARM GAS  C:\Users\jsyoon\AppData\Local\Temp\ccDGobdh.s 			page 5


 229              	.LVL27:
 230              	.L25:
 231              		.loc 1 247 0
 232 0114 4FF48030 		mov	r0, #65536
 233              	.LVL28:
 234 0118 0121     		movs	r1, #1
 235 011a FFF7FEFF 		bl	RCC_APB2PeriphResetCmd
 236              	.LVL29:
 237              		.loc 1 248 0
 238 011e 4FF48030 		mov	r0, #65536
 239 0122 0021     		movs	r1, #0
 240              		.loc 1 278 0
 241 0124 BDE80840 		pop	{r3, lr}
 242              		.loc 1 248 0
 243 0128 FFF7FEBF 		b	RCC_APB2PeriphResetCmd
 244              	.LVL30:
 245              	.L26:
 246              		.loc 1 252 0
 247 012c 4FF40030 		mov	r0, #131072
 248              	.LVL31:
 249 0130 0121     		movs	r1, #1
 250 0132 FFF7FEFF 		bl	RCC_APB2PeriphResetCmd
 251              	.LVL32:
 252              		.loc 1 253 0
 253 0136 4FF40030 		mov	r0, #131072
 254 013a 0021     		movs	r1, #0
 255              		.loc 1 278 0
 256 013c BDE80840 		pop	{r3, lr}
 257              		.loc 1 253 0
 258 0140 FFF7FEBF 		b	RCC_APB2PeriphResetCmd
 259              	.LVL33:
 260              	.L27:
 261              		.loc 1 257 0
 262 0144 4FF48020 		mov	r0, #262144
 263              	.LVL34:
 264 0148 0121     		movs	r1, #1
 265 014a FFF7FEFF 		bl	RCC_APB2PeriphResetCmd
 266              	.LVL35:
 267              		.loc 1 258 0
 268 014e 4FF48020 		mov	r0, #262144
 269 0152 0021     		movs	r1, #0
 270              		.loc 1 278 0
 271 0154 BDE80840 		pop	{r3, lr}
 272              		.loc 1 258 0
 273 0158 FFF7FEBF 		b	RCC_APB2PeriphResetCmd
 274              	.LVL36:
 275              	.L28:
 276              		.loc 1 262 0
 277 015c 4020     		movs	r0, #64
 278              	.LVL37:
 279 015e 0121     		movs	r1, #1
 280 0160 FFF7FEFF 		bl	RCC_APB1PeriphResetCmd
 281              	.LVL38:
 282              		.loc 1 263 0
 283 0164 4020     		movs	r0, #64
 284 0166 0021     		movs	r1, #0
 285              		.loc 1 278 0
ARM GAS  C:\Users\jsyoon\AppData\Local\Temp\ccDGobdh.s 			page 6


 286 0168 BDE80840 		pop	{r3, lr}
 287              		.loc 1 263 0
 288 016c FFF7FEBF 		b	RCC_APB1PeriphResetCmd
 289              	.LVL39:
 290              	.L29:
 291              		.loc 1 267 0
 292 0170 8020     		movs	r0, #128
 293              	.LVL40:
 294 0172 0121     		movs	r1, #1
 295 0174 FFF7FEFF 		bl	RCC_APB1PeriphResetCmd
 296              	.LVL41:
 297              		.loc 1 268 0
 298 0178 8020     		movs	r0, #128
 299 017a 0021     		movs	r1, #0
 300              		.loc 1 278 0
 301 017c BDE80840 		pop	{r3, lr}
 302              		.loc 1 268 0
 303 0180 FFF7FEBF 		b	RCC_APB1PeriphResetCmd
 304              	.LVL42:
 305              	.L32:
 306              		.align	2
 307              	.L31:
 308 0184 00000140 		.word	1073807360
 309 0188 00040040 		.word	1073742848
 310 018c 00080040 		.word	1073743872
 311 0190 000C0040 		.word	1073744896
 312 0194 00100040 		.word	1073745920
 313 0198 00140040 		.word	1073746944
 314 019c 00040140 		.word	1073808384
 315 01a0 00400140 		.word	1073823744
 316 01a4 00440140 		.word	1073824768
 317 01a8 00480140 		.word	1073825792
 318 01ac 00180040 		.word	1073747968
 319 01b0 001C0040 		.word	1073748992
 320 01b4 00200040 		.word	1073750016
 321              		.cfi_endproc
 322              	.LFE111:
 323              		.size	TIM_DeInit, .-TIM_DeInit
 324 01b8 AFF30080 		.section	.text.TIM_TimeBaseInit,"ax",%progbits
 324      AFF30080 
 325              		.align	2
 326              		.p2align 4,,15
 327              		.global	TIM_TimeBaseInit
 328              		.thumb
 329              		.thumb_func
 330              		.type	TIM_TimeBaseInit, %function
 331              	TIM_TimeBaseInit:
 332              	.LFB112:
 333              		.loc 1 289 0
 334              		.cfi_startproc
 335              		@ args = 0, pretend = 0, frame = 0
 336              		@ frame_needed = 0, uses_anonymous_args = 0
 337              		@ link register save eliminated.
 338              	.LVL43:
 339              		.loc 1 299 0
 340 0000 234A     		ldr	r2, .L45
 341              		.loc 1 297 0
ARM GAS  C:\Users\jsyoon\AppData\Local\Temp\ccDGobdh.s 			page 7


 342 0002 0388     		ldrh	r3, [r0]
 343              		.loc 1 299 0
 344 0004 9042     		cmp	r0, r2
 345              		.loc 1 289 0
 346 0006 70B4     		push	{r4, r5, r6}
 347              		.cfi_def_cfa_offset 12
 348              		.cfi_offset 4, -12
 349              		.cfi_offset 5, -8
 350              		.cfi_offset 6, -4
 351              		.loc 1 297 0
 352 0008 9BB2     		uxth	r3, r3
 353              	.LVL44:
 354              		.loc 1 299 0
 355 000a 12D0     		beq	.L34
 356              		.loc 1 299 0 is_stmt 0 discriminator 1
 357 000c 02F58062 		add	r2, r2, #1024
 358 0010 9042     		cmp	r0, r2
 359 0012 0ED0     		beq	.L34
 360 0014 B0F1804F 		cmp	r0, #1073741824
 361 0018 0BD0     		beq	.L34
 362              		.loc 1 300 0 is_stmt 1
 363 001a A2F58032 		sub	r2, r2, #65536
 364 001e 9042     		cmp	r0, r2
 365 0020 07D0     		beq	.L34
 366              		.loc 1 300 0 is_stmt 0 discriminator 1
 367 0022 02F58062 		add	r2, r2, #1024
 368 0026 9042     		cmp	r0, r2
 369 0028 03D0     		beq	.L34
 370              		.loc 1 301 0 is_stmt 1
 371 002a 02F58062 		add	r2, r2, #1024
 372 002e 9042     		cmp	r0, r2
 373 0030 03D1     		bne	.L35
 374              	.L34:
 375              		.loc 1 305 0
 376 0032 4A88     		ldrh	r2, [r1, #2]
 377              		.loc 1 304 0
 378 0034 23F07003 		bic	r3, r3, #112
 379              	.LVL45:
 380              		.loc 1 305 0
 381 0038 1343     		orrs	r3, r3, r2
 382              	.LVL46:
 383              	.L35:
 384              		.loc 1 308 0
 385 003a 164A     		ldr	r2, .L45+4
 386 003c 9042     		cmp	r0, r2
 387 003e 1ED0     		beq	.L37
 388              		.loc 1 308 0 is_stmt 0 discriminator 1
 389 0040 02F58062 		add	r2, r2, #1024
 390 0044 9042     		cmp	r0, r2
 391 0046 1AD0     		beq	.L37
 392              		.loc 1 312 0 is_stmt 1
 393 0048 0E89     		ldrh	r6, [r1, #8]
 394              		.loc 1 318 0
 395 004a 4D68     		ldr	r5, [r1, #4]
 396              		.loc 1 321 0
 397 004c 0C88     		ldrh	r4, [r1]
 398              		.loc 1 311 0
ARM GAS  C:\Users\jsyoon\AppData\Local\Temp\ccDGobdh.s 			page 8


 399 004e 23F44073 		bic	r3, r3, #768
 400              	.LVL47:
 401              		.loc 1 323 0
 402 0052 02F56C42 		add	r2, r2, #60416
 403              		.loc 1 311 0
 404 0056 9BB2     		uxth	r3, r3
 405              	.LVL48:
 406              		.loc 1 312 0
 407 0058 3343     		orrs	r3, r3, r6
 408              	.LVL49:
 409              		.loc 1 323 0
 410 005a 9042     		cmp	r0, r2
 411              		.loc 1 315 0
 412 005c 0380     		strh	r3, [r0]	@ movhi
 413              		.loc 1 318 0
 414 005e C562     		str	r5, [r0, #44]
 415              		.loc 1 321 0
 416 0060 0485     		strh	r4, [r0, #40]	@ movhi
 417              		.loc 1 323 0
 418 0062 06D0     		beq	.L40
 419              	.LVL50:
 420              		.loc 1 323 0 is_stmt 0 discriminator 1
 421 0064 0C4B     		ldr	r3, .L45+8
 422 0066 9842     		cmp	r0, r3
 423 0068 03D0     		beq	.L40
 424              		.loc 1 331 0 is_stmt 1
 425 006a 0123     		movs	r3, #1
 426 006c 8382     		strh	r3, [r0, #20]	@ movhi
 427              		.loc 1 332 0
 428 006e 70BC     		pop	{r4, r5, r6}
 429 0070 7047     		bx	lr
 430              	.L40:
 431              		.loc 1 326 0
 432 0072 8B7A     		ldrb	r3, [r1, #10]	@ zero_extendqisi2
 433 0074 0386     		strh	r3, [r0, #48]	@ movhi
 434              		.loc 1 331 0
 435 0076 0123     		movs	r3, #1
 436 0078 8382     		strh	r3, [r0, #20]	@ movhi
 437              		.loc 1 332 0
 438 007a 70BC     		pop	{r4, r5, r6}
 439 007c 7047     		bx	lr
 440              	.LVL51:
 441              	.L37:
 442              		.loc 1 315 0
 443 007e 0380     		strh	r3, [r0]	@ movhi
 444              		.loc 1 321 0
 445 0080 0B88     		ldrh	r3, [r1]
 446              	.LVL52:
 447              		.loc 1 318 0
 448 0082 4A68     		ldr	r2, [r1, #4]
 449 0084 C262     		str	r2, [r0, #44]
 450              		.loc 1 321 0
 451 0086 0385     		strh	r3, [r0, #40]	@ movhi
 452              		.loc 1 331 0
 453 0088 0123     		movs	r3, #1
 454 008a 8382     		strh	r3, [r0, #20]	@ movhi
 455              		.loc 1 332 0
ARM GAS  C:\Users\jsyoon\AppData\Local\Temp\ccDGobdh.s 			page 9


 456 008c 70BC     		pop	{r4, r5, r6}
 457 008e 7047     		bx	lr
 458              	.L46:
 459              		.align	2
 460              	.L45:
 461 0090 00000140 		.word	1073807360
 462 0094 00100040 		.word	1073745920
 463 0098 00040140 		.word	1073808384
 464              		.cfi_endproc
 465              	.LFE112:
 466              		.size	TIM_TimeBaseInit, .-TIM_TimeBaseInit
 467 009c AFF30080 		.section	.text.TIM_TimeBaseStructInit,"ax",%progbits
 468              		.align	2
 469              		.p2align 4,,15
 470              		.global	TIM_TimeBaseStructInit
 471              		.thumb
 472              		.thumb_func
 473              		.type	TIM_TimeBaseStructInit, %function
 474              	TIM_TimeBaseStructInit:
 475              	.LFB113:
 476              		.loc 1 341 0
 477              		.cfi_startproc
 478              		@ args = 0, pretend = 0, frame = 0
 479              		@ frame_needed = 0, uses_anonymous_args = 0
 480              		@ link register save eliminated.
 481              	.LVL53:
 482              		.loc 1 344 0
 483 0000 0023     		movs	r3, #0
 484              		.loc 1 343 0
 485 0002 4FF0FF32 		mov	r2, #-1
 486 0006 4260     		str	r2, [r0, #4]
 487              		.loc 1 344 0
 488 0008 0380     		strh	r3, [r0]	@ movhi
 489              		.loc 1 345 0
 490 000a 0381     		strh	r3, [r0, #8]	@ movhi
 491              		.loc 1 346 0
 492 000c 4380     		strh	r3, [r0, #2]	@ movhi
 493              		.loc 1 347 0
 494 000e 8372     		strb	r3, [r0, #10]
 495 0010 7047     		bx	lr
 496              		.cfi_endproc
 497              	.LFE113:
 498              		.size	TIM_TimeBaseStructInit, .-TIM_TimeBaseStructInit
 499 0012 00BFAFF3 		.section	.text.TIM_PrescalerConfig,"ax",%progbits
 499      0080AFF3 
 499      0080AFF3 
 499      0080
 500              		.align	2
 501              		.p2align 4,,15
 502              		.global	TIM_PrescalerConfig
 503              		.thumb
 504              		.thumb_func
 505              		.type	TIM_PrescalerConfig, %function
 506              	TIM_PrescalerConfig:
 507              	.LFB114:
 508              		.loc 1 361 0
 509              		.cfi_startproc
ARM GAS  C:\Users\jsyoon\AppData\Local\Temp\ccDGobdh.s 			page 10


 510              		@ args = 0, pretend = 0, frame = 0
 511              		@ frame_needed = 0, uses_anonymous_args = 0
 512              		@ link register save eliminated.
 513              	.LVL54:
 514              		.loc 1 366 0
 515 0000 0185     		strh	r1, [r0, #40]	@ movhi
 516              		.loc 1 368 0
 517 0002 8282     		strh	r2, [r0, #20]	@ movhi
 518 0004 7047     		bx	lr
 519              		.cfi_endproc
 520              	.LFE114:
 521              		.size	TIM_PrescalerConfig, .-TIM_PrescalerConfig
 522              		.section	.text.TIM_CounterModeConfig,"ax",%progbits
 523              		.align	2
 524              		.p2align 4,,15
 525              		.global	TIM_CounterModeConfig
 526              		.thumb
 527              		.thumb_func
 528              		.type	TIM_CounterModeConfig, %function
 529              	TIM_CounterModeConfig:
 530              	.LFB115:
 531              		.loc 1 384 0
 532              		.cfi_startproc
 533              		@ args = 0, pretend = 0, frame = 0
 534              		@ frame_needed = 0, uses_anonymous_args = 0
 535              		@ link register save eliminated.
 536              	.LVL55:
 537              		.loc 1 391 0
 538 0000 0388     		ldrh	r3, [r0]
 539              	.LVL56:
 540              		.loc 1 394 0
 541 0002 23F07003 		bic	r3, r3, #112
 542              	.LVL57:
 543 0006 1B04     		lsls	r3, r3, #16
 544 0008 1B0C     		lsrs	r3, r3, #16
 545              	.LVL58:
 546              		.loc 1 397 0
 547 000a 1943     		orrs	r1, r1, r3
 548              	.LVL59:
 549              		.loc 1 400 0
 550 000c 0180     		strh	r1, [r0]	@ movhi
 551 000e 7047     		bx	lr
 552              		.cfi_endproc
 553              	.LFE115:
 554              		.size	TIM_CounterModeConfig, .-TIM_CounterModeConfig
 555              		.section	.text.TIM_SetCounter,"ax",%progbits
 556              		.align	2
 557              		.p2align 4,,15
 558              		.global	TIM_SetCounter
 559              		.thumb
 560              		.thumb_func
 561              		.type	TIM_SetCounter, %function
 562              	TIM_SetCounter:
 563              	.LFB116:
 564              		.loc 1 410 0
 565              		.cfi_startproc
 566              		@ args = 0, pretend = 0, frame = 0
ARM GAS  C:\Users\jsyoon\AppData\Local\Temp\ccDGobdh.s 			page 11


 567              		@ frame_needed = 0, uses_anonymous_args = 0
 568              		@ link register save eliminated.
 569              	.LVL60:
 570              		.loc 1 415 0
 571 0000 4162     		str	r1, [r0, #36]
 572 0002 7047     		bx	lr
 573              		.cfi_endproc
 574              	.LFE116:
 575              		.size	TIM_SetCounter, .-TIM_SetCounter
 576 0004 AFF30080 		.section	.text.TIM_SetAutoreload,"ax",%progbits
 576      AFF30080 
 576      AFF30080 
 577              		.align	2
 578              		.p2align 4,,15
 579              		.global	TIM_SetAutoreload
 580              		.thumb
 581              		.thumb_func
 582              		.type	TIM_SetAutoreload, %function
 583              	TIM_SetAutoreload:
 584              	.LFB117:
 585              		.loc 1 425 0
 586              		.cfi_startproc
 587              		@ args = 0, pretend = 0, frame = 0
 588              		@ frame_needed = 0, uses_anonymous_args = 0
 589              		@ link register save eliminated.
 590              	.LVL61:
 591              		.loc 1 430 0
 592 0000 C162     		str	r1, [r0, #44]
 593 0002 7047     		bx	lr
 594              		.cfi_endproc
 595              	.LFE117:
 596              		.size	TIM_SetAutoreload, .-TIM_SetAutoreload
 597 0004 AFF30080 		.section	.text.TIM_GetCounter,"ax",%progbits
 597      AFF30080 
 597      AFF30080 
 598              		.align	2
 599              		.p2align 4,,15
 600              		.global	TIM_GetCounter
 601              		.thumb
 602              		.thumb_func
 603              		.type	TIM_GetCounter, %function
 604              	TIM_GetCounter:
 605              	.LFB118:
 606              		.loc 1 439 0
 607              		.cfi_startproc
 608              		@ args = 0, pretend = 0, frame = 0
 609              		@ frame_needed = 0, uses_anonymous_args = 0
 610              		@ link register save eliminated.
 611              	.LVL62:
 612              		.loc 1 444 0
 613 0000 406A     		ldr	r0, [r0, #36]
 614              	.LVL63:
 615              		.loc 1 445 0
 616 0002 7047     		bx	lr
 617              		.cfi_endproc
 618              	.LFE118:
 619              		.size	TIM_GetCounter, .-TIM_GetCounter
ARM GAS  C:\Users\jsyoon\AppData\Local\Temp\ccDGobdh.s 			page 12


 620 0004 AFF30080 		.section	.text.TIM_GetPrescaler,"ax",%progbits
 620      AFF30080 
 620      AFF30080 
 621              		.align	2
 622              		.p2align 4,,15
 623              		.global	TIM_GetPrescaler
 624              		.thumb
 625              		.thumb_func
 626              		.type	TIM_GetPrescaler, %function
 627              	TIM_GetPrescaler:
 628              	.LFB119:
 629              		.loc 1 453 0
 630              		.cfi_startproc
 631              		@ args = 0, pretend = 0, frame = 0
 632              		@ frame_needed = 0, uses_anonymous_args = 0
 633              		@ link register save eliminated.
 634              	.LVL64:
 635              		.loc 1 458 0
 636 0000 008D     		ldrh	r0, [r0, #40]
 637              	.LVL65:
 638              		.loc 1 459 0
 639 0002 80B2     		uxth	r0, r0
 640 0004 7047     		bx	lr
 641              		.cfi_endproc
 642              	.LFE119:
 643              		.size	TIM_GetPrescaler, .-TIM_GetPrescaler
 644 0006 00BFAFF3 		.section	.text.TIM_UpdateDisableConfig,"ax",%progbits
 644      0080AFF3 
 644      0080
 645              		.align	2
 646              		.p2align 4,,15
 647              		.global	TIM_UpdateDisableConfig
 648              		.thumb
 649              		.thumb_func
 650              		.type	TIM_UpdateDisableConfig, %function
 651              	TIM_UpdateDisableConfig:
 652              	.LFB120:
 653              		.loc 1 469 0
 654              		.cfi_startproc
 655              		@ args = 0, pretend = 0, frame = 0
 656              		@ frame_needed = 0, uses_anonymous_args = 0
 657              		@ link register save eliminated.
 658              	.LVL66:
 659              		.loc 1 477 0
 660 0000 0388     		ldrh	r3, [r0]
 661              		.loc 1 474 0
 662 0002 29B9     		cbnz	r1, .L57
 663              		.loc 1 482 0
 664 0004 23F00203 		bic	r3, r3, #2
 665 0008 1B04     		lsls	r3, r3, #16
 666 000a 1B0C     		lsrs	r3, r3, #16
 667 000c 0380     		strh	r3, [r0]	@ movhi
 668 000e 7047     		bx	lr
 669              	.L57:
 670              		.loc 1 477 0
 671 0010 9BB2     		uxth	r3, r3
 672 0012 43F00203 		orr	r3, r3, #2
ARM GAS  C:\Users\jsyoon\AppData\Local\Temp\ccDGobdh.s 			page 13


 673 0016 0380     		strh	r3, [r0]	@ movhi
 674 0018 7047     		bx	lr
 675              		.cfi_endproc
 676              	.LFE120:
 677              		.size	TIM_UpdateDisableConfig, .-TIM_UpdateDisableConfig
 678 001a 00BFAFF3 		.section	.text.TIM_UpdateRequestConfig,"ax",%progbits
 678      0080
 679              		.align	2
 680              		.p2align 4,,15
 681              		.global	TIM_UpdateRequestConfig
 682              		.thumb
 683              		.thumb_func
 684              		.type	TIM_UpdateRequestConfig, %function
 685              	TIM_UpdateRequestConfig:
 686              	.LFB121:
 687              		.loc 1 498 0
 688              		.cfi_startproc
 689              		@ args = 0, pretend = 0, frame = 0
 690              		@ frame_needed = 0, uses_anonymous_args = 0
 691              		@ link register save eliminated.
 692              	.LVL67:
 693              		.loc 1 506 0
 694 0000 0388     		ldrh	r3, [r0]
 695              		.loc 1 503 0
 696 0002 29B9     		cbnz	r1, .L61
 697              		.loc 1 511 0
 698 0004 23F00403 		bic	r3, r3, #4
 699 0008 1B04     		lsls	r3, r3, #16
 700 000a 1B0C     		lsrs	r3, r3, #16
 701 000c 0380     		strh	r3, [r0]	@ movhi
 702 000e 7047     		bx	lr
 703              	.L61:
 704              		.loc 1 506 0
 705 0010 9BB2     		uxth	r3, r3
 706 0012 43F00403 		orr	r3, r3, #4
 707 0016 0380     		strh	r3, [r0]	@ movhi
 708 0018 7047     		bx	lr
 709              		.cfi_endproc
 710              	.LFE121:
 711              		.size	TIM_UpdateRequestConfig, .-TIM_UpdateRequestConfig
 712 001a 00BFAFF3 		.section	.text.TIM_ARRPreloadConfig,"ax",%progbits
 712      0080
 713              		.align	2
 714              		.p2align 4,,15
 715              		.global	TIM_ARRPreloadConfig
 716              		.thumb
 717              		.thumb_func
 718              		.type	TIM_ARRPreloadConfig, %function
 719              	TIM_ARRPreloadConfig:
 720              	.LFB122:
 721              		.loc 1 523 0
 722              		.cfi_startproc
 723              		@ args = 0, pretend = 0, frame = 0
 724              		@ frame_needed = 0, uses_anonymous_args = 0
 725              		@ link register save eliminated.
 726              	.LVL68:
 727              		.loc 1 531 0
ARM GAS  C:\Users\jsyoon\AppData\Local\Temp\ccDGobdh.s 			page 14


 728 0000 0388     		ldrh	r3, [r0]
 729              		.loc 1 528 0
 730 0002 29B9     		cbnz	r1, .L65
 731              		.loc 1 536 0
 732 0004 23F08003 		bic	r3, r3, #128
 733 0008 1B04     		lsls	r3, r3, #16
 734 000a 1B0C     		lsrs	r3, r3, #16
 735 000c 0380     		strh	r3, [r0]	@ movhi
 736 000e 7047     		bx	lr
 737              	.L65:
 738              		.loc 1 531 0
 739 0010 9BB2     		uxth	r3, r3
 740 0012 43F08003 		orr	r3, r3, #128
 741 0016 0380     		strh	r3, [r0]	@ movhi
 742 0018 7047     		bx	lr
 743              		.cfi_endproc
 744              	.LFE122:
 745              		.size	TIM_ARRPreloadConfig, .-TIM_ARRPreloadConfig
 746 001a 00BFAFF3 		.section	.text.TIM_SelectOnePulseMode,"ax",%progbits
 746      0080
 747              		.align	2
 748              		.p2align 4,,15
 749              		.global	TIM_SelectOnePulseMode
 750              		.thumb
 751              		.thumb_func
 752              		.type	TIM_SelectOnePulseMode, %function
 753              	TIM_SelectOnePulseMode:
 754              	.LFB123:
 755              		.loc 1 550 0
 756              		.cfi_startproc
 757              		@ args = 0, pretend = 0, frame = 0
 758              		@ frame_needed = 0, uses_anonymous_args = 0
 759              		@ link register save eliminated.
 760              	.LVL69:
 761              		.loc 1 556 0
 762 0000 0388     		ldrh	r3, [r0]
 763 0002 23F00803 		bic	r3, r3, #8
 764 0006 1B04     		lsls	r3, r3, #16
 765 0008 1B0C     		lsrs	r3, r3, #16
 766 000a 0380     		strh	r3, [r0]	@ movhi
 767              		.loc 1 559 0
 768 000c 0388     		ldrh	r3, [r0]
 769 000e 9BB2     		uxth	r3, r3
 770 0010 1943     		orrs	r1, r1, r3
 771              	.LVL70:
 772 0012 0180     		strh	r1, [r0]	@ movhi
 773 0014 7047     		bx	lr
 774              		.cfi_endproc
 775              	.LFE123:
 776              		.size	TIM_SelectOnePulseMode, .-TIM_SelectOnePulseMode
 777 0016 00BFAFF3 		.section	.text.TIM_SetClockDivision,"ax",%progbits
 777      0080AFF3 
 777      0080
 778              		.align	2
 779              		.p2align 4,,15
 780              		.global	TIM_SetClockDivision
 781              		.thumb
ARM GAS  C:\Users\jsyoon\AppData\Local\Temp\ccDGobdh.s 			page 15


 782              		.thumb_func
 783              		.type	TIM_SetClockDivision, %function
 784              	TIM_SetClockDivision:
 785              	.LFB124:
 786              		.loc 1 573 0
 787              		.cfi_startproc
 788              		@ args = 0, pretend = 0, frame = 0
 789              		@ frame_needed = 0, uses_anonymous_args = 0
 790              		@ link register save eliminated.
 791              	.LVL71:
 792              		.loc 1 579 0
 793 0000 0388     		ldrh	r3, [r0]
 794 0002 23F44073 		bic	r3, r3, #768
 795 0006 1B04     		lsls	r3, r3, #16
 796 0008 1B0C     		lsrs	r3, r3, #16
 797 000a 0380     		strh	r3, [r0]	@ movhi
 798              		.loc 1 582 0
 799 000c 0388     		ldrh	r3, [r0]
 800 000e 9BB2     		uxth	r3, r3
 801 0010 1943     		orrs	r1, r1, r3
 802              	.LVL72:
 803 0012 0180     		strh	r1, [r0]	@ movhi
 804 0014 7047     		bx	lr
 805              		.cfi_endproc
 806              	.LFE124:
 807              		.size	TIM_SetClockDivision, .-TIM_SetClockDivision
 808 0016 00BFAFF3 		.section	.text.TIM_Cmd,"ax",%progbits
 808      0080AFF3 
 808      0080
 809              		.align	2
 810              		.p2align 4,,15
 811              		.global	TIM_Cmd
 812              		.thumb
 813              		.thumb_func
 814              		.type	TIM_Cmd, %function
 815              	TIM_Cmd:
 816              	.LFB125:
 817              		.loc 1 593 0
 818              		.cfi_startproc
 819              		@ args = 0, pretend = 0, frame = 0
 820              		@ frame_needed = 0, uses_anonymous_args = 0
 821              		@ link register save eliminated.
 822              	.LVL73:
 823              		.loc 1 601 0
 824 0000 0388     		ldrh	r3, [r0]
 825              		.loc 1 598 0
 826 0002 29B9     		cbnz	r1, .L71
 827              		.loc 1 606 0
 828 0004 23F00103 		bic	r3, r3, #1
 829 0008 1B04     		lsls	r3, r3, #16
 830 000a 1B0C     		lsrs	r3, r3, #16
 831 000c 0380     		strh	r3, [r0]	@ movhi
 832 000e 7047     		bx	lr
 833              	.L71:
 834              		.loc 1 601 0
 835 0010 9BB2     		uxth	r3, r3
 836 0012 43F00103 		orr	r3, r3, #1
ARM GAS  C:\Users\jsyoon\AppData\Local\Temp\ccDGobdh.s 			page 16


 837 0016 0380     		strh	r3, [r0]	@ movhi
 838 0018 7047     		bx	lr
 839              		.cfi_endproc
 840              	.LFE125:
 841              		.size	TIM_Cmd, .-TIM_Cmd
 842 001a 00BFAFF3 		.section	.text.TIM_OC1Init,"ax",%progbits
 842      0080
 843              		.align	2
 844              		.p2align 4,,15
 845              		.global	TIM_OC1Init
 846              		.thumb
 847              		.thumb_func
 848              		.type	TIM_OC1Init, %function
 849              	TIM_OC1Init:
 850              	.LFB126:
 851              		.loc 1 672 0
 852              		.cfi_startproc
 853              		@ args = 0, pretend = 0, frame = 0
 854              		@ frame_needed = 0, uses_anonymous_args = 0
 855              		@ link register save eliminated.
 856              	.LVL74:
 857 0000 F0B4     		push	{r4, r5, r6, r7}
 858              		.cfi_def_cfa_offset 16
 859              		.cfi_offset 4, -16
 860              		.cfi_offset 5, -12
 861              		.cfi_offset 6, -8
 862              		.cfi_offset 7, -4
 863              		.loc 1 682 0
 864 0002 048C     		ldrh	r4, [r0, #32]
 865              		.loc 1 701 0
 866 0004 B1F802C0 		ldrh	ip, [r1, #2]
 867 0008 8F89     		ldrh	r7, [r1, #12]
 868              		.loc 1 696 0
 869 000a 0E88     		ldrh	r6, [r1]
 870              		.loc 1 706 0
 871 000c 1B4D     		ldr	r5, .L75
 872              		.loc 1 682 0
 873 000e 24F00104 		bic	r4, r4, #1
 874 0012 2404     		lsls	r4, r4, #16
 875 0014 240C     		lsrs	r4, r4, #16
 876 0016 0484     		strh	r4, [r0, #32]	@ movhi
 877              		.loc 1 685 0
 878 0018 028C     		ldrh	r2, [r0, #32]
 879              	.LVL75:
 880              		.loc 1 687 0
 881 001a 8488     		ldrh	r4, [r0, #4]
 882              		.loc 1 690 0
 883 001c 038B     		ldrh	r3, [r0, #24]
 884              		.loc 1 699 0
 885 001e 22F00202 		bic	r2, r2, #2
 886              	.LVL76:
 887              		.loc 1 694 0
 888 0022 23F07303 		bic	r3, r3, #115
 889              		.loc 1 699 0
 890 0026 1204     		lsls	r2, r2, #16
 891              		.loc 1 701 0
 892 0028 4CEA0707 		orr	r7, ip, r7
ARM GAS  C:\Users\jsyoon\AppData\Local\Temp\ccDGobdh.s 			page 17


 893              		.loc 1 694 0
 894 002c 1B04     		lsls	r3, r3, #16
 895              		.loc 1 699 0
 896 002e 120C     		lsrs	r2, r2, #16
 897              		.loc 1 701 0
 898 0030 BFB2     		uxth	r7, r7
 899              		.loc 1 694 0
 900 0032 1B0C     		lsrs	r3, r3, #16
 901              		.loc 1 706 0
 902 0034 A842     		cmp	r0, r5
 903              		.loc 1 704 0
 904 0036 47EA0202 		orr	r2, r7, r2
 905              		.loc 1 687 0
 906 003a A4B2     		uxth	r4, r4
 907              	.LVL77:
 908              		.loc 1 696 0
 909 003c 43EA0603 		orr	r3, r3, r6
 910              	.LVL78:
 911              		.loc 1 706 0
 912 0040 0AD0     		beq	.L73
 913              		.loc 1 706 0 is_stmt 0 discriminator 1
 914 0042 05F58065 		add	r5, r5, #1024
 915 0046 A842     		cmp	r0, r5
 916 0048 06D0     		beq	.L73
 917              	.LVL79:
 918              	.L74:
 919              		.loc 1 737 0 is_stmt 1
 920 004a 8968     		ldr	r1, [r1, #8]
 921              	.LVL80:
 922              		.loc 1 731 0
 923 004c 8480     		strh	r4, [r0, #4]	@ movhi
 924              		.loc 1 734 0
 925 004e 0383     		strh	r3, [r0, #24]	@ movhi
 926              		.loc 1 741 0
 927 0050 F0BC     		pop	{r4, r5, r6, r7}
 928              	.LVL81:
 929              		.loc 1 737 0
 930 0052 4163     		str	r1, [r0, #52]
 931              		.loc 1 740 0
 932 0054 0284     		strh	r2, [r0, #32]	@ movhi
 933              		.loc 1 741 0
 934 0056 7047     		bx	lr
 935              	.LVL82:
 936              	.L73:
 937              		.loc 1 716 0
 938 0058 B1F80EC0 		ldrh	ip, [r1, #14]
 939              		.loc 1 726 0
 940 005c 4F8A     		ldrh	r7, [r1, #18]
 941 005e 0D8A     		ldrh	r5, [r1, #16]
 942              		.loc 1 721 0
 943 0060 8E88     		ldrh	r6, [r1, #4]
 944              		.loc 1 714 0
 945 0062 22F00802 		bic	r2, r2, #8
 946              	.LVL83:
 947              		.loc 1 716 0
 948 0066 42EA0C02 		orr	r2, r2, ip
 949              	.LVL84:
ARM GAS  C:\Users\jsyoon\AppData\Local\Temp\ccDGobdh.s 			page 18


 950              		.loc 1 726 0
 951 006a 3D43     		orrs	r5, r5, r7
 952              		.loc 1 724 0
 953 006c 24F44074 		bic	r4, r4, #768
 954              	.LVL85:
 955              		.loc 1 718 0
 956 0070 22F00402 		bic	r2, r2, #4
 957              	.LVL86:
 958              		.loc 1 726 0
 959 0074 ADB2     		uxth	r5, r5
 960              		.loc 1 721 0
 961 0076 3243     		orrs	r2, r2, r6
 962              	.LVL87:
 963              		.loc 1 728 0
 964 0078 2C43     		orrs	r4, r4, r5
 965              	.LVL88:
 966 007a E6E7     		b	.L74
 967              	.L76:
 968              		.align	2
 969              	.L75:
 970 007c 00000140 		.word	1073807360
 971              		.cfi_endproc
 972              	.LFE126:
 973              		.size	TIM_OC1Init, .-TIM_OC1Init
 974              		.section	.text.TIM_OC2Init,"ax",%progbits
 975              		.align	2
 976              		.p2align 4,,15
 977              		.global	TIM_OC2Init
 978              		.thumb
 979              		.thumb_func
 980              		.type	TIM_OC2Init, %function
 981              	TIM_OC2Init:
 982              	.LFB127:
 983              		.loc 1 753 0
 984              		.cfi_startproc
 985              		@ args = 0, pretend = 0, frame = 0
 986              		@ frame_needed = 0, uses_anonymous_args = 0
 987              		@ link register save eliminated.
 988              	.LVL89:
 989 0000 F0B4     		push	{r4, r5, r6, r7}
 990              		.cfi_def_cfa_offset 16
 991              		.cfi_offset 4, -16
 992              		.cfi_offset 5, -12
 993              		.cfi_offset 6, -8
 994              		.cfi_offset 7, -4
 995              		.loc 1 763 0
 996 0002 048C     		ldrh	r4, [r0, #32]
 997              		.loc 1 783 0
 998 0004 B1F80CC0 		ldrh	ip, [r1, #12]
 999              		.loc 1 786 0
 1000 0008 4F88     		ldrh	r7, [r1, #2]
 1001              		.loc 1 778 0
 1002 000a 0E88     		ldrh	r6, [r1]
 1003              		.loc 1 788 0
 1004 000c 1F4D     		ldr	r5, .L80
 1005              		.loc 1 763 0
 1006 000e 24F01004 		bic	r4, r4, #16
ARM GAS  C:\Users\jsyoon\AppData\Local\Temp\ccDGobdh.s 			page 19


 1007 0012 2404     		lsls	r4, r4, #16
 1008 0014 240C     		lsrs	r4, r4, #16
 1009 0016 0484     		strh	r4, [r0, #32]	@ movhi
 1010              		.loc 1 766 0
 1011 0018 028C     		ldrh	r2, [r0, #32]
 1012              	.LVL90:
 1013              		.loc 1 768 0
 1014 001a 8488     		ldrh	r4, [r0, #4]
 1015              		.loc 1 771 0
 1016 001c 038B     		ldrh	r3, [r0, #24]
 1017              		.loc 1 781 0
 1018 001e 22F02002 		bic	r2, r2, #32
 1019              	.LVL91:
 1020 0022 1204     		lsls	r2, r2, #16
 1021              		.loc 1 775 0
 1022 0024 23F4E643 		bic	r3, r3, #29440
 1023              		.loc 1 781 0
 1024 0028 120C     		lsrs	r2, r2, #16
 1025              		.loc 1 775 0
 1026 002a 1B04     		lsls	r3, r3, #16
 1027              		.loc 1 783 0
 1028 002c 42EA0C12 		orr	r2, r2, ip, lsl #4
 1029              		.loc 1 775 0
 1030 0030 1B0C     		lsrs	r3, r3, #16
 1031              		.loc 1 786 0
 1032 0032 42EA0712 		orr	r2, r2, r7, lsl #4
 1033              		.loc 1 778 0
 1034 0036 43EA0623 		orr	r3, r3, r6, lsl #8
 1035              		.loc 1 788 0
 1036 003a A842     		cmp	r0, r5
 1037              		.loc 1 786 0
 1038 003c 92B2     		uxth	r2, r2
 1039              		.loc 1 768 0
 1040 003e A4B2     		uxth	r4, r4
 1041              	.LVL92:
 1042              		.loc 1 778 0
 1043 0040 9BB2     		uxth	r3, r3
 1044              	.LVL93:
 1045              		.loc 1 788 0
 1046 0042 0AD0     		beq	.L78
 1047              		.loc 1 788 0 is_stmt 0 discriminator 1
 1048 0044 05F58065 		add	r5, r5, #1024
 1049 0048 A842     		cmp	r0, r5
 1050 004a 06D0     		beq	.L78
 1051              	.LVL94:
 1052              	.L79:
 1053              		.loc 1 819 0 is_stmt 1
 1054 004c 8968     		ldr	r1, [r1, #8]
 1055              	.LVL95:
 1056              		.loc 1 813 0
 1057 004e 8480     		strh	r4, [r0, #4]	@ movhi
 1058              		.loc 1 816 0
 1059 0050 0383     		strh	r3, [r0, #24]	@ movhi
 1060              		.loc 1 823 0
 1061 0052 F0BC     		pop	{r4, r5, r6, r7}
 1062              	.LVL96:
 1063              		.loc 1 819 0
ARM GAS  C:\Users\jsyoon\AppData\Local\Temp\ccDGobdh.s 			page 20


 1064 0054 8163     		str	r1, [r0, #56]
 1065              		.loc 1 822 0
 1066 0056 0284     		strh	r2, [r0, #32]	@ movhi
 1067              		.loc 1 823 0
 1068 0058 7047     		bx	lr
 1069              	.LVL97:
 1070              	.L78:
 1071              		.loc 1 798 0
 1072 005a CD89     		ldrh	r5, [r1, #14]
 1073              		.loc 1 808 0
 1074 005c B1F810C0 		ldrh	ip, [r1, #16]
 1075              		.loc 1 803 0
 1076 0060 8F88     		ldrh	r7, [r1, #4]
 1077              		.loc 1 810 0
 1078 0062 4E8A     		ldrh	r6, [r1, #18]
 1079              		.loc 1 796 0
 1080 0064 22F08002 		bic	r2, r2, #128
 1081              	.LVL98:
 1082 0068 92B2     		uxth	r2, r2
 1083              	.LVL99:
 1084              		.loc 1 798 0
 1085 006a 42EA0512 		orr	r2, r2, r5, lsl #4
 1086              	.LVL100:
 1087              		.loc 1 806 0
 1088 006e 24F44064 		bic	r4, r4, #3072
 1089              	.LVL101:
 1090              		.loc 1 800 0
 1091 0072 4FF6BF75 		movw	r5, #65471
 1092 0076 1540     		ands	r5, r5, r2
 1093              	.LVL102:
 1094              		.loc 1 808 0
 1095 0078 44EA8C04 		orr	r4, r4, ip, lsl #2
 1096              		.loc 1 803 0
 1097 007c 45EA0712 		orr	r2, r5, r7, lsl #4
 1098              		.loc 1 810 0
 1099 0080 44EA8604 		orr	r4, r4, r6, lsl #2
 1100              		.loc 1 803 0
 1101 0084 92B2     		uxth	r2, r2
 1102              	.LVL103:
 1103              		.loc 1 810 0
 1104 0086 A4B2     		uxth	r4, r4
 1105              	.LVL104:
 1106 0088 E0E7     		b	.L79
 1107              	.L81:
 1108 008a 00BF     		.align	2
 1109              	.L80:
 1110 008c 00000140 		.word	1073807360
 1111              		.cfi_endproc
 1112              	.LFE127:
 1113              		.size	TIM_OC2Init, .-TIM_OC2Init
 1114              		.section	.text.TIM_OC3Init,"ax",%progbits
 1115              		.align	2
 1116              		.p2align 4,,15
 1117              		.global	TIM_OC3Init
 1118              		.thumb
 1119              		.thumb_func
 1120              		.type	TIM_OC3Init, %function
ARM GAS  C:\Users\jsyoon\AppData\Local\Temp\ccDGobdh.s 			page 21


 1121              	TIM_OC3Init:
 1122              	.LFB128:
 1123              		.loc 1 834 0
 1124              		.cfi_startproc
 1125              		@ args = 0, pretend = 0, frame = 0
 1126              		@ frame_needed = 0, uses_anonymous_args = 0
 1127              		@ link register save eliminated.
 1128              	.LVL105:
 1129 0000 F0B4     		push	{r4, r5, r6, r7}
 1130              		.cfi_def_cfa_offset 16
 1131              		.cfi_offset 4, -16
 1132              		.cfi_offset 5, -12
 1133              		.cfi_offset 6, -8
 1134              		.cfi_offset 7, -4
 1135              		.loc 1 844 0
 1136 0002 048C     		ldrh	r4, [r0, #32]
 1137              		.loc 1 863 0
 1138 0004 B1F80CC0 		ldrh	ip, [r1, #12]
 1139              		.loc 1 866 0
 1140 0008 4F88     		ldrh	r7, [r1, #2]
 1141              		.loc 1 858 0
 1142 000a 0E88     		ldrh	r6, [r1]
 1143              		.loc 1 868 0
 1144 000c 1E4D     		ldr	r5, .L85
 1145              		.loc 1 844 0
 1146 000e 24F48074 		bic	r4, r4, #256
 1147 0012 2404     		lsls	r4, r4, #16
 1148 0014 240C     		lsrs	r4, r4, #16
 1149 0016 0484     		strh	r4, [r0, #32]	@ movhi
 1150              		.loc 1 847 0
 1151 0018 028C     		ldrh	r2, [r0, #32]
 1152              	.LVL106:
 1153              		.loc 1 849 0
 1154 001a 8488     		ldrh	r4, [r0, #4]
 1155              		.loc 1 852 0
 1156 001c 838B     		ldrh	r3, [r0, #28]
 1157              		.loc 1 861 0
 1158 001e 22F40072 		bic	r2, r2, #512
 1159              	.LVL107:
 1160 0022 1204     		lsls	r2, r2, #16
 1161 0024 120C     		lsrs	r2, r2, #16
 1162              		.loc 1 856 0
 1163 0026 23F07303 		bic	r3, r3, #115
 1164              		.loc 1 863 0
 1165 002a 42EA0C22 		orr	r2, r2, ip, lsl #8
 1166              		.loc 1 856 0
 1167 002e 1B04     		lsls	r3, r3, #16
 1168              		.loc 1 866 0
 1169 0030 42EA0722 		orr	r2, r2, r7, lsl #8
 1170              		.loc 1 856 0
 1171 0034 1B0C     		lsrs	r3, r3, #16
 1172              		.loc 1 868 0
 1173 0036 A842     		cmp	r0, r5
 1174              		.loc 1 866 0
 1175 0038 92B2     		uxth	r2, r2
 1176              		.loc 1 849 0
 1177 003a A4B2     		uxth	r4, r4
ARM GAS  C:\Users\jsyoon\AppData\Local\Temp\ccDGobdh.s 			page 22


 1178              	.LVL108:
 1179              		.loc 1 858 0
 1180 003c 43EA0603 		orr	r3, r3, r6
 1181              	.LVL109:
 1182              		.loc 1 868 0
 1183 0040 0AD0     		beq	.L83
 1184              		.loc 1 868 0 is_stmt 0 discriminator 1
 1185 0042 05F58065 		add	r5, r5, #1024
 1186 0046 A842     		cmp	r0, r5
 1187 0048 06D0     		beq	.L83
 1188              	.LVL110:
 1189              	.L84:
 1190              		.loc 1 899 0 is_stmt 1
 1191 004a 8968     		ldr	r1, [r1, #8]
 1192              	.LVL111:
 1193              		.loc 1 893 0
 1194 004c 8480     		strh	r4, [r0, #4]	@ movhi
 1195              		.loc 1 896 0
 1196 004e 8383     		strh	r3, [r0, #28]	@ movhi
 1197              		.loc 1 903 0
 1198 0050 F0BC     		pop	{r4, r5, r6, r7}
 1199              	.LVL112:
 1200              		.loc 1 899 0
 1201 0052 C163     		str	r1, [r0, #60]
 1202              		.loc 1 902 0
 1203 0054 0284     		strh	r2, [r0, #32]	@ movhi
 1204              		.loc 1 903 0
 1205 0056 7047     		bx	lr
 1206              	.LVL113:
 1207              	.L83:
 1208              		.loc 1 878 0
 1209 0058 CD89     		ldrh	r5, [r1, #14]
 1210              		.loc 1 888 0
 1211 005a B1F810C0 		ldrh	ip, [r1, #16]
 1212              		.loc 1 883 0
 1213 005e 8F88     		ldrh	r7, [r1, #4]
 1214              		.loc 1 890 0
 1215 0060 4E8A     		ldrh	r6, [r1, #18]
 1216              		.loc 1 876 0
 1217 0062 22F40062 		bic	r2, r2, #2048
 1218              	.LVL114:
 1219 0066 92B2     		uxth	r2, r2
 1220              	.LVL115:
 1221              		.loc 1 878 0
 1222 0068 42EA0522 		orr	r2, r2, r5, lsl #8
 1223              	.LVL116:
 1224              		.loc 1 886 0
 1225 006c 24F44054 		bic	r4, r4, #12288
 1226              	.LVL117:
 1227              		.loc 1 880 0
 1228 0070 4FF6FF35 		movw	r5, #64511
 1229 0074 1540     		ands	r5, r5, r2
 1230              	.LVL118:
 1231              		.loc 1 888 0
 1232 0076 44EA0C14 		orr	r4, r4, ip, lsl #4
 1233              		.loc 1 883 0
 1234 007a 45EA0722 		orr	r2, r5, r7, lsl #8
ARM GAS  C:\Users\jsyoon\AppData\Local\Temp\ccDGobdh.s 			page 23


 1235              		.loc 1 890 0
 1236 007e 44EA0614 		orr	r4, r4, r6, lsl #4
 1237              		.loc 1 883 0
 1238 0082 92B2     		uxth	r2, r2
 1239              	.LVL119:
 1240              		.loc 1 890 0
 1241 0084 A4B2     		uxth	r4, r4
 1242              	.LVL120:
 1243 0086 E0E7     		b	.L84
 1244              	.L86:
 1245              		.align	2
 1246              	.L85:
 1247 0088 00000140 		.word	1073807360
 1248              		.cfi_endproc
 1249              	.LFE128:
 1250              		.size	TIM_OC3Init, .-TIM_OC3Init
 1251 008c AFF30080 		.section	.text.TIM_OC4Init,"ax",%progbits
 1252              		.align	2
 1253              		.p2align 4,,15
 1254              		.global	TIM_OC4Init
 1255              		.thumb
 1256              		.thumb_func
 1257              		.type	TIM_OC4Init, %function
 1258              	TIM_OC4Init:
 1259              	.LFB129:
 1260              		.loc 1 914 0
 1261              		.cfi_startproc
 1262              		@ args = 0, pretend = 0, frame = 0
 1263              		@ frame_needed = 0, uses_anonymous_args = 0
 1264              		@ link register save eliminated.
 1265              	.LVL121:
 1266 0000 F0B4     		push	{r4, r5, r6, r7}
 1267              		.cfi_def_cfa_offset 16
 1268              		.cfi_offset 4, -16
 1269              		.cfi_offset 5, -12
 1270              		.cfi_offset 6, -8
 1271              		.cfi_offset 7, -4
 1272              		.loc 1 924 0
 1273 0002 048C     		ldrh	r4, [r0, #32]
 1274              		.loc 1 944 0
 1275 0004 B1F80CC0 		ldrh	ip, [r1, #12]
 1276              		.loc 1 947 0
 1277 0008 4F88     		ldrh	r7, [r1, #2]
 1278              		.loc 1 939 0
 1279 000a 0E88     		ldrh	r6, [r1]
 1280              		.loc 1 949 0
 1281 000c 164D     		ldr	r5, .L90
 1282              		.loc 1 924 0
 1283 000e 24F48054 		bic	r4, r4, #4096
 1284 0012 2404     		lsls	r4, r4, #16
 1285 0014 240C     		lsrs	r4, r4, #16
 1286 0016 0484     		strh	r4, [r0, #32]	@ movhi
 1287              		.loc 1 927 0
 1288 0018 028C     		ldrh	r2, [r0, #32]
 1289              	.LVL122:
 1290              		.loc 1 929 0
 1291 001a 8488     		ldrh	r4, [r0, #4]
ARM GAS  C:\Users\jsyoon\AppData\Local\Temp\ccDGobdh.s 			page 24


 1292              		.loc 1 932 0
 1293 001c 838B     		ldrh	r3, [r0, #28]
 1294              		.loc 1 942 0
 1295 001e 22F40052 		bic	r2, r2, #8192
 1296              	.LVL123:
 1297 0022 1204     		lsls	r2, r2, #16
 1298              		.loc 1 936 0
 1299 0024 23F4E643 		bic	r3, r3, #29440
 1300              		.loc 1 942 0
 1301 0028 120C     		lsrs	r2, r2, #16
 1302              		.loc 1 936 0
 1303 002a 1B04     		lsls	r3, r3, #16
 1304              		.loc 1 944 0
 1305 002c 42EA0C32 		orr	r2, r2, ip, lsl #12
 1306              		.loc 1 936 0
 1307 0030 1B0C     		lsrs	r3, r3, #16
 1308              		.loc 1 947 0
 1309 0032 42EA0732 		orr	r2, r2, r7, lsl #12
 1310              		.loc 1 939 0
 1311 0036 43EA0623 		orr	r3, r3, r6, lsl #8
 1312              		.loc 1 949 0
 1313 003a A842     		cmp	r0, r5
 1314              		.loc 1 947 0
 1315 003c 92B2     		uxth	r2, r2
 1316              		.loc 1 929 0
 1317 003e A4B2     		uxth	r4, r4
 1318              	.LVL124:
 1319              		.loc 1 939 0
 1320 0040 9BB2     		uxth	r3, r3
 1321              	.LVL125:
 1322              		.loc 1 949 0
 1323 0042 0AD0     		beq	.L88
 1324              		.loc 1 949 0 is_stmt 0 discriminator 1
 1325 0044 05F58065 		add	r5, r5, #1024
 1326 0048 A842     		cmp	r0, r5
 1327 004a 06D0     		beq	.L88
 1328              	.LVL126:
 1329              	.L89:
 1330              		.loc 1 964 0 is_stmt 1
 1331 004c 8968     		ldr	r1, [r1, #8]
 1332              	.LVL127:
 1333              		.loc 1 958 0
 1334 004e 8480     		strh	r4, [r0, #4]	@ movhi
 1335              		.loc 1 961 0
 1336 0050 8383     		strh	r3, [r0, #28]	@ movhi
 1337              		.loc 1 968 0
 1338 0052 F0BC     		pop	{r4, r5, r6, r7}
 1339              	.LVL128:
 1340              		.loc 1 964 0
 1341 0054 0164     		str	r1, [r0, #64]
 1342              		.loc 1 967 0
 1343 0056 0284     		strh	r2, [r0, #32]	@ movhi
 1344              		.loc 1 968 0
 1345 0058 7047     		bx	lr
 1346              	.LVL129:
 1347              	.L88:
 1348              		.loc 1 955 0
ARM GAS  C:\Users\jsyoon\AppData\Local\Temp\ccDGobdh.s 			page 25


 1349 005a 0D8A     		ldrh	r5, [r1, #16]
 1350              		.loc 1 953 0
 1351 005c 24F48044 		bic	r4, r4, #16384
 1352              	.LVL130:
 1353              		.loc 1 955 0
 1354 0060 44EA8514 		orr	r4, r4, r5, lsl #6
 1355              	.LVL131:
 1356 0064 A4B2     		uxth	r4, r4
 1357              	.LVL132:
 1358 0066 F1E7     		b	.L89
 1359              	.L91:
 1360              		.align	2
 1361              	.L90:
 1362 0068 00000140 		.word	1073807360
 1363              		.cfi_endproc
 1364              	.LFE129:
 1365              		.size	TIM_OC4Init, .-TIM_OC4Init
 1366 006c AFF30080 		.section	.text.TIM_OCStructInit,"ax",%progbits
 1367              		.align	2
 1368              		.p2align 4,,15
 1369              		.global	TIM_OCStructInit
 1370              		.thumb
 1371              		.thumb_func
 1372              		.type	TIM_OCStructInit, %function
 1373              	TIM_OCStructInit:
 1374              	.LFB130:
 1375              		.loc 1 977 0
 1376              		.cfi_startproc
 1377              		@ args = 0, pretend = 0, frame = 0
 1378              		@ frame_needed = 0, uses_anonymous_args = 0
 1379              		@ link register save eliminated.
 1380              	.LVL133:
 1381              		.loc 1 979 0
 1382 0000 0023     		movs	r3, #0
 1383 0002 0380     		strh	r3, [r0]	@ movhi
 1384              		.loc 1 980 0
 1385 0004 4380     		strh	r3, [r0, #2]	@ movhi
 1386              		.loc 1 981 0
 1387 0006 8380     		strh	r3, [r0, #4]	@ movhi
 1388              		.loc 1 982 0
 1389 0008 8360     		str	r3, [r0, #8]
 1390              		.loc 1 983 0
 1391 000a 8381     		strh	r3, [r0, #12]	@ movhi
 1392              		.loc 1 984 0
 1393 000c C381     		strh	r3, [r0, #14]	@ movhi
 1394              		.loc 1 985 0
 1395 000e 0382     		strh	r3, [r0, #16]	@ movhi
 1396              		.loc 1 986 0
 1397 0010 4382     		strh	r3, [r0, #18]	@ movhi
 1398 0012 7047     		bx	lr
 1399              		.cfi_endproc
 1400              	.LFE130:
 1401              		.size	TIM_OCStructInit, .-TIM_OCStructInit
 1402 0014 AFF30080 		.section	.text.TIM_SelectOCxM,"ax",%progbits
 1402      AFF30080 
 1402      AFF30080 
 1403              		.align	2
ARM GAS  C:\Users\jsyoon\AppData\Local\Temp\ccDGobdh.s 			page 26


 1404              		.p2align 4,,15
 1405              		.global	TIM_SelectOCxM
 1406              		.thumb
 1407              		.thumb_func
 1408              		.type	TIM_SelectOCxM, %function
 1409              	TIM_SelectOCxM:
 1410              	.LFB131:
 1411              		.loc 1 1013 0
 1412              		.cfi_startproc
 1413              		@ args = 0, pretend = 0, frame = 0
 1414              		@ frame_needed = 0, uses_anonymous_args = 0
 1415              		@ link register save eliminated.
 1416              	.LVL134:
 1417              		.loc 1 1028 0
 1418 0000 038C     		ldrh	r3, [r0, #32]
 1419              		.loc 1 1013 0
 1420 0002 10B4     		push	{r4}
 1421              		.cfi_def_cfa_offset 4
 1422              		.cfi_offset 4, -4
 1423              		.loc 1 1025 0
 1424 0004 0124     		movs	r4, #1
 1425              		.loc 1 1028 0
 1426 0006 9BB2     		uxth	r3, r3
 1427              		.loc 1 1025 0
 1428 0008 8C40     		lsls	r4, r4, r1
 1429              		.loc 1 1028 0
 1430 000a 23EA0404 		bic	r4, r3, r4
 1431              		.loc 1 1030 0
 1432 000e 21F00803 		bic	r3, r1, #8
 1433              		.loc 1 1028 0
 1434 0012 0484     		strh	r4, [r0, #32]	@ movhi
 1435              		.loc 1 1023 0
 1436 0014 1830     		adds	r0, r0, #24
 1437              	.LVL135:
 1438              		.loc 1 1030 0
 1439 0016 7BB1     		cbz	r3, .L96
 1440              	.LVL136:
 1441              		.loc 1 1042 0
 1442 0018 0439     		subs	r1, r1, #4
 1443              	.LVL137:
 1444 001a C1F34E01 		ubfx	r1, r1, #1, #15
 1445              	.LVL138:
 1446              		.loc 1 1045 0
 1447 001e 48F6FF73 		movw	r3, #36863
 1448 0022 0C58     		ldr	r4, [r1, r0]
 1449 0024 2340     		ands	r3, r3, r4
 1450 0026 0B50     		str	r3, [r1, r0]
 1451              		.loc 1 1048 0
 1452 0028 1202     		lsls	r2, r2, #8
 1453              	.LVL139:
 1454 002a 0B58     		ldr	r3, [r1, r0]
 1455              		.loc 1 1050 0
 1456 002c 5DF8044B 		ldr	r4, [sp], #4
 1457              		.loc 1 1048 0
 1458 0030 92B2     		uxth	r2, r2
 1459 0032 1A43     		orrs	r2, r2, r3
 1460 0034 0A50     		str	r2, [r1, r0]
ARM GAS  C:\Users\jsyoon\AppData\Local\Temp\ccDGobdh.s 			page 27


 1461              		.loc 1 1050 0
 1462 0036 7047     		bx	lr
 1463              	.LVL140:
 1464              	.L96:
 1465              		.loc 1 1032 0
 1466 0038 4908     		lsrs	r1, r1, #1
 1467              	.LVL141:
 1468              		.loc 1 1035 0
 1469 003a 4FF68F73 		movw	r3, #65423
 1470 003e 4458     		ldr	r4, [r0, r1]
 1471 0040 2340     		ands	r3, r3, r4
 1472 0042 4350     		str	r3, [r0, r1]
 1473              		.loc 1 1038 0
 1474 0044 4358     		ldr	r3, [r0, r1]
 1475              		.loc 1 1050 0
 1476 0046 5DF8044B 		ldr	r4, [sp], #4
 1477              		.loc 1 1038 0
 1478 004a 1A43     		orrs	r2, r2, r3
 1479              	.LVL142:
 1480 004c 4250     		str	r2, [r0, r1]
 1481              		.loc 1 1050 0
 1482 004e 7047     		bx	lr
 1483              		.cfi_endproc
 1484              	.LFE131:
 1485              		.size	TIM_SelectOCxM, .-TIM_SelectOCxM
 1486              		.section	.text.TIM_SetCompare1,"ax",%progbits
 1487              		.align	2
 1488              		.p2align 4,,15
 1489              		.global	TIM_SetCompare1
 1490              		.thumb
 1491              		.thumb_func
 1492              		.type	TIM_SetCompare1, %function
 1493              	TIM_SetCompare1:
 1494              	.LFB132:
 1495              		.loc 1 1059 0
 1496              		.cfi_startproc
 1497              		@ args = 0, pretend = 0, frame = 0
 1498              		@ frame_needed = 0, uses_anonymous_args = 0
 1499              		@ link register save eliminated.
 1500              	.LVL143:
 1501              		.loc 1 1064 0
 1502 0000 4163     		str	r1, [r0, #52]
 1503 0002 7047     		bx	lr
 1504              		.cfi_endproc
 1505              	.LFE132:
 1506              		.size	TIM_SetCompare1, .-TIM_SetCompare1
 1507 0004 AFF30080 		.section	.text.TIM_SetCompare2,"ax",%progbits
 1507      AFF30080 
 1507      AFF30080 
 1508              		.align	2
 1509              		.p2align 4,,15
 1510              		.global	TIM_SetCompare2
 1511              		.thumb
 1512              		.thumb_func
 1513              		.type	TIM_SetCompare2, %function
 1514              	TIM_SetCompare2:
 1515              	.LFB133:
ARM GAS  C:\Users\jsyoon\AppData\Local\Temp\ccDGobdh.s 			page 28


 1516              		.loc 1 1075 0
 1517              		.cfi_startproc
 1518              		@ args = 0, pretend = 0, frame = 0
 1519              		@ frame_needed = 0, uses_anonymous_args = 0
 1520              		@ link register save eliminated.
 1521              	.LVL144:
 1522              		.loc 1 1080 0
 1523 0000 8163     		str	r1, [r0, #56]
 1524 0002 7047     		bx	lr
 1525              		.cfi_endproc
 1526              	.LFE133:
 1527              		.size	TIM_SetCompare2, .-TIM_SetCompare2
 1528 0004 AFF30080 		.section	.text.TIM_SetCompare3,"ax",%progbits
 1528      AFF30080 
 1528      AFF30080 
 1529              		.align	2
 1530              		.p2align 4,,15
 1531              		.global	TIM_SetCompare3
 1532              		.thumb
 1533              		.thumb_func
 1534              		.type	TIM_SetCompare3, %function
 1535              	TIM_SetCompare3:
 1536              	.LFB134:
 1537              		.loc 1 1090 0
 1538              		.cfi_startproc
 1539              		@ args = 0, pretend = 0, frame = 0
 1540              		@ frame_needed = 0, uses_anonymous_args = 0
 1541              		@ link register save eliminated.
 1542              	.LVL145:
 1543              		.loc 1 1095 0
 1544 0000 C163     		str	r1, [r0, #60]
 1545 0002 7047     		bx	lr
 1546              		.cfi_endproc
 1547              	.LFE134:
 1548              		.size	TIM_SetCompare3, .-TIM_SetCompare3
 1549 0004 AFF30080 		.section	.text.TIM_SetCompare4,"ax",%progbits
 1549      AFF30080 
 1549      AFF30080 
 1550              		.align	2
 1551              		.p2align 4,,15
 1552              		.global	TIM_SetCompare4
 1553              		.thumb
 1554              		.thumb_func
 1555              		.type	TIM_SetCompare4, %function
 1556              	TIM_SetCompare4:
 1557              	.LFB135:
 1558              		.loc 1 1105 0
 1559              		.cfi_startproc
 1560              		@ args = 0, pretend = 0, frame = 0
 1561              		@ frame_needed = 0, uses_anonymous_args = 0
 1562              		@ link register save eliminated.
 1563              	.LVL146:
 1564              		.loc 1 1110 0
 1565 0000 0164     		str	r1, [r0, #64]
 1566 0002 7047     		bx	lr
 1567              		.cfi_endproc
 1568              	.LFE135:
ARM GAS  C:\Users\jsyoon\AppData\Local\Temp\ccDGobdh.s 			page 29


 1569              		.size	TIM_SetCompare4, .-TIM_SetCompare4
 1570 0004 AFF30080 		.section	.text.TIM_ForcedOC1Config,"ax",%progbits
 1570      AFF30080 
 1570      AFF30080 
 1571              		.align	2
 1572              		.p2align 4,,15
 1573              		.global	TIM_ForcedOC1Config
 1574              		.thumb
 1575              		.thumb_func
 1576              		.type	TIM_ForcedOC1Config, %function
 1577              	TIM_ForcedOC1Config:
 1578              	.LFB136:
 1579              		.loc 1 1123 0
 1580              		.cfi_startproc
 1581              		@ args = 0, pretend = 0, frame = 0
 1582              		@ frame_needed = 0, uses_anonymous_args = 0
 1583              		@ link register save eliminated.
 1584              	.LVL147:
 1585              		.loc 1 1129 0
 1586 0000 038B     		ldrh	r3, [r0, #24]
 1587              	.LVL148:
 1588              		.loc 1 1132 0
 1589 0002 23F07003 		bic	r3, r3, #112
 1590              	.LVL149:
 1591 0006 1B04     		lsls	r3, r3, #16
 1592 0008 1B0C     		lsrs	r3, r3, #16
 1593              	.LVL150:
 1594              		.loc 1 1135 0
 1595 000a 1943     		orrs	r1, r1, r3
 1596              	.LVL151:
 1597              		.loc 1 1138 0
 1598 000c 0183     		strh	r1, [r0, #24]	@ movhi
 1599 000e 7047     		bx	lr
 1600              		.cfi_endproc
 1601              	.LFE136:
 1602              		.size	TIM_ForcedOC1Config, .-TIM_ForcedOC1Config
 1603              		.section	.text.TIM_ForcedOC2Config,"ax",%progbits
 1604              		.align	2
 1605              		.p2align 4,,15
 1606              		.global	TIM_ForcedOC2Config
 1607              		.thumb
 1608              		.thumb_func
 1609              		.type	TIM_ForcedOC2Config, %function
 1610              	TIM_ForcedOC2Config:
 1611              	.LFB137:
 1612              		.loc 1 1152 0
 1613              		.cfi_startproc
 1614              		@ args = 0, pretend = 0, frame = 0
 1615              		@ frame_needed = 0, uses_anonymous_args = 0
 1616              		@ link register save eliminated.
 1617              	.LVL152:
 1618              		.loc 1 1158 0
 1619 0000 038B     		ldrh	r3, [r0, #24]
 1620              	.LVL153:
 1621              		.loc 1 1161 0
 1622 0002 23F4E043 		bic	r3, r3, #28672
 1623              	.LVL154:
ARM GAS  C:\Users\jsyoon\AppData\Local\Temp\ccDGobdh.s 			page 30


 1624 0006 1B04     		lsls	r3, r3, #16
 1625 0008 1B0C     		lsrs	r3, r3, #16
 1626              	.LVL155:
 1627              		.loc 1 1164 0
 1628 000a 43EA0121 		orr	r1, r3, r1, lsl #8
 1629              	.LVL156:
 1630 000e 8BB2     		uxth	r3, r1
 1631              	.LVL157:
 1632              		.loc 1 1167 0
 1633 0010 0383     		strh	r3, [r0, #24]	@ movhi
 1634 0012 7047     		bx	lr
 1635              		.cfi_endproc
 1636              	.LFE137:
 1637              		.size	TIM_ForcedOC2Config, .-TIM_ForcedOC2Config
 1638 0014 AFF30080 		.section	.text.TIM_ForcedOC3Config,"ax",%progbits
 1638      AFF30080 
 1638      AFF30080 
 1639              		.align	2
 1640              		.p2align 4,,15
 1641              		.global	TIM_ForcedOC3Config
 1642              		.thumb
 1643              		.thumb_func
 1644              		.type	TIM_ForcedOC3Config, %function
 1645              	TIM_ForcedOC3Config:
 1646              	.LFB138:
 1647              		.loc 1 1180 0
 1648              		.cfi_startproc
 1649              		@ args = 0, pretend = 0, frame = 0
 1650              		@ frame_needed = 0, uses_anonymous_args = 0
 1651              		@ link register save eliminated.
 1652              	.LVL158:
 1653              		.loc 1 1187 0
 1654 0000 838B     		ldrh	r3, [r0, #28]
 1655              	.LVL159:
 1656              		.loc 1 1190 0
 1657 0002 23F07003 		bic	r3, r3, #112
 1658              	.LVL160:
 1659 0006 1B04     		lsls	r3, r3, #16
 1660 0008 1B0C     		lsrs	r3, r3, #16
 1661              	.LVL161:
 1662              		.loc 1 1193 0
 1663 000a 1943     		orrs	r1, r1, r3
 1664              	.LVL162:
 1665              		.loc 1 1196 0
 1666 000c 8183     		strh	r1, [r0, #28]	@ movhi
 1667 000e 7047     		bx	lr
 1668              		.cfi_endproc
 1669              	.LFE138:
 1670              		.size	TIM_ForcedOC3Config, .-TIM_ForcedOC3Config
 1671              		.section	.text.TIM_ForcedOC4Config,"ax",%progbits
 1672              		.align	2
 1673              		.p2align 4,,15
 1674              		.global	TIM_ForcedOC4Config
 1675              		.thumb
 1676              		.thumb_func
 1677              		.type	TIM_ForcedOC4Config, %function
 1678              	TIM_ForcedOC4Config:
ARM GAS  C:\Users\jsyoon\AppData\Local\Temp\ccDGobdh.s 			page 31


 1679              	.LFB139:
 1680              		.loc 1 1209 0
 1681              		.cfi_startproc
 1682              		@ args = 0, pretend = 0, frame = 0
 1683              		@ frame_needed = 0, uses_anonymous_args = 0
 1684              		@ link register save eliminated.
 1685              	.LVL163:
 1686              		.loc 1 1215 0
 1687 0000 838B     		ldrh	r3, [r0, #28]
 1688              	.LVL164:
 1689              		.loc 1 1218 0
 1690 0002 23F4E043 		bic	r3, r3, #28672
 1691              	.LVL165:
 1692 0006 1B04     		lsls	r3, r3, #16
 1693 0008 1B0C     		lsrs	r3, r3, #16
 1694              	.LVL166:
 1695              		.loc 1 1221 0
 1696 000a 43EA0121 		orr	r1, r3, r1, lsl #8
 1697              	.LVL167:
 1698 000e 8BB2     		uxth	r3, r1
 1699              	.LVL168:
 1700              		.loc 1 1224 0
 1701 0010 8383     		strh	r3, [r0, #28]	@ movhi
 1702 0012 7047     		bx	lr
 1703              		.cfi_endproc
 1704              	.LFE139:
 1705              		.size	TIM_ForcedOC4Config, .-TIM_ForcedOC4Config
 1706 0014 AFF30080 		.section	.text.TIM_OC1PreloadConfig,"ax",%progbits
 1706      AFF30080 
 1706      AFF30080 
 1707              		.align	2
 1708              		.p2align 4,,15
 1709              		.global	TIM_OC1PreloadConfig
 1710              		.thumb
 1711              		.thumb_func
 1712              		.type	TIM_OC1PreloadConfig, %function
 1713              	TIM_OC1PreloadConfig:
 1714              	.LFB140:
 1715              		.loc 1 1237 0
 1716              		.cfi_startproc
 1717              		@ args = 0, pretend = 0, frame = 0
 1718              		@ frame_needed = 0, uses_anonymous_args = 0
 1719              		@ link register save eliminated.
 1720              	.LVL169:
 1721              		.loc 1 1244 0
 1722 0000 038B     		ldrh	r3, [r0, #24]
 1723              	.LVL170:
 1724              		.loc 1 1247 0
 1725 0002 23F00803 		bic	r3, r3, #8
 1726              	.LVL171:
 1727 0006 1B04     		lsls	r3, r3, #16
 1728 0008 1B0C     		lsrs	r3, r3, #16
 1729              	.LVL172:
 1730              		.loc 1 1250 0
 1731 000a 1943     		orrs	r1, r1, r3
 1732              	.LVL173:
 1733              		.loc 1 1253 0
ARM GAS  C:\Users\jsyoon\AppData\Local\Temp\ccDGobdh.s 			page 32


 1734 000c 0183     		strh	r1, [r0, #24]	@ movhi
 1735 000e 7047     		bx	lr
 1736              		.cfi_endproc
 1737              	.LFE140:
 1738              		.size	TIM_OC1PreloadConfig, .-TIM_OC1PreloadConfig
 1739              		.section	.text.TIM_OC2PreloadConfig,"ax",%progbits
 1740              		.align	2
 1741              		.p2align 4,,15
 1742              		.global	TIM_OC2PreloadConfig
 1743              		.thumb
 1744              		.thumb_func
 1745              		.type	TIM_OC2PreloadConfig, %function
 1746              	TIM_OC2PreloadConfig:
 1747              	.LFB141:
 1748              		.loc 1 1267 0
 1749              		.cfi_startproc
 1750              		@ args = 0, pretend = 0, frame = 0
 1751              		@ frame_needed = 0, uses_anonymous_args = 0
 1752              		@ link register save eliminated.
 1753              	.LVL174:
 1754              		.loc 1 1274 0
 1755 0000 038B     		ldrh	r3, [r0, #24]
 1756              	.LVL175:
 1757              		.loc 1 1277 0
 1758 0002 23F40063 		bic	r3, r3, #2048
 1759              	.LVL176:
 1760 0006 1B04     		lsls	r3, r3, #16
 1761 0008 1B0C     		lsrs	r3, r3, #16
 1762              	.LVL177:
 1763              		.loc 1 1280 0
 1764 000a 43EA0121 		orr	r1, r3, r1, lsl #8
 1765              	.LVL178:
 1766 000e 8BB2     		uxth	r3, r1
 1767              	.LVL179:
 1768              		.loc 1 1283 0
 1769 0010 0383     		strh	r3, [r0, #24]	@ movhi
 1770 0012 7047     		bx	lr
 1771              		.cfi_endproc
 1772              	.LFE141:
 1773              		.size	TIM_OC2PreloadConfig, .-TIM_OC2PreloadConfig
 1774 0014 AFF30080 		.section	.text.TIM_OC3PreloadConfig,"ax",%progbits
 1774      AFF30080 
 1774      AFF30080 
 1775              		.align	2
 1776              		.p2align 4,,15
 1777              		.global	TIM_OC3PreloadConfig
 1778              		.thumb
 1779              		.thumb_func
 1780              		.type	TIM_OC3PreloadConfig, %function
 1781              	TIM_OC3PreloadConfig:
 1782              	.LFB142:
 1783              		.loc 1 1296 0
 1784              		.cfi_startproc
 1785              		@ args = 0, pretend = 0, frame = 0
 1786              		@ frame_needed = 0, uses_anonymous_args = 0
 1787              		@ link register save eliminated.
 1788              	.LVL180:
ARM GAS  C:\Users\jsyoon\AppData\Local\Temp\ccDGobdh.s 			page 33


 1789              		.loc 1 1303 0
 1790 0000 838B     		ldrh	r3, [r0, #28]
 1791              	.LVL181:
 1792              		.loc 1 1306 0
 1793 0002 23F00803 		bic	r3, r3, #8
 1794              	.LVL182:
 1795 0006 1B04     		lsls	r3, r3, #16
 1796 0008 1B0C     		lsrs	r3, r3, #16
 1797              	.LVL183:
 1798              		.loc 1 1309 0
 1799 000a 1943     		orrs	r1, r1, r3
 1800              	.LVL184:
 1801              		.loc 1 1312 0
 1802 000c 8183     		strh	r1, [r0, #28]	@ movhi
 1803 000e 7047     		bx	lr
 1804              		.cfi_endproc
 1805              	.LFE142:
 1806              		.size	TIM_OC3PreloadConfig, .-TIM_OC3PreloadConfig
 1807              		.section	.text.TIM_OC4PreloadConfig,"ax",%progbits
 1808              		.align	2
 1809              		.p2align 4,,15
 1810              		.global	TIM_OC4PreloadConfig
 1811              		.thumb
 1812              		.thumb_func
 1813              		.type	TIM_OC4PreloadConfig, %function
 1814              	TIM_OC4PreloadConfig:
 1815              	.LFB143:
 1816              		.loc 1 1325 0
 1817              		.cfi_startproc
 1818              		@ args = 0, pretend = 0, frame = 0
 1819              		@ frame_needed = 0, uses_anonymous_args = 0
 1820              		@ link register save eliminated.
 1821              	.LVL185:
 1822              		.loc 1 1332 0
 1823 0000 838B     		ldrh	r3, [r0, #28]
 1824              	.LVL186:
 1825              		.loc 1 1335 0
 1826 0002 23F40063 		bic	r3, r3, #2048
 1827              	.LVL187:
 1828 0006 1B04     		lsls	r3, r3, #16
 1829 0008 1B0C     		lsrs	r3, r3, #16
 1830              	.LVL188:
 1831              		.loc 1 1338 0
 1832 000a 43EA0121 		orr	r1, r3, r1, lsl #8
 1833              	.LVL189:
 1834 000e 8BB2     		uxth	r3, r1
 1835              	.LVL190:
 1836              		.loc 1 1341 0
 1837 0010 8383     		strh	r3, [r0, #28]	@ movhi
 1838 0012 7047     		bx	lr
 1839              		.cfi_endproc
 1840              	.LFE143:
 1841              		.size	TIM_OC4PreloadConfig, .-TIM_OC4PreloadConfig
 1842 0014 AFF30080 		.section	.text.TIM_OC1FastConfig,"ax",%progbits
 1842      AFF30080 
 1842      AFF30080 
 1843              		.align	2
ARM GAS  C:\Users\jsyoon\AppData\Local\Temp\ccDGobdh.s 			page 34


 1844              		.p2align 4,,15
 1845              		.global	TIM_OC1FastConfig
 1846              		.thumb
 1847              		.thumb_func
 1848              		.type	TIM_OC1FastConfig, %function
 1849              	TIM_OC1FastConfig:
 1850              	.LFB144:
 1851              		.loc 1 1354 0
 1852              		.cfi_startproc
 1853              		@ args = 0, pretend = 0, frame = 0
 1854              		@ frame_needed = 0, uses_anonymous_args = 0
 1855              		@ link register save eliminated.
 1856              	.LVL191:
 1857              		.loc 1 1362 0
 1858 0000 038B     		ldrh	r3, [r0, #24]
 1859              	.LVL192:
 1860              		.loc 1 1365 0
 1861 0002 23F00403 		bic	r3, r3, #4
 1862              	.LVL193:
 1863 0006 1B04     		lsls	r3, r3, #16
 1864 0008 1B0C     		lsrs	r3, r3, #16
 1865              	.LVL194:
 1866              		.loc 1 1368 0
 1867 000a 1943     		orrs	r1, r1, r3
 1868              	.LVL195:
 1869              		.loc 1 1371 0
 1870 000c 0183     		strh	r1, [r0, #24]	@ movhi
 1871 000e 7047     		bx	lr
 1872              		.cfi_endproc
 1873              	.LFE144:
 1874              		.size	TIM_OC1FastConfig, .-TIM_OC1FastConfig
 1875              		.section	.text.TIM_OC2FastConfig,"ax",%progbits
 1876              		.align	2
 1877              		.p2align 4,,15
 1878              		.global	TIM_OC2FastConfig
 1879              		.thumb
 1880              		.thumb_func
 1881              		.type	TIM_OC2FastConfig, %function
 1882              	TIM_OC2FastConfig:
 1883              	.LFB145:
 1884              		.loc 1 1385 0
 1885              		.cfi_startproc
 1886              		@ args = 0, pretend = 0, frame = 0
 1887              		@ frame_needed = 0, uses_anonymous_args = 0
 1888              		@ link register save eliminated.
 1889              	.LVL196:
 1890              		.loc 1 1393 0
 1891 0000 038B     		ldrh	r3, [r0, #24]
 1892              	.LVL197:
 1893              		.loc 1 1396 0
 1894 0002 23F48063 		bic	r3, r3, #1024
 1895              	.LVL198:
 1896 0006 1B04     		lsls	r3, r3, #16
 1897 0008 1B0C     		lsrs	r3, r3, #16
 1898              	.LVL199:
 1899              		.loc 1 1399 0
 1900 000a 43EA0121 		orr	r1, r3, r1, lsl #8
ARM GAS  C:\Users\jsyoon\AppData\Local\Temp\ccDGobdh.s 			page 35


 1901              	.LVL200:
 1902 000e 8BB2     		uxth	r3, r1
 1903              	.LVL201:
 1904              		.loc 1 1402 0
 1905 0010 0383     		strh	r3, [r0, #24]	@ movhi
 1906 0012 7047     		bx	lr
 1907              		.cfi_endproc
 1908              	.LFE145:
 1909              		.size	TIM_OC2FastConfig, .-TIM_OC2FastConfig
 1910 0014 AFF30080 		.section	.text.TIM_OC3FastConfig,"ax",%progbits
 1910      AFF30080 
 1910      AFF30080 
 1911              		.align	2
 1912              		.p2align 4,,15
 1913              		.global	TIM_OC3FastConfig
 1914              		.thumb
 1915              		.thumb_func
 1916              		.type	TIM_OC3FastConfig, %function
 1917              	TIM_OC3FastConfig:
 1918              	.LFB146:
 1919              		.loc 1 1415 0
 1920              		.cfi_startproc
 1921              		@ args = 0, pretend = 0, frame = 0
 1922              		@ frame_needed = 0, uses_anonymous_args = 0
 1923              		@ link register save eliminated.
 1924              	.LVL202:
 1925              		.loc 1 1423 0
 1926 0000 838B     		ldrh	r3, [r0, #28]
 1927              	.LVL203:
 1928              		.loc 1 1426 0
 1929 0002 23F00403 		bic	r3, r3, #4
 1930              	.LVL204:
 1931 0006 1B04     		lsls	r3, r3, #16
 1932 0008 1B0C     		lsrs	r3, r3, #16
 1933              	.LVL205:
 1934              		.loc 1 1429 0
 1935 000a 1943     		orrs	r1, r1, r3
 1936              	.LVL206:
 1937              		.loc 1 1432 0
 1938 000c 8183     		strh	r1, [r0, #28]	@ movhi
 1939 000e 7047     		bx	lr
 1940              		.cfi_endproc
 1941              	.LFE146:
 1942              		.size	TIM_OC3FastConfig, .-TIM_OC3FastConfig
 1943              		.section	.text.TIM_OC4FastConfig,"ax",%progbits
 1944              		.align	2
 1945              		.p2align 4,,15
 1946              		.global	TIM_OC4FastConfig
 1947              		.thumb
 1948              		.thumb_func
 1949              		.type	TIM_OC4FastConfig, %function
 1950              	TIM_OC4FastConfig:
 1951              	.LFB147:
 1952              		.loc 1 1445 0
 1953              		.cfi_startproc
 1954              		@ args = 0, pretend = 0, frame = 0
 1955              		@ frame_needed = 0, uses_anonymous_args = 0
ARM GAS  C:\Users\jsyoon\AppData\Local\Temp\ccDGobdh.s 			page 36


 1956              		@ link register save eliminated.
 1957              	.LVL207:
 1958              		.loc 1 1453 0
 1959 0000 838B     		ldrh	r3, [r0, #28]
 1960              	.LVL208:
 1961              		.loc 1 1456 0
 1962 0002 23F48063 		bic	r3, r3, #1024
 1963              	.LVL209:
 1964 0006 1B04     		lsls	r3, r3, #16
 1965 0008 1B0C     		lsrs	r3, r3, #16
 1966              	.LVL210:
 1967              		.loc 1 1459 0
 1968 000a 43EA0121 		orr	r1, r3, r1, lsl #8
 1969              	.LVL211:
 1970 000e 8BB2     		uxth	r3, r1
 1971              	.LVL212:
 1972              		.loc 1 1462 0
 1973 0010 8383     		strh	r3, [r0, #28]	@ movhi
 1974 0012 7047     		bx	lr
 1975              		.cfi_endproc
 1976              	.LFE147:
 1977              		.size	TIM_OC4FastConfig, .-TIM_OC4FastConfig
 1978 0014 AFF30080 		.section	.text.TIM_ClearOC1Ref,"ax",%progbits
 1978      AFF30080 
 1978      AFF30080 
 1979              		.align	2
 1980              		.p2align 4,,15
 1981              		.global	TIM_ClearOC1Ref
 1982              		.thumb
 1983              		.thumb_func
 1984              		.type	TIM_ClearOC1Ref, %function
 1985              	TIM_ClearOC1Ref:
 1986              	.LFB148:
 1987              		.loc 1 1475 0
 1988              		.cfi_startproc
 1989              		@ args = 0, pretend = 0, frame = 0
 1990              		@ frame_needed = 0, uses_anonymous_args = 0
 1991              		@ link register save eliminated.
 1992              	.LVL213:
 1993              		.loc 1 1482 0
 1994 0000 038B     		ldrh	r3, [r0, #24]
 1995              	.LVL214:
 1996              		.loc 1 1485 0
 1997 0002 23F08003 		bic	r3, r3, #128
 1998              	.LVL215:
 1999 0006 1B04     		lsls	r3, r3, #16
 2000 0008 1B0C     		lsrs	r3, r3, #16
 2001              	.LVL216:
 2002              		.loc 1 1488 0
 2003 000a 1943     		orrs	r1, r1, r3
 2004              	.LVL217:
 2005              		.loc 1 1491 0
 2006 000c 0183     		strh	r1, [r0, #24]	@ movhi
 2007 000e 7047     		bx	lr
 2008              		.cfi_endproc
 2009              	.LFE148:
 2010              		.size	TIM_ClearOC1Ref, .-TIM_ClearOC1Ref
ARM GAS  C:\Users\jsyoon\AppData\Local\Temp\ccDGobdh.s 			page 37


 2011              		.section	.text.TIM_ClearOC2Ref,"ax",%progbits
 2012              		.align	2
 2013              		.p2align 4,,15
 2014              		.global	TIM_ClearOC2Ref
 2015              		.thumb
 2016              		.thumb_func
 2017              		.type	TIM_ClearOC2Ref, %function
 2018              	TIM_ClearOC2Ref:
 2019              	.LFB149:
 2020              		.loc 1 1505 0
 2021              		.cfi_startproc
 2022              		@ args = 0, pretend = 0, frame = 0
 2023              		@ frame_needed = 0, uses_anonymous_args = 0
 2024              		@ link register save eliminated.
 2025              	.LVL218:
 2026              		.loc 1 1512 0
 2027 0000 038B     		ldrh	r3, [r0, #24]
 2028              	.LVL219:
 2029              		.loc 1 1515 0
 2030 0002 C3F30E03 		ubfx	r3, r3, #0, #15
 2031              	.LVL220:
 2032              		.loc 1 1518 0
 2033 0006 43EA0121 		orr	r1, r3, r1, lsl #8
 2034              	.LVL221:
 2035 000a 8BB2     		uxth	r3, r1
 2036              	.LVL222:
 2037              		.loc 1 1521 0
 2038 000c 0383     		strh	r3, [r0, #24]	@ movhi
 2039 000e 7047     		bx	lr
 2040              		.cfi_endproc
 2041              	.LFE149:
 2042              		.size	TIM_ClearOC2Ref, .-TIM_ClearOC2Ref
 2043              		.section	.text.TIM_ClearOC3Ref,"ax",%progbits
 2044              		.align	2
 2045              		.p2align 4,,15
 2046              		.global	TIM_ClearOC3Ref
 2047              		.thumb
 2048              		.thumb_func
 2049              		.type	TIM_ClearOC3Ref, %function
 2050              	TIM_ClearOC3Ref:
 2051              	.LFB150:
 2052              		.loc 1 1534 0
 2053              		.cfi_startproc
 2054              		@ args = 0, pretend = 0, frame = 0
 2055              		@ frame_needed = 0, uses_anonymous_args = 0
 2056              		@ link register save eliminated.
 2057              	.LVL223:
 2058              		.loc 1 1541 0
 2059 0000 838B     		ldrh	r3, [r0, #28]
 2060              	.LVL224:
 2061              		.loc 1 1544 0
 2062 0002 23F08003 		bic	r3, r3, #128
 2063              	.LVL225:
 2064 0006 1B04     		lsls	r3, r3, #16
 2065 0008 1B0C     		lsrs	r3, r3, #16
 2066              	.LVL226:
 2067              		.loc 1 1547 0
ARM GAS  C:\Users\jsyoon\AppData\Local\Temp\ccDGobdh.s 			page 38


 2068 000a 1943     		orrs	r1, r1, r3
 2069              	.LVL227:
 2070              		.loc 1 1550 0
 2071 000c 8183     		strh	r1, [r0, #28]	@ movhi
 2072 000e 7047     		bx	lr
 2073              		.cfi_endproc
 2074              	.LFE150:
 2075              		.size	TIM_ClearOC3Ref, .-TIM_ClearOC3Ref
 2076              		.section	.text.TIM_ClearOC4Ref,"ax",%progbits
 2077              		.align	2
 2078              		.p2align 4,,15
 2079              		.global	TIM_ClearOC4Ref
 2080              		.thumb
 2081              		.thumb_func
 2082              		.type	TIM_ClearOC4Ref, %function
 2083              	TIM_ClearOC4Ref:
 2084              	.LFB151:
 2085              		.loc 1 1563 0
 2086              		.cfi_startproc
 2087              		@ args = 0, pretend = 0, frame = 0
 2088              		@ frame_needed = 0, uses_anonymous_args = 0
 2089              		@ link register save eliminated.
 2090              	.LVL228:
 2091              		.loc 1 1570 0
 2092 0000 838B     		ldrh	r3, [r0, #28]
 2093              	.LVL229:
 2094              		.loc 1 1573 0
 2095 0002 C3F30E03 		ubfx	r3, r3, #0, #15
 2096              	.LVL230:
 2097              		.loc 1 1576 0
 2098 0006 43EA0121 		orr	r1, r3, r1, lsl #8
 2099              	.LVL231:
 2100 000a 8BB2     		uxth	r3, r1
 2101              	.LVL232:
 2102              		.loc 1 1579 0
 2103 000c 8383     		strh	r3, [r0, #28]	@ movhi
 2104 000e 7047     		bx	lr
 2105              		.cfi_endproc
 2106              	.LFE151:
 2107              		.size	TIM_ClearOC4Ref, .-TIM_ClearOC4Ref
 2108              		.section	.text.TIM_OC1PolarityConfig,"ax",%progbits
 2109              		.align	2
 2110              		.p2align 4,,15
 2111              		.global	TIM_OC1PolarityConfig
 2112              		.thumb
 2113              		.thumb_func
 2114              		.type	TIM_OC1PolarityConfig, %function
 2115              	TIM_OC1PolarityConfig:
 2116              	.LFB152:
 2117              		.loc 1 1592 0
 2118              		.cfi_startproc
 2119              		@ args = 0, pretend = 0, frame = 0
 2120              		@ frame_needed = 0, uses_anonymous_args = 0
 2121              		@ link register save eliminated.
 2122              	.LVL233:
 2123              		.loc 1 1599 0
 2124 0000 038C     		ldrh	r3, [r0, #32]
ARM GAS  C:\Users\jsyoon\AppData\Local\Temp\ccDGobdh.s 			page 39


 2125              	.LVL234:
 2126              		.loc 1 1602 0
 2127 0002 23F00203 		bic	r3, r3, #2
 2128              	.LVL235:
 2129 0006 1B04     		lsls	r3, r3, #16
 2130 0008 1B0C     		lsrs	r3, r3, #16
 2131              	.LVL236:
 2132              		.loc 1 1603 0
 2133 000a 1943     		orrs	r1, r1, r3
 2134              	.LVL237:
 2135              		.loc 1 1606 0
 2136 000c 0184     		strh	r1, [r0, #32]	@ movhi
 2137 000e 7047     		bx	lr
 2138              		.cfi_endproc
 2139              	.LFE152:
 2140              		.size	TIM_OC1PolarityConfig, .-TIM_OC1PolarityConfig
 2141              		.section	.text.TIM_OC1NPolarityConfig,"ax",%progbits
 2142              		.align	2
 2143              		.p2align 4,,15
 2144              		.global	TIM_OC1NPolarityConfig
 2145              		.thumb
 2146              		.thumb_func
 2147              		.type	TIM_OC1NPolarityConfig, %function
 2148              	TIM_OC1NPolarityConfig:
 2149              	.LFB153:
 2150              		.loc 1 1619 0
 2151              		.cfi_startproc
 2152              		@ args = 0, pretend = 0, frame = 0
 2153              		@ frame_needed = 0, uses_anonymous_args = 0
 2154              		@ link register save eliminated.
 2155              	.LVL238:
 2156              		.loc 1 1625 0
 2157 0000 038C     		ldrh	r3, [r0, #32]
 2158              	.LVL239:
 2159              		.loc 1 1628 0
 2160 0002 23F00803 		bic	r3, r3, #8
 2161              	.LVL240:
 2162 0006 1B04     		lsls	r3, r3, #16
 2163 0008 1B0C     		lsrs	r3, r3, #16
 2164              	.LVL241:
 2165              		.loc 1 1629 0
 2166 000a 1943     		orrs	r1, r1, r3
 2167              	.LVL242:
 2168              		.loc 1 1632 0
 2169 000c 0184     		strh	r1, [r0, #32]	@ movhi
 2170 000e 7047     		bx	lr
 2171              		.cfi_endproc
 2172              	.LFE153:
 2173              		.size	TIM_OC1NPolarityConfig, .-TIM_OC1NPolarityConfig
 2174              		.section	.text.TIM_OC2PolarityConfig,"ax",%progbits
 2175              		.align	2
 2176              		.p2align 4,,15
 2177              		.global	TIM_OC2PolarityConfig
 2178              		.thumb
 2179              		.thumb_func
 2180              		.type	TIM_OC2PolarityConfig, %function
 2181              	TIM_OC2PolarityConfig:
ARM GAS  C:\Users\jsyoon\AppData\Local\Temp\ccDGobdh.s 			page 40


 2182              	.LFB154:
 2183              		.loc 1 1646 0
 2184              		.cfi_startproc
 2185              		@ args = 0, pretend = 0, frame = 0
 2186              		@ frame_needed = 0, uses_anonymous_args = 0
 2187              		@ link register save eliminated.
 2188              	.LVL243:
 2189              		.loc 1 1653 0
 2190 0000 038C     		ldrh	r3, [r0, #32]
 2191              	.LVL244:
 2192              		.loc 1 1656 0
 2193 0002 23F02003 		bic	r3, r3, #32
 2194              	.LVL245:
 2195 0006 1B04     		lsls	r3, r3, #16
 2196 0008 1B0C     		lsrs	r3, r3, #16
 2197              	.LVL246:
 2198              		.loc 1 1657 0
 2199 000a 43EA0111 		orr	r1, r3, r1, lsl #4
 2200              	.LVL247:
 2201 000e 8BB2     		uxth	r3, r1
 2202              	.LVL248:
 2203              		.loc 1 1660 0
 2204 0010 0384     		strh	r3, [r0, #32]	@ movhi
 2205 0012 7047     		bx	lr
 2206              		.cfi_endproc
 2207              	.LFE154:
 2208              		.size	TIM_OC2PolarityConfig, .-TIM_OC2PolarityConfig
 2209 0014 AFF30080 		.section	.text.TIM_OC2NPolarityConfig,"ax",%progbits
 2209      AFF30080 
 2209      AFF30080 
 2210              		.align	2
 2211              		.p2align 4,,15
 2212              		.global	TIM_OC2NPolarityConfig
 2213              		.thumb
 2214              		.thumb_func
 2215              		.type	TIM_OC2NPolarityConfig, %function
 2216              	TIM_OC2NPolarityConfig:
 2217              	.LFB155:
 2218              		.loc 1 1673 0
 2219              		.cfi_startproc
 2220              		@ args = 0, pretend = 0, frame = 0
 2221              		@ frame_needed = 0, uses_anonymous_args = 0
 2222              		@ link register save eliminated.
 2223              	.LVL249:
 2224              		.loc 1 1680 0
 2225 0000 038C     		ldrh	r3, [r0, #32]
 2226              	.LVL250:
 2227              		.loc 1 1683 0
 2228 0002 23F08003 		bic	r3, r3, #128
 2229              	.LVL251:
 2230 0006 1B04     		lsls	r3, r3, #16
 2231 0008 1B0C     		lsrs	r3, r3, #16
 2232              	.LVL252:
 2233              		.loc 1 1684 0
 2234 000a 43EA0111 		orr	r1, r3, r1, lsl #4
 2235              	.LVL253:
 2236 000e 8BB2     		uxth	r3, r1
ARM GAS  C:\Users\jsyoon\AppData\Local\Temp\ccDGobdh.s 			page 41


 2237              	.LVL254:
 2238              		.loc 1 1687 0
 2239 0010 0384     		strh	r3, [r0, #32]	@ movhi
 2240 0012 7047     		bx	lr
 2241              		.cfi_endproc
 2242              	.LFE155:
 2243              		.size	TIM_OC2NPolarityConfig, .-TIM_OC2NPolarityConfig
 2244 0014 AFF30080 		.section	.text.TIM_OC3PolarityConfig,"ax",%progbits
 2244      AFF30080 
 2244      AFF30080 
 2245              		.align	2
 2246              		.p2align 4,,15
 2247              		.global	TIM_OC3PolarityConfig
 2248              		.thumb
 2249              		.thumb_func
 2250              		.type	TIM_OC3PolarityConfig, %function
 2251              	TIM_OC3PolarityConfig:
 2252              	.LFB156:
 2253              		.loc 1 1700 0
 2254              		.cfi_startproc
 2255              		@ args = 0, pretend = 0, frame = 0
 2256              		@ frame_needed = 0, uses_anonymous_args = 0
 2257              		@ link register save eliminated.
 2258              	.LVL255:
 2259              		.loc 1 1707 0
 2260 0000 038C     		ldrh	r3, [r0, #32]
 2261              	.LVL256:
 2262              		.loc 1 1710 0
 2263 0002 23F40073 		bic	r3, r3, #512
 2264              	.LVL257:
 2265 0006 1B04     		lsls	r3, r3, #16
 2266 0008 1B0C     		lsrs	r3, r3, #16
 2267              	.LVL258:
 2268              		.loc 1 1711 0
 2269 000a 43EA0121 		orr	r1, r3, r1, lsl #8
 2270              	.LVL259:
 2271 000e 8BB2     		uxth	r3, r1
 2272              	.LVL260:
 2273              		.loc 1 1714 0
 2274 0010 0384     		strh	r3, [r0, #32]	@ movhi
 2275 0012 7047     		bx	lr
 2276              		.cfi_endproc
 2277              	.LFE156:
 2278              		.size	TIM_OC3PolarityConfig, .-TIM_OC3PolarityConfig
 2279 0014 AFF30080 		.section	.text.TIM_OC3NPolarityConfig,"ax",%progbits
 2279      AFF30080 
 2279      AFF30080 
 2280              		.align	2
 2281              		.p2align 4,,15
 2282              		.global	TIM_OC3NPolarityConfig
 2283              		.thumb
 2284              		.thumb_func
 2285              		.type	TIM_OC3NPolarityConfig, %function
 2286              	TIM_OC3NPolarityConfig:
 2287              	.LFB157:
 2288              		.loc 1 1727 0
 2289              		.cfi_startproc
ARM GAS  C:\Users\jsyoon\AppData\Local\Temp\ccDGobdh.s 			page 42


 2290              		@ args = 0, pretend = 0, frame = 0
 2291              		@ frame_needed = 0, uses_anonymous_args = 0
 2292              		@ link register save eliminated.
 2293              	.LVL261:
 2294              		.loc 1 1734 0
 2295 0000 038C     		ldrh	r3, [r0, #32]
 2296              	.LVL262:
 2297              		.loc 1 1737 0
 2298 0002 23F40063 		bic	r3, r3, #2048
 2299              	.LVL263:
 2300 0006 1B04     		lsls	r3, r3, #16
 2301 0008 1B0C     		lsrs	r3, r3, #16
 2302              	.LVL264:
 2303              		.loc 1 1738 0
 2304 000a 43EA0121 		orr	r1, r3, r1, lsl #8
 2305              	.LVL265:
 2306 000e 8BB2     		uxth	r3, r1
 2307              	.LVL266:
 2308              		.loc 1 1741 0
 2309 0010 0384     		strh	r3, [r0, #32]	@ movhi
 2310 0012 7047     		bx	lr
 2311              		.cfi_endproc
 2312              	.LFE157:
 2313              		.size	TIM_OC3NPolarityConfig, .-TIM_OC3NPolarityConfig
 2314 0014 AFF30080 		.section	.text.TIM_OC4PolarityConfig,"ax",%progbits
 2314      AFF30080 
 2314      AFF30080 
 2315              		.align	2
 2316              		.p2align 4,,15
 2317              		.global	TIM_OC4PolarityConfig
 2318              		.thumb
 2319              		.thumb_func
 2320              		.type	TIM_OC4PolarityConfig, %function
 2321              	TIM_OC4PolarityConfig:
 2322              	.LFB158:
 2323              		.loc 1 1754 0
 2324              		.cfi_startproc
 2325              		@ args = 0, pretend = 0, frame = 0
 2326              		@ frame_needed = 0, uses_anonymous_args = 0
 2327              		@ link register save eliminated.
 2328              	.LVL267:
 2329              		.loc 1 1761 0
 2330 0000 038C     		ldrh	r3, [r0, #32]
 2331              	.LVL268:
 2332              		.loc 1 1764 0
 2333 0002 23F40053 		bic	r3, r3, #8192
 2334              	.LVL269:
 2335 0006 1B04     		lsls	r3, r3, #16
 2336 0008 1B0C     		lsrs	r3, r3, #16
 2337              	.LVL270:
 2338              		.loc 1 1765 0
 2339 000a 43EA0131 		orr	r1, r3, r1, lsl #12
 2340              	.LVL271:
 2341 000e 8BB2     		uxth	r3, r1
 2342              	.LVL272:
 2343              		.loc 1 1768 0
 2344 0010 0384     		strh	r3, [r0, #32]	@ movhi
ARM GAS  C:\Users\jsyoon\AppData\Local\Temp\ccDGobdh.s 			page 43


 2345 0012 7047     		bx	lr
 2346              		.cfi_endproc
 2347              	.LFE158:
 2348              		.size	TIM_OC4PolarityConfig, .-TIM_OC4PolarityConfig
 2349 0014 AFF30080 		.section	.text.TIM_CCxCmd,"ax",%progbits
 2349      AFF30080 
 2349      AFF30080 
 2350              		.align	2
 2351              		.p2align 4,,15
 2352              		.global	TIM_CCxCmd
 2353              		.thumb
 2354              		.thumb_func
 2355              		.type	TIM_CCxCmd, %function
 2356              	TIM_CCxCmd:
 2357              	.LFB159:
 2358              		.loc 1 1785 0
 2359              		.cfi_startproc
 2360              		@ args = 0, pretend = 0, frame = 0
 2361              		@ frame_needed = 0, uses_anonymous_args = 0
 2362              		@ link register save eliminated.
 2363              	.LVL273:
 2364              		.loc 1 1796 0
 2365 0000 038C     		ldrh	r3, [r0, #32]
 2366              		.loc 1 1785 0
 2367 0002 10B4     		push	{r4}
 2368              		.cfi_def_cfa_offset 4
 2369              		.cfi_offset 4, -4
 2370              		.loc 1 1793 0
 2371 0004 0124     		movs	r4, #1
 2372 0006 8C40     		lsls	r4, r4, r1
 2373              		.loc 1 1796 0
 2374 0008 9BB2     		uxth	r3, r3
 2375 000a 23EA0403 		bic	r3, r3, r4
 2376 000e 0384     		strh	r3, [r0, #32]	@ movhi
 2377              		.loc 1 1799 0
 2378 0010 038C     		ldrh	r3, [r0, #32]
 2379              		.loc 1 1800 0
 2380 0012 5DF8044B 		ldr	r4, [sp], #4
 2381              		.loc 1 1799 0
 2382 0016 8A40     		lsls	r2, r2, r1
 2383              	.LVL274:
 2384 0018 1343     		orrs	r3, r3, r2
 2385 001a 9BB2     		uxth	r3, r3
 2386 001c 0384     		strh	r3, [r0, #32]	@ movhi
 2387              		.loc 1 1800 0
 2388 001e 7047     		bx	lr
 2389              		.cfi_endproc
 2390              	.LFE159:
 2391              		.size	TIM_CCxCmd, .-TIM_CCxCmd
 2392              		.section	.text.TIM_CCxNCmd,"ax",%progbits
 2393              		.align	2
 2394              		.p2align 4,,15
 2395              		.global	TIM_CCxNCmd
 2396              		.thumb
 2397              		.thumb_func
 2398              		.type	TIM_CCxNCmd, %function
 2399              	TIM_CCxNCmd:
ARM GAS  C:\Users\jsyoon\AppData\Local\Temp\ccDGobdh.s 			page 44


 2400              	.LFB160:
 2401              		.loc 1 1815 0
 2402              		.cfi_startproc
 2403              		@ args = 0, pretend = 0, frame = 0
 2404              		@ frame_needed = 0, uses_anonymous_args = 0
 2405              		@ link register save eliminated.
 2406              	.LVL275:
 2407              		.loc 1 1826 0
 2408 0000 038C     		ldrh	r3, [r0, #32]
 2409              		.loc 1 1815 0
 2410 0002 10B4     		push	{r4}
 2411              		.cfi_def_cfa_offset 4
 2412              		.cfi_offset 4, -4
 2413              		.loc 1 1823 0
 2414 0004 0424     		movs	r4, #4
 2415 0006 8C40     		lsls	r4, r4, r1
 2416              		.loc 1 1826 0
 2417 0008 9BB2     		uxth	r3, r3
 2418 000a 23EA0403 		bic	r3, r3, r4
 2419 000e 0384     		strh	r3, [r0, #32]	@ movhi
 2420              		.loc 1 1829 0
 2421 0010 038C     		ldrh	r3, [r0, #32]
 2422              		.loc 1 1830 0
 2423 0012 5DF8044B 		ldr	r4, [sp], #4
 2424              		.loc 1 1829 0
 2425 0016 8A40     		lsls	r2, r2, r1
 2426              	.LVL276:
 2427 0018 1343     		orrs	r3, r3, r2
 2428 001a 9BB2     		uxth	r3, r3
 2429 001c 0384     		strh	r3, [r0, #32]	@ movhi
 2430              		.loc 1 1830 0
 2431 001e 7047     		bx	lr
 2432              		.cfi_endproc
 2433              	.LFE160:
 2434              		.size	TIM_CCxNCmd, .-TIM_CCxNCmd
 2435              		.section	.text.TIM_ICInit,"ax",%progbits
 2436              		.align	2
 2437              		.p2align 4,,15
 2438              		.global	TIM_ICInit
 2439              		.thumb
 2440              		.thumb_func
 2441              		.type	TIM_ICInit, %function
 2442              	TIM_ICInit:
 2443              	.LFB161:
 2444              		.loc 1 1897 0
 2445              		.cfi_startproc
 2446              		@ args = 0, pretend = 0, frame = 0
 2447              		@ frame_needed = 0, uses_anonymous_args = 0
 2448              		@ link register save eliminated.
 2449              	.LVL277:
 2450              		.loc 1 1905 0
 2451 0000 0B88     		ldrh	r3, [r1]
 2452              		.loc 1 1897 0
 2453 0002 F0B4     		push	{r4, r5, r6, r7}
 2454              		.cfi_def_cfa_offset 16
 2455              		.cfi_offset 4, -16
 2456              		.cfi_offset 5, -12
ARM GAS  C:\Users\jsyoon\AppData\Local\Temp\ccDGobdh.s 			page 45


 2457              		.cfi_offset 6, -8
 2458              		.cfi_offset 7, -4
 2459              		.loc 1 1905 0
 2460 0004 002B     		cmp	r3, #0
 2461 0006 32D0     		beq	.L131
 2462              		.loc 1 1914 0
 2463 0008 042B     		cmp	r3, #4
 2464 000a 58D0     		beq	.L132
 2465              		.loc 1 1924 0
 2466 000c 082B     		cmp	r3, #8
 2467              	.LBB46:
 2468              	.LBB47:
 2469              		.loc 1 3286 0
 2470 000e 038C     		ldrh	r3, [r0, #32]
 2471              	.LBE47:
 2472              	.LBE46:
 2473              		.loc 1 1924 0
 2474 0010 00F08380 		beq	.L133
 2475              		.loc 1 1938 0
 2476 0014 4E88     		ldrh	r6, [r1, #2]
 2477 0016 8F88     		ldrh	r7, [r1, #4]
 2478 0018 0D89     		ldrh	r5, [r1, #8]
 2479              	.LVL278:
 2480              		.loc 1 1942 0
 2481 001a CC88     		ldrh	r4, [r1, #6]
 2482              	.LBB50:
 2483              	.LBB51:
 2484              		.loc 1 3327 0
 2485 001c 23F48051 		bic	r1, r3, #4096
 2486              	.LVL279:
 2487 0020 0904     		lsls	r1, r1, #16
 2488 0022 090C     		lsrs	r1, r1, #16
 2489 0024 0184     		strh	r1, [r0, #32]	@ movhi
 2490              		.loc 1 3328 0
 2491 0026 828B     		ldrh	r2, [r0, #28]
 2492              	.LVL280:
 2493              		.loc 1 3329 0
 2494 0028 038C     		ldrh	r3, [r0, #32]
 2495              	.LVL281:
 2496              		.loc 1 3333 0
 2497 002a 22F44072 		bic	r2, r2, #768
 2498              	.LVL282:
 2499              		.loc 1 3338 0
 2500 002e 23F40053 		bic	r3, r3, #8192
 2501              	.LVL283:
 2502              		.loc 1 3333 0
 2503 0032 1205     		lsls	r2, r2, #20
 2504              		.loc 1 3338 0
 2505 0034 5B04     		lsls	r3, r3, #17
 2506              		.loc 1 3333 0
 2507 0036 120D     		lsrs	r2, r2, #20
 2508              	.LVL284:
 2509              		.loc 1 3338 0
 2510 0038 5B0C     		lsrs	r3, r3, #17
 2511              		.loc 1 3334 0
 2512 003a 42EA0722 		orr	r2, r2, r7, lsl #8
 2513              	.LVL285:
ARM GAS  C:\Users\jsyoon\AppData\Local\Temp\ccDGobdh.s 			page 46


 2514              		.loc 1 3339 0
 2515 003e 43EA0633 		orr	r3, r3, r6, lsl #12
 2516              		.loc 1 3335 0
 2517 0042 42EA0532 		orr	r2, r2, r5, lsl #12
 2518              	.LVL286:
 2519              		.loc 1 3339 0
 2520 0046 9BB2     		uxth	r3, r3
 2521 0048 43F48053 		orr	r3, r3, #4096
 2522              		.loc 1 3335 0
 2523 004c 92B2     		uxth	r2, r2
 2524              	.LVL287:
 2525              		.loc 1 3342 0
 2526 004e 8283     		strh	r2, [r0, #28]	@ movhi
 2527              		.loc 1 3343 0
 2528 0050 0384     		strh	r3, [r0, #32]	@ movhi
 2529              	.LBE51:
 2530              	.LBE50:
 2531              	.LBB52:
 2532              	.LBB53:
 2533              		.loc 1 2171 0
 2534 0052 838B     		ldrh	r3, [r0, #28]
 2535              	.LVL288:
 2536 0054 23F44063 		bic	r3, r3, #3072
 2537 0058 1B04     		lsls	r3, r3, #16
 2538 005a 1B0C     		lsrs	r3, r3, #16
 2539 005c 8383     		strh	r3, [r0, #28]	@ movhi
 2540              		.loc 1 2174 0
 2541 005e 838B     		ldrh	r3, [r0, #28]
 2542 0060 9BB2     		uxth	r3, r3
 2543 0062 43EA0423 		orr	r3, r3, r4, lsl #8
 2544 0066 9BB2     		uxth	r3, r3
 2545 0068 8383     		strh	r3, [r0, #28]	@ movhi
 2546              	.LVL289:
 2547              	.L126:
 2548              	.LBE53:
 2549              	.LBE52:
 2550              		.loc 1 1944 0
 2551 006a F0BC     		pop	{r4, r5, r6, r7}
 2552 006c 7047     		bx	lr
 2553              	.LVL290:
 2554              	.L131:
 2555              	.LBB54:
 2556              	.LBB55:
 2557              		.loc 1 3203 0
 2558 006e 028C     		ldrh	r2, [r0, #32]
 2559              	.LBE55:
 2560              	.LBE54:
 2561              		.loc 1 1908 0
 2562 0070 8D88     		ldrh	r5, [r1, #4]
 2563 0072 0E89     		ldrh	r6, [r1, #8]
 2564              	.LVL291:
 2565 0074 4C88     		ldrh	r4, [r1, #2]
 2566              	.LVL292:
 2567              		.loc 1 1912 0
 2568 0076 C988     		ldrh	r1, [r1, #6]
 2569              	.LVL293:
 2570              	.LBB57:
ARM GAS  C:\Users\jsyoon\AppData\Local\Temp\ccDGobdh.s 			page 47


 2571              	.LBB56:
 2572              		.loc 1 3203 0
 2573 0078 22F00102 		bic	r2, r2, #1
 2574 007c 1204     		lsls	r2, r2, #16
 2575 007e 120C     		lsrs	r2, r2, #16
 2576 0080 0284     		strh	r2, [r0, #32]	@ movhi
 2577              		.loc 1 3204 0
 2578 0082 028B     		ldrh	r2, [r0, #24]
 2579              		.loc 1 3205 0
 2580 0084 038C     		ldrh	r3, [r0, #32]
 2581              		.loc 1 3204 0
 2582 0086 92B2     		uxth	r2, r2
 2583              	.LVL294:
 2584              		.loc 1 3208 0
 2585 0088 22F0F302 		bic	r2, r2, #243
 2586              	.LVL295:
 2587              		.loc 1 3212 0
 2588 008c 23F00A03 		bic	r3, r3, #10
 2589              	.LVL296:
 2590              		.loc 1 3209 0
 2591 0090 42EA0612 		orr	r2, r2, r6, lsl #4
 2592              		.loc 1 3212 0
 2593 0094 1B04     		lsls	r3, r3, #16
 2594              		.loc 1 3213 0
 2595 0096 44F00104 		orr	r4, r4, #1
 2596              	.LVL297:
 2597              		.loc 1 3209 0
 2598 009a 92B2     		uxth	r2, r2
 2599              		.loc 1 3212 0
 2600 009c 1B0C     		lsrs	r3, r3, #16
 2601              		.loc 1 3213 0
 2602 009e 2343     		orrs	r3, r3, r4
 2603              		.loc 1 3209 0
 2604 00a0 2A43     		orrs	r2, r2, r5
 2605              	.LVL298:
 2606              		.loc 1 3216 0
 2607 00a2 0283     		strh	r2, [r0, #24]	@ movhi
 2608              		.loc 1 3217 0
 2609 00a4 0384     		strh	r3, [r0, #32]	@ movhi
 2610              	.LBE56:
 2611              	.LBE57:
 2612              	.LBB58:
 2613              	.LBB59:
 2614              		.loc 1 2098 0
 2615 00a6 038B     		ldrh	r3, [r0, #24]
 2616              	.LVL299:
 2617 00a8 23F00C03 		bic	r3, r3, #12
 2618 00ac 1B04     		lsls	r3, r3, #16
 2619 00ae 1B0C     		lsrs	r3, r3, #16
 2620 00b0 0383     		strh	r3, [r0, #24]	@ movhi
 2621              		.loc 1 2101 0
 2622 00b2 038B     		ldrh	r3, [r0, #24]
 2623 00b4 9BB2     		uxth	r3, r3
 2624 00b6 0B43     		orrs	r3, r3, r1
 2625 00b8 0383     		strh	r3, [r0, #24]	@ movhi
 2626              	.LVL300:
 2627              	.LBE59:
ARM GAS  C:\Users\jsyoon\AppData\Local\Temp\ccDGobdh.s 			page 48


 2628              	.LBE58:
 2629              		.loc 1 1944 0
 2630 00ba F0BC     		pop	{r4, r5, r6, r7}
 2631              	.LVL301:
 2632 00bc 7047     		bx	lr
 2633              	.LVL302:
 2634              	.L132:
 2635              	.LBB60:
 2636              	.LBB61:
 2637              		.loc 1 3244 0
 2638 00be 028C     		ldrh	r2, [r0, #32]
 2639              	.LBE61:
 2640              	.LBE60:
 2641              		.loc 1 1918 0
 2642 00c0 4E88     		ldrh	r6, [r1, #2]
 2643 00c2 8C88     		ldrh	r4, [r1, #4]
 2644 00c4 0F89     		ldrh	r7, [r1, #8]
 2645              	.LVL303:
 2646              		.loc 1 1922 0
 2647 00c6 C988     		ldrh	r1, [r1, #6]
 2648              	.LVL304:
 2649              	.LBB63:
 2650              	.LBB62:
 2651              		.loc 1 3244 0
 2652 00c8 22F01002 		bic	r2, r2, #16
 2653 00cc 1204     		lsls	r2, r2, #16
 2654 00ce 120C     		lsrs	r2, r2, #16
 2655 00d0 0284     		strh	r2, [r0, #32]	@ movhi
 2656              		.loc 1 3245 0
 2657 00d2 038B     		ldrh	r3, [r0, #24]
 2658              	.LVL305:
 2659              		.loc 1 3246 0
 2660 00d4 058C     		ldrh	r5, [r0, #32]
 2661              		.loc 1 3250 0
 2662 00d6 23F44073 		bic	r3, r3, #768
 2663              	.LVL306:
 2664 00da 1B05     		lsls	r3, r3, #20
 2665 00dc 1B0D     		lsrs	r3, r3, #20
 2666              		.loc 1 3246 0
 2667 00de ADB2     		uxth	r5, r5
 2668              	.LVL307:
 2669              		.loc 1 3251 0
 2670 00e0 43EA0732 		orr	r2, r3, r7, lsl #12
 2671              		.loc 1 3255 0
 2672 00e4 25F0A005 		bic	r5, r5, #160
 2673              	.LVL308:
 2674              		.loc 1 3256 0
 2675 00e8 45EA0613 		orr	r3, r5, r6, lsl #4
 2676              	.LVL309:
 2677              		.loc 1 3251 0
 2678 00ec 92B2     		uxth	r2, r2
 2679              	.LVL310:
 2680              		.loc 1 3252 0
 2681 00ee 42EA0422 		orr	r2, r2, r4, lsl #8
 2682              	.LVL311:
 2683              		.loc 1 3256 0
 2684 00f2 9BB2     		uxth	r3, r3
ARM GAS  C:\Users\jsyoon\AppData\Local\Temp\ccDGobdh.s 			page 49


 2685 00f4 43F01003 		orr	r3, r3, #16
 2686              		.loc 1 3252 0
 2687 00f8 92B2     		uxth	r2, r2
 2688              	.LVL312:
 2689              		.loc 1 3259 0
 2690 00fa 0283     		strh	r2, [r0, #24]	@ movhi
 2691              		.loc 1 3260 0
 2692 00fc 0384     		strh	r3, [r0, #32]	@ movhi
 2693              	.LBE62:
 2694              	.LBE63:
 2695              	.LBB64:
 2696              	.LBB65:
 2697              		.loc 1 2123 0
 2698 00fe 038B     		ldrh	r3, [r0, #24]
 2699              	.LVL313:
 2700 0100 23F44063 		bic	r3, r3, #3072
 2701 0104 1B04     		lsls	r3, r3, #16
 2702 0106 1B0C     		lsrs	r3, r3, #16
 2703 0108 0383     		strh	r3, [r0, #24]	@ movhi
 2704              		.loc 1 2126 0
 2705 010a 038B     		ldrh	r3, [r0, #24]
 2706 010c 9BB2     		uxth	r3, r3
 2707 010e 43EA0123 		orr	r3, r3, r1, lsl #8
 2708 0112 9BB2     		uxth	r3, r3
 2709 0114 0383     		strh	r3, [r0, #24]	@ movhi
 2710              	.LBE65:
 2711              	.LBE64:
 2712              		.loc 1 1944 0
 2713 0116 F0BC     		pop	{r4, r5, r6, r7}
 2714              	.LVL314:
 2715 0118 7047     		bx	lr
 2716              	.LVL315:
 2717              	.L133:
 2718              	.LBB66:
 2719              	.LBB48:
 2720              		.loc 1 3286 0
 2721 011a 23F48073 		bic	r3, r3, #256
 2722 011e 1B04     		lsls	r3, r3, #16
 2723 0120 1B0C     		lsrs	r3, r3, #16
 2724              	.LBE48:
 2725              	.LBE66:
 2726              		.loc 1 1928 0
 2727 0122 4D88     		ldrh	r5, [r1, #2]
 2728 0124 8C88     		ldrh	r4, [r1, #4]
 2729 0126 0E89     		ldrh	r6, [r1, #8]
 2730              	.LVL316:
 2731              		.loc 1 1932 0
 2732 0128 CA88     		ldrh	r2, [r1, #6]
 2733              	.LBB67:
 2734              	.LBB49:
 2735              		.loc 1 3286 0
 2736 012a 0384     		strh	r3, [r0, #32]	@ movhi
 2737              		.loc 1 3287 0
 2738 012c 818B     		ldrh	r1, [r0, #28]
 2739              	.LVL317:
 2740              		.loc 1 3288 0
 2741 012e 038C     		ldrh	r3, [r0, #32]
ARM GAS  C:\Users\jsyoon\AppData\Local\Temp\ccDGobdh.s 			page 50


 2742              		.loc 1 3287 0
 2743 0130 89B2     		uxth	r1, r1
 2744              	.LVL318:
 2745              		.loc 1 3288 0
 2746 0132 9BB2     		uxth	r3, r3
 2747              	.LVL319:
 2748              		.loc 1 3292 0
 2749 0134 21F0F301 		bic	r1, r1, #243
 2750              	.LVL320:
 2751              		.loc 1 3296 0
 2752 0138 23F42063 		bic	r3, r3, #2560
 2753              	.LVL321:
 2754              		.loc 1 3293 0
 2755 013c 41EA0611 		orr	r1, r1, r6, lsl #4
 2756              		.loc 1 3297 0
 2757 0140 43EA0523 		orr	r3, r3, r5, lsl #8
 2758              		.loc 1 3293 0
 2759 0144 89B2     		uxth	r1, r1
 2760              		.loc 1 3297 0
 2761 0146 9BB2     		uxth	r3, r3
 2762 0148 43F48073 		orr	r3, r3, #256
 2763              		.loc 1 3293 0
 2764 014c 2143     		orrs	r1, r1, r4
 2765              	.LVL322:
 2766              		.loc 1 3300 0
 2767 014e 8183     		strh	r1, [r0, #28]	@ movhi
 2768              		.loc 1 3301 0
 2769 0150 0384     		strh	r3, [r0, #32]	@ movhi
 2770              	.LBE49:
 2771              	.LBE67:
 2772              	.LBB68:
 2773              	.LBB69:
 2774              		.loc 1 2147 0
 2775 0152 838B     		ldrh	r3, [r0, #28]
 2776              	.LVL323:
 2777 0154 23F00C03 		bic	r3, r3, #12
 2778 0158 1B04     		lsls	r3, r3, #16
 2779 015a 1B0C     		lsrs	r3, r3, #16
 2780 015c 8383     		strh	r3, [r0, #28]	@ movhi
 2781              		.loc 1 2150 0
 2782 015e 838B     		ldrh	r3, [r0, #28]
 2783 0160 9BB2     		uxth	r3, r3
 2784 0162 1343     		orrs	r3, r3, r2
 2785 0164 8383     		strh	r3, [r0, #28]	@ movhi
 2786 0166 80E7     		b	.L126
 2787              	.LBE69:
 2788              	.LBE68:
 2789              		.cfi_endproc
 2790              	.LFE161:
 2791              		.size	TIM_ICInit, .-TIM_ICInit
 2792 0168 AFF30080 		.section	.text.TIM_ICStructInit,"ax",%progbits
 2792      AFF30080 
 2793              		.align	2
 2794              		.p2align 4,,15
 2795              		.global	TIM_ICStructInit
 2796              		.thumb
 2797              		.thumb_func
ARM GAS  C:\Users\jsyoon\AppData\Local\Temp\ccDGobdh.s 			page 51


 2798              		.type	TIM_ICStructInit, %function
 2799              	TIM_ICStructInit:
 2800              	.LFB162:
 2801              		.loc 1 1953 0
 2802              		.cfi_startproc
 2803              		@ args = 0, pretend = 0, frame = 0
 2804              		@ frame_needed = 0, uses_anonymous_args = 0
 2805              		@ link register save eliminated.
 2806              	.LVL324:
 2807              		.loc 1 1955 0
 2808 0000 0023     		movs	r3, #0
 2809              		.loc 1 1957 0
 2810 0002 0122     		movs	r2, #1
 2811 0004 8280     		strh	r2, [r0, #4]	@ movhi
 2812              		.loc 1 1955 0
 2813 0006 0380     		strh	r3, [r0]	@ movhi
 2814              		.loc 1 1956 0
 2815 0008 4380     		strh	r3, [r0, #2]	@ movhi
 2816              		.loc 1 1958 0
 2817 000a C380     		strh	r3, [r0, #6]	@ movhi
 2818              		.loc 1 1959 0
 2819 000c 0381     		strh	r3, [r0, #8]	@ movhi
 2820 000e 7047     		bx	lr
 2821              		.cfi_endproc
 2822              	.LFE162:
 2823              		.size	TIM_ICStructInit, .-TIM_ICStructInit
 2824              		.section	.text.TIM_PWMIConfig,"ax",%progbits
 2825              		.align	2
 2826              		.p2align 4,,15
 2827              		.global	TIM_PWMIConfig
 2828              		.thumb
 2829              		.thumb_func
 2830              		.type	TIM_PWMIConfig, %function
 2831              	TIM_PWMIConfig:
 2832              	.LFB163:
 2833              		.loc 1 1972 0
 2834              		.cfi_startproc
 2835              		@ args = 0, pretend = 0, frame = 0
 2836              		@ frame_needed = 0, uses_anonymous_args = 0
 2837              		@ link register save eliminated.
 2838              	.LVL325:
 2839 0000 F0B4     		push	{r4, r5, r6, r7}
 2840              		.cfi_def_cfa_offset 16
 2841              		.cfi_offset 4, -16
 2842              		.cfi_offset 5, -12
 2843              		.cfi_offset 6, -8
 2844              		.cfi_offset 7, -4
 2845              		.loc 1 1980 0
 2846 0002 4D88     		ldrh	r5, [r1, #2]
 2847              		.loc 1 1989 0
 2848 0004 8C88     		ldrh	r4, [r1, #4]
 2849              		.loc 1 1997 0
 2850 0006 0B88     		ldrh	r3, [r1]
 2851              		.loc 1 2000 0
 2852 0008 B1F808C0 		ldrh	ip, [r1, #8]
 2853              	.LBB70:
 2854              	.LBB71:
ARM GAS  C:\Users\jsyoon\AppData\Local\Temp\ccDGobdh.s 			page 52


 2855              		.loc 1 3203 0
 2856 000c 028C     		ldrh	r2, [r0, #32]
 2857              	.LBE71:
 2858              	.LBE70:
 2859              		.loc 1 2003 0
 2860 000e C988     		ldrh	r1, [r1, #6]
 2861              	.LVL326:
 2862              		.loc 1 1980 0
 2863 0010 002D     		cmp	r5, #0
 2864              		.loc 1 1982 0
 2865 0012 14BF     		ite	ne
 2866 0014 0026     		movne	r6, #0
 2867 0016 0226     		moveq	r6, #2
 2868              	.LVL327:
 2869              		.loc 1 1989 0
 2870 0018 012C     		cmp	r4, #1
 2871              		.loc 1 1991 0
 2872 001a 14BF     		ite	ne
 2873 001c 0127     		movne	r7, #1
 2874 001e 0227     		moveq	r7, #2
 2875              	.LVL328:
 2876              		.loc 1 1997 0
 2877 0020 002B     		cmp	r3, #0
 2878 0022 4BD0     		beq	.L142
 2879              	.LBB73:
 2880              	.LBB74:
 2881              		.loc 1 3244 0
 2882 0024 22F01002 		bic	r2, r2, #16
 2883 0028 1204     		lsls	r2, r2, #16
 2884 002a 120C     		lsrs	r2, r2, #16
 2885 002c 0284     		strh	r2, [r0, #32]	@ movhi
 2886              		.loc 1 3245 0
 2887 002e 038B     		ldrh	r3, [r0, #24]
 2888              	.LVL329:
 2889              		.loc 1 3246 0
 2890 0030 028C     		ldrh	r2, [r0, #32]
 2891              		.loc 1 3250 0
 2892 0032 23F44073 		bic	r3, r3, #768
 2893              	.LVL330:
 2894 0036 1B05     		lsls	r3, r3, #20
 2895 0038 1B0D     		lsrs	r3, r3, #20
 2896              		.loc 1 3246 0
 2897 003a 92B2     		uxth	r2, r2
 2898              	.LVL331:
 2899              		.loc 1 3251 0
 2900 003c 43EA0C33 		orr	r3, r3, ip, lsl #12
 2901              	.LVL332:
 2902              		.loc 1 3255 0
 2903 0040 22F0A002 		bic	r2, r2, #160
 2904              	.LVL333:
 2905              		.loc 1 3251 0
 2906 0044 9BB2     		uxth	r3, r3
 2907              	.LVL334:
 2908              		.loc 1 3256 0
 2909 0046 42EA0515 		orr	r5, r2, r5, lsl #4
 2910              	.LVL335:
 2911              		.loc 1 3252 0
ARM GAS  C:\Users\jsyoon\AppData\Local\Temp\ccDGobdh.s 			page 53


 2912 004a 43EA0424 		orr	r4, r3, r4, lsl #8
 2913              	.LVL336:
 2914              		.loc 1 3256 0
 2915 004e ADB2     		uxth	r5, r5
 2916              		.loc 1 3252 0
 2917 0050 A4B2     		uxth	r4, r4
 2918              	.LVL337:
 2919              		.loc 1 3256 0
 2920 0052 45F01005 		orr	r5, r5, #16
 2921              	.LVL338:
 2922              		.loc 1 3259 0
 2923 0056 0483     		strh	r4, [r0, #24]	@ movhi
 2924              		.loc 1 3260 0
 2925 0058 0584     		strh	r5, [r0, #32]	@ movhi
 2926              	.LBE74:
 2927              	.LBE73:
 2928              	.LBB75:
 2929              	.LBB76:
 2930              		.loc 1 2123 0
 2931 005a 038B     		ldrh	r3, [r0, #24]
 2932 005c 23F44063 		bic	r3, r3, #3072
 2933 0060 1B04     		lsls	r3, r3, #16
 2934 0062 1B0C     		lsrs	r3, r3, #16
 2935 0064 0383     		strh	r3, [r0, #24]	@ movhi
 2936              		.loc 1 2126 0
 2937 0066 038B     		ldrh	r3, [r0, #24]
 2938 0068 9BB2     		uxth	r3, r3
 2939 006a 43EA0123 		orr	r3, r3, r1, lsl #8
 2940 006e 9BB2     		uxth	r3, r3
 2941 0070 0383     		strh	r3, [r0, #24]	@ movhi
 2942              	.LVL339:
 2943              	.LBE76:
 2944              	.LBE75:
 2945              	.LBB77:
 2946              	.LBB78:
 2947              		.loc 1 3203 0
 2948 0072 038C     		ldrh	r3, [r0, #32]
 2949 0074 23F00103 		bic	r3, r3, #1
 2950 0078 1B04     		lsls	r3, r3, #16
 2951 007a 1B0C     		lsrs	r3, r3, #16
 2952 007c 0384     		strh	r3, [r0, #32]	@ movhi
 2953              		.loc 1 3204 0
 2954 007e 028B     		ldrh	r2, [r0, #24]
 2955              		.loc 1 3205 0
 2956 0080 038C     		ldrh	r3, [r0, #32]
 2957              		.loc 1 3204 0
 2958 0082 92B2     		uxth	r2, r2
 2959              	.LVL340:
 2960              		.loc 1 3208 0
 2961 0084 22F0F302 		bic	r2, r2, #243
 2962              	.LVL341:
 2963              		.loc 1 3205 0
 2964 0088 9BB2     		uxth	r3, r3
 2965              	.LVL342:
 2966              		.loc 1 3209 0
 2967 008a 42EA0C1C 		orr	ip, r2, ip, lsl #4
 2968              	.LVL343:
ARM GAS  C:\Users\jsyoon\AppData\Local\Temp\ccDGobdh.s 			page 54


 2969              		.loc 1 3212 0
 2970 008e 23F00A03 		bic	r3, r3, #10
 2971              	.LVL344:
 2972              		.loc 1 3213 0
 2973 0092 43F00103 		orr	r3, r3, #1
 2974              		.loc 1 3209 0
 2975 0096 1FFA8CFC 		uxth	ip, ip
 2976              		.loc 1 3213 0
 2977 009a 1E43     		orrs	r6, r6, r3
 2978              	.LVL345:
 2979              		.loc 1 3209 0
 2980 009c 4CEA0707 		orr	r7, ip, r7
 2981              	.LVL346:
 2982              		.loc 1 3216 0
 2983 00a0 0783     		strh	r7, [r0, #24]	@ movhi
 2984              		.loc 1 3217 0
 2985 00a2 0684     		strh	r6, [r0, #32]	@ movhi
 2986              	.LVL347:
 2987              	.LBE78:
 2988              	.LBE77:
 2989              	.LBB79:
 2990              	.LBB80:
 2991              		.loc 1 2098 0
 2992 00a4 038B     		ldrh	r3, [r0, #24]
 2993 00a6 23F00C03 		bic	r3, r3, #12
 2994 00aa 1B04     		lsls	r3, r3, #16
 2995 00ac 1B0C     		lsrs	r3, r3, #16
 2996 00ae 0383     		strh	r3, [r0, #24]	@ movhi
 2997              		.loc 1 2101 0
 2998 00b0 038B     		ldrh	r3, [r0, #24]
 2999 00b2 9BB2     		uxth	r3, r3
 3000 00b4 1943     		orrs	r1, r1, r3
 3001              	.LVL348:
 3002 00b6 0183     		strh	r1, [r0, #24]	@ movhi
 3003              	.LVL349:
 3004              	.LBE80:
 3005              	.LBE79:
 3006              		.loc 1 2021 0
 3007 00b8 F0BC     		pop	{r4, r5, r6, r7}
 3008              	.LVL350:
 3009 00ba 7047     		bx	lr
 3010              	.LVL351:
 3011              	.L142:
 3012              	.LBB81:
 3013              	.LBB72:
 3014              		.loc 1 3203 0
 3015 00bc 22F00102 		bic	r2, r2, #1
 3016 00c0 1204     		lsls	r2, r2, #16
 3017 00c2 120C     		lsrs	r2, r2, #16
 3018 00c4 0284     		strh	r2, [r0, #32]	@ movhi
 3019              		.loc 1 3204 0
 3020 00c6 038B     		ldrh	r3, [r0, #24]
 3021              		.loc 1 3205 0
 3022 00c8 028C     		ldrh	r2, [r0, #32]
 3023              		.loc 1 3204 0
 3024 00ca 9BB2     		uxth	r3, r3
 3025              	.LVL352:
ARM GAS  C:\Users\jsyoon\AppData\Local\Temp\ccDGobdh.s 			page 55


 3026              		.loc 1 3208 0
 3027 00cc 23F0F303 		bic	r3, r3, #243
 3028              	.LVL353:
 3029              		.loc 1 3212 0
 3030 00d0 22F00A02 		bic	r2, r2, #10
 3031              	.LVL354:
 3032              		.loc 1 3209 0
 3033 00d4 43EA0C13 		orr	r3, r3, ip, lsl #4
 3034              		.loc 1 3212 0
 3035 00d8 1204     		lsls	r2, r2, #16
 3036              		.loc 1 3213 0
 3037 00da 45F00105 		orr	r5, r5, #1
 3038              	.LVL355:
 3039              		.loc 1 3209 0
 3040 00de 9BB2     		uxth	r3, r3
 3041              		.loc 1 3212 0
 3042 00e0 120C     		lsrs	r2, r2, #16
 3043              		.loc 1 3209 0
 3044 00e2 1C43     		orrs	r4, r4, r3
 3045              	.LVL356:
 3046              		.loc 1 3213 0
 3047 00e4 2A43     		orrs	r2, r2, r5
 3048              	.LVL357:
 3049              		.loc 1 3216 0
 3050 00e6 0483     		strh	r4, [r0, #24]	@ movhi
 3051              		.loc 1 3217 0
 3052 00e8 0284     		strh	r2, [r0, #32]	@ movhi
 3053              	.LBE72:
 3054              	.LBE81:
 3055              	.LBB82:
 3056              	.LBB83:
 3057              		.loc 1 2098 0
 3058 00ea 028B     		ldrh	r2, [r0, #24]
 3059              	.LVL358:
 3060 00ec 22F00C02 		bic	r2, r2, #12
 3061 00f0 1204     		lsls	r2, r2, #16
 3062 00f2 120C     		lsrs	r2, r2, #16
 3063 00f4 0283     		strh	r2, [r0, #24]	@ movhi
 3064              		.loc 1 2101 0
 3065 00f6 038B     		ldrh	r3, [r0, #24]
 3066 00f8 9BB2     		uxth	r3, r3
 3067 00fa 0B43     		orrs	r3, r3, r1
 3068 00fc 0383     		strh	r3, [r0, #24]	@ movhi
 3069              	.LVL359:
 3070              	.LBE83:
 3071              	.LBE82:
 3072              	.LBB84:
 3073              	.LBB85:
 3074              		.loc 1 3244 0
 3075 00fe 028C     		ldrh	r2, [r0, #32]
 3076 0100 22F01002 		bic	r2, r2, #16
 3077 0104 1204     		lsls	r2, r2, #16
 3078 0106 120C     		lsrs	r2, r2, #16
 3079 0108 0284     		strh	r2, [r0, #32]	@ movhi
 3080              		.loc 1 3245 0
 3081 010a 038B     		ldrh	r3, [r0, #24]
 3082              	.LVL360:
ARM GAS  C:\Users\jsyoon\AppData\Local\Temp\ccDGobdh.s 			page 56


 3083              		.loc 1 3246 0
 3084 010c 028C     		ldrh	r2, [r0, #32]
 3085              		.loc 1 3250 0
 3086 010e 23F44073 		bic	r3, r3, #768
 3087              	.LVL361:
 3088 0112 1B05     		lsls	r3, r3, #20
 3089 0114 1B0D     		lsrs	r3, r3, #20
 3090              		.loc 1 3246 0
 3091 0116 92B2     		uxth	r2, r2
 3092              	.LVL362:
 3093              		.loc 1 3251 0
 3094 0118 43EA0C33 		orr	r3, r3, ip, lsl #12
 3095              	.LVL363:
 3096              		.loc 1 3255 0
 3097 011c 22F0A002 		bic	r2, r2, #160
 3098              	.LVL364:
 3099              		.loc 1 3251 0
 3100 0120 9BB2     		uxth	r3, r3
 3101              	.LVL365:
 3102              		.loc 1 3256 0
 3103 0122 42F01002 		orr	r2, r2, #16
 3104              		.loc 1 3252 0
 3105 0126 43EA0727 		orr	r7, r3, r7, lsl #8
 3106              	.LVL366:
 3107              		.loc 1 3256 0
 3108 012a 42EA0616 		orr	r6, r2, r6, lsl #4
 3109              	.LVL367:
 3110              		.loc 1 3259 0
 3111 012e 0783     		strh	r7, [r0, #24]	@ movhi
 3112              		.loc 1 3260 0
 3113 0130 0684     		strh	r6, [r0, #32]	@ movhi
 3114              	.LVL368:
 3115              	.LBE85:
 3116              	.LBE84:
 3117              	.LBB86:
 3118              	.LBB87:
 3119              		.loc 1 2123 0
 3120 0132 038B     		ldrh	r3, [r0, #24]
 3121 0134 23F44063 		bic	r3, r3, #3072
 3122 0138 1B04     		lsls	r3, r3, #16
 3123 013a 1B0C     		lsrs	r3, r3, #16
 3124 013c 0383     		strh	r3, [r0, #24]	@ movhi
 3125              		.loc 1 2126 0
 3126 013e 038B     		ldrh	r3, [r0, #24]
 3127 0140 9BB2     		uxth	r3, r3
 3128 0142 43EA0121 		orr	r1, r3, r1, lsl #8
 3129              	.LVL369:
 3130 0146 89B2     		uxth	r1, r1
 3131 0148 0183     		strh	r1, [r0, #24]	@ movhi
 3132              	.LVL370:
 3133              	.LBE87:
 3134              	.LBE86:
 3135              		.loc 1 2021 0
 3136 014a F0BC     		pop	{r4, r5, r6, r7}
 3137              	.LVL371:
 3138 014c 7047     		bx	lr
 3139              		.cfi_endproc
ARM GAS  C:\Users\jsyoon\AppData\Local\Temp\ccDGobdh.s 			page 57


 3140              	.LFE163:
 3141              		.size	TIM_PWMIConfig, .-TIM_PWMIConfig
 3142 014e 00BF     		.section	.text.TIM_GetCapture1,"ax",%progbits
 3143              		.align	2
 3144              		.p2align 4,,15
 3145              		.global	TIM_GetCapture1
 3146              		.thumb
 3147              		.thumb_func
 3148              		.type	TIM_GetCapture1, %function
 3149              	TIM_GetCapture1:
 3150              	.LFB164:
 3151              		.loc 1 2029 0
 3152              		.cfi_startproc
 3153              		@ args = 0, pretend = 0, frame = 0
 3154              		@ frame_needed = 0, uses_anonymous_args = 0
 3155              		@ link register save eliminated.
 3156              	.LVL372:
 3157              		.loc 1 2034 0
 3158 0000 406B     		ldr	r0, [r0, #52]
 3159              	.LVL373:
 3160              		.loc 1 2035 0
 3161 0002 7047     		bx	lr
 3162              		.cfi_endproc
 3163              	.LFE164:
 3164              		.size	TIM_GetCapture1, .-TIM_GetCapture1
 3165 0004 AFF30080 		.section	.text.TIM_GetCapture2,"ax",%progbits
 3165      AFF30080 
 3165      AFF30080 
 3166              		.align	2
 3167              		.p2align 4,,15
 3168              		.global	TIM_GetCapture2
 3169              		.thumb
 3170              		.thumb_func
 3171              		.type	TIM_GetCapture2, %function
 3172              	TIM_GetCapture2:
 3173              	.LFB165:
 3174              		.loc 1 2044 0
 3175              		.cfi_startproc
 3176              		@ args = 0, pretend = 0, frame = 0
 3177              		@ frame_needed = 0, uses_anonymous_args = 0
 3178              		@ link register save eliminated.
 3179              	.LVL374:
 3180              		.loc 1 2049 0
 3181 0000 806B     		ldr	r0, [r0, #56]
 3182              	.LVL375:
 3183              		.loc 1 2050 0
 3184 0002 7047     		bx	lr
 3185              		.cfi_endproc
 3186              	.LFE165:
 3187              		.size	TIM_GetCapture2, .-TIM_GetCapture2
 3188 0004 AFF30080 		.section	.text.TIM_GetCapture3,"ax",%progbits
 3188      AFF30080 
 3188      AFF30080 
 3189              		.align	2
 3190              		.p2align 4,,15
 3191              		.global	TIM_GetCapture3
 3192              		.thumb
ARM GAS  C:\Users\jsyoon\AppData\Local\Temp\ccDGobdh.s 			page 58


 3193              		.thumb_func
 3194              		.type	TIM_GetCapture3, %function
 3195              	TIM_GetCapture3:
 3196              	.LFB166:
 3197              		.loc 1 2058 0
 3198              		.cfi_startproc
 3199              		@ args = 0, pretend = 0, frame = 0
 3200              		@ frame_needed = 0, uses_anonymous_args = 0
 3201              		@ link register save eliminated.
 3202              	.LVL376:
 3203              		.loc 1 2063 0
 3204 0000 C06B     		ldr	r0, [r0, #60]
 3205              	.LVL377:
 3206              		.loc 1 2064 0
 3207 0002 7047     		bx	lr
 3208              		.cfi_endproc
 3209              	.LFE166:
 3210              		.size	TIM_GetCapture3, .-TIM_GetCapture3
 3211 0004 AFF30080 		.section	.text.TIM_GetCapture4,"ax",%progbits
 3211      AFF30080 
 3211      AFF30080 
 3212              		.align	2
 3213              		.p2align 4,,15
 3214              		.global	TIM_GetCapture4
 3215              		.thumb
 3216              		.thumb_func
 3217              		.type	TIM_GetCapture4, %function
 3218              	TIM_GetCapture4:
 3219              	.LFB167:
 3220              		.loc 1 2072 0
 3221              		.cfi_startproc
 3222              		@ args = 0, pretend = 0, frame = 0
 3223              		@ frame_needed = 0, uses_anonymous_args = 0
 3224              		@ link register save eliminated.
 3225              	.LVL378:
 3226              		.loc 1 2077 0
 3227 0000 006C     		ldr	r0, [r0, #64]
 3228              	.LVL379:
 3229              		.loc 1 2078 0
 3230 0002 7047     		bx	lr
 3231              		.cfi_endproc
 3232              	.LFE167:
 3233              		.size	TIM_GetCapture4, .-TIM_GetCapture4
 3234 0004 AFF30080 		.section	.text.TIM_SetIC1Prescaler,"ax",%progbits
 3234      AFF30080 
 3234      AFF30080 
 3235              		.align	2
 3236              		.p2align 4,,15
 3237              		.global	TIM_SetIC1Prescaler
 3238              		.thumb
 3239              		.thumb_func
 3240              		.type	TIM_SetIC1Prescaler, %function
 3241              	TIM_SetIC1Prescaler:
 3242              	.LFB168:
 3243              		.loc 1 2092 0
 3244              		.cfi_startproc
 3245              		@ args = 0, pretend = 0, frame = 0
ARM GAS  C:\Users\jsyoon\AppData\Local\Temp\ccDGobdh.s 			page 59


 3246              		@ frame_needed = 0, uses_anonymous_args = 0
 3247              		@ link register save eliminated.
 3248              	.LVL380:
 3249              		.loc 1 2098 0
 3250 0000 038B     		ldrh	r3, [r0, #24]
 3251 0002 23F00C03 		bic	r3, r3, #12
 3252 0006 1B04     		lsls	r3, r3, #16
 3253 0008 1B0C     		lsrs	r3, r3, #16
 3254 000a 0383     		strh	r3, [r0, #24]	@ movhi
 3255              		.loc 1 2101 0
 3256 000c 038B     		ldrh	r3, [r0, #24]
 3257 000e 9BB2     		uxth	r3, r3
 3258 0010 1943     		orrs	r1, r1, r3
 3259              	.LVL381:
 3260 0012 0183     		strh	r1, [r0, #24]	@ movhi
 3261 0014 7047     		bx	lr
 3262              		.cfi_endproc
 3263              	.LFE168:
 3264              		.size	TIM_SetIC1Prescaler, .-TIM_SetIC1Prescaler
 3265 0016 00BFAFF3 		.section	.text.TIM_SetIC2Prescaler,"ax",%progbits
 3265      0080AFF3 
 3265      0080
 3266              		.align	2
 3267              		.p2align 4,,15
 3268              		.global	TIM_SetIC2Prescaler
 3269              		.thumb
 3270              		.thumb_func
 3271              		.type	TIM_SetIC2Prescaler, %function
 3272              	TIM_SetIC2Prescaler:
 3273              	.LFB169:
 3274              		.loc 1 2117 0
 3275              		.cfi_startproc
 3276              		@ args = 0, pretend = 0, frame = 0
 3277              		@ frame_needed = 0, uses_anonymous_args = 0
 3278              		@ link register save eliminated.
 3279              	.LVL382:
 3280              		.loc 1 2123 0
 3281 0000 038B     		ldrh	r3, [r0, #24]
 3282 0002 23F44063 		bic	r3, r3, #3072
 3283 0006 1B04     		lsls	r3, r3, #16
 3284 0008 1B0C     		lsrs	r3, r3, #16
 3285 000a 0383     		strh	r3, [r0, #24]	@ movhi
 3286              		.loc 1 2126 0
 3287 000c 038B     		ldrh	r3, [r0, #24]
 3288 000e 9BB2     		uxth	r3, r3
 3289 0010 43EA0121 		orr	r1, r3, r1, lsl #8
 3290              	.LVL383:
 3291 0014 8BB2     		uxth	r3, r1
 3292 0016 0383     		strh	r3, [r0, #24]	@ movhi
 3293 0018 7047     		bx	lr
 3294              		.cfi_endproc
 3295              	.LFE169:
 3296              		.size	TIM_SetIC2Prescaler, .-TIM_SetIC2Prescaler
 3297 001a 00BFAFF3 		.section	.text.TIM_SetIC3Prescaler,"ax",%progbits
 3297      0080
 3298              		.align	2
 3299              		.p2align 4,,15
ARM GAS  C:\Users\jsyoon\AppData\Local\Temp\ccDGobdh.s 			page 60


 3300              		.global	TIM_SetIC3Prescaler
 3301              		.thumb
 3302              		.thumb_func
 3303              		.type	TIM_SetIC3Prescaler, %function
 3304              	TIM_SetIC3Prescaler:
 3305              	.LFB170:
 3306              		.loc 1 2141 0
 3307              		.cfi_startproc
 3308              		@ args = 0, pretend = 0, frame = 0
 3309              		@ frame_needed = 0, uses_anonymous_args = 0
 3310              		@ link register save eliminated.
 3311              	.LVL384:
 3312              		.loc 1 2147 0
 3313 0000 838B     		ldrh	r3, [r0, #28]
 3314 0002 23F00C03 		bic	r3, r3, #12
 3315 0006 1B04     		lsls	r3, r3, #16
 3316 0008 1B0C     		lsrs	r3, r3, #16
 3317 000a 8383     		strh	r3, [r0, #28]	@ movhi
 3318              		.loc 1 2150 0
 3319 000c 838B     		ldrh	r3, [r0, #28]
 3320 000e 9BB2     		uxth	r3, r3
 3321 0010 1943     		orrs	r1, r1, r3
 3322              	.LVL385:
 3323 0012 8183     		strh	r1, [r0, #28]	@ movhi
 3324 0014 7047     		bx	lr
 3325              		.cfi_endproc
 3326              	.LFE170:
 3327              		.size	TIM_SetIC3Prescaler, .-TIM_SetIC3Prescaler
 3328 0016 00BFAFF3 		.section	.text.TIM_SetIC4Prescaler,"ax",%progbits
 3328      0080AFF3 
 3328      0080
 3329              		.align	2
 3330              		.p2align 4,,15
 3331              		.global	TIM_SetIC4Prescaler
 3332              		.thumb
 3333              		.thumb_func
 3334              		.type	TIM_SetIC4Prescaler, %function
 3335              	TIM_SetIC4Prescaler:
 3336              	.LFB171:
 3337              		.loc 1 2165 0
 3338              		.cfi_startproc
 3339              		@ args = 0, pretend = 0, frame = 0
 3340              		@ frame_needed = 0, uses_anonymous_args = 0
 3341              		@ link register save eliminated.
 3342              	.LVL386:
 3343              		.loc 1 2171 0
 3344 0000 838B     		ldrh	r3, [r0, #28]
 3345 0002 23F44063 		bic	r3, r3, #3072
 3346 0006 1B04     		lsls	r3, r3, #16
 3347 0008 1B0C     		lsrs	r3, r3, #16
 3348 000a 8383     		strh	r3, [r0, #28]	@ movhi
 3349              		.loc 1 2174 0
 3350 000c 838B     		ldrh	r3, [r0, #28]
 3351 000e 9BB2     		uxth	r3, r3
 3352 0010 43EA0121 		orr	r1, r3, r1, lsl #8
 3353              	.LVL387:
 3354 0014 8BB2     		uxth	r3, r1
ARM GAS  C:\Users\jsyoon\AppData\Local\Temp\ccDGobdh.s 			page 61


 3355 0016 8383     		strh	r3, [r0, #28]	@ movhi
 3356 0018 7047     		bx	lr
 3357              		.cfi_endproc
 3358              	.LFE171:
 3359              		.size	TIM_SetIC4Prescaler, .-TIM_SetIC4Prescaler
 3360 001a 00BFAFF3 		.section	.text.TIM_BDTRConfig,"ax",%progbits
 3360      0080
 3361              		.align	2
 3362              		.p2align 4,,15
 3363              		.global	TIM_BDTRConfig
 3364              		.thumb
 3365              		.thumb_func
 3366              		.type	TIM_BDTRConfig, %function
 3367              	TIM_BDTRConfig:
 3368              	.LFB172:
 3369              		.loc 1 2218 0
 3370              		.cfi_startproc
 3371              		@ args = 0, pretend = 0, frame = 0
 3372              		@ frame_needed = 0, uses_anonymous_args = 0
 3373              		@ link register save eliminated.
 3374              	.LVL388:
 3375              		.loc 1 2230 0
 3376 0000 B1F802C0 		ldrh	ip, [r1, #2]
 3377 0004 0B88     		ldrh	r3, [r1]
 3378 0006 8A89     		ldrh	r2, [r1, #12]
 3379              		.loc 1 2218 0
 3380 0008 F0B4     		push	{r4, r5, r6, r7}
 3381              		.cfi_def_cfa_offset 16
 3382              		.cfi_offset 4, -16
 3383              		.cfi_offset 5, -12
 3384              		.cfi_offset 6, -8
 3385              		.cfi_offset 7, -4
 3386              		.loc 1 2230 0
 3387 000a 8F88     		ldrh	r7, [r1, #4]
 3388 000c CE88     		ldrh	r6, [r1, #6]
 3389 000e 0D89     		ldrh	r5, [r1, #8]
 3390 0010 4C89     		ldrh	r4, [r1, #10]
 3391 0012 4CEA0303 		orr	r3, ip, r3
 3392 0016 3B43     		orrs	r3, r3, r7
 3393 0018 3343     		orrs	r3, r3, r6
 3394 001a 2B43     		orrs	r3, r3, r5
 3395 001c 2343     		orrs	r3, r3, r4
 3396 001e 1343     		orrs	r3, r3, r2
 3397 0020 9BB2     		uxth	r3, r3
 3398 0022 A0F84430 		strh	r3, [r0, #68]	@ movhi
 3399              		.loc 1 2234 0
 3400 0026 F0BC     		pop	{r4, r5, r6, r7}
 3401 0028 7047     		bx	lr
 3402              		.cfi_endproc
 3403              	.LFE172:
 3404              		.size	TIM_BDTRConfig, .-TIM_BDTRConfig
 3405 002a 00BFAFF3 		.section	.text.TIM_BDTRStructInit,"ax",%progbits
 3405      0080
 3406              		.align	2
 3407              		.p2align 4,,15
 3408              		.global	TIM_BDTRStructInit
 3409              		.thumb
ARM GAS  C:\Users\jsyoon\AppData\Local\Temp\ccDGobdh.s 			page 62


 3410              		.thumb_func
 3411              		.type	TIM_BDTRStructInit, %function
 3412              	TIM_BDTRStructInit:
 3413              	.LFB173:
 3414              		.loc 1 2243 0
 3415              		.cfi_startproc
 3416              		@ args = 0, pretend = 0, frame = 0
 3417              		@ frame_needed = 0, uses_anonymous_args = 0
 3418              		@ link register save eliminated.
 3419              	.LVL389:
 3420              		.loc 1 2245 0
 3421 0000 0023     		movs	r3, #0
 3422 0002 0380     		strh	r3, [r0]	@ movhi
 3423              		.loc 1 2246 0
 3424 0004 4380     		strh	r3, [r0, #2]	@ movhi
 3425              		.loc 1 2247 0
 3426 0006 8380     		strh	r3, [r0, #4]	@ movhi
 3427              		.loc 1 2248 0
 3428 0008 C380     		strh	r3, [r0, #6]	@ movhi
 3429              		.loc 1 2249 0
 3430 000a 0381     		strh	r3, [r0, #8]	@ movhi
 3431              		.loc 1 2250 0
 3432 000c 4381     		strh	r3, [r0, #10]	@ movhi
 3433              		.loc 1 2251 0
 3434 000e 8381     		strh	r3, [r0, #12]	@ movhi
 3435 0010 7047     		bx	lr
 3436              		.cfi_endproc
 3437              	.LFE173:
 3438              		.size	TIM_BDTRStructInit, .-TIM_BDTRStructInit
 3439 0012 00BFAFF3 		.section	.text.TIM_CtrlPWMOutputs,"ax",%progbits
 3439      0080AFF3 
 3439      0080AFF3 
 3439      0080
 3440              		.align	2
 3441              		.p2align 4,,15
 3442              		.global	TIM_CtrlPWMOutputs
 3443              		.thumb
 3444              		.thumb_func
 3445              		.type	TIM_CtrlPWMOutputs, %function
 3446              	TIM_CtrlPWMOutputs:
 3447              	.LFB174:
 3448              		.loc 1 2262 0
 3449              		.cfi_startproc
 3450              		@ args = 0, pretend = 0, frame = 0
 3451              		@ frame_needed = 0, uses_anonymous_args = 0
 3452              		@ link register save eliminated.
 3453              	.LVL390:
 3454              		.loc 1 2270 0
 3455 0000 B0F84430 		ldrh	r3, [r0, #68]
 3456              		.loc 1 2267 0
 3457 0004 21B9     		cbnz	r1, .L156
 3458              		.loc 1 2275 0
 3459 0006 C3F30E03 		ubfx	r3, r3, #0, #15
 3460 000a A0F84430 		strh	r3, [r0, #68]	@ movhi
 3461 000e 7047     		bx	lr
 3462              	.L156:
 3463              		.loc 1 2270 0
ARM GAS  C:\Users\jsyoon\AppData\Local\Temp\ccDGobdh.s 			page 63


 3464 0010 6FEA4343 		mvn	r3, r3, lsl #17
 3465 0014 6FEA5343 		mvn	r3, r3, lsr #17
 3466 0018 9BB2     		uxth	r3, r3
 3467 001a A0F84430 		strh	r3, [r0, #68]	@ movhi
 3468 001e 7047     		bx	lr
 3469              		.cfi_endproc
 3470              	.LFE174:
 3471              		.size	TIM_CtrlPWMOutputs, .-TIM_CtrlPWMOutputs
 3472              		.section	.text.TIM_SelectCOM,"ax",%progbits
 3473              		.align	2
 3474              		.p2align 4,,15
 3475              		.global	TIM_SelectCOM
 3476              		.thumb
 3477              		.thumb_func
 3478              		.type	TIM_SelectCOM, %function
 3479              	TIM_SelectCOM:
 3480              	.LFB175:
 3481              		.loc 1 2287 0
 3482              		.cfi_startproc
 3483              		@ args = 0, pretend = 0, frame = 0
 3484              		@ frame_needed = 0, uses_anonymous_args = 0
 3485              		@ link register save eliminated.
 3486              	.LVL391:
 3487              		.loc 1 2295 0
 3488 0000 8388     		ldrh	r3, [r0, #4]
 3489              		.loc 1 2292 0
 3490 0002 29B9     		cbnz	r1, .L160
 3491              		.loc 1 2300 0
 3492 0004 23F00403 		bic	r3, r3, #4
 3493 0008 1B04     		lsls	r3, r3, #16
 3494 000a 1B0C     		lsrs	r3, r3, #16
 3495 000c 8380     		strh	r3, [r0, #4]	@ movhi
 3496 000e 7047     		bx	lr
 3497              	.L160:
 3498              		.loc 1 2295 0
 3499 0010 9BB2     		uxth	r3, r3
 3500 0012 43F00403 		orr	r3, r3, #4
 3501 0016 8380     		strh	r3, [r0, #4]	@ movhi
 3502 0018 7047     		bx	lr
 3503              		.cfi_endproc
 3504              	.LFE175:
 3505              		.size	TIM_SelectCOM, .-TIM_SelectCOM
 3506 001a 00BFAFF3 		.section	.text.TIM_CCPreloadControl,"ax",%progbits
 3506      0080
 3507              		.align	2
 3508              		.p2align 4,,15
 3509              		.global	TIM_CCPreloadControl
 3510              		.thumb
 3511              		.thumb_func
 3512              		.type	TIM_CCPreloadControl, %function
 3513              	TIM_CCPreloadControl:
 3514              	.LFB176:
 3515              		.loc 1 2312 0
 3516              		.cfi_startproc
 3517              		@ args = 0, pretend = 0, frame = 0
 3518              		@ frame_needed = 0, uses_anonymous_args = 0
 3519              		@ link register save eliminated.
ARM GAS  C:\Users\jsyoon\AppData\Local\Temp\ccDGobdh.s 			page 64


 3520              	.LVL392:
 3521              		.loc 1 2319 0
 3522 0000 8388     		ldrh	r3, [r0, #4]
 3523              		.loc 1 2316 0
 3524 0002 29B9     		cbnz	r1, .L164
 3525              		.loc 1 2324 0
 3526 0004 23F00103 		bic	r3, r3, #1
 3527 0008 1B04     		lsls	r3, r3, #16
 3528 000a 1B0C     		lsrs	r3, r3, #16
 3529 000c 8380     		strh	r3, [r0, #4]	@ movhi
 3530 000e 7047     		bx	lr
 3531              	.L164:
 3532              		.loc 1 2319 0
 3533 0010 9BB2     		uxth	r3, r3
 3534 0012 43F00103 		orr	r3, r3, #1
 3535 0016 8380     		strh	r3, [r0, #4]	@ movhi
 3536 0018 7047     		bx	lr
 3537              		.cfi_endproc
 3538              	.LFE176:
 3539              		.size	TIM_CCPreloadControl, .-TIM_CCPreloadControl
 3540 001a 00BFAFF3 		.section	.text.TIM_ITConfig,"ax",%progbits
 3540      0080
 3541              		.align	2
 3542              		.p2align 4,,15
 3543              		.global	TIM_ITConfig
 3544              		.thumb
 3545              		.thumb_func
 3546              		.type	TIM_ITConfig, %function
 3547              	TIM_ITConfig:
 3548              	.LFB177:
 3549              		.loc 1 2369 0
 3550              		.cfi_startproc
 3551              		@ args = 0, pretend = 0, frame = 0
 3552              		@ frame_needed = 0, uses_anonymous_args = 0
 3553              		@ link register save eliminated.
 3554              	.LVL393:
 3555              		.loc 1 2378 0
 3556 0000 8389     		ldrh	r3, [r0, #12]
 3557 0002 9BB2     		uxth	r3, r3
 3558              		.loc 1 2375 0
 3559 0004 1AB9     		cbnz	r2, .L168
 3560              		.loc 1 2383 0
 3561 0006 23EA0101 		bic	r1, r3, r1
 3562              	.LVL394:
 3563 000a 8181     		strh	r1, [r0, #12]	@ movhi
 3564 000c 7047     		bx	lr
 3565              	.LVL395:
 3566              	.L168:
 3567              		.loc 1 2378 0
 3568 000e 1943     		orrs	r1, r1, r3
 3569              	.LVL396:
 3570 0010 8181     		strh	r1, [r0, #12]	@ movhi
 3571 0012 7047     		bx	lr
 3572              		.cfi_endproc
 3573              	.LFE177:
 3574              		.size	TIM_ITConfig, .-TIM_ITConfig
 3575 0014 AFF30080 		.section	.text.TIM_GenerateEvent,"ax",%progbits
ARM GAS  C:\Users\jsyoon\AppData\Local\Temp\ccDGobdh.s 			page 65


 3575      AFF30080 
 3575      AFF30080 
 3576              		.align	2
 3577              		.p2align 4,,15
 3578              		.global	TIM_GenerateEvent
 3579              		.thumb
 3580              		.thumb_func
 3581              		.type	TIM_GenerateEvent, %function
 3582              	TIM_GenerateEvent:
 3583              	.LFB178:
 3584              		.loc 1 2407 0
 3585              		.cfi_startproc
 3586              		@ args = 0, pretend = 0, frame = 0
 3587              		@ frame_needed = 0, uses_anonymous_args = 0
 3588              		@ link register save eliminated.
 3589              	.LVL397:
 3590              		.loc 1 2413 0
 3591 0000 8182     		strh	r1, [r0, #20]	@ movhi
 3592 0002 7047     		bx	lr
 3593              		.cfi_endproc
 3594              	.LFE178:
 3595              		.size	TIM_GenerateEvent, .-TIM_GenerateEvent
 3596 0004 AFF30080 		.section	.text.TIM_GetFlagStatus,"ax",%progbits
 3596      AFF30080 
 3596      AFF30080 
 3597              		.align	2
 3598              		.p2align 4,,15
 3599              		.global	TIM_GetFlagStatus
 3600              		.thumb
 3601              		.thumb_func
 3602              		.type	TIM_GetFlagStatus, %function
 3603              	TIM_GetFlagStatus:
 3604              	.LFB179:
 3605              		.loc 1 2440 0
 3606              		.cfi_startproc
 3607              		@ args = 0, pretend = 0, frame = 0
 3608              		@ frame_needed = 0, uses_anonymous_args = 0
 3609              		@ link register save eliminated.
 3610              	.LVL398:
 3611              		.loc 1 2447 0
 3612 0000 038A     		ldrh	r3, [r0, #16]
 3613              	.LVL399:
 3614 0002 1942     		tst	r1, r3
 3615              		.loc 1 2456 0
 3616 0004 0CBF     		ite	eq
 3617 0006 0020     		moveq	r0, #0
 3618 0008 0120     		movne	r0, #1
 3619              	.LVL400:
 3620 000a 7047     		bx	lr
 3621              		.cfi_endproc
 3622              	.LFE179:
 3623              		.size	TIM_GetFlagStatus, .-TIM_GetFlagStatus
 3624 000c AFF30080 		.section	.text.TIM_ClearFlag,"ax",%progbits
 3625              		.align	2
 3626              		.p2align 4,,15
 3627              		.global	TIM_ClearFlag
 3628              		.thumb
ARM GAS  C:\Users\jsyoon\AppData\Local\Temp\ccDGobdh.s 			page 66


 3629              		.thumb_func
 3630              		.type	TIM_ClearFlag, %function
 3631              	TIM_ClearFlag:
 3632              	.LFB180:
 3633              		.loc 1 2482 0
 3634              		.cfi_startproc
 3635              		@ args = 0, pretend = 0, frame = 0
 3636              		@ frame_needed = 0, uses_anonymous_args = 0
 3637              		@ link register save eliminated.
 3638              	.LVL401:
 3639              		.loc 1 2487 0
 3640 0000 C943     		mvns	r1, r1
 3641              	.LVL402:
 3642 0002 89B2     		uxth	r1, r1
 3643 0004 0182     		strh	r1, [r0, #16]	@ movhi
 3644 0006 7047     		bx	lr
 3645              		.cfi_endproc
 3646              	.LFE180:
 3647              		.size	TIM_ClearFlag, .-TIM_ClearFlag
 3648 0008 AFF30080 		.section	.text.TIM_GetITStatus,"ax",%progbits
 3648      AFF30080 
 3649              		.align	2
 3650              		.p2align 4,,15
 3651              		.global	TIM_GetITStatus
 3652              		.thumb
 3653              		.thumb_func
 3654              		.type	TIM_GetITStatus, %function
 3655              	TIM_GetITStatus:
 3656              	.LFB181:
 3657              		.loc 1 2510 0
 3658              		.cfi_startproc
 3659              		@ args = 0, pretend = 0, frame = 0
 3660              		@ frame_needed = 0, uses_anonymous_args = 0
 3661              		@ link register save eliminated.
 3662              	.LVL403:
 3663              		.loc 1 2517 0
 3664 0000 038A     		ldrh	r3, [r0, #16]
 3665              	.LVL404:
 3666              		.loc 1 2519 0
 3667 0002 8289     		ldrh	r2, [r0, #12]
 3668              		.loc 1 2520 0
 3669 0004 11EA0300 		ands	r0, r1, r3
 3670              	.LVL405:
 3671              		.loc 1 2519 0
 3672 0008 92B2     		uxth	r2, r2
 3673              	.LVL406:
 3674              		.loc 1 2520 0
 3675 000a 03D0     		beq	.L173
 3676              		.loc 1 2520 0 is_stmt 0 discriminator 1
 3677 000c 1142     		tst	r1, r2
 3678              		.loc 1 2522 0 is_stmt 1 discriminator 1
 3679 000e 0CBF     		ite	eq
 3680 0010 0020     		moveq	r0, #0
 3681 0012 0120     		movne	r0, #1
 3682              	.L173:
 3683              	.LVL407:
 3684              		.loc 1 2529 0
ARM GAS  C:\Users\jsyoon\AppData\Local\Temp\ccDGobdh.s 			page 67


 3685 0014 7047     		bx	lr
 3686              		.cfi_endproc
 3687              	.LFE181:
 3688              		.size	TIM_GetITStatus, .-TIM_GetITStatus
 3689 0016 00BFAFF3 		.section	.text.TIM_ClearITPendingBit,"ax",%progbits
 3689      0080AFF3 
 3689      0080
 3690              		.align	2
 3691              		.p2align 4,,15
 3692              		.global	TIM_ClearITPendingBit
 3693              		.thumb
 3694              		.thumb_func
 3695              		.type	TIM_ClearITPendingBit, %function
 3696              	TIM_ClearITPendingBit:
 3697              	.LFB182:
 3698              		.loc 1 2551 0
 3699              		.cfi_startproc
 3700              		@ args = 0, pretend = 0, frame = 0
 3701              		@ frame_needed = 0, uses_anonymous_args = 0
 3702              		@ link register save eliminated.
 3703              	.LVL408:
 3704              		.loc 1 2556 0
 3705 0000 C943     		mvns	r1, r1
 3706              	.LVL409:
 3707 0002 89B2     		uxth	r1, r1
 3708 0004 0182     		strh	r1, [r0, #16]	@ movhi
 3709 0006 7047     		bx	lr
 3710              		.cfi_endproc
 3711              	.LFE182:
 3712              		.size	TIM_ClearITPendingBit, .-TIM_ClearITPendingBit
 3713 0008 AFF30080 		.section	.text.TIM_DMAConfig,"ax",%progbits
 3713      AFF30080 
 3714              		.align	2
 3715              		.p2align 4,,15
 3716              		.global	TIM_DMAConfig
 3717              		.thumb
 3718              		.thumb_func
 3719              		.type	TIM_DMAConfig, %function
 3720              	TIM_DMAConfig:
 3721              	.LFB183:
 3722              		.loc 1 2588 0
 3723              		.cfi_startproc
 3724              		@ args = 0, pretend = 0, frame = 0
 3725              		@ frame_needed = 0, uses_anonymous_args = 0
 3726              		@ link register save eliminated.
 3727              	.LVL410:
 3728              		.loc 1 2595 0
 3729 0000 0A43     		orrs	r2, r2, r1
 3730              	.LVL411:
 3731 0002 A0F84820 		strh	r2, [r0, #72]	@ movhi
 3732 0006 7047     		bx	lr
 3733              		.cfi_endproc
 3734              	.LFE183:
 3735              		.size	TIM_DMAConfig, .-TIM_DMAConfig
 3736 0008 AFF30080 		.section	.text.TIM_DMACmd,"ax",%progbits
 3736      AFF30080 
 3737              		.align	2
ARM GAS  C:\Users\jsyoon\AppData\Local\Temp\ccDGobdh.s 			page 68


 3738              		.p2align 4,,15
 3739              		.global	TIM_DMACmd
 3740              		.thumb
 3741              		.thumb_func
 3742              		.type	TIM_DMACmd, %function
 3743              	TIM_DMACmd:
 3744              	.LFB184:
 3745              		.loc 1 2615 0
 3746              		.cfi_startproc
 3747              		@ args = 0, pretend = 0, frame = 0
 3748              		@ frame_needed = 0, uses_anonymous_args = 0
 3749              		@ link register save eliminated.
 3750              	.LVL412:
 3751              		.loc 1 2624 0
 3752 0000 8389     		ldrh	r3, [r0, #12]
 3753 0002 9BB2     		uxth	r3, r3
 3754              		.loc 1 2621 0
 3755 0004 1AB9     		cbnz	r2, .L180
 3756              		.loc 1 2629 0
 3757 0006 23EA0101 		bic	r1, r3, r1
 3758              	.LVL413:
 3759 000a 8181     		strh	r1, [r0, #12]	@ movhi
 3760 000c 7047     		bx	lr
 3761              	.LVL414:
 3762              	.L180:
 3763              		.loc 1 2624 0
 3764 000e 1943     		orrs	r1, r1, r3
 3765              	.LVL415:
 3766 0010 8181     		strh	r1, [r0, #12]	@ movhi
 3767 0012 7047     		bx	lr
 3768              		.cfi_endproc
 3769              	.LFE184:
 3770              		.size	TIM_DMACmd, .-TIM_DMACmd
 3771 0014 AFF30080 		.section	.text.TIM_SelectCCDMA,"ax",%progbits
 3771      AFF30080 
 3771      AFF30080 
 3772              		.align	2
 3773              		.p2align 4,,15
 3774              		.global	TIM_SelectCCDMA
 3775              		.thumb
 3776              		.thumb_func
 3777              		.type	TIM_SelectCCDMA, %function
 3778              	TIM_SelectCCDMA:
 3779              	.LFB185:
 3780              		.loc 1 2641 0
 3781              		.cfi_startproc
 3782              		@ args = 0, pretend = 0, frame = 0
 3783              		@ frame_needed = 0, uses_anonymous_args = 0
 3784              		@ link register save eliminated.
 3785              	.LVL416:
 3786              		.loc 1 2649 0
 3787 0000 8388     		ldrh	r3, [r0, #4]
 3788              		.loc 1 2646 0
 3789 0002 29B9     		cbnz	r1, .L184
 3790              		.loc 1 2654 0
 3791 0004 23F00803 		bic	r3, r3, #8
 3792 0008 1B04     		lsls	r3, r3, #16
ARM GAS  C:\Users\jsyoon\AppData\Local\Temp\ccDGobdh.s 			page 69


 3793 000a 1B0C     		lsrs	r3, r3, #16
 3794 000c 8380     		strh	r3, [r0, #4]	@ movhi
 3795 000e 7047     		bx	lr
 3796              	.L184:
 3797              		.loc 1 2649 0
 3798 0010 9BB2     		uxth	r3, r3
 3799 0012 43F00803 		orr	r3, r3, #8
 3800 0016 8380     		strh	r3, [r0, #4]	@ movhi
 3801 0018 7047     		bx	lr
 3802              		.cfi_endproc
 3803              	.LFE185:
 3804              		.size	TIM_SelectCCDMA, .-TIM_SelectCCDMA
 3805 001a 00BFAFF3 		.section	.text.TIM_InternalClockConfig,"ax",%progbits
 3805      0080
 3806              		.align	2
 3807              		.p2align 4,,15
 3808              		.global	TIM_InternalClockConfig
 3809              		.thumb
 3810              		.thumb_func
 3811              		.type	TIM_InternalClockConfig, %function
 3812              	TIM_InternalClockConfig:
 3813              	.LFB186:
 3814              		.loc 1 2680 0
 3815              		.cfi_startproc
 3816              		@ args = 0, pretend = 0, frame = 0
 3817              		@ frame_needed = 0, uses_anonymous_args = 0
 3818              		@ link register save eliminated.
 3819              	.LVL417:
 3820              		.loc 1 2685 0
 3821 0000 0389     		ldrh	r3, [r0, #8]
 3822 0002 23F00703 		bic	r3, r3, #7
 3823 0006 1B04     		lsls	r3, r3, #16
 3824 0008 1B0C     		lsrs	r3, r3, #16
 3825 000a 0381     		strh	r3, [r0, #8]	@ movhi
 3826 000c 7047     		bx	lr
 3827              		.cfi_endproc
 3828              	.LFE186:
 3829              		.size	TIM_InternalClockConfig, .-TIM_InternalClockConfig
 3830 000e 00BF     		.section	.text.TIM_ITRxExternalClockConfig,"ax",%progbits
 3831              		.align	2
 3832              		.p2align 4,,15
 3833              		.global	TIM_ITRxExternalClockConfig
 3834              		.thumb
 3835              		.thumb_func
 3836              		.type	TIM_ITRxExternalClockConfig, %function
 3837              	TIM_ITRxExternalClockConfig:
 3838              	.LFB187:
 3839              		.loc 1 2701 0
 3840              		.cfi_startproc
 3841              		@ args = 0, pretend = 0, frame = 0
 3842              		@ frame_needed = 0, uses_anonymous_args = 0
 3843              		@ link register save eliminated.
 3844              	.LVL418:
 3845              	.LBB88:
 3846              	.LBB89:
 3847              		.loc 1 2894 0
 3848 0000 0389     		ldrh	r3, [r0, #8]
ARM GAS  C:\Users\jsyoon\AppData\Local\Temp\ccDGobdh.s 			page 70


 3849              	.LVL419:
 3850              		.loc 1 2897 0
 3851 0002 23F07003 		bic	r3, r3, #112
 3852              	.LVL420:
 3853 0006 1B04     		lsls	r3, r3, #16
 3854 0008 1B0C     		lsrs	r3, r3, #16
 3855              	.LVL421:
 3856              		.loc 1 2900 0
 3857 000a 1943     		orrs	r1, r1, r3
 3858              	.LVL422:
 3859              		.loc 1 2903 0
 3860 000c 0181     		strh	r1, [r0, #8]	@ movhi
 3861              	.LBE89:
 3862              	.LBE88:
 3863              		.loc 1 2710 0
 3864 000e 0389     		ldrh	r3, [r0, #8]
 3865 0010 9BB2     		uxth	r3, r3
 3866 0012 43F00703 		orr	r3, r3, #7
 3867 0016 0381     		strh	r3, [r0, #8]	@ movhi
 3868 0018 7047     		bx	lr
 3869              		.cfi_endproc
 3870              	.LFE187:
 3871              		.size	TIM_ITRxExternalClockConfig, .-TIM_ITRxExternalClockConfig
 3872 001a 00BFAFF3 		.section	.text.TIM_TIxExternalClockConfig,"ax",%progbits
 3872      0080
 3873              		.align	2
 3874              		.p2align 4,,15
 3875              		.global	TIM_TIxExternalClockConfig
 3876              		.thumb
 3877              		.thumb_func
 3878              		.type	TIM_TIxExternalClockConfig, %function
 3879              	TIM_TIxExternalClockConfig:
 3880              	.LFB188:
 3881              		.loc 1 2732 0
 3882              		.cfi_startproc
 3883              		@ args = 0, pretend = 0, frame = 0
 3884              		@ frame_needed = 0, uses_anonymous_args = 0
 3885              		@ link register save eliminated.
 3886              	.LVL423:
 3887              		.loc 1 2739 0
 3888 0000 6029     		cmp	r1, #96
 3889              		.loc 1 2732 0
 3890 0002 30B4     		push	{r4, r5}
 3891              		.cfi_def_cfa_offset 8
 3892              		.cfi_offset 4, -8
 3893              		.cfi_offset 5, -4
 3894              	.LBB90:
 3895              	.LBB91:
 3896              		.loc 1 3244 0
 3897 0004 048C     		ldrh	r4, [r0, #32]
 3898              	.LBE91:
 3899              	.LBE90:
 3900              		.loc 1 2739 0
 3901 0006 24D0     		beq	.L190
 3902              	.LVL424:
 3903              	.LBB93:
 3904              	.LBB94:
ARM GAS  C:\Users\jsyoon\AppData\Local\Temp\ccDGobdh.s 			page 71


 3905              		.loc 1 3203 0
 3906 0008 24F00104 		bic	r4, r4, #1
 3907 000c 2404     		lsls	r4, r4, #16
 3908 000e 240C     		lsrs	r4, r4, #16
 3909 0010 0484     		strh	r4, [r0, #32]	@ movhi
 3910              		.loc 1 3204 0
 3911 0012 058B     		ldrh	r5, [r0, #24]
 3912              		.loc 1 3205 0
 3913 0014 048C     		ldrh	r4, [r0, #32]
 3914              		.loc 1 3204 0
 3915 0016 ADB2     		uxth	r5, r5
 3916              	.LVL425:
 3917              		.loc 1 3208 0
 3918 0018 25F0F305 		bic	r5, r5, #243
 3919              	.LVL426:
 3920              		.loc 1 3205 0
 3921 001c A4B2     		uxth	r4, r4
 3922              	.LVL427:
 3923              		.loc 1 3209 0
 3924 001e 45F00105 		orr	r5, r5, #1
 3925              		.loc 1 3212 0
 3926 0022 24F00A04 		bic	r4, r4, #10
 3927              	.LVL428:
 3928              		.loc 1 3209 0
 3929 0026 45EA0313 		orr	r3, r5, r3, lsl #4
 3930              	.LVL429:
 3931              		.loc 1 3213 0
 3932 002a 44F00104 		orr	r4, r4, #1
 3933              		.loc 1 3209 0
 3934 002e 9BB2     		uxth	r3, r3
 3935              	.LVL430:
 3936              		.loc 1 3213 0
 3937 0030 2243     		orrs	r2, r2, r4
 3938              	.LVL431:
 3939              		.loc 1 3216 0
 3940 0032 0383     		strh	r3, [r0, #24]	@ movhi
 3941              		.loc 1 3217 0
 3942 0034 0284     		strh	r2, [r0, #32]	@ movhi
 3943              	.LVL432:
 3944              	.L189:
 3945              	.LBE94:
 3946              	.LBE93:
 3947              	.LBB95:
 3948              	.LBB96:
 3949              		.loc 1 2894 0
 3950 0036 0389     		ldrh	r3, [r0, #8]
 3951              	.LVL433:
 3952              		.loc 1 2897 0
 3953 0038 23F07003 		bic	r3, r3, #112
 3954              	.LVL434:
 3955 003c 1B04     		lsls	r3, r3, #16
 3956 003e 1B0C     		lsrs	r3, r3, #16
 3957              	.LVL435:
 3958              		.loc 1 2900 0
 3959 0040 0B43     		orrs	r3, r3, r1
 3960              	.LVL436:
 3961              		.loc 1 2903 0
ARM GAS  C:\Users\jsyoon\AppData\Local\Temp\ccDGobdh.s 			page 72


 3962 0042 0381     		strh	r3, [r0, #8]	@ movhi
 3963              	.LBE96:
 3964              	.LBE95:
 3965              		.loc 1 2750 0
 3966 0044 0389     		ldrh	r3, [r0, #8]
 3967              	.LVL437:
 3968 0046 9BB2     		uxth	r3, r3
 3969 0048 43F00703 		orr	r3, r3, #7
 3970 004c 0381     		strh	r3, [r0, #8]	@ movhi
 3971              		.loc 1 2751 0
 3972 004e 30BC     		pop	{r4, r5}
 3973 0050 7047     		bx	lr
 3974              	.LVL438:
 3975              	.L190:
 3976              	.LBB97:
 3977              	.LBB92:
 3978              		.loc 1 3244 0
 3979 0052 24F01004 		bic	r4, r4, #16
 3980 0056 2404     		lsls	r4, r4, #16
 3981 0058 240C     		lsrs	r4, r4, #16
 3982 005a 0484     		strh	r4, [r0, #32]	@ movhi
 3983              		.loc 1 3245 0
 3984 005c 048B     		ldrh	r4, [r0, #24]
 3985              	.LVL439:
 3986              		.loc 1 3246 0
 3987 005e 058C     		ldrh	r5, [r0, #32]
 3988              		.loc 1 3250 0
 3989 0060 24F44074 		bic	r4, r4, #768
 3990              	.LVL440:
 3991 0064 2405     		lsls	r4, r4, #20
 3992              		.loc 1 3246 0
 3993 0066 ADB2     		uxth	r5, r5
 3994              	.LVL441:
 3995              		.loc 1 3250 0
 3996 0068 240D     		lsrs	r4, r4, #20
 3997              	.LVL442:
 3998              		.loc 1 3255 0
 3999 006a 25F0A005 		bic	r5, r5, #160
 4000              	.LVL443:
 4001              		.loc 1 3251 0
 4002 006e 44F48074 		orr	r4, r4, #256
 4003              	.LVL444:
 4004              		.loc 1 3256 0
 4005 0072 45F01005 		orr	r5, r5, #16
 4006              		.loc 1 3252 0
 4007 0076 44EA0333 		orr	r3, r4, r3, lsl #12
 4008              	.LVL445:
 4009              		.loc 1 3256 0
 4010 007a 45EA0212 		orr	r2, r5, r2, lsl #4
 4011              	.LVL446:
 4012              		.loc 1 3252 0
 4013 007e 9BB2     		uxth	r3, r3
 4014              	.LVL447:
 4015              		.loc 1 3256 0
 4016 0080 92B2     		uxth	r2, r2
 4017              	.LVL448:
 4018              		.loc 1 3259 0
ARM GAS  C:\Users\jsyoon\AppData\Local\Temp\ccDGobdh.s 			page 73


 4019 0082 0383     		strh	r3, [r0, #24]	@ movhi
 4020              		.loc 1 3260 0
 4021 0084 0284     		strh	r2, [r0, #32]	@ movhi
 4022 0086 D6E7     		b	.L189
 4023              	.LBE92:
 4024              	.LBE97:
 4025              		.cfi_endproc
 4026              	.LFE188:
 4027              		.size	TIM_TIxExternalClockConfig, .-TIM_TIxExternalClockConfig
 4028 0088 AFF30080 		.section	.text.TIM_ETRClockMode1Config,"ax",%progbits
 4028      AFF30080 
 4029              		.align	2
 4030              		.p2align 4,,15
 4031              		.global	TIM_ETRClockMode1Config
 4032              		.thumb
 4033              		.thumb_func
 4034              		.type	TIM_ETRClockMode1Config, %function
 4035              	TIM_ETRClockMode1Config:
 4036              	.LFB189:
 4037              		.loc 1 2772 0
 4038              		.cfi_startproc
 4039              		@ args = 0, pretend = 0, frame = 0
 4040              		@ frame_needed = 0, uses_anonymous_args = 0
 4041              		@ link register save eliminated.
 4042              	.LVL449:
 4043 0000 10B4     		push	{r4}
 4044              		.cfi_def_cfa_offset 4
 4045              		.cfi_offset 4, -4
 4046              	.LBB98:
 4047              	.LBB99:
 4048              		.loc 1 3016 0
 4049 0002 0489     		ldrh	r4, [r0, #8]
 4050              	.LVL450:
 4051              		.loc 1 3022 0
 4052 0004 42EA0323 		orr	r3, r2, r3, lsl #8
 4053              	.LVL451:
 4054              		.loc 1 3019 0
 4055 0008 E4B2     		uxtb	r4, r4
 4056              	.LVL452:
 4057              		.loc 1 3022 0
 4058 000a 2343     		orrs	r3, r3, r4
 4059 000c 9BB2     		uxth	r3, r3
 4060 000e 1943     		orrs	r1, r1, r3
 4061              	.LVL453:
 4062              		.loc 1 3025 0
 4063 0010 0181     		strh	r1, [r0, #8]	@ movhi
 4064              	.LBE99:
 4065              	.LBE98:
 4066              		.loc 1 2784 0
 4067 0012 0389     		ldrh	r3, [r0, #8]
 4068              	.LVL454:
 4069              		.loc 1 2798 0
 4070 0014 5DF8044B 		ldr	r4, [sp], #4
 4071              		.loc 1 2793 0
 4072 0018 23F07703 		bic	r3, r3, #119
 4073              	.LVL455:
 4074 001c 1B04     		lsls	r3, r3, #16
ARM GAS  C:\Users\jsyoon\AppData\Local\Temp\ccDGobdh.s 			page 74


 4075 001e 1B0C     		lsrs	r3, r3, #16
 4076              	.LVL456:
 4077              		.loc 1 2794 0
 4078 0020 43F07703 		orr	r3, r3, #119
 4079              	.LVL457:
 4080              		.loc 1 2797 0
 4081 0024 0381     		strh	r3, [r0, #8]	@ movhi
 4082              		.loc 1 2798 0
 4083 0026 7047     		bx	lr
 4084              		.cfi_endproc
 4085              	.LFE189:
 4086              		.size	TIM_ETRClockMode1Config, .-TIM_ETRClockMode1Config
 4087 0028 AFF30080 		.section	.text.TIM_ETRClockMode2Config,"ax",%progbits
 4087      AFF30080 
 4088              		.align	2
 4089              		.p2align 4,,15
 4090              		.global	TIM_ETRClockMode2Config
 4091              		.thumb
 4092              		.thumb_func
 4093              		.type	TIM_ETRClockMode2Config, %function
 4094              	TIM_ETRClockMode2Config:
 4095              	.LFB190:
 4096              		.loc 1 2819 0
 4097              		.cfi_startproc
 4098              		@ args = 0, pretend = 0, frame = 0
 4099              		@ frame_needed = 0, uses_anonymous_args = 0
 4100              		@ link register save eliminated.
 4101              	.LVL458:
 4102 0000 10B4     		push	{r4}
 4103              		.cfi_def_cfa_offset 4
 4104              		.cfi_offset 4, -4
 4105              	.LBB100:
 4106              	.LBB101:
 4107              		.loc 1 3016 0
 4108 0002 0489     		ldrh	r4, [r0, #8]
 4109              	.LVL459:
 4110              		.loc 1 3022 0
 4111 0004 42EA0323 		orr	r3, r2, r3, lsl #8
 4112              	.LVL460:
 4113              		.loc 1 3019 0
 4114 0008 E4B2     		uxtb	r4, r4
 4115              	.LVL461:
 4116              		.loc 1 3022 0
 4117 000a 2343     		orrs	r3, r3, r4
 4118 000c 9BB2     		uxth	r3, r3
 4119 000e 1943     		orrs	r1, r1, r3
 4120              	.LVL462:
 4121              		.loc 1 3025 0
 4122 0010 0181     		strh	r1, [r0, #8]	@ movhi
 4123              	.LBE101:
 4124              	.LBE100:
 4125              		.loc 1 2830 0
 4126 0012 0389     		ldrh	r3, [r0, #8]
 4127              		.loc 1 2831 0
 4128 0014 5DF8044B 		ldr	r4, [sp], #4
 4129              		.loc 1 2830 0
 4130 0018 9BB2     		uxth	r3, r3
ARM GAS  C:\Users\jsyoon\AppData\Local\Temp\ccDGobdh.s 			page 75


 4131 001a 43F48043 		orr	r3, r3, #16384
 4132 001e 0381     		strh	r3, [r0, #8]	@ movhi
 4133              		.loc 1 2831 0
 4134 0020 7047     		bx	lr
 4135              		.cfi_endproc
 4136              	.LFE190:
 4137              		.size	TIM_ETRClockMode2Config, .-TIM_ETRClockMode2Config
 4138 0022 00BFAFF3 		.section	.text.TIM_SelectInputTrigger,"ax",%progbits
 4138      0080AFF3 
 4138      0080AFF3 
 4138      0080
 4139              		.align	2
 4140              		.p2align 4,,15
 4141              		.global	TIM_SelectInputTrigger
 4142              		.thumb
 4143              		.thumb_func
 4144              		.type	TIM_SelectInputTrigger, %function
 4145              	TIM_SelectInputTrigger:
 4146              	.LFB191:
 4147              		.loc 1 2886 0
 4148              		.cfi_startproc
 4149              		@ args = 0, pretend = 0, frame = 0
 4150              		@ frame_needed = 0, uses_anonymous_args = 0
 4151              		@ link register save eliminated.
 4152              	.LVL463:
 4153              		.loc 1 2894 0
 4154 0000 0389     		ldrh	r3, [r0, #8]
 4155              	.LVL464:
 4156              		.loc 1 2897 0
 4157 0002 23F07003 		bic	r3, r3, #112
 4158              	.LVL465:
 4159 0006 1B04     		lsls	r3, r3, #16
 4160 0008 1B0C     		lsrs	r3, r3, #16
 4161              	.LVL466:
 4162              		.loc 1 2900 0
 4163 000a 1943     		orrs	r1, r1, r3
 4164              	.LVL467:
 4165              		.loc 1 2903 0
 4166 000c 0181     		strh	r1, [r0, #8]	@ movhi
 4167 000e 7047     		bx	lr
 4168              		.cfi_endproc
 4169              	.LFE191:
 4170              		.size	TIM_SelectInputTrigger, .-TIM_SelectInputTrigger
 4171              		.section	.text.TIM_SelectOutputTrigger,"ax",%progbits
 4172              		.align	2
 4173              		.p2align 4,,15
 4174              		.global	TIM_SelectOutputTrigger
 4175              		.thumb
 4176              		.thumb_func
 4177              		.type	TIM_SelectOutputTrigger, %function
 4178              	TIM_SelectOutputTrigger:
 4179              	.LFB192:
 4180              		.loc 1 2929 0
 4181              		.cfi_startproc
 4182              		@ args = 0, pretend = 0, frame = 0
 4183              		@ frame_needed = 0, uses_anonymous_args = 0
 4184              		@ link register save eliminated.
ARM GAS  C:\Users\jsyoon\AppData\Local\Temp\ccDGobdh.s 			page 76


 4185              	.LVL468:
 4186              		.loc 1 2935 0
 4187 0000 8388     		ldrh	r3, [r0, #4]
 4188 0002 23F07003 		bic	r3, r3, #112
 4189 0006 1B04     		lsls	r3, r3, #16
 4190 0008 1B0C     		lsrs	r3, r3, #16
 4191 000a 8380     		strh	r3, [r0, #4]	@ movhi
 4192              		.loc 1 2937 0
 4193 000c 8388     		ldrh	r3, [r0, #4]
 4194 000e 9BB2     		uxth	r3, r3
 4195 0010 1943     		orrs	r1, r1, r3
 4196              	.LVL469:
 4197 0012 8180     		strh	r1, [r0, #4]	@ movhi
 4198 0014 7047     		bx	lr
 4199              		.cfi_endproc
 4200              	.LFE192:
 4201              		.size	TIM_SelectOutputTrigger, .-TIM_SelectOutputTrigger
 4202 0016 00BFAFF3 		.section	.text.TIM_SelectSlaveMode,"ax",%progbits
 4202      0080AFF3 
 4202      0080
 4203              		.align	2
 4204              		.p2align 4,,15
 4205              		.global	TIM_SelectSlaveMode
 4206              		.thumb
 4207              		.thumb_func
 4208              		.type	TIM_SelectSlaveMode, %function
 4209              	TIM_SelectSlaveMode:
 4210              	.LFB193:
 4211              		.loc 1 2953 0
 4212              		.cfi_startproc
 4213              		@ args = 0, pretend = 0, frame = 0
 4214              		@ frame_needed = 0, uses_anonymous_args = 0
 4215              		@ link register save eliminated.
 4216              	.LVL470:
 4217              		.loc 1 2959 0
 4218 0000 0389     		ldrh	r3, [r0, #8]
 4219 0002 23F00703 		bic	r3, r3, #7
 4220 0006 1B04     		lsls	r3, r3, #16
 4221 0008 1B0C     		lsrs	r3, r3, #16
 4222 000a 0381     		strh	r3, [r0, #8]	@ movhi
 4223              		.loc 1 2962 0
 4224 000c 0389     		ldrh	r3, [r0, #8]
 4225 000e 9BB2     		uxth	r3, r3
 4226 0010 1943     		orrs	r1, r1, r3
 4227              	.LVL471:
 4228 0012 0181     		strh	r1, [r0, #8]	@ movhi
 4229 0014 7047     		bx	lr
 4230              		.cfi_endproc
 4231              	.LFE193:
 4232              		.size	TIM_SelectSlaveMode, .-TIM_SelectSlaveMode
 4233 0016 00BFAFF3 		.section	.text.TIM_SelectMasterSlaveMode,"ax",%progbits
 4233      0080AFF3 
 4233      0080
 4234              		.align	2
 4235              		.p2align 4,,15
 4236              		.global	TIM_SelectMasterSlaveMode
 4237              		.thumb
ARM GAS  C:\Users\jsyoon\AppData\Local\Temp\ccDGobdh.s 			page 77


 4238              		.thumb_func
 4239              		.type	TIM_SelectMasterSlaveMode, %function
 4240              	TIM_SelectMasterSlaveMode:
 4241              	.LFB194:
 4242              		.loc 1 2976 0
 4243              		.cfi_startproc
 4244              		@ args = 0, pretend = 0, frame = 0
 4245              		@ frame_needed = 0, uses_anonymous_args = 0
 4246              		@ link register save eliminated.
 4247              	.LVL472:
 4248              		.loc 1 2982 0
 4249 0000 0389     		ldrh	r3, [r0, #8]
 4250 0002 23F08003 		bic	r3, r3, #128
 4251 0006 1B04     		lsls	r3, r3, #16
 4252 0008 1B0C     		lsrs	r3, r3, #16
 4253 000a 0381     		strh	r3, [r0, #8]	@ movhi
 4254              		.loc 1 2985 0
 4255 000c 0389     		ldrh	r3, [r0, #8]
 4256 000e 9BB2     		uxth	r3, r3
 4257 0010 1943     		orrs	r1, r1, r3
 4258              	.LVL473:
 4259 0012 0181     		strh	r1, [r0, #8]	@ movhi
 4260 0014 7047     		bx	lr
 4261              		.cfi_endproc
 4262              	.LFE194:
 4263              		.size	TIM_SelectMasterSlaveMode, .-TIM_SelectMasterSlaveMode
 4264 0016 00BFAFF3 		.section	.text.TIM_ETRConfig,"ax",%progbits
 4264      0080AFF3 
 4264      0080
 4265              		.align	2
 4266              		.p2align 4,,15
 4267              		.global	TIM_ETRConfig
 4268              		.thumb
 4269              		.thumb_func
 4270              		.type	TIM_ETRConfig, %function
 4271              	TIM_ETRConfig:
 4272              	.LFB195:
 4273              		.loc 1 3007 0
 4274              		.cfi_startproc
 4275              		@ args = 0, pretend = 0, frame = 0
 4276              		@ frame_needed = 0, uses_anonymous_args = 0
 4277              		@ link register save eliminated.
 4278              	.LVL474:
 4279 0000 10B4     		push	{r4}
 4280              		.cfi_def_cfa_offset 4
 4281              		.cfi_offset 4, -4
 4282              		.loc 1 3016 0
 4283 0002 0489     		ldrh	r4, [r0, #8]
 4284              	.LVL475:
 4285              		.loc 1 3019 0
 4286 0004 E4B2     		uxtb	r4, r4
 4287              	.LVL476:
 4288              		.loc 1 3022 0
 4289 0006 2143     		orrs	r1, r1, r4
 4290              	.LVL477:
 4291 0008 0A43     		orrs	r2, r2, r1
 4292              	.LVL478:
ARM GAS  C:\Users\jsyoon\AppData\Local\Temp\ccDGobdh.s 			page 78


 4293 000a 42EA0323 		orr	r3, r2, r3, lsl #8
 4294              	.LVL479:
 4295 000e 9CB2     		uxth	r4, r3
 4296              	.LVL480:
 4297              		.loc 1 3025 0
 4298 0010 0481     		strh	r4, [r0, #8]	@ movhi
 4299              		.loc 1 3026 0
 4300 0012 5DF8044B 		ldr	r4, [sp], #4
 4301 0016 7047     		bx	lr
 4302              		.cfi_endproc
 4303              	.LFE195:
 4304              		.size	TIM_ETRConfig, .-TIM_ETRConfig
 4305 0018 AFF30080 		.section	.text.TIM_EncoderInterfaceConfig,"ax",%progbits
 4305      AFF30080 
 4306              		.align	2
 4307              		.p2align 4,,15
 4308              		.global	TIM_EncoderInterfaceConfig
 4309              		.thumb
 4310              		.thumb_func
 4311              		.type	TIM_EncoderInterfaceConfig, %function
 4312              	TIM_EncoderInterfaceConfig:
 4313              	.LFB196:
 4314              		.loc 1 3065 0
 4315              		.cfi_startproc
 4316              		@ args = 0, pretend = 0, frame = 0
 4317              		@ frame_needed = 0, uses_anonymous_args = 0
 4318              		@ link register save eliminated.
 4319              	.LVL481:
 4320 0000 70B4     		push	{r4, r5, r6}
 4321              		.cfi_def_cfa_offset 12
 4322              		.cfi_offset 4, -12
 4323              		.cfi_offset 5, -8
 4324              		.cfi_offset 6, -4
 4325              		.loc 1 3077 0
 4326 0002 0589     		ldrh	r5, [r0, #8]
 4327              	.LVL482:
 4328              		.loc 1 3080 0
 4329 0004 048B     		ldrh	r4, [r0, #24]
 4330              	.LVL483:
 4331              		.loc 1 3083 0
 4332 0006 068C     		ldrh	r6, [r0, #32]
 4333              		.loc 1 3090 0
 4334 0008 24F44074 		bic	r4, r4, #768
 4335              	.LVL484:
 4336 000c 24F00304 		bic	r4, r4, #3
 4337              		.loc 1 3083 0
 4338 0010 B6B2     		uxth	r6, r6
 4339              	.LVL485:
 4340              		.loc 1 3094 0
 4341 0012 26F02206 		bic	r6, r6, #34
 4342              	.LVL486:
 4343              		.loc 1 3086 0
 4344 0016 25F00705 		bic	r5, r5, #7
 4345              	.LVL487:
 4346              		.loc 1 3090 0
 4347 001a 2404     		lsls	r4, r4, #16
 4348              		.loc 1 3095 0
ARM GAS  C:\Users\jsyoon\AppData\Local\Temp\ccDGobdh.s 			page 79


 4349 001c 3243     		orrs	r2, r2, r6
 4350              	.LVL488:
 4351              		.loc 1 3086 0
 4352 001e 2D04     		lsls	r5, r5, #16
 4353              		.loc 1 3090 0
 4354 0020 240C     		lsrs	r4, r4, #16
 4355              		.loc 1 3086 0
 4356 0022 2D0C     		lsrs	r5, r5, #16
 4357              	.LVL489:
 4358              		.loc 1 3091 0
 4359 0024 44F48074 		orr	r4, r4, #256
 4360              		.loc 1 3095 0
 4361 0028 42EA0313 		orr	r3, r2, r3, lsl #4
 4362              	.LVL490:
 4363              		.loc 1 3087 0
 4364 002c 2943     		orrs	r1, r1, r5
 4365              	.LVL491:
 4366              		.loc 1 3091 0
 4367 002e 44F00104 		orr	r4, r4, #1
 4368              	.LVL492:
 4369              		.loc 1 3095 0
 4370 0032 9EB2     		uxth	r6, r3
 4371              	.LVL493:
 4372              		.loc 1 3098 0
 4373 0034 0181     		strh	r1, [r0, #8]	@ movhi
 4374              		.loc 1 3101 0
 4375 0036 0483     		strh	r4, [r0, #24]	@ movhi
 4376              		.loc 1 3104 0
 4377 0038 0684     		strh	r6, [r0, #32]	@ movhi
 4378              		.loc 1 3105 0
 4379 003a 70BC     		pop	{r4, r5, r6}
 4380              	.LVL494:
 4381 003c 7047     		bx	lr
 4382              		.cfi_endproc
 4383              	.LFE196:
 4384              		.size	TIM_EncoderInterfaceConfig, .-TIM_EncoderInterfaceConfig
 4385 003e 00BF     		.section	.text.TIM_SelectHallSensor,"ax",%progbits
 4386              		.align	2
 4387              		.p2align 4,,15
 4388              		.global	TIM_SelectHallSensor
 4389              		.thumb
 4390              		.thumb_func
 4391              		.type	TIM_SelectHallSensor, %function
 4392              	TIM_SelectHallSensor:
 4393              	.LFB197:
 4394              		.loc 1 3116 0
 4395              		.cfi_startproc
 4396              		@ args = 0, pretend = 0, frame = 0
 4397              		@ frame_needed = 0, uses_anonymous_args = 0
 4398              		@ link register save eliminated.
 4399              	.LVL495:
 4400              		.loc 1 3124 0
 4401 0000 8388     		ldrh	r3, [r0, #4]
 4402              		.loc 1 3121 0
 4403 0002 29B9     		cbnz	r1, .L202
 4404              		.loc 1 3129 0
 4405 0004 23F08003 		bic	r3, r3, #128
ARM GAS  C:\Users\jsyoon\AppData\Local\Temp\ccDGobdh.s 			page 80


 4406 0008 1B04     		lsls	r3, r3, #16
 4407 000a 1B0C     		lsrs	r3, r3, #16
 4408 000c 8380     		strh	r3, [r0, #4]	@ movhi
 4409 000e 7047     		bx	lr
 4410              	.L202:
 4411              		.loc 1 3124 0
 4412 0010 9BB2     		uxth	r3, r3
 4413 0012 43F08003 		orr	r3, r3, #128
 4414 0016 8380     		strh	r3, [r0, #4]	@ movhi
 4415 0018 7047     		bx	lr
 4416              		.cfi_endproc
 4417              	.LFE197:
 4418              		.size	TIM_SelectHallSensor, .-TIM_SelectHallSensor
 4419 001a 00BFAFF3 		.section	.text.TIM_RemapConfig,"ax",%progbits
 4419      0080
 4420              		.align	2
 4421              		.p2align 4,,15
 4422              		.global	TIM_RemapConfig
 4423              		.thumb
 4424              		.thumb_func
 4425              		.type	TIM_RemapConfig, %function
 4426              	TIM_RemapConfig:
 4427              	.LFB198:
 4428              		.loc 1 3167 0
 4429              		.cfi_startproc
 4430              		@ args = 0, pretend = 0, frame = 0
 4431              		@ frame_needed = 0, uses_anonymous_args = 0
 4432              		@ link register save eliminated.
 4433              	.LVL496:
 4434              		.loc 1 3173 0
 4435 0000 A0F85010 		strh	r1, [r0, #80]	@ movhi
 4436 0004 7047     		bx	lr
 4437              		.cfi_endproc
 4438              	.LFE198:
 4439              		.size	TIM_RemapConfig, .-TIM_RemapConfig
 4440 0006 00BFAFF3 		.text
 4440      0080AFF3 
 4440      0080
 4441              	.Letext0:
 4442              		.file 2 "c:\\crosstools\\gcc-arm-embedded\\4.8_2014q2\\arm-none-eabi\\include\\machine\\_default_t
 4443              		.file 3 "c:\\crosstools\\gcc-arm-embedded\\4.8_2014q2\\arm-none-eabi\\include\\stdint.h"
 4444              		.file 4 "ChibiOS_2.6.6/os/hal/platforms/STM32F4xx/stm32f4xx.h"
 4445              		.file 5 "ChibiOS_2.6.6/ext/stdperiph_stm32f4/inc/stm32f4xx_tim.h"
 4446              		.file 6 "ChibiOS_2.6.6/ext/stdperiph_stm32f4/inc/stm32f4xx_rcc.h"
 4447              		.file 7 "ChibiOS_2.6.6/os/ports/common/ARMCMx/CMSIS/include/core_cm4.h"
 4448              		.section	.debug_info,"",%progbits
 4449              	.Ldebug_info0:
 4450 0000 D3240000 		.4byte	0x24d3
 4451 0004 0400     		.2byte	0x4
 4452 0006 00000000 		.4byte	.Ldebug_abbrev0
 4453 000a 04       		.byte	0x4
 4454 000b 01       		.uleb128 0x1
 4455 000c 610C0000 		.4byte	.LASF229
 4456 0010 01       		.byte	0x1
 4457 0011 F4010000 		.4byte	.LASF230
 4458 0015 3F030000 		.4byte	.LASF231
 4459 0019 80000000 		.4byte	.Ldebug_ranges0+0x80
ARM GAS  C:\Users\jsyoon\AppData\Local\Temp\ccDGobdh.s 			page 81


 4460 001d 00000000 		.4byte	0
 4461 0021 00000000 		.4byte	.Ldebug_line0
 4462 0025 02       		.uleb128 0x2
 4463 0026 01       		.byte	0x1
 4464 0027 06       		.byte	0x6
 4465 0028 B7020000 		.4byte	.LASF0
 4466 002c 03       		.uleb128 0x3
 4467 002d DC000000 		.4byte	.LASF3
 4468 0031 02       		.byte	0x2
 4469 0032 1C       		.byte	0x1c
 4470 0033 37000000 		.4byte	0x37
 4471 0037 02       		.uleb128 0x2
 4472 0038 01       		.byte	0x1
 4473 0039 08       		.byte	0x8
 4474 003a 12090000 		.4byte	.LASF1
 4475 003e 02       		.uleb128 0x2
 4476 003f 02       		.byte	0x2
 4477 0040 05       		.byte	0x5
 4478 0041 50090000 		.4byte	.LASF2
 4479 0045 03       		.uleb128 0x3
 4480 0046 59040000 		.4byte	.LASF4
 4481 004a 02       		.byte	0x2
 4482 004b 26       		.byte	0x26
 4483 004c 50000000 		.4byte	0x50
 4484 0050 02       		.uleb128 0x2
 4485 0051 02       		.byte	0x2
 4486 0052 07       		.byte	0x7
 4487 0053 850B0000 		.4byte	.LASF5
 4488 0057 03       		.uleb128 0x3
 4489 0058 FC0A0000 		.4byte	.LASF6
 4490 005c 02       		.byte	0x2
 4491 005d 37       		.byte	0x37
 4492 005e 62000000 		.4byte	0x62
 4493 0062 02       		.uleb128 0x2
 4494 0063 04       		.byte	0x4
 4495 0064 05       		.byte	0x5
 4496 0065 6F030000 		.4byte	.LASF7
 4497 0069 03       		.uleb128 0x3
 4498 006a 70040000 		.4byte	.LASF8
 4499 006e 02       		.byte	0x2
 4500 006f 38       		.byte	0x38
 4501 0070 74000000 		.4byte	0x74
 4502 0074 02       		.uleb128 0x2
 4503 0075 04       		.byte	0x4
 4504 0076 07       		.byte	0x7
 4505 0077 480A0000 		.4byte	.LASF9
 4506 007b 02       		.uleb128 0x2
 4507 007c 08       		.byte	0x8
 4508 007d 05       		.byte	0x5
 4509 007e 9E030000 		.4byte	.LASF10
 4510 0082 02       		.uleb128 0x2
 4511 0083 08       		.byte	0x8
 4512 0084 07       		.byte	0x7
 4513 0085 DC020000 		.4byte	.LASF11
 4514 0089 04       		.uleb128 0x4
 4515 008a 04       		.byte	0x4
 4516 008b 05       		.byte	0x5
ARM GAS  C:\Users\jsyoon\AppData\Local\Temp\ccDGobdh.s 			page 82


 4517 008c 696E7400 		.ascii	"int\000"
 4518 0090 02       		.uleb128 0x2
 4519 0091 04       		.byte	0x4
 4520 0092 07       		.byte	0x7
 4521 0093 FE040000 		.4byte	.LASF12
 4522 0097 03       		.uleb128 0x3
 4523 0098 590C0000 		.4byte	.LASF13
 4524 009c 03       		.byte	0x3
 4525 009d 2A       		.byte	0x2a
 4526 009e 2C000000 		.4byte	0x2c
 4527 00a2 03       		.uleb128 0x3
 4528 00a3 AC030000 		.4byte	.LASF14
 4529 00a7 03       		.byte	0x3
 4530 00a8 36       		.byte	0x36
 4531 00a9 45000000 		.4byte	0x45
 4532 00ad 03       		.uleb128 0x3
 4533 00ae 0A090000 		.4byte	.LASF15
 4534 00b2 03       		.byte	0x3
 4535 00b3 41       		.byte	0x41
 4536 00b4 57000000 		.4byte	0x57
 4537 00b8 03       		.uleb128 0x3
 4538 00b9 FF0B0000 		.4byte	.LASF16
 4539 00bd 03       		.byte	0x3
 4540 00be 42       		.byte	0x42
 4541 00bf 69000000 		.4byte	0x69
 4542 00c3 02       		.uleb128 0x2
 4543 00c4 04       		.byte	0x4
 4544 00c5 07       		.byte	0x7
 4545 00c6 0F070000 		.4byte	.LASF17
 4546 00ca 05       		.uleb128 0x5
 4547 00cb B8000000 		.4byte	0xb8
 4548 00cf 05       		.uleb128 0x5
 4549 00d0 A2000000 		.4byte	0xa2
 4550 00d4 05       		.uleb128 0x5
 4551 00d5 AD000000 		.4byte	0xad
 4552 00d9 06       		.uleb128 0x6
 4553 00da 01       		.byte	0x1
 4554 00db 04       		.byte	0x4
 4555 00dc F701     		.2byte	0x1f7
 4556 00de EF000000 		.4byte	0xef
 4557 00e2 07       		.uleb128 0x7
 4558 00e3 C0060000 		.4byte	.LASF18
 4559 00e7 00       		.sleb128 0
 4560 00e8 08       		.uleb128 0x8
 4561 00e9 53455400 		.ascii	"SET\000"
 4562 00ed 01       		.sleb128 1
 4563 00ee 00       		.byte	0
 4564 00ef 09       		.uleb128 0x9
 4565 00f0 D1000000 		.4byte	.LASF19
 4566 00f4 04       		.byte	0x4
 4567 00f5 F701     		.2byte	0x1f7
 4568 00f7 D9000000 		.4byte	0xd9
 4569 00fb 09       		.uleb128 0x9
 4570 00fc AB0D0000 		.4byte	.LASF20
 4571 0100 04       		.byte	0x4
 4572 0101 F701     		.2byte	0x1f7
 4573 0103 D9000000 		.4byte	0xd9
ARM GAS  C:\Users\jsyoon\AppData\Local\Temp\ccDGobdh.s 			page 83


 4574 0107 06       		.uleb128 0x6
 4575 0108 01       		.byte	0x1
 4576 0109 04       		.byte	0x4
 4577 010a F901     		.2byte	0x1f9
 4578 010c 1D010000 		.4byte	0x11d
 4579 0110 07       		.uleb128 0x7
 4580 0111 6C010000 		.4byte	.LASF21
 4581 0115 00       		.sleb128 0
 4582 0116 07       		.uleb128 0x7
 4583 0117 89030000 		.4byte	.LASF22
 4584 011b 01       		.sleb128 1
 4585 011c 00       		.byte	0
 4586 011d 09       		.uleb128 0x9
 4587 011e DC070000 		.4byte	.LASF23
 4588 0122 04       		.byte	0x4
 4589 0123 F901     		.2byte	0x1f9
 4590 0125 07010000 		.4byte	0x107
 4591 0129 0A       		.uleb128 0xa
 4592 012a 54       		.byte	0x54
 4593 012b 04       		.byte	0x4
 4594 012c FD04     		.2byte	0x4fd
 4595 012e 05030000 		.4byte	0x305
 4596 0132 0B       		.uleb128 0xb
 4597 0133 43523100 		.ascii	"CR1\000"
 4598 0137 04       		.byte	0x4
 4599 0138 FF04     		.2byte	0x4ff
 4600 013a CF000000 		.4byte	0xcf
 4601 013e 00       		.byte	0
 4602 013f 0C       		.uleb128 0xc
 4603 0140 C8090000 		.4byte	.LASF24
 4604 0144 04       		.byte	0x4
 4605 0145 0005     		.2byte	0x500
 4606 0147 A2000000 		.4byte	0xa2
 4607 014b 02       		.byte	0x2
 4608 014c 0B       		.uleb128 0xb
 4609 014d 43523200 		.ascii	"CR2\000"
 4610 0151 04       		.byte	0x4
 4611 0152 0105     		.2byte	0x501
 4612 0154 CF000000 		.4byte	0xcf
 4613 0158 04       		.byte	0x4
 4614 0159 0C       		.uleb128 0xc
 4615 015a 91080000 		.4byte	.LASF25
 4616 015e 04       		.byte	0x4
 4617 015f 0205     		.2byte	0x502
 4618 0161 A2000000 		.4byte	0xa2
 4619 0165 06       		.byte	0x6
 4620 0166 0C       		.uleb128 0xc
 4621 0167 F7050000 		.4byte	.LASF26
 4622 016b 04       		.byte	0x4
 4623 016c 0305     		.2byte	0x503
 4624 016e CF000000 		.4byte	0xcf
 4625 0172 08       		.byte	0x8
 4626 0173 0C       		.uleb128 0xc
 4627 0174 9B080000 		.4byte	.LASF27
 4628 0178 04       		.byte	0x4
 4629 0179 0405     		.2byte	0x504
 4630 017b A2000000 		.4byte	0xa2
ARM GAS  C:\Users\jsyoon\AppData\Local\Temp\ccDGobdh.s 			page 84


 4631 017f 0A       		.byte	0xa
 4632 0180 0C       		.uleb128 0xc
 4633 0181 4A000000 		.4byte	.LASF28
 4634 0185 04       		.byte	0x4
 4635 0186 0505     		.2byte	0x505
 4636 0188 CF000000 		.4byte	0xcf
 4637 018c 0C       		.byte	0xc
 4638 018d 0C       		.uleb128 0xc
 4639 018e A5080000 		.4byte	.LASF29
 4640 0192 04       		.byte	0x4
 4641 0193 0605     		.2byte	0x506
 4642 0195 A2000000 		.4byte	0xa2
 4643 0199 0E       		.byte	0xe
 4644 019a 0B       		.uleb128 0xb
 4645 019b 535200   		.ascii	"SR\000"
 4646 019e 04       		.byte	0x4
 4647 019f 0705     		.2byte	0x507
 4648 01a1 CF000000 		.4byte	0xcf
 4649 01a5 10       		.byte	0x10
 4650 01a6 0C       		.uleb128 0xc
 4651 01a7 AF080000 		.4byte	.LASF30
 4652 01ab 04       		.byte	0x4
 4653 01ac 0805     		.2byte	0x508
 4654 01ae A2000000 		.4byte	0xa2
 4655 01b2 12       		.byte	0x12
 4656 01b3 0B       		.uleb128 0xb
 4657 01b4 45475200 		.ascii	"EGR\000"
 4658 01b8 04       		.byte	0x4
 4659 01b9 0905     		.2byte	0x509
 4660 01bb CF000000 		.4byte	0xcf
 4661 01bf 14       		.byte	0x14
 4662 01c0 0C       		.uleb128 0xc
 4663 01c1 B9080000 		.4byte	.LASF31
 4664 01c5 04       		.byte	0x4
 4665 01c6 0A05     		.2byte	0x50a
 4666 01c8 A2000000 		.4byte	0xa2
 4667 01cc 16       		.byte	0x16
 4668 01cd 0C       		.uleb128 0xc
 4669 01ce 95020000 		.4byte	.LASF32
 4670 01d2 04       		.byte	0x4
 4671 01d3 0B05     		.2byte	0x50b
 4672 01d5 CF000000 		.4byte	0xcf
 4673 01d9 18       		.byte	0x18
 4674 01da 0C       		.uleb128 0xc
 4675 01db C3080000 		.4byte	.LASF33
 4676 01df 04       		.byte	0x4
 4677 01e0 0C05     		.2byte	0x50c
 4678 01e2 A2000000 		.4byte	0xa2
 4679 01e6 1A       		.byte	0x1a
 4680 01e7 0C       		.uleb128 0xc
 4681 01e8 9B020000 		.4byte	.LASF34
 4682 01ec 04       		.byte	0x4
 4683 01ed 0D05     		.2byte	0x50d
 4684 01ef CF000000 		.4byte	0xcf
 4685 01f3 1C       		.byte	0x1c
 4686 01f4 0C       		.uleb128 0xc
 4687 01f5 FC090000 		.4byte	.LASF35
ARM GAS  C:\Users\jsyoon\AppData\Local\Temp\ccDGobdh.s 			page 85


 4688 01f9 04       		.byte	0x4
 4689 01fa 0E05     		.2byte	0x50e
 4690 01fc A2000000 		.4byte	0xa2
 4691 0200 1E       		.byte	0x1e
 4692 0201 0C       		.uleb128 0xc
 4693 0202 99030000 		.4byte	.LASF36
 4694 0206 04       		.byte	0x4
 4695 0207 0F05     		.2byte	0x50f
 4696 0209 CF000000 		.4byte	0xcf
 4697 020d 20       		.byte	0x20
 4698 020e 0C       		.uleb128 0xc
 4699 020f CD080000 		.4byte	.LASF37
 4700 0213 04       		.byte	0x4
 4701 0214 1005     		.2byte	0x510
 4702 0216 A2000000 		.4byte	0xa2
 4703 021a 22       		.byte	0x22
 4704 021b 0B       		.uleb128 0xb
 4705 021c 434E5400 		.ascii	"CNT\000"
 4706 0220 04       		.byte	0x4
 4707 0221 1105     		.2byte	0x511
 4708 0223 CA000000 		.4byte	0xca
 4709 0227 24       		.byte	0x24
 4710 0228 0B       		.uleb128 0xb
 4711 0229 50534300 		.ascii	"PSC\000"
 4712 022d 04       		.byte	0x4
 4713 022e 1205     		.2byte	0x512
 4714 0230 CF000000 		.4byte	0xcf
 4715 0234 28       		.byte	0x28
 4716 0235 0C       		.uleb128 0xc
 4717 0236 D7080000 		.4byte	.LASF38
 4718 023a 04       		.byte	0x4
 4719 023b 1305     		.2byte	0x513
 4720 023d A2000000 		.4byte	0xa2
 4721 0241 2A       		.byte	0x2a
 4722 0242 0B       		.uleb128 0xb
 4723 0243 41525200 		.ascii	"ARR\000"
 4724 0247 04       		.byte	0x4
 4725 0248 1405     		.2byte	0x514
 4726 024a CA000000 		.4byte	0xca
 4727 024e 2C       		.byte	0x2c
 4728 024f 0B       		.uleb128 0xb
 4729 0250 52435200 		.ascii	"RCR\000"
 4730 0254 04       		.byte	0x4
 4731 0255 1505     		.2byte	0x515
 4732 0257 CF000000 		.4byte	0xcf
 4733 025b 30       		.byte	0x30
 4734 025c 0C       		.uleb128 0xc
 4735 025d 01030000 		.4byte	.LASF39
 4736 0261 04       		.byte	0x4
 4737 0262 1605     		.2byte	0x516
 4738 0264 A2000000 		.4byte	0xa2
 4739 0268 32       		.byte	0x32
 4740 0269 0C       		.uleb128 0xc
 4741 026a 080C0000 		.4byte	.LASF40
 4742 026e 04       		.byte	0x4
 4743 026f 1705     		.2byte	0x517
 4744 0271 CA000000 		.4byte	0xca
ARM GAS  C:\Users\jsyoon\AppData\Local\Temp\ccDGobdh.s 			page 86


 4745 0275 34       		.byte	0x34
 4746 0276 0C       		.uleb128 0xc
 4747 0277 92010000 		.4byte	.LASF41
 4748 027b 04       		.byte	0x4
 4749 027c 1805     		.2byte	0x518
 4750 027e CA000000 		.4byte	0xca
 4751 0282 38       		.byte	0x38
 4752 0283 0C       		.uleb128 0xc
 4753 0284 250C0000 		.4byte	.LASF42
 4754 0288 04       		.byte	0x4
 4755 0289 1905     		.2byte	0x519
 4756 028b CA000000 		.4byte	0xca
 4757 028f 3C       		.byte	0x3c
 4758 0290 0C       		.uleb128 0xc
 4759 0291 2A0C0000 		.4byte	.LASF43
 4760 0295 04       		.byte	0x4
 4761 0296 1A05     		.2byte	0x51a
 4762 0298 CA000000 		.4byte	0xca
 4763 029c 40       		.byte	0x40
 4764 029d 0C       		.uleb128 0xc
 4765 029e 5A090000 		.4byte	.LASF44
 4766 02a2 04       		.byte	0x4
 4767 02a3 1B05     		.2byte	0x51b
 4768 02a5 CF000000 		.4byte	0xcf
 4769 02a9 44       		.byte	0x44
 4770 02aa 0C       		.uleb128 0xc
 4771 02ab 0C030000 		.4byte	.LASF45
 4772 02af 04       		.byte	0x4
 4773 02b0 1C05     		.2byte	0x51c
 4774 02b2 A2000000 		.4byte	0xa2
 4775 02b6 46       		.byte	0x46
 4776 02b7 0B       		.uleb128 0xb
 4777 02b8 44435200 		.ascii	"DCR\000"
 4778 02bc 04       		.byte	0x4
 4779 02bd 1D05     		.2byte	0x51d
 4780 02bf CF000000 		.4byte	0xcf
 4781 02c3 48       		.byte	0x48
 4782 02c4 0C       		.uleb128 0xc
 4783 02c5 17030000 		.4byte	.LASF46
 4784 02c9 04       		.byte	0x4
 4785 02ca 1E05     		.2byte	0x51e
 4786 02cc A2000000 		.4byte	0xa2
 4787 02d0 4A       		.byte	0x4a
 4788 02d1 0C       		.uleb128 0xc
 4789 02d2 950A0000 		.4byte	.LASF47
 4790 02d6 04       		.byte	0x4
 4791 02d7 1F05     		.2byte	0x51f
 4792 02d9 CF000000 		.4byte	0xcf
 4793 02dd 4C       		.byte	0x4c
 4794 02de 0C       		.uleb128 0xc
 4795 02df 22030000 		.4byte	.LASF48
 4796 02e3 04       		.byte	0x4
 4797 02e4 2005     		.2byte	0x520
 4798 02e6 A2000000 		.4byte	0xa2
 4799 02ea 4E       		.byte	0x4e
 4800 02eb 0B       		.uleb128 0xb
 4801 02ec 4F5200   		.ascii	"OR\000"
ARM GAS  C:\Users\jsyoon\AppData\Local\Temp\ccDGobdh.s 			page 87


 4802 02ef 04       		.byte	0x4
 4803 02f0 2105     		.2byte	0x521
 4804 02f2 CF000000 		.4byte	0xcf
 4805 02f6 50       		.byte	0x50
 4806 02f7 0C       		.uleb128 0xc
 4807 02f8 2D030000 		.4byte	.LASF49
 4808 02fc 04       		.byte	0x4
 4809 02fd 2205     		.2byte	0x522
 4810 02ff A2000000 		.4byte	0xa2
 4811 0303 52       		.byte	0x52
 4812 0304 00       		.byte	0
 4813 0305 09       		.uleb128 0x9
 4814 0306 64040000 		.4byte	.LASF50
 4815 030a 04       		.byte	0x4
 4816 030b 2305     		.2byte	0x523
 4817 030d 29010000 		.4byte	0x129
 4818 0311 0D       		.uleb128 0xd
 4819 0312 0C       		.byte	0xc
 4820 0313 05       		.byte	0x5
 4821 0314 37       		.byte	0x37
 4822 0315 56030000 		.4byte	0x356
 4823 0319 0E       		.uleb128 0xe
 4824 031a E1080000 		.4byte	.LASF51
 4825 031e 05       		.byte	0x5
 4826 031f 39       		.byte	0x39
 4827 0320 A2000000 		.4byte	0xa2
 4828 0324 00       		.byte	0
 4829 0325 0E       		.uleb128 0xe
 4830 0326 92000000 		.4byte	.LASF52
 4831 032a 05       		.byte	0x5
 4832 032b 3C       		.byte	0x3c
 4833 032c A2000000 		.4byte	0xa2
 4834 0330 02       		.byte	0x2
 4835 0331 0E       		.uleb128 0xe
 4836 0332 C30A0000 		.4byte	.LASF53
 4837 0336 05       		.byte	0x5
 4838 0337 3F       		.byte	0x3f
 4839 0338 B8000000 		.4byte	0xb8
 4840 033c 04       		.byte	0x4
 4841 033d 0E       		.uleb128 0xe
 4842 033e 25050000 		.4byte	.LASF54
 4843 0342 05       		.byte	0x5
 4844 0343 43       		.byte	0x43
 4845 0344 A2000000 		.4byte	0xa2
 4846 0348 08       		.byte	0x8
 4847 0349 0E       		.uleb128 0xe
 4848 034a C00D0000 		.4byte	.LASF55
 4849 034e 05       		.byte	0x5
 4850 034f 46       		.byte	0x46
 4851 0350 97000000 		.4byte	0x97
 4852 0354 0A       		.byte	0xa
 4853 0355 00       		.byte	0
 4854 0356 03       		.uleb128 0x3
 4855 0357 CE0A0000 		.4byte	.LASF56
 4856 035b 05       		.byte	0x5
 4857 035c 4E       		.byte	0x4e
 4858 035d 11030000 		.4byte	0x311
ARM GAS  C:\Users\jsyoon\AppData\Local\Temp\ccDGobdh.s 			page 88


 4859 0361 0D       		.uleb128 0xd
 4860 0362 14       		.byte	0x14
 4861 0363 05       		.byte	0x5
 4862 0364 54       		.byte	0x54
 4863 0365 CA030000 		.4byte	0x3ca
 4864 0369 0E       		.uleb128 0xe
 4865 036a A60B0000 		.4byte	.LASF57
 4866 036e 05       		.byte	0x5
 4867 036f 56       		.byte	0x56
 4868 0370 A2000000 		.4byte	0xa2
 4869 0374 00       		.byte	0
 4870 0375 0E       		.uleb128 0xe
 4871 0376 62080000 		.4byte	.LASF58
 4872 037a 05       		.byte	0x5
 4873 037b 59       		.byte	0x59
 4874 037c A2000000 		.4byte	0xa2
 4875 0380 02       		.byte	0x2
 4876 0381 0E       		.uleb128 0xe
 4877 0382 78030000 		.4byte	.LASF59
 4878 0386 05       		.byte	0x5
 4879 0387 5C       		.byte	0x5c
 4880 0388 A2000000 		.4byte	0xa2
 4881 038c 04       		.byte	0x4
 4882 038d 0E       		.uleb128 0xe
 4883 038e 39010000 		.4byte	.LASF60
 4884 0392 05       		.byte	0x5
 4885 0393 60       		.byte	0x60
 4886 0394 B8000000 		.4byte	0xb8
 4887 0398 08       		.byte	0x8
 4888 0399 0E       		.uleb128 0xe
 4889 039a 16050000 		.4byte	.LASF61
 4890 039e 05       		.byte	0x5
 4891 039f 63       		.byte	0x63
 4892 03a0 A2000000 		.4byte	0xa2
 4893 03a4 0C       		.byte	0xc
 4894 03a5 0E       		.uleb128 0xe
 4895 03a6 5A0A0000 		.4byte	.LASF62
 4896 03aa 05       		.byte	0x5
 4897 03ab 66       		.byte	0x66
 4898 03ac A2000000 		.4byte	0xa2
 4899 03b0 0E       		.byte	0xe
 4900 03b1 0E       		.uleb128 0xe
 4901 03b2 390E0000 		.4byte	.LASF63
 4902 03b6 05       		.byte	0x5
 4903 03b7 6A       		.byte	0x6a
 4904 03b8 A2000000 		.4byte	0xa2
 4905 03bc 10       		.byte	0x10
 4906 03bd 0E       		.uleb128 0xe
 4907 03be A2070000 		.4byte	.LASF64
 4908 03c2 05       		.byte	0x5
 4909 03c3 6E       		.byte	0x6e
 4910 03c4 A2000000 		.4byte	0xa2
 4911 03c8 12       		.byte	0x12
 4912 03c9 00       		.byte	0
 4913 03ca 03       		.uleb128 0x3
 4914 03cb 2F0C0000 		.4byte	.LASF65
 4915 03cf 05       		.byte	0x5
ARM GAS  C:\Users\jsyoon\AppData\Local\Temp\ccDGobdh.s 			page 89


 4916 03d0 71       		.byte	0x71
 4917 03d1 61030000 		.4byte	0x361
 4918 03d5 0D       		.uleb128 0xd
 4919 03d6 0A       		.byte	0xa
 4920 03d7 05       		.byte	0x5
 4921 03d8 77       		.byte	0x77
 4922 03d9 1A040000 		.4byte	0x41a
 4923 03dd 0E       		.uleb128 0xe
 4924 03de 89020000 		.4byte	.LASF66
 4925 03e2 05       		.byte	0x5
 4926 03e3 7A       		.byte	0x7a
 4927 03e4 A2000000 		.4byte	0xa2
 4928 03e8 00       		.byte	0
 4929 03e9 0E       		.uleb128 0xe
 4930 03ea 82080000 		.4byte	.LASF67
 4931 03ee 05       		.byte	0x5
 4932 03ef 7D       		.byte	0x7d
 4933 03f0 A2000000 		.4byte	0xa2
 4934 03f4 02       		.byte	0x2
 4935 03f5 0E       		.uleb128 0xe
 4936 03f6 4C020000 		.4byte	.LASF68
 4937 03fa 05       		.byte	0x5
 4938 03fb 80       		.byte	0x80
 4939 03fc A2000000 		.4byte	0xa2
 4940 0400 04       		.byte	0x4
 4941 0401 0E       		.uleb128 0xe
 4942 0402 7D070000 		.4byte	.LASF69
 4943 0406 05       		.byte	0x5
 4944 0407 83       		.byte	0x83
 4945 0408 A2000000 		.4byte	0xa2
 4946 040c 06       		.byte	0x6
 4947 040d 0E       		.uleb128 0xe
 4948 040e 97010000 		.4byte	.LASF70
 4949 0412 05       		.byte	0x5
 4950 0413 86       		.byte	0x86
 4951 0414 A2000000 		.4byte	0xa2
 4952 0418 08       		.byte	0x8
 4953 0419 00       		.byte	0
 4954 041a 03       		.uleb128 0x3
 4955 041b 060B0000 		.4byte	.LASF71
 4956 041f 05       		.byte	0x5
 4957 0420 88       		.byte	0x88
 4958 0421 D5030000 		.4byte	0x3d5
 4959 0425 0D       		.uleb128 0xd
 4960 0426 0E       		.byte	0xe
 4961 0427 05       		.byte	0x5
 4962 0428 8F       		.byte	0x8f
 4963 0429 82040000 		.4byte	0x482
 4964 042d 0E       		.uleb128 0xe
 4965 042e FC050000 		.4byte	.LASF72
 4966 0432 05       		.byte	0x5
 4967 0433 92       		.byte	0x92
 4968 0434 A2000000 		.4byte	0xa2
 4969 0438 00       		.byte	0
 4970 0439 0E       		.uleb128 0xe
 4971 043a BA090000 		.4byte	.LASF73
 4972 043e 05       		.byte	0x5
ARM GAS  C:\Users\jsyoon\AppData\Local\Temp\ccDGobdh.s 			page 90


 4973 043f 95       		.byte	0x95
 4974 0440 A2000000 		.4byte	0xa2
 4975 0444 02       		.byte	0x2
 4976 0445 0E       		.uleb128 0xe
 4977 0446 20090000 		.4byte	.LASF74
 4978 044a 05       		.byte	0x5
 4979 044b 98       		.byte	0x98
 4980 044c A2000000 		.4byte	0xa2
 4981 0450 04       		.byte	0x4
 4982 0451 0E       		.uleb128 0xe
 4983 0452 46070000 		.4byte	.LASF75
 4984 0456 05       		.byte	0x5
 4985 0457 9B       		.byte	0x9b
 4986 0458 A2000000 		.4byte	0xa2
 4987 045c 06       		.byte	0x6
 4988 045d 0E       		.uleb128 0xe
 4989 045e 2C070000 		.4byte	.LASF76
 4990 0462 05       		.byte	0x5
 4991 0463 9F       		.byte	0x9f
 4992 0464 A2000000 		.4byte	0xa2
 4993 0468 08       		.byte	0x8
 4994 0469 0E       		.uleb128 0xe
 4995 046a C10B0000 		.4byte	.LASF77
 4996 046e 05       		.byte	0x5
 4997 046f A2       		.byte	0xa2
 4998 0470 A2000000 		.4byte	0xa2
 4999 0474 0A       		.byte	0xa
 5000 0475 0E       		.uleb128 0xe
 5001 0476 35060000 		.4byte	.LASF78
 5002 047a 05       		.byte	0x5
 5003 047b A5       		.byte	0xa5
 5004 047c A2000000 		.4byte	0xa2
 5005 0480 0C       		.byte	0xc
 5006 0481 00       		.byte	0
 5007 0482 03       		.uleb128 0x3
 5008 0483 D2050000 		.4byte	.LASF79
 5009 0487 05       		.byte	0x5
 5010 0488 A7       		.byte	0xa7
 5011 0489 25040000 		.4byte	0x425
 5012 048d 0F       		.uleb128 0xf
 5013 048e 820A0000 		.4byte	.LASF84
 5014 0492 01       		.byte	0x1
 5015 0493 7D0C     		.2byte	0xc7d
 5016 0495 01       		.byte	0x1
 5017 0496 E3040000 		.4byte	0x4e3
 5018 049a 10       		.uleb128 0x10
 5019 049b 0A060000 		.4byte	.LASF80
 5020 049f 01       		.byte	0x1
 5021 04a0 7D0C     		.2byte	0xc7d
 5022 04a2 E3040000 		.4byte	0x4e3
 5023 04a6 10       		.uleb128 0x10
 5024 04a7 82080000 		.4byte	.LASF67
 5025 04ab 01       		.byte	0x1
 5026 04ac 7D0C     		.2byte	0xc7d
 5027 04ae A2000000 		.4byte	0xa2
 5028 04b2 10       		.uleb128 0x10
 5029 04b3 4C020000 		.4byte	.LASF68
ARM GAS  C:\Users\jsyoon\AppData\Local\Temp\ccDGobdh.s 			page 91


 5030 04b7 01       		.byte	0x1
 5031 04b8 7D0C     		.2byte	0xc7d
 5032 04ba A2000000 		.4byte	0xa2
 5033 04be 10       		.uleb128 0x10
 5034 04bf 97010000 		.4byte	.LASF70
 5035 04c3 01       		.byte	0x1
 5036 04c4 7E0C     		.2byte	0xc7e
 5037 04c6 A2000000 		.4byte	0xa2
 5038 04ca 11       		.uleb128 0x11
 5039 04cb 5A010000 		.4byte	.LASF81
 5040 04cf 01       		.byte	0x1
 5041 04d0 800C     		.2byte	0xc80
 5042 04d2 A2000000 		.4byte	0xa2
 5043 04d6 11       		.uleb128 0x11
 5044 04d7 DF040000 		.4byte	.LASF82
 5045 04db 01       		.byte	0x1
 5046 04dc 800C     		.2byte	0xc80
 5047 04de A2000000 		.4byte	0xa2
 5048 04e2 00       		.byte	0
 5049 04e3 12       		.uleb128 0x12
 5050 04e4 04       		.byte	0x4
 5051 04e5 05030000 		.4byte	0x305
 5052 04e9 13       		.uleb128 0x13
 5053 04ea 61060000 		.4byte	.LASF86
 5054 04ee 01       		.byte	0x1
 5055 04ef 2B08     		.2byte	0x82b
 5056 04f1 01       		.byte	0x1
 5057 04f2 0F050000 		.4byte	0x50f
 5058 04f6 10       		.uleb128 0x10
 5059 04f7 0A060000 		.4byte	.LASF80
 5060 04fb 01       		.byte	0x1
 5061 04fc 2B08     		.2byte	0x82b
 5062 04fe E3040000 		.4byte	0x4e3
 5063 0502 10       		.uleb128 0x10
 5064 0503 550E0000 		.4byte	.LASF83
 5065 0507 01       		.byte	0x1
 5066 0508 2B08     		.2byte	0x82b
 5067 050a A2000000 		.4byte	0xa2
 5068 050e 00       		.byte	0
 5069 050f 0F       		.uleb128 0xf
 5070 0510 190A0000 		.4byte	.LASF85
 5071 0514 01       		.byte	0x1
 5072 0515 A60C     		.2byte	0xca6
 5073 0517 01       		.byte	0x1
 5074 0518 71050000 		.4byte	0x571
 5075 051c 10       		.uleb128 0x10
 5076 051d 0A060000 		.4byte	.LASF80
 5077 0521 01       		.byte	0x1
 5078 0522 A60C     		.2byte	0xca6
 5079 0524 E3040000 		.4byte	0x4e3
 5080 0528 10       		.uleb128 0x10
 5081 0529 82080000 		.4byte	.LASF67
 5082 052d 01       		.byte	0x1
 5083 052e A60C     		.2byte	0xca6
 5084 0530 A2000000 		.4byte	0xa2
 5085 0534 10       		.uleb128 0x10
 5086 0535 4C020000 		.4byte	.LASF68
ARM GAS  C:\Users\jsyoon\AppData\Local\Temp\ccDGobdh.s 			page 92


 5087 0539 01       		.byte	0x1
 5088 053a A60C     		.2byte	0xca6
 5089 053c A2000000 		.4byte	0xa2
 5090 0540 10       		.uleb128 0x10
 5091 0541 97010000 		.4byte	.LASF70
 5092 0545 01       		.byte	0x1
 5093 0546 A70C     		.2byte	0xca7
 5094 0548 A2000000 		.4byte	0xa2
 5095 054c 11       		.uleb128 0x11
 5096 054d 5A010000 		.4byte	.LASF81
 5097 0551 01       		.byte	0x1
 5098 0552 A90C     		.2byte	0xca9
 5099 0554 A2000000 		.4byte	0xa2
 5100 0558 11       		.uleb128 0x11
 5101 0559 DF040000 		.4byte	.LASF82
 5102 055d 01       		.byte	0x1
 5103 055e A90C     		.2byte	0xca9
 5104 0560 A2000000 		.4byte	0xa2
 5105 0564 14       		.uleb128 0x14
 5106 0565 746D7000 		.ascii	"tmp\000"
 5107 0569 01       		.byte	0x1
 5108 056a A90C     		.2byte	0xca9
 5109 056c A2000000 		.4byte	0xa2
 5110 0570 00       		.byte	0
 5111 0571 13       		.uleb128 0x13
 5112 0572 5F090000 		.4byte	.LASF87
 5113 0576 01       		.byte	0x1
 5114 0577 4408     		.2byte	0x844
 5115 0579 01       		.byte	0x1
 5116 057a 97050000 		.4byte	0x597
 5117 057e 10       		.uleb128 0x10
 5118 057f 0A060000 		.4byte	.LASF80
 5119 0583 01       		.byte	0x1
 5120 0584 4408     		.2byte	0x844
 5121 0586 E3040000 		.4byte	0x4e3
 5122 058a 10       		.uleb128 0x10
 5123 058b 550E0000 		.4byte	.LASF83
 5124 058f 01       		.byte	0x1
 5125 0590 4408     		.2byte	0x844
 5126 0592 A2000000 		.4byte	0xa2
 5127 0596 00       		.byte	0
 5128 0597 0F       		.uleb128 0xf
 5129 0598 84060000 		.4byte	.LASF88
 5130 059c 01       		.byte	0x1
 5131 059d D00C     		.2byte	0xcd0
 5132 059f 01       		.byte	0x1
 5133 05a0 F9050000 		.4byte	0x5f9
 5134 05a4 10       		.uleb128 0x10
 5135 05a5 0A060000 		.4byte	.LASF80
 5136 05a9 01       		.byte	0x1
 5137 05aa D00C     		.2byte	0xcd0
 5138 05ac E3040000 		.4byte	0x4e3
 5139 05b0 10       		.uleb128 0x10
 5140 05b1 82080000 		.4byte	.LASF67
 5141 05b5 01       		.byte	0x1
 5142 05b6 D00C     		.2byte	0xcd0
 5143 05b8 A2000000 		.4byte	0xa2
ARM GAS  C:\Users\jsyoon\AppData\Local\Temp\ccDGobdh.s 			page 93


 5144 05bc 10       		.uleb128 0x10
 5145 05bd 4C020000 		.4byte	.LASF68
 5146 05c1 01       		.byte	0x1
 5147 05c2 D00C     		.2byte	0xcd0
 5148 05c4 A2000000 		.4byte	0xa2
 5149 05c8 10       		.uleb128 0x10
 5150 05c9 97010000 		.4byte	.LASF70
 5151 05cd 01       		.byte	0x1
 5152 05ce D10C     		.2byte	0xcd1
 5153 05d0 A2000000 		.4byte	0xa2
 5154 05d4 11       		.uleb128 0x11
 5155 05d5 63010000 		.4byte	.LASF89
 5156 05d9 01       		.byte	0x1
 5157 05da D30C     		.2byte	0xcd3
 5158 05dc A2000000 		.4byte	0xa2
 5159 05e0 11       		.uleb128 0x11
 5160 05e1 DF040000 		.4byte	.LASF82
 5161 05e5 01       		.byte	0x1
 5162 05e6 D30C     		.2byte	0xcd3
 5163 05e8 A2000000 		.4byte	0xa2
 5164 05ec 14       		.uleb128 0x14
 5165 05ed 746D7000 		.ascii	"tmp\000"
 5166 05f1 01       		.byte	0x1
 5167 05f2 D30C     		.2byte	0xcd3
 5168 05f4 A2000000 		.4byte	0xa2
 5169 05f8 00       		.byte	0
 5170 05f9 13       		.uleb128 0x13
 5171 05fa 9A0A0000 		.4byte	.LASF90
 5172 05fe 01       		.byte	0x1
 5173 05ff 5C08     		.2byte	0x85c
 5174 0601 01       		.byte	0x1
 5175 0602 1F060000 		.4byte	0x61f
 5176 0606 10       		.uleb128 0x10
 5177 0607 0A060000 		.4byte	.LASF80
 5178 060b 01       		.byte	0x1
 5179 060c 5C08     		.2byte	0x85c
 5180 060e E3040000 		.4byte	0x4e3
 5181 0612 10       		.uleb128 0x10
 5182 0613 550E0000 		.4byte	.LASF83
 5183 0617 01       		.byte	0x1
 5184 0618 5C08     		.2byte	0x85c
 5185 061a A2000000 		.4byte	0xa2
 5186 061e 00       		.byte	0
 5187 061f 0F       		.uleb128 0xf
 5188 0620 0B050000 		.4byte	.LASF91
 5189 0624 01       		.byte	0x1
 5190 0625 F90C     		.2byte	0xcf9
 5191 0627 01       		.byte	0x1
 5192 0628 81060000 		.4byte	0x681
 5193 062c 10       		.uleb128 0x10
 5194 062d 0A060000 		.4byte	.LASF80
 5195 0631 01       		.byte	0x1
 5196 0632 F90C     		.2byte	0xcf9
 5197 0634 E3040000 		.4byte	0x4e3
 5198 0638 10       		.uleb128 0x10
 5199 0639 82080000 		.4byte	.LASF67
 5200 063d 01       		.byte	0x1
ARM GAS  C:\Users\jsyoon\AppData\Local\Temp\ccDGobdh.s 			page 94


 5201 063e F90C     		.2byte	0xcf9
 5202 0640 A2000000 		.4byte	0xa2
 5203 0644 10       		.uleb128 0x10
 5204 0645 4C020000 		.4byte	.LASF68
 5205 0649 01       		.byte	0x1
 5206 064a F90C     		.2byte	0xcf9
 5207 064c A2000000 		.4byte	0xa2
 5208 0650 10       		.uleb128 0x10
 5209 0651 97010000 		.4byte	.LASF70
 5210 0655 01       		.byte	0x1
 5211 0656 FA0C     		.2byte	0xcfa
 5212 0658 A2000000 		.4byte	0xa2
 5213 065c 11       		.uleb128 0x11
 5214 065d 63010000 		.4byte	.LASF89
 5215 0661 01       		.byte	0x1
 5216 0662 FC0C     		.2byte	0xcfc
 5217 0664 A2000000 		.4byte	0xa2
 5218 0668 11       		.uleb128 0x11
 5219 0669 DF040000 		.4byte	.LASF82
 5220 066d 01       		.byte	0x1
 5221 066e FC0C     		.2byte	0xcfc
 5222 0670 A2000000 		.4byte	0xa2
 5223 0674 14       		.uleb128 0x14
 5224 0675 746D7000 		.ascii	"tmp\000"
 5225 0679 01       		.byte	0x1
 5226 067a FC0C     		.2byte	0xcfc
 5227 067c A2000000 		.4byte	0xa2
 5228 0680 00       		.byte	0
 5229 0681 13       		.uleb128 0x13
 5230 0682 9F0E0000 		.4byte	.LASF92
 5231 0686 01       		.byte	0x1
 5232 0687 7408     		.2byte	0x874
 5233 0689 01       		.byte	0x1
 5234 068a A7060000 		.4byte	0x6a7
 5235 068e 10       		.uleb128 0x10
 5236 068f 0A060000 		.4byte	.LASF80
 5237 0693 01       		.byte	0x1
 5238 0694 7408     		.2byte	0x874
 5239 0696 E3040000 		.4byte	0x4e3
 5240 069a 10       		.uleb128 0x10
 5241 069b 550E0000 		.4byte	.LASF83
 5242 069f 01       		.byte	0x1
 5243 06a0 7408     		.2byte	0x874
 5244 06a2 A2000000 		.4byte	0xa2
 5245 06a6 00       		.byte	0
 5246 06a7 13       		.uleb128 0x13
 5247 06a8 7B010000 		.4byte	.LASF93
 5248 06ac 01       		.byte	0x1
 5249 06ad 450B     		.2byte	0xb45
 5250 06af 01       		.byte	0x1
 5251 06b0 D9060000 		.4byte	0x6d9
 5252 06b4 10       		.uleb128 0x10
 5253 06b5 0A060000 		.4byte	.LASF80
 5254 06b9 01       		.byte	0x1
 5255 06ba 450B     		.2byte	0xb45
 5256 06bc E3040000 		.4byte	0x4e3
 5257 06c0 10       		.uleb128 0x10
ARM GAS  C:\Users\jsyoon\AppData\Local\Temp\ccDGobdh.s 			page 95


 5258 06c1 6C000000 		.4byte	.LASF94
 5259 06c5 01       		.byte	0x1
 5260 06c6 450B     		.2byte	0xb45
 5261 06c8 A2000000 		.4byte	0xa2
 5262 06cc 11       		.uleb128 0x11
 5263 06cd C6060000 		.4byte	.LASF95
 5264 06d1 01       		.byte	0x1
 5265 06d2 470B     		.2byte	0xb47
 5266 06d4 A2000000 		.4byte	0xa2
 5267 06d8 00       		.byte	0
 5268 06d9 13       		.uleb128 0x13
 5269 06da 5F0E0000 		.4byte	.LASF96
 5270 06de 01       		.byte	0x1
 5271 06df BD0B     		.2byte	0xbbd
 5272 06e1 01       		.byte	0x1
 5273 06e2 23070000 		.4byte	0x723
 5274 06e6 10       		.uleb128 0x10
 5275 06e7 0A060000 		.4byte	.LASF80
 5276 06eb 01       		.byte	0x1
 5277 06ec BD0B     		.2byte	0xbbd
 5278 06ee E3040000 		.4byte	0x4e3
 5279 06f2 10       		.uleb128 0x10
 5280 06f3 18070000 		.4byte	.LASF97
 5281 06f7 01       		.byte	0x1
 5282 06f8 BD0B     		.2byte	0xbbd
 5283 06fa A2000000 		.4byte	0xa2
 5284 06fe 10       		.uleb128 0x10
 5285 06ff CE060000 		.4byte	.LASF98
 5286 0703 01       		.byte	0x1
 5287 0704 BE0B     		.2byte	0xbbe
 5288 0706 A2000000 		.4byte	0xa2
 5289 070a 10       		.uleb128 0x10
 5290 070b 1F0E0000 		.4byte	.LASF99
 5291 070f 01       		.byte	0x1
 5292 0710 BE0B     		.2byte	0xbbe
 5293 0712 A2000000 		.4byte	0xa2
 5294 0716 11       		.uleb128 0x11
 5295 0717 C6060000 		.4byte	.LASF95
 5296 071b 01       		.byte	0x1
 5297 071c C00B     		.2byte	0xbc0
 5298 071e A2000000 		.4byte	0xa2
 5299 0722 00       		.byte	0
 5300 0723 15       		.uleb128 0x15
 5301 0724 6D0E0000 		.4byte	.LASF100
 5302 0728 01       		.byte	0x1
 5303 0729 C8       		.byte	0xc8
 5304 072a 00000000 		.4byte	.LFB111
 5305 072e B8010000 		.4byte	.LFE111-.LFB111
 5306 0732 01       		.uleb128 0x1
 5307 0733 9C       		.byte	0x9c
 5308 0734 FA090000 		.4byte	0x9fa
 5309 0738 16       		.uleb128 0x16
 5310 0739 0A060000 		.4byte	.LASF80
 5311 073d 01       		.byte	0x1
 5312 073e C8       		.byte	0xc8
 5313 073f E3040000 		.4byte	0x4e3
 5314 0743 00000000 		.4byte	.LLST0
ARM GAS  C:\Users\jsyoon\AppData\Local\Temp\ccDGobdh.s 			page 96


 5315 0747 17       		.uleb128 0x17
 5316 0748 66000000 		.4byte	.LVL2
 5317 074c AC240000 		.4byte	0x24ac
 5318 0750 61070000 		.4byte	0x761
 5319 0754 18       		.uleb128 0x18
 5320 0755 01       		.uleb128 0x1
 5321 0756 51       		.byte	0x51
 5322 0757 01       		.uleb128 0x1
 5323 0758 31       		.byte	0x31
 5324 0759 18       		.uleb128 0x18
 5325 075a 01       		.uleb128 0x1
 5326 075b 50       		.byte	0x50
 5327 075c 03       		.uleb128 0x3
 5328 075d 0A       		.byte	0xa
 5329 075e 0001     		.2byte	0x100
 5330 0760 00       		.byte	0
 5331 0761 19       		.uleb128 0x19
 5332 0762 74000000 		.4byte	.LVL3
 5333 0766 AC240000 		.4byte	0x24ac
 5334 076a 7B070000 		.4byte	0x77b
 5335 076e 18       		.uleb128 0x18
 5336 076f 01       		.uleb128 0x1
 5337 0770 51       		.byte	0x51
 5338 0771 01       		.uleb128 0x1
 5339 0772 30       		.byte	0x30
 5340 0773 18       		.uleb128 0x18
 5341 0774 01       		.uleb128 0x1
 5342 0775 50       		.byte	0x50
 5343 0776 03       		.uleb128 0x3
 5344 0777 0A       		.byte	0xa
 5345 0778 0001     		.2byte	0x100
 5346 077a 00       		.byte	0
 5347 077b 17       		.uleb128 0x17
 5348 077c 7C000000 		.4byte	.LVL5
 5349 0780 C3240000 		.4byte	0x24c3
 5350 0784 93070000 		.4byte	0x793
 5351 0788 18       		.uleb128 0x18
 5352 0789 01       		.uleb128 0x1
 5353 078a 51       		.byte	0x51
 5354 078b 01       		.uleb128 0x1
 5355 078c 31       		.byte	0x31
 5356 078d 18       		.uleb128 0x18
 5357 078e 01       		.uleb128 0x1
 5358 078f 50       		.byte	0x50
 5359 0790 01       		.uleb128 0x1
 5360 0791 31       		.byte	0x31
 5361 0792 00       		.byte	0
 5362 0793 19       		.uleb128 0x19
 5363 0794 88000000 		.4byte	.LVL6
 5364 0798 C3240000 		.4byte	0x24c3
 5365 079c AB070000 		.4byte	0x7ab
 5366 07a0 18       		.uleb128 0x18
 5367 07a1 01       		.uleb128 0x1
 5368 07a2 51       		.byte	0x51
 5369 07a3 01       		.uleb128 0x1
 5370 07a4 30       		.byte	0x30
 5371 07a5 18       		.uleb128 0x18
ARM GAS  C:\Users\jsyoon\AppData\Local\Temp\ccDGobdh.s 			page 97


 5372 07a6 01       		.uleb128 0x1
 5373 07a7 50       		.byte	0x50
 5374 07a8 01       		.uleb128 0x1
 5375 07a9 31       		.byte	0x31
 5376 07aa 00       		.byte	0
 5377 07ab 17       		.uleb128 0x17
 5378 07ac 90000000 		.4byte	.LVL8
 5379 07b0 AC240000 		.4byte	0x24ac
 5380 07b4 C3070000 		.4byte	0x7c3
 5381 07b8 18       		.uleb128 0x18
 5382 07b9 01       		.uleb128 0x1
 5383 07ba 51       		.byte	0x51
 5384 07bb 01       		.uleb128 0x1
 5385 07bc 31       		.byte	0x31
 5386 07bd 18       		.uleb128 0x18
 5387 07be 01       		.uleb128 0x1
 5388 07bf 50       		.byte	0x50
 5389 07c0 01       		.uleb128 0x1
 5390 07c1 31       		.byte	0x31
 5391 07c2 00       		.byte	0
 5392 07c3 19       		.uleb128 0x19
 5393 07c4 9C000000 		.4byte	.LVL9
 5394 07c8 AC240000 		.4byte	0x24ac
 5395 07cc DB070000 		.4byte	0x7db
 5396 07d0 18       		.uleb128 0x18
 5397 07d1 01       		.uleb128 0x1
 5398 07d2 51       		.byte	0x51
 5399 07d3 01       		.uleb128 0x1
 5400 07d4 30       		.byte	0x30
 5401 07d5 18       		.uleb128 0x18
 5402 07d6 01       		.uleb128 0x1
 5403 07d7 50       		.byte	0x50
 5404 07d8 01       		.uleb128 0x1
 5405 07d9 31       		.byte	0x31
 5406 07da 00       		.byte	0
 5407 07db 17       		.uleb128 0x17
 5408 07dc A4000000 		.4byte	.LVL11
 5409 07e0 AC240000 		.4byte	0x24ac
 5410 07e4 F3070000 		.4byte	0x7f3
 5411 07e8 18       		.uleb128 0x18
 5412 07e9 01       		.uleb128 0x1
 5413 07ea 51       		.byte	0x51
 5414 07eb 01       		.uleb128 0x1
 5415 07ec 31       		.byte	0x31
 5416 07ed 18       		.uleb128 0x18
 5417 07ee 01       		.uleb128 0x1
 5418 07ef 50       		.byte	0x50
 5419 07f0 01       		.uleb128 0x1
 5420 07f1 32       		.byte	0x32
 5421 07f2 00       		.byte	0
 5422 07f3 19       		.uleb128 0x19
 5423 07f4 B0000000 		.4byte	.LVL12
 5424 07f8 AC240000 		.4byte	0x24ac
 5425 07fc 0B080000 		.4byte	0x80b
 5426 0800 18       		.uleb128 0x18
 5427 0801 01       		.uleb128 0x1
 5428 0802 51       		.byte	0x51
ARM GAS  C:\Users\jsyoon\AppData\Local\Temp\ccDGobdh.s 			page 98


 5429 0803 01       		.uleb128 0x1
 5430 0804 30       		.byte	0x30
 5431 0805 18       		.uleb128 0x18
 5432 0806 01       		.uleb128 0x1
 5433 0807 50       		.byte	0x50
 5434 0808 01       		.uleb128 0x1
 5435 0809 32       		.byte	0x32
 5436 080a 00       		.byte	0
 5437 080b 17       		.uleb128 0x17
 5438 080c B8000000 		.4byte	.LVL14
 5439 0810 AC240000 		.4byte	0x24ac
 5440 0814 23080000 		.4byte	0x823
 5441 0818 18       		.uleb128 0x18
 5442 0819 01       		.uleb128 0x1
 5443 081a 51       		.byte	0x51
 5444 081b 01       		.uleb128 0x1
 5445 081c 31       		.byte	0x31
 5446 081d 18       		.uleb128 0x18
 5447 081e 01       		.uleb128 0x1
 5448 081f 50       		.byte	0x50
 5449 0820 01       		.uleb128 0x1
 5450 0821 34       		.byte	0x34
 5451 0822 00       		.byte	0
 5452 0823 19       		.uleb128 0x19
 5453 0824 C4000000 		.4byte	.LVL15
 5454 0828 AC240000 		.4byte	0x24ac
 5455 082c 3B080000 		.4byte	0x83b
 5456 0830 18       		.uleb128 0x18
 5457 0831 01       		.uleb128 0x1
 5458 0832 51       		.byte	0x51
 5459 0833 01       		.uleb128 0x1
 5460 0834 30       		.byte	0x30
 5461 0835 18       		.uleb128 0x18
 5462 0836 01       		.uleb128 0x1
 5463 0837 50       		.byte	0x50
 5464 0838 01       		.uleb128 0x1
 5465 0839 34       		.byte	0x34
 5466 083a 00       		.byte	0
 5467 083b 17       		.uleb128 0x17
 5468 083c CC000000 		.4byte	.LVL17
 5469 0840 AC240000 		.4byte	0x24ac
 5470 0844 53080000 		.4byte	0x853
 5471 0848 18       		.uleb128 0x18
 5472 0849 01       		.uleb128 0x1
 5473 084a 51       		.byte	0x51
 5474 084b 01       		.uleb128 0x1
 5475 084c 31       		.byte	0x31
 5476 084d 18       		.uleb128 0x18
 5477 084e 01       		.uleb128 0x1
 5478 084f 50       		.byte	0x50
 5479 0850 01       		.uleb128 0x1
 5480 0851 38       		.byte	0x38
 5481 0852 00       		.byte	0
 5482 0853 19       		.uleb128 0x19
 5483 0854 D8000000 		.4byte	.LVL18
 5484 0858 AC240000 		.4byte	0x24ac
 5485 085c 6B080000 		.4byte	0x86b
ARM GAS  C:\Users\jsyoon\AppData\Local\Temp\ccDGobdh.s 			page 99


 5486 0860 18       		.uleb128 0x18
 5487 0861 01       		.uleb128 0x1
 5488 0862 51       		.byte	0x51
 5489 0863 01       		.uleb128 0x1
 5490 0864 30       		.byte	0x30
 5491 0865 18       		.uleb128 0x18
 5492 0866 01       		.uleb128 0x1
 5493 0867 50       		.byte	0x50
 5494 0868 01       		.uleb128 0x1
 5495 0869 38       		.byte	0x38
 5496 086a 00       		.byte	0
 5497 086b 17       		.uleb128 0x17
 5498 086c E0000000 		.4byte	.LVL20
 5499 0870 AC240000 		.4byte	0x24ac
 5500 0874 83080000 		.4byte	0x883
 5501 0878 18       		.uleb128 0x18
 5502 0879 01       		.uleb128 0x1
 5503 087a 51       		.byte	0x51
 5504 087b 01       		.uleb128 0x1
 5505 087c 31       		.byte	0x31
 5506 087d 18       		.uleb128 0x18
 5507 087e 01       		.uleb128 0x1
 5508 087f 50       		.byte	0x50
 5509 0880 01       		.uleb128 0x1
 5510 0881 40       		.byte	0x40
 5511 0882 00       		.byte	0
 5512 0883 19       		.uleb128 0x19
 5513 0884 EC000000 		.4byte	.LVL21
 5514 0888 AC240000 		.4byte	0x24ac
 5515 088c 9B080000 		.4byte	0x89b
 5516 0890 18       		.uleb128 0x18
 5517 0891 01       		.uleb128 0x1
 5518 0892 51       		.byte	0x51
 5519 0893 01       		.uleb128 0x1
 5520 0894 30       		.byte	0x30
 5521 0895 18       		.uleb128 0x18
 5522 0896 01       		.uleb128 0x1
 5523 0897 50       		.byte	0x50
 5524 0898 01       		.uleb128 0x1
 5525 0899 40       		.byte	0x40
 5526 089a 00       		.byte	0
 5527 089b 17       		.uleb128 0x17
 5528 089c F4000000 		.4byte	.LVL23
 5529 08a0 AC240000 		.4byte	0x24ac
 5530 08a4 B4080000 		.4byte	0x8b4
 5531 08a8 18       		.uleb128 0x18
 5532 08a9 01       		.uleb128 0x1
 5533 08aa 51       		.byte	0x51
 5534 08ab 01       		.uleb128 0x1
 5535 08ac 31       		.byte	0x31
 5536 08ad 18       		.uleb128 0x18
 5537 08ae 01       		.uleb128 0x1
 5538 08af 50       		.byte	0x50
 5539 08b0 02       		.uleb128 0x2
 5540 08b1 08       		.byte	0x8
 5541 08b2 20       		.byte	0x20
 5542 08b3 00       		.byte	0
ARM GAS  C:\Users\jsyoon\AppData\Local\Temp\ccDGobdh.s 			page 100


 5543 08b4 19       		.uleb128 0x19
 5544 08b5 00010000 		.4byte	.LVL24
 5545 08b9 AC240000 		.4byte	0x24ac
 5546 08bd CD080000 		.4byte	0x8cd
 5547 08c1 18       		.uleb128 0x18
 5548 08c2 01       		.uleb128 0x1
 5549 08c3 51       		.byte	0x51
 5550 08c4 01       		.uleb128 0x1
 5551 08c5 30       		.byte	0x30
 5552 08c6 18       		.uleb128 0x18
 5553 08c7 01       		.uleb128 0x1
 5554 08c8 50       		.byte	0x50
 5555 08c9 02       		.uleb128 0x2
 5556 08ca 08       		.byte	0x8
 5557 08cb 20       		.byte	0x20
 5558 08cc 00       		.byte	0
 5559 08cd 17       		.uleb128 0x17
 5560 08ce 08010000 		.4byte	.LVL26
 5561 08d2 C3240000 		.4byte	0x24c3
 5562 08d6 E5080000 		.4byte	0x8e5
 5563 08da 18       		.uleb128 0x18
 5564 08db 01       		.uleb128 0x1
 5565 08dc 51       		.byte	0x51
 5566 08dd 01       		.uleb128 0x1
 5567 08de 31       		.byte	0x31
 5568 08df 18       		.uleb128 0x18
 5569 08e0 01       		.uleb128 0x1
 5570 08e1 50       		.byte	0x50
 5571 08e2 01       		.uleb128 0x1
 5572 08e3 32       		.byte	0x32
 5573 08e4 00       		.byte	0
 5574 08e5 19       		.uleb128 0x19
 5575 08e6 14010000 		.4byte	.LVL27
 5576 08ea C3240000 		.4byte	0x24c3
 5577 08ee FD080000 		.4byte	0x8fd
 5578 08f2 18       		.uleb128 0x18
 5579 08f3 01       		.uleb128 0x1
 5580 08f4 51       		.byte	0x51
 5581 08f5 01       		.uleb128 0x1
 5582 08f6 30       		.byte	0x30
 5583 08f7 18       		.uleb128 0x18
 5584 08f8 01       		.uleb128 0x1
 5585 08f9 50       		.byte	0x50
 5586 08fa 01       		.uleb128 0x1
 5587 08fb 32       		.byte	0x32
 5588 08fc 00       		.byte	0
 5589 08fd 17       		.uleb128 0x17
 5590 08fe 1E010000 		.4byte	.LVL29
 5591 0902 C3240000 		.4byte	0x24c3
 5592 0906 17090000 		.4byte	0x917
 5593 090a 18       		.uleb128 0x18
 5594 090b 01       		.uleb128 0x1
 5595 090c 51       		.byte	0x51
 5596 090d 01       		.uleb128 0x1
 5597 090e 31       		.byte	0x31
 5598 090f 18       		.uleb128 0x18
 5599 0910 01       		.uleb128 0x1
ARM GAS  C:\Users\jsyoon\AppData\Local\Temp\ccDGobdh.s 			page 101


 5600 0911 50       		.byte	0x50
 5601 0912 03       		.uleb128 0x3
 5602 0913 40       		.byte	0x40
 5603 0914 3C       		.byte	0x3c
 5604 0915 24       		.byte	0x24
 5605 0916 00       		.byte	0
 5606 0917 19       		.uleb128 0x19
 5607 0918 2C010000 		.4byte	.LVL30
 5608 091c C3240000 		.4byte	0x24c3
 5609 0920 31090000 		.4byte	0x931
 5610 0924 18       		.uleb128 0x18
 5611 0925 01       		.uleb128 0x1
 5612 0926 51       		.byte	0x51
 5613 0927 01       		.uleb128 0x1
 5614 0928 30       		.byte	0x30
 5615 0929 18       		.uleb128 0x18
 5616 092a 01       		.uleb128 0x1
 5617 092b 50       		.byte	0x50
 5618 092c 03       		.uleb128 0x3
 5619 092d 40       		.byte	0x40
 5620 092e 3C       		.byte	0x3c
 5621 092f 24       		.byte	0x24
 5622 0930 00       		.byte	0
 5623 0931 17       		.uleb128 0x17
 5624 0932 36010000 		.4byte	.LVL32
 5625 0936 C3240000 		.4byte	0x24c3
 5626 093a 4B090000 		.4byte	0x94b
 5627 093e 18       		.uleb128 0x18
 5628 093f 01       		.uleb128 0x1
 5629 0940 51       		.byte	0x51
 5630 0941 01       		.uleb128 0x1
 5631 0942 31       		.byte	0x31
 5632 0943 18       		.uleb128 0x18
 5633 0944 01       		.uleb128 0x1
 5634 0945 50       		.byte	0x50
 5635 0946 03       		.uleb128 0x3
 5636 0947 40       		.byte	0x40
 5637 0948 3D       		.byte	0x3d
 5638 0949 24       		.byte	0x24
 5639 094a 00       		.byte	0
 5640 094b 19       		.uleb128 0x19
 5641 094c 44010000 		.4byte	.LVL33
 5642 0950 C3240000 		.4byte	0x24c3
 5643 0954 65090000 		.4byte	0x965
 5644 0958 18       		.uleb128 0x18
 5645 0959 01       		.uleb128 0x1
 5646 095a 51       		.byte	0x51
 5647 095b 01       		.uleb128 0x1
 5648 095c 30       		.byte	0x30
 5649 095d 18       		.uleb128 0x18
 5650 095e 01       		.uleb128 0x1
 5651 095f 50       		.byte	0x50
 5652 0960 03       		.uleb128 0x3
 5653 0961 40       		.byte	0x40
 5654 0962 3D       		.byte	0x3d
 5655 0963 24       		.byte	0x24
 5656 0964 00       		.byte	0
ARM GAS  C:\Users\jsyoon\AppData\Local\Temp\ccDGobdh.s 			page 102


 5657 0965 17       		.uleb128 0x17
 5658 0966 4E010000 		.4byte	.LVL35
 5659 096a C3240000 		.4byte	0x24c3
 5660 096e 7F090000 		.4byte	0x97f
 5661 0972 18       		.uleb128 0x18
 5662 0973 01       		.uleb128 0x1
 5663 0974 51       		.byte	0x51
 5664 0975 01       		.uleb128 0x1
 5665 0976 31       		.byte	0x31
 5666 0977 18       		.uleb128 0x18
 5667 0978 01       		.uleb128 0x1
 5668 0979 50       		.byte	0x50
 5669 097a 03       		.uleb128 0x3
 5670 097b 40       		.byte	0x40
 5671 097c 3E       		.byte	0x3e
 5672 097d 24       		.byte	0x24
 5673 097e 00       		.byte	0
 5674 097f 19       		.uleb128 0x19
 5675 0980 5C010000 		.4byte	.LVL36
 5676 0984 C3240000 		.4byte	0x24c3
 5677 0988 99090000 		.4byte	0x999
 5678 098c 18       		.uleb128 0x18
 5679 098d 01       		.uleb128 0x1
 5680 098e 51       		.byte	0x51
 5681 098f 01       		.uleb128 0x1
 5682 0990 30       		.byte	0x30
 5683 0991 18       		.uleb128 0x18
 5684 0992 01       		.uleb128 0x1
 5685 0993 50       		.byte	0x50
 5686 0994 03       		.uleb128 0x3
 5687 0995 40       		.byte	0x40
 5688 0996 3E       		.byte	0x3e
 5689 0997 24       		.byte	0x24
 5690 0998 00       		.byte	0
 5691 0999 17       		.uleb128 0x17
 5692 099a 64010000 		.4byte	.LVL38
 5693 099e AC240000 		.4byte	0x24ac
 5694 09a2 B2090000 		.4byte	0x9b2
 5695 09a6 18       		.uleb128 0x18
 5696 09a7 01       		.uleb128 0x1
 5697 09a8 51       		.byte	0x51
 5698 09a9 01       		.uleb128 0x1
 5699 09aa 31       		.byte	0x31
 5700 09ab 18       		.uleb128 0x18
 5701 09ac 01       		.uleb128 0x1
 5702 09ad 50       		.byte	0x50
 5703 09ae 02       		.uleb128 0x2
 5704 09af 08       		.byte	0x8
 5705 09b0 40       		.byte	0x40
 5706 09b1 00       		.byte	0
 5707 09b2 19       		.uleb128 0x19
 5708 09b3 70010000 		.4byte	.LVL39
 5709 09b7 AC240000 		.4byte	0x24ac
 5710 09bb CB090000 		.4byte	0x9cb
 5711 09bf 18       		.uleb128 0x18
 5712 09c0 01       		.uleb128 0x1
 5713 09c1 51       		.byte	0x51
ARM GAS  C:\Users\jsyoon\AppData\Local\Temp\ccDGobdh.s 			page 103


 5714 09c2 01       		.uleb128 0x1
 5715 09c3 30       		.byte	0x30
 5716 09c4 18       		.uleb128 0x18
 5717 09c5 01       		.uleb128 0x1
 5718 09c6 50       		.byte	0x50
 5719 09c7 02       		.uleb128 0x2
 5720 09c8 08       		.byte	0x8
 5721 09c9 40       		.byte	0x40
 5722 09ca 00       		.byte	0
 5723 09cb 17       		.uleb128 0x17
 5724 09cc 78010000 		.4byte	.LVL41
 5725 09d0 AC240000 		.4byte	0x24ac
 5726 09d4 E4090000 		.4byte	0x9e4
 5727 09d8 18       		.uleb128 0x18
 5728 09d9 01       		.uleb128 0x1
 5729 09da 51       		.byte	0x51
 5730 09db 01       		.uleb128 0x1
 5731 09dc 31       		.byte	0x31
 5732 09dd 18       		.uleb128 0x18
 5733 09de 01       		.uleb128 0x1
 5734 09df 50       		.byte	0x50
 5735 09e0 02       		.uleb128 0x2
 5736 09e1 08       		.byte	0x8
 5737 09e2 80       		.byte	0x80
 5738 09e3 00       		.byte	0
 5739 09e4 1A       		.uleb128 0x1a
 5740 09e5 84010000 		.4byte	.LVL42
 5741 09e9 AC240000 		.4byte	0x24ac
 5742 09ed 18       		.uleb128 0x18
 5743 09ee 01       		.uleb128 0x1
 5744 09ef 51       		.byte	0x51
 5745 09f0 01       		.uleb128 0x1
 5746 09f1 30       		.byte	0x30
 5747 09f2 18       		.uleb128 0x18
 5748 09f3 01       		.uleb128 0x1
 5749 09f4 50       		.byte	0x50
 5750 09f5 02       		.uleb128 0x2
 5751 09f6 08       		.byte	0x8
 5752 09f7 80       		.byte	0x80
 5753 09f8 00       		.byte	0
 5754 09f9 00       		.byte	0
 5755 09fa 1B       		.uleb128 0x1b
 5756 09fb D2090000 		.4byte	.LASF101
 5757 09ff 01       		.byte	0x1
 5758 0a00 2001     		.2byte	0x120
 5759 0a02 00000000 		.4byte	.LFB112
 5760 0a06 9C000000 		.4byte	.LFE112-.LFB112
 5761 0a0a 01       		.uleb128 0x1
 5762 0a0b 9C       		.byte	0x9c
 5763 0a0c 3D0A0000 		.4byte	0xa3d
 5764 0a10 1C       		.uleb128 0x1c
 5765 0a11 0A060000 		.4byte	.LASF80
 5766 0a15 01       		.byte	0x1
 5767 0a16 2001     		.2byte	0x120
 5768 0a18 E3040000 		.4byte	0x4e3
 5769 0a1c 01       		.uleb128 0x1
 5770 0a1d 50       		.byte	0x50
ARM GAS  C:\Users\jsyoon\AppData\Local\Temp\ccDGobdh.s 			page 104


 5771 0a1e 1C       		.uleb128 0x1c
 5772 0a1f 06080000 		.4byte	.LASF102
 5773 0a23 01       		.byte	0x1
 5774 0a24 2001     		.2byte	0x120
 5775 0a26 3D0A0000 		.4byte	0xa3d
 5776 0a2a 01       		.uleb128 0x1
 5777 0a2b 51       		.byte	0x51
 5778 0a2c 1D       		.uleb128 0x1d
 5779 0a2d F4060000 		.4byte	.LASF108
 5780 0a31 01       		.byte	0x1
 5781 0a32 2201     		.2byte	0x122
 5782 0a34 A2000000 		.4byte	0xa2
 5783 0a38 66010000 		.4byte	.LLST1
 5784 0a3c 00       		.byte	0
 5785 0a3d 12       		.uleb128 0x12
 5786 0a3e 04       		.byte	0x4
 5787 0a3f 56030000 		.4byte	0x356
 5788 0a43 1B       		.uleb128 0x1b
 5789 0a44 57050000 		.4byte	.LASF103
 5790 0a48 01       		.byte	0x1
 5791 0a49 5401     		.2byte	0x154
 5792 0a4b 00000000 		.4byte	.LFB113
 5793 0a4f 12000000 		.4byte	.LFE113-.LFB113
 5794 0a53 01       		.uleb128 0x1
 5795 0a54 9C       		.byte	0x9c
 5796 0a55 680A0000 		.4byte	0xa68
 5797 0a59 1C       		.uleb128 0x1c
 5798 0a5a 06080000 		.4byte	.LASF102
 5799 0a5e 01       		.byte	0x1
 5800 0a5f 5401     		.2byte	0x154
 5801 0a61 3D0A0000 		.4byte	0xa3d
 5802 0a65 01       		.uleb128 0x1
 5803 0a66 50       		.byte	0x50
 5804 0a67 00       		.byte	0
 5805 0a68 1B       		.uleb128 0x1b
 5806 0a69 73090000 		.4byte	.LASF104
 5807 0a6d 01       		.byte	0x1
 5808 0a6e 6801     		.2byte	0x168
 5809 0a70 00000000 		.4byte	.LFB114
 5810 0a74 06000000 		.4byte	.LFE114-.LFB114
 5811 0a78 01       		.uleb128 0x1
 5812 0a79 9C       		.byte	0x9c
 5813 0a7a A90A0000 		.4byte	0xaa9
 5814 0a7e 1C       		.uleb128 0x1c
 5815 0a7f 0A060000 		.4byte	.LASF80
 5816 0a83 01       		.byte	0x1
 5817 0a84 6801     		.2byte	0x168
 5818 0a86 E3040000 		.4byte	0x4e3
 5819 0a8a 01       		.uleb128 0x1
 5820 0a8b 50       		.byte	0x50
 5821 0a8c 1C       		.uleb128 0x1c
 5822 0a8d 660B0000 		.4byte	.LASF105
 5823 0a91 01       		.byte	0x1
 5824 0a92 6801     		.2byte	0x168
 5825 0a94 A2000000 		.4byte	0xa2
 5826 0a98 01       		.uleb128 0x1
 5827 0a99 51       		.byte	0x51
ARM GAS  C:\Users\jsyoon\AppData\Local\Temp\ccDGobdh.s 			page 105


 5828 0a9a 1C       		.uleb128 0x1c
 5829 0a9b AE060000 		.4byte	.LASF106
 5830 0a9f 01       		.byte	0x1
 5831 0aa0 6801     		.2byte	0x168
 5832 0aa2 A2000000 		.4byte	0xa2
 5833 0aa6 01       		.uleb128 0x1
 5834 0aa7 52       		.byte	0x52
 5835 0aa8 00       		.byte	0
 5836 0aa9 1B       		.uleb128 0x1b
 5837 0aaa A1020000 		.4byte	.LASF107
 5838 0aae 01       		.byte	0x1
 5839 0aaf 7F01     		.2byte	0x17f
 5840 0ab1 00000000 		.4byte	.LFB115
 5841 0ab5 10000000 		.4byte	.LFE115-.LFB115
 5842 0ab9 01       		.uleb128 0x1
 5843 0aba 9C       		.byte	0x9c
 5844 0abb EE0A0000 		.4byte	0xaee
 5845 0abf 1C       		.uleb128 0x1c
 5846 0ac0 0A060000 		.4byte	.LASF80
 5847 0ac4 01       		.byte	0x1
 5848 0ac5 7F01     		.2byte	0x17f
 5849 0ac7 E3040000 		.4byte	0x4e3
 5850 0acb 01       		.uleb128 0x1
 5851 0acc 50       		.byte	0x50
 5852 0acd 1E       		.uleb128 0x1e
 5853 0ace 92000000 		.4byte	.LASF52
 5854 0ad2 01       		.byte	0x1
 5855 0ad3 7F01     		.2byte	0x17f
 5856 0ad5 A2000000 		.4byte	0xa2
 5857 0ad9 9B010000 		.4byte	.LLST2
 5858 0add 1D       		.uleb128 0x1d
 5859 0ade F4060000 		.4byte	.LASF108
 5860 0ae2 01       		.byte	0x1
 5861 0ae3 8101     		.2byte	0x181
 5862 0ae5 A2000000 		.4byte	0xa2
 5863 0ae9 BC010000 		.4byte	.LLST3
 5864 0aed 00       		.byte	0
 5865 0aee 1B       		.uleb128 0x1b
 5866 0aef 410C0000 		.4byte	.LASF109
 5867 0af3 01       		.byte	0x1
 5868 0af4 9901     		.2byte	0x199
 5869 0af6 00000000 		.4byte	.LFB116
 5870 0afa 04000000 		.4byte	.LFE116-.LFB116
 5871 0afe 01       		.uleb128 0x1
 5872 0aff 9C       		.byte	0x9c
 5873 0b00 210B0000 		.4byte	0xb21
 5874 0b04 1C       		.uleb128 0x1c
 5875 0b05 0A060000 		.4byte	.LASF80
 5876 0b09 01       		.byte	0x1
 5877 0b0a 9901     		.2byte	0x199
 5878 0b0c E3040000 		.4byte	0x4e3
 5879 0b10 01       		.uleb128 0x1
 5880 0b11 50       		.byte	0x50
 5881 0b12 1C       		.uleb128 0x1c
 5882 0b13 51080000 		.4byte	.LASF110
 5883 0b17 01       		.byte	0x1
 5884 0b18 9901     		.2byte	0x199
ARM GAS  C:\Users\jsyoon\AppData\Local\Temp\ccDGobdh.s 			page 106


 5885 0b1a B8000000 		.4byte	0xb8
 5886 0b1e 01       		.uleb128 0x1
 5887 0b1f 51       		.byte	0x51
 5888 0b20 00       		.byte	0
 5889 0b21 1B       		.uleb128 0x1b
 5890 0b22 BD030000 		.4byte	.LASF111
 5891 0b26 01       		.byte	0x1
 5892 0b27 A801     		.2byte	0x1a8
 5893 0b29 00000000 		.4byte	.LFB117
 5894 0b2d 04000000 		.4byte	.LFE117-.LFB117
 5895 0b31 01       		.uleb128 0x1
 5896 0b32 9C       		.byte	0x9c
 5897 0b33 540B0000 		.4byte	0xb54
 5898 0b37 1C       		.uleb128 0x1c
 5899 0b38 0A060000 		.4byte	.LASF80
 5900 0b3c 01       		.byte	0x1
 5901 0b3d A801     		.2byte	0x1a8
 5902 0b3f E3040000 		.4byte	0x4e3
 5903 0b43 01       		.uleb128 0x1
 5904 0b44 50       		.byte	0x50
 5905 0b45 1C       		.uleb128 0x1c
 5906 0b46 A2000000 		.4byte	.LASF112
 5907 0b4a 01       		.byte	0x1
 5908 0b4b A801     		.2byte	0x1a8
 5909 0b4d B8000000 		.4byte	0xb8
 5910 0b51 01       		.uleb128 0x1
 5911 0b52 51       		.byte	0x51
 5912 0b53 00       		.byte	0
 5913 0b54 1F       		.uleb128 0x1f
 5914 0b55 48050000 		.4byte	.LASF113
 5915 0b59 01       		.byte	0x1
 5916 0b5a B601     		.2byte	0x1b6
 5917 0b5c B8000000 		.4byte	0xb8
 5918 0b60 00000000 		.4byte	.LFB118
 5919 0b64 04000000 		.4byte	.LFE118-.LFB118
 5920 0b68 01       		.uleb128 0x1
 5921 0b69 9C       		.byte	0x9c
 5922 0b6a 7F0B0000 		.4byte	0xb7f
 5923 0b6e 1E       		.uleb128 0x1e
 5924 0b6f 0A060000 		.4byte	.LASF80
 5925 0b73 01       		.byte	0x1
 5926 0b74 B601     		.2byte	0x1b6
 5927 0b76 E3040000 		.4byte	0x4e3
 5928 0b7a F1010000 		.4byte	.LLST4
 5929 0b7e 00       		.byte	0
 5930 0b7f 1F       		.uleb128 0x1f
 5931 0b80 37050000 		.4byte	.LASF114
 5932 0b84 01       		.byte	0x1
 5933 0b85 C401     		.2byte	0x1c4
 5934 0b87 A2000000 		.4byte	0xa2
 5935 0b8b 00000000 		.4byte	.LFB119
 5936 0b8f 06000000 		.4byte	.LFE119-.LFB119
 5937 0b93 01       		.uleb128 0x1
 5938 0b94 9C       		.byte	0x9c
 5939 0b95 AA0B0000 		.4byte	0xbaa
 5940 0b99 1E       		.uleb128 0x1e
 5941 0b9a 0A060000 		.4byte	.LASF80
ARM GAS  C:\Users\jsyoon\AppData\Local\Temp\ccDGobdh.s 			page 107


 5942 0b9e 01       		.byte	0x1
 5943 0b9f C401     		.2byte	0x1c4
 5944 0ba1 E3040000 		.4byte	0x4e3
 5945 0ba5 12020000 		.4byte	.LLST5
 5946 0ba9 00       		.byte	0
 5947 0baa 1B       		.uleb128 0x1b
 5948 0bab 18010000 		.4byte	.LASF115
 5949 0baf 01       		.byte	0x1
 5950 0bb0 D401     		.2byte	0x1d4
 5951 0bb2 00000000 		.4byte	.LFB120
 5952 0bb6 1A000000 		.4byte	.LFE120-.LFB120
 5953 0bba 01       		.uleb128 0x1
 5954 0bbb 9C       		.byte	0x9c
 5955 0bbc DD0B0000 		.4byte	0xbdd
 5956 0bc0 1C       		.uleb128 0x1c
 5957 0bc1 0A060000 		.4byte	.LASF80
 5958 0bc5 01       		.byte	0x1
 5959 0bc6 D401     		.2byte	0x1d4
 5960 0bc8 E3040000 		.4byte	0x4e3
 5961 0bcc 01       		.uleb128 0x1
 5962 0bcd 50       		.byte	0x50
 5963 0bce 1C       		.uleb128 0x1c
 5964 0bcf 0B000000 		.4byte	.LASF116
 5965 0bd3 01       		.byte	0x1
 5966 0bd4 D401     		.2byte	0x1d4
 5967 0bd6 1D010000 		.4byte	0x11d
 5968 0bda 01       		.uleb128 0x1
 5969 0bdb 51       		.byte	0x51
 5970 0bdc 00       		.byte	0
 5971 0bdd 1B       		.uleb128 0x1b
 5972 0bde 4E0B0000 		.4byte	.LASF117
 5973 0be2 01       		.byte	0x1
 5974 0be3 F101     		.2byte	0x1f1
 5975 0be5 00000000 		.4byte	.LFB121
 5976 0be9 1A000000 		.4byte	.LFE121-.LFB121
 5977 0bed 01       		.uleb128 0x1
 5978 0bee 9C       		.byte	0x9c
 5979 0bef 100C0000 		.4byte	0xc10
 5980 0bf3 1C       		.uleb128 0x1c
 5981 0bf4 0A060000 		.4byte	.LASF80
 5982 0bf8 01       		.byte	0x1
 5983 0bf9 F101     		.2byte	0x1f1
 5984 0bfb E3040000 		.4byte	0x4e3
 5985 0bff 01       		.uleb128 0x1
 5986 0c00 50       		.byte	0x50
 5987 0c01 1C       		.uleb128 0x1c
 5988 0c02 2F040000 		.4byte	.LASF118
 5989 0c06 01       		.byte	0x1
 5990 0c07 F101     		.2byte	0x1f1
 5991 0c09 A2000000 		.4byte	0xa2
 5992 0c0d 01       		.uleb128 0x1
 5993 0c0e 51       		.byte	0x51
 5994 0c0f 00       		.byte	0
 5995 0c10 1B       		.uleb128 0x1b
 5996 0c11 D2010000 		.4byte	.LASF119
 5997 0c15 01       		.byte	0x1
 5998 0c16 0A02     		.2byte	0x20a
ARM GAS  C:\Users\jsyoon\AppData\Local\Temp\ccDGobdh.s 			page 108


 5999 0c18 00000000 		.4byte	.LFB122
 6000 0c1c 1A000000 		.4byte	.LFE122-.LFB122
 6001 0c20 01       		.uleb128 0x1
 6002 0c21 9C       		.byte	0x9c
 6003 0c22 430C0000 		.4byte	0xc43
 6004 0c26 1C       		.uleb128 0x1c
 6005 0c27 0A060000 		.4byte	.LASF80
 6006 0c2b 01       		.byte	0x1
 6007 0c2c 0A02     		.2byte	0x20a
 6008 0c2e E3040000 		.4byte	0x4e3
 6009 0c32 01       		.uleb128 0x1
 6010 0c33 50       		.byte	0x50
 6011 0c34 1C       		.uleb128 0x1c
 6012 0c35 0B000000 		.4byte	.LASF116
 6013 0c39 01       		.byte	0x1
 6014 0c3a 0A02     		.2byte	0x20a
 6015 0c3c 1D010000 		.4byte	0x11d
 6016 0c40 01       		.uleb128 0x1
 6017 0c41 51       		.byte	0x51
 6018 0c42 00       		.byte	0
 6019 0c43 1B       		.uleb128 0x1b
 6020 0c44 28000000 		.4byte	.LASF120
 6021 0c48 01       		.byte	0x1
 6022 0c49 2502     		.2byte	0x225
 6023 0c4b 00000000 		.4byte	.LFB123
 6024 0c4f 16000000 		.4byte	.LFE123-.LFB123
 6025 0c53 01       		.uleb128 0x1
 6026 0c54 9C       		.byte	0x9c
 6027 0c55 780C0000 		.4byte	0xc78
 6028 0c59 1C       		.uleb128 0x1c
 6029 0c5a 0A060000 		.4byte	.LASF80
 6030 0c5e 01       		.byte	0x1
 6031 0c5f 2502     		.2byte	0x225
 6032 0c61 E3040000 		.4byte	0x4e3
 6033 0c65 01       		.uleb128 0x1
 6034 0c66 50       		.byte	0x50
 6035 0c67 1E       		.uleb128 0x1e
 6036 0c68 00000000 		.4byte	.LASF121
 6037 0c6c 01       		.byte	0x1
 6038 0c6d 2502     		.2byte	0x225
 6039 0c6f A2000000 		.4byte	0xa2
 6040 0c73 33020000 		.4byte	.LLST6
 6041 0c77 00       		.byte	0
 6042 0c78 1B       		.uleb128 0x1b
 6043 0c79 34080000 		.4byte	.LASF122
 6044 0c7d 01       		.byte	0x1
 6045 0c7e 3C02     		.2byte	0x23c
 6046 0c80 00000000 		.4byte	.LFB124
 6047 0c84 16000000 		.4byte	.LFE124-.LFB124
 6048 0c88 01       		.uleb128 0x1
 6049 0c89 9C       		.byte	0x9c
 6050 0c8a AD0C0000 		.4byte	0xcad
 6051 0c8e 1C       		.uleb128 0x1c
 6052 0c8f 0A060000 		.4byte	.LASF80
 6053 0c93 01       		.byte	0x1
 6054 0c94 3C02     		.2byte	0x23c
 6055 0c96 E3040000 		.4byte	0x4e3
ARM GAS  C:\Users\jsyoon\AppData\Local\Temp\ccDGobdh.s 			page 109


 6056 0c9a 01       		.uleb128 0x1
 6057 0c9b 50       		.byte	0x50
 6058 0c9c 1E       		.uleb128 0x1e
 6059 0c9d B5030000 		.4byte	.LASF123
 6060 0ca1 01       		.byte	0x1
 6061 0ca2 3C02     		.2byte	0x23c
 6062 0ca4 A2000000 		.4byte	0xa2
 6063 0ca8 54020000 		.4byte	.LLST7
 6064 0cac 00       		.byte	0
 6065 0cad 1B       		.uleb128 0x1b
 6066 0cae 8D0A0000 		.4byte	.LASF124
 6067 0cb2 01       		.byte	0x1
 6068 0cb3 5002     		.2byte	0x250
 6069 0cb5 00000000 		.4byte	.LFB125
 6070 0cb9 1A000000 		.4byte	.LFE125-.LFB125
 6071 0cbd 01       		.uleb128 0x1
 6072 0cbe 9C       		.byte	0x9c
 6073 0cbf E00C0000 		.4byte	0xce0
 6074 0cc3 1C       		.uleb128 0x1c
 6075 0cc4 0A060000 		.4byte	.LASF80
 6076 0cc8 01       		.byte	0x1
 6077 0cc9 5002     		.2byte	0x250
 6078 0ccb E3040000 		.4byte	0x4e3
 6079 0ccf 01       		.uleb128 0x1
 6080 0cd0 50       		.byte	0x50
 6081 0cd1 1C       		.uleb128 0x1c
 6082 0cd2 0B000000 		.4byte	.LASF116
 6083 0cd6 01       		.byte	0x1
 6084 0cd7 5002     		.2byte	0x250
 6085 0cd9 1D010000 		.4byte	0x11d
 6086 0cdd 01       		.uleb128 0x1
 6087 0cde 51       		.byte	0x51
 6088 0cdf 00       		.byte	0
 6089 0ce0 1B       		.uleb128 0x1b
 6090 0ce1 B40D0000 		.4byte	.LASF125
 6091 0ce5 01       		.byte	0x1
 6092 0ce6 9F02     		.2byte	0x29f
 6093 0ce8 00000000 		.4byte	.LFB126
 6094 0cec 80000000 		.4byte	.LFE126-.LFB126
 6095 0cf0 01       		.uleb128 0x1
 6096 0cf1 9C       		.byte	0x9c
 6097 0cf2 450D0000 		.4byte	0xd45
 6098 0cf6 1C       		.uleb128 0x1c
 6099 0cf7 0A060000 		.4byte	.LASF80
 6100 0cfb 01       		.byte	0x1
 6101 0cfc 9F02     		.2byte	0x29f
 6102 0cfe E3040000 		.4byte	0x4e3
 6103 0d02 01       		.uleb128 0x1
 6104 0d03 50       		.byte	0x50
 6105 0d04 1E       		.uleb128 0x1e
 6106 0d05 E6050000 		.4byte	.LASF126
 6107 0d09 01       		.byte	0x1
 6108 0d0a 9F02     		.2byte	0x29f
 6109 0d0c 450D0000 		.4byte	0xd45
 6110 0d10 75020000 		.4byte	.LLST8
 6111 0d14 1D       		.uleb128 0x1d
 6112 0d15 90030000 		.4byte	.LASF127
ARM GAS  C:\Users\jsyoon\AppData\Local\Temp\ccDGobdh.s 			page 110


 6113 0d19 01       		.byte	0x1
 6114 0d1a A102     		.2byte	0x2a1
 6115 0d1c A2000000 		.4byte	0xa2
 6116 0d20 A1020000 		.4byte	.LLST9
 6117 0d24 1D       		.uleb128 0x1d
 6118 0d25 DF040000 		.4byte	.LASF82
 6119 0d29 01       		.byte	0x1
 6120 0d2a A102     		.2byte	0x2a1
 6121 0d2c A2000000 		.4byte	0xa2
 6122 0d30 C0020000 		.4byte	.LLST10
 6123 0d34 1D       		.uleb128 0x1d
 6124 0d35 74010000 		.4byte	.LASF128
 6125 0d39 01       		.byte	0x1
 6126 0d3a A102     		.2byte	0x2a1
 6127 0d3c A2000000 		.4byte	0xa2
 6128 0d40 EA020000 		.4byte	.LLST11
 6129 0d44 00       		.byte	0
 6130 0d45 12       		.uleb128 0x12
 6131 0d46 04       		.byte	0x4
 6132 0d47 CA030000 		.4byte	0x3ca
 6133 0d4b 1B       		.uleb128 0x1b
 6134 0d4c 4F000000 		.4byte	.LASF129
 6135 0d50 01       		.byte	0x1
 6136 0d51 F002     		.2byte	0x2f0
 6137 0d53 00000000 		.4byte	.LFB127
 6138 0d57 90000000 		.4byte	.LFE127-.LFB127
 6139 0d5b 01       		.uleb128 0x1
 6140 0d5c 9C       		.byte	0x9c
 6141 0d5d B00D0000 		.4byte	0xdb0
 6142 0d61 1C       		.uleb128 0x1c
 6143 0d62 0A060000 		.4byte	.LASF80
 6144 0d66 01       		.byte	0x1
 6145 0d67 F002     		.2byte	0x2f0
 6146 0d69 E3040000 		.4byte	0x4e3
 6147 0d6d 01       		.uleb128 0x1
 6148 0d6e 50       		.byte	0x50
 6149 0d6f 1E       		.uleb128 0x1e
 6150 0d70 E6050000 		.4byte	.LASF126
 6151 0d74 01       		.byte	0x1
 6152 0d75 F002     		.2byte	0x2f0
 6153 0d77 450D0000 		.4byte	0xd45
 6154 0d7b 31030000 		.4byte	.LLST12
 6155 0d7f 1D       		.uleb128 0x1d
 6156 0d80 90030000 		.4byte	.LASF127
 6157 0d84 01       		.byte	0x1
 6158 0d85 F202     		.2byte	0x2f2
 6159 0d87 A2000000 		.4byte	0xa2
 6160 0d8b 5D030000 		.4byte	.LLST13
 6161 0d8f 1D       		.uleb128 0x1d
 6162 0d90 DF040000 		.4byte	.LASF82
 6163 0d94 01       		.byte	0x1
 6164 0d95 F202     		.2byte	0x2f2
 6165 0d97 A2000000 		.4byte	0xa2
 6166 0d9b 7C030000 		.4byte	.LLST14
 6167 0d9f 1D       		.uleb128 0x1d
 6168 0da0 74010000 		.4byte	.LASF128
 6169 0da4 01       		.byte	0x1
ARM GAS  C:\Users\jsyoon\AppData\Local\Temp\ccDGobdh.s 			page 111


 6170 0da5 F202     		.2byte	0x2f2
 6171 0da7 A2000000 		.4byte	0xa2
 6172 0dab C7030000 		.4byte	.LLST15
 6173 0daf 00       		.byte	0
 6174 0db0 1B       		.uleb128 0x1b
 6175 0db1 10040000 		.4byte	.LASF130
 6176 0db5 01       		.byte	0x1
 6177 0db6 4103     		.2byte	0x341
 6178 0db8 00000000 		.4byte	.LFB128
 6179 0dbc 8C000000 		.4byte	.LFE128-.LFB128
 6180 0dc0 01       		.uleb128 0x1
 6181 0dc1 9C       		.byte	0x9c
 6182 0dc2 150E0000 		.4byte	0xe15
 6183 0dc6 1C       		.uleb128 0x1c
 6184 0dc7 0A060000 		.4byte	.LASF80
 6185 0dcb 01       		.byte	0x1
 6186 0dcc 4103     		.2byte	0x341
 6187 0dce E3040000 		.4byte	0x4e3
 6188 0dd2 01       		.uleb128 0x1
 6189 0dd3 50       		.byte	0x50
 6190 0dd4 1E       		.uleb128 0x1e
 6191 0dd5 E6050000 		.4byte	.LASF126
 6192 0dd9 01       		.byte	0x1
 6193 0dda 4103     		.2byte	0x341
 6194 0ddc 450D0000 		.4byte	0xd45
 6195 0de0 FC030000 		.4byte	.LLST16
 6196 0de4 1D       		.uleb128 0x1d
 6197 0de5 90030000 		.4byte	.LASF127
 6198 0de9 01       		.byte	0x1
 6199 0dea 4303     		.2byte	0x343
 6200 0dec A2000000 		.4byte	0xa2
 6201 0df0 28040000 		.4byte	.LLST17
 6202 0df4 1D       		.uleb128 0x1d
 6203 0df5 DF040000 		.4byte	.LASF82
 6204 0df9 01       		.byte	0x1
 6205 0dfa 4303     		.2byte	0x343
 6206 0dfc A2000000 		.4byte	0xa2
 6207 0e00 47040000 		.4byte	.LLST18
 6208 0e04 1D       		.uleb128 0x1d
 6209 0e05 74010000 		.4byte	.LASF128
 6210 0e09 01       		.byte	0x1
 6211 0e0a 4303     		.2byte	0x343
 6212 0e0c A2000000 		.4byte	0xa2
 6213 0e10 92040000 		.4byte	.LLST19
 6214 0e14 00       		.byte	0
 6215 0e15 1B       		.uleb128 0x1b
 6216 0e16 180B0000 		.4byte	.LASF131
 6217 0e1a 01       		.byte	0x1
 6218 0e1b 9103     		.2byte	0x391
 6219 0e1d 00000000 		.4byte	.LFB129
 6220 0e21 6C000000 		.4byte	.LFE129-.LFB129
 6221 0e25 01       		.uleb128 0x1
 6222 0e26 9C       		.byte	0x9c
 6223 0e27 7A0E0000 		.4byte	0xe7a
 6224 0e2b 1C       		.uleb128 0x1c
 6225 0e2c 0A060000 		.4byte	.LASF80
 6226 0e30 01       		.byte	0x1
ARM GAS  C:\Users\jsyoon\AppData\Local\Temp\ccDGobdh.s 			page 112


 6227 0e31 9103     		.2byte	0x391
 6228 0e33 E3040000 		.4byte	0x4e3
 6229 0e37 01       		.uleb128 0x1
 6230 0e38 50       		.byte	0x50
 6231 0e39 1E       		.uleb128 0x1e
 6232 0e3a E6050000 		.4byte	.LASF126
 6233 0e3e 01       		.byte	0x1
 6234 0e3f 9103     		.2byte	0x391
 6235 0e41 450D0000 		.4byte	0xd45
 6236 0e45 C7040000 		.4byte	.LLST20
 6237 0e49 1D       		.uleb128 0x1d
 6238 0e4a 90030000 		.4byte	.LASF127
 6239 0e4e 01       		.byte	0x1
 6240 0e4f 9303     		.2byte	0x393
 6241 0e51 A2000000 		.4byte	0xa2
 6242 0e55 F3040000 		.4byte	.LLST21
 6243 0e59 1D       		.uleb128 0x1d
 6244 0e5a DF040000 		.4byte	.LASF82
 6245 0e5e 01       		.byte	0x1
 6246 0e5f 9303     		.2byte	0x393
 6247 0e61 A2000000 		.4byte	0xa2
 6248 0e65 12050000 		.4byte	.LLST22
 6249 0e69 1D       		.uleb128 0x1d
 6250 0e6a 74010000 		.4byte	.LASF128
 6251 0e6e 01       		.byte	0x1
 6252 0e6f 9303     		.2byte	0x393
 6253 0e71 A2000000 		.4byte	0xa2
 6254 0e75 3C050000 		.4byte	.LLST23
 6255 0e79 00       		.byte	0
 6256 0e7a 1B       		.uleb128 0x1b
 6257 0e7b 9D060000 		.4byte	.LASF132
 6258 0e7f 01       		.byte	0x1
 6259 0e80 D003     		.2byte	0x3d0
 6260 0e82 00000000 		.4byte	.LFB130
 6261 0e86 14000000 		.4byte	.LFE130-.LFB130
 6262 0e8a 01       		.uleb128 0x1
 6263 0e8b 9C       		.byte	0x9c
 6264 0e8c 9F0E0000 		.4byte	0xe9f
 6265 0e90 1C       		.uleb128 0x1c
 6266 0e91 E6050000 		.4byte	.LASF126
 6267 0e95 01       		.byte	0x1
 6268 0e96 D003     		.2byte	0x3d0
 6269 0e98 450D0000 		.4byte	0xd45
 6270 0e9c 01       		.uleb128 0x1
 6271 0e9d 50       		.byte	0x50
 6272 0e9e 00       		.byte	0
 6273 0e9f 1B       		.uleb128 0x1b
 6274 0ea0 3F0B0000 		.4byte	.LASF133
 6275 0ea4 01       		.byte	0x1
 6276 0ea5 F403     		.2byte	0x3f4
 6277 0ea7 00000000 		.4byte	.LFB131
 6278 0eab 50000000 		.4byte	.LFE131-.LFB131
 6279 0eaf 01       		.uleb128 0x1
 6280 0eb0 9C       		.byte	0x9c
 6281 0eb1 060F0000 		.4byte	0xf06
 6282 0eb5 1E       		.uleb128 0x1e
 6283 0eb6 0A060000 		.4byte	.LASF80
ARM GAS  C:\Users\jsyoon\AppData\Local\Temp\ccDGobdh.s 			page 113


 6284 0eba 01       		.byte	0x1
 6285 0ebb F403     		.2byte	0x3f4
 6286 0ebd E3040000 		.4byte	0x4e3
 6287 0ec1 71050000 		.4byte	.LLST24
 6288 0ec5 1E       		.uleb128 0x1e
 6289 0ec6 89020000 		.4byte	.LASF66
 6290 0eca 01       		.byte	0x1
 6291 0ecb F403     		.2byte	0x3f4
 6292 0ecd A2000000 		.4byte	0xa2
 6293 0ed1 91050000 		.4byte	.LLST25
 6294 0ed5 1E       		.uleb128 0x1e
 6295 0ed6 A60B0000 		.4byte	.LASF57
 6296 0eda 01       		.byte	0x1
 6297 0edb F403     		.2byte	0x3f4
 6298 0edd A2000000 		.4byte	0xa2
 6299 0ee1 CB050000 		.4byte	.LLST26
 6300 0ee5 20       		.uleb128 0x20
 6301 0ee6 746D7000 		.ascii	"tmp\000"
 6302 0eea 01       		.byte	0x1
 6303 0eeb F603     		.2byte	0x3f6
 6304 0eed B8000000 		.4byte	0xb8
 6305 0ef1 05060000 		.4byte	.LLST27
 6306 0ef5 1D       		.uleb128 0x1d
 6307 0ef6 2C020000 		.4byte	.LASF134
 6308 0efa 01       		.byte	0x1
 6309 0efb F703     		.2byte	0x3f7
 6310 0efd A2000000 		.4byte	0xa2
 6311 0f01 5A060000 		.4byte	.LLST28
 6312 0f05 00       		.byte	0
 6313 0f06 1B       		.uleb128 0x1b
 6314 0f07 F8000000 		.4byte	.LASF135
 6315 0f0b 01       		.byte	0x1
 6316 0f0c 2204     		.2byte	0x422
 6317 0f0e 00000000 		.4byte	.LFB132
 6318 0f12 04000000 		.4byte	.LFE132-.LFB132
 6319 0f16 01       		.uleb128 0x1
 6320 0f17 9C       		.byte	0x9c
 6321 0f18 390F0000 		.4byte	0xf39
 6322 0f1c 1C       		.uleb128 0x1c
 6323 0f1d 0A060000 		.4byte	.LASF80
 6324 0f21 01       		.byte	0x1
 6325 0f22 2204     		.2byte	0x422
 6326 0f24 E3040000 		.4byte	0x4e3
 6327 0f28 01       		.uleb128 0x1
 6328 0f29 50       		.byte	0x50
 6329 0f2a 1C       		.uleb128 0x1c
 6330 0f2b EF000000 		.4byte	.LASF136
 6331 0f2f 01       		.byte	0x1
 6332 0f30 2204     		.2byte	0x422
 6333 0f32 B8000000 		.4byte	0xb8
 6334 0f36 01       		.uleb128 0x1
 6335 0f37 51       		.byte	0x51
 6336 0f38 00       		.byte	0
 6337 0f39 1B       		.uleb128 0x1b
 6338 0f3a B1040000 		.4byte	.LASF137
 6339 0f3e 01       		.byte	0x1
 6340 0f3f 3204     		.2byte	0x432
ARM GAS  C:\Users\jsyoon\AppData\Local\Temp\ccDGobdh.s 			page 114


 6341 0f41 00000000 		.4byte	.LFB133
 6342 0f45 04000000 		.4byte	.LFE133-.LFB133
 6343 0f49 01       		.uleb128 0x1
 6344 0f4a 9C       		.byte	0x9c
 6345 0f4b 6C0F0000 		.4byte	0xf6c
 6346 0f4f 1C       		.uleb128 0x1c
 6347 0f50 0A060000 		.4byte	.LASF80
 6348 0f54 01       		.byte	0x1
 6349 0f55 3204     		.2byte	0x432
 6350 0f57 E3040000 		.4byte	0x4e3
 6351 0f5b 01       		.uleb128 0x1
 6352 0f5c 50       		.byte	0x50
 6353 0f5d 1C       		.uleb128 0x1c
 6354 0f5e 59080000 		.4byte	.LASF138
 6355 0f62 01       		.byte	0x1
 6356 0f63 3204     		.2byte	0x432
 6357 0f65 B8000000 		.4byte	0xb8
 6358 0f69 01       		.uleb128 0x1
 6359 0f6a 51       		.byte	0x51
 6360 0f6b 00       		.byte	0
 6361 0f6c 1B       		.uleb128 0x1b
 6362 0f6d C1040000 		.4byte	.LASF139
 6363 0f71 01       		.byte	0x1
 6364 0f72 4104     		.2byte	0x441
 6365 0f74 00000000 		.4byte	.LFB134
 6366 0f78 04000000 		.4byte	.LFE134-.LFB134
 6367 0f7c 01       		.uleb128 0x1
 6368 0f7d 9C       		.byte	0x9c
 6369 0f7e 9F0F0000 		.4byte	0xf9f
 6370 0f82 1C       		.uleb128 0x1c
 6371 0f83 0A060000 		.4byte	.LASF80
 6372 0f87 01       		.byte	0x1
 6373 0f88 4104     		.2byte	0x441
 6374 0f8a E3040000 		.4byte	0x4e3
 6375 0f8e 01       		.uleb128 0x1
 6376 0f8f 50       		.byte	0x50
 6377 0f90 1C       		.uleb128 0x1c
 6378 0f91 30010000 		.4byte	.LASF140
 6379 0f95 01       		.byte	0x1
 6380 0f96 4104     		.2byte	0x441
 6381 0f98 B8000000 		.4byte	0xb8
 6382 0f9c 01       		.uleb128 0x1
 6383 0f9d 51       		.byte	0x51
 6384 0f9e 00       		.byte	0
 6385 0f9f 1B       		.uleb128 0x1b
 6386 0fa0 2F0B0000 		.4byte	.LASF141
 6387 0fa4 01       		.byte	0x1
 6388 0fa5 5004     		.2byte	0x450
 6389 0fa7 00000000 		.4byte	.LFB135
 6390 0fab 04000000 		.4byte	.LFE135-.LFB135
 6391 0faf 01       		.uleb128 0x1
 6392 0fb0 9C       		.byte	0x9c
 6393 0fb1 D20F0000 		.4byte	0xfd2
 6394 0fb5 1C       		.uleb128 0x1c
 6395 0fb6 0A060000 		.4byte	.LASF80
 6396 0fba 01       		.byte	0x1
 6397 0fbb 5004     		.2byte	0x450
ARM GAS  C:\Users\jsyoon\AppData\Local\Temp\ccDGobdh.s 			page 115


 6398 0fbd E3040000 		.4byte	0x4e3
 6399 0fc1 01       		.uleb128 0x1
 6400 0fc2 50       		.byte	0x50
 6401 0fc3 1C       		.uleb128 0x1c
 6402 0fc4 99070000 		.4byte	.LASF142
 6403 0fc8 01       		.byte	0x1
 6404 0fc9 5004     		.2byte	0x450
 6405 0fcb B8000000 		.4byte	0xb8
 6406 0fcf 01       		.uleb128 0x1
 6407 0fd0 51       		.byte	0x51
 6408 0fd1 00       		.byte	0
 6409 0fd2 1B       		.uleb128 0x1b
 6410 0fd3 FB060000 		.4byte	.LASF143
 6411 0fd7 01       		.byte	0x1
 6412 0fd8 6204     		.2byte	0x462
 6413 0fda 00000000 		.4byte	.LFB136
 6414 0fde 10000000 		.4byte	.LFE136-.LFB136
 6415 0fe2 01       		.uleb128 0x1
 6416 0fe3 9C       		.byte	0x9c
 6417 0fe4 17100000 		.4byte	0x1017
 6418 0fe8 1C       		.uleb128 0x1c
 6419 0fe9 0A060000 		.4byte	.LASF80
 6420 0fed 01       		.byte	0x1
 6421 0fee 6204     		.2byte	0x462
 6422 0ff0 E3040000 		.4byte	0x4e3
 6423 0ff4 01       		.uleb128 0x1
 6424 0ff5 50       		.byte	0x50
 6425 0ff6 1E       		.uleb128 0x1e
 6426 0ff7 5B000000 		.4byte	.LASF144
 6427 0ffb 01       		.byte	0x1
 6428 0ffc 6204     		.2byte	0x462
 6429 0ffe A2000000 		.4byte	0xa2
 6430 1002 6E060000 		.4byte	.LLST29
 6431 1006 1D       		.uleb128 0x1d
 6432 1007 5A010000 		.4byte	.LASF81
 6433 100b 01       		.byte	0x1
 6434 100c 6404     		.2byte	0x464
 6435 100e A2000000 		.4byte	0xa2
 6436 1012 8F060000 		.4byte	.LLST30
 6437 1016 00       		.byte	0
 6438 1017 1B       		.uleb128 0x1b
 6439 1018 14000000 		.4byte	.LASF145
 6440 101c 01       		.byte	0x1
 6441 101d 7F04     		.2byte	0x47f
 6442 101f 00000000 		.4byte	.LFB137
 6443 1023 14000000 		.4byte	.LFE137-.LFB137
 6444 1027 01       		.uleb128 0x1
 6445 1028 9C       		.byte	0x9c
 6446 1029 5C100000 		.4byte	0x105c
 6447 102d 1C       		.uleb128 0x1c
 6448 102e 0A060000 		.4byte	.LASF80
 6449 1032 01       		.byte	0x1
 6450 1033 7F04     		.2byte	0x47f
 6451 1035 E3040000 		.4byte	0x4e3
 6452 1039 01       		.uleb128 0x1
 6453 103a 50       		.byte	0x50
 6454 103b 1E       		.uleb128 0x1e
ARM GAS  C:\Users\jsyoon\AppData\Local\Temp\ccDGobdh.s 			page 116


 6455 103c 5B000000 		.4byte	.LASF144
 6456 1040 01       		.byte	0x1
 6457 1041 7F04     		.2byte	0x47f
 6458 1043 A2000000 		.4byte	0xa2
 6459 1047 C4060000 		.4byte	.LLST31
 6460 104b 1D       		.uleb128 0x1d
 6461 104c 5A010000 		.4byte	.LASF81
 6462 1050 01       		.byte	0x1
 6463 1051 8104     		.2byte	0x481
 6464 1053 A2000000 		.4byte	0xa2
 6465 1057 E5060000 		.4byte	.LLST32
 6466 105b 00       		.byte	0
 6467 105c 1B       		.uleb128 0x1b
 6468 105d 69070000 		.4byte	.LASF146
 6469 1061 01       		.byte	0x1
 6470 1062 9B04     		.2byte	0x49b
 6471 1064 00000000 		.4byte	.LFB138
 6472 1068 10000000 		.4byte	.LFE138-.LFB138
 6473 106c 01       		.uleb128 0x1
 6474 106d 9C       		.byte	0x9c
 6475 106e A1100000 		.4byte	0x10a1
 6476 1072 1C       		.uleb128 0x1c
 6477 1073 0A060000 		.4byte	.LASF80
 6478 1077 01       		.byte	0x1
 6479 1078 9B04     		.2byte	0x49b
 6480 107a E3040000 		.4byte	0x4e3
 6481 107e 01       		.uleb128 0x1
 6482 107f 50       		.byte	0x50
 6483 1080 1E       		.uleb128 0x1e
 6484 1081 5B000000 		.4byte	.LASF144
 6485 1085 01       		.byte	0x1
 6486 1086 9B04     		.2byte	0x49b
 6487 1088 A2000000 		.4byte	0xa2
 6488 108c 1A070000 		.4byte	.LLST33
 6489 1090 1D       		.uleb128 0x1d
 6490 1091 63010000 		.4byte	.LASF89
 6491 1095 01       		.byte	0x1
 6492 1096 9D04     		.2byte	0x49d
 6493 1098 A2000000 		.4byte	0xa2
 6494 109c 3B070000 		.4byte	.LLST34
 6495 10a0 00       		.byte	0
 6496 10a1 1B       		.uleb128 0x1b
 6497 10a2 AD000000 		.4byte	.LASF147
 6498 10a6 01       		.byte	0x1
 6499 10a7 B804     		.2byte	0x4b8
 6500 10a9 00000000 		.4byte	.LFB139
 6501 10ad 14000000 		.4byte	.LFE139-.LFB139
 6502 10b1 01       		.uleb128 0x1
 6503 10b2 9C       		.byte	0x9c
 6504 10b3 E6100000 		.4byte	0x10e6
 6505 10b7 1C       		.uleb128 0x1c
 6506 10b8 0A060000 		.4byte	.LASF80
 6507 10bc 01       		.byte	0x1
 6508 10bd B804     		.2byte	0x4b8
 6509 10bf E3040000 		.4byte	0x4e3
 6510 10c3 01       		.uleb128 0x1
 6511 10c4 50       		.byte	0x50
ARM GAS  C:\Users\jsyoon\AppData\Local\Temp\ccDGobdh.s 			page 117


 6512 10c5 1E       		.uleb128 0x1e
 6513 10c6 5B000000 		.4byte	.LASF144
 6514 10ca 01       		.byte	0x1
 6515 10cb B804     		.2byte	0x4b8
 6516 10cd A2000000 		.4byte	0xa2
 6517 10d1 70070000 		.4byte	.LLST35
 6518 10d5 1D       		.uleb128 0x1d
 6519 10d6 63010000 		.4byte	.LASF89
 6520 10da 01       		.byte	0x1
 6521 10db BA04     		.2byte	0x4ba
 6522 10dd A2000000 		.4byte	0xa2
 6523 10e1 91070000 		.4byte	.LLST36
 6524 10e5 00       		.byte	0
 6525 10e6 1B       		.uleb128 0x1b
 6526 10e7 7B040000 		.4byte	.LASF148
 6527 10eb 01       		.byte	0x1
 6528 10ec D404     		.2byte	0x4d4
 6529 10ee 00000000 		.4byte	.LFB140
 6530 10f2 10000000 		.4byte	.LFE140-.LFB140
 6531 10f6 01       		.uleb128 0x1
 6532 10f7 9C       		.byte	0x9c
 6533 10f8 2B110000 		.4byte	0x112b
 6534 10fc 1C       		.uleb128 0x1c
 6535 10fd 0A060000 		.4byte	.LASF80
 6536 1101 01       		.byte	0x1
 6537 1102 D404     		.2byte	0x4d4
 6538 1104 E3040000 		.4byte	0x4e3
 6539 1108 01       		.uleb128 0x1
 6540 1109 50       		.byte	0x50
 6541 110a 1E       		.uleb128 0x1e
 6542 110b F3020000 		.4byte	.LASF149
 6543 110f 01       		.byte	0x1
 6544 1110 D404     		.2byte	0x4d4
 6545 1112 A2000000 		.4byte	0xa2
 6546 1116 C6070000 		.4byte	.LLST37
 6547 111a 1D       		.uleb128 0x1d
 6548 111b 5A010000 		.4byte	.LASF81
 6549 111f 01       		.byte	0x1
 6550 1120 D604     		.2byte	0x4d6
 6551 1122 A2000000 		.4byte	0xa2
 6552 1126 E7070000 		.4byte	.LLST38
 6553 112a 00       		.byte	0
 6554 112b 1B       		.uleb128 0x1b
 6555 112c AE0A0000 		.4byte	.LASF150
 6556 1130 01       		.byte	0x1
 6557 1131 F204     		.2byte	0x4f2
 6558 1133 00000000 		.4byte	.LFB141
 6559 1137 14000000 		.4byte	.LFE141-.LFB141
 6560 113b 01       		.uleb128 0x1
 6561 113c 9C       		.byte	0x9c
 6562 113d 70110000 		.4byte	0x1170
 6563 1141 1C       		.uleb128 0x1c
 6564 1142 0A060000 		.4byte	.LASF80
 6565 1146 01       		.byte	0x1
 6566 1147 F204     		.2byte	0x4f2
 6567 1149 E3040000 		.4byte	0x4e3
 6568 114d 01       		.uleb128 0x1
ARM GAS  C:\Users\jsyoon\AppData\Local\Temp\ccDGobdh.s 			page 118


 6569 114e 50       		.byte	0x50
 6570 114f 1E       		.uleb128 0x1e
 6571 1150 F3020000 		.4byte	.LASF149
 6572 1154 01       		.byte	0x1
 6573 1155 F204     		.2byte	0x4f2
 6574 1157 A2000000 		.4byte	0xa2
 6575 115b 1C080000 		.4byte	.LLST39
 6576 115f 1D       		.uleb128 0x1d
 6577 1160 5A010000 		.4byte	.LASF81
 6578 1164 01       		.byte	0x1
 6579 1165 F404     		.2byte	0x4f4
 6580 1167 A2000000 		.4byte	0xa2
 6581 116b 3D080000 		.4byte	.LLST40
 6582 116f 00       		.byte	0
 6583 1170 1B       		.uleb128 0x1b
 6584 1171 8A0E0000 		.4byte	.LASF151
 6585 1175 01       		.byte	0x1
 6586 1176 0F05     		.2byte	0x50f
 6587 1178 00000000 		.4byte	.LFB142
 6588 117c 10000000 		.4byte	.LFE142-.LFB142
 6589 1180 01       		.uleb128 0x1
 6590 1181 9C       		.byte	0x9c
 6591 1182 B5110000 		.4byte	0x11b5
 6592 1186 1C       		.uleb128 0x1c
 6593 1187 0A060000 		.4byte	.LASF80
 6594 118b 01       		.byte	0x1
 6595 118c 0F05     		.2byte	0x50f
 6596 118e E3040000 		.4byte	0x4e3
 6597 1192 01       		.uleb128 0x1
 6598 1193 50       		.byte	0x50
 6599 1194 1E       		.uleb128 0x1e
 6600 1195 F3020000 		.4byte	.LASF149
 6601 1199 01       		.byte	0x1
 6602 119a 0F05     		.2byte	0x50f
 6603 119c A2000000 		.4byte	0xa2
 6604 11a0 72080000 		.4byte	.LLST41
 6605 11a4 1D       		.uleb128 0x1d
 6606 11a5 63010000 		.4byte	.LASF89
 6607 11a9 01       		.byte	0x1
 6608 11aa 1105     		.2byte	0x511
 6609 11ac A2000000 		.4byte	0xa2
 6610 11b0 93080000 		.4byte	.LLST42
 6611 11b4 00       		.byte	0
 6612 11b5 1B       		.uleb128 0x1b
 6613 11b6 700B0000 		.4byte	.LASF152
 6614 11ba 01       		.byte	0x1
 6615 11bb 2C05     		.2byte	0x52c
 6616 11bd 00000000 		.4byte	.LFB143
 6617 11c1 14000000 		.4byte	.LFE143-.LFB143
 6618 11c5 01       		.uleb128 0x1
 6619 11c6 9C       		.byte	0x9c
 6620 11c7 FA110000 		.4byte	0x11fa
 6621 11cb 1C       		.uleb128 0x1c
 6622 11cc 0A060000 		.4byte	.LASF80
 6623 11d0 01       		.byte	0x1
 6624 11d1 2C05     		.2byte	0x52c
 6625 11d3 E3040000 		.4byte	0x4e3
ARM GAS  C:\Users\jsyoon\AppData\Local\Temp\ccDGobdh.s 			page 119


 6626 11d7 01       		.uleb128 0x1
 6627 11d8 50       		.byte	0x50
 6628 11d9 1E       		.uleb128 0x1e
 6629 11da F3020000 		.4byte	.LASF149
 6630 11de 01       		.byte	0x1
 6631 11df 2C05     		.2byte	0x52c
 6632 11e1 A2000000 		.4byte	0xa2
 6633 11e5 C8080000 		.4byte	.LLST43
 6634 11e9 1D       		.uleb128 0x1d
 6635 11ea 63010000 		.4byte	.LASF89
 6636 11ee 01       		.byte	0x1
 6637 11ef 2E05     		.2byte	0x52e
 6638 11f1 A2000000 		.4byte	0xa2
 6639 11f5 E9080000 		.4byte	.LLST44
 6640 11f9 00       		.byte	0
 6641 11fa 1B       		.uleb128 0x1b
 6642 11fb B30E0000 		.4byte	.LASF153
 6643 11ff 01       		.byte	0x1
 6644 1200 4905     		.2byte	0x549
 6645 1202 00000000 		.4byte	.LFB144
 6646 1206 10000000 		.4byte	.LFE144-.LFB144
 6647 120a 01       		.uleb128 0x1
 6648 120b 9C       		.byte	0x9c
 6649 120c 3F120000 		.4byte	0x123f
 6650 1210 1C       		.uleb128 0x1c
 6651 1211 0A060000 		.4byte	.LASF80
 6652 1215 01       		.byte	0x1
 6653 1216 4905     		.2byte	0x549
 6654 1218 E3040000 		.4byte	0x4e3
 6655 121c 01       		.uleb128 0x1
 6656 121d 50       		.byte	0x50
 6657 121e 1E       		.uleb128 0x1e
 6658 121f 7E020000 		.4byte	.LASF154
 6659 1223 01       		.byte	0x1
 6660 1224 4905     		.2byte	0x549
 6661 1226 A2000000 		.4byte	0xa2
 6662 122a 1E090000 		.4byte	.LLST45
 6663 122e 1D       		.uleb128 0x1d
 6664 122f 5A010000 		.4byte	.LASF81
 6665 1233 01       		.byte	0x1
 6666 1234 4B05     		.2byte	0x54b
 6667 1236 A2000000 		.4byte	0xa2
 6668 123a 3F090000 		.4byte	.LLST46
 6669 123e 00       		.byte	0
 6670 123f 1B       		.uleb128 0x1b
 6671 1240 240A0000 		.4byte	.LASF155
 6672 1244 01       		.byte	0x1
 6673 1245 6805     		.2byte	0x568
 6674 1247 00000000 		.4byte	.LFB145
 6675 124b 14000000 		.4byte	.LFE145-.LFB145
 6676 124f 01       		.uleb128 0x1
 6677 1250 9C       		.byte	0x9c
 6678 1251 84120000 		.4byte	0x1284
 6679 1255 1C       		.uleb128 0x1c
 6680 1256 0A060000 		.4byte	.LASF80
 6681 125a 01       		.byte	0x1
 6682 125b 6805     		.2byte	0x568
ARM GAS  C:\Users\jsyoon\AppData\Local\Temp\ccDGobdh.s 			page 120


 6683 125d E3040000 		.4byte	0x4e3
 6684 1261 01       		.uleb128 0x1
 6685 1262 50       		.byte	0x50
 6686 1263 1E       		.uleb128 0x1e
 6687 1264 7E020000 		.4byte	.LASF154
 6688 1268 01       		.byte	0x1
 6689 1269 6805     		.2byte	0x568
 6690 126b A2000000 		.4byte	0xa2
 6691 126f 74090000 		.4byte	.LLST47
 6692 1273 1D       		.uleb128 0x1d
 6693 1274 5A010000 		.4byte	.LASF81
 6694 1278 01       		.byte	0x1
 6695 1279 6A05     		.2byte	0x56a
 6696 127b A2000000 		.4byte	0xa2
 6697 127f 95090000 		.4byte	.LLST48
 6698 1283 00       		.byte	0
 6699 1284 1B       		.uleb128 0x1b
 6700 1285 780E0000 		.4byte	.LASF156
 6701 1289 01       		.byte	0x1
 6702 128a 8605     		.2byte	0x586
 6703 128c 00000000 		.4byte	.LFB146
 6704 1290 10000000 		.4byte	.LFE146-.LFB146
 6705 1294 01       		.uleb128 0x1
 6706 1295 9C       		.byte	0x9c
 6707 1296 C9120000 		.4byte	0x12c9
 6708 129a 1C       		.uleb128 0x1c
 6709 129b 0A060000 		.4byte	.LASF80
 6710 129f 01       		.byte	0x1
 6711 12a0 8605     		.2byte	0x586
 6712 12a2 E3040000 		.4byte	0x4e3
 6713 12a6 01       		.uleb128 0x1
 6714 12a7 50       		.byte	0x50
 6715 12a8 1E       		.uleb128 0x1e
 6716 12a9 7E020000 		.4byte	.LASF154
 6717 12ad 01       		.byte	0x1
 6718 12ae 8605     		.2byte	0x586
 6719 12b0 A2000000 		.4byte	0xa2
 6720 12b4 CA090000 		.4byte	.LLST49
 6721 12b8 1D       		.uleb128 0x1d
 6722 12b9 63010000 		.4byte	.LASF89
 6723 12bd 01       		.byte	0x1
 6724 12be 8805     		.2byte	0x588
 6725 12c0 A2000000 		.4byte	0xa2
 6726 12c4 EB090000 		.4byte	.LLST50
 6727 12c8 00       		.byte	0
 6728 12c9 1B       		.uleb128 0x1b
 6729 12ca 360A0000 		.4byte	.LASF157
 6730 12ce 01       		.byte	0x1
 6731 12cf A405     		.2byte	0x5a4
 6732 12d1 00000000 		.4byte	.LFB147
 6733 12d5 14000000 		.4byte	.LFE147-.LFB147
 6734 12d9 01       		.uleb128 0x1
 6735 12da 9C       		.byte	0x9c
 6736 12db 0E130000 		.4byte	0x130e
 6737 12df 1C       		.uleb128 0x1c
 6738 12e0 0A060000 		.4byte	.LASF80
 6739 12e4 01       		.byte	0x1
ARM GAS  C:\Users\jsyoon\AppData\Local\Temp\ccDGobdh.s 			page 121


 6740 12e5 A405     		.2byte	0x5a4
 6741 12e7 E3040000 		.4byte	0x4e3
 6742 12eb 01       		.uleb128 0x1
 6743 12ec 50       		.byte	0x50
 6744 12ed 1E       		.uleb128 0x1e
 6745 12ee 7E020000 		.4byte	.LASF154
 6746 12f2 01       		.byte	0x1
 6747 12f3 A405     		.2byte	0x5a4
 6748 12f5 A2000000 		.4byte	0xa2
 6749 12f9 200A0000 		.4byte	.LLST51
 6750 12fd 1D       		.uleb128 0x1d
 6751 12fe 63010000 		.4byte	.LASF89
 6752 1302 01       		.byte	0x1
 6753 1303 A605     		.2byte	0x5a6
 6754 1305 A2000000 		.4byte	0xa2
 6755 1309 410A0000 		.4byte	.LLST52
 6756 130d 00       		.byte	0
 6757 130e 1B       		.uleb128 0x1b
 6758 130f C1000000 		.4byte	.LASF158
 6759 1313 01       		.byte	0x1
 6760 1314 C205     		.2byte	0x5c2
 6761 1316 00000000 		.4byte	.LFB148
 6762 131a 10000000 		.4byte	.LFE148-.LFB148
 6763 131e 01       		.uleb128 0x1
 6764 131f 9C       		.byte	0x9c
 6765 1320 53130000 		.4byte	0x1353
 6766 1324 1C       		.uleb128 0x1c
 6767 1325 0A060000 		.4byte	.LASF80
 6768 1329 01       		.byte	0x1
 6769 132a C205     		.2byte	0x5c2
 6770 132c E3040000 		.4byte	0x4e3
 6771 1330 01       		.uleb128 0x1
 6772 1331 50       		.byte	0x50
 6773 1332 1E       		.uleb128 0x1e
 6774 1333 490E0000 		.4byte	.LASF159
 6775 1337 01       		.byte	0x1
 6776 1338 C205     		.2byte	0x5c2
 6777 133a A2000000 		.4byte	0xa2
 6778 133e 760A0000 		.4byte	.LLST53
 6779 1342 1D       		.uleb128 0x1d
 6780 1343 5A010000 		.4byte	.LASF81
 6781 1347 01       		.byte	0x1
 6782 1348 C405     		.2byte	0x5c4
 6783 134a A2000000 		.4byte	0xa2
 6784 134e 970A0000 		.4byte	.LLST54
 6785 1352 00       		.byte	0
 6786 1353 1B       		.uleb128 0x1b
 6787 1354 0F0E0000 		.4byte	.LASF160
 6788 1358 01       		.byte	0x1
 6789 1359 E005     		.2byte	0x5e0
 6790 135b 00000000 		.4byte	.LFB149
 6791 135f 10000000 		.4byte	.LFE149-.LFB149
 6792 1363 01       		.uleb128 0x1
 6793 1364 9C       		.byte	0x9c
 6794 1365 98130000 		.4byte	0x1398
 6795 1369 1C       		.uleb128 0x1c
 6796 136a 0A060000 		.4byte	.LASF80
ARM GAS  C:\Users\jsyoon\AppData\Local\Temp\ccDGobdh.s 			page 122


 6797 136e 01       		.byte	0x1
 6798 136f E005     		.2byte	0x5e0
 6799 1371 E3040000 		.4byte	0x4e3
 6800 1375 01       		.uleb128 0x1
 6801 1376 50       		.byte	0x50
 6802 1377 1E       		.uleb128 0x1e
 6803 1378 490E0000 		.4byte	.LASF159
 6804 137c 01       		.byte	0x1
 6805 137d E005     		.2byte	0x5e0
 6806 137f A2000000 		.4byte	0xa2
 6807 1383 CC0A0000 		.4byte	.LLST55
 6808 1387 1D       		.uleb128 0x1d
 6809 1388 5A010000 		.4byte	.LASF81
 6810 138c 01       		.byte	0x1
 6811 138d E205     		.2byte	0x5e2
 6812 138f A2000000 		.4byte	0xa2
 6813 1393 ED0A0000 		.4byte	.LLST56
 6814 1397 00       		.byte	0
 6815 1398 1B       		.uleb128 0x1b
 6816 1399 36070000 		.4byte	.LASF161
 6817 139d 01       		.byte	0x1
 6818 139e FD05     		.2byte	0x5fd
 6819 13a0 00000000 		.4byte	.LFB150
 6820 13a4 10000000 		.4byte	.LFE150-.LFB150
 6821 13a8 01       		.uleb128 0x1
 6822 13a9 9C       		.byte	0x9c
 6823 13aa DD130000 		.4byte	0x13dd
 6824 13ae 1C       		.uleb128 0x1c
 6825 13af 0A060000 		.4byte	.LASF80
 6826 13b3 01       		.byte	0x1
 6827 13b4 FD05     		.2byte	0x5fd
 6828 13b6 E3040000 		.4byte	0x4e3
 6829 13ba 01       		.uleb128 0x1
 6830 13bb 50       		.byte	0x50
 6831 13bc 1E       		.uleb128 0x1e
 6832 13bd 490E0000 		.4byte	.LASF159
 6833 13c1 01       		.byte	0x1
 6834 13c2 FD05     		.2byte	0x5fd
 6835 13c4 A2000000 		.4byte	0xa2
 6836 13c8 170B0000 		.4byte	.LLST57
 6837 13cc 1D       		.uleb128 0x1d
 6838 13cd 63010000 		.4byte	.LASF89
 6839 13d1 01       		.byte	0x1
 6840 13d2 FF05     		.2byte	0x5ff
 6841 13d4 A2000000 		.4byte	0xa2
 6842 13d8 380B0000 		.4byte	.LLST58
 6843 13dc 00       		.byte	0
 6844 13dd 1B       		.uleb128 0x1b
 6845 13de B10B0000 		.4byte	.LASF162
 6846 13e2 01       		.byte	0x1
 6847 13e3 1A06     		.2byte	0x61a
 6848 13e5 00000000 		.4byte	.LFB151
 6849 13e9 10000000 		.4byte	.LFE151-.LFB151
 6850 13ed 01       		.uleb128 0x1
 6851 13ee 9C       		.byte	0x9c
 6852 13ef 22140000 		.4byte	0x1422
 6853 13f3 1C       		.uleb128 0x1c
ARM GAS  C:\Users\jsyoon\AppData\Local\Temp\ccDGobdh.s 			page 123


 6854 13f4 0A060000 		.4byte	.LASF80
 6855 13f8 01       		.byte	0x1
 6856 13f9 1A06     		.2byte	0x61a
 6857 13fb E3040000 		.4byte	0x4e3
 6858 13ff 01       		.uleb128 0x1
 6859 1400 50       		.byte	0x50
 6860 1401 1E       		.uleb128 0x1e
 6861 1402 490E0000 		.4byte	.LASF159
 6862 1406 01       		.byte	0x1
 6863 1407 1A06     		.2byte	0x61a
 6864 1409 A2000000 		.4byte	0xa2
 6865 140d 6D0B0000 		.4byte	.LLST59
 6866 1411 1D       		.uleb128 0x1d
 6867 1412 63010000 		.4byte	.LASF89
 6868 1416 01       		.byte	0x1
 6869 1417 1C06     		.2byte	0x61c
 6870 1419 A2000000 		.4byte	0xa2
 6871 141d 8E0B0000 		.4byte	.LLST60
 6872 1421 00       		.byte	0
 6873 1422 1B       		.uleb128 0x1b
 6874 1423 53070000 		.4byte	.LASF163
 6875 1427 01       		.byte	0x1
 6876 1428 3706     		.2byte	0x637
 6877 142a 00000000 		.4byte	.LFB152
 6878 142e 10000000 		.4byte	.LFE152-.LFB152
 6879 1432 01       		.uleb128 0x1
 6880 1433 9C       		.byte	0x9c
 6881 1434 67140000 		.4byte	0x1467
 6882 1438 1C       		.uleb128 0x1c
 6883 1439 0A060000 		.4byte	.LASF80
 6884 143d 01       		.byte	0x1
 6885 143e 3706     		.2byte	0x637
 6886 1440 E3040000 		.4byte	0x4e3
 6887 1444 01       		.uleb128 0x1
 6888 1445 50       		.byte	0x50
 6889 1446 1E       		.uleb128 0x1e
 6890 1447 16050000 		.4byte	.LASF61
 6891 144b 01       		.byte	0x1
 6892 144c 3706     		.2byte	0x637
 6893 144e A2000000 		.4byte	0xa2
 6894 1452 B80B0000 		.4byte	.LLST61
 6895 1456 1D       		.uleb128 0x1d
 6896 1457 DF040000 		.4byte	.LASF82
 6897 145b 01       		.byte	0x1
 6898 145c 3906     		.2byte	0x639
 6899 145e A2000000 		.4byte	0xa2
 6900 1462 D90B0000 		.4byte	.LLST62
 6901 1466 00       		.byte	0
 6902 1467 1B       		.uleb128 0x1b
 6903 1468 D30B0000 		.4byte	.LASF164
 6904 146c 01       		.byte	0x1
 6905 146d 5206     		.2byte	0x652
 6906 146f 00000000 		.4byte	.LFB153
 6907 1473 10000000 		.4byte	.LFE153-.LFB153
 6908 1477 01       		.uleb128 0x1
 6909 1478 9C       		.byte	0x9c
 6910 1479 AC140000 		.4byte	0x14ac
ARM GAS  C:\Users\jsyoon\AppData\Local\Temp\ccDGobdh.s 			page 124


 6911 147d 1C       		.uleb128 0x1c
 6912 147e 0A060000 		.4byte	.LASF80
 6913 1482 01       		.byte	0x1
 6914 1483 5206     		.2byte	0x652
 6915 1485 E3040000 		.4byte	0x4e3
 6916 1489 01       		.uleb128 0x1
 6917 148a 50       		.byte	0x50
 6918 148b 1E       		.uleb128 0x1e
 6919 148c 5A0A0000 		.4byte	.LASF62
 6920 1490 01       		.byte	0x1
 6921 1491 5206     		.2byte	0x652
 6922 1493 A2000000 		.4byte	0xa2
 6923 1497 0E0C0000 		.4byte	.LLST63
 6924 149b 1D       		.uleb128 0x1d
 6925 149c DF040000 		.4byte	.LASF82
 6926 14a0 01       		.byte	0x1
 6927 14a1 5406     		.2byte	0x654
 6928 14a3 A2000000 		.4byte	0xa2
 6929 14a7 2F0C0000 		.4byte	.LLST64
 6930 14ab 00       		.byte	0
 6931 14ac 1B       		.uleb128 0x1b
 6932 14ad BC010000 		.4byte	.LASF165
 6933 14b1 01       		.byte	0x1
 6934 14b2 6D06     		.2byte	0x66d
 6935 14b4 00000000 		.4byte	.LFB154
 6936 14b8 14000000 		.4byte	.LFE154-.LFB154
 6937 14bc 01       		.uleb128 0x1
 6938 14bd 9C       		.byte	0x9c
 6939 14be F1140000 		.4byte	0x14f1
 6940 14c2 1C       		.uleb128 0x1c
 6941 14c3 0A060000 		.4byte	.LASF80
 6942 14c7 01       		.byte	0x1
 6943 14c8 6D06     		.2byte	0x66d
 6944 14ca E3040000 		.4byte	0x4e3
 6945 14ce 01       		.uleb128 0x1
 6946 14cf 50       		.byte	0x50
 6947 14d0 1E       		.uleb128 0x1e
 6948 14d1 16050000 		.4byte	.LASF61
 6949 14d5 01       		.byte	0x1
 6950 14d6 6D06     		.2byte	0x66d
 6951 14d8 A2000000 		.4byte	0xa2
 6952 14dc 640C0000 		.4byte	.LLST65
 6953 14e0 1D       		.uleb128 0x1d
 6954 14e1 DF040000 		.4byte	.LASF82
 6955 14e5 01       		.byte	0x1
 6956 14e6 6F06     		.2byte	0x66f
 6957 14e8 A2000000 		.4byte	0xa2
 6958 14ec 850C0000 		.4byte	.LLST66
 6959 14f0 00       		.byte	0
 6960 14f1 1B       		.uleb128 0x1b
 6961 14f2 E7040000 		.4byte	.LASF166
 6962 14f6 01       		.byte	0x1
 6963 14f7 8806     		.2byte	0x688
 6964 14f9 00000000 		.4byte	.LFB155
 6965 14fd 14000000 		.4byte	.LFE155-.LFB155
 6966 1501 01       		.uleb128 0x1
 6967 1502 9C       		.byte	0x9c
ARM GAS  C:\Users\jsyoon\AppData\Local\Temp\ccDGobdh.s 			page 125


 6968 1503 36150000 		.4byte	0x1536
 6969 1507 1C       		.uleb128 0x1c
 6970 1508 0A060000 		.4byte	.LASF80
 6971 150c 01       		.byte	0x1
 6972 150d 8806     		.2byte	0x688
 6973 150f E3040000 		.4byte	0x4e3
 6974 1513 01       		.uleb128 0x1
 6975 1514 50       		.byte	0x50
 6976 1515 1E       		.uleb128 0x1e
 6977 1516 5A0A0000 		.4byte	.LASF62
 6978 151a 01       		.byte	0x1
 6979 151b 8806     		.2byte	0x688
 6980 151d A2000000 		.4byte	0xa2
 6981 1521 BA0C0000 		.4byte	.LLST67
 6982 1525 1D       		.uleb128 0x1d
 6983 1526 DF040000 		.4byte	.LASF82
 6984 152a 01       		.byte	0x1
 6985 152b 8A06     		.2byte	0x68a
 6986 152d A2000000 		.4byte	0xa2
 6987 1531 DB0C0000 		.4byte	.LLST68
 6988 1535 00       		.byte	0
 6989 1536 1B       		.uleb128 0x1b
 6990 1537 850D0000 		.4byte	.LASF167
 6991 153b 01       		.byte	0x1
 6992 153c A306     		.2byte	0x6a3
 6993 153e 00000000 		.4byte	.LFB156
 6994 1542 14000000 		.4byte	.LFE156-.LFB156
 6995 1546 01       		.uleb128 0x1
 6996 1547 9C       		.byte	0x9c
 6997 1548 7B150000 		.4byte	0x157b
 6998 154c 1C       		.uleb128 0x1c
 6999 154d 0A060000 		.4byte	.LASF80
 7000 1551 01       		.byte	0x1
 7001 1552 A306     		.2byte	0x6a3
 7002 1554 E3040000 		.4byte	0x4e3
 7003 1558 01       		.uleb128 0x1
 7004 1559 50       		.byte	0x50
 7005 155a 1E       		.uleb128 0x1e
 7006 155b 16050000 		.4byte	.LASF61
 7007 155f 01       		.byte	0x1
 7008 1560 A306     		.2byte	0x6a3
 7009 1562 A2000000 		.4byte	0xa2
 7010 1566 100D0000 		.4byte	.LLST69
 7011 156a 1D       		.uleb128 0x1d
 7012 156b DF040000 		.4byte	.LASF82
 7013 156f 01       		.byte	0x1
 7014 1570 A506     		.2byte	0x6a5
 7015 1572 A2000000 		.4byte	0xa2
 7016 1576 310D0000 		.4byte	.LLST70
 7017 157a 00       		.byte	0
 7018 157b 1B       		.uleb128 0x1b
 7019 157c A3090000 		.4byte	.LASF168
 7020 1580 01       		.byte	0x1
 7021 1581 BE06     		.2byte	0x6be
 7022 1583 00000000 		.4byte	.LFB157
 7023 1587 14000000 		.4byte	.LFE157-.LFB157
 7024 158b 01       		.uleb128 0x1
ARM GAS  C:\Users\jsyoon\AppData\Local\Temp\ccDGobdh.s 			page 126


 7025 158c 9C       		.byte	0x9c
 7026 158d C0150000 		.4byte	0x15c0
 7027 1591 1C       		.uleb128 0x1c
 7028 1592 0A060000 		.4byte	.LASF80
 7029 1596 01       		.byte	0x1
 7030 1597 BE06     		.2byte	0x6be
 7031 1599 E3040000 		.4byte	0x4e3
 7032 159d 01       		.uleb128 0x1
 7033 159e 50       		.byte	0x50
 7034 159f 1E       		.uleb128 0x1e
 7035 15a0 5A0A0000 		.4byte	.LASF62
 7036 15a4 01       		.byte	0x1
 7037 15a5 BE06     		.2byte	0x6be
 7038 15a7 A2000000 		.4byte	0xa2
 7039 15ab 660D0000 		.4byte	.LLST71
 7040 15af 1D       		.uleb128 0x1d
 7041 15b0 DF040000 		.4byte	.LASF82
 7042 15b4 01       		.byte	0x1
 7043 15b5 C006     		.2byte	0x6c0
 7044 15b7 A2000000 		.4byte	0xa2
 7045 15bb 870D0000 		.4byte	.LLST72
 7046 15bf 00       		.byte	0
 7047 15c0 1B       		.uleb128 0x1b
 7048 15c1 1F060000 		.4byte	.LASF169
 7049 15c5 01       		.byte	0x1
 7050 15c6 D906     		.2byte	0x6d9
 7051 15c8 00000000 		.4byte	.LFB158
 7052 15cc 14000000 		.4byte	.LFE158-.LFB158
 7053 15d0 01       		.uleb128 0x1
 7054 15d1 9C       		.byte	0x9c
 7055 15d2 05160000 		.4byte	0x1605
 7056 15d6 1C       		.uleb128 0x1c
 7057 15d7 0A060000 		.4byte	.LASF80
 7058 15db 01       		.byte	0x1
 7059 15dc D906     		.2byte	0x6d9
 7060 15de E3040000 		.4byte	0x4e3
 7061 15e2 01       		.uleb128 0x1
 7062 15e3 50       		.byte	0x50
 7063 15e4 1E       		.uleb128 0x1e
 7064 15e5 16050000 		.4byte	.LASF61
 7065 15e9 01       		.byte	0x1
 7066 15ea D906     		.2byte	0x6d9
 7067 15ec A2000000 		.4byte	0xa2
 7068 15f0 BC0D0000 		.4byte	.LLST73
 7069 15f4 1D       		.uleb128 0x1d
 7070 15f5 DF040000 		.4byte	.LASF82
 7071 15f9 01       		.byte	0x1
 7072 15fa DB06     		.2byte	0x6db
 7073 15fc A2000000 		.4byte	0xa2
 7074 1600 DD0D0000 		.4byte	.LLST74
 7075 1604 00       		.byte	0
 7076 1605 1B       		.uleb128 0x1b
 7077 1606 D1020000 		.4byte	.LASF170
 7078 160a 01       		.byte	0x1
 7079 160b F806     		.2byte	0x6f8
 7080 160d 00000000 		.4byte	.LFB159
 7081 1611 20000000 		.4byte	.LFE159-.LFB159
ARM GAS  C:\Users\jsyoon\AppData\Local\Temp\ccDGobdh.s 			page 127


 7082 1615 01       		.uleb128 0x1
 7083 1616 9C       		.byte	0x9c
 7084 1617 54160000 		.4byte	0x1654
 7085 161b 1C       		.uleb128 0x1c
 7086 161c 0A060000 		.4byte	.LASF80
 7087 1620 01       		.byte	0x1
 7088 1621 F806     		.2byte	0x6f8
 7089 1623 E3040000 		.4byte	0x4e3
 7090 1627 01       		.uleb128 0x1
 7091 1628 50       		.byte	0x50
 7092 1629 1C       		.uleb128 0x1c
 7093 162a 89020000 		.4byte	.LASF66
 7094 162e 01       		.byte	0x1
 7095 162f F806     		.2byte	0x6f8
 7096 1631 A2000000 		.4byte	0xa2
 7097 1635 01       		.uleb128 0x1
 7098 1636 51       		.byte	0x51
 7099 1637 1E       		.uleb128 0x1e
 7100 1638 49080000 		.4byte	.LASF171
 7101 163c 01       		.byte	0x1
 7102 163d F806     		.2byte	0x6f8
 7103 163f A2000000 		.4byte	0xa2
 7104 1643 120E0000 		.4byte	.LLST75
 7105 1647 14       		.uleb128 0x14
 7106 1648 746D7000 		.ascii	"tmp\000"
 7107 164c 01       		.byte	0x1
 7108 164d FA06     		.2byte	0x6fa
 7109 164f A2000000 		.4byte	0xa2
 7110 1653 00       		.byte	0
 7111 1654 1B       		.uleb128 0x1b
 7112 1655 8D070000 		.4byte	.LASF172
 7113 1659 01       		.byte	0x1
 7114 165a 1607     		.2byte	0x716
 7115 165c 00000000 		.4byte	.LFB160
 7116 1660 20000000 		.4byte	.LFE160-.LFB160
 7117 1664 01       		.uleb128 0x1
 7118 1665 9C       		.byte	0x9c
 7119 1666 A3160000 		.4byte	0x16a3
 7120 166a 1C       		.uleb128 0x1c
 7121 166b 0A060000 		.4byte	.LASF80
 7122 166f 01       		.byte	0x1
 7123 1670 1607     		.2byte	0x716
 7124 1672 E3040000 		.4byte	0x4e3
 7125 1676 01       		.uleb128 0x1
 7126 1677 50       		.byte	0x50
 7127 1678 1C       		.uleb128 0x1c
 7128 1679 89020000 		.4byte	.LASF66
 7129 167d 01       		.byte	0x1
 7130 167e 1607     		.2byte	0x716
 7131 1680 A2000000 		.4byte	0xa2
 7132 1684 01       		.uleb128 0x1
 7133 1685 51       		.byte	0x51
 7134 1686 1E       		.uleb128 0x1e
 7135 1687 40040000 		.4byte	.LASF173
 7136 168b 01       		.byte	0x1
 7137 168c 1607     		.2byte	0x716
 7138 168e A2000000 		.4byte	0xa2
ARM GAS  C:\Users\jsyoon\AppData\Local\Temp\ccDGobdh.s 			page 128


 7139 1692 330E0000 		.4byte	.LLST76
 7140 1696 14       		.uleb128 0x14
 7141 1697 746D7000 		.ascii	"tmp\000"
 7142 169b 01       		.byte	0x1
 7143 169c 1807     		.2byte	0x718
 7144 169e A2000000 		.4byte	0xa2
 7145 16a2 00       		.byte	0
 7146 16a3 1B       		.uleb128 0x1b
 7147 16a4 240B0000 		.4byte	.LASF174
 7148 16a8 01       		.byte	0x1
 7149 16a9 6807     		.2byte	0x768
 7150 16ab 00000000 		.4byte	.LFB161
 7151 16af 68010000 		.4byte	.LFE161-.LFB161
 7152 16b3 01       		.uleb128 0x1
 7153 16b4 9C       		.byte	0x9c
 7154 16b5 CD180000 		.4byte	0x18cd
 7155 16b9 1C       		.uleb128 0x1c
 7156 16ba 0A060000 		.4byte	.LASF80
 7157 16be 01       		.byte	0x1
 7158 16bf 6807     		.2byte	0x768
 7159 16c1 E3040000 		.4byte	0x4e3
 7160 16c5 01       		.uleb128 0x1
 7161 16c6 50       		.byte	0x50
 7162 16c7 1E       		.uleb128 0x1e
 7163 16c8 EB0D0000 		.4byte	.LASF175
 7164 16cc 01       		.byte	0x1
 7165 16cd 6807     		.2byte	0x768
 7166 16cf CD180000 		.4byte	0x18cd
 7167 16d3 540E0000 		.4byte	.LLST77
 7168 16d7 21       		.uleb128 0x21
 7169 16d8 97050000 		.4byte	0x597
 7170 16dc 0E000000 		.4byte	.LBB46
 7171 16e0 00000000 		.4byte	.Ldebug_ranges0+0
 7172 16e4 01       		.byte	0x1
 7173 16e5 8807     		.2byte	0x788
 7174 16e7 2F170000 		.4byte	0x172f
 7175 16eb 22       		.uleb128 0x22
 7176 16ec C8050000 		.4byte	0x5c8
 7177 16f0 C00E0000 		.4byte	.LLST78
 7178 16f4 22       		.uleb128 0x22
 7179 16f5 BC050000 		.4byte	0x5bc
 7180 16f9 DF0E0000 		.4byte	.LLST79
 7181 16fd 22       		.uleb128 0x22
 7182 16fe B0050000 		.4byte	0x5b0
 7183 1702 FE0E0000 		.4byte	.LLST80
 7184 1706 23       		.uleb128 0x23
 7185 1707 A4050000 		.4byte	0x5a4
 7186 170b 01       		.uleb128 0x1
 7187 170c 50       		.byte	0x50
 7188 170d 24       		.uleb128 0x24
 7189 170e 00000000 		.4byte	.Ldebug_ranges0+0
 7190 1712 25       		.uleb128 0x25
 7191 1713 D4050000 		.4byte	0x5d4
 7192 1717 1D0F0000 		.4byte	.LLST81
 7193 171b 25       		.uleb128 0x25
 7194 171c E0050000 		.4byte	0x5e0
 7195 1720 580F0000 		.4byte	.LLST82
ARM GAS  C:\Users\jsyoon\AppData\Local\Temp\ccDGobdh.s 			page 129


 7196 1724 25       		.uleb128 0x25
 7197 1725 EC050000 		.4byte	0x5ec
 7198 1729 820F0000 		.4byte	.LLST83
 7199 172d 00       		.byte	0
 7200 172e 00       		.byte	0
 7201 172f 26       		.uleb128 0x26
 7202 1730 1F060000 		.4byte	0x61f
 7203 1734 1C000000 		.4byte	.LBB50
 7204 1738 36000000 		.4byte	.LBE50-.LBB50
 7205 173c 01       		.byte	0x1
 7206 173d 9207     		.2byte	0x792
 7207 173f 8D170000 		.4byte	0x178d
 7208 1743 22       		.uleb128 0x22
 7209 1744 50060000 		.4byte	0x650
 7210 1748 A50F0000 		.4byte	.LLST84
 7211 174c 22       		.uleb128 0x22
 7212 174d 44060000 		.4byte	0x644
 7213 1751 C40F0000 		.4byte	.LLST85
 7214 1755 22       		.uleb128 0x22
 7215 1756 38060000 		.4byte	0x638
 7216 175a E30F0000 		.4byte	.LLST86
 7217 175e 22       		.uleb128 0x22
 7218 175f 2C060000 		.4byte	0x62c
 7219 1763 02100000 		.4byte	.LLST87
 7220 1767 27       		.uleb128 0x27
 7221 1768 1C000000 		.4byte	.LBB51
 7222 176c 36000000 		.4byte	.LBE51-.LBB51
 7223 1770 25       		.uleb128 0x25
 7224 1771 5C060000 		.4byte	0x65c
 7225 1775 15100000 		.4byte	.LLST88
 7226 1779 25       		.uleb128 0x25
 7227 177a 68060000 		.4byte	0x668
 7228 177e 4A100000 		.4byte	.LLST89
 7229 1782 25       		.uleb128 0x25
 7230 1783 74060000 		.4byte	0x674
 7231 1787 74100000 		.4byte	.LLST90
 7232 178b 00       		.byte	0
 7233 178c 00       		.byte	0
 7234 178d 26       		.uleb128 0x26
 7235 178e 81060000 		.4byte	0x681
 7236 1792 52000000 		.4byte	.LBB52
 7237 1796 18000000 		.4byte	.LBE52-.LBB52
 7238 179a 01       		.byte	0x1
 7239 179b 9607     		.2byte	0x796
 7240 179d B4170000 		.4byte	0x17b4
 7241 17a1 22       		.uleb128 0x22
 7242 17a2 9A060000 		.4byte	0x69a
 7243 17a6 97100000 		.4byte	.LLST91
 7244 17aa 22       		.uleb128 0x22
 7245 17ab 8E060000 		.4byte	0x68e
 7246 17af AA100000 		.4byte	.LLST92
 7247 17b3 00       		.byte	0
 7248 17b4 21       		.uleb128 0x21
 7249 17b5 8D040000 		.4byte	0x48d
 7250 17b9 6E000000 		.4byte	.LBB54
 7251 17bd 20000000 		.4byte	.Ldebug_ranges0+0x20
 7252 17c1 01       		.byte	0x1
ARM GAS  C:\Users\jsyoon\AppData\Local\Temp\ccDGobdh.s 			page 130


 7253 17c2 7407     		.2byte	0x774
 7254 17c4 05180000 		.4byte	0x1805
 7255 17c8 22       		.uleb128 0x22
 7256 17c9 BE040000 		.4byte	0x4be
 7257 17cd BD100000 		.4byte	.LLST93
 7258 17d1 22       		.uleb128 0x22
 7259 17d2 B2040000 		.4byte	0x4b2
 7260 17d6 DC100000 		.4byte	.LLST94
 7261 17da 22       		.uleb128 0x22
 7262 17db A6040000 		.4byte	0x4a6
 7263 17df FB100000 		.4byte	.LLST95
 7264 17e3 22       		.uleb128 0x22
 7265 17e4 9A040000 		.4byte	0x49a
 7266 17e8 29110000 		.4byte	.LLST96
 7267 17ec 24       		.uleb128 0x24
 7268 17ed 20000000 		.4byte	.Ldebug_ranges0+0x20
 7269 17f1 25       		.uleb128 0x25
 7270 17f2 CA040000 		.4byte	0x4ca
 7271 17f6 3C110000 		.4byte	.LLST97
 7272 17fa 25       		.uleb128 0x25
 7273 17fb D6040000 		.4byte	0x4d6
 7274 17ff 6C110000 		.4byte	.LLST98
 7275 1803 00       		.byte	0
 7276 1804 00       		.byte	0
 7277 1805 26       		.uleb128 0x26
 7278 1806 E9040000 		.4byte	0x4e9
 7279 180a A6000000 		.4byte	.LBB58
 7280 180e 14000000 		.4byte	.LBE58-.LBB58
 7281 1812 01       		.byte	0x1
 7282 1813 7807     		.2byte	0x778
 7283 1815 2C180000 		.4byte	0x182c
 7284 1819 22       		.uleb128 0x22
 7285 181a 02050000 		.4byte	0x502
 7286 181e 96110000 		.4byte	.LLST99
 7287 1822 22       		.uleb128 0x22
 7288 1823 F6040000 		.4byte	0x4f6
 7289 1827 A9110000 		.4byte	.LLST100
 7290 182b 00       		.byte	0
 7291 182c 21       		.uleb128 0x21
 7292 182d 0F050000 		.4byte	0x50f
 7293 1831 BE000000 		.4byte	.LBB60
 7294 1835 38000000 		.4byte	.Ldebug_ranges0+0x38
 7295 1839 01       		.byte	0x1
 7296 183a 7E07     		.2byte	0x77e
 7297 183c 86180000 		.4byte	0x1886
 7298 1840 22       		.uleb128 0x22
 7299 1841 40050000 		.4byte	0x540
 7300 1845 BC110000 		.4byte	.LLST101
 7301 1849 22       		.uleb128 0x22
 7302 184a 34050000 		.4byte	0x534
 7303 184e DB110000 		.4byte	.LLST102
 7304 1852 22       		.uleb128 0x22
 7305 1853 28050000 		.4byte	0x528
 7306 1857 FA110000 		.4byte	.LLST103
 7307 185b 22       		.uleb128 0x22
 7308 185c 1C050000 		.4byte	0x51c
 7309 1860 19120000 		.4byte	.LLST104
ARM GAS  C:\Users\jsyoon\AppData\Local\Temp\ccDGobdh.s 			page 131


 7310 1864 24       		.uleb128 0x24
 7311 1865 38000000 		.4byte	.Ldebug_ranges0+0x38
 7312 1869 25       		.uleb128 0x25
 7313 186a 4C050000 		.4byte	0x54c
 7314 186e 2C120000 		.4byte	.LLST105
 7315 1872 25       		.uleb128 0x25
 7316 1873 58050000 		.4byte	0x558
 7317 1877 6C120000 		.4byte	.LLST106
 7318 187b 25       		.uleb128 0x25
 7319 187c 64050000 		.4byte	0x564
 7320 1880 AE120000 		.4byte	.LLST107
 7321 1884 00       		.byte	0
 7322 1885 00       		.byte	0
 7323 1886 26       		.uleb128 0x26
 7324 1887 71050000 		.4byte	0x571
 7325 188b FE000000 		.4byte	.LBB64
 7326 188f 18000000 		.4byte	.LBE64-.LBB64
 7327 1893 01       		.byte	0x1
 7328 1894 8207     		.2byte	0x782
 7329 1896 AD180000 		.4byte	0x18ad
 7330 189a 22       		.uleb128 0x22
 7331 189b 8A050000 		.4byte	0x58a
 7332 189f D1120000 		.4byte	.LLST108
 7333 18a3 22       		.uleb128 0x22
 7334 18a4 7E050000 		.4byte	0x57e
 7335 18a8 E4120000 		.4byte	.LLST109
 7336 18ac 00       		.byte	0
 7337 18ad 28       		.uleb128 0x28
 7338 18ae F9050000 		.4byte	0x5f9
 7339 18b2 52010000 		.4byte	.LBB68
 7340 18b6 16000000 		.4byte	.LBE68-.LBB68
 7341 18ba 01       		.byte	0x1
 7342 18bb 8C07     		.2byte	0x78c
 7343 18bd 23       		.uleb128 0x23
 7344 18be 12060000 		.4byte	0x612
 7345 18c2 01       		.uleb128 0x1
 7346 18c3 52       		.byte	0x52
 7347 18c4 23       		.uleb128 0x23
 7348 18c5 06060000 		.4byte	0x606
 7349 18c9 01       		.uleb128 0x1
 7350 18ca 50       		.byte	0x50
 7351 18cb 00       		.byte	0
 7352 18cc 00       		.byte	0
 7353 18cd 12       		.uleb128 0x12
 7354 18ce 04       		.byte	0x4
 7355 18cf 1A040000 		.4byte	0x41a
 7356 18d3 1B       		.uleb128 0x1b
 7357 18d4 CF030000 		.4byte	.LASF176
 7358 18d8 01       		.byte	0x1
 7359 18d9 A007     		.2byte	0x7a0
 7360 18db 00000000 		.4byte	.LFB162
 7361 18df 10000000 		.4byte	.LFE162-.LFB162
 7362 18e3 01       		.uleb128 0x1
 7363 18e4 9C       		.byte	0x9c
 7364 18e5 F8180000 		.4byte	0x18f8
 7365 18e9 1C       		.uleb128 0x1c
 7366 18ea EB0D0000 		.4byte	.LASF175
ARM GAS  C:\Users\jsyoon\AppData\Local\Temp\ccDGobdh.s 			page 132


 7367 18ee 01       		.byte	0x1
 7368 18ef A007     		.2byte	0x7a0
 7369 18f1 CD180000 		.4byte	0x18cd
 7370 18f5 01       		.uleb128 0x1
 7371 18f6 50       		.byte	0x50
 7372 18f7 00       		.byte	0
 7373 18f8 1B       		.uleb128 0x1b
 7374 18f9 75060000 		.4byte	.LASF177
 7375 18fd 01       		.byte	0x1
 7376 18fe B307     		.2byte	0x7b3
 7377 1900 00000000 		.4byte	.LFB163
 7378 1904 4E010000 		.4byte	.LFE163-.LFB163
 7379 1908 01       		.uleb128 0x1
 7380 1909 9C       		.byte	0x9c
 7381 190a 2D1B0000 		.4byte	0x1b2d
 7382 190e 1C       		.uleb128 0x1c
 7383 190f 0A060000 		.4byte	.LASF80
 7384 1913 01       		.byte	0x1
 7385 1914 B307     		.2byte	0x7b3
 7386 1916 E3040000 		.4byte	0x4e3
 7387 191a 01       		.uleb128 0x1
 7388 191b 50       		.byte	0x50
 7389 191c 1E       		.uleb128 0x1e
 7390 191d EB0D0000 		.4byte	.LASF175
 7391 1921 01       		.byte	0x1
 7392 1922 B307     		.2byte	0x7b3
 7393 1924 CD180000 		.4byte	0x18cd
 7394 1928 F7120000 		.4byte	.LLST110
 7395 192c 1D       		.uleb128 0x1d
 7396 192d 1C040000 		.4byte	.LASF178
 7397 1931 01       		.byte	0x1
 7398 1932 B507     		.2byte	0x7b5
 7399 1934 A2000000 		.4byte	0xa2
 7400 1938 18130000 		.4byte	.LLST111
 7401 193c 1D       		.uleb128 0x1d
 7402 193d C8070000 		.4byte	.LASF179
 7403 1941 01       		.byte	0x1
 7404 1942 B607     		.2byte	0x7b6
 7405 1944 A2000000 		.4byte	0xa2
 7406 1948 80130000 		.4byte	.LLST112
 7407 194c 21       		.uleb128 0x21
 7408 194d 8D040000 		.4byte	0x48d
 7409 1951 0C000000 		.4byte	.LBB70
 7410 1955 50000000 		.4byte	.Ldebug_ranges0+0x50
 7411 1959 01       		.byte	0x1
 7412 195a D007     		.2byte	0x7d0
 7413 195c 9B190000 		.4byte	0x199b
 7414 1960 22       		.uleb128 0x22
 7415 1961 BE040000 		.4byte	0x4be
 7416 1965 E8130000 		.4byte	.LLST113
 7417 1969 22       		.uleb128 0x22
 7418 196a B2040000 		.4byte	0x4b2
 7419 196e 15140000 		.4byte	.LLST114
 7420 1972 22       		.uleb128 0x22
 7421 1973 A6040000 		.4byte	0x4a6
 7422 1977 51140000 		.4byte	.LLST115
 7423 197b 23       		.uleb128 0x23
ARM GAS  C:\Users\jsyoon\AppData\Local\Temp\ccDGobdh.s 			page 133


 7424 197c 9A040000 		.4byte	0x49a
 7425 1980 01       		.uleb128 0x1
 7426 1981 50       		.byte	0x50
 7427 1982 24       		.uleb128 0x24
 7428 1983 50000000 		.4byte	.Ldebug_ranges0+0x50
 7429 1987 25       		.uleb128 0x25
 7430 1988 CA040000 		.4byte	0x4ca
 7431 198c 8D140000 		.4byte	.LLST116
 7432 1990 25       		.uleb128 0x25
 7433 1991 D6040000 		.4byte	0x4d6
 7434 1995 BD140000 		.4byte	.LLST117
 7435 1999 00       		.byte	0
 7436 199a 00       		.byte	0
 7437 199b 26       		.uleb128 0x26
 7438 199c 0F050000 		.4byte	0x50f
 7439 19a0 24000000 		.4byte	.LBB73
 7440 19a4 36000000 		.4byte	.LBE73-.LBB73
 7441 19a8 01       		.byte	0x1
 7442 19a9 DC07     		.2byte	0x7dc
 7443 19ab E9190000 		.4byte	0x19e9
 7444 19af 29       		.uleb128 0x29
 7445 19b0 40050000 		.4byte	0x540
 7446 19b4 29       		.uleb128 0x29
 7447 19b5 34050000 		.4byte	0x534
 7448 19b9 29       		.uleb128 0x29
 7449 19ba 28050000 		.4byte	0x528
 7450 19be 29       		.uleb128 0x29
 7451 19bf 1C050000 		.4byte	0x51c
 7452 19c3 27       		.uleb128 0x27
 7453 19c4 24000000 		.4byte	.LBB74
 7454 19c8 36000000 		.4byte	.LBE74-.LBB74
 7455 19cc 25       		.uleb128 0x25
 7456 19cd 4C050000 		.4byte	0x54c
 7457 19d1 E7140000 		.4byte	.LLST118
 7458 19d5 25       		.uleb128 0x25
 7459 19d6 58050000 		.4byte	0x558
 7460 19da 1B150000 		.4byte	.LLST119
 7461 19de 25       		.uleb128 0x25
 7462 19df 64050000 		.4byte	0x564
 7463 19e3 39150000 		.4byte	.LLST120
 7464 19e7 00       		.byte	0
 7465 19e8 00       		.byte	0
 7466 19e9 26       		.uleb128 0x26
 7467 19ea 71050000 		.4byte	0x571
 7468 19ee 5A000000 		.4byte	.LBB75
 7469 19f2 18000000 		.4byte	.LBE75-.LBB75
 7470 19f6 01       		.byte	0x1
 7471 19f7 DF07     		.2byte	0x7df
 7472 19f9 101A0000 		.4byte	0x1a10
 7473 19fd 22       		.uleb128 0x22
 7474 19fe 8A050000 		.4byte	0x58a
 7475 1a02 64150000 		.4byte	.LLST121
 7476 1a06 22       		.uleb128 0x22
 7477 1a07 7E050000 		.4byte	0x57e
 7478 1a0b 86150000 		.4byte	.LLST122
 7479 1a0f 00       		.byte	0
 7480 1a10 26       		.uleb128 0x26
ARM GAS  C:\Users\jsyoon\AppData\Local\Temp\ccDGobdh.s 			page 134


 7481 1a11 8D040000 		.4byte	0x48d
 7482 1a15 72000000 		.4byte	.LBB77
 7483 1a19 32000000 		.4byte	.LBE77-.LBB77
 7484 1a1d 01       		.byte	0x1
 7485 1a1e E107     		.2byte	0x7e1
 7486 1a20 651A0000 		.4byte	0x1a65
 7487 1a24 22       		.uleb128 0x22
 7488 1a25 BE040000 		.4byte	0x4be
 7489 1a29 99150000 		.4byte	.LLST123
 7490 1a2d 22       		.uleb128 0x22
 7491 1a2e B2040000 		.4byte	0x4b2
 7492 1a32 BB150000 		.4byte	.LLST124
 7493 1a36 22       		.uleb128 0x22
 7494 1a37 A6040000 		.4byte	0x4a6
 7495 1a3b ED150000 		.4byte	.LLST125
 7496 1a3f 22       		.uleb128 0x22
 7497 1a40 9A040000 		.4byte	0x49a
 7498 1a44 1F160000 		.4byte	.LLST126
 7499 1a48 27       		.uleb128 0x27
 7500 1a49 72000000 		.4byte	.LBB78
 7501 1a4d 32000000 		.4byte	.LBE78-.LBB78
 7502 1a51 25       		.uleb128 0x25
 7503 1a52 CA040000 		.4byte	0x4ca
 7504 1a56 32160000 		.4byte	.LLST127
 7505 1a5a 25       		.uleb128 0x25
 7506 1a5b D6040000 		.4byte	0x4d6
 7507 1a5f 5C160000 		.4byte	.LLST128
 7508 1a63 00       		.byte	0
 7509 1a64 00       		.byte	0
 7510 1a65 26       		.uleb128 0x26
 7511 1a66 E9040000 		.4byte	0x4e9
 7512 1a6a A4000000 		.4byte	.LBB79
 7513 1a6e 14000000 		.4byte	.LBE79-.LBB79
 7514 1a72 01       		.byte	0x1
 7515 1a73 E307     		.2byte	0x7e3
 7516 1a75 8C1A0000 		.4byte	0x1a8c
 7517 1a79 22       		.uleb128 0x22
 7518 1a7a 02050000 		.4byte	0x502
 7519 1a7e 86160000 		.4byte	.LLST129
 7520 1a82 22       		.uleb128 0x22
 7521 1a83 F6040000 		.4byte	0x4f6
 7522 1a87 A8160000 		.4byte	.LLST130
 7523 1a8b 00       		.byte	0
 7524 1a8c 26       		.uleb128 0x26
 7525 1a8d E9040000 		.4byte	0x4e9
 7526 1a91 EA000000 		.4byte	.LBB82
 7527 1a95 14000000 		.4byte	.LBE82-.LBB82
 7528 1a99 01       		.byte	0x1
 7529 1a9a D307     		.2byte	0x7d3
 7530 1a9c B11A0000 		.4byte	0x1ab1
 7531 1aa0 22       		.uleb128 0x22
 7532 1aa1 02050000 		.4byte	0x502
 7533 1aa5 BB160000 		.4byte	.LLST131
 7534 1aa9 23       		.uleb128 0x23
 7535 1aaa F6040000 		.4byte	0x4f6
 7536 1aae 01       		.uleb128 0x1
 7537 1aaf 50       		.byte	0x50
ARM GAS  C:\Users\jsyoon\AppData\Local\Temp\ccDGobdh.s 			page 135


 7538 1ab0 00       		.byte	0
 7539 1ab1 26       		.uleb128 0x26
 7540 1ab2 0F050000 		.4byte	0x50f
 7541 1ab6 FE000000 		.4byte	.LBB84
 7542 1aba 34000000 		.4byte	.LBE84-.LBB84
 7543 1abe 01       		.byte	0x1
 7544 1abf D507     		.2byte	0x7d5
 7545 1ac1 0B1B0000 		.4byte	0x1b0b
 7546 1ac5 23       		.uleb128 0x23
 7547 1ac6 40050000 		.4byte	0x540
 7548 1aca 01       		.uleb128 0x1
 7549 1acb 5C       		.byte	0x5c
 7550 1acc 22       		.uleb128 0x22
 7551 1acd 34050000 		.4byte	0x534
 7552 1ad1 DD160000 		.4byte	.LLST132
 7553 1ad5 22       		.uleb128 0x22
 7554 1ad6 28050000 		.4byte	0x528
 7555 1ada 0F170000 		.4byte	.LLST133
 7556 1ade 23       		.uleb128 0x23
 7557 1adf 1C050000 		.4byte	0x51c
 7558 1ae3 01       		.uleb128 0x1
 7559 1ae4 50       		.byte	0x50
 7560 1ae5 27       		.uleb128 0x27
 7561 1ae6 FE000000 		.4byte	.LBB85
 7562 1aea 34000000 		.4byte	.LBE85-.LBB85
 7563 1aee 25       		.uleb128 0x25
 7564 1aef 4C050000 		.4byte	0x54c
 7565 1af3 41170000 		.4byte	.LLST134
 7566 1af7 25       		.uleb128 0x25
 7567 1af8 58050000 		.4byte	0x558
 7568 1afc 81170000 		.4byte	.LLST135
 7569 1b00 25       		.uleb128 0x25
 7570 1b01 64050000 		.4byte	0x564
 7571 1b05 AB170000 		.4byte	.LLST136
 7572 1b09 00       		.byte	0
 7573 1b0a 00       		.byte	0
 7574 1b0b 28       		.uleb128 0x28
 7575 1b0c 71050000 		.4byte	0x571
 7576 1b10 32010000 		.4byte	.LBB86
 7577 1b14 18000000 		.4byte	.LBE86-.LBB86
 7578 1b18 01       		.byte	0x1
 7579 1b19 D707     		.2byte	0x7d7
 7580 1b1b 22       		.uleb128 0x22
 7581 1b1c 8A050000 		.4byte	0x58a
 7582 1b20 EF170000 		.4byte	.LLST137
 7583 1b24 23       		.uleb128 0x23
 7584 1b25 7E050000 		.4byte	0x57e
 7585 1b29 01       		.uleb128 0x1
 7586 1b2a 50       		.byte	0x50
 7587 1b2b 00       		.byte	0
 7588 1b2c 00       		.byte	0
 7589 1b2d 1F       		.uleb128 0x1f
 7590 1b2e 6E050000 		.4byte	.LASF180
 7591 1b32 01       		.byte	0x1
 7592 1b33 EC07     		.2byte	0x7ec
 7593 1b35 B8000000 		.4byte	0xb8
 7594 1b39 00000000 		.4byte	.LFB164
ARM GAS  C:\Users\jsyoon\AppData\Local\Temp\ccDGobdh.s 			page 136


 7595 1b3d 04000000 		.4byte	.LFE164-.LFB164
 7596 1b41 01       		.uleb128 0x1
 7597 1b42 9C       		.byte	0x9c
 7598 1b43 581B0000 		.4byte	0x1b58
 7599 1b47 1E       		.uleb128 0x1e
 7600 1b48 0A060000 		.4byte	.LASF80
 7601 1b4c 01       		.byte	0x1
 7602 1b4d EC07     		.2byte	0x7ec
 7603 1b4f E3040000 		.4byte	0x4e3
 7604 1b53 11180000 		.4byte	.LLST138
 7605 1b57 00       		.byte	0
 7606 1b58 1F       		.uleb128 0x1f
 7607 1b59 E0030000 		.4byte	.LASF181
 7608 1b5d 01       		.byte	0x1
 7609 1b5e FB07     		.2byte	0x7fb
 7610 1b60 B8000000 		.4byte	0xb8
 7611 1b64 00000000 		.4byte	.LFB165
 7612 1b68 04000000 		.4byte	.LFE165-.LFB165
 7613 1b6c 01       		.uleb128 0x1
 7614 1b6d 9C       		.byte	0x9c
 7615 1b6e 831B0000 		.4byte	0x1b83
 7616 1b72 1E       		.uleb128 0x1e
 7617 1b73 0A060000 		.4byte	.LASF80
 7618 1b77 01       		.byte	0x1
 7619 1b78 FB07     		.2byte	0x7fb
 7620 1b7a E3040000 		.4byte	0x4e3
 7621 1b7e 32180000 		.4byte	.LLST139
 7622 1b82 00       		.byte	0
 7623 1b83 1F       		.uleb128 0x1f
 7624 1b84 F0030000 		.4byte	.LASF182
 7625 1b88 01       		.byte	0x1
 7626 1b89 0908     		.2byte	0x809
 7627 1b8b B8000000 		.4byte	0xb8
 7628 1b8f 00000000 		.4byte	.LFB166
 7629 1b93 04000000 		.4byte	.LFE166-.LFB166
 7630 1b97 01       		.uleb128 0x1
 7631 1b98 9C       		.byte	0x9c
 7632 1b99 AE1B0000 		.4byte	0x1bae
 7633 1b9d 1E       		.uleb128 0x1e
 7634 1b9e 0A060000 		.4byte	.LASF80
 7635 1ba2 01       		.byte	0x1
 7636 1ba3 0908     		.2byte	0x809
 7637 1ba5 E3040000 		.4byte	0x4e3
 7638 1ba9 53180000 		.4byte	.LLST140
 7639 1bad 00       		.byte	0
 7640 1bae 1F       		.uleb128 0x1f
 7641 1baf 00040000 		.4byte	.LASF183
 7642 1bb3 01       		.byte	0x1
 7643 1bb4 1708     		.2byte	0x817
 7644 1bb6 B8000000 		.4byte	0xb8
 7645 1bba 00000000 		.4byte	.LFB167
 7646 1bbe 04000000 		.4byte	.LFE167-.LFB167
 7647 1bc2 01       		.uleb128 0x1
 7648 1bc3 9C       		.byte	0x9c
 7649 1bc4 D91B0000 		.4byte	0x1bd9
 7650 1bc8 1E       		.uleb128 0x1e
 7651 1bc9 0A060000 		.4byte	.LASF80
ARM GAS  C:\Users\jsyoon\AppData\Local\Temp\ccDGobdh.s 			page 137


 7652 1bcd 01       		.byte	0x1
 7653 1bce 1708     		.2byte	0x817
 7654 1bd0 E3040000 		.4byte	0x4e3
 7655 1bd4 74180000 		.4byte	.LLST141
 7656 1bd8 00       		.byte	0
 7657 1bd9 2A       		.uleb128 0x2a
 7658 1bda E9040000 		.4byte	0x4e9
 7659 1bde 00000000 		.4byte	.LFB168
 7660 1be2 16000000 		.4byte	.LFE168-.LFB168
 7661 1be6 01       		.uleb128 0x1
 7662 1be7 9C       		.byte	0x9c
 7663 1be8 FD1B0000 		.4byte	0x1bfd
 7664 1bec 23       		.uleb128 0x23
 7665 1bed F6040000 		.4byte	0x4f6
 7666 1bf1 01       		.uleb128 0x1
 7667 1bf2 50       		.byte	0x50
 7668 1bf3 22       		.uleb128 0x22
 7669 1bf4 02050000 		.4byte	0x502
 7670 1bf8 95180000 		.4byte	.LLST142
 7671 1bfc 00       		.byte	0
 7672 1bfd 2A       		.uleb128 0x2a
 7673 1bfe 71050000 		.4byte	0x571
 7674 1c02 00000000 		.4byte	.LFB169
 7675 1c06 1A000000 		.4byte	.LFE169-.LFB169
 7676 1c0a 01       		.uleb128 0x1
 7677 1c0b 9C       		.byte	0x9c
 7678 1c0c 211C0000 		.4byte	0x1c21
 7679 1c10 23       		.uleb128 0x23
 7680 1c11 7E050000 		.4byte	0x57e
 7681 1c15 01       		.uleb128 0x1
 7682 1c16 50       		.byte	0x50
 7683 1c17 22       		.uleb128 0x22
 7684 1c18 8A050000 		.4byte	0x58a
 7685 1c1c B6180000 		.4byte	.LLST143
 7686 1c20 00       		.byte	0
 7687 1c21 2A       		.uleb128 0x2a
 7688 1c22 F9050000 		.4byte	0x5f9
 7689 1c26 00000000 		.4byte	.LFB170
 7690 1c2a 16000000 		.4byte	.LFE170-.LFB170
 7691 1c2e 01       		.uleb128 0x1
 7692 1c2f 9C       		.byte	0x9c
 7693 1c30 451C0000 		.4byte	0x1c45
 7694 1c34 23       		.uleb128 0x23
 7695 1c35 06060000 		.4byte	0x606
 7696 1c39 01       		.uleb128 0x1
 7697 1c3a 50       		.byte	0x50
 7698 1c3b 22       		.uleb128 0x22
 7699 1c3c 12060000 		.4byte	0x612
 7700 1c40 D7180000 		.4byte	.LLST144
 7701 1c44 00       		.byte	0
 7702 1c45 2A       		.uleb128 0x2a
 7703 1c46 81060000 		.4byte	0x681
 7704 1c4a 00000000 		.4byte	.LFB171
 7705 1c4e 1A000000 		.4byte	.LFE171-.LFB171
 7706 1c52 01       		.uleb128 0x1
 7707 1c53 9C       		.byte	0x9c
 7708 1c54 691C0000 		.4byte	0x1c69
ARM GAS  C:\Users\jsyoon\AppData\Local\Temp\ccDGobdh.s 			page 138


 7709 1c58 23       		.uleb128 0x23
 7710 1c59 8E060000 		.4byte	0x68e
 7711 1c5d 01       		.uleb128 0x1
 7712 1c5e 50       		.byte	0x50
 7713 1c5f 22       		.uleb128 0x22
 7714 1c60 9A060000 		.4byte	0x69a
 7715 1c64 F8180000 		.4byte	.LLST145
 7716 1c68 00       		.byte	0
 7717 1c69 1B       		.uleb128 0x1b
 7718 1c6a 41090000 		.4byte	.LASF184
 7719 1c6e 01       		.byte	0x1
 7720 1c6f A908     		.2byte	0x8a9
 7721 1c71 00000000 		.4byte	.LFB172
 7722 1c75 2A000000 		.4byte	.LFE172-.LFB172
 7723 1c79 01       		.uleb128 0x1
 7724 1c7a 9C       		.byte	0x9c
 7725 1c7b 9C1C0000 		.4byte	0x1c9c
 7726 1c7f 1C       		.uleb128 0x1c
 7727 1c80 0A060000 		.4byte	.LASF80
 7728 1c84 01       		.byte	0x1
 7729 1c85 A908     		.2byte	0x8a9
 7730 1c87 E3040000 		.4byte	0x4e3
 7731 1c8b 01       		.uleb128 0x1
 7732 1c8c 50       		.byte	0x50
 7733 1c8d 1C       		.uleb128 0x1c
 7734 1c8e 060A0000 		.4byte	.LASF185
 7735 1c92 01       		.byte	0x1
 7736 1c93 A908     		.2byte	0x8a9
 7737 1c95 9C1C0000 		.4byte	0x1c9c
 7738 1c99 01       		.uleb128 0x1
 7739 1c9a 51       		.byte	0x51
 7740 1c9b 00       		.byte	0
 7741 1c9c 12       		.uleb128 0x12
 7742 1c9d 04       		.byte	0x4
 7743 1c9e 82040000 		.4byte	0x482
 7744 1ca2 1B       		.uleb128 0x1b
 7745 1ca3 E1060000 		.4byte	.LASF186
 7746 1ca7 01       		.byte	0x1
 7747 1ca8 C208     		.2byte	0x8c2
 7748 1caa 00000000 		.4byte	.LFB173
 7749 1cae 12000000 		.4byte	.LFE173-.LFB173
 7750 1cb2 01       		.uleb128 0x1
 7751 1cb3 9C       		.byte	0x9c
 7752 1cb4 C71C0000 		.4byte	0x1cc7
 7753 1cb8 1C       		.uleb128 0x1c
 7754 1cb9 060A0000 		.4byte	.LASF185
 7755 1cbd 01       		.byte	0x1
 7756 1cbe C208     		.2byte	0x8c2
 7757 1cc0 9C1C0000 		.4byte	0x1c9c
 7758 1cc4 01       		.uleb128 0x1
 7759 1cc5 50       		.byte	0x50
 7760 1cc6 00       		.byte	0
 7761 1cc7 1B       		.uleb128 0x1b
 7762 1cc8 2E090000 		.4byte	.LASF187
 7763 1ccc 01       		.byte	0x1
 7764 1ccd D508     		.2byte	0x8d5
 7765 1ccf 00000000 		.4byte	.LFB174
ARM GAS  C:\Users\jsyoon\AppData\Local\Temp\ccDGobdh.s 			page 139


 7766 1cd3 20000000 		.4byte	.LFE174-.LFB174
 7767 1cd7 01       		.uleb128 0x1
 7768 1cd8 9C       		.byte	0x9c
 7769 1cd9 FA1C0000 		.4byte	0x1cfa
 7770 1cdd 1C       		.uleb128 0x1c
 7771 1cde 0A060000 		.4byte	.LASF80
 7772 1ce2 01       		.byte	0x1
 7773 1ce3 D508     		.2byte	0x8d5
 7774 1ce5 E3040000 		.4byte	0x4e3
 7775 1ce9 01       		.uleb128 0x1
 7776 1cea 50       		.byte	0x50
 7777 1ceb 1C       		.uleb128 0x1c
 7778 1cec 0B000000 		.4byte	.LASF116
 7779 1cf0 01       		.byte	0x1
 7780 1cf1 D508     		.2byte	0x8d5
 7781 1cf3 1D010000 		.4byte	0x11d
 7782 1cf7 01       		.uleb128 0x1
 7783 1cf8 51       		.byte	0x51
 7784 1cf9 00       		.byte	0
 7785 1cfa 1B       		.uleb128 0x1b
 7786 1cfb D1040000 		.4byte	.LASF188
 7787 1cff 01       		.byte	0x1
 7788 1d00 EE08     		.2byte	0x8ee
 7789 1d02 00000000 		.4byte	.LFB175
 7790 1d06 1A000000 		.4byte	.LFE175-.LFB175
 7791 1d0a 01       		.uleb128 0x1
 7792 1d0b 9C       		.byte	0x9c
 7793 1d0c 2D1D0000 		.4byte	0x1d2d
 7794 1d10 1C       		.uleb128 0x1c
 7795 1d11 0A060000 		.4byte	.LASF80
 7796 1d15 01       		.byte	0x1
 7797 1d16 EE08     		.2byte	0x8ee
 7798 1d18 E3040000 		.4byte	0x4e3
 7799 1d1c 01       		.uleb128 0x1
 7800 1d1d 50       		.byte	0x50
 7801 1d1e 1C       		.uleb128 0x1c
 7802 1d1f 0B000000 		.4byte	.LASF116
 7803 1d23 01       		.byte	0x1
 7804 1d24 EE08     		.2byte	0x8ee
 7805 1d26 1D010000 		.4byte	0x11d
 7806 1d2a 01       		.uleb128 0x1
 7807 1d2b 51       		.byte	0x51
 7808 1d2c 00       		.byte	0
 7809 1d2d 1B       		.uleb128 0x1b
 7810 1d2e EA0B0000 		.4byte	.LASF189
 7811 1d32 01       		.byte	0x1
 7812 1d33 0709     		.2byte	0x907
 7813 1d35 00000000 		.4byte	.LFB176
 7814 1d39 1A000000 		.4byte	.LFE176-.LFB176
 7815 1d3d 01       		.uleb128 0x1
 7816 1d3e 9C       		.byte	0x9c
 7817 1d3f 601D0000 		.4byte	0x1d60
 7818 1d43 1C       		.uleb128 0x1c
 7819 1d44 0A060000 		.4byte	.LASF80
 7820 1d48 01       		.byte	0x1
 7821 1d49 0709     		.2byte	0x907
 7822 1d4b E3040000 		.4byte	0x4e3
ARM GAS  C:\Users\jsyoon\AppData\Local\Temp\ccDGobdh.s 			page 140


 7823 1d4f 01       		.uleb128 0x1
 7824 1d50 50       		.byte	0x50
 7825 1d51 1C       		.uleb128 0x1c
 7826 1d52 0B000000 		.4byte	.LASF116
 7827 1d56 01       		.byte	0x1
 7828 1d57 0709     		.2byte	0x907
 7829 1d59 1D010000 		.4byte	0x11d
 7830 1d5d 01       		.uleb128 0x1
 7831 1d5e 51       		.byte	0x51
 7832 1d5f 00       		.byte	0
 7833 1d60 1B       		.uleb128 0x1b
 7834 1d61 2C0E0000 		.4byte	.LASF190
 7835 1d65 01       		.byte	0x1
 7836 1d66 4009     		.2byte	0x940
 7837 1d68 00000000 		.4byte	.LFB177
 7838 1d6c 14000000 		.4byte	.LFE177-.LFB177
 7839 1d70 01       		.uleb128 0x1
 7840 1d71 9C       		.byte	0x9c
 7841 1d72 A31D0000 		.4byte	0x1da3
 7842 1d76 1C       		.uleb128 0x1c
 7843 1d77 0A060000 		.4byte	.LASF80
 7844 1d7b 01       		.byte	0x1
 7845 1d7c 4009     		.2byte	0x940
 7846 1d7e E3040000 		.4byte	0x4e3
 7847 1d82 01       		.uleb128 0x1
 7848 1d83 50       		.byte	0x50
 7849 1d84 1E       		.uleb128 0x1e
 7850 1d85 38030000 		.4byte	.LASF191
 7851 1d89 01       		.byte	0x1
 7852 1d8a 4009     		.2byte	0x940
 7853 1d8c A2000000 		.4byte	0xa2
 7854 1d90 19190000 		.4byte	.LLST146
 7855 1d94 1C       		.uleb128 0x1c
 7856 1d95 0B000000 		.4byte	.LASF116
 7857 1d99 01       		.byte	0x1
 7858 1d9a 4009     		.2byte	0x940
 7859 1d9c 1D010000 		.4byte	0x11d
 7860 1da0 01       		.uleb128 0x1
 7861 1da1 52       		.byte	0x52
 7862 1da2 00       		.byte	0
 7863 1da3 1B       		.uleb128 0x1b
 7864 1da4 5C020000 		.4byte	.LASF192
 7865 1da8 01       		.byte	0x1
 7866 1da9 6609     		.2byte	0x966
 7867 1dab 00000000 		.4byte	.LFB178
 7868 1daf 04000000 		.4byte	.LFE178-.LFB178
 7869 1db3 01       		.uleb128 0x1
 7870 1db4 9C       		.byte	0x9c
 7871 1db5 D61D0000 		.4byte	0x1dd6
 7872 1db9 1C       		.uleb128 0x1c
 7873 1dba 0A060000 		.4byte	.LASF80
 7874 1dbe 01       		.byte	0x1
 7875 1dbf 6609     		.2byte	0x966
 7876 1dc1 E3040000 		.4byte	0x4e3
 7877 1dc5 01       		.uleb128 0x1
 7878 1dc6 50       		.byte	0x50
 7879 1dc7 1C       		.uleb128 0x1c
ARM GAS  C:\Users\jsyoon\AppData\Local\Temp\ccDGobdh.s 			page 141


 7880 1dc8 72080000 		.4byte	.LASF193
 7881 1dcc 01       		.byte	0x1
 7882 1dcd 6609     		.2byte	0x966
 7883 1dcf A2000000 		.4byte	0xa2
 7884 1dd3 01       		.uleb128 0x1
 7885 1dd4 51       		.byte	0x51
 7886 1dd5 00       		.byte	0
 7887 1dd6 1F       		.uleb128 0x1f
 7888 1dd7 C0050000 		.4byte	.LASF194
 7889 1ddb 01       		.byte	0x1
 7890 1ddc 8709     		.2byte	0x987
 7891 1dde EF000000 		.4byte	0xef
 7892 1de2 00000000 		.4byte	.LFB179
 7893 1de6 0C000000 		.4byte	.LFE179-.LFB179
 7894 1dea 01       		.uleb128 0x1
 7895 1deb 9C       		.byte	0x9c
 7896 1dec 1F1E0000 		.4byte	0x1e1f
 7897 1df0 1E       		.uleb128 0x1e
 7898 1df1 0A060000 		.4byte	.LASF80
 7899 1df5 01       		.byte	0x1
 7900 1df6 8709     		.2byte	0x987
 7901 1df8 E3040000 		.4byte	0x4e3
 7902 1dfc 53190000 		.4byte	.LLST147
 7903 1e00 1C       		.uleb128 0x1c
 7904 1e01 E6000000 		.4byte	.LASF195
 7905 1e05 01       		.byte	0x1
 7906 1e06 8709     		.2byte	0x987
 7907 1e08 A2000000 		.4byte	0xa2
 7908 1e0c 01       		.uleb128 0x1
 7909 1e0d 51       		.byte	0x51
 7910 1e0e 1D       		.uleb128 0x1d
 7911 1e0f FC0D0000 		.4byte	.LASF196
 7912 1e13 01       		.byte	0x1
 7913 1e14 8909     		.2byte	0x989
 7914 1e16 FB000000 		.4byte	0xfb
 7915 1e1a 74190000 		.4byte	.LLST148
 7916 1e1e 00       		.byte	0
 7917 1e1f 1B       		.uleb128 0x1b
 7918 1e20 A3040000 		.4byte	.LASF197
 7919 1e24 01       		.byte	0x1
 7920 1e25 B109     		.2byte	0x9b1
 7921 1e27 00000000 		.4byte	.LFB180
 7922 1e2b 08000000 		.4byte	.LFE180-.LFB180
 7923 1e2f 01       		.uleb128 0x1
 7924 1e30 9C       		.byte	0x9c
 7925 1e31 541E0000 		.4byte	0x1e54
 7926 1e35 1C       		.uleb128 0x1c
 7927 1e36 0A060000 		.4byte	.LASF80
 7928 1e3a 01       		.byte	0x1
 7929 1e3b B109     		.2byte	0x9b1
 7930 1e3d E3040000 		.4byte	0x4e3
 7931 1e41 01       		.uleb128 0x1
 7932 1e42 50       		.byte	0x50
 7933 1e43 1E       		.uleb128 0x1e
 7934 1e44 E6000000 		.4byte	.LASF195
 7935 1e48 01       		.byte	0x1
 7936 1e49 B109     		.2byte	0x9b1
ARM GAS  C:\Users\jsyoon\AppData\Local\Temp\ccDGobdh.s 			page 142


 7937 1e4b A2000000 		.4byte	0xa2
 7938 1e4f 9C190000 		.4byte	.LLST149
 7939 1e53 00       		.byte	0
 7940 1e54 1F       		.uleb128 0x1f
 7941 1e55 F6070000 		.4byte	.LASF198
 7942 1e59 01       		.byte	0x1
 7943 1e5a CD09     		.2byte	0x9cd
 7944 1e5c FB000000 		.4byte	0xfb
 7945 1e60 00000000 		.4byte	.LFB181
 7946 1e64 16000000 		.4byte	.LFE181-.LFB181
 7947 1e68 01       		.uleb128 0x1
 7948 1e69 9C       		.byte	0x9c
 7949 1e6a BD1E0000 		.4byte	0x1ebd
 7950 1e6e 1E       		.uleb128 0x1e
 7951 1e6f 0A060000 		.4byte	.LASF80
 7952 1e73 01       		.byte	0x1
 7953 1e74 CD09     		.2byte	0x9cd
 7954 1e76 E3040000 		.4byte	0x4e3
 7955 1e7a BD190000 		.4byte	.LLST150
 7956 1e7e 1C       		.uleb128 0x1c
 7957 1e7f 38030000 		.4byte	.LASF191
 7958 1e83 01       		.byte	0x1
 7959 1e84 CD09     		.2byte	0x9cd
 7960 1e86 A2000000 		.4byte	0xa2
 7961 1e8a 01       		.uleb128 0x1
 7962 1e8b 51       		.byte	0x51
 7963 1e8c 1D       		.uleb128 0x1d
 7964 1e8d FC0D0000 		.4byte	.LASF196
 7965 1e91 01       		.byte	0x1
 7966 1e92 CF09     		.2byte	0x9cf
 7967 1e94 FB000000 		.4byte	0xfb
 7968 1e98 DE190000 		.4byte	.LLST151
 7969 1e9c 1D       		.uleb128 0x1d
 7970 1e9d B3070000 		.4byte	.LASF199
 7971 1ea1 01       		.byte	0x1
 7972 1ea2 D009     		.2byte	0x9d0
 7973 1ea4 A2000000 		.4byte	0xa2
 7974 1ea8 FD190000 		.4byte	.LLST152
 7975 1eac 1D       		.uleb128 0x1d
 7976 1ead 500C0000 		.4byte	.LASF200
 7977 1eb1 01       		.byte	0x1
 7978 1eb2 D009     		.2byte	0x9d0
 7979 1eb4 A2000000 		.4byte	0xa2
 7980 1eb8 211A0000 		.4byte	.LLST153
 7981 1ebc 00       		.byte	0
 7982 1ebd 1B       		.uleb128 0x1b
 7983 1ebe E60A0000 		.4byte	.LASF201
 7984 1ec2 01       		.byte	0x1
 7985 1ec3 F609     		.2byte	0x9f6
 7986 1ec5 00000000 		.4byte	.LFB182
 7987 1ec9 08000000 		.4byte	.LFE182-.LFB182
 7988 1ecd 01       		.uleb128 0x1
 7989 1ece 9C       		.byte	0x9c
 7990 1ecf F21E0000 		.4byte	0x1ef2
 7991 1ed3 1C       		.uleb128 0x1c
 7992 1ed4 0A060000 		.4byte	.LASF80
 7993 1ed8 01       		.byte	0x1
ARM GAS  C:\Users\jsyoon\AppData\Local\Temp\ccDGobdh.s 			page 143


 7994 1ed9 F609     		.2byte	0x9f6
 7995 1edb E3040000 		.4byte	0x4e3
 7996 1edf 01       		.uleb128 0x1
 7997 1ee0 50       		.byte	0x50
 7998 1ee1 1E       		.uleb128 0x1e
 7999 1ee2 38030000 		.4byte	.LASF191
 8000 1ee6 01       		.byte	0x1
 8001 1ee7 F609     		.2byte	0x9f6
 8002 1ee9 A2000000 		.4byte	0xa2
 8003 1eed 451A0000 		.4byte	.LLST154
 8004 1ef1 00       		.byte	0
 8005 1ef2 1B       		.uleb128 0x1b
 8006 1ef3 C3020000 		.4byte	.LASF202
 8007 1ef7 01       		.byte	0x1
 8008 1ef8 1B0A     		.2byte	0xa1b
 8009 1efa 00000000 		.4byte	.LFB183
 8010 1efe 08000000 		.4byte	.LFE183-.LFB183
 8011 1f02 01       		.uleb128 0x1
 8012 1f03 9C       		.byte	0x9c
 8013 1f04 351F0000 		.4byte	0x1f35
 8014 1f08 1C       		.uleb128 0x1c
 8015 1f09 0A060000 		.4byte	.LASF80
 8016 1f0d 01       		.byte	0x1
 8017 1f0e 1B0A     		.2byte	0xa1b
 8018 1f10 E3040000 		.4byte	0x4e3
 8019 1f14 01       		.uleb128 0x1
 8020 1f15 50       		.byte	0x50
 8021 1f16 1C       		.uleb128 0x1c
 8022 1f17 BC070000 		.4byte	.LASF203
 8023 1f1b 01       		.byte	0x1
 8024 1f1c 1B0A     		.2byte	0xa1b
 8025 1f1e A2000000 		.4byte	0xa2
 8026 1f22 01       		.uleb128 0x1
 8027 1f23 51       		.byte	0x51
 8028 1f24 1E       		.uleb128 0x1e
 8029 1f25 90040000 		.4byte	.LASF204
 8030 1f29 01       		.byte	0x1
 8031 1f2a 1B0A     		.2byte	0xa1b
 8032 1f2c A2000000 		.4byte	0xa2
 8033 1f30 661A0000 		.4byte	.LLST155
 8034 1f34 00       		.byte	0
 8035 1f35 1B       		.uleb128 0x1b
 8036 1f36 3F000000 		.4byte	.LASF205
 8037 1f3a 01       		.byte	0x1
 8038 1f3b 360A     		.2byte	0xa36
 8039 1f3d 00000000 		.4byte	.LFB184
 8040 1f41 14000000 		.4byte	.LFE184-.LFB184
 8041 1f45 01       		.uleb128 0x1
 8042 1f46 9C       		.byte	0x9c
 8043 1f47 781F0000 		.4byte	0x1f78
 8044 1f4b 1C       		.uleb128 0x1c
 8045 1f4c 0A060000 		.4byte	.LASF80
 8046 1f50 01       		.byte	0x1
 8047 1f51 360A     		.2byte	0xa36
 8048 1f53 E3040000 		.4byte	0x4e3
 8049 1f57 01       		.uleb128 0x1
 8050 1f58 50       		.byte	0x50
ARM GAS  C:\Users\jsyoon\AppData\Local\Temp\ccDGobdh.s 			page 144


 8051 1f59 1E       		.uleb128 0x1e
 8052 1f5a 8F060000 		.4byte	.LASF206
 8053 1f5e 01       		.byte	0x1
 8054 1f5f 360A     		.2byte	0xa36
 8055 1f61 A2000000 		.4byte	0xa2
 8056 1f65 871A0000 		.4byte	.LLST156
 8057 1f69 1C       		.uleb128 0x1c
 8058 1f6a 0B000000 		.4byte	.LASF116
 8059 1f6e 01       		.byte	0x1
 8060 1f6f 360A     		.2byte	0xa36
 8061 1f71 1D010000 		.4byte	0x11d
 8062 1f75 01       		.uleb128 0x1
 8063 1f76 52       		.byte	0x52
 8064 1f77 00       		.byte	0
 8065 1f78 1B       		.uleb128 0x1b
 8066 1f79 49040000 		.4byte	.LASF207
 8067 1f7d 01       		.byte	0x1
 8068 1f7e 500A     		.2byte	0xa50
 8069 1f80 00000000 		.4byte	.LFB185
 8070 1f84 1A000000 		.4byte	.LFE185-.LFB185
 8071 1f88 01       		.uleb128 0x1
 8072 1f89 9C       		.byte	0x9c
 8073 1f8a AB1F0000 		.4byte	0x1fab
 8074 1f8e 1C       		.uleb128 0x1c
 8075 1f8f 0A060000 		.4byte	.LASF80
 8076 1f93 01       		.byte	0x1
 8077 1f94 500A     		.2byte	0xa50
 8078 1f96 E3040000 		.4byte	0x4e3
 8079 1f9a 01       		.uleb128 0x1
 8080 1f9b 50       		.byte	0x50
 8081 1f9c 1C       		.uleb128 0x1c
 8082 1f9d 0B000000 		.4byte	.LASF116
 8083 1fa1 01       		.byte	0x1
 8084 1fa2 500A     		.2byte	0xa50
 8085 1fa4 1D010000 		.4byte	0x11d
 8086 1fa8 01       		.uleb128 0x1
 8087 1fa9 51       		.byte	0x51
 8088 1faa 00       		.byte	0
 8089 1fab 1B       		.uleb128 0x1b
 8090 1fac A4010000 		.4byte	.LASF208
 8091 1fb0 01       		.byte	0x1
 8092 1fb1 770A     		.2byte	0xa77
 8093 1fb3 00000000 		.4byte	.LFB186
 8094 1fb7 0E000000 		.4byte	.LFE186-.LFB186
 8095 1fbb 01       		.uleb128 0x1
 8096 1fbc 9C       		.byte	0x9c
 8097 1fbd D01F0000 		.4byte	0x1fd0
 8098 1fc1 1C       		.uleb128 0x1c
 8099 1fc2 0A060000 		.4byte	.LASF80
 8100 1fc6 01       		.byte	0x1
 8101 1fc7 770A     		.2byte	0xa77
 8102 1fc9 E3040000 		.4byte	0x4e3
 8103 1fcd 01       		.uleb128 0x1
 8104 1fce 50       		.byte	0x50
 8105 1fcf 00       		.byte	0
 8106 1fd0 1B       		.uleb128 0x1b
 8107 1fd1 87090000 		.4byte	.LASF209
ARM GAS  C:\Users\jsyoon\AppData\Local\Temp\ccDGobdh.s 			page 145


 8108 1fd5 01       		.byte	0x1
 8109 1fd6 8C0A     		.2byte	0xa8c
 8110 1fd8 00000000 		.4byte	.LFB187
 8111 1fdc 1A000000 		.4byte	.LFE187-.LFB187
 8112 1fe0 01       		.uleb128 0x1
 8113 1fe1 9C       		.byte	0x9c
 8114 1fe2 39200000 		.4byte	0x2039
 8115 1fe6 1C       		.uleb128 0x1c
 8116 1fe7 0A060000 		.4byte	.LASF80
 8117 1feb 01       		.byte	0x1
 8118 1fec 8C0A     		.2byte	0xa8c
 8119 1fee E3040000 		.4byte	0x4e3
 8120 1ff2 01       		.uleb128 0x1
 8121 1ff3 50       		.byte	0x50
 8122 1ff4 1E       		.uleb128 0x1e
 8123 1ff5 6C000000 		.4byte	.LASF94
 8124 1ff9 01       		.byte	0x1
 8125 1ffa 8C0A     		.2byte	0xa8c
 8126 1ffc A2000000 		.4byte	0xa2
 8127 2000 C11A0000 		.4byte	.LLST157
 8128 2004 28       		.uleb128 0x28
 8129 2005 A7060000 		.4byte	0x6a7
 8130 2009 00000000 		.4byte	.LBB88
 8131 200d 0E000000 		.4byte	.LBE88-.LBB88
 8132 2011 01       		.byte	0x1
 8133 2012 930A     		.2byte	0xa93
 8134 2014 22       		.uleb128 0x22
 8135 2015 C0060000 		.4byte	0x6c0
 8136 2019 C11A0000 		.4byte	.LLST157
 8137 201d 23       		.uleb128 0x23
 8138 201e B4060000 		.4byte	0x6b4
 8139 2022 01       		.uleb128 0x1
 8140 2023 50       		.byte	0x50
 8141 2024 27       		.uleb128 0x27
 8142 2025 00000000 		.4byte	.LBB89
 8143 2029 0E000000 		.4byte	.LBE89-.LBB89
 8144 202d 25       		.uleb128 0x25
 8145 202e CC060000 		.4byte	0x6cc
 8146 2032 E21A0000 		.4byte	.LLST159
 8147 2036 00       		.byte	0
 8148 2037 00       		.byte	0
 8149 2038 00       		.byte	0
 8150 2039 1B       		.uleb128 0x1b
 8151 203a EF080000 		.4byte	.LASF210
 8152 203e 01       		.byte	0x1
 8153 203f AA0A     		.2byte	0xaaa
 8154 2041 00000000 		.4byte	.LFB188
 8155 2045 88000000 		.4byte	.LFE188-.LFB188
 8156 2049 01       		.uleb128 0x1
 8157 204a 9C       		.byte	0x9c
 8158 204b 6C210000 		.4byte	0x216c
 8159 204f 1C       		.uleb128 0x1c
 8160 2050 0A060000 		.4byte	.LASF80
 8161 2054 01       		.byte	0x1
 8162 2055 AA0A     		.2byte	0xaaa
 8163 2057 E3040000 		.4byte	0x4e3
 8164 205b 01       		.uleb128 0x1
ARM GAS  C:\Users\jsyoon\AppData\Local\Temp\ccDGobdh.s 			page 146


 8165 205c 50       		.byte	0x50
 8166 205d 1C       		.uleb128 0x1c
 8167 205e E3090000 		.4byte	.LASF211
 8168 2062 01       		.byte	0x1
 8169 2063 AA0A     		.2byte	0xaaa
 8170 2065 A2000000 		.4byte	0xa2
 8171 2069 01       		.uleb128 0x1
 8172 206a 51       		.byte	0x51
 8173 206b 1E       		.uleb128 0x1e
 8174 206c 82080000 		.4byte	.LASF67
 8175 2070 01       		.byte	0x1
 8176 2071 AB0A     		.2byte	0xaab
 8177 2073 A2000000 		.4byte	0xa2
 8178 2077 171B0000 		.4byte	.LLST160
 8179 207b 1E       		.uleb128 0x1e
 8180 207c 060E0000 		.4byte	.LASF212
 8181 2080 01       		.byte	0x1
 8182 2081 AB0A     		.2byte	0xaab
 8183 2083 A2000000 		.4byte	0xa2
 8184 2087 511B0000 		.4byte	.LLST161
 8185 208b 21       		.uleb128 0x21
 8186 208c 0F050000 		.4byte	0x50f
 8187 2090 04000000 		.4byte	.LBB90
 8188 2094 68000000 		.4byte	.Ldebug_ranges0+0x68
 8189 2098 01       		.byte	0x1
 8190 2099 B50A     		.2byte	0xab5
 8191 209b E0200000 		.4byte	0x20e0
 8192 209f 22       		.uleb128 0x22
 8193 20a0 40050000 		.4byte	0x540
 8194 20a4 8B1B0000 		.4byte	.LLST162
 8195 20a8 2B       		.uleb128 0x2b
 8196 20a9 34050000 		.4byte	0x534
 8197 20ad 01       		.byte	0x1
 8198 20ae 22       		.uleb128 0x22
 8199 20af 28050000 		.4byte	0x528
 8200 20b3 9E1B0000 		.4byte	.LLST163
 8201 20b7 23       		.uleb128 0x23
 8202 20b8 1C050000 		.4byte	0x51c
 8203 20bc 01       		.uleb128 0x1
 8204 20bd 50       		.byte	0x50
 8205 20be 24       		.uleb128 0x24
 8206 20bf 68000000 		.4byte	.Ldebug_ranges0+0x68
 8207 20c3 25       		.uleb128 0x25
 8208 20c4 4C050000 		.4byte	0x54c
 8209 20c8 B11B0000 		.4byte	.LLST164
 8210 20cc 25       		.uleb128 0x25
 8211 20cd 58050000 		.4byte	0x558
 8212 20d1 ED1B0000 		.4byte	.LLST165
 8213 20d5 25       		.uleb128 0x25
 8214 20d6 64050000 		.4byte	0x564
 8215 20da 171C0000 		.4byte	.LLST166
 8216 20de 00       		.byte	0
 8217 20df 00       		.byte	0
 8218 20e0 26       		.uleb128 0x26
 8219 20e1 8D040000 		.4byte	0x48d
 8220 20e5 08000000 		.4byte	.LBB93
 8221 20e9 2E000000 		.4byte	.LBE93-.LBB93
ARM GAS  C:\Users\jsyoon\AppData\Local\Temp\ccDGobdh.s 			page 147


 8222 20ed 01       		.byte	0x1
 8223 20ee B90A     		.2byte	0xab9
 8224 20f0 35210000 		.4byte	0x2135
 8225 20f4 22       		.uleb128 0x22
 8226 20f5 BE040000 		.4byte	0x4be
 8227 20f9 3A1C0000 		.4byte	.LLST167
 8228 20fd 22       		.uleb128 0x22
 8229 20fe B2040000 		.4byte	0x4b2
 8230 2102 4D1C0000 		.4byte	.LLST168
 8231 2106 22       		.uleb128 0x22
 8232 2107 A6040000 		.4byte	0x4a6
 8233 210b 611C0000 		.4byte	.LLST169
 8234 210f 22       		.uleb128 0x22
 8235 2110 9A040000 		.4byte	0x49a
 8236 2114 741C0000 		.4byte	.LLST170
 8237 2118 27       		.uleb128 0x27
 8238 2119 08000000 		.4byte	.LBB94
 8239 211d 2E000000 		.4byte	.LBE94-.LBB94
 8240 2121 25       		.uleb128 0x25
 8241 2122 CA040000 		.4byte	0x4ca
 8242 2126 871C0000 		.4byte	.LLST171
 8243 212a 25       		.uleb128 0x25
 8244 212b D6040000 		.4byte	0x4d6
 8245 212f B11C0000 		.4byte	.LLST172
 8246 2133 00       		.byte	0
 8247 2134 00       		.byte	0
 8248 2135 28       		.uleb128 0x28
 8249 2136 A7060000 		.4byte	0x6a7
 8250 213a 36000000 		.4byte	.LBB95
 8251 213e 0E000000 		.4byte	.LBE95-.LBB95
 8252 2142 01       		.byte	0x1
 8253 2143 BC0A     		.2byte	0xabc
 8254 2145 22       		.uleb128 0x22
 8255 2146 C0060000 		.4byte	0x6c0
 8256 214a DB1C0000 		.4byte	.LLST173
 8257 214e 22       		.uleb128 0x22
 8258 214f B4060000 		.4byte	0x6b4
 8259 2153 EE1C0000 		.4byte	.LLST174
 8260 2157 27       		.uleb128 0x27
 8261 2158 36000000 		.4byte	.LBB96
 8262 215c 0E000000 		.4byte	.LBE96-.LBB96
 8263 2160 25       		.uleb128 0x25
 8264 2161 CC060000 		.4byte	0x6cc
 8265 2165 011D0000 		.4byte	.LLST175
 8266 2169 00       		.byte	0
 8267 216a 00       		.byte	0
 8268 216b 00       		.byte	0
 8269 216c 1B       		.uleb128 0x1b
 8270 216d 0D0C0000 		.4byte	.LASF213
 8271 2171 01       		.byte	0x1
 8272 2172 D20A     		.2byte	0xad2
 8273 2174 00000000 		.4byte	.LFB189
 8274 2178 28000000 		.4byte	.LFE189-.LFB189
 8275 217c 01       		.uleb128 0x1
 8276 217d 9C       		.byte	0x9c
 8277 217e 13220000 		.4byte	0x2213
 8278 2182 1C       		.uleb128 0x1c
ARM GAS  C:\Users\jsyoon\AppData\Local\Temp\ccDGobdh.s 			page 148


 8279 2183 0A060000 		.4byte	.LASF80
 8280 2187 01       		.byte	0x1
 8281 2188 D20A     		.2byte	0xad2
 8282 218a E3040000 		.4byte	0x4e3
 8283 218e 01       		.uleb128 0x1
 8284 218f 50       		.byte	0x50
 8285 2190 1E       		.uleb128 0x1e
 8286 2191 18070000 		.4byte	.LASF97
 8287 2195 01       		.byte	0x1
 8288 2196 D20A     		.2byte	0xad2
 8289 2198 A2000000 		.4byte	0xa2
 8290 219c 2B1D0000 		.4byte	.LLST176
 8291 21a0 1C       		.uleb128 0x1c
 8292 21a1 CE060000 		.4byte	.LASF98
 8293 21a5 01       		.byte	0x1
 8294 21a6 D30A     		.2byte	0xad3
 8295 21a8 A2000000 		.4byte	0xa2
 8296 21ac 01       		.uleb128 0x1
 8297 21ad 52       		.byte	0x52
 8298 21ae 1E       		.uleb128 0x1e
 8299 21af 1F0E0000 		.4byte	.LASF99
 8300 21b3 01       		.byte	0x1
 8301 21b4 D30A     		.2byte	0xad3
 8302 21b6 A2000000 		.4byte	0xa2
 8303 21ba 4C1D0000 		.4byte	.LLST177
 8304 21be 1D       		.uleb128 0x1d
 8305 21bf C6060000 		.4byte	.LASF95
 8306 21c3 01       		.byte	0x1
 8307 21c4 D50A     		.2byte	0xad5
 8308 21c6 A2000000 		.4byte	0xa2
 8309 21ca 6D1D0000 		.4byte	.LLST178
 8310 21ce 28       		.uleb128 0x28
 8311 21cf D9060000 		.4byte	0x6d9
 8312 21d3 02000000 		.4byte	.LBB98
 8313 21d7 10000000 		.4byte	.LBE98-.LBB98
 8314 21db 01       		.byte	0x1
 8315 21dc DD0A     		.2byte	0xadd
 8316 21de 22       		.uleb128 0x22
 8317 21df 0A070000 		.4byte	0x70a
 8318 21e3 4C1D0000 		.4byte	.LLST177
 8319 21e7 23       		.uleb128 0x23
 8320 21e8 FE060000 		.4byte	0x6fe
 8321 21ec 01       		.uleb128 0x1
 8322 21ed 52       		.byte	0x52
 8323 21ee 22       		.uleb128 0x22
 8324 21ef F2060000 		.4byte	0x6f2
 8325 21f3 2B1D0000 		.4byte	.LLST176
 8326 21f7 23       		.uleb128 0x23
 8327 21f8 E6060000 		.4byte	0x6e6
 8328 21fc 01       		.uleb128 0x1
 8329 21fd 50       		.byte	0x50
 8330 21fe 27       		.uleb128 0x27
 8331 21ff 02000000 		.4byte	.LBB99
 8332 2203 10000000 		.4byte	.LBE99-.LBB99
 8333 2207 25       		.uleb128 0x25
 8334 2208 16070000 		.4byte	0x716
 8335 220c AA1D0000 		.4byte	.LLST181
ARM GAS  C:\Users\jsyoon\AppData\Local\Temp\ccDGobdh.s 			page 149


 8336 2210 00       		.byte	0
 8337 2211 00       		.byte	0
 8338 2212 00       		.byte	0
 8339 2213 1B       		.uleb128 0x1b
 8340 2214 6A0A0000 		.4byte	.LASF214
 8341 2218 01       		.byte	0x1
 8342 2219 010B     		.2byte	0xb01
 8343 221b 00000000 		.4byte	.LFB190
 8344 221f 22000000 		.4byte	.LFE190-.LFB190
 8345 2223 01       		.uleb128 0x1
 8346 2224 9C       		.byte	0x9c
 8347 2225 AA220000 		.4byte	0x22aa
 8348 2229 1C       		.uleb128 0x1c
 8349 222a 0A060000 		.4byte	.LASF80
 8350 222e 01       		.byte	0x1
 8351 222f 010B     		.2byte	0xb01
 8352 2231 E3040000 		.4byte	0x4e3
 8353 2235 01       		.uleb128 0x1
 8354 2236 50       		.byte	0x50
 8355 2237 1E       		.uleb128 0x1e
 8356 2238 18070000 		.4byte	.LASF97
 8357 223c 01       		.byte	0x1
 8358 223d 010B     		.2byte	0xb01
 8359 223f A2000000 		.4byte	0xa2
 8360 2243 D91D0000 		.4byte	.LLST182
 8361 2247 1C       		.uleb128 0x1c
 8362 2248 CE060000 		.4byte	.LASF98
 8363 224c 01       		.byte	0x1
 8364 224d 020B     		.2byte	0xb02
 8365 224f A2000000 		.4byte	0xa2
 8366 2253 01       		.uleb128 0x1
 8367 2254 52       		.byte	0x52
 8368 2255 1E       		.uleb128 0x1e
 8369 2256 1F0E0000 		.4byte	.LASF99
 8370 225a 01       		.byte	0x1
 8371 225b 020B     		.2byte	0xb02
 8372 225d A2000000 		.4byte	0xa2
 8373 2261 FA1D0000 		.4byte	.LLST183
 8374 2265 28       		.uleb128 0x28
 8375 2266 D9060000 		.4byte	0x6d9
 8376 226a 02000000 		.4byte	.LBB100
 8377 226e 10000000 		.4byte	.LBE100-.LBB100
 8378 2272 01       		.byte	0x1
 8379 2273 0B0B     		.2byte	0xb0b
 8380 2275 22       		.uleb128 0x22
 8381 2276 0A070000 		.4byte	0x70a
 8382 227a FA1D0000 		.4byte	.LLST183
 8383 227e 23       		.uleb128 0x23
 8384 227f FE060000 		.4byte	0x6fe
 8385 2283 01       		.uleb128 0x1
 8386 2284 52       		.byte	0x52
 8387 2285 22       		.uleb128 0x22
 8388 2286 F2060000 		.4byte	0x6f2
 8389 228a D91D0000 		.4byte	.LLST182
 8390 228e 23       		.uleb128 0x23
 8391 228f E6060000 		.4byte	0x6e6
 8392 2293 01       		.uleb128 0x1
ARM GAS  C:\Users\jsyoon\AppData\Local\Temp\ccDGobdh.s 			page 150


 8393 2294 50       		.byte	0x50
 8394 2295 27       		.uleb128 0x27
 8395 2296 02000000 		.4byte	.LBB101
 8396 229a 10000000 		.4byte	.LBE101-.LBB101
 8397 229e 25       		.uleb128 0x25
 8398 229f 16070000 		.4byte	0x716
 8399 22a3 1B1E0000 		.4byte	.LLST186
 8400 22a7 00       		.byte	0
 8401 22a8 00       		.byte	0
 8402 22a9 00       		.byte	0
 8403 22aa 2A       		.uleb128 0x2a
 8404 22ab A7060000 		.4byte	0x6a7
 8405 22af 00000000 		.4byte	.LFB191
 8406 22b3 10000000 		.4byte	.LFE191-.LFB191
 8407 22b7 01       		.uleb128 0x1
 8408 22b8 9C       		.byte	0x9c
 8409 22b9 D7220000 		.4byte	0x22d7
 8410 22bd 23       		.uleb128 0x23
 8411 22be B4060000 		.4byte	0x6b4
 8412 22c2 01       		.uleb128 0x1
 8413 22c3 50       		.byte	0x50
 8414 22c4 22       		.uleb128 0x22
 8415 22c5 C0060000 		.4byte	0x6c0
 8416 22c9 4A1E0000 		.4byte	.LLST187
 8417 22cd 25       		.uleb128 0x25
 8418 22ce CC060000 		.4byte	0x6cc
 8419 22d2 6B1E0000 		.4byte	.LLST188
 8420 22d6 00       		.byte	0
 8421 22d7 1B       		.uleb128 0x1b
 8422 22d8 49060000 		.4byte	.LASF215
 8423 22dc 01       		.byte	0x1
 8424 22dd 700B     		.2byte	0xb70
 8425 22df 00000000 		.4byte	.LFB192
 8426 22e3 16000000 		.4byte	.LFE192-.LFB192
 8427 22e7 01       		.uleb128 0x1
 8428 22e8 9C       		.byte	0x9c
 8429 22e9 0C230000 		.4byte	0x230c
 8430 22ed 1C       		.uleb128 0x1c
 8431 22ee 0A060000 		.4byte	.LASF80
 8432 22f2 01       		.byte	0x1
 8433 22f3 700B     		.2byte	0xb70
 8434 22f5 E3040000 		.4byte	0x4e3
 8435 22f9 01       		.uleb128 0x1
 8436 22fa 50       		.byte	0x50
 8437 22fb 1E       		.uleb128 0x1e
 8438 22fc 83000000 		.4byte	.LASF216
 8439 2300 01       		.byte	0x1
 8440 2301 700B     		.2byte	0xb70
 8441 2303 A2000000 		.4byte	0xa2
 8442 2307 A01E0000 		.4byte	.LLST189
 8443 230b 00       		.byte	0
 8444 230c 1B       		.uleb128 0x1b
 8445 230d 92050000 		.4byte	.LASF217
 8446 2311 01       		.byte	0x1
 8447 2312 880B     		.2byte	0xb88
 8448 2314 00000000 		.4byte	.LFB193
 8449 2318 16000000 		.4byte	.LFE193-.LFB193
ARM GAS  C:\Users\jsyoon\AppData\Local\Temp\ccDGobdh.s 			page 151


 8450 231c 01       		.uleb128 0x1
 8451 231d 9C       		.byte	0x9c
 8452 231e 41230000 		.4byte	0x2341
 8453 2322 1C       		.uleb128 0x1c
 8454 2323 0A060000 		.4byte	.LASF80
 8455 2327 01       		.byte	0x1
 8456 2328 880B     		.2byte	0xb88
 8457 232a E3040000 		.4byte	0x4e3
 8458 232e 01       		.uleb128 0x1
 8459 232f 50       		.byte	0x50
 8460 2330 1E       		.uleb128 0x1e
 8461 2331 980B0000 		.4byte	.LASF218
 8462 2335 01       		.byte	0x1
 8463 2336 880B     		.2byte	0xb88
 8464 2338 A2000000 		.4byte	0xa2
 8465 233c C11E0000 		.4byte	.LLST190
 8466 2340 00       		.byte	0
 8467 2341 1B       		.uleb128 0x1b
 8468 2342 A6050000 		.4byte	.LASF219
 8469 2346 01       		.byte	0x1
 8470 2347 9F0B     		.2byte	0xb9f
 8471 2349 00000000 		.4byte	.LFB194
 8472 234d 16000000 		.4byte	.LFE194-.LFB194
 8473 2351 01       		.uleb128 0x1
 8474 2352 9C       		.byte	0x9c
 8475 2353 76230000 		.4byte	0x2376
 8476 2357 1C       		.uleb128 0x1c
 8477 2358 0A060000 		.4byte	.LASF80
 8478 235c 01       		.byte	0x1
 8479 235d 9F0B     		.2byte	0xb9f
 8480 235f E3040000 		.4byte	0x4e3
 8481 2363 01       		.uleb128 0x1
 8482 2364 50       		.byte	0x50
 8483 2365 1E       		.uleb128 0x1e
 8484 2366 7E050000 		.4byte	.LASF220
 8485 236a 01       		.byte	0x1
 8486 236b 9F0B     		.2byte	0xb9f
 8487 236d A2000000 		.4byte	0xa2
 8488 2371 E21E0000 		.4byte	.LLST191
 8489 2375 00       		.byte	0
 8490 2376 2A       		.uleb128 0x2a
 8491 2377 D9060000 		.4byte	0x6d9
 8492 237b 00000000 		.4byte	.LFB195
 8493 237f 18000000 		.4byte	.LFE195-.LFB195
 8494 2383 01       		.uleb128 0x1
 8495 2384 9C       		.byte	0x9c
 8496 2385 B5230000 		.4byte	0x23b5
 8497 2389 23       		.uleb128 0x23
 8498 238a E6060000 		.4byte	0x6e6
 8499 238e 01       		.uleb128 0x1
 8500 238f 50       		.byte	0x50
 8501 2390 22       		.uleb128 0x22
 8502 2391 F2060000 		.4byte	0x6f2
 8503 2395 031F0000 		.4byte	.LLST192
 8504 2399 22       		.uleb128 0x22
 8505 239a FE060000 		.4byte	0x6fe
 8506 239e 241F0000 		.4byte	.LLST193
ARM GAS  C:\Users\jsyoon\AppData\Local\Temp\ccDGobdh.s 			page 152


 8507 23a2 22       		.uleb128 0x22
 8508 23a3 0A070000 		.4byte	0x70a
 8509 23a7 451F0000 		.4byte	.LLST194
 8510 23ab 25       		.uleb128 0x25
 8511 23ac 16070000 		.4byte	0x716
 8512 23b0 661F0000 		.4byte	.LLST195
 8513 23b4 00       		.byte	0
 8514 23b5 1B       		.uleb128 0x1b
 8515 23b6 31020000 		.4byte	.LASF221
 8516 23ba 01       		.byte	0x1
 8517 23bb F70B     		.2byte	0xbf7
 8518 23bd 00000000 		.4byte	.LFB196
 8519 23c1 3E000000 		.4byte	.LFE196-.LFB196
 8520 23c5 01       		.uleb128 0x1
 8521 23c6 9C       		.byte	0x9c
 8522 23c7 3A240000 		.4byte	0x243a
 8523 23cb 1C       		.uleb128 0x1c
 8524 23cc 0A060000 		.4byte	.LASF80
 8525 23d0 01       		.byte	0x1
 8526 23d1 F70B     		.2byte	0xbf7
 8527 23d3 E3040000 		.4byte	0x4e3
 8528 23d7 01       		.uleb128 0x1
 8529 23d8 50       		.byte	0x50
 8530 23d9 1E       		.uleb128 0x1e
 8531 23da 0F060000 		.4byte	.LASF222
 8532 23de 01       		.byte	0x1
 8533 23df F70B     		.2byte	0xbf7
 8534 23e1 A2000000 		.4byte	0xa2
 8535 23e5 951F0000 		.4byte	.LLST196
 8536 23e9 1E       		.uleb128 0x1e
 8537 23ea 6E020000 		.4byte	.LASF223
 8538 23ee 01       		.byte	0x1
 8539 23ef F80B     		.2byte	0xbf8
 8540 23f1 A2000000 		.4byte	0xa2
 8541 23f5 B61F0000 		.4byte	.LLST197
 8542 23f9 1E       		.uleb128 0x1e
 8543 23fa 08010000 		.4byte	.LASF224
 8544 23fe 01       		.byte	0x1
 8545 23ff F80B     		.2byte	0xbf8
 8546 2401 A2000000 		.4byte	0xa2
 8547 2405 D71F0000 		.4byte	.LLST198
 8548 2409 1D       		.uleb128 0x1d
 8549 240a C6060000 		.4byte	.LASF95
 8550 240e 01       		.byte	0x1
 8551 240f FA0B     		.2byte	0xbfa
 8552 2411 A2000000 		.4byte	0xa2
 8553 2415 F81F0000 		.4byte	.LLST199
 8554 2419 1D       		.uleb128 0x1d
 8555 241a 5A010000 		.4byte	.LASF81
 8556 241e 01       		.byte	0x1
 8557 241f FB0B     		.2byte	0xbfb
 8558 2421 A2000000 		.4byte	0xa2
 8559 2425 2D200000 		.4byte	.LLST200
 8560 2429 1D       		.uleb128 0x1d
 8561 242a DF040000 		.4byte	.LASF82
 8562 242e 01       		.byte	0x1
 8563 242f FC0B     		.2byte	0xbfc
ARM GAS  C:\Users\jsyoon\AppData\Local\Temp\ccDGobdh.s 			page 153


 8564 2431 A2000000 		.4byte	0xa2
 8565 2435 57200000 		.4byte	.LLST201
 8566 2439 00       		.byte	0
 8567 243a 1B       		.uleb128 0x1b
 8568 243b D60D0000 		.4byte	.LASF225
 8569 243f 01       		.byte	0x1
 8570 2440 2B0C     		.2byte	0xc2b
 8571 2442 00000000 		.4byte	.LFB197
 8572 2446 1A000000 		.4byte	.LFE197-.LFB197
 8573 244a 01       		.uleb128 0x1
 8574 244b 9C       		.byte	0x9c
 8575 244c 6D240000 		.4byte	0x246d
 8576 2450 1C       		.uleb128 0x1c
 8577 2451 0A060000 		.4byte	.LASF80
 8578 2455 01       		.byte	0x1
 8579 2456 2B0C     		.2byte	0xc2b
 8580 2458 E3040000 		.4byte	0x4e3
 8581 245c 01       		.uleb128 0x1
 8582 245d 50       		.byte	0x50
 8583 245e 1C       		.uleb128 0x1c
 8584 245f 0B000000 		.4byte	.LASF116
 8585 2463 01       		.byte	0x1
 8586 2464 2B0C     		.2byte	0xc2b
 8587 2466 1D010000 		.4byte	0x11d
 8588 246a 01       		.uleb128 0x1
 8589 246b 51       		.byte	0x51
 8590 246c 00       		.byte	0
 8591 246d 1B       		.uleb128 0x1b
 8592 246e 9B0D0000 		.4byte	.LASF226
 8593 2472 01       		.byte	0x1
 8594 2473 5E0C     		.2byte	0xc5e
 8595 2475 00000000 		.4byte	.LFB198
 8596 2479 06000000 		.4byte	.LFE198-.LFB198
 8597 247d 01       		.uleb128 0x1
 8598 247e 9C       		.byte	0x9c
 8599 247f A0240000 		.4byte	0x24a0
 8600 2483 1C       		.uleb128 0x1c
 8601 2484 0A060000 		.4byte	.LASF80
 8602 2488 01       		.byte	0x1
 8603 2489 5E0C     		.2byte	0xc5e
 8604 248b E3040000 		.4byte	0x4e3
 8605 248f 01       		.uleb128 0x1
 8606 2490 50       		.byte	0x50
 8607 2491 1C       		.uleb128 0x1c
 8608 2492 EC070000 		.4byte	.LASF227
 8609 2496 01       		.byte	0x1
 8610 2497 5E0C     		.2byte	0xc5e
 8611 2499 A2000000 		.4byte	0xa2
 8612 249d 01       		.uleb128 0x1
 8613 249e 51       		.byte	0x51
 8614 249f 00       		.byte	0
 8615 24a0 2C       		.uleb128 0x2c
 8616 24a1 E7010000 		.4byte	.LASF232
 8617 24a5 07       		.byte	0x7
 8618 24a6 9806     		.2byte	0x698
 8619 24a8 D4000000 		.4byte	0xd4
 8620 24ac 2D       		.uleb128 0x2d
ARM GAS  C:\Users\jsyoon\AppData\Local\Temp\ccDGobdh.s 			page 154


 8621 24ad 43010000 		.4byte	.LASF228
 8622 24b1 06       		.byte	0x6
 8623 24b2 E601     		.2byte	0x1e6
 8624 24b4 C3240000 		.4byte	0x24c3
 8625 24b8 2E       		.uleb128 0x2e
 8626 24b9 B8000000 		.4byte	0xb8
 8627 24bd 2E       		.uleb128 0x2e
 8628 24be 1D010000 		.4byte	0x11d
 8629 24c2 00       		.byte	0
 8630 24c3 2F       		.uleb128 0x2f
 8631 24c4 1D080000 		.4byte	.LASF233
 8632 24c8 06       		.byte	0x6
 8633 24c9 E701     		.2byte	0x1e7
 8634 24cb 2E       		.uleb128 0x2e
 8635 24cc B8000000 		.4byte	0xb8
 8636 24d0 2E       		.uleb128 0x2e
 8637 24d1 1D010000 		.4byte	0x11d
 8638 24d5 00       		.byte	0
 8639 24d6 00       		.byte	0
 8640              		.section	.debug_abbrev,"",%progbits
 8641              	.Ldebug_abbrev0:
 8642 0000 01       		.uleb128 0x1
 8643 0001 11       		.uleb128 0x11
 8644 0002 01       		.byte	0x1
 8645 0003 25       		.uleb128 0x25
 8646 0004 0E       		.uleb128 0xe
 8647 0005 13       		.uleb128 0x13
 8648 0006 0B       		.uleb128 0xb
 8649 0007 03       		.uleb128 0x3
 8650 0008 0E       		.uleb128 0xe
 8651 0009 1B       		.uleb128 0x1b
 8652 000a 0E       		.uleb128 0xe
 8653 000b 55       		.uleb128 0x55
 8654 000c 17       		.uleb128 0x17
 8655 000d 11       		.uleb128 0x11
 8656 000e 01       		.uleb128 0x1
 8657 000f 10       		.uleb128 0x10
 8658 0010 17       		.uleb128 0x17
 8659 0011 00       		.byte	0
 8660 0012 00       		.byte	0
 8661 0013 02       		.uleb128 0x2
 8662 0014 24       		.uleb128 0x24
 8663 0015 00       		.byte	0
 8664 0016 0B       		.uleb128 0xb
 8665 0017 0B       		.uleb128 0xb
 8666 0018 3E       		.uleb128 0x3e
 8667 0019 0B       		.uleb128 0xb
 8668 001a 03       		.uleb128 0x3
 8669 001b 0E       		.uleb128 0xe
 8670 001c 00       		.byte	0
 8671 001d 00       		.byte	0
 8672 001e 03       		.uleb128 0x3
 8673 001f 16       		.uleb128 0x16
 8674 0020 00       		.byte	0
 8675 0021 03       		.uleb128 0x3
 8676 0022 0E       		.uleb128 0xe
 8677 0023 3A       		.uleb128 0x3a
ARM GAS  C:\Users\jsyoon\AppData\Local\Temp\ccDGobdh.s 			page 155


 8678 0024 0B       		.uleb128 0xb
 8679 0025 3B       		.uleb128 0x3b
 8680 0026 0B       		.uleb128 0xb
 8681 0027 49       		.uleb128 0x49
 8682 0028 13       		.uleb128 0x13
 8683 0029 00       		.byte	0
 8684 002a 00       		.byte	0
 8685 002b 04       		.uleb128 0x4
 8686 002c 24       		.uleb128 0x24
 8687 002d 00       		.byte	0
 8688 002e 0B       		.uleb128 0xb
 8689 002f 0B       		.uleb128 0xb
 8690 0030 3E       		.uleb128 0x3e
 8691 0031 0B       		.uleb128 0xb
 8692 0032 03       		.uleb128 0x3
 8693 0033 08       		.uleb128 0x8
 8694 0034 00       		.byte	0
 8695 0035 00       		.byte	0
 8696 0036 05       		.uleb128 0x5
 8697 0037 35       		.uleb128 0x35
 8698 0038 00       		.byte	0
 8699 0039 49       		.uleb128 0x49
 8700 003a 13       		.uleb128 0x13
 8701 003b 00       		.byte	0
 8702 003c 00       		.byte	0
 8703 003d 06       		.uleb128 0x6
 8704 003e 04       		.uleb128 0x4
 8705 003f 01       		.byte	0x1
 8706 0040 0B       		.uleb128 0xb
 8707 0041 0B       		.uleb128 0xb
 8708 0042 3A       		.uleb128 0x3a
 8709 0043 0B       		.uleb128 0xb
 8710 0044 3B       		.uleb128 0x3b
 8711 0045 05       		.uleb128 0x5
 8712 0046 01       		.uleb128 0x1
 8713 0047 13       		.uleb128 0x13
 8714 0048 00       		.byte	0
 8715 0049 00       		.byte	0
 8716 004a 07       		.uleb128 0x7
 8717 004b 28       		.uleb128 0x28
 8718 004c 00       		.byte	0
 8719 004d 03       		.uleb128 0x3
 8720 004e 0E       		.uleb128 0xe
 8721 004f 1C       		.uleb128 0x1c
 8722 0050 0D       		.uleb128 0xd
 8723 0051 00       		.byte	0
 8724 0052 00       		.byte	0
 8725 0053 08       		.uleb128 0x8
 8726 0054 28       		.uleb128 0x28
 8727 0055 00       		.byte	0
 8728 0056 03       		.uleb128 0x3
 8729 0057 08       		.uleb128 0x8
 8730 0058 1C       		.uleb128 0x1c
 8731 0059 0D       		.uleb128 0xd
 8732 005a 00       		.byte	0
 8733 005b 00       		.byte	0
 8734 005c 09       		.uleb128 0x9
ARM GAS  C:\Users\jsyoon\AppData\Local\Temp\ccDGobdh.s 			page 156


 8735 005d 16       		.uleb128 0x16
 8736 005e 00       		.byte	0
 8737 005f 03       		.uleb128 0x3
 8738 0060 0E       		.uleb128 0xe
 8739 0061 3A       		.uleb128 0x3a
 8740 0062 0B       		.uleb128 0xb
 8741 0063 3B       		.uleb128 0x3b
 8742 0064 05       		.uleb128 0x5
 8743 0065 49       		.uleb128 0x49
 8744 0066 13       		.uleb128 0x13
 8745 0067 00       		.byte	0
 8746 0068 00       		.byte	0
 8747 0069 0A       		.uleb128 0xa
 8748 006a 13       		.uleb128 0x13
 8749 006b 01       		.byte	0x1
 8750 006c 0B       		.uleb128 0xb
 8751 006d 0B       		.uleb128 0xb
 8752 006e 3A       		.uleb128 0x3a
 8753 006f 0B       		.uleb128 0xb
 8754 0070 3B       		.uleb128 0x3b
 8755 0071 05       		.uleb128 0x5
 8756 0072 01       		.uleb128 0x1
 8757 0073 13       		.uleb128 0x13
 8758 0074 00       		.byte	0
 8759 0075 00       		.byte	0
 8760 0076 0B       		.uleb128 0xb
 8761 0077 0D       		.uleb128 0xd
 8762 0078 00       		.byte	0
 8763 0079 03       		.uleb128 0x3
 8764 007a 08       		.uleb128 0x8
 8765 007b 3A       		.uleb128 0x3a
 8766 007c 0B       		.uleb128 0xb
 8767 007d 3B       		.uleb128 0x3b
 8768 007e 05       		.uleb128 0x5
 8769 007f 49       		.uleb128 0x49
 8770 0080 13       		.uleb128 0x13
 8771 0081 38       		.uleb128 0x38
 8772 0082 0B       		.uleb128 0xb
 8773 0083 00       		.byte	0
 8774 0084 00       		.byte	0
 8775 0085 0C       		.uleb128 0xc
 8776 0086 0D       		.uleb128 0xd
 8777 0087 00       		.byte	0
 8778 0088 03       		.uleb128 0x3
 8779 0089 0E       		.uleb128 0xe
 8780 008a 3A       		.uleb128 0x3a
 8781 008b 0B       		.uleb128 0xb
 8782 008c 3B       		.uleb128 0x3b
 8783 008d 05       		.uleb128 0x5
 8784 008e 49       		.uleb128 0x49
 8785 008f 13       		.uleb128 0x13
 8786 0090 38       		.uleb128 0x38
 8787 0091 0B       		.uleb128 0xb
 8788 0092 00       		.byte	0
 8789 0093 00       		.byte	0
 8790 0094 0D       		.uleb128 0xd
 8791 0095 13       		.uleb128 0x13
ARM GAS  C:\Users\jsyoon\AppData\Local\Temp\ccDGobdh.s 			page 157


 8792 0096 01       		.byte	0x1
 8793 0097 0B       		.uleb128 0xb
 8794 0098 0B       		.uleb128 0xb
 8795 0099 3A       		.uleb128 0x3a
 8796 009a 0B       		.uleb128 0xb
 8797 009b 3B       		.uleb128 0x3b
 8798 009c 0B       		.uleb128 0xb
 8799 009d 01       		.uleb128 0x1
 8800 009e 13       		.uleb128 0x13
 8801 009f 00       		.byte	0
 8802 00a0 00       		.byte	0
 8803 00a1 0E       		.uleb128 0xe
 8804 00a2 0D       		.uleb128 0xd
 8805 00a3 00       		.byte	0
 8806 00a4 03       		.uleb128 0x3
 8807 00a5 0E       		.uleb128 0xe
 8808 00a6 3A       		.uleb128 0x3a
 8809 00a7 0B       		.uleb128 0xb
 8810 00a8 3B       		.uleb128 0x3b
 8811 00a9 0B       		.uleb128 0xb
 8812 00aa 49       		.uleb128 0x49
 8813 00ab 13       		.uleb128 0x13
 8814 00ac 38       		.uleb128 0x38
 8815 00ad 0B       		.uleb128 0xb
 8816 00ae 00       		.byte	0
 8817 00af 00       		.byte	0
 8818 00b0 0F       		.uleb128 0xf
 8819 00b1 2E       		.uleb128 0x2e
 8820 00b2 01       		.byte	0x1
 8821 00b3 03       		.uleb128 0x3
 8822 00b4 0E       		.uleb128 0xe
 8823 00b5 3A       		.uleb128 0x3a
 8824 00b6 0B       		.uleb128 0xb
 8825 00b7 3B       		.uleb128 0x3b
 8826 00b8 05       		.uleb128 0x5
 8827 00b9 27       		.uleb128 0x27
 8828 00ba 19       		.uleb128 0x19
 8829 00bb 20       		.uleb128 0x20
 8830 00bc 0B       		.uleb128 0xb
 8831 00bd 01       		.uleb128 0x1
 8832 00be 13       		.uleb128 0x13
 8833 00bf 00       		.byte	0
 8834 00c0 00       		.byte	0
 8835 00c1 10       		.uleb128 0x10
 8836 00c2 05       		.uleb128 0x5
 8837 00c3 00       		.byte	0
 8838 00c4 03       		.uleb128 0x3
 8839 00c5 0E       		.uleb128 0xe
 8840 00c6 3A       		.uleb128 0x3a
 8841 00c7 0B       		.uleb128 0xb
 8842 00c8 3B       		.uleb128 0x3b
 8843 00c9 05       		.uleb128 0x5
 8844 00ca 49       		.uleb128 0x49
 8845 00cb 13       		.uleb128 0x13
 8846 00cc 00       		.byte	0
 8847 00cd 00       		.byte	0
 8848 00ce 11       		.uleb128 0x11
ARM GAS  C:\Users\jsyoon\AppData\Local\Temp\ccDGobdh.s 			page 158


 8849 00cf 34       		.uleb128 0x34
 8850 00d0 00       		.byte	0
 8851 00d1 03       		.uleb128 0x3
 8852 00d2 0E       		.uleb128 0xe
 8853 00d3 3A       		.uleb128 0x3a
 8854 00d4 0B       		.uleb128 0xb
 8855 00d5 3B       		.uleb128 0x3b
 8856 00d6 05       		.uleb128 0x5
 8857 00d7 49       		.uleb128 0x49
 8858 00d8 13       		.uleb128 0x13
 8859 00d9 00       		.byte	0
 8860 00da 00       		.byte	0
 8861 00db 12       		.uleb128 0x12
 8862 00dc 0F       		.uleb128 0xf
 8863 00dd 00       		.byte	0
 8864 00de 0B       		.uleb128 0xb
 8865 00df 0B       		.uleb128 0xb
 8866 00e0 49       		.uleb128 0x49
 8867 00e1 13       		.uleb128 0x13
 8868 00e2 00       		.byte	0
 8869 00e3 00       		.byte	0
 8870 00e4 13       		.uleb128 0x13
 8871 00e5 2E       		.uleb128 0x2e
 8872 00e6 01       		.byte	0x1
 8873 00e7 3F       		.uleb128 0x3f
 8874 00e8 19       		.uleb128 0x19
 8875 00e9 03       		.uleb128 0x3
 8876 00ea 0E       		.uleb128 0xe
 8877 00eb 3A       		.uleb128 0x3a
 8878 00ec 0B       		.uleb128 0xb
 8879 00ed 3B       		.uleb128 0x3b
 8880 00ee 05       		.uleb128 0x5
 8881 00ef 27       		.uleb128 0x27
 8882 00f0 19       		.uleb128 0x19
 8883 00f1 20       		.uleb128 0x20
 8884 00f2 0B       		.uleb128 0xb
 8885 00f3 01       		.uleb128 0x1
 8886 00f4 13       		.uleb128 0x13
 8887 00f5 00       		.byte	0
 8888 00f6 00       		.byte	0
 8889 00f7 14       		.uleb128 0x14
 8890 00f8 34       		.uleb128 0x34
 8891 00f9 00       		.byte	0
 8892 00fa 03       		.uleb128 0x3
 8893 00fb 08       		.uleb128 0x8
 8894 00fc 3A       		.uleb128 0x3a
 8895 00fd 0B       		.uleb128 0xb
 8896 00fe 3B       		.uleb128 0x3b
 8897 00ff 05       		.uleb128 0x5
 8898 0100 49       		.uleb128 0x49
 8899 0101 13       		.uleb128 0x13
 8900 0102 00       		.byte	0
 8901 0103 00       		.byte	0
 8902 0104 15       		.uleb128 0x15
 8903 0105 2E       		.uleb128 0x2e
 8904 0106 01       		.byte	0x1
 8905 0107 3F       		.uleb128 0x3f
ARM GAS  C:\Users\jsyoon\AppData\Local\Temp\ccDGobdh.s 			page 159


 8906 0108 19       		.uleb128 0x19
 8907 0109 03       		.uleb128 0x3
 8908 010a 0E       		.uleb128 0xe
 8909 010b 3A       		.uleb128 0x3a
 8910 010c 0B       		.uleb128 0xb
 8911 010d 3B       		.uleb128 0x3b
 8912 010e 0B       		.uleb128 0xb
 8913 010f 27       		.uleb128 0x27
 8914 0110 19       		.uleb128 0x19
 8915 0111 11       		.uleb128 0x11
 8916 0112 01       		.uleb128 0x1
 8917 0113 12       		.uleb128 0x12
 8918 0114 06       		.uleb128 0x6
 8919 0115 40       		.uleb128 0x40
 8920 0116 18       		.uleb128 0x18
 8921 0117 9742     		.uleb128 0x2117
 8922 0119 19       		.uleb128 0x19
 8923 011a 01       		.uleb128 0x1
 8924 011b 13       		.uleb128 0x13
 8925 011c 00       		.byte	0
 8926 011d 00       		.byte	0
 8927 011e 16       		.uleb128 0x16
 8928 011f 05       		.uleb128 0x5
 8929 0120 00       		.byte	0
 8930 0121 03       		.uleb128 0x3
 8931 0122 0E       		.uleb128 0xe
 8932 0123 3A       		.uleb128 0x3a
 8933 0124 0B       		.uleb128 0xb
 8934 0125 3B       		.uleb128 0x3b
 8935 0126 0B       		.uleb128 0xb
 8936 0127 49       		.uleb128 0x49
 8937 0128 13       		.uleb128 0x13
 8938 0129 02       		.uleb128 0x2
 8939 012a 17       		.uleb128 0x17
 8940 012b 00       		.byte	0
 8941 012c 00       		.byte	0
 8942 012d 17       		.uleb128 0x17
 8943 012e 898201   		.uleb128 0x4109
 8944 0131 01       		.byte	0x1
 8945 0132 11       		.uleb128 0x11
 8946 0133 01       		.uleb128 0x1
 8947 0134 31       		.uleb128 0x31
 8948 0135 13       		.uleb128 0x13
 8949 0136 01       		.uleb128 0x1
 8950 0137 13       		.uleb128 0x13
 8951 0138 00       		.byte	0
 8952 0139 00       		.byte	0
 8953 013a 18       		.uleb128 0x18
 8954 013b 8A8201   		.uleb128 0x410a
 8955 013e 00       		.byte	0
 8956 013f 02       		.uleb128 0x2
 8957 0140 18       		.uleb128 0x18
 8958 0141 9142     		.uleb128 0x2111
 8959 0143 18       		.uleb128 0x18
 8960 0144 00       		.byte	0
 8961 0145 00       		.byte	0
 8962 0146 19       		.uleb128 0x19
ARM GAS  C:\Users\jsyoon\AppData\Local\Temp\ccDGobdh.s 			page 160


 8963 0147 898201   		.uleb128 0x4109
 8964 014a 01       		.byte	0x1
 8965 014b 11       		.uleb128 0x11
 8966 014c 01       		.uleb128 0x1
 8967 014d 9542     		.uleb128 0x2115
 8968 014f 19       		.uleb128 0x19
 8969 0150 31       		.uleb128 0x31
 8970 0151 13       		.uleb128 0x13
 8971 0152 01       		.uleb128 0x1
 8972 0153 13       		.uleb128 0x13
 8973 0154 00       		.byte	0
 8974 0155 00       		.byte	0
 8975 0156 1A       		.uleb128 0x1a
 8976 0157 898201   		.uleb128 0x4109
 8977 015a 01       		.byte	0x1
 8978 015b 11       		.uleb128 0x11
 8979 015c 01       		.uleb128 0x1
 8980 015d 9542     		.uleb128 0x2115
 8981 015f 19       		.uleb128 0x19
 8982 0160 31       		.uleb128 0x31
 8983 0161 13       		.uleb128 0x13
 8984 0162 00       		.byte	0
 8985 0163 00       		.byte	0
 8986 0164 1B       		.uleb128 0x1b
 8987 0165 2E       		.uleb128 0x2e
 8988 0166 01       		.byte	0x1
 8989 0167 3F       		.uleb128 0x3f
 8990 0168 19       		.uleb128 0x19
 8991 0169 03       		.uleb128 0x3
 8992 016a 0E       		.uleb128 0xe
 8993 016b 3A       		.uleb128 0x3a
 8994 016c 0B       		.uleb128 0xb
 8995 016d 3B       		.uleb128 0x3b
 8996 016e 05       		.uleb128 0x5
 8997 016f 27       		.uleb128 0x27
 8998 0170 19       		.uleb128 0x19
 8999 0171 11       		.uleb128 0x11
 9000 0172 01       		.uleb128 0x1
 9001 0173 12       		.uleb128 0x12
 9002 0174 06       		.uleb128 0x6
 9003 0175 40       		.uleb128 0x40
 9004 0176 18       		.uleb128 0x18
 9005 0177 9742     		.uleb128 0x2117
 9006 0179 19       		.uleb128 0x19
 9007 017a 01       		.uleb128 0x1
 9008 017b 13       		.uleb128 0x13
 9009 017c 00       		.byte	0
 9010 017d 00       		.byte	0
 9011 017e 1C       		.uleb128 0x1c
 9012 017f 05       		.uleb128 0x5
 9013 0180 00       		.byte	0
 9014 0181 03       		.uleb128 0x3
 9015 0182 0E       		.uleb128 0xe
 9016 0183 3A       		.uleb128 0x3a
 9017 0184 0B       		.uleb128 0xb
 9018 0185 3B       		.uleb128 0x3b
 9019 0186 05       		.uleb128 0x5
ARM GAS  C:\Users\jsyoon\AppData\Local\Temp\ccDGobdh.s 			page 161


 9020 0187 49       		.uleb128 0x49
 9021 0188 13       		.uleb128 0x13
 9022 0189 02       		.uleb128 0x2
 9023 018a 18       		.uleb128 0x18
 9024 018b 00       		.byte	0
 9025 018c 00       		.byte	0
 9026 018d 1D       		.uleb128 0x1d
 9027 018e 34       		.uleb128 0x34
 9028 018f 00       		.byte	0
 9029 0190 03       		.uleb128 0x3
 9030 0191 0E       		.uleb128 0xe
 9031 0192 3A       		.uleb128 0x3a
 9032 0193 0B       		.uleb128 0xb
 9033 0194 3B       		.uleb128 0x3b
 9034 0195 05       		.uleb128 0x5
 9035 0196 49       		.uleb128 0x49
 9036 0197 13       		.uleb128 0x13
 9037 0198 02       		.uleb128 0x2
 9038 0199 17       		.uleb128 0x17
 9039 019a 00       		.byte	0
 9040 019b 00       		.byte	0
 9041 019c 1E       		.uleb128 0x1e
 9042 019d 05       		.uleb128 0x5
 9043 019e 00       		.byte	0
 9044 019f 03       		.uleb128 0x3
 9045 01a0 0E       		.uleb128 0xe
 9046 01a1 3A       		.uleb128 0x3a
 9047 01a2 0B       		.uleb128 0xb
 9048 01a3 3B       		.uleb128 0x3b
 9049 01a4 05       		.uleb128 0x5
 9050 01a5 49       		.uleb128 0x49
 9051 01a6 13       		.uleb128 0x13
 9052 01a7 02       		.uleb128 0x2
 9053 01a8 17       		.uleb128 0x17
 9054 01a9 00       		.byte	0
 9055 01aa 00       		.byte	0
 9056 01ab 1F       		.uleb128 0x1f
 9057 01ac 2E       		.uleb128 0x2e
 9058 01ad 01       		.byte	0x1
 9059 01ae 3F       		.uleb128 0x3f
 9060 01af 19       		.uleb128 0x19
 9061 01b0 03       		.uleb128 0x3
 9062 01b1 0E       		.uleb128 0xe
 9063 01b2 3A       		.uleb128 0x3a
 9064 01b3 0B       		.uleb128 0xb
 9065 01b4 3B       		.uleb128 0x3b
 9066 01b5 05       		.uleb128 0x5
 9067 01b6 27       		.uleb128 0x27
 9068 01b7 19       		.uleb128 0x19
 9069 01b8 49       		.uleb128 0x49
 9070 01b9 13       		.uleb128 0x13
 9071 01ba 11       		.uleb128 0x11
 9072 01bb 01       		.uleb128 0x1
 9073 01bc 12       		.uleb128 0x12
 9074 01bd 06       		.uleb128 0x6
 9075 01be 40       		.uleb128 0x40
 9076 01bf 18       		.uleb128 0x18
ARM GAS  C:\Users\jsyoon\AppData\Local\Temp\ccDGobdh.s 			page 162


 9077 01c0 9742     		.uleb128 0x2117
 9078 01c2 19       		.uleb128 0x19
 9079 01c3 01       		.uleb128 0x1
 9080 01c4 13       		.uleb128 0x13
 9081 01c5 00       		.byte	0
 9082 01c6 00       		.byte	0
 9083 01c7 20       		.uleb128 0x20
 9084 01c8 34       		.uleb128 0x34
 9085 01c9 00       		.byte	0
 9086 01ca 03       		.uleb128 0x3
 9087 01cb 08       		.uleb128 0x8
 9088 01cc 3A       		.uleb128 0x3a
 9089 01cd 0B       		.uleb128 0xb
 9090 01ce 3B       		.uleb128 0x3b
 9091 01cf 05       		.uleb128 0x5
 9092 01d0 49       		.uleb128 0x49
 9093 01d1 13       		.uleb128 0x13
 9094 01d2 02       		.uleb128 0x2
 9095 01d3 17       		.uleb128 0x17
 9096 01d4 00       		.byte	0
 9097 01d5 00       		.byte	0
 9098 01d6 21       		.uleb128 0x21
 9099 01d7 1D       		.uleb128 0x1d
 9100 01d8 01       		.byte	0x1
 9101 01d9 31       		.uleb128 0x31
 9102 01da 13       		.uleb128 0x13
 9103 01db 52       		.uleb128 0x52
 9104 01dc 01       		.uleb128 0x1
 9105 01dd 55       		.uleb128 0x55
 9106 01de 17       		.uleb128 0x17
 9107 01df 58       		.uleb128 0x58
 9108 01e0 0B       		.uleb128 0xb
 9109 01e1 59       		.uleb128 0x59
 9110 01e2 05       		.uleb128 0x5
 9111 01e3 01       		.uleb128 0x1
 9112 01e4 13       		.uleb128 0x13
 9113 01e5 00       		.byte	0
 9114 01e6 00       		.byte	0
 9115 01e7 22       		.uleb128 0x22
 9116 01e8 05       		.uleb128 0x5
 9117 01e9 00       		.byte	0
 9118 01ea 31       		.uleb128 0x31
 9119 01eb 13       		.uleb128 0x13
 9120 01ec 02       		.uleb128 0x2
 9121 01ed 17       		.uleb128 0x17
 9122 01ee 00       		.byte	0
 9123 01ef 00       		.byte	0
 9124 01f0 23       		.uleb128 0x23
 9125 01f1 05       		.uleb128 0x5
 9126 01f2 00       		.byte	0
 9127 01f3 31       		.uleb128 0x31
 9128 01f4 13       		.uleb128 0x13
 9129 01f5 02       		.uleb128 0x2
 9130 01f6 18       		.uleb128 0x18
 9131 01f7 00       		.byte	0
 9132 01f8 00       		.byte	0
 9133 01f9 24       		.uleb128 0x24
ARM GAS  C:\Users\jsyoon\AppData\Local\Temp\ccDGobdh.s 			page 163


 9134 01fa 0B       		.uleb128 0xb
 9135 01fb 01       		.byte	0x1
 9136 01fc 55       		.uleb128 0x55
 9137 01fd 17       		.uleb128 0x17
 9138 01fe 00       		.byte	0
 9139 01ff 00       		.byte	0
 9140 0200 25       		.uleb128 0x25
 9141 0201 34       		.uleb128 0x34
 9142 0202 00       		.byte	0
 9143 0203 31       		.uleb128 0x31
 9144 0204 13       		.uleb128 0x13
 9145 0205 02       		.uleb128 0x2
 9146 0206 17       		.uleb128 0x17
 9147 0207 00       		.byte	0
 9148 0208 00       		.byte	0
 9149 0209 26       		.uleb128 0x26
 9150 020a 1D       		.uleb128 0x1d
 9151 020b 01       		.byte	0x1
 9152 020c 31       		.uleb128 0x31
 9153 020d 13       		.uleb128 0x13
 9154 020e 11       		.uleb128 0x11
 9155 020f 01       		.uleb128 0x1
 9156 0210 12       		.uleb128 0x12
 9157 0211 06       		.uleb128 0x6
 9158 0212 58       		.uleb128 0x58
 9159 0213 0B       		.uleb128 0xb
 9160 0214 59       		.uleb128 0x59
 9161 0215 05       		.uleb128 0x5
 9162 0216 01       		.uleb128 0x1
 9163 0217 13       		.uleb128 0x13
 9164 0218 00       		.byte	0
 9165 0219 00       		.byte	0
 9166 021a 27       		.uleb128 0x27
 9167 021b 0B       		.uleb128 0xb
 9168 021c 01       		.byte	0x1
 9169 021d 11       		.uleb128 0x11
 9170 021e 01       		.uleb128 0x1
 9171 021f 12       		.uleb128 0x12
 9172 0220 06       		.uleb128 0x6
 9173 0221 00       		.byte	0
 9174 0222 00       		.byte	0
 9175 0223 28       		.uleb128 0x28
 9176 0224 1D       		.uleb128 0x1d
 9177 0225 01       		.byte	0x1
 9178 0226 31       		.uleb128 0x31
 9179 0227 13       		.uleb128 0x13
 9180 0228 11       		.uleb128 0x11
 9181 0229 01       		.uleb128 0x1
 9182 022a 12       		.uleb128 0x12
 9183 022b 06       		.uleb128 0x6
 9184 022c 58       		.uleb128 0x58
 9185 022d 0B       		.uleb128 0xb
 9186 022e 59       		.uleb128 0x59
 9187 022f 05       		.uleb128 0x5
 9188 0230 00       		.byte	0
 9189 0231 00       		.byte	0
 9190 0232 29       		.uleb128 0x29
ARM GAS  C:\Users\jsyoon\AppData\Local\Temp\ccDGobdh.s 			page 164


 9191 0233 05       		.uleb128 0x5
 9192 0234 00       		.byte	0
 9193 0235 31       		.uleb128 0x31
 9194 0236 13       		.uleb128 0x13
 9195 0237 00       		.byte	0
 9196 0238 00       		.byte	0
 9197 0239 2A       		.uleb128 0x2a
 9198 023a 2E       		.uleb128 0x2e
 9199 023b 01       		.byte	0x1
 9200 023c 31       		.uleb128 0x31
 9201 023d 13       		.uleb128 0x13
 9202 023e 11       		.uleb128 0x11
 9203 023f 01       		.uleb128 0x1
 9204 0240 12       		.uleb128 0x12
 9205 0241 06       		.uleb128 0x6
 9206 0242 40       		.uleb128 0x40
 9207 0243 18       		.uleb128 0x18
 9208 0244 9742     		.uleb128 0x2117
 9209 0246 19       		.uleb128 0x19
 9210 0247 01       		.uleb128 0x1
 9211 0248 13       		.uleb128 0x13
 9212 0249 00       		.byte	0
 9213 024a 00       		.byte	0
 9214 024b 2B       		.uleb128 0x2b
 9215 024c 05       		.uleb128 0x5
 9216 024d 00       		.byte	0
 9217 024e 31       		.uleb128 0x31
 9218 024f 13       		.uleb128 0x13
 9219 0250 1C       		.uleb128 0x1c
 9220 0251 0B       		.uleb128 0xb
 9221 0252 00       		.byte	0
 9222 0253 00       		.byte	0
 9223 0254 2C       		.uleb128 0x2c
 9224 0255 34       		.uleb128 0x34
 9225 0256 00       		.byte	0
 9226 0257 03       		.uleb128 0x3
 9227 0258 0E       		.uleb128 0xe
 9228 0259 3A       		.uleb128 0x3a
 9229 025a 0B       		.uleb128 0xb
 9230 025b 3B       		.uleb128 0x3b
 9231 025c 05       		.uleb128 0x5
 9232 025d 49       		.uleb128 0x49
 9233 025e 13       		.uleb128 0x13
 9234 025f 3F       		.uleb128 0x3f
 9235 0260 19       		.uleb128 0x19
 9236 0261 3C       		.uleb128 0x3c
 9237 0262 19       		.uleb128 0x19
 9238 0263 00       		.byte	0
 9239 0264 00       		.byte	0
 9240 0265 2D       		.uleb128 0x2d
 9241 0266 2E       		.uleb128 0x2e
 9242 0267 01       		.byte	0x1
 9243 0268 3F       		.uleb128 0x3f
 9244 0269 19       		.uleb128 0x19
 9245 026a 03       		.uleb128 0x3
 9246 026b 0E       		.uleb128 0xe
 9247 026c 3A       		.uleb128 0x3a
ARM GAS  C:\Users\jsyoon\AppData\Local\Temp\ccDGobdh.s 			page 165


 9248 026d 0B       		.uleb128 0xb
 9249 026e 3B       		.uleb128 0x3b
 9250 026f 05       		.uleb128 0x5
 9251 0270 27       		.uleb128 0x27
 9252 0271 19       		.uleb128 0x19
 9253 0272 3C       		.uleb128 0x3c
 9254 0273 19       		.uleb128 0x19
 9255 0274 01       		.uleb128 0x1
 9256 0275 13       		.uleb128 0x13
 9257 0276 00       		.byte	0
 9258 0277 00       		.byte	0
 9259 0278 2E       		.uleb128 0x2e
 9260 0279 05       		.uleb128 0x5
 9261 027a 00       		.byte	0
 9262 027b 49       		.uleb128 0x49
 9263 027c 13       		.uleb128 0x13
 9264 027d 00       		.byte	0
 9265 027e 00       		.byte	0
 9266 027f 2F       		.uleb128 0x2f
 9267 0280 2E       		.uleb128 0x2e
 9268 0281 01       		.byte	0x1
 9269 0282 3F       		.uleb128 0x3f
 9270 0283 19       		.uleb128 0x19
 9271 0284 03       		.uleb128 0x3
 9272 0285 0E       		.uleb128 0xe
 9273 0286 3A       		.uleb128 0x3a
 9274 0287 0B       		.uleb128 0xb
 9275 0288 3B       		.uleb128 0x3b
 9276 0289 05       		.uleb128 0x5
 9277 028a 27       		.uleb128 0x27
 9278 028b 19       		.uleb128 0x19
 9279 028c 3C       		.uleb128 0x3c
 9280 028d 19       		.uleb128 0x19
 9281 028e 00       		.byte	0
 9282 028f 00       		.byte	0
 9283 0290 00       		.byte	0
 9284              		.section	.debug_loc,"",%progbits
 9285              	.Ldebug_loc0:
 9286              	.LLST0:
 9287 0000 00000000 		.4byte	.LVL0
 9288 0004 60000000 		.4byte	.LVL1
 9289 0008 0100     		.2byte	0x1
 9290 000a 50       		.byte	0x50
 9291 000b 60000000 		.4byte	.LVL1
 9292 000f 74000000 		.4byte	.LVL3
 9293 0013 0400     		.2byte	0x4
 9294 0015 F3       		.byte	0xf3
 9295 0016 01       		.uleb128 0x1
 9296 0017 50       		.byte	0x50
 9297 0018 9F       		.byte	0x9f
 9298 0019 74000000 		.4byte	.LVL3
 9299 001d 76000000 		.4byte	.LVL4
 9300 0021 0100     		.2byte	0x1
 9301 0023 50       		.byte	0x50
 9302 0024 76000000 		.4byte	.LVL4
 9303 0028 88000000 		.4byte	.LVL6
 9304 002c 0400     		.2byte	0x4
ARM GAS  C:\Users\jsyoon\AppData\Local\Temp\ccDGobdh.s 			page 166


 9305 002e F3       		.byte	0xf3
 9306 002f 01       		.uleb128 0x1
 9307 0030 50       		.byte	0x50
 9308 0031 9F       		.byte	0x9f
 9309 0032 88000000 		.4byte	.LVL6
 9310 0036 8A000000 		.4byte	.LVL7
 9311 003a 0100     		.2byte	0x1
 9312 003c 50       		.byte	0x50
 9313 003d 8A000000 		.4byte	.LVL7
 9314 0041 9C000000 		.4byte	.LVL9
 9315 0045 0400     		.2byte	0x4
 9316 0047 F3       		.byte	0xf3
 9317 0048 01       		.uleb128 0x1
 9318 0049 50       		.byte	0x50
 9319 004a 9F       		.byte	0x9f
 9320 004b 9C000000 		.4byte	.LVL9
 9321 004f 9E000000 		.4byte	.LVL10
 9322 0053 0100     		.2byte	0x1
 9323 0055 50       		.byte	0x50
 9324 0056 9E000000 		.4byte	.LVL10
 9325 005a B0000000 		.4byte	.LVL12
 9326 005e 0400     		.2byte	0x4
 9327 0060 F3       		.byte	0xf3
 9328 0061 01       		.uleb128 0x1
 9329 0062 50       		.byte	0x50
 9330 0063 9F       		.byte	0x9f
 9331 0064 B0000000 		.4byte	.LVL12
 9332 0068 B2000000 		.4byte	.LVL13
 9333 006c 0100     		.2byte	0x1
 9334 006e 50       		.byte	0x50
 9335 006f B2000000 		.4byte	.LVL13
 9336 0073 C4000000 		.4byte	.LVL15
 9337 0077 0400     		.2byte	0x4
 9338 0079 F3       		.byte	0xf3
 9339 007a 01       		.uleb128 0x1
 9340 007b 50       		.byte	0x50
 9341 007c 9F       		.byte	0x9f
 9342 007d C4000000 		.4byte	.LVL15
 9343 0081 C6000000 		.4byte	.LVL16
 9344 0085 0100     		.2byte	0x1
 9345 0087 50       		.byte	0x50
 9346 0088 C6000000 		.4byte	.LVL16
 9347 008c D8000000 		.4byte	.LVL18
 9348 0090 0400     		.2byte	0x4
 9349 0092 F3       		.byte	0xf3
 9350 0093 01       		.uleb128 0x1
 9351 0094 50       		.byte	0x50
 9352 0095 9F       		.byte	0x9f
 9353 0096 D8000000 		.4byte	.LVL18
 9354 009a DA000000 		.4byte	.LVL19
 9355 009e 0100     		.2byte	0x1
 9356 00a0 50       		.byte	0x50
 9357 00a1 DA000000 		.4byte	.LVL19
 9358 00a5 EC000000 		.4byte	.LVL21
 9359 00a9 0400     		.2byte	0x4
 9360 00ab F3       		.byte	0xf3
 9361 00ac 01       		.uleb128 0x1
ARM GAS  C:\Users\jsyoon\AppData\Local\Temp\ccDGobdh.s 			page 167


 9362 00ad 50       		.byte	0x50
 9363 00ae 9F       		.byte	0x9f
 9364 00af EC000000 		.4byte	.LVL21
 9365 00b3 EE000000 		.4byte	.LVL22
 9366 00b7 0100     		.2byte	0x1
 9367 00b9 50       		.byte	0x50
 9368 00ba EE000000 		.4byte	.LVL22
 9369 00be 00010000 		.4byte	.LVL24
 9370 00c2 0400     		.2byte	0x4
 9371 00c4 F3       		.byte	0xf3
 9372 00c5 01       		.uleb128 0x1
 9373 00c6 50       		.byte	0x50
 9374 00c7 9F       		.byte	0x9f
 9375 00c8 00010000 		.4byte	.LVL24
 9376 00cc 02010000 		.4byte	.LVL25
 9377 00d0 0100     		.2byte	0x1
 9378 00d2 50       		.byte	0x50
 9379 00d3 02010000 		.4byte	.LVL25
 9380 00d7 14010000 		.4byte	.LVL27
 9381 00db 0400     		.2byte	0x4
 9382 00dd F3       		.byte	0xf3
 9383 00de 01       		.uleb128 0x1
 9384 00df 50       		.byte	0x50
 9385 00e0 9F       		.byte	0x9f
 9386 00e1 14010000 		.4byte	.LVL27
 9387 00e5 18010000 		.4byte	.LVL28
 9388 00e9 0100     		.2byte	0x1
 9389 00eb 50       		.byte	0x50
 9390 00ec 18010000 		.4byte	.LVL28
 9391 00f0 2C010000 		.4byte	.LVL30
 9392 00f4 0400     		.2byte	0x4
 9393 00f6 F3       		.byte	0xf3
 9394 00f7 01       		.uleb128 0x1
 9395 00f8 50       		.byte	0x50
 9396 00f9 9F       		.byte	0x9f
 9397 00fa 2C010000 		.4byte	.LVL30
 9398 00fe 30010000 		.4byte	.LVL31
 9399 0102 0100     		.2byte	0x1
 9400 0104 50       		.byte	0x50
 9401 0105 30010000 		.4byte	.LVL31
 9402 0109 44010000 		.4byte	.LVL33
 9403 010d 0400     		.2byte	0x4
 9404 010f F3       		.byte	0xf3
 9405 0110 01       		.uleb128 0x1
 9406 0111 50       		.byte	0x50
 9407 0112 9F       		.byte	0x9f
 9408 0113 44010000 		.4byte	.LVL33
 9409 0117 48010000 		.4byte	.LVL34
 9410 011b 0100     		.2byte	0x1
 9411 011d 50       		.byte	0x50
 9412 011e 48010000 		.4byte	.LVL34
 9413 0122 5C010000 		.4byte	.LVL36
 9414 0126 0400     		.2byte	0x4
 9415 0128 F3       		.byte	0xf3
 9416 0129 01       		.uleb128 0x1
 9417 012a 50       		.byte	0x50
 9418 012b 9F       		.byte	0x9f
ARM GAS  C:\Users\jsyoon\AppData\Local\Temp\ccDGobdh.s 			page 168


 9419 012c 5C010000 		.4byte	.LVL36
 9420 0130 5E010000 		.4byte	.LVL37
 9421 0134 0100     		.2byte	0x1
 9422 0136 50       		.byte	0x50
 9423 0137 5E010000 		.4byte	.LVL37
 9424 013b 70010000 		.4byte	.LVL39
 9425 013f 0400     		.2byte	0x4
 9426 0141 F3       		.byte	0xf3
 9427 0142 01       		.uleb128 0x1
 9428 0143 50       		.byte	0x50
 9429 0144 9F       		.byte	0x9f
 9430 0145 70010000 		.4byte	.LVL39
 9431 0149 72010000 		.4byte	.LVL40
 9432 014d 0100     		.2byte	0x1
 9433 014f 50       		.byte	0x50
 9434 0150 72010000 		.4byte	.LVL40
 9435 0154 B8010000 		.4byte	.LFE111
 9436 0158 0400     		.2byte	0x4
 9437 015a F3       		.byte	0xf3
 9438 015b 01       		.uleb128 0x1
 9439 015c 50       		.byte	0x50
 9440 015d 9F       		.byte	0x9f
 9441 015e 00000000 		.4byte	0
 9442 0162 00000000 		.4byte	0
 9443              	.LLST1:
 9444 0166 00000000 		.4byte	.LVL43
 9445 016a 0A000000 		.4byte	.LVL44
 9446 016e 0200     		.2byte	0x2
 9447 0170 30       		.byte	0x30
 9448 0171 9F       		.byte	0x9f
 9449 0172 0A000000 		.4byte	.LVL44
 9450 0176 52000000 		.4byte	.LVL47
 9451 017a 0100     		.2byte	0x1
 9452 017c 53       		.byte	0x53
 9453 017d 58000000 		.4byte	.LVL48
 9454 0181 64000000 		.4byte	.LVL50
 9455 0185 0100     		.2byte	0x1
 9456 0187 53       		.byte	0x53
 9457 0188 7E000000 		.4byte	.LVL51
 9458 018c 82000000 		.4byte	.LVL52
 9459 0190 0100     		.2byte	0x1
 9460 0192 53       		.byte	0x53
 9461 0193 00000000 		.4byte	0
 9462 0197 00000000 		.4byte	0
 9463              	.LLST2:
 9464 019b 00000000 		.4byte	.LVL55
 9465 019f 0C000000 		.4byte	.LVL59
 9466 01a3 0100     		.2byte	0x1
 9467 01a5 51       		.byte	0x51
 9468 01a6 0C000000 		.4byte	.LVL59
 9469 01aa 10000000 		.4byte	.LFE115
 9470 01ae 0400     		.2byte	0x4
 9471 01b0 F3       		.byte	0xf3
 9472 01b1 01       		.uleb128 0x1
 9473 01b2 51       		.byte	0x51
 9474 01b3 9F       		.byte	0x9f
 9475 01b4 00000000 		.4byte	0
ARM GAS  C:\Users\jsyoon\AppData\Local\Temp\ccDGobdh.s 			page 169


 9476 01b8 00000000 		.4byte	0
 9477              	.LLST3:
 9478 01bc 00000000 		.4byte	.LVL55
 9479 01c0 02000000 		.4byte	.LVL56
 9480 01c4 0200     		.2byte	0x2
 9481 01c6 30       		.byte	0x30
 9482 01c7 9F       		.byte	0x9f
 9483 01c8 02000000 		.4byte	.LVL56
 9484 01cc 06000000 		.4byte	.LVL57
 9485 01d0 0100     		.2byte	0x1
 9486 01d2 53       		.byte	0x53
 9487 01d3 0A000000 		.4byte	.LVL58
 9488 01d7 0C000000 		.4byte	.LVL59
 9489 01db 0100     		.2byte	0x1
 9490 01dd 53       		.byte	0x53
 9491 01de 0C000000 		.4byte	.LVL59
 9492 01e2 10000000 		.4byte	.LFE115
 9493 01e6 0100     		.2byte	0x1
 9494 01e8 51       		.byte	0x51
 9495 01e9 00000000 		.4byte	0
 9496 01ed 00000000 		.4byte	0
 9497              	.LLST4:
 9498 01f1 00000000 		.4byte	.LVL62
 9499 01f5 02000000 		.4byte	.LVL63
 9500 01f9 0100     		.2byte	0x1
 9501 01fb 50       		.byte	0x50
 9502 01fc 02000000 		.4byte	.LVL63
 9503 0200 04000000 		.4byte	.LFE118
 9504 0204 0400     		.2byte	0x4
 9505 0206 F3       		.byte	0xf3
 9506 0207 01       		.uleb128 0x1
 9507 0208 50       		.byte	0x50
 9508 0209 9F       		.byte	0x9f
 9509 020a 00000000 		.4byte	0
 9510 020e 00000000 		.4byte	0
 9511              	.LLST5:
 9512 0212 00000000 		.4byte	.LVL64
 9513 0216 02000000 		.4byte	.LVL65
 9514 021a 0100     		.2byte	0x1
 9515 021c 50       		.byte	0x50
 9516 021d 02000000 		.4byte	.LVL65
 9517 0221 06000000 		.4byte	.LFE119
 9518 0225 0400     		.2byte	0x4
 9519 0227 F3       		.byte	0xf3
 9520 0228 01       		.uleb128 0x1
 9521 0229 50       		.byte	0x50
 9522 022a 9F       		.byte	0x9f
 9523 022b 00000000 		.4byte	0
 9524 022f 00000000 		.4byte	0
 9525              	.LLST6:
 9526 0233 00000000 		.4byte	.LVL69
 9527 0237 12000000 		.4byte	.LVL70
 9528 023b 0100     		.2byte	0x1
 9529 023d 51       		.byte	0x51
 9530 023e 12000000 		.4byte	.LVL70
 9531 0242 16000000 		.4byte	.LFE123
 9532 0246 0400     		.2byte	0x4
ARM GAS  C:\Users\jsyoon\AppData\Local\Temp\ccDGobdh.s 			page 170


 9533 0248 F3       		.byte	0xf3
 9534 0249 01       		.uleb128 0x1
 9535 024a 51       		.byte	0x51
 9536 024b 9F       		.byte	0x9f
 9537 024c 00000000 		.4byte	0
 9538 0250 00000000 		.4byte	0
 9539              	.LLST7:
 9540 0254 00000000 		.4byte	.LVL71
 9541 0258 12000000 		.4byte	.LVL72
 9542 025c 0100     		.2byte	0x1
 9543 025e 51       		.byte	0x51
 9544 025f 12000000 		.4byte	.LVL72
 9545 0263 16000000 		.4byte	.LFE124
 9546 0267 0400     		.2byte	0x4
 9547 0269 F3       		.byte	0xf3
 9548 026a 01       		.uleb128 0x1
 9549 026b 51       		.byte	0x51
 9550 026c 9F       		.byte	0x9f
 9551 026d 00000000 		.4byte	0
 9552 0271 00000000 		.4byte	0
 9553              	.LLST8:
 9554 0275 00000000 		.4byte	.LVL74
 9555 0279 4C000000 		.4byte	.LVL80
 9556 027d 0100     		.2byte	0x1
 9557 027f 51       		.byte	0x51
 9558 0280 4C000000 		.4byte	.LVL80
 9559 0284 58000000 		.4byte	.LVL82
 9560 0288 0400     		.2byte	0x4
 9561 028a F3       		.byte	0xf3
 9562 028b 01       		.uleb128 0x1
 9563 028c 51       		.byte	0x51
 9564 028d 9F       		.byte	0x9f
 9565 028e 58000000 		.4byte	.LVL82
 9566 0292 80000000 		.4byte	.LFE126
 9567 0296 0100     		.2byte	0x1
 9568 0298 51       		.byte	0x51
 9569 0299 00000000 		.4byte	0
 9570 029d 00000000 		.4byte	0
 9571              	.LLST9:
 9572 02a1 00000000 		.4byte	.LVL74
 9573 02a5 3C000000 		.4byte	.LVL77
 9574 02a9 0200     		.2byte	0x2
 9575 02ab 30       		.byte	0x30
 9576 02ac 9F       		.byte	0x9f
 9577 02ad 3C000000 		.4byte	.LVL77
 9578 02b1 80000000 		.4byte	.LFE126
 9579 02b5 0100     		.2byte	0x1
 9580 02b7 53       		.byte	0x53
 9581 02b8 00000000 		.4byte	0
 9582 02bc 00000000 		.4byte	0
 9583              	.LLST10:
 9584 02c0 00000000 		.4byte	.LVL74
 9585 02c4 1A000000 		.4byte	.LVL75
 9586 02c8 0200     		.2byte	0x2
 9587 02ca 30       		.byte	0x30
 9588 02cb 9F       		.byte	0x9f
 9589 02cc 1A000000 		.4byte	.LVL75
ARM GAS  C:\Users\jsyoon\AppData\Local\Temp\ccDGobdh.s 			page 171


 9590 02d0 22000000 		.4byte	.LVL76
 9591 02d4 0100     		.2byte	0x1
 9592 02d6 52       		.byte	0x52
 9593 02d7 40000000 		.4byte	.LVL78
 9594 02db 80000000 		.4byte	.LFE126
 9595 02df 0100     		.2byte	0x1
 9596 02e1 52       		.byte	0x52
 9597 02e2 00000000 		.4byte	0
 9598 02e6 00000000 		.4byte	0
 9599              	.LLST11:
 9600 02ea 00000000 		.4byte	.LVL74
 9601 02ee 3C000000 		.4byte	.LVL77
 9602 02f2 0200     		.2byte	0x2
 9603 02f4 30       		.byte	0x30
 9604 02f5 9F       		.byte	0x9f
 9605 02f6 3C000000 		.4byte	.LVL77
 9606 02fa 52000000 		.4byte	.LVL81
 9607 02fe 0100     		.2byte	0x1
 9608 0300 54       		.byte	0x54
 9609 0301 58000000 		.4byte	.LVL82
 9610 0305 70000000 		.4byte	.LVL85
 9611 0309 0100     		.2byte	0x1
 9612 030b 54       		.byte	0x54
 9613 030c 78000000 		.4byte	.LVL87
 9614 0310 7A000000 		.4byte	.LVL88
 9615 0314 0800     		.2byte	0x8
 9616 0316 71       		.byte	0x71
 9617 0317 10       		.sleb128 16
 9618 0318 94       		.byte	0x94
 9619 0319 02       		.byte	0x2
 9620 031a 74       		.byte	0x74
 9621 031b 00       		.sleb128 0
 9622 031c 21       		.byte	0x21
 9623 031d 9F       		.byte	0x9f
 9624 031e 7A000000 		.4byte	.LVL88
 9625 0322 80000000 		.4byte	.LFE126
 9626 0326 0100     		.2byte	0x1
 9627 0328 54       		.byte	0x54
 9628 0329 00000000 		.4byte	0
 9629 032d 00000000 		.4byte	0
 9630              	.LLST12:
 9631 0331 00000000 		.4byte	.LVL89
 9632 0335 4E000000 		.4byte	.LVL95
 9633 0339 0100     		.2byte	0x1
 9634 033b 51       		.byte	0x51
 9635 033c 4E000000 		.4byte	.LVL95
 9636 0340 5A000000 		.4byte	.LVL97
 9637 0344 0400     		.2byte	0x4
 9638 0346 F3       		.byte	0xf3
 9639 0347 01       		.uleb128 0x1
 9640 0348 51       		.byte	0x51
 9641 0349 9F       		.byte	0x9f
 9642 034a 5A000000 		.4byte	.LVL97
 9643 034e 90000000 		.4byte	.LFE127
 9644 0352 0100     		.2byte	0x1
 9645 0354 51       		.byte	0x51
 9646 0355 00000000 		.4byte	0
ARM GAS  C:\Users\jsyoon\AppData\Local\Temp\ccDGobdh.s 			page 172


 9647 0359 00000000 		.4byte	0
 9648              	.LLST13:
 9649 035d 00000000 		.4byte	.LVL89
 9650 0361 40000000 		.4byte	.LVL92
 9651 0365 0200     		.2byte	0x2
 9652 0367 30       		.byte	0x30
 9653 0368 9F       		.byte	0x9f
 9654 0369 42000000 		.4byte	.LVL93
 9655 036d 90000000 		.4byte	.LFE127
 9656 0371 0100     		.2byte	0x1
 9657 0373 53       		.byte	0x53
 9658 0374 00000000 		.4byte	0
 9659 0378 00000000 		.4byte	0
 9660              	.LLST14:
 9661 037c 00000000 		.4byte	.LVL89
 9662 0380 1A000000 		.4byte	.LVL90
 9663 0384 0200     		.2byte	0x2
 9664 0386 30       		.byte	0x30
 9665 0387 9F       		.byte	0x9f
 9666 0388 1A000000 		.4byte	.LVL90
 9667 038c 22000000 		.4byte	.LVL91
 9668 0390 0100     		.2byte	0x1
 9669 0392 52       		.byte	0x52
 9670 0393 42000000 		.4byte	.LVL93
 9671 0397 68000000 		.4byte	.LVL98
 9672 039b 0100     		.2byte	0x1
 9673 039d 52       		.byte	0x52
 9674 039e 6A000000 		.4byte	.LVL99
 9675 03a2 78000000 		.4byte	.LVL102
 9676 03a6 0100     		.2byte	0x1
 9677 03a8 52       		.byte	0x52
 9678 03a9 78000000 		.4byte	.LVL102
 9679 03ad 86000000 		.4byte	.LVL103
 9680 03b1 0100     		.2byte	0x1
 9681 03b3 55       		.byte	0x55
 9682 03b4 86000000 		.4byte	.LVL103
 9683 03b8 90000000 		.4byte	.LFE127
 9684 03bc 0100     		.2byte	0x1
 9685 03be 52       		.byte	0x52
 9686 03bf 00000000 		.4byte	0
 9687 03c3 00000000 		.4byte	0
 9688              	.LLST15:
 9689 03c7 00000000 		.4byte	.LVL89
 9690 03cb 40000000 		.4byte	.LVL92
 9691 03cf 0200     		.2byte	0x2
 9692 03d1 30       		.byte	0x30
 9693 03d2 9F       		.byte	0x9f
 9694 03d3 40000000 		.4byte	.LVL92
 9695 03d7 54000000 		.4byte	.LVL96
 9696 03db 0100     		.2byte	0x1
 9697 03dd 54       		.byte	0x54
 9698 03de 5A000000 		.4byte	.LVL97
 9699 03e2 72000000 		.4byte	.LVL101
 9700 03e6 0100     		.2byte	0x1
 9701 03e8 54       		.byte	0x54
 9702 03e9 88000000 		.4byte	.LVL104
 9703 03ed 90000000 		.4byte	.LFE127
ARM GAS  C:\Users\jsyoon\AppData\Local\Temp\ccDGobdh.s 			page 173


 9704 03f1 0100     		.2byte	0x1
 9705 03f3 54       		.byte	0x54
 9706 03f4 00000000 		.4byte	0
 9707 03f8 00000000 		.4byte	0
 9708              	.LLST16:
 9709 03fc 00000000 		.4byte	.LVL105
 9710 0400 4C000000 		.4byte	.LVL111
 9711 0404 0100     		.2byte	0x1
 9712 0406 51       		.byte	0x51
 9713 0407 4C000000 		.4byte	.LVL111
 9714 040b 58000000 		.4byte	.LVL113
 9715 040f 0400     		.2byte	0x4
 9716 0411 F3       		.byte	0xf3
 9717 0412 01       		.uleb128 0x1
 9718 0413 51       		.byte	0x51
 9719 0414 9F       		.byte	0x9f
 9720 0415 58000000 		.4byte	.LVL113
 9721 0419 8C000000 		.4byte	.LFE128
 9722 041d 0100     		.2byte	0x1
 9723 041f 51       		.byte	0x51
 9724 0420 00000000 		.4byte	0
 9725 0424 00000000 		.4byte	0
 9726              	.LLST17:
 9727 0428 00000000 		.4byte	.LVL105
 9728 042c 3C000000 		.4byte	.LVL108
 9729 0430 0200     		.2byte	0x2
 9730 0432 30       		.byte	0x30
 9731 0433 9F       		.byte	0x9f
 9732 0434 3C000000 		.4byte	.LVL108
 9733 0438 8C000000 		.4byte	.LFE128
 9734 043c 0100     		.2byte	0x1
 9735 043e 53       		.byte	0x53
 9736 043f 00000000 		.4byte	0
 9737 0443 00000000 		.4byte	0
 9738              	.LLST18:
 9739 0447 00000000 		.4byte	.LVL105
 9740 044b 1A000000 		.4byte	.LVL106
 9741 044f 0200     		.2byte	0x2
 9742 0451 30       		.byte	0x30
 9743 0452 9F       		.byte	0x9f
 9744 0453 1A000000 		.4byte	.LVL106
 9745 0457 22000000 		.4byte	.LVL107
 9746 045b 0100     		.2byte	0x1
 9747 045d 52       		.byte	0x52
 9748 045e 40000000 		.4byte	.LVL109
 9749 0462 66000000 		.4byte	.LVL114
 9750 0466 0100     		.2byte	0x1
 9751 0468 52       		.byte	0x52
 9752 0469 68000000 		.4byte	.LVL115
 9753 046d 76000000 		.4byte	.LVL118
 9754 0471 0100     		.2byte	0x1
 9755 0473 52       		.byte	0x52
 9756 0474 76000000 		.4byte	.LVL118
 9757 0478 84000000 		.4byte	.LVL119
 9758 047c 0100     		.2byte	0x1
 9759 047e 55       		.byte	0x55
 9760 047f 84000000 		.4byte	.LVL119
ARM GAS  C:\Users\jsyoon\AppData\Local\Temp\ccDGobdh.s 			page 174


 9761 0483 8C000000 		.4byte	.LFE128
 9762 0487 0100     		.2byte	0x1
 9763 0489 52       		.byte	0x52
 9764 048a 00000000 		.4byte	0
 9765 048e 00000000 		.4byte	0
 9766              	.LLST19:
 9767 0492 00000000 		.4byte	.LVL105
 9768 0496 3C000000 		.4byte	.LVL108
 9769 049a 0200     		.2byte	0x2
 9770 049c 30       		.byte	0x30
 9771 049d 9F       		.byte	0x9f
 9772 049e 3C000000 		.4byte	.LVL108
 9773 04a2 52000000 		.4byte	.LVL112
 9774 04a6 0100     		.2byte	0x1
 9775 04a8 54       		.byte	0x54
 9776 04a9 58000000 		.4byte	.LVL113
 9777 04ad 70000000 		.4byte	.LVL117
 9778 04b1 0100     		.2byte	0x1
 9779 04b3 54       		.byte	0x54
 9780 04b4 86000000 		.4byte	.LVL120
 9781 04b8 8C000000 		.4byte	.LFE128
 9782 04bc 0100     		.2byte	0x1
 9783 04be 54       		.byte	0x54
 9784 04bf 00000000 		.4byte	0
 9785 04c3 00000000 		.4byte	0
 9786              	.LLST20:
 9787 04c7 00000000 		.4byte	.LVL121
 9788 04cb 4E000000 		.4byte	.LVL127
 9789 04cf 0100     		.2byte	0x1
 9790 04d1 51       		.byte	0x51
 9791 04d2 4E000000 		.4byte	.LVL127
 9792 04d6 5A000000 		.4byte	.LVL129
 9793 04da 0400     		.2byte	0x4
 9794 04dc F3       		.byte	0xf3
 9795 04dd 01       		.uleb128 0x1
 9796 04de 51       		.byte	0x51
 9797 04df 9F       		.byte	0x9f
 9798 04e0 5A000000 		.4byte	.LVL129
 9799 04e4 6C000000 		.4byte	.LFE129
 9800 04e8 0100     		.2byte	0x1
 9801 04ea 51       		.byte	0x51
 9802 04eb 00000000 		.4byte	0
 9803 04ef 00000000 		.4byte	0
 9804              	.LLST21:
 9805 04f3 00000000 		.4byte	.LVL121
 9806 04f7 40000000 		.4byte	.LVL124
 9807 04fb 0200     		.2byte	0x2
 9808 04fd 30       		.byte	0x30
 9809 04fe 9F       		.byte	0x9f
 9810 04ff 42000000 		.4byte	.LVL125
 9811 0503 6C000000 		.4byte	.LFE129
 9812 0507 0100     		.2byte	0x1
 9813 0509 53       		.byte	0x53
 9814 050a 00000000 		.4byte	0
 9815 050e 00000000 		.4byte	0
 9816              	.LLST22:
 9817 0512 00000000 		.4byte	.LVL121
ARM GAS  C:\Users\jsyoon\AppData\Local\Temp\ccDGobdh.s 			page 175


 9818 0516 1A000000 		.4byte	.LVL122
 9819 051a 0200     		.2byte	0x2
 9820 051c 30       		.byte	0x30
 9821 051d 9F       		.byte	0x9f
 9822 051e 1A000000 		.4byte	.LVL122
 9823 0522 22000000 		.4byte	.LVL123
 9824 0526 0100     		.2byte	0x1
 9825 0528 52       		.byte	0x52
 9826 0529 42000000 		.4byte	.LVL125
 9827 052d 6C000000 		.4byte	.LFE129
 9828 0531 0100     		.2byte	0x1
 9829 0533 52       		.byte	0x52
 9830 0534 00000000 		.4byte	0
 9831 0538 00000000 		.4byte	0
 9832              	.LLST23:
 9833 053c 00000000 		.4byte	.LVL121
 9834 0540 40000000 		.4byte	.LVL124
 9835 0544 0200     		.2byte	0x2
 9836 0546 30       		.byte	0x30
 9837 0547 9F       		.byte	0x9f
 9838 0548 40000000 		.4byte	.LVL124
 9839 054c 54000000 		.4byte	.LVL128
 9840 0550 0100     		.2byte	0x1
 9841 0552 54       		.byte	0x54
 9842 0553 5A000000 		.4byte	.LVL129
 9843 0557 64000000 		.4byte	.LVL131
 9844 055b 0100     		.2byte	0x1
 9845 055d 54       		.byte	0x54
 9846 055e 66000000 		.4byte	.LVL132
 9847 0562 6C000000 		.4byte	.LFE129
 9848 0566 0100     		.2byte	0x1
 9849 0568 54       		.byte	0x54
 9850 0569 00000000 		.4byte	0
 9851 056d 00000000 		.4byte	0
 9852              	.LLST24:
 9853 0571 00000000 		.4byte	.LVL134
 9854 0575 16000000 		.4byte	.LVL135
 9855 0579 0100     		.2byte	0x1
 9856 057b 50       		.byte	0x50
 9857 057c 16000000 		.4byte	.LVL135
 9858 0580 50000000 		.4byte	.LFE131
 9859 0584 0300     		.2byte	0x3
 9860 0586 70       		.byte	0x70
 9861 0587 68       		.sleb128 -24
 9862 0588 9F       		.byte	0x9f
 9863 0589 00000000 		.4byte	0
 9864 058d 00000000 		.4byte	0
 9865              	.LLST25:
 9866 0591 00000000 		.4byte	.LVL134
 9867 0595 1A000000 		.4byte	.LVL137
 9868 0599 0100     		.2byte	0x1
 9869 059b 51       		.byte	0x51
 9870 059c 1A000000 		.4byte	.LVL137
 9871 05a0 38000000 		.4byte	.LVL140
 9872 05a4 0400     		.2byte	0x4
 9873 05a6 F3       		.byte	0xf3
 9874 05a7 01       		.uleb128 0x1
ARM GAS  C:\Users\jsyoon\AppData\Local\Temp\ccDGobdh.s 			page 176


 9875 05a8 51       		.byte	0x51
 9876 05a9 9F       		.byte	0x9f
 9877 05aa 38000000 		.4byte	.LVL140
 9878 05ae 3A000000 		.4byte	.LVL141
 9879 05b2 0100     		.2byte	0x1
 9880 05b4 51       		.byte	0x51
 9881 05b5 3A000000 		.4byte	.LVL141
 9882 05b9 50000000 		.4byte	.LFE131
 9883 05bd 0400     		.2byte	0x4
 9884 05bf F3       		.byte	0xf3
 9885 05c0 01       		.uleb128 0x1
 9886 05c1 51       		.byte	0x51
 9887 05c2 9F       		.byte	0x9f
 9888 05c3 00000000 		.4byte	0
 9889 05c7 00000000 		.4byte	0
 9890              	.LLST26:
 9891 05cb 00000000 		.4byte	.LVL134
 9892 05cf 2A000000 		.4byte	.LVL139
 9893 05d3 0100     		.2byte	0x1
 9894 05d5 52       		.byte	0x52
 9895 05d6 2A000000 		.4byte	.LVL139
 9896 05da 38000000 		.4byte	.LVL140
 9897 05de 0400     		.2byte	0x4
 9898 05e0 F3       		.byte	0xf3
 9899 05e1 01       		.uleb128 0x1
 9900 05e2 52       		.byte	0x52
 9901 05e3 9F       		.byte	0x9f
 9902 05e4 38000000 		.4byte	.LVL140
 9903 05e8 4C000000 		.4byte	.LVL142
 9904 05ec 0100     		.2byte	0x1
 9905 05ee 52       		.byte	0x52
 9906 05ef 4C000000 		.4byte	.LVL142
 9907 05f3 50000000 		.4byte	.LFE131
 9908 05f7 0400     		.2byte	0x4
 9909 05f9 F3       		.byte	0xf3
 9910 05fa 01       		.uleb128 0x1
 9911 05fb 52       		.byte	0x52
 9912 05fc 9F       		.byte	0x9f
 9913 05fd 00000000 		.4byte	0
 9914 0601 00000000 		.4byte	0
 9915              	.LLST27:
 9916 0605 00000000 		.4byte	.LVL134
 9917 0609 18000000 		.4byte	.LVL136
 9918 060d 0100     		.2byte	0x1
 9919 060f 50       		.byte	0x50
 9920 0610 18000000 		.4byte	.LVL136
 9921 0614 1A000000 		.4byte	.LVL137
 9922 0618 0C00     		.2byte	0xc
 9923 061a 71       		.byte	0x71
 9924 061b 7C       		.sleb128 -4
 9925 061c 31       		.byte	0x31
 9926 061d 25       		.byte	0x25
 9927 061e 0A       		.byte	0xa
 9928 061f FFFF     		.2byte	0xffff
 9929 0621 1A       		.byte	0x1a
 9930 0622 70       		.byte	0x70
 9931 0623 00       		.sleb128 0
ARM GAS  C:\Users\jsyoon\AppData\Local\Temp\ccDGobdh.s 			page 177


 9932 0624 22       		.byte	0x22
 9933 0625 9F       		.byte	0x9f
 9934 0626 1A000000 		.4byte	.LVL137
 9935 062a 1E000000 		.4byte	.LVL138
 9936 062e 0C00     		.2byte	0xc
 9937 0630 71       		.byte	0x71
 9938 0631 00       		.sleb128 0
 9939 0632 31       		.byte	0x31
 9940 0633 25       		.byte	0x25
 9941 0634 0A       		.byte	0xa
 9942 0635 FFFF     		.2byte	0xffff
 9943 0637 1A       		.byte	0x1a
 9944 0638 70       		.byte	0x70
 9945 0639 00       		.sleb128 0
 9946 063a 22       		.byte	0x22
 9947 063b 9F       		.byte	0x9f
 9948 063c 38000000 		.4byte	.LVL140
 9949 0640 3A000000 		.4byte	.LVL141
 9950 0644 0C00     		.2byte	0xc
 9951 0646 71       		.byte	0x71
 9952 0647 00       		.sleb128 0
 9953 0648 31       		.byte	0x31
 9954 0649 25       		.byte	0x25
 9955 064a 0A       		.byte	0xa
 9956 064b FFFF     		.2byte	0xffff
 9957 064d 1A       		.byte	0x1a
 9958 064e 70       		.byte	0x70
 9959 064f 00       		.sleb128 0
 9960 0650 22       		.byte	0x22
 9961 0651 9F       		.byte	0x9f
 9962 0652 00000000 		.4byte	0
 9963 0656 00000000 		.4byte	0
 9964              	.LLST28:
 9965 065a 00000000 		.4byte	.LVL134
 9966 065e 16000000 		.4byte	.LVL135
 9967 0662 0200     		.2byte	0x2
 9968 0664 30       		.byte	0x30
 9969 0665 9F       		.byte	0x9f
 9970 0666 00000000 		.4byte	0
 9971 066a 00000000 		.4byte	0
 9972              	.LLST29:
 9973 066e 00000000 		.4byte	.LVL147
 9974 0672 0C000000 		.4byte	.LVL151
 9975 0676 0100     		.2byte	0x1
 9976 0678 51       		.byte	0x51
 9977 0679 0C000000 		.4byte	.LVL151
 9978 067d 10000000 		.4byte	.LFE136
 9979 0681 0400     		.2byte	0x4
 9980 0683 F3       		.byte	0xf3
 9981 0684 01       		.uleb128 0x1
 9982 0685 51       		.byte	0x51
 9983 0686 9F       		.byte	0x9f
 9984 0687 00000000 		.4byte	0
 9985 068b 00000000 		.4byte	0
 9986              	.LLST30:
 9987 068f 00000000 		.4byte	.LVL147
 9988 0693 02000000 		.4byte	.LVL148
ARM GAS  C:\Users\jsyoon\AppData\Local\Temp\ccDGobdh.s 			page 178


 9989 0697 0200     		.2byte	0x2
 9990 0699 30       		.byte	0x30
 9991 069a 9F       		.byte	0x9f
 9992 069b 02000000 		.4byte	.LVL148
 9993 069f 06000000 		.4byte	.LVL149
 9994 06a3 0100     		.2byte	0x1
 9995 06a5 53       		.byte	0x53
 9996 06a6 0A000000 		.4byte	.LVL150
 9997 06aa 0C000000 		.4byte	.LVL151
 9998 06ae 0100     		.2byte	0x1
 9999 06b0 53       		.byte	0x53
 10000 06b1 0C000000 		.4byte	.LVL151
 10001 06b5 10000000 		.4byte	.LFE136
 10002 06b9 0100     		.2byte	0x1
 10003 06bb 51       		.byte	0x51
 10004 06bc 00000000 		.4byte	0
 10005 06c0 00000000 		.4byte	0
 10006              	.LLST31:
 10007 06c4 00000000 		.4byte	.LVL152
 10008 06c8 0E000000 		.4byte	.LVL156
 10009 06cc 0100     		.2byte	0x1
 10010 06ce 51       		.byte	0x51
 10011 06cf 0E000000 		.4byte	.LVL156
 10012 06d3 14000000 		.4byte	.LFE137
 10013 06d7 0400     		.2byte	0x4
 10014 06d9 F3       		.byte	0xf3
 10015 06da 01       		.uleb128 0x1
 10016 06db 51       		.byte	0x51
 10017 06dc 9F       		.byte	0x9f
 10018 06dd 00000000 		.4byte	0
 10019 06e1 00000000 		.4byte	0
 10020              	.LLST32:
 10021 06e5 00000000 		.4byte	.LVL152
 10022 06e9 02000000 		.4byte	.LVL153
 10023 06ed 0200     		.2byte	0x2
 10024 06ef 30       		.byte	0x30
 10025 06f0 9F       		.byte	0x9f
 10026 06f1 02000000 		.4byte	.LVL153
 10027 06f5 06000000 		.4byte	.LVL154
 10028 06f9 0100     		.2byte	0x1
 10029 06fb 53       		.byte	0x53
 10030 06fc 0A000000 		.4byte	.LVL155
 10031 0700 10000000 		.4byte	.LVL157
 10032 0704 0100     		.2byte	0x1
 10033 0706 53       		.byte	0x53
 10034 0707 10000000 		.4byte	.LVL157
 10035 070b 14000000 		.4byte	.LFE137
 10036 070f 0100     		.2byte	0x1
 10037 0711 51       		.byte	0x51
 10038 0712 00000000 		.4byte	0
 10039 0716 00000000 		.4byte	0
 10040              	.LLST33:
 10041 071a 00000000 		.4byte	.LVL158
 10042 071e 0C000000 		.4byte	.LVL162
 10043 0722 0100     		.2byte	0x1
 10044 0724 51       		.byte	0x51
 10045 0725 0C000000 		.4byte	.LVL162
ARM GAS  C:\Users\jsyoon\AppData\Local\Temp\ccDGobdh.s 			page 179


 10046 0729 10000000 		.4byte	.LFE138
 10047 072d 0400     		.2byte	0x4
 10048 072f F3       		.byte	0xf3
 10049 0730 01       		.uleb128 0x1
 10050 0731 51       		.byte	0x51
 10051 0732 9F       		.byte	0x9f
 10052 0733 00000000 		.4byte	0
 10053 0737 00000000 		.4byte	0
 10054              	.LLST34:
 10055 073b 00000000 		.4byte	.LVL158
 10056 073f 02000000 		.4byte	.LVL159
 10057 0743 0200     		.2byte	0x2
 10058 0745 30       		.byte	0x30
 10059 0746 9F       		.byte	0x9f
 10060 0747 02000000 		.4byte	.LVL159
 10061 074b 06000000 		.4byte	.LVL160
 10062 074f 0100     		.2byte	0x1
 10063 0751 53       		.byte	0x53
 10064 0752 0A000000 		.4byte	.LVL161
 10065 0756 0C000000 		.4byte	.LVL162
 10066 075a 0100     		.2byte	0x1
 10067 075c 53       		.byte	0x53
 10068 075d 0C000000 		.4byte	.LVL162
 10069 0761 10000000 		.4byte	.LFE138
 10070 0765 0100     		.2byte	0x1
 10071 0767 51       		.byte	0x51
 10072 0768 00000000 		.4byte	0
 10073 076c 00000000 		.4byte	0
 10074              	.LLST35:
 10075 0770 00000000 		.4byte	.LVL163
 10076 0774 0E000000 		.4byte	.LVL167
 10077 0778 0100     		.2byte	0x1
 10078 077a 51       		.byte	0x51
 10079 077b 0E000000 		.4byte	.LVL167
 10080 077f 14000000 		.4byte	.LFE139
 10081 0783 0400     		.2byte	0x4
 10082 0785 F3       		.byte	0xf3
 10083 0786 01       		.uleb128 0x1
 10084 0787 51       		.byte	0x51
 10085 0788 9F       		.byte	0x9f
 10086 0789 00000000 		.4byte	0
 10087 078d 00000000 		.4byte	0
 10088              	.LLST36:
 10089 0791 00000000 		.4byte	.LVL163
 10090 0795 02000000 		.4byte	.LVL164
 10091 0799 0200     		.2byte	0x2
 10092 079b 30       		.byte	0x30
 10093 079c 9F       		.byte	0x9f
 10094 079d 02000000 		.4byte	.LVL164
 10095 07a1 06000000 		.4byte	.LVL165
 10096 07a5 0100     		.2byte	0x1
 10097 07a7 53       		.byte	0x53
 10098 07a8 0A000000 		.4byte	.LVL166
 10099 07ac 10000000 		.4byte	.LVL168
 10100 07b0 0100     		.2byte	0x1
 10101 07b2 53       		.byte	0x53
 10102 07b3 10000000 		.4byte	.LVL168
ARM GAS  C:\Users\jsyoon\AppData\Local\Temp\ccDGobdh.s 			page 180


 10103 07b7 14000000 		.4byte	.LFE139
 10104 07bb 0100     		.2byte	0x1
 10105 07bd 51       		.byte	0x51
 10106 07be 00000000 		.4byte	0
 10107 07c2 00000000 		.4byte	0
 10108              	.LLST37:
 10109 07c6 00000000 		.4byte	.LVL169
 10110 07ca 0C000000 		.4byte	.LVL173
 10111 07ce 0100     		.2byte	0x1
 10112 07d0 51       		.byte	0x51
 10113 07d1 0C000000 		.4byte	.LVL173
 10114 07d5 10000000 		.4byte	.LFE140
 10115 07d9 0400     		.2byte	0x4
 10116 07db F3       		.byte	0xf3
 10117 07dc 01       		.uleb128 0x1
 10118 07dd 51       		.byte	0x51
 10119 07de 9F       		.byte	0x9f
 10120 07df 00000000 		.4byte	0
 10121 07e3 00000000 		.4byte	0
 10122              	.LLST38:
 10123 07e7 00000000 		.4byte	.LVL169
 10124 07eb 02000000 		.4byte	.LVL170
 10125 07ef 0200     		.2byte	0x2
 10126 07f1 30       		.byte	0x30
 10127 07f2 9F       		.byte	0x9f
 10128 07f3 02000000 		.4byte	.LVL170
 10129 07f7 06000000 		.4byte	.LVL171
 10130 07fb 0100     		.2byte	0x1
 10131 07fd 53       		.byte	0x53
 10132 07fe 0A000000 		.4byte	.LVL172
 10133 0802 0C000000 		.4byte	.LVL173
 10134 0806 0100     		.2byte	0x1
 10135 0808 53       		.byte	0x53
 10136 0809 0C000000 		.4byte	.LVL173
 10137 080d 10000000 		.4byte	.LFE140
 10138 0811 0100     		.2byte	0x1
 10139 0813 51       		.byte	0x51
 10140 0814 00000000 		.4byte	0
 10141 0818 00000000 		.4byte	0
 10142              	.LLST39:
 10143 081c 00000000 		.4byte	.LVL174
 10144 0820 0E000000 		.4byte	.LVL178
 10145 0824 0100     		.2byte	0x1
 10146 0826 51       		.byte	0x51
 10147 0827 0E000000 		.4byte	.LVL178
 10148 082b 14000000 		.4byte	.LFE141
 10149 082f 0400     		.2byte	0x4
 10150 0831 F3       		.byte	0xf3
 10151 0832 01       		.uleb128 0x1
 10152 0833 51       		.byte	0x51
 10153 0834 9F       		.byte	0x9f
 10154 0835 00000000 		.4byte	0
 10155 0839 00000000 		.4byte	0
 10156              	.LLST40:
 10157 083d 00000000 		.4byte	.LVL174
 10158 0841 02000000 		.4byte	.LVL175
 10159 0845 0200     		.2byte	0x2
ARM GAS  C:\Users\jsyoon\AppData\Local\Temp\ccDGobdh.s 			page 181


 10160 0847 30       		.byte	0x30
 10161 0848 9F       		.byte	0x9f
 10162 0849 02000000 		.4byte	.LVL175
 10163 084d 06000000 		.4byte	.LVL176
 10164 0851 0100     		.2byte	0x1
 10165 0853 53       		.byte	0x53
 10166 0854 0A000000 		.4byte	.LVL177
 10167 0858 10000000 		.4byte	.LVL179
 10168 085c 0100     		.2byte	0x1
 10169 085e 53       		.byte	0x53
 10170 085f 10000000 		.4byte	.LVL179
 10171 0863 14000000 		.4byte	.LFE141
 10172 0867 0100     		.2byte	0x1
 10173 0869 51       		.byte	0x51
 10174 086a 00000000 		.4byte	0
 10175 086e 00000000 		.4byte	0
 10176              	.LLST41:
 10177 0872 00000000 		.4byte	.LVL180
 10178 0876 0C000000 		.4byte	.LVL184
 10179 087a 0100     		.2byte	0x1
 10180 087c 51       		.byte	0x51
 10181 087d 0C000000 		.4byte	.LVL184
 10182 0881 10000000 		.4byte	.LFE142
 10183 0885 0400     		.2byte	0x4
 10184 0887 F3       		.byte	0xf3
 10185 0888 01       		.uleb128 0x1
 10186 0889 51       		.byte	0x51
 10187 088a 9F       		.byte	0x9f
 10188 088b 00000000 		.4byte	0
 10189 088f 00000000 		.4byte	0
 10190              	.LLST42:
 10191 0893 00000000 		.4byte	.LVL180
 10192 0897 02000000 		.4byte	.LVL181
 10193 089b 0200     		.2byte	0x2
 10194 089d 30       		.byte	0x30
 10195 089e 9F       		.byte	0x9f
 10196 089f 02000000 		.4byte	.LVL181
 10197 08a3 06000000 		.4byte	.LVL182
 10198 08a7 0100     		.2byte	0x1
 10199 08a9 53       		.byte	0x53
 10200 08aa 0A000000 		.4byte	.LVL183
 10201 08ae 0C000000 		.4byte	.LVL184
 10202 08b2 0100     		.2byte	0x1
 10203 08b4 53       		.byte	0x53
 10204 08b5 0C000000 		.4byte	.LVL184
 10205 08b9 10000000 		.4byte	.LFE142
 10206 08bd 0100     		.2byte	0x1
 10207 08bf 51       		.byte	0x51
 10208 08c0 00000000 		.4byte	0
 10209 08c4 00000000 		.4byte	0
 10210              	.LLST43:
 10211 08c8 00000000 		.4byte	.LVL185
 10212 08cc 0E000000 		.4byte	.LVL189
 10213 08d0 0100     		.2byte	0x1
 10214 08d2 51       		.byte	0x51
 10215 08d3 0E000000 		.4byte	.LVL189
 10216 08d7 14000000 		.4byte	.LFE143
ARM GAS  C:\Users\jsyoon\AppData\Local\Temp\ccDGobdh.s 			page 182


 10217 08db 0400     		.2byte	0x4
 10218 08dd F3       		.byte	0xf3
 10219 08de 01       		.uleb128 0x1
 10220 08df 51       		.byte	0x51
 10221 08e0 9F       		.byte	0x9f
 10222 08e1 00000000 		.4byte	0
 10223 08e5 00000000 		.4byte	0
 10224              	.LLST44:
 10225 08e9 00000000 		.4byte	.LVL185
 10226 08ed 02000000 		.4byte	.LVL186
 10227 08f1 0200     		.2byte	0x2
 10228 08f3 30       		.byte	0x30
 10229 08f4 9F       		.byte	0x9f
 10230 08f5 02000000 		.4byte	.LVL186
 10231 08f9 06000000 		.4byte	.LVL187
 10232 08fd 0100     		.2byte	0x1
 10233 08ff 53       		.byte	0x53
 10234 0900 0A000000 		.4byte	.LVL188
 10235 0904 10000000 		.4byte	.LVL190
 10236 0908 0100     		.2byte	0x1
 10237 090a 53       		.byte	0x53
 10238 090b 10000000 		.4byte	.LVL190
 10239 090f 14000000 		.4byte	.LFE143
 10240 0913 0100     		.2byte	0x1
 10241 0915 51       		.byte	0x51
 10242 0916 00000000 		.4byte	0
 10243 091a 00000000 		.4byte	0
 10244              	.LLST45:
 10245 091e 00000000 		.4byte	.LVL191
 10246 0922 0C000000 		.4byte	.LVL195
 10247 0926 0100     		.2byte	0x1
 10248 0928 51       		.byte	0x51
 10249 0929 0C000000 		.4byte	.LVL195
 10250 092d 10000000 		.4byte	.LFE144
 10251 0931 0400     		.2byte	0x4
 10252 0933 F3       		.byte	0xf3
 10253 0934 01       		.uleb128 0x1
 10254 0935 51       		.byte	0x51
 10255 0936 9F       		.byte	0x9f
 10256 0937 00000000 		.4byte	0
 10257 093b 00000000 		.4byte	0
 10258              	.LLST46:
 10259 093f 00000000 		.4byte	.LVL191
 10260 0943 02000000 		.4byte	.LVL192
 10261 0947 0200     		.2byte	0x2
 10262 0949 30       		.byte	0x30
 10263 094a 9F       		.byte	0x9f
 10264 094b 02000000 		.4byte	.LVL192
 10265 094f 06000000 		.4byte	.LVL193
 10266 0953 0100     		.2byte	0x1
 10267 0955 53       		.byte	0x53
 10268 0956 0A000000 		.4byte	.LVL194
 10269 095a 0C000000 		.4byte	.LVL195
 10270 095e 0100     		.2byte	0x1
 10271 0960 53       		.byte	0x53
 10272 0961 0C000000 		.4byte	.LVL195
 10273 0965 10000000 		.4byte	.LFE144
ARM GAS  C:\Users\jsyoon\AppData\Local\Temp\ccDGobdh.s 			page 183


 10274 0969 0100     		.2byte	0x1
 10275 096b 51       		.byte	0x51
 10276 096c 00000000 		.4byte	0
 10277 0970 00000000 		.4byte	0
 10278              	.LLST47:
 10279 0974 00000000 		.4byte	.LVL196
 10280 0978 0E000000 		.4byte	.LVL200
 10281 097c 0100     		.2byte	0x1
 10282 097e 51       		.byte	0x51
 10283 097f 0E000000 		.4byte	.LVL200
 10284 0983 14000000 		.4byte	.LFE145
 10285 0987 0400     		.2byte	0x4
 10286 0989 F3       		.byte	0xf3
 10287 098a 01       		.uleb128 0x1
 10288 098b 51       		.byte	0x51
 10289 098c 9F       		.byte	0x9f
 10290 098d 00000000 		.4byte	0
 10291 0991 00000000 		.4byte	0
 10292              	.LLST48:
 10293 0995 00000000 		.4byte	.LVL196
 10294 0999 02000000 		.4byte	.LVL197
 10295 099d 0200     		.2byte	0x2
 10296 099f 30       		.byte	0x30
 10297 09a0 9F       		.byte	0x9f
 10298 09a1 02000000 		.4byte	.LVL197
 10299 09a5 06000000 		.4byte	.LVL198
 10300 09a9 0100     		.2byte	0x1
 10301 09ab 53       		.byte	0x53
 10302 09ac 0A000000 		.4byte	.LVL199
 10303 09b0 10000000 		.4byte	.LVL201
 10304 09b4 0100     		.2byte	0x1
 10305 09b6 53       		.byte	0x53
 10306 09b7 10000000 		.4byte	.LVL201
 10307 09bb 14000000 		.4byte	.LFE145
 10308 09bf 0100     		.2byte	0x1
 10309 09c1 51       		.byte	0x51
 10310 09c2 00000000 		.4byte	0
 10311 09c6 00000000 		.4byte	0
 10312              	.LLST49:
 10313 09ca 00000000 		.4byte	.LVL202
 10314 09ce 0C000000 		.4byte	.LVL206
 10315 09d2 0100     		.2byte	0x1
 10316 09d4 51       		.byte	0x51
 10317 09d5 0C000000 		.4byte	.LVL206
 10318 09d9 10000000 		.4byte	.LFE146
 10319 09dd 0400     		.2byte	0x4
 10320 09df F3       		.byte	0xf3
 10321 09e0 01       		.uleb128 0x1
 10322 09e1 51       		.byte	0x51
 10323 09e2 9F       		.byte	0x9f
 10324 09e3 00000000 		.4byte	0
 10325 09e7 00000000 		.4byte	0
 10326              	.LLST50:
 10327 09eb 00000000 		.4byte	.LVL202
 10328 09ef 02000000 		.4byte	.LVL203
 10329 09f3 0200     		.2byte	0x2
 10330 09f5 30       		.byte	0x30
ARM GAS  C:\Users\jsyoon\AppData\Local\Temp\ccDGobdh.s 			page 184


 10331 09f6 9F       		.byte	0x9f
 10332 09f7 02000000 		.4byte	.LVL203
 10333 09fb 06000000 		.4byte	.LVL204
 10334 09ff 0100     		.2byte	0x1
 10335 0a01 53       		.byte	0x53
 10336 0a02 0A000000 		.4byte	.LVL205
 10337 0a06 0C000000 		.4byte	.LVL206
 10338 0a0a 0100     		.2byte	0x1
 10339 0a0c 53       		.byte	0x53
 10340 0a0d 0C000000 		.4byte	.LVL206
 10341 0a11 10000000 		.4byte	.LFE146
 10342 0a15 0100     		.2byte	0x1
 10343 0a17 51       		.byte	0x51
 10344 0a18 00000000 		.4byte	0
 10345 0a1c 00000000 		.4byte	0
 10346              	.LLST51:
 10347 0a20 00000000 		.4byte	.LVL207
 10348 0a24 0E000000 		.4byte	.LVL211
 10349 0a28 0100     		.2byte	0x1
 10350 0a2a 51       		.byte	0x51
 10351 0a2b 0E000000 		.4byte	.LVL211
 10352 0a2f 14000000 		.4byte	.LFE147
 10353 0a33 0400     		.2byte	0x4
 10354 0a35 F3       		.byte	0xf3
 10355 0a36 01       		.uleb128 0x1
 10356 0a37 51       		.byte	0x51
 10357 0a38 9F       		.byte	0x9f
 10358 0a39 00000000 		.4byte	0
 10359 0a3d 00000000 		.4byte	0
 10360              	.LLST52:
 10361 0a41 00000000 		.4byte	.LVL207
 10362 0a45 02000000 		.4byte	.LVL208
 10363 0a49 0200     		.2byte	0x2
 10364 0a4b 30       		.byte	0x30
 10365 0a4c 9F       		.byte	0x9f
 10366 0a4d 02000000 		.4byte	.LVL208
 10367 0a51 06000000 		.4byte	.LVL209
 10368 0a55 0100     		.2byte	0x1
 10369 0a57 53       		.byte	0x53
 10370 0a58 0A000000 		.4byte	.LVL210
 10371 0a5c 10000000 		.4byte	.LVL212
 10372 0a60 0100     		.2byte	0x1
 10373 0a62 53       		.byte	0x53
 10374 0a63 10000000 		.4byte	.LVL212
 10375 0a67 14000000 		.4byte	.LFE147
 10376 0a6b 0100     		.2byte	0x1
 10377 0a6d 51       		.byte	0x51
 10378 0a6e 00000000 		.4byte	0
 10379 0a72 00000000 		.4byte	0
 10380              	.LLST53:
 10381 0a76 00000000 		.4byte	.LVL213
 10382 0a7a 0C000000 		.4byte	.LVL217
 10383 0a7e 0100     		.2byte	0x1
 10384 0a80 51       		.byte	0x51
 10385 0a81 0C000000 		.4byte	.LVL217
 10386 0a85 10000000 		.4byte	.LFE148
 10387 0a89 0400     		.2byte	0x4
ARM GAS  C:\Users\jsyoon\AppData\Local\Temp\ccDGobdh.s 			page 185


 10388 0a8b F3       		.byte	0xf3
 10389 0a8c 01       		.uleb128 0x1
 10390 0a8d 51       		.byte	0x51
 10391 0a8e 9F       		.byte	0x9f
 10392 0a8f 00000000 		.4byte	0
 10393 0a93 00000000 		.4byte	0
 10394              	.LLST54:
 10395 0a97 00000000 		.4byte	.LVL213
 10396 0a9b 02000000 		.4byte	.LVL214
 10397 0a9f 0200     		.2byte	0x2
 10398 0aa1 30       		.byte	0x30
 10399 0aa2 9F       		.byte	0x9f
 10400 0aa3 02000000 		.4byte	.LVL214
 10401 0aa7 06000000 		.4byte	.LVL215
 10402 0aab 0100     		.2byte	0x1
 10403 0aad 53       		.byte	0x53
 10404 0aae 0A000000 		.4byte	.LVL216
 10405 0ab2 0C000000 		.4byte	.LVL217
 10406 0ab6 0100     		.2byte	0x1
 10407 0ab8 53       		.byte	0x53
 10408 0ab9 0C000000 		.4byte	.LVL217
 10409 0abd 10000000 		.4byte	.LFE148
 10410 0ac1 0100     		.2byte	0x1
 10411 0ac3 51       		.byte	0x51
 10412 0ac4 00000000 		.4byte	0
 10413 0ac8 00000000 		.4byte	0
 10414              	.LLST55:
 10415 0acc 00000000 		.4byte	.LVL218
 10416 0ad0 0A000000 		.4byte	.LVL221
 10417 0ad4 0100     		.2byte	0x1
 10418 0ad6 51       		.byte	0x51
 10419 0ad7 0A000000 		.4byte	.LVL221
 10420 0adb 10000000 		.4byte	.LFE149
 10421 0adf 0400     		.2byte	0x4
 10422 0ae1 F3       		.byte	0xf3
 10423 0ae2 01       		.uleb128 0x1
 10424 0ae3 51       		.byte	0x51
 10425 0ae4 9F       		.byte	0x9f
 10426 0ae5 00000000 		.4byte	0
 10427 0ae9 00000000 		.4byte	0
 10428              	.LLST56:
 10429 0aed 00000000 		.4byte	.LVL218
 10430 0af1 02000000 		.4byte	.LVL219
 10431 0af5 0200     		.2byte	0x2
 10432 0af7 30       		.byte	0x30
 10433 0af8 9F       		.byte	0x9f
 10434 0af9 02000000 		.4byte	.LVL219
 10435 0afd 0C000000 		.4byte	.LVL222
 10436 0b01 0100     		.2byte	0x1
 10437 0b03 53       		.byte	0x53
 10438 0b04 0C000000 		.4byte	.LVL222
 10439 0b08 10000000 		.4byte	.LFE149
 10440 0b0c 0100     		.2byte	0x1
 10441 0b0e 51       		.byte	0x51
 10442 0b0f 00000000 		.4byte	0
 10443 0b13 00000000 		.4byte	0
 10444              	.LLST57:
ARM GAS  C:\Users\jsyoon\AppData\Local\Temp\ccDGobdh.s 			page 186


 10445 0b17 00000000 		.4byte	.LVL223
 10446 0b1b 0C000000 		.4byte	.LVL227
 10447 0b1f 0100     		.2byte	0x1
 10448 0b21 51       		.byte	0x51
 10449 0b22 0C000000 		.4byte	.LVL227
 10450 0b26 10000000 		.4byte	.LFE150
 10451 0b2a 0400     		.2byte	0x4
 10452 0b2c F3       		.byte	0xf3
 10453 0b2d 01       		.uleb128 0x1
 10454 0b2e 51       		.byte	0x51
 10455 0b2f 9F       		.byte	0x9f
 10456 0b30 00000000 		.4byte	0
 10457 0b34 00000000 		.4byte	0
 10458              	.LLST58:
 10459 0b38 00000000 		.4byte	.LVL223
 10460 0b3c 02000000 		.4byte	.LVL224
 10461 0b40 0200     		.2byte	0x2
 10462 0b42 30       		.byte	0x30
 10463 0b43 9F       		.byte	0x9f
 10464 0b44 02000000 		.4byte	.LVL224
 10465 0b48 06000000 		.4byte	.LVL225
 10466 0b4c 0100     		.2byte	0x1
 10467 0b4e 53       		.byte	0x53
 10468 0b4f 0A000000 		.4byte	.LVL226
 10469 0b53 0C000000 		.4byte	.LVL227
 10470 0b57 0100     		.2byte	0x1
 10471 0b59 53       		.byte	0x53
 10472 0b5a 0C000000 		.4byte	.LVL227
 10473 0b5e 10000000 		.4byte	.LFE150
 10474 0b62 0100     		.2byte	0x1
 10475 0b64 51       		.byte	0x51
 10476 0b65 00000000 		.4byte	0
 10477 0b69 00000000 		.4byte	0
 10478              	.LLST59:
 10479 0b6d 00000000 		.4byte	.LVL228
 10480 0b71 0A000000 		.4byte	.LVL231
 10481 0b75 0100     		.2byte	0x1
 10482 0b77 51       		.byte	0x51
 10483 0b78 0A000000 		.4byte	.LVL231
 10484 0b7c 10000000 		.4byte	.LFE151
 10485 0b80 0400     		.2byte	0x4
 10486 0b82 F3       		.byte	0xf3
 10487 0b83 01       		.uleb128 0x1
 10488 0b84 51       		.byte	0x51
 10489 0b85 9F       		.byte	0x9f
 10490 0b86 00000000 		.4byte	0
 10491 0b8a 00000000 		.4byte	0
 10492              	.LLST60:
 10493 0b8e 00000000 		.4byte	.LVL228
 10494 0b92 02000000 		.4byte	.LVL229
 10495 0b96 0200     		.2byte	0x2
 10496 0b98 30       		.byte	0x30
 10497 0b99 9F       		.byte	0x9f
 10498 0b9a 02000000 		.4byte	.LVL229
 10499 0b9e 0C000000 		.4byte	.LVL232
 10500 0ba2 0100     		.2byte	0x1
 10501 0ba4 53       		.byte	0x53
ARM GAS  C:\Users\jsyoon\AppData\Local\Temp\ccDGobdh.s 			page 187


 10502 0ba5 0C000000 		.4byte	.LVL232
 10503 0ba9 10000000 		.4byte	.LFE151
 10504 0bad 0100     		.2byte	0x1
 10505 0baf 51       		.byte	0x51
 10506 0bb0 00000000 		.4byte	0
 10507 0bb4 00000000 		.4byte	0
 10508              	.LLST61:
 10509 0bb8 00000000 		.4byte	.LVL233
 10510 0bbc 0C000000 		.4byte	.LVL237
 10511 0bc0 0100     		.2byte	0x1
 10512 0bc2 51       		.byte	0x51
 10513 0bc3 0C000000 		.4byte	.LVL237
 10514 0bc7 10000000 		.4byte	.LFE152
 10515 0bcb 0400     		.2byte	0x4
 10516 0bcd F3       		.byte	0xf3
 10517 0bce 01       		.uleb128 0x1
 10518 0bcf 51       		.byte	0x51
 10519 0bd0 9F       		.byte	0x9f
 10520 0bd1 00000000 		.4byte	0
 10521 0bd5 00000000 		.4byte	0
 10522              	.LLST62:
 10523 0bd9 00000000 		.4byte	.LVL233
 10524 0bdd 02000000 		.4byte	.LVL234
 10525 0be1 0200     		.2byte	0x2
 10526 0be3 30       		.byte	0x30
 10527 0be4 9F       		.byte	0x9f
 10528 0be5 02000000 		.4byte	.LVL234
 10529 0be9 06000000 		.4byte	.LVL235
 10530 0bed 0100     		.2byte	0x1
 10531 0bef 53       		.byte	0x53
 10532 0bf0 0A000000 		.4byte	.LVL236
 10533 0bf4 0C000000 		.4byte	.LVL237
 10534 0bf8 0100     		.2byte	0x1
 10535 0bfa 53       		.byte	0x53
 10536 0bfb 0C000000 		.4byte	.LVL237
 10537 0bff 10000000 		.4byte	.LFE152
 10538 0c03 0100     		.2byte	0x1
 10539 0c05 51       		.byte	0x51
 10540 0c06 00000000 		.4byte	0
 10541 0c0a 00000000 		.4byte	0
 10542              	.LLST63:
 10543 0c0e 00000000 		.4byte	.LVL238
 10544 0c12 0C000000 		.4byte	.LVL242
 10545 0c16 0100     		.2byte	0x1
 10546 0c18 51       		.byte	0x51
 10547 0c19 0C000000 		.4byte	.LVL242
 10548 0c1d 10000000 		.4byte	.LFE153
 10549 0c21 0400     		.2byte	0x4
 10550 0c23 F3       		.byte	0xf3
 10551 0c24 01       		.uleb128 0x1
 10552 0c25 51       		.byte	0x51
 10553 0c26 9F       		.byte	0x9f
 10554 0c27 00000000 		.4byte	0
 10555 0c2b 00000000 		.4byte	0
 10556              	.LLST64:
 10557 0c2f 00000000 		.4byte	.LVL238
 10558 0c33 02000000 		.4byte	.LVL239
ARM GAS  C:\Users\jsyoon\AppData\Local\Temp\ccDGobdh.s 			page 188


 10559 0c37 0200     		.2byte	0x2
 10560 0c39 30       		.byte	0x30
 10561 0c3a 9F       		.byte	0x9f
 10562 0c3b 02000000 		.4byte	.LVL239
 10563 0c3f 06000000 		.4byte	.LVL240
 10564 0c43 0100     		.2byte	0x1
 10565 0c45 53       		.byte	0x53
 10566 0c46 0A000000 		.4byte	.LVL241
 10567 0c4a 0C000000 		.4byte	.LVL242
 10568 0c4e 0100     		.2byte	0x1
 10569 0c50 53       		.byte	0x53
 10570 0c51 0C000000 		.4byte	.LVL242
 10571 0c55 10000000 		.4byte	.LFE153
 10572 0c59 0100     		.2byte	0x1
 10573 0c5b 51       		.byte	0x51
 10574 0c5c 00000000 		.4byte	0
 10575 0c60 00000000 		.4byte	0
 10576              	.LLST65:
 10577 0c64 00000000 		.4byte	.LVL243
 10578 0c68 0E000000 		.4byte	.LVL247
 10579 0c6c 0100     		.2byte	0x1
 10580 0c6e 51       		.byte	0x51
 10581 0c6f 0E000000 		.4byte	.LVL247
 10582 0c73 14000000 		.4byte	.LFE154
 10583 0c77 0400     		.2byte	0x4
 10584 0c79 F3       		.byte	0xf3
 10585 0c7a 01       		.uleb128 0x1
 10586 0c7b 51       		.byte	0x51
 10587 0c7c 9F       		.byte	0x9f
 10588 0c7d 00000000 		.4byte	0
 10589 0c81 00000000 		.4byte	0
 10590              	.LLST66:
 10591 0c85 00000000 		.4byte	.LVL243
 10592 0c89 02000000 		.4byte	.LVL244
 10593 0c8d 0200     		.2byte	0x2
 10594 0c8f 30       		.byte	0x30
 10595 0c90 9F       		.byte	0x9f
 10596 0c91 02000000 		.4byte	.LVL244
 10597 0c95 06000000 		.4byte	.LVL245
 10598 0c99 0100     		.2byte	0x1
 10599 0c9b 53       		.byte	0x53
 10600 0c9c 0A000000 		.4byte	.LVL246
 10601 0ca0 10000000 		.4byte	.LVL248
 10602 0ca4 0100     		.2byte	0x1
 10603 0ca6 53       		.byte	0x53
 10604 0ca7 10000000 		.4byte	.LVL248
 10605 0cab 14000000 		.4byte	.LFE154
 10606 0caf 0100     		.2byte	0x1
 10607 0cb1 51       		.byte	0x51
 10608 0cb2 00000000 		.4byte	0
 10609 0cb6 00000000 		.4byte	0
 10610              	.LLST67:
 10611 0cba 00000000 		.4byte	.LVL249
 10612 0cbe 0E000000 		.4byte	.LVL253
 10613 0cc2 0100     		.2byte	0x1
 10614 0cc4 51       		.byte	0x51
 10615 0cc5 0E000000 		.4byte	.LVL253
ARM GAS  C:\Users\jsyoon\AppData\Local\Temp\ccDGobdh.s 			page 189


 10616 0cc9 14000000 		.4byte	.LFE155
 10617 0ccd 0400     		.2byte	0x4
 10618 0ccf F3       		.byte	0xf3
 10619 0cd0 01       		.uleb128 0x1
 10620 0cd1 51       		.byte	0x51
 10621 0cd2 9F       		.byte	0x9f
 10622 0cd3 00000000 		.4byte	0
 10623 0cd7 00000000 		.4byte	0
 10624              	.LLST68:
 10625 0cdb 00000000 		.4byte	.LVL249
 10626 0cdf 02000000 		.4byte	.LVL250
 10627 0ce3 0200     		.2byte	0x2
 10628 0ce5 30       		.byte	0x30
 10629 0ce6 9F       		.byte	0x9f
 10630 0ce7 02000000 		.4byte	.LVL250
 10631 0ceb 06000000 		.4byte	.LVL251
 10632 0cef 0100     		.2byte	0x1
 10633 0cf1 53       		.byte	0x53
 10634 0cf2 0A000000 		.4byte	.LVL252
 10635 0cf6 10000000 		.4byte	.LVL254
 10636 0cfa 0100     		.2byte	0x1
 10637 0cfc 53       		.byte	0x53
 10638 0cfd 10000000 		.4byte	.LVL254
 10639 0d01 14000000 		.4byte	.LFE155
 10640 0d05 0100     		.2byte	0x1
 10641 0d07 51       		.byte	0x51
 10642 0d08 00000000 		.4byte	0
 10643 0d0c 00000000 		.4byte	0
 10644              	.LLST69:
 10645 0d10 00000000 		.4byte	.LVL255
 10646 0d14 0E000000 		.4byte	.LVL259
 10647 0d18 0100     		.2byte	0x1
 10648 0d1a 51       		.byte	0x51
 10649 0d1b 0E000000 		.4byte	.LVL259
 10650 0d1f 14000000 		.4byte	.LFE156
 10651 0d23 0400     		.2byte	0x4
 10652 0d25 F3       		.byte	0xf3
 10653 0d26 01       		.uleb128 0x1
 10654 0d27 51       		.byte	0x51
 10655 0d28 9F       		.byte	0x9f
 10656 0d29 00000000 		.4byte	0
 10657 0d2d 00000000 		.4byte	0
 10658              	.LLST70:
 10659 0d31 00000000 		.4byte	.LVL255
 10660 0d35 02000000 		.4byte	.LVL256
 10661 0d39 0200     		.2byte	0x2
 10662 0d3b 30       		.byte	0x30
 10663 0d3c 9F       		.byte	0x9f
 10664 0d3d 02000000 		.4byte	.LVL256
 10665 0d41 06000000 		.4byte	.LVL257
 10666 0d45 0100     		.2byte	0x1
 10667 0d47 53       		.byte	0x53
 10668 0d48 0A000000 		.4byte	.LVL258
 10669 0d4c 10000000 		.4byte	.LVL260
 10670 0d50 0100     		.2byte	0x1
 10671 0d52 53       		.byte	0x53
 10672 0d53 10000000 		.4byte	.LVL260
ARM GAS  C:\Users\jsyoon\AppData\Local\Temp\ccDGobdh.s 			page 190


 10673 0d57 14000000 		.4byte	.LFE156
 10674 0d5b 0100     		.2byte	0x1
 10675 0d5d 51       		.byte	0x51
 10676 0d5e 00000000 		.4byte	0
 10677 0d62 00000000 		.4byte	0
 10678              	.LLST71:
 10679 0d66 00000000 		.4byte	.LVL261
 10680 0d6a 0E000000 		.4byte	.LVL265
 10681 0d6e 0100     		.2byte	0x1
 10682 0d70 51       		.byte	0x51
 10683 0d71 0E000000 		.4byte	.LVL265
 10684 0d75 14000000 		.4byte	.LFE157
 10685 0d79 0400     		.2byte	0x4
 10686 0d7b F3       		.byte	0xf3
 10687 0d7c 01       		.uleb128 0x1
 10688 0d7d 51       		.byte	0x51
 10689 0d7e 9F       		.byte	0x9f
 10690 0d7f 00000000 		.4byte	0
 10691 0d83 00000000 		.4byte	0
 10692              	.LLST72:
 10693 0d87 00000000 		.4byte	.LVL261
 10694 0d8b 02000000 		.4byte	.LVL262
 10695 0d8f 0200     		.2byte	0x2
 10696 0d91 30       		.byte	0x30
 10697 0d92 9F       		.byte	0x9f
 10698 0d93 02000000 		.4byte	.LVL262
 10699 0d97 06000000 		.4byte	.LVL263
 10700 0d9b 0100     		.2byte	0x1
 10701 0d9d 53       		.byte	0x53
 10702 0d9e 0A000000 		.4byte	.LVL264
 10703 0da2 10000000 		.4byte	.LVL266
 10704 0da6 0100     		.2byte	0x1
 10705 0da8 53       		.byte	0x53
 10706 0da9 10000000 		.4byte	.LVL266
 10707 0dad 14000000 		.4byte	.LFE157
 10708 0db1 0100     		.2byte	0x1
 10709 0db3 51       		.byte	0x51
 10710 0db4 00000000 		.4byte	0
 10711 0db8 00000000 		.4byte	0
 10712              	.LLST73:
 10713 0dbc 00000000 		.4byte	.LVL267
 10714 0dc0 0E000000 		.4byte	.LVL271
 10715 0dc4 0100     		.2byte	0x1
 10716 0dc6 51       		.byte	0x51
 10717 0dc7 0E000000 		.4byte	.LVL271
 10718 0dcb 14000000 		.4byte	.LFE158
 10719 0dcf 0400     		.2byte	0x4
 10720 0dd1 F3       		.byte	0xf3
 10721 0dd2 01       		.uleb128 0x1
 10722 0dd3 51       		.byte	0x51
 10723 0dd4 9F       		.byte	0x9f
 10724 0dd5 00000000 		.4byte	0
 10725 0dd9 00000000 		.4byte	0
 10726              	.LLST74:
 10727 0ddd 00000000 		.4byte	.LVL267
 10728 0de1 02000000 		.4byte	.LVL268
 10729 0de5 0200     		.2byte	0x2
ARM GAS  C:\Users\jsyoon\AppData\Local\Temp\ccDGobdh.s 			page 191


 10730 0de7 30       		.byte	0x30
 10731 0de8 9F       		.byte	0x9f
 10732 0de9 02000000 		.4byte	.LVL268
 10733 0ded 06000000 		.4byte	.LVL269
 10734 0df1 0100     		.2byte	0x1
 10735 0df3 53       		.byte	0x53
 10736 0df4 0A000000 		.4byte	.LVL270
 10737 0df8 10000000 		.4byte	.LVL272
 10738 0dfc 0100     		.2byte	0x1
 10739 0dfe 53       		.byte	0x53
 10740 0dff 10000000 		.4byte	.LVL272
 10741 0e03 14000000 		.4byte	.LFE158
 10742 0e07 0100     		.2byte	0x1
 10743 0e09 51       		.byte	0x51
 10744 0e0a 00000000 		.4byte	0
 10745 0e0e 00000000 		.4byte	0
 10746              	.LLST75:
 10747 0e12 00000000 		.4byte	.LVL273
 10748 0e16 18000000 		.4byte	.LVL274
 10749 0e1a 0100     		.2byte	0x1
 10750 0e1c 52       		.byte	0x52
 10751 0e1d 18000000 		.4byte	.LVL274
 10752 0e21 20000000 		.4byte	.LFE159
 10753 0e25 0400     		.2byte	0x4
 10754 0e27 F3       		.byte	0xf3
 10755 0e28 01       		.uleb128 0x1
 10756 0e29 52       		.byte	0x52
 10757 0e2a 9F       		.byte	0x9f
 10758 0e2b 00000000 		.4byte	0
 10759 0e2f 00000000 		.4byte	0
 10760              	.LLST76:
 10761 0e33 00000000 		.4byte	.LVL275
 10762 0e37 18000000 		.4byte	.LVL276
 10763 0e3b 0100     		.2byte	0x1
 10764 0e3d 52       		.byte	0x52
 10765 0e3e 18000000 		.4byte	.LVL276
 10766 0e42 20000000 		.4byte	.LFE160
 10767 0e46 0400     		.2byte	0x4
 10768 0e48 F3       		.byte	0xf3
 10769 0e49 01       		.uleb128 0x1
 10770 0e4a 52       		.byte	0x52
 10771 0e4b 9F       		.byte	0x9f
 10772 0e4c 00000000 		.4byte	0
 10773 0e50 00000000 		.4byte	0
 10774              	.LLST77:
 10775 0e54 00000000 		.4byte	.LVL277
 10776 0e58 20000000 		.4byte	.LVL279
 10777 0e5c 0100     		.2byte	0x1
 10778 0e5e 51       		.byte	0x51
 10779 0e5f 20000000 		.4byte	.LVL279
 10780 0e63 6E000000 		.4byte	.LVL290
 10781 0e67 0400     		.2byte	0x4
 10782 0e69 F3       		.byte	0xf3
 10783 0e6a 01       		.uleb128 0x1
 10784 0e6b 51       		.byte	0x51
 10785 0e6c 9F       		.byte	0x9f
 10786 0e6d 6E000000 		.4byte	.LVL290
ARM GAS  C:\Users\jsyoon\AppData\Local\Temp\ccDGobdh.s 			page 192


 10787 0e71 78000000 		.4byte	.LVL293
 10788 0e75 0100     		.2byte	0x1
 10789 0e77 51       		.byte	0x51
 10790 0e78 78000000 		.4byte	.LVL293
 10791 0e7c BE000000 		.4byte	.LVL302
 10792 0e80 0400     		.2byte	0x4
 10793 0e82 F3       		.byte	0xf3
 10794 0e83 01       		.uleb128 0x1
 10795 0e84 51       		.byte	0x51
 10796 0e85 9F       		.byte	0x9f
 10797 0e86 BE000000 		.4byte	.LVL302
 10798 0e8a C8000000 		.4byte	.LVL304
 10799 0e8e 0100     		.2byte	0x1
 10800 0e90 51       		.byte	0x51
 10801 0e91 C8000000 		.4byte	.LVL304
 10802 0e95 1A010000 		.4byte	.LVL315
 10803 0e99 0400     		.2byte	0x4
 10804 0e9b F3       		.byte	0xf3
 10805 0e9c 01       		.uleb128 0x1
 10806 0e9d 51       		.byte	0x51
 10807 0e9e 9F       		.byte	0x9f
 10808 0e9f 1A010000 		.4byte	.LVL315
 10809 0ea3 2E010000 		.4byte	.LVL317
 10810 0ea7 0100     		.2byte	0x1
 10811 0ea9 51       		.byte	0x51
 10812 0eaa 2E010000 		.4byte	.LVL317
 10813 0eae 68010000 		.4byte	.LFE161
 10814 0eb2 0400     		.2byte	0x4
 10815 0eb4 F3       		.byte	0xf3
 10816 0eb5 01       		.uleb128 0x1
 10817 0eb6 51       		.byte	0x51
 10818 0eb7 9F       		.byte	0x9f
 10819 0eb8 00000000 		.4byte	0
 10820 0ebc 00000000 		.4byte	0
 10821              	.LLST78:
 10822 0ec0 28010000 		.4byte	.LVL316
 10823 0ec4 2E010000 		.4byte	.LVL317
 10824 0ec8 0200     		.2byte	0x2
 10825 0eca 71       		.byte	0x71
 10826 0ecb 08       		.sleb128 8
 10827 0ecc 2E010000 		.4byte	.LVL317
 10828 0ed0 68010000 		.4byte	.LFE161
 10829 0ed4 0100     		.2byte	0x1
 10830 0ed6 56       		.byte	0x56
 10831 0ed7 00000000 		.4byte	0
 10832 0edb 00000000 		.4byte	0
 10833              	.LLST79:
 10834 0edf 28010000 		.4byte	.LVL316
 10835 0ee3 2E010000 		.4byte	.LVL317
 10836 0ee7 0200     		.2byte	0x2
 10837 0ee9 71       		.byte	0x71
 10838 0eea 04       		.sleb128 4
 10839 0eeb 2E010000 		.4byte	.LVL317
 10840 0eef 68010000 		.4byte	.LFE161
 10841 0ef3 0100     		.2byte	0x1
 10842 0ef5 54       		.byte	0x54
 10843 0ef6 00000000 		.4byte	0
ARM GAS  C:\Users\jsyoon\AppData\Local\Temp\ccDGobdh.s 			page 193


 10844 0efa 00000000 		.4byte	0
 10845              	.LLST80:
 10846 0efe 28010000 		.4byte	.LVL316
 10847 0f02 2E010000 		.4byte	.LVL317
 10848 0f06 0200     		.2byte	0x2
 10849 0f08 71       		.byte	0x71
 10850 0f09 02       		.sleb128 2
 10851 0f0a 2E010000 		.4byte	.LVL317
 10852 0f0e 68010000 		.4byte	.LFE161
 10853 0f12 0100     		.2byte	0x1
 10854 0f14 55       		.byte	0x55
 10855 0f15 00000000 		.4byte	0
 10856 0f19 00000000 		.4byte	0
 10857              	.LLST81:
 10858 0f1d 28010000 		.4byte	.LVL316
 10859 0f21 32010000 		.4byte	.LVL318
 10860 0f25 0200     		.2byte	0x2
 10861 0f27 30       		.byte	0x30
 10862 0f28 9F       		.byte	0x9f
 10863 0f29 32010000 		.4byte	.LVL318
 10864 0f2d 34010000 		.4byte	.LVL319
 10865 0f31 0100     		.2byte	0x1
 10866 0f33 51       		.byte	0x51
 10867 0f34 34010000 		.4byte	.LVL319
 10868 0f38 38010000 		.4byte	.LVL320
 10869 0f3c 0700     		.2byte	0x7
 10870 0f3e 71       		.byte	0x71
 10871 0f3f 00       		.sleb128 0
 10872 0f40 0B       		.byte	0xb
 10873 0f41 0CFF     		.2byte	0xff0c
 10874 0f43 1A       		.byte	0x1a
 10875 0f44 9F       		.byte	0x9f
 10876 0f45 4E010000 		.4byte	.LVL322
 10877 0f49 68010000 		.4byte	.LFE161
 10878 0f4d 0100     		.2byte	0x1
 10879 0f4f 51       		.byte	0x51
 10880 0f50 00000000 		.4byte	0
 10881 0f54 00000000 		.4byte	0
 10882              	.LLST82:
 10883 0f58 28010000 		.4byte	.LVL316
 10884 0f5c 34010000 		.4byte	.LVL319
 10885 0f60 0200     		.2byte	0x2
 10886 0f62 30       		.byte	0x30
 10887 0f63 9F       		.byte	0x9f
 10888 0f64 34010000 		.4byte	.LVL319
 10889 0f68 3C010000 		.4byte	.LVL321
 10890 0f6c 0100     		.2byte	0x1
 10891 0f6e 53       		.byte	0x53
 10892 0f6f 4E010000 		.4byte	.LVL322
 10893 0f73 54010000 		.4byte	.LVL323
 10894 0f77 0100     		.2byte	0x1
 10895 0f79 53       		.byte	0x53
 10896 0f7a 00000000 		.4byte	0
 10897 0f7e 00000000 		.4byte	0
 10898              	.LLST83:
 10899 0f82 28010000 		.4byte	.LVL316
 10900 0f86 34010000 		.4byte	.LVL319
ARM GAS  C:\Users\jsyoon\AppData\Local\Temp\ccDGobdh.s 			page 194


 10901 0f8a 0200     		.2byte	0x2
 10902 0f8c 30       		.byte	0x30
 10903 0f8d 9F       		.byte	0x9f
 10904 0f8e 34010000 		.4byte	.LVL319
 10905 0f92 68010000 		.4byte	.LFE161
 10906 0f96 0500     		.2byte	0x5
 10907 0f98 75       		.byte	0x75
 10908 0f99 00       		.sleb128 0
 10909 0f9a 38       		.byte	0x38
 10910 0f9b 24       		.byte	0x24
 10911 0f9c 9F       		.byte	0x9f
 10912 0f9d 00000000 		.4byte	0
 10913 0fa1 00000000 		.4byte	0
 10914              	.LLST84:
 10915 0fa5 1A000000 		.4byte	.LVL278
 10916 0fa9 20000000 		.4byte	.LVL279
 10917 0fad 0200     		.2byte	0x2
 10918 0faf 71       		.byte	0x71
 10919 0fb0 08       		.sleb128 8
 10920 0fb1 20000000 		.4byte	.LVL279
 10921 0fb5 6A000000 		.4byte	.LVL289
 10922 0fb9 0100     		.2byte	0x1
 10923 0fbb 55       		.byte	0x55
 10924 0fbc 00000000 		.4byte	0
 10925 0fc0 00000000 		.4byte	0
 10926              	.LLST85:
 10927 0fc4 1A000000 		.4byte	.LVL278
 10928 0fc8 20000000 		.4byte	.LVL279
 10929 0fcc 0200     		.2byte	0x2
 10930 0fce 71       		.byte	0x71
 10931 0fcf 04       		.sleb128 4
 10932 0fd0 20000000 		.4byte	.LVL279
 10933 0fd4 6A000000 		.4byte	.LVL289
 10934 0fd8 0100     		.2byte	0x1
 10935 0fda 57       		.byte	0x57
 10936 0fdb 00000000 		.4byte	0
 10937 0fdf 00000000 		.4byte	0
 10938              	.LLST86:
 10939 0fe3 1A000000 		.4byte	.LVL278
 10940 0fe7 20000000 		.4byte	.LVL279
 10941 0feb 0200     		.2byte	0x2
 10942 0fed 71       		.byte	0x71
 10943 0fee 02       		.sleb128 2
 10944 0fef 20000000 		.4byte	.LVL279
 10945 0ff3 6A000000 		.4byte	.LVL289
 10946 0ff7 0100     		.2byte	0x1
 10947 0ff9 56       		.byte	0x56
 10948 0ffa 00000000 		.4byte	0
 10949 0ffe 00000000 		.4byte	0
 10950              	.LLST87:
 10951 1002 1A000000 		.4byte	.LVL278
 10952 1006 6A000000 		.4byte	.LVL289
 10953 100a 0100     		.2byte	0x1
 10954 100c 50       		.byte	0x50
 10955 100d 00000000 		.4byte	0
 10956 1011 00000000 		.4byte	0
 10957              	.LLST88:
ARM GAS  C:\Users\jsyoon\AppData\Local\Temp\ccDGobdh.s 			page 195


 10958 1015 1A000000 		.4byte	.LVL278
 10959 1019 28000000 		.4byte	.LVL280
 10960 101d 0200     		.2byte	0x2
 10961 101f 30       		.byte	0x30
 10962 1020 9F       		.byte	0x9f
 10963 1021 28000000 		.4byte	.LVL280
 10964 1025 2E000000 		.4byte	.LVL282
 10965 1029 0100     		.2byte	0x1
 10966 102b 52       		.byte	0x52
 10967 102c 38000000 		.4byte	.LVL284
 10968 1030 46000000 		.4byte	.LVL286
 10969 1034 0100     		.2byte	0x1
 10970 1036 52       		.byte	0x52
 10971 1037 4E000000 		.4byte	.LVL287
 10972 103b 6A000000 		.4byte	.LVL289
 10973 103f 0100     		.2byte	0x1
 10974 1041 52       		.byte	0x52
 10975 1042 00000000 		.4byte	0
 10976 1046 00000000 		.4byte	0
 10977              	.LLST89:
 10978 104a 1A000000 		.4byte	.LVL278
 10979 104e 2A000000 		.4byte	.LVL281
 10980 1052 0200     		.2byte	0x2
 10981 1054 30       		.byte	0x30
 10982 1055 9F       		.byte	0x9f
 10983 1056 2A000000 		.4byte	.LVL281
 10984 105a 32000000 		.4byte	.LVL283
 10985 105e 0100     		.2byte	0x1
 10986 1060 53       		.byte	0x53
 10987 1061 4E000000 		.4byte	.LVL287
 10988 1065 54000000 		.4byte	.LVL288
 10989 1069 0100     		.2byte	0x1
 10990 106b 53       		.byte	0x53
 10991 106c 00000000 		.4byte	0
 10992 1070 00000000 		.4byte	0
 10993              	.LLST90:
 10994 1074 1A000000 		.4byte	.LVL278
 10995 1078 2A000000 		.4byte	.LVL281
 10996 107c 0200     		.2byte	0x2
 10997 107e 30       		.byte	0x30
 10998 107f 9F       		.byte	0x9f
 10999 1080 2A000000 		.4byte	.LVL281
 11000 1084 6A000000 		.4byte	.LVL289
 11001 1088 0500     		.2byte	0x5
 11002 108a 76       		.byte	0x76
 11003 108b 00       		.sleb128 0
 11004 108c 3C       		.byte	0x3c
 11005 108d 24       		.byte	0x24
 11006 108e 9F       		.byte	0x9f
 11007 108f 00000000 		.4byte	0
 11008 1093 00000000 		.4byte	0
 11009              	.LLST91:
 11010 1097 4E000000 		.4byte	.LVL287
 11011 109b 6A000000 		.4byte	.LVL289
 11012 109f 0100     		.2byte	0x1
 11013 10a1 54       		.byte	0x54
 11014 10a2 00000000 		.4byte	0
ARM GAS  C:\Users\jsyoon\AppData\Local\Temp\ccDGobdh.s 			page 196


 11015 10a6 00000000 		.4byte	0
 11016              	.LLST92:
 11017 10aa 4E000000 		.4byte	.LVL287
 11018 10ae 6A000000 		.4byte	.LVL289
 11019 10b2 0100     		.2byte	0x1
 11020 10b4 50       		.byte	0x50
 11021 10b5 00000000 		.4byte	0
 11022 10b9 00000000 		.4byte	0
 11023              	.LLST93:
 11024 10bd 76000000 		.4byte	.LVL292
 11025 10c1 78000000 		.4byte	.LVL293
 11026 10c5 0200     		.2byte	0x2
 11027 10c7 71       		.byte	0x71
 11028 10c8 08       		.sleb128 8
 11029 10c9 78000000 		.4byte	.LVL293
 11030 10cd BC000000 		.4byte	.LVL301
 11031 10d1 0100     		.2byte	0x1
 11032 10d3 56       		.byte	0x56
 11033 10d4 00000000 		.4byte	0
 11034 10d8 00000000 		.4byte	0
 11035              	.LLST94:
 11036 10dc 76000000 		.4byte	.LVL292
 11037 10e0 78000000 		.4byte	.LVL293
 11038 10e4 0200     		.2byte	0x2
 11039 10e6 71       		.byte	0x71
 11040 10e7 04       		.sleb128 4
 11041 10e8 78000000 		.4byte	.LVL293
 11042 10ec BC000000 		.4byte	.LVL301
 11043 10f0 0100     		.2byte	0x1
 11044 10f2 55       		.byte	0x55
 11045 10f3 00000000 		.4byte	0
 11046 10f7 00000000 		.4byte	0
 11047              	.LLST95:
 11048 10fb 76000000 		.4byte	.LVL292
 11049 10ff 78000000 		.4byte	.LVL293
 11050 1103 0200     		.2byte	0x2
 11051 1105 71       		.byte	0x71
 11052 1106 02       		.sleb128 2
 11053 1107 78000000 		.4byte	.LVL293
 11054 110b 9A000000 		.4byte	.LVL297
 11055 110f 0100     		.2byte	0x1
 11056 1111 54       		.byte	0x54
 11057 1112 9A000000 		.4byte	.LVL297
 11058 1116 BA000000 		.4byte	.LVL300
 11059 111a 0500     		.2byte	0x5
 11060 111c F3       		.byte	0xf3
 11061 111d 01       		.uleb128 0x1
 11062 111e 51       		.byte	0x51
 11063 111f 23       		.byte	0x23
 11064 1120 02       		.uleb128 0x2
 11065 1121 00000000 		.4byte	0
 11066 1125 00000000 		.4byte	0
 11067              	.LLST96:
 11068 1129 74000000 		.4byte	.LVL291
 11069 112d BE000000 		.4byte	.LVL302
 11070 1131 0100     		.2byte	0x1
 11071 1133 50       		.byte	0x50
ARM GAS  C:\Users\jsyoon\AppData\Local\Temp\ccDGobdh.s 			page 197


 11072 1134 00000000 		.4byte	0
 11073 1138 00000000 		.4byte	0
 11074              	.LLST97:
 11075 113c 76000000 		.4byte	.LVL292
 11076 1140 88000000 		.4byte	.LVL294
 11077 1144 0200     		.2byte	0x2
 11078 1146 30       		.byte	0x30
 11079 1147 9F       		.byte	0x9f
 11080 1148 88000000 		.4byte	.LVL294
 11081 114c 8C000000 		.4byte	.LVL295
 11082 1150 0700     		.2byte	0x7
 11083 1152 72       		.byte	0x72
 11084 1153 00       		.sleb128 0
 11085 1154 0B       		.byte	0xb
 11086 1155 0CFF     		.2byte	0xff0c
 11087 1157 1A       		.byte	0x1a
 11088 1158 9F       		.byte	0x9f
 11089 1159 A2000000 		.4byte	.LVL298
 11090 115d BE000000 		.4byte	.LVL302
 11091 1161 0100     		.2byte	0x1
 11092 1163 52       		.byte	0x52
 11093 1164 00000000 		.4byte	0
 11094 1168 00000000 		.4byte	0
 11095              	.LLST98:
 11096 116c 76000000 		.4byte	.LVL292
 11097 1170 88000000 		.4byte	.LVL294
 11098 1174 0200     		.2byte	0x2
 11099 1176 30       		.byte	0x30
 11100 1177 9F       		.byte	0x9f
 11101 1178 88000000 		.4byte	.LVL294
 11102 117c 90000000 		.4byte	.LVL296
 11103 1180 0100     		.2byte	0x1
 11104 1182 53       		.byte	0x53
 11105 1183 A2000000 		.4byte	.LVL298
 11106 1187 A8000000 		.4byte	.LVL299
 11107 118b 0100     		.2byte	0x1
 11108 118d 53       		.byte	0x53
 11109 118e 00000000 		.4byte	0
 11110 1192 00000000 		.4byte	0
 11111              	.LLST99:
 11112 1196 A2000000 		.4byte	.LVL298
 11113 119a BE000000 		.4byte	.LVL302
 11114 119e 0100     		.2byte	0x1
 11115 11a0 51       		.byte	0x51
 11116 11a1 00000000 		.4byte	0
 11117 11a5 00000000 		.4byte	0
 11118              	.LLST100:
 11119 11a9 A2000000 		.4byte	.LVL298
 11120 11ad BE000000 		.4byte	.LVL302
 11121 11b1 0100     		.2byte	0x1
 11122 11b3 50       		.byte	0x50
 11123 11b4 00000000 		.4byte	0
 11124 11b8 00000000 		.4byte	0
 11125              	.LLST101:
 11126 11bc C6000000 		.4byte	.LVL303
 11127 11c0 C8000000 		.4byte	.LVL304
 11128 11c4 0200     		.2byte	0x2
ARM GAS  C:\Users\jsyoon\AppData\Local\Temp\ccDGobdh.s 			page 198


 11129 11c6 71       		.byte	0x71
 11130 11c7 08       		.sleb128 8
 11131 11c8 C8000000 		.4byte	.LVL304
 11132 11cc 18010000 		.4byte	.LVL314
 11133 11d0 0100     		.2byte	0x1
 11134 11d2 57       		.byte	0x57
 11135 11d3 00000000 		.4byte	0
 11136 11d7 00000000 		.4byte	0
 11137              	.LLST102:
 11138 11db C6000000 		.4byte	.LVL303
 11139 11df C8000000 		.4byte	.LVL304
 11140 11e3 0200     		.2byte	0x2
 11141 11e5 71       		.byte	0x71
 11142 11e6 04       		.sleb128 4
 11143 11e7 C8000000 		.4byte	.LVL304
 11144 11eb 18010000 		.4byte	.LVL314
 11145 11ef 0100     		.2byte	0x1
 11146 11f1 54       		.byte	0x54
 11147 11f2 00000000 		.4byte	0
 11148 11f6 00000000 		.4byte	0
 11149              	.LLST103:
 11150 11fa C6000000 		.4byte	.LVL303
 11151 11fe C8000000 		.4byte	.LVL304
 11152 1202 0200     		.2byte	0x2
 11153 1204 71       		.byte	0x71
 11154 1205 02       		.sleb128 2
 11155 1206 C8000000 		.4byte	.LVL304
 11156 120a 18010000 		.4byte	.LVL314
 11157 120e 0100     		.2byte	0x1
 11158 1210 56       		.byte	0x56
 11159 1211 00000000 		.4byte	0
 11160 1215 00000000 		.4byte	0
 11161              	.LLST104:
 11162 1219 C6000000 		.4byte	.LVL303
 11163 121d 1A010000 		.4byte	.LVL315
 11164 1221 0100     		.2byte	0x1
 11165 1223 50       		.byte	0x50
 11166 1224 00000000 		.4byte	0
 11167 1228 00000000 		.4byte	0
 11168              	.LLST105:
 11169 122c C6000000 		.4byte	.LVL303
 11170 1230 D4000000 		.4byte	.LVL305
 11171 1234 0200     		.2byte	0x2
 11172 1236 30       		.byte	0x30
 11173 1237 9F       		.byte	0x9f
 11174 1238 D4000000 		.4byte	.LVL305
 11175 123c DA000000 		.4byte	.LVL306
 11176 1240 0100     		.2byte	0x1
 11177 1242 53       		.byte	0x53
 11178 1243 E0000000 		.4byte	.LVL307
 11179 1247 EC000000 		.4byte	.LVL309
 11180 124b 0100     		.2byte	0x1
 11181 124d 53       		.byte	0x53
 11182 124e EE000000 		.4byte	.LVL310
 11183 1252 F2000000 		.4byte	.LVL311
 11184 1256 0100     		.2byte	0x1
 11185 1258 52       		.byte	0x52
ARM GAS  C:\Users\jsyoon\AppData\Local\Temp\ccDGobdh.s 			page 199


 11186 1259 FA000000 		.4byte	.LVL312
 11187 125d 1A010000 		.4byte	.LVL315
 11188 1261 0100     		.2byte	0x1
 11189 1263 52       		.byte	0x52
 11190 1264 00000000 		.4byte	0
 11191 1268 00000000 		.4byte	0
 11192              	.LLST106:
 11193 126c C6000000 		.4byte	.LVL303
 11194 1270 E0000000 		.4byte	.LVL307
 11195 1274 0200     		.2byte	0x2
 11196 1276 30       		.byte	0x30
 11197 1277 9F       		.byte	0x9f
 11198 1278 E0000000 		.4byte	.LVL307
 11199 127c E8000000 		.4byte	.LVL308
 11200 1280 0100     		.2byte	0x1
 11201 1282 55       		.byte	0x55
 11202 1283 FA000000 		.4byte	.LVL312
 11203 1287 00010000 		.4byte	.LVL313
 11204 128b 0100     		.2byte	0x1
 11205 128d 53       		.byte	0x53
 11206 128e 00010000 		.4byte	.LVL313
 11207 1292 18010000 		.4byte	.LVL314
 11208 1296 0E00     		.2byte	0xe
 11209 1298 76       		.byte	0x76
 11210 1299 00       		.sleb128 0
 11211 129a 34       		.byte	0x34
 11212 129b 24       		.byte	0x24
 11213 129c 75       		.byte	0x75
 11214 129d 00       		.sleb128 0
 11215 129e 21       		.byte	0x21
 11216 129f 0A       		.byte	0xa
 11217 12a0 FFFF     		.2byte	0xffff
 11218 12a2 1A       		.byte	0x1a
 11219 12a3 40       		.byte	0x40
 11220 12a4 21       		.byte	0x21
 11221 12a5 9F       		.byte	0x9f
 11222 12a6 00000000 		.4byte	0
 11223 12aa 00000000 		.4byte	0
 11224              	.LLST107:
 11225 12ae C6000000 		.4byte	.LVL303
 11226 12b2 E0000000 		.4byte	.LVL307
 11227 12b6 0200     		.2byte	0x2
 11228 12b8 30       		.byte	0x30
 11229 12b9 9F       		.byte	0x9f
 11230 12ba E0000000 		.4byte	.LVL307
 11231 12be 18010000 		.4byte	.LVL314
 11232 12c2 0500     		.2byte	0x5
 11233 12c4 76       		.byte	0x76
 11234 12c5 00       		.sleb128 0
 11235 12c6 34       		.byte	0x34
 11236 12c7 24       		.byte	0x24
 11237 12c8 9F       		.byte	0x9f
 11238 12c9 00000000 		.4byte	0
 11239 12cd 00000000 		.4byte	0
 11240              	.LLST108:
 11241 12d1 FA000000 		.4byte	.LVL312
 11242 12d5 1A010000 		.4byte	.LVL315
ARM GAS  C:\Users\jsyoon\AppData\Local\Temp\ccDGobdh.s 			page 200


 11243 12d9 0100     		.2byte	0x1
 11244 12db 51       		.byte	0x51
 11245 12dc 00000000 		.4byte	0
 11246 12e0 00000000 		.4byte	0
 11247              	.LLST109:
 11248 12e4 FA000000 		.4byte	.LVL312
 11249 12e8 1A010000 		.4byte	.LVL315
 11250 12ec 0100     		.2byte	0x1
 11251 12ee 50       		.byte	0x50
 11252 12ef 00000000 		.4byte	0
 11253 12f3 00000000 		.4byte	0
 11254              	.LLST110:
 11255 12f7 00000000 		.4byte	.LVL325
 11256 12fb 10000000 		.4byte	.LVL326
 11257 12ff 0100     		.2byte	0x1
 11258 1301 51       		.byte	0x51
 11259 1302 10000000 		.4byte	.LVL326
 11260 1306 4E010000 		.4byte	.LFE163
 11261 130a 0400     		.2byte	0x4
 11262 130c F3       		.byte	0xf3
 11263 130d 01       		.uleb128 0x1
 11264 130e 51       		.byte	0x51
 11265 130f 9F       		.byte	0x9f
 11266 1310 00000000 		.4byte	0
 11267 1314 00000000 		.4byte	0
 11268              	.LLST111:
 11269 1318 00000000 		.4byte	.LVL325
 11270 131c 18000000 		.4byte	.LVL327
 11271 1320 0200     		.2byte	0x2
 11272 1322 30       		.byte	0x30
 11273 1323 9F       		.byte	0x9f
 11274 1324 18000000 		.4byte	.LVL327
 11275 1328 9C000000 		.4byte	.LVL345
 11276 132c 0100     		.2byte	0x1
 11277 132e 56       		.byte	0x56
 11278 132f 9C000000 		.4byte	.LVL345
 11279 1333 B8000000 		.4byte	.LVL349
 11280 1337 1500     		.2byte	0x15
 11281 1339 30       		.byte	0x30
 11282 133a 32       		.byte	0x32
 11283 133b F3       		.byte	0xf3
 11284 133c 01       		.uleb128 0x1
 11285 133d 51       		.byte	0x51
 11286 133e 23       		.byte	0x23
 11287 133f 02       		.uleb128 0x2
 11288 1340 94       		.byte	0x94
 11289 1341 02       		.byte	0x2
 11290 1342 0A       		.byte	0xa
 11291 1343 FFFF     		.2byte	0xffff
 11292 1345 1A       		.byte	0x1a
 11293 1346 30       		.byte	0x30
 11294 1347 2E       		.byte	0x2e
 11295 1348 28       		.byte	0x28
 11296 1349 0100     		.2byte	0x1
 11297 134b 16       		.byte	0x16
 11298 134c 13       		.byte	0x13
 11299 134d 9F       		.byte	0x9f
ARM GAS  C:\Users\jsyoon\AppData\Local\Temp\ccDGobdh.s 			page 201


 11300 134e BC000000 		.4byte	.LVL351
 11301 1352 2E010000 		.4byte	.LVL367
 11302 1356 0100     		.2byte	0x1
 11303 1358 56       		.byte	0x56
 11304 1359 2E010000 		.4byte	.LVL367
 11305 135d 4A010000 		.4byte	.LVL370
 11306 1361 1500     		.2byte	0x15
 11307 1363 30       		.byte	0x30
 11308 1364 32       		.byte	0x32
 11309 1365 F3       		.byte	0xf3
 11310 1366 01       		.uleb128 0x1
 11311 1367 51       		.byte	0x51
 11312 1368 23       		.byte	0x23
 11313 1369 02       		.uleb128 0x2
 11314 136a 94       		.byte	0x94
 11315 136b 02       		.byte	0x2
 11316 136c 0A       		.byte	0xa
 11317 136d FFFF     		.2byte	0xffff
 11318 136f 1A       		.byte	0x1a
 11319 1370 30       		.byte	0x30
 11320 1371 2E       		.byte	0x2e
 11321 1372 28       		.byte	0x28
 11322 1373 0100     		.2byte	0x1
 11323 1375 16       		.byte	0x16
 11324 1376 13       		.byte	0x13
 11325 1377 9F       		.byte	0x9f
 11326 1378 00000000 		.4byte	0
 11327 137c 00000000 		.4byte	0
 11328              	.LLST112:
 11329 1380 00000000 		.4byte	.LVL325
 11330 1384 20000000 		.4byte	.LVL328
 11331 1388 0200     		.2byte	0x2
 11332 138a 31       		.byte	0x31
 11333 138b 9F       		.byte	0x9f
 11334 138c 20000000 		.4byte	.LVL328
 11335 1390 A0000000 		.4byte	.LVL346
 11336 1394 0100     		.2byte	0x1
 11337 1396 57       		.byte	0x57
 11338 1397 A0000000 		.4byte	.LVL346
 11339 139b B8000000 		.4byte	.LVL349
 11340 139f 1500     		.2byte	0x15
 11341 13a1 31       		.byte	0x31
 11342 13a2 32       		.byte	0x32
 11343 13a3 F3       		.byte	0xf3
 11344 13a4 01       		.uleb128 0x1
 11345 13a5 51       		.byte	0x51
 11346 13a6 23       		.byte	0x23
 11347 13a7 04       		.uleb128 0x4
 11348 13a8 94       		.byte	0x94
 11349 13a9 02       		.byte	0x2
 11350 13aa 0A       		.byte	0xa
 11351 13ab FFFF     		.2byte	0xffff
 11352 13ad 1A       		.byte	0x1a
 11353 13ae 31       		.byte	0x31
 11354 13af 2E       		.byte	0x2e
 11355 13b0 28       		.byte	0x28
 11356 13b1 0100     		.2byte	0x1
ARM GAS  C:\Users\jsyoon\AppData\Local\Temp\ccDGobdh.s 			page 202


 11357 13b3 16       		.byte	0x16
 11358 13b4 13       		.byte	0x13
 11359 13b5 9F       		.byte	0x9f
 11360 13b6 BC000000 		.4byte	.LVL351
 11361 13ba 2A010000 		.4byte	.LVL366
 11362 13be 0100     		.2byte	0x1
 11363 13c0 57       		.byte	0x57
 11364 13c1 2A010000 		.4byte	.LVL366
 11365 13c5 4A010000 		.4byte	.LVL370
 11366 13c9 1500     		.2byte	0x15
 11367 13cb 31       		.byte	0x31
 11368 13cc 32       		.byte	0x32
 11369 13cd F3       		.byte	0xf3
 11370 13ce 01       		.uleb128 0x1
 11371 13cf 51       		.byte	0x51
 11372 13d0 23       		.byte	0x23
 11373 13d1 04       		.uleb128 0x4
 11374 13d2 94       		.byte	0x94
 11375 13d3 02       		.byte	0x2
 11376 13d4 0A       		.byte	0xa
 11377 13d5 FFFF     		.2byte	0xffff
 11378 13d7 1A       		.byte	0x1a
 11379 13d8 31       		.byte	0x31
 11380 13d9 2E       		.byte	0x2e
 11381 13da 28       		.byte	0x28
 11382 13db 0100     		.2byte	0x1
 11383 13dd 16       		.byte	0x16
 11384 13de 13       		.byte	0x13
 11385 13df 9F       		.byte	0x9f
 11386 13e0 00000000 		.4byte	0
 11387 13e4 00000000 		.4byte	0
 11388              	.LLST113:
 11389 13e8 20000000 		.4byte	.LVL328
 11390 13ec 8E000000 		.4byte	.LVL343
 11391 13f0 0100     		.2byte	0x1
 11392 13f2 5C       		.byte	0x5c
 11393 13f3 8E000000 		.4byte	.LVL343
 11394 13f7 B8000000 		.4byte	.LVL349
 11395 13fb 0500     		.2byte	0x5
 11396 13fd F3       		.byte	0xf3
 11397 13fe 01       		.uleb128 0x1
 11398 13ff 51       		.byte	0x51
 11399 1400 23       		.byte	0x23
 11400 1401 08       		.uleb128 0x8
 11401 1402 BC000000 		.4byte	.LVL351
 11402 1406 4E010000 		.4byte	.LFE163
 11403 140a 0100     		.2byte	0x1
 11404 140c 5C       		.byte	0x5c
 11405 140d 00000000 		.4byte	0
 11406 1411 00000000 		.4byte	0
 11407              	.LLST114:
 11408 1415 20000000 		.4byte	.LVL328
 11409 1419 4E000000 		.4byte	.LVL336
 11410 141d 0100     		.2byte	0x1
 11411 141f 54       		.byte	0x54
 11412 1420 4E000000 		.4byte	.LVL336
 11413 1424 B8000000 		.4byte	.LVL349
ARM GAS  C:\Users\jsyoon\AppData\Local\Temp\ccDGobdh.s 			page 203


 11414 1428 0500     		.2byte	0x5
 11415 142a F3       		.byte	0xf3
 11416 142b 01       		.uleb128 0x1
 11417 142c 51       		.byte	0x51
 11418 142d 23       		.byte	0x23
 11419 142e 04       		.uleb128 0x4
 11420 142f BC000000 		.4byte	.LVL351
 11421 1433 E4000000 		.4byte	.LVL356
 11422 1437 0100     		.2byte	0x1
 11423 1439 54       		.byte	0x54
 11424 143a E4000000 		.4byte	.LVL356
 11425 143e 4A010000 		.4byte	.LVL370
 11426 1442 0500     		.2byte	0x5
 11427 1444 F3       		.byte	0xf3
 11428 1445 01       		.uleb128 0x1
 11429 1446 51       		.byte	0x51
 11430 1447 23       		.byte	0x23
 11431 1448 04       		.uleb128 0x4
 11432 1449 00000000 		.4byte	0
 11433 144d 00000000 		.4byte	0
 11434              	.LLST115:
 11435 1451 20000000 		.4byte	.LVL328
 11436 1455 4A000000 		.4byte	.LVL335
 11437 1459 0100     		.2byte	0x1
 11438 145b 55       		.byte	0x55
 11439 145c 4A000000 		.4byte	.LVL335
 11440 1460 B8000000 		.4byte	.LVL349
 11441 1464 0500     		.2byte	0x5
 11442 1466 F3       		.byte	0xf3
 11443 1467 01       		.uleb128 0x1
 11444 1468 51       		.byte	0x51
 11445 1469 23       		.byte	0x23
 11446 146a 02       		.uleb128 0x2
 11447 146b BC000000 		.4byte	.LVL351
 11448 146f DE000000 		.4byte	.LVL355
 11449 1473 0100     		.2byte	0x1
 11450 1475 55       		.byte	0x55
 11451 1476 DE000000 		.4byte	.LVL355
 11452 147a 4A010000 		.4byte	.LVL370
 11453 147e 0500     		.2byte	0x5
 11454 1480 F3       		.byte	0xf3
 11455 1481 01       		.uleb128 0x1
 11456 1482 51       		.byte	0x51
 11457 1483 23       		.byte	0x23
 11458 1484 02       		.uleb128 0x2
 11459 1485 00000000 		.4byte	0
 11460 1489 00000000 		.4byte	0
 11461              	.LLST116:
 11462 148d 20000000 		.4byte	.LVL328
 11463 1491 CC000000 		.4byte	.LVL352
 11464 1495 0200     		.2byte	0x2
 11465 1497 30       		.byte	0x30
 11466 1498 9F       		.byte	0x9f
 11467 1499 CC000000 		.4byte	.LVL352
 11468 149d D0000000 		.4byte	.LVL353
 11469 14a1 0700     		.2byte	0x7
 11470 14a3 73       		.byte	0x73
ARM GAS  C:\Users\jsyoon\AppData\Local\Temp\ccDGobdh.s 			page 204


 11471 14a4 00       		.sleb128 0
 11472 14a5 0B       		.byte	0xb
 11473 14a6 0CFF     		.2byte	0xff0c
 11474 14a8 1A       		.byte	0x1a
 11475 14a9 9F       		.byte	0x9f
 11476 14aa E4000000 		.4byte	.LVL356
 11477 14ae 4C010000 		.4byte	.LVL371
 11478 14b2 0100     		.2byte	0x1
 11479 14b4 54       		.byte	0x54
 11480 14b5 00000000 		.4byte	0
 11481 14b9 00000000 		.4byte	0
 11482              	.LLST117:
 11483 14bd 20000000 		.4byte	.LVL328
 11484 14c1 CC000000 		.4byte	.LVL352
 11485 14c5 0200     		.2byte	0x2
 11486 14c7 30       		.byte	0x30
 11487 14c8 9F       		.byte	0x9f
 11488 14c9 CC000000 		.4byte	.LVL352
 11489 14cd D4000000 		.4byte	.LVL354
 11490 14d1 0100     		.2byte	0x1
 11491 14d3 52       		.byte	0x52
 11492 14d4 E4000000 		.4byte	.LVL356
 11493 14d8 EC000000 		.4byte	.LVL358
 11494 14dc 0100     		.2byte	0x1
 11495 14de 52       		.byte	0x52
 11496 14df 00000000 		.4byte	0
 11497 14e3 00000000 		.4byte	0
 11498              	.LLST118:
 11499 14e7 30000000 		.4byte	.LVL329
 11500 14eb 36000000 		.4byte	.LVL330
 11501 14ef 0100     		.2byte	0x1
 11502 14f1 53       		.byte	0x53
 11503 14f2 3C000000 		.4byte	.LVL331
 11504 14f6 40000000 		.4byte	.LVL332
 11505 14fa 0100     		.2byte	0x1
 11506 14fc 53       		.byte	0x53
 11507 14fd 46000000 		.4byte	.LVL334
 11508 1501 52000000 		.4byte	.LVL337
 11509 1505 0100     		.2byte	0x1
 11510 1507 53       		.byte	0x53
 11511 1508 52000000 		.4byte	.LVL337
 11512 150c BA000000 		.4byte	.LVL350
 11513 1510 0100     		.2byte	0x1
 11514 1512 54       		.byte	0x54
 11515 1513 00000000 		.4byte	0
 11516 1517 00000000 		.4byte	0
 11517              	.LLST119:
 11518 151b 3C000000 		.4byte	.LVL331
 11519 151f 44000000 		.4byte	.LVL333
 11520 1523 0100     		.2byte	0x1
 11521 1525 52       		.byte	0x52
 11522 1526 56000000 		.4byte	.LVL338
 11523 152a BA000000 		.4byte	.LVL350
 11524 152e 0100     		.2byte	0x1
 11525 1530 55       		.byte	0x55
 11526 1531 00000000 		.4byte	0
 11527 1535 00000000 		.4byte	0
ARM GAS  C:\Users\jsyoon\AppData\Local\Temp\ccDGobdh.s 			page 205


 11528              	.LLST120:
 11529 1539 3C000000 		.4byte	.LVL331
 11530 153d 4A000000 		.4byte	.LVL335
 11531 1541 0500     		.2byte	0x5
 11532 1543 75       		.byte	0x75
 11533 1544 00       		.sleb128 0
 11534 1545 34       		.byte	0x34
 11535 1546 24       		.byte	0x24
 11536 1547 9F       		.byte	0x9f
 11537 1548 4A000000 		.4byte	.LVL335
 11538 154c B8000000 		.4byte	.LVL349
 11539 1550 0A00     		.2byte	0xa
 11540 1552 F3       		.byte	0xf3
 11541 1553 01       		.uleb128 0x1
 11542 1554 51       		.byte	0x51
 11543 1555 23       		.byte	0x23
 11544 1556 02       		.uleb128 0x2
 11545 1557 94       		.byte	0x94
 11546 1558 02       		.byte	0x2
 11547 1559 34       		.byte	0x34
 11548 155a 24       		.byte	0x24
 11549 155b 9F       		.byte	0x9f
 11550 155c 00000000 		.4byte	0
 11551 1560 00000000 		.4byte	0
 11552              	.LLST121:
 11553 1564 56000000 		.4byte	.LVL338
 11554 1568 B6000000 		.4byte	.LVL348
 11555 156c 0100     		.2byte	0x1
 11556 156e 51       		.byte	0x51
 11557 156f B6000000 		.4byte	.LVL348
 11558 1573 B8000000 		.4byte	.LVL349
 11559 1577 0500     		.2byte	0x5
 11560 1579 F3       		.byte	0xf3
 11561 157a 01       		.uleb128 0x1
 11562 157b 51       		.byte	0x51
 11563 157c 23       		.byte	0x23
 11564 157d 06       		.uleb128 0x6
 11565 157e 00000000 		.4byte	0
 11566 1582 00000000 		.4byte	0
 11567              	.LLST122:
 11568 1586 56000000 		.4byte	.LVL338
 11569 158a BC000000 		.4byte	.LVL351
 11570 158e 0100     		.2byte	0x1
 11571 1590 50       		.byte	0x50
 11572 1591 00000000 		.4byte	0
 11573 1595 00000000 		.4byte	0
 11574              	.LLST123:
 11575 1599 72000000 		.4byte	.LVL339
 11576 159d 8E000000 		.4byte	.LVL343
 11577 15a1 0100     		.2byte	0x1
 11578 15a3 5C       		.byte	0x5c
 11579 15a4 8E000000 		.4byte	.LVL343
 11580 15a8 B8000000 		.4byte	.LVL349
 11581 15ac 0500     		.2byte	0x5
 11582 15ae F3       		.byte	0xf3
 11583 15af 01       		.uleb128 0x1
 11584 15b0 51       		.byte	0x51
ARM GAS  C:\Users\jsyoon\AppData\Local\Temp\ccDGobdh.s 			page 206


 11585 15b1 23       		.byte	0x23
 11586 15b2 08       		.uleb128 0x8
 11587 15b3 00000000 		.4byte	0
 11588 15b7 00000000 		.4byte	0
 11589              	.LLST124:
 11590 15bb 72000000 		.4byte	.LVL339
 11591 15bf A0000000 		.4byte	.LVL346
 11592 15c3 0100     		.2byte	0x1
 11593 15c5 57       		.byte	0x57
 11594 15c6 A0000000 		.4byte	.LVL346
 11595 15ca B8000000 		.4byte	.LVL349
 11596 15ce 1500     		.2byte	0x15
 11597 15d0 31       		.byte	0x31
 11598 15d1 32       		.byte	0x32
 11599 15d2 F3       		.byte	0xf3
 11600 15d3 01       		.uleb128 0x1
 11601 15d4 51       		.byte	0x51
 11602 15d5 23       		.byte	0x23
 11603 15d6 04       		.uleb128 0x4
 11604 15d7 94       		.byte	0x94
 11605 15d8 02       		.byte	0x2
 11606 15d9 0A       		.byte	0xa
 11607 15da FFFF     		.2byte	0xffff
 11608 15dc 1A       		.byte	0x1a
 11609 15dd 31       		.byte	0x31
 11610 15de 2E       		.byte	0x2e
 11611 15df 28       		.byte	0x28
 11612 15e0 0100     		.2byte	0x1
 11613 15e2 16       		.byte	0x16
 11614 15e3 13       		.byte	0x13
 11615 15e4 9F       		.byte	0x9f
 11616 15e5 00000000 		.4byte	0
 11617 15e9 00000000 		.4byte	0
 11618              	.LLST125:
 11619 15ed 72000000 		.4byte	.LVL339
 11620 15f1 9C000000 		.4byte	.LVL345
 11621 15f5 0100     		.2byte	0x1
 11622 15f7 56       		.byte	0x56
 11623 15f8 9C000000 		.4byte	.LVL345
 11624 15fc B8000000 		.4byte	.LVL349
 11625 1600 1500     		.2byte	0x15
 11626 1602 30       		.byte	0x30
 11627 1603 32       		.byte	0x32
 11628 1604 F3       		.byte	0xf3
 11629 1605 01       		.uleb128 0x1
 11630 1606 51       		.byte	0x51
 11631 1607 23       		.byte	0x23
 11632 1608 02       		.uleb128 0x2
 11633 1609 94       		.byte	0x94
 11634 160a 02       		.byte	0x2
 11635 160b 0A       		.byte	0xa
 11636 160c FFFF     		.2byte	0xffff
 11637 160e 1A       		.byte	0x1a
 11638 160f 30       		.byte	0x30
 11639 1610 2E       		.byte	0x2e
 11640 1611 28       		.byte	0x28
 11641 1612 0100     		.2byte	0x1
ARM GAS  C:\Users\jsyoon\AppData\Local\Temp\ccDGobdh.s 			page 207


 11642 1614 16       		.byte	0x16
 11643 1615 13       		.byte	0x13
 11644 1616 9F       		.byte	0x9f
 11645 1617 00000000 		.4byte	0
 11646 161b 00000000 		.4byte	0
 11647              	.LLST126:
 11648 161f 72000000 		.4byte	.LVL339
 11649 1623 BC000000 		.4byte	.LVL351
 11650 1627 0100     		.2byte	0x1
 11651 1629 50       		.byte	0x50
 11652 162a 00000000 		.4byte	0
 11653 162e 00000000 		.4byte	0
 11654              	.LLST127:
 11655 1632 72000000 		.4byte	.LVL339
 11656 1636 84000000 		.4byte	.LVL340
 11657 163a 0200     		.2byte	0x2
 11658 163c 30       		.byte	0x30
 11659 163d 9F       		.byte	0x9f
 11660 163e 84000000 		.4byte	.LVL340
 11661 1642 88000000 		.4byte	.LVL341
 11662 1646 0100     		.2byte	0x1
 11663 1648 52       		.byte	0x52
 11664 1649 A0000000 		.4byte	.LVL346
 11665 164d BA000000 		.4byte	.LVL350
 11666 1651 0100     		.2byte	0x1
 11667 1653 57       		.byte	0x57
 11668 1654 00000000 		.4byte	0
 11669 1658 00000000 		.4byte	0
 11670              	.LLST128:
 11671 165c 72000000 		.4byte	.LVL339
 11672 1660 8A000000 		.4byte	.LVL342
 11673 1664 0200     		.2byte	0x2
 11674 1666 30       		.byte	0x30
 11675 1667 9F       		.byte	0x9f
 11676 1668 8A000000 		.4byte	.LVL342
 11677 166c 92000000 		.4byte	.LVL344
 11678 1670 0100     		.2byte	0x1
 11679 1672 53       		.byte	0x53
 11680 1673 A0000000 		.4byte	.LVL346
 11681 1677 BA000000 		.4byte	.LVL350
 11682 167b 0100     		.2byte	0x1
 11683 167d 56       		.byte	0x56
 11684 167e 00000000 		.4byte	0
 11685 1682 00000000 		.4byte	0
 11686              	.LLST129:
 11687 1686 A4000000 		.4byte	.LVL347
 11688 168a B6000000 		.4byte	.LVL348
 11689 168e 0100     		.2byte	0x1
 11690 1690 51       		.byte	0x51
 11691 1691 B6000000 		.4byte	.LVL348
 11692 1695 B8000000 		.4byte	.LVL349
 11693 1699 0500     		.2byte	0x5
 11694 169b F3       		.byte	0xf3
 11695 169c 01       		.uleb128 0x1
 11696 169d 51       		.byte	0x51
 11697 169e 23       		.byte	0x23
 11698 169f 06       		.uleb128 0x6
ARM GAS  C:\Users\jsyoon\AppData\Local\Temp\ccDGobdh.s 			page 208


 11699 16a0 00000000 		.4byte	0
 11700 16a4 00000000 		.4byte	0
 11701              	.LLST130:
 11702 16a8 A4000000 		.4byte	.LVL347
 11703 16ac BC000000 		.4byte	.LVL351
 11704 16b0 0100     		.2byte	0x1
 11705 16b2 50       		.byte	0x50
 11706 16b3 00000000 		.4byte	0
 11707 16b7 00000000 		.4byte	0
 11708              	.LLST131:
 11709 16bb E6000000 		.4byte	.LVL357
 11710 16bf 46010000 		.4byte	.LVL369
 11711 16c3 0100     		.2byte	0x1
 11712 16c5 51       		.byte	0x51
 11713 16c6 46010000 		.4byte	.LVL369
 11714 16ca 4A010000 		.4byte	.LVL370
 11715 16ce 0500     		.2byte	0x5
 11716 16d0 F3       		.byte	0xf3
 11717 16d1 01       		.uleb128 0x1
 11718 16d2 51       		.byte	0x51
 11719 16d3 23       		.byte	0x23
 11720 16d4 06       		.uleb128 0x6
 11721 16d5 00000000 		.4byte	0
 11722 16d9 00000000 		.4byte	0
 11723              	.LLST132:
 11724 16dd FE000000 		.4byte	.LVL359
 11725 16e1 2A010000 		.4byte	.LVL366
 11726 16e5 0100     		.2byte	0x1
 11727 16e7 57       		.byte	0x57
 11728 16e8 2A010000 		.4byte	.LVL366
 11729 16ec 4A010000 		.4byte	.LVL370
 11730 16f0 1500     		.2byte	0x15
 11731 16f2 31       		.byte	0x31
 11732 16f3 32       		.byte	0x32
 11733 16f4 F3       		.byte	0xf3
 11734 16f5 01       		.uleb128 0x1
 11735 16f6 51       		.byte	0x51
 11736 16f7 23       		.byte	0x23
 11737 16f8 04       		.uleb128 0x4
 11738 16f9 94       		.byte	0x94
 11739 16fa 02       		.byte	0x2
 11740 16fb 0A       		.byte	0xa
 11741 16fc FFFF     		.2byte	0xffff
 11742 16fe 1A       		.byte	0x1a
 11743 16ff 31       		.byte	0x31
 11744 1700 2E       		.byte	0x2e
 11745 1701 28       		.byte	0x28
 11746 1702 0100     		.2byte	0x1
 11747 1704 16       		.byte	0x16
 11748 1705 13       		.byte	0x13
 11749 1706 9F       		.byte	0x9f
 11750 1707 00000000 		.4byte	0
 11751 170b 00000000 		.4byte	0
 11752              	.LLST133:
 11753 170f FE000000 		.4byte	.LVL359
 11754 1713 2E010000 		.4byte	.LVL367
 11755 1717 0100     		.2byte	0x1
ARM GAS  C:\Users\jsyoon\AppData\Local\Temp\ccDGobdh.s 			page 209


 11756 1719 56       		.byte	0x56
 11757 171a 2E010000 		.4byte	.LVL367
 11758 171e 4A010000 		.4byte	.LVL370
 11759 1722 1500     		.2byte	0x15
 11760 1724 30       		.byte	0x30
 11761 1725 32       		.byte	0x32
 11762 1726 F3       		.byte	0xf3
 11763 1727 01       		.uleb128 0x1
 11764 1728 51       		.byte	0x51
 11765 1729 23       		.byte	0x23
 11766 172a 02       		.uleb128 0x2
 11767 172b 94       		.byte	0x94
 11768 172c 02       		.byte	0x2
 11769 172d 0A       		.byte	0xa
 11770 172e FFFF     		.2byte	0xffff
 11771 1730 1A       		.byte	0x1a
 11772 1731 30       		.byte	0x30
 11773 1732 2E       		.byte	0x2e
 11774 1733 28       		.byte	0x28
 11775 1734 0100     		.2byte	0x1
 11776 1736 16       		.byte	0x16
 11777 1737 13       		.byte	0x13
 11778 1738 9F       		.byte	0x9f
 11779 1739 00000000 		.4byte	0
 11780 173d 00000000 		.4byte	0
 11781              	.LLST134:
 11782 1741 FE000000 		.4byte	.LVL359
 11783 1745 0C010000 		.4byte	.LVL360
 11784 1749 0200     		.2byte	0x2
 11785 174b 30       		.byte	0x30
 11786 174c 9F       		.byte	0x9f
 11787 174d 0C010000 		.4byte	.LVL360
 11788 1751 12010000 		.4byte	.LVL361
 11789 1755 0100     		.2byte	0x1
 11790 1757 53       		.byte	0x53
 11791 1758 18010000 		.4byte	.LVL362
 11792 175c 1C010000 		.4byte	.LVL363
 11793 1760 0100     		.2byte	0x1
 11794 1762 53       		.byte	0x53
 11795 1763 22010000 		.4byte	.LVL365
 11796 1767 2A010000 		.4byte	.LVL366
 11797 176b 0100     		.2byte	0x1
 11798 176d 53       		.byte	0x53
 11799 176e 2A010000 		.4byte	.LVL366
 11800 1772 4C010000 		.4byte	.LVL371
 11801 1776 0100     		.2byte	0x1
 11802 1778 57       		.byte	0x57
 11803 1779 00000000 		.4byte	0
 11804 177d 00000000 		.4byte	0
 11805              	.LLST135:
 11806 1781 FE000000 		.4byte	.LVL359
 11807 1785 18010000 		.4byte	.LVL362
 11808 1789 0200     		.2byte	0x2
 11809 178b 30       		.byte	0x30
 11810 178c 9F       		.byte	0x9f
 11811 178d 18010000 		.4byte	.LVL362
 11812 1791 20010000 		.4byte	.LVL364
ARM GAS  C:\Users\jsyoon\AppData\Local\Temp\ccDGobdh.s 			page 210


 11813 1795 0100     		.2byte	0x1
 11814 1797 52       		.byte	0x52
 11815 1798 2E010000 		.4byte	.LVL367
 11816 179c 4C010000 		.4byte	.LVL371
 11817 17a0 0100     		.2byte	0x1
 11818 17a2 56       		.byte	0x56
 11819 17a3 00000000 		.4byte	0
 11820 17a7 00000000 		.4byte	0
 11821              	.LLST136:
 11822 17ab FE000000 		.4byte	.LVL359
 11823 17af 18010000 		.4byte	.LVL362
 11824 17b3 0200     		.2byte	0x2
 11825 17b5 30       		.byte	0x30
 11826 17b6 9F       		.byte	0x9f
 11827 17b7 18010000 		.4byte	.LVL362
 11828 17bb 2E010000 		.4byte	.LVL367
 11829 17bf 0500     		.2byte	0x5
 11830 17c1 76       		.byte	0x76
 11831 17c2 00       		.sleb128 0
 11832 17c3 34       		.byte	0x34
 11833 17c4 24       		.byte	0x24
 11834 17c5 9F       		.byte	0x9f
 11835 17c6 2E010000 		.4byte	.LVL367
 11836 17ca 4A010000 		.4byte	.LVL370
 11837 17ce 1700     		.2byte	0x17
 11838 17d0 30       		.byte	0x30
 11839 17d1 32       		.byte	0x32
 11840 17d2 F3       		.byte	0xf3
 11841 17d3 01       		.uleb128 0x1
 11842 17d4 51       		.byte	0x51
 11843 17d5 23       		.byte	0x23
 11844 17d6 02       		.uleb128 0x2
 11845 17d7 94       		.byte	0x94
 11846 17d8 02       		.byte	0x2
 11847 17d9 0A       		.byte	0xa
 11848 17da FFFF     		.2byte	0xffff
 11849 17dc 1A       		.byte	0x1a
 11850 17dd 30       		.byte	0x30
 11851 17de 2E       		.byte	0x2e
 11852 17df 28       		.byte	0x28
 11853 17e0 0100     		.2byte	0x1
 11854 17e2 16       		.byte	0x16
 11855 17e3 13       		.byte	0x13
 11856 17e4 34       		.byte	0x34
 11857 17e5 24       		.byte	0x24
 11858 17e6 9F       		.byte	0x9f
 11859 17e7 00000000 		.4byte	0
 11860 17eb 00000000 		.4byte	0
 11861              	.LLST137:
 11862 17ef 32010000 		.4byte	.LVL368
 11863 17f3 46010000 		.4byte	.LVL369
 11864 17f7 0100     		.2byte	0x1
 11865 17f9 51       		.byte	0x51
 11866 17fa 46010000 		.4byte	.LVL369
 11867 17fe 4A010000 		.4byte	.LVL370
 11868 1802 0500     		.2byte	0x5
 11869 1804 F3       		.byte	0xf3
ARM GAS  C:\Users\jsyoon\AppData\Local\Temp\ccDGobdh.s 			page 211


 11870 1805 01       		.uleb128 0x1
 11871 1806 51       		.byte	0x51
 11872 1807 23       		.byte	0x23
 11873 1808 06       		.uleb128 0x6
 11874 1809 00000000 		.4byte	0
 11875 180d 00000000 		.4byte	0
 11876              	.LLST138:
 11877 1811 00000000 		.4byte	.LVL372
 11878 1815 02000000 		.4byte	.LVL373
 11879 1819 0100     		.2byte	0x1
 11880 181b 50       		.byte	0x50
 11881 181c 02000000 		.4byte	.LVL373
 11882 1820 04000000 		.4byte	.LFE164
 11883 1824 0400     		.2byte	0x4
 11884 1826 F3       		.byte	0xf3
 11885 1827 01       		.uleb128 0x1
 11886 1828 50       		.byte	0x50
 11887 1829 9F       		.byte	0x9f
 11888 182a 00000000 		.4byte	0
 11889 182e 00000000 		.4byte	0
 11890              	.LLST139:
 11891 1832 00000000 		.4byte	.LVL374
 11892 1836 02000000 		.4byte	.LVL375
 11893 183a 0100     		.2byte	0x1
 11894 183c 50       		.byte	0x50
 11895 183d 02000000 		.4byte	.LVL375
 11896 1841 04000000 		.4byte	.LFE165
 11897 1845 0400     		.2byte	0x4
 11898 1847 F3       		.byte	0xf3
 11899 1848 01       		.uleb128 0x1
 11900 1849 50       		.byte	0x50
 11901 184a 9F       		.byte	0x9f
 11902 184b 00000000 		.4byte	0
 11903 184f 00000000 		.4byte	0
 11904              	.LLST140:
 11905 1853 00000000 		.4byte	.LVL376
 11906 1857 02000000 		.4byte	.LVL377
 11907 185b 0100     		.2byte	0x1
 11908 185d 50       		.byte	0x50
 11909 185e 02000000 		.4byte	.LVL377
 11910 1862 04000000 		.4byte	.LFE166
 11911 1866 0400     		.2byte	0x4
 11912 1868 F3       		.byte	0xf3
 11913 1869 01       		.uleb128 0x1
 11914 186a 50       		.byte	0x50
 11915 186b 9F       		.byte	0x9f
 11916 186c 00000000 		.4byte	0
 11917 1870 00000000 		.4byte	0
 11918              	.LLST141:
 11919 1874 00000000 		.4byte	.LVL378
 11920 1878 02000000 		.4byte	.LVL379
 11921 187c 0100     		.2byte	0x1
 11922 187e 50       		.byte	0x50
 11923 187f 02000000 		.4byte	.LVL379
 11924 1883 04000000 		.4byte	.LFE167
 11925 1887 0400     		.2byte	0x4
 11926 1889 F3       		.byte	0xf3
ARM GAS  C:\Users\jsyoon\AppData\Local\Temp\ccDGobdh.s 			page 212


 11927 188a 01       		.uleb128 0x1
 11928 188b 50       		.byte	0x50
 11929 188c 9F       		.byte	0x9f
 11930 188d 00000000 		.4byte	0
 11931 1891 00000000 		.4byte	0
 11932              	.LLST142:
 11933 1895 00000000 		.4byte	.LVL380
 11934 1899 12000000 		.4byte	.LVL381
 11935 189d 0100     		.2byte	0x1
 11936 189f 51       		.byte	0x51
 11937 18a0 12000000 		.4byte	.LVL381
 11938 18a4 16000000 		.4byte	.LFE168
 11939 18a8 0400     		.2byte	0x4
 11940 18aa F3       		.byte	0xf3
 11941 18ab 01       		.uleb128 0x1
 11942 18ac 51       		.byte	0x51
 11943 18ad 9F       		.byte	0x9f
 11944 18ae 00000000 		.4byte	0
 11945 18b2 00000000 		.4byte	0
 11946              	.LLST143:
 11947 18b6 00000000 		.4byte	.LVL382
 11948 18ba 14000000 		.4byte	.LVL383
 11949 18be 0100     		.2byte	0x1
 11950 18c0 51       		.byte	0x51
 11951 18c1 14000000 		.4byte	.LVL383
 11952 18c5 1A000000 		.4byte	.LFE169
 11953 18c9 0400     		.2byte	0x4
 11954 18cb F3       		.byte	0xf3
 11955 18cc 01       		.uleb128 0x1
 11956 18cd 51       		.byte	0x51
 11957 18ce 9F       		.byte	0x9f
 11958 18cf 00000000 		.4byte	0
 11959 18d3 00000000 		.4byte	0
 11960              	.LLST144:
 11961 18d7 00000000 		.4byte	.LVL384
 11962 18db 12000000 		.4byte	.LVL385
 11963 18df 0100     		.2byte	0x1
 11964 18e1 51       		.byte	0x51
 11965 18e2 12000000 		.4byte	.LVL385
 11966 18e6 16000000 		.4byte	.LFE170
 11967 18ea 0400     		.2byte	0x4
 11968 18ec F3       		.byte	0xf3
 11969 18ed 01       		.uleb128 0x1
 11970 18ee 51       		.byte	0x51
 11971 18ef 9F       		.byte	0x9f
 11972 18f0 00000000 		.4byte	0
 11973 18f4 00000000 		.4byte	0
 11974              	.LLST145:
 11975 18f8 00000000 		.4byte	.LVL386
 11976 18fc 14000000 		.4byte	.LVL387
 11977 1900 0100     		.2byte	0x1
 11978 1902 51       		.byte	0x51
 11979 1903 14000000 		.4byte	.LVL387
 11980 1907 1A000000 		.4byte	.LFE171
 11981 190b 0400     		.2byte	0x4
 11982 190d F3       		.byte	0xf3
 11983 190e 01       		.uleb128 0x1
ARM GAS  C:\Users\jsyoon\AppData\Local\Temp\ccDGobdh.s 			page 213


 11984 190f 51       		.byte	0x51
 11985 1910 9F       		.byte	0x9f
 11986 1911 00000000 		.4byte	0
 11987 1915 00000000 		.4byte	0
 11988              	.LLST146:
 11989 1919 00000000 		.4byte	.LVL393
 11990 191d 0A000000 		.4byte	.LVL394
 11991 1921 0100     		.2byte	0x1
 11992 1923 51       		.byte	0x51
 11993 1924 0A000000 		.4byte	.LVL394
 11994 1928 0E000000 		.4byte	.LVL395
 11995 192c 0400     		.2byte	0x4
 11996 192e F3       		.byte	0xf3
 11997 192f 01       		.uleb128 0x1
 11998 1930 51       		.byte	0x51
 11999 1931 9F       		.byte	0x9f
 12000 1932 0E000000 		.4byte	.LVL395
 12001 1936 10000000 		.4byte	.LVL396
 12002 193a 0100     		.2byte	0x1
 12003 193c 51       		.byte	0x51
 12004 193d 10000000 		.4byte	.LVL396
 12005 1941 14000000 		.4byte	.LFE177
 12006 1945 0400     		.2byte	0x4
 12007 1947 F3       		.byte	0xf3
 12008 1948 01       		.uleb128 0x1
 12009 1949 51       		.byte	0x51
 12010 194a 9F       		.byte	0x9f
 12011 194b 00000000 		.4byte	0
 12012 194f 00000000 		.4byte	0
 12013              	.LLST147:
 12014 1953 00000000 		.4byte	.LVL398
 12015 1957 0A000000 		.4byte	.LVL400
 12016 195b 0100     		.2byte	0x1
 12017 195d 50       		.byte	0x50
 12018 195e 0A000000 		.4byte	.LVL400
 12019 1962 0C000000 		.4byte	.LFE179
 12020 1966 0400     		.2byte	0x4
 12021 1968 F3       		.byte	0xf3
 12022 1969 01       		.uleb128 0x1
 12023 196a 50       		.byte	0x50
 12024 196b 9F       		.byte	0x9f
 12025 196c 00000000 		.4byte	0
 12026 1970 00000000 		.4byte	0
 12027              	.LLST148:
 12028 1974 00000000 		.4byte	.LVL398
 12029 1978 02000000 		.4byte	.LVL399
 12030 197c 0200     		.2byte	0x2
 12031 197e 30       		.byte	0x30
 12032 197f 9F       		.byte	0x9f
 12033 1980 02000000 		.4byte	.LVL399
 12034 1984 0C000000 		.4byte	.LFE179
 12035 1988 0A00     		.2byte	0xa
 12036 198a 71       		.byte	0x71
 12037 198b 00       		.sleb128 0
 12038 198c 73       		.byte	0x73
 12039 198d 00       		.sleb128 0
 12040 198e 1A       		.byte	0x1a
ARM GAS  C:\Users\jsyoon\AppData\Local\Temp\ccDGobdh.s 			page 214


 12041 198f 40       		.byte	0x40
 12042 1990 24       		.byte	0x24
 12043 1991 30       		.byte	0x30
 12044 1992 2E       		.byte	0x2e
 12045 1993 9F       		.byte	0x9f
 12046 1994 00000000 		.4byte	0
 12047 1998 00000000 		.4byte	0
 12048              	.LLST149:
 12049 199c 00000000 		.4byte	.LVL401
 12050 19a0 02000000 		.4byte	.LVL402
 12051 19a4 0100     		.2byte	0x1
 12052 19a6 51       		.byte	0x51
 12053 19a7 02000000 		.4byte	.LVL402
 12054 19ab 08000000 		.4byte	.LFE180
 12055 19af 0400     		.2byte	0x4
 12056 19b1 F3       		.byte	0xf3
 12057 19b2 01       		.uleb128 0x1
 12058 19b3 51       		.byte	0x51
 12059 19b4 9F       		.byte	0x9f
 12060 19b5 00000000 		.4byte	0
 12061 19b9 00000000 		.4byte	0
 12062              	.LLST150:
 12063 19bd 00000000 		.4byte	.LVL403
 12064 19c1 08000000 		.4byte	.LVL405
 12065 19c5 0100     		.2byte	0x1
 12066 19c7 50       		.byte	0x50
 12067 19c8 08000000 		.4byte	.LVL405
 12068 19cc 16000000 		.4byte	.LFE181
 12069 19d0 0400     		.2byte	0x4
 12070 19d2 F3       		.byte	0xf3
 12071 19d3 01       		.uleb128 0x1
 12072 19d4 50       		.byte	0x50
 12073 19d5 9F       		.byte	0x9f
 12074 19d6 00000000 		.4byte	0
 12075 19da 00000000 		.4byte	0
 12076              	.LLST151:
 12077 19de 00000000 		.4byte	.LVL403
 12078 19e2 14000000 		.4byte	.LVL407
 12079 19e6 0200     		.2byte	0x2
 12080 19e8 30       		.byte	0x30
 12081 19e9 9F       		.byte	0x9f
 12082 19ea 14000000 		.4byte	.LVL407
 12083 19ee 16000000 		.4byte	.LFE181
 12084 19f2 0100     		.2byte	0x1
 12085 19f4 50       		.byte	0x50
 12086 19f5 00000000 		.4byte	0
 12087 19f9 00000000 		.4byte	0
 12088              	.LLST152:
 12089 19fd 00000000 		.4byte	.LVL403
 12090 1a01 02000000 		.4byte	.LVL404
 12091 1a05 0200     		.2byte	0x2
 12092 1a07 30       		.byte	0x30
 12093 1a08 9F       		.byte	0x9f
 12094 1a09 02000000 		.4byte	.LVL404
 12095 1a0d 16000000 		.4byte	.LFE181
 12096 1a11 0600     		.2byte	0x6
 12097 1a13 73       		.byte	0x73
ARM GAS  C:\Users\jsyoon\AppData\Local\Temp\ccDGobdh.s 			page 215


 12098 1a14 00       		.sleb128 0
 12099 1a15 71       		.byte	0x71
 12100 1a16 00       		.sleb128 0
 12101 1a17 1A       		.byte	0x1a
 12102 1a18 9F       		.byte	0x9f
 12103 1a19 00000000 		.4byte	0
 12104 1a1d 00000000 		.4byte	0
 12105              	.LLST153:
 12106 1a21 00000000 		.4byte	.LVL403
 12107 1a25 0A000000 		.4byte	.LVL406
 12108 1a29 0200     		.2byte	0x2
 12109 1a2b 30       		.byte	0x30
 12110 1a2c 9F       		.byte	0x9f
 12111 1a2d 0A000000 		.4byte	.LVL406
 12112 1a31 16000000 		.4byte	.LFE181
 12113 1a35 0600     		.2byte	0x6
 12114 1a37 71       		.byte	0x71
 12115 1a38 00       		.sleb128 0
 12116 1a39 72       		.byte	0x72
 12117 1a3a 00       		.sleb128 0
 12118 1a3b 1A       		.byte	0x1a
 12119 1a3c 9F       		.byte	0x9f
 12120 1a3d 00000000 		.4byte	0
 12121 1a41 00000000 		.4byte	0
 12122              	.LLST154:
 12123 1a45 00000000 		.4byte	.LVL408
 12124 1a49 02000000 		.4byte	.LVL409
 12125 1a4d 0100     		.2byte	0x1
 12126 1a4f 51       		.byte	0x51
 12127 1a50 02000000 		.4byte	.LVL409
 12128 1a54 08000000 		.4byte	.LFE182
 12129 1a58 0400     		.2byte	0x4
 12130 1a5a F3       		.byte	0xf3
 12131 1a5b 01       		.uleb128 0x1
 12132 1a5c 51       		.byte	0x51
 12133 1a5d 9F       		.byte	0x9f
 12134 1a5e 00000000 		.4byte	0
 12135 1a62 00000000 		.4byte	0
 12136              	.LLST155:
 12137 1a66 00000000 		.4byte	.LVL410
 12138 1a6a 02000000 		.4byte	.LVL411
 12139 1a6e 0100     		.2byte	0x1
 12140 1a70 52       		.byte	0x52
 12141 1a71 02000000 		.4byte	.LVL411
 12142 1a75 08000000 		.4byte	.LFE183
 12143 1a79 0400     		.2byte	0x4
 12144 1a7b F3       		.byte	0xf3
 12145 1a7c 01       		.uleb128 0x1
 12146 1a7d 52       		.byte	0x52
 12147 1a7e 9F       		.byte	0x9f
 12148 1a7f 00000000 		.4byte	0
 12149 1a83 00000000 		.4byte	0
 12150              	.LLST156:
 12151 1a87 00000000 		.4byte	.LVL412
 12152 1a8b 0A000000 		.4byte	.LVL413
 12153 1a8f 0100     		.2byte	0x1
 12154 1a91 51       		.byte	0x51
ARM GAS  C:\Users\jsyoon\AppData\Local\Temp\ccDGobdh.s 			page 216


 12155 1a92 0A000000 		.4byte	.LVL413
 12156 1a96 0E000000 		.4byte	.LVL414
 12157 1a9a 0400     		.2byte	0x4
 12158 1a9c F3       		.byte	0xf3
 12159 1a9d 01       		.uleb128 0x1
 12160 1a9e 51       		.byte	0x51
 12161 1a9f 9F       		.byte	0x9f
 12162 1aa0 0E000000 		.4byte	.LVL414
 12163 1aa4 10000000 		.4byte	.LVL415
 12164 1aa8 0100     		.2byte	0x1
 12165 1aaa 51       		.byte	0x51
 12166 1aab 10000000 		.4byte	.LVL415
 12167 1aaf 14000000 		.4byte	.LFE184
 12168 1ab3 0400     		.2byte	0x4
 12169 1ab5 F3       		.byte	0xf3
 12170 1ab6 01       		.uleb128 0x1
 12171 1ab7 51       		.byte	0x51
 12172 1ab8 9F       		.byte	0x9f
 12173 1ab9 00000000 		.4byte	0
 12174 1abd 00000000 		.4byte	0
 12175              	.LLST157:
 12176 1ac1 00000000 		.4byte	.LVL418
 12177 1ac5 0C000000 		.4byte	.LVL422
 12178 1ac9 0100     		.2byte	0x1
 12179 1acb 51       		.byte	0x51
 12180 1acc 0C000000 		.4byte	.LVL422
 12181 1ad0 1A000000 		.4byte	.LFE187
 12182 1ad4 0400     		.2byte	0x4
 12183 1ad6 F3       		.byte	0xf3
 12184 1ad7 01       		.uleb128 0x1
 12185 1ad8 51       		.byte	0x51
 12186 1ad9 9F       		.byte	0x9f
 12187 1ada 00000000 		.4byte	0
 12188 1ade 00000000 		.4byte	0
 12189              	.LLST159:
 12190 1ae2 00000000 		.4byte	.LVL418
 12191 1ae6 02000000 		.4byte	.LVL419
 12192 1aea 0200     		.2byte	0x2
 12193 1aec 30       		.byte	0x30
 12194 1aed 9F       		.byte	0x9f
 12195 1aee 02000000 		.4byte	.LVL419
 12196 1af2 06000000 		.4byte	.LVL420
 12197 1af6 0100     		.2byte	0x1
 12198 1af8 53       		.byte	0x53
 12199 1af9 0A000000 		.4byte	.LVL421
 12200 1afd 0C000000 		.4byte	.LVL422
 12201 1b01 0100     		.2byte	0x1
 12202 1b03 53       		.byte	0x53
 12203 1b04 0C000000 		.4byte	.LVL422
 12204 1b08 1A000000 		.4byte	.LFE187
 12205 1b0c 0100     		.2byte	0x1
 12206 1b0e 51       		.byte	0x51
 12207 1b0f 00000000 		.4byte	0
 12208 1b13 00000000 		.4byte	0
 12209              	.LLST160:
 12210 1b17 00000000 		.4byte	.LVL423
 12211 1b1b 32000000 		.4byte	.LVL431
ARM GAS  C:\Users\jsyoon\AppData\Local\Temp\ccDGobdh.s 			page 217


 12212 1b1f 0100     		.2byte	0x1
 12213 1b21 52       		.byte	0x52
 12214 1b22 32000000 		.4byte	.LVL431
 12215 1b26 52000000 		.4byte	.LVL438
 12216 1b2a 0400     		.2byte	0x4
 12217 1b2c F3       		.byte	0xf3
 12218 1b2d 01       		.uleb128 0x1
 12219 1b2e 52       		.byte	0x52
 12220 1b2f 9F       		.byte	0x9f
 12221 1b30 52000000 		.4byte	.LVL438
 12222 1b34 7E000000 		.4byte	.LVL446
 12223 1b38 0100     		.2byte	0x1
 12224 1b3a 52       		.byte	0x52
 12225 1b3b 7E000000 		.4byte	.LVL446
 12226 1b3f 88000000 		.4byte	.LFE188
 12227 1b43 0400     		.2byte	0x4
 12228 1b45 F3       		.byte	0xf3
 12229 1b46 01       		.uleb128 0x1
 12230 1b47 52       		.byte	0x52
 12231 1b48 9F       		.byte	0x9f
 12232 1b49 00000000 		.4byte	0
 12233 1b4d 00000000 		.4byte	0
 12234              	.LLST161:
 12235 1b51 00000000 		.4byte	.LVL423
 12236 1b55 2A000000 		.4byte	.LVL429
 12237 1b59 0100     		.2byte	0x1
 12238 1b5b 53       		.byte	0x53
 12239 1b5c 2A000000 		.4byte	.LVL429
 12240 1b60 52000000 		.4byte	.LVL438
 12241 1b64 0400     		.2byte	0x4
 12242 1b66 F3       		.byte	0xf3
 12243 1b67 01       		.uleb128 0x1
 12244 1b68 53       		.byte	0x53
 12245 1b69 9F       		.byte	0x9f
 12246 1b6a 52000000 		.4byte	.LVL438
 12247 1b6e 7A000000 		.4byte	.LVL445
 12248 1b72 0100     		.2byte	0x1
 12249 1b74 53       		.byte	0x53
 12250 1b75 7A000000 		.4byte	.LVL445
 12251 1b79 88000000 		.4byte	.LFE188
 12252 1b7d 0400     		.2byte	0x4
 12253 1b7f F3       		.byte	0xf3
 12254 1b80 01       		.uleb128 0x1
 12255 1b81 53       		.byte	0x53
 12256 1b82 9F       		.byte	0x9f
 12257 1b83 00000000 		.4byte	0
 12258 1b87 00000000 		.4byte	0
 12259              	.LLST162:
 12260 1b8b 52000000 		.4byte	.LVL438
 12261 1b8f 7A000000 		.4byte	.LVL445
 12262 1b93 0100     		.2byte	0x1
 12263 1b95 53       		.byte	0x53
 12264 1b96 00000000 		.4byte	0
 12265 1b9a 00000000 		.4byte	0
 12266              	.LLST163:
 12267 1b9e 52000000 		.4byte	.LVL438
 12268 1ba2 7E000000 		.4byte	.LVL446
ARM GAS  C:\Users\jsyoon\AppData\Local\Temp\ccDGobdh.s 			page 218


 12269 1ba6 0100     		.2byte	0x1
 12270 1ba8 52       		.byte	0x52
 12271 1ba9 00000000 		.4byte	0
 12272 1bad 00000000 		.4byte	0
 12273              	.LLST164:
 12274 1bb1 52000000 		.4byte	.LVL438
 12275 1bb5 5E000000 		.4byte	.LVL439
 12276 1bb9 0200     		.2byte	0x2
 12277 1bbb 30       		.byte	0x30
 12278 1bbc 9F       		.byte	0x9f
 12279 1bbd 5E000000 		.4byte	.LVL439
 12280 1bc1 64000000 		.4byte	.LVL440
 12281 1bc5 0100     		.2byte	0x1
 12282 1bc7 54       		.byte	0x54
 12283 1bc8 6A000000 		.4byte	.LVL442
 12284 1bcc 72000000 		.4byte	.LVL444
 12285 1bd0 0800     		.2byte	0x8
 12286 1bd2 73       		.byte	0x73
 12287 1bd3 00       		.sleb128 0
 12288 1bd4 3C       		.byte	0x3c
 12289 1bd5 24       		.byte	0x24
 12290 1bd6 74       		.byte	0x74
 12291 1bd7 00       		.sleb128 0
 12292 1bd8 21       		.byte	0x21
 12293 1bd9 9F       		.byte	0x9f
 12294 1bda 80000000 		.4byte	.LVL447
 12295 1bde 88000000 		.4byte	.LFE188
 12296 1be2 0100     		.2byte	0x1
 12297 1be4 53       		.byte	0x53
 12298 1be5 00000000 		.4byte	0
 12299 1be9 00000000 		.4byte	0
 12300              	.LLST165:
 12301 1bed 52000000 		.4byte	.LVL438
 12302 1bf1 68000000 		.4byte	.LVL441
 12303 1bf5 0200     		.2byte	0x2
 12304 1bf7 30       		.byte	0x30
 12305 1bf8 9F       		.byte	0x9f
 12306 1bf9 68000000 		.4byte	.LVL441
 12307 1bfd 6E000000 		.4byte	.LVL443
 12308 1c01 0100     		.2byte	0x1
 12309 1c03 55       		.byte	0x55
 12310 1c04 82000000 		.4byte	.LVL448
 12311 1c08 88000000 		.4byte	.LFE188
 12312 1c0c 0100     		.2byte	0x1
 12313 1c0e 52       		.byte	0x52
 12314 1c0f 00000000 		.4byte	0
 12315 1c13 00000000 		.4byte	0
 12316              	.LLST166:
 12317 1c17 52000000 		.4byte	.LVL438
 12318 1c1b 68000000 		.4byte	.LVL441
 12319 1c1f 0200     		.2byte	0x2
 12320 1c21 30       		.byte	0x30
 12321 1c22 9F       		.byte	0x9f
 12322 1c23 68000000 		.4byte	.LVL441
 12323 1c27 7E000000 		.4byte	.LVL446
 12324 1c2b 0500     		.2byte	0x5
 12325 1c2d 72       		.byte	0x72
ARM GAS  C:\Users\jsyoon\AppData\Local\Temp\ccDGobdh.s 			page 219


 12326 1c2e 00       		.sleb128 0
 12327 1c2f 34       		.byte	0x34
 12328 1c30 24       		.byte	0x24
 12329 1c31 9F       		.byte	0x9f
 12330 1c32 00000000 		.4byte	0
 12331 1c36 00000000 		.4byte	0
 12332              	.LLST167:
 12333 1c3a 08000000 		.4byte	.LVL424
 12334 1c3e 2A000000 		.4byte	.LVL429
 12335 1c42 0100     		.2byte	0x1
 12336 1c44 53       		.byte	0x53
 12337 1c45 00000000 		.4byte	0
 12338 1c49 00000000 		.4byte	0
 12339              	.LLST168:
 12340 1c4d 08000000 		.4byte	.LVL424
 12341 1c51 36000000 		.4byte	.LVL432
 12342 1c55 0200     		.2byte	0x2
 12343 1c57 31       		.byte	0x31
 12344 1c58 9F       		.byte	0x9f
 12345 1c59 00000000 		.4byte	0
 12346 1c5d 00000000 		.4byte	0
 12347              	.LLST169:
 12348 1c61 08000000 		.4byte	.LVL424
 12349 1c65 32000000 		.4byte	.LVL431
 12350 1c69 0100     		.2byte	0x1
 12351 1c6b 52       		.byte	0x52
 12352 1c6c 00000000 		.4byte	0
 12353 1c70 00000000 		.4byte	0
 12354              	.LLST170:
 12355 1c74 08000000 		.4byte	.LVL424
 12356 1c78 36000000 		.4byte	.LVL432
 12357 1c7c 0100     		.2byte	0x1
 12358 1c7e 50       		.byte	0x50
 12359 1c7f 00000000 		.4byte	0
 12360 1c83 00000000 		.4byte	0
 12361              	.LLST171:
 12362 1c87 08000000 		.4byte	.LVL424
 12363 1c8b 18000000 		.4byte	.LVL425
 12364 1c8f 0200     		.2byte	0x2
 12365 1c91 30       		.byte	0x30
 12366 1c92 9F       		.byte	0x9f
 12367 1c93 18000000 		.4byte	.LVL425
 12368 1c97 1C000000 		.4byte	.LVL426
 12369 1c9b 0100     		.2byte	0x1
 12370 1c9d 55       		.byte	0x55
 12371 1c9e 30000000 		.4byte	.LVL430
 12372 1ca2 36000000 		.4byte	.LVL432
 12373 1ca6 0100     		.2byte	0x1
 12374 1ca8 53       		.byte	0x53
 12375 1ca9 00000000 		.4byte	0
 12376 1cad 00000000 		.4byte	0
 12377              	.LLST172:
 12378 1cb1 08000000 		.4byte	.LVL424
 12379 1cb5 1E000000 		.4byte	.LVL427
 12380 1cb9 0200     		.2byte	0x2
 12381 1cbb 30       		.byte	0x30
 12382 1cbc 9F       		.byte	0x9f
ARM GAS  C:\Users\jsyoon\AppData\Local\Temp\ccDGobdh.s 			page 220


 12383 1cbd 1E000000 		.4byte	.LVL427
 12384 1cc1 26000000 		.4byte	.LVL428
 12385 1cc5 0100     		.2byte	0x1
 12386 1cc7 54       		.byte	0x54
 12387 1cc8 32000000 		.4byte	.LVL431
 12388 1ccc 36000000 		.4byte	.LVL432
 12389 1cd0 0100     		.2byte	0x1
 12390 1cd2 52       		.byte	0x52
 12391 1cd3 00000000 		.4byte	0
 12392 1cd7 00000000 		.4byte	0
 12393              	.LLST173:
 12394 1cdb 36000000 		.4byte	.LVL432
 12395 1cdf 52000000 		.4byte	.LVL438
 12396 1ce3 0100     		.2byte	0x1
 12397 1ce5 51       		.byte	0x51
 12398 1ce6 00000000 		.4byte	0
 12399 1cea 00000000 		.4byte	0
 12400              	.LLST174:
 12401 1cee 36000000 		.4byte	.LVL432
 12402 1cf2 52000000 		.4byte	.LVL438
 12403 1cf6 0100     		.2byte	0x1
 12404 1cf8 50       		.byte	0x50
 12405 1cf9 00000000 		.4byte	0
 12406 1cfd 00000000 		.4byte	0
 12407              	.LLST175:
 12408 1d01 36000000 		.4byte	.LVL432
 12409 1d05 38000000 		.4byte	.LVL433
 12410 1d09 0200     		.2byte	0x2
 12411 1d0b 30       		.byte	0x30
 12412 1d0c 9F       		.byte	0x9f
 12413 1d0d 38000000 		.4byte	.LVL433
 12414 1d11 3C000000 		.4byte	.LVL434
 12415 1d15 0100     		.2byte	0x1
 12416 1d17 53       		.byte	0x53
 12417 1d18 40000000 		.4byte	.LVL435
 12418 1d1c 46000000 		.4byte	.LVL437
 12419 1d20 0100     		.2byte	0x1
 12420 1d22 53       		.byte	0x53
 12421 1d23 00000000 		.4byte	0
 12422 1d27 00000000 		.4byte	0
 12423              	.LLST176:
 12424 1d2b 00000000 		.4byte	.LVL449
 12425 1d2f 10000000 		.4byte	.LVL453
 12426 1d33 0100     		.2byte	0x1
 12427 1d35 51       		.byte	0x51
 12428 1d36 10000000 		.4byte	.LVL453
 12429 1d3a 28000000 		.4byte	.LFE189
 12430 1d3e 0400     		.2byte	0x4
 12431 1d40 F3       		.byte	0xf3
 12432 1d41 01       		.uleb128 0x1
 12433 1d42 51       		.byte	0x51
 12434 1d43 9F       		.byte	0x9f
 12435 1d44 00000000 		.4byte	0
 12436 1d48 00000000 		.4byte	0
 12437              	.LLST177:
 12438 1d4c 00000000 		.4byte	.LVL449
 12439 1d50 08000000 		.4byte	.LVL451
ARM GAS  C:\Users\jsyoon\AppData\Local\Temp\ccDGobdh.s 			page 221


 12440 1d54 0100     		.2byte	0x1
 12441 1d56 53       		.byte	0x53
 12442 1d57 08000000 		.4byte	.LVL451
 12443 1d5b 28000000 		.4byte	.LFE189
 12444 1d5f 0400     		.2byte	0x4
 12445 1d61 F3       		.byte	0xf3
 12446 1d62 01       		.uleb128 0x1
 12447 1d63 53       		.byte	0x53
 12448 1d64 9F       		.byte	0x9f
 12449 1d65 00000000 		.4byte	0
 12450 1d69 00000000 		.4byte	0
 12451              	.LLST178:
 12452 1d6d 00000000 		.4byte	.LVL449
 12453 1d71 14000000 		.4byte	.LVL454
 12454 1d75 0200     		.2byte	0x2
 12455 1d77 30       		.byte	0x30
 12456 1d78 9F       		.byte	0x9f
 12457 1d79 14000000 		.4byte	.LVL454
 12458 1d7d 1C000000 		.4byte	.LVL455
 12459 1d81 0500     		.2byte	0x5
 12460 1d83 73       		.byte	0x73
 12461 1d84 00       		.sleb128 0
 12462 1d85 37       		.byte	0x37
 12463 1d86 21       		.byte	0x21
 12464 1d87 9F       		.byte	0x9f
 12465 1d88 20000000 		.4byte	.LVL456
 12466 1d8c 24000000 		.4byte	.LVL457
 12467 1d90 0500     		.2byte	0x5
 12468 1d92 73       		.byte	0x73
 12469 1d93 00       		.sleb128 0
 12470 1d94 37       		.byte	0x37
 12471 1d95 21       		.byte	0x21
 12472 1d96 9F       		.byte	0x9f
 12473 1d97 24000000 		.4byte	.LVL457
 12474 1d9b 28000000 		.4byte	.LFE189
 12475 1d9f 0100     		.2byte	0x1
 12476 1da1 53       		.byte	0x53
 12477 1da2 00000000 		.4byte	0
 12478 1da6 00000000 		.4byte	0
 12479              	.LLST181:
 12480 1daa 00000000 		.4byte	.LVL449
 12481 1dae 04000000 		.4byte	.LVL450
 12482 1db2 0200     		.2byte	0x2
 12483 1db4 30       		.byte	0x30
 12484 1db5 9F       		.byte	0x9f
 12485 1db6 04000000 		.4byte	.LVL450
 12486 1dba 0A000000 		.4byte	.LVL452
 12487 1dbe 0600     		.2byte	0x6
 12488 1dc0 74       		.byte	0x74
 12489 1dc1 00       		.sleb128 0
 12490 1dc2 08       		.byte	0x8
 12491 1dc3 FF       		.byte	0xff
 12492 1dc4 1A       		.byte	0x1a
 12493 1dc5 9F       		.byte	0x9f
 12494 1dc6 10000000 		.4byte	.LVL453
 12495 1dca 28000000 		.4byte	.LFE189
 12496 1dce 0100     		.2byte	0x1
ARM GAS  C:\Users\jsyoon\AppData\Local\Temp\ccDGobdh.s 			page 222


 12497 1dd0 51       		.byte	0x51
 12498 1dd1 00000000 		.4byte	0
 12499 1dd5 00000000 		.4byte	0
 12500              	.LLST182:
 12501 1dd9 00000000 		.4byte	.LVL458
 12502 1ddd 10000000 		.4byte	.LVL462
 12503 1de1 0100     		.2byte	0x1
 12504 1de3 51       		.byte	0x51
 12505 1de4 10000000 		.4byte	.LVL462
 12506 1de8 22000000 		.4byte	.LFE190
 12507 1dec 0400     		.2byte	0x4
 12508 1dee F3       		.byte	0xf3
 12509 1def 01       		.uleb128 0x1
 12510 1df0 51       		.byte	0x51
 12511 1df1 9F       		.byte	0x9f
 12512 1df2 00000000 		.4byte	0
 12513 1df6 00000000 		.4byte	0
 12514              	.LLST183:
 12515 1dfa 00000000 		.4byte	.LVL458
 12516 1dfe 08000000 		.4byte	.LVL460
 12517 1e02 0100     		.2byte	0x1
 12518 1e04 53       		.byte	0x53
 12519 1e05 08000000 		.4byte	.LVL460
 12520 1e09 22000000 		.4byte	.LFE190
 12521 1e0d 0400     		.2byte	0x4
 12522 1e0f F3       		.byte	0xf3
 12523 1e10 01       		.uleb128 0x1
 12524 1e11 53       		.byte	0x53
 12525 1e12 9F       		.byte	0x9f
 12526 1e13 00000000 		.4byte	0
 12527 1e17 00000000 		.4byte	0
 12528              	.LLST186:
 12529 1e1b 00000000 		.4byte	.LVL458
 12530 1e1f 04000000 		.4byte	.LVL459
 12531 1e23 0200     		.2byte	0x2
 12532 1e25 30       		.byte	0x30
 12533 1e26 9F       		.byte	0x9f
 12534 1e27 04000000 		.4byte	.LVL459
 12535 1e2b 0A000000 		.4byte	.LVL461
 12536 1e2f 0600     		.2byte	0x6
 12537 1e31 74       		.byte	0x74
 12538 1e32 00       		.sleb128 0
 12539 1e33 08       		.byte	0x8
 12540 1e34 FF       		.byte	0xff
 12541 1e35 1A       		.byte	0x1a
 12542 1e36 9F       		.byte	0x9f
 12543 1e37 10000000 		.4byte	.LVL462
 12544 1e3b 22000000 		.4byte	.LFE190
 12545 1e3f 0100     		.2byte	0x1
 12546 1e41 51       		.byte	0x51
 12547 1e42 00000000 		.4byte	0
 12548 1e46 00000000 		.4byte	0
 12549              	.LLST187:
 12550 1e4a 00000000 		.4byte	.LVL463
 12551 1e4e 0C000000 		.4byte	.LVL467
 12552 1e52 0100     		.2byte	0x1
 12553 1e54 51       		.byte	0x51
ARM GAS  C:\Users\jsyoon\AppData\Local\Temp\ccDGobdh.s 			page 223


 12554 1e55 0C000000 		.4byte	.LVL467
 12555 1e59 10000000 		.4byte	.LFE191
 12556 1e5d 0400     		.2byte	0x4
 12557 1e5f F3       		.byte	0xf3
 12558 1e60 01       		.uleb128 0x1
 12559 1e61 51       		.byte	0x51
 12560 1e62 9F       		.byte	0x9f
 12561 1e63 00000000 		.4byte	0
 12562 1e67 00000000 		.4byte	0
 12563              	.LLST188:
 12564 1e6b 00000000 		.4byte	.LVL463
 12565 1e6f 02000000 		.4byte	.LVL464
 12566 1e73 0200     		.2byte	0x2
 12567 1e75 30       		.byte	0x30
 12568 1e76 9F       		.byte	0x9f
 12569 1e77 02000000 		.4byte	.LVL464
 12570 1e7b 06000000 		.4byte	.LVL465
 12571 1e7f 0100     		.2byte	0x1
 12572 1e81 53       		.byte	0x53
 12573 1e82 0A000000 		.4byte	.LVL466
 12574 1e86 0C000000 		.4byte	.LVL467
 12575 1e8a 0100     		.2byte	0x1
 12576 1e8c 53       		.byte	0x53
 12577 1e8d 0C000000 		.4byte	.LVL467
 12578 1e91 10000000 		.4byte	.LFE191
 12579 1e95 0100     		.2byte	0x1
 12580 1e97 51       		.byte	0x51
 12581 1e98 00000000 		.4byte	0
 12582 1e9c 00000000 		.4byte	0
 12583              	.LLST189:
 12584 1ea0 00000000 		.4byte	.LVL468
 12585 1ea4 12000000 		.4byte	.LVL469
 12586 1ea8 0100     		.2byte	0x1
 12587 1eaa 51       		.byte	0x51
 12588 1eab 12000000 		.4byte	.LVL469
 12589 1eaf 16000000 		.4byte	.LFE192
 12590 1eb3 0400     		.2byte	0x4
 12591 1eb5 F3       		.byte	0xf3
 12592 1eb6 01       		.uleb128 0x1
 12593 1eb7 51       		.byte	0x51
 12594 1eb8 9F       		.byte	0x9f
 12595 1eb9 00000000 		.4byte	0
 12596 1ebd 00000000 		.4byte	0
 12597              	.LLST190:
 12598 1ec1 00000000 		.4byte	.LVL470
 12599 1ec5 12000000 		.4byte	.LVL471
 12600 1ec9 0100     		.2byte	0x1
 12601 1ecb 51       		.byte	0x51
 12602 1ecc 12000000 		.4byte	.LVL471
 12603 1ed0 16000000 		.4byte	.LFE193
 12604 1ed4 0400     		.2byte	0x4
 12605 1ed6 F3       		.byte	0xf3
 12606 1ed7 01       		.uleb128 0x1
 12607 1ed8 51       		.byte	0x51
 12608 1ed9 9F       		.byte	0x9f
 12609 1eda 00000000 		.4byte	0
 12610 1ede 00000000 		.4byte	0
ARM GAS  C:\Users\jsyoon\AppData\Local\Temp\ccDGobdh.s 			page 224


 12611              	.LLST191:
 12612 1ee2 00000000 		.4byte	.LVL472
 12613 1ee6 12000000 		.4byte	.LVL473
 12614 1eea 0100     		.2byte	0x1
 12615 1eec 51       		.byte	0x51
 12616 1eed 12000000 		.4byte	.LVL473
 12617 1ef1 16000000 		.4byte	.LFE194
 12618 1ef5 0400     		.2byte	0x4
 12619 1ef7 F3       		.byte	0xf3
 12620 1ef8 01       		.uleb128 0x1
 12621 1ef9 51       		.byte	0x51
 12622 1efa 9F       		.byte	0x9f
 12623 1efb 00000000 		.4byte	0
 12624 1eff 00000000 		.4byte	0
 12625              	.LLST192:
 12626 1f03 00000000 		.4byte	.LVL474
 12627 1f07 08000000 		.4byte	.LVL477
 12628 1f0b 0100     		.2byte	0x1
 12629 1f0d 51       		.byte	0x51
 12630 1f0e 08000000 		.4byte	.LVL477
 12631 1f12 18000000 		.4byte	.LFE195
 12632 1f16 0400     		.2byte	0x4
 12633 1f18 F3       		.byte	0xf3
 12634 1f19 01       		.uleb128 0x1
 12635 1f1a 51       		.byte	0x51
 12636 1f1b 9F       		.byte	0x9f
 12637 1f1c 00000000 		.4byte	0
 12638 1f20 00000000 		.4byte	0
 12639              	.LLST193:
 12640 1f24 00000000 		.4byte	.LVL474
 12641 1f28 0A000000 		.4byte	.LVL478
 12642 1f2c 0100     		.2byte	0x1
 12643 1f2e 52       		.byte	0x52
 12644 1f2f 0A000000 		.4byte	.LVL478
 12645 1f33 18000000 		.4byte	.LFE195
 12646 1f37 0400     		.2byte	0x4
 12647 1f39 F3       		.byte	0xf3
 12648 1f3a 01       		.uleb128 0x1
 12649 1f3b 52       		.byte	0x52
 12650 1f3c 9F       		.byte	0x9f
 12651 1f3d 00000000 		.4byte	0
 12652 1f41 00000000 		.4byte	0
 12653              	.LLST194:
 12654 1f45 00000000 		.4byte	.LVL474
 12655 1f49 0E000000 		.4byte	.LVL479
 12656 1f4d 0100     		.2byte	0x1
 12657 1f4f 53       		.byte	0x53
 12658 1f50 0E000000 		.4byte	.LVL479
 12659 1f54 18000000 		.4byte	.LFE195
 12660 1f58 0400     		.2byte	0x4
 12661 1f5a F3       		.byte	0xf3
 12662 1f5b 01       		.uleb128 0x1
 12663 1f5c 53       		.byte	0x53
 12664 1f5d 9F       		.byte	0x9f
 12665 1f5e 00000000 		.4byte	0
 12666 1f62 00000000 		.4byte	0
 12667              	.LLST195:
ARM GAS  C:\Users\jsyoon\AppData\Local\Temp\ccDGobdh.s 			page 225


 12668 1f66 00000000 		.4byte	.LVL474
 12669 1f6a 04000000 		.4byte	.LVL475
 12670 1f6e 0200     		.2byte	0x2
 12671 1f70 30       		.byte	0x30
 12672 1f71 9F       		.byte	0x9f
 12673 1f72 04000000 		.4byte	.LVL475
 12674 1f76 06000000 		.4byte	.LVL476
 12675 1f7a 0600     		.2byte	0x6
 12676 1f7c 74       		.byte	0x74
 12677 1f7d 00       		.sleb128 0
 12678 1f7e 08       		.byte	0x8
 12679 1f7f FF       		.byte	0xff
 12680 1f80 1A       		.byte	0x1a
 12681 1f81 9F       		.byte	0x9f
 12682 1f82 10000000 		.4byte	.LVL480
 12683 1f86 18000000 		.4byte	.LFE195
 12684 1f8a 0100     		.2byte	0x1
 12685 1f8c 53       		.byte	0x53
 12686 1f8d 00000000 		.4byte	0
 12687 1f91 00000000 		.4byte	0
 12688              	.LLST196:
 12689 1f95 00000000 		.4byte	.LVL481
 12690 1f99 2E000000 		.4byte	.LVL491
 12691 1f9d 0100     		.2byte	0x1
 12692 1f9f 51       		.byte	0x51
 12693 1fa0 2E000000 		.4byte	.LVL491
 12694 1fa4 3E000000 		.4byte	.LFE196
 12695 1fa8 0400     		.2byte	0x4
 12696 1faa F3       		.byte	0xf3
 12697 1fab 01       		.uleb128 0x1
 12698 1fac 51       		.byte	0x51
 12699 1fad 9F       		.byte	0x9f
 12700 1fae 00000000 		.4byte	0
 12701 1fb2 00000000 		.4byte	0
 12702              	.LLST197:
 12703 1fb6 00000000 		.4byte	.LVL481
 12704 1fba 1E000000 		.4byte	.LVL488
 12705 1fbe 0100     		.2byte	0x1
 12706 1fc0 52       		.byte	0x52
 12707 1fc1 1E000000 		.4byte	.LVL488
 12708 1fc5 3E000000 		.4byte	.LFE196
 12709 1fc9 0400     		.2byte	0x4
 12710 1fcb F3       		.byte	0xf3
 12711 1fcc 01       		.uleb128 0x1
 12712 1fcd 52       		.byte	0x52
 12713 1fce 9F       		.byte	0x9f
 12714 1fcf 00000000 		.4byte	0
 12715 1fd3 00000000 		.4byte	0
 12716              	.LLST198:
 12717 1fd7 00000000 		.4byte	.LVL481
 12718 1fdb 2C000000 		.4byte	.LVL490
 12719 1fdf 0100     		.2byte	0x1
 12720 1fe1 53       		.byte	0x53
 12721 1fe2 2C000000 		.4byte	.LVL490
 12722 1fe6 3E000000 		.4byte	.LFE196
 12723 1fea 0400     		.2byte	0x4
 12724 1fec F3       		.byte	0xf3
ARM GAS  C:\Users\jsyoon\AppData\Local\Temp\ccDGobdh.s 			page 226


 12725 1fed 01       		.uleb128 0x1
 12726 1fee 53       		.byte	0x53
 12727 1fef 9F       		.byte	0x9f
 12728 1ff0 00000000 		.4byte	0
 12729 1ff4 00000000 		.4byte	0
 12730              	.LLST199:
 12731 1ff8 00000000 		.4byte	.LVL481
 12732 1ffc 04000000 		.4byte	.LVL482
 12733 2000 0200     		.2byte	0x2
 12734 2002 30       		.byte	0x30
 12735 2003 9F       		.byte	0x9f
 12736 2004 04000000 		.4byte	.LVL482
 12737 2008 1A000000 		.4byte	.LVL487
 12738 200c 0100     		.2byte	0x1
 12739 200e 55       		.byte	0x55
 12740 200f 24000000 		.4byte	.LVL489
 12741 2013 2E000000 		.4byte	.LVL491
 12742 2017 0100     		.2byte	0x1
 12743 2019 55       		.byte	0x55
 12744 201a 2E000000 		.4byte	.LVL491
 12745 201e 3E000000 		.4byte	.LFE196
 12746 2022 0100     		.2byte	0x1
 12747 2024 51       		.byte	0x51
 12748 2025 00000000 		.4byte	0
 12749 2029 00000000 		.4byte	0
 12750              	.LLST200:
 12751 202d 00000000 		.4byte	.LVL481
 12752 2031 06000000 		.4byte	.LVL483
 12753 2035 0200     		.2byte	0x2
 12754 2037 30       		.byte	0x30
 12755 2038 9F       		.byte	0x9f
 12756 2039 06000000 		.4byte	.LVL483
 12757 203d 0C000000 		.4byte	.LVL484
 12758 2041 0100     		.2byte	0x1
 12759 2043 54       		.byte	0x54
 12760 2044 32000000 		.4byte	.LVL492
 12761 2048 3C000000 		.4byte	.LVL494
 12762 204c 0100     		.2byte	0x1
 12763 204e 54       		.byte	0x54
 12764 204f 00000000 		.4byte	0
 12765 2053 00000000 		.4byte	0
 12766              	.LLST201:
 12767 2057 00000000 		.4byte	.LVL481
 12768 205b 12000000 		.4byte	.LVL485
 12769 205f 0200     		.2byte	0x2
 12770 2061 30       		.byte	0x30
 12771 2062 9F       		.byte	0x9f
 12772 2063 12000000 		.4byte	.LVL485
 12773 2067 16000000 		.4byte	.LVL486
 12774 206b 0100     		.2byte	0x1
 12775 206d 56       		.byte	0x56
 12776 206e 34000000 		.4byte	.LVL493
 12777 2072 3E000000 		.4byte	.LFE196
 12778 2076 0100     		.2byte	0x1
 12779 2078 53       		.byte	0x53
 12780 2079 00000000 		.4byte	0
 12781 207d 00000000 		.4byte	0
ARM GAS  C:\Users\jsyoon\AppData\Local\Temp\ccDGobdh.s 			page 227


 12782              		.section	.debug_aranges,"",%progbits
 12783 0000 D4020000 		.4byte	0x2d4
 12784 0004 0200     		.2byte	0x2
 12785 0006 00000000 		.4byte	.Ldebug_info0
 12786 000a 04       		.byte	0x4
 12787 000b 00       		.byte	0
 12788 000c 0000     		.2byte	0
 12789 000e 0000     		.2byte	0
 12790 0010 00000000 		.4byte	.LFB111
 12791 0014 B8010000 		.4byte	.LFE111-.LFB111
 12792 0018 00000000 		.4byte	.LFB112
 12793 001c 9C000000 		.4byte	.LFE112-.LFB112
 12794 0020 00000000 		.4byte	.LFB113
 12795 0024 12000000 		.4byte	.LFE113-.LFB113
 12796 0028 00000000 		.4byte	.LFB114
 12797 002c 06000000 		.4byte	.LFE114-.LFB114
 12798 0030 00000000 		.4byte	.LFB115
 12799 0034 10000000 		.4byte	.LFE115-.LFB115
 12800 0038 00000000 		.4byte	.LFB116
 12801 003c 04000000 		.4byte	.LFE116-.LFB116
 12802 0040 00000000 		.4byte	.LFB117
 12803 0044 04000000 		.4byte	.LFE117-.LFB117
 12804 0048 00000000 		.4byte	.LFB118
 12805 004c 04000000 		.4byte	.LFE118-.LFB118
 12806 0050 00000000 		.4byte	.LFB119
 12807 0054 06000000 		.4byte	.LFE119-.LFB119
 12808 0058 00000000 		.4byte	.LFB120
 12809 005c 1A000000 		.4byte	.LFE120-.LFB120
 12810 0060 00000000 		.4byte	.LFB121
 12811 0064 1A000000 		.4byte	.LFE121-.LFB121
 12812 0068 00000000 		.4byte	.LFB122
 12813 006c 1A000000 		.4byte	.LFE122-.LFB122
 12814 0070 00000000 		.4byte	.LFB123
 12815 0074 16000000 		.4byte	.LFE123-.LFB123
 12816 0078 00000000 		.4byte	.LFB124
 12817 007c 16000000 		.4byte	.LFE124-.LFB124
 12818 0080 00000000 		.4byte	.LFB125
 12819 0084 1A000000 		.4byte	.LFE125-.LFB125
 12820 0088 00000000 		.4byte	.LFB126
 12821 008c 80000000 		.4byte	.LFE126-.LFB126
 12822 0090 00000000 		.4byte	.LFB127
 12823 0094 90000000 		.4byte	.LFE127-.LFB127
 12824 0098 00000000 		.4byte	.LFB128
 12825 009c 8C000000 		.4byte	.LFE128-.LFB128
 12826 00a0 00000000 		.4byte	.LFB129
 12827 00a4 6C000000 		.4byte	.LFE129-.LFB129
 12828 00a8 00000000 		.4byte	.LFB130
 12829 00ac 14000000 		.4byte	.LFE130-.LFB130
 12830 00b0 00000000 		.4byte	.LFB131
 12831 00b4 50000000 		.4byte	.LFE131-.LFB131
 12832 00b8 00000000 		.4byte	.LFB132
 12833 00bc 04000000 		.4byte	.LFE132-.LFB132
 12834 00c0 00000000 		.4byte	.LFB133
 12835 00c4 04000000 		.4byte	.LFE133-.LFB133
 12836 00c8 00000000 		.4byte	.LFB134
 12837 00cc 04000000 		.4byte	.LFE134-.LFB134
 12838 00d0 00000000 		.4byte	.LFB135
ARM GAS  C:\Users\jsyoon\AppData\Local\Temp\ccDGobdh.s 			page 228


 12839 00d4 04000000 		.4byte	.LFE135-.LFB135
 12840 00d8 00000000 		.4byte	.LFB136
 12841 00dc 10000000 		.4byte	.LFE136-.LFB136
 12842 00e0 00000000 		.4byte	.LFB137
 12843 00e4 14000000 		.4byte	.LFE137-.LFB137
 12844 00e8 00000000 		.4byte	.LFB138
 12845 00ec 10000000 		.4byte	.LFE138-.LFB138
 12846 00f0 00000000 		.4byte	.LFB139
 12847 00f4 14000000 		.4byte	.LFE139-.LFB139
 12848 00f8 00000000 		.4byte	.LFB140
 12849 00fc 10000000 		.4byte	.LFE140-.LFB140
 12850 0100 00000000 		.4byte	.LFB141
 12851 0104 14000000 		.4byte	.LFE141-.LFB141
 12852 0108 00000000 		.4byte	.LFB142
 12853 010c 10000000 		.4byte	.LFE142-.LFB142
 12854 0110 00000000 		.4byte	.LFB143
 12855 0114 14000000 		.4byte	.LFE143-.LFB143
 12856 0118 00000000 		.4byte	.LFB144
 12857 011c 10000000 		.4byte	.LFE144-.LFB144
 12858 0120 00000000 		.4byte	.LFB145
 12859 0124 14000000 		.4byte	.LFE145-.LFB145
 12860 0128 00000000 		.4byte	.LFB146
 12861 012c 10000000 		.4byte	.LFE146-.LFB146
 12862 0130 00000000 		.4byte	.LFB147
 12863 0134 14000000 		.4byte	.LFE147-.LFB147
 12864 0138 00000000 		.4byte	.LFB148
 12865 013c 10000000 		.4byte	.LFE148-.LFB148
 12866 0140 00000000 		.4byte	.LFB149
 12867 0144 10000000 		.4byte	.LFE149-.LFB149
 12868 0148 00000000 		.4byte	.LFB150
 12869 014c 10000000 		.4byte	.LFE150-.LFB150
 12870 0150 00000000 		.4byte	.LFB151
 12871 0154 10000000 		.4byte	.LFE151-.LFB151
 12872 0158 00000000 		.4byte	.LFB152
 12873 015c 10000000 		.4byte	.LFE152-.LFB152
 12874 0160 00000000 		.4byte	.LFB153
 12875 0164 10000000 		.4byte	.LFE153-.LFB153
 12876 0168 00000000 		.4byte	.LFB154
 12877 016c 14000000 		.4byte	.LFE154-.LFB154
 12878 0170 00000000 		.4byte	.LFB155
 12879 0174 14000000 		.4byte	.LFE155-.LFB155
 12880 0178 00000000 		.4byte	.LFB156
 12881 017c 14000000 		.4byte	.LFE156-.LFB156
 12882 0180 00000000 		.4byte	.LFB157
 12883 0184 14000000 		.4byte	.LFE157-.LFB157
 12884 0188 00000000 		.4byte	.LFB158
 12885 018c 14000000 		.4byte	.LFE158-.LFB158
 12886 0190 00000000 		.4byte	.LFB159
 12887 0194 20000000 		.4byte	.LFE159-.LFB159
 12888 0198 00000000 		.4byte	.LFB160
 12889 019c 20000000 		.4byte	.LFE160-.LFB160
 12890 01a0 00000000 		.4byte	.LFB161
 12891 01a4 68010000 		.4byte	.LFE161-.LFB161
 12892 01a8 00000000 		.4byte	.LFB162
 12893 01ac 10000000 		.4byte	.LFE162-.LFB162
 12894 01b0 00000000 		.4byte	.LFB163
 12895 01b4 4E010000 		.4byte	.LFE163-.LFB163
ARM GAS  C:\Users\jsyoon\AppData\Local\Temp\ccDGobdh.s 			page 229


 12896 01b8 00000000 		.4byte	.LFB164
 12897 01bc 04000000 		.4byte	.LFE164-.LFB164
 12898 01c0 00000000 		.4byte	.LFB165
 12899 01c4 04000000 		.4byte	.LFE165-.LFB165
 12900 01c8 00000000 		.4byte	.LFB166
 12901 01cc 04000000 		.4byte	.LFE166-.LFB166
 12902 01d0 00000000 		.4byte	.LFB167
 12903 01d4 04000000 		.4byte	.LFE167-.LFB167
 12904 01d8 00000000 		.4byte	.LFB168
 12905 01dc 16000000 		.4byte	.LFE168-.LFB168
 12906 01e0 00000000 		.4byte	.LFB169
 12907 01e4 1A000000 		.4byte	.LFE169-.LFB169
 12908 01e8 00000000 		.4byte	.LFB170
 12909 01ec 16000000 		.4byte	.LFE170-.LFB170
 12910 01f0 00000000 		.4byte	.LFB171
 12911 01f4 1A000000 		.4byte	.LFE171-.LFB171
 12912 01f8 00000000 		.4byte	.LFB172
 12913 01fc 2A000000 		.4byte	.LFE172-.LFB172
 12914 0200 00000000 		.4byte	.LFB173
 12915 0204 12000000 		.4byte	.LFE173-.LFB173
 12916 0208 00000000 		.4byte	.LFB174
 12917 020c 20000000 		.4byte	.LFE174-.LFB174
 12918 0210 00000000 		.4byte	.LFB175
 12919 0214 1A000000 		.4byte	.LFE175-.LFB175
 12920 0218 00000000 		.4byte	.LFB176
 12921 021c 1A000000 		.4byte	.LFE176-.LFB176
 12922 0220 00000000 		.4byte	.LFB177
 12923 0224 14000000 		.4byte	.LFE177-.LFB177
 12924 0228 00000000 		.4byte	.LFB178
 12925 022c 04000000 		.4byte	.LFE178-.LFB178
 12926 0230 00000000 		.4byte	.LFB179
 12927 0234 0C000000 		.4byte	.LFE179-.LFB179
 12928 0238 00000000 		.4byte	.LFB180
 12929 023c 08000000 		.4byte	.LFE180-.LFB180
 12930 0240 00000000 		.4byte	.LFB181
 12931 0244 16000000 		.4byte	.LFE181-.LFB181
 12932 0248 00000000 		.4byte	.LFB182
 12933 024c 08000000 		.4byte	.LFE182-.LFB182
 12934 0250 00000000 		.4byte	.LFB183
 12935 0254 08000000 		.4byte	.LFE183-.LFB183
 12936 0258 00000000 		.4byte	.LFB184
 12937 025c 14000000 		.4byte	.LFE184-.LFB184
 12938 0260 00000000 		.4byte	.LFB185
 12939 0264 1A000000 		.4byte	.LFE185-.LFB185
 12940 0268 00000000 		.4byte	.LFB186
 12941 026c 0E000000 		.4byte	.LFE186-.LFB186
 12942 0270 00000000 		.4byte	.LFB187
 12943 0274 1A000000 		.4byte	.LFE187-.LFB187
 12944 0278 00000000 		.4byte	.LFB188
 12945 027c 88000000 		.4byte	.LFE188-.LFB188
 12946 0280 00000000 		.4byte	.LFB189
 12947 0284 28000000 		.4byte	.LFE189-.LFB189
 12948 0288 00000000 		.4byte	.LFB190
 12949 028c 22000000 		.4byte	.LFE190-.LFB190
 12950 0290 00000000 		.4byte	.LFB191
 12951 0294 10000000 		.4byte	.LFE191-.LFB191
 12952 0298 00000000 		.4byte	.LFB192
ARM GAS  C:\Users\jsyoon\AppData\Local\Temp\ccDGobdh.s 			page 230


 12953 029c 16000000 		.4byte	.LFE192-.LFB192
 12954 02a0 00000000 		.4byte	.LFB193
 12955 02a4 16000000 		.4byte	.LFE193-.LFB193
 12956 02a8 00000000 		.4byte	.LFB194
 12957 02ac 16000000 		.4byte	.LFE194-.LFB194
 12958 02b0 00000000 		.4byte	.LFB195
 12959 02b4 18000000 		.4byte	.LFE195-.LFB195
 12960 02b8 00000000 		.4byte	.LFB196
 12961 02bc 3E000000 		.4byte	.LFE196-.LFB196
 12962 02c0 00000000 		.4byte	.LFB197
 12963 02c4 1A000000 		.4byte	.LFE197-.LFB197
 12964 02c8 00000000 		.4byte	.LFB198
 12965 02cc 06000000 		.4byte	.LFE198-.LFB198
 12966 02d0 00000000 		.4byte	0
 12967 02d4 00000000 		.4byte	0
 12968              		.section	.debug_ranges,"",%progbits
 12969              	.Ldebug_ranges0:
 12970 0000 0E000000 		.4byte	.LBB46
 12971 0004 10000000 		.4byte	.LBE46
 12972 0008 1A010000 		.4byte	.LBB66
 12973 000c 22010000 		.4byte	.LBE66
 12974 0010 2A010000 		.4byte	.LBB67
 12975 0014 52010000 		.4byte	.LBE67
 12976 0018 00000000 		.4byte	0
 12977 001c 00000000 		.4byte	0
 12978 0020 6E000000 		.4byte	.LBB54
 12979 0024 70000000 		.4byte	.LBE54
 12980 0028 78000000 		.4byte	.LBB57
 12981 002c A6000000 		.4byte	.LBE57
 12982 0030 00000000 		.4byte	0
 12983 0034 00000000 		.4byte	0
 12984 0038 BE000000 		.4byte	.LBB60
 12985 003c C0000000 		.4byte	.LBE60
 12986 0040 C8000000 		.4byte	.LBB63
 12987 0044 FE000000 		.4byte	.LBE63
 12988 0048 00000000 		.4byte	0
 12989 004c 00000000 		.4byte	0
 12990 0050 0C000000 		.4byte	.LBB70
 12991 0054 0E000000 		.4byte	.LBE70
 12992 0058 BC000000 		.4byte	.LBB81
 12993 005c EA000000 		.4byte	.LBE81
 12994 0060 00000000 		.4byte	0
 12995 0064 00000000 		.4byte	0
 12996 0068 04000000 		.4byte	.LBB90
 12997 006c 06000000 		.4byte	.LBE90
 12998 0070 52000000 		.4byte	.LBB97
 12999 0074 88000000 		.4byte	.LBE97
 13000 0078 00000000 		.4byte	0
 13001 007c 00000000 		.4byte	0
 13002 0080 00000000 		.4byte	.LFB111
 13003 0084 B8010000 		.4byte	.LFE111
 13004 0088 00000000 		.4byte	.LFB112
 13005 008c 9C000000 		.4byte	.LFE112
 13006 0090 00000000 		.4byte	.LFB113
 13007 0094 12000000 		.4byte	.LFE113
 13008 0098 00000000 		.4byte	.LFB114
 13009 009c 06000000 		.4byte	.LFE114
ARM GAS  C:\Users\jsyoon\AppData\Local\Temp\ccDGobdh.s 			page 231


 13010 00a0 00000000 		.4byte	.LFB115
 13011 00a4 10000000 		.4byte	.LFE115
 13012 00a8 00000000 		.4byte	.LFB116
 13013 00ac 04000000 		.4byte	.LFE116
 13014 00b0 00000000 		.4byte	.LFB117
 13015 00b4 04000000 		.4byte	.LFE117
 13016 00b8 00000000 		.4byte	.LFB118
 13017 00bc 04000000 		.4byte	.LFE118
 13018 00c0 00000000 		.4byte	.LFB119
 13019 00c4 06000000 		.4byte	.LFE119
 13020 00c8 00000000 		.4byte	.LFB120
 13021 00cc 1A000000 		.4byte	.LFE120
 13022 00d0 00000000 		.4byte	.LFB121
 13023 00d4 1A000000 		.4byte	.LFE121
 13024 00d8 00000000 		.4byte	.LFB122
 13025 00dc 1A000000 		.4byte	.LFE122
 13026 00e0 00000000 		.4byte	.LFB123
 13027 00e4 16000000 		.4byte	.LFE123
 13028 00e8 00000000 		.4byte	.LFB124
 13029 00ec 16000000 		.4byte	.LFE124
 13030 00f0 00000000 		.4byte	.LFB125
 13031 00f4 1A000000 		.4byte	.LFE125
 13032 00f8 00000000 		.4byte	.LFB126
 13033 00fc 80000000 		.4byte	.LFE126
 13034 0100 00000000 		.4byte	.LFB127
 13035 0104 90000000 		.4byte	.LFE127
 13036 0108 00000000 		.4byte	.LFB128
 13037 010c 8C000000 		.4byte	.LFE128
 13038 0110 00000000 		.4byte	.LFB129
 13039 0114 6C000000 		.4byte	.LFE129
 13040 0118 00000000 		.4byte	.LFB130
 13041 011c 14000000 		.4byte	.LFE130
 13042 0120 00000000 		.4byte	.LFB131
 13043 0124 50000000 		.4byte	.LFE131
 13044 0128 00000000 		.4byte	.LFB132
 13045 012c 04000000 		.4byte	.LFE132
 13046 0130 00000000 		.4byte	.LFB133
 13047 0134 04000000 		.4byte	.LFE133
 13048 0138 00000000 		.4byte	.LFB134
 13049 013c 04000000 		.4byte	.LFE134
 13050 0140 00000000 		.4byte	.LFB135
 13051 0144 04000000 		.4byte	.LFE135
 13052 0148 00000000 		.4byte	.LFB136
 13053 014c 10000000 		.4byte	.LFE136
 13054 0150 00000000 		.4byte	.LFB137
 13055 0154 14000000 		.4byte	.LFE137
 13056 0158 00000000 		.4byte	.LFB138
 13057 015c 10000000 		.4byte	.LFE138
 13058 0160 00000000 		.4byte	.LFB139
 13059 0164 14000000 		.4byte	.LFE139
 13060 0168 00000000 		.4byte	.LFB140
 13061 016c 10000000 		.4byte	.LFE140
 13062 0170 00000000 		.4byte	.LFB141
 13063 0174 14000000 		.4byte	.LFE141
 13064 0178 00000000 		.4byte	.LFB142
 13065 017c 10000000 		.4byte	.LFE142
 13066 0180 00000000 		.4byte	.LFB143
ARM GAS  C:\Users\jsyoon\AppData\Local\Temp\ccDGobdh.s 			page 232


 13067 0184 14000000 		.4byte	.LFE143
 13068 0188 00000000 		.4byte	.LFB144
 13069 018c 10000000 		.4byte	.LFE144
 13070 0190 00000000 		.4byte	.LFB145
 13071 0194 14000000 		.4byte	.LFE145
 13072 0198 00000000 		.4byte	.LFB146
 13073 019c 10000000 		.4byte	.LFE146
 13074 01a0 00000000 		.4byte	.LFB147
 13075 01a4 14000000 		.4byte	.LFE147
 13076 01a8 00000000 		.4byte	.LFB148
 13077 01ac 10000000 		.4byte	.LFE148
 13078 01b0 00000000 		.4byte	.LFB149
 13079 01b4 10000000 		.4byte	.LFE149
 13080 01b8 00000000 		.4byte	.LFB150
 13081 01bc 10000000 		.4byte	.LFE150
 13082 01c0 00000000 		.4byte	.LFB151
 13083 01c4 10000000 		.4byte	.LFE151
 13084 01c8 00000000 		.4byte	.LFB152
 13085 01cc 10000000 		.4byte	.LFE152
 13086 01d0 00000000 		.4byte	.LFB153
 13087 01d4 10000000 		.4byte	.LFE153
 13088 01d8 00000000 		.4byte	.LFB154
 13089 01dc 14000000 		.4byte	.LFE154
 13090 01e0 00000000 		.4byte	.LFB155
 13091 01e4 14000000 		.4byte	.LFE155
 13092 01e8 00000000 		.4byte	.LFB156
 13093 01ec 14000000 		.4byte	.LFE156
 13094 01f0 00000000 		.4byte	.LFB157
 13095 01f4 14000000 		.4byte	.LFE157
 13096 01f8 00000000 		.4byte	.LFB158
 13097 01fc 14000000 		.4byte	.LFE158
 13098 0200 00000000 		.4byte	.LFB159
 13099 0204 20000000 		.4byte	.LFE159
 13100 0208 00000000 		.4byte	.LFB160
 13101 020c 20000000 		.4byte	.LFE160
 13102 0210 00000000 		.4byte	.LFB161
 13103 0214 68010000 		.4byte	.LFE161
 13104 0218 00000000 		.4byte	.LFB162
 13105 021c 10000000 		.4byte	.LFE162
 13106 0220 00000000 		.4byte	.LFB163
 13107 0224 4E010000 		.4byte	.LFE163
 13108 0228 00000000 		.4byte	.LFB164
 13109 022c 04000000 		.4byte	.LFE164
 13110 0230 00000000 		.4byte	.LFB165
 13111 0234 04000000 		.4byte	.LFE165
 13112 0238 00000000 		.4byte	.LFB166
 13113 023c 04000000 		.4byte	.LFE166
 13114 0240 00000000 		.4byte	.LFB167
 13115 0244 04000000 		.4byte	.LFE167
 13116 0248 00000000 		.4byte	.LFB168
 13117 024c 16000000 		.4byte	.LFE168
 13118 0250 00000000 		.4byte	.LFB169
 13119 0254 1A000000 		.4byte	.LFE169
 13120 0258 00000000 		.4byte	.LFB170
 13121 025c 16000000 		.4byte	.LFE170
 13122 0260 00000000 		.4byte	.LFB171
 13123 0264 1A000000 		.4byte	.LFE171
ARM GAS  C:\Users\jsyoon\AppData\Local\Temp\ccDGobdh.s 			page 233


 13124 0268 00000000 		.4byte	.LFB172
 13125 026c 2A000000 		.4byte	.LFE172
 13126 0270 00000000 		.4byte	.LFB173
 13127 0274 12000000 		.4byte	.LFE173
 13128 0278 00000000 		.4byte	.LFB174
 13129 027c 20000000 		.4byte	.LFE174
 13130 0280 00000000 		.4byte	.LFB175
 13131 0284 1A000000 		.4byte	.LFE175
 13132 0288 00000000 		.4byte	.LFB176
 13133 028c 1A000000 		.4byte	.LFE176
 13134 0290 00000000 		.4byte	.LFB177
 13135 0294 14000000 		.4byte	.LFE177
 13136 0298 00000000 		.4byte	.LFB178
 13137 029c 04000000 		.4byte	.LFE178
 13138 02a0 00000000 		.4byte	.LFB179
 13139 02a4 0C000000 		.4byte	.LFE179
 13140 02a8 00000000 		.4byte	.LFB180
 13141 02ac 08000000 		.4byte	.LFE180
 13142 02b0 00000000 		.4byte	.LFB181
 13143 02b4 16000000 		.4byte	.LFE181
 13144 02b8 00000000 		.4byte	.LFB182
 13145 02bc 08000000 		.4byte	.LFE182
 13146 02c0 00000000 		.4byte	.LFB183
 13147 02c4 08000000 		.4byte	.LFE183
 13148 02c8 00000000 		.4byte	.LFB184
 13149 02cc 14000000 		.4byte	.LFE184
 13150 02d0 00000000 		.4byte	.LFB185
 13151 02d4 1A000000 		.4byte	.LFE185
 13152 02d8 00000000 		.4byte	.LFB186
 13153 02dc 0E000000 		.4byte	.LFE186
 13154 02e0 00000000 		.4byte	.LFB187
 13155 02e4 1A000000 		.4byte	.LFE187
 13156 02e8 00000000 		.4byte	.LFB188
 13157 02ec 88000000 		.4byte	.LFE188
 13158 02f0 00000000 		.4byte	.LFB189
 13159 02f4 28000000 		.4byte	.LFE189
 13160 02f8 00000000 		.4byte	.LFB190
 13161 02fc 22000000 		.4byte	.LFE190
 13162 0300 00000000 		.4byte	.LFB191
 13163 0304 10000000 		.4byte	.LFE191
 13164 0308 00000000 		.4byte	.LFB192
 13165 030c 16000000 		.4byte	.LFE192
 13166 0310 00000000 		.4byte	.LFB193
 13167 0314 16000000 		.4byte	.LFE193
 13168 0318 00000000 		.4byte	.LFB194
 13169 031c 16000000 		.4byte	.LFE194
 13170 0320 00000000 		.4byte	.LFB195
 13171 0324 18000000 		.4byte	.LFE195
 13172 0328 00000000 		.4byte	.LFB196
 13173 032c 3E000000 		.4byte	.LFE196
 13174 0330 00000000 		.4byte	.LFB197
 13175 0334 1A000000 		.4byte	.LFE197
 13176 0338 00000000 		.4byte	.LFB198
 13177 033c 06000000 		.4byte	.LFE198
 13178 0340 00000000 		.4byte	0
 13179 0344 00000000 		.4byte	0
 13180              		.section	.debug_line,"",%progbits
ARM GAS  C:\Users\jsyoon\AppData\Local\Temp\ccDGobdh.s 			page 234


 13181              	.Ldebug_line0:
 13182 0000 400C0000 		.section	.debug_str,"MS",%progbits,1
 13182      0200BD01 
 13182      00000201 
 13182      FB0E0D00 
 13182      01010101 
 13183              	.LASF121:
 13184 0000 54494D5F 		.ascii	"TIM_OPMode\000"
 13184      4F504D6F 
 13184      646500
 13185              	.LASF116:
 13186 000b 4E657753 		.ascii	"NewState\000"
 13186      74617465 
 13186      00
 13187              	.LASF145:
 13188 0014 54494D5F 		.ascii	"TIM_ForcedOC2Config\000"
 13188      466F7263 
 13188      65644F43 
 13188      32436F6E 
 13188      66696700 
 13189              	.LASF120:
 13190 0028 54494D5F 		.ascii	"TIM_SelectOnePulseMode\000"
 13190      53656C65 
 13190      63744F6E 
 13190      6550756C 
 13190      73654D6F 
 13191              	.LASF205:
 13192 003f 54494D5F 		.ascii	"TIM_DMACmd\000"
 13192      444D4143 
 13192      6D6400
 13193              	.LASF28:
 13194 004a 44494552 		.ascii	"DIER\000"
 13194      00
 13195              	.LASF129:
 13196 004f 54494D5F 		.ascii	"TIM_OC2Init\000"
 13196      4F433249 
 13196      6E697400 
 13197              	.LASF144:
 13198 005b 54494D5F 		.ascii	"TIM_ForcedAction\000"
 13198      466F7263 
 13198      65644163 
 13198      74696F6E 
 13198      00
 13199              	.LASF94:
 13200 006c 54494D5F 		.ascii	"TIM_InputTriggerSource\000"
 13200      496E7075 
 13200      74547269 
 13200      67676572 
 13200      536F7572 
 13201              	.LASF216:
 13202 0083 54494D5F 		.ascii	"TIM_TRGOSource\000"
 13202      5452474F 
 13202      536F7572 
 13202      636500
 13203              	.LASF52:
 13204 0092 54494D5F 		.ascii	"TIM_CounterMode\000"
 13204      436F756E 
ARM GAS  C:\Users\jsyoon\AppData\Local\Temp\ccDGobdh.s 			page 235


 13204      7465724D 
 13204      6F646500 
 13205              	.LASF112:
 13206 00a2 4175746F 		.ascii	"Autoreload\000"
 13206      72656C6F 
 13206      616400
 13207              	.LASF147:
 13208 00ad 54494D5F 		.ascii	"TIM_ForcedOC4Config\000"
 13208      466F7263 
 13208      65644F43 
 13208      34436F6E 
 13208      66696700 
 13209              	.LASF158:
 13210 00c1 54494D5F 		.ascii	"TIM_ClearOC1Ref\000"
 13210      436C6561 
 13210      724F4331 
 13210      52656600 
 13211              	.LASF19:
 13212 00d1 466C6167 		.ascii	"FlagStatus\000"
 13212      53746174 
 13212      757300
 13213              	.LASF3:
 13214 00dc 5F5F7569 		.ascii	"__uint8_t\000"
 13214      6E74385F 
 13214      7400
 13215              	.LASF195:
 13216 00e6 54494D5F 		.ascii	"TIM_FLAG\000"
 13216      464C4147 
 13216      00
 13217              	.LASF136:
 13218 00ef 436F6D70 		.ascii	"Compare1\000"
 13218      61726531 
 13218      00
 13219              	.LASF135:
 13220 00f8 54494D5F 		.ascii	"TIM_SetCompare1\000"
 13220      53657443 
 13220      6F6D7061 
 13220      72653100 
 13221              	.LASF224:
 13222 0108 54494D5F 		.ascii	"TIM_IC2Polarity\000"
 13222      49433250 
 13222      6F6C6172 
 13222      69747900 
 13223              	.LASF115:
 13224 0118 54494D5F 		.ascii	"TIM_UpdateDisableConfig\000"
 13224      55706461 
 13224      74654469 
 13224      7361626C 
 13224      65436F6E 
 13225              	.LASF140:
 13226 0130 436F6D70 		.ascii	"Compare3\000"
 13226      61726533 
 13226      00
 13227              	.LASF60:
 13228 0139 54494D5F 		.ascii	"TIM_Pulse\000"
 13228      50756C73 
 13228      6500
ARM GAS  C:\Users\jsyoon\AppData\Local\Temp\ccDGobdh.s 			page 236


 13229              	.LASF228:
 13230 0143 5243435F 		.ascii	"RCC_APB1PeriphResetCmd\000"
 13230      41504231 
 13230      50657269 
 13230      70685265 
 13230      73657443 
 13231              	.LASF81:
 13232 015a 746D7063 		.ascii	"tmpccmr1\000"
 13232      636D7231 
 13232      00
 13233              	.LASF89:
 13234 0163 746D7063 		.ascii	"tmpccmr2\000"
 13234      636D7232 
 13234      00
 13235              	.LASF21:
 13236 016c 44495341 		.ascii	"DISABLE\000"
 13236      424C4500 
 13237              	.LASF128:
 13238 0174 746D7063 		.ascii	"tmpcr2\000"
 13238      723200
 13239              	.LASF93:
 13240 017b 54494D5F 		.ascii	"TIM_SelectInputTrigger\000"
 13240      53656C65 
 13240      6374496E 
 13240      70757454 
 13240      72696767 
 13241              	.LASF41:
 13242 0192 43435232 		.ascii	"CCR2\000"
 13242      00
 13243              	.LASF70:
 13244 0197 54494D5F 		.ascii	"TIM_ICFilter\000"
 13244      49434669 
 13244      6C746572 
 13244      00
 13245              	.LASF208:
 13246 01a4 54494D5F 		.ascii	"TIM_InternalClockConfig\000"
 13246      496E7465 
 13246      726E616C 
 13246      436C6F63 
 13246      6B436F6E 
 13247              	.LASF165:
 13248 01bc 54494D5F 		.ascii	"TIM_OC2PolarityConfig\000"
 13248      4F433250 
 13248      6F6C6172 
 13248      69747943 
 13248      6F6E6669 
 13249              	.LASF119:
 13250 01d2 54494D5F 		.ascii	"TIM_ARRPreloadConfig\000"
 13250      41525250 
 13250      72656C6F 
 13250      6164436F 
 13250      6E666967 
 13251              	.LASF232:
 13252 01e7 49544D5F 		.ascii	"ITM_RxBuffer\000"
 13252      52784275 
 13252      66666572 
 13252      00
ARM GAS  C:\Users\jsyoon\AppData\Local\Temp\ccDGobdh.s 			page 237


 13253              	.LASF230:
 13254 01f4 43686962 		.ascii	"ChibiOS_2.6.6/ext/stdperiph_stm32f4/src/stm32f4xx_t"
 13254      694F535F 
 13254      322E362E 
 13254      362F6578 
 13254      742F7374 
 13255 0227 696D2E63 		.ascii	"im.c\000"
 13255      00
 13256              	.LASF134:
 13257 022c 746D7031 		.ascii	"tmp1\000"
 13257      00
 13258              	.LASF221:
 13259 0231 54494D5F 		.ascii	"TIM_EncoderInterfaceConfig\000"
 13259      456E636F 
 13259      64657249 
 13259      6E746572 
 13259      66616365 
 13260              	.LASF68:
 13261 024c 54494D5F 		.ascii	"TIM_ICSelection\000"
 13261      49435365 
 13261      6C656374 
 13261      696F6E00 
 13262              	.LASF192:
 13263 025c 54494D5F 		.ascii	"TIM_GenerateEvent\000"
 13263      47656E65 
 13263      72617465 
 13263      4576656E 
 13263      7400
 13264              	.LASF223:
 13265 026e 54494D5F 		.ascii	"TIM_IC1Polarity\000"
 13265      49433150 
 13265      6F6C6172 
 13265      69747900 
 13266              	.LASF154:
 13267 027e 54494D5F 		.ascii	"TIM_OCFast\000"
 13267      4F434661 
 13267      737400
 13268              	.LASF66:
 13269 0289 54494D5F 		.ascii	"TIM_Channel\000"
 13269      4368616E 
 13269      6E656C00 
 13270              	.LASF32:
 13271 0295 43434D52 		.ascii	"CCMR1\000"
 13271      3100
 13272              	.LASF34:
 13273 029b 43434D52 		.ascii	"CCMR2\000"
 13273      3200
 13274              	.LASF107:
 13275 02a1 54494D5F 		.ascii	"TIM_CounterModeConfig\000"
 13275      436F756E 
 13275      7465724D 
 13275      6F646543 
 13275      6F6E6669 
 13276              	.LASF0:
 13277 02b7 7369676E 		.ascii	"signed char\000"
 13277      65642063 
 13277      68617200 
ARM GAS  C:\Users\jsyoon\AppData\Local\Temp\ccDGobdh.s 			page 238


 13278              	.LASF202:
 13279 02c3 54494D5F 		.ascii	"TIM_DMAConfig\000"
 13279      444D4143 
 13279      6F6E6669 
 13279      6700
 13280              	.LASF170:
 13281 02d1 54494D5F 		.ascii	"TIM_CCxCmd\000"
 13281      43437843 
 13281      6D6400
 13282              	.LASF11:
 13283 02dc 6C6F6E67 		.ascii	"long long unsigned int\000"
 13283      206C6F6E 
 13283      6720756E 
 13283      7369676E 
 13283      65642069 
 13284              	.LASF149:
 13285 02f3 54494D5F 		.ascii	"TIM_OCPreload\000"
 13285      4F435072 
 13285      656C6F61 
 13285      6400
 13286              	.LASF39:
 13287 0301 52455345 		.ascii	"RESERVED10\000"
 13287      52564544 
 13287      313000
 13288              	.LASF45:
 13289 030c 52455345 		.ascii	"RESERVED11\000"
 13289      52564544 
 13289      313100
 13290              	.LASF46:
 13291 0317 52455345 		.ascii	"RESERVED12\000"
 13291      52564544 
 13291      313200
 13292              	.LASF48:
 13293 0322 52455345 		.ascii	"RESERVED13\000"
 13293      52564544 
 13293      313300
 13294              	.LASF49:
 13295 032d 52455345 		.ascii	"RESERVED14\000"
 13295      52564544 
 13295      313400
 13296              	.LASF191:
 13297 0338 54494D5F 		.ascii	"TIM_IT\000"
 13297      495400
 13298              	.LASF231:
 13299 033f 453A5C4D 		.ascii	"E:\\Maker\\BLDC\\test_eval\\try2\\OROCA-BLDC_R15080"
 13299      616B6572 
 13299      5C424C44 
 13299      435C7465 
 13299      73745F65 
 13300 036d 3700     		.ascii	"7\000"
 13301              	.LASF7:
 13302 036f 6C6F6E67 		.ascii	"long int\000"
 13302      20696E74 
 13302      00
 13303              	.LASF59:
 13304 0378 54494D5F 		.ascii	"TIM_OutputNState\000"
 13304      4F757470 
ARM GAS  C:\Users\jsyoon\AppData\Local\Temp\ccDGobdh.s 			page 239


 13304      75744E53 
 13304      74617465 
 13304      00
 13305              	.LASF22:
 13306 0389 454E4142 		.ascii	"ENABLE\000"
 13306      4C4500
 13307              	.LASF127:
 13308 0390 746D7063 		.ascii	"tmpccmrx\000"
 13308      636D7278 
 13308      00
 13309              	.LASF36:
 13310 0399 43434552 		.ascii	"CCER\000"
 13310      00
 13311              	.LASF10:
 13312 039e 6C6F6E67 		.ascii	"long long int\000"
 13312      206C6F6E 
 13312      6720696E 
 13312      7400
 13313              	.LASF14:
 13314 03ac 75696E74 		.ascii	"uint16_t\000"
 13314      31365F74 
 13314      00
 13315              	.LASF123:
 13316 03b5 54494D5F 		.ascii	"TIM_CKD\000"
 13316      434B4400 
 13317              	.LASF111:
 13318 03bd 54494D5F 		.ascii	"TIM_SetAutoreload\000"
 13318      53657441 
 13318      75746F72 
 13318      656C6F61 
 13318      6400
 13319              	.LASF176:
 13320 03cf 54494D5F 		.ascii	"TIM_ICStructInit\000"
 13320      49435374 
 13320      72756374 
 13320      496E6974 
 13320      00
 13321              	.LASF181:
 13322 03e0 54494D5F 		.ascii	"TIM_GetCapture2\000"
 13322      47657443 
 13322      61707475 
 13322      72653200 
 13323              	.LASF182:
 13324 03f0 54494D5F 		.ascii	"TIM_GetCapture3\000"
 13324      47657443 
 13324      61707475 
 13324      72653300 
 13325              	.LASF183:
 13326 0400 54494D5F 		.ascii	"TIM_GetCapture4\000"
 13326      47657443 
 13326      61707475 
 13326      72653400 
 13327              	.LASF130:
 13328 0410 54494D5F 		.ascii	"TIM_OC3Init\000"
 13328      4F433349 
 13328      6E697400 
 13329              	.LASF178:
ARM GAS  C:\Users\jsyoon\AppData\Local\Temp\ccDGobdh.s 			page 240


 13330 041c 69636F70 		.ascii	"icoppositepolarity\000"
 13330      706F7369 
 13330      7465706F 
 13330      6C617269 
 13330      747900
 13331              	.LASF118:
 13332 042f 54494D5F 		.ascii	"TIM_UpdateSource\000"
 13332      55706461 
 13332      7465536F 
 13332      75726365 
 13332      00
 13333              	.LASF173:
 13334 0440 54494D5F 		.ascii	"TIM_CCxN\000"
 13334      4343784E 
 13334      00
 13335              	.LASF207:
 13336 0449 54494D5F 		.ascii	"TIM_SelectCCDMA\000"
 13336      53656C65 
 13336      63744343 
 13336      444D4100 
 13337              	.LASF4:
 13338 0459 5F5F7569 		.ascii	"__uint16_t\000"
 13338      6E743136 
 13338      5F7400
 13339              	.LASF50:
 13340 0464 54494D5F 		.ascii	"TIM_TypeDef\000"
 13340      54797065 
 13340      44656600 
 13341              	.LASF8:
 13342 0470 5F5F7569 		.ascii	"__uint32_t\000"
 13342      6E743332 
 13342      5F7400
 13343              	.LASF148:
 13344 047b 54494D5F 		.ascii	"TIM_OC1PreloadConfig\000"
 13344      4F433150 
 13344      72656C6F 
 13344      6164436F 
 13344      6E666967 
 13345              	.LASF204:
 13346 0490 54494D5F 		.ascii	"TIM_DMABurstLength\000"
 13346      444D4142 
 13346      75727374 
 13346      4C656E67 
 13346      746800
 13347              	.LASF197:
 13348 04a3 54494D5F 		.ascii	"TIM_ClearFlag\000"
 13348      436C6561 
 13348      72466C61 
 13348      6700
 13349              	.LASF137:
 13350 04b1 54494D5F 		.ascii	"TIM_SetCompare2\000"
 13350      53657443 
 13350      6F6D7061 
 13350      72653200 
 13351              	.LASF139:
 13352 04c1 54494D5F 		.ascii	"TIM_SetCompare3\000"
 13352      53657443 
ARM GAS  C:\Users\jsyoon\AppData\Local\Temp\ccDGobdh.s 			page 241


 13352      6F6D7061 
 13352      72653300 
 13353              	.LASF188:
 13354 04d1 54494D5F 		.ascii	"TIM_SelectCOM\000"
 13354      53656C65 
 13354      6374434F 
 13354      4D00
 13355              	.LASF82:
 13356 04df 746D7063 		.ascii	"tmpccer\000"
 13356      63657200 
 13357              	.LASF166:
 13358 04e7 54494D5F 		.ascii	"TIM_OC2NPolarityConfig\000"
 13358      4F43324E 
 13358      506F6C61 
 13358      72697479 
 13358      436F6E66 
 13359              	.LASF12:
 13360 04fe 756E7369 		.ascii	"unsigned int\000"
 13360      676E6564 
 13360      20696E74 
 13360      00
 13361              	.LASF91:
 13362 050b 5449345F 		.ascii	"TI4_Config\000"
 13362      436F6E66 
 13362      696700
 13363              	.LASF61:
 13364 0516 54494D5F 		.ascii	"TIM_OCPolarity\000"
 13364      4F43506F 
 13364      6C617269 
 13364      747900
 13365              	.LASF54:
 13366 0525 54494D5F 		.ascii	"TIM_ClockDivision\000"
 13366      436C6F63 
 13366      6B446976 
 13366      6973696F 
 13366      6E00
 13367              	.LASF114:
 13368 0537 54494D5F 		.ascii	"TIM_GetPrescaler\000"
 13368      47657450 
 13368      72657363 
 13368      616C6572 
 13368      00
 13369              	.LASF113:
 13370 0548 54494D5F 		.ascii	"TIM_GetCounter\000"
 13370      47657443 
 13370      6F756E74 
 13370      657200
 13371              	.LASF103:
 13372 0557 54494D5F 		.ascii	"TIM_TimeBaseStructInit\000"
 13372      54696D65 
 13372      42617365 
 13372      53747275 
 13372      6374496E 
 13373              	.LASF180:
 13374 056e 54494D5F 		.ascii	"TIM_GetCapture1\000"
 13374      47657443 
 13374      61707475 
ARM GAS  C:\Users\jsyoon\AppData\Local\Temp\ccDGobdh.s 			page 242


 13374      72653100 
 13375              	.LASF220:
 13376 057e 54494D5F 		.ascii	"TIM_MasterSlaveMode\000"
 13376      4D617374 
 13376      6572536C 
 13376      6176654D 
 13376      6F646500 
 13377              	.LASF217:
 13378 0592 54494D5F 		.ascii	"TIM_SelectSlaveMode\000"
 13378      53656C65 
 13378      6374536C 
 13378      6176654D 
 13378      6F646500 
 13379              	.LASF219:
 13380 05a6 54494D5F 		.ascii	"TIM_SelectMasterSlaveMode\000"
 13380      53656C65 
 13380      63744D61 
 13380      73746572 
 13380      536C6176 
 13381              	.LASF194:
 13382 05c0 54494D5F 		.ascii	"TIM_GetFlagStatus\000"
 13382      47657446 
 13382      6C616753 
 13382      74617475 
 13382      7300
 13383              	.LASF79:
 13384 05d2 54494D5F 		.ascii	"TIM_BDTRInitTypeDef\000"
 13384      42445452 
 13384      496E6974 
 13384      54797065 
 13384      44656600 
 13385              	.LASF126:
 13386 05e6 54494D5F 		.ascii	"TIM_OCInitStruct\000"
 13386      4F43496E 
 13386      69745374 
 13386      72756374 
 13386      00
 13387              	.LASF26:
 13388 05f7 534D4352 		.ascii	"SMCR\000"
 13388      00
 13389              	.LASF72:
 13390 05fc 54494D5F 		.ascii	"TIM_OSSRState\000"
 13390      4F535352 
 13390      53746174 
 13390      6500
 13391              	.LASF80:
 13392 060a 54494D78 		.ascii	"TIMx\000"
 13392      00
 13393              	.LASF222:
 13394 060f 54494D5F 		.ascii	"TIM_EncoderMode\000"
 13394      456E636F 
 13394      6465724D 
 13394      6F646500 
 13395              	.LASF169:
 13396 061f 54494D5F 		.ascii	"TIM_OC4PolarityConfig\000"
 13396      4F433450 
 13396      6F6C6172 
ARM GAS  C:\Users\jsyoon\AppData\Local\Temp\ccDGobdh.s 			page 243


 13396      69747943 
 13396      6F6E6669 
 13397              	.LASF78:
 13398 0635 54494D5F 		.ascii	"TIM_AutomaticOutput\000"
 13398      4175746F 
 13398      6D617469 
 13398      634F7574 
 13398      70757400 
 13399              	.LASF215:
 13400 0649 54494D5F 		.ascii	"TIM_SelectOutputTrigger\000"
 13400      53656C65 
 13400      63744F75 
 13400      74707574 
 13400      54726967 
 13401              	.LASF86:
 13402 0661 54494D5F 		.ascii	"TIM_SetIC1Prescaler\000"
 13402      53657449 
 13402      43315072 
 13402      65736361 
 13402      6C657200 
 13403              	.LASF177:
 13404 0675 54494D5F 		.ascii	"TIM_PWMIConfig\000"
 13404      50574D49 
 13404      436F6E66 
 13404      696700
 13405              	.LASF88:
 13406 0684 5449335F 		.ascii	"TI3_Config\000"
 13406      436F6E66 
 13406      696700
 13407              	.LASF206:
 13408 068f 54494D5F 		.ascii	"TIM_DMASource\000"
 13408      444D4153 
 13408      6F757263 
 13408      6500
 13409              	.LASF132:
 13410 069d 54494D5F 		.ascii	"TIM_OCStructInit\000"
 13410      4F435374 
 13410      72756374 
 13410      496E6974 
 13410      00
 13411              	.LASF106:
 13412 06ae 54494D5F 		.ascii	"TIM_PSCReloadMode\000"
 13412      50534352 
 13412      656C6F61 
 13412      644D6F64 
 13412      6500
 13413              	.LASF18:
 13414 06c0 52455345 		.ascii	"RESET\000"
 13414      5400
 13415              	.LASF95:
 13416 06c6 746D7073 		.ascii	"tmpsmcr\000"
 13416      6D637200 
 13417              	.LASF98:
 13418 06ce 54494D5F 		.ascii	"TIM_ExtTRGPolarity\000"
 13418      45787454 
 13418      5247506F 
 13418      6C617269 
ARM GAS  C:\Users\jsyoon\AppData\Local\Temp\ccDGobdh.s 			page 244


 13418      747900
 13419              	.LASF186:
 13420 06e1 54494D5F 		.ascii	"TIM_BDTRStructInit\000"
 13420      42445452 
 13420      53747275 
 13420      6374496E 
 13420      697400
 13421              	.LASF108:
 13422 06f4 746D7063 		.ascii	"tmpcr1\000"
 13422      723100
 13423              	.LASF143:
 13424 06fb 54494D5F 		.ascii	"TIM_ForcedOC1Config\000"
 13424      466F7263 
 13424      65644F43 
 13424      31436F6E 
 13424      66696700 
 13425              	.LASF17:
 13426 070f 73697A65 		.ascii	"sizetype\000"
 13426      74797065 
 13426      00
 13427              	.LASF97:
 13428 0718 54494D5F 		.ascii	"TIM_ExtTRGPrescaler\000"
 13428      45787454 
 13428      52475072 
 13428      65736361 
 13428      6C657200 
 13429              	.LASF76:
 13430 072c 54494D5F 		.ascii	"TIM_Break\000"
 13430      42726561 
 13430      6B00
 13431              	.LASF161:
 13432 0736 54494D5F 		.ascii	"TIM_ClearOC3Ref\000"
 13432      436C6561 
 13432      724F4333 
 13432      52656600 
 13433              	.LASF75:
 13434 0746 54494D5F 		.ascii	"TIM_DeadTime\000"
 13434      44656164 
 13434      54696D65 
 13434      00
 13435              	.LASF163:
 13436 0753 54494D5F 		.ascii	"TIM_OC1PolarityConfig\000"
 13436      4F433150 
 13436      6F6C6172 
 13436      69747943 
 13436      6F6E6669 
 13437              	.LASF146:
 13438 0769 54494D5F 		.ascii	"TIM_ForcedOC3Config\000"
 13438      466F7263 
 13438      65644F43 
 13438      33436F6E 
 13438      66696700 
 13439              	.LASF69:
 13440 077d 54494D5F 		.ascii	"TIM_ICPrescaler\000"
 13440      49435072 
 13440      65736361 
 13440      6C657200 
ARM GAS  C:\Users\jsyoon\AppData\Local\Temp\ccDGobdh.s 			page 245


 13441              	.LASF172:
 13442 078d 54494D5F 		.ascii	"TIM_CCxNCmd\000"
 13442      4343784E 
 13442      436D6400 
 13443              	.LASF142:
 13444 0799 436F6D70 		.ascii	"Compare4\000"
 13444      61726534 
 13444      00
 13445              	.LASF64:
 13446 07a2 54494D5F 		.ascii	"TIM_OCNIdleState\000"
 13446      4F434E49 
 13446      646C6553 
 13446      74617465 
 13446      00
 13447              	.LASF199:
 13448 07b3 69747374 		.ascii	"itstatus\000"
 13448      61747573 
 13448      00
 13449              	.LASF203:
 13450 07bc 54494D5F 		.ascii	"TIM_DMABase\000"
 13450      444D4142 
 13450      61736500 
 13451              	.LASF179:
 13452 07c8 69636F70 		.ascii	"icoppositeselection\000"
 13452      706F7369 
 13452      74657365 
 13452      6C656374 
 13452      696F6E00 
 13453              	.LASF23:
 13454 07dc 46756E63 		.ascii	"FunctionalState\000"
 13454      74696F6E 
 13454      616C5374 
 13454      61746500 
 13455              	.LASF227:
 13456 07ec 54494D5F 		.ascii	"TIM_Remap\000"
 13456      52656D61 
 13456      7000
 13457              	.LASF198:
 13458 07f6 54494D5F 		.ascii	"TIM_GetITStatus\000"
 13458      47657449 
 13458      54537461 
 13458      74757300 
 13459              	.LASF102:
 13460 0806 54494D5F 		.ascii	"TIM_TimeBaseInitStruct\000"
 13460      54696D65 
 13460      42617365 
 13460      496E6974 
 13460      53747275 
 13461              	.LASF233:
 13462 081d 5243435F 		.ascii	"RCC_APB2PeriphResetCmd\000"
 13462      41504232 
 13462      50657269 
 13462      70685265 
 13462      73657443 
 13463              	.LASF122:
 13464 0834 54494D5F 		.ascii	"TIM_SetClockDivision\000"
 13464      53657443 
ARM GAS  C:\Users\jsyoon\AppData\Local\Temp\ccDGobdh.s 			page 246


 13464      6C6F636B 
 13464      44697669 
 13464      73696F6E 
 13465              	.LASF171:
 13466 0849 54494D5F 		.ascii	"TIM_CCx\000"
 13466      43437800 
 13467              	.LASF110:
 13468 0851 436F756E 		.ascii	"Counter\000"
 13468      74657200 
 13469              	.LASF138:
 13470 0859 436F6D70 		.ascii	"Compare2\000"
 13470      61726532 
 13470      00
 13471              	.LASF58:
 13472 0862 54494D5F 		.ascii	"TIM_OutputState\000"
 13472      4F757470 
 13472      75745374 
 13472      61746500 
 13473              	.LASF193:
 13474 0872 54494D5F 		.ascii	"TIM_EventSource\000"
 13474      4576656E 
 13474      74536F75 
 13474      72636500 
 13475              	.LASF67:
 13476 0882 54494D5F 		.ascii	"TIM_ICPolarity\000"
 13476      4943506F 
 13476      6C617269 
 13476      747900
 13477              	.LASF25:
 13478 0891 52455345 		.ascii	"RESERVED1\000"
 13478      52564544 
 13478      3100
 13479              	.LASF27:
 13480 089b 52455345 		.ascii	"RESERVED2\000"
 13480      52564544 
 13480      3200
 13481              	.LASF29:
 13482 08a5 52455345 		.ascii	"RESERVED3\000"
 13482      52564544 
 13482      3300
 13483              	.LASF30:
 13484 08af 52455345 		.ascii	"RESERVED4\000"
 13484      52564544 
 13484      3400
 13485              	.LASF31:
 13486 08b9 52455345 		.ascii	"RESERVED5\000"
 13486      52564544 
 13486      3500
 13487              	.LASF33:
 13488 08c3 52455345 		.ascii	"RESERVED6\000"
 13488      52564544 
 13488      3600
 13489              	.LASF37:
 13490 08cd 52455345 		.ascii	"RESERVED8\000"
 13490      52564544 
 13490      3800
 13491              	.LASF38:
ARM GAS  C:\Users\jsyoon\AppData\Local\Temp\ccDGobdh.s 			page 247


 13492 08d7 52455345 		.ascii	"RESERVED9\000"
 13492      52564544 
 13492      3900
 13493              	.LASF51:
 13494 08e1 54494D5F 		.ascii	"TIM_Prescaler\000"
 13494      50726573 
 13494      63616C65 
 13494      7200
 13495              	.LASF210:
 13496 08ef 54494D5F 		.ascii	"TIM_TIxExternalClockConfig\000"
 13496      54497845 
 13496      78746572 
 13496      6E616C43 
 13496      6C6F636B 
 13497              	.LASF15:
 13498 090a 696E7433 		.ascii	"int32_t\000"
 13498      325F7400 
 13499              	.LASF1:
 13500 0912 756E7369 		.ascii	"unsigned char\000"
 13500      676E6564 
 13500      20636861 
 13500      7200
 13501              	.LASF74:
 13502 0920 54494D5F 		.ascii	"TIM_LOCKLevel\000"
 13502      4C4F434B 
 13502      4C657665 
 13502      6C00
 13503              	.LASF187:
 13504 092e 54494D5F 		.ascii	"TIM_CtrlPWMOutputs\000"
 13504      4374726C 
 13504      50574D4F 
 13504      75747075 
 13504      747300
 13505              	.LASF184:
 13506 0941 54494D5F 		.ascii	"TIM_BDTRConfig\000"
 13506      42445452 
 13506      436F6E66 
 13506      696700
 13507              	.LASF2:
 13508 0950 73686F72 		.ascii	"short int\000"
 13508      7420696E 
 13508      7400
 13509              	.LASF44:
 13510 095a 42445452 		.ascii	"BDTR\000"
 13510      00
 13511              	.LASF87:
 13512 095f 54494D5F 		.ascii	"TIM_SetIC2Prescaler\000"
 13512      53657449 
 13512      43325072 
 13512      65736361 
 13512      6C657200 
 13513              	.LASF104:
 13514 0973 54494D5F 		.ascii	"TIM_PrescalerConfig\000"
 13514      50726573 
 13514      63616C65 
 13514      72436F6E 
 13514      66696700 
ARM GAS  C:\Users\jsyoon\AppData\Local\Temp\ccDGobdh.s 			page 248


 13515              	.LASF209:
 13516 0987 54494D5F 		.ascii	"TIM_ITRxExternalClockConfig\000"
 13516      49545278 
 13516      45787465 
 13516      726E616C 
 13516      436C6F63 
 13517              	.LASF168:
 13518 09a3 54494D5F 		.ascii	"TIM_OC3NPolarityConfig\000"
 13518      4F43334E 
 13518      506F6C61 
 13518      72697479 
 13518      436F6E66 
 13519              	.LASF73:
 13520 09ba 54494D5F 		.ascii	"TIM_OSSIState\000"
 13520      4F535349 
 13520      53746174 
 13520      6500
 13521              	.LASF24:
 13522 09c8 52455345 		.ascii	"RESERVED0\000"
 13522      52564544 
 13522      3000
 13523              	.LASF101:
 13524 09d2 54494D5F 		.ascii	"TIM_TimeBaseInit\000"
 13524      54696D65 
 13524      42617365 
 13524      496E6974 
 13524      00
 13525              	.LASF211:
 13526 09e3 54494D5F 		.ascii	"TIM_TIxExternalCLKSource\000"
 13526      54497845 
 13526      78746572 
 13526      6E616C43 
 13526      4C4B536F 
 13527              	.LASF35:
 13528 09fc 52455345 		.ascii	"RESERVED7\000"
 13528      52564544 
 13528      3700
 13529              	.LASF185:
 13530 0a06 54494D5F 		.ascii	"TIM_BDTRInitStruct\000"
 13530      42445452 
 13530      496E6974 
 13530      53747275 
 13530      637400
 13531              	.LASF85:
 13532 0a19 5449325F 		.ascii	"TI2_Config\000"
 13532      436F6E66 
 13532      696700
 13533              	.LASF155:
 13534 0a24 54494D5F 		.ascii	"TIM_OC2FastConfig\000"
 13534      4F433246 
 13534      61737443 
 13534      6F6E6669 
 13534      6700
 13535              	.LASF157:
 13536 0a36 54494D5F 		.ascii	"TIM_OC4FastConfig\000"
 13536      4F433446 
 13536      61737443 
ARM GAS  C:\Users\jsyoon\AppData\Local\Temp\ccDGobdh.s 			page 249


 13536      6F6E6669 
 13536      6700
 13537              	.LASF9:
 13538 0a48 6C6F6E67 		.ascii	"long unsigned int\000"
 13538      20756E73 
 13538      69676E65 
 13538      6420696E 
 13538      7400
 13539              	.LASF62:
 13540 0a5a 54494D5F 		.ascii	"TIM_OCNPolarity\000"
 13540      4F434E50 
 13540      6F6C6172 
 13540      69747900 
 13541              	.LASF214:
 13542 0a6a 54494D5F 		.ascii	"TIM_ETRClockMode2Config\000"
 13542      45545243 
 13542      6C6F636B 
 13542      4D6F6465 
 13542      32436F6E 
 13543              	.LASF84:
 13544 0a82 5449315F 		.ascii	"TI1_Config\000"
 13544      436F6E66 
 13544      696700
 13545              	.LASF124:
 13546 0a8d 54494D5F 		.ascii	"TIM_Cmd\000"
 13546      436D6400 
 13547              	.LASF47:
 13548 0a95 444D4152 		.ascii	"DMAR\000"
 13548      00
 13549              	.LASF90:
 13550 0a9a 54494D5F 		.ascii	"TIM_SetIC3Prescaler\000"
 13550      53657449 
 13550      43335072 
 13550      65736361 
 13550      6C657200 
 13551              	.LASF150:
 13552 0aae 54494D5F 		.ascii	"TIM_OC2PreloadConfig\000"
 13552      4F433250 
 13552      72656C6F 
 13552      6164436F 
 13552      6E666967 
 13553              	.LASF53:
 13554 0ac3 54494D5F 		.ascii	"TIM_Period\000"
 13554      50657269 
 13554      6F6400
 13555              	.LASF56:
 13556 0ace 54494D5F 		.ascii	"TIM_TimeBaseInitTypeDef\000"
 13556      54696D65 
 13556      42617365 
 13556      496E6974 
 13556      54797065 
 13557              	.LASF201:
 13558 0ae6 54494D5F 		.ascii	"TIM_ClearITPendingBit\000"
 13558      436C6561 
 13558      72495450 
 13558      656E6469 
 13558      6E674269 
ARM GAS  C:\Users\jsyoon\AppData\Local\Temp\ccDGobdh.s 			page 250


 13559              	.LASF6:
 13560 0afc 5F5F696E 		.ascii	"__int32_t\000"
 13560      7433325F 
 13560      7400
 13561              	.LASF71:
 13562 0b06 54494D5F 		.ascii	"TIM_ICInitTypeDef\000"
 13562      4943496E 
 13562      69745479 
 13562      70654465 
 13562      6600
 13563              	.LASF131:
 13564 0b18 54494D5F 		.ascii	"TIM_OC4Init\000"
 13564      4F433449 
 13564      6E697400 
 13565              	.LASF174:
 13566 0b24 54494D5F 		.ascii	"TIM_ICInit\000"
 13566      4943496E 
 13566      697400
 13567              	.LASF141:
 13568 0b2f 54494D5F 		.ascii	"TIM_SetCompare4\000"
 13568      53657443 
 13568      6F6D7061 
 13568      72653400 
 13569              	.LASF133:
 13570 0b3f 54494D5F 		.ascii	"TIM_SelectOCxM\000"
 13570      53656C65 
 13570      63744F43 
 13570      784D00
 13571              	.LASF117:
 13572 0b4e 54494D5F 		.ascii	"TIM_UpdateRequestConfig\000"
 13572      55706461 
 13572      74655265 
 13572      71756573 
 13572      74436F6E 
 13573              	.LASF105:
 13574 0b66 50726573 		.ascii	"Prescaler\000"
 13574      63616C65 
 13574      7200
 13575              	.LASF152:
 13576 0b70 54494D5F 		.ascii	"TIM_OC4PreloadConfig\000"
 13576      4F433450 
 13576      72656C6F 
 13576      6164436F 
 13576      6E666967 
 13577              	.LASF5:
 13578 0b85 73686F72 		.ascii	"short unsigned int\000"
 13578      7420756E 
 13578      7369676E 
 13578      65642069 
 13578      6E7400
 13579              	.LASF218:
 13580 0b98 54494D5F 		.ascii	"TIM_SlaveMode\000"
 13580      536C6176 
 13580      654D6F64 
 13580      6500
 13581              	.LASF57:
 13582 0ba6 54494D5F 		.ascii	"TIM_OCMode\000"
ARM GAS  C:\Users\jsyoon\AppData\Local\Temp\ccDGobdh.s 			page 251


 13582      4F434D6F 
 13582      646500
 13583              	.LASF162:
 13584 0bb1 54494D5F 		.ascii	"TIM_ClearOC4Ref\000"
 13584      436C6561 
 13584      724F4334 
 13584      52656600 
 13585              	.LASF77:
 13586 0bc1 54494D5F 		.ascii	"TIM_BreakPolarity\000"
 13586      42726561 
 13586      6B506F6C 
 13586      61726974 
 13586      7900
 13587              	.LASF164:
 13588 0bd3 54494D5F 		.ascii	"TIM_OC1NPolarityConfig\000"
 13588      4F43314E 
 13588      506F6C61 
 13588      72697479 
 13588      436F6E66 
 13589              	.LASF189:
 13590 0bea 54494D5F 		.ascii	"TIM_CCPreloadControl\000"
 13590      43435072 
 13590      656C6F61 
 13590      64436F6E 
 13590      74726F6C 
 13591              	.LASF16:
 13592 0bff 75696E74 		.ascii	"uint32_t\000"
 13592      33325F74 
 13592      00
 13593              	.LASF40:
 13594 0c08 43435231 		.ascii	"CCR1\000"
 13594      00
 13595              	.LASF213:
 13596 0c0d 54494D5F 		.ascii	"TIM_ETRClockMode1Config\000"
 13596      45545243 
 13596      6C6F636B 
 13596      4D6F6465 
 13596      31436F6E 
 13597              	.LASF42:
 13598 0c25 43435233 		.ascii	"CCR3\000"
 13598      00
 13599              	.LASF43:
 13600 0c2a 43435234 		.ascii	"CCR4\000"
 13600      00
 13601              	.LASF65:
 13602 0c2f 54494D5F 		.ascii	"TIM_OCInitTypeDef\000"
 13602      4F43496E 
 13602      69745479 
 13602      70654465 
 13602      6600
 13603              	.LASF109:
 13604 0c41 54494D5F 		.ascii	"TIM_SetCounter\000"
 13604      53657443 
 13604      6F756E74 
 13604      657200
 13605              	.LASF200:
 13606 0c50 6974656E 		.ascii	"itenable\000"
ARM GAS  C:\Users\jsyoon\AppData\Local\Temp\ccDGobdh.s 			page 252


 13606      61626C65 
 13606      00
 13607              	.LASF13:
 13608 0c59 75696E74 		.ascii	"uint8_t\000"
 13608      385F7400 
 13609              	.LASF229:
 13610 0c61 474E5520 		.ascii	"GNU C 4.8.4 20140526 (release) [ARM/embedded-4_8-br"
 13610      4320342E 
 13610      382E3420 
 13610      32303134 
 13610      30353236 
 13611 0c94 616E6368 		.ascii	"anch revision 211358] -mcpu=cortex-m4 -mfloat-abi=h"
 13611      20726576 
 13611      6973696F 
 13611      6E203231 
 13611      31333538 
 13612 0cc7 61726420 		.ascii	"ard -mfpu=fpv4-sp-d16 -mno-thumb-interwork -mthumb "
 13612      2D6D6670 
 13612      753D6670 
 13612      76342D73 
 13612      702D6431 
 13613 0cfa 2D676764 		.ascii	"-ggdb -O2 -std=gnu99 -fomit-frame-pointer -falign-f"
 13613      62202D4F 
 13613      32202D73 
 13613      74643D67 
 13613      6E753939 
 13614 0d2d 756E6374 		.ascii	"unctions=16 -ffunction-sections -fdata-sections -fn"
 13614      696F6E73 
 13614      3D313620 
 13614      2D666675 
 13614      6E637469 
 13615 0d60 6F2D636F 		.ascii	"o-common -fsingle-precision-constant\000"
 13615      6D6D6F6E 
 13615      202D6673 
 13615      696E676C 
 13615      652D7072 
 13616              	.LASF167:
 13617 0d85 54494D5F 		.ascii	"TIM_OC3PolarityConfig\000"
 13617      4F433350 
 13617      6F6C6172 
 13617      69747943 
 13617      6F6E6669 
 13618              	.LASF226:
 13619 0d9b 54494D5F 		.ascii	"TIM_RemapConfig\000"
 13619      52656D61 
 13619      70436F6E 
 13619      66696700 
 13620              	.LASF20:
 13621 0dab 49545374 		.ascii	"ITStatus\000"
 13621      61747573 
 13621      00
 13622              	.LASF125:
 13623 0db4 54494D5F 		.ascii	"TIM_OC1Init\000"
 13623      4F433149 
 13623      6E697400 
 13624              	.LASF55:
 13625 0dc0 54494D5F 		.ascii	"TIM_RepetitionCounter\000"
ARM GAS  C:\Users\jsyoon\AppData\Local\Temp\ccDGobdh.s 			page 253


 13625      52657065 
 13625      74697469 
 13625      6F6E436F 
 13625      756E7465 
 13626              	.LASF225:
 13627 0dd6 54494D5F 		.ascii	"TIM_SelectHallSensor\000"
 13627      53656C65 
 13627      63744861 
 13627      6C6C5365 
 13627      6E736F72 
 13628              	.LASF175:
 13629 0deb 54494D5F 		.ascii	"TIM_ICInitStruct\000"
 13629      4943496E 
 13629      69745374 
 13629      72756374 
 13629      00
 13630              	.LASF196:
 13631 0dfc 62697473 		.ascii	"bitstatus\000"
 13631      74617475 
 13631      7300
 13632              	.LASF212:
 13633 0e06 49434669 		.ascii	"ICFilter\000"
 13633      6C746572 
 13633      00
 13634              	.LASF160:
 13635 0e0f 54494D5F 		.ascii	"TIM_ClearOC2Ref\000"
 13635      436C6561 
 13635      724F4332 
 13635      52656600 
 13636              	.LASF99:
 13637 0e1f 45787454 		.ascii	"ExtTRGFilter\000"
 13637      52474669 
 13637      6C746572 
 13637      00
 13638              	.LASF190:
 13639 0e2c 54494D5F 		.ascii	"TIM_ITConfig\000"
 13639      4954436F 
 13639      6E666967 
 13639      00
 13640              	.LASF63:
 13641 0e39 54494D5F 		.ascii	"TIM_OCIdleState\000"
 13641      4F434964 
 13641      6C655374 
 13641      61746500 
 13642              	.LASF159:
 13643 0e49 54494D5F 		.ascii	"TIM_OCClear\000"
 13643      4F43436C 
 13643      65617200 
 13644              	.LASF83:
 13645 0e55 54494D5F 		.ascii	"TIM_ICPSC\000"
 13645      49435053 
 13645      4300
 13646              	.LASF96:
 13647 0e5f 54494D5F 		.ascii	"TIM_ETRConfig\000"
 13647      45545243 
 13647      6F6E6669 
 13647      6700
ARM GAS  C:\Users\jsyoon\AppData\Local\Temp\ccDGobdh.s 			page 254


 13648              	.LASF100:
 13649 0e6d 54494D5F 		.ascii	"TIM_DeInit\000"
 13649      4465496E 
 13649      697400
 13650              	.LASF156:
 13651 0e78 54494D5F 		.ascii	"TIM_OC3FastConfig\000"
 13651      4F433346 
 13651      61737443 
 13651      6F6E6669 
 13651      6700
 13652              	.LASF151:
 13653 0e8a 54494D5F 		.ascii	"TIM_OC3PreloadConfig\000"
 13653      4F433350 
 13653      72656C6F 
 13653      6164436F 
 13653      6E666967 
 13654              	.LASF92:
 13655 0e9f 54494D5F 		.ascii	"TIM_SetIC4Prescaler\000"
 13655      53657449 
 13655      43345072 
 13655      65736361 
 13655      6C657200 
 13656              	.LASF153:
 13657 0eb3 54494D5F 		.ascii	"TIM_OC1FastConfig\000"
 13657      4F433146 
 13657      61737443 
 13657      6F6E6669 
 13657      6700
 13658              		.ident	"GCC: (GNU Tools for ARM Embedded Processors) 4.8.4 20140526 (release) [ARM/embedded-4_8-br
ARM GAS  C:\Users\jsyoon\AppData\Local\Temp\ccDGobdh.s 			page 255


DEFINED SYMBOLS
                            *ABS*:00000000 stm32f4xx_tim.c
C:\Users\jsyoon\AppData\Local\Temp\ccDGobdh.s:21     .text.TIM_DeInit:00000000 $t
C:\Users\jsyoon\AppData\Local\Temp\ccDGobdh.s:27     .text.TIM_DeInit:00000000 TIM_DeInit
C:\Users\jsyoon\AppData\Local\Temp\ccDGobdh.s:308    .text.TIM_DeInit:00000184 $d
C:\Users\jsyoon\AppData\Local\Temp\ccDGobdh.s:325    .text.TIM_TimeBaseInit:00000000 $t
C:\Users\jsyoon\AppData\Local\Temp\ccDGobdh.s:331    .text.TIM_TimeBaseInit:00000000 TIM_TimeBaseInit
C:\Users\jsyoon\AppData\Local\Temp\ccDGobdh.s:461    .text.TIM_TimeBaseInit:00000090 $d
C:\Users\jsyoon\AppData\Local\Temp\ccDGobdh.s:468    .text.TIM_TimeBaseStructInit:00000000 $t
C:\Users\jsyoon\AppData\Local\Temp\ccDGobdh.s:474    .text.TIM_TimeBaseStructInit:00000000 TIM_TimeBaseStructInit
C:\Users\jsyoon\AppData\Local\Temp\ccDGobdh.s:500    .text.TIM_PrescalerConfig:00000000 $t
C:\Users\jsyoon\AppData\Local\Temp\ccDGobdh.s:506    .text.TIM_PrescalerConfig:00000000 TIM_PrescalerConfig
C:\Users\jsyoon\AppData\Local\Temp\ccDGobdh.s:523    .text.TIM_CounterModeConfig:00000000 $t
C:\Users\jsyoon\AppData\Local\Temp\ccDGobdh.s:529    .text.TIM_CounterModeConfig:00000000 TIM_CounterModeConfig
C:\Users\jsyoon\AppData\Local\Temp\ccDGobdh.s:556    .text.TIM_SetCounter:00000000 $t
C:\Users\jsyoon\AppData\Local\Temp\ccDGobdh.s:562    .text.TIM_SetCounter:00000000 TIM_SetCounter
C:\Users\jsyoon\AppData\Local\Temp\ccDGobdh.s:577    .text.TIM_SetAutoreload:00000000 $t
C:\Users\jsyoon\AppData\Local\Temp\ccDGobdh.s:583    .text.TIM_SetAutoreload:00000000 TIM_SetAutoreload
C:\Users\jsyoon\AppData\Local\Temp\ccDGobdh.s:598    .text.TIM_GetCounter:00000000 $t
C:\Users\jsyoon\AppData\Local\Temp\ccDGobdh.s:604    .text.TIM_GetCounter:00000000 TIM_GetCounter
C:\Users\jsyoon\AppData\Local\Temp\ccDGobdh.s:621    .text.TIM_GetPrescaler:00000000 $t
C:\Users\jsyoon\AppData\Local\Temp\ccDGobdh.s:627    .text.TIM_GetPrescaler:00000000 TIM_GetPrescaler
C:\Users\jsyoon\AppData\Local\Temp\ccDGobdh.s:645    .text.TIM_UpdateDisableConfig:00000000 $t
C:\Users\jsyoon\AppData\Local\Temp\ccDGobdh.s:651    .text.TIM_UpdateDisableConfig:00000000 TIM_UpdateDisableConfig
C:\Users\jsyoon\AppData\Local\Temp\ccDGobdh.s:679    .text.TIM_UpdateRequestConfig:00000000 $t
C:\Users\jsyoon\AppData\Local\Temp\ccDGobdh.s:685    .text.TIM_UpdateRequestConfig:00000000 TIM_UpdateRequestConfig
C:\Users\jsyoon\AppData\Local\Temp\ccDGobdh.s:713    .text.TIM_ARRPreloadConfig:00000000 $t
C:\Users\jsyoon\AppData\Local\Temp\ccDGobdh.s:719    .text.TIM_ARRPreloadConfig:00000000 TIM_ARRPreloadConfig
C:\Users\jsyoon\AppData\Local\Temp\ccDGobdh.s:747    .text.TIM_SelectOnePulseMode:00000000 $t
C:\Users\jsyoon\AppData\Local\Temp\ccDGobdh.s:753    .text.TIM_SelectOnePulseMode:00000000 TIM_SelectOnePulseMode
C:\Users\jsyoon\AppData\Local\Temp\ccDGobdh.s:778    .text.TIM_SetClockDivision:00000000 $t
C:\Users\jsyoon\AppData\Local\Temp\ccDGobdh.s:784    .text.TIM_SetClockDivision:00000000 TIM_SetClockDivision
C:\Users\jsyoon\AppData\Local\Temp\ccDGobdh.s:809    .text.TIM_Cmd:00000000 $t
C:\Users\jsyoon\AppData\Local\Temp\ccDGobdh.s:815    .text.TIM_Cmd:00000000 TIM_Cmd
C:\Users\jsyoon\AppData\Local\Temp\ccDGobdh.s:843    .text.TIM_OC1Init:00000000 $t
C:\Users\jsyoon\AppData\Local\Temp\ccDGobdh.s:849    .text.TIM_OC1Init:00000000 TIM_OC1Init
C:\Users\jsyoon\AppData\Local\Temp\ccDGobdh.s:970    .text.TIM_OC1Init:0000007c $d
C:\Users\jsyoon\AppData\Local\Temp\ccDGobdh.s:975    .text.TIM_OC2Init:00000000 $t
C:\Users\jsyoon\AppData\Local\Temp\ccDGobdh.s:981    .text.TIM_OC2Init:00000000 TIM_OC2Init
C:\Users\jsyoon\AppData\Local\Temp\ccDGobdh.s:1110   .text.TIM_OC2Init:0000008c $d
C:\Users\jsyoon\AppData\Local\Temp\ccDGobdh.s:1115   .text.TIM_OC3Init:00000000 $t
C:\Users\jsyoon\AppData\Local\Temp\ccDGobdh.s:1121   .text.TIM_OC3Init:00000000 TIM_OC3Init
C:\Users\jsyoon\AppData\Local\Temp\ccDGobdh.s:1247   .text.TIM_OC3Init:00000088 $d
C:\Users\jsyoon\AppData\Local\Temp\ccDGobdh.s:1252   .text.TIM_OC4Init:00000000 $t
C:\Users\jsyoon\AppData\Local\Temp\ccDGobdh.s:1258   .text.TIM_OC4Init:00000000 TIM_OC4Init
C:\Users\jsyoon\AppData\Local\Temp\ccDGobdh.s:1362   .text.TIM_OC4Init:00000068 $d
C:\Users\jsyoon\AppData\Local\Temp\ccDGobdh.s:1367   .text.TIM_OCStructInit:00000000 $t
C:\Users\jsyoon\AppData\Local\Temp\ccDGobdh.s:1373   .text.TIM_OCStructInit:00000000 TIM_OCStructInit
C:\Users\jsyoon\AppData\Local\Temp\ccDGobdh.s:1403   .text.TIM_SelectOCxM:00000000 $t
C:\Users\jsyoon\AppData\Local\Temp\ccDGobdh.s:1409   .text.TIM_SelectOCxM:00000000 TIM_SelectOCxM
C:\Users\jsyoon\AppData\Local\Temp\ccDGobdh.s:1487   .text.TIM_SetCompare1:00000000 $t
C:\Users\jsyoon\AppData\Local\Temp\ccDGobdh.s:1493   .text.TIM_SetCompare1:00000000 TIM_SetCompare1
C:\Users\jsyoon\AppData\Local\Temp\ccDGobdh.s:1508   .text.TIM_SetCompare2:00000000 $t
C:\Users\jsyoon\AppData\Local\Temp\ccDGobdh.s:1514   .text.TIM_SetCompare2:00000000 TIM_SetCompare2
C:\Users\jsyoon\AppData\Local\Temp\ccDGobdh.s:1529   .text.TIM_SetCompare3:00000000 $t
C:\Users\jsyoon\AppData\Local\Temp\ccDGobdh.s:1535   .text.TIM_SetCompare3:00000000 TIM_SetCompare3
C:\Users\jsyoon\AppData\Local\Temp\ccDGobdh.s:1550   .text.TIM_SetCompare4:00000000 $t
ARM GAS  C:\Users\jsyoon\AppData\Local\Temp\ccDGobdh.s 			page 256


C:\Users\jsyoon\AppData\Local\Temp\ccDGobdh.s:1556   .text.TIM_SetCompare4:00000000 TIM_SetCompare4
C:\Users\jsyoon\AppData\Local\Temp\ccDGobdh.s:1571   .text.TIM_ForcedOC1Config:00000000 $t
C:\Users\jsyoon\AppData\Local\Temp\ccDGobdh.s:1577   .text.TIM_ForcedOC1Config:00000000 TIM_ForcedOC1Config
C:\Users\jsyoon\AppData\Local\Temp\ccDGobdh.s:1604   .text.TIM_ForcedOC2Config:00000000 $t
C:\Users\jsyoon\AppData\Local\Temp\ccDGobdh.s:1610   .text.TIM_ForcedOC2Config:00000000 TIM_ForcedOC2Config
C:\Users\jsyoon\AppData\Local\Temp\ccDGobdh.s:1639   .text.TIM_ForcedOC3Config:00000000 $t
C:\Users\jsyoon\AppData\Local\Temp\ccDGobdh.s:1645   .text.TIM_ForcedOC3Config:00000000 TIM_ForcedOC3Config
C:\Users\jsyoon\AppData\Local\Temp\ccDGobdh.s:1672   .text.TIM_ForcedOC4Config:00000000 $t
C:\Users\jsyoon\AppData\Local\Temp\ccDGobdh.s:1678   .text.TIM_ForcedOC4Config:00000000 TIM_ForcedOC4Config
C:\Users\jsyoon\AppData\Local\Temp\ccDGobdh.s:1707   .text.TIM_OC1PreloadConfig:00000000 $t
C:\Users\jsyoon\AppData\Local\Temp\ccDGobdh.s:1713   .text.TIM_OC1PreloadConfig:00000000 TIM_OC1PreloadConfig
C:\Users\jsyoon\AppData\Local\Temp\ccDGobdh.s:1740   .text.TIM_OC2PreloadConfig:00000000 $t
C:\Users\jsyoon\AppData\Local\Temp\ccDGobdh.s:1746   .text.TIM_OC2PreloadConfig:00000000 TIM_OC2PreloadConfig
C:\Users\jsyoon\AppData\Local\Temp\ccDGobdh.s:1775   .text.TIM_OC3PreloadConfig:00000000 $t
C:\Users\jsyoon\AppData\Local\Temp\ccDGobdh.s:1781   .text.TIM_OC3PreloadConfig:00000000 TIM_OC3PreloadConfig
C:\Users\jsyoon\AppData\Local\Temp\ccDGobdh.s:1808   .text.TIM_OC4PreloadConfig:00000000 $t
C:\Users\jsyoon\AppData\Local\Temp\ccDGobdh.s:1814   .text.TIM_OC4PreloadConfig:00000000 TIM_OC4PreloadConfig
C:\Users\jsyoon\AppData\Local\Temp\ccDGobdh.s:1843   .text.TIM_OC1FastConfig:00000000 $t
C:\Users\jsyoon\AppData\Local\Temp\ccDGobdh.s:1849   .text.TIM_OC1FastConfig:00000000 TIM_OC1FastConfig
C:\Users\jsyoon\AppData\Local\Temp\ccDGobdh.s:1876   .text.TIM_OC2FastConfig:00000000 $t
C:\Users\jsyoon\AppData\Local\Temp\ccDGobdh.s:1882   .text.TIM_OC2FastConfig:00000000 TIM_OC2FastConfig
C:\Users\jsyoon\AppData\Local\Temp\ccDGobdh.s:1911   .text.TIM_OC3FastConfig:00000000 $t
C:\Users\jsyoon\AppData\Local\Temp\ccDGobdh.s:1917   .text.TIM_OC3FastConfig:00000000 TIM_OC3FastConfig
C:\Users\jsyoon\AppData\Local\Temp\ccDGobdh.s:1944   .text.TIM_OC4FastConfig:00000000 $t
C:\Users\jsyoon\AppData\Local\Temp\ccDGobdh.s:1950   .text.TIM_OC4FastConfig:00000000 TIM_OC4FastConfig
C:\Users\jsyoon\AppData\Local\Temp\ccDGobdh.s:1979   .text.TIM_ClearOC1Ref:00000000 $t
C:\Users\jsyoon\AppData\Local\Temp\ccDGobdh.s:1985   .text.TIM_ClearOC1Ref:00000000 TIM_ClearOC1Ref
C:\Users\jsyoon\AppData\Local\Temp\ccDGobdh.s:2012   .text.TIM_ClearOC2Ref:00000000 $t
C:\Users\jsyoon\AppData\Local\Temp\ccDGobdh.s:2018   .text.TIM_ClearOC2Ref:00000000 TIM_ClearOC2Ref
C:\Users\jsyoon\AppData\Local\Temp\ccDGobdh.s:2044   .text.TIM_ClearOC3Ref:00000000 $t
C:\Users\jsyoon\AppData\Local\Temp\ccDGobdh.s:2050   .text.TIM_ClearOC3Ref:00000000 TIM_ClearOC3Ref
C:\Users\jsyoon\AppData\Local\Temp\ccDGobdh.s:2077   .text.TIM_ClearOC4Ref:00000000 $t
C:\Users\jsyoon\AppData\Local\Temp\ccDGobdh.s:2083   .text.TIM_ClearOC4Ref:00000000 TIM_ClearOC4Ref
C:\Users\jsyoon\AppData\Local\Temp\ccDGobdh.s:2109   .text.TIM_OC1PolarityConfig:00000000 $t
C:\Users\jsyoon\AppData\Local\Temp\ccDGobdh.s:2115   .text.TIM_OC1PolarityConfig:00000000 TIM_OC1PolarityConfig
C:\Users\jsyoon\AppData\Local\Temp\ccDGobdh.s:2142   .text.TIM_OC1NPolarityConfig:00000000 $t
C:\Users\jsyoon\AppData\Local\Temp\ccDGobdh.s:2148   .text.TIM_OC1NPolarityConfig:00000000 TIM_OC1NPolarityConfig
C:\Users\jsyoon\AppData\Local\Temp\ccDGobdh.s:2175   .text.TIM_OC2PolarityConfig:00000000 $t
C:\Users\jsyoon\AppData\Local\Temp\ccDGobdh.s:2181   .text.TIM_OC2PolarityConfig:00000000 TIM_OC2PolarityConfig
C:\Users\jsyoon\AppData\Local\Temp\ccDGobdh.s:2210   .text.TIM_OC2NPolarityConfig:00000000 $t
C:\Users\jsyoon\AppData\Local\Temp\ccDGobdh.s:2216   .text.TIM_OC2NPolarityConfig:00000000 TIM_OC2NPolarityConfig
C:\Users\jsyoon\AppData\Local\Temp\ccDGobdh.s:2245   .text.TIM_OC3PolarityConfig:00000000 $t
C:\Users\jsyoon\AppData\Local\Temp\ccDGobdh.s:2251   .text.TIM_OC3PolarityConfig:00000000 TIM_OC3PolarityConfig
C:\Users\jsyoon\AppData\Local\Temp\ccDGobdh.s:2280   .text.TIM_OC3NPolarityConfig:00000000 $t
C:\Users\jsyoon\AppData\Local\Temp\ccDGobdh.s:2286   .text.TIM_OC3NPolarityConfig:00000000 TIM_OC3NPolarityConfig
C:\Users\jsyoon\AppData\Local\Temp\ccDGobdh.s:2315   .text.TIM_OC4PolarityConfig:00000000 $t
C:\Users\jsyoon\AppData\Local\Temp\ccDGobdh.s:2321   .text.TIM_OC4PolarityConfig:00000000 TIM_OC4PolarityConfig
C:\Users\jsyoon\AppData\Local\Temp\ccDGobdh.s:2350   .text.TIM_CCxCmd:00000000 $t
C:\Users\jsyoon\AppData\Local\Temp\ccDGobdh.s:2356   .text.TIM_CCxCmd:00000000 TIM_CCxCmd
C:\Users\jsyoon\AppData\Local\Temp\ccDGobdh.s:2393   .text.TIM_CCxNCmd:00000000 $t
C:\Users\jsyoon\AppData\Local\Temp\ccDGobdh.s:2399   .text.TIM_CCxNCmd:00000000 TIM_CCxNCmd
C:\Users\jsyoon\AppData\Local\Temp\ccDGobdh.s:2436   .text.TIM_ICInit:00000000 $t
C:\Users\jsyoon\AppData\Local\Temp\ccDGobdh.s:2442   .text.TIM_ICInit:00000000 TIM_ICInit
C:\Users\jsyoon\AppData\Local\Temp\ccDGobdh.s:2793   .text.TIM_ICStructInit:00000000 $t
C:\Users\jsyoon\AppData\Local\Temp\ccDGobdh.s:2799   .text.TIM_ICStructInit:00000000 TIM_ICStructInit
C:\Users\jsyoon\AppData\Local\Temp\ccDGobdh.s:2825   .text.TIM_PWMIConfig:00000000 $t
C:\Users\jsyoon\AppData\Local\Temp\ccDGobdh.s:2831   .text.TIM_PWMIConfig:00000000 TIM_PWMIConfig
ARM GAS  C:\Users\jsyoon\AppData\Local\Temp\ccDGobdh.s 			page 257


C:\Users\jsyoon\AppData\Local\Temp\ccDGobdh.s:3143   .text.TIM_GetCapture1:00000000 $t
C:\Users\jsyoon\AppData\Local\Temp\ccDGobdh.s:3149   .text.TIM_GetCapture1:00000000 TIM_GetCapture1
C:\Users\jsyoon\AppData\Local\Temp\ccDGobdh.s:3166   .text.TIM_GetCapture2:00000000 $t
C:\Users\jsyoon\AppData\Local\Temp\ccDGobdh.s:3172   .text.TIM_GetCapture2:00000000 TIM_GetCapture2
C:\Users\jsyoon\AppData\Local\Temp\ccDGobdh.s:3189   .text.TIM_GetCapture3:00000000 $t
C:\Users\jsyoon\AppData\Local\Temp\ccDGobdh.s:3195   .text.TIM_GetCapture3:00000000 TIM_GetCapture3
C:\Users\jsyoon\AppData\Local\Temp\ccDGobdh.s:3212   .text.TIM_GetCapture4:00000000 $t
C:\Users\jsyoon\AppData\Local\Temp\ccDGobdh.s:3218   .text.TIM_GetCapture4:00000000 TIM_GetCapture4
C:\Users\jsyoon\AppData\Local\Temp\ccDGobdh.s:3235   .text.TIM_SetIC1Prescaler:00000000 $t
C:\Users\jsyoon\AppData\Local\Temp\ccDGobdh.s:3241   .text.TIM_SetIC1Prescaler:00000000 TIM_SetIC1Prescaler
C:\Users\jsyoon\AppData\Local\Temp\ccDGobdh.s:3266   .text.TIM_SetIC2Prescaler:00000000 $t
C:\Users\jsyoon\AppData\Local\Temp\ccDGobdh.s:3272   .text.TIM_SetIC2Prescaler:00000000 TIM_SetIC2Prescaler
C:\Users\jsyoon\AppData\Local\Temp\ccDGobdh.s:3298   .text.TIM_SetIC3Prescaler:00000000 $t
C:\Users\jsyoon\AppData\Local\Temp\ccDGobdh.s:3304   .text.TIM_SetIC3Prescaler:00000000 TIM_SetIC3Prescaler
C:\Users\jsyoon\AppData\Local\Temp\ccDGobdh.s:3329   .text.TIM_SetIC4Prescaler:00000000 $t
C:\Users\jsyoon\AppData\Local\Temp\ccDGobdh.s:3335   .text.TIM_SetIC4Prescaler:00000000 TIM_SetIC4Prescaler
C:\Users\jsyoon\AppData\Local\Temp\ccDGobdh.s:3361   .text.TIM_BDTRConfig:00000000 $t
C:\Users\jsyoon\AppData\Local\Temp\ccDGobdh.s:3367   .text.TIM_BDTRConfig:00000000 TIM_BDTRConfig
C:\Users\jsyoon\AppData\Local\Temp\ccDGobdh.s:3406   .text.TIM_BDTRStructInit:00000000 $t
C:\Users\jsyoon\AppData\Local\Temp\ccDGobdh.s:3412   .text.TIM_BDTRStructInit:00000000 TIM_BDTRStructInit
C:\Users\jsyoon\AppData\Local\Temp\ccDGobdh.s:3440   .text.TIM_CtrlPWMOutputs:00000000 $t
C:\Users\jsyoon\AppData\Local\Temp\ccDGobdh.s:3446   .text.TIM_CtrlPWMOutputs:00000000 TIM_CtrlPWMOutputs
C:\Users\jsyoon\AppData\Local\Temp\ccDGobdh.s:3473   .text.TIM_SelectCOM:00000000 $t
C:\Users\jsyoon\AppData\Local\Temp\ccDGobdh.s:3479   .text.TIM_SelectCOM:00000000 TIM_SelectCOM
C:\Users\jsyoon\AppData\Local\Temp\ccDGobdh.s:3507   .text.TIM_CCPreloadControl:00000000 $t
C:\Users\jsyoon\AppData\Local\Temp\ccDGobdh.s:3513   .text.TIM_CCPreloadControl:00000000 TIM_CCPreloadControl
C:\Users\jsyoon\AppData\Local\Temp\ccDGobdh.s:3541   .text.TIM_ITConfig:00000000 $t
C:\Users\jsyoon\AppData\Local\Temp\ccDGobdh.s:3547   .text.TIM_ITConfig:00000000 TIM_ITConfig
C:\Users\jsyoon\AppData\Local\Temp\ccDGobdh.s:3576   .text.TIM_GenerateEvent:00000000 $t
C:\Users\jsyoon\AppData\Local\Temp\ccDGobdh.s:3582   .text.TIM_GenerateEvent:00000000 TIM_GenerateEvent
C:\Users\jsyoon\AppData\Local\Temp\ccDGobdh.s:3597   .text.TIM_GetFlagStatus:00000000 $t
C:\Users\jsyoon\AppData\Local\Temp\ccDGobdh.s:3603   .text.TIM_GetFlagStatus:00000000 TIM_GetFlagStatus
C:\Users\jsyoon\AppData\Local\Temp\ccDGobdh.s:3625   .text.TIM_ClearFlag:00000000 $t
C:\Users\jsyoon\AppData\Local\Temp\ccDGobdh.s:3631   .text.TIM_ClearFlag:00000000 TIM_ClearFlag
C:\Users\jsyoon\AppData\Local\Temp\ccDGobdh.s:3649   .text.TIM_GetITStatus:00000000 $t
C:\Users\jsyoon\AppData\Local\Temp\ccDGobdh.s:3655   .text.TIM_GetITStatus:00000000 TIM_GetITStatus
C:\Users\jsyoon\AppData\Local\Temp\ccDGobdh.s:3690   .text.TIM_ClearITPendingBit:00000000 $t
C:\Users\jsyoon\AppData\Local\Temp\ccDGobdh.s:3696   .text.TIM_ClearITPendingBit:00000000 TIM_ClearITPendingBit
C:\Users\jsyoon\AppData\Local\Temp\ccDGobdh.s:3714   .text.TIM_DMAConfig:00000000 $t
C:\Users\jsyoon\AppData\Local\Temp\ccDGobdh.s:3720   .text.TIM_DMAConfig:00000000 TIM_DMAConfig
C:\Users\jsyoon\AppData\Local\Temp\ccDGobdh.s:3737   .text.TIM_DMACmd:00000000 $t
C:\Users\jsyoon\AppData\Local\Temp\ccDGobdh.s:3743   .text.TIM_DMACmd:00000000 TIM_DMACmd
C:\Users\jsyoon\AppData\Local\Temp\ccDGobdh.s:3772   .text.TIM_SelectCCDMA:00000000 $t
C:\Users\jsyoon\AppData\Local\Temp\ccDGobdh.s:3778   .text.TIM_SelectCCDMA:00000000 TIM_SelectCCDMA
C:\Users\jsyoon\AppData\Local\Temp\ccDGobdh.s:3806   .text.TIM_InternalClockConfig:00000000 $t
C:\Users\jsyoon\AppData\Local\Temp\ccDGobdh.s:3812   .text.TIM_InternalClockConfig:00000000 TIM_InternalClockConfig
C:\Users\jsyoon\AppData\Local\Temp\ccDGobdh.s:3831   .text.TIM_ITRxExternalClockConfig:00000000 $t
C:\Users\jsyoon\AppData\Local\Temp\ccDGobdh.s:3837   .text.TIM_ITRxExternalClockConfig:00000000 TIM_ITRxExternalClockConfig
C:\Users\jsyoon\AppData\Local\Temp\ccDGobdh.s:3873   .text.TIM_TIxExternalClockConfig:00000000 $t
C:\Users\jsyoon\AppData\Local\Temp\ccDGobdh.s:3879   .text.TIM_TIxExternalClockConfig:00000000 TIM_TIxExternalClockConfig
C:\Users\jsyoon\AppData\Local\Temp\ccDGobdh.s:4029   .text.TIM_ETRClockMode1Config:00000000 $t
C:\Users\jsyoon\AppData\Local\Temp\ccDGobdh.s:4035   .text.TIM_ETRClockMode1Config:00000000 TIM_ETRClockMode1Config
C:\Users\jsyoon\AppData\Local\Temp\ccDGobdh.s:4088   .text.TIM_ETRClockMode2Config:00000000 $t
C:\Users\jsyoon\AppData\Local\Temp\ccDGobdh.s:4094   .text.TIM_ETRClockMode2Config:00000000 TIM_ETRClockMode2Config
C:\Users\jsyoon\AppData\Local\Temp\ccDGobdh.s:4139   .text.TIM_SelectInputTrigger:00000000 $t
C:\Users\jsyoon\AppData\Local\Temp\ccDGobdh.s:4145   .text.TIM_SelectInputTrigger:00000000 TIM_SelectInputTrigger
C:\Users\jsyoon\AppData\Local\Temp\ccDGobdh.s:4172   .text.TIM_SelectOutputTrigger:00000000 $t
ARM GAS  C:\Users\jsyoon\AppData\Local\Temp\ccDGobdh.s 			page 258


C:\Users\jsyoon\AppData\Local\Temp\ccDGobdh.s:4178   .text.TIM_SelectOutputTrigger:00000000 TIM_SelectOutputTrigger
C:\Users\jsyoon\AppData\Local\Temp\ccDGobdh.s:4203   .text.TIM_SelectSlaveMode:00000000 $t
C:\Users\jsyoon\AppData\Local\Temp\ccDGobdh.s:4209   .text.TIM_SelectSlaveMode:00000000 TIM_SelectSlaveMode
C:\Users\jsyoon\AppData\Local\Temp\ccDGobdh.s:4234   .text.TIM_SelectMasterSlaveMode:00000000 $t
C:\Users\jsyoon\AppData\Local\Temp\ccDGobdh.s:4240   .text.TIM_SelectMasterSlaveMode:00000000 TIM_SelectMasterSlaveMode
C:\Users\jsyoon\AppData\Local\Temp\ccDGobdh.s:4265   .text.TIM_ETRConfig:00000000 $t
C:\Users\jsyoon\AppData\Local\Temp\ccDGobdh.s:4271   .text.TIM_ETRConfig:00000000 TIM_ETRConfig
C:\Users\jsyoon\AppData\Local\Temp\ccDGobdh.s:4306   .text.TIM_EncoderInterfaceConfig:00000000 $t
C:\Users\jsyoon\AppData\Local\Temp\ccDGobdh.s:4312   .text.TIM_EncoderInterfaceConfig:00000000 TIM_EncoderInterfaceConfig
C:\Users\jsyoon\AppData\Local\Temp\ccDGobdh.s:4386   .text.TIM_SelectHallSensor:00000000 $t
C:\Users\jsyoon\AppData\Local\Temp\ccDGobdh.s:4392   .text.TIM_SelectHallSensor:00000000 TIM_SelectHallSensor
C:\Users\jsyoon\AppData\Local\Temp\ccDGobdh.s:4420   .text.TIM_RemapConfig:00000000 $t
C:\Users\jsyoon\AppData\Local\Temp\ccDGobdh.s:4426   .text.TIM_RemapConfig:00000000 TIM_RemapConfig
                     .debug_frame:00000010 $d
C:\Users\jsyoon\AppData\Local\Temp\ccDGobdh.s:324    .text.TIM_DeInit:000001b8 $t
C:\Users\jsyoon\AppData\Local\Temp\ccDGobdh.s:467    .text.TIM_TimeBaseInit:0000009c $t
C:\Users\jsyoon\AppData\Local\Temp\ccDGobdh.s:1251   .text.TIM_OC3Init:0000008c $t
C:\Users\jsyoon\AppData\Local\Temp\ccDGobdh.s:1366   .text.TIM_OC4Init:0000006c $t

UNDEFINED SYMBOLS
RCC_APB1PeriphResetCmd
RCC_APB2PeriphResetCmd
