ARM GAS  C:\Users\jsyoon\AppData\Local\Temp\cc7861fK.s 			page 1


   1              		.syntax unified
   2              		.cpu cortex-m4
   3              		.eabi_attribute 27, 3
   4              		.eabi_attribute 28, 1
   5              		.fpu fpv4-sp-d16
   6              		.eabi_attribute 20, 1
   7              		.eabi_attribute 21, 1
   8              		.eabi_attribute 23, 3
   9              		.eabi_attribute 24, 1
  10              		.eabi_attribute 25, 1
  11              		.eabi_attribute 26, 1
  12              		.eabi_attribute 30, 2
  13              		.eabi_attribute 34, 1
  14              		.eabi_attribute 18, 4
  15              		.thumb
  16              		.file	"stm32f4xx_usart.c"
  17              		.text
  18              	.Ltext0:
  19              		.cfi_sections	.debug_frame
  20              		.section	.text.USART_DeInit,"ax",%progbits
  21              		.align	2
  22              		.p2align 4,,15
  23              		.global	USART_DeInit
  24              		.thumb
  25              		.thumb_func
  26              		.type	USART_DeInit, %function
  27              	USART_DeInit:
  28              	.LFB111:
  29              		.file 1 "ChibiOS_2.6.6/ext/stdperiph_stm32f4/src/stm32f4xx_usart.c"
  30              		.loc 1 185 0
  31              		.cfi_startproc
  32              		@ args = 0, pretend = 0, frame = 0
  33              		@ frame_needed = 0, uses_anonymous_args = 0
  34              	.LVL0:
  35 0000 08B5     		push	{r3, lr}
  36              		.cfi_def_cfa_offset 8
  37              		.cfi_offset 3, -8
  38              		.cfi_offset 14, -4
  39              		.loc 1 189 0
  40 0002 2B4B     		ldr	r3, .L15
  41 0004 9842     		cmp	r0, r3
  42 0006 19D0     		beq	.L9
  43              		.loc 1 194 0
  44 0008 2A4B     		ldr	r3, .L15+4
  45 000a 9842     		cmp	r0, r3
  46 000c 20D0     		beq	.L10
  47              		.loc 1 199 0
  48 000e 2A4B     		ldr	r3, .L15+8
  49 0010 9842     		cmp	r0, r3
  50 0012 29D0     		beq	.L11
  51              		.loc 1 204 0
  52 0014 294B     		ldr	r3, .L15+12
  53 0016 9842     		cmp	r0, r3
  54 0018 32D0     		beq	.L12
  55              		.loc 1 209 0
  56 001a 294B     		ldr	r3, .L15+16
  57 001c 9842     		cmp	r0, r3
ARM GAS  C:\Users\jsyoon\AppData\Local\Temp\cc7861fK.s 			page 2


  58 001e 3BD0     		beq	.L13
  59              		.loc 1 216 0
  60 0020 284B     		ldr	r3, .L15+20
  61 0022 9842     		cmp	r0, r3
  62 0024 00D0     		beq	.L14
  63 0026 08BD     		pop	{r3, pc}
  64              	.L14:
  65              		.loc 1 218 0
  66 0028 2020     		movs	r0, #32
  67              	.LVL1:
  68 002a 0121     		movs	r1, #1
  69 002c FFF7FEFF 		bl	RCC_APB2PeriphResetCmd
  70              	.LVL2:
  71              		.loc 1 219 0
  72 0030 2020     		movs	r0, #32
  73 0032 0021     		movs	r1, #0
  74              		.loc 1 222 0
  75 0034 BDE80840 		pop	{r3, lr}
  76              		.loc 1 219 0
  77 0038 FFF7FEBF 		b	RCC_APB2PeriphResetCmd
  78              	.LVL3:
  79              	.L9:
  80              		.loc 1 191 0
  81 003c 1020     		movs	r0, #16
  82              	.LVL4:
  83 003e 0121     		movs	r1, #1
  84 0040 FFF7FEFF 		bl	RCC_APB2PeriphResetCmd
  85              	.LVL5:
  86              		.loc 1 192 0
  87 0044 1020     		movs	r0, #16
  88 0046 0021     		movs	r1, #0
  89              		.loc 1 222 0
  90 0048 BDE80840 		pop	{r3, lr}
  91              		.loc 1 192 0
  92 004c FFF7FEBF 		b	RCC_APB2PeriphResetCmd
  93              	.LVL6:
  94              	.L10:
  95              		.loc 1 196 0
  96 0050 4FF40030 		mov	r0, #131072
  97              	.LVL7:
  98 0054 0121     		movs	r1, #1
  99 0056 FFF7FEFF 		bl	RCC_APB1PeriphResetCmd
 100              	.LVL8:
 101              		.loc 1 197 0
 102 005a 4FF40030 		mov	r0, #131072
 103 005e 0021     		movs	r1, #0
 104              		.loc 1 222 0
 105 0060 BDE80840 		pop	{r3, lr}
 106              		.loc 1 197 0
 107 0064 FFF7FEBF 		b	RCC_APB1PeriphResetCmd
 108              	.LVL9:
 109              	.L11:
 110              		.loc 1 201 0
 111 0068 4FF48020 		mov	r0, #262144
 112              	.LVL10:
 113 006c 0121     		movs	r1, #1
 114 006e FFF7FEFF 		bl	RCC_APB1PeriphResetCmd
ARM GAS  C:\Users\jsyoon\AppData\Local\Temp\cc7861fK.s 			page 3


 115              	.LVL11:
 116              		.loc 1 202 0
 117 0072 4FF48020 		mov	r0, #262144
 118 0076 0021     		movs	r1, #0
 119              		.loc 1 222 0
 120 0078 BDE80840 		pop	{r3, lr}
 121              		.loc 1 202 0
 122 007c FFF7FEBF 		b	RCC_APB1PeriphResetCmd
 123              	.LVL12:
 124              	.L12:
 125              		.loc 1 206 0
 126 0080 4FF40020 		mov	r0, #524288
 127              	.LVL13:
 128 0084 0121     		movs	r1, #1
 129 0086 FFF7FEFF 		bl	RCC_APB1PeriphResetCmd
 130              	.LVL14:
 131              		.loc 1 207 0
 132 008a 4FF40020 		mov	r0, #524288
 133 008e 0021     		movs	r1, #0
 134              		.loc 1 222 0
 135 0090 BDE80840 		pop	{r3, lr}
 136              		.loc 1 207 0
 137 0094 FFF7FEBF 		b	RCC_APB1PeriphResetCmd
 138              	.LVL15:
 139              	.L13:
 140              		.loc 1 211 0
 141 0098 4FF48010 		mov	r0, #1048576
 142              	.LVL16:
 143 009c 0121     		movs	r1, #1
 144 009e FFF7FEFF 		bl	RCC_APB1PeriphResetCmd
 145              	.LVL17:
 146              		.loc 1 212 0
 147 00a2 4FF48010 		mov	r0, #1048576
 148 00a6 0021     		movs	r1, #0
 149              		.loc 1 222 0
 150 00a8 BDE80840 		pop	{r3, lr}
 151              		.loc 1 212 0
 152 00ac FFF7FEBF 		b	RCC_APB1PeriphResetCmd
 153              	.LVL18:
 154              	.L16:
 155              		.align	2
 156              	.L15:
 157 00b0 00100140 		.word	1073811456
 158 00b4 00440040 		.word	1073759232
 159 00b8 00480040 		.word	1073760256
 160 00bc 004C0040 		.word	1073761280
 161 00c0 00500040 		.word	1073762304
 162 00c4 00140140 		.word	1073812480
 163              		.cfi_endproc
 164              	.LFE111:
 165              		.size	USART_DeInit, .-USART_DeInit
 166 00c8 AFF30080 		.section	.text.USART_Init,"ax",%progbits
 166      AFF30080 
 167              		.align	2
 168              		.p2align 4,,15
 169              		.global	USART_Init
 170              		.thumb
ARM GAS  C:\Users\jsyoon\AppData\Local\Temp\cc7861fK.s 			page 4


 171              		.thumb_func
 172              		.type	USART_Init, %function
 173              	USART_Init:
 174              	.LFB112:
 175              		.loc 1 234 0
 176              		.cfi_startproc
 177              		@ args = 0, pretend = 0, frame = 16
 178              		@ frame_needed = 0, uses_anonymous_args = 0
 179              	.LVL19:
 180 0000 F0B5     		push	{r4, r5, r6, r7, lr}
 181              		.cfi_def_cfa_offset 20
 182              		.cfi_offset 4, -20
 183              		.cfi_offset 5, -16
 184              		.cfi_offset 6, -12
 185              		.cfi_offset 7, -8
 186              		.cfi_offset 14, -4
 187 0002 0D46     		mov	r5, r1
 188              		.loc 1 256 0
 189 0004 018A     		ldrh	r1, [r0, #16]
 190              	.LVL20:
 191              		.loc 1 263 0
 192 0006 EF88     		ldrh	r7, [r5, #6]
 193              		.loc 1 278 0
 194 0008 2E89     		ldrh	r6, [r5, #8]
 195 000a AB88     		ldrh	r3, [r5, #4]
 196              		.loc 1 292 0
 197 000c AA89     		ldrh	r2, [r5, #12]
 198              		.loc 1 256 0
 199 000e 89B2     		uxth	r1, r1
 200              	.LVL21:
 201              		.loc 1 234 0
 202 0010 0446     		mov	r4, r0
 203              		.loc 1 259 0
 204 0012 21F44051 		bic	r1, r1, #12288
 205              	.LVL22:
 206              		.loc 1 266 0
 207 0016 3943     		orrs	r1, r1, r7
 208              	.LVL23:
 209              		.loc 1 278 0
 210 0018 6889     		ldrh	r0, [r5, #10]
 211              	.LVL24:
 212              		.loc 1 266 0
 213 001a 2182     		strh	r1, [r4, #16]	@ movhi
 214              		.loc 1 269 0
 215 001c A189     		ldrh	r1, [r4, #12]
 216              	.LVL25:
 217              		.loc 1 278 0
 218 001e 3343     		orrs	r3, r3, r6
 219              		.loc 1 269 0
 220 0020 89B2     		uxth	r1, r1
 221              	.LVL26:
 222              		.loc 1 278 0
 223 0022 0343     		orrs	r3, r3, r0
 224              		.loc 1 272 0
 225 0024 21F4B051 		bic	r1, r1, #5632
 226              	.LVL27:
 227 0028 21F00C01 		bic	r1, r1, #12
ARM GAS  C:\Users\jsyoon\AppData\Local\Temp\cc7861fK.s 			page 5


 228              	.LVL28:
 229              		.loc 1 278 0
 230 002c 9BB2     		uxth	r3, r3
 231              		.loc 1 282 0
 232 002e 0B43     		orrs	r3, r3, r1
 233 0030 A381     		strh	r3, [r4, #12]	@ movhi
 234              	.LVL29:
 235              		.loc 1 285 0
 236 0032 A38A     		ldrh	r3, [r4, #20]
 237 0034 9BB2     		uxth	r3, r3
 238              	.LVL30:
 239              		.loc 1 288 0
 240 0036 23F44073 		bic	r3, r3, #768
 241              	.LVL31:
 242              		.loc 1 295 0
 243 003a 1343     		orrs	r3, r3, r2
 244              	.LVL32:
 245              		.loc 1 234 0
 246 003c 85B0     		sub	sp, sp, #20
 247              		.cfi_def_cfa_offset 40
 248              		.loc 1 295 0
 249 003e A382     		strh	r3, [r4, #20]	@ movhi
 250              		.loc 1 299 0
 251 0040 6846     		mov	r0, sp
 252 0042 FFF7FEFF 		bl	RCC_GetClocksFreq
 253              	.LVL33:
 254              		.loc 1 301 0
 255 0046 1D4B     		ldr	r3, .L26
 256 0048 9C42     		cmp	r4, r3
 257 004a 29D0     		beq	.L18
 258              		.loc 1 301 0 is_stmt 0 discriminator 1
 259 004c 03F58063 		add	r3, r3, #1024
 260 0050 9C42     		cmp	r4, r3
 261 0052 25D0     		beq	.L18
 262              		.loc 1 307 0 is_stmt 1
 263 0054 029B     		ldr	r3, [sp, #8]
 264              	.LVL34:
 265              	.L20:
 266              		.loc 1 311 0
 267 0056 A289     		ldrh	r2, [r4, #12]
 268              		.loc 1 314 0
 269 0058 2968     		ldr	r1, [r5]
 270              		.loc 1 327 0
 271 005a A089     		ldrh	r0, [r4, #12]
 272              		.loc 1 311 0
 273 005c 12B2     		sxth	r2, r2
 274 005e 002A     		cmp	r2, #0
 275              		.loc 1 314 0
 276 0060 03EB8303 		add	r3, r3, r3, lsl #2
 277              	.LVL35:
 278 0064 B4BF     		ite	lt
 279 0066 4900     		lsllt	r1, r1, #1
 280              		.loc 1 319 0
 281 0068 8900     		lslge	r1, r1, #2
 282 006a 03EB8303 		add	r3, r3, r3, lsl #2
 283 006e B3FBF1F2 		udiv	r2, r3, r1
 284              	.LVL36:
ARM GAS  C:\Users\jsyoon\AppData\Local\Temp\cc7861fK.s 			page 6


 285              		.loc 1 321 0
 286 0072 1349     		ldr	r1, .L26+4
 287              		.loc 1 327 0
 288 0074 00B2     		sxth	r0, r0
 289              		.loc 1 321 0
 290 0076 A1FB0253 		umull	r5, r3, r1, r2
 291              	.LVL37:
 292 007a 5B09     		lsrs	r3, r3, #5
 293              	.LVL38:
 294              		.loc 1 324 0
 295 007c 6425     		movs	r5, #100
 296              		.loc 1 327 0
 297 007e 0028     		cmp	r0, #0
 298              		.loc 1 324 0
 299 0080 03FB1522 		mls	r2, r3, r5, r2
 300              	.LVL39:
 301 0084 4FEA0313 		lsl	r3, r3, #4
 302              	.LVL40:
 303              		.loc 1 327 0
 304 0088 0CDB     		blt	.L25
 305              		.loc 1 333 0
 306 008a 1201     		lsls	r2, r2, #4
 307              	.LVL41:
 308 008c 3232     		adds	r2, r2, #50
 309 008e A1FB0251 		umull	r5, r1, r1, r2
 310 0092 C1F34311 		ubfx	r1, r1, #5, #4
 311 0096 0B43     		orrs	r3, r3, r1
 312              	.LVL42:
 313              		.loc 1 337 0
 314 0098 9BB2     		uxth	r3, r3
 315              	.LVL43:
 316 009a 2381     		strh	r3, [r4, #8]	@ movhi
 317              		.loc 1 338 0
 318 009c 05B0     		add	sp, sp, #20
 319              		@ sp needed
 320 009e F0BD     		pop	{r4, r5, r6, r7, pc}
 321              	.LVL44:
 322              	.L18:
 323              		.loc 1 303 0
 324 00a0 039B     		ldr	r3, [sp, #12]
 325              	.LVL45:
 326 00a2 D8E7     		b	.L20
 327              	.LVL46:
 328              	.L25:
 329              		.loc 1 329 0
 330 00a4 D200     		lsls	r2, r2, #3
 331              	.LVL47:
 332 00a6 3232     		adds	r2, r2, #50
 333 00a8 A1FB0201 		umull	r0, r1, r1, r2
 334 00ac C1F34211 		ubfx	r1, r1, #5, #3
 335 00b0 0B43     		orrs	r3, r3, r1
 336              	.LVL48:
 337              		.loc 1 337 0
 338 00b2 9BB2     		uxth	r3, r3
 339              	.LVL49:
 340 00b4 2381     		strh	r3, [r4, #8]	@ movhi
 341              		.loc 1 338 0
ARM GAS  C:\Users\jsyoon\AppData\Local\Temp\cc7861fK.s 			page 7


 342 00b6 05B0     		add	sp, sp, #20
 343              		@ sp needed
 344 00b8 F0BD     		pop	{r4, r5, r6, r7, pc}
 345              	.LVL50:
 346              	.L27:
 347 00ba 00BF     		.align	2
 348              	.L26:
 349 00bc 00100140 		.word	1073811456
 350 00c0 1F85EB51 		.word	1374389535
 351              		.cfi_endproc
 352              	.LFE112:
 353              		.size	USART_Init, .-USART_Init
 354 00c4 AFF30080 		.section	.text.USART_StructInit,"ax",%progbits
 354      AFF30080 
 354      AFF30080 
 355              		.align	2
 356              		.p2align 4,,15
 357              		.global	USART_StructInit
 358              		.thumb
 359              		.thumb_func
 360              		.type	USART_StructInit, %function
 361              	USART_StructInit:
 362              	.LFB113:
 363              		.loc 1 347 0
 364              		.cfi_startproc
 365              		@ args = 0, pretend = 0, frame = 0
 366              		@ frame_needed = 0, uses_anonymous_args = 0
 367              		@ link register save eliminated.
 368              	.LVL51:
 369              		.loc 1 350 0
 370 0000 0023     		movs	r3, #0
 371              		.loc 1 349 0
 372 0002 4FF41651 		mov	r1, #9600
 373              		.loc 1 353 0
 374 0006 0C22     		movs	r2, #12
 375              		.loc 1 349 0
 376 0008 0160     		str	r1, [r0]
 377              		.loc 1 353 0
 378 000a 4281     		strh	r2, [r0, #10]	@ movhi
 379              		.loc 1 350 0
 380 000c 8380     		strh	r3, [r0, #4]	@ movhi
 381              		.loc 1 351 0
 382 000e C380     		strh	r3, [r0, #6]	@ movhi
 383              		.loc 1 352 0
 384 0010 0381     		strh	r3, [r0, #8]	@ movhi
 385              		.loc 1 354 0
 386 0012 8381     		strh	r3, [r0, #12]	@ movhi
 387 0014 7047     		bx	lr
 388              		.cfi_endproc
 389              	.LFE113:
 390              		.size	USART_StructInit, .-USART_StructInit
 391 0016 00BFAFF3 		.section	.text.USART_ClockInit,"ax",%progbits
 391      0080AFF3 
 391      0080
 392              		.align	2
 393              		.p2align 4,,15
 394              		.global	USART_ClockInit
ARM GAS  C:\Users\jsyoon\AppData\Local\Temp\cc7861fK.s 			page 8


 395              		.thumb
 396              		.thumb_func
 397              		.type	USART_ClockInit, %function
 398              	USART_ClockInit:
 399              	.LFB114:
 400              		.loc 1 367 0
 401              		.cfi_startproc
 402              		@ args = 0, pretend = 0, frame = 0
 403              		@ frame_needed = 0, uses_anonymous_args = 0
 404              		@ link register save eliminated.
 405              	.LVL52:
 406 0000 30B4     		push	{r4, r5}
 407              		.cfi_def_cfa_offset 8
 408              		.cfi_offset 4, -8
 409              		.cfi_offset 5, -4
 410              		.loc 1 386 0
 411 0002 0A88     		ldrh	r2, [r1]
 412 0004 4D88     		ldrh	r5, [r1, #2]
 413 0006 8C88     		ldrh	r4, [r1, #4]
 414              		.loc 1 377 0
 415 0008 038A     		ldrh	r3, [r0, #16]
 416              		.loc 1 386 0
 417 000a C988     		ldrh	r1, [r1, #6]
 418              	.LVL53:
 419 000c 2A43     		orrs	r2, r2, r5
 420 000e 2243     		orrs	r2, r2, r4
 421 0010 0A43     		orrs	r2, r2, r1
 422              		.loc 1 377 0
 423 0012 9BB2     		uxth	r3, r3
 424              	.LVL54:
 425              		.loc 1 386 0
 426 0014 92B2     		uxth	r2, r2
 427              		.loc 1 379 0
 428 0016 23F47063 		bic	r3, r3, #3840
 429              	.LVL55:
 430              		.loc 1 388 0
 431 001a 1343     		orrs	r3, r3, r2
 432              	.LVL56:
 433 001c 0382     		strh	r3, [r0, #16]	@ movhi
 434              		.loc 1 389 0
 435 001e 30BC     		pop	{r4, r5}
 436 0020 7047     		bx	lr
 437              		.cfi_endproc
 438              	.LFE114:
 439              		.size	USART_ClockInit, .-USART_ClockInit
 440 0022 00BFAFF3 		.section	.text.USART_ClockStructInit,"ax",%progbits
 440      0080AFF3 
 440      0080AFF3 
 440      0080
 441              		.align	2
 442              		.p2align 4,,15
 443              		.global	USART_ClockStructInit
 444              		.thumb
 445              		.thumb_func
 446              		.type	USART_ClockStructInit, %function
 447              	USART_ClockStructInit:
 448              	.LFB115:
ARM GAS  C:\Users\jsyoon\AppData\Local\Temp\cc7861fK.s 			page 9


 449              		.loc 1 398 0
 450              		.cfi_startproc
 451              		@ args = 0, pretend = 0, frame = 0
 452              		@ frame_needed = 0, uses_anonymous_args = 0
 453              		@ link register save eliminated.
 454              	.LVL57:
 455              		.loc 1 400 0
 456 0000 0023     		movs	r3, #0
 457 0002 0380     		strh	r3, [r0]	@ movhi
 458              		.loc 1 401 0
 459 0004 4380     		strh	r3, [r0, #2]	@ movhi
 460              		.loc 1 402 0
 461 0006 8380     		strh	r3, [r0, #4]	@ movhi
 462              		.loc 1 403 0
 463 0008 C380     		strh	r3, [r0, #6]	@ movhi
 464 000a 7047     		bx	lr
 465              		.cfi_endproc
 466              	.LFE115:
 467              		.size	USART_ClockStructInit, .-USART_ClockStructInit
 468 000c AFF30080 		.section	.text.USART_Cmd,"ax",%progbits
 469              		.align	2
 470              		.p2align 4,,15
 471              		.global	USART_Cmd
 472              		.thumb
 473              		.thumb_func
 474              		.type	USART_Cmd, %function
 475              	USART_Cmd:
 476              	.LFB116:
 477              		.loc 1 415 0
 478              		.cfi_startproc
 479              		@ args = 0, pretend = 0, frame = 0
 480              		@ frame_needed = 0, uses_anonymous_args = 0
 481              		@ link register save eliminated.
 482              	.LVL58:
 483              		.loc 1 423 0
 484 0000 8389     		ldrh	r3, [r0, #12]
 485              		.loc 1 420 0
 486 0002 29B9     		cbnz	r1, .L34
 487              		.loc 1 428 0
 488 0004 23F40053 		bic	r3, r3, #8192
 489 0008 1B04     		lsls	r3, r3, #16
 490 000a 1B0C     		lsrs	r3, r3, #16
 491 000c 8381     		strh	r3, [r0, #12]	@ movhi
 492 000e 7047     		bx	lr
 493              	.L34:
 494              		.loc 1 423 0
 495 0010 9BB2     		uxth	r3, r3
 496 0012 43F40053 		orr	r3, r3, #8192
 497 0016 8381     		strh	r3, [r0, #12]	@ movhi
 498 0018 7047     		bx	lr
 499              		.cfi_endproc
 500              	.LFE116:
 501              		.size	USART_Cmd, .-USART_Cmd
 502 001a 00BFAFF3 		.section	.text.USART_SetPrescaler,"ax",%progbits
 502      0080
 503              		.align	2
 504              		.p2align 4,,15
ARM GAS  C:\Users\jsyoon\AppData\Local\Temp\cc7861fK.s 			page 10


 505              		.global	USART_SetPrescaler
 506              		.thumb
 507              		.thumb_func
 508              		.type	USART_SetPrescaler, %function
 509              	USART_SetPrescaler:
 510              	.LFB117:
 511              		.loc 1 441 0
 512              		.cfi_startproc
 513              		@ args = 0, pretend = 0, frame = 0
 514              		@ frame_needed = 0, uses_anonymous_args = 0
 515              		@ link register save eliminated.
 516              	.LVL59:
 517              		.loc 1 446 0
 518 0000 038B     		ldrh	r3, [r0, #24]
 519 0002 03F47F43 		and	r3, r3, #65280
 520 0006 0383     		strh	r3, [r0, #24]	@ movhi
 521              		.loc 1 448 0
 522 0008 038B     		ldrh	r3, [r0, #24]
 523 000a 9BB2     		uxth	r3, r3
 524 000c 1943     		orrs	r1, r1, r3
 525              	.LVL60:
 526 000e 0183     		strh	r1, [r0, #24]	@ movhi
 527 0010 7047     		bx	lr
 528              		.cfi_endproc
 529              	.LFE117:
 530              		.size	USART_SetPrescaler, .-USART_SetPrescaler
 531 0012 00BFAFF3 		.section	.text.USART_OverSampling8Cmd,"ax",%progbits
 531      0080AFF3 
 531      0080AFF3 
 531      0080
 532              		.align	2
 533              		.p2align 4,,15
 534              		.global	USART_OverSampling8Cmd
 535              		.thumb
 536              		.thumb_func
 537              		.type	USART_OverSampling8Cmd, %function
 538              	USART_OverSampling8Cmd:
 539              	.LFB118:
 540              		.loc 1 462 0
 541              		.cfi_startproc
 542              		@ args = 0, pretend = 0, frame = 0
 543              		@ frame_needed = 0, uses_anonymous_args = 0
 544              		@ link register save eliminated.
 545              	.LVL61:
 546              		.loc 1 470 0
 547 0000 8389     		ldrh	r3, [r0, #12]
 548              		.loc 1 467 0
 549 0002 19B9     		cbnz	r1, .L39
 550              		.loc 1 475 0
 551 0004 C3F30E03 		ubfx	r3, r3, #0, #15
 552 0008 8381     		strh	r3, [r0, #12]	@ movhi
 553 000a 7047     		bx	lr
 554              	.L39:
 555              		.loc 1 470 0
 556 000c 6FEA4343 		mvn	r3, r3, lsl #17
 557 0010 6FEA5343 		mvn	r3, r3, lsr #17
 558 0014 9BB2     		uxth	r3, r3
ARM GAS  C:\Users\jsyoon\AppData\Local\Temp\cc7861fK.s 			page 11


 559 0016 8381     		strh	r3, [r0, #12]	@ movhi
 560 0018 7047     		bx	lr
 561              		.cfi_endproc
 562              	.LFE118:
 563              		.size	USART_OverSampling8Cmd, .-USART_OverSampling8Cmd
 564 001a 00BFAFF3 		.section	.text.USART_OneBitMethodCmd,"ax",%progbits
 564      0080
 565              		.align	2
 566              		.p2align 4,,15
 567              		.global	USART_OneBitMethodCmd
 568              		.thumb
 569              		.thumb_func
 570              		.type	USART_OneBitMethodCmd, %function
 571              	USART_OneBitMethodCmd:
 572              	.LFB119:
 573              		.loc 1 488 0
 574              		.cfi_startproc
 575              		@ args = 0, pretend = 0, frame = 0
 576              		@ frame_needed = 0, uses_anonymous_args = 0
 577              		@ link register save eliminated.
 578              	.LVL62:
 579              		.loc 1 496 0
 580 0000 838A     		ldrh	r3, [r0, #20]
 581              		.loc 1 493 0
 582 0002 29B9     		cbnz	r1, .L43
 583              		.loc 1 501 0
 584 0004 23F40063 		bic	r3, r3, #2048
 585 0008 1B04     		lsls	r3, r3, #16
 586 000a 1B0C     		lsrs	r3, r3, #16
 587 000c 8382     		strh	r3, [r0, #20]	@ movhi
 588 000e 7047     		bx	lr
 589              	.L43:
 590              		.loc 1 496 0
 591 0010 9BB2     		uxth	r3, r3
 592 0012 43F40063 		orr	r3, r3, #2048
 593 0016 8382     		strh	r3, [r0, #20]	@ movhi
 594 0018 7047     		bx	lr
 595              		.cfi_endproc
 596              	.LFE119:
 597              		.size	USART_OneBitMethodCmd, .-USART_OneBitMethodCmd
 598 001a 00BFAFF3 		.section	.text.USART_SendData,"ax",%progbits
 598      0080
 599              		.align	2
 600              		.p2align 4,,15
 601              		.global	USART_SendData
 602              		.thumb
 603              		.thumb_func
 604              		.type	USART_SendData, %function
 605              	USART_SendData:
 606              	.LFB120:
 607              		.loc 1 545 0
 608              		.cfi_startproc
 609              		@ args = 0, pretend = 0, frame = 0
 610              		@ frame_needed = 0, uses_anonymous_args = 0
 611              		@ link register save eliminated.
 612              	.LVL63:
 613              		.loc 1 551 0
ARM GAS  C:\Users\jsyoon\AppData\Local\Temp\cc7861fK.s 			page 12


 614 0000 C1F30801 		ubfx	r1, r1, #0, #9
 615              	.LVL64:
 616 0004 8180     		strh	r1, [r0, #4]	@ movhi
 617 0006 7047     		bx	lr
 618              		.cfi_endproc
 619              	.LFE120:
 620              		.size	USART_SendData, .-USART_SendData
 621 0008 AFF30080 		.section	.text.USART_ReceiveData,"ax",%progbits
 621      AFF30080 
 622              		.align	2
 623              		.p2align 4,,15
 624              		.global	USART_ReceiveData
 625              		.thumb
 626              		.thumb_func
 627              		.type	USART_ReceiveData, %function
 628              	USART_ReceiveData:
 629              	.LFB121:
 630              		.loc 1 561 0
 631              		.cfi_startproc
 632              		@ args = 0, pretend = 0, frame = 0
 633              		@ frame_needed = 0, uses_anonymous_args = 0
 634              		@ link register save eliminated.
 635              	.LVL65:
 636              		.loc 1 566 0
 637 0000 8088     		ldrh	r0, [r0, #4]
 638              	.LVL66:
 639              		.loc 1 567 0
 640 0002 C0F30800 		ubfx	r0, r0, #0, #9
 641 0006 7047     		bx	lr
 642              		.cfi_endproc
 643              	.LFE121:
 644              		.size	USART_ReceiveData, .-USART_ReceiveData
 645 0008 AFF30080 		.section	.text.USART_SetAddress,"ax",%progbits
 645      AFF30080 
 646              		.align	2
 647              		.p2align 4,,15
 648              		.global	USART_SetAddress
 649              		.thumb
 650              		.thumb_func
 651              		.type	USART_SetAddress, %function
 652              	USART_SetAddress:
 653              	.LFB122:
 654              		.loc 1 612 0
 655              		.cfi_startproc
 656              		@ args = 0, pretend = 0, frame = 0
 657              		@ frame_needed = 0, uses_anonymous_args = 0
 658              		@ link register save eliminated.
 659              	.LVL67:
 660              		.loc 1 618 0
 661 0000 038A     		ldrh	r3, [r0, #16]
 662 0002 23F00F03 		bic	r3, r3, #15
 663 0006 1B04     		lsls	r3, r3, #16
 664 0008 1B0C     		lsrs	r3, r3, #16
 665 000a 0382     		strh	r3, [r0, #16]	@ movhi
 666              		.loc 1 620 0
 667 000c 038A     		ldrh	r3, [r0, #16]
 668 000e 9BB2     		uxth	r3, r3
ARM GAS  C:\Users\jsyoon\AppData\Local\Temp\cc7861fK.s 			page 13


 669 0010 1943     		orrs	r1, r1, r3
 670              	.LVL68:
 671 0012 0182     		strh	r1, [r0, #16]	@ movhi
 672 0014 7047     		bx	lr
 673              		.cfi_endproc
 674              	.LFE122:
 675              		.size	USART_SetAddress, .-USART_SetAddress
 676 0016 00BFAFF3 		.section	.text.USART_ReceiverWakeUpCmd,"ax",%progbits
 676      0080AFF3 
 676      0080
 677              		.align	2
 678              		.p2align 4,,15
 679              		.global	USART_ReceiverWakeUpCmd
 680              		.thumb
 681              		.thumb_func
 682              		.type	USART_ReceiverWakeUpCmd, %function
 683              	USART_ReceiverWakeUpCmd:
 684              	.LFB123:
 685              		.loc 1 632 0
 686              		.cfi_startproc
 687              		@ args = 0, pretend = 0, frame = 0
 688              		@ frame_needed = 0, uses_anonymous_args = 0
 689              		@ link register save eliminated.
 690              	.LVL69:
 691              		.loc 1 640 0
 692 0000 8389     		ldrh	r3, [r0, #12]
 693              		.loc 1 637 0
 694 0002 29B9     		cbnz	r1, .L50
 695              		.loc 1 645 0
 696 0004 23F00203 		bic	r3, r3, #2
 697 0008 1B04     		lsls	r3, r3, #16
 698 000a 1B0C     		lsrs	r3, r3, #16
 699 000c 8381     		strh	r3, [r0, #12]	@ movhi
 700 000e 7047     		bx	lr
 701              	.L50:
 702              		.loc 1 640 0
 703 0010 9BB2     		uxth	r3, r3
 704 0012 43F00203 		orr	r3, r3, #2
 705 0016 8381     		strh	r3, [r0, #12]	@ movhi
 706 0018 7047     		bx	lr
 707              		.cfi_endproc
 708              	.LFE123:
 709              		.size	USART_ReceiverWakeUpCmd, .-USART_ReceiverWakeUpCmd
 710 001a 00BFAFF3 		.section	.text.USART_WakeUpConfig,"ax",%progbits
 710      0080
 711              		.align	2
 712              		.p2align 4,,15
 713              		.global	USART_WakeUpConfig
 714              		.thumb
 715              		.thumb_func
 716              		.type	USART_WakeUpConfig, %function
 717              	USART_WakeUpConfig:
 718              	.LFB124:
 719              		.loc 1 659 0
 720              		.cfi_startproc
 721              		@ args = 0, pretend = 0, frame = 0
 722              		@ frame_needed = 0, uses_anonymous_args = 0
ARM GAS  C:\Users\jsyoon\AppData\Local\Temp\cc7861fK.s 			page 14


 723              		@ link register save eliminated.
 724              	.LVL70:
 725              		.loc 1 664 0
 726 0000 8389     		ldrh	r3, [r0, #12]
 727 0002 23F40063 		bic	r3, r3, #2048
 728 0006 1B04     		lsls	r3, r3, #16
 729 0008 1B0C     		lsrs	r3, r3, #16
 730 000a 8381     		strh	r3, [r0, #12]	@ movhi
 731              		.loc 1 665 0
 732 000c 8389     		ldrh	r3, [r0, #12]
 733 000e 9BB2     		uxth	r3, r3
 734 0010 1943     		orrs	r1, r1, r3
 735              	.LVL71:
 736 0012 8181     		strh	r1, [r0, #12]	@ movhi
 737 0014 7047     		bx	lr
 738              		.cfi_endproc
 739              	.LFE124:
 740              		.size	USART_WakeUpConfig, .-USART_WakeUpConfig
 741 0016 00BFAFF3 		.section	.text.USART_LINBreakDetectLengthConfig,"ax",%progbits
 741      0080AFF3 
 741      0080
 742              		.align	2
 743              		.p2align 4,,15
 744              		.global	USART_LINBreakDetectLengthConfig
 745              		.thumb
 746              		.thumb_func
 747              		.type	USART_LINBreakDetectLengthConfig, %function
 748              	USART_LINBreakDetectLengthConfig:
 749              	.LFB125:
 750              		.loc 1 728 0
 751              		.cfi_startproc
 752              		@ args = 0, pretend = 0, frame = 0
 753              		@ frame_needed = 0, uses_anonymous_args = 0
 754              		@ link register save eliminated.
 755              	.LVL72:
 756              		.loc 1 733 0
 757 0000 038A     		ldrh	r3, [r0, #16]
 758 0002 23F02003 		bic	r3, r3, #32
 759 0006 1B04     		lsls	r3, r3, #16
 760 0008 1B0C     		lsrs	r3, r3, #16
 761 000a 0382     		strh	r3, [r0, #16]	@ movhi
 762              		.loc 1 734 0
 763 000c 038A     		ldrh	r3, [r0, #16]
 764 000e 9BB2     		uxth	r3, r3
 765 0010 1943     		orrs	r1, r1, r3
 766              	.LVL73:
 767 0012 0182     		strh	r1, [r0, #16]	@ movhi
 768 0014 7047     		bx	lr
 769              		.cfi_endproc
 770              	.LFE125:
 771              		.size	USART_LINBreakDetectLengthConfig, .-USART_LINBreakDetectLengthConfig
 772 0016 00BFAFF3 		.section	.text.USART_LINCmd,"ax",%progbits
 772      0080AFF3 
 772      0080
 773              		.align	2
 774              		.p2align 4,,15
 775              		.global	USART_LINCmd
ARM GAS  C:\Users\jsyoon\AppData\Local\Temp\cc7861fK.s 			page 15


 776              		.thumb
 777              		.thumb_func
 778              		.type	USART_LINCmd, %function
 779              	USART_LINCmd:
 780              	.LFB126:
 781              		.loc 1 746 0
 782              		.cfi_startproc
 783              		@ args = 0, pretend = 0, frame = 0
 784              		@ frame_needed = 0, uses_anonymous_args = 0
 785              		@ link register save eliminated.
 786              	.LVL74:
 787              		.loc 1 754 0
 788 0000 038A     		ldrh	r3, [r0, #16]
 789              		.loc 1 751 0
 790 0002 29B9     		cbnz	r1, .L56
 791              		.loc 1 759 0
 792 0004 23F48043 		bic	r3, r3, #16384
 793 0008 1B04     		lsls	r3, r3, #16
 794 000a 1B0C     		lsrs	r3, r3, #16
 795 000c 0382     		strh	r3, [r0, #16]	@ movhi
 796 000e 7047     		bx	lr
 797              	.L56:
 798              		.loc 1 754 0
 799 0010 9BB2     		uxth	r3, r3
 800 0012 43F48043 		orr	r3, r3, #16384
 801 0016 0382     		strh	r3, [r0, #16]	@ movhi
 802 0018 7047     		bx	lr
 803              		.cfi_endproc
 804              	.LFE126:
 805              		.size	USART_LINCmd, .-USART_LINCmd
 806 001a 00BFAFF3 		.section	.text.USART_SendBreak,"ax",%progbits
 806      0080
 807              		.align	2
 808              		.p2align 4,,15
 809              		.global	USART_SendBreak
 810              		.thumb
 811              		.thumb_func
 812              		.type	USART_SendBreak, %function
 813              	USART_SendBreak:
 814              	.LFB127:
 815              		.loc 1 770 0
 816              		.cfi_startproc
 817              		@ args = 0, pretend = 0, frame = 0
 818              		@ frame_needed = 0, uses_anonymous_args = 0
 819              		@ link register save eliminated.
 820              	.LVL75:
 821              		.loc 1 775 0
 822 0000 8389     		ldrh	r3, [r0, #12]
 823 0002 9BB2     		uxth	r3, r3
 824 0004 43F00103 		orr	r3, r3, #1
 825 0008 8381     		strh	r3, [r0, #12]	@ movhi
 826 000a 7047     		bx	lr
 827              		.cfi_endproc
 828              	.LFE127:
 829              		.size	USART_SendBreak, .-USART_SendBreak
 830              		.section	.text.USART_HalfDuplexCmd,"ax",%progbits
 831              		.align	2
ARM GAS  C:\Users\jsyoon\AppData\Local\Temp\cc7861fK.s 			page 16


 832              		.p2align 4,,15
 833              		.global	USART_HalfDuplexCmd
 834              		.thumb
 835              		.thumb_func
 836              		.type	USART_HalfDuplexCmd, %function
 837              	USART_HalfDuplexCmd:
 838              	.LFB128:
 839              		.loc 1 823 0
 840              		.cfi_startproc
 841              		@ args = 0, pretend = 0, frame = 0
 842              		@ frame_needed = 0, uses_anonymous_args = 0
 843              		@ link register save eliminated.
 844              	.LVL76:
 845              		.loc 1 831 0
 846 0000 838A     		ldrh	r3, [r0, #20]
 847              		.loc 1 828 0
 848 0002 29B9     		cbnz	r1, .L61
 849              		.loc 1 836 0
 850 0004 23F00803 		bic	r3, r3, #8
 851 0008 1B04     		lsls	r3, r3, #16
 852 000a 1B0C     		lsrs	r3, r3, #16
 853 000c 8382     		strh	r3, [r0, #20]	@ movhi
 854 000e 7047     		bx	lr
 855              	.L61:
 856              		.loc 1 831 0
 857 0010 9BB2     		uxth	r3, r3
 858 0012 43F00803 		orr	r3, r3, #8
 859 0016 8382     		strh	r3, [r0, #20]	@ movhi
 860 0018 7047     		bx	lr
 861              		.cfi_endproc
 862              	.LFE128:
 863              		.size	USART_HalfDuplexCmd, .-USART_HalfDuplexCmd
 864 001a 00BFAFF3 		.section	.text.USART_SetGuardTime,"ax",%progbits
 864      0080
 865              		.align	2
 866              		.p2align 4,,15
 867              		.global	USART_SetGuardTime
 868              		.thumb
 869              		.thumb_func
 870              		.type	USART_SetGuardTime, %function
 871              	USART_SetGuardTime:
 872              	.LFB129:
 873              		.loc 1 908 0
 874              		.cfi_startproc
 875              		@ args = 0, pretend = 0, frame = 0
 876              		@ frame_needed = 0, uses_anonymous_args = 0
 877              		@ link register save eliminated.
 878              	.LVL77:
 879              		.loc 1 913 0
 880 0000 038B     		ldrh	r3, [r0, #24]
 881 0002 DBB2     		uxtb	r3, r3
 882 0004 0383     		strh	r3, [r0, #24]	@ movhi
 883              		.loc 1 915 0
 884 0006 038B     		ldrh	r3, [r0, #24]
 885 0008 9BB2     		uxth	r3, r3
 886 000a 43EA0121 		orr	r1, r3, r1, lsl #8
 887              	.LVL78:
ARM GAS  C:\Users\jsyoon\AppData\Local\Temp\cc7861fK.s 			page 17


 888 000e 0183     		strh	r1, [r0, #24]	@ movhi
 889 0010 7047     		bx	lr
 890              		.cfi_endproc
 891              	.LFE129:
 892              		.size	USART_SetGuardTime, .-USART_SetGuardTime
 893 0012 00BFAFF3 		.section	.text.USART_SmartCardCmd,"ax",%progbits
 893      0080AFF3 
 893      0080AFF3 
 893      0080
 894              		.align	2
 895              		.p2align 4,,15
 896              		.global	USART_SmartCardCmd
 897              		.thumb
 898              		.thumb_func
 899              		.type	USART_SmartCardCmd, %function
 900              	USART_SmartCardCmd:
 901              	.LFB130:
 902              		.loc 1 927 0
 903              		.cfi_startproc
 904              		@ args = 0, pretend = 0, frame = 0
 905              		@ frame_needed = 0, uses_anonymous_args = 0
 906              		@ link register save eliminated.
 907              	.LVL79:
 908              		.loc 1 934 0
 909 0000 838A     		ldrh	r3, [r0, #20]
 910              		.loc 1 931 0
 911 0002 29B9     		cbnz	r1, .L66
 912              		.loc 1 939 0
 913 0004 23F02003 		bic	r3, r3, #32
 914 0008 1B04     		lsls	r3, r3, #16
 915 000a 1B0C     		lsrs	r3, r3, #16
 916 000c 8382     		strh	r3, [r0, #20]	@ movhi
 917 000e 7047     		bx	lr
 918              	.L66:
 919              		.loc 1 934 0
 920 0010 9BB2     		uxth	r3, r3
 921 0012 43F02003 		orr	r3, r3, #32
 922 0016 8382     		strh	r3, [r0, #20]	@ movhi
 923 0018 7047     		bx	lr
 924              		.cfi_endproc
 925              	.LFE130:
 926              		.size	USART_SmartCardCmd, .-USART_SmartCardCmd
 927 001a 00BFAFF3 		.section	.text.USART_SmartCardNACKCmd,"ax",%progbits
 927      0080
 928              		.align	2
 929              		.p2align 4,,15
 930              		.global	USART_SmartCardNACKCmd
 931              		.thumb
 932              		.thumb_func
 933              		.type	USART_SmartCardNACKCmd, %function
 934              	USART_SmartCardNACKCmd:
 935              	.LFB131:
 936              		.loc 1 952 0
 937              		.cfi_startproc
 938              		@ args = 0, pretend = 0, frame = 0
 939              		@ frame_needed = 0, uses_anonymous_args = 0
 940              		@ link register save eliminated.
ARM GAS  C:\Users\jsyoon\AppData\Local\Temp\cc7861fK.s 			page 18


 941              	.LVL80:
 942              		.loc 1 959 0
 943 0000 838A     		ldrh	r3, [r0, #20]
 944              		.loc 1 956 0
 945 0002 29B9     		cbnz	r1, .L70
 946              		.loc 1 964 0
 947 0004 23F01003 		bic	r3, r3, #16
 948 0008 1B04     		lsls	r3, r3, #16
 949 000a 1B0C     		lsrs	r3, r3, #16
 950 000c 8382     		strh	r3, [r0, #20]	@ movhi
 951 000e 7047     		bx	lr
 952              	.L70:
 953              		.loc 1 959 0
 954 0010 9BB2     		uxth	r3, r3
 955 0012 43F01003 		orr	r3, r3, #16
 956 0016 8382     		strh	r3, [r0, #20]	@ movhi
 957 0018 7047     		bx	lr
 958              		.cfi_endproc
 959              	.LFE131:
 960              		.size	USART_SmartCardNACKCmd, .-USART_SmartCardNACKCmd
 961 001a 00BFAFF3 		.section	.text.USART_IrDAConfig,"ax",%progbits
 961      0080
 962              		.align	2
 963              		.p2align 4,,15
 964              		.global	USART_IrDAConfig
 965              		.thumb
 966              		.thumb_func
 967              		.type	USART_IrDAConfig, %function
 968              	USART_IrDAConfig:
 969              	.LFB132:
 970              		.loc 1 1023 0
 971              		.cfi_startproc
 972              		@ args = 0, pretend = 0, frame = 0
 973              		@ frame_needed = 0, uses_anonymous_args = 0
 974              		@ link register save eliminated.
 975              	.LVL81:
 976              		.loc 1 1028 0
 977 0000 838A     		ldrh	r3, [r0, #20]
 978 0002 23F00403 		bic	r3, r3, #4
 979 0006 1B04     		lsls	r3, r3, #16
 980 0008 1B0C     		lsrs	r3, r3, #16
 981 000a 8382     		strh	r3, [r0, #20]	@ movhi
 982              		.loc 1 1029 0
 983 000c 838A     		ldrh	r3, [r0, #20]
 984 000e 9BB2     		uxth	r3, r3
 985 0010 1943     		orrs	r1, r1, r3
 986              	.LVL82:
 987 0012 8182     		strh	r1, [r0, #20]	@ movhi
 988 0014 7047     		bx	lr
 989              		.cfi_endproc
 990              	.LFE132:
 991              		.size	USART_IrDAConfig, .-USART_IrDAConfig
 992 0016 00BFAFF3 		.section	.text.USART_IrDACmd,"ax",%progbits
 992      0080AFF3 
 992      0080
 993              		.align	2
 994              		.p2align 4,,15
ARM GAS  C:\Users\jsyoon\AppData\Local\Temp\cc7861fK.s 			page 19


 995              		.global	USART_IrDACmd
 996              		.thumb
 997              		.thumb_func
 998              		.type	USART_IrDACmd, %function
 999              	USART_IrDACmd:
 1000              	.LFB133:
 1001              		.loc 1 1041 0
 1002              		.cfi_startproc
 1003              		@ args = 0, pretend = 0, frame = 0
 1004              		@ frame_needed = 0, uses_anonymous_args = 0
 1005              		@ link register save eliminated.
 1006              	.LVL83:
 1007              		.loc 1 1049 0
 1008 0000 838A     		ldrh	r3, [r0, #20]
 1009              		.loc 1 1046 0
 1010 0002 29B9     		cbnz	r1, .L75
 1011              		.loc 1 1054 0
 1012 0004 23F00203 		bic	r3, r3, #2
 1013 0008 1B04     		lsls	r3, r3, #16
 1014 000a 1B0C     		lsrs	r3, r3, #16
 1015 000c 8382     		strh	r3, [r0, #20]	@ movhi
 1016 000e 7047     		bx	lr
 1017              	.L75:
 1018              		.loc 1 1049 0
 1019 0010 9BB2     		uxth	r3, r3
 1020 0012 43F00203 		orr	r3, r3, #2
 1021 0016 8382     		strh	r3, [r0, #20]	@ movhi
 1022 0018 7047     		bx	lr
 1023              		.cfi_endproc
 1024              	.LFE133:
 1025              		.size	USART_IrDACmd, .-USART_IrDACmd
 1026 001a 00BFAFF3 		.section	.text.USART_DMACmd,"ax",%progbits
 1026      0080
 1027              		.align	2
 1028              		.p2align 4,,15
 1029              		.global	USART_DMACmd
 1030              		.thumb
 1031              		.thumb_func
 1032              		.type	USART_DMACmd, %function
 1033              	USART_DMACmd:
 1034              	.LFB134:
 1035              		.loc 1 1087 0
 1036              		.cfi_startproc
 1037              		@ args = 0, pretend = 0, frame = 0
 1038              		@ frame_needed = 0, uses_anonymous_args = 0
 1039              		@ link register save eliminated.
 1040              	.LVL84:
 1041              		.loc 1 1097 0
 1042 0000 838A     		ldrh	r3, [r0, #20]
 1043 0002 9BB2     		uxth	r3, r3
 1044              		.loc 1 1093 0
 1045 0004 1AB9     		cbnz	r2, .L79
 1046              		.loc 1 1103 0
 1047 0006 23EA0101 		bic	r1, r3, r1
 1048              	.LVL85:
 1049 000a 8182     		strh	r1, [r0, #20]	@ movhi
 1050 000c 7047     		bx	lr
ARM GAS  C:\Users\jsyoon\AppData\Local\Temp\cc7861fK.s 			page 20


 1051              	.LVL86:
 1052              	.L79:
 1053              		.loc 1 1097 0
 1054 000e 1943     		orrs	r1, r1, r3
 1055              	.LVL87:
 1056 0010 8182     		strh	r1, [r0, #20]	@ movhi
 1057 0012 7047     		bx	lr
 1058              		.cfi_endproc
 1059              	.LFE134:
 1060              		.size	USART_DMACmd, .-USART_DMACmd
 1061 0014 AFF30080 		.section	.text.USART_ITConfig,"ax",%progbits
 1061      AFF30080 
 1061      AFF30080 
 1062              		.align	2
 1063              		.p2align 4,,15
 1064              		.global	USART_ITConfig
 1065              		.thumb
 1066              		.thumb_func
 1067              		.type	USART_ITConfig, %function
 1068              	USART_ITConfig:
 1069              	.LFB135:
 1070              		.loc 1 1215 0
 1071              		.cfi_startproc
 1072              		@ args = 0, pretend = 0, frame = 0
 1073              		@ frame_needed = 0, uses_anonymous_args = 0
 1074              		@ link register save eliminated.
 1075              	.LVL88:
 1076              		.loc 1 1236 0
 1077 0000 01F01F03 		and	r3, r1, #31
 1078              		.loc 1 1215 0
 1079 0004 10B4     		push	{r4}
 1080              		.cfi_def_cfa_offset 4
 1081              		.cfi_offset 4, -4
 1082              		.loc 1 1232 0
 1083 0006 C1F34211 		ubfx	r1, r1, #5, #3
 1084              	.LVL89:
 1085              		.loc 1 1236 0
 1086 000a 0124     		movs	r4, #1
 1087              	.LVL90:
 1088              		.loc 1 1238 0
 1089 000c A142     		cmp	r1, r4
 1090              		.loc 1 1236 0
 1091 000e 04FA03F3 		lsl	r3, r4, r3
 1092              	.LVL91:
 1093              		.loc 1 1238 0
 1094 0012 10D0     		beq	.L86
 1095              		.loc 1 1242 0
 1096 0014 0229     		cmp	r1, #2
 1097              		.loc 1 1244 0
 1098 0016 0CBF     		ite	eq
 1099 0018 1030     		addeq	r0, r0, #16
 1100              	.LVL92:
 1101              		.loc 1 1248 0
 1102 001a 1430     		addne	r0, r0, #20
 1103              	.LVL93:
 1104              	.L82:
 1105              		.loc 1 1252 0
ARM GAS  C:\Users\jsyoon\AppData\Local\Temp\cc7861fK.s 			page 21


 1106 001c 0468     		ldr	r4, [r0]
 1107              		.loc 1 1250 0
 1108 001e 2AB9     		cbnz	r2, .L87
 1109              		.loc 1 1256 0
 1110 0020 24EA0303 		bic	r3, r4, r3
 1111              	.LVL94:
 1112 0024 0360     		str	r3, [r0]
 1113              		.loc 1 1258 0
 1114 0026 5DF8044B 		ldr	r4, [sp], #4
 1115 002a 7047     		bx	lr
 1116              	.LVL95:
 1117              	.L87:
 1118              		.loc 1 1252 0
 1119 002c 2343     		orrs	r3, r3, r4
 1120              	.LVL96:
 1121 002e 0360     		str	r3, [r0]
 1122              		.loc 1 1258 0
 1123 0030 5DF8044B 		ldr	r4, [sp], #4
 1124 0034 7047     		bx	lr
 1125              	.LVL97:
 1126              	.L86:
 1127              		.loc 1 1240 0
 1128 0036 0C30     		adds	r0, r0, #12
 1129              	.LVL98:
 1130 0038 F0E7     		b	.L82
 1131              		.cfi_endproc
 1132              	.LFE135:
 1133              		.size	USART_ITConfig, .-USART_ITConfig
 1134 003a 00BFAFF3 		.section	.text.USART_GetFlagStatus,"ax",%progbits
 1134      0080
 1135              		.align	2
 1136              		.p2align 4,,15
 1137              		.global	USART_GetFlagStatus
 1138              		.thumb
 1139              		.thumb_func
 1140              		.type	USART_GetFlagStatus, %function
 1141              	USART_GetFlagStatus:
 1142              	.LFB136:
 1143              		.loc 1 1279 0
 1144              		.cfi_startproc
 1145              		@ args = 0, pretend = 0, frame = 0
 1146              		@ frame_needed = 0, uses_anonymous_args = 0
 1147              		@ link register save eliminated.
 1148              	.LVL99:
 1149              		.loc 1 1291 0
 1150 0000 0388     		ldrh	r3, [r0]
 1151              	.LVL100:
 1152 0002 1942     		tst	r1, r3
 1153              		.loc 1 1300 0
 1154 0004 0CBF     		ite	eq
 1155 0006 0020     		moveq	r0, #0
 1156 0008 0120     		movne	r0, #1
 1157              	.LVL101:
 1158 000a 7047     		bx	lr
 1159              		.cfi_endproc
 1160              	.LFE136:
 1161              		.size	USART_GetFlagStatus, .-USART_GetFlagStatus
ARM GAS  C:\Users\jsyoon\AppData\Local\Temp\cc7861fK.s 			page 22


 1162 000c AFF30080 		.section	.text.USART_ClearFlag,"ax",%progbits
 1163              		.align	2
 1164              		.p2align 4,,15
 1165              		.global	USART_ClearFlag
 1166              		.thumb
 1167              		.thumb_func
 1168              		.type	USART_ClearFlag, %function
 1169              	USART_ClearFlag:
 1170              	.LFB137:
 1171              		.loc 1 1328 0
 1172              		.cfi_startproc
 1173              		@ args = 0, pretend = 0, frame = 0
 1174              		@ frame_needed = 0, uses_anonymous_args = 0
 1175              		@ link register save eliminated.
 1176              	.LVL102:
 1177              		.loc 1 1339 0
 1178 0000 C943     		mvns	r1, r1
 1179              	.LVL103:
 1180 0002 89B2     		uxth	r1, r1
 1181 0004 0180     		strh	r1, [r0]	@ movhi
 1182 0006 7047     		bx	lr
 1183              		.cfi_endproc
 1184              	.LFE137:
 1185              		.size	USART_ClearFlag, .-USART_ClearFlag
 1186 0008 AFF30080 		.section	.text.USART_GetITStatus,"ax",%progbits
 1186      AFF30080 
 1187              		.align	2
 1188              		.p2align 4,,15
 1189              		.global	USART_GetITStatus
 1190              		.thumb
 1191              		.thumb_func
 1192              		.type	USART_GetITStatus, %function
 1193              	USART_GetITStatus:
 1194              	.LFB138:
 1195              		.loc 1 1362 0
 1196              		.cfi_startproc
 1197              		@ args = 0, pretend = 0, frame = 0
 1198              		@ frame_needed = 0, uses_anonymous_args = 0
 1199              		@ link register save eliminated.
 1200              	.LVL104:
 1201 0000 10B4     		push	{r4}
 1202              		.cfi_def_cfa_offset 4
 1203              		.cfi_offset 4, -4
 1204              		.loc 1 1376 0
 1205 0002 C1F34213 		ubfx	r3, r1, #5, #3
 1206              	.LVL105:
 1207              		.loc 1 1379 0
 1208 0006 0124     		movs	r4, #1
 1209 0008 01F01F02 		and	r2, r1, #31
 1210              		.loc 1 1381 0
 1211 000c A342     		cmp	r3, r4
 1212              		.loc 1 1379 0
 1213 000e 04FA02F2 		lsl	r2, r4, r2
 1214              	.LVL106:
 1215              		.loc 1 1381 0
 1216 0012 17D0     		beq	.L96
 1217              		.loc 1 1385 0
ARM GAS  C:\Users\jsyoon\AppData\Local\Temp\cc7861fK.s 			page 23


 1218 0014 022B     		cmp	r3, #2
 1219              		.loc 1 1387 0
 1220 0016 0CBF     		ite	eq
 1221 0018 038A     		ldrheq	r3, [r0, #16]
 1222              	.LVL107:
 1223              		.loc 1 1391 0
 1224 001a 838A     		ldrhne	r3, [r0, #20]
 1225 001c 9BB2     		uxth	r3, r3
 1226 001e 1340     		ands	r3, r3, r2
 1227              	.LVL108:
 1228              	.L92:
 1229              		.loc 1 1396 0
 1230 0020 0288     		ldrh	r2, [r0]
 1231 0022 92B2     		uxth	r2, r2
 1232              	.LVL109:
 1233              		.loc 1 1397 0
 1234 0024 53B1     		cbz	r3, .L95
 1235              		.loc 1 1395 0 discriminator 1
 1236 0026 090A     		lsrs	r1, r1, #8
 1237              	.LVL110:
 1238 0028 0123     		movs	r3, #1
 1239              	.LVL111:
 1240 002a 03FA01F1 		lsl	r1, r3, r1
 1241              		.loc 1 1397 0 discriminator 1
 1242 002e 1142     		tst	r1, r2
 1243              		.loc 1 1399 0 discriminator 1
 1244 0030 0CBF     		ite	eq
 1245 0032 0020     		moveq	r0, #0
 1246 0034 0120     		movne	r0, #1
 1247              	.LVL112:
 1248              		.loc 1 1407 0 discriminator 1
 1249 0036 5DF8044B 		ldr	r4, [sp], #4
 1250 003a 7047     		bx	lr
 1251              	.LVL113:
 1252              	.L95:
 1253              		.loc 1 1403 0
 1254 003c 1846     		mov	r0, r3
 1255              	.LVL114:
 1256              		.loc 1 1407 0
 1257 003e 5DF8044B 		ldr	r4, [sp], #4
 1258 0042 7047     		bx	lr
 1259              	.LVL115:
 1260              	.L96:
 1261              		.loc 1 1383 0
 1262 0044 8389     		ldrh	r3, [r0, #12]
 1263              	.LVL116:
 1264 0046 9BB2     		uxth	r3, r3
 1265 0048 1340     		ands	r3, r3, r2
 1266              	.LVL117:
 1267 004a E9E7     		b	.L92
 1268              		.cfi_endproc
 1269              	.LFE138:
 1270              		.size	USART_GetITStatus, .-USART_GetITStatus
 1271 004c AFF30080 		.section	.text.USART_ClearITPendingBit,"ax",%progbits
 1272              		.align	2
 1273              		.p2align 4,,15
 1274              		.global	USART_ClearITPendingBit
ARM GAS  C:\Users\jsyoon\AppData\Local\Temp\cc7861fK.s 			page 24


 1275              		.thumb
 1276              		.thumb_func
 1277              		.type	USART_ClearITPendingBit, %function
 1278              	USART_ClearITPendingBit:
 1279              	.LFB139:
 1280              		.loc 1 1436 0
 1281              		.cfi_startproc
 1282              		@ args = 0, pretend = 0, frame = 0
 1283              		@ frame_needed = 0, uses_anonymous_args = 0
 1284              		@ link register save eliminated.
 1285              	.LVL118:
 1286              		.loc 1 1449 0
 1287 0000 090A     		lsrs	r1, r1, #8
 1288              	.LVL119:
 1289 0002 0123     		movs	r3, #1
 1290 0004 03FA01F1 		lsl	r1, r3, r1
 1291              		.loc 1 1450 0
 1292 0008 C943     		mvns	r1, r1
 1293 000a 89B2     		uxth	r1, r1
 1294 000c 0180     		strh	r1, [r0]	@ movhi
 1295 000e 7047     		bx	lr
 1296              		.cfi_endproc
 1297              	.LFE139:
 1298              		.size	USART_ClearITPendingBit, .-USART_ClearITPendingBit
 1299              		.text
 1300              	.Letext0:
 1301              		.file 2 "c:\\crosstools\\gcc-arm-embedded\\4.8_2014q2\\arm-none-eabi\\include\\machine\\_default_t
 1302              		.file 3 "c:\\crosstools\\gcc-arm-embedded\\4.8_2014q2\\arm-none-eabi\\include\\stdint.h"
 1303              		.file 4 "ChibiOS_2.6.6/os/hal/platforms/STM32F4xx/stm32f4xx.h"
 1304              		.file 5 "ChibiOS_2.6.6/ext/stdperiph_stm32f4/inc/stm32f4xx_rcc.h"
 1305              		.file 6 "ChibiOS_2.6.6/ext/stdperiph_stm32f4/inc/stm32f4xx_usart.h"
 1306              		.file 7 "ChibiOS_2.6.6/os/ports/common/ARMCMx/CMSIS/include/core_cm4.h"