ARM GAS  C:\Users\jsyoon\AppData\Local\Temp\ccmtPOmY.s 			page 1


   1              		.syntax unified
   2              		.cpu cortex-m4
   3              		.eabi_attribute 27, 3
   4              		.eabi_attribute 28, 1
   5              		.fpu fpv4-sp-d16
   6              		.eabi_attribute 20, 1
   7              		.eabi_attribute 21, 1
   8              		.eabi_attribute 23, 3
   9              		.eabi_attribute 24, 1
  10              		.eabi_attribute 25, 1
  11              		.eabi_attribute 26, 1
  12              		.eabi_attribute 30, 2
  13              		.eabi_attribute 34, 1
  14              		.eabi_attribute 18, 4
  15              		.thumb
  16              		.file	"stm32f4xx_cryp_tdes.c"
  17              		.text
  18              	.Ltext0:
  19              		.cfi_sections	.debug_frame
  20              		.section	.text.CRYP_TDES_ECB,"ax",%progbits
  21              		.align	2
  22              		.p2align 4,,15
  23              		.global	CRYP_TDES_ECB
  24              		.thumb
  25              		.thumb_func
  26              		.type	CRYP_TDES_ECB, %function
  27              	CRYP_TDES_ECB:
  28              	.LFB111:
  29              		.file 1 "ChibiOS_2.6.6/ext/stdperiph_stm32f4/src/stm32f4xx_cryp_tdes.c"
  30              		.loc 1 104 0
  31              		.cfi_startproc
  32              		@ args = 4, pretend = 0, frame = 48
  33              		@ frame_needed = 0, uses_anonymous_args = 0
  34              	.LVL0:
  35 0000 2DE9F043 		push	{r4, r5, r6, r7, r8, r9, lr}
  36              		.cfi_def_cfa_offset 28
  37              		.cfi_offset 4, -28
  38              		.cfi_offset 5, -24
  39              		.cfi_offset 6, -20
  40              		.cfi_offset 7, -16
  41              		.cfi_offset 8, -12
  42              		.cfi_offset 9, -8
  43              		.cfi_offset 14, -4
  44 0004 8DB0     		sub	sp, sp, #52
  45              		.cfi_def_cfa_offset 80
  46              		.loc 1 104 0
  47 0006 8146     		mov	r9, r0
  48              		.loc 1 107 0
  49 0008 0027     		movs	r7, #0
  50              		.loc 1 116 0
  51 000a 04A8     		add	r0, sp, #16
  52              	.LVL1:
  53              		.loc 1 104 0
  54 000c 0E46     		mov	r6, r1
  55 000e 9846     		mov	r8, r3
  56 0010 1446     		mov	r4, r2
  57              		.loc 1 107 0
ARM GAS  C:\Users\jsyoon\AppData\Local\Temp\ccmtPOmY.s 			page 2


  58 0012 0197     		str	r7, [sp, #4]
  59              	.LVL2:
  60              		.loc 1 104 0
  61 0014 149D     		ldr	r5, [sp, #80]
  62              	.LVL3:
  63              		.loc 1 116 0
  64 0016 FFF7FEFF 		bl	CRYP_KeyStructInit
  65              	.LVL4:
  66              		.loc 1 119 0
  67 001a B9F1010F 		cmp	r9, #1
  68              		.loc 1 125 0
  69 001e 16BF     		itet	ne
  70 0020 0423     		movne	r3, #4
  71              		.loc 1 121 0
  72 0022 ADF80870 		strheq	r7, [sp, #8]	@ movhi
  73              		.loc 1 125 0
  74 0026 ADF80830 		strhne	r3, [sp, #8]	@ movhi
  75              		.loc 1 128 0
  76 002a 0027     		movs	r7, #0
  77              		.loc 1 129 0
  78 002c 8023     		movs	r3, #128
  79              		.loc 1 130 0
  80 002e 02A8     		add	r0, sp, #8
  81              		.loc 1 129 0
  82 0030 ADF80C30 		strh	r3, [sp, #12]	@ movhi
  83              		.loc 1 128 0
  84 0034 ADF80A70 		strh	r7, [sp, #10]	@ movhi
  85              		.loc 1 130 0
  86 0038 FFF7FEFF 		bl	CRYP_Init
  87              	.LVL5:
  88              	.LBB30:
  89              	.LBB31:
  90              		.file 2 "ChibiOS_2.6.6/os/ports/common/ARMCMx/CMSIS/include/core_cmInstr.h"
  91              		.loc 2 369 0
  92 003c 3368     		ldr	r3, [r6]
  93              	@ 369 "ChibiOS_2.6.6/os/ports/common/ARMCMx/CMSIS/include/core_cmInstr.h" 1
  94 003e 1BBA     		rev r3, r3
  95              	@ 0 "" 2
  96              	.LVL6:
  97              		.thumb
  98              	.LBE31:
  99              	.LBE30:
 100              		.loc 1 133 0
 101 0040 0693     		str	r3, [sp, #24]
 102              	.LVL7:
 103              	.LBB32:
 104              	.LBB33:
 105              		.loc 2 369 0
 106 0042 7368     		ldr	r3, [r6, #4]
 107              	.LVL8:
 108              	@ 369 "ChibiOS_2.6.6/os/ports/common/ARMCMx/CMSIS/include/core_cmInstr.h" 1
 109 0044 1BBA     		rev r3, r3
 110              	@ 0 "" 2
 111              	.LVL9:
 112              		.thumb
 113              	.LBE33:
 114              	.LBE32:
ARM GAS  C:\Users\jsyoon\AppData\Local\Temp\ccmtPOmY.s 			page 3


 115              		.loc 1 135 0
 116 0046 0793     		str	r3, [sp, #28]
 117              	.LVL10:
 118              	.LBB34:
 119              	.LBB35:
 120              		.loc 2 369 0
 121 0048 B368     		ldr	r3, [r6, #8]
 122              	.LVL11:
 123              	@ 369 "ChibiOS_2.6.6/os/ports/common/ARMCMx/CMSIS/include/core_cmInstr.h" 1
 124 004a 1BBA     		rev r3, r3
 125              	@ 0 "" 2
 126              	.LVL12:
 127              		.thumb
 128              	.LBE35:
 129              	.LBE34:
 130              		.loc 1 137 0
 131 004c 0893     		str	r3, [sp, #32]
 132              	.LVL13:
 133              	.LBB36:
 134              	.LBB37:
 135              		.loc 2 369 0
 136 004e F368     		ldr	r3, [r6, #12]
 137              	.LVL14:
 138              	@ 369 "ChibiOS_2.6.6/os/ports/common/ARMCMx/CMSIS/include/core_cmInstr.h" 1
 139 0050 1BBA     		rev r3, r3
 140              	@ 0 "" 2
 141              	.LVL15:
 142              		.thumb
 143              	.LBE37:
 144              	.LBE36:
 145              		.loc 1 139 0
 146 0052 0993     		str	r3, [sp, #36]
 147              	.LVL16:
 148              	.LBB38:
 149              	.LBB39:
 150              		.loc 2 369 0
 151 0054 3369     		ldr	r3, [r6, #16]
 152              	.LVL17:
 153              	@ 369 "ChibiOS_2.6.6/os/ports/common/ARMCMx/CMSIS/include/core_cmInstr.h" 1
 154 0056 1BBA     		rev r3, r3
 155              	@ 0 "" 2
 156              	.LVL18:
 157              		.thumb
 158              	.LBE39:
 159              	.LBE38:
 160              		.loc 1 141 0
 161 0058 0A93     		str	r3, [sp, #40]
 162              	.LVL19:
 163              	.LBB40:
 164              	.LBB41:
 165              		.loc 2 369 0
 166 005a 7369     		ldr	r3, [r6, #20]
 167              	.LVL20:
 168              	@ 369 "ChibiOS_2.6.6/os/ports/common/ARMCMx/CMSIS/include/core_cmInstr.h" 1
 169 005c 1BBA     		rev r3, r3
 170              	@ 0 "" 2
 171              	.LVL21:
ARM GAS  C:\Users\jsyoon\AppData\Local\Temp\ccmtPOmY.s 			page 4


 172              		.thumb
 173              	.LBE41:
 174              	.LBE40:
 175              		.loc 1 144 0
 176 005e 04A8     		add	r0, sp, #16
 177              		.loc 1 143 0
 178 0060 0B93     		str	r3, [sp, #44]
 179              		.loc 1 144 0
 180 0062 FFF7FEFF 		bl	CRYP_KeyInit
 181              	.LVL22:
 182              		.loc 1 147 0
 183 0066 FFF7FEFF 		bl	CRYP_FIFOFlush
 184              	.LVL23:
 185              		.loc 1 150 0
 186 006a 0120     		movs	r0, #1
 187 006c FFF7FEFF 		bl	CRYP_Cmd
 188              	.LVL24:
 189              		.loc 1 152 0
 190 0070 B8F1000F 		cmp	r8, #0
 191 0074 2FD0     		beq	.L9
 192 0076 0834     		adds	r4, r4, #8
 193              	.LVL25:
 194 0078 0835     		adds	r5, r5, #8
 195              	.LVL26:
 196              		.loc 1 161 0
 197 007a 3E46     		mov	r6, r7
 198              	.LVL27:
 199              	.L10:
 200              		.loc 1 155 0
 201 007c 54F8080C 		ldr	r0, [r4, #-8]
 202 0080 FFF7FEFF 		bl	CRYP_DataIn
 203              	.LVL28:
 204              		.loc 1 157 0
 205 0084 54F8040C 		ldr	r0, [r4, #-4]
 206 0088 FFF7FEFF 		bl	CRYP_DataIn
 207              	.LVL29:
 208              		.loc 1 161 0
 209 008c 0196     		str	r6, [sp, #4]
 210 008e 00E0     		b	.L8
 211              	.LVL30:
 212              	.L16:
 213              		.loc 1 166 0 discriminator 1
 214 0090 90B1     		cbz	r0, .L7
 215              	.LVL31:
 216              	.L8:
 217              		.loc 1 164 0 discriminator 1
 218 0092 1020     		movs	r0, #16
 219 0094 FFF7FEFF 		bl	CRYP_GetFlagStatus
 220              	.LVL32:
 221              		.loc 1 165 0 discriminator 1
 222 0098 019A     		ldr	r2, [sp, #4]
 223 009a 0132     		adds	r2, r2, #1
 224 009c 0192     		str	r2, [sp, #4]
 225              		.loc 1 166 0 discriminator 1
 226 009e 019A     		ldr	r2, [sp, #4]
 227 00a0 B2F5803F 		cmp	r2, #65536
 228 00a4 F4D1     		bne	.L16
ARM GAS  C:\Users\jsyoon\AppData\Local\Temp\ccmtPOmY.s 			page 5


 229              		.loc 1 168 0
 230 00a6 38B1     		cbz	r0, .L7
 231              		.loc 1 170 0
 232 00a8 0024     		movs	r4, #0
 233              	.LVL33:
 234              	.L5:
 235              		.loc 1 184 0
 236 00aa 0020     		movs	r0, #0
 237 00ac FFF7FEFF 		bl	CRYP_Cmd
 238              	.LVL34:
 239              		.loc 1 187 0
 240 00b0 2046     		mov	r0, r4
 241 00b2 0DB0     		add	sp, sp, #52
 242              		@ sp needed
 243 00b4 BDE8F083 		pop	{r4, r5, r6, r7, r8, r9, pc}
 244              	.LVL35:
 245              	.L7:
 246              		.loc 1 176 0
 247 00b8 FFF7FEFF 		bl	CRYP_DataOut
 248              	.LVL36:
 249 00bc 45F8080C 		str	r0, [r5, #-8]
 250              	.LVL37:
 251              		.loc 1 178 0
 252 00c0 FFF7FEFF 		bl	CRYP_DataOut
 253              	.LVL38:
 254              		.loc 1 152 0
 255 00c4 0837     		adds	r7, r7, #8
 256              	.LVL39:
 257 00c6 4745     		cmp	r7, r8
 258              		.loc 1 178 0
 259 00c8 45F8040C 		str	r0, [r5, #-4]
 260              	.LVL40:
 261 00cc 04F10804 		add	r4, r4, #8
 262 00d0 05F10805 		add	r5, r5, #8
 263              		.loc 1 152 0
 264 00d4 D2D3     		bcc	.L10
 265              	.LVL41:
 266              	.L9:
 267              		.loc 1 109 0
 268 00d6 0124     		movs	r4, #1
 269 00d8 E7E7     		b	.L5
 270              		.cfi_endproc
 271              	.LFE111:
 272              		.size	CRYP_TDES_ECB, .-CRYP_TDES_ECB
 273 00da 00BFAFF3 		.section	.text.CRYP_TDES_CBC,"ax",%progbits
 273      0080
 274              		.align	2
 275              		.p2align 4,,15
 276              		.global	CRYP_TDES_CBC
 277              		.thumb
 278              		.thumb_func
 279              		.type	CRYP_TDES_CBC, %function
 280              	CRYP_TDES_CBC:
 281              	.LFB112:
 282              		.loc 1 206 0
 283              		.cfi_startproc
 284              		@ args = 8, pretend = 0, frame = 64
ARM GAS  C:\Users\jsyoon\AppData\Local\Temp\ccmtPOmY.s 			page 6


 285              		@ frame_needed = 0, uses_anonymous_args = 0
 286              	.LVL42:
 287 0000 2DE9F047 		push	{r4, r5, r6, r7, r8, r9, r10, lr}
 288              		.cfi_def_cfa_offset 32
 289              		.cfi_offset 4, -32
 290              		.cfi_offset 5, -28
 291              		.cfi_offset 6, -24
 292              		.cfi_offset 7, -20
 293              		.cfi_offset 8, -16
 294              		.cfi_offset 9, -12
 295              		.cfi_offset 10, -8
 296              		.cfi_offset 14, -4
 297 0004 90B0     		sub	sp, sp, #64
 298              		.cfi_def_cfa_offset 96
 299              		.loc 1 206 0
 300 0006 8246     		mov	r10, r0
 301              		.loc 1 210 0
 302 0008 0024     		movs	r4, #0
 303              		.loc 1 220 0
 304 000a 08A8     		add	r0, sp, #32
 305              	.LVL43:
 306              		.loc 1 206 0
 307 000c 0E46     		mov	r6, r1
 308 000e 9946     		mov	r9, r3
 309 0010 1746     		mov	r7, r2
 310              		.loc 1 210 0
 311 0012 0194     		str	r4, [sp, #4]
 312              		.loc 1 206 0
 313 0014 DDF86080 		ldr	r8, [sp, #96]
 314              	.LVL44:
 315 0018 199D     		ldr	r5, [sp, #100]
 316              	.LVL45:
 317              		.loc 1 220 0
 318 001a FFF7FEFF 		bl	CRYP_KeyStructInit
 319              	.LVL46:
 320              		.loc 1 223 0
 321 001e BAF1010F 		cmp	r10, #1
 322              		.loc 1 229 0
 323 0022 18BF     		it	ne
 324 0024 0423     		movne	r3, #4
 325              		.loc 1 231 0
 326 0026 4FF00802 		mov	r2, #8
 327              		.loc 1 229 0
 328 002a 18BF     		it	ne
 329 002c ADF80830 		strhne	r3, [sp, #8]	@ movhi
 330              		.loc 1 234 0
 331 0030 0DEB0200 		add	r0, sp, r2
 332              		.loc 1 232 0
 333 0034 4FF08003 		mov	r3, #128
 334              		.loc 1 225 0
 335 0038 08BF     		it	eq
 336 003a ADF80840 		strheq	r4, [sp, #8]	@ movhi
 337              		.loc 1 232 0
 338 003e ADF80C30 		strh	r3, [sp, #12]	@ movhi
 339              		.loc 1 231 0
 340 0042 ADF80A20 		strh	r2, [sp, #10]	@ movhi
 341              		.loc 1 234 0
ARM GAS  C:\Users\jsyoon\AppData\Local\Temp\ccmtPOmY.s 			page 7


 342 0046 FFF7FEFF 		bl	CRYP_Init
 343              	.LVL47:
 344              	.LBB42:
 345              	.LBB43:
 346              		.loc 2 369 0
 347 004a 3368     		ldr	r3, [r6]
 348              	@ 369 "ChibiOS_2.6.6/os/ports/common/ARMCMx/CMSIS/include/core_cmInstr.h" 1
 349 004c 1BBA     		rev r3, r3
 350              	@ 0 "" 2
 351              	.LVL48:
 352              		.thumb
 353              	.LBE43:
 354              	.LBE42:
 355              		.loc 1 237 0
 356 004e 0A93     		str	r3, [sp, #40]
 357              	.LVL49:
 358              	.LBB44:
 359              	.LBB45:
 360              		.loc 2 369 0
 361 0050 7368     		ldr	r3, [r6, #4]
 362              	.LVL50:
 363              	@ 369 "ChibiOS_2.6.6/os/ports/common/ARMCMx/CMSIS/include/core_cmInstr.h" 1
 364 0052 1BBA     		rev r3, r3
 365              	@ 0 "" 2
 366              	.LVL51:
 367              		.thumb
 368              	.LBE45:
 369              	.LBE44:
 370              		.loc 1 239 0
 371 0054 0B93     		str	r3, [sp, #44]
 372              	.LVL52:
 373              	.LBB46:
 374              	.LBB47:
 375              		.loc 2 369 0
 376 0056 B368     		ldr	r3, [r6, #8]
 377              	.LVL53:
 378              	@ 369 "ChibiOS_2.6.6/os/ports/common/ARMCMx/CMSIS/include/core_cmInstr.h" 1
 379 0058 1BBA     		rev r3, r3
 380              	@ 0 "" 2
 381              	.LVL54:
 382              		.thumb
 383              	.LBE47:
 384              	.LBE46:
 385              		.loc 1 241 0
 386 005a 0C93     		str	r3, [sp, #48]
 387              	.LVL55:
 388              	.LBB48:
 389              	.LBB49:
 390              		.loc 2 369 0
 391 005c F368     		ldr	r3, [r6, #12]
 392              	.LVL56:
 393              	@ 369 "ChibiOS_2.6.6/os/ports/common/ARMCMx/CMSIS/include/core_cmInstr.h" 1
 394 005e 1BBA     		rev r3, r3
 395              	@ 0 "" 2
 396              	.LVL57:
 397              		.thumb
 398              	.LBE49:
ARM GAS  C:\Users\jsyoon\AppData\Local\Temp\ccmtPOmY.s 			page 8


 399              	.LBE48:
 400              		.loc 1 243 0
 401 0060 0D93     		str	r3, [sp, #52]
 402              	.LVL58:
 403              	.LBB50:
 404              	.LBB51:
 405              		.loc 2 369 0
 406 0062 3369     		ldr	r3, [r6, #16]
 407              	.LVL59:
 408              	@ 369 "ChibiOS_2.6.6/os/ports/common/ARMCMx/CMSIS/include/core_cmInstr.h" 1
 409 0064 1BBA     		rev r3, r3
 410              	@ 0 "" 2
 411              	.LVL60:
 412              		.thumb
 413              	.LBE51:
 414              	.LBE50:
 415              		.loc 1 245 0
 416 0066 0E93     		str	r3, [sp, #56]
 417              	.LVL61:
 418              	.LBB52:
 419              	.LBB53:
 420              		.loc 2 369 0
 421 0068 7369     		ldr	r3, [r6, #20]
 422              	.LVL62:
 423              	@ 369 "ChibiOS_2.6.6/os/ports/common/ARMCMx/CMSIS/include/core_cmInstr.h" 1
 424 006a 1BBA     		rev r3, r3
 425              	@ 0 "" 2
 426              	.LVL63:
 427              		.thumb
 428              	.LBE53:
 429              	.LBE52:
 430              		.loc 1 248 0
 431 006c 08A8     		add	r0, sp, #32
 432              		.loc 1 247 0
 433 006e 0F93     		str	r3, [sp, #60]
 434              		.loc 1 248 0
 435 0070 FFF7FEFF 		bl	CRYP_KeyInit
 436              	.LVL64:
 437              	.LBB54:
 438              	.LBB55:
 439              		.loc 2 369 0
 440 0074 3B68     		ldr	r3, [r7]
 441              	@ 369 "ChibiOS_2.6.6/os/ports/common/ARMCMx/CMSIS/include/core_cmInstr.h" 1
 442 0076 1BBA     		rev r3, r3
 443              	@ 0 "" 2
 444              	.LVL65:
 445              		.thumb
 446              	.LBE55:
 447              	.LBE54:
 448              		.loc 1 251 0
 449 0078 0493     		str	r3, [sp, #16]
 450              	.LVL66:
 451              	.LBB56:
 452              	.LBB57:
 453              		.loc 2 369 0
 454 007a 7B68     		ldr	r3, [r7, #4]
 455              	.LVL67:
ARM GAS  C:\Users\jsyoon\AppData\Local\Temp\ccmtPOmY.s 			page 9


 456              	@ 369 "ChibiOS_2.6.6/os/ports/common/ARMCMx/CMSIS/include/core_cmInstr.h" 1
 457 007c 1BBA     		rev r3, r3
 458              	@ 0 "" 2
 459              	.LVL68:
 460              		.thumb
 461              	.LBE57:
 462              	.LBE56:
 463              		.loc 1 254 0
 464 007e 04A8     		add	r0, sp, #16
 465              	.LVL69:
 466              		.loc 1 253 0
 467 0080 0593     		str	r3, [sp, #20]
 468              		.loc 1 254 0
 469 0082 FFF7FEFF 		bl	CRYP_IVInit
 470              	.LVL70:
 471              		.loc 1 257 0
 472 0086 FFF7FEFF 		bl	CRYP_FIFOFlush
 473              	.LVL71:
 474              		.loc 1 260 0
 475 008a 0120     		movs	r0, #1
 476 008c FFF7FEFF 		bl	CRYP_Cmd
 477              	.LVL72:
 478              		.loc 1 262 0
 479 0090 B8F1000F 		cmp	r8, #0
 480 0094 31D0     		beq	.L25
 481 0096 0027     		movs	r7, #0
 482              	.LVL73:
 483 0098 09F10804 		add	r4, r9, #8
 484 009c 0835     		adds	r5, r5, #8
 485              	.LVL74:
 486              		.loc 1 271 0
 487 009e 3E46     		mov	r6, r7
 488              	.LVL75:
 489              	.L26:
 490              		.loc 1 265 0
 491 00a0 54F8080C 		ldr	r0, [r4, #-8]
 492 00a4 FFF7FEFF 		bl	CRYP_DataIn
 493              	.LVL76:
 494              		.loc 1 267 0
 495 00a8 54F8040C 		ldr	r0, [r4, #-4]
 496 00ac FFF7FEFF 		bl	CRYP_DataIn
 497              	.LVL77:
 498              		.loc 1 271 0
 499 00b0 0196     		str	r6, [sp, #4]
 500 00b2 00E0     		b	.L24
 501              	.LVL78:
 502              	.L31:
 503              		.loc 1 276 0 discriminator 1
 504 00b4 90B1     		cbz	r0, .L23
 505              	.LVL79:
 506              	.L24:
 507              		.loc 1 274 0 discriminator 1
 508 00b6 1020     		movs	r0, #16
 509 00b8 FFF7FEFF 		bl	CRYP_GetFlagStatus
 510              	.LVL80:
 511              		.loc 1 275 0 discriminator 1
 512 00bc 019B     		ldr	r3, [sp, #4]
ARM GAS  C:\Users\jsyoon\AppData\Local\Temp\ccmtPOmY.s 			page 10


 513 00be 0133     		adds	r3, r3, #1
 514 00c0 0193     		str	r3, [sp, #4]
 515              		.loc 1 276 0 discriminator 1
 516 00c2 019B     		ldr	r3, [sp, #4]
 517 00c4 B3F5803F 		cmp	r3, #65536
 518 00c8 F4D1     		bne	.L31
 519              		.loc 1 278 0
 520 00ca 38B1     		cbz	r0, .L23
 521              		.loc 1 280 0
 522 00cc 0024     		movs	r4, #0
 523              	.LVL81:
 524              	.L21:
 525              		.loc 1 294 0
 526 00ce 0020     		movs	r0, #0
 527 00d0 FFF7FEFF 		bl	CRYP_Cmd
 528              	.LVL82:
 529              		.loc 1 297 0
 530 00d4 2046     		mov	r0, r4
 531 00d6 10B0     		add	sp, sp, #64
 532              		@ sp needed
 533 00d8 BDE8F087 		pop	{r4, r5, r6, r7, r8, r9, r10, pc}
 534              	.LVL83:
 535              	.L23:
 536              		.loc 1 286 0
 537 00dc FFF7FEFF 		bl	CRYP_DataOut
 538              	.LVL84:
 539 00e0 45F8080C 		str	r0, [r5, #-8]
 540              	.LVL85:
 541              		.loc 1 288 0
 542 00e4 FFF7FEFF 		bl	CRYP_DataOut
 543              	.LVL86:
 544              		.loc 1 262 0
 545 00e8 0837     		adds	r7, r7, #8
 546              	.LVL87:
 547 00ea 4745     		cmp	r7, r8
 548              		.loc 1 288 0
 549 00ec 45F8040C 		str	r0, [r5, #-4]
 550              	.LVL88:
 551 00f0 04F10804 		add	r4, r4, #8
 552 00f4 05F10805 		add	r5, r5, #8
 553              		.loc 1 262 0
 554 00f8 D2D3     		bcc	.L26
 555              	.LVL89:
 556              	.L25:
 557              		.loc 1 212 0
 558 00fa 0124     		movs	r4, #1
 559 00fc E7E7     		b	.L21
 560              		.cfi_endproc
 561              	.LFE112:
 562              		.size	CRYP_TDES_CBC, .-CRYP_TDES_CBC
 563 00fe 00BF     		.text
 564              	.Letext0:
 565              		.file 3 "c:\\crosstools\\gcc-arm-embedded\\4.8_2014q2\\arm-none-eabi\\include\\machine\\_default_t
 566              		.file 4 "c:\\crosstools\\gcc-arm-embedded\\4.8_2014q2\\arm-none-eabi\\include\\stdint.h"
 567              		.file 5 "ChibiOS_2.6.6/os/hal/platforms/STM32F4xx/stm32f4xx.h"
 568              		.file 6 "ChibiOS_2.6.6/ext/stdperiph_stm32f4/inc/stm32f4xx_cryp.h"
 569              		.file 7 "ChibiOS_2.6.6/os/ports/common/ARMCMx/CMSIS/include/core_cm4.h"
ARM GAS  C:\Users\jsyoon\AppData\Local\Temp\ccmtPOmY.s 			page 11

