ARM GAS  C:\Users\jsyoon\AppData\Local\Temp\ccY935aa.s 			page 1


   1              		.syntax unified
   2              		.cpu cortex-m4
   3              		.eabi_attribute 27, 3
   4              		.eabi_attribute 28, 1
   5              		.fpu fpv4-sp-d16
   6              		.eabi_attribute 20, 1
   7              		.eabi_attribute 21, 1
   8              		.eabi_attribute 23, 3
   9              		.eabi_attribute 24, 1
  10              		.eabi_attribute 25, 1
  11              		.eabi_attribute 26, 1
  12              		.eabi_attribute 30, 2
  13              		.eabi_attribute 34, 1
  14              		.eabi_attribute 18, 4
  15              		.thumb
  16              		.file	"stm32f4xx_rng.c"
  17              		.text
  18              	.Ltext0:
  19              		.cfi_sections	.debug_frame
  20              		.section	.text.RNG_DeInit,"ax",%progbits
  21              		.align	2
  22              		.p2align 4,,15
  23              		.global	RNG_DeInit
  24              		.thumb
  25              		.thumb_func
  26              		.type	RNG_DeInit, %function
  27              	RNG_DeInit:
  28              	.LFB111:
  29              		.file 1 "ChibiOS_2.6.6/ext/stdperiph_stm32f4/src/stm32f4xx_rng.c"
  30              		.loc 1 101 0
  31              		.cfi_startproc
  32              		@ args = 0, pretend = 0, frame = 0
  33              		@ frame_needed = 0, uses_anonymous_args = 0
  34 0000 08B5     		push	{r3, lr}
  35              		.cfi_def_cfa_offset 8
  36              		.cfi_offset 3, -8
  37              		.cfi_offset 14, -4
  38              		.loc 1 103 0
  39 0002 4020     		movs	r0, #64
  40 0004 0121     		movs	r1, #1
  41 0006 FFF7FEFF 		bl	RCC_AHB2PeriphResetCmd
  42              	.LVL0:
  43              		.loc 1 106 0
  44 000a 4020     		movs	r0, #64
  45 000c 0021     		movs	r1, #0
  46              		.loc 1 107 0
  47 000e BDE80840 		pop	{r3, lr}
  48              		.loc 1 106 0
  49 0012 FFF7FEBF 		b	RCC_AHB2PeriphResetCmd
  50              	.LVL1:
  51              		.cfi_endproc
  52              	.LFE111:
  53              		.size	RNG_DeInit, .-RNG_DeInit
  54 0016 00BFAFF3 		.section	.text.RNG_Cmd,"ax",%progbits
  54      0080AFF3 
  54      0080
  55              		.align	2
ARM GAS  C:\Users\jsyoon\AppData\Local\Temp\ccY935aa.s 			page 2


  56              		.p2align 4,,15
  57              		.global	RNG_Cmd
  58              		.thumb
  59              		.thumb_func
  60              		.type	RNG_Cmd, %function
  61              	RNG_Cmd:
  62              	.LFB112:
  63              		.loc 1 116 0
  64              		.cfi_startproc
  65              		@ args = 0, pretend = 0, frame = 0
  66              		@ frame_needed = 0, uses_anonymous_args = 0
  67              		@ link register save eliminated.
  68              	.LVL2:
  69              		.loc 1 123 0
  70 0000 054B     		ldr	r3, .L7
  71 0002 1A68     		ldr	r2, [r3]
  72              		.loc 1 120 0
  73 0004 18B9     		cbnz	r0, .L6
  74              		.loc 1 128 0
  75 0006 22F00402 		bic	r2, r2, #4
  76 000a 1A60     		str	r2, [r3]
  77 000c 7047     		bx	lr
  78              	.L6:
  79              		.loc 1 123 0
  80 000e 42F00402 		orr	r2, r2, #4
  81 0012 1A60     		str	r2, [r3]
  82 0014 7047     		bx	lr
  83              	.L8:
  84 0016 00BF     		.align	2
  85              	.L7:
  86 0018 00080650 		.word	1342572544
  87              		.cfi_endproc
  88              	.LFE112:
  89              		.size	RNG_Cmd, .-RNG_Cmd
  90 001c AFF30080 		.section	.text.RNG_GetRandomNumber,"ax",%progbits
  91              		.align	2
  92              		.p2align 4,,15
  93              		.global	RNG_GetRandomNumber
  94              		.thumb
  95              		.thumb_func
  96              		.type	RNG_GetRandomNumber, %function
  97              	RNG_GetRandomNumber:
  98              	.LFB113:
  99              		.loc 1 178 0
 100              		.cfi_startproc
 101              		@ args = 0, pretend = 0, frame = 0
 102              		@ frame_needed = 0, uses_anonymous_args = 0
 103              		@ link register save eliminated.
 104              		.loc 1 180 0
 105 0000 014B     		ldr	r3, .L10
 106 0002 9868     		ldr	r0, [r3, #8]
 107              		.loc 1 181 0
 108 0004 7047     		bx	lr
 109              	.L11:
 110 0006 00BF     		.align	2
 111              	.L10:
 112 0008 00080650 		.word	1342572544
ARM GAS  C:\Users\jsyoon\AppData\Local\Temp\ccY935aa.s 			page 3


 113              		.cfi_endproc
 114              	.LFE113:
 115              		.size	RNG_GetRandomNumber, .-RNG_GetRandomNumber
 116 000c AFF30080 		.section	.text.RNG_ITConfig,"ax",%progbits
 117              		.align	2
 118              		.p2align 4,,15
 119              		.global	RNG_ITConfig
 120              		.thumb
 121              		.thumb_func
 122              		.type	RNG_ITConfig, %function
 123              	RNG_ITConfig:
 124              	.LFB114:
 125              		.loc 1 275 0
 126              		.cfi_startproc
 127              		@ args = 0, pretend = 0, frame = 0
 128              		@ frame_needed = 0, uses_anonymous_args = 0
 129              		@ link register save eliminated.
 130              	.LVL3:
 131              		.loc 1 282 0
 132 0000 054B     		ldr	r3, .L16
 133 0002 1A68     		ldr	r2, [r3]
 134              		.loc 1 279 0
 135 0004 18B9     		cbnz	r0, .L15
 136              		.loc 1 287 0
 137 0006 22F00802 		bic	r2, r2, #8
 138 000a 1A60     		str	r2, [r3]
 139 000c 7047     		bx	lr
 140              	.L15:
 141              		.loc 1 282 0
 142 000e 42F00802 		orr	r2, r2, #8
 143 0012 1A60     		str	r2, [r3]
 144 0014 7047     		bx	lr
 145              	.L17:
 146 0016 00BF     		.align	2
 147              	.L16:
 148 0018 00080650 		.word	1342572544
 149              		.cfi_endproc
 150              	.LFE114:
 151              		.size	RNG_ITConfig, .-RNG_ITConfig
 152 001c AFF30080 		.section	.text.RNG_GetFlagStatus,"ax",%progbits
 153              		.align	2
 154              		.p2align 4,,15
 155              		.global	RNG_GetFlagStatus
 156              		.thumb
 157              		.thumb_func
 158              		.type	RNG_GetFlagStatus, %function
 159              	RNG_GetFlagStatus:
 160              	.LFB115:
 161              		.loc 1 301 0
 162              		.cfi_startproc
 163              		@ args = 0, pretend = 0, frame = 0
 164              		@ frame_needed = 0, uses_anonymous_args = 0
 165              		@ link register save eliminated.
 166              	.LVL4:
 167              		.loc 1 307 0
 168 0000 034B     		ldr	r3, .L19
 169 0002 5B68     		ldr	r3, [r3, #4]
ARM GAS  C:\Users\jsyoon\AppData\Local\Temp\ccY935aa.s 			page 4


 170              	.LVL5:
 171 0004 1842     		tst	r0, r3
 172              		.loc 1 319 0
 173 0006 0CBF     		ite	eq
 174 0008 0020     		moveq	r0, #0
 175 000a 0120     		movne	r0, #1
 176              	.LVL6:
 177 000c 7047     		bx	lr
 178              	.L20:
 179 000e 00BF     		.align	2
 180              	.L19:
 181 0010 00080650 		.word	1342572544
 182              		.cfi_endproc
 183              	.LFE115:
 184              		.size	RNG_GetFlagStatus, .-RNG_GetFlagStatus
 185 0014 AFF30080 		.section	.text.RNG_ClearFlag,"ax",%progbits
 185      AFF30080 
 185      AFF30080 
 186              		.align	2
 187              		.p2align 4,,15
 188              		.global	RNG_ClearFlag
 189              		.thumb
 190              		.thumb_func
 191              		.type	RNG_ClearFlag, %function
 192              	RNG_ClearFlag:
 193              	.LFB116:
 194              		.loc 1 334 0
 195              		.cfi_startproc
 196              		@ args = 0, pretend = 0, frame = 0
 197              		@ frame_needed = 0, uses_anonymous_args = 0
 198              		@ link register save eliminated.
 199              	.LVL7:
 200              		.loc 1 338 0
 201 0000 024B     		ldr	r3, .L22
 202 0002 6FEA0010 		mvn	r0, r0, lsl #4
 203              	.LVL8:
 204 0006 5860     		str	r0, [r3, #4]
 205 0008 7047     		bx	lr
 206              	.L23:
 207 000a 00BF     		.align	2
 208              	.L22:
 209 000c 00080650 		.word	1342572544
 210              		.cfi_endproc
 211              	.LFE116:
 212              		.size	RNG_ClearFlag, .-RNG_ClearFlag
 213              		.section	.text.RNG_GetITStatus,"ax",%progbits
 214              		.align	2
 215              		.p2align 4,,15
 216              		.global	RNG_GetITStatus
 217              		.thumb
 218              		.thumb_func
 219              		.type	RNG_GetITStatus, %function
 220              	RNG_GetITStatus:
 221              	.LFB117:
 222              		.loc 1 350 0
 223              		.cfi_startproc
 224              		@ args = 0, pretend = 0, frame = 0
ARM GAS  C:\Users\jsyoon\AppData\Local\Temp\ccY935aa.s 			page 5


 225              		@ frame_needed = 0, uses_anonymous_args = 0
 226              		@ link register save eliminated.
 227              	.LVL9:
 228              		.loc 1 356 0
 229 0000 034B     		ldr	r3, .L25
 230 0002 5B68     		ldr	r3, [r3, #4]
 231              	.LVL10:
 232 0004 1842     		tst	r0, r3
 233              		.loc 1 368 0
 234 0006 0CBF     		ite	eq
 235 0008 0020     		moveq	r0, #0
 236 000a 0120     		movne	r0, #1
 237              	.LVL11:
 238 000c 7047     		bx	lr
 239              	.L26:
 240 000e 00BF     		.align	2
 241              	.L25:
 242 0010 00080650 		.word	1342572544
 243              		.cfi_endproc
 244              	.LFE117:
 245              		.size	RNG_GetITStatus, .-RNG_GetITStatus
 246 0014 AFF30080 		.section	.text.RNG_ClearITPendingBit,"ax",%progbits
 246      AFF30080 
 246      AFF30080 
 247              		.align	2
 248              		.p2align 4,,15
 249              		.global	RNG_ClearITPendingBit
 250              		.thumb
 251              		.thumb_func
 252              		.type	RNG_ClearITPendingBit, %function
 253              	RNG_ClearITPendingBit:
 254              	.LFB118:
 255              		.loc 1 380 0
 256              		.cfi_startproc
 257              		@ args = 0, pretend = 0, frame = 0
 258              		@ frame_needed = 0, uses_anonymous_args = 0
 259              		@ link register save eliminated.
 260              	.LVL12:
 261              		.loc 1 385 0
 262 0000 C043     		mvns	r0, r0
 263              	.LVL13:
 264 0002 024B     		ldr	r3, .L28
 265 0004 C0B2     		uxtb	r0, r0
 266 0006 5860     		str	r0, [r3, #4]
 267 0008 7047     		bx	lr
 268              	.L29:
 269 000a 00BF     		.align	2
 270              	.L28:
 271 000c 00080650 		.word	1342572544
 272              		.cfi_endproc
 273              	.LFE118:
 274              		.size	RNG_ClearITPendingBit, .-RNG_ClearITPendingBit
 275              		.text
 276              	.Letext0:
 277              		.file 2 "c:\\crosstools\\gcc-arm-embedded\\4.8_2014q2\\arm-none-eabi\\include\\machine\\_default_t
 278              		.file 3 "c:\\crosstools\\gcc-arm-embedded\\4.8_2014q2\\arm-none-eabi\\include\\stdint.h"
 279              		.file 4 "ChibiOS_2.6.6/os/hal/platforms/STM32F4xx/stm32f4xx.h"
ARM GAS  C:\Users\jsyoon\AppData\Local\Temp\ccY935aa.s 			page 6


 280              		.file 5 "ChibiOS_2.6.6/os/ports/common/ARMCMx/CMSIS/include/core_cm4.h"
 281              		.file 6 "ChibiOS_2.6.6/ext/stdperiph_stm32f4/inc/stm32f4xx_rcc.h"