ARM GAS  C:\Users\jsyoon\AppData\Local\Temp\ccCYiPrk.s 			page 1


   1              		.syntax unified
   2              		.cpu cortex-m4
   3              		.eabi_attribute 27, 3
   4              		.eabi_attribute 28, 1
   5              		.fpu fpv4-sp-d16
   6              		.eabi_attribute 20, 1
   7              		.eabi_attribute 21, 1
   8              		.eabi_attribute 23, 3
   9              		.eabi_attribute 24, 1
  10              		.eabi_attribute 25, 1
  11              		.eabi_attribute 26, 1
  12              		.eabi_attribute 30, 2
  13              		.eabi_attribute 34, 1
  14              		.eabi_attribute 18, 4
  15              		.thumb
  16              		.file	"stm32f4xx_cryp.c"
  17              		.text
  18              	.Ltext0:
  19              		.cfi_sections	.debug_frame
  20              		.section	.text.CRYP_DeInit,"ax",%progbits
  21              		.align	2
  22              		.p2align 4,,15
  23              		.global	CRYP_DeInit
  24              		.thumb
  25              		.thumb_func
  26              		.type	CRYP_DeInit, %function
  27              	CRYP_DeInit:
  28              	.LFB111:
  29              		.file 1 "ChibiOS_2.6.6/ext/stdperiph_stm32f4/src/stm32f4xx_cryp.c"
  30              		.loc 1 222 0
  31              		.cfi_startproc
  32              		@ args = 0, pretend = 0, frame = 0
  33              		@ frame_needed = 0, uses_anonymous_args = 0
  34 0000 08B5     		push	{r3, lr}
  35              		.cfi_def_cfa_offset 8
  36              		.cfi_offset 3, -8
  37              		.cfi_offset 14, -4
  38              		.loc 1 224 0
  39 0002 1020     		movs	r0, #16
  40 0004 0121     		movs	r1, #1
  41 0006 FFF7FEFF 		bl	RCC_AHB2PeriphResetCmd
  42              	.LVL0:
  43              		.loc 1 227 0
  44 000a 1020     		movs	r0, #16
  45 000c 0021     		movs	r1, #0
  46              		.loc 1 228 0
  47 000e BDE80840 		pop	{r3, lr}
  48              		.loc 1 227 0
  49 0012 FFF7FEBF 		b	RCC_AHB2PeriphResetCmd
  50              	.LVL1:
  51              		.cfi_endproc
  52              	.LFE111:
  53              		.size	CRYP_DeInit, .-CRYP_DeInit
  54 0016 00BFAFF3 		.section	.text.CRYP_Init,"ax",%progbits
  54      0080AFF3 
  54      0080
  55              		.align	2
ARM GAS  C:\Users\jsyoon\AppData\Local\Temp\ccCYiPrk.s 			page 2


  56              		.p2align 4,,15
  57              		.global	CRYP_Init
  58              		.thumb
  59              		.thumb_func
  60              		.type	CRYP_Init, %function
  61              	CRYP_Init:
  62              	.LFB112:
  63              		.loc 1 238 0
  64              		.cfi_startproc
  65              		@ args = 0, pretend = 0, frame = 0
  66              		@ frame_needed = 0, uses_anonymous_args = 0
  67              		@ link register save eliminated.
  68              	.LVL2:
  69              		.loc 1 245 0
  70 0000 154B     		ldr	r3, .L5
  71 0002 1A68     		ldr	r2, [r3]
  72 0004 22F40022 		bic	r2, r2, #524288
  73 0008 22F03802 		bic	r2, r2, #56
  74              		.loc 1 238 0
  75 000c 10B4     		push	{r4}
  76              		.cfi_def_cfa_offset 4
  77              		.cfi_offset 4, -4
  78              		.loc 1 245 0
  79 000e 1A60     		str	r2, [r3]
  80              		.loc 1 246 0
  81 0010 1968     		ldr	r1, [r3]
  82 0012 4288     		ldrh	r2, [r0, #2]
  83              		.loc 1 250 0
  84 0014 8488     		ldrh	r4, [r0, #4]
  85              		.loc 1 246 0
  86 0016 1143     		orrs	r1, r1, r2
  87 0018 1960     		str	r1, [r3]
  88              		.loc 1 249 0
  89 001a 1968     		ldr	r1, [r3]
  90 001c 21F0C001 		bic	r1, r1, #192
  91 0020 1960     		str	r1, [r3]
  92              		.loc 1 250 0
  93 0022 1968     		ldr	r1, [r3]
  94              		.loc 1 253 0
  95 0024 22F01802 		bic	r2, r2, #24
  96              		.loc 1 250 0
  97 0028 2143     		orrs	r1, r1, r4
  98              		.loc 1 253 0
  99 002a 202A     		cmp	r2, #32
 100              		.loc 1 250 0
 101 002c 1960     		str	r1, [r3]
 102              		.loc 1 253 0
 103 002e 07D1     		bne	.L3
 104              		.loc 1 259 0
 105 0030 1A68     		ldr	r2, [r3]
 106              		.loc 1 260 0
 107 0032 C188     		ldrh	r1, [r0, #6]
 108              		.loc 1 259 0
 109 0034 22F44072 		bic	r2, r2, #768
 110 0038 1A60     		str	r2, [r3]
 111              		.loc 1 260 0
 112 003a 1A68     		ldr	r2, [r3]
ARM GAS  C:\Users\jsyoon\AppData\Local\Temp\ccCYiPrk.s 			page 3


 113 003c 0A43     		orrs	r2, r2, r1
 114 003e 1A60     		str	r2, [r3]
 115              	.L3:
 116              		.loc 1 266 0
 117 0040 054B     		ldr	r3, .L5
 118              		.loc 1 267 0
 119 0042 0188     		ldrh	r1, [r0]
 120              		.loc 1 266 0
 121 0044 1A68     		ldr	r2, [r3]
 122              		.loc 1 268 0
 123 0046 5DF8044B 		ldr	r4, [sp], #4
 124              		.loc 1 266 0
 125 004a 22F00402 		bic	r2, r2, #4
 126 004e 1A60     		str	r2, [r3]
 127              		.loc 1 267 0
 128 0050 1A68     		ldr	r2, [r3]
 129 0052 0A43     		orrs	r2, r2, r1
 130 0054 1A60     		str	r2, [r3]
 131              		.loc 1 268 0
 132 0056 7047     		bx	lr
 133              	.L6:
 134              		.align	2
 135              	.L5:
 136 0058 00000650 		.word	1342570496
 137              		.cfi_endproc
 138              	.LFE112:
 139              		.size	CRYP_Init, .-CRYP_Init
 140 005c AFF30080 		.section	.text.CRYP_StructInit,"ax",%progbits
 141              		.align	2
 142              		.p2align 4,,15
 143              		.global	CRYP_StructInit
 144              		.thumb
 145              		.thumb_func
 146              		.type	CRYP_StructInit, %function
 147              	CRYP_StructInit:
 148              	.LFB113:
 149              		.loc 1 277 0
 150              		.cfi_startproc
 151              		@ args = 0, pretend = 0, frame = 0
 152              		@ frame_needed = 0, uses_anonymous_args = 0
 153              		@ link register save eliminated.
 154              	.LVL3:
 155              		.loc 1 279 0
 156 0000 0023     		movs	r3, #0
 157 0002 0380     		strh	r3, [r0]	@ movhi
 158              		.loc 1 282 0
 159 0004 4380     		strh	r3, [r0, #2]	@ movhi
 160              		.loc 1 285 0
 161 0006 8380     		strh	r3, [r0, #4]	@ movhi
 162              		.loc 1 288 0
 163 0008 C380     		strh	r3, [r0, #6]	@ movhi
 164 000a 7047     		bx	lr
 165              		.cfi_endproc
 166              	.LFE113:
 167              		.size	CRYP_StructInit, .-CRYP_StructInit
 168 000c AFF30080 		.section	.text.CRYP_KeyInit,"ax",%progbits
 169              		.align	2
ARM GAS  C:\Users\jsyoon\AppData\Local\Temp\ccCYiPrk.s 			page 4


 170              		.p2align 4,,15
 171              		.global	CRYP_KeyInit
 172              		.thumb
 173              		.thumb_func
 174              		.type	CRYP_KeyInit, %function
 175              	CRYP_KeyInit:
 176              	.LFB114:
 177              		.loc 1 299 0
 178              		.cfi_startproc
 179              		@ args = 0, pretend = 0, frame = 0
 180              		@ frame_needed = 0, uses_anonymous_args = 0
 181              		@ link register save eliminated.
 182              	.LVL4:
 183              		.loc 1 301 0
 184 0000 084B     		ldr	r3, .L9
 185 0002 0268     		ldr	r2, [r0]
 186 0004 1A62     		str	r2, [r3, #32]
 187              		.loc 1 302 0
 188 0006 4268     		ldr	r2, [r0, #4]
 189 0008 5A62     		str	r2, [r3, #36]
 190              		.loc 1 303 0
 191 000a 8268     		ldr	r2, [r0, #8]
 192 000c 9A62     		str	r2, [r3, #40]
 193              		.loc 1 304 0
 194 000e C268     		ldr	r2, [r0, #12]
 195 0010 DA62     		str	r2, [r3, #44]
 196              		.loc 1 305 0
 197 0012 0269     		ldr	r2, [r0, #16]
 198 0014 1A63     		str	r2, [r3, #48]
 199              		.loc 1 306 0
 200 0016 4269     		ldr	r2, [r0, #20]
 201 0018 5A63     		str	r2, [r3, #52]
 202              		.loc 1 307 0
 203 001a 8269     		ldr	r2, [r0, #24]
 204 001c 9A63     		str	r2, [r3, #56]
 205              		.loc 1 308 0
 206 001e C269     		ldr	r2, [r0, #28]
 207 0020 DA63     		str	r2, [r3, #60]
 208 0022 7047     		bx	lr
 209              	.L10:
 210              		.align	2
 211              	.L9:
 212 0024 00000650 		.word	1342570496
 213              		.cfi_endproc
 214              	.LFE114:
 215              		.size	CRYP_KeyInit, .-CRYP_KeyInit
 216 0028 AFF30080 		.section	.text.CRYP_KeyStructInit,"ax",%progbits
 216      AFF30080 
 217              		.align	2
 218              		.p2align 4,,15
 219              		.global	CRYP_KeyStructInit
 220              		.thumb
 221              		.thumb_func
 222              		.type	CRYP_KeyStructInit, %function
 223              	CRYP_KeyStructInit:
 224              	.LFB115:
 225              		.loc 1 318 0
ARM GAS  C:\Users\jsyoon\AppData\Local\Temp\ccCYiPrk.s 			page 5


 226              		.cfi_startproc
 227              		@ args = 0, pretend = 0, frame = 0
 228              		@ frame_needed = 0, uses_anonymous_args = 0
 229              		@ link register save eliminated.
 230              	.LVL5:
 231              		.loc 1 319 0
 232 0000 0023     		movs	r3, #0
 233 0002 0360     		str	r3, [r0]
 234              		.loc 1 320 0
 235 0004 4360     		str	r3, [r0, #4]
 236              		.loc 1 321 0
 237 0006 8360     		str	r3, [r0, #8]
 238              		.loc 1 322 0
 239 0008 C360     		str	r3, [r0, #12]
 240              		.loc 1 323 0
 241 000a 0361     		str	r3, [r0, #16]
 242              		.loc 1 324 0
 243 000c 4361     		str	r3, [r0, #20]
 244              		.loc 1 325 0
 245 000e 8361     		str	r3, [r0, #24]
 246              		.loc 1 326 0
 247 0010 C361     		str	r3, [r0, #28]
 248 0012 7047     		bx	lr
 249              		.cfi_endproc
 250              	.LFE115:
 251              		.size	CRYP_KeyStructInit, .-CRYP_KeyStructInit
 252 0014 AFF30080 		.section	.text.CRYP_IVInit,"ax",%progbits
 252      AFF30080 
 252      AFF30080 
 253              		.align	2
 254              		.p2align 4,,15
 255              		.global	CRYP_IVInit
 256              		.thumb
 257              		.thumb_func
 258              		.type	CRYP_IVInit, %function
 259              	CRYP_IVInit:
 260              	.LFB116:
 261              		.loc 1 336 0
 262              		.cfi_startproc
 263              		@ args = 0, pretend = 0, frame = 0
 264              		@ frame_needed = 0, uses_anonymous_args = 0
 265              		@ link register save eliminated.
 266              	.LVL6:
 267              		.loc 1 337 0
 268 0000 044B     		ldr	r3, .L13
 269 0002 0268     		ldr	r2, [r0]
 270 0004 1A64     		str	r2, [r3, #64]
 271              		.loc 1 338 0
 272 0006 4268     		ldr	r2, [r0, #4]
 273 0008 5A64     		str	r2, [r3, #68]
 274              		.loc 1 339 0
 275 000a 8268     		ldr	r2, [r0, #8]
 276 000c 9A64     		str	r2, [r3, #72]
 277              		.loc 1 340 0
 278 000e C268     		ldr	r2, [r0, #12]
 279 0010 DA64     		str	r2, [r3, #76]
 280 0012 7047     		bx	lr
ARM GAS  C:\Users\jsyoon\AppData\Local\Temp\ccCYiPrk.s 			page 6


 281              	.L14:
 282              		.align	2
 283              	.L13:
 284 0014 00000650 		.word	1342570496
 285              		.cfi_endproc
 286              	.LFE116:
 287              		.size	CRYP_IVInit, .-CRYP_IVInit
 288 0018 AFF30080 		.section	.text.CRYP_IVStructInit,"ax",%progbits
 288      AFF30080 
 289              		.align	2
 290              		.p2align 4,,15
 291              		.global	CRYP_IVStructInit
 292              		.thumb
 293              		.thumb_func
 294              		.type	CRYP_IVStructInit, %function
 295              	CRYP_IVStructInit:
 296              	.LFB117:
 297              		.loc 1 350 0
 298              		.cfi_startproc
 299              		@ args = 0, pretend = 0, frame = 0
 300              		@ frame_needed = 0, uses_anonymous_args = 0
 301              		@ link register save eliminated.
 302              	.LVL7:
 303              		.loc 1 351 0
 304 0000 0023     		movs	r3, #0
 305 0002 0360     		str	r3, [r0]
 306              		.loc 1 352 0
 307 0004 4360     		str	r3, [r0, #4]
 308              		.loc 1 353 0
 309 0006 8360     		str	r3, [r0, #8]
 310              		.loc 1 354 0
 311 0008 C360     		str	r3, [r0, #12]
 312 000a 7047     		bx	lr
 313              		.cfi_endproc
 314              	.LFE117:
 315              		.size	CRYP_IVStructInit, .-CRYP_IVStructInit
 316 000c AFF30080 		.section	.text.CRYP_FIFOFlush,"ax",%progbits
 317              		.align	2
 318              		.p2align 4,,15
 319              		.global	CRYP_FIFOFlush
 320              		.thumb
 321              		.thumb_func
 322              		.type	CRYP_FIFOFlush, %function
 323              	CRYP_FIFOFlush:
 324              	.LFB118:
 325              		.loc 1 365 0
 326              		.cfi_startproc
 327              		@ args = 0, pretend = 0, frame = 0
 328              		@ frame_needed = 0, uses_anonymous_args = 0
 329              		@ link register save eliminated.
 330              		.loc 1 367 0
 331 0000 024B     		ldr	r3, .L17
 332 0002 1A68     		ldr	r2, [r3]
 333 0004 42F48042 		orr	r2, r2, #16384
 334 0008 1A60     		str	r2, [r3]
 335 000a 7047     		bx	lr
 336              	.L18:
ARM GAS  C:\Users\jsyoon\AppData\Local\Temp\ccCYiPrk.s 			page 7


 337              		.align	2
 338              	.L17:
 339 000c 00000650 		.word	1342570496
 340              		.cfi_endproc
 341              	.LFE118:
 342              		.size	CRYP_FIFOFlush, .-CRYP_FIFOFlush
 343              		.section	.text.CRYP_Cmd,"ax",%progbits
 344              		.align	2
 345              		.p2align 4,,15
 346              		.global	CRYP_Cmd
 347              		.thumb
 348              		.thumb_func
 349              		.type	CRYP_Cmd, %function
 350              	CRYP_Cmd:
 351              	.LFB119:
 352              		.loc 1 377 0
 353              		.cfi_startproc
 354              		@ args = 0, pretend = 0, frame = 0
 355              		@ frame_needed = 0, uses_anonymous_args = 0
 356              		@ link register save eliminated.
 357              	.LVL8:
 358              		.loc 1 384 0
 359 0000 054B     		ldr	r3, .L23
 360 0002 1A68     		ldr	r2, [r3]
 361              		.loc 1 381 0
 362 0004 18B9     		cbnz	r0, .L22
 363              		.loc 1 389 0
 364 0006 22F40042 		bic	r2, r2, #32768
 365 000a 1A60     		str	r2, [r3]
 366 000c 7047     		bx	lr
 367              	.L22:
 368              		.loc 1 384 0
 369 000e 42F40042 		orr	r2, r2, #32768
 370 0012 1A60     		str	r2, [r3]
 371 0014 7047     		bx	lr
 372              	.L24:
 373 0016 00BF     		.align	2
 374              	.L23:
 375 0018 00000650 		.word	1342570496
 376              		.cfi_endproc
 377              	.LFE119:
 378              		.size	CRYP_Cmd, .-CRYP_Cmd
 379 001c AFF30080 		.section	.text.CRYP_DataIn,"ax",%progbits
 380              		.align	2
 381              		.p2align 4,,15
 382              		.global	CRYP_DataIn
 383              		.thumb
 384              		.thumb_func
 385              		.type	CRYP_DataIn, %function
 386              	CRYP_DataIn:
 387              	.LFB120:
 388              		.loc 1 420 0
 389              		.cfi_startproc
 390              		@ args = 0, pretend = 0, frame = 0
 391              		@ frame_needed = 0, uses_anonymous_args = 0
 392              		@ link register save eliminated.
 393              	.LVL9:
ARM GAS  C:\Users\jsyoon\AppData\Local\Temp\ccCYiPrk.s 			page 8


 394              		.loc 1 421 0
 395 0000 014B     		ldr	r3, .L26
 396 0002 9860     		str	r0, [r3, #8]
 397 0004 7047     		bx	lr
 398              	.L27:
 399 0006 00BF     		.align	2
 400              	.L26:
 401 0008 00000650 		.word	1342570496
 402              		.cfi_endproc
 403              	.LFE120:
 404              		.size	CRYP_DataIn, .-CRYP_DataIn
 405 000c AFF30080 		.section	.text.CRYP_DataOut,"ax",%progbits
 406              		.align	2
 407              		.p2align 4,,15
 408              		.global	CRYP_DataOut
 409              		.thumb
 410              		.thumb_func
 411              		.type	CRYP_DataOut, %function
 412              	CRYP_DataOut:
 413              	.LFB121:
 414              		.loc 1 430 0
 415              		.cfi_startproc
 416              		@ args = 0, pretend = 0, frame = 0
 417              		@ frame_needed = 0, uses_anonymous_args = 0
 418              		@ link register save eliminated.
 419              		.loc 1 431 0
 420 0000 014B     		ldr	r3, .L29
 421 0002 D868     		ldr	r0, [r3, #12]
 422              		.loc 1 432 0
 423 0004 7047     		bx	lr
 424              	.L30:
 425 0006 00BF     		.align	2
 426              	.L29:
 427 0008 00000650 		.word	1342570496
 428              		.cfi_endproc
 429              	.LFE121:
 430              		.size	CRYP_DataOut, .-CRYP_DataOut
 431 000c AFF30080 		.section	.text.CRYP_SaveContext,"ax",%progbits
 432              		.align	2
 433              		.p2align 4,,15
 434              		.global	CRYP_SaveContext
 435              		.thumb
 436              		.thumb_func
 437              		.type	CRYP_SaveContext, %function
 438              	CRYP_SaveContext:
 439              	.LFB122:
 440              		.loc 1 474 0
 441              		.cfi_startproc
 442              		@ args = 0, pretend = 0, frame = 8
 443              		@ frame_needed = 0, uses_anonymous_args = 0
 444              		@ link register save eliminated.
 445              	.LVL10:
 446 0000 2DE9F00F 		push	{r4, r5, r6, r7, r8, r9, r10, fp}
 447              		.cfi_def_cfa_offset 32
 448              		.cfi_offset 4, -32
 449              		.cfi_offset 5, -28
 450              		.cfi_offset 6, -24
ARM GAS  C:\Users\jsyoon\AppData\Local\Temp\ccCYiPrk.s 			page 9


 451              		.cfi_offset 7, -20
 452              		.cfi_offset 8, -16
 453              		.cfi_offset 9, -12
 454              		.cfi_offset 10, -8
 455              		.cfi_offset 11, -4
 456 0004 82B0     		sub	sp, sp, #8
 457              		.cfi_def_cfa_offset 40
 458              		.loc 1 480 0
 459 0006 2D4E     		ldr	r6, .L43
 460              		.loc 1 475 0
 461 0008 0023     		movs	r3, #0
 462 000a 0193     		str	r3, [sp, #4]
 463              	.LVL11:
 464              		.loc 1 480 0
 465 000c 3369     		ldr	r3, [r6, #16]
 466 000e 23F00103 		bic	r3, r3, #1
 467 0012 3361     		str	r3, [r6, #16]
 468              		.loc 1 486 0
 469 0014 3368     		ldr	r3, [r6]
 470              		.loc 1 488 0
 471 0016 13F0080F 		tst	r3, #8
 472              		.loc 1 474 0
 473 001a 0C46     		mov	r4, r1
 474 001c 0346     		mov	r3, r0
 475              		.loc 1 500 0
 476 001e 4FF6FF75 		movw	r5, #65535
 477              		.loc 1 488 0
 478 0022 0CBF     		ite	eq
 479 0024 1520     		moveq	r0, #21
 480 0026 1120     		movne	r0, #17
 481              	.LVL12:
 482 0028 01E0     		b	.L34
 483              	.LVL13:
 484              	.L41:
 485              		.loc 1 500 0 discriminator 1
 486 002a 0129     		cmp	r1, #1
 487 002c 08D0     		beq	.L33
 488              	.LVL14:
 489              	.L34:
 490              		.loc 1 497 0 discriminator 1
 491 002e 7168     		ldr	r1, [r6, #4]
 492              		.loc 1 498 0 discriminator 1
 493 0030 019A     		ldr	r2, [sp, #4]
 494 0032 0132     		adds	r2, r2, #1
 495 0034 0192     		str	r2, [sp, #4]
 496              		.loc 1 500 0 discriminator 1
 497 0036 019A     		ldr	r2, [sp, #4]
 498 0038 AA42     		cmp	r2, r5
 499              		.loc 1 497 0 discriminator 1
 500 003a 00EA0101 		and	r1, r0, r1
 501              	.LVL15:
 502              		.loc 1 500 0 discriminator 1
 503 003e F4D1     		bne	.L41
 504              	.L33:
 505              		.loc 1 502 0
 506 0040 1E4A     		ldr	r2, .L43
 507 0042 5168     		ldr	r1, [r2, #4]
ARM GAS  C:\Users\jsyoon\AppData\Local\Temp\ccCYiPrk.s 			page 10


 508              	.LVL16:
 509 0044 0840     		ands	r0, r0, r1
 510              	.LVL17:
 511 0046 0128     		cmp	r0, #1
 512 0048 04D0     		beq	.L42
 513              		.loc 1 504 0
 514 004a 0020     		movs	r0, #0
 515              	.LVL18:
 516              		.loc 1 544 0
 517 004c 02B0     		add	sp, sp, #8
 518              		@ sp needed
 519 004e BDE8F00F 		pop	{r4, r5, r6, r7, r8, r9, r10, fp}
 520              	.LVL19:
 521 0052 7047     		bx	lr
 522              	.LVL20:
 523              	.L42:
 524              		.loc 1 512 0
 525 0054 1169     		ldr	r1, [r2, #16]
 526              		.loc 1 516 0
 527 0056 DFF868B0 		ldr	fp, .L43+4
 528              		.loc 1 512 0
 529 005a 21F00201 		bic	r1, r1, #2
 530 005e 1161     		str	r1, [r2, #16]
 531              		.loc 1 513 0
 532 0060 1168     		ldr	r1, [r2]
 533 0062 21F40041 		bic	r1, r1, #32768
 534 0066 1160     		str	r1, [r2]
 535              		.loc 1 516 0
 536 0068 1168     		ldr	r1, [r2]
 537              		.loc 1 528 0
 538 006a D4F800A0 		ldr	r10, [r4]
 539              		.loc 1 529 0
 540 006e D4F80490 		ldr	r9, [r4, #4]
 541              		.loc 1 530 0
 542 0072 D4F80880 		ldr	r8, [r4, #8]
 543              		.loc 1 531 0
 544 0076 D4F80CC0 		ldr	ip, [r4, #12]
 545              		.loc 1 532 0
 546 007a 2769     		ldr	r7, [r4, #16]
 547              		.loc 1 533 0
 548 007c 6669     		ldr	r6, [r4, #20]
 549              		.loc 1 534 0
 550 007e A569     		ldr	r5, [r4, #24]
 551              		.loc 1 535 0
 552 0080 E469     		ldr	r4, [r4, #28]
 553              	.LVL21:
 554              		.loc 1 516 0
 555 0082 01EA0B0B 		and	fp, r1, fp
 556 0086 C3F800B0 		str	fp, [r3]
 557              		.loc 1 522 0
 558 008a 116C     		ldr	r1, [r2, #64]
 559 008c 5960     		str	r1, [r3, #4]
 560              		.loc 1 523 0
 561 008e 516C     		ldr	r1, [r2, #68]
 562 0090 9960     		str	r1, [r3, #8]
 563              		.loc 1 524 0
 564 0092 916C     		ldr	r1, [r2, #72]
ARM GAS  C:\Users\jsyoon\AppData\Local\Temp\ccCYiPrk.s 			page 11


 565 0094 D960     		str	r1, [r3, #12]
 566              		.loc 1 525 0
 567 0096 D26C     		ldr	r2, [r2, #76]
 568 0098 1A61     		str	r2, [r3, #16]
 569              		.loc 1 528 0
 570 009a C3F814A0 		str	r10, [r3, #20]
 571              		.loc 1 529 0
 572 009e C3F81890 		str	r9, [r3, #24]
 573              		.loc 1 530 0
 574 00a2 C3F81C80 		str	r8, [r3, #28]
 575              		.loc 1 531 0
 576 00a6 C3F820C0 		str	ip, [r3, #32]
 577              		.loc 1 532 0
 578 00aa 5F62     		str	r7, [r3, #36]
 579              		.loc 1 533 0
 580 00ac 9E62     		str	r6, [r3, #40]
 581              		.loc 1 534 0
 582 00ae DD62     		str	r5, [r3, #44]
 583              		.loc 1 535 0
 584 00b0 1C63     		str	r4, [r3, #48]
 585              	.LVL22:
 586              		.loc 1 544 0
 587 00b2 02B0     		add	sp, sp, #8
 588              		@ sp needed
 589 00b4 BDE8F00F 		pop	{r4, r5, r6, r7, r8, r9, r10, fp}
 590 00b8 7047     		bx	lr
 591              	.L44:
 592 00ba 00BF     		.align	2
 593              	.L43:
 594 00bc 00000650 		.word	1342570496
 595 00c0 FC030800 		.word	525308
 596              		.cfi_endproc
 597              	.LFE122:
 598              		.size	CRYP_SaveContext, .-CRYP_SaveContext
 599 00c4 AFF30080 		.section	.text.CRYP_RestoreContext,"ax",%progbits
 599      AFF30080 
 599      AFF30080 
 600              		.align	2
 601              		.p2align 4,,15
 602              		.global	CRYP_RestoreContext
 603              		.thumb
 604              		.thumb_func
 605              		.type	CRYP_RestoreContext, %function
 606              	CRYP_RestoreContext:
 607              	.LFB123:
 608              		.loc 1 558 0
 609              		.cfi_startproc
 610              		@ args = 0, pretend = 0, frame = 0
 611              		@ frame_needed = 0, uses_anonymous_args = 0
 612              		@ link register save eliminated.
 613              	.LVL23:
 614              		.loc 1 561 0
 615 0000 0F4B     		ldr	r3, .L46
 616 0002 0268     		ldr	r2, [r0]
 617 0004 1A60     		str	r2, [r3]
 618              		.loc 1 564 0
 619 0006 4269     		ldr	r2, [r0, #20]
ARM GAS  C:\Users\jsyoon\AppData\Local\Temp\ccCYiPrk.s 			page 12


 620 0008 1A62     		str	r2, [r3, #32]
 621              		.loc 1 565 0
 622 000a 8269     		ldr	r2, [r0, #24]
 623 000c 5A62     		str	r2, [r3, #36]
 624              		.loc 1 566 0
 625 000e C269     		ldr	r2, [r0, #28]
 626 0010 9A62     		str	r2, [r3, #40]
 627              		.loc 1 567 0
 628 0012 026A     		ldr	r2, [r0, #32]
 629 0014 DA62     		str	r2, [r3, #44]
 630              		.loc 1 568 0
 631 0016 426A     		ldr	r2, [r0, #36]
 632 0018 1A63     		str	r2, [r3, #48]
 633              		.loc 1 569 0
 634 001a 826A     		ldr	r2, [r0, #40]
 635 001c 5A63     		str	r2, [r3, #52]
 636              		.loc 1 570 0
 637 001e C26A     		ldr	r2, [r0, #44]
 638 0020 9A63     		str	r2, [r3, #56]
 639              		.loc 1 571 0
 640 0022 026B     		ldr	r2, [r0, #48]
 641 0024 DA63     		str	r2, [r3, #60]
 642              		.loc 1 574 0
 643 0026 4268     		ldr	r2, [r0, #4]
 644 0028 1A64     		str	r2, [r3, #64]
 645              		.loc 1 575 0
 646 002a 8268     		ldr	r2, [r0, #8]
 647 002c 5A64     		str	r2, [r3, #68]
 648              		.loc 1 576 0
 649 002e C268     		ldr	r2, [r0, #12]
 650 0030 9A64     		str	r2, [r3, #72]
 651              		.loc 1 577 0
 652 0032 0269     		ldr	r2, [r0, #16]
 653 0034 DA64     		str	r2, [r3, #76]
 654              		.loc 1 580 0
 655 0036 1A68     		ldr	r2, [r3]
 656 0038 42F40042 		orr	r2, r2, #32768
 657 003c 1A60     		str	r2, [r3]
 658 003e 7047     		bx	lr
 659              	.L47:
 660              		.align	2
 661              	.L46:
 662 0040 00000650 		.word	1342570496
 663              		.cfi_endproc
 664              	.LFE123:
 665              		.size	CRYP_RestoreContext, .-CRYP_RestoreContext
 666 0044 AFF30080 		.section	.text.CRYP_DMACmd,"ax",%progbits
 666      AFF30080 
 666      AFF30080 
 667              		.align	2
 668              		.p2align 4,,15
 669              		.global	CRYP_DMACmd
 670              		.thumb
 671              		.thumb_func
 672              		.type	CRYP_DMACmd, %function
 673              	CRYP_DMACmd:
 674              	.LFB124:
ARM GAS  C:\Users\jsyoon\AppData\Local\Temp\ccCYiPrk.s 			page 13


 675              		.loc 1 619 0
 676              		.cfi_startproc
 677              		@ args = 0, pretend = 0, frame = 0
 678              		@ frame_needed = 0, uses_anonymous_args = 0
 679              		@ link register save eliminated.
 680              	.LVL24:
 681              		.loc 1 627 0
 682 0000 054B     		ldr	r3, .L52
 683 0002 1A69     		ldr	r2, [r3, #16]
 684              		.loc 1 624 0
 685 0004 29B9     		cbnz	r1, .L51
 686              		.loc 1 632 0
 687 0006 22EA0000 		bic	r0, r2, r0
 688              	.LVL25:
 689 000a 00F0FF00 		and	r0, r0, #255
 690 000e 1861     		str	r0, [r3, #16]
 691 0010 7047     		bx	lr
 692              	.LVL26:
 693              	.L51:
 694              		.loc 1 627 0
 695 0012 1043     		orrs	r0, r0, r2
 696              	.LVL27:
 697 0014 1861     		str	r0, [r3, #16]
 698 0016 7047     		bx	lr
 699              	.L53:
 700              		.align	2
 701              	.L52:
 702 0018 00000650 		.word	1342570496
 703              		.cfi_endproc
 704              	.LFE124:
 705              		.size	CRYP_DMACmd, .-CRYP_DMACmd
 706 001c AFF30080 		.section	.text.CRYP_ITConfig,"ax",%progbits
 707              		.align	2
 708              		.p2align 4,,15
 709              		.global	CRYP_ITConfig
 710              		.thumb
 711              		.thumb_func
 712              		.type	CRYP_ITConfig, %function
 713              	CRYP_ITConfig:
 714              	.LFB125:
 715              		.loc 1 744 0
 716              		.cfi_startproc
 717              		@ args = 0, pretend = 0, frame = 0
 718              		@ frame_needed = 0, uses_anonymous_args = 0
 719              		@ link register save eliminated.
 720              	.LVL28:
 721              		.loc 1 752 0
 722 0000 054B     		ldr	r3, .L58
 723 0002 5A69     		ldr	r2, [r3, #20]
 724              		.loc 1 749 0
 725 0004 29B9     		cbnz	r1, .L57
 726              		.loc 1 757 0
 727 0006 22EA0000 		bic	r0, r2, r0
 728              	.LVL29:
 729 000a 00F0FF00 		and	r0, r0, #255
 730 000e 5861     		str	r0, [r3, #20]
 731 0010 7047     		bx	lr
ARM GAS  C:\Users\jsyoon\AppData\Local\Temp\ccCYiPrk.s 			page 14


 732              	.LVL30:
 733              	.L57:
 734              		.loc 1 752 0
 735 0012 1043     		orrs	r0, r0, r2
 736              	.LVL31:
 737 0014 5861     		str	r0, [r3, #20]
 738 0016 7047     		bx	lr
 739              	.L59:
 740              		.align	2
 741              	.L58:
 742 0018 00000650 		.word	1342570496
 743              		.cfi_endproc
 744              	.LFE125:
 745              		.size	CRYP_ITConfig, .-CRYP_ITConfig
 746 001c AFF30080 		.section	.text.CRYP_GetITStatus,"ax",%progbits
 747              		.align	2
 748              		.p2align 4,,15
 749              		.global	CRYP_GetITStatus
 750              		.thumb
 751              		.thumb_func
 752              		.type	CRYP_GetITStatus, %function
 753              	CRYP_GetITStatus:
 754              	.LFB126:
 755              		.loc 1 772 0
 756              		.cfi_startproc
 757              		@ args = 0, pretend = 0, frame = 0
 758              		@ frame_needed = 0, uses_anonymous_args = 0
 759              		@ link register save eliminated.
 760              	.LVL32:
 761              		.loc 1 778 0
 762 0000 034B     		ldr	r3, .L61
 763 0002 DB69     		ldr	r3, [r3, #28]
 764              	.LVL33:
 765 0004 1842     		tst	r0, r3
 766              		.loc 1 790 0
 767 0006 0CBF     		ite	eq
 768 0008 0020     		moveq	r0, #0
 769 000a 0120     		movne	r0, #1
 770              	.LVL34:
 771 000c 7047     		bx	lr
 772              	.L62:
 773 000e 00BF     		.align	2
 774              	.L61:
 775 0010 00000650 		.word	1342570496
 776              		.cfi_endproc
 777              	.LFE126:
 778              		.size	CRYP_GetITStatus, .-CRYP_GetITStatus
 779 0014 AFF30080 		.section	.text.CRYP_GetFlagStatus,"ax",%progbits
 779      AFF30080 
 779      AFF30080 
 780              		.align	2
 781              		.p2align 4,,15
 782              		.global	CRYP_GetFlagStatus
 783              		.thumb
 784              		.thumb_func
 785              		.type	CRYP_GetFlagStatus, %function
 786              	CRYP_GetFlagStatus:
ARM GAS  C:\Users\jsyoon\AppData\Local\Temp\ccCYiPrk.s 			page 15


 787              	.LFB127:
 788              		.loc 1 806 0
 789              		.cfi_startproc
 790              		@ args = 0, pretend = 0, frame = 0
 791              		@ frame_needed = 0, uses_anonymous_args = 0
 792              		@ link register save eliminated.
 793              	.LVL35:
 794              		.loc 1 816 0
 795 0000 044B     		ldr	r3, .L66
 796              		.loc 1 814 0
 797 0002 8206     		lsls	r2, r0, #26
 798              		.loc 1 816 0
 799 0004 4CBF     		ite	mi
 800 0006 9B69     		ldrmi	r3, [r3, #24]
 801              	.LVL36:
 802              		.loc 1 820 0
 803 0008 5B68     		ldrpl	r3, [r3, #4]
 804              	.LVL37:
 805              		.loc 1 825 0
 806 000a 0342     		tst	r3, r0
 807              		.loc 1 838 0
 808 000c 0CBF     		ite	eq
 809 000e 0020     		moveq	r0, #0
 810 0010 0120     		movne	r0, #1
 811              	.LVL38:
 812 0012 7047     		bx	lr
 813              	.L67:
 814              		.align	2
 815              	.L66:
 816 0014 00000650 		.word	1342570496
 817              		.cfi_endproc
 818              	.LFE127:
 819              		.size	CRYP_GetFlagStatus, .-CRYP_GetFlagStatus
 820 0018 AFF30080 		.text
 820      AFF30080 
 821              	.Letext0:
 822              		.file 2 "c:\\crosstools\\gcc-arm-embedded\\4.8_2014q2\\arm-none-eabi\\include\\machine\\_default_t
 823              		.file 3 "c:\\crosstools\\gcc-arm-embedded\\4.8_2014q2\\arm-none-eabi\\include\\stdint.h"
 824              		.file 4 "ChibiOS_2.6.6/os/hal/platforms/STM32F4xx/stm32f4xx.h"
 825              		.file 5 "ChibiOS_2.6.6/ext/stdperiph_stm32f4/inc/stm32f4xx_cryp.h"
 826              		.file 6 "ChibiOS_2.6.6/os/ports/common/ARMCMx/CMSIS/include/core_cm4.h"
 827              		.file 7 "ChibiOS_2.6.6/ext/stdperiph_stm32f4/inc/stm32f4xx_rcc.h"
 828              		.section	.debug_info,"",%progbits
 829              	.Ldebug_info0:
 830 0000 2C080000 		.4byte	0x82c
 831 0004 0400     		.2byte	0x4
 832 0006 00000000 		.4byte	.Ldebug_abbrev0
 833 000a 04       		.byte	0x4
 834 000b 01       		.uleb128 0x1
 835 000c 0B040000 		.4byte	.LASF124
 836 0010 01       		.byte	0x1
 837 0011 ED020000 		.4byte	.LASF125
 838 0015 F9000000 		.4byte	.LASF126
 839 0019 00000000 		.4byte	.Ldebug_ranges0+0
 840 001d 00000000 		.4byte	0
 841 0021 00000000 		.4byte	.Ldebug_line0
 842 0025 02       		.uleb128 0x2
ARM GAS  C:\Users\jsyoon\AppData\Local\Temp\ccCYiPrk.s 			page 16


 843 0026 01       		.byte	0x1
 844 0027 06       		.byte	0x6
 845 0028 CF000000 		.4byte	.LASF0
 846 002c 03       		.uleb128 0x3
 847 002d 35000000 		.4byte	.LASF3
 848 0031 02       		.byte	0x2
 849 0032 1C       		.byte	0x1c
 850 0033 37000000 		.4byte	0x37
 851 0037 02       		.uleb128 0x2
 852 0038 01       		.byte	0x1
 853 0039 08       		.byte	0x8
 854 003a 65050000 		.4byte	.LASF1
 855 003e 02       		.uleb128 0x2
 856 003f 02       		.byte	0x2
 857 0040 05       		.byte	0x5
 858 0041 73050000 		.4byte	.LASF2
 859 0045 03       		.uleb128 0x3
 860 0046 F2050000 		.4byte	.LASF4
 861 004a 02       		.byte	0x2
 862 004b 26       		.byte	0x26
 863 004c 50000000 		.4byte	0x50
 864 0050 02       		.uleb128 0x2
 865 0051 02       		.byte	0x2
 866 0052 07       		.byte	0x7
 867 0053 84020000 		.4byte	.LASF5
 868 0057 03       		.uleb128 0x3
 869 0058 E3020000 		.4byte	.LASF6
 870 005c 02       		.byte	0x2
 871 005d 37       		.byte	0x37
 872 005e 62000000 		.4byte	0x62
 873 0062 02       		.uleb128 0x2
 874 0063 04       		.byte	0x4
 875 0064 05       		.byte	0x5
 876 0065 32010000 		.4byte	.LASF7
 877 0069 03       		.uleb128 0x3
 878 006a B7010000 		.4byte	.LASF8
 879 006e 02       		.byte	0x2
 880 006f 38       		.byte	0x38
 881 0070 74000000 		.4byte	0x74
 882 0074 02       		.uleb128 0x2
 883 0075 04       		.byte	0x4
 884 0076 07       		.byte	0x7
 885 0077 45020000 		.4byte	.LASF9
 886 007b 02       		.uleb128 0x2
 887 007c 08       		.byte	0x8
 888 007d 05       		.byte	0x5
 889 007e C1000000 		.4byte	.LASF10
 890 0082 02       		.uleb128 0x2
 891 0083 08       		.byte	0x8
 892 0084 07       		.byte	0x7
 893 0085 6A000000 		.4byte	.LASF11
 894 0089 04       		.uleb128 0x4
 895 008a 04       		.byte	0x4
 896 008b 05       		.byte	0x5
 897 008c 696E7400 		.ascii	"int\000"
 898 0090 02       		.uleb128 0x2
 899 0091 04       		.byte	0x4
ARM GAS  C:\Users\jsyoon\AppData\Local\Temp\ccCYiPrk.s 			page 17


 900 0092 07       		.byte	0x7
 901 0093 07020000 		.4byte	.LASF12
 902 0097 03       		.uleb128 0x3
 903 0098 8B060000 		.4byte	.LASF13
 904 009c 03       		.byte	0x3
 905 009d 2A       		.byte	0x2a
 906 009e 2C000000 		.4byte	0x2c
 907 00a2 03       		.uleb128 0x3
 908 00a3 8F010000 		.4byte	.LASF14
 909 00a7 03       		.byte	0x3
 910 00a8 36       		.byte	0x36
 911 00a9 45000000 		.4byte	0x45
 912 00ad 03       		.uleb128 0x3
 913 00ae 5D050000 		.4byte	.LASF15
 914 00b2 03       		.byte	0x3
 915 00b3 41       		.byte	0x41
 916 00b4 57000000 		.4byte	0x57
 917 00b8 03       		.uleb128 0x3
 918 00b9 62060000 		.4byte	.LASF16
 919 00bd 03       		.byte	0x3
 920 00be 42       		.byte	0x42
 921 00bf 69000000 		.4byte	0x69
 922 00c3 02       		.uleb128 0x2
 923 00c4 04       		.byte	0x4
 924 00c5 07       		.byte	0x7
 925 00c6 46030000 		.4byte	.LASF17
 926 00ca 05       		.uleb128 0x5
 927 00cb B8000000 		.4byte	0xb8
 928 00cf 05       		.uleb128 0x5
 929 00d0 AD000000 		.4byte	0xad
 930 00d4 06       		.uleb128 0x6
 931 00d5 01       		.byte	0x1
 932 00d6 04       		.byte	0x4
 933 00d7 F701     		.2byte	0x1f7
 934 00d9 EA000000 		.4byte	0xea
 935 00dd 07       		.uleb128 0x7
 936 00de 44050000 		.4byte	.LASF18
 937 00e2 00       		.sleb128 0
 938 00e3 08       		.uleb128 0x8
 939 00e4 53455400 		.ascii	"SET\000"
 940 00e8 01       		.sleb128 1
 941 00e9 00       		.byte	0
 942 00ea 09       		.uleb128 0x9
 943 00eb 25000000 		.4byte	.LASF19
 944 00ef 04       		.byte	0x4
 945 00f0 F701     		.2byte	0x1f7
 946 00f2 D4000000 		.4byte	0xd4
 947 00f6 09       		.uleb128 0x9
 948 00f7 F0010000 		.4byte	.LASF20
 949 00fb 04       		.byte	0x4
 950 00fc F701     		.2byte	0x1f7
 951 00fe D4000000 		.4byte	0xd4
 952 0102 06       		.uleb128 0x6
 953 0103 01       		.byte	0x1
 954 0104 04       		.byte	0x4
 955 0105 F901     		.2byte	0x1f9
 956 0107 18010000 		.4byte	0x118
ARM GAS  C:\Users\jsyoon\AppData\Local\Temp\ccCYiPrk.s 			page 18


 957 010b 07       		.uleb128 0x7
 958 010c 5A000000 		.4byte	.LASF21
 959 0110 00       		.sleb128 0
 960 0111 07       		.uleb128 0x7
 961 0112 3B010000 		.4byte	.LASF22
 962 0116 01       		.sleb128 1
 963 0117 00       		.byte	0
 964 0118 09       		.uleb128 0x9
 965 0119 CB030000 		.4byte	.LASF23
 966 011d 04       		.byte	0x4
 967 011e F901     		.2byte	0x1f9
 968 0120 02010000 		.4byte	0x102
 969 0124 06       		.uleb128 0x6
 970 0125 01       		.byte	0x1
 971 0126 04       		.byte	0x4
 972 0127 FC01     		.2byte	0x1fc
 973 0129 3A010000 		.4byte	0x13a
 974 012d 07       		.uleb128 0x7
 975 012e 63030000 		.4byte	.LASF24
 976 0132 00       		.sleb128 0
 977 0133 07       		.uleb128 0x7
 978 0134 98060000 		.4byte	.LASF25
 979 0138 01       		.sleb128 1
 980 0139 00       		.byte	0
 981 013a 09       		.uleb128 0x9
 982 013b CA010000 		.4byte	.LASF26
 983 013f 04       		.byte	0x4
 984 0140 FC01     		.2byte	0x1fc
 985 0142 24010000 		.4byte	0x124
 986 0146 0A       		.uleb128 0xa
 987 0147 90       		.byte	0x90
 988 0148 04       		.byte	0x4
 989 0149 4A05     		.2byte	0x54a
 990 014b 21030000 		.4byte	0x321
 991 014f 0B       		.uleb128 0xb
 992 0150 435200   		.ascii	"CR\000"
 993 0153 04       		.byte	0x4
 994 0154 4C05     		.2byte	0x54c
 995 0156 CA000000 		.4byte	0xca
 996 015a 00       		.byte	0
 997 015b 0B       		.uleb128 0xb
 998 015c 535200   		.ascii	"SR\000"
 999 015f 04       		.byte	0x4
 1000 0160 4D05     		.2byte	0x54d
 1001 0162 CA000000 		.4byte	0xca
 1002 0166 04       		.byte	0x4
 1003 0167 0B       		.uleb128 0xb
 1004 0168 445200   		.ascii	"DR\000"
 1005 016b 04       		.byte	0x4
 1006 016c 4E05     		.2byte	0x54e
 1007 016e CA000000 		.4byte	0xca
 1008 0172 08       		.byte	0x8
 1009 0173 0C       		.uleb128 0xc
 1010 0174 30000000 		.4byte	.LASF27
 1011 0178 04       		.byte	0x4
 1012 0179 4F05     		.2byte	0x54f
 1013 017b CA000000 		.4byte	0xca
ARM GAS  C:\Users\jsyoon\AppData\Local\Temp\ccCYiPrk.s 			page 19


 1014 017f 0C       		.byte	0xc
 1015 0180 0C       		.uleb128 0xc
 1016 0181 D1060000 		.4byte	.LASF28
 1017 0185 04       		.byte	0x4
 1018 0186 5005     		.2byte	0x550
 1019 0188 CA000000 		.4byte	0xca
 1020 018c 10       		.byte	0x10
 1021 018d 0C       		.uleb128 0xc
 1022 018e 33060000 		.4byte	.LASF29
 1023 0192 04       		.byte	0x4
 1024 0193 5105     		.2byte	0x551
 1025 0195 CA000000 		.4byte	0xca
 1026 0199 14       		.byte	0x14
 1027 019a 0C       		.uleb128 0xc
 1028 019b 14020000 		.4byte	.LASF30
 1029 019f 04       		.byte	0x4
 1030 01a0 5205     		.2byte	0x552
 1031 01a2 CA000000 		.4byte	0xca
 1032 01a6 18       		.byte	0x18
 1033 01a7 0C       		.uleb128 0xc
 1034 01a8 4A050000 		.4byte	.LASF31
 1035 01ac 04       		.byte	0x4
 1036 01ad 5305     		.2byte	0x553
 1037 01af CA000000 		.4byte	0xca
 1038 01b3 1C       		.byte	0x1c
 1039 01b4 0C       		.uleb128 0xc
 1040 01b5 8D050000 		.4byte	.LASF32
 1041 01b9 04       		.byte	0x4
 1042 01ba 5405     		.2byte	0x554
 1043 01bc CA000000 		.4byte	0xca
 1044 01c0 20       		.byte	0x20
 1045 01c1 0C       		.uleb128 0xc
 1046 01c2 33030000 		.4byte	.LASF33
 1047 01c6 04       		.byte	0x4
 1048 01c7 5505     		.2byte	0x555
 1049 01c9 CA000000 		.4byte	0xca
 1050 01cd 24       		.byte	0x24
 1051 01ce 0C       		.uleb128 0xc
 1052 01cf 97020000 		.4byte	.LASF34
 1053 01d3 04       		.byte	0x4
 1054 01d4 5605     		.2byte	0x556
 1055 01d6 CA000000 		.4byte	0xca
 1056 01da 28       		.byte	0x28
 1057 01db 0C       		.uleb128 0xc
 1058 01dc E0010000 		.4byte	.LASF35
 1059 01e0 04       		.byte	0x4
 1060 01e1 5705     		.2byte	0x557
 1061 01e3 CA000000 		.4byte	0xca
 1062 01e7 2C       		.byte	0x2c
 1063 01e8 0C       		.uleb128 0xc
 1064 01e9 29020000 		.4byte	.LASF36
 1065 01ed 04       		.byte	0x4
 1066 01ee 5805     		.2byte	0x558
 1067 01f0 CA000000 		.4byte	0xca
 1068 01f4 30       		.byte	0x30
 1069 01f5 0C       		.uleb128 0xc
 1070 01f6 99000000 		.4byte	.LASF37
ARM GAS  C:\Users\jsyoon\AppData\Local\Temp\ccCYiPrk.s 			page 20


 1071 01fa 04       		.byte	0x4
 1072 01fb 5905     		.2byte	0x559
 1073 01fd CA000000 		.4byte	0xca
 1074 0201 34       		.byte	0x34
 1075 0202 0C       		.uleb128 0xc
 1076 0203 C6050000 		.4byte	.LASF38
 1077 0207 04       		.byte	0x4
 1078 0208 5A05     		.2byte	0x55a
 1079 020a CA000000 		.4byte	0xca
 1080 020e 38       		.byte	0x38
 1081 020f 0C       		.uleb128 0xc
 1082 0210 EE060000 		.4byte	.LASF39
 1083 0214 04       		.byte	0x4
 1084 0215 5B05     		.2byte	0x55b
 1085 0217 CA000000 		.4byte	0xca
 1086 021b 3C       		.byte	0x3c
 1087 021c 0C       		.uleb128 0xc
 1088 021d 2E020000 		.4byte	.LASF40
 1089 0221 04       		.byte	0x4
 1090 0222 5C05     		.2byte	0x55c
 1091 0224 CA000000 		.4byte	0xca
 1092 0228 40       		.byte	0x40
 1093 0229 0C       		.uleb128 0xc
 1094 022a AF000000 		.4byte	.LASF41
 1095 022e 04       		.byte	0x4
 1096 022f 5D05     		.2byte	0x55d
 1097 0231 CA000000 		.4byte	0xca
 1098 0235 44       		.byte	0x44
 1099 0236 0C       		.uleb128 0xc
 1100 0237 E8000000 		.4byte	.LASF42
 1101 023b 04       		.byte	0x4
 1102 023c 5E05     		.2byte	0x55e
 1103 023e CA000000 		.4byte	0xca
 1104 0242 48       		.byte	0x48
 1105 0243 0C       		.uleb128 0xc
 1106 0244 F3060000 		.4byte	.LASF43
 1107 0248 04       		.byte	0x4
 1108 0249 5F05     		.2byte	0x55f
 1109 024b CA000000 		.4byte	0xca
 1110 024f 4C       		.byte	0x4c
 1111 0250 0C       		.uleb128 0xc
 1112 0251 EE000000 		.4byte	.LASF44
 1113 0255 04       		.byte	0x4
 1114 0256 6005     		.2byte	0x560
 1115 0258 CA000000 		.4byte	0xca
 1116 025c 50       		.byte	0x50
 1117 025d 0C       		.uleb128 0xc
 1118 025e E5010000 		.4byte	.LASF45
 1119 0262 04       		.byte	0x4
 1120 0263 6105     		.2byte	0x561
 1121 0265 CA000000 		.4byte	0xca
 1122 0269 54       		.byte	0x54
 1123 026a 0C       		.uleb128 0xc
 1124 026b 5F020000 		.4byte	.LASF46
 1125 026f 04       		.byte	0x4
 1126 0270 6205     		.2byte	0x562
 1127 0272 CA000000 		.4byte	0xca
ARM GAS  C:\Users\jsyoon\AppData\Local\Temp\ccCYiPrk.s 			page 21


 1128 0276 58       		.byte	0x58
 1129 0277 0C       		.uleb128 0xc
 1130 0278 DB030000 		.4byte	.LASF47
 1131 027c 04       		.byte	0x4
 1132 027d 6305     		.2byte	0x563
 1133 027f CA000000 		.4byte	0xca
 1134 0283 5C       		.byte	0x5c
 1135 0284 0C       		.uleb128 0xc
 1136 0285 92050000 		.4byte	.LASF48
 1137 0289 04       		.byte	0x4
 1138 028a 6405     		.2byte	0x564
 1139 028c CA000000 		.4byte	0xca
 1140 0290 60       		.byte	0x60
 1141 0291 0C       		.uleb128 0xc
 1142 0292 4D060000 		.4byte	.LASF49
 1143 0296 04       		.byte	0x4
 1144 0297 6505     		.2byte	0x565
 1145 0299 CA000000 		.4byte	0xca
 1146 029d 64       		.byte	0x64
 1147 029e 0C       		.uleb128 0xc
 1148 029f 05070000 		.4byte	.LASF50
 1149 02a3 04       		.byte	0x4
 1150 02a4 6605     		.2byte	0x566
 1151 02a6 CA000000 		.4byte	0xca
 1152 02aa 68       		.byte	0x68
 1153 02ab 0C       		.uleb128 0xc
 1154 02ac 81000000 		.4byte	.LASF51
 1155 02b0 04       		.byte	0x4
 1156 02b1 6705     		.2byte	0x567
 1157 02b3 CA000000 		.4byte	0xca
 1158 02b7 6C       		.byte	0x6c
 1159 02b8 0C       		.uleb128 0xc
 1160 02b9 C2010000 		.4byte	.LASF52
 1161 02bd 04       		.byte	0x4
 1162 02be 6805     		.2byte	0x568
 1163 02c0 CA000000 		.4byte	0xca
 1164 02c4 70       		.byte	0x70
 1165 02c5 0C       		.uleb128 0xc
 1166 02c6 B1020000 		.4byte	.LASF53
 1167 02ca 04       		.byte	0x4
 1168 02cb 6905     		.2byte	0x569
 1169 02cd CA000000 		.4byte	0xca
 1170 02d1 74       		.byte	0x74
 1171 02d2 0C       		.uleb128 0xc
 1172 02d3 C3030000 		.4byte	.LASF54
 1173 02d7 04       		.byte	0x4
 1174 02d8 6A05     		.2byte	0x56a
 1175 02da CA000000 		.4byte	0xca
 1176 02de 78       		.byte	0x78
 1177 02df 0C       		.uleb128 0xc
 1178 02e0 7D050000 		.4byte	.LASF55
 1179 02e4 04       		.byte	0x4
 1180 02e5 6B05     		.2byte	0x56b
 1181 02e7 CA000000 		.4byte	0xca
 1182 02eb 7C       		.byte	0x7c
 1183 02ec 0C       		.uleb128 0xc
 1184 02ed 2B060000 		.4byte	.LASF56
ARM GAS  C:\Users\jsyoon\AppData\Local\Temp\ccCYiPrk.s 			page 22


 1185 02f1 04       		.byte	0x4
 1186 02f2 6C05     		.2byte	0x56c
 1187 02f4 CA000000 		.4byte	0xca
 1188 02f8 80       		.byte	0x80
 1189 02f9 0C       		.uleb128 0xc
 1190 02fa E6060000 		.4byte	.LASF57
 1191 02fe 04       		.byte	0x4
 1192 02ff 6D05     		.2byte	0x56d
 1193 0301 CA000000 		.4byte	0xca
 1194 0305 84       		.byte	0x84
 1195 0306 0C       		.uleb128 0xc
 1196 0307 52000000 		.4byte	.LASF58
 1197 030b 04       		.byte	0x4
 1198 030c 6E05     		.2byte	0x56e
 1199 030e CA000000 		.4byte	0xca
 1200 0312 88       		.byte	0x88
 1201 0313 0C       		.uleb128 0xc
 1202 0314 42010000 		.4byte	.LASF59
 1203 0318 04       		.byte	0x4
 1204 0319 6F05     		.2byte	0x56f
 1205 031b CA000000 		.4byte	0xca
 1206 031f 8C       		.byte	0x8c
 1207 0320 00       		.byte	0
 1208 0321 09       		.uleb128 0x9
 1209 0322 00000000 		.4byte	.LASF60
 1210 0326 04       		.byte	0x4
 1211 0327 7005     		.2byte	0x570
 1212 0329 46010000 		.4byte	0x146
 1213 032d 0D       		.uleb128 0xd
 1214 032e 08       		.byte	0x8
 1215 032f 05       		.byte	0x5
 1216 0330 35       		.byte	0x35
 1217 0331 66030000 		.4byte	0x366
 1218 0335 0E       		.uleb128 0xe
 1219 0336 B1060000 		.4byte	.LASF61
 1220 033a 05       		.byte	0x5
 1221 033b 37       		.byte	0x37
 1222 033c A2000000 		.4byte	0xa2
 1223 0340 00       		.byte	0
 1224 0341 0E       		.uleb128 0xe
 1225 0342 76030000 		.4byte	.LASF62
 1226 0346 05       		.byte	0x5
 1227 0347 39       		.byte	0x39
 1228 0348 A2000000 		.4byte	0xa2
 1229 034c 02       		.byte	0x2
 1230 034d 0E       		.uleb128 0xe
 1231 034e 4F050000 		.4byte	.LASF63
 1232 0352 05       		.byte	0x5
 1233 0353 3C       		.byte	0x3c
 1234 0354 A2000000 		.4byte	0xa2
 1235 0358 04       		.byte	0x4
 1236 0359 0E       		.uleb128 0xe
 1237 035a A5030000 		.4byte	.LASF64
 1238 035e 05       		.byte	0x5
 1239 035f 3E       		.byte	0x3e
 1240 0360 A2000000 		.4byte	0xa2
 1241 0364 06       		.byte	0x6
ARM GAS  C:\Users\jsyoon\AppData\Local\Temp\ccCYiPrk.s 			page 23


 1242 0365 00       		.byte	0
 1243 0366 03       		.uleb128 0x3
 1244 0367 34020000 		.4byte	.LASF65
 1245 036b 05       		.byte	0x5
 1246 036c 41       		.byte	0x41
 1247 036d 2D030000 		.4byte	0x32d
 1248 0371 0D       		.uleb128 0xd
 1249 0372 20       		.byte	0x20
 1250 0373 05       		.byte	0x5
 1251 0374 46       		.byte	0x46
 1252 0375 DA030000 		.4byte	0x3da
 1253 0379 0E       		.uleb128 0xe
 1254 037a 38030000 		.4byte	.LASF66
 1255 037e 05       		.byte	0x5
 1256 037f 48       		.byte	0x48
 1257 0380 B8000000 		.4byte	0xb8
 1258 0384 00       		.byte	0
 1259 0385 0E       		.uleb128 0xe
 1260 0386 D9050000 		.4byte	.LASF67
 1261 038a 05       		.byte	0x5
 1262 038b 49       		.byte	0x49
 1263 038c B8000000 		.4byte	0xb8
 1264 0390 04       		.byte	0x4
 1265 0391 0E       		.uleb128 0xe
 1266 0392 97030000 		.4byte	.LASF68
 1267 0396 05       		.byte	0x5
 1268 0397 4A       		.byte	0x4a
 1269 0398 B8000000 		.4byte	0xb8
 1270 039c 08       		.byte	0x8
 1271 039d 0E       		.uleb128 0xe
 1272 039e 7C060000 		.4byte	.LASF69
 1273 03a2 05       		.byte	0x5
 1274 03a3 4B       		.byte	0x4b
 1275 03a4 B8000000 		.4byte	0xb8
 1276 03a8 0C       		.byte	0xc
 1277 03a9 0E       		.uleb128 0xe
 1278 03aa CB050000 		.4byte	.LASF70
 1279 03ae 05       		.byte	0x5
 1280 03af 4C       		.byte	0x4c
 1281 03b0 B8000000 		.4byte	0xb8
 1282 03b4 10       		.byte	0x10
 1283 03b5 0E       		.uleb128 0xe
 1284 03b6 0D000000 		.4byte	.LASF71
 1285 03ba 05       		.byte	0x5
 1286 03bb 4D       		.byte	0x4d
 1287 03bc B8000000 		.4byte	0xb8
 1288 03c0 14       		.byte	0x14
 1289 03c1 0E       		.uleb128 0xe
 1290 03c2 76020000 		.4byte	.LASF72
 1291 03c6 05       		.byte	0x5
 1292 03c7 4E       		.byte	0x4e
 1293 03c8 B8000000 		.4byte	0xb8
 1294 03cc 18       		.byte	0x18
 1295 03cd 0E       		.uleb128 0xe
 1296 03ce 1A070000 		.4byte	.LASF73
 1297 03d2 05       		.byte	0x5
 1298 03d3 4F       		.byte	0x4f
ARM GAS  C:\Users\jsyoon\AppData\Local\Temp\ccCYiPrk.s 			page 24


 1299 03d4 B8000000 		.4byte	0xb8
 1300 03d8 1C       		.byte	0x1c
 1301 03d9 00       		.byte	0
 1302 03da 03       		.uleb128 0x3
 1303 03db 39060000 		.4byte	.LASF74
 1304 03df 05       		.byte	0x5
 1305 03e0 50       		.byte	0x50
 1306 03e1 71030000 		.4byte	0x371
 1307 03e5 0D       		.uleb128 0xd
 1308 03e6 10       		.byte	0x10
 1309 03e7 05       		.byte	0x5
 1310 03e8 54       		.byte	0x54
 1311 03e9 1E040000 		.4byte	0x41e
 1312 03ed 0E       		.uleb128 0xe
 1313 03ee DB000000 		.4byte	.LASF75
 1314 03f2 05       		.byte	0x5
 1315 03f3 56       		.byte	0x56
 1316 03f4 B8000000 		.4byte	0xb8
 1317 03f8 00       		.byte	0
 1318 03f9 0E       		.uleb128 0xe
 1319 03fa F9010000 		.4byte	.LASF76
 1320 03fe 05       		.byte	0x5
 1321 03ff 57       		.byte	0x57
 1322 0400 B8000000 		.4byte	0xb8
 1323 0404 04       		.byte	0x4
 1324 0405 0E       		.uleb128 0xe
 1325 0406 09060000 		.4byte	.LASF77
 1326 040a 05       		.byte	0x5
 1327 040b 58       		.byte	0x58
 1328 040c B8000000 		.4byte	0xb8
 1329 0410 08       		.byte	0x8
 1330 0411 0E       		.uleb128 0xe
 1331 0412 C3020000 		.4byte	.LASF78
 1332 0416 05       		.byte	0x5
 1333 0417 59       		.byte	0x59
 1334 0418 B8000000 		.4byte	0xb8
 1335 041c 0C       		.byte	0xc
 1336 041d 00       		.byte	0
 1337 041e 03       		.uleb128 0x3
 1338 041f 3F000000 		.4byte	.LASF79
 1339 0423 05       		.byte	0x5
 1340 0424 5A       		.byte	0x5a
 1341 0425 E5030000 		.4byte	0x3e5
 1342 0429 0D       		.uleb128 0xd
 1343 042a 34       		.byte	0x34
 1344 042b 05       		.byte	0x5
 1345 042c 5F       		.byte	0x5f
 1346 042d CE040000 		.4byte	0x4ce
 1347 0431 0E       		.uleb128 0xe
 1348 0432 B5000000 		.4byte	.LASF80
 1349 0436 05       		.byte	0x5
 1350 0437 62       		.byte	0x62
 1351 0438 B8000000 		.4byte	0xb8
 1352 043c 00       		.byte	0
 1353 043d 0E       		.uleb128 0xe
 1354 043e 16060000 		.4byte	.LASF81
 1355 0442 05       		.byte	0x5
ARM GAS  C:\Users\jsyoon\AppData\Local\Temp\ccCYiPrk.s 			page 25


 1356 0443 64       		.byte	0x64
 1357 0444 B8000000 		.4byte	0xb8
 1358 0448 04       		.byte	0x4
 1359 0449 0E       		.uleb128 0xe
 1360 044a F6030000 		.4byte	.LASF82
 1361 044e 05       		.byte	0x5
 1362 044f 65       		.byte	0x65
 1363 0450 B8000000 		.4byte	0xb8
 1364 0454 08       		.byte	0x8
 1365 0455 0E       		.uleb128 0xe
 1366 0456 2F050000 		.4byte	.LASF83
 1367 045a 05       		.byte	0x5
 1368 045b 66       		.byte	0x66
 1369 045c B8000000 		.4byte	0xb8
 1370 0460 0C       		.byte	0xc
 1371 0461 0E       		.uleb128 0xe
 1372 0462 9C020000 		.4byte	.LASF84
 1373 0466 05       		.byte	0x5
 1374 0467 67       		.byte	0x67
 1375 0468 B8000000 		.4byte	0xb8
 1376 046c 10       		.byte	0x10
 1377 046d 0E       		.uleb128 0xe
 1378 046e 10070000 		.4byte	.LASF85
 1379 0472 05       		.byte	0x5
 1380 0473 69       		.byte	0x69
 1381 0474 B8000000 		.4byte	0xb8
 1382 0478 14       		.byte	0x14
 1383 0479 0E       		.uleb128 0xe
 1384 047a E8050000 		.4byte	.LASF86
 1385 047e 05       		.byte	0x5
 1386 047f 6A       		.byte	0x6a
 1387 0480 B8000000 		.4byte	0xb8
 1388 0484 18       		.byte	0x18
 1389 0485 0E       		.uleb128 0xe
 1390 0486 21060000 		.4byte	.LASF87
 1391 048a 05       		.byte	0x5
 1392 048b 6B       		.byte	0x6b
 1393 048c B8000000 		.4byte	0xb8
 1394 0490 1C       		.byte	0x1c
 1395 0491 0E       		.uleb128 0xe
 1396 0492 01040000 		.4byte	.LASF88
 1397 0496 05       		.byte	0x5
 1398 0497 6C       		.byte	0x6c
 1399 0498 B8000000 		.4byte	0xb8
 1400 049c 20       		.byte	0x20
 1401 049d 0E       		.uleb128 0xe
 1402 049e 3A050000 		.4byte	.LASF89
 1403 04a2 05       		.byte	0x5
 1404 04a3 6D       		.byte	0x6d
 1405 04a4 B8000000 		.4byte	0xb8
 1406 04a8 24       		.byte	0x24
 1407 04a9 0E       		.uleb128 0xe
 1408 04aa A7020000 		.4byte	.LASF90
 1409 04ae 05       		.byte	0x5
 1410 04af 6E       		.byte	0x6e
 1411 04b0 B8000000 		.4byte	0xb8
 1412 04b4 28       		.byte	0x28
ARM GAS  C:\Users\jsyoon\AppData\Local\Temp\ccCYiPrk.s 			page 26


 1413 04b5 0E       		.uleb128 0xe
 1414 04b6 B9020000 		.4byte	.LASF91
 1415 04ba 05       		.byte	0x5
 1416 04bb 6F       		.byte	0x6f
 1417 04bc B8000000 		.4byte	0xb8
 1418 04c0 2C       		.byte	0x2c
 1419 04c1 0E       		.uleb128 0xe
 1420 04c2 77010000 		.4byte	.LASF92
 1421 04c6 05       		.byte	0x5
 1422 04c7 70       		.byte	0x70
 1423 04c8 B8000000 		.4byte	0xb8
 1424 04cc 30       		.byte	0x30
 1425 04cd 00       		.byte	0
 1426 04ce 03       		.uleb128 0x3
 1427 04cf 26030000 		.4byte	.LASF93
 1428 04d3 05       		.byte	0x5
 1429 04d4 71       		.byte	0x71
 1430 04d5 29040000 		.4byte	0x429
 1431 04d9 0F       		.uleb128 0xf
 1432 04da 98010000 		.4byte	.LASF94
 1433 04de 01       		.byte	0x1
 1434 04df DD       		.byte	0xdd
 1435 04e0 00000000 		.4byte	.LFB111
 1436 04e4 16000000 		.4byte	.LFE111-.LFB111
 1437 04e8 01       		.uleb128 0x1
 1438 04e9 9C       		.byte	0x9c
 1439 04ea 1B050000 		.4byte	0x51b
 1440 04ee 10       		.uleb128 0x10
 1441 04ef 0A000000 		.4byte	.LVL0
 1442 04f3 1C080000 		.4byte	0x81c
 1443 04f7 06050000 		.4byte	0x506
 1444 04fb 11       		.uleb128 0x11
 1445 04fc 01       		.uleb128 0x1
 1446 04fd 51       		.byte	0x51
 1447 04fe 01       		.uleb128 0x1
 1448 04ff 31       		.byte	0x31
 1449 0500 11       		.uleb128 0x11
 1450 0501 01       		.uleb128 0x1
 1451 0502 50       		.byte	0x50
 1452 0503 01       		.uleb128 0x1
 1453 0504 40       		.byte	0x40
 1454 0505 00       		.byte	0
 1455 0506 12       		.uleb128 0x12
 1456 0507 16000000 		.4byte	.LVL1
 1457 050b 1C080000 		.4byte	0x81c
 1458 050f 11       		.uleb128 0x11
 1459 0510 01       		.uleb128 0x1
 1460 0511 51       		.byte	0x51
 1461 0512 01       		.uleb128 0x1
 1462 0513 30       		.byte	0x30
 1463 0514 11       		.uleb128 0x11
 1464 0515 01       		.uleb128 0x1
 1465 0516 50       		.byte	0x50
 1466 0517 01       		.uleb128 0x1
 1467 0518 40       		.byte	0x40
 1468 0519 00       		.byte	0
 1469 051a 00       		.byte	0
ARM GAS  C:\Users\jsyoon\AppData\Local\Temp\ccCYiPrk.s 			page 27


 1470 051b 0F       		.uleb128 0xf
 1471 051c 6B060000 		.4byte	.LASF95
 1472 0520 01       		.byte	0x1
 1473 0521 ED       		.byte	0xed
 1474 0522 00000000 		.4byte	.LFB112
 1475 0526 5C000000 		.4byte	.LFE112-.LFB112
 1476 052a 01       		.uleb128 0x1
 1477 052b 9C       		.byte	0x9c
 1478 052c 3E050000 		.4byte	0x53e
 1479 0530 13       		.uleb128 0x13
 1480 0531 E6030000 		.4byte	.LASF97
 1481 0535 01       		.byte	0x1
 1482 0536 ED       		.byte	0xed
 1483 0537 3E050000 		.4byte	0x53e
 1484 053b 01       		.uleb128 0x1
 1485 053c 50       		.byte	0x50
 1486 053d 00       		.byte	0
 1487 053e 14       		.uleb128 0x14
 1488 053f 04       		.byte	0x4
 1489 0540 66030000 		.4byte	0x366
 1490 0544 15       		.uleb128 0x15
 1491 0545 19020000 		.4byte	.LASF96
 1492 0549 01       		.byte	0x1
 1493 054a 1401     		.2byte	0x114
 1494 054c 00000000 		.4byte	.LFB113
 1495 0550 0C000000 		.4byte	.LFE113-.LFB113
 1496 0554 01       		.uleb128 0x1
 1497 0555 9C       		.byte	0x9c
 1498 0556 69050000 		.4byte	0x569
 1499 055a 16       		.uleb128 0x16
 1500 055b E6030000 		.4byte	.LASF97
 1501 055f 01       		.byte	0x1
 1502 0560 1401     		.2byte	0x114
 1503 0562 3E050000 		.4byte	0x53e
 1504 0566 01       		.uleb128 0x1
 1505 0567 50       		.byte	0x50
 1506 0568 00       		.byte	0
 1507 0569 15       		.uleb128 0x15
 1508 056a 69030000 		.4byte	.LASF98
 1509 056e 01       		.byte	0x1
 1510 056f 2A01     		.2byte	0x12a
 1511 0571 00000000 		.4byte	.LFB114
 1512 0575 28000000 		.4byte	.LFE114-.LFB114
 1513 0579 01       		.uleb128 0x1
 1514 057a 9C       		.byte	0x9c
 1515 057b 8E050000 		.4byte	0x58e
 1516 057f 16       		.uleb128 0x16
 1517 0580 84030000 		.4byte	.LASF99
 1518 0584 01       		.byte	0x1
 1519 0585 2A01     		.2byte	0x12a
 1520 0587 8E050000 		.4byte	0x58e
 1521 058b 01       		.uleb128 0x1
 1522 058c 50       		.byte	0x50
 1523 058d 00       		.byte	0
 1524 058e 14       		.uleb128 0x14
 1525 058f 04       		.byte	0x4
 1526 0590 DA030000 		.4byte	0x3da
ARM GAS  C:\Users\jsyoon\AppData\Local\Temp\ccCYiPrk.s 			page 28


 1527 0594 15       		.uleb128 0x15
 1528 0595 A4010000 		.4byte	.LASF100
 1529 0599 01       		.byte	0x1
 1530 059a 3D01     		.2byte	0x13d
 1531 059c 00000000 		.4byte	.LFB115
 1532 05a0 14000000 		.4byte	.LFE115-.LFB115
 1533 05a4 01       		.uleb128 0x1
 1534 05a5 9C       		.byte	0x9c
 1535 05a6 B9050000 		.4byte	0x5b9
 1536 05aa 16       		.uleb128 0x16
 1537 05ab 84030000 		.4byte	.LASF99
 1538 05af 01       		.byte	0x1
 1539 05b0 3D01     		.2byte	0x13d
 1540 05b2 8E050000 		.4byte	0x58e
 1541 05b6 01       		.uleb128 0x1
 1542 05b7 50       		.byte	0x50
 1543 05b8 00       		.byte	0
 1544 05b9 15       		.uleb128 0x15
 1545 05ba 6A020000 		.4byte	.LASF101
 1546 05be 01       		.byte	0x1
 1547 05bf 4F01     		.2byte	0x14f
 1548 05c1 00000000 		.4byte	.LFB116
 1549 05c5 18000000 		.4byte	.LFE116-.LFB116
 1550 05c9 01       		.uleb128 0x1
 1551 05ca 9C       		.byte	0x9c
 1552 05cb DE050000 		.4byte	0x5de
 1553 05cf 16       		.uleb128 0x16
 1554 05d0 B4050000 		.4byte	.LASF102
 1555 05d4 01       		.byte	0x1
 1556 05d5 4F01     		.2byte	0x14f
 1557 05d7 DE050000 		.4byte	0x5de
 1558 05db 01       		.uleb128 0x1
 1559 05dc 50       		.byte	0x50
 1560 05dd 00       		.byte	0
 1561 05de 14       		.uleb128 0x14
 1562 05df 04       		.byte	0x4
 1563 05e0 1E040000 		.4byte	0x41e
 1564 05e4 15       		.uleb128 0x15
 1565 05e5 D1020000 		.4byte	.LASF103
 1566 05e9 01       		.byte	0x1
 1567 05ea 5D01     		.2byte	0x15d
 1568 05ec 00000000 		.4byte	.LFB117
 1569 05f0 0C000000 		.4byte	.LFE117-.LFB117
 1570 05f4 01       		.uleb128 0x1
 1571 05f5 9C       		.byte	0x9c
 1572 05f6 09060000 		.4byte	0x609
 1573 05fa 16       		.uleb128 0x16
 1574 05fb B4050000 		.4byte	.LASF102
 1575 05ff 01       		.byte	0x1
 1576 0600 5D01     		.2byte	0x15d
 1577 0602 DE050000 		.4byte	0x5de
 1578 0606 01       		.uleb128 0x1
 1579 0607 50       		.byte	0x50
 1580 0608 00       		.byte	0
 1581 0609 17       		.uleb128 0x17
 1582 060a D7060000 		.4byte	.LASF127
 1583 060e 01       		.byte	0x1
ARM GAS  C:\Users\jsyoon\AppData\Local\Temp\ccCYiPrk.s 			page 29


 1584 060f 6C01     		.2byte	0x16c
 1585 0611 00000000 		.4byte	.LFB118
 1586 0615 10000000 		.4byte	.LFE118-.LFB118
 1587 0619 01       		.uleb128 0x1
 1588 061a 9C       		.byte	0x9c
 1589 061b 15       		.uleb128 0x15
 1590 061c 29010000 		.4byte	.LASF104
 1591 0620 01       		.byte	0x1
 1592 0621 7801     		.2byte	0x178
 1593 0623 00000000 		.4byte	.LFB119
 1594 0627 1C000000 		.4byte	.LFE119-.LFB119
 1595 062b 01       		.uleb128 0x1
 1596 062c 9C       		.byte	0x9c
 1597 062d 40060000 		.4byte	0x640
 1598 0631 16       		.uleb128 0x16
 1599 0632 1C000000 		.4byte	.LASF105
 1600 0636 01       		.byte	0x1
 1601 0637 7801     		.2byte	0x178
 1602 0639 18010000 		.4byte	0x118
 1603 063d 01       		.uleb128 0x1
 1604 063e 50       		.byte	0x50
 1605 063f 00       		.byte	0
 1606 0640 15       		.uleb128 0x15
 1607 0641 FD050000 		.4byte	.LASF106
 1608 0645 01       		.byte	0x1
 1609 0646 A301     		.2byte	0x1a3
 1610 0648 00000000 		.4byte	.LFB120
 1611 064c 0C000000 		.4byte	.LFE120-.LFB120
 1612 0650 01       		.uleb128 0x1
 1613 0651 9C       		.byte	0x9c
 1614 0652 65060000 		.4byte	0x665
 1615 0656 16       		.uleb128 0x16
 1616 0657 93060000 		.4byte	.LASF107
 1617 065b 01       		.byte	0x1
 1618 065c A301     		.2byte	0x1a3
 1619 065e B8000000 		.4byte	0xb8
 1620 0662 01       		.uleb128 0x1
 1621 0663 50       		.byte	0x50
 1622 0664 00       		.byte	0
 1623 0665 18       		.uleb128 0x18
 1624 0666 5E010000 		.4byte	.LASF128
 1625 066a 01       		.byte	0x1
 1626 066b AD01     		.2byte	0x1ad
 1627 066d B8000000 		.4byte	0xb8
 1628 0671 00000000 		.4byte	.LFB121
 1629 0675 0C000000 		.4byte	.LFE121-.LFB121
 1630 0679 01       		.uleb128 0x1
 1631 067a 9C       		.byte	0x9c
 1632 067b 19       		.uleb128 0x19
 1633 067c B2030000 		.4byte	.LASF119
 1634 0680 01       		.byte	0x1
 1635 0681 D801     		.2byte	0x1d8
 1636 0683 3A010000 		.4byte	0x13a
 1637 0687 00000000 		.4byte	.LFB122
 1638 068b C4000000 		.4byte	.LFE122-.LFB122
 1639 068f 01       		.uleb128 0x1
 1640 0690 9C       		.byte	0x9c
ARM GAS  C:\Users\jsyoon\AppData\Local\Temp\ccCYiPrk.s 			page 30


 1641 0691 F5060000 		.4byte	0x6f5
 1642 0695 1A       		.uleb128 0x1a
 1643 0696 9E000000 		.4byte	.LASF108
 1644 069a 01       		.byte	0x1
 1645 069b D801     		.2byte	0x1d8
 1646 069d F5060000 		.4byte	0x6f5
 1647 06a1 00000000 		.4byte	.LLST0
 1648 06a5 1A       		.uleb128 0x1a
 1649 06a6 84030000 		.4byte	.LASF99
 1650 06aa 01       		.byte	0x1
 1651 06ab D901     		.2byte	0x1d9
 1652 06ad 8E050000 		.4byte	0x58e
 1653 06b1 1E000000 		.4byte	.LLST1
 1654 06b5 1B       		.uleb128 0x1b
 1655 06b6 57020000 		.4byte	.LASF109
 1656 06ba 01       		.byte	0x1
 1657 06bb DB01     		.2byte	0x1db
 1658 06bd CA000000 		.4byte	0xca
 1659 06c1 02       		.uleb128 0x2
 1660 06c2 91       		.byte	0x91
 1661 06c3 5C       		.sleb128 -36
 1662 06c4 1C       		.uleb128 0x1c
 1663 06c5 58060000 		.4byte	.LASF110
 1664 06c9 01       		.byte	0x1
 1665 06ca DC01     		.2byte	0x1dc
 1666 06cc B8000000 		.4byte	0xb8
 1667 06d0 63000000 		.4byte	.LLST2
 1668 06d4 1C       		.uleb128 0x1c
 1669 06d5 D6010000 		.4byte	.LASF111
 1670 06d9 01       		.byte	0x1
 1671 06da DC01     		.2byte	0x1dc
 1672 06dc B8000000 		.4byte	0xb8
 1673 06e0 82000000 		.4byte	.LLST3
 1674 06e4 1C       		.uleb128 0x1c
 1675 06e5 75060000 		.4byte	.LASF112
 1676 06e9 01       		.byte	0x1
 1677 06ea DD01     		.2byte	0x1dd
 1678 06ec 3A010000 		.4byte	0x13a
 1679 06f0 A0000000 		.4byte	.LLST4
 1680 06f4 00       		.byte	0
 1681 06f5 14       		.uleb128 0x14
 1682 06f6 04       		.byte	0x4
 1683 06f7 CE040000 		.4byte	0x4ce
 1684 06fb 15       		.uleb128 0x15
 1685 06fc 4F030000 		.4byte	.LASF113
 1686 0700 01       		.byte	0x1
 1687 0701 2D02     		.2byte	0x22d
 1688 0703 00000000 		.4byte	.LFB123
 1689 0707 44000000 		.4byte	.LFE123-.LFB123
 1690 070b 01       		.uleb128 0x1
 1691 070c 9C       		.byte	0x9c
 1692 070d 20070000 		.4byte	0x720
 1693 0711 16       		.uleb128 0x16
 1694 0712 4A010000 		.4byte	.LASF114
 1695 0716 01       		.byte	0x1
 1696 0717 2D02     		.2byte	0x22d
 1697 0719 F5060000 		.4byte	0x6f5
ARM GAS  C:\Users\jsyoon\AppData\Local\Temp\ccCYiPrk.s 			page 31


 1698 071d 01       		.uleb128 0x1
 1699 071e 50       		.byte	0x50
 1700 071f 00       		.byte	0
 1701 0720 15       		.uleb128 0x15
 1702 0721 F9060000 		.4byte	.LASF115
 1703 0725 01       		.byte	0x1
 1704 0726 6A02     		.2byte	0x26a
 1705 0728 00000000 		.4byte	.LFB124
 1706 072c 1C000000 		.4byte	.LFE124-.LFB124
 1707 0730 01       		.uleb128 0x1
 1708 0731 9C       		.byte	0x9c
 1709 0732 55070000 		.4byte	0x755
 1710 0736 1A       		.uleb128 0x1a
 1711 0737 6B010000 		.4byte	.LASF116
 1712 073b 01       		.byte	0x1
 1713 073c 6A02     		.2byte	0x26a
 1714 073e 97000000 		.4byte	0x97
 1715 0742 D6000000 		.4byte	.LLST5
 1716 0746 16       		.uleb128 0x16
 1717 0747 1C000000 		.4byte	.LASF105
 1718 074b 01       		.byte	0x1
 1719 074c 6A02     		.2byte	0x26a
 1720 074e 18010000 		.4byte	0x118
 1721 0752 01       		.uleb128 0x1
 1722 0753 51       		.byte	0x51
 1723 0754 00       		.byte	0
 1724 0755 15       		.uleb128 0x15
 1725 0756 81010000 		.4byte	.LASF117
 1726 075a 01       		.byte	0x1
 1727 075b E702     		.2byte	0x2e7
 1728 075d 00000000 		.4byte	.LFB125
 1729 0761 1C000000 		.4byte	.LFE125-.LFB125
 1730 0765 01       		.uleb128 0x1
 1731 0766 9C       		.byte	0x9c
 1732 0767 8A070000 		.4byte	0x78a
 1733 076b 1A       		.uleb128 0x1a
 1734 076c 62000000 		.4byte	.LASF118
 1735 0770 01       		.byte	0x1
 1736 0771 E702     		.2byte	0x2e7
 1737 0773 97000000 		.4byte	0x97
 1738 0777 10010000 		.4byte	.LLST6
 1739 077b 16       		.uleb128 0x16
 1740 077c 1C000000 		.4byte	.LASF105
 1741 0780 01       		.byte	0x1
 1742 0781 E702     		.2byte	0x2e7
 1743 0783 18010000 		.4byte	0x118
 1744 0787 01       		.uleb128 0x1
 1745 0788 51       		.byte	0x51
 1746 0789 00       		.byte	0
 1747 078a 19       		.uleb128 0x19
 1748 078b A0060000 		.4byte	.LASF120
 1749 078f 01       		.byte	0x1
 1750 0790 0303     		.2byte	0x303
 1751 0792 F6000000 		.4byte	0xf6
 1752 0796 00000000 		.4byte	.LFB126
 1753 079a 14000000 		.4byte	.LFE126-.LFB126
 1754 079e 01       		.uleb128 0x1
ARM GAS  C:\Users\jsyoon\AppData\Local\Temp\ccCYiPrk.s 			page 32


 1755 079f 9C       		.byte	0x9c
 1756 07a0 C5070000 		.4byte	0x7c5
 1757 07a4 1A       		.uleb128 0x1a
 1758 07a5 62000000 		.4byte	.LASF118
 1759 07a9 01       		.byte	0x1
 1760 07aa 0303     		.2byte	0x303
 1761 07ac 97000000 		.4byte	0x97
 1762 07b0 4A010000 		.4byte	.LLST7
 1763 07b4 1C       		.uleb128 0x1c
 1764 07b5 D6010000 		.4byte	.LASF111
 1765 07b9 01       		.byte	0x1
 1766 07ba 0503     		.2byte	0x305
 1767 07bc F6000000 		.4byte	0xf6
 1768 07c0 6B010000 		.4byte	.LLST8
 1769 07c4 00       		.byte	0
 1770 07c5 19       		.uleb128 0x19
 1771 07c6 BE060000 		.4byte	.LASF121
 1772 07ca 01       		.byte	0x1
 1773 07cb 2503     		.2byte	0x325
 1774 07cd EA000000 		.4byte	0xea
 1775 07d1 00000000 		.4byte	.LFB127
 1776 07d5 18000000 		.4byte	.LFE127-.LFB127
 1777 07d9 01       		.uleb128 0x1
 1778 07da 9C       		.byte	0x9c
 1779 07db 10080000 		.4byte	0x810
 1780 07df 1A       		.uleb128 0x1a
 1781 07e0 29070000 		.4byte	.LASF122
 1782 07e4 01       		.byte	0x1
 1783 07e5 2503     		.2byte	0x325
 1784 07e7 97000000 		.4byte	0x97
 1785 07eb AA010000 		.4byte	.LLST9
 1786 07ef 1C       		.uleb128 0x1c
 1787 07f0 D6010000 		.4byte	.LASF111
 1788 07f4 01       		.byte	0x1
 1789 07f5 2703     		.2byte	0x327
 1790 07f7 EA000000 		.4byte	0xea
 1791 07fb CB010000 		.4byte	.LLST10
 1792 07ff 1C       		.uleb128 0x1c
 1793 0800 85050000 		.4byte	.LASF123
 1794 0804 01       		.byte	0x1
 1795 0805 2803     		.2byte	0x328
 1796 0807 B8000000 		.4byte	0xb8
 1797 080b F4010000 		.4byte	.LLST11
 1798 080f 00       		.byte	0
 1799 0810 1D       		.uleb128 0x1d
 1800 0811 8C000000 		.4byte	.LASF129
 1801 0815 06       		.byte	0x6
 1802 0816 9806     		.2byte	0x698
 1803 0818 CF000000 		.4byte	0xcf
 1804 081c 1E       		.uleb128 0x1e
 1805 081d 9D050000 		.4byte	.LASF130
 1806 0821 07       		.byte	0x7
 1807 0822 E401     		.2byte	0x1e4
 1808 0824 1F       		.uleb128 0x1f
 1809 0825 B8000000 		.4byte	0xb8
 1810 0829 1F       		.uleb128 0x1f
 1811 082a 18010000 		.4byte	0x118
ARM GAS  C:\Users\jsyoon\AppData\Local\Temp\ccCYiPrk.s 			page 33


 1812 082e 00       		.byte	0
 1813 082f 00       		.byte	0
 1814              		.section	.debug_abbrev,"",%progbits
 1815              	.Ldebug_abbrev0:
 1816 0000 01       		.uleb128 0x1
 1817 0001 11       		.uleb128 0x11
 1818 0002 01       		.byte	0x1
 1819 0003 25       		.uleb128 0x25
 1820 0004 0E       		.uleb128 0xe
 1821 0005 13       		.uleb128 0x13
 1822 0006 0B       		.uleb128 0xb
 1823 0007 03       		.uleb128 0x3
 1824 0008 0E       		.uleb128 0xe
 1825 0009 1B       		.uleb128 0x1b
 1826 000a 0E       		.uleb128 0xe
 1827 000b 55       		.uleb128 0x55
 1828 000c 17       		.uleb128 0x17
 1829 000d 11       		.uleb128 0x11
 1830 000e 01       		.uleb128 0x1
 1831 000f 10       		.uleb128 0x10
 1832 0010 17       		.uleb128 0x17
 1833 0011 00       		.byte	0
 1834 0012 00       		.byte	0
 1835 0013 02       		.uleb128 0x2
 1836 0014 24       		.uleb128 0x24
 1837 0015 00       		.byte	0
 1838 0016 0B       		.uleb128 0xb
 1839 0017 0B       		.uleb128 0xb
 1840 0018 3E       		.uleb128 0x3e
 1841 0019 0B       		.uleb128 0xb
 1842 001a 03       		.uleb128 0x3
 1843 001b 0E       		.uleb128 0xe
 1844 001c 00       		.byte	0
 1845 001d 00       		.byte	0
 1846 001e 03       		.uleb128 0x3
 1847 001f 16       		.uleb128 0x16
 1848 0020 00       		.byte	0
 1849 0021 03       		.uleb128 0x3
 1850 0022 0E       		.uleb128 0xe
 1851 0023 3A       		.uleb128 0x3a
 1852 0024 0B       		.uleb128 0xb
 1853 0025 3B       		.uleb128 0x3b
 1854 0026 0B       		.uleb128 0xb
 1855 0027 49       		.uleb128 0x49
 1856 0028 13       		.uleb128 0x13
 1857 0029 00       		.byte	0
 1858 002a 00       		.byte	0
 1859 002b 04       		.uleb128 0x4
 1860 002c 24       		.uleb128 0x24
 1861 002d 00       		.byte	0
 1862 002e 0B       		.uleb128 0xb
 1863 002f 0B       		.uleb128 0xb
 1864 0030 3E       		.uleb128 0x3e
 1865 0031 0B       		.uleb128 0xb
 1866 0032 03       		.uleb128 0x3
 1867 0033 08       		.uleb128 0x8
 1868 0034 00       		.byte	0
ARM GAS  C:\Users\jsyoon\AppData\Local\Temp\ccCYiPrk.s 			page 34


 1869 0035 00       		.byte	0
 1870 0036 05       		.uleb128 0x5
 1871 0037 35       		.uleb128 0x35
 1872 0038 00       		.byte	0
 1873 0039 49       		.uleb128 0x49
 1874 003a 13       		.uleb128 0x13
 1875 003b 00       		.byte	0
 1876 003c 00       		.byte	0
 1877 003d 06       		.uleb128 0x6
 1878 003e 04       		.uleb128 0x4
 1879 003f 01       		.byte	0x1
 1880 0040 0B       		.uleb128 0xb
 1881 0041 0B       		.uleb128 0xb
 1882 0042 3A       		.uleb128 0x3a
 1883 0043 0B       		.uleb128 0xb
 1884 0044 3B       		.uleb128 0x3b
 1885 0045 05       		.uleb128 0x5
 1886 0046 01       		.uleb128 0x1
 1887 0047 13       		.uleb128 0x13
 1888 0048 00       		.byte	0
 1889 0049 00       		.byte	0
 1890 004a 07       		.uleb128 0x7
 1891 004b 28       		.uleb128 0x28
 1892 004c 00       		.byte	0
 1893 004d 03       		.uleb128 0x3
 1894 004e 0E       		.uleb128 0xe
 1895 004f 1C       		.uleb128 0x1c
 1896 0050 0D       		.uleb128 0xd
 1897 0051 00       		.byte	0
 1898 0052 00       		.byte	0
 1899 0053 08       		.uleb128 0x8
 1900 0054 28       		.uleb128 0x28
 1901 0055 00       		.byte	0
 1902 0056 03       		.uleb128 0x3
 1903 0057 08       		.uleb128 0x8
 1904 0058 1C       		.uleb128 0x1c
 1905 0059 0D       		.uleb128 0xd
 1906 005a 00       		.byte	0
 1907 005b 00       		.byte	0
 1908 005c 09       		.uleb128 0x9
 1909 005d 16       		.uleb128 0x16
 1910 005e 00       		.byte	0
 1911 005f 03       		.uleb128 0x3
 1912 0060 0E       		.uleb128 0xe
 1913 0061 3A       		.uleb128 0x3a
 1914 0062 0B       		.uleb128 0xb
 1915 0063 3B       		.uleb128 0x3b
 1916 0064 05       		.uleb128 0x5
 1917 0065 49       		.uleb128 0x49
 1918 0066 13       		.uleb128 0x13
 1919 0067 00       		.byte	0
 1920 0068 00       		.byte	0
 1921 0069 0A       		.uleb128 0xa
 1922 006a 13       		.uleb128 0x13
 1923 006b 01       		.byte	0x1
 1924 006c 0B       		.uleb128 0xb
 1925 006d 0B       		.uleb128 0xb
ARM GAS  C:\Users\jsyoon\AppData\Local\Temp\ccCYiPrk.s 			page 35


 1926 006e 3A       		.uleb128 0x3a
 1927 006f 0B       		.uleb128 0xb
 1928 0070 3B       		.uleb128 0x3b
 1929 0071 05       		.uleb128 0x5
 1930 0072 01       		.uleb128 0x1
 1931 0073 13       		.uleb128 0x13
 1932 0074 00       		.byte	0
 1933 0075 00       		.byte	0
 1934 0076 0B       		.uleb128 0xb
 1935 0077 0D       		.uleb128 0xd
 1936 0078 00       		.byte	0
 1937 0079 03       		.uleb128 0x3
 1938 007a 08       		.uleb128 0x8
 1939 007b 3A       		.uleb128 0x3a
 1940 007c 0B       		.uleb128 0xb
 1941 007d 3B       		.uleb128 0x3b
 1942 007e 05       		.uleb128 0x5
 1943 007f 49       		.uleb128 0x49
 1944 0080 13       		.uleb128 0x13
 1945 0081 38       		.uleb128 0x38
 1946 0082 0B       		.uleb128 0xb
 1947 0083 00       		.byte	0
 1948 0084 00       		.byte	0
 1949 0085 0C       		.uleb128 0xc
 1950 0086 0D       		.uleb128 0xd
 1951 0087 00       		.byte	0
 1952 0088 03       		.uleb128 0x3
 1953 0089 0E       		.uleb128 0xe
 1954 008a 3A       		.uleb128 0x3a
 1955 008b 0B       		.uleb128 0xb
 1956 008c 3B       		.uleb128 0x3b
 1957 008d 05       		.uleb128 0x5
 1958 008e 49       		.uleb128 0x49
 1959 008f 13       		.uleb128 0x13
 1960 0090 38       		.uleb128 0x38
 1961 0091 0B       		.uleb128 0xb
 1962 0092 00       		.byte	0
 1963 0093 00       		.byte	0
 1964 0094 0D       		.uleb128 0xd
 1965 0095 13       		.uleb128 0x13
 1966 0096 01       		.byte	0x1
 1967 0097 0B       		.uleb128 0xb
 1968 0098 0B       		.uleb128 0xb
 1969 0099 3A       		.uleb128 0x3a
 1970 009a 0B       		.uleb128 0xb
 1971 009b 3B       		.uleb128 0x3b
 1972 009c 0B       		.uleb128 0xb
 1973 009d 01       		.uleb128 0x1
 1974 009e 13       		.uleb128 0x13
 1975 009f 00       		.byte	0
 1976 00a0 00       		.byte	0
 1977 00a1 0E       		.uleb128 0xe
 1978 00a2 0D       		.uleb128 0xd
 1979 00a3 00       		.byte	0
 1980 00a4 03       		.uleb128 0x3
 1981 00a5 0E       		.uleb128 0xe
 1982 00a6 3A       		.uleb128 0x3a
ARM GAS  C:\Users\jsyoon\AppData\Local\Temp\ccCYiPrk.s 			page 36


 1983 00a7 0B       		.uleb128 0xb
 1984 00a8 3B       		.uleb128 0x3b
 1985 00a9 0B       		.uleb128 0xb
 1986 00aa 49       		.uleb128 0x49
 1987 00ab 13       		.uleb128 0x13
 1988 00ac 38       		.uleb128 0x38
 1989 00ad 0B       		.uleb128 0xb
 1990 00ae 00       		.byte	0
 1991 00af 00       		.byte	0
 1992 00b0 0F       		.uleb128 0xf
 1993 00b1 2E       		.uleb128 0x2e
 1994 00b2 01       		.byte	0x1
 1995 00b3 3F       		.uleb128 0x3f
 1996 00b4 19       		.uleb128 0x19
 1997 00b5 03       		.uleb128 0x3
 1998 00b6 0E       		.uleb128 0xe
 1999 00b7 3A       		.uleb128 0x3a
 2000 00b8 0B       		.uleb128 0xb
 2001 00b9 3B       		.uleb128 0x3b
 2002 00ba 0B       		.uleb128 0xb
 2003 00bb 27       		.uleb128 0x27
 2004 00bc 19       		.uleb128 0x19
 2005 00bd 11       		.uleb128 0x11
 2006 00be 01       		.uleb128 0x1
 2007 00bf 12       		.uleb128 0x12
 2008 00c0 06       		.uleb128 0x6
 2009 00c1 40       		.uleb128 0x40
 2010 00c2 18       		.uleb128 0x18
 2011 00c3 9742     		.uleb128 0x2117
 2012 00c5 19       		.uleb128 0x19
 2013 00c6 01       		.uleb128 0x1
 2014 00c7 13       		.uleb128 0x13
 2015 00c8 00       		.byte	0
 2016 00c9 00       		.byte	0
 2017 00ca 10       		.uleb128 0x10
 2018 00cb 898201   		.uleb128 0x4109
 2019 00ce 01       		.byte	0x1
 2020 00cf 11       		.uleb128 0x11
 2021 00d0 01       		.uleb128 0x1
 2022 00d1 31       		.uleb128 0x31
 2023 00d2 13       		.uleb128 0x13
 2024 00d3 01       		.uleb128 0x1
 2025 00d4 13       		.uleb128 0x13
 2026 00d5 00       		.byte	0
 2027 00d6 00       		.byte	0
 2028 00d7 11       		.uleb128 0x11
 2029 00d8 8A8201   		.uleb128 0x410a
 2030 00db 00       		.byte	0
 2031 00dc 02       		.uleb128 0x2
 2032 00dd 18       		.uleb128 0x18
 2033 00de 9142     		.uleb128 0x2111
 2034 00e0 18       		.uleb128 0x18
 2035 00e1 00       		.byte	0
 2036 00e2 00       		.byte	0
 2037 00e3 12       		.uleb128 0x12
 2038 00e4 898201   		.uleb128 0x4109
 2039 00e7 01       		.byte	0x1
ARM GAS  C:\Users\jsyoon\AppData\Local\Temp\ccCYiPrk.s 			page 37


 2040 00e8 11       		.uleb128 0x11
 2041 00e9 01       		.uleb128 0x1
 2042 00ea 9542     		.uleb128 0x2115
 2043 00ec 19       		.uleb128 0x19
 2044 00ed 31       		.uleb128 0x31
 2045 00ee 13       		.uleb128 0x13
 2046 00ef 00       		.byte	0
 2047 00f0 00       		.byte	0
 2048 00f1 13       		.uleb128 0x13
 2049 00f2 05       		.uleb128 0x5
 2050 00f3 00       		.byte	0
 2051 00f4 03       		.uleb128 0x3
 2052 00f5 0E       		.uleb128 0xe
 2053 00f6 3A       		.uleb128 0x3a
 2054 00f7 0B       		.uleb128 0xb
 2055 00f8 3B       		.uleb128 0x3b
 2056 00f9 0B       		.uleb128 0xb
 2057 00fa 49       		.uleb128 0x49
 2058 00fb 13       		.uleb128 0x13
 2059 00fc 02       		.uleb128 0x2
 2060 00fd 18       		.uleb128 0x18
 2061 00fe 00       		.byte	0
 2062 00ff 00       		.byte	0
 2063 0100 14       		.uleb128 0x14
 2064 0101 0F       		.uleb128 0xf
 2065 0102 00       		.byte	0
 2066 0103 0B       		.uleb128 0xb
 2067 0104 0B       		.uleb128 0xb
 2068 0105 49       		.uleb128 0x49
 2069 0106 13       		.uleb128 0x13
 2070 0107 00       		.byte	0
 2071 0108 00       		.byte	0
 2072 0109 15       		.uleb128 0x15
 2073 010a 2E       		.uleb128 0x2e
 2074 010b 01       		.byte	0x1
 2075 010c 3F       		.uleb128 0x3f
 2076 010d 19       		.uleb128 0x19
 2077 010e 03       		.uleb128 0x3
 2078 010f 0E       		.uleb128 0xe
 2079 0110 3A       		.uleb128 0x3a
 2080 0111 0B       		.uleb128 0xb
 2081 0112 3B       		.uleb128 0x3b
 2082 0113 05       		.uleb128 0x5
 2083 0114 27       		.uleb128 0x27
 2084 0115 19       		.uleb128 0x19
 2085 0116 11       		.uleb128 0x11
 2086 0117 01       		.uleb128 0x1
 2087 0118 12       		.uleb128 0x12
 2088 0119 06       		.uleb128 0x6
 2089 011a 40       		.uleb128 0x40
 2090 011b 18       		.uleb128 0x18
 2091 011c 9742     		.uleb128 0x2117
 2092 011e 19       		.uleb128 0x19
 2093 011f 01       		.uleb128 0x1
 2094 0120 13       		.uleb128 0x13
 2095 0121 00       		.byte	0
 2096 0122 00       		.byte	0
ARM GAS  C:\Users\jsyoon\AppData\Local\Temp\ccCYiPrk.s 			page 38


 2097 0123 16       		.uleb128 0x16
 2098 0124 05       		.uleb128 0x5
 2099 0125 00       		.byte	0
 2100 0126 03       		.uleb128 0x3
 2101 0127 0E       		.uleb128 0xe
 2102 0128 3A       		.uleb128 0x3a
 2103 0129 0B       		.uleb128 0xb
 2104 012a 3B       		.uleb128 0x3b
 2105 012b 05       		.uleb128 0x5
 2106 012c 49       		.uleb128 0x49
 2107 012d 13       		.uleb128 0x13
 2108 012e 02       		.uleb128 0x2
 2109 012f 18       		.uleb128 0x18
 2110 0130 00       		.byte	0
 2111 0131 00       		.byte	0
 2112 0132 17       		.uleb128 0x17
 2113 0133 2E       		.uleb128 0x2e
 2114 0134 00       		.byte	0
 2115 0135 3F       		.uleb128 0x3f
 2116 0136 19       		.uleb128 0x19
 2117 0137 03       		.uleb128 0x3
 2118 0138 0E       		.uleb128 0xe
 2119 0139 3A       		.uleb128 0x3a
 2120 013a 0B       		.uleb128 0xb
 2121 013b 3B       		.uleb128 0x3b
 2122 013c 05       		.uleb128 0x5
 2123 013d 27       		.uleb128 0x27
 2124 013e 19       		.uleb128 0x19
 2125 013f 11       		.uleb128 0x11
 2126 0140 01       		.uleb128 0x1
 2127 0141 12       		.uleb128 0x12
 2128 0142 06       		.uleb128 0x6
 2129 0143 40       		.uleb128 0x40
 2130 0144 18       		.uleb128 0x18
 2131 0145 9742     		.uleb128 0x2117
 2132 0147 19       		.uleb128 0x19
 2133 0148 00       		.byte	0
 2134 0149 00       		.byte	0
 2135 014a 18       		.uleb128 0x18
 2136 014b 2E       		.uleb128 0x2e
 2137 014c 00       		.byte	0
 2138 014d 3F       		.uleb128 0x3f
 2139 014e 19       		.uleb128 0x19
 2140 014f 03       		.uleb128 0x3
 2141 0150 0E       		.uleb128 0xe
 2142 0151 3A       		.uleb128 0x3a
 2143 0152 0B       		.uleb128 0xb
 2144 0153 3B       		.uleb128 0x3b
 2145 0154 05       		.uleb128 0x5
 2146 0155 27       		.uleb128 0x27
 2147 0156 19       		.uleb128 0x19
 2148 0157 49       		.uleb128 0x49
 2149 0158 13       		.uleb128 0x13
 2150 0159 11       		.uleb128 0x11
 2151 015a 01       		.uleb128 0x1
 2152 015b 12       		.uleb128 0x12
 2153 015c 06       		.uleb128 0x6
ARM GAS  C:\Users\jsyoon\AppData\Local\Temp\ccCYiPrk.s 			page 39


 2154 015d 40       		.uleb128 0x40
 2155 015e 18       		.uleb128 0x18
 2156 015f 9742     		.uleb128 0x2117
 2157 0161 19       		.uleb128 0x19
 2158 0162 00       		.byte	0
 2159 0163 00       		.byte	0
 2160 0164 19       		.uleb128 0x19
 2161 0165 2E       		.uleb128 0x2e
 2162 0166 01       		.byte	0x1
 2163 0167 3F       		.uleb128 0x3f
 2164 0168 19       		.uleb128 0x19
 2165 0169 03       		.uleb128 0x3
 2166 016a 0E       		.uleb128 0xe
 2167 016b 3A       		.uleb128 0x3a
 2168 016c 0B       		.uleb128 0xb
 2169 016d 3B       		.uleb128 0x3b
 2170 016e 05       		.uleb128 0x5
 2171 016f 27       		.uleb128 0x27
 2172 0170 19       		.uleb128 0x19
 2173 0171 49       		.uleb128 0x49
 2174 0172 13       		.uleb128 0x13
 2175 0173 11       		.uleb128 0x11
 2176 0174 01       		.uleb128 0x1
 2177 0175 12       		.uleb128 0x12
 2178 0176 06       		.uleb128 0x6
 2179 0177 40       		.uleb128 0x40
 2180 0178 18       		.uleb128 0x18
 2181 0179 9742     		.uleb128 0x2117
 2182 017b 19       		.uleb128 0x19
 2183 017c 01       		.uleb128 0x1
 2184 017d 13       		.uleb128 0x13
 2185 017e 00       		.byte	0
 2186 017f 00       		.byte	0
 2187 0180 1A       		.uleb128 0x1a
 2188 0181 05       		.uleb128 0x5
 2189 0182 00       		.byte	0
 2190 0183 03       		.uleb128 0x3
 2191 0184 0E       		.uleb128 0xe
 2192 0185 3A       		.uleb128 0x3a
 2193 0186 0B       		.uleb128 0xb
 2194 0187 3B       		.uleb128 0x3b
 2195 0188 05       		.uleb128 0x5
 2196 0189 49       		.uleb128 0x49
 2197 018a 13       		.uleb128 0x13
 2198 018b 02       		.uleb128 0x2
 2199 018c 17       		.uleb128 0x17
 2200 018d 00       		.byte	0
 2201 018e 00       		.byte	0
 2202 018f 1B       		.uleb128 0x1b
 2203 0190 34       		.uleb128 0x34
 2204 0191 00       		.byte	0
 2205 0192 03       		.uleb128 0x3
 2206 0193 0E       		.uleb128 0xe
 2207 0194 3A       		.uleb128 0x3a
 2208 0195 0B       		.uleb128 0xb
 2209 0196 3B       		.uleb128 0x3b
 2210 0197 05       		.uleb128 0x5
ARM GAS  C:\Users\jsyoon\AppData\Local\Temp\ccCYiPrk.s 			page 40


 2211 0198 49       		.uleb128 0x49
 2212 0199 13       		.uleb128 0x13
 2213 019a 02       		.uleb128 0x2
 2214 019b 18       		.uleb128 0x18
 2215 019c 00       		.byte	0
 2216 019d 00       		.byte	0
 2217 019e 1C       		.uleb128 0x1c
 2218 019f 34       		.uleb128 0x34
 2219 01a0 00       		.byte	0
 2220 01a1 03       		.uleb128 0x3
 2221 01a2 0E       		.uleb128 0xe
 2222 01a3 3A       		.uleb128 0x3a
 2223 01a4 0B       		.uleb128 0xb
 2224 01a5 3B       		.uleb128 0x3b
 2225 01a6 05       		.uleb128 0x5
 2226 01a7 49       		.uleb128 0x49
 2227 01a8 13       		.uleb128 0x13
 2228 01a9 02       		.uleb128 0x2
 2229 01aa 17       		.uleb128 0x17
 2230 01ab 00       		.byte	0
 2231 01ac 00       		.byte	0
 2232 01ad 1D       		.uleb128 0x1d
 2233 01ae 34       		.uleb128 0x34
 2234 01af 00       		.byte	0
 2235 01b0 03       		.uleb128 0x3
 2236 01b1 0E       		.uleb128 0xe
 2237 01b2 3A       		.uleb128 0x3a
 2238 01b3 0B       		.uleb128 0xb
 2239 01b4 3B       		.uleb128 0x3b
 2240 01b5 05       		.uleb128 0x5
 2241 01b6 49       		.uleb128 0x49
 2242 01b7 13       		.uleb128 0x13
 2243 01b8 3F       		.uleb128 0x3f
 2244 01b9 19       		.uleb128 0x19
 2245 01ba 3C       		.uleb128 0x3c
 2246 01bb 19       		.uleb128 0x19
 2247 01bc 00       		.byte	0
 2248 01bd 00       		.byte	0
 2249 01be 1E       		.uleb128 0x1e
 2250 01bf 2E       		.uleb128 0x2e
 2251 01c0 01       		.byte	0x1
 2252 01c1 3F       		.uleb128 0x3f
 2253 01c2 19       		.uleb128 0x19
 2254 01c3 03       		.uleb128 0x3
 2255 01c4 0E       		.uleb128 0xe
 2256 01c5 3A       		.uleb128 0x3a
 2257 01c6 0B       		.uleb128 0xb
 2258 01c7 3B       		.uleb128 0x3b
 2259 01c8 05       		.uleb128 0x5
 2260 01c9 27       		.uleb128 0x27
 2261 01ca 19       		.uleb128 0x19
 2262 01cb 3C       		.uleb128 0x3c
 2263 01cc 19       		.uleb128 0x19
 2264 01cd 00       		.byte	0
 2265 01ce 00       		.byte	0
 2266 01cf 1F       		.uleb128 0x1f
 2267 01d0 05       		.uleb128 0x5
ARM GAS  C:\Users\jsyoon\AppData\Local\Temp\ccCYiPrk.s 			page 41


 2268 01d1 00       		.byte	0
 2269 01d2 49       		.uleb128 0x49
 2270 01d3 13       		.uleb128 0x13
 2271 01d4 00       		.byte	0
 2272 01d5 00       		.byte	0
 2273 01d6 00       		.byte	0
 2274              		.section	.debug_loc,"",%progbits
 2275              	.Ldebug_loc0:
 2276              	.LLST0:
 2277 0000 00000000 		.4byte	.LVL10
 2278 0004 28000000 		.4byte	.LVL12
 2279 0008 0100     		.2byte	0x1
 2280 000a 50       		.byte	0x50
 2281 000b 28000000 		.4byte	.LVL12
 2282 000f C4000000 		.4byte	.LFE122
 2283 0013 0100     		.2byte	0x1
 2284 0015 53       		.byte	0x53
 2285 0016 00000000 		.4byte	0
 2286 001a 00000000 		.4byte	0
 2287              	.LLST1:
 2288 001e 00000000 		.4byte	.LVL10
 2289 0022 2A000000 		.4byte	.LVL13
 2290 0026 0100     		.2byte	0x1
 2291 0028 51       		.byte	0x51
 2292 0029 2A000000 		.4byte	.LVL13
 2293 002d 52000000 		.4byte	.LVL19
 2294 0031 0100     		.2byte	0x1
 2295 0033 54       		.byte	0x54
 2296 0034 52000000 		.4byte	.LVL19
 2297 0038 54000000 		.4byte	.LVL20
 2298 003c 0400     		.2byte	0x4
 2299 003e F3       		.byte	0xf3
 2300 003f 01       		.uleb128 0x1
 2301 0040 51       		.byte	0x51
 2302 0041 9F       		.byte	0x9f
 2303 0042 54000000 		.4byte	.LVL20
 2304 0046 82000000 		.4byte	.LVL21
 2305 004a 0100     		.2byte	0x1
 2306 004c 54       		.byte	0x54
 2307 004d 82000000 		.4byte	.LVL21
 2308 0051 C4000000 		.4byte	.LFE122
 2309 0055 0400     		.2byte	0x4
 2310 0057 F3       		.byte	0xf3
 2311 0058 01       		.uleb128 0x1
 2312 0059 51       		.byte	0x51
 2313 005a 9F       		.byte	0x9f
 2314 005b 00000000 		.4byte	0
 2315 005f 00000000 		.4byte	0
 2316              	.LLST2:
 2317 0063 0C000000 		.4byte	.LVL11
 2318 0067 2A000000 		.4byte	.LVL13
 2319 006b 0200     		.2byte	0x2
 2320 006d 30       		.byte	0x30
 2321 006e 9F       		.byte	0x9f
 2322 006f 2A000000 		.4byte	.LVL13
 2323 0073 46000000 		.4byte	.LVL17
 2324 0077 0100     		.2byte	0x1
ARM GAS  C:\Users\jsyoon\AppData\Local\Temp\ccCYiPrk.s 			page 42


 2325 0079 50       		.byte	0x50
 2326 007a 00000000 		.4byte	0
 2327 007e 00000000 		.4byte	0
 2328              	.LLST3:
 2329 0082 2A000000 		.4byte	.LVL13
 2330 0086 2E000000 		.4byte	.LVL14
 2331 008a 0100     		.2byte	0x1
 2332 008c 51       		.byte	0x51
 2333 008d 3E000000 		.4byte	.LVL15
 2334 0091 44000000 		.4byte	.LVL16
 2335 0095 0100     		.2byte	0x1
 2336 0097 51       		.byte	0x51
 2337 0098 00000000 		.4byte	0
 2338 009c 00000000 		.4byte	0
 2339              	.LLST4:
 2340 00a0 0C000000 		.4byte	.LVL11
 2341 00a4 4C000000 		.4byte	.LVL18
 2342 00a8 0200     		.2byte	0x2
 2343 00aa 30       		.byte	0x30
 2344 00ab 9F       		.byte	0x9f
 2345 00ac 4C000000 		.4byte	.LVL18
 2346 00b0 54000000 		.4byte	.LVL20
 2347 00b4 0100     		.2byte	0x1
 2348 00b6 50       		.byte	0x50
 2349 00b7 54000000 		.4byte	.LVL20
 2350 00bb B2000000 		.4byte	.LVL22
 2351 00bf 0200     		.2byte	0x2
 2352 00c1 30       		.byte	0x30
 2353 00c2 9F       		.byte	0x9f
 2354 00c3 B2000000 		.4byte	.LVL22
 2355 00c7 C4000000 		.4byte	.LFE122
 2356 00cb 0100     		.2byte	0x1
 2357 00cd 50       		.byte	0x50
 2358 00ce 00000000 		.4byte	0
 2359 00d2 00000000 		.4byte	0
 2360              	.LLST5:
 2361 00d6 00000000 		.4byte	.LVL24
 2362 00da 0A000000 		.4byte	.LVL25
 2363 00de 0100     		.2byte	0x1
 2364 00e0 50       		.byte	0x50
 2365 00e1 0A000000 		.4byte	.LVL25
 2366 00e5 12000000 		.4byte	.LVL26
 2367 00e9 0400     		.2byte	0x4
 2368 00eb F3       		.byte	0xf3
 2369 00ec 01       		.uleb128 0x1
 2370 00ed 50       		.byte	0x50
 2371 00ee 9F       		.byte	0x9f
 2372 00ef 12000000 		.4byte	.LVL26
 2373 00f3 14000000 		.4byte	.LVL27
 2374 00f7 0100     		.2byte	0x1
 2375 00f9 50       		.byte	0x50
 2376 00fa 14000000 		.4byte	.LVL27
 2377 00fe 1C000000 		.4byte	.LFE124
 2378 0102 0400     		.2byte	0x4
 2379 0104 F3       		.byte	0xf3
 2380 0105 01       		.uleb128 0x1
 2381 0106 50       		.byte	0x50
ARM GAS  C:\Users\jsyoon\AppData\Local\Temp\ccCYiPrk.s 			page 43


 2382 0107 9F       		.byte	0x9f
 2383 0108 00000000 		.4byte	0
 2384 010c 00000000 		.4byte	0
 2385              	.LLST6:
 2386 0110 00000000 		.4byte	.LVL28
 2387 0114 0A000000 		.4byte	.LVL29
 2388 0118 0100     		.2byte	0x1
 2389 011a 50       		.byte	0x50
 2390 011b 0A000000 		.4byte	.LVL29
 2391 011f 12000000 		.4byte	.LVL30
 2392 0123 0400     		.2byte	0x4
 2393 0125 F3       		.byte	0xf3
 2394 0126 01       		.uleb128 0x1
 2395 0127 50       		.byte	0x50
 2396 0128 9F       		.byte	0x9f
 2397 0129 12000000 		.4byte	.LVL30
 2398 012d 14000000 		.4byte	.LVL31
 2399 0131 0100     		.2byte	0x1
 2400 0133 50       		.byte	0x50
 2401 0134 14000000 		.4byte	.LVL31
 2402 0138 1C000000 		.4byte	.LFE125
 2403 013c 0400     		.2byte	0x4
 2404 013e F3       		.byte	0xf3
 2405 013f 01       		.uleb128 0x1
 2406 0140 50       		.byte	0x50
 2407 0141 9F       		.byte	0x9f
 2408 0142 00000000 		.4byte	0
 2409 0146 00000000 		.4byte	0
 2410              	.LLST7:
 2411 014a 00000000 		.4byte	.LVL32
 2412 014e 0C000000 		.4byte	.LVL34
 2413 0152 0100     		.2byte	0x1
 2414 0154 50       		.byte	0x50
 2415 0155 0C000000 		.4byte	.LVL34
 2416 0159 14000000 		.4byte	.LFE126
 2417 015d 0400     		.2byte	0x4
 2418 015f F3       		.byte	0xf3
 2419 0160 01       		.uleb128 0x1
 2420 0161 50       		.byte	0x50
 2421 0162 9F       		.byte	0x9f
 2422 0163 00000000 		.4byte	0
 2423 0167 00000000 		.4byte	0
 2424              	.LLST8:
 2425 016b 00000000 		.4byte	.LVL32
 2426 016f 04000000 		.4byte	.LVL33
 2427 0173 0200     		.2byte	0x2
 2428 0175 30       		.byte	0x30
 2429 0176 9F       		.byte	0x9f
 2430 0177 04000000 		.4byte	.LVL33
 2431 017b 0C000000 		.4byte	.LVL34
 2432 017f 0B00     		.2byte	0xb
 2433 0181 70       		.byte	0x70
 2434 0182 00       		.sleb128 0
 2435 0183 08       		.byte	0x8
 2436 0184 FF       		.byte	0xff
 2437 0185 1A       		.byte	0x1a
 2438 0186 73       		.byte	0x73
ARM GAS  C:\Users\jsyoon\AppData\Local\Temp\ccCYiPrk.s 			page 44


 2439 0187 00       		.sleb128 0
 2440 0188 1A       		.byte	0x1a
 2441 0189 30       		.byte	0x30
 2442 018a 2E       		.byte	0x2e
 2443 018b 9F       		.byte	0x9f
 2444 018c 0C000000 		.4byte	.LVL34
 2445 0190 14000000 		.4byte	.LFE126
 2446 0194 0C00     		.2byte	0xc
 2447 0196 F3       		.byte	0xf3
 2448 0197 01       		.uleb128 0x1
 2449 0198 50       		.byte	0x50
 2450 0199 08       		.byte	0x8
 2451 019a FF       		.byte	0xff
 2452 019b 1A       		.byte	0x1a
 2453 019c 73       		.byte	0x73
 2454 019d 00       		.sleb128 0
 2455 019e 1A       		.byte	0x1a
 2456 019f 30       		.byte	0x30
 2457 01a0 2E       		.byte	0x2e
 2458 01a1 9F       		.byte	0x9f
 2459 01a2 00000000 		.4byte	0
 2460 01a6 00000000 		.4byte	0
 2461              	.LLST9:
 2462 01aa 00000000 		.4byte	.LVL35
 2463 01ae 12000000 		.4byte	.LVL38
 2464 01b2 0100     		.2byte	0x1
 2465 01b4 50       		.byte	0x50
 2466 01b5 12000000 		.4byte	.LVL38
 2467 01b9 18000000 		.4byte	.LFE127
 2468 01bd 0400     		.2byte	0x4
 2469 01bf F3       		.byte	0xf3
 2470 01c0 01       		.uleb128 0x1
 2471 01c1 50       		.byte	0x50
 2472 01c2 9F       		.byte	0x9f
 2473 01c3 00000000 		.4byte	0
 2474 01c7 00000000 		.4byte	0
 2475              	.LLST10:
 2476 01cb 00000000 		.4byte	.LVL35
 2477 01cf 0A000000 		.4byte	.LVL37
 2478 01d3 0200     		.2byte	0x2
 2479 01d5 30       		.byte	0x30
 2480 01d6 9F       		.byte	0x9f
 2481 01d7 0A000000 		.4byte	.LVL37
 2482 01db 12000000 		.4byte	.LVL38
 2483 01df 0B00     		.2byte	0xb
 2484 01e1 70       		.byte	0x70
 2485 01e2 00       		.sleb128 0
 2486 01e3 08       		.byte	0x8
 2487 01e4 FF       		.byte	0xff
 2488 01e5 1A       		.byte	0x1a
 2489 01e6 73       		.byte	0x73
 2490 01e7 00       		.sleb128 0
 2491 01e8 1A       		.byte	0x1a
 2492 01e9 30       		.byte	0x30
 2493 01ea 2E       		.byte	0x2e
 2494 01eb 9F       		.byte	0x9f
 2495 01ec 00000000 		.4byte	0
ARM GAS  C:\Users\jsyoon\AppData\Local\Temp\ccCYiPrk.s 			page 45


 2496 01f0 00000000 		.4byte	0
 2497              	.LLST11:
 2498 01f4 00000000 		.4byte	.LVL35
 2499 01f8 08000000 		.4byte	.LVL36
 2500 01fc 0200     		.2byte	0x2
 2501 01fe 30       		.byte	0x30
 2502 01ff 9F       		.byte	0x9f
 2503 0200 08000000 		.4byte	.LVL36
 2504 0204 18000000 		.4byte	.LFE127
 2505 0208 0100     		.2byte	0x1
 2506 020a 53       		.byte	0x53
 2507 020b 00000000 		.4byte	0
 2508 020f 00000000 		.4byte	0
 2509              		.section	.debug_aranges,"",%progbits
 2510 0000 9C000000 		.4byte	0x9c
 2511 0004 0200     		.2byte	0x2
 2512 0006 00000000 		.4byte	.Ldebug_info0
 2513 000a 04       		.byte	0x4
 2514 000b 00       		.byte	0
 2515 000c 0000     		.2byte	0
 2516 000e 0000     		.2byte	0
 2517 0010 00000000 		.4byte	.LFB111
 2518 0014 16000000 		.4byte	.LFE111-.LFB111
 2519 0018 00000000 		.4byte	.LFB112
 2520 001c 5C000000 		.4byte	.LFE112-.LFB112
 2521 0020 00000000 		.4byte	.LFB113
 2522 0024 0C000000 		.4byte	.LFE113-.LFB113
 2523 0028 00000000 		.4byte	.LFB114
 2524 002c 28000000 		.4byte	.LFE114-.LFB114
 2525 0030 00000000 		.4byte	.LFB115
 2526 0034 14000000 		.4byte	.LFE115-.LFB115
 2527 0038 00000000 		.4byte	.LFB116
 2528 003c 18000000 		.4byte	.LFE116-.LFB116
 2529 0040 00000000 		.4byte	.LFB117
 2530 0044 0C000000 		.4byte	.LFE117-.LFB117
 2531 0048 00000000 		.4byte	.LFB118
 2532 004c 10000000 		.4byte	.LFE118-.LFB118
 2533 0050 00000000 		.4byte	.LFB119
 2534 0054 1C000000 		.4byte	.LFE119-.LFB119
 2535 0058 00000000 		.4byte	.LFB120
 2536 005c 0C000000 		.4byte	.LFE120-.LFB120
 2537 0060 00000000 		.4byte	.LFB121
 2538 0064 0C000000 		.4byte	.LFE121-.LFB121
 2539 0068 00000000 		.4byte	.LFB122
 2540 006c C4000000 		.4byte	.LFE122-.LFB122
 2541 0070 00000000 		.4byte	.LFB123
 2542 0074 44000000 		.4byte	.LFE123-.LFB123
 2543 0078 00000000 		.4byte	.LFB124
 2544 007c 1C000000 		.4byte	.LFE124-.LFB124
 2545 0080 00000000 		.4byte	.LFB125
 2546 0084 1C000000 		.4byte	.LFE125-.LFB125
 2547 0088 00000000 		.4byte	.LFB126
 2548 008c 14000000 		.4byte	.LFE126-.LFB126
 2549 0090 00000000 		.4byte	.LFB127
 2550 0094 18000000 		.4byte	.LFE127-.LFB127
 2551 0098 00000000 		.4byte	0
 2552 009c 00000000 		.4byte	0
ARM GAS  C:\Users\jsyoon\AppData\Local\Temp\ccCYiPrk.s 			page 46


 2553              		.section	.debug_ranges,"",%progbits
 2554              	.Ldebug_ranges0:
 2555 0000 00000000 		.4byte	.LFB111
 2556 0004 16000000 		.4byte	.LFE111
 2557 0008 00000000 		.4byte	.LFB112
 2558 000c 5C000000 		.4byte	.LFE112
 2559 0010 00000000 		.4byte	.LFB113
 2560 0014 0C000000 		.4byte	.LFE113
 2561 0018 00000000 		.4byte	.LFB114
 2562 001c 28000000 		.4byte	.LFE114
 2563 0020 00000000 		.4byte	.LFB115
 2564 0024 14000000 		.4byte	.LFE115
 2565 0028 00000000 		.4byte	.LFB116
 2566 002c 18000000 		.4byte	.LFE116
 2567 0030 00000000 		.4byte	.LFB117
 2568 0034 0C000000 		.4byte	.LFE117
 2569 0038 00000000 		.4byte	.LFB118
 2570 003c 10000000 		.4byte	.LFE118
 2571 0040 00000000 		.4byte	.LFB119
 2572 0044 1C000000 		.4byte	.LFE119
 2573 0048 00000000 		.4byte	.LFB120
 2574 004c 0C000000 		.4byte	.LFE120
 2575 0050 00000000 		.4byte	.LFB121
 2576 0054 0C000000 		.4byte	.LFE121
 2577 0058 00000000 		.4byte	.LFB122
 2578 005c C4000000 		.4byte	.LFE122
 2579 0060 00000000 		.4byte	.LFB123
 2580 0064 44000000 		.4byte	.LFE123
 2581 0068 00000000 		.4byte	.LFB124
 2582 006c 1C000000 		.4byte	.LFE124
 2583 0070 00000000 		.4byte	.LFB125
 2584 0074 1C000000 		.4byte	.LFE125
 2585 0078 00000000 		.4byte	.LFB126
 2586 007c 14000000 		.4byte	.LFE126
 2587 0080 00000000 		.4byte	.LFB127
 2588 0084 18000000 		.4byte	.LFE127
 2589 0088 00000000 		.4byte	0
 2590 008c 00000000 		.4byte	0
 2591              		.section	.debug_line,"",%progbits
 2592              	.Ldebug_line0:
 2593 0000 91030000 		.section	.debug_str,"MS",%progbits,1
 2593      0200BF01 
 2593      00000201 
 2593      FB0E0D00 
 2593      01010101 
 2594              	.LASF60:
 2595 0000 43525950 		.ascii	"CRYP_TypeDef\000"
 2595      5F547970 
 2595      65446566 
 2595      00
 2596              	.LASF71:
 2597 000d 43525950 		.ascii	"CRYP_Key2Right\000"
 2597      5F4B6579 
 2597      32526967 
 2597      687400
 2598              	.LASF105:
 2599 001c 4E657753 		.ascii	"NewState\000"
ARM GAS  C:\Users\jsyoon\AppData\Local\Temp\ccCYiPrk.s 			page 47


 2599      74617465 
 2599      00
 2600              	.LASF19:
 2601 0025 466C6167 		.ascii	"FlagStatus\000"
 2601      53746174 
 2601      757300
 2602              	.LASF27:
 2603 0030 444F5554 		.ascii	"DOUT\000"
 2603      00
 2604              	.LASF3:
 2605 0035 5F5F7569 		.ascii	"__uint8_t\000"
 2605      6E74385F 
 2605      7400
 2606              	.LASF79:
 2607 003f 43525950 		.ascii	"CRYP_IVInitTypeDef\000"
 2607      5F495649 
 2607      6E697454 
 2607      79706544 
 2607      656600
 2608              	.LASF58:
 2609 0052 43534743 		.ascii	"CSGCM6R\000"
 2609      4D365200 
 2610              	.LASF21:
 2611 005a 44495341 		.ascii	"DISABLE\000"
 2611      424C4500 
 2612              	.LASF118:
 2613 0062 43525950 		.ascii	"CRYP_IT\000"
 2613      5F495400 
 2614              	.LASF11:
 2615 006a 6C6F6E67 		.ascii	"long long unsigned int\000"
 2615      206C6F6E 
 2615      6720756E 
 2615      7369676E 
 2615      65642069 
 2616              	.LASF51:
 2617 0081 43534743 		.ascii	"CSGCMCCM7R\000"
 2617      4D43434D 
 2617      375200
 2618              	.LASF129:
 2619 008c 49544D5F 		.ascii	"ITM_RxBuffer\000"
 2619      52784275 
 2619      66666572 
 2619      00
 2620              	.LASF37:
 2621 0099 4B325252 		.ascii	"K2RR\000"
 2621      00
 2622              	.LASF108:
 2623 009e 43525950 		.ascii	"CRYP_ContextSave\000"
 2623      5F436F6E 
 2623      74657874 
 2623      53617665 
 2623      00
 2624              	.LASF41:
 2625 00af 49563052 		.ascii	"IV0RR\000"
 2625      5200
 2626              	.LASF80:
 2627 00b5 43525F62 		.ascii	"CR_bits9to2\000"
ARM GAS  C:\Users\jsyoon\AppData\Local\Temp\ccCYiPrk.s 			page 48


 2627      69747339 
 2627      746F3200 
 2628              	.LASF10:
 2629 00c1 6C6F6E67 		.ascii	"long long int\000"
 2629      206C6F6E 
 2629      6720696E 
 2629      7400
 2630              	.LASF0:
 2631 00cf 7369676E 		.ascii	"signed char\000"
 2631      65642063 
 2631      68617200 
 2632              	.LASF75:
 2633 00db 43525950 		.ascii	"CRYP_IV0Left\000"
 2633      5F495630 
 2633      4C656674 
 2633      00
 2634              	.LASF42:
 2635 00e8 4956314C 		.ascii	"IV1LR\000"
 2635      5200
 2636              	.LASF44:
 2637 00ee 43534743 		.ascii	"CSGCMCCM0R\000"
 2637      4D43434D 
 2637      305200
 2638              	.LASF126:
 2639 00f9 453A5C4D 		.ascii	"E:\\Maker\\BLDC\\test_eval\\try2\\OROCA-BLDC_R15080"
 2639      616B6572 
 2639      5C424C44 
 2639      435C7465 
 2639      73745F65 
 2640 0127 3700     		.ascii	"7\000"
 2641              	.LASF104:
 2642 0129 43525950 		.ascii	"CRYP_Cmd\000"
 2642      5F436D64 
 2642      00
 2643              	.LASF7:
 2644 0132 6C6F6E67 		.ascii	"long int\000"
 2644      20696E74 
 2644      00
 2645              	.LASF22:
 2646 013b 454E4142 		.ascii	"ENABLE\000"
 2646      4C4500
 2647              	.LASF59:
 2648 0142 43534743 		.ascii	"CSGCM7R\000"
 2648      4D375200 
 2649              	.LASF114:
 2650 014a 43525950 		.ascii	"CRYP_ContextRestore\000"
 2650      5F436F6E 
 2650      74657874 
 2650      52657374 
 2650      6F726500 
 2651              	.LASF128:
 2652 015e 43525950 		.ascii	"CRYP_DataOut\000"
 2652      5F446174 
 2652      614F7574 
 2652      00
 2653              	.LASF116:
 2654 016b 43525950 		.ascii	"CRYP_DMAReq\000"
ARM GAS  C:\Users\jsyoon\AppData\Local\Temp\ccCYiPrk.s 			page 49


 2654      5F444D41 
 2654      52657100 
 2655              	.LASF92:
 2656 0177 43525950 		.ascii	"CRYP_K3RR\000"
 2656      5F4B3352 
 2656      5200
 2657              	.LASF117:
 2658 0181 43525950 		.ascii	"CRYP_ITConfig\000"
 2658      5F495443 
 2658      6F6E6669 
 2658      6700
 2659              	.LASF14:
 2660 018f 75696E74 		.ascii	"uint16_t\000"
 2660      31365F74 
 2660      00
 2661              	.LASF94:
 2662 0198 43525950 		.ascii	"CRYP_DeInit\000"
 2662      5F446549 
 2662      6E697400 
 2663              	.LASF100:
 2664 01a4 43525950 		.ascii	"CRYP_KeyStructInit\000"
 2664      5F4B6579 
 2664      53747275 
 2664      6374496E 
 2664      697400
 2665              	.LASF8:
 2666 01b7 5F5F7569 		.ascii	"__uint32_t\000"
 2666      6E743332 
 2666      5F7400
 2667              	.LASF52:
 2668 01c2 43534743 		.ascii	"CSGCM0R\000"
 2668      4D305200 
 2669              	.LASF26:
 2670 01ca 4572726F 		.ascii	"ErrorStatus\000"
 2670      72537461 
 2670      74757300 
 2671              	.LASF111:
 2672 01d6 62697473 		.ascii	"bitstatus\000"
 2672      74617475 
 2672      7300
 2673              	.LASF35:
 2674 01e0 4B315252 		.ascii	"K1RR\000"
 2674      00
 2675              	.LASF45:
 2676 01e5 43534743 		.ascii	"CSGCMCCM1R\000"
 2676      4D43434D 
 2676      315200
 2677              	.LASF20:
 2678 01f0 49545374 		.ascii	"ITStatus\000"
 2678      61747573 
 2678      00
 2679              	.LASF76:
 2680 01f9 43525950 		.ascii	"CRYP_IV0Right\000"
 2680      5F495630 
 2680      52696768 
 2680      7400
 2681              	.LASF12:
ARM GAS  C:\Users\jsyoon\AppData\Local\Temp\ccCYiPrk.s 			page 50


 2682 0207 756E7369 		.ascii	"unsigned int\000"
 2682      676E6564 
 2682      20696E74 
 2682      00
 2683              	.LASF30:
 2684 0214 52495352 		.ascii	"RISR\000"
 2684      00
 2685              	.LASF96:
 2686 0219 43525950 		.ascii	"CRYP_StructInit\000"
 2686      5F537472 
 2686      75637449 
 2686      6E697400 
 2687              	.LASF36:
 2688 0229 4B324C52 		.ascii	"K2LR\000"
 2688      00
 2689              	.LASF40:
 2690 022e 4956304C 		.ascii	"IV0LR\000"
 2690      5200
 2691              	.LASF65:
 2692 0234 43525950 		.ascii	"CRYP_InitTypeDef\000"
 2692      5F496E69 
 2692      74547970 
 2692      65446566 
 2692      00
 2693              	.LASF9:
 2694 0245 6C6F6E67 		.ascii	"long unsigned int\000"
 2694      20756E73 
 2694      69676E65 
 2694      6420696E 
 2694      7400
 2695              	.LASF109:
 2696 0257 74696D65 		.ascii	"timeout\000"
 2696      6F757400 
 2697              	.LASF46:
 2698 025f 43534743 		.ascii	"CSGCMCCM2R\000"
 2698      4D43434D 
 2698      325200
 2699              	.LASF101:
 2700 026a 43525950 		.ascii	"CRYP_IVInit\000"
 2700      5F495649 
 2700      6E697400 
 2701              	.LASF72:
 2702 0276 43525950 		.ascii	"CRYP_Key3Left\000"
 2702      5F4B6579 
 2702      334C6566 
 2702      7400
 2703              	.LASF5:
 2704 0284 73686F72 		.ascii	"short unsigned int\000"
 2704      7420756E 
 2704      7369676E 
 2704      65642069 
 2704      6E7400
 2705              	.LASF34:
 2706 0297 4B314C52 		.ascii	"K1LR\000"
 2706      00
 2707              	.LASF84:
 2708 029c 43525950 		.ascii	"CRYP_IV1RR\000"
ARM GAS  C:\Users\jsyoon\AppData\Local\Temp\ccCYiPrk.s 			page 51


 2708      5F495631 
 2708      525200
 2709              	.LASF90:
 2710 02a7 43525950 		.ascii	"CRYP_K2RR\000"
 2710      5F4B3252 
 2710      5200
 2711              	.LASF53:
 2712 02b1 43534743 		.ascii	"CSGCM1R\000"
 2712      4D315200 
 2713              	.LASF91:
 2714 02b9 43525950 		.ascii	"CRYP_K3LR\000"
 2714      5F4B334C 
 2714      5200
 2715              	.LASF78:
 2716 02c3 43525950 		.ascii	"CRYP_IV1Right\000"
 2716      5F495631 
 2716      52696768 
 2716      7400
 2717              	.LASF103:
 2718 02d1 43525950 		.ascii	"CRYP_IVStructInit\000"
 2718      5F495653 
 2718      74727563 
 2718      74496E69 
 2718      7400
 2719              	.LASF6:
 2720 02e3 5F5F696E 		.ascii	"__int32_t\000"
 2720      7433325F 
 2720      7400
 2721              	.LASF125:
 2722 02ed 43686962 		.ascii	"ChibiOS_2.6.6/ext/stdperiph_stm32f4/src/stm32f4xx_c"
 2722      694F535F 
 2722      322E362E 
 2722      362F6578 
 2722      742F7374 
 2723 0320 7279702E 		.ascii	"ryp.c\000"
 2723      6300
 2724              	.LASF93:
 2725 0326 43525950 		.ascii	"CRYP_Context\000"
 2725      5F436F6E 
 2725      74657874 
 2725      00
 2726              	.LASF33:
 2727 0333 4B305252 		.ascii	"K0RR\000"
 2727      00
 2728              	.LASF66:
 2729 0338 43525950 		.ascii	"CRYP_Key0Left\000"
 2729      5F4B6579 
 2729      304C6566 
 2729      7400
 2730              	.LASF17:
 2731 0346 73697A65 		.ascii	"sizetype\000"
 2731      74797065 
 2731      00
 2732              	.LASF113:
 2733 034f 43525950 		.ascii	"CRYP_RestoreContext\000"
 2733      5F526573 
 2733      746F7265 
ARM GAS  C:\Users\jsyoon\AppData\Local\Temp\ccCYiPrk.s 			page 52


 2733      436F6E74 
 2733      65787400 
 2734              	.LASF24:
 2735 0363 4552524F 		.ascii	"ERROR\000"
 2735      5200
 2736              	.LASF98:
 2737 0369 43525950 		.ascii	"CRYP_KeyInit\000"
 2737      5F4B6579 
 2737      496E6974 
 2737      00
 2738              	.LASF62:
 2739 0376 43525950 		.ascii	"CRYP_AlgoMode\000"
 2739      5F416C67 
 2739      6F4D6F64 
 2739      6500
 2740              	.LASF99:
 2741 0384 43525950 		.ascii	"CRYP_KeyInitStruct\000"
 2741      5F4B6579 
 2741      496E6974 
 2741      53747275 
 2741      637400
 2742              	.LASF68:
 2743 0397 43525950 		.ascii	"CRYP_Key1Left\000"
 2743      5F4B6579 
 2743      314C6566 
 2743      7400
 2744              	.LASF64:
 2745 03a5 43525950 		.ascii	"CRYP_KeySize\000"
 2745      5F4B6579 
 2745      53697A65 
 2745      00
 2746              	.LASF119:
 2747 03b2 43525950 		.ascii	"CRYP_SaveContext\000"
 2747      5F536176 
 2747      65436F6E 
 2747      74657874 
 2747      00
 2748              	.LASF54:
 2749 03c3 43534743 		.ascii	"CSGCM2R\000"
 2749      4D325200 
 2750              	.LASF23:
 2751 03cb 46756E63 		.ascii	"FunctionalState\000"
 2751      74696F6E 
 2751      616C5374 
 2751      61746500 
 2752              	.LASF47:
 2753 03db 43534743 		.ascii	"CSGCMCCM3R\000"
 2753      4D43434D 
 2753      335200
 2754              	.LASF97:
 2755 03e6 43525950 		.ascii	"CRYP_InitStruct\000"
 2755      5F496E69 
 2755      74537472 
 2755      75637400 
 2756              	.LASF82:
 2757 03f6 43525950 		.ascii	"CRYP_IV0RR\000"
 2757      5F495630 
ARM GAS  C:\Users\jsyoon\AppData\Local\Temp\ccCYiPrk.s 			page 53


 2757      525200
 2758              	.LASF88:
 2759 0401 43525950 		.ascii	"CRYP_K1RR\000"
 2759      5F4B3152 
 2759      5200
 2760              	.LASF124:
 2761 040b 474E5520 		.ascii	"GNU C 4.8.4 20140526 (release) [ARM/embedded-4_8-br"
 2761      4320342E 
 2761      382E3420 
 2761      32303134 
 2761      30353236 
 2762 043e 616E6368 		.ascii	"anch revision 211358] -mcpu=cortex-m4 -mfloat-abi=h"
 2762      20726576 
 2762      6973696F 
 2762      6E203231 
 2762      31333538 
 2763 0471 61726420 		.ascii	"ard -mfpu=fpv4-sp-d16 -mno-thumb-interwork -mthumb "
 2763      2D6D6670 
 2763      753D6670 
 2763      76342D73 
 2763      702D6431 
 2764 04a4 2D676764 		.ascii	"-ggdb -O2 -std=gnu99 -fomit-frame-pointer -falign-f"
 2764      62202D4F 
 2764      32202D73 
 2764      74643D67 
 2764      6E753939 
 2765 04d7 756E6374 		.ascii	"unctions=16 -ffunction-sections -fdata-sections -fn"
 2765      696F6E73 
 2765      3D313620 
 2765      2D666675 
 2765      6E637469 
 2766 050a 6F2D636F 		.ascii	"o-common -fsingle-precision-constant\000"
 2766      6D6D6F6E 
 2766      202D6673 
 2766      696E676C 
 2766      652D7072 
 2767              	.LASF83:
 2768 052f 43525950 		.ascii	"CRYP_IV1LR\000"
 2768      5F495631 
 2768      4C5200
 2769              	.LASF89:
 2770 053a 43525950 		.ascii	"CRYP_K2LR\000"
 2770      5F4B324C 
 2770      5200
 2771              	.LASF18:
 2772 0544 52455345 		.ascii	"RESET\000"
 2772      5400
 2773              	.LASF31:
 2774 054a 4D495352 		.ascii	"MISR\000"
 2774      00
 2775              	.LASF63:
 2776 054f 43525950 		.ascii	"CRYP_DataType\000"
 2776      5F446174 
 2776      61547970 
 2776      6500
 2777              	.LASF15:
 2778 055d 696E7433 		.ascii	"int32_t\000"
ARM GAS  C:\Users\jsyoon\AppData\Local\Temp\ccCYiPrk.s 			page 54


 2778      325F7400 
 2779              	.LASF1:
 2780 0565 756E7369 		.ascii	"unsigned char\000"
 2780      676E6564 
 2780      20636861 
 2780      7200
 2781              	.LASF2:
 2782 0573 73686F72 		.ascii	"short int\000"
 2782      7420696E 
 2782      7400
 2783              	.LASF55:
 2784 057d 43534743 		.ascii	"CSGCM3R\000"
 2784      4D335200 
 2785              	.LASF123:
 2786 0585 74656D70 		.ascii	"tempreg\000"
 2786      72656700 
 2787              	.LASF32:
 2788 058d 4B304C52 		.ascii	"K0LR\000"
 2788      00
 2789              	.LASF48:
 2790 0592 43534743 		.ascii	"CSGCMCCM4R\000"
 2790      4D43434D 
 2790      345200
 2791              	.LASF130:
 2792 059d 5243435F 		.ascii	"RCC_AHB2PeriphResetCmd\000"
 2792      41484232 
 2792      50657269 
 2792      70685265 
 2792      73657443 
 2793              	.LASF102:
 2794 05b4 43525950 		.ascii	"CRYP_IVInitStruct\000"
 2794      5F495649 
 2794      6E697453 
 2794      74727563 
 2794      7400
 2795              	.LASF38:
 2796 05c6 4B334C52 		.ascii	"K3LR\000"
 2796      00
 2797              	.LASF70:
 2798 05cb 43525950 		.ascii	"CRYP_Key2Left\000"
 2798      5F4B6579 
 2798      324C6566 
 2798      7400
 2799              	.LASF67:
 2800 05d9 43525950 		.ascii	"CRYP_Key0Right\000"
 2800      5F4B6579 
 2800      30526967 
 2800      687400
 2801              	.LASF86:
 2802 05e8 43525950 		.ascii	"CRYP_K0RR\000"
 2802      5F4B3052 
 2802      5200
 2803              	.LASF4:
 2804 05f2 5F5F7569 		.ascii	"__uint16_t\000"
 2804      6E743136 
 2804      5F7400
 2805              	.LASF106:
ARM GAS  C:\Users\jsyoon\AppData\Local\Temp\ccCYiPrk.s 			page 55


 2806 05fd 43525950 		.ascii	"CRYP_DataIn\000"
 2806      5F446174 
 2806      61496E00 
 2807              	.LASF77:
 2808 0609 43525950 		.ascii	"CRYP_IV1Left\000"
 2808      5F495631 
 2808      4C656674 
 2808      00
 2809              	.LASF81:
 2810 0616 43525950 		.ascii	"CRYP_IV0LR\000"
 2810      5F495630 
 2810      4C5200
 2811              	.LASF87:
 2812 0621 43525950 		.ascii	"CRYP_K1LR\000"
 2812      5F4B314C 
 2812      5200
 2813              	.LASF56:
 2814 062b 43534743 		.ascii	"CSGCM4R\000"
 2814      4D345200 
 2815              	.LASF29:
 2816 0633 494D5343 		.ascii	"IMSCR\000"
 2816      5200
 2817              	.LASF74:
 2818 0639 43525950 		.ascii	"CRYP_KeyInitTypeDef\000"
 2818      5F4B6579 
 2818      496E6974 
 2818      54797065 
 2818      44656600 
 2819              	.LASF49:
 2820 064d 43534743 		.ascii	"CSGCMCCM5R\000"
 2820      4D43434D 
 2820      355200
 2821              	.LASF110:
 2822 0658 636B6563 		.ascii	"ckeckmask\000"
 2822      6B6D6173 
 2822      6B00
 2823              	.LASF16:
 2824 0662 75696E74 		.ascii	"uint32_t\000"
 2824      33325F74 
 2824      00
 2825              	.LASF95:
 2826 066b 43525950 		.ascii	"CRYP_Init\000"
 2826      5F496E69 
 2826      7400
 2827              	.LASF112:
 2828 0675 73746174 		.ascii	"status\000"
 2828      757300
 2829              	.LASF69:
 2830 067c 43525950 		.ascii	"CRYP_Key1Right\000"
 2830      5F4B6579 
 2830      31526967 
 2830      687400
 2831              	.LASF13:
 2832 068b 75696E74 		.ascii	"uint8_t\000"
 2832      385F7400 
 2833              	.LASF107:
 2834 0693 44617461 		.ascii	"Data\000"
ARM GAS  C:\Users\jsyoon\AppData\Local\Temp\ccCYiPrk.s 			page 56


 2834      00
 2835              	.LASF25:
 2836 0698 53554343 		.ascii	"SUCCESS\000"
 2836      45535300 
 2837              	.LASF120:
 2838 06a0 43525950 		.ascii	"CRYP_GetITStatus\000"
 2838      5F476574 
 2838      49545374 
 2838      61747573 
 2838      00
 2839              	.LASF61:
 2840 06b1 43525950 		.ascii	"CRYP_AlgoDir\000"
 2840      5F416C67 
 2840      6F446972 
 2840      00
 2841              	.LASF121:
 2842 06be 43525950 		.ascii	"CRYP_GetFlagStatus\000"
 2842      5F476574 
 2842      466C6167 
 2842      53746174 
 2842      757300
 2843              	.LASF28:
 2844 06d1 444D4143 		.ascii	"DMACR\000"
 2844      5200
 2845              	.LASF127:
 2846 06d7 43525950 		.ascii	"CRYP_FIFOFlush\000"
 2846      5F464946 
 2846      4F466C75 
 2846      736800
 2847              	.LASF57:
 2848 06e6 43534743 		.ascii	"CSGCM5R\000"
 2848      4D355200 
 2849              	.LASF39:
 2850 06ee 4B335252 		.ascii	"K3RR\000"
 2850      00
 2851              	.LASF43:
 2852 06f3 49563152 		.ascii	"IV1RR\000"
 2852      5200
 2853              	.LASF115:
 2854 06f9 43525950 		.ascii	"CRYP_DMACmd\000"
 2854      5F444D41 
 2854      436D6400 
 2855              	.LASF50:
 2856 0705 43534743 		.ascii	"CSGCMCCM6R\000"
 2856      4D43434D 
 2856      365200
 2857              	.LASF85:
 2858 0710 43525950 		.ascii	"CRYP_K0LR\000"
 2858      5F4B304C 
 2858      5200
 2859              	.LASF73:
 2860 071a 43525950 		.ascii	"CRYP_Key3Right\000"
 2860      5F4B6579 
 2860      33526967 
 2860      687400
 2861              	.LASF122:
 2862 0729 43525950 		.ascii	"CRYP_FLAG\000"
ARM GAS  C:\Users\jsyoon\AppData\Local\Temp\ccCYiPrk.s 			page 57


 2862      5F464C41 
 2862      4700
 2863              		.ident	"GCC: (GNU Tools for ARM Embedded Processors) 4.8.4 20140526 (release) [ARM/embedded-4_8-br
ARM GAS  C:\Users\jsyoon\AppData\Local\Temp\ccCYiPrk.s 			page 58


DEFINED SYMBOLS
                            *ABS*:00000000 stm32f4xx_cryp.c
C:\Users\jsyoon\AppData\Local\Temp\ccCYiPrk.s:21     .text.CRYP_DeInit:00000000 $t
C:\Users\jsyoon\AppData\Local\Temp\ccCYiPrk.s:27     .text.CRYP_DeInit:00000000 CRYP_DeInit
C:\Users\jsyoon\AppData\Local\Temp\ccCYiPrk.s:55     .text.CRYP_Init:00000000 $t
C:\Users\jsyoon\AppData\Local\Temp\ccCYiPrk.s:61     .text.CRYP_Init:00000000 CRYP_Init
C:\Users\jsyoon\AppData\Local\Temp\ccCYiPrk.s:136    .text.CRYP_Init:00000058 $d
C:\Users\jsyoon\AppData\Local\Temp\ccCYiPrk.s:141    .text.CRYP_StructInit:00000000 $t
C:\Users\jsyoon\AppData\Local\Temp\ccCYiPrk.s:147    .text.CRYP_StructInit:00000000 CRYP_StructInit
C:\Users\jsyoon\AppData\Local\Temp\ccCYiPrk.s:169    .text.CRYP_KeyInit:00000000 $t
C:\Users\jsyoon\AppData\Local\Temp\ccCYiPrk.s:175    .text.CRYP_KeyInit:00000000 CRYP_KeyInit
C:\Users\jsyoon\AppData\Local\Temp\ccCYiPrk.s:212    .text.CRYP_KeyInit:00000024 $d
C:\Users\jsyoon\AppData\Local\Temp\ccCYiPrk.s:217    .text.CRYP_KeyStructInit:00000000 $t
C:\Users\jsyoon\AppData\Local\Temp\ccCYiPrk.s:223    .text.CRYP_KeyStructInit:00000000 CRYP_KeyStructInit
C:\Users\jsyoon\AppData\Local\Temp\ccCYiPrk.s:253    .text.CRYP_IVInit:00000000 $t
C:\Users\jsyoon\AppData\Local\Temp\ccCYiPrk.s:259    .text.CRYP_IVInit:00000000 CRYP_IVInit
C:\Users\jsyoon\AppData\Local\Temp\ccCYiPrk.s:284    .text.CRYP_IVInit:00000014 $d
C:\Users\jsyoon\AppData\Local\Temp\ccCYiPrk.s:289    .text.CRYP_IVStructInit:00000000 $t
C:\Users\jsyoon\AppData\Local\Temp\ccCYiPrk.s:295    .text.CRYP_IVStructInit:00000000 CRYP_IVStructInit
C:\Users\jsyoon\AppData\Local\Temp\ccCYiPrk.s:317    .text.CRYP_FIFOFlush:00000000 $t
C:\Users\jsyoon\AppData\Local\Temp\ccCYiPrk.s:323    .text.CRYP_FIFOFlush:00000000 CRYP_FIFOFlush
C:\Users\jsyoon\AppData\Local\Temp\ccCYiPrk.s:339    .text.CRYP_FIFOFlush:0000000c $d
C:\Users\jsyoon\AppData\Local\Temp\ccCYiPrk.s:344    .text.CRYP_Cmd:00000000 $t
C:\Users\jsyoon\AppData\Local\Temp\ccCYiPrk.s:350    .text.CRYP_Cmd:00000000 CRYP_Cmd
C:\Users\jsyoon\AppData\Local\Temp\ccCYiPrk.s:375    .text.CRYP_Cmd:00000018 $d
C:\Users\jsyoon\AppData\Local\Temp\ccCYiPrk.s:380    .text.CRYP_DataIn:00000000 $t
C:\Users\jsyoon\AppData\Local\Temp\ccCYiPrk.s:386    .text.CRYP_DataIn:00000000 CRYP_DataIn
C:\Users\jsyoon\AppData\Local\Temp\ccCYiPrk.s:401    .text.CRYP_DataIn:00000008 $d
C:\Users\jsyoon\AppData\Local\Temp\ccCYiPrk.s:406    .text.CRYP_DataOut:00000000 $t
C:\Users\jsyoon\AppData\Local\Temp\ccCYiPrk.s:412    .text.CRYP_DataOut:00000000 CRYP_DataOut
C:\Users\jsyoon\AppData\Local\Temp\ccCYiPrk.s:427    .text.CRYP_DataOut:00000008 $d
C:\Users\jsyoon\AppData\Local\Temp\ccCYiPrk.s:432    .text.CRYP_SaveContext:00000000 $t
C:\Users\jsyoon\AppData\Local\Temp\ccCYiPrk.s:438    .text.CRYP_SaveContext:00000000 CRYP_SaveContext
C:\Users\jsyoon\AppData\Local\Temp\ccCYiPrk.s:594    .text.CRYP_SaveContext:000000bc $d
C:\Users\jsyoon\AppData\Local\Temp\ccCYiPrk.s:600    .text.CRYP_RestoreContext:00000000 $t
C:\Users\jsyoon\AppData\Local\Temp\ccCYiPrk.s:606    .text.CRYP_RestoreContext:00000000 CRYP_RestoreContext
C:\Users\jsyoon\AppData\Local\Temp\ccCYiPrk.s:662    .text.CRYP_RestoreContext:00000040 $d
C:\Users\jsyoon\AppData\Local\Temp\ccCYiPrk.s:667    .text.CRYP_DMACmd:00000000 $t
C:\Users\jsyoon\AppData\Local\Temp\ccCYiPrk.s:673    .text.CRYP_DMACmd:00000000 CRYP_DMACmd
C:\Users\jsyoon\AppData\Local\Temp\ccCYiPrk.s:702    .text.CRYP_DMACmd:00000018 $d
C:\Users\jsyoon\AppData\Local\Temp\ccCYiPrk.s:707    .text.CRYP_ITConfig:00000000 $t
C:\Users\jsyoon\AppData\Local\Temp\ccCYiPrk.s:713    .text.CRYP_ITConfig:00000000 CRYP_ITConfig
C:\Users\jsyoon\AppData\Local\Temp\ccCYiPrk.s:742    .text.CRYP_ITConfig:00000018 $d
C:\Users\jsyoon\AppData\Local\Temp\ccCYiPrk.s:747    .text.CRYP_GetITStatus:00000000 $t
C:\Users\jsyoon\AppData\Local\Temp\ccCYiPrk.s:753    .text.CRYP_GetITStatus:00000000 CRYP_GetITStatus
C:\Users\jsyoon\AppData\Local\Temp\ccCYiPrk.s:775    .text.CRYP_GetITStatus:00000010 $d
C:\Users\jsyoon\AppData\Local\Temp\ccCYiPrk.s:780    .text.CRYP_GetFlagStatus:00000000 $t
C:\Users\jsyoon\AppData\Local\Temp\ccCYiPrk.s:786    .text.CRYP_GetFlagStatus:00000000 CRYP_GetFlagStatus
C:\Users\jsyoon\AppData\Local\Temp\ccCYiPrk.s:816    .text.CRYP_GetFlagStatus:00000014 $d
                     .debug_frame:00000010 $d
C:\Users\jsyoon\AppData\Local\Temp\ccCYiPrk.s:140    .text.CRYP_Init:0000005c $t
C:\Users\jsyoon\AppData\Local\Temp\ccCYiPrk.s:216    .text.CRYP_KeyInit:00000028 $t
C:\Users\jsyoon\AppData\Local\Temp\ccCYiPrk.s:288    .text.CRYP_IVInit:00000018 $t
C:\Users\jsyoon\AppData\Local\Temp\ccCYiPrk.s:379    .text.CRYP_Cmd:0000001c $t
C:\Users\jsyoon\AppData\Local\Temp\ccCYiPrk.s:405    .text.CRYP_DataIn:0000000c $t
C:\Users\jsyoon\AppData\Local\Temp\ccCYiPrk.s:431    .text.CRYP_DataOut:0000000c $t
C:\Users\jsyoon\AppData\Local\Temp\ccCYiPrk.s:599    .text.CRYP_SaveContext:000000c4 $t
ARM GAS  C:\Users\jsyoon\AppData\Local\Temp\ccCYiPrk.s 			page 59


C:\Users\jsyoon\AppData\Local\Temp\ccCYiPrk.s:666    .text.CRYP_RestoreContext:00000044 $t
C:\Users\jsyoon\AppData\Local\Temp\ccCYiPrk.s:706    .text.CRYP_DMACmd:0000001c $t
C:\Users\jsyoon\AppData\Local\Temp\ccCYiPrk.s:746    .text.CRYP_ITConfig:0000001c $t
C:\Users\jsyoon\AppData\Local\Temp\ccCYiPrk.s:779    .text.CRYP_GetITStatus:00000014 $t
C:\Users\jsyoon\AppData\Local\Temp\ccCYiPrk.s:820    .text.CRYP_GetFlagStatus:00000018 $t

UNDEFINED SYMBOLS
RCC_AHB2PeriphResetCmd
