ARM GAS  C:\Users\jsyoon\AppData\Local\Temp\ccYheA2D.s 			page 1


   1              		.syntax unified
   2              		.cpu cortex-m4
   3              		.eabi_attribute 27, 3
   4              		.eabi_attribute 28, 1
   5              		.fpu fpv4-sp-d16
   6              		.eabi_attribute 20, 1
   7              		.eabi_attribute 21, 1
   8              		.eabi_attribute 23, 3
   9              		.eabi_attribute 24, 1
  10              		.eabi_attribute 25, 1
  11              		.eabi_attribute 26, 1
  12              		.eabi_attribute 30, 2
  13              		.eabi_attribute 34, 1
  14              		.eabi_attribute 18, 4
  15              		.thumb
  16              		.file	"stm32f4xx_i2c.c"
  17              		.text
  18              	.Ltext0:
  19              		.cfi_sections	.debug_frame
  20              		.section	.text.I2C_DeInit,"ax",%progbits
  21              		.align	2
  22              		.p2align 4,,15
  23              		.global	I2C_DeInit
  24              		.thumb
  25              		.thumb_func
  26              		.type	I2C_DeInit, %function
  27              	I2C_DeInit:
  28              	.LFB111:
  29              		.file 1 "ChibiOS_2.6.6/ext/stdperiph_stm32f4/src/stm32f4xx_i2c.c"
  30              		.loc 1 139 0
  31              		.cfi_startproc
  32              		@ args = 0, pretend = 0, frame = 0
  33              		@ frame_needed = 0, uses_anonymous_args = 0
  34              	.LVL0:
  35 0000 08B5     		push	{r3, lr}
  36              		.cfi_def_cfa_offset 8
  37              		.cfi_offset 3, -8
  38              		.cfi_offset 14, -4
  39              		.loc 1 143 0
  40 0002 174B     		ldr	r3, .L9
  41 0004 9842     		cmp	r0, r3
  42 0006 12D0     		beq	.L6
  43              		.loc 1 150 0
  44 0008 164B     		ldr	r3, .L9+4
  45 000a 9842     		cmp	r0, r3
  46 000c 1BD0     		beq	.L7
  47              		.loc 1 159 0
  48 000e 164B     		ldr	r3, .L9+8
  49 0010 9842     		cmp	r0, r3
  50 0012 00D0     		beq	.L8
  51 0014 08BD     		pop	{r3, pc}
  52              	.L8:
  53              		.loc 1 162 0
  54 0016 4FF40000 		mov	r0, #8388608
  55              	.LVL1:
  56 001a 0121     		movs	r1, #1
  57 001c FFF7FEFF 		bl	RCC_APB1PeriphResetCmd
ARM GAS  C:\Users\jsyoon\AppData\Local\Temp\ccYheA2D.s 			page 2


  58              	.LVL2:
  59              		.loc 1 164 0
  60 0020 4FF40000 		mov	r0, #8388608
  61 0024 0021     		movs	r1, #0
  62              		.loc 1 167 0
  63 0026 BDE80840 		pop	{r3, lr}
  64              		.loc 1 164 0
  65 002a FFF7FEBF 		b	RCC_APB1PeriphResetCmd
  66              	.LVL3:
  67              	.L6:
  68              		.loc 1 146 0
  69 002e 4FF40010 		mov	r0, #2097152
  70              	.LVL4:
  71 0032 0121     		movs	r1, #1
  72 0034 FFF7FEFF 		bl	RCC_APB1PeriphResetCmd
  73              	.LVL5:
  74              		.loc 1 148 0
  75 0038 4FF40010 		mov	r0, #2097152
  76 003c 0021     		movs	r1, #0
  77              		.loc 1 167 0
  78 003e BDE80840 		pop	{r3, lr}
  79              		.loc 1 148 0
  80 0042 FFF7FEBF 		b	RCC_APB1PeriphResetCmd
  81              	.LVL6:
  82              	.L7:
  83              		.loc 1 153 0
  84 0046 4FF48000 		mov	r0, #4194304
  85              	.LVL7:
  86 004a 0121     		movs	r1, #1
  87 004c FFF7FEFF 		bl	RCC_APB1PeriphResetCmd
  88              	.LVL8:
  89              		.loc 1 155 0
  90 0050 4FF48000 		mov	r0, #4194304
  91 0054 0021     		movs	r1, #0
  92              		.loc 1 167 0
  93 0056 BDE80840 		pop	{r3, lr}
  94              		.loc 1 155 0
  95 005a FFF7FEBF 		b	RCC_APB1PeriphResetCmd
  96              	.LVL9:
  97              	.L10:
  98 005e 00BF     		.align	2
  99              	.L9:
 100 0060 00540040 		.word	1073763328
 101 0064 00580040 		.word	1073764352
 102 0068 005C0040 		.word	1073765376
 103              		.cfi_endproc
 104              	.LFE111:
 105              		.size	I2C_DeInit, .-I2C_DeInit
 106 006c AFF30080 		.section	.text.I2C_Init,"ax",%progbits
 107              		.align	2
 108              		.p2align 4,,15
 109              		.global	I2C_Init
 110              		.thumb
 111              		.thumb_func
 112              		.type	I2C_Init, %function
 113              	I2C_Init:
 114              	.LFB112:
ARM GAS  C:\Users\jsyoon\AppData\Local\Temp\ccYheA2D.s 			page 3


 115              		.loc 1 182 0
 116              		.cfi_startproc
 117              		@ args = 0, pretend = 0, frame = 16
 118              		@ frame_needed = 0, uses_anonymous_args = 0
 119              	.LVL10:
 120 0000 F0B5     		push	{r4, r5, r6, r7, lr}
 121              		.cfi_def_cfa_offset 20
 122              		.cfi_offset 4, -20
 123              		.cfi_offset 5, -16
 124              		.cfi_offset 6, -12
 125              		.cfi_offset 7, -8
 126              		.cfi_offset 14, -4
 127 0002 0446     		mov	r4, r0
 128 0004 85B0     		sub	sp, sp, #20
 129              		.cfi_def_cfa_offset 40
 130              		.loc 1 202 0
 131 0006 6846     		mov	r0, sp
 132              	.LVL11:
 133              		.loc 1 182 0
 134 0008 0D46     		mov	r5, r1
 135              		.loc 1 198 0
 136 000a A688     		ldrh	r6, [r4, #4]
 137              	.LVL12:
 138              		.loc 1 202 0
 139 000c FFF7FEFF 		bl	RCC_GetClocksFreq
 140              	.LVL13:
 141              		.loc 1 203 0
 142 0010 0299     		ldr	r1, [sp, #8]
 143              		.loc 1 205 0
 144 0012 3048     		ldr	r0, .L20
 145              		.loc 1 218 0
 146 0014 2A68     		ldr	r2, [r5]
 147 0016 DFF8C4C0 		ldr	ip, .L20+8
 148              		.loc 1 205 0
 149 001a A0FB0130 		umull	r3, r0, r0, r1
 150              		.loc 1 200 0
 151 001e 26F03F06 		bic	r6, r6, #63
 152              	.LVL14:
 153 0022 3604     		lsls	r6, r6, #16
 154              		.loc 1 205 0
 155 0024 800C     		lsrs	r0, r0, #18
 156              		.loc 1 200 0
 157 0026 360C     		lsrs	r6, r6, #16
 158              	.LVL15:
 159              		.loc 1 205 0
 160 0028 87B2     		uxth	r7, r0
 161              	.LVL16:
 162              		.loc 1 206 0
 163 002a 3E43     		orrs	r6, r6, r7
 164              	.LVL17:
 165              		.loc 1 208 0
 166 002c A680     		strh	r6, [r4, #4]	@ movhi
 167              		.loc 1 212 0
 168 002e 2388     		ldrh	r3, [r4]
 169 0030 23F00103 		bic	r3, r3, #1
 170 0034 1B04     		lsls	r3, r3, #16
 171 0036 1B0C     		lsrs	r3, r3, #16
ARM GAS  C:\Users\jsyoon\AppData\Local\Temp\ccYheA2D.s 			page 4


 172              		.loc 1 218 0
 173 0038 6245     		cmp	r2, ip
 174              		.loc 1 212 0
 175 003a 2380     		strh	r3, [r4]	@ movhi
 176              	.LVL18:
 177              		.loc 1 218 0
 178 003c 23D8     		bhi	.L12
 179              		.loc 1 221 0
 180 003e 5300     		lsls	r3, r2, #1
 181 0040 B1FBF3F3 		udiv	r3, r1, r3
 182 0044 9BB2     		uxth	r3, r3
 183              	.LVL19:
 184              		.loc 1 223 0
 185 0046 032B     		cmp	r3, #3
 186              		.loc 1 231 0
 187 0048 07F10107 		add	r7, r7, #1
 188              		.loc 1 226 0
 189 004c 98BF     		it	ls
 190 004e 0423     		movls	r3, #4
 191              	.LVL20:
 192              		.loc 1 231 0
 193 0050 2784     		strh	r7, [r4, #32]	@ movhi
 194              	.LVL21:
 195              	.L14:
 196              		.loc 1 264 0
 197 0052 A383     		strh	r3, [r4, #28]	@ movhi
 198              		.loc 1 266 0
 199 0054 2388     		ldrh	r3, [r4]
 200              	.LVL22:
 201              		.loc 1 276 0
 202 0056 6E89     		ldrh	r6, [r5, #10]
 203 0058 A888     		ldrh	r0, [r5, #4]
 204              		.loc 1 282 0
 205 005a 2989     		ldrh	r1, [r5, #8]
 206 005c AA89     		ldrh	r2, [r5, #12]
 207              		.loc 1 266 0
 208 005e 9BB2     		uxth	r3, r3
 209 0060 43F00103 		orr	r3, r3, #1
 210 0064 2380     		strh	r3, [r4]	@ movhi
 211              		.loc 1 270 0
 212 0066 2388     		ldrh	r3, [r4]
 213              	.LVL23:
 214              		.loc 1 272 0
 215 0068 23F48163 		bic	r3, r3, #1032
 216              	.LVL24:
 217 006c 23F00203 		bic	r3, r3, #2
 218 0070 1B04     		lsls	r3, r3, #16
 219              		.loc 1 276 0
 220 0072 3043     		orrs	r0, r0, r6
 221              		.loc 1 272 0
 222 0074 1B0C     		lsrs	r3, r3, #16
 223              	.LVL25:
 224              		.loc 1 276 0
 225 0076 0343     		orrs	r3, r3, r0
 226              	.LVL26:
 227              		.loc 1 282 0
 228 0078 0A43     		orrs	r2, r2, r1
ARM GAS  C:\Users\jsyoon\AppData\Local\Temp\ccYheA2D.s 			page 5


 229              		.loc 1 276 0
 230 007a 9BB2     		uxth	r3, r3
 231              	.LVL27:
 232              		.loc 1 282 0
 233 007c 92B2     		uxth	r2, r2
 234              		.loc 1 278 0
 235 007e 2380     		strh	r3, [r4]	@ movhi
 236              		.loc 1 282 0
 237 0080 2281     		strh	r2, [r4, #8]	@ movhi
 238              		.loc 1 283 0
 239 0082 05B0     		add	sp, sp, #20
 240              		@ sp needed
 241 0084 F0BD     		pop	{r4, r5, r6, r7, pc}
 242              	.LVL28:
 243              	.L12:
 244              		.loc 1 238 0
 245 0086 EE88     		ldrh	r6, [r5, #6]
 246 0088 4BF6FF73 		movw	r3, #49151
 247 008c 9E42     		cmp	r6, r3
 248 008e 1AD0     		beq	.L19
 249              		.loc 1 246 0
 250 0090 02EB8202 		add	r2, r2, r2, lsl #2
 251 0094 02EB8202 		add	r2, r2, r2, lsl #2
 252 0098 B1FBF2F3 		udiv	r3, r1, r2
 253 009c 9BB2     		uxth	r3, r3
 254              	.LVL29:
 255              		.loc 1 248 0
 256 009e 43F48043 		orr	r3, r3, #16384
 257              	.LVL30:
 258              	.L16:
 259              		.loc 1 252 0
 260 00a2 C3F30B02 		ubfx	r2, r3, #0, #12
 261 00a6 0AB9     		cbnz	r2, .L17
 262              		.loc 1 255 0
 263 00a8 43F00103 		orr	r3, r3, #1
 264              	.LVL31:
 265              	.L17:
 266              		.loc 1 260 0
 267 00ac 4FF49671 		mov	r1, #300
 268              	.LVL32:
 269 00b0 094A     		ldr	r2, .L20+4
 270 00b2 01FB00F0 		mul	r0, r1, r0
 271              	.LVL33:
 272 00b6 82FB0010 		smull	r1, r0, r2, r0
 273 00ba 8009     		lsrs	r0, r0, #6
 274 00bc 0130     		adds	r0, r0, #1
 275              		.loc 1 258 0
 276 00be 43F40043 		orr	r3, r3, #32768
 277              	.LVL34:
 278              		.loc 1 260 0
 279 00c2 2084     		strh	r0, [r4, #32]	@ movhi
 280 00c4 C5E7     		b	.L14
 281              	.LVL35:
 282              	.L19:
 283              		.loc 1 241 0
 284 00c6 02EB4202 		add	r2, r2, r2, lsl #1
 285 00ca B1FBF2F3 		udiv	r3, r1, r2
ARM GAS  C:\Users\jsyoon\AppData\Local\Temp\ccYheA2D.s 			page 6


 286 00ce 9BB2     		uxth	r3, r3
 287              	.LVL36:
 288 00d0 E7E7     		b	.L16
 289              	.L21:
 290 00d2 00BF     		.align	2
 291              	.L20:
 292 00d4 83DE1B43 		.word	1125899907
 293 00d8 D34D6210 		.word	274877907
 294 00dc A0860100 		.word	100000
 295              		.cfi_endproc
 296              	.LFE112:
 297              		.size	I2C_Init, .-I2C_Init
 298              		.section	.text.I2C_StructInit,"ax",%progbits
 299              		.align	2
 300              		.p2align 4,,15
 301              		.global	I2C_StructInit
 302              		.thumb
 303              		.thumb_func
 304              		.type	I2C_StructInit, %function
 305              	I2C_StructInit:
 306              	.LFB113:
 307              		.loc 1 291 0
 308              		.cfi_startproc
 309              		@ args = 0, pretend = 0, frame = 0
 310              		@ frame_needed = 0, uses_anonymous_args = 0
 311              		@ link register save eliminated.
 312              	.LVL37:
 313              		.loc 1 296 0
 314 0000 0023     		movs	r3, #0
 315              		.loc 1 291 0
 316 0002 10B4     		push	{r4}
 317              		.cfi_def_cfa_offset 4
 318              		.cfi_offset 4, -4
 319              		.loc 1 298 0
 320 0004 4BF6FF71 		movw	r1, #49151
 321              		.loc 1 294 0
 322 0008 41F28834 		movw	r4, #5000
 323              		.loc 1 304 0
 324 000c 4FF48042 		mov	r2, #16384
 325              		.loc 1 294 0
 326 0010 0460     		str	r4, [r0]
 327              		.loc 1 298 0
 328 0012 C180     		strh	r1, [r0, #6]	@ movhi
 329              		.loc 1 304 0
 330 0014 8281     		strh	r2, [r0, #12]	@ movhi
 331              		.loc 1 296 0
 332 0016 8380     		strh	r3, [r0, #4]	@ movhi
 333              		.loc 1 300 0
 334 0018 0381     		strh	r3, [r0, #8]	@ movhi
 335              		.loc 1 302 0
 336 001a 4381     		strh	r3, [r0, #10]	@ movhi
 337              		.loc 1 305 0
 338 001c 5DF8044B 		ldr	r4, [sp], #4
 339 0020 7047     		bx	lr
 340              		.cfi_endproc
 341              	.LFE113:
 342              		.size	I2C_StructInit, .-I2C_StructInit
ARM GAS  C:\Users\jsyoon\AppData\Local\Temp\ccYheA2D.s 			page 7


 343 0022 00BFAFF3 		.section	.text.I2C_Cmd,"ax",%progbits
 343      0080AFF3 
 343      0080AFF3 
 343      0080
 344              		.align	2
 345              		.p2align 4,,15
 346              		.global	I2C_Cmd
 347              		.thumb
 348              		.thumb_func
 349              		.type	I2C_Cmd, %function
 350              	I2C_Cmd:
 351              	.LFB114:
 352              		.loc 1 315 0
 353              		.cfi_startproc
 354              		@ args = 0, pretend = 0, frame = 0
 355              		@ frame_needed = 0, uses_anonymous_args = 0
 356              		@ link register save eliminated.
 357              	.LVL38:
 358              		.loc 1 322 0
 359 0000 0388     		ldrh	r3, [r0]
 360              		.loc 1 319 0
 361 0002 29B9     		cbnz	r1, .L26
 362              		.loc 1 327 0
 363 0004 23F00103 		bic	r3, r3, #1
 364 0008 1B04     		lsls	r3, r3, #16
 365 000a 1B0C     		lsrs	r3, r3, #16
 366 000c 0380     		strh	r3, [r0]	@ movhi
 367 000e 7047     		bx	lr
 368              	.L26:
 369              		.loc 1 322 0
 370 0010 9BB2     		uxth	r3, r3
 371 0012 43F00103 		orr	r3, r3, #1
 372 0016 0380     		strh	r3, [r0]	@ movhi
 373 0018 7047     		bx	lr
 374              		.cfi_endproc
 375              	.LFE114:
 376              		.size	I2C_Cmd, .-I2C_Cmd
 377 001a 00BFAFF3 		.section	.text.I2C_GenerateSTART,"ax",%progbits
 377      0080
 378              		.align	2
 379              		.p2align 4,,15
 380              		.global	I2C_GenerateSTART
 381              		.thumb
 382              		.thumb_func
 383              		.type	I2C_GenerateSTART, %function
 384              	I2C_GenerateSTART:
 385              	.LFB115:
 386              		.loc 1 339 0
 387              		.cfi_startproc
 388              		@ args = 0, pretend = 0, frame = 0
 389              		@ frame_needed = 0, uses_anonymous_args = 0
 390              		@ link register save eliminated.
 391              	.LVL39:
 392              		.loc 1 346 0
 393 0000 0388     		ldrh	r3, [r0]
 394              		.loc 1 343 0
 395 0002 29B9     		cbnz	r1, .L30
ARM GAS  C:\Users\jsyoon\AppData\Local\Temp\ccYheA2D.s 			page 8


 396              		.loc 1 351 0
 397 0004 23F48073 		bic	r3, r3, #256
 398 0008 1B04     		lsls	r3, r3, #16
 399 000a 1B0C     		lsrs	r3, r3, #16
 400 000c 0380     		strh	r3, [r0]	@ movhi
 401 000e 7047     		bx	lr
 402              	.L30:
 403              		.loc 1 346 0
 404 0010 9BB2     		uxth	r3, r3
 405 0012 43F48073 		orr	r3, r3, #256
 406 0016 0380     		strh	r3, [r0]	@ movhi
 407 0018 7047     		bx	lr
 408              		.cfi_endproc
 409              	.LFE115:
 410              		.size	I2C_GenerateSTART, .-I2C_GenerateSTART
 411 001a 00BFAFF3 		.section	.text.I2C_GenerateSTOP,"ax",%progbits
 411      0080
 412              		.align	2
 413              		.p2align 4,,15
 414              		.global	I2C_GenerateSTOP
 415              		.thumb
 416              		.thumb_func
 417              		.type	I2C_GenerateSTOP, %function
 418              	I2C_GenerateSTOP:
 419              	.LFB116:
 420              		.loc 1 363 0
 421              		.cfi_startproc
 422              		@ args = 0, pretend = 0, frame = 0
 423              		@ frame_needed = 0, uses_anonymous_args = 0
 424              		@ link register save eliminated.
 425              	.LVL40:
 426              		.loc 1 370 0
 427 0000 0388     		ldrh	r3, [r0]
 428              		.loc 1 367 0
 429 0002 29B9     		cbnz	r1, .L34
 430              		.loc 1 375 0
 431 0004 23F40073 		bic	r3, r3, #512
 432 0008 1B04     		lsls	r3, r3, #16
 433 000a 1B0C     		lsrs	r3, r3, #16
 434 000c 0380     		strh	r3, [r0]	@ movhi
 435 000e 7047     		bx	lr
 436              	.L34:
 437              		.loc 1 370 0
 438 0010 9BB2     		uxth	r3, r3
 439 0012 43F40073 		orr	r3, r3, #512
 440 0016 0380     		strh	r3, [r0]	@ movhi
 441 0018 7047     		bx	lr
 442              		.cfi_endproc
 443              	.LFE116:
 444              		.size	I2C_GenerateSTOP, .-I2C_GenerateSTOP
 445 001a 00BFAFF3 		.section	.text.I2C_Send7bitAddress,"ax",%progbits
 445      0080
 446              		.align	2
 447              		.p2align 4,,15
 448              		.global	I2C_Send7bitAddress
 449              		.thumb
 450              		.thumb_func
ARM GAS  C:\Users\jsyoon\AppData\Local\Temp\ccYheA2D.s 			page 9


 451              		.type	I2C_Send7bitAddress, %function
 452              	I2C_Send7bitAddress:
 453              	.LFB117:
 454              		.loc 1 391 0
 455              		.cfi_startproc
 456              		@ args = 0, pretend = 0, frame = 0
 457              		@ frame_needed = 0, uses_anonymous_args = 0
 458              		@ link register save eliminated.
 459              	.LVL41:
 460              		.loc 1 396 0
 461 0000 1AB9     		cbnz	r2, .L38
 462              		.loc 1 404 0
 463 0002 01F0FE01 		and	r1, r1, #254
 464              	.LVL42:
 465              		.loc 1 407 0
 466 0006 0182     		strh	r1, [r0, #16]	@ movhi
 467 0008 7047     		bx	lr
 468              	.L38:
 469              		.loc 1 399 0
 470 000a 41F00101 		orr	r1, r1, #1
 471              	.LVL43:
 472              		.loc 1 407 0
 473 000e 0182     		strh	r1, [r0, #16]	@ movhi
 474 0010 7047     		bx	lr
 475              		.cfi_endproc
 476              	.LFE117:
 477              		.size	I2C_Send7bitAddress, .-I2C_Send7bitAddress
 478 0012 00BFAFF3 		.section	.text.I2C_AcknowledgeConfig,"ax",%progbits
 478      0080AFF3 
 478      0080AFF3 
 478      0080
 479              		.align	2
 480              		.p2align 4,,15
 481              		.global	I2C_AcknowledgeConfig
 482              		.thumb
 483              		.thumb_func
 484              		.type	I2C_AcknowledgeConfig, %function
 485              	I2C_AcknowledgeConfig:
 486              	.LFB118:
 487              		.loc 1 418 0
 488              		.cfi_startproc
 489              		@ args = 0, pretend = 0, frame = 0
 490              		@ frame_needed = 0, uses_anonymous_args = 0
 491              		@ link register save eliminated.
 492              	.LVL44:
 493              		.loc 1 425 0
 494 0000 0388     		ldrh	r3, [r0]
 495              		.loc 1 422 0
 496 0002 29B9     		cbnz	r1, .L42
 497              		.loc 1 430 0
 498 0004 23F48063 		bic	r3, r3, #1024
 499 0008 1B04     		lsls	r3, r3, #16
 500 000a 1B0C     		lsrs	r3, r3, #16
 501 000c 0380     		strh	r3, [r0]	@ movhi
 502 000e 7047     		bx	lr
 503              	.L42:
 504              		.loc 1 425 0
ARM GAS  C:\Users\jsyoon\AppData\Local\Temp\ccYheA2D.s 			page 10


 505 0010 9BB2     		uxth	r3, r3
 506 0012 43F48063 		orr	r3, r3, #1024
 507 0016 0380     		strh	r3, [r0]	@ movhi
 508 0018 7047     		bx	lr
 509              		.cfi_endproc
 510              	.LFE118:
 511              		.size	I2C_AcknowledgeConfig, .-I2C_AcknowledgeConfig
 512 001a 00BFAFF3 		.section	.text.I2C_OwnAddress2Config,"ax",%progbits
 512      0080
 513              		.align	2
 514              		.p2align 4,,15
 515              		.global	I2C_OwnAddress2Config
 516              		.thumb
 517              		.thumb_func
 518              		.type	I2C_OwnAddress2Config, %function
 519              	I2C_OwnAddress2Config:
 520              	.LFB119:
 521              		.loc 1 441 0
 522              		.cfi_startproc
 523              		@ args = 0, pretend = 0, frame = 0
 524              		@ frame_needed = 0, uses_anonymous_args = 0
 525              		@ link register save eliminated.
 526              	.LVL45:
 527              		.loc 1 448 0
 528 0000 8389     		ldrh	r3, [r0, #12]
 529 0002 9BB2     		uxth	r3, r3
 530              	.LVL46:
 531              		.loc 1 454 0
 532 0004 01F0FE01 		and	r1, r1, #254
 533              	.LVL47:
 534              		.loc 1 451 0
 535 0008 23F0FE03 		bic	r3, r3, #254
 536              	.LVL48:
 537              		.loc 1 454 0
 538 000c 1943     		orrs	r1, r1, r3
 539              	.LVL49:
 540              		.loc 1 457 0
 541 000e 8181     		strh	r1, [r0, #12]	@ movhi
 542 0010 7047     		bx	lr
 543              		.cfi_endproc
 544              	.LFE119:
 545              		.size	I2C_OwnAddress2Config, .-I2C_OwnAddress2Config
 546 0012 00BFAFF3 		.section	.text.I2C_DualAddressCmd,"ax",%progbits
 546      0080AFF3 
 546      0080AFF3 
 546      0080
 547              		.align	2
 548              		.p2align 4,,15
 549              		.global	I2C_DualAddressCmd
 550              		.thumb
 551              		.thumb_func
 552              		.type	I2C_DualAddressCmd, %function
 553              	I2C_DualAddressCmd:
 554              	.LFB120:
 555              		.loc 1 468 0
 556              		.cfi_startproc
 557              		@ args = 0, pretend = 0, frame = 0
ARM GAS  C:\Users\jsyoon\AppData\Local\Temp\ccYheA2D.s 			page 11


 558              		@ frame_needed = 0, uses_anonymous_args = 0
 559              		@ link register save eliminated.
 560              	.LVL50:
 561              		.loc 1 475 0
 562 0000 8389     		ldrh	r3, [r0, #12]
 563              		.loc 1 472 0
 564 0002 29B9     		cbnz	r1, .L47
 565              		.loc 1 480 0
 566 0004 23F00103 		bic	r3, r3, #1
 567 0008 1B04     		lsls	r3, r3, #16
 568 000a 1B0C     		lsrs	r3, r3, #16
 569 000c 8381     		strh	r3, [r0, #12]	@ movhi
 570 000e 7047     		bx	lr
 571              	.L47:
 572              		.loc 1 475 0
 573 0010 9BB2     		uxth	r3, r3
 574 0012 43F00103 		orr	r3, r3, #1
 575 0016 8381     		strh	r3, [r0, #12]	@ movhi
 576 0018 7047     		bx	lr
 577              		.cfi_endproc
 578              	.LFE120:
 579              		.size	I2C_DualAddressCmd, .-I2C_DualAddressCmd
 580 001a 00BFAFF3 		.section	.text.I2C_GeneralCallCmd,"ax",%progbits
 580      0080
 581              		.align	2
 582              		.p2align 4,,15
 583              		.global	I2C_GeneralCallCmd
 584              		.thumb
 585              		.thumb_func
 586              		.type	I2C_GeneralCallCmd, %function
 587              	I2C_GeneralCallCmd:
 588              	.LFB121:
 589              		.loc 1 492 0
 590              		.cfi_startproc
 591              		@ args = 0, pretend = 0, frame = 0
 592              		@ frame_needed = 0, uses_anonymous_args = 0
 593              		@ link register save eliminated.
 594              	.LVL51:
 595              		.loc 1 499 0
 596 0000 0388     		ldrh	r3, [r0]
 597              		.loc 1 496 0
 598 0002 29B9     		cbnz	r1, .L51
 599              		.loc 1 504 0
 600 0004 23F04003 		bic	r3, r3, #64
 601 0008 1B04     		lsls	r3, r3, #16
 602 000a 1B0C     		lsrs	r3, r3, #16
 603 000c 0380     		strh	r3, [r0]	@ movhi
 604 000e 7047     		bx	lr
 605              	.L51:
 606              		.loc 1 499 0
 607 0010 9BB2     		uxth	r3, r3
 608 0012 43F04003 		orr	r3, r3, #64
 609 0016 0380     		strh	r3, [r0]	@ movhi
 610 0018 7047     		bx	lr
 611              		.cfi_endproc
 612              	.LFE121:
 613              		.size	I2C_GeneralCallCmd, .-I2C_GeneralCallCmd
ARM GAS  C:\Users\jsyoon\AppData\Local\Temp\ccYheA2D.s 			page 12


 614 001a 00BFAFF3 		.section	.text.I2C_SoftwareResetCmd,"ax",%progbits
 614      0080
 615              		.align	2
 616              		.p2align 4,,15
 617              		.global	I2C_SoftwareResetCmd
 618              		.thumb
 619              		.thumb_func
 620              		.type	I2C_SoftwareResetCmd, %function
 621              	I2C_SoftwareResetCmd:
 622              	.LFB122:
 623              		.loc 1 518 0
 624              		.cfi_startproc
 625              		@ args = 0, pretend = 0, frame = 0
 626              		@ frame_needed = 0, uses_anonymous_args = 0
 627              		@ link register save eliminated.
 628              	.LVL52:
 629              		.loc 1 525 0
 630 0000 0388     		ldrh	r3, [r0]
 631              		.loc 1 522 0
 632 0002 19B9     		cbnz	r1, .L55
 633              		.loc 1 530 0
 634 0004 C3F30E03 		ubfx	r3, r3, #0, #15
 635 0008 0380     		strh	r3, [r0]	@ movhi
 636 000a 7047     		bx	lr
 637              	.L55:
 638              		.loc 1 525 0
 639 000c 6FEA4343 		mvn	r3, r3, lsl #17
 640 0010 6FEA5343 		mvn	r3, r3, lsr #17
 641 0014 9BB2     		uxth	r3, r3
 642 0016 0380     		strh	r3, [r0]	@ movhi
 643 0018 7047     		bx	lr
 644              		.cfi_endproc
 645              	.LFE122:
 646              		.size	I2C_SoftwareResetCmd, .-I2C_SoftwareResetCmd
 647 001a 00BFAFF3 		.section	.text.I2C_StretchClockCmd,"ax",%progbits
 647      0080
 648              		.align	2
 649              		.p2align 4,,15
 650              		.global	I2C_StretchClockCmd
 651              		.thumb
 652              		.thumb_func
 653              		.type	I2C_StretchClockCmd, %function
 654              	I2C_StretchClockCmd:
 655              	.LFB123:
 656              		.loc 1 542 0
 657              		.cfi_startproc
 658              		@ args = 0, pretend = 0, frame = 0
 659              		@ frame_needed = 0, uses_anonymous_args = 0
 660              		@ link register save eliminated.
 661              	.LVL53:
 662              		.loc 1 549 0
 663 0000 0388     		ldrh	r3, [r0]
 664              		.loc 1 546 0
 665 0002 29B1     		cbz	r1, .L59
 666              		.loc 1 554 0
 667 0004 23F08003 		bic	r3, r3, #128
 668 0008 1B04     		lsls	r3, r3, #16
ARM GAS  C:\Users\jsyoon\AppData\Local\Temp\ccYheA2D.s 			page 13


 669 000a 1B0C     		lsrs	r3, r3, #16
 670 000c 0380     		strh	r3, [r0]	@ movhi
 671 000e 7047     		bx	lr
 672              	.L59:
 673              		.loc 1 549 0
 674 0010 9BB2     		uxth	r3, r3
 675 0012 43F08003 		orr	r3, r3, #128
 676 0016 0380     		strh	r3, [r0]	@ movhi
 677 0018 7047     		bx	lr
 678              		.cfi_endproc
 679              	.LFE123:
 680              		.size	I2C_StretchClockCmd, .-I2C_StretchClockCmd
 681 001a 00BFAFF3 		.section	.text.I2C_FastModeDutyCycleConfig,"ax",%progbits
 681      0080
 682              		.align	2
 683              		.p2align 4,,15
 684              		.global	I2C_FastModeDutyCycleConfig
 685              		.thumb
 686              		.thumb_func
 687              		.type	I2C_FastModeDutyCycleConfig, %function
 688              	I2C_FastModeDutyCycleConfig:
 689              	.LFB124:
 690              		.loc 1 568 0
 691              		.cfi_startproc
 692              		@ args = 0, pretend = 0, frame = 0
 693              		@ frame_needed = 0, uses_anonymous_args = 0
 694              		@ link register save eliminated.
 695              	.LVL54:
 696              		.loc 1 572 0
 697 0000 B1F5804F 		cmp	r1, #16384
 698              		.loc 1 575 0
 699 0004 838B     		ldrh	r3, [r0, #28]
 700              		.loc 1 572 0
 701 0006 05D0     		beq	.L61
 702              		.loc 1 575 0
 703 0008 23F48043 		bic	r3, r3, #16384
 704 000c 1B04     		lsls	r3, r3, #16
 705 000e 1B0C     		lsrs	r3, r3, #16
 706 0010 8383     		strh	r3, [r0, #28]	@ movhi
 707 0012 7047     		bx	lr
 708              	.L61:
 709              		.loc 1 580 0
 710 0014 9BB2     		uxth	r3, r3
 711 0016 43F48043 		orr	r3, r3, #16384
 712 001a 8383     		strh	r3, [r0, #28]	@ movhi
 713 001c 7047     		bx	lr
 714              		.cfi_endproc
 715              	.LFE124:
 716              		.size	I2C_FastModeDutyCycleConfig, .-I2C_FastModeDutyCycleConfig
 717 001e 00BF     		.section	.text.I2C_NACKPositionConfig,"ax",%progbits
 718              		.align	2
 719              		.p2align 4,,15
 720              		.global	I2C_NACKPositionConfig
 721              		.thumb
 722              		.thumb_func
 723              		.type	I2C_NACKPositionConfig, %function
 724              	I2C_NACKPositionConfig:
ARM GAS  C:\Users\jsyoon\AppData\Local\Temp\ccYheA2D.s 			page 14


 725              	.LFB125:
 726              		.loc 1 606 0
 727              		.cfi_startproc
 728              		@ args = 0, pretend = 0, frame = 0
 729              		@ frame_needed = 0, uses_anonymous_args = 0
 730              		@ link register save eliminated.
 731              	.LVL55:
 732              		.loc 1 612 0
 733 0000 B1F5006F 		cmp	r1, #2048
 734              		.loc 1 615 0
 735 0004 0388     		ldrh	r3, [r0]
 736              		.loc 1 612 0
 737 0006 05D0     		beq	.L66
 738              		.loc 1 620 0
 739 0008 23F40063 		bic	r3, r3, #2048
 740 000c 1B04     		lsls	r3, r3, #16
 741 000e 1B0C     		lsrs	r3, r3, #16
 742 0010 0380     		strh	r3, [r0]	@ movhi
 743 0012 7047     		bx	lr
 744              	.L66:
 745              		.loc 1 615 0
 746 0014 9BB2     		uxth	r3, r3
 747 0016 43F40063 		orr	r3, r3, #2048
 748 001a 0380     		strh	r3, [r0]	@ movhi
 749 001c 7047     		bx	lr
 750              		.cfi_endproc
 751              	.LFE125:
 752              		.size	I2C_NACKPositionConfig, .-I2C_NACKPositionConfig
 753 001e 00BF     		.section	.text.I2C_SMBusAlertConfig,"ax",%progbits
 754              		.align	2
 755              		.p2align 4,,15
 756              		.global	I2C_SMBusAlertConfig
 757              		.thumb
 758              		.thumb_func
 759              		.type	I2C_SMBusAlertConfig, %function
 760              	I2C_SMBusAlertConfig:
 761              	.LFB126:
 762              		.loc 1 634 0
 763              		.cfi_startproc
 764              		@ args = 0, pretend = 0, frame = 0
 765              		@ frame_needed = 0, uses_anonymous_args = 0
 766              		@ link register save eliminated.
 767              	.LVL56:
 768              		.loc 1 638 0
 769 0000 B1F5005F 		cmp	r1, #8192
 770              		.loc 1 641 0
 771 0004 0388     		ldrh	r3, [r0]
 772              		.loc 1 638 0
 773 0006 05D0     		beq	.L70
 774              		.loc 1 646 0
 775 0008 23F40053 		bic	r3, r3, #8192
 776 000c 1B04     		lsls	r3, r3, #16
 777 000e 1B0C     		lsrs	r3, r3, #16
 778 0010 0380     		strh	r3, [r0]	@ movhi
 779 0012 7047     		bx	lr
 780              	.L70:
 781              		.loc 1 641 0
ARM GAS  C:\Users\jsyoon\AppData\Local\Temp\ccYheA2D.s 			page 15


 782 0014 9BB2     		uxth	r3, r3
 783 0016 43F40053 		orr	r3, r3, #8192
 784 001a 0380     		strh	r3, [r0]	@ movhi
 785 001c 7047     		bx	lr
 786              		.cfi_endproc
 787              	.LFE126:
 788              		.size	I2C_SMBusAlertConfig, .-I2C_SMBusAlertConfig
 789 001e 00BF     		.section	.text.I2C_ARPCmd,"ax",%progbits
 790              		.align	2
 791              		.p2align 4,,15
 792              		.global	I2C_ARPCmd
 793              		.thumb
 794              		.thumb_func
 795              		.type	I2C_ARPCmd, %function
 796              	I2C_ARPCmd:
 797              	.LFB127:
 798              		.loc 1 658 0
 799              		.cfi_startproc
 800              		@ args = 0, pretend = 0, frame = 0
 801              		@ frame_needed = 0, uses_anonymous_args = 0
 802              		@ link register save eliminated.
 803              	.LVL57:
 804              		.loc 1 665 0
 805 0000 0388     		ldrh	r3, [r0]
 806              		.loc 1 662 0
 807 0002 29B9     		cbnz	r1, .L74
 808              		.loc 1 670 0
 809 0004 23F01003 		bic	r3, r3, #16
 810 0008 1B04     		lsls	r3, r3, #16
 811 000a 1B0C     		lsrs	r3, r3, #16
 812 000c 0380     		strh	r3, [r0]	@ movhi
 813 000e 7047     		bx	lr
 814              	.L74:
 815              		.loc 1 665 0
 816 0010 9BB2     		uxth	r3, r3
 817 0012 43F01003 		orr	r3, r3, #16
 818 0016 0380     		strh	r3, [r0]	@ movhi
 819 0018 7047     		bx	lr
 820              		.cfi_endproc
 821              	.LFE127:
 822              		.size	I2C_ARPCmd, .-I2C_ARPCmd
 823 001a 00BFAFF3 		.section	.text.I2C_SendData,"ax",%progbits
 823      0080
 824              		.align	2
 825              		.p2align 4,,15
 826              		.global	I2C_SendData
 827              		.thumb
 828              		.thumb_func
 829              		.type	I2C_SendData, %function
 830              	I2C_SendData:
 831              	.LFB128:
 832              		.loc 1 696 0
 833              		.cfi_startproc
 834              		@ args = 0, pretend = 0, frame = 0
 835              		@ frame_needed = 0, uses_anonymous_args = 0
 836              		@ link register save eliminated.
 837              	.LVL58:
ARM GAS  C:\Users\jsyoon\AppData\Local\Temp\ccYheA2D.s 			page 16


 838              		.loc 1 700 0
 839 0000 0182     		strh	r1, [r0, #16]	@ movhi
 840 0002 7047     		bx	lr
 841              		.cfi_endproc
 842              	.LFE128:
 843              		.size	I2C_SendData, .-I2C_SendData
 844 0004 AFF30080 		.section	.text.I2C_ReceiveData,"ax",%progbits
 844      AFF30080 
 844      AFF30080 
 845              		.align	2
 846              		.p2align 4,,15
 847              		.global	I2C_ReceiveData
 848              		.thumb
 849              		.thumb_func
 850              		.type	I2C_ReceiveData, %function
 851              	I2C_ReceiveData:
 852              	.LFB129:
 853              		.loc 1 709 0
 854              		.cfi_startproc
 855              		@ args = 0, pretend = 0, frame = 0
 856              		@ frame_needed = 0, uses_anonymous_args = 0
 857              		@ link register save eliminated.
 858              	.LVL59:
 859              		.loc 1 713 0
 860 0000 008A     		ldrh	r0, [r0, #16]
 861              	.LVL60:
 862              		.loc 1 714 0
 863 0002 C0B2     		uxtb	r0, r0
 864 0004 7047     		bx	lr
 865              		.cfi_endproc
 866              	.LFE129:
 867              		.size	I2C_ReceiveData, .-I2C_ReceiveData
 868 0006 00BFAFF3 		.section	.text.I2C_TransmitPEC,"ax",%progbits
 868      0080AFF3 
 868      0080
 869              		.align	2
 870              		.p2align 4,,15
 871              		.global	I2C_TransmitPEC
 872              		.thumb
 873              		.thumb_func
 874              		.type	I2C_TransmitPEC, %function
 875              	I2C_TransmitPEC:
 876              	.LFB130:
 877              		.loc 1 740 0
 878              		.cfi_startproc
 879              		@ args = 0, pretend = 0, frame = 0
 880              		@ frame_needed = 0, uses_anonymous_args = 0
 881              		@ link register save eliminated.
 882              	.LVL61:
 883              		.loc 1 747 0
 884 0000 0388     		ldrh	r3, [r0]
 885              		.loc 1 744 0
 886 0002 29B9     		cbnz	r1, .L80
 887              		.loc 1 752 0
 888 0004 23F48053 		bic	r3, r3, #4096
 889 0008 1B04     		lsls	r3, r3, #16
 890 000a 1B0C     		lsrs	r3, r3, #16
ARM GAS  C:\Users\jsyoon\AppData\Local\Temp\ccYheA2D.s 			page 17


 891 000c 0380     		strh	r3, [r0]	@ movhi
 892 000e 7047     		bx	lr
 893              	.L80:
 894              		.loc 1 747 0
 895 0010 9BB2     		uxth	r3, r3
 896 0012 43F48053 		orr	r3, r3, #4096
 897 0016 0380     		strh	r3, [r0]	@ movhi
 898 0018 7047     		bx	lr
 899              		.cfi_endproc
 900              	.LFE130:
 901              		.size	I2C_TransmitPEC, .-I2C_TransmitPEC
 902 001a 00BFAFF3 		.section	.text.I2C_PECPositionConfig,"ax",%progbits
 902      0080
 903              		.align	2
 904              		.p2align 4,,15
 905              		.global	I2C_PECPositionConfig
 906              		.thumb
 907              		.thumb_func
 908              		.type	I2C_PECPositionConfig, %function
 909              	I2C_PECPositionConfig:
 910              	.LFB131:
 911              		.loc 1 771 0
 912              		.cfi_startproc
 913              		@ args = 0, pretend = 0, frame = 0
 914              		@ frame_needed = 0, uses_anonymous_args = 0
 915              		@ link register save eliminated.
 916              	.LVL62:
 917              		.loc 1 775 0
 918 0000 B1F5006F 		cmp	r1, #2048
 919              		.loc 1 778 0
 920 0004 0388     		ldrh	r3, [r0]
 921              		.loc 1 775 0
 922 0006 05D0     		beq	.L84
 923              		.loc 1 783 0
 924 0008 23F40063 		bic	r3, r3, #2048
 925 000c 1B04     		lsls	r3, r3, #16
 926 000e 1B0C     		lsrs	r3, r3, #16
 927 0010 0380     		strh	r3, [r0]	@ movhi
 928 0012 7047     		bx	lr
 929              	.L84:
 930              		.loc 1 778 0
 931 0014 9BB2     		uxth	r3, r3
 932 0016 43F40063 		orr	r3, r3, #2048
 933 001a 0380     		strh	r3, [r0]	@ movhi
 934 001c 7047     		bx	lr
 935              		.cfi_endproc
 936              	.LFE131:
 937              		.size	I2C_PECPositionConfig, .-I2C_PECPositionConfig
 938 001e 00BF     		.section	.text.I2C_CalculatePEC,"ax",%progbits
 939              		.align	2
 940              		.p2align 4,,15
 941              		.global	I2C_CalculatePEC
 942              		.thumb
 943              		.thumb_func
 944              		.type	I2C_CalculatePEC, %function
 945              	I2C_CalculatePEC:
 946              	.LFB132:
ARM GAS  C:\Users\jsyoon\AppData\Local\Temp\ccYheA2D.s 			page 18


 947              		.loc 1 795 0
 948              		.cfi_startproc
 949              		@ args = 0, pretend = 0, frame = 0
 950              		@ frame_needed = 0, uses_anonymous_args = 0
 951              		@ link register save eliminated.
 952              	.LVL63:
 953              		.loc 1 802 0
 954 0000 0388     		ldrh	r3, [r0]
 955              		.loc 1 799 0
 956 0002 29B9     		cbnz	r1, .L88
 957              		.loc 1 807 0
 958 0004 23F02003 		bic	r3, r3, #32
 959 0008 1B04     		lsls	r3, r3, #16
 960 000a 1B0C     		lsrs	r3, r3, #16
 961 000c 0380     		strh	r3, [r0]	@ movhi
 962 000e 7047     		bx	lr
 963              	.L88:
 964              		.loc 1 802 0
 965 0010 9BB2     		uxth	r3, r3
 966 0012 43F02003 		orr	r3, r3, #32
 967 0016 0380     		strh	r3, [r0]	@ movhi
 968 0018 7047     		bx	lr
 969              		.cfi_endproc
 970              	.LFE132:
 971              		.size	I2C_CalculatePEC, .-I2C_CalculatePEC
 972 001a 00BFAFF3 		.section	.text.I2C_GetPEC,"ax",%progbits
 972      0080
 973              		.align	2
 974              		.p2align 4,,15
 975              		.global	I2C_GetPEC
 976              		.thumb
 977              		.thumb_func
 978              		.type	I2C_GetPEC, %function
 979              	I2C_GetPEC:
 980              	.LFB133:
 981              		.loc 1 817 0
 982              		.cfi_startproc
 983              		@ args = 0, pretend = 0, frame = 0
 984              		@ frame_needed = 0, uses_anonymous_args = 0
 985              		@ link register save eliminated.
 986              	.LVL64:
 987              		.loc 1 821 0
 988 0000 008B     		ldrh	r0, [r0, #24]
 989              	.LVL65:
 990              		.loc 1 822 0
 991 0002 C0F30720 		ubfx	r0, r0, #8, #8
 992 0006 7047     		bx	lr
 993              		.cfi_endproc
 994              	.LFE133:
 995              		.size	I2C_GetPEC, .-I2C_GetPEC
 996 0008 AFF30080 		.section	.text.I2C_DMACmd,"ax",%progbits
 996      AFF30080 
 997              		.align	2
 998              		.p2align 4,,15
 999              		.global	I2C_DMACmd
 1000              		.thumb
 1001              		.thumb_func
ARM GAS  C:\Users\jsyoon\AppData\Local\Temp\ccYheA2D.s 			page 19


 1002              		.type	I2C_DMACmd, %function
 1003              	I2C_DMACmd:
 1004              	.LFB134:
 1005              		.loc 1 850 0
 1006              		.cfi_startproc
 1007              		@ args = 0, pretend = 0, frame = 0
 1008              		@ frame_needed = 0, uses_anonymous_args = 0
 1009              		@ link register save eliminated.
 1010              	.LVL66:
 1011              		.loc 1 857 0
 1012 0000 8388     		ldrh	r3, [r0, #4]
 1013              		.loc 1 854 0
 1014 0002 29B9     		cbnz	r1, .L93
 1015              		.loc 1 862 0
 1016 0004 23F40063 		bic	r3, r3, #2048
 1017 0008 1B04     		lsls	r3, r3, #16
 1018 000a 1B0C     		lsrs	r3, r3, #16
 1019 000c 8380     		strh	r3, [r0, #4]	@ movhi
 1020 000e 7047     		bx	lr
 1021              	.L93:
 1022              		.loc 1 857 0
 1023 0010 9BB2     		uxth	r3, r3
 1024 0012 43F40063 		orr	r3, r3, #2048
 1025 0016 8380     		strh	r3, [r0, #4]	@ movhi
 1026 0018 7047     		bx	lr
 1027              		.cfi_endproc
 1028              	.LFE134:
 1029              		.size	I2C_DMACmd, .-I2C_DMACmd
 1030 001a 00BFAFF3 		.section	.text.I2C_DMALastTransferCmd,"ax",%progbits
 1030      0080
 1031              		.align	2
 1032              		.p2align 4,,15
 1033              		.global	I2C_DMALastTransferCmd
 1034              		.thumb
 1035              		.thumb_func
 1036              		.type	I2C_DMALastTransferCmd, %function
 1037              	I2C_DMALastTransferCmd:
 1038              	.LFB135:
 1039              		.loc 1 874 0
 1040              		.cfi_startproc
 1041              		@ args = 0, pretend = 0, frame = 0
 1042              		@ frame_needed = 0, uses_anonymous_args = 0
 1043              		@ link register save eliminated.
 1044              	.LVL67:
 1045              		.loc 1 881 0
 1046 0000 8388     		ldrh	r3, [r0, #4]
 1047              		.loc 1 878 0
 1048 0002 29B9     		cbnz	r1, .L97
 1049              		.loc 1 886 0
 1050 0004 23F48053 		bic	r3, r3, #4096
 1051 0008 1B04     		lsls	r3, r3, #16
 1052 000a 1B0C     		lsrs	r3, r3, #16
 1053 000c 8380     		strh	r3, [r0, #4]	@ movhi
 1054 000e 7047     		bx	lr
 1055              	.L97:
 1056              		.loc 1 881 0
 1057 0010 9BB2     		uxth	r3, r3
ARM GAS  C:\Users\jsyoon\AppData\Local\Temp\ccYheA2D.s 			page 20


 1058 0012 43F48053 		orr	r3, r3, #4096
 1059 0016 8380     		strh	r3, [r0, #4]	@ movhi
 1060 0018 7047     		bx	lr
 1061              		.cfi_endproc
 1062              	.LFE135:
 1063              		.size	I2C_DMALastTransferCmd, .-I2C_DMALastTransferCmd
 1064 001a 00BFAFF3 		.section	.text.I2C_ReadRegister,"ax",%progbits
 1064      0080
 1065              		.align	2
 1066              		.p2align 4,,15
 1067              		.global	I2C_ReadRegister
 1068              		.thumb
 1069              		.thumb_func
 1070              		.type	I2C_ReadRegister, %function
 1071              	I2C_ReadRegister:
 1072              	.LFB136:
 1073              		.loc 1 1012 0
 1074              		.cfi_startproc
 1075              		@ args = 0, pretend = 0, frame = 8
 1076              		@ frame_needed = 0, uses_anonymous_args = 0
 1077              		@ link register save eliminated.
 1078              	.LVL68:
 1079 0000 82B0     		sub	sp, sp, #8
 1080              		.cfi_def_cfa_offset 8
 1081              		.loc 1 1013 0
 1082 0002 0023     		movs	r3, #0
 1083 0004 0193     		str	r3, [sp, #4]
 1084              		.loc 1 1019 0
 1085 0006 0190     		str	r0, [sp, #4]
 1086              		.loc 1 1020 0
 1087 0008 019B     		ldr	r3, [sp, #4]
 1088 000a 1944     		add	r1, r1, r3
 1089              	.LVL69:
 1090 000c 0191     		str	r1, [sp, #4]
 1091              		.loc 1 1023 0
 1092 000e 019B     		ldr	r3, [sp, #4]
 1093 0010 1888     		ldrh	r0, [r3]
 1094              	.LVL70:
 1095              		.loc 1 1024 0
 1096 0012 80B2     		uxth	r0, r0
 1097 0014 02B0     		add	sp, sp, #8
 1098              		@ sp needed
 1099 0016 7047     		bx	lr
 1100              		.cfi_endproc
 1101              	.LFE136:
 1102              		.size	I2C_ReadRegister, .-I2C_ReadRegister
 1103 0018 AFF30080 		.section	.text.I2C_ITConfig,"ax",%progbits
 1103      AFF30080 
 1104              		.align	2
 1105              		.p2align 4,,15
 1106              		.global	I2C_ITConfig
 1107              		.thumb
 1108              		.thumb_func
 1109              		.type	I2C_ITConfig, %function
 1110              	I2C_ITConfig:
 1111              	.LFB137:
 1112              		.loc 1 1039 0
ARM GAS  C:\Users\jsyoon\AppData\Local\Temp\ccYheA2D.s 			page 21


 1113              		.cfi_startproc
 1114              		@ args = 0, pretend = 0, frame = 0
 1115              		@ frame_needed = 0, uses_anonymous_args = 0
 1116              		@ link register save eliminated.
 1117              	.LVL71:
 1118              		.loc 1 1048 0
 1119 0000 8388     		ldrh	r3, [r0, #4]
 1120 0002 9BB2     		uxth	r3, r3
 1121              		.loc 1 1045 0
 1122 0004 1AB9     		cbnz	r2, .L102
 1123              		.loc 1 1053 0
 1124 0006 23EA0101 		bic	r1, r3, r1
 1125              	.LVL72:
 1126 000a 8180     		strh	r1, [r0, #4]	@ movhi
 1127 000c 7047     		bx	lr
 1128              	.LVL73:
 1129              	.L102:
 1130              		.loc 1 1048 0
 1131 000e 1943     		orrs	r1, r1, r3
 1132              	.LVL74:
 1133 0010 8180     		strh	r1, [r0, #4]	@ movhi
 1134 0012 7047     		bx	lr
 1135              		.cfi_endproc
 1136              	.LFE137:
 1137              		.size	I2C_ITConfig, .-I2C_ITConfig
 1138 0014 AFF30080 		.section	.text.I2C_CheckEvent,"ax",%progbits
 1138      AFF30080 
 1138      AFF30080 
 1139              		.align	2
 1140              		.p2align 4,,15
 1141              		.global	I2C_CheckEvent
 1142              		.thumb
 1143              		.thumb_func
 1144              		.type	I2C_CheckEvent, %function
 1145              	I2C_CheckEvent:
 1146              	.LFB138:
 1147              		.loc 1 1098 0
 1148              		.cfi_startproc
 1149              		@ args = 0, pretend = 0, frame = 0
 1150              		@ frame_needed = 0, uses_anonymous_args = 0
 1151              		@ link register save eliminated.
 1152              	.LVL75:
 1153              		.loc 1 1108 0
 1154 0000 828A     		ldrh	r2, [r0, #20]
 1155              		.loc 1 1109 0
 1156 0002 038B     		ldrh	r3, [r0, #24]
 1157              		.loc 1 1108 0
 1158 0004 90B2     		uxth	r0, r2
 1159              	.LVL76:
 1160              		.loc 1 1113 0
 1161 0006 40EA0340 		orr	r0, r0, r3, lsl #16
 1162              	.LVL77:
 1163 000a 21F07F43 		bic	r3, r1, #-16777216
 1164              	.LVL78:
 1165              		.loc 1 1116 0
 1166 000e 1840     		ands	r0, r0, r3
 1167              		.loc 1 1128 0
ARM GAS  C:\Users\jsyoon\AppData\Local\Temp\ccYheA2D.s 			page 22


 1168 0010 0B1A     		subs	r3, r1, r0
 1169 0012 5842     		rsbs	r0, r3, #0
 1170 0014 5841     		adcs	r0, r0, r3
 1171 0016 7047     		bx	lr
 1172              		.cfi_endproc
 1173              	.LFE138:
 1174              		.size	I2C_CheckEvent, .-I2C_CheckEvent
 1175 0018 AFF30080 		.section	.text.I2C_GetLastEvent,"ax",%progbits
 1175      AFF30080 
 1176              		.align	2
 1177              		.p2align 4,,15
 1178              		.global	I2C_GetLastEvent
 1179              		.thumb
 1180              		.thumb_func
 1181              		.type	I2C_GetLastEvent, %function
 1182              	I2C_GetLastEvent:
 1183              	.LFB139:
 1184              		.loc 1 1146 0
 1185              		.cfi_startproc
 1186              		@ args = 0, pretend = 0, frame = 0
 1187              		@ frame_needed = 0, uses_anonymous_args = 0
 1188              		@ link register save eliminated.
 1189              	.LVL79:
 1190              		.loc 1 1154 0
 1191 0000 828A     		ldrh	r2, [r0, #20]
 1192              		.loc 1 1155 0
 1193 0002 038B     		ldrh	r3, [r0, #24]
 1194              		.loc 1 1154 0
 1195 0004 90B2     		uxth	r0, r2
 1196              	.LVL80:
 1197              		.loc 1 1159 0
 1198 0006 40EA0340 		orr	r0, r0, r3, lsl #16
 1199              	.LVL81:
 1200              		.loc 1 1163 0
 1201 000a 20F07F40 		bic	r0, r0, #-16777216
 1202 000e 7047     		bx	lr
 1203              		.cfi_endproc
 1204              	.LFE139:
 1205              		.size	I2C_GetLastEvent, .-I2C_GetLastEvent
 1206              		.section	.text.I2C_GetFlagStatus,"ax",%progbits
 1207              		.align	2
 1208              		.p2align 4,,15
 1209              		.global	I2C_GetFlagStatus
 1210              		.thumb
 1211              		.thumb_func
 1212              		.type	I2C_GetFlagStatus, %function
 1213              	I2C_GetFlagStatus:
 1214              	.LFB140:
 1215              		.loc 1 1201 0
 1216              		.cfi_startproc
 1217              		@ args = 0, pretend = 0, frame = 8
 1218              		@ frame_needed = 0, uses_anonymous_args = 0
 1219              		@ link register save eliminated.
 1220              	.LVL82:
 1221 0000 82B0     		sub	sp, sp, #8
 1222              		.cfi_def_cfa_offset 8
 1223              		.loc 1 1203 0
ARM GAS  C:\Users\jsyoon\AppData\Local\Temp\ccYheA2D.s 			page 23


 1224 0002 0023     		movs	r3, #0
 1225              		.loc 1 1213 0
 1226 0004 0A0F     		lsrs	r2, r1, #28
 1227              		.loc 1 1203 0
 1228 0006 0093     		str	r3, [sp]
 1229 0008 0193     		str	r3, [sp, #4]
 1230              		.loc 1 1210 0
 1231 000a 0190     		str	r0, [sp, #4]
 1232              		.loc 1 1213 0
 1233 000c 0092     		str	r2, [sp]
 1234              		.loc 1 1218 0
 1235 000e 009B     		ldr	r3, [sp]
 1236              		.loc 1 1216 0
 1237 0010 21F07F41 		bic	r1, r1, #-16777216
 1238              	.LVL83:
 1239              		.loc 1 1218 0
 1240 0014 53B1     		cbz	r3, .L106
 1241              		.loc 1 1221 0
 1242 0016 019B     		ldr	r3, [sp, #4]
 1243 0018 1433     		adds	r3, r3, #20
 1244 001a 0193     		str	r3, [sp, #4]
 1245              	.L107:
 1246              		.loc 1 1231 0
 1247 001c 019B     		ldr	r3, [sp, #4]
 1248 001e 1B68     		ldr	r3, [r3]
 1249              	.LVL84:
 1250 0020 1942     		tst	r1, r3
 1251              		.loc 1 1244 0
 1252 0022 0CBF     		ite	eq
 1253 0024 0020     		moveq	r0, #0
 1254 0026 0120     		movne	r0, #1
 1255              	.LVL85:
 1256 0028 02B0     		add	sp, sp, #8
 1257              		@ sp needed
 1258 002a 7047     		bx	lr
 1259              	.LVL86:
 1260              	.L106:
 1261              		.loc 1 1228 0
 1262 002c 019B     		ldr	r3, [sp, #4]
 1263 002e 1833     		adds	r3, r3, #24
 1264              		.loc 1 1226 0
 1265 0030 090C     		lsrs	r1, r1, #16
 1266              	.LVL87:
 1267              		.loc 1 1228 0
 1268 0032 0193     		str	r3, [sp, #4]
 1269 0034 F2E7     		b	.L107
 1270              		.cfi_endproc
 1271              	.LFE140:
 1272              		.size	I2C_GetFlagStatus, .-I2C_GetFlagStatus
 1273 0036 00BFAFF3 		.section	.text.I2C_ClearFlag,"ax",%progbits
 1273      0080AFF3 
 1273      0080
 1274              		.align	2
 1275              		.p2align 4,,15
 1276              		.global	I2C_ClearFlag
 1277              		.thumb
 1278              		.thumb_func
ARM GAS  C:\Users\jsyoon\AppData\Local\Temp\ccYheA2D.s 			page 24


 1279              		.type	I2C_ClearFlag, %function
 1280              	I2C_ClearFlag:
 1281              	.LFB141:
 1282              		.loc 1 1278 0
 1283              		.cfi_startproc
 1284              		@ args = 0, pretend = 0, frame = 0
 1285              		@ frame_needed = 0, uses_anonymous_args = 0
 1286              		@ link register save eliminated.
 1287              	.LVL88:
 1288              		.loc 1 1286 0
 1289 0000 C943     		mvns	r1, r1
 1290              	.LVL89:
 1291 0002 89B2     		uxth	r1, r1
 1292              	.LVL90:
 1293 0004 8182     		strh	r1, [r0, #20]	@ movhi
 1294 0006 7047     		bx	lr
 1295              		.cfi_endproc
 1296              	.LFE141:
 1297              		.size	I2C_ClearFlag, .-I2C_ClearFlag
 1298 0008 AFF30080 		.section	.text.I2C_GetITStatus,"ax",%progbits
 1298      AFF30080 
 1299              		.align	2
 1300              		.p2align 4,,15
 1301              		.global	I2C_GetITStatus
 1302              		.thumb
 1303              		.thumb_func
 1304              		.type	I2C_GetITStatus, %function
 1305              	I2C_GetITStatus:
 1306              	.LFB142:
 1307              		.loc 1 1312 0
 1308              		.cfi_startproc
 1309              		@ args = 0, pretend = 0, frame = 0
 1310              		@ frame_needed = 0, uses_anonymous_args = 0
 1311              		@ link register save eliminated.
 1312              	.LVL91:
 1313              		.loc 1 1321 0
 1314 0000 8388     		ldrh	r3, [r0, #4]
 1315              		.loc 1 1327 0
 1316 0002 808A     		ldrh	r0, [r0, #20]
 1317              	.LVL92:
 1318 0004 80B2     		uxth	r0, r0
 1319 0006 0840     		ands	r0, r1, r0
 1320              		.loc 1 1321 0
 1321 0008 9BB2     		uxth	r3, r3
 1322              	.LVL93:
 1323              		.loc 1 1327 0
 1324 000a 06D0     		beq	.L110
 1325              		.loc 1 1321 0 discriminator 1
 1326 000c 01F0E061 		and	r1, r1, #117440512
 1327              	.LVL94:
 1328              		.loc 1 1327 0 discriminator 1
 1329 0010 13EA1141 		ands	r1, r3, r1, lsr #16
 1330              	.LVL95:
 1331              		.loc 1 1330 0 discriminator 1
 1332 0014 0CBF     		ite	eq
 1333 0016 0020     		moveq	r0, #0
 1334 0018 0120     		movne	r0, #1
ARM GAS  C:\Users\jsyoon\AppData\Local\Temp\ccYheA2D.s 			page 25


 1335              	.L110:
 1336              	.LVL96:
 1337              		.loc 1 1339 0
 1338 001a 7047     		bx	lr
 1339              		.cfi_endproc
 1340              	.LFE142:
 1341              		.size	I2C_GetITStatus, .-I2C_GetITStatus
 1342 001c AFF30080 		.section	.text.I2C_ClearITPendingBit,"ax",%progbits
 1343              		.align	2
 1344              		.p2align 4,,15
 1345              		.global	I2C_ClearITPendingBit
 1346              		.thumb
 1347              		.thumb_func
 1348              		.type	I2C_ClearITPendingBit, %function
 1349              	I2C_ClearITPendingBit:
 1350              	.LFB143:
 1351              		.loc 1 1372 0
 1352              		.cfi_startproc
 1353              		@ args = 0, pretend = 0, frame = 0
 1354              		@ frame_needed = 0, uses_anonymous_args = 0
 1355              		@ link register save eliminated.
 1356              	.LVL97:
 1357              		.loc 1 1382 0
 1358 0000 C943     		mvns	r1, r1
 1359              	.LVL98:
 1360 0002 89B2     		uxth	r1, r1
 1361              	.LVL99:
 1362 0004 8182     		strh	r1, [r0, #20]	@ movhi
 1363 0006 7047     		bx	lr
 1364              		.cfi_endproc
 1365              	.LFE143:
 1366              		.size	I2C_ClearITPendingBit, .-I2C_ClearITPendingBit
 1367 0008 AFF30080 		.text
 1367      AFF30080 
 1368              	.Letext0:
 1369              		.file 2 "c:\\crosstools\\gcc-arm-embedded\\4.8_2014q2\\arm-none-eabi\\include\\machine\\_default_t
 1370              		.file 3 "c:\\crosstools\\gcc-arm-embedded\\4.8_2014q2\\arm-none-eabi\\include\\stdint.h"
 1371              		.file 4 "ChibiOS_2.6.6/os/hal/platforms/STM32F4xx/stm32f4xx.h"
 1372              		.file 5 "ChibiOS_2.6.6/ext/stdperiph_stm32f4/inc/stm32f4xx_rcc.h"
 1373              		.file 6 "ChibiOS_2.6.6/ext/stdperiph_stm32f4/inc/stm32f4xx_i2c.h"
 1374              		.file 7 "ChibiOS_2.6.6/os/ports/common/ARMCMx/CMSIS/include/core_cm4.h"