ARM GAS  C:\Users\ADMINI~1\AppData\Local\Temp\cckYT8kQ.s 			page 1


   1              		.syntax unified
   2              		.cpu cortex-m4
   3              		.eabi_attribute 27, 1
   4              		.eabi_attribute 28, 1
   5              		.fpu fpv4-sp-d16
   6              		.eabi_attribute 20, 1
   7              		.eabi_attribute 21, 1
   8              		.eabi_attribute 23, 3
   9              		.eabi_attribute 24, 1
  10              		.eabi_attribute 25, 1
  11              		.eabi_attribute 26, 1
  12              		.eabi_attribute 30, 2
  13              		.eabi_attribute 34, 1
  14              		.eabi_attribute 18, 4
  15              		.thumb
  16              		.file	"stm32f4xx_exti.c"
  17              		.text
  18              	.Ltext0:
  19              		.cfi_sections	.debug_frame
  20              		.section	.text.EXTI_DeInit,"ax",%progbits
  21              		.align	2
  22              		.p2align 4,,15
  23              		.global	EXTI_DeInit
  24              		.thumb
  25              		.thumb_func
  26              		.type	EXTI_DeInit, %function
  27              	EXTI_DeInit:
  28              	.LFB111:
  29              		.file 1 "ChibiOS_2.6.6/ext/stdperiph_stm32f4/src/stm32f4xx_exti.c"
  30              		.loc 1 110 0
  31              		.cfi_startproc
  32              		@ args = 0, pretend = 0, frame = 0
  33              		@ frame_needed = 0, uses_anonymous_args = 0
  34              		@ link register save eliminated.
  35              		.loc 1 111 0
  36 0000 044B     		ldr	r3, .L2
  37              		.loc 1 115 0
  38 0002 0549     		ldr	r1, .L2+4
  39              		.loc 1 111 0
  40 0004 0022     		movs	r2, #0
  41 0006 1A60     		str	r2, [r3]
  42              		.loc 1 112 0
  43 0008 5A60     		str	r2, [r3, #4]
  44              		.loc 1 113 0
  45 000a 9A60     		str	r2, [r3, #8]
  46              		.loc 1 114 0
  47 000c DA60     		str	r2, [r3, #12]
  48              		.loc 1 115 0
  49 000e 5961     		str	r1, [r3, #20]
  50 0010 7047     		bx	lr
  51              	.L3:
  52 0012 00BF     		.align	2
  53              	.L2:
  54 0014 003C0140 		.word	1073822720
  55 0018 FFFF7F00 		.word	8388607
  56              		.cfi_endproc
  57              	.LFE111:
ARM GAS  C:\Users\ADMINI~1\AppData\Local\Temp\cckYT8kQ.s 			page 2


  58              		.size	EXTI_DeInit, .-EXTI_DeInit
  59              		.section	.text.EXTI_Init,"ax",%progbits
  60              		.align	2
  61              		.p2align 4,,15
  62              		.global	EXTI_Init
  63              		.thumb
  64              		.thumb_func
  65              		.type	EXTI_Init, %function
  66              	EXTI_Init:
  67              	.LFB112:
  68              		.loc 1 126 0
  69              		.cfi_startproc
  70              		@ args = 0, pretend = 0, frame = 0
  71              		@ frame_needed = 0, uses_anonymous_args = 0
  72              		@ link register save eliminated.
  73              	.LVL0:
  74              		.loc 1 137 0
  75 0000 8379     		ldrb	r3, [r0, #6]	@ zero_extendqisi2
  76 0002 33B3     		cbz	r3, .L5
  77              		.loc 1 140 0
  78 0004 1C4B     		ldr	r3, .L12
  79              		.loc 1 143 0
  80 0006 0279     		ldrb	r2, [r0, #4]	@ zero_extendqisi2
  81              		.loc 1 152 0
  82 0008 4179     		ldrb	r1, [r0, #5]	@ zero_extendqisi2
  83              		.loc 1 126 0
  84 000a F0B4     		push	{r4, r5, r6, r7}
  85              		.cfi_def_cfa_offset 16
  86              		.cfi_offset 4, -16
  87              		.cfi_offset 5, -12
  88              		.cfi_offset 6, -8
  89              		.cfi_offset 7, -4
  90              		.loc 1 140 0
  91 000c 0468     		ldr	r4, [r0]
  92 000e 1E68     		ldr	r6, [r3]
  93 0010 E743     		mvns	r7, r4
  94 0012 3E40     		ands	r6, r6, r7
  95 0014 1E60     		str	r6, [r3]
  96              		.loc 1 141 0
  97 0016 5D68     		ldr	r5, [r3, #4]
  98              		.loc 1 143 0
  99 0018 02F18042 		add	r2, r2, #1073741824
 100 001c 02F59E32 		add	r2, r2, #80896
 101              		.loc 1 141 0
 102 0020 3D40     		ands	r5, r5, r7
 103 0022 5D60     		str	r5, [r3, #4]
 104              	.LVL1:
 105              		.loc 1 145 0
 106 0024 1568     		ldr	r5, [r2]
 107 0026 2C43     		orrs	r4, r4, r5
 108 0028 1460     		str	r4, [r2]
 109              	.LVL2:
 110              		.loc 1 148 0
 111 002a 0268     		ldr	r2, [r0]
 112 002c 9C68     		ldr	r4, [r3, #8]
 113 002e D543     		mvns	r5, r2
 114 0030 2C40     		ands	r4, r4, r5
ARM GAS  C:\Users\ADMINI~1\AppData\Local\Temp\cckYT8kQ.s 			page 3


 115 0032 9C60     		str	r4, [r3, #8]
 116              		.loc 1 149 0
 117 0034 D868     		ldr	r0, [r3, #12]
 118              	.LVL3:
 119              		.loc 1 152 0
 120 0036 1029     		cmp	r1, #16
 121              		.loc 1 149 0
 122 0038 00EA0500 		and	r0, r0, r5
 123 003c D860     		str	r0, [r3, #12]
 124              		.loc 1 152 0
 125 003e 13D0     		beq	.L11
 126              	.LVL4:
 127              		.loc 1 161 0
 128 0040 01F18043 		add	r3, r1, #1073741824
 129 0044 03F59E33 		add	r3, r3, #80896
 130              		.loc 1 173 0
 131 0048 F0BC     		pop	{r4, r5, r6, r7}
 132              		.cfi_restore 7
 133              		.cfi_restore 6
 134              		.cfi_restore 5
 135              		.cfi_restore 4
 136              		.cfi_def_cfa_offset 0
 137              		.loc 1 163 0
 138 004a 1968     		ldr	r1, [r3]
 139              	.LVL5:
 140 004c 0A43     		orrs	r2, r2, r1
 141 004e 1A60     		str	r2, [r3]
 142              		.loc 1 173 0
 143 0050 7047     		bx	lr
 144              	.LVL6:
 145              	.L5:
 146              		.loc 1 168 0
 147 0052 0379     		ldrb	r3, [r0, #4]	@ zero_extendqisi2
 148              		.loc 1 171 0
 149 0054 0168     		ldr	r1, [r0]
 150              		.loc 1 168 0
 151 0056 03F18043 		add	r3, r3, #1073741824
 152 005a 03F59E33 		add	r3, r3, #80896
 153              		.loc 1 171 0
 154 005e 1A68     		ldr	r2, [r3]
 155 0060 22EA0102 		bic	r2, r2, r1
 156 0064 1A60     		str	r2, [r3]
 157              	.LVL7:
 158 0066 7047     		bx	lr
 159              	.LVL8:
 160              	.L11:
 161              		.cfi_def_cfa_offset 16
 162              		.cfi_offset 4, -16
 163              		.cfi_offset 5, -12
 164              		.cfi_offset 6, -8
 165              		.cfi_offset 7, -4
 166              		.loc 1 155 0
 167 0068 9968     		ldr	r1, [r3, #8]
 168 006a 1143     		orrs	r1, r1, r2
 169 006c 9960     		str	r1, [r3, #8]
 170              		.loc 1 156 0
 171 006e D968     		ldr	r1, [r3, #12]
ARM GAS  C:\Users\ADMINI~1\AppData\Local\Temp\cckYT8kQ.s 			page 4


 172 0070 0A43     		orrs	r2, r2, r1
 173 0072 DA60     		str	r2, [r3, #12]
 174              		.loc 1 173 0
 175 0074 F0BC     		pop	{r4, r5, r6, r7}
 176              		.cfi_restore 4
 177              		.cfi_restore 5
 178              		.cfi_restore 6
 179              		.cfi_restore 7
 180              		.cfi_def_cfa_offset 0
 181 0076 7047     		bx	lr
 182              	.L13:
 183              		.align	2
 184              	.L12:
 185 0078 003C0140 		.word	1073822720
 186              		.cfi_endproc
 187              	.LFE112:
 188              		.size	EXTI_Init, .-EXTI_Init
 189              		.section	.text.EXTI_StructInit,"ax",%progbits
 190              		.align	2
 191              		.p2align 4,,15
 192              		.global	EXTI_StructInit
 193              		.thumb
 194              		.thumb_func
 195              		.type	EXTI_StructInit, %function
 196              	EXTI_StructInit:
 197              	.LFB113:
 198              		.loc 1 182 0
 199              		.cfi_startproc
 200              		@ args = 0, pretend = 0, frame = 0
 201              		@ frame_needed = 0, uses_anonymous_args = 0
 202              		@ link register save eliminated.
 203              	.LVL9:
 204              		.loc 1 183 0
 205 0000 0023     		movs	r3, #0
 206              		.loc 1 185 0
 207 0002 0C22     		movs	r2, #12
 208 0004 4271     		strb	r2, [r0, #5]
 209              		.loc 1 183 0
 210 0006 0360     		str	r3, [r0]
 211              		.loc 1 184 0
 212 0008 0371     		strb	r3, [r0, #4]
 213              		.loc 1 186 0
 214 000a 8371     		strb	r3, [r0, #6]
 215 000c 7047     		bx	lr
 216              		.cfi_endproc
 217              	.LFE113:
 218              		.size	EXTI_StructInit, .-EXTI_StructInit
 219 000e 00BF     		.section	.text.EXTI_GenerateSWInterrupt,"ax",%progbits
 220              		.align	2
 221              		.p2align 4,,15
 222              		.global	EXTI_GenerateSWInterrupt
 223              		.thumb
 224              		.thumb_func
 225              		.type	EXTI_GenerateSWInterrupt, %function
 226              	EXTI_GenerateSWInterrupt:
 227              	.LFB114:
 228              		.loc 1 197 0
ARM GAS  C:\Users\ADMINI~1\AppData\Local\Temp\cckYT8kQ.s 			page 5


 229              		.cfi_startproc
 230              		@ args = 0, pretend = 0, frame = 0
 231              		@ frame_needed = 0, uses_anonymous_args = 0
 232              		@ link register save eliminated.
 233              	.LVL10:
 234              		.loc 1 201 0
 235 0000 024A     		ldr	r2, .L16
 236 0002 1369     		ldr	r3, [r2, #16]
 237 0004 1843     		orrs	r0, r0, r3
 238              	.LVL11:
 239 0006 1061     		str	r0, [r2, #16]
 240 0008 7047     		bx	lr
 241              	.L17:
 242 000a 00BF     		.align	2
 243              	.L16:
 244 000c 003C0140 		.word	1073822720
 245              		.cfi_endproc
 246              	.LFE114:
 247              		.size	EXTI_GenerateSWInterrupt, .-EXTI_GenerateSWInterrupt
 248              		.section	.text.EXTI_GetFlagStatus,"ax",%progbits
 249              		.align	2
 250              		.p2align 4,,15
 251              		.global	EXTI_GetFlagStatus
 252              		.thumb
 253              		.thumb_func
 254              		.type	EXTI_GetFlagStatus, %function
 255              	EXTI_GetFlagStatus:
 256              	.LFB115:
 257              		.loc 1 227 0
 258              		.cfi_startproc
 259              		@ args = 0, pretend = 0, frame = 0
 260              		@ frame_needed = 0, uses_anonymous_args = 0
 261              		@ link register save eliminated.
 262              	.LVL12:
 263              		.loc 1 232 0
 264 0000 034B     		ldr	r3, .L19
 265 0002 5B69     		ldr	r3, [r3, #20]
 266              	.LVL13:
 267 0004 1842     		tst	r0, r3
 268              		.loc 1 241 0
 269 0006 14BF     		ite	ne
 270 0008 0120     		movne	r0, #1
 271              	.LVL14:
 272 000a 0020     		moveq	r0, #0
 273 000c 7047     		bx	lr
 274              	.L20:
 275 000e 00BF     		.align	2
 276              	.L19:
 277 0010 003C0140 		.word	1073822720
 278              		.cfi_endproc
 279              	.LFE115:
 280              		.size	EXTI_GetFlagStatus, .-EXTI_GetFlagStatus
 281              		.section	.text.EXTI_ClearFlag,"ax",%progbits
 282              		.align	2
 283              		.p2align 4,,15
 284              		.global	EXTI_ClearFlag
 285              		.thumb
ARM GAS  C:\Users\ADMINI~1\AppData\Local\Temp\cckYT8kQ.s 			page 6


 286              		.thumb_func
 287              		.type	EXTI_ClearFlag, %function
 288              	EXTI_ClearFlag:
 289              	.LFB116:
 290              		.loc 1 250 0
 291              		.cfi_startproc
 292              		@ args = 0, pretend = 0, frame = 0
 293              		@ frame_needed = 0, uses_anonymous_args = 0
 294              		@ link register save eliminated.
 295              	.LVL15:
 296              		.loc 1 254 0
 297 0000 014B     		ldr	r3, .L22
 298 0002 5861     		str	r0, [r3, #20]
 299 0004 7047     		bx	lr
 300              	.L23:
 301 0006 00BF     		.align	2
 302              	.L22:
 303 0008 003C0140 		.word	1073822720
 304              		.cfi_endproc
 305              	.LFE116:
 306              		.size	EXTI_ClearFlag, .-EXTI_ClearFlag
 307              		.section	.text.EXTI_GetITStatus,"ax",%progbits
 308              		.align	2
 309              		.p2align 4,,15
 310              		.global	EXTI_GetITStatus
 311              		.thumb
 312              		.thumb_func
 313              		.type	EXTI_GetITStatus, %function
 314              	EXTI_GetITStatus:
 315              	.LFB117:
 316              		.loc 1 264 0
 317              		.cfi_startproc
 318              		@ args = 0, pretend = 0, frame = 0
 319              		@ frame_needed = 0, uses_anonymous_args = 0
 320              		@ link register save eliminated.
 321              	.LVL16:
 322              		.loc 1 270 0
 323 0000 054B     		ldr	r3, .L27
 324 0002 1A68     		ldr	r2, [r3]
 325              		.loc 1 271 0
 326 0004 5B69     		ldr	r3, [r3, #20]
 327              	.LVL17:
 328 0006 0340     		ands	r3, r0, r3
 329 0008 04D0     		beq	.L26
 330              		.loc 1 271 0 is_stmt 0 discriminator 1
 331 000a 1042     		tst	r0, r2
 332              		.loc 1 273 0 is_stmt 1 discriminator 1
 333 000c 14BF     		ite	ne
 334 000e 0120     		movne	r0, #1
 335              	.LVL18:
 336 0010 0020     		moveq	r0, #0
 337 0012 7047     		bx	lr
 338              	.LVL19:
 339              	.L26:
 340              		.loc 1 277 0
 341 0014 1846     		mov	r0, r3
 342              	.LVL20:
ARM GAS  C:\Users\ADMINI~1\AppData\Local\Temp\cckYT8kQ.s 			page 7


 343              		.loc 1 280 0
 344 0016 7047     		bx	lr
 345              	.L28:
 346              		.align	2
 347              	.L27:
 348 0018 003C0140 		.word	1073822720
 349              		.cfi_endproc
 350              	.LFE117:
 351              		.size	EXTI_GetITStatus, .-EXTI_GetITStatus
 352              		.section	.text.EXTI_ClearITPendingBit,"ax",%progbits
 353              		.align	2
 354              		.p2align 4,,15
 355              		.global	EXTI_ClearITPendingBit
 356              		.thumb
 357              		.thumb_func
 358              		.type	EXTI_ClearITPendingBit, %function
 359              	EXTI_ClearITPendingBit:
 360              	.LFB118:
 361              		.loc 1 289 0
 362              		.cfi_startproc
 363              		@ args = 0, pretend = 0, frame = 0
 364              		@ frame_needed = 0, uses_anonymous_args = 0
 365              		@ link register save eliminated.
 366              	.LVL21:
 367              		.loc 1 293 0
 368 0000 014B     		ldr	r3, .L30
 369 0002 5861     		str	r0, [r3, #20]
 370 0004 7047     		bx	lr
 371              	.L31:
 372 0006 00BF     		.align	2
 373              	.L30:
 374 0008 003C0140 		.word	1073822720
 375              		.cfi_endproc
 376              	.LFE118:
 377              		.size	EXTI_ClearITPendingBit, .-EXTI_ClearITPendingBit
 378              		.text
 379              	.Letext0:
 380              		.file 2 "c:\\program files\\gnu tools arm embedded\\4.9 2015q2\\arm-none-eabi\\include\\machine\\_
 381              		.file 3 "c:\\program files\\gnu tools arm embedded\\4.9 2015q2\\arm-none-eabi\\include\\sys\\_stdi
 382              		.file 4 "ChibiOS_2.6.6/os/hal/platforms/STM32F4xx/stm32f4xx.h"
 383              		.file 5 "ChibiOS_2.6.6/ext/stdperiph_stm32f4/inc/stm32f4xx_exti.h"
 384              		.file 6 "ChibiOS_2.6.6/os/ports/common/ARMCMx/CMSIS/include/core_cm4.h"
 385              		.section	.debug_info,"",%progbits
 386              	.Ldebug_info0:
 387 0000 4C030000 		.4byte	0x34c
 388 0004 0400     		.2byte	0x4
 389 0006 00000000 		.4byte	.Ldebug_abbrev0
 390 000a 04       		.byte	0x4
 391 000b 01       		.uleb128 0x1
 392 000c 9E020000 		.4byte	.LASF46
 393 0010 01       		.byte	0x1
 394 0011 DD010000 		.4byte	.LASF47
 395 0015 77020000 		.4byte	.LASF48
 396 0019 00000000 		.4byte	.Ldebug_ranges0+0
 397 001d 00000000 		.4byte	0
 398 0021 00000000 		.4byte	.Ldebug_line0
 399 0025 02       		.uleb128 0x2
ARM GAS  C:\Users\ADMINI~1\AppData\Local\Temp\cckYT8kQ.s 			page 8


 400 0026 01       		.byte	0x1
 401 0027 06       		.byte	0x6
 402 0028 D0030000 		.4byte	.LASF0
 403 002c 02       		.uleb128 0x2
 404 002d 01       		.byte	0x1
 405 002e 08       		.byte	0x8
 406 002f E0000000 		.4byte	.LASF1
 407 0033 02       		.uleb128 0x2
 408 0034 02       		.byte	0x2
 409 0035 05       		.byte	0x5
 410 0036 6D020000 		.4byte	.LASF2
 411 003a 02       		.uleb128 0x2
 412 003b 02       		.byte	0x2
 413 003c 07       		.byte	0x7
 414 003d 5E000000 		.4byte	.LASF3
 415 0041 03       		.uleb128 0x3
 416 0042 44000000 		.4byte	.LASF5
 417 0046 02       		.byte	0x2
 418 0047 3F       		.byte	0x3f
 419 0048 4C000000 		.4byte	0x4c
 420 004c 02       		.uleb128 0x2
 421 004d 04       		.byte	0x4
 422 004e 05       		.byte	0x5
 423 004f C7030000 		.4byte	.LASF4
 424 0053 03       		.uleb128 0x3
 425 0054 61010000 		.4byte	.LASF6
 426 0058 02       		.byte	0x2
 427 0059 41       		.byte	0x41
 428 005a 5E000000 		.4byte	0x5e
 429 005e 02       		.uleb128 0x2
 430 005f 04       		.byte	0x4
 431 0060 07       		.byte	0x7
 432 0061 08010000 		.4byte	.LASF7
 433 0065 02       		.uleb128 0x2
 434 0066 08       		.byte	0x8
 435 0067 05       		.byte	0x5
 436 0068 37020000 		.4byte	.LASF8
 437 006c 02       		.uleb128 0x2
 438 006d 08       		.byte	0x8
 439 006e 07       		.byte	0x7
 440 006f C6010000 		.4byte	.LASF9
 441 0073 04       		.uleb128 0x4
 442 0074 04       		.byte	0x4
 443 0075 05       		.byte	0x5
 444 0076 696E7400 		.ascii	"int\000"
 445 007a 02       		.uleb128 0x2
 446 007b 04       		.byte	0x4
 447 007c 07       		.byte	0x7
 448 007d 9C010000 		.4byte	.LASF10
 449 0081 03       		.uleb128 0x3
 450 0082 26020000 		.4byte	.LASF11
 451 0086 03       		.byte	0x3
 452 0087 1F       		.byte	0x1f
 453 0088 41000000 		.4byte	0x41
 454 008c 03       		.uleb128 0x3
 455 008d 58010000 		.4byte	.LASF12
 456 0091 03       		.byte	0x3
ARM GAS  C:\Users\ADMINI~1\AppData\Local\Temp\cckYT8kQ.s 			page 9


 457 0092 20       		.byte	0x20
 458 0093 53000000 		.4byte	0x53
 459 0097 02       		.uleb128 0x2
 460 0098 04       		.byte	0x4
 461 0099 07       		.byte	0x7
 462 009a 2E020000 		.4byte	.LASF13
 463 009e 05       		.uleb128 0x5
 464 009f 8C000000 		.4byte	0x8c
 465 00a3 05       		.uleb128 0x5
 466 00a4 81000000 		.4byte	0x81
 467 00a8 06       		.uleb128 0x6
 468 00a9 01       		.byte	0x1
 469 00aa 04       		.byte	0x4
 470 00ab F701     		.2byte	0x1f7
 471 00ad BE000000 		.4byte	0xbe
 472 00b1 07       		.uleb128 0x7
 473 00b2 1A010000 		.4byte	.LASF14
 474 00b6 00       		.sleb128 0
 475 00b7 08       		.uleb128 0x8
 476 00b8 53455400 		.ascii	"SET\000"
 477 00bc 01       		.sleb128 1
 478 00bd 00       		.byte	0
 479 00be 09       		.uleb128 0x9
 480 00bf EE000000 		.4byte	.LASF15
 481 00c3 04       		.byte	0x4
 482 00c4 F701     		.2byte	0x1f7
 483 00c6 A8000000 		.4byte	0xa8
 484 00ca 09       		.uleb128 0x9
 485 00cb 14000000 		.4byte	.LASF16
 486 00cf 04       		.byte	0x4
 487 00d0 F701     		.2byte	0x1f7
 488 00d2 A8000000 		.4byte	0xa8
 489 00d6 06       		.uleb128 0x6
 490 00d7 01       		.byte	0x1
 491 00d8 04       		.byte	0x4
 492 00d9 F901     		.2byte	0x1f9
 493 00db EC000000 		.4byte	0xec
 494 00df 07       		.uleb128 0x7
 495 00e0 3E010000 		.4byte	.LASF17
 496 00e4 00       		.sleb128 0
 497 00e5 07       		.uleb128 0x7
 498 00e6 C5000000 		.4byte	.LASF18
 499 00ea 01       		.sleb128 1
 500 00eb 00       		.byte	0
 501 00ec 09       		.uleb128 0x9
 502 00ed 71000000 		.4byte	.LASF19
 503 00f1 04       		.byte	0x4
 504 00f2 F901     		.2byte	0x1f9
 505 00f4 D6000000 		.4byte	0xd6
 506 00f8 0A       		.uleb128 0xa
 507 00f9 18       		.byte	0x18
 508 00fa 04       		.byte	0x4
 509 00fb 3003     		.2byte	0x330
 510 00fd 4F010000 		.4byte	0x14f
 511 0101 0B       		.uleb128 0xb
 512 0102 494D5200 		.ascii	"IMR\000"
 513 0106 04       		.byte	0x4
ARM GAS  C:\Users\ADMINI~1\AppData\Local\Temp\cckYT8kQ.s 			page 10


 514 0107 3203     		.2byte	0x332
 515 0109 9E000000 		.4byte	0x9e
 516 010d 00       		.byte	0
 517 010e 0B       		.uleb128 0xb
 518 010f 454D5200 		.ascii	"EMR\000"
 519 0113 04       		.byte	0x4
 520 0114 3303     		.2byte	0x333
 521 0116 9E000000 		.4byte	0x9e
 522 011a 04       		.byte	0x4
 523 011b 0C       		.uleb128 0xc
 524 011c 53010000 		.4byte	.LASF20
 525 0120 04       		.byte	0x4
 526 0121 3403     		.2byte	0x334
 527 0123 9E000000 		.4byte	0x9e
 528 0127 08       		.byte	0x8
 529 0128 0C       		.uleb128 0xc
 530 0129 C2030000 		.4byte	.LASF21
 531 012d 04       		.byte	0x4
 532 012e 3503     		.2byte	0x335
 533 0130 9E000000 		.4byte	0x9e
 534 0134 0C       		.byte	0xc
 535 0135 0C       		.uleb128 0xc
 536 0136 F0030000 		.4byte	.LASF22
 537 013a 04       		.byte	0x4
 538 013b 3603     		.2byte	0x336
 539 013d 9E000000 		.4byte	0x9e
 540 0141 10       		.byte	0x10
 541 0142 0B       		.uleb128 0xb
 542 0143 505200   		.ascii	"PR\000"
 543 0146 04       		.byte	0x4
 544 0147 3703     		.2byte	0x337
 545 0149 9E000000 		.4byte	0x9e
 546 014d 14       		.byte	0x14
 547 014e 00       		.byte	0
 548 014f 09       		.uleb128 0x9
 549 0150 31010000 		.4byte	.LASF23
 550 0154 04       		.byte	0x4
 551 0155 3803     		.2byte	0x338
 552 0157 F8000000 		.4byte	0xf8
 553 015b 0D       		.uleb128 0xd
 554 015c 01       		.byte	0x1
 555 015d 05       		.byte	0x5
 556 015e 37       		.byte	0x37
 557 015f 70010000 		.4byte	0x170
 558 0163 07       		.uleb128 0x7
 559 0164 CC000000 		.4byte	.LASF24
 560 0168 00       		.sleb128 0
 561 0169 07       		.uleb128 0x7
 562 016a 4E000000 		.4byte	.LASF25
 563 016e 04       		.sleb128 4
 564 016f 00       		.byte	0
 565 0170 03       		.uleb128 0x3
 566 0171 20010000 		.4byte	.LASF26
 567 0175 05       		.byte	0x5
 568 0176 3A       		.byte	0x3a
 569 0177 5B010000 		.4byte	0x15b
 570 017b 0D       		.uleb128 0xd
ARM GAS  C:\Users\ADMINI~1\AppData\Local\Temp\cckYT8kQ.s 			page 11


 571 017c 01       		.byte	0x1
 572 017d 05       		.byte	0x5
 573 017e 43       		.byte	0x43
 574 017f 96010000 		.4byte	0x196
 575 0183 07       		.uleb128 0x7
 576 0184 6C010000 		.4byte	.LASF27
 577 0188 08       		.sleb128 8
 578 0189 07       		.uleb128 0x7
 579 018a 89020000 		.4byte	.LASF28
 580 018e 0C       		.sleb128 12
 581 018f 07       		.uleb128 0x7
 582 0190 80010000 		.4byte	.LASF29
 583 0194 10       		.sleb128 16
 584 0195 00       		.byte	0
 585 0196 03       		.uleb128 0x3
 586 0197 DC030000 		.4byte	.LASF30
 587 019b 05       		.byte	0x5
 588 019c 47       		.byte	0x47
 589 019d 7B010000 		.4byte	0x17b
 590 01a1 0E       		.uleb128 0xe
 591 01a2 08       		.byte	0x8
 592 01a3 05       		.byte	0x5
 593 01a4 50       		.byte	0x50
 594 01a5 DA010000 		.4byte	0x1da
 595 01a9 0F       		.uleb128 0xf
 596 01aa 00000000 		.4byte	.LASF31
 597 01ae 05       		.byte	0x5
 598 01af 52       		.byte	0x52
 599 01b0 8C000000 		.4byte	0x8c
 600 01b4 00       		.byte	0
 601 01b5 0F       		.uleb128 0xf
 602 01b6 0A000000 		.4byte	.LASF32
 603 01ba 05       		.byte	0x5
 604 01bb 55       		.byte	0x55
 605 01bc 70010000 		.4byte	0x170
 606 01c0 04       		.byte	0x4
 607 01c1 0F       		.uleb128 0xf
 608 01c2 37000000 		.4byte	.LASF33
 609 01c6 05       		.byte	0x5
 610 01c7 58       		.byte	0x58
 611 01c8 96010000 		.4byte	0x196
 612 01cc 05       		.byte	0x5
 613 01cd 0F       		.uleb128 0xf
 614 01ce 2A000000 		.4byte	.LASF34
 615 01d2 05       		.byte	0x5
 616 01d3 5B       		.byte	0x5b
 617 01d4 EC000000 		.4byte	0xec
 618 01d8 06       		.byte	0x6
 619 01d9 00       		.byte	0
 620 01da 03       		.uleb128 0x3
 621 01db A4000000 		.4byte	.LASF35
 622 01df 05       		.byte	0x5
 623 01e0 5D       		.byte	0x5d
 624 01e1 A1010000 		.4byte	0x1a1
 625 01e5 10       		.uleb128 0x10
 626 01e6 F6030000 		.4byte	.LASF49
 627 01ea 01       		.byte	0x1
ARM GAS  C:\Users\ADMINI~1\AppData\Local\Temp\cckYT8kQ.s 			page 12


 628 01eb 6D       		.byte	0x6d
 629 01ec 00000000 		.4byte	.LFB111
 630 01f0 1C000000 		.4byte	.LFE111-.LFB111
 631 01f4 01       		.uleb128 0x1
 632 01f5 9C       		.byte	0x9c
 633 01f6 11       		.uleb128 0x11
 634 01f7 A9010000 		.4byte	.LASF36
 635 01fb 01       		.byte	0x1
 636 01fc 7D       		.byte	0x7d
 637 01fd 00000000 		.4byte	.LFB112
 638 0201 7C000000 		.4byte	.LFE112-.LFB112
 639 0205 01       		.uleb128 0x1
 640 0206 9C       		.byte	0x9c
 641 0207 2A020000 		.4byte	0x22a
 642 020b 12       		.uleb128 0x12
 643 020c B5000000 		.4byte	.LASF38
 644 0210 01       		.byte	0x1
 645 0211 7D       		.byte	0x7d
 646 0212 2A020000 		.4byte	0x22a
 647 0216 00000000 		.4byte	.LLST0
 648 021a 13       		.uleb128 0x13
 649 021b 746D7000 		.ascii	"tmp\000"
 650 021f 01       		.byte	0x1
 651 0220 7F       		.byte	0x7f
 652 0221 8C000000 		.4byte	0x8c
 653 0225 3A000000 		.4byte	.LLST1
 654 0229 00       		.byte	0
 655 022a 14       		.uleb128 0x14
 656 022b 04       		.byte	0x4
 657 022c DA010000 		.4byte	0x1da
 658 0230 11       		.uleb128 0x11
 659 0231 16020000 		.4byte	.LASF37
 660 0235 01       		.byte	0x1
 661 0236 B5       		.byte	0xb5
 662 0237 00000000 		.4byte	.LFB113
 663 023b 0E000000 		.4byte	.LFE113-.LFB113
 664 023f 01       		.uleb128 0x1
 665 0240 9C       		.byte	0x9c
 666 0241 53020000 		.4byte	0x253
 667 0245 15       		.uleb128 0x15
 668 0246 B5000000 		.4byte	.LASF38
 669 024a 01       		.byte	0x1
 670 024b B5       		.byte	0xb5
 671 024c 2A020000 		.4byte	0x22a
 672 0250 01       		.uleb128 0x1
 673 0251 50       		.byte	0x50
 674 0252 00       		.byte	0
 675 0253 11       		.uleb128 0x11
 676 0254 8B000000 		.4byte	.LASF39
 677 0258 01       		.byte	0x1
 678 0259 C4       		.byte	0xc4
 679 025a 00000000 		.4byte	.LFB114
 680 025e 10000000 		.4byte	.LFE114-.LFB114
 681 0262 01       		.uleb128 0x1
 682 0263 9C       		.byte	0x9c
 683 0264 78020000 		.4byte	0x278
 684 0268 12       		.uleb128 0x12
ARM GAS  C:\Users\ADMINI~1\AppData\Local\Temp\cckYT8kQ.s 			page 13


 685 0269 00000000 		.4byte	.LASF31
 686 026d 01       		.byte	0x1
 687 026e C4       		.byte	0xc4
 688 026f 8C000000 		.4byte	0x8c
 689 0273 CC000000 		.4byte	.LLST2
 690 0277 00       		.byte	0
 691 0278 16       		.uleb128 0x16
 692 0279 B3010000 		.4byte	.LASF42
 693 027d 01       		.byte	0x1
 694 027e E2       		.byte	0xe2
 695 027f BE000000 		.4byte	0xbe
 696 0283 00000000 		.4byte	.LFB115
 697 0287 14000000 		.4byte	.LFE115-.LFB115
 698 028b 01       		.uleb128 0x1
 699 028c 9C       		.byte	0x9c
 700 028d B0020000 		.4byte	0x2b0
 701 0291 12       		.uleb128 0x12
 702 0292 00000000 		.4byte	.LASF31
 703 0296 01       		.byte	0x1
 704 0297 E2       		.byte	0xe2
 705 0298 8C000000 		.4byte	0x8c
 706 029c ED000000 		.4byte	.LLST3
 707 02a0 17       		.uleb128 0x17
 708 02a1 81000000 		.4byte	.LASF40
 709 02a5 01       		.byte	0x1
 710 02a6 E4       		.byte	0xe4
 711 02a7 BE000000 		.4byte	0xbe
 712 02ab 0E010000 		.4byte	.LLST4
 713 02af 00       		.byte	0
 714 02b0 11       		.uleb128 0x11
 715 02b1 F9000000 		.4byte	.LASF41
 716 02b5 01       		.byte	0x1
 717 02b6 F9       		.byte	0xf9
 718 02b7 00000000 		.4byte	.LFB116
 719 02bb 0C000000 		.4byte	.LFE116-.LFB116
 720 02bf 01       		.uleb128 0x1
 721 02c0 9C       		.byte	0x9c
 722 02c1 D3020000 		.4byte	0x2d3
 723 02c5 15       		.uleb128 0x15
 724 02c6 00000000 		.4byte	.LASF31
 725 02ca 01       		.byte	0x1
 726 02cb F9       		.byte	0xf9
 727 02cc 8C000000 		.4byte	0x8c
 728 02d0 01       		.uleb128 0x1
 729 02d1 50       		.byte	0x50
 730 02d2 00       		.byte	0
 731 02d3 18       		.uleb128 0x18
 732 02d4 45020000 		.4byte	.LASF43
 733 02d8 01       		.byte	0x1
 734 02d9 0701     		.2byte	0x107
 735 02db CA000000 		.4byte	0xca
 736 02df 00000000 		.4byte	.LFB117
 737 02e3 1C000000 		.4byte	.LFE117-.LFB117
 738 02e7 01       		.uleb128 0x1
 739 02e8 9C       		.byte	0x9c
 740 02e9 1E030000 		.4byte	0x31e
 741 02ed 19       		.uleb128 0x19
ARM GAS  C:\Users\ADMINI~1\AppData\Local\Temp\cckYT8kQ.s 			page 14


 742 02ee 00000000 		.4byte	.LASF31
 743 02f2 01       		.byte	0x1
 744 02f3 0701     		.2byte	0x107
 745 02f5 8C000000 		.4byte	0x8c
 746 02f9 47010000 		.4byte	.LLST5
 747 02fd 1A       		.uleb128 0x1a
 748 02fe 81000000 		.4byte	.LASF40
 749 0302 01       		.byte	0x1
 750 0303 0901     		.2byte	0x109
 751 0305 CA000000 		.4byte	0xca
 752 0309 81010000 		.4byte	.LLST6
 753 030d 1A       		.uleb128 0x1a
 754 030e 1D000000 		.4byte	.LASF44
 755 0312 01       		.byte	0x1
 756 0313 0A01     		.2byte	0x10a
 757 0315 8C000000 		.4byte	0x8c
 758 0319 A0010000 		.4byte	.LLST7
 759 031d 00       		.byte	0
 760 031e 1B       		.uleb128 0x1b
 761 031f 56020000 		.4byte	.LASF45
 762 0323 01       		.byte	0x1
 763 0324 2001     		.2byte	0x120
 764 0326 00000000 		.4byte	.LFB118
 765 032a 0C000000 		.4byte	.LFE118-.LFB118
 766 032e 01       		.uleb128 0x1
 767 032f 9C       		.byte	0x9c
 768 0330 43030000 		.4byte	0x343
 769 0334 1C       		.uleb128 0x1c
 770 0335 00000000 		.4byte	.LASF31
 771 0339 01       		.byte	0x1
 772 033a 2001     		.2byte	0x120
 773 033c 8C000000 		.4byte	0x8c
 774 0340 01       		.uleb128 0x1
 775 0341 50       		.byte	0x50
 776 0342 00       		.byte	0
 777 0343 1D       		.uleb128 0x1d
 778 0344 46010000 		.4byte	.LASF50
 779 0348 06       		.byte	0x6
 780 0349 9806     		.2byte	0x698
 781 034b A3000000 		.4byte	0xa3
 782 034f 00       		.byte	0
 783              		.section	.debug_abbrev,"",%progbits
 784              	.Ldebug_abbrev0:
 785 0000 01       		.uleb128 0x1
 786 0001 11       		.uleb128 0x11
 787 0002 01       		.byte	0x1
 788 0003 25       		.uleb128 0x25
 789 0004 0E       		.uleb128 0xe
 790 0005 13       		.uleb128 0x13
 791 0006 0B       		.uleb128 0xb
 792 0007 03       		.uleb128 0x3
 793 0008 0E       		.uleb128 0xe
 794 0009 1B       		.uleb128 0x1b
 795 000a 0E       		.uleb128 0xe
 796 000b 55       		.uleb128 0x55
 797 000c 17       		.uleb128 0x17
 798 000d 11       		.uleb128 0x11
ARM GAS  C:\Users\ADMINI~1\AppData\Local\Temp\cckYT8kQ.s 			page 15


 799 000e 01       		.uleb128 0x1
 800 000f 10       		.uleb128 0x10
 801 0010 17       		.uleb128 0x17
 802 0011 00       		.byte	0
 803 0012 00       		.byte	0
 804 0013 02       		.uleb128 0x2
 805 0014 24       		.uleb128 0x24
 806 0015 00       		.byte	0
 807 0016 0B       		.uleb128 0xb
 808 0017 0B       		.uleb128 0xb
 809 0018 3E       		.uleb128 0x3e
 810 0019 0B       		.uleb128 0xb
 811 001a 03       		.uleb128 0x3
 812 001b 0E       		.uleb128 0xe
 813 001c 00       		.byte	0
 814 001d 00       		.byte	0
 815 001e 03       		.uleb128 0x3
 816 001f 16       		.uleb128 0x16
 817 0020 00       		.byte	0
 818 0021 03       		.uleb128 0x3
 819 0022 0E       		.uleb128 0xe
 820 0023 3A       		.uleb128 0x3a
 821 0024 0B       		.uleb128 0xb
 822 0025 3B       		.uleb128 0x3b
 823 0026 0B       		.uleb128 0xb
 824 0027 49       		.uleb128 0x49
 825 0028 13       		.uleb128 0x13
 826 0029 00       		.byte	0
 827 002a 00       		.byte	0
 828 002b 04       		.uleb128 0x4
 829 002c 24       		.uleb128 0x24
 830 002d 00       		.byte	0
 831 002e 0B       		.uleb128 0xb
 832 002f 0B       		.uleb128 0xb
 833 0030 3E       		.uleb128 0x3e
 834 0031 0B       		.uleb128 0xb
 835 0032 03       		.uleb128 0x3
 836 0033 08       		.uleb128 0x8
 837 0034 00       		.byte	0
 838 0035 00       		.byte	0
 839 0036 05       		.uleb128 0x5
 840 0037 35       		.uleb128 0x35
 841 0038 00       		.byte	0
 842 0039 49       		.uleb128 0x49
 843 003a 13       		.uleb128 0x13
 844 003b 00       		.byte	0
 845 003c 00       		.byte	0
 846 003d 06       		.uleb128 0x6
 847 003e 04       		.uleb128 0x4
 848 003f 01       		.byte	0x1
 849 0040 0B       		.uleb128 0xb
 850 0041 0B       		.uleb128 0xb
 851 0042 3A       		.uleb128 0x3a
 852 0043 0B       		.uleb128 0xb
 853 0044 3B       		.uleb128 0x3b
 854 0045 05       		.uleb128 0x5
 855 0046 01       		.uleb128 0x1
ARM GAS  C:\Users\ADMINI~1\AppData\Local\Temp\cckYT8kQ.s 			page 16


 856 0047 13       		.uleb128 0x13
 857 0048 00       		.byte	0
 858 0049 00       		.byte	0
 859 004a 07       		.uleb128 0x7
 860 004b 28       		.uleb128 0x28
 861 004c 00       		.byte	0
 862 004d 03       		.uleb128 0x3
 863 004e 0E       		.uleb128 0xe
 864 004f 1C       		.uleb128 0x1c
 865 0050 0D       		.uleb128 0xd
 866 0051 00       		.byte	0
 867 0052 00       		.byte	0
 868 0053 08       		.uleb128 0x8
 869 0054 28       		.uleb128 0x28
 870 0055 00       		.byte	0
 871 0056 03       		.uleb128 0x3
 872 0057 08       		.uleb128 0x8
 873 0058 1C       		.uleb128 0x1c
 874 0059 0D       		.uleb128 0xd
 875 005a 00       		.byte	0
 876 005b 00       		.byte	0
 877 005c 09       		.uleb128 0x9
 878 005d 16       		.uleb128 0x16
 879 005e 00       		.byte	0
 880 005f 03       		.uleb128 0x3
 881 0060 0E       		.uleb128 0xe
 882 0061 3A       		.uleb128 0x3a
 883 0062 0B       		.uleb128 0xb
 884 0063 3B       		.uleb128 0x3b
 885 0064 05       		.uleb128 0x5
 886 0065 49       		.uleb128 0x49
 887 0066 13       		.uleb128 0x13
 888 0067 00       		.byte	0
 889 0068 00       		.byte	0
 890 0069 0A       		.uleb128 0xa
 891 006a 13       		.uleb128 0x13
 892 006b 01       		.byte	0x1
 893 006c 0B       		.uleb128 0xb
 894 006d 0B       		.uleb128 0xb
 895 006e 3A       		.uleb128 0x3a
 896 006f 0B       		.uleb128 0xb
 897 0070 3B       		.uleb128 0x3b
 898 0071 05       		.uleb128 0x5
 899 0072 01       		.uleb128 0x1
 900 0073 13       		.uleb128 0x13
 901 0074 00       		.byte	0
 902 0075 00       		.byte	0
 903 0076 0B       		.uleb128 0xb
 904 0077 0D       		.uleb128 0xd
 905 0078 00       		.byte	0
 906 0079 03       		.uleb128 0x3
 907 007a 08       		.uleb128 0x8
 908 007b 3A       		.uleb128 0x3a
 909 007c 0B       		.uleb128 0xb
 910 007d 3B       		.uleb128 0x3b
 911 007e 05       		.uleb128 0x5
 912 007f 49       		.uleb128 0x49
ARM GAS  C:\Users\ADMINI~1\AppData\Local\Temp\cckYT8kQ.s 			page 17


 913 0080 13       		.uleb128 0x13
 914 0081 38       		.uleb128 0x38
 915 0082 0B       		.uleb128 0xb
 916 0083 00       		.byte	0
 917 0084 00       		.byte	0
 918 0085 0C       		.uleb128 0xc
 919 0086 0D       		.uleb128 0xd
 920 0087 00       		.byte	0
 921 0088 03       		.uleb128 0x3
 922 0089 0E       		.uleb128 0xe
 923 008a 3A       		.uleb128 0x3a
 924 008b 0B       		.uleb128 0xb
 925 008c 3B       		.uleb128 0x3b
 926 008d 05       		.uleb128 0x5
 927 008e 49       		.uleb128 0x49
 928 008f 13       		.uleb128 0x13
 929 0090 38       		.uleb128 0x38
 930 0091 0B       		.uleb128 0xb
 931 0092 00       		.byte	0
 932 0093 00       		.byte	0
 933 0094 0D       		.uleb128 0xd
 934 0095 04       		.uleb128 0x4
 935 0096 01       		.byte	0x1
 936 0097 0B       		.uleb128 0xb
 937 0098 0B       		.uleb128 0xb
 938 0099 3A       		.uleb128 0x3a
 939 009a 0B       		.uleb128 0xb
 940 009b 3B       		.uleb128 0x3b
 941 009c 0B       		.uleb128 0xb
 942 009d 01       		.uleb128 0x1
 943 009e 13       		.uleb128 0x13
 944 009f 00       		.byte	0
 945 00a0 00       		.byte	0
 946 00a1 0E       		.uleb128 0xe
 947 00a2 13       		.uleb128 0x13
 948 00a3 01       		.byte	0x1
 949 00a4 0B       		.uleb128 0xb
 950 00a5 0B       		.uleb128 0xb
 951 00a6 3A       		.uleb128 0x3a
 952 00a7 0B       		.uleb128 0xb
 953 00a8 3B       		.uleb128 0x3b
 954 00a9 0B       		.uleb128 0xb
 955 00aa 01       		.uleb128 0x1
 956 00ab 13       		.uleb128 0x13
 957 00ac 00       		.byte	0
 958 00ad 00       		.byte	0
 959 00ae 0F       		.uleb128 0xf
 960 00af 0D       		.uleb128 0xd
 961 00b0 00       		.byte	0
 962 00b1 03       		.uleb128 0x3
 963 00b2 0E       		.uleb128 0xe
 964 00b3 3A       		.uleb128 0x3a
 965 00b4 0B       		.uleb128 0xb
 966 00b5 3B       		.uleb128 0x3b
 967 00b6 0B       		.uleb128 0xb
 968 00b7 49       		.uleb128 0x49
 969 00b8 13       		.uleb128 0x13
ARM GAS  C:\Users\ADMINI~1\AppData\Local\Temp\cckYT8kQ.s 			page 18


 970 00b9 38       		.uleb128 0x38
 971 00ba 0B       		.uleb128 0xb
 972 00bb 00       		.byte	0
 973 00bc 00       		.byte	0
 974 00bd 10       		.uleb128 0x10
 975 00be 2E       		.uleb128 0x2e
 976 00bf 00       		.byte	0
 977 00c0 3F       		.uleb128 0x3f
 978 00c1 19       		.uleb128 0x19
 979 00c2 03       		.uleb128 0x3
 980 00c3 0E       		.uleb128 0xe
 981 00c4 3A       		.uleb128 0x3a
 982 00c5 0B       		.uleb128 0xb
 983 00c6 3B       		.uleb128 0x3b
 984 00c7 0B       		.uleb128 0xb
 985 00c8 27       		.uleb128 0x27
 986 00c9 19       		.uleb128 0x19
 987 00ca 11       		.uleb128 0x11
 988 00cb 01       		.uleb128 0x1
 989 00cc 12       		.uleb128 0x12
 990 00cd 06       		.uleb128 0x6
 991 00ce 40       		.uleb128 0x40
 992 00cf 18       		.uleb128 0x18
 993 00d0 9742     		.uleb128 0x2117
 994 00d2 19       		.uleb128 0x19
 995 00d3 00       		.byte	0
 996 00d4 00       		.byte	0
 997 00d5 11       		.uleb128 0x11
 998 00d6 2E       		.uleb128 0x2e
 999 00d7 01       		.byte	0x1
 1000 00d8 3F       		.uleb128 0x3f
 1001 00d9 19       		.uleb128 0x19
 1002 00da 03       		.uleb128 0x3
 1003 00db 0E       		.uleb128 0xe
 1004 00dc 3A       		.uleb128 0x3a
 1005 00dd 0B       		.uleb128 0xb
 1006 00de 3B       		.uleb128 0x3b
 1007 00df 0B       		.uleb128 0xb
 1008 00e0 27       		.uleb128 0x27
 1009 00e1 19       		.uleb128 0x19
 1010 00e2 11       		.uleb128 0x11
 1011 00e3 01       		.uleb128 0x1
 1012 00e4 12       		.uleb128 0x12
 1013 00e5 06       		.uleb128 0x6
 1014 00e6 40       		.uleb128 0x40
 1015 00e7 18       		.uleb128 0x18
 1016 00e8 9742     		.uleb128 0x2117
 1017 00ea 19       		.uleb128 0x19
 1018 00eb 01       		.uleb128 0x1
 1019 00ec 13       		.uleb128 0x13
 1020 00ed 00       		.byte	0
 1021 00ee 00       		.byte	0
 1022 00ef 12       		.uleb128 0x12
 1023 00f0 05       		.uleb128 0x5
 1024 00f1 00       		.byte	0
 1025 00f2 03       		.uleb128 0x3
 1026 00f3 0E       		.uleb128 0xe
ARM GAS  C:\Users\ADMINI~1\AppData\Local\Temp\cckYT8kQ.s 			page 19


 1027 00f4 3A       		.uleb128 0x3a
 1028 00f5 0B       		.uleb128 0xb
 1029 00f6 3B       		.uleb128 0x3b
 1030 00f7 0B       		.uleb128 0xb
 1031 00f8 49       		.uleb128 0x49
 1032 00f9 13       		.uleb128 0x13
 1033 00fa 02       		.uleb128 0x2
 1034 00fb 17       		.uleb128 0x17
 1035 00fc 00       		.byte	0
 1036 00fd 00       		.byte	0
 1037 00fe 13       		.uleb128 0x13
 1038 00ff 34       		.uleb128 0x34
 1039 0100 00       		.byte	0
 1040 0101 03       		.uleb128 0x3
 1041 0102 08       		.uleb128 0x8
 1042 0103 3A       		.uleb128 0x3a
 1043 0104 0B       		.uleb128 0xb
 1044 0105 3B       		.uleb128 0x3b
 1045 0106 0B       		.uleb128 0xb
 1046 0107 49       		.uleb128 0x49
 1047 0108 13       		.uleb128 0x13
 1048 0109 02       		.uleb128 0x2
 1049 010a 17       		.uleb128 0x17
 1050 010b 00       		.byte	0
 1051 010c 00       		.byte	0
 1052 010d 14       		.uleb128 0x14
 1053 010e 0F       		.uleb128 0xf
 1054 010f 00       		.byte	0
 1055 0110 0B       		.uleb128 0xb
 1056 0111 0B       		.uleb128 0xb
 1057 0112 49       		.uleb128 0x49
 1058 0113 13       		.uleb128 0x13
 1059 0114 00       		.byte	0
 1060 0115 00       		.byte	0
 1061 0116 15       		.uleb128 0x15
 1062 0117 05       		.uleb128 0x5
 1063 0118 00       		.byte	0
 1064 0119 03       		.uleb128 0x3
 1065 011a 0E       		.uleb128 0xe
 1066 011b 3A       		.uleb128 0x3a
 1067 011c 0B       		.uleb128 0xb
 1068 011d 3B       		.uleb128 0x3b
 1069 011e 0B       		.uleb128 0xb
 1070 011f 49       		.uleb128 0x49
 1071 0120 13       		.uleb128 0x13
 1072 0121 02       		.uleb128 0x2
 1073 0122 18       		.uleb128 0x18
 1074 0123 00       		.byte	0
 1075 0124 00       		.byte	0
 1076 0125 16       		.uleb128 0x16
 1077 0126 2E       		.uleb128 0x2e
 1078 0127 01       		.byte	0x1
 1079 0128 3F       		.uleb128 0x3f
 1080 0129 19       		.uleb128 0x19
 1081 012a 03       		.uleb128 0x3
 1082 012b 0E       		.uleb128 0xe
 1083 012c 3A       		.uleb128 0x3a
ARM GAS  C:\Users\ADMINI~1\AppData\Local\Temp\cckYT8kQ.s 			page 20


 1084 012d 0B       		.uleb128 0xb
 1085 012e 3B       		.uleb128 0x3b
 1086 012f 0B       		.uleb128 0xb
 1087 0130 27       		.uleb128 0x27
 1088 0131 19       		.uleb128 0x19
 1089 0132 49       		.uleb128 0x49
 1090 0133 13       		.uleb128 0x13
 1091 0134 11       		.uleb128 0x11
 1092 0135 01       		.uleb128 0x1
 1093 0136 12       		.uleb128 0x12
 1094 0137 06       		.uleb128 0x6
 1095 0138 40       		.uleb128 0x40
 1096 0139 18       		.uleb128 0x18
 1097 013a 9742     		.uleb128 0x2117
 1098 013c 19       		.uleb128 0x19
 1099 013d 01       		.uleb128 0x1
 1100 013e 13       		.uleb128 0x13
 1101 013f 00       		.byte	0
 1102 0140 00       		.byte	0
 1103 0141 17       		.uleb128 0x17
 1104 0142 34       		.uleb128 0x34
 1105 0143 00       		.byte	0
 1106 0144 03       		.uleb128 0x3
 1107 0145 0E       		.uleb128 0xe
 1108 0146 3A       		.uleb128 0x3a
 1109 0147 0B       		.uleb128 0xb
 1110 0148 3B       		.uleb128 0x3b
 1111 0149 0B       		.uleb128 0xb
 1112 014a 49       		.uleb128 0x49
 1113 014b 13       		.uleb128 0x13
 1114 014c 02       		.uleb128 0x2
 1115 014d 17       		.uleb128 0x17
 1116 014e 00       		.byte	0
 1117 014f 00       		.byte	0
 1118 0150 18       		.uleb128 0x18
 1119 0151 2E       		.uleb128 0x2e
 1120 0152 01       		.byte	0x1
 1121 0153 3F       		.uleb128 0x3f
 1122 0154 19       		.uleb128 0x19
 1123 0155 03       		.uleb128 0x3
 1124 0156 0E       		.uleb128 0xe
 1125 0157 3A       		.uleb128 0x3a
 1126 0158 0B       		.uleb128 0xb
 1127 0159 3B       		.uleb128 0x3b
 1128 015a 05       		.uleb128 0x5
 1129 015b 27       		.uleb128 0x27
 1130 015c 19       		.uleb128 0x19
 1131 015d 49       		.uleb128 0x49
 1132 015e 13       		.uleb128 0x13
 1133 015f 11       		.uleb128 0x11
 1134 0160 01       		.uleb128 0x1
 1135 0161 12       		.uleb128 0x12
 1136 0162 06       		.uleb128 0x6
 1137 0163 40       		.uleb128 0x40
 1138 0164 18       		.uleb128 0x18
 1139 0165 9742     		.uleb128 0x2117
 1140 0167 19       		.uleb128 0x19
ARM GAS  C:\Users\ADMINI~1\AppData\Local\Temp\cckYT8kQ.s 			page 21


 1141 0168 01       		.uleb128 0x1
 1142 0169 13       		.uleb128 0x13
 1143 016a 00       		.byte	0
 1144 016b 00       		.byte	0
 1145 016c 19       		.uleb128 0x19
 1146 016d 05       		.uleb128 0x5
 1147 016e 00       		.byte	0
 1148 016f 03       		.uleb128 0x3
 1149 0170 0E       		.uleb128 0xe
 1150 0171 3A       		.uleb128 0x3a
 1151 0172 0B       		.uleb128 0xb
 1152 0173 3B       		.uleb128 0x3b
 1153 0174 05       		.uleb128 0x5
 1154 0175 49       		.uleb128 0x49
 1155 0176 13       		.uleb128 0x13
 1156 0177 02       		.uleb128 0x2
 1157 0178 17       		.uleb128 0x17
 1158 0179 00       		.byte	0
 1159 017a 00       		.byte	0
 1160 017b 1A       		.uleb128 0x1a
 1161 017c 34       		.uleb128 0x34
 1162 017d 00       		.byte	0
 1163 017e 03       		.uleb128 0x3
 1164 017f 0E       		.uleb128 0xe
 1165 0180 3A       		.uleb128 0x3a
 1166 0181 0B       		.uleb128 0xb
 1167 0182 3B       		.uleb128 0x3b
 1168 0183 05       		.uleb128 0x5
 1169 0184 49       		.uleb128 0x49
 1170 0185 13       		.uleb128 0x13
 1171 0186 02       		.uleb128 0x2
 1172 0187 17       		.uleb128 0x17
 1173 0188 00       		.byte	0
 1174 0189 00       		.byte	0
 1175 018a 1B       		.uleb128 0x1b
 1176 018b 2E       		.uleb128 0x2e
 1177 018c 01       		.byte	0x1
 1178 018d 3F       		.uleb128 0x3f
 1179 018e 19       		.uleb128 0x19
 1180 018f 03       		.uleb128 0x3
 1181 0190 0E       		.uleb128 0xe
 1182 0191 3A       		.uleb128 0x3a
 1183 0192 0B       		.uleb128 0xb
 1184 0193 3B       		.uleb128 0x3b
 1185 0194 05       		.uleb128 0x5
 1186 0195 27       		.uleb128 0x27
 1187 0196 19       		.uleb128 0x19
 1188 0197 11       		.uleb128 0x11
 1189 0198 01       		.uleb128 0x1
 1190 0199 12       		.uleb128 0x12
 1191 019a 06       		.uleb128 0x6
 1192 019b 40       		.uleb128 0x40
 1193 019c 18       		.uleb128 0x18
 1194 019d 9742     		.uleb128 0x2117
 1195 019f 19       		.uleb128 0x19
 1196 01a0 01       		.uleb128 0x1
 1197 01a1 13       		.uleb128 0x13
ARM GAS  C:\Users\ADMINI~1\AppData\Local\Temp\cckYT8kQ.s 			page 22


 1198 01a2 00       		.byte	0
 1199 01a3 00       		.byte	0
 1200 01a4 1C       		.uleb128 0x1c
 1201 01a5 05       		.uleb128 0x5
 1202 01a6 00       		.byte	0
 1203 01a7 03       		.uleb128 0x3
 1204 01a8 0E       		.uleb128 0xe
 1205 01a9 3A       		.uleb128 0x3a
 1206 01aa 0B       		.uleb128 0xb
 1207 01ab 3B       		.uleb128 0x3b
 1208 01ac 05       		.uleb128 0x5
 1209 01ad 49       		.uleb128 0x49
 1210 01ae 13       		.uleb128 0x13
 1211 01af 02       		.uleb128 0x2
 1212 01b0 18       		.uleb128 0x18
 1213 01b1 00       		.byte	0
 1214 01b2 00       		.byte	0
 1215 01b3 1D       		.uleb128 0x1d
 1216 01b4 34       		.uleb128 0x34
 1217 01b5 00       		.byte	0
 1218 01b6 03       		.uleb128 0x3
 1219 01b7 0E       		.uleb128 0xe
 1220 01b8 3A       		.uleb128 0x3a
 1221 01b9 0B       		.uleb128 0xb
 1222 01ba 3B       		.uleb128 0x3b
 1223 01bb 05       		.uleb128 0x5
 1224 01bc 49       		.uleb128 0x49
 1225 01bd 13       		.uleb128 0x13
 1226 01be 3F       		.uleb128 0x3f
 1227 01bf 19       		.uleb128 0x19
 1228 01c0 3C       		.uleb128 0x3c
 1229 01c1 19       		.uleb128 0x19
 1230 01c2 00       		.byte	0
 1231 01c3 00       		.byte	0
 1232 01c4 00       		.byte	0
 1233              		.section	.debug_loc,"",%progbits
 1234              	.Ldebug_loc0:
 1235              	.LLST0:
 1236 0000 00000000 		.4byte	.LVL0
 1237 0004 36000000 		.4byte	.LVL3
 1238 0008 0100     		.2byte	0x1
 1239 000a 50       		.byte	0x50
 1240 000b 36000000 		.4byte	.LVL3
 1241 000f 52000000 		.4byte	.LVL6
 1242 0013 0400     		.2byte	0x4
 1243 0015 F3       		.byte	0xf3
 1244 0016 01       		.uleb128 0x1
 1245 0017 50       		.byte	0x50
 1246 0018 9F       		.byte	0x9f
 1247 0019 52000000 		.4byte	.LVL6
 1248 001d 68000000 		.4byte	.LVL8
 1249 0021 0100     		.2byte	0x1
 1250 0023 50       		.byte	0x50
 1251 0024 68000000 		.4byte	.LVL8
 1252 0028 7C000000 		.4byte	.LFE112
 1253 002c 0400     		.2byte	0x4
 1254 002e F3       		.byte	0xf3
ARM GAS  C:\Users\ADMINI~1\AppData\Local\Temp\cckYT8kQ.s 			page 23


 1255 002f 01       		.uleb128 0x1
 1256 0030 50       		.byte	0x50
 1257 0031 9F       		.byte	0x9f
 1258 0032 00000000 		.4byte	0
 1259 0036 00000000 		.4byte	0
 1260              	.LLST1:
 1261 003a 00000000 		.4byte	.LVL0
 1262 003e 24000000 		.4byte	.LVL1
 1263 0042 0600     		.2byte	0x6
 1264 0044 0C       		.byte	0xc
 1265 0045 003C0140 		.4byte	0x40013c00
 1266 0049 9F       		.byte	0x9f
 1267 004a 24000000 		.4byte	.LVL1
 1268 004e 2A000000 		.4byte	.LVL2
 1269 0052 0E00     		.2byte	0xe
 1270 0054 70       		.byte	0x70
 1271 0055 04       		.sleb128 4
 1272 0056 94       		.byte	0x94
 1273 0057 01       		.byte	0x1
 1274 0058 08       		.byte	0x8
 1275 0059 FF       		.byte	0xff
 1276 005a 1A       		.byte	0x1a
 1277 005b 23       		.byte	0x23
 1278 005c 80F88480 		.uleb128 0x40013c00
 1278      04
 1279 0061 9F       		.byte	0x9f
 1280 0062 40000000 		.4byte	.LVL4
 1281 0066 4C000000 		.4byte	.LVL5
 1282 006a 0C00     		.2byte	0xc
 1283 006c 71       		.byte	0x71
 1284 006d 00       		.sleb128 0
 1285 006e 08       		.byte	0x8
 1286 006f FF       		.byte	0xff
 1287 0070 1A       		.byte	0x1a
 1288 0071 23       		.byte	0x23
 1289 0072 80F88480 		.uleb128 0x40013c00
 1289      04
 1290 0077 9F       		.byte	0x9f
 1291 0078 4C000000 		.4byte	.LVL5
 1292 007c 52000000 		.4byte	.LVL6
 1293 0080 1000     		.2byte	0x10
 1294 0082 73       		.byte	0x73
 1295 0083 8088FBFF 		.sleb128 -1073822720
 1295      7B
 1296 0088 08       		.byte	0x8
 1297 0089 FF       		.byte	0xff
 1298 008a 1A       		.byte	0x1a
 1299 008b 23       		.byte	0x23
 1300 008c 80F88480 		.uleb128 0x40013c00
 1300      04
 1301 0091 9F       		.byte	0x9f
 1302 0092 52000000 		.4byte	.LVL6
 1303 0096 66000000 		.4byte	.LVL7
 1304 009a 0E00     		.2byte	0xe
 1305 009c 70       		.byte	0x70
 1306 009d 04       		.sleb128 4
 1307 009e 94       		.byte	0x94
ARM GAS  C:\Users\ADMINI~1\AppData\Local\Temp\cckYT8kQ.s 			page 24


 1308 009f 01       		.byte	0x1
 1309 00a0 08       		.byte	0x8
 1310 00a1 FF       		.byte	0xff
 1311 00a2 1A       		.byte	0x1a
 1312 00a3 23       		.byte	0x23
 1313 00a4 80F88480 		.uleb128 0x40013c00
 1313      04
 1314 00a9 9F       		.byte	0x9f
 1315 00aa 66000000 		.4byte	.LVL7
 1316 00ae 68000000 		.4byte	.LVL8
 1317 00b2 1000     		.2byte	0x10
 1318 00b4 73       		.byte	0x73
 1319 00b5 8088FBFF 		.sleb128 -1073822720
 1319      7B
 1320 00ba 08       		.byte	0x8
 1321 00bb FF       		.byte	0xff
 1322 00bc 1A       		.byte	0x1a
 1323 00bd 23       		.byte	0x23
 1324 00be 80F88480 		.uleb128 0x40013c00
 1324      04
 1325 00c3 9F       		.byte	0x9f
 1326 00c4 00000000 		.4byte	0
 1327 00c8 00000000 		.4byte	0
 1328              	.LLST2:
 1329 00cc 00000000 		.4byte	.LVL10
 1330 00d0 06000000 		.4byte	.LVL11
 1331 00d4 0100     		.2byte	0x1
 1332 00d6 50       		.byte	0x50
 1333 00d7 06000000 		.4byte	.LVL11
 1334 00db 10000000 		.4byte	.LFE114
 1335 00df 0400     		.2byte	0x4
 1336 00e1 F3       		.byte	0xf3
 1337 00e2 01       		.uleb128 0x1
 1338 00e3 50       		.byte	0x50
 1339 00e4 9F       		.byte	0x9f
 1340 00e5 00000000 		.4byte	0
 1341 00e9 00000000 		.4byte	0
 1342              	.LLST3:
 1343 00ed 00000000 		.4byte	.LVL12
 1344 00f1 0A000000 		.4byte	.LVL14
 1345 00f5 0100     		.2byte	0x1
 1346 00f7 50       		.byte	0x50
 1347 00f8 0A000000 		.4byte	.LVL14
 1348 00fc 14000000 		.4byte	.LFE115
 1349 0100 0400     		.2byte	0x4
 1350 0102 F3       		.byte	0xf3
 1351 0103 01       		.uleb128 0x1
 1352 0104 50       		.byte	0x50
 1353 0105 9F       		.byte	0x9f
 1354 0106 00000000 		.4byte	0
 1355 010a 00000000 		.4byte	0
 1356              	.LLST4:
 1357 010e 00000000 		.4byte	.LVL12
 1358 0112 04000000 		.4byte	.LVL13
 1359 0116 0200     		.2byte	0x2
 1360 0118 30       		.byte	0x30
 1361 0119 9F       		.byte	0x9f
ARM GAS  C:\Users\ADMINI~1\AppData\Local\Temp\cckYT8kQ.s 			page 25


 1362 011a 04000000 		.4byte	.LVL13
 1363 011e 0A000000 		.4byte	.LVL14
 1364 0122 0800     		.2byte	0x8
 1365 0124 70       		.byte	0x70
 1366 0125 00       		.sleb128 0
 1367 0126 73       		.byte	0x73
 1368 0127 00       		.sleb128 0
 1369 0128 1A       		.byte	0x1a
 1370 0129 30       		.byte	0x30
 1371 012a 2E       		.byte	0x2e
 1372 012b 9F       		.byte	0x9f
 1373 012c 0A000000 		.4byte	.LVL14
 1374 0130 14000000 		.4byte	.LFE115
 1375 0134 0900     		.2byte	0x9
 1376 0136 F3       		.byte	0xf3
 1377 0137 01       		.uleb128 0x1
 1378 0138 50       		.byte	0x50
 1379 0139 73       		.byte	0x73
 1380 013a 00       		.sleb128 0
 1381 013b 1A       		.byte	0x1a
 1382 013c 30       		.byte	0x30
 1383 013d 2E       		.byte	0x2e
 1384 013e 9F       		.byte	0x9f
 1385 013f 00000000 		.4byte	0
 1386 0143 00000000 		.4byte	0
 1387              	.LLST5:
 1388 0147 00000000 		.4byte	.LVL16
 1389 014b 10000000 		.4byte	.LVL18
 1390 014f 0100     		.2byte	0x1
 1391 0151 50       		.byte	0x50
 1392 0152 10000000 		.4byte	.LVL18
 1393 0156 14000000 		.4byte	.LVL19
 1394 015a 0400     		.2byte	0x4
 1395 015c F3       		.byte	0xf3
 1396 015d 01       		.uleb128 0x1
 1397 015e 50       		.byte	0x50
 1398 015f 9F       		.byte	0x9f
 1399 0160 14000000 		.4byte	.LVL19
 1400 0164 16000000 		.4byte	.LVL20
 1401 0168 0100     		.2byte	0x1
 1402 016a 50       		.byte	0x50
 1403 016b 16000000 		.4byte	.LVL20
 1404 016f 1C000000 		.4byte	.LFE117
 1405 0173 0400     		.2byte	0x4
 1406 0175 F3       		.byte	0xf3
 1407 0176 01       		.uleb128 0x1
 1408 0177 50       		.byte	0x50
 1409 0178 9F       		.byte	0x9f
 1410 0179 00000000 		.4byte	0
 1411 017d 00000000 		.4byte	0
 1412              	.LLST6:
 1413 0181 00000000 		.4byte	.LVL16
 1414 0185 16000000 		.4byte	.LVL20
 1415 0189 0200     		.2byte	0x2
 1416 018b 30       		.byte	0x30
 1417 018c 9F       		.byte	0x9f
 1418 018d 16000000 		.4byte	.LVL20
ARM GAS  C:\Users\ADMINI~1\AppData\Local\Temp\cckYT8kQ.s 			page 26


 1419 0191 1C000000 		.4byte	.LFE117
 1420 0195 0100     		.2byte	0x1
 1421 0197 50       		.byte	0x50
 1422 0198 00000000 		.4byte	0
 1423 019c 00000000 		.4byte	0
 1424              	.LLST7:
 1425 01a0 00000000 		.4byte	.LVL16
 1426 01a4 06000000 		.4byte	.LVL17
 1427 01a8 0200     		.2byte	0x2
 1428 01aa 30       		.byte	0x30
 1429 01ab 9F       		.byte	0x9f
 1430 01ac 06000000 		.4byte	.LVL17
 1431 01b0 10000000 		.4byte	.LVL18
 1432 01b4 0600     		.2byte	0x6
 1433 01b6 70       		.byte	0x70
 1434 01b7 00       		.sleb128 0
 1435 01b8 72       		.byte	0x72
 1436 01b9 00       		.sleb128 0
 1437 01ba 1A       		.byte	0x1a
 1438 01bb 9F       		.byte	0x9f
 1439 01bc 10000000 		.4byte	.LVL18
 1440 01c0 14000000 		.4byte	.LVL19
 1441 01c4 0700     		.2byte	0x7
 1442 01c6 F3       		.byte	0xf3
 1443 01c7 01       		.uleb128 0x1
 1444 01c8 50       		.byte	0x50
 1445 01c9 72       		.byte	0x72
 1446 01ca 00       		.sleb128 0
 1447 01cb 1A       		.byte	0x1a
 1448 01cc 9F       		.byte	0x9f
 1449 01cd 14000000 		.4byte	.LVL19
 1450 01d1 16000000 		.4byte	.LVL20
 1451 01d5 0600     		.2byte	0x6
 1452 01d7 70       		.byte	0x70
 1453 01d8 00       		.sleb128 0
 1454 01d9 72       		.byte	0x72
 1455 01da 00       		.sleb128 0
 1456 01db 1A       		.byte	0x1a
 1457 01dc 9F       		.byte	0x9f
 1458 01dd 16000000 		.4byte	.LVL20
 1459 01e1 1C000000 		.4byte	.LFE117
 1460 01e5 0700     		.2byte	0x7
 1461 01e7 F3       		.byte	0xf3
 1462 01e8 01       		.uleb128 0x1
 1463 01e9 50       		.byte	0x50
 1464 01ea 72       		.byte	0x72
 1465 01eb 00       		.sleb128 0
 1466 01ec 1A       		.byte	0x1a
 1467 01ed 9F       		.byte	0x9f
 1468 01ee 00000000 		.4byte	0
 1469 01f2 00000000 		.4byte	0
 1470              		.section	.debug_aranges,"",%progbits
 1471 0000 54000000 		.4byte	0x54
 1472 0004 0200     		.2byte	0x2
 1473 0006 00000000 		.4byte	.Ldebug_info0
 1474 000a 04       		.byte	0x4
 1475 000b 00       		.byte	0
ARM GAS  C:\Users\ADMINI~1\AppData\Local\Temp\cckYT8kQ.s 			page 27


 1476 000c 0000     		.2byte	0
 1477 000e 0000     		.2byte	0
 1478 0010 00000000 		.4byte	.LFB111
 1479 0014 1C000000 		.4byte	.LFE111-.LFB111
 1480 0018 00000000 		.4byte	.LFB112
 1481 001c 7C000000 		.4byte	.LFE112-.LFB112
 1482 0020 00000000 		.4byte	.LFB113
 1483 0024 0E000000 		.4byte	.LFE113-.LFB113
 1484 0028 00000000 		.4byte	.LFB114
 1485 002c 10000000 		.4byte	.LFE114-.LFB114
 1486 0030 00000000 		.4byte	.LFB115
 1487 0034 14000000 		.4byte	.LFE115-.LFB115
 1488 0038 00000000 		.4byte	.LFB116
 1489 003c 0C000000 		.4byte	.LFE116-.LFB116
 1490 0040 00000000 		.4byte	.LFB117
 1491 0044 1C000000 		.4byte	.LFE117-.LFB117
 1492 0048 00000000 		.4byte	.LFB118
 1493 004c 0C000000 		.4byte	.LFE118-.LFB118
 1494 0050 00000000 		.4byte	0
 1495 0054 00000000 		.4byte	0
 1496              		.section	.debug_ranges,"",%progbits
 1497              	.Ldebug_ranges0:
 1498 0000 00000000 		.4byte	.LFB111
 1499 0004 1C000000 		.4byte	.LFE111
 1500 0008 00000000 		.4byte	.LFB112
 1501 000c 7C000000 		.4byte	.LFE112
 1502 0010 00000000 		.4byte	.LFB113
 1503 0014 0E000000 		.4byte	.LFE113
 1504 0018 00000000 		.4byte	.LFB114
 1505 001c 10000000 		.4byte	.LFE114
 1506 0020 00000000 		.4byte	.LFB115
 1507 0024 14000000 		.4byte	.LFE115
 1508 0028 00000000 		.4byte	.LFB116
 1509 002c 0C000000 		.4byte	.LFE116
 1510 0030 00000000 		.4byte	.LFB117
 1511 0034 1C000000 		.4byte	.LFE117
 1512 0038 00000000 		.4byte	.LFB118
 1513 003c 0C000000 		.4byte	.LFE118
 1514 0040 00000000 		.4byte	0
 1515 0044 00000000 		.4byte	0
 1516              		.section	.debug_line,"",%progbits
 1517              	.Ldebug_line0:
 1518 0000 9A020000 		.section	.debug_str,"MS",%progbits,1
 1518      0200C301 
 1518      00000201 
 1518      FB0E0D00 
 1518      01010101 
 1519              	.LASF31:
 1520 0000 45585449 		.ascii	"EXTI_Line\000"
 1520      5F4C696E 
 1520      6500
 1521              	.LASF32:
 1522 000a 45585449 		.ascii	"EXTI_Mode\000"
 1522      5F4D6F64 
 1522      6500
 1523              	.LASF16:
 1524 0014 49545374 		.ascii	"ITStatus\000"
ARM GAS  C:\Users\ADMINI~1\AppData\Local\Temp\cckYT8kQ.s 			page 28


 1524      61747573 
 1524      00
 1525              	.LASF44:
 1526 001d 656E6162 		.ascii	"enablestatus\000"
 1526      6C657374 
 1526      61747573 
 1526      00
 1527              	.LASF34:
 1528 002a 45585449 		.ascii	"EXTI_LineCmd\000"
 1528      5F4C696E 
 1528      65436D64 
 1528      00
 1529              	.LASF33:
 1530 0037 45585449 		.ascii	"EXTI_Trigger\000"
 1530      5F547269 
 1530      67676572 
 1530      00
 1531              	.LASF5:
 1532 0044 5F5F696E 		.ascii	"__int32_t\000"
 1532      7433325F 
 1532      7400
 1533              	.LASF25:
 1534 004e 45585449 		.ascii	"EXTI_Mode_Event\000"
 1534      5F4D6F64 
 1534      655F4576 
 1534      656E7400 
 1535              	.LASF3:
 1536 005e 73686F72 		.ascii	"short unsigned int\000"
 1536      7420756E 
 1536      7369676E 
 1536      65642069 
 1536      6E7400
 1537              	.LASF19:
 1538 0071 46756E63 		.ascii	"FunctionalState\000"
 1538      74696F6E 
 1538      616C5374 
 1538      61746500 
 1539              	.LASF40:
 1540 0081 62697473 		.ascii	"bitstatus\000"
 1540      74617475 
 1540      7300
 1541              	.LASF39:
 1542 008b 45585449 		.ascii	"EXTI_GenerateSWInterrupt\000"
 1542      5F47656E 
 1542      65726174 
 1542      65535749 
 1542      6E746572 
 1543              	.LASF35:
 1544 00a4 45585449 		.ascii	"EXTI_InitTypeDef\000"
 1544      5F496E69 
 1544      74547970 
 1544      65446566 
 1544      00
 1545              	.LASF38:
 1546 00b5 45585449 		.ascii	"EXTI_InitStruct\000"
 1546      5F496E69 
 1546      74537472 
ARM GAS  C:\Users\ADMINI~1\AppData\Local\Temp\cckYT8kQ.s 			page 29


 1546      75637400 
 1547              	.LASF18:
 1548 00c5 454E4142 		.ascii	"ENABLE\000"
 1548      4C4500
 1549              	.LASF24:
 1550 00cc 45585449 		.ascii	"EXTI_Mode_Interrupt\000"
 1550      5F4D6F64 
 1550      655F496E 
 1550      74657272 
 1550      75707400 
 1551              	.LASF1:
 1552 00e0 756E7369 		.ascii	"unsigned char\000"
 1552      676E6564 
 1552      20636861 
 1552      7200
 1553              	.LASF15:
 1554 00ee 466C6167 		.ascii	"FlagStatus\000"
 1554      53746174 
 1554      757300
 1555              	.LASF41:
 1556 00f9 45585449 		.ascii	"EXTI_ClearFlag\000"
 1556      5F436C65 
 1556      6172466C 
 1556      616700
 1557              	.LASF7:
 1558 0108 6C6F6E67 		.ascii	"long unsigned int\000"
 1558      20756E73 
 1558      69676E65 
 1558      6420696E 
 1558      7400
 1559              	.LASF14:
 1560 011a 52455345 		.ascii	"RESET\000"
 1560      5400
 1561              	.LASF26:
 1562 0120 45585449 		.ascii	"EXTIMode_TypeDef\000"
 1562      4D6F6465 
 1562      5F547970 
 1562      65446566 
 1562      00
 1563              	.LASF23:
 1564 0131 45585449 		.ascii	"EXTI_TypeDef\000"
 1564      5F547970 
 1564      65446566 
 1564      00
 1565              	.LASF17:
 1566 013e 44495341 		.ascii	"DISABLE\000"
 1566      424C4500 
 1567              	.LASF50:
 1568 0146 49544D5F 		.ascii	"ITM_RxBuffer\000"
 1568      52784275 
 1568      66666572 
 1568      00
 1569              	.LASF20:
 1570 0153 52545352 		.ascii	"RTSR\000"
 1570      00
 1571              	.LASF12:
 1572 0158 75696E74 		.ascii	"uint32_t\000"
ARM GAS  C:\Users\ADMINI~1\AppData\Local\Temp\cckYT8kQ.s 			page 30


 1572      33325F74 
 1572      00
 1573              	.LASF6:
 1574 0161 5F5F7569 		.ascii	"__uint32_t\000"
 1574      6E743332 
 1574      5F7400
 1575              	.LASF27:
 1576 016c 45585449 		.ascii	"EXTI_Trigger_Rising\000"
 1576      5F547269 
 1576      67676572 
 1576      5F526973 
 1576      696E6700 
 1577              	.LASF29:
 1578 0180 45585449 		.ascii	"EXTI_Trigger_Rising_Falling\000"
 1578      5F547269 
 1578      67676572 
 1578      5F526973 
 1578      696E675F 
 1579              	.LASF10:
 1580 019c 756E7369 		.ascii	"unsigned int\000"
 1580      676E6564 
 1580      20696E74 
 1580      00
 1581              	.LASF36:
 1582 01a9 45585449 		.ascii	"EXTI_Init\000"
 1582      5F496E69 
 1582      7400
 1583              	.LASF42:
 1584 01b3 45585449 		.ascii	"EXTI_GetFlagStatus\000"
 1584      5F476574 
 1584      466C6167 
 1584      53746174 
 1584      757300
 1585              	.LASF9:
 1586 01c6 6C6F6E67 		.ascii	"long long unsigned int\000"
 1586      206C6F6E 
 1586      6720756E 
 1586      7369676E 
 1586      65642069 
 1587              	.LASF47:
 1588 01dd 43686962 		.ascii	"ChibiOS_2.6.6/ext/stdperiph_stm32f4/src/stm32f4xx_e"
 1588      694F535F 
 1588      322E362E 
 1588      362F6578 
 1588      742F7374 
 1589 0210 7874692E 		.ascii	"xti.c\000"
 1589      6300
 1590              	.LASF37:
 1591 0216 45585449 		.ascii	"EXTI_StructInit\000"
 1591      5F537472 
 1591      75637449 
 1591      6E697400 
 1592              	.LASF11:
 1593 0226 696E7433 		.ascii	"int32_t\000"
 1593      325F7400 
 1594              	.LASF13:
 1595 022e 73697A65 		.ascii	"sizetype\000"
ARM GAS  C:\Users\ADMINI~1\AppData\Local\Temp\cckYT8kQ.s 			page 31


 1595      74797065 
 1595      00
 1596              	.LASF8:
 1597 0237 6C6F6E67 		.ascii	"long long int\000"
 1597      206C6F6E 
 1597      6720696E 
 1597      7400
 1598              	.LASF43:
 1599 0245 45585449 		.ascii	"EXTI_GetITStatus\000"
 1599      5F476574 
 1599      49545374 
 1599      61747573 
 1599      00
 1600              	.LASF45:
 1601 0256 45585449 		.ascii	"EXTI_ClearITPendingBit\000"
 1601      5F436C65 
 1601      61724954 
 1601      50656E64 
 1601      696E6742 
 1602              	.LASF2:
 1603 026d 73686F72 		.ascii	"short int\000"
 1603      7420696E 
 1603      7400
 1604              	.LASF48:
 1605 0277 563A5C6F 		.ascii	"V:\\oroca_bldc_dev\000"
 1605      726F6361 
 1605      5F626C64 
 1605      635F6465 
 1605      7600
 1606              	.LASF28:
 1607 0289 45585449 		.ascii	"EXTI_Trigger_Falling\000"
 1607      5F547269 
 1607      67676572 
 1607      5F46616C 
 1607      6C696E67 
 1608              	.LASF46:
 1609 029e 474E5520 		.ascii	"GNU C 4.9.3 20150529 (release) [ARM/embedded-4_9-br"
 1609      4320342E 
 1609      392E3320 
 1609      32303135 
 1609      30353239 
 1610 02d1 616E6368 		.ascii	"anch revision 224288] -mcpu=cortex-m4 -mfloat-abi=h"
 1610      20726576 
 1610      6973696F 
 1610      6E203232 
 1610      34323838 
 1611 0304 61726420 		.ascii	"ard -mfpu=fpv4-sp-d16 -mno-thumb-interwork -mthumb "
 1611      2D6D6670 
 1611      753D6670 
 1611      76342D73 
 1611      702D6431 
 1612 0337 2D676764 		.ascii	"-ggdb -O2 -std=gnu99 -fomit-frame-pointer -falign-f"
 1612      62202D4F 
 1612      32202D73 
 1612      74643D67 
 1612      6E753939 
 1613 036a 756E6374 		.ascii	"unctions=16 -ffunction-sections -fdata-sections -fn"
ARM GAS  C:\Users\ADMINI~1\AppData\Local\Temp\cckYT8kQ.s 			page 32


 1613      696F6E73 
 1613      3D313620 
 1613      2D666675 
 1613      6E637469 
 1614 039d 6F2D636F 		.ascii	"o-common -fsingle-precision-constant\000"
 1614      6D6D6F6E 
 1614      202D6673 
 1614      696E676C 
 1614      652D7072 
 1615              	.LASF21:
 1616 03c2 46545352 		.ascii	"FTSR\000"
 1616      00
 1617              	.LASF4:
 1618 03c7 6C6F6E67 		.ascii	"long int\000"
 1618      20696E74 
 1618      00
 1619              	.LASF0:
 1620 03d0 7369676E 		.ascii	"signed char\000"
 1620      65642063 
 1620      68617200 
 1621              	.LASF30:
 1622 03dc 45585449 		.ascii	"EXTITrigger_TypeDef\000"
 1622      54726967 
 1622      6765725F 
 1622      54797065 
 1622      44656600 
 1623              	.LASF22:
 1624 03f0 53574945 		.ascii	"SWIER\000"
 1624      5200
 1625              	.LASF49:
 1626 03f6 45585449 		.ascii	"EXTI_DeInit\000"
 1626      5F446549 
 1626      6E697400 
 1627              		.ident	"GCC: (GNU Tools for ARM Embedded Processors) 4.9.3 20150529 (release) [ARM/embedded-4_9-br
ARM GAS  C:\Users\ADMINI~1\AppData\Local\Temp\cckYT8kQ.s 			page 33


DEFINED SYMBOLS
                            *ABS*:00000000 stm32f4xx_exti.c
C:\Users\ADMINI~1\AppData\Local\Temp\cckYT8kQ.s:21     .text.EXTI_DeInit:00000000 $t
C:\Users\ADMINI~1\AppData\Local\Temp\cckYT8kQ.s:27     .text.EXTI_DeInit:00000000 EXTI_DeInit
C:\Users\ADMINI~1\AppData\Local\Temp\cckYT8kQ.s:54     .text.EXTI_DeInit:00000014 $d
C:\Users\ADMINI~1\AppData\Local\Temp\cckYT8kQ.s:60     .text.EXTI_Init:00000000 $t
C:\Users\ADMINI~1\AppData\Local\Temp\cckYT8kQ.s:66     .text.EXTI_Init:00000000 EXTI_Init
C:\Users\ADMINI~1\AppData\Local\Temp\cckYT8kQ.s:185    .text.EXTI_Init:00000078 $d
C:\Users\ADMINI~1\AppData\Local\Temp\cckYT8kQ.s:190    .text.EXTI_StructInit:00000000 $t
C:\Users\ADMINI~1\AppData\Local\Temp\cckYT8kQ.s:196    .text.EXTI_StructInit:00000000 EXTI_StructInit
C:\Users\ADMINI~1\AppData\Local\Temp\cckYT8kQ.s:220    .text.EXTI_GenerateSWInterrupt:00000000 $t
C:\Users\ADMINI~1\AppData\Local\Temp\cckYT8kQ.s:226    .text.EXTI_GenerateSWInterrupt:00000000 EXTI_GenerateSWInterrupt
C:\Users\ADMINI~1\AppData\Local\Temp\cckYT8kQ.s:244    .text.EXTI_GenerateSWInterrupt:0000000c $d
C:\Users\ADMINI~1\AppData\Local\Temp\cckYT8kQ.s:249    .text.EXTI_GetFlagStatus:00000000 $t
C:\Users\ADMINI~1\AppData\Local\Temp\cckYT8kQ.s:255    .text.EXTI_GetFlagStatus:00000000 EXTI_GetFlagStatus
C:\Users\ADMINI~1\AppData\Local\Temp\cckYT8kQ.s:277    .text.EXTI_GetFlagStatus:00000010 $d
C:\Users\ADMINI~1\AppData\Local\Temp\cckYT8kQ.s:282    .text.EXTI_ClearFlag:00000000 $t
C:\Users\ADMINI~1\AppData\Local\Temp\cckYT8kQ.s:288    .text.EXTI_ClearFlag:00000000 EXTI_ClearFlag
C:\Users\ADMINI~1\AppData\Local\Temp\cckYT8kQ.s:303    .text.EXTI_ClearFlag:00000008 $d
C:\Users\ADMINI~1\AppData\Local\Temp\cckYT8kQ.s:308    .text.EXTI_GetITStatus:00000000 $t
C:\Users\ADMINI~1\AppData\Local\Temp\cckYT8kQ.s:314    .text.EXTI_GetITStatus:00000000 EXTI_GetITStatus
C:\Users\ADMINI~1\AppData\Local\Temp\cckYT8kQ.s:348    .text.EXTI_GetITStatus:00000018 $d
C:\Users\ADMINI~1\AppData\Local\Temp\cckYT8kQ.s:353    .text.EXTI_ClearITPendingBit:00000000 $t
C:\Users\ADMINI~1\AppData\Local\Temp\cckYT8kQ.s:359    .text.EXTI_ClearITPendingBit:00000000 EXTI_ClearITPendingBit
C:\Users\ADMINI~1\AppData\Local\Temp\cckYT8kQ.s:374    .text.EXTI_ClearITPendingBit:00000008 $d
                     .debug_frame:00000010 $d

NO UNDEFINED SYMBOLS
