ARM GAS  C:\Users\jsyoon\AppData\Local\Temp\cc3YNORi.s 			page 1


   1              		.syntax unified
   2              		.cpu cortex-m4
   3              		.eabi_attribute 27, 3
   4              		.eabi_attribute 28, 1
   5              		.fpu fpv4-sp-d16
   6              		.eabi_attribute 20, 1
   7              		.eabi_attribute 21, 1
   8              		.eabi_attribute 23, 3
   9              		.eabi_attribute 24, 1
  10              		.eabi_attribute 25, 1
  11              		.eabi_attribute 26, 1
  12              		.eabi_attribute 30, 2
  13              		.eabi_attribute 34, 1
  14              		.eabi_attribute 18, 4
  15              		.thumb
  16              		.file	"stm32f4xx_dac.c"
  17              		.text
  18              	.Ltext0:
  19              		.cfi_sections	.debug_frame
  20              		.section	.text.DAC_DeInit,"ax",%progbits
  21              		.align	2
  22              		.p2align 4,,15
  23              		.global	DAC_DeInit
  24              		.thumb
  25              		.thumb_func
  26              		.type	DAC_DeInit, %function
  27              	DAC_DeInit:
  28              	.LFB111:
  29              		.file 1 "ChibiOS_2.6.6/ext/stdperiph_stm32f4/src/stm32f4xx_dac.c"
  30              		.loc 1 181 0
  31              		.cfi_startproc
  32              		@ args = 0, pretend = 0, frame = 0
  33              		@ frame_needed = 0, uses_anonymous_args = 0
  34 0000 08B5     		push	{r3, lr}
  35              		.cfi_def_cfa_offset 8
  36              		.cfi_offset 3, -8
  37              		.cfi_offset 14, -4
  38              		.loc 1 183 0
  39 0002 4FF00050 		mov	r0, #536870912
  40 0006 0121     		movs	r1, #1
  41 0008 FFF7FEFF 		bl	RCC_APB1PeriphResetCmd
  42              	.LVL0:
  43              		.loc 1 185 0
  44 000c 4FF00050 		mov	r0, #536870912
  45 0010 0021     		movs	r1, #0
  46              		.loc 1 186 0
  47 0012 BDE80840 		pop	{r3, lr}
  48              		.loc 1 185 0
  49 0016 FFF7FEBF 		b	RCC_APB1PeriphResetCmd
  50              	.LVL1:
  51              		.cfi_endproc
  52              	.LFE111:
  53              		.size	DAC_DeInit, .-DAC_DeInit
  54 001a 00BFAFF3 		.section	.text.DAC_Init,"ax",%progbits
  54      0080
  55              		.align	2
  56              		.p2align 4,,15
ARM GAS  C:\Users\jsyoon\AppData\Local\Temp\cc3YNORi.s 			page 2


  57              		.global	DAC_Init
  58              		.thumb
  59              		.thumb_func
  60              		.type	DAC_Init, %function
  61              	DAC_Init:
  62              	.LFB112:
  63              		.loc 1 200 0
  64              		.cfi_startproc
  65              		@ args = 0, pretend = 0, frame = 0
  66              		@ frame_needed = 0, uses_anonymous_args = 0
  67              		@ link register save eliminated.
  68              	.LVL2:
  69 0000 70B4     		push	{r4, r5, r6}
  70              		.cfi_def_cfa_offset 12
  71              		.cfi_offset 4, -12
  72              		.cfi_offset 5, -8
  73              		.cfi_offset 6, -4
  74              		.loc 1 220 0
  75 0002 91E86000 		ldmia	r1, {r5, r6}
  76 0006 8C68     		ldr	r4, [r1, #8]
  77              		.loc 1 211 0
  78 0008 084B     		ldr	r3, .L3
  79              		.loc 1 220 0
  80 000a C968     		ldr	r1, [r1, #12]
  81              	.LVL3:
  82              		.loc 1 211 0
  83 000c 1A68     		ldr	r2, [r3]
  84              	.LVL4:
  85              		.loc 1 220 0
  86 000e 3543     		orrs	r5, r5, r6
  87 0010 2C43     		orrs	r4, r4, r5
  88              		.loc 1 213 0
  89 0012 40F6FE76 		movw	r6, #4094
  90 0016 8640     		lsls	r6, r6, r0
  91              		.loc 1 220 0
  92 0018 2143     		orrs	r1, r1, r4
  93              		.loc 1 213 0
  94 001a 22EA0602 		bic	r2, r2, r6
  95              	.LVL5:
  96              		.loc 1 224 0
  97 001e 01FA00F0 		lsl	r0, r1, r0
  98              	.LVL6:
  99 0022 0243     		orrs	r2, r2, r0
 100              	.LVL7:
 101              		.loc 1 226 0
 102 0024 1A60     		str	r2, [r3]
 103              	.LVL8:
 104              		.loc 1 227 0
 105 0026 70BC     		pop	{r4, r5, r6}
 106 0028 7047     		bx	lr
 107              	.L4:
 108 002a 00BF     		.align	2
 109              	.L3:
 110 002c 00740040 		.word	1073771520
 111              		.cfi_endproc
 112              	.LFE112:
 113              		.size	DAC_Init, .-DAC_Init
ARM GAS  C:\Users\jsyoon\AppData\Local\Temp\cc3YNORi.s 			page 3


 114              		.section	.text.DAC_StructInit,"ax",%progbits
 115              		.align	2
 116              		.p2align 4,,15
 117              		.global	DAC_StructInit
 118              		.thumb
 119              		.thumb_func
 120              		.type	DAC_StructInit, %function
 121              	DAC_StructInit:
 122              	.LFB113:
 123              		.loc 1 236 0
 124              		.cfi_startproc
 125              		@ args = 0, pretend = 0, frame = 0
 126              		@ frame_needed = 0, uses_anonymous_args = 0
 127              		@ link register save eliminated.
 128              	.LVL9:
 129              		.loc 1 239 0
 130 0000 0023     		movs	r3, #0
 131 0002 0360     		str	r3, [r0]
 132              		.loc 1 241 0
 133 0004 4360     		str	r3, [r0, #4]
 134              		.loc 1 243 0
 135 0006 8360     		str	r3, [r0, #8]
 136              		.loc 1 245 0
 137 0008 C360     		str	r3, [r0, #12]
 138 000a 7047     		bx	lr
 139              		.cfi_endproc
 140              	.LFE113:
 141              		.size	DAC_StructInit, .-DAC_StructInit
 142 000c AFF30080 		.section	.text.DAC_Cmd,"ax",%progbits
 143              		.align	2
 144              		.p2align 4,,15
 145              		.global	DAC_Cmd
 146              		.thumb
 147              		.thumb_func
 148              		.type	DAC_Cmd, %function
 149              	DAC_Cmd:
 150              	.LFB114:
 151              		.loc 1 260 0
 152              		.cfi_startproc
 153              		@ args = 0, pretend = 0, frame = 0
 154              		@ frame_needed = 0, uses_anonymous_args = 0
 155              		@ link register save eliminated.
 156              	.LVL10:
 157              		.loc 1 268 0
 158 0000 084B     		ldr	r3, .L11
 159              		.loc 1 265 0
 160 0002 39B9     		cbnz	r1, .L10
 161              		.loc 1 273 0
 162 0004 1A68     		ldr	r2, [r3]
 163 0006 0121     		movs	r1, #1
 164              	.LVL11:
 165 0008 01FA00F0 		lsl	r0, r1, r0
 166              	.LVL12:
 167 000c 22EA0000 		bic	r0, r2, r0
 168 0010 1860     		str	r0, [r3]
 169 0012 7047     		bx	lr
 170              	.LVL13:
ARM GAS  C:\Users\jsyoon\AppData\Local\Temp\cc3YNORi.s 			page 4


 171              	.L10:
 172              		.loc 1 268 0
 173 0014 1A68     		ldr	r2, [r3]
 174 0016 0121     		movs	r1, #1
 175              	.LVL14:
 176 0018 01FA00F0 		lsl	r0, r1, r0
 177              	.LVL15:
 178 001c 1043     		orrs	r0, r0, r2
 179 001e 1860     		str	r0, [r3]
 180 0020 7047     		bx	lr
 181              	.L12:
 182 0022 00BF     		.align	2
 183              	.L11:
 184 0024 00740040 		.word	1073771520
 185              		.cfi_endproc
 186              	.LFE114:
 187              		.size	DAC_Cmd, .-DAC_Cmd
 188 0028 AFF30080 		.section	.text.DAC_SoftwareTriggerCmd,"ax",%progbits
 188      AFF30080 
 189              		.align	2
 190              		.p2align 4,,15
 191              		.global	DAC_SoftwareTriggerCmd
 192              		.thumb
 193              		.thumb_func
 194              		.type	DAC_SoftwareTriggerCmd, %function
 195              	DAC_SoftwareTriggerCmd:
 196              	.LFB115:
 197              		.loc 1 288 0
 198              		.cfi_startproc
 199              		@ args = 0, pretend = 0, frame = 0
 200              		@ frame_needed = 0, uses_anonymous_args = 0
 201              		@ link register save eliminated.
 202              	.LVL16:
 203              		.loc 1 296 0
 204 0000 084B     		ldr	r3, .L17
 205 0002 0009     		lsrs	r0, r0, #4
 206              	.LVL17:
 207              		.loc 1 293 0
 208 0004 39B9     		cbnz	r1, .L16
 209              		.loc 1 301 0
 210 0006 5A68     		ldr	r2, [r3, #4]
 211 0008 0121     		movs	r1, #1
 212              	.LVL18:
 213 000a 01FA00F0 		lsl	r0, r1, r0
 214 000e 22EA0000 		bic	r0, r2, r0
 215 0012 5860     		str	r0, [r3, #4]
 216 0014 7047     		bx	lr
 217              	.LVL19:
 218              	.L16:
 219              		.loc 1 296 0
 220 0016 5A68     		ldr	r2, [r3, #4]
 221 0018 0121     		movs	r1, #1
 222              	.LVL20:
 223 001a 01FA00F0 		lsl	r0, r1, r0
 224 001e 1043     		orrs	r0, r0, r2
 225 0020 5860     		str	r0, [r3, #4]
 226 0022 7047     		bx	lr
ARM GAS  C:\Users\jsyoon\AppData\Local\Temp\cc3YNORi.s 			page 5


 227              	.L18:
 228              		.align	2
 229              	.L17:
 230 0024 00740040 		.word	1073771520
 231              		.cfi_endproc
 232              	.LFE115:
 233              		.size	DAC_SoftwareTriggerCmd, .-DAC_SoftwareTriggerCmd
 234 0028 AFF30080 		.section	.text.DAC_DualSoftwareTriggerCmd,"ax",%progbits
 234      AFF30080 
 235              		.align	2
 236              		.p2align 4,,15
 237              		.global	DAC_DualSoftwareTriggerCmd
 238              		.thumb
 239              		.thumb_func
 240              		.type	DAC_DualSoftwareTriggerCmd, %function
 241              	DAC_DualSoftwareTriggerCmd:
 242              	.LFB116:
 243              		.loc 1 312 0
 244              		.cfi_startproc
 245              		@ args = 0, pretend = 0, frame = 0
 246              		@ frame_needed = 0, uses_anonymous_args = 0
 247              		@ link register save eliminated.
 248              	.LVL21:
 249              		.loc 1 319 0
 250 0000 054B     		ldr	r3, .L23
 251 0002 5A68     		ldr	r2, [r3, #4]
 252              		.loc 1 316 0
 253 0004 18B9     		cbnz	r0, .L22
 254              		.loc 1 324 0
 255 0006 22F00302 		bic	r2, r2, #3
 256 000a 5A60     		str	r2, [r3, #4]
 257 000c 7047     		bx	lr
 258              	.L22:
 259              		.loc 1 319 0
 260 000e 42F00302 		orr	r2, r2, #3
 261 0012 5A60     		str	r2, [r3, #4]
 262 0014 7047     		bx	lr
 263              	.L24:
 264 0016 00BF     		.align	2
 265              	.L23:
 266 0018 00740040 		.word	1073771520
 267              		.cfi_endproc
 268              	.LFE116:
 269              		.size	DAC_DualSoftwareTriggerCmd, .-DAC_DualSoftwareTriggerCmd
 270 001c AFF30080 		.section	.text.DAC_WaveGenerationCmd,"ax",%progbits
 271              		.align	2
 272              		.p2align 4,,15
 273              		.global	DAC_WaveGenerationCmd
 274              		.thumb
 275              		.thumb_func
 276              		.type	DAC_WaveGenerationCmd, %function
 277              	DAC_WaveGenerationCmd:
 278              	.LFB117:
 279              		.loc 1 343 0
 280              		.cfi_startproc
 281              		@ args = 0, pretend = 0, frame = 0
 282              		@ frame_needed = 0, uses_anonymous_args = 0
ARM GAS  C:\Users\jsyoon\AppData\Local\Temp\cc3YNORi.s 			page 6


 283              		@ link register save eliminated.
 284              	.LVL22:
 285              		.loc 1 352 0
 286 0000 064B     		ldr	r3, .L29
 287              		.loc 1 349 0
 288 0002 2AB9     		cbnz	r2, .L28
 289              		.loc 1 357 0
 290 0004 1A68     		ldr	r2, [r3]
 291              	.LVL23:
 292 0006 8140     		lsls	r1, r1, r0
 293              	.LVL24:
 294 0008 22EA0101 		bic	r1, r2, r1
 295 000c 1960     		str	r1, [r3]
 296 000e 7047     		bx	lr
 297              	.LVL25:
 298              	.L28:
 299              		.loc 1 352 0
 300 0010 1A68     		ldr	r2, [r3]
 301              	.LVL26:
 302 0012 8140     		lsls	r1, r1, r0
 303              	.LVL27:
 304 0014 1143     		orrs	r1, r1, r2
 305 0016 1960     		str	r1, [r3]
 306 0018 7047     		bx	lr
 307              	.L30:
 308 001a 00BF     		.align	2
 309              	.L29:
 310 001c 00740040 		.word	1073771520
 311              		.cfi_endproc
 312              	.LFE117:
 313              		.size	DAC_WaveGenerationCmd, .-DAC_WaveGenerationCmd
 314              		.section	.text.DAC_SetChannel1Data,"ax",%progbits
 315              		.align	2
 316              		.p2align 4,,15
 317              		.global	DAC_SetChannel1Data
 318              		.thumb
 319              		.thumb_func
 320              		.type	DAC_SetChannel1Data, %function
 321              	DAC_SetChannel1Data:
 322              	.LFB118:
 323              		.loc 1 372 0
 324              		.cfi_startproc
 325              		@ args = 0, pretend = 0, frame = 8
 326              		@ frame_needed = 0, uses_anonymous_args = 0
 327              		@ link register save eliminated.
 328              	.LVL28:
 329 0000 82B0     		sub	sp, sp, #8
 330              		.cfi_def_cfa_offset 8
 331              		.loc 1 373 0
 332 0002 0022     		movs	r2, #0
 333              		.loc 1 379 0
 334 0004 054B     		ldr	r3, .L32
 335              		.loc 1 373 0
 336 0006 0192     		str	r2, [sp, #4]
 337              		.loc 1 379 0
 338 0008 0193     		str	r3, [sp, #4]
 339              		.loc 1 380 0
ARM GAS  C:\Users\jsyoon\AppData\Local\Temp\cc3YNORi.s 			page 7


 340 000a 019B     		ldr	r3, [sp, #4]
 341 000c 0833     		adds	r3, r3, #8
 342 000e 1844     		add	r0, r0, r3
 343              	.LVL29:
 344 0010 0190     		str	r0, [sp, #4]
 345              		.loc 1 383 0
 346 0012 019B     		ldr	r3, [sp, #4]
 347 0014 1960     		str	r1, [r3]
 348              		.loc 1 384 0
 349 0016 02B0     		add	sp, sp, #8
 350              		@ sp needed
 351 0018 7047     		bx	lr
 352              	.L33:
 353 001a 00BF     		.align	2
 354              	.L32:
 355 001c 00740040 		.word	1073771520
 356              		.cfi_endproc
 357              	.LFE118:
 358              		.size	DAC_SetChannel1Data, .-DAC_SetChannel1Data
 359              		.section	.text.DAC_SetChannel2Data,"ax",%progbits
 360              		.align	2
 361              		.p2align 4,,15
 362              		.global	DAC_SetChannel2Data
 363              		.thumb
 364              		.thumb_func
 365              		.type	DAC_SetChannel2Data, %function
 366              	DAC_SetChannel2Data:
 367              	.LFB119:
 368              		.loc 1 397 0
 369              		.cfi_startproc
 370              		@ args = 0, pretend = 0, frame = 8
 371              		@ frame_needed = 0, uses_anonymous_args = 0
 372              		@ link register save eliminated.
 373              	.LVL30:
 374 0000 82B0     		sub	sp, sp, #8
 375              		.cfi_def_cfa_offset 8
 376              		.loc 1 398 0
 377 0002 0022     		movs	r2, #0
 378              		.loc 1 404 0
 379 0004 054B     		ldr	r3, .L35
 380              		.loc 1 398 0
 381 0006 0192     		str	r2, [sp, #4]
 382              		.loc 1 404 0
 383 0008 0193     		str	r3, [sp, #4]
 384              		.loc 1 405 0
 385 000a 019B     		ldr	r3, [sp, #4]
 386 000c 1433     		adds	r3, r3, #20
 387 000e 1844     		add	r0, r0, r3
 388              	.LVL31:
 389 0010 0190     		str	r0, [sp, #4]
 390              		.loc 1 408 0
 391 0012 019B     		ldr	r3, [sp, #4]
 392 0014 1960     		str	r1, [r3]
 393              		.loc 1 409 0
 394 0016 02B0     		add	sp, sp, #8
 395              		@ sp needed
 396 0018 7047     		bx	lr
ARM GAS  C:\Users\jsyoon\AppData\Local\Temp\cc3YNORi.s 			page 8


 397              	.L36:
 398 001a 00BF     		.align	2
 399              	.L35:
 400 001c 00740040 		.word	1073771520
 401              		.cfi_endproc
 402              	.LFE119:
 403              		.size	DAC_SetChannel2Data, .-DAC_SetChannel2Data
 404              		.section	.text.DAC_SetDualChannelData,"ax",%progbits
 405              		.align	2
 406              		.p2align 4,,15
 407              		.global	DAC_SetDualChannelData
 408              		.thumb
 409              		.thumb_func
 410              		.type	DAC_SetDualChannelData, %function
 411              	DAC_SetDualChannelData:
 412              	.LFB120:
 413              		.loc 1 425 0
 414              		.cfi_startproc
 415              		@ args = 0, pretend = 0, frame = 0
 416              		@ frame_needed = 0, uses_anonymous_args = 0
 417              		@ link register save eliminated.
 418              	.LVL32:
 419              		.loc 1 434 0
 420 0000 0828     		cmp	r0, #8
 421              		.loc 1 444 0
 422 0002 044B     		ldr	r3, .L40
 423              		.loc 1 436 0
 424 0004 0CBF     		ite	eq
 425 0006 42EA0121 		orreq	r1, r2, r1, lsl #8
 426              	.LVL33:
 427              		.loc 1 440 0
 428 000a 42EA0141 		orrne	r1, r2, r1, lsl #16
 429              	.LVL34:
 430              		.loc 1 447 0
 431 000e C150     		str	r1, [r0, r3]
 432 0010 7047     		bx	lr
 433              	.L41:
 434 0012 00BF     		.align	2
 435              	.L40:
 436 0014 20740040 		.word	1073771552
 437              		.cfi_endproc
 438              	.LFE120:
 439              		.size	DAC_SetDualChannelData, .-DAC_SetDualChannelData
 440 0018 AFF30080 		.section	.text.DAC_GetDataOutputValue,"ax",%progbits
 440      AFF30080 
 441              		.align	2
 442              		.p2align 4,,15
 443              		.global	DAC_GetDataOutputValue
 444              		.thumb
 445              		.thumb_func
 446              		.type	DAC_GetDataOutputValue, %function
 447              	DAC_GetDataOutputValue:
 448              	.LFB121:
 449              		.loc 1 459 0
 450              		.cfi_startproc
 451              		@ args = 0, pretend = 0, frame = 8
 452              		@ frame_needed = 0, uses_anonymous_args = 0
ARM GAS  C:\Users\jsyoon\AppData\Local\Temp\cc3YNORi.s 			page 9


 453              		@ link register save eliminated.
 454              	.LVL35:
 455 0000 82B0     		sub	sp, sp, #8
 456              		.cfi_def_cfa_offset 8
 457              		.loc 1 460 0
 458 0002 0022     		movs	r2, #0
 459              		.loc 1 465 0
 460 0004 064B     		ldr	r3, .L43
 461              		.loc 1 460 0
 462 0006 0192     		str	r2, [sp, #4]
 463              		.loc 1 465 0
 464 0008 0193     		str	r3, [sp, #4]
 465              		.loc 1 466 0
 466 000a 019B     		ldr	r3, [sp, #4]
 467 000c 2C33     		adds	r3, r3, #44
 468 000e 03EB9000 		add	r0, r3, r0, lsr #2
 469              	.LVL36:
 470 0012 0190     		str	r0, [sp, #4]
 471              		.loc 1 469 0
 472 0014 019B     		ldr	r3, [sp, #4]
 473 0016 1868     		ldr	r0, [r3]
 474              		.loc 1 470 0
 475 0018 80B2     		uxth	r0, r0
 476 001a 02B0     		add	sp, sp, #8
 477              		@ sp needed
 478 001c 7047     		bx	lr
 479              	.L44:
 480 001e 00BF     		.align	2
 481              	.L43:
 482 0020 00740040 		.word	1073771520
 483              		.cfi_endproc
 484              	.LFE121:
 485              		.size	DAC_GetDataOutputValue, .-DAC_GetDataOutputValue
 486 0024 AFF30080 		.section	.text.DAC_DMACmd,"ax",%progbits
 486      AFF30080 
 486      AFF30080 
 487              		.align	2
 488              		.p2align 4,,15
 489              		.global	DAC_DMACmd
 490              		.thumb
 491              		.thumb_func
 492              		.type	DAC_DMACmd, %function
 493              	DAC_DMACmd:
 494              	.LFB122:
 495              		.loc 1 504 0
 496              		.cfi_startproc
 497              		@ args = 0, pretend = 0, frame = 0
 498              		@ frame_needed = 0, uses_anonymous_args = 0
 499              		@ link register save eliminated.
 500              	.LVL37:
 501              		.loc 1 512 0
 502 0000 094B     		ldr	r3, .L49
 503              		.loc 1 509 0
 504 0002 41B9     		cbnz	r1, .L48
 505              		.loc 1 517 0
 506 0004 1A68     		ldr	r2, [r3]
 507 0006 4FF48051 		mov	r1, #4096
ARM GAS  C:\Users\jsyoon\AppData\Local\Temp\cc3YNORi.s 			page 10


 508              	.LVL38:
 509 000a 01FA00F0 		lsl	r0, r1, r0
 510              	.LVL39:
 511 000e 22EA0000 		bic	r0, r2, r0
 512 0012 1860     		str	r0, [r3]
 513 0014 7047     		bx	lr
 514              	.LVL40:
 515              	.L48:
 516              		.loc 1 512 0
 517 0016 1A68     		ldr	r2, [r3]
 518 0018 4FF48051 		mov	r1, #4096
 519              	.LVL41:
 520 001c 01FA00F0 		lsl	r0, r1, r0
 521              	.LVL42:
 522 0020 1043     		orrs	r0, r0, r2
 523 0022 1860     		str	r0, [r3]
 524 0024 7047     		bx	lr
 525              	.L50:
 526 0026 00BF     		.align	2
 527              	.L49:
 528 0028 00740040 		.word	1073771520
 529              		.cfi_endproc
 530              	.LFE122:
 531              		.size	DAC_DMACmd, .-DAC_DMACmd
 532 002c AFF30080 		.section	.text.DAC_ITConfig,"ax",%progbits
 533              		.align	2
 534              		.p2align 4,,15
 535              		.global	DAC_ITConfig
 536              		.thumb
 537              		.thumb_func
 538              		.type	DAC_ITConfig, %function
 539              	DAC_ITConfig:
 540              	.LFB123:
 541              		.loc 1 552 0
 542              		.cfi_startproc
 543              		@ args = 0, pretend = 0, frame = 0
 544              		@ frame_needed = 0, uses_anonymous_args = 0
 545              		@ link register save eliminated.
 546              	.LVL43:
 547              		.loc 1 561 0
 548 0000 064B     		ldr	r3, .L55
 549              		.loc 1 558 0
 550 0002 2AB9     		cbnz	r2, .L54
 551              		.loc 1 566 0
 552 0004 1A68     		ldr	r2, [r3]
 553              	.LVL44:
 554 0006 8140     		lsls	r1, r1, r0
 555              	.LVL45:
 556 0008 22EA0101 		bic	r1, r2, r1
 557 000c 1960     		str	r1, [r3]
 558 000e 7047     		bx	lr
 559              	.LVL46:
 560              	.L54:
 561              		.loc 1 561 0
 562 0010 1A68     		ldr	r2, [r3]
 563              	.LVL47:
 564 0012 8140     		lsls	r1, r1, r0
ARM GAS  C:\Users\jsyoon\AppData\Local\Temp\cc3YNORi.s 			page 11


 565              	.LVL48:
 566 0014 1143     		orrs	r1, r1, r2
 567 0016 1960     		str	r1, [r3]
 568 0018 7047     		bx	lr
 569              	.L56:
 570 001a 00BF     		.align	2
 571              	.L55:
 572 001c 00740040 		.word	1073771520
 573              		.cfi_endproc
 574              	.LFE123:
 575              		.size	DAC_ITConfig, .-DAC_ITConfig
 576              		.section	.text.DAC_GetFlagStatus,"ax",%progbits
 577              		.align	2
 578              		.p2align 4,,15
 579              		.global	DAC_GetFlagStatus
 580              		.thumb
 581              		.thumb_func
 582              		.type	DAC_GetFlagStatus, %function
 583              	DAC_GetFlagStatus:
 584              	.LFB124:
 585              		.loc 1 584 0
 586              		.cfi_startproc
 587              		@ args = 0, pretend = 0, frame = 0
 588              		@ frame_needed = 0, uses_anonymous_args = 0
 589              		@ link register save eliminated.
 590              	.LVL49:
 591              		.loc 1 591 0
 592 0000 034B     		ldr	r3, .L58
 593 0002 5B6B     		ldr	r3, [r3, #52]
 594              	.LVL50:
 595 0004 8140     		lsls	r1, r1, r0
 596              	.LVL51:
 597 0006 1942     		tst	r1, r3
 598              		.loc 1 603 0
 599 0008 0CBF     		ite	eq
 600 000a 0020     		moveq	r0, #0
 601 000c 0120     		movne	r0, #1
 602              	.LVL52:
 603 000e 7047     		bx	lr
 604              	.L59:
 605              		.align	2
 606              	.L58:
 607 0010 00740040 		.word	1073771520
 608              		.cfi_endproc
 609              	.LFE124:
 610              		.size	DAC_GetFlagStatus, .-DAC_GetFlagStatus
 611 0014 AFF30080 		.section	.text.DAC_ClearFlag,"ax",%progbits
 611      AFF30080 
 611      AFF30080 
 612              		.align	2
 613              		.p2align 4,,15
 614              		.global	DAC_ClearFlag
 615              		.thumb
 616              		.thumb_func
 617              		.type	DAC_ClearFlag, %function
 618              	DAC_ClearFlag:
 619              	.LFB125:
ARM GAS  C:\Users\jsyoon\AppData\Local\Temp\cc3YNORi.s 			page 12


 620              		.loc 1 619 0
 621              		.cfi_startproc
 622              		@ args = 0, pretend = 0, frame = 0
 623              		@ frame_needed = 0, uses_anonymous_args = 0
 624              		@ link register save eliminated.
 625              	.LVL53:
 626              		.loc 1 625 0
 627 0000 014B     		ldr	r3, .L61
 628 0002 8140     		lsls	r1, r1, r0
 629              	.LVL54:
 630 0004 5963     		str	r1, [r3, #52]
 631 0006 7047     		bx	lr
 632              	.L62:
 633              		.align	2
 634              	.L61:
 635 0008 00740040 		.word	1073771520
 636              		.cfi_endproc
 637              	.LFE125:
 638              		.size	DAC_ClearFlag, .-DAC_ClearFlag
 639 000c AFF30080 		.section	.text.DAC_GetITStatus,"ax",%progbits
 640              		.align	2
 641              		.p2align 4,,15
 642              		.global	DAC_GetITStatus
 643              		.thumb
 644              		.thumb_func
 645              		.type	DAC_GetITStatus, %function
 646              	DAC_GetITStatus:
 647              	.LFB126:
 648              		.loc 1 642 0
 649              		.cfi_startproc
 650              		@ args = 0, pretend = 0, frame = 0
 651              		@ frame_needed = 0, uses_anonymous_args = 0
 652              		@ link register save eliminated.
 653              	.LVL55:
 654              		.loc 1 651 0
 655 0000 054B     		ldr	r3, .L66
 656 0002 1A68     		ldr	r2, [r3]
 657              		.loc 1 654 0
 658 0004 5B6B     		ldr	r3, [r3, #52]
 659              		.loc 1 651 0
 660 0006 8140     		lsls	r1, r1, r0
 661              	.LVL56:
 662              		.loc 1 654 0
 663 0008 11EA0300 		ands	r0, r1, r3
 664              	.LVL57:
 665 000c 03D0     		beq	.L64
 666              		.loc 1 654 0 is_stmt 0 discriminator 1
 667 000e 1142     		tst	r1, r2
 668              		.loc 1 657 0 is_stmt 1 discriminator 1
 669 0010 0CBF     		ite	eq
 670 0012 0020     		moveq	r0, #0
 671 0014 0120     		movne	r0, #1
 672              	.L64:
 673              	.LVL58:
 674              		.loc 1 666 0
 675 0016 7047     		bx	lr
 676              	.L67:
ARM GAS  C:\Users\jsyoon\AppData\Local\Temp\cc3YNORi.s 			page 13


 677              		.align	2
 678              	.L66:
 679 0018 00740040 		.word	1073771520
 680              		.cfi_endproc
 681              	.LFE126:
 682              		.size	DAC_GetITStatus, .-DAC_GetITStatus
 683 001c AFF30080 		.section	.text.DAC_ClearITPendingBit,"ax",%progbits
 684              		.align	2
 685              		.p2align 4,,15
 686              		.global	DAC_ClearITPendingBit
 687              		.thumb
 688              		.thumb_func
 689              		.type	DAC_ClearITPendingBit, %function
 690              	DAC_ClearITPendingBit:
 691              	.LFB127:
 692              		.loc 1 682 0
 693              		.cfi_startproc
 694              		@ args = 0, pretend = 0, frame = 0
 695              		@ frame_needed = 0, uses_anonymous_args = 0
 696              		@ link register save eliminated.
 697              	.LVL59:
 698              		.loc 1 688 0
 699 0000 014B     		ldr	r3, .L69
 700 0002 8140     		lsls	r1, r1, r0
 701              	.LVL60:
 702 0004 5963     		str	r1, [r3, #52]
 703 0006 7047     		bx	lr
 704              	.L70:
 705              		.align	2
 706              	.L69:
 707 0008 00740040 		.word	1073771520
 708              		.cfi_endproc
 709              	.LFE127:
 710              		.size	DAC_ClearITPendingBit, .-DAC_ClearITPendingBit
 711 000c AFF30080 		.text
 712              	.Letext0:
 713              		.file 2 "c:\\crosstools\\gcc-arm-embedded\\4.8_2014q2\\arm-none-eabi\\include\\machine\\_default_t
 714              		.file 3 "c:\\crosstools\\gcc-arm-embedded\\4.8_2014q2\\arm-none-eabi\\include\\stdint.h"
 715              		.file 4 "ChibiOS_2.6.6/os/hal/platforms/STM32F4xx/stm32f4xx.h"
 716              		.file 5 "ChibiOS_2.6.6/ext/stdperiph_stm32f4/inc/stm32f4xx_dac.h"
 717              		.file 6 "ChibiOS_2.6.6/os/ports/common/ARMCMx/CMSIS/include/core_cm4.h"
 718              		.file 7 "ChibiOS_2.6.6/ext/stdperiph_stm32f4/inc/stm32f4xx_rcc.h"