ARM GAS  C:\Users\jsyoon\AppData\Local\Temp\ccqypUcQ.s 			page 1


   1              		.syntax unified
   2              		.cpu cortex-m4
   3              		.eabi_attribute 27, 3
   4              		.eabi_attribute 28, 1
   5              		.fpu fpv4-sp-d16
   6              		.eabi_attribute 20, 1
   7              		.eabi_attribute 21, 1
   8              		.eabi_attribute 23, 3
   9              		.eabi_attribute 24, 1
  10              		.eabi_attribute 25, 1
  11              		.eabi_attribute 26, 1
  12              		.eabi_attribute 30, 2
  13              		.eabi_attribute 34, 1
  14              		.eabi_attribute 18, 4
  15              		.thumb
  16              		.file	"stm32f4xx_hash.c"
  17              		.text
  18              	.Ltext0:
  19              		.cfi_sections	.debug_frame
  20              		.section	.text.HASH_DeInit,"ax",%progbits
  21              		.align	2
  22              		.p2align 4,,15
  23              		.global	HASH_DeInit
  24              		.thumb
  25              		.thumb_func
  26              		.type	HASH_DeInit, %function
  27              	HASH_DeInit:
  28              	.LFB111:
  29              		.file 1 "ChibiOS_2.6.6/ext/stdperiph_stm32f4/src/stm32f4xx_hash.c"
  30              		.loc 1 178 0
  31              		.cfi_startproc
  32              		@ args = 0, pretend = 0, frame = 0
  33              		@ frame_needed = 0, uses_anonymous_args = 0
  34 0000 08B5     		push	{r3, lr}
  35              		.cfi_def_cfa_offset 8
  36              		.cfi_offset 3, -8
  37              		.cfi_offset 14, -4
  38              		.loc 1 180 0
  39 0002 2020     		movs	r0, #32
  40 0004 0121     		movs	r1, #1
  41 0006 FFF7FEFF 		bl	RCC_AHB2PeriphResetCmd
  42              	.LVL0:
  43              		.loc 1 182 0
  44 000a 2020     		movs	r0, #32
  45 000c 0021     		movs	r1, #0
  46              		.loc 1 183 0
  47 000e BDE80840 		pop	{r3, lr}
  48              		.loc 1 182 0
  49 0012 FFF7FEBF 		b	RCC_AHB2PeriphResetCmd
  50              	.LVL1:
  51              		.cfi_endproc
  52              	.LFE111:
  53              		.size	HASH_DeInit, .-HASH_DeInit
  54 0016 00BFAFF3 		.section	.text.HASH_Init,"ax",%progbits
  54      0080AFF3 
  54      0080
  55              		.align	2
ARM GAS  C:\Users\jsyoon\AppData\Local\Temp\ccqypUcQ.s 			page 2


  56              		.p2align 4,,15
  57              		.global	HASH_Init
  58              		.thumb
  59              		.thumb_func
  60              		.type	HASH_Init, %function
  61              	HASH_Init:
  62              	.LFB112:
  63              		.loc 1 198 0
  64              		.cfi_startproc
  65              		@ args = 0, pretend = 0, frame = 0
  66              		@ frame_needed = 0, uses_anonymous_args = 0
  67              		@ link register save eliminated.
  68              	.LVL2:
  69              		.loc 1 205 0
  70 0000 104B     		ldr	r3, .L5
  71 0002 1A68     		ldr	r2, [r3]
  72 0004 22F48022 		bic	r2, r2, #262144
  73 0008 22F0F002 		bic	r2, r2, #240
  74              		.loc 1 198 0
  75 000c 30B4     		push	{r4, r5}
  76              		.cfi_def_cfa_offset 8
  77              		.cfi_offset 4, -8
  78              		.cfi_offset 5, -4
  79              		.loc 1 205 0
  80 000e 1A60     		str	r2, [r3]
  81              		.loc 1 206 0
  82 0010 1D68     		ldr	r5, [r3]
  83 0012 0468     		ldr	r4, [r0]
  84              		.loc 1 207 0
  85 0014 8168     		ldr	r1, [r0, #8]
  86              		.loc 1 208 0
  87 0016 4268     		ldr	r2, [r0, #4]
  88              		.loc 1 206 0
  89 0018 2C43     		orrs	r4, r4, r5
  90              		.loc 1 207 0
  91 001a 2143     		orrs	r1, r1, r4
  92              		.loc 1 206 0
  93 001c 1143     		orrs	r1, r1, r2
  94              		.loc 1 211 0
  95 001e 402A     		cmp	r2, #64
  96              		.loc 1 206 0
  97 0020 1960     		str	r1, [r3]
  98              		.loc 1 211 0
  99 0022 07D1     		bne	.L3
 100              		.loc 1 214 0
 101 0024 1A68     		ldr	r2, [r3]
 102 0026 22F48032 		bic	r2, r2, #65536
 103 002a 1A60     		str	r2, [r3]
 104              		.loc 1 215 0
 105 002c C268     		ldr	r2, [r0, #12]
 106 002e 1968     		ldr	r1, [r3]
 107 0030 0A43     		orrs	r2, r2, r1
 108 0032 1A60     		str	r2, [r3]
 109              	.L3:
 110              		.loc 1 220 0
 111 0034 034B     		ldr	r3, .L5
 112 0036 1A68     		ldr	r2, [r3]
ARM GAS  C:\Users\jsyoon\AppData\Local\Temp\ccqypUcQ.s 			page 3


 113 0038 42F00402 		orr	r2, r2, #4
 114 003c 1A60     		str	r2, [r3]
 115              		.loc 1 221 0
 116 003e 30BC     		pop	{r4, r5}
 117 0040 7047     		bx	lr
 118              	.L6:
 119 0042 00BF     		.align	2
 120              	.L5:
 121 0044 00040650 		.word	1342571520
 122              		.cfi_endproc
 123              	.LFE112:
 124              		.size	HASH_Init, .-HASH_Init
 125 0048 AFF30080 		.section	.text.HASH_StructInit,"ax",%progbits
 125      AFF30080 
 126              		.align	2
 127              		.p2align 4,,15
 128              		.global	HASH_StructInit
 129              		.thumb
 130              		.thumb_func
 131              		.type	HASH_StructInit, %function
 132              	HASH_StructInit:
 133              	.LFB113:
 134              		.loc 1 232 0
 135              		.cfi_startproc
 136              		@ args = 0, pretend = 0, frame = 0
 137              		@ frame_needed = 0, uses_anonymous_args = 0
 138              		@ link register save eliminated.
 139              	.LVL3:
 140              		.loc 1 234 0
 141 0000 0023     		movs	r3, #0
 142 0002 0360     		str	r3, [r0]
 143              		.loc 1 237 0
 144 0004 4360     		str	r3, [r0, #4]
 145              		.loc 1 240 0
 146 0006 8360     		str	r3, [r0, #8]
 147              		.loc 1 243 0
 148 0008 C360     		str	r3, [r0, #12]
 149 000a 7047     		bx	lr
 150              		.cfi_endproc
 151              	.LFE113:
 152              		.size	HASH_StructInit, .-HASH_StructInit
 153 000c AFF30080 		.section	.text.HASH_Reset,"ax",%progbits
 154              		.align	2
 155              		.p2align 4,,15
 156              		.global	HASH_Reset
 157              		.thumb
 158              		.thumb_func
 159              		.type	HASH_Reset, %function
 160              	HASH_Reset:
 161              	.LFB114:
 162              		.loc 1 256 0
 163              		.cfi_startproc
 164              		@ args = 0, pretend = 0, frame = 0
 165              		@ frame_needed = 0, uses_anonymous_args = 0
 166              		@ link register save eliminated.
 167              		.loc 1 258 0
 168 0000 024B     		ldr	r3, .L9
ARM GAS  C:\Users\jsyoon\AppData\Local\Temp\ccqypUcQ.s 			page 4


 169 0002 1A68     		ldr	r2, [r3]
 170 0004 42F00402 		orr	r2, r2, #4
 171 0008 1A60     		str	r2, [r3]
 172 000a 7047     		bx	lr
 173              	.L10:
 174              		.align	2
 175              	.L9:
 176 000c 00040650 		.word	1342571520
 177              		.cfi_endproc
 178              	.LFE114:
 179              		.size	HASH_Reset, .-HASH_Reset
 180              		.section	.text.HASH_SetLastWordValidBitsNbr,"ax",%progbits
 181              		.align	2
 182              		.p2align 4,,15
 183              		.global	HASH_SetLastWordValidBitsNbr
 184              		.thumb
 185              		.thumb_func
 186              		.type	HASH_SetLastWordValidBitsNbr, %function
 187              	HASH_SetLastWordValidBitsNbr:
 188              	.LFB115:
 189              		.loc 1 298 0
 190              		.cfi_startproc
 191              		@ args = 0, pretend = 0, frame = 0
 192              		@ frame_needed = 0, uses_anonymous_args = 0
 193              		@ link register save eliminated.
 194              	.LVL4:
 195              		.loc 1 303 0
 196 0000 044B     		ldr	r3, .L12
 197 0002 9A68     		ldr	r2, [r3, #8]
 198 0004 22F01F02 		bic	r2, r2, #31
 199 0008 9A60     		str	r2, [r3, #8]
 200              		.loc 1 304 0
 201 000a 9A68     		ldr	r2, [r3, #8]
 202 000c 1043     		orrs	r0, r0, r2
 203              	.LVL5:
 204 000e 9860     		str	r0, [r3, #8]
 205 0010 7047     		bx	lr
 206              	.L13:
 207 0012 00BF     		.align	2
 208              	.L12:
 209 0014 00040650 		.word	1342571520
 210              		.cfi_endproc
 211              	.LFE115:
 212              		.size	HASH_SetLastWordValidBitsNbr, .-HASH_SetLastWordValidBitsNbr
 213 0018 AFF30080 		.section	.text.HASH_DataIn,"ax",%progbits
 213      AFF30080 
 214              		.align	2
 215              		.p2align 4,,15
 216              		.global	HASH_DataIn
 217              		.thumb
 218              		.thumb_func
 219              		.type	HASH_DataIn, %function
 220              	HASH_DataIn:
 221              	.LFB116:
 222              		.loc 1 313 0
 223              		.cfi_startproc
 224              		@ args = 0, pretend = 0, frame = 0
ARM GAS  C:\Users\jsyoon\AppData\Local\Temp\ccqypUcQ.s 			page 5


 225              		@ frame_needed = 0, uses_anonymous_args = 0
 226              		@ link register save eliminated.
 227              	.LVL6:
 228              		.loc 1 315 0
 229 0000 014B     		ldr	r3, .L15
 230 0002 5860     		str	r0, [r3, #4]
 231 0004 7047     		bx	lr
 232              	.L16:
 233 0006 00BF     		.align	2
 234              	.L15:
 235 0008 00040650 		.word	1342571520
 236              		.cfi_endproc
 237              	.LFE116:
 238              		.size	HASH_DataIn, .-HASH_DataIn
 239 000c AFF30080 		.section	.text.HASH_GetInFIFOWordsNbr,"ax",%progbits
 240              		.align	2
 241              		.p2align 4,,15
 242              		.global	HASH_GetInFIFOWordsNbr
 243              		.thumb
 244              		.thumb_func
 245              		.type	HASH_GetInFIFOWordsNbr, %function
 246              	HASH_GetInFIFOWordsNbr:
 247              	.LFB117:
 248              		.loc 1 324 0
 249              		.cfi_startproc
 250              		@ args = 0, pretend = 0, frame = 0
 251              		@ frame_needed = 0, uses_anonymous_args = 0
 252              		@ link register save eliminated.
 253              		.loc 1 326 0
 254 0000 024B     		ldr	r3, .L18
 255 0002 1868     		ldr	r0, [r3]
 256              		.loc 1 327 0
 257 0004 C0F30320 		ubfx	r0, r0, #8, #4
 258 0008 7047     		bx	lr
 259              	.L19:
 260 000a 00BF     		.align	2
 261              	.L18:
 262 000c 00040650 		.word	1342571520
 263              		.cfi_endproc
 264              	.LFE117:
 265              		.size	HASH_GetInFIFOWordsNbr, .-HASH_GetInFIFOWordsNbr
 266              		.section	.text.HASH_GetDigest,"ax",%progbits
 267              		.align	2
 268              		.p2align 4,,15
 269              		.global	HASH_GetDigest
 270              		.thumb
 271              		.thumb_func
 272              		.type	HASH_GetDigest, %function
 273              	HASH_GetDigest:
 274              	.LFB118:
 275              		.loc 1 338 0
 276              		.cfi_startproc
 277              		@ args = 0, pretend = 0, frame = 0
 278              		@ frame_needed = 0, uses_anonymous_args = 0
 279              		@ link register save eliminated.
 280              	.LVL7:
 281              		.loc 1 340 0
ARM GAS  C:\Users\jsyoon\AppData\Local\Temp\ccqypUcQ.s 			page 6


 282 0000 054B     		ldr	r3, .L21
 283 0002 DA68     		ldr	r2, [r3, #12]
 284 0004 0260     		str	r2, [r0]
 285              		.loc 1 341 0
 286 0006 1A69     		ldr	r2, [r3, #16]
 287 0008 4260     		str	r2, [r0, #4]
 288              		.loc 1 342 0
 289 000a 5A69     		ldr	r2, [r3, #20]
 290 000c 8260     		str	r2, [r0, #8]
 291              		.loc 1 343 0
 292 000e 9A69     		ldr	r2, [r3, #24]
 293 0010 C260     		str	r2, [r0, #12]
 294              		.loc 1 344 0
 295 0012 DB69     		ldr	r3, [r3, #28]
 296 0014 0361     		str	r3, [r0, #16]
 297 0016 7047     		bx	lr
 298              	.L22:
 299              		.align	2
 300              	.L21:
 301 0018 00040650 		.word	1342571520
 302              		.cfi_endproc
 303              	.LFE118:
 304              		.size	HASH_GetDigest, .-HASH_GetDigest
 305 001c AFF30080 		.section	.text.HASH_StartDigest,"ax",%progbits
 306              		.align	2
 307              		.p2align 4,,15
 308              		.global	HASH_StartDigest
 309              		.thumb
 310              		.thumb_func
 311              		.type	HASH_StartDigest, %function
 312              	HASH_StartDigest:
 313              	.LFB119:
 314              		.loc 1 353 0
 315              		.cfi_startproc
 316              		@ args = 0, pretend = 0, frame = 0
 317              		@ frame_needed = 0, uses_anonymous_args = 0
 318              		@ link register save eliminated.
 319              		.loc 1 355 0
 320 0000 024B     		ldr	r3, .L24
 321 0002 9A68     		ldr	r2, [r3, #8]
 322 0004 42F48072 		orr	r2, r2, #256
 323 0008 9A60     		str	r2, [r3, #8]
 324 000a 7047     		bx	lr
 325              	.L25:
 326              		.align	2
 327              	.L24:
 328 000c 00040650 		.word	1342571520
 329              		.cfi_endproc
 330              	.LFE119:
 331              		.size	HASH_StartDigest, .-HASH_StartDigest
 332              		.section	.text.HASH_SaveContext,"ax",%progbits
 333              		.align	2
 334              		.p2align 4,,15
 335              		.global	HASH_SaveContext
 336              		.thumb
 337              		.thumb_func
 338              		.type	HASH_SaveContext, %function
ARM GAS  C:\Users\jsyoon\AppData\Local\Temp\ccqypUcQ.s 			page 7


 339              	HASH_SaveContext:
 340              	.LFB120:
 341              		.loc 1 396 0
 342              		.cfi_startproc
 343              		@ args = 0, pretend = 0, frame = 0
 344              		@ frame_needed = 0, uses_anonymous_args = 0
 345              		@ link register save eliminated.
 346              	.LVL8:
 347              		.loc 1 400 0
 348 0000 0949     		ldr	r1, .L30
 349 0002 0B6A     		ldr	r3, [r1, #32]
 350 0004 0360     		str	r3, [r0]
 351              		.loc 1 401 0
 352 0006 8B68     		ldr	r3, [r1, #8]
 353 0008 4360     		str	r3, [r0, #4]
 354              		.loc 1 402 0
 355 000a 0B68     		ldr	r3, [r1]
 356 000c 40F8083F 		str	r3, [r0, #8]!
 357              	.LVL9:
 358 0010 0023     		movs	r3, #0
 359              	.LVL10:
 360              	.L28:
 361              		.loc 1 405 0 discriminator 2
 362 0012 03F13E02 		add	r2, r3, #62
 363 0016 0133     		adds	r3, r3, #1
 364              	.LVL11:
 365 0018 51F82220 		ldr	r2, [r1, r2, lsl #2]
 366 001c 40F8042F 		str	r2, [r0, #4]!
 367              	.LVL12:
 368              		.loc 1 403 0 discriminator 2
 369 0020 332B     		cmp	r3, #51
 370 0022 F6D1     		bne	.L28
 371              		.loc 1 407 0
 372 0024 7047     		bx	lr
 373              	.L31:
 374 0026 00BF     		.align	2
 375              	.L30:
 376 0028 00040650 		.word	1342571520
 377              		.cfi_endproc
 378              	.LFE120:
 379              		.size	HASH_SaveContext, .-HASH_SaveContext
 380 002c AFF30080 		.section	.text.HASH_RestoreContext,"ax",%progbits
 381              		.align	2
 382              		.p2align 4,,15
 383              		.global	HASH_RestoreContext
 384              		.thumb
 385              		.thumb_func
 386              		.type	HASH_RestoreContext, %function
 387              	HASH_RestoreContext:
 388              	.LFB121:
 389              		.loc 1 418 0
 390              		.cfi_startproc
 391              		@ args = 0, pretend = 0, frame = 0
 392              		@ frame_needed = 0, uses_anonymous_args = 0
 393              		@ link register save eliminated.
 394              	.LVL13:
 395              		.loc 1 422 0
ARM GAS  C:\Users\jsyoon\AppData\Local\Temp\ccqypUcQ.s 			page 8


 396 0000 0D4B     		ldr	r3, .L36
 397 0002 0268     		ldr	r2, [r0]
 398              		.loc 1 418 0
 399 0004 10B4     		push	{r4}
 400              		.cfi_def_cfa_offset 4
 401              		.cfi_offset 4, -4
 402              		.loc 1 422 0
 403 0006 1A62     		str	r2, [r3, #32]
 404              		.loc 1 423 0
 405 0008 4268     		ldr	r2, [r0, #4]
 406 000a 9A60     		str	r2, [r3, #8]
 407              		.loc 1 424 0
 408 000c 50F8082F 		ldr	r2, [r0, #8]!
 409              	.LVL14:
 410 0010 1A60     		str	r2, [r3]
 411              		.loc 1 427 0
 412 0012 1A68     		ldr	r2, [r3]
 413 0014 42F00402 		orr	r2, r2, #4
 414              		.loc 1 432 0
 415 0018 1C46     		mov	r4, r3
 416              		.loc 1 427 0
 417 001a 1A60     		str	r2, [r3]
 418 001c 0023     		movs	r3, #0
 419              	.LVL15:
 420              	.L34:
 421              		.loc 1 432 0 discriminator 2
 422 001e 03F13E02 		add	r2, r3, #62
 423 0022 0133     		adds	r3, r3, #1
 424              	.LVL16:
 425 0024 50F8041F 		ldr	r1, [r0, #4]!
 426 0028 44F82210 		str	r1, [r4, r2, lsl #2]
 427              	.LVL17:
 428              		.loc 1 430 0 discriminator 2
 429 002c 332B     		cmp	r3, #51
 430 002e F6D1     		bne	.L34
 431              		.loc 1 434 0
 432 0030 5DF8044B 		ldr	r4, [sp], #4
 433 0034 7047     		bx	lr
 434              	.L37:
 435 0036 00BF     		.align	2
 436              	.L36:
 437 0038 00040650 		.word	1342571520
 438              		.cfi_endproc
 439              	.LFE121:
 440              		.size	HASH_RestoreContext, .-HASH_RestoreContext
 441 003c AFF30080 		.section	.text.HASH_DMACmd,"ax",%progbits
 442              		.align	2
 443              		.p2align 4,,15
 444              		.global	HASH_DMACmd
 445              		.thumb
 446              		.thumb_func
 447              		.type	HASH_DMACmd, %function
 448              	HASH_DMACmd:
 449              	.LFB122:
 450              		.loc 1 467 0
 451              		.cfi_startproc
 452              		@ args = 0, pretend = 0, frame = 0
ARM GAS  C:\Users\jsyoon\AppData\Local\Temp\ccqypUcQ.s 			page 9


 453              		@ frame_needed = 0, uses_anonymous_args = 0
 454              		@ link register save eliminated.
 455              	.LVL18:
 456              		.loc 1 474 0
 457 0000 054B     		ldr	r3, .L42
 458 0002 1A68     		ldr	r2, [r3]
 459              		.loc 1 471 0
 460 0004 18B9     		cbnz	r0, .L41
 461              		.loc 1 479 0
 462 0006 22F00802 		bic	r2, r2, #8
 463 000a 1A60     		str	r2, [r3]
 464 000c 7047     		bx	lr
 465              	.L41:
 466              		.loc 1 474 0
 467 000e 42F00802 		orr	r2, r2, #8
 468 0012 1A60     		str	r2, [r3]
 469 0014 7047     		bx	lr
 470              	.L43:
 471 0016 00BF     		.align	2
 472              	.L42:
 473 0018 00040650 		.word	1342571520
 474              		.cfi_endproc
 475              	.LFE122:
 476              		.size	HASH_DMACmd, .-HASH_DMACmd
 477 001c AFF30080 		.section	.text.HASH_ITConfig,"ax",%progbits
 478              		.align	2
 479              		.p2align 4,,15
 480              		.global	HASH_ITConfig
 481              		.thumb
 482              		.thumb_func
 483              		.type	HASH_ITConfig, %function
 484              	HASH_ITConfig:
 485              	.LFB123:
 486              		.loc 1 562 0
 487              		.cfi_startproc
 488              		@ args = 0, pretend = 0, frame = 0
 489              		@ frame_needed = 0, uses_anonymous_args = 0
 490              		@ link register save eliminated.
 491              	.LVL19:
 492              		.loc 1 570 0
 493 0000 054B     		ldr	r3, .L48
 494 0002 1A6A     		ldr	r2, [r3, #32]
 495              		.loc 1 567 0
 496 0004 29B9     		cbnz	r1, .L47
 497              		.loc 1 575 0
 498 0006 22EA0000 		bic	r0, r2, r0
 499              	.LVL20:
 500 000a 00F0FF00 		and	r0, r0, #255
 501 000e 1862     		str	r0, [r3, #32]
 502 0010 7047     		bx	lr
 503              	.LVL21:
 504              	.L47:
 505              		.loc 1 570 0
 506 0012 1043     		orrs	r0, r0, r2
 507              	.LVL22:
 508 0014 1862     		str	r0, [r3, #32]
 509 0016 7047     		bx	lr
ARM GAS  C:\Users\jsyoon\AppData\Local\Temp\ccqypUcQ.s 			page 10


 510              	.L49:
 511              		.align	2
 512              	.L48:
 513 0018 00040650 		.word	1342571520
 514              		.cfi_endproc
 515              	.LFE123:
 516              		.size	HASH_ITConfig, .-HASH_ITConfig
 517 001c AFF30080 		.section	.text.HASH_GetFlagStatus,"ax",%progbits
 518              		.align	2
 519              		.p2align 4,,15
 520              		.global	HASH_GetFlagStatus
 521              		.thumb
 522              		.thumb_func
 523              		.type	HASH_GetFlagStatus, %function
 524              	HASH_GetFlagStatus:
 525              	.LFB124:
 526              		.loc 1 591 0
 527              		.cfi_startproc
 528              		@ args = 0, pretend = 0, frame = 0
 529              		@ frame_needed = 0, uses_anonymous_args = 0
 530              		@ link register save eliminated.
 531              	.LVL23:
 532              		.loc 1 601 0
 533 0000 044B     		ldr	r3, .L53
 534              		.loc 1 599 0
 535 0002 C204     		lsls	r2, r0, #19
 536              		.loc 1 601 0
 537 0004 4CBF     		ite	mi
 538 0006 1B68     		ldrmi	r3, [r3]
 539              	.LVL24:
 540              		.loc 1 605 0
 541 0008 5B6A     		ldrpl	r3, [r3, #36]
 542              	.LVL25:
 543              		.loc 1 609 0
 544 000a 0342     		tst	r3, r0
 545              		.loc 1 622 0
 546 000c 0CBF     		ite	eq
 547 000e 0020     		moveq	r0, #0
 548 0010 0120     		movne	r0, #1
 549              	.LVL26:
 550 0012 7047     		bx	lr
 551              	.L54:
 552              		.align	2
 553              	.L53:
 554 0014 00040650 		.word	1342571520
 555              		.cfi_endproc
 556              	.LFE124:
 557              		.size	HASH_GetFlagStatus, .-HASH_GetFlagStatus
 558 0018 AFF30080 		.section	.text.HASH_ClearFlag,"ax",%progbits
 558      AFF30080 
 559              		.align	2
 560              		.p2align 4,,15
 561              		.global	HASH_ClearFlag
 562              		.thumb
 563              		.thumb_func
 564              		.type	HASH_ClearFlag, %function
 565              	HASH_ClearFlag:
ARM GAS  C:\Users\jsyoon\AppData\Local\Temp\ccqypUcQ.s 			page 11


 566              	.LFB125:
 567              		.loc 1 632 0
 568              		.cfi_startproc
 569              		@ args = 0, pretend = 0, frame = 0
 570              		@ frame_needed = 0, uses_anonymous_args = 0
 571              		@ link register save eliminated.
 572              	.LVL27:
 573              		.loc 1 637 0
 574 0000 014B     		ldr	r3, .L56
 575 0002 C043     		mvns	r0, r0
 576              	.LVL28:
 577 0004 5862     		str	r0, [r3, #36]
 578 0006 7047     		bx	lr
 579              	.L57:
 580              		.align	2
 581              	.L56:
 582 0008 00040650 		.word	1342571520
 583              		.cfi_endproc
 584              	.LFE125:
 585              		.size	HASH_ClearFlag, .-HASH_ClearFlag
 586 000c AFF30080 		.section	.text.HASH_GetITStatus,"ax",%progbits
 587              		.align	2
 588              		.p2align 4,,15
 589              		.global	HASH_GetITStatus
 590              		.thumb
 591              		.thumb_func
 592              		.type	HASH_GetITStatus, %function
 593              	HASH_GetITStatus:
 594              	.LFB126:
 595              		.loc 1 648 0
 596              		.cfi_startproc
 597              		@ args = 0, pretend = 0, frame = 0
 598              		@ frame_needed = 0, uses_anonymous_args = 0
 599              		@ link register save eliminated.
 600              	.LVL29:
 601              		.loc 1 657 0
 602 0000 044B     		ldr	r3, .L59
 603 0002 5A6A     		ldr	r2, [r3, #36]
 604              	.LVL30:
 605              		.loc 1 659 0
 606 0004 1B6A     		ldr	r3, [r3, #32]
 607              	.LVL31:
 608 0006 1340     		ands	r3, r3, r2
 609              	.LVL32:
 610 0008 0342     		tst	r3, r0
 611              		.loc 1 671 0
 612 000a 0CBF     		ite	eq
 613 000c 0020     		moveq	r0, #0
 614 000e 0120     		movne	r0, #1
 615              	.LVL33:
 616 0010 7047     		bx	lr
 617              	.L60:
 618 0012 00BF     		.align	2
 619              	.L59:
 620 0014 00040650 		.word	1342571520
 621              		.cfi_endproc
 622              	.LFE126:
ARM GAS  C:\Users\jsyoon\AppData\Local\Temp\ccqypUcQ.s 			page 12


 623              		.size	HASH_GetITStatus, .-HASH_GetITStatus
 624 0018 AFF30080 		.section	.text.HASH_ClearITPendingBit,"ax",%progbits
 624      AFF30080 
 625              		.align	2
 626              		.p2align 4,,15
 627              		.global	HASH_ClearITPendingBit
 628              		.thumb
 629              		.thumb_func
 630              		.type	HASH_ClearITPendingBit, %function
 631              	HASH_ClearITPendingBit:
 632              	.LFB127:
 633              		.loc 1 682 0
 634              		.cfi_startproc
 635              		@ args = 0, pretend = 0, frame = 0
 636              		@ frame_needed = 0, uses_anonymous_args = 0
 637              		@ link register save eliminated.
 638              	.LVL34:
 639              		.loc 1 687 0
 640 0000 C043     		mvns	r0, r0
 641              	.LVL35:
 642 0002 024B     		ldr	r3, .L62
 643 0004 C0B2     		uxtb	r0, r0
 644 0006 5862     		str	r0, [r3, #36]
 645 0008 7047     		bx	lr
 646              	.L63:
 647 000a 00BF     		.align	2
 648              	.L62:
 649 000c 00040650 		.word	1342571520
 650              		.cfi_endproc
 651              	.LFE127:
 652              		.size	HASH_ClearITPendingBit, .-HASH_ClearITPendingBit
 653              		.text
 654              	.Letext0:
 655              		.file 2 "c:\\crosstools\\gcc-arm-embedded\\4.8_2014q2\\arm-none-eabi\\include\\machine\\_default_t
 656              		.file 3 "c:\\crosstools\\gcc-arm-embedded\\4.8_2014q2\\arm-none-eabi\\include\\stdint.h"
 657              		.file 4 "ChibiOS_2.6.6/os/hal/platforms/STM32F4xx/stm32f4xx.h"
 658              		.file 5 "ChibiOS_2.6.6/ext/stdperiph_stm32f4/inc/stm32f4xx_hash.h"
 659              		.file 6 "ChibiOS_2.6.6/os/ports/common/ARMCMx/CMSIS/include/core_cm4.h"
 660              		.file 7 "ChibiOS_2.6.6/ext/stdperiph_stm32f4/inc/stm32f4xx_rcc.h"