ARM GAS  C:\Users\jsyoon\AppData\Local\Temp\cciBRxxg.s 			page 1


   1              		.syntax unified
   2              		.cpu cortex-m4
   3              		.eabi_attribute 27, 3
   4              		.eabi_attribute 28, 1
   5              		.fpu fpv4-sp-d16
   6              		.eabi_attribute 20, 1
   7              		.eabi_attribute 21, 1
   8              		.eabi_attribute 23, 3
   9              		.eabi_attribute 24, 1
  10              		.eabi_attribute 25, 1
  11              		.eabi_attribute 26, 1
  12              		.eabi_attribute 30, 2
  13              		.eabi_attribute 34, 1
  14              		.eabi_attribute 18, 4
  15              		.thumb
  16              		.file	"stm32f4xx_sdio.c"
  17              		.text
  18              	.Ltext0:
  19              		.cfi_sections	.debug_frame
  20              		.section	.text.SDIO_DeInit,"ax",%progbits
  21              		.align	2
  22              		.p2align 4,,15
  23              		.global	SDIO_DeInit
  24              		.thumb
  25              		.thumb_func
  26              		.type	SDIO_DeInit, %function
  27              	SDIO_DeInit:
  28              	.LFB111:
  29              		.file 1 "ChibiOS_2.6.6/ext/stdperiph_stm32f4/src/stm32f4xx_sdio.c"
  30              		.loc 1 266 0
  31              		.cfi_startproc
  32              		@ args = 0, pretend = 0, frame = 0
  33              		@ frame_needed = 0, uses_anonymous_args = 0
  34 0000 08B5     		push	{r3, lr}
  35              		.cfi_def_cfa_offset 8
  36              		.cfi_offset 3, -8
  37              		.cfi_offset 14, -4
  38              		.loc 1 267 0
  39 0002 4FF40060 		mov	r0, #2048
  40 0006 0121     		movs	r1, #1
  41 0008 FFF7FEFF 		bl	RCC_APB2PeriphResetCmd
  42              	.LVL0:
  43              		.loc 1 268 0
  44 000c 4FF40060 		mov	r0, #2048
  45 0010 0021     		movs	r1, #0
  46              		.loc 1 269 0
  47 0012 BDE80840 		pop	{r3, lr}
  48              		.loc 1 268 0
  49 0016 FFF7FEBF 		b	RCC_APB2PeriphResetCmd
  50              	.LVL1:
  51              		.cfi_endproc
  52              	.LFE111:
  53              		.size	SDIO_DeInit, .-SDIO_DeInit
  54 001a 00BFAFF3 		.section	.text.SDIO_Init,"ax",%progbits
  54      0080
  55              		.align	2
  56              		.p2align 4,,15
ARM GAS  C:\Users\jsyoon\AppData\Local\Temp\cciBRxxg.s 			page 2


  57              		.global	SDIO_Init
  58              		.thumb
  59              		.thumb_func
  60              		.type	SDIO_Init, %function
  61              	SDIO_Init:
  62              	.LFB112:
  63              		.loc 1 279 0
  64              		.cfi_startproc
  65              		@ args = 0, pretend = 0, frame = 0
  66              		@ frame_needed = 0, uses_anonymous_args = 0
  67              		@ link register save eliminated.
  68              	.LVL2:
  69 0000 F0B4     		push	{r4, r5, r6, r7}
  70              		.cfi_def_cfa_offset 16
  71              		.cfi_offset 4, -16
  72              		.cfi_offset 5, -12
  73              		.cfi_offset 6, -8
  74              		.cfi_offset 7, -4
  75              		.loc 1 291 0
  76 0002 0B4A     		ldr	r2, .L3
  77              		.loc 1 302 0
  78 0004 8768     		ldr	r7, [r0, #8]
  79 0006 D0F804C0 		ldr	ip, [r0, #4]
  80 000a C668     		ldr	r6, [r0, #12]
  81              		.loc 1 303 0
  82 000c 0568     		ldr	r5, [r0]
  83 000e 0469     		ldr	r4, [r0, #16]
  84              		.loc 1 302 0
  85 0010 017D     		ldrb	r1, [r0, #20]	@ zero_extendqisi2
  86              		.loc 1 291 0
  87 0012 5368     		ldr	r3, [r2, #4]
  88              	.LVL3:
  89              		.loc 1 302 0
  90 0014 4CEA0700 		orr	r0, ip, r7
  91              	.LVL4:
  92 0018 3043     		orrs	r0, r0, r6
  93              		.loc 1 303 0
  94 001a 2843     		orrs	r0, r0, r5
  95              		.loc 1 294 0
  96 001c 23F4FD43 		bic	r3, r3, #32384
  97              	.LVL5:
  98              		.loc 1 303 0
  99 0020 2043     		orrs	r0, r0, r4
 100              		.loc 1 294 0
 101 0022 23F07F03 		bic	r3, r3, #127
 102              		.loc 1 304 0
 103 0026 0343     		orrs	r3, r3, r0
 104              		.loc 1 302 0
 105 0028 0B43     		orrs	r3, r3, r1
 106              	.LVL6:
 107              		.loc 1 307 0
 108 002a 5360     		str	r3, [r2, #4]
 109              		.loc 1 308 0
 110 002c F0BC     		pop	{r4, r5, r6, r7}
 111 002e 7047     		bx	lr
 112              	.L4:
 113              		.align	2
ARM GAS  C:\Users\jsyoon\AppData\Local\Temp\cciBRxxg.s 			page 3


 114              	.L3:
 115 0030 002C0140 		.word	1073818624
 116              		.cfi_endproc
 117              	.LFE112:
 118              		.size	SDIO_Init, .-SDIO_Init
 119 0034 AFF30080 		.section	.text.SDIO_StructInit,"ax",%progbits
 119      AFF30080 
 119      AFF30080 
 120              		.align	2
 121              		.p2align 4,,15
 122              		.global	SDIO_StructInit
 123              		.thumb
 124              		.thumb_func
 125              		.type	SDIO_StructInit, %function
 126              	SDIO_StructInit:
 127              	.LFB113:
 128              		.loc 1 317 0
 129              		.cfi_startproc
 130              		@ args = 0, pretend = 0, frame = 0
 131              		@ frame_needed = 0, uses_anonymous_args = 0
 132              		@ link register save eliminated.
 133              	.LVL7:
 134              		.loc 1 319 0
 135 0000 0023     		movs	r3, #0
 136 0002 0375     		strb	r3, [r0, #20]
 137              		.loc 1 320 0
 138 0004 0360     		str	r3, [r0]
 139              		.loc 1 321 0
 140 0006 4360     		str	r3, [r0, #4]
 141              		.loc 1 322 0
 142 0008 8360     		str	r3, [r0, #8]
 143              		.loc 1 323 0
 144 000a C360     		str	r3, [r0, #12]
 145              		.loc 1 324 0
 146 000c 0361     		str	r3, [r0, #16]
 147 000e 7047     		bx	lr
 148              		.cfi_endproc
 149              	.LFE113:
 150              		.size	SDIO_StructInit, .-SDIO_StructInit
 151              		.section	.text.SDIO_ClockCmd,"ax",%progbits
 152              		.align	2
 153              		.p2align 4,,15
 154              		.global	SDIO_ClockCmd
 155              		.thumb
 156              		.thumb_func
 157              		.type	SDIO_ClockCmd, %function
 158              	SDIO_ClockCmd:
 159              	.LFB114:
 160              		.loc 1 334 0
 161              		.cfi_startproc
 162              		@ args = 0, pretend = 0, frame = 0
 163              		@ frame_needed = 0, uses_anonymous_args = 0
 164              		@ link register save eliminated.
 165              	.LVL8:
 166              		.loc 1 338 0
 167 0000 014B     		ldr	r3, .L7
 168 0002 1860     		str	r0, [r3]
ARM GAS  C:\Users\jsyoon\AppData\Local\Temp\cciBRxxg.s 			page 4


 169 0004 7047     		bx	lr
 170              	.L8:
 171 0006 00BF     		.align	2
 172              	.L7:
 173 0008 A0802542 		.word	1109754016
 174              		.cfi_endproc
 175              	.LFE114:
 176              		.size	SDIO_ClockCmd, .-SDIO_ClockCmd
 177 000c AFF30080 		.section	.text.SDIO_SetPowerState,"ax",%progbits
 178              		.align	2
 179              		.p2align 4,,15
 180              		.global	SDIO_SetPowerState
 181              		.thumb
 182              		.thumb_func
 183              		.type	SDIO_SetPowerState, %function
 184              	SDIO_SetPowerState:
 185              	.LFB115:
 186              		.loc 1 350 0
 187              		.cfi_startproc
 188              		@ args = 0, pretend = 0, frame = 0
 189              		@ frame_needed = 0, uses_anonymous_args = 0
 190              		@ link register save eliminated.
 191              	.LVL9:
 192              		.loc 1 354 0
 193 0000 014B     		ldr	r3, .L10
 194 0002 1860     		str	r0, [r3]
 195 0004 7047     		bx	lr
 196              	.L11:
 197 0006 00BF     		.align	2
 198              	.L10:
 199 0008 002C0140 		.word	1073818624
 200              		.cfi_endproc
 201              	.LFE115:
 202              		.size	SDIO_SetPowerState, .-SDIO_SetPowerState
 203 000c AFF30080 		.section	.text.SDIO_GetPowerState,"ax",%progbits
 204              		.align	2
 205              		.p2align 4,,15
 206              		.global	SDIO_GetPowerState
 207              		.thumb
 208              		.thumb_func
 209              		.type	SDIO_GetPowerState, %function
 210              	SDIO_GetPowerState:
 211              	.LFB116:
 212              		.loc 1 367 0
 213              		.cfi_startproc
 214              		@ args = 0, pretend = 0, frame = 0
 215              		@ frame_needed = 0, uses_anonymous_args = 0
 216              		@ link register save eliminated.
 217              		.loc 1 368 0
 218 0000 024B     		ldr	r3, .L13
 219 0002 1868     		ldr	r0, [r3]
 220              		.loc 1 369 0
 221 0004 00F00300 		and	r0, r0, #3
 222 0008 7047     		bx	lr
 223              	.L14:
 224 000a 00BF     		.align	2
 225              	.L13:
ARM GAS  C:\Users\jsyoon\AppData\Local\Temp\cciBRxxg.s 			page 5


 226 000c 002C0140 		.word	1073818624
 227              		.cfi_endproc
 228              	.LFE116:
 229              		.size	SDIO_GetPowerState, .-SDIO_GetPowerState
 230              		.section	.text.SDIO_SendCommand,"ax",%progbits
 231              		.align	2
 232              		.p2align 4,,15
 233              		.global	SDIO_SendCommand
 234              		.thumb
 235              		.thumb_func
 236              		.type	SDIO_SendCommand, %function
 237              	SDIO_SendCommand:
 238              	.LFB117:
 239              		.loc 1 399 0
 240              		.cfi_startproc
 241              		@ args = 0, pretend = 0, frame = 0
 242              		@ frame_needed = 0, uses_anonymous_args = 0
 243              		@ link register save eliminated.
 244              	.LVL10:
 245              		.loc 1 410 0
 246 0000 094B     		ldr	r3, .L16
 247 0002 0268     		ldr	r2, [r0]
 248              		.loc 1 399 0
 249 0004 30B4     		push	{r4, r5}
 250              		.cfi_def_cfa_offset 8
 251              		.cfi_offset 4, -8
 252              		.cfi_offset 5, -4
 253              		.loc 1 410 0
 254 0006 9A60     		str	r2, [r3, #8]
 255              		.loc 1 421 0
 256 0008 8568     		ldr	r5, [r0, #8]
 257 000a 4168     		ldr	r1, [r0, #4]
 258              		.loc 1 422 0
 259 000c C468     		ldr	r4, [r0, #12]
 260              		.loc 1 414 0
 261 000e DA68     		ldr	r2, [r3, #12]
 262              	.LVL11:
 263              		.loc 1 422 0
 264 0010 0069     		ldr	r0, [r0, #16]
 265              	.LVL12:
 266              		.loc 1 421 0
 267 0012 2943     		orrs	r1, r1, r5
 268              		.loc 1 422 0
 269 0014 2143     		orrs	r1, r1, r4
 270              		.loc 1 416 0
 271 0016 22F4FF62 		bic	r2, r2, #2040
 272              	.LVL13:
 273              		.loc 1 422 0
 274 001a 0143     		orrs	r1, r1, r0
 275              		.loc 1 416 0
 276 001c 22F00702 		bic	r2, r2, #7
 277              	.LVL14:
 278              		.loc 1 421 0
 279 0020 0A43     		orrs	r2, r2, r1
 280              	.LVL15:
 281              		.loc 1 425 0
 282 0022 DA60     		str	r2, [r3, #12]
ARM GAS  C:\Users\jsyoon\AppData\Local\Temp\cciBRxxg.s 			page 6


 283              		.loc 1 426 0
 284 0024 30BC     		pop	{r4, r5}
 285 0026 7047     		bx	lr
 286              	.L17:
 287              		.align	2
 288              	.L16:
 289 0028 002C0140 		.word	1073818624
 290              		.cfi_endproc
 291              	.LFE117:
 292              		.size	SDIO_SendCommand, .-SDIO_SendCommand
 293 002c AFF30080 		.section	.text.SDIO_CmdStructInit,"ax",%progbits
 294              		.align	2
 295              		.p2align 4,,15
 296              		.global	SDIO_CmdStructInit
 297              		.thumb
 298              		.thumb_func
 299              		.type	SDIO_CmdStructInit, %function
 300              	SDIO_CmdStructInit:
 301              	.LFB118:
 302              		.loc 1 435 0
 303              		.cfi_startproc
 304              		@ args = 0, pretend = 0, frame = 0
 305              		@ frame_needed = 0, uses_anonymous_args = 0
 306              		@ link register save eliminated.
 307              	.LVL16:
 308              		.loc 1 437 0
 309 0000 0023     		movs	r3, #0
 310 0002 0360     		str	r3, [r0]
 311              		.loc 1 438 0
 312 0004 4360     		str	r3, [r0, #4]
 313              		.loc 1 439 0
 314 0006 8360     		str	r3, [r0, #8]
 315              		.loc 1 440 0
 316 0008 C360     		str	r3, [r0, #12]
 317              		.loc 1 441 0
 318 000a 0361     		str	r3, [r0, #16]
 319 000c 7047     		bx	lr
 320              		.cfi_endproc
 321              	.LFE118:
 322              		.size	SDIO_CmdStructInit, .-SDIO_CmdStructInit
 323 000e 00BF     		.section	.text.SDIO_GetCommandResponse,"ax",%progbits
 324              		.align	2
 325              		.p2align 4,,15
 326              		.global	SDIO_GetCommandResponse
 327              		.thumb
 328              		.thumb_func
 329              		.type	SDIO_GetCommandResponse, %function
 330              	SDIO_GetCommandResponse:
 331              	.LFB119:
 332              		.loc 1 450 0
 333              		.cfi_startproc
 334              		@ args = 0, pretend = 0, frame = 0
 335              		@ frame_needed = 0, uses_anonymous_args = 0
 336              		@ link register save eliminated.
 337              		.loc 1 451 0
 338 0000 014B     		ldr	r3, .L20
 339 0002 1869     		ldr	r0, [r3, #16]
ARM GAS  C:\Users\jsyoon\AppData\Local\Temp\cciBRxxg.s 			page 7


 340              		.loc 1 452 0
 341 0004 C0B2     		uxtb	r0, r0
 342 0006 7047     		bx	lr
 343              	.L21:
 344              		.align	2
 345              	.L20:
 346 0008 002C0140 		.word	1073818624
 347              		.cfi_endproc
 348              	.LFE119:
 349              		.size	SDIO_GetCommandResponse, .-SDIO_GetCommandResponse
 350 000c AFF30080 		.section	.text.SDIO_GetResponse,"ax",%progbits
 351              		.align	2
 352              		.p2align 4,,15
 353              		.global	SDIO_GetResponse
 354              		.thumb
 355              		.thumb_func
 356              		.type	SDIO_GetResponse, %function
 357              	SDIO_GetResponse:
 358              	.LFB120:
 359              		.loc 1 465 0
 360              		.cfi_startproc
 361              		@ args = 0, pretend = 0, frame = 8
 362              		@ frame_needed = 0, uses_anonymous_args = 0
 363              		@ link register save eliminated.
 364              	.LVL17:
 365              		.loc 1 471 0
 366 0000 044B     		ldr	r3, .L23
 367              		.loc 1 465 0
 368 0002 82B0     		sub	sp, sp, #8
 369              		.cfi_def_cfa_offset 8
 370              		.loc 1 471 0
 371 0004 0344     		add	r3, r3, r0
 372              		.loc 1 466 0
 373 0006 0022     		movs	r2, #0
 374 0008 0192     		str	r2, [sp, #4]
 375              		.loc 1 471 0
 376 000a 0193     		str	r3, [sp, #4]
 377              		.loc 1 473 0
 378 000c 019B     		ldr	r3, [sp, #4]
 379 000e 1868     		ldr	r0, [r3]
 380              	.LVL18:
 381              		.loc 1 474 0
 382 0010 02B0     		add	sp, sp, #8
 383              		@ sp needed
 384 0012 7047     		bx	lr
 385              	.L24:
 386              		.align	2
 387              	.L23:
 388 0014 142C0140 		.word	1073818644
 389              		.cfi_endproc
 390              	.LFE120:
 391              		.size	SDIO_GetResponse, .-SDIO_GetResponse
 392 0018 AFF30080 		.section	.text.SDIO_DataConfig,"ax",%progbits
 392      AFF30080 
 393              		.align	2
 394              		.p2align 4,,15
 395              		.global	SDIO_DataConfig
ARM GAS  C:\Users\jsyoon\AppData\Local\Temp\cciBRxxg.s 			page 8


 396              		.thumb
 397              		.thumb_func
 398              		.type	SDIO_DataConfig, %function
 399              	SDIO_DataConfig:
 400              	.LFB121:
 401              		.loc 1 503 0
 402              		.cfi_startproc
 403              		@ args = 0, pretend = 0, frame = 0
 404              		@ frame_needed = 0, uses_anonymous_args = 0
 405              		@ link register save eliminated.
 406              	.LVL19:
 407              		.loc 1 515 0
 408 0000 094B     		ldr	r3, .L26
 409 0002 0268     		ldr	r2, [r0]
 410              		.loc 1 503 0
 411 0004 30B4     		push	{r4, r5}
 412              		.cfi_def_cfa_offset 8
 413              		.cfi_offset 4, -8
 414              		.cfi_offset 5, -4
 415              		.loc 1 515 0
 416 0006 5A62     		str	r2, [r3, #36]
 417              		.loc 1 519 0
 418 0008 4268     		ldr	r2, [r0, #4]
 419 000a 9A62     		str	r2, [r3, #40]
 420              		.loc 1 530 0
 421 000c C568     		ldr	r5, [r0, #12]
 422 000e 8268     		ldr	r2, [r0, #8]
 423              		.loc 1 531 0
 424 0010 0469     		ldr	r4, [r0, #16]
 425              		.loc 1 523 0
 426 0012 D96A     		ldr	r1, [r3, #44]
 427              	.LVL20:
 428              		.loc 1 531 0
 429 0014 4069     		ldr	r0, [r0, #20]
 430              	.LVL21:
 431              		.loc 1 530 0
 432 0016 2A43     		orrs	r2, r2, r5
 433              		.loc 1 531 0
 434 0018 2243     		orrs	r2, r2, r4
 435 001a 0243     		orrs	r2, r2, r0
 436              		.loc 1 525 0
 437 001c 21F0F701 		bic	r1, r1, #247
 438              	.LVL22:
 439              		.loc 1 530 0
 440 0020 0A43     		orrs	r2, r2, r1
 441              	.LVL23:
 442              		.loc 1 534 0
 443 0022 DA62     		str	r2, [r3, #44]
 444              		.loc 1 535 0
 445 0024 30BC     		pop	{r4, r5}
 446 0026 7047     		bx	lr
 447              	.L27:
 448              		.align	2
 449              	.L26:
 450 0028 002C0140 		.word	1073818624
 451              		.cfi_endproc
 452              	.LFE121:
ARM GAS  C:\Users\jsyoon\AppData\Local\Temp\cciBRxxg.s 			page 9


 453              		.size	SDIO_DataConfig, .-SDIO_DataConfig
 454 002c AFF30080 		.section	.text.SDIO_DataStructInit,"ax",%progbits
 455              		.align	2
 456              		.p2align 4,,15
 457              		.global	SDIO_DataStructInit
 458              		.thumb
 459              		.thumb_func
 460              		.type	SDIO_DataStructInit, %function
 461              	SDIO_DataStructInit:
 462              	.LFB122:
 463              		.loc 1 544 0
 464              		.cfi_startproc
 465              		@ args = 0, pretend = 0, frame = 0
 466              		@ frame_needed = 0, uses_anonymous_args = 0
 467              		@ link register save eliminated.
 468              	.LVL24:
 469              		.loc 1 547 0
 470 0000 0023     		movs	r3, #0
 471 0002 4FF0FF32 		mov	r2, #-1
 472 0006 80E80C00 		stmia	r0, {r2, r3}
 473              		.loc 1 548 0
 474 000a 8360     		str	r3, [r0, #8]
 475              		.loc 1 549 0
 476 000c C360     		str	r3, [r0, #12]
 477              		.loc 1 550 0
 478 000e 0361     		str	r3, [r0, #16]
 479              		.loc 1 551 0
 480 0010 4361     		str	r3, [r0, #20]
 481 0012 7047     		bx	lr
 482              		.cfi_endproc
 483              	.LFE122:
 484              		.size	SDIO_DataStructInit, .-SDIO_DataStructInit
 485 0014 AFF30080 		.section	.text.SDIO_GetDataCounter,"ax",%progbits
 485      AFF30080 
 485      AFF30080 
 486              		.align	2
 487              		.p2align 4,,15
 488              		.global	SDIO_GetDataCounter
 489              		.thumb
 490              		.thumb_func
 491              		.type	SDIO_GetDataCounter, %function
 492              	SDIO_GetDataCounter:
 493              	.LFB123:
 494              		.loc 1 560 0
 495              		.cfi_startproc
 496              		@ args = 0, pretend = 0, frame = 0
 497              		@ frame_needed = 0, uses_anonymous_args = 0
 498              		@ link register save eliminated.
 499              		.loc 1 561 0
 500 0000 014B     		ldr	r3, .L30
 501 0002 186B     		ldr	r0, [r3, #48]
 502              		.loc 1 562 0
 503 0004 7047     		bx	lr
 504              	.L31:
 505 0006 00BF     		.align	2
 506              	.L30:
 507 0008 002C0140 		.word	1073818624
ARM GAS  C:\Users\jsyoon\AppData\Local\Temp\cciBRxxg.s 			page 10


 508              		.cfi_endproc
 509              	.LFE123:
 510              		.size	SDIO_GetDataCounter, .-SDIO_GetDataCounter
 511 000c AFF30080 		.section	.text.SDIO_ReadData,"ax",%progbits
 512              		.align	2
 513              		.p2align 4,,15
 514              		.global	SDIO_ReadData
 515              		.thumb
 516              		.thumb_func
 517              		.type	SDIO_ReadData, %function
 518              	SDIO_ReadData:
 519              	.LFB124:
 520              		.loc 1 570 0
 521              		.cfi_startproc
 522              		@ args = 0, pretend = 0, frame = 0
 523              		@ frame_needed = 0, uses_anonymous_args = 0
 524              		@ link register save eliminated.
 525              		.loc 1 571 0
 526 0000 014B     		ldr	r3, .L33
 527 0002 D3F88000 		ldr	r0, [r3, #128]
 528              		.loc 1 572 0
 529 0006 7047     		bx	lr
 530              	.L34:
 531              		.align	2
 532              	.L33:
 533 0008 002C0140 		.word	1073818624
 534              		.cfi_endproc
 535              	.LFE124:
 536              		.size	SDIO_ReadData, .-SDIO_ReadData
 537 000c AFF30080 		.section	.text.SDIO_WriteData,"ax",%progbits
 538              		.align	2
 539              		.p2align 4,,15
 540              		.global	SDIO_WriteData
 541              		.thumb
 542              		.thumb_func
 543              		.type	SDIO_WriteData, %function
 544              	SDIO_WriteData:
 545              	.LFB125:
 546              		.loc 1 580 0
 547              		.cfi_startproc
 548              		@ args = 0, pretend = 0, frame = 0
 549              		@ frame_needed = 0, uses_anonymous_args = 0
 550              		@ link register save eliminated.
 551              	.LVL25:
 552              		.loc 1 581 0
 553 0000 014B     		ldr	r3, .L36
 554 0002 C3F88000 		str	r0, [r3, #128]
 555 0006 7047     		bx	lr
 556              	.L37:
 557              		.align	2
 558              	.L36:
 559 0008 002C0140 		.word	1073818624
 560              		.cfi_endproc
 561              	.LFE125:
 562              		.size	SDIO_WriteData, .-SDIO_WriteData
 563 000c AFF30080 		.section	.text.SDIO_GetFIFOCount,"ax",%progbits
 564              		.align	2
ARM GAS  C:\Users\jsyoon\AppData\Local\Temp\cciBRxxg.s 			page 11


 565              		.p2align 4,,15
 566              		.global	SDIO_GetFIFOCount
 567              		.thumb
 568              		.thumb_func
 569              		.type	SDIO_GetFIFOCount, %function
 570              	SDIO_GetFIFOCount:
 571              	.LFB126:
 572              		.loc 1 590 0
 573              		.cfi_startproc
 574              		@ args = 0, pretend = 0, frame = 0
 575              		@ frame_needed = 0, uses_anonymous_args = 0
 576              		@ link register save eliminated.
 577              		.loc 1 591 0
 578 0000 014B     		ldr	r3, .L39
 579 0002 986C     		ldr	r0, [r3, #72]
 580              		.loc 1 592 0
 581 0004 7047     		bx	lr
 582              	.L40:
 583 0006 00BF     		.align	2
 584              	.L39:
 585 0008 002C0140 		.word	1073818624
 586              		.cfi_endproc
 587              	.LFE126:
 588              		.size	SDIO_GetFIFOCount, .-SDIO_GetFIFOCount
 589 000c AFF30080 		.section	.text.SDIO_StartSDIOReadWait,"ax",%progbits
 590              		.align	2
 591              		.p2align 4,,15
 592              		.global	SDIO_StartSDIOReadWait
 593              		.thumb
 594              		.thumb_func
 595              		.type	SDIO_StartSDIOReadWait, %function
 596              	SDIO_StartSDIOReadWait:
 597              	.LFB127:
 598              		.loc 1 619 0
 599              		.cfi_startproc
 600              		@ args = 0, pretend = 0, frame = 0
 601              		@ frame_needed = 0, uses_anonymous_args = 0
 602              		@ link register save eliminated.
 603              	.LVL26:
 604              		.loc 1 623 0
 605 0000 014B     		ldr	r3, .L42
 606 0002 1860     		str	r0, [r3]
 607 0004 7047     		bx	lr
 608              	.L43:
 609 0006 00BF     		.align	2
 610              	.L42:
 611 0008 A0852542 		.word	1109755296
 612              		.cfi_endproc
 613              	.LFE127:
 614              		.size	SDIO_StartSDIOReadWait, .-SDIO_StartSDIOReadWait
 615 000c AFF30080 		.section	.text.SDIO_StopSDIOReadWait,"ax",%progbits
 616              		.align	2
 617              		.p2align 4,,15
 618              		.global	SDIO_StopSDIOReadWait
 619              		.thumb
 620              		.thumb_func
 621              		.type	SDIO_StopSDIOReadWait, %function
ARM GAS  C:\Users\jsyoon\AppData\Local\Temp\cciBRxxg.s 			page 12


 622              	SDIO_StopSDIOReadWait:
 623              	.LFB128:
 624              		.loc 1 633 0
 625              		.cfi_startproc
 626              		@ args = 0, pretend = 0, frame = 0
 627              		@ frame_needed = 0, uses_anonymous_args = 0
 628              		@ link register save eliminated.
 629              	.LVL27:
 630              		.loc 1 637 0
 631 0000 014B     		ldr	r3, .L45
 632 0002 1860     		str	r0, [r3]
 633 0004 7047     		bx	lr
 634              	.L46:
 635 0006 00BF     		.align	2
 636              	.L45:
 637 0008 A4852542 		.word	1109755300
 638              		.cfi_endproc
 639              	.LFE128:
 640              		.size	SDIO_StopSDIOReadWait, .-SDIO_StopSDIOReadWait
 641 000c AFF30080 		.section	.text.SDIO_SetSDIOReadWaitMode,"ax",%progbits
 642              		.align	2
 643              		.p2align 4,,15
 644              		.global	SDIO_SetSDIOReadWaitMode
 645              		.thumb
 646              		.thumb_func
 647              		.type	SDIO_SetSDIOReadWaitMode, %function
 648              	SDIO_SetSDIOReadWaitMode:
 649              	.LFB129:
 650              		.loc 1 649 0
 651              		.cfi_startproc
 652              		@ args = 0, pretend = 0, frame = 0
 653              		@ frame_needed = 0, uses_anonymous_args = 0
 654              		@ link register save eliminated.
 655              	.LVL28:
 656              		.loc 1 653 0
 657 0000 014B     		ldr	r3, .L48
 658 0002 1860     		str	r0, [r3]
 659 0004 7047     		bx	lr
 660              	.L49:
 661 0006 00BF     		.align	2
 662              	.L48:
 663 0008 A8852542 		.word	1109755304
 664              		.cfi_endproc
 665              	.LFE129:
 666              		.size	SDIO_SetSDIOReadWaitMode, .-SDIO_SetSDIOReadWaitMode
 667 000c AFF30080 		.section	.text.SDIO_SetSDIOOperation,"ax",%progbits
 668              		.align	2
 669              		.p2align 4,,15
 670              		.global	SDIO_SetSDIOOperation
 671              		.thumb
 672              		.thumb_func
 673              		.type	SDIO_SetSDIOOperation, %function
 674              	SDIO_SetSDIOOperation:
 675              	.LFB130:
 676              		.loc 1 663 0
 677              		.cfi_startproc
 678              		@ args = 0, pretend = 0, frame = 0
ARM GAS  C:\Users\jsyoon\AppData\Local\Temp\cciBRxxg.s 			page 13


 679              		@ frame_needed = 0, uses_anonymous_args = 0
 680              		@ link register save eliminated.
 681              	.LVL29:
 682              		.loc 1 667 0
 683 0000 014B     		ldr	r3, .L51
 684 0002 1860     		str	r0, [r3]
 685 0004 7047     		bx	lr
 686              	.L52:
 687 0006 00BF     		.align	2
 688              	.L51:
 689 0008 AC852542 		.word	1109755308
 690              		.cfi_endproc
 691              	.LFE130:
 692              		.size	SDIO_SetSDIOOperation, .-SDIO_SetSDIOOperation
 693 000c AFF30080 		.section	.text.SDIO_SendSDIOSuspendCmd,"ax",%progbits
 694              		.align	2
 695              		.p2align 4,,15
 696              		.global	SDIO_SendSDIOSuspendCmd
 697              		.thumb
 698              		.thumb_func
 699              		.type	SDIO_SendSDIOSuspendCmd, %function
 700              	SDIO_SendSDIOSuspendCmd:
 701              	.LFB131:
 702              		.loc 1 677 0
 703              		.cfi_startproc
 704              		@ args = 0, pretend = 0, frame = 0
 705              		@ frame_needed = 0, uses_anonymous_args = 0
 706              		@ link register save eliminated.
 707              	.LVL30:
 708              		.loc 1 681 0
 709 0000 014B     		ldr	r3, .L54
 710 0002 1860     		str	r0, [r3]
 711 0004 7047     		bx	lr
 712              	.L55:
 713 0006 00BF     		.align	2
 714              	.L54:
 715 0008 AC812542 		.word	1109754284
 716              		.cfi_endproc
 717              	.LFE131:
 718              		.size	SDIO_SendSDIOSuspendCmd, .-SDIO_SendSDIOSuspendCmd
 719 000c AFF30080 		.section	.text.SDIO_CommandCompletionCmd,"ax",%progbits
 720              		.align	2
 721              		.p2align 4,,15
 722              		.global	SDIO_CommandCompletionCmd
 723              		.thumb
 724              		.thumb_func
 725              		.type	SDIO_CommandCompletionCmd, %function
 726              	SDIO_CommandCompletionCmd:
 727              	.LFB132:
 728              		.loc 1 709 0
 729              		.cfi_startproc
 730              		@ args = 0, pretend = 0, frame = 0
 731              		@ frame_needed = 0, uses_anonymous_args = 0
 732              		@ link register save eliminated.
 733              	.LVL31:
 734              		.loc 1 713 0
 735 0000 014B     		ldr	r3, .L57
ARM GAS  C:\Users\jsyoon\AppData\Local\Temp\cciBRxxg.s 			page 14


 736 0002 1860     		str	r0, [r3]
 737 0004 7047     		bx	lr
 738              	.L58:
 739 0006 00BF     		.align	2
 740              	.L57:
 741 0008 B0812542 		.word	1109754288
 742              		.cfi_endproc
 743              	.LFE132:
 744              		.size	SDIO_CommandCompletionCmd, .-SDIO_CommandCompletionCmd
 745 000c AFF30080 		.section	.text.SDIO_CEATAITCmd,"ax",%progbits
 746              		.align	2
 747              		.p2align 4,,15
 748              		.global	SDIO_CEATAITCmd
 749              		.thumb
 750              		.thumb_func
 751              		.type	SDIO_CEATAITCmd, %function
 752              	SDIO_CEATAITCmd:
 753              	.LFB133:
 754              		.loc 1 723 0
 755              		.cfi_startproc
 756              		@ args = 0, pretend = 0, frame = 0
 757              		@ frame_needed = 0, uses_anonymous_args = 0
 758              		@ link register save eliminated.
 759              	.LVL32:
 760              		.loc 1 727 0
 761 0000 00F00100 		and	r0, r0, #1
 762              	.LVL33:
 763 0004 024B     		ldr	r3, .L60
 764 0006 80F00100 		eor	r0, r0, #1
 765 000a 1860     		str	r0, [r3]
 766 000c 7047     		bx	lr
 767              	.L61:
 768 000e 00BF     		.align	2
 769              	.L60:
 770 0010 B4812542 		.word	1109754292
 771              		.cfi_endproc
 772              	.LFE133:
 773              		.size	SDIO_CEATAITCmd, .-SDIO_CEATAITCmd
 774 0014 AFF30080 		.section	.text.SDIO_SendCEATACmd,"ax",%progbits
 774      AFF30080 
 774      AFF30080 
 775              		.align	2
 776              		.p2align 4,,15
 777              		.global	SDIO_SendCEATACmd
 778              		.thumb
 779              		.thumb_func
 780              		.type	SDIO_SendCEATACmd, %function
 781              	SDIO_SendCEATACmd:
 782              	.LFB134:
 783              		.loc 1 737 0
 784              		.cfi_startproc
 785              		@ args = 0, pretend = 0, frame = 0
 786              		@ frame_needed = 0, uses_anonymous_args = 0
 787              		@ link register save eliminated.
 788              	.LVL34:
 789              		.loc 1 741 0
 790 0000 014B     		ldr	r3, .L63
ARM GAS  C:\Users\jsyoon\AppData\Local\Temp\cciBRxxg.s 			page 15


 791 0002 1860     		str	r0, [r3]
 792 0004 7047     		bx	lr
 793              	.L64:
 794 0006 00BF     		.align	2
 795              	.L63:
 796 0008 B8812542 		.word	1109754296
 797              		.cfi_endproc
 798              	.LFE134:
 799              		.size	SDIO_SendCEATACmd, .-SDIO_SendCEATACmd
 800 000c AFF30080 		.section	.text.SDIO_DMACmd,"ax",%progbits
 801              		.align	2
 802              		.p2align 4,,15
 803              		.global	SDIO_DMACmd
 804              		.thumb
 805              		.thumb_func
 806              		.type	SDIO_DMACmd, %function
 807              	SDIO_DMACmd:
 808              	.LFB135:
 809              		.loc 1 769 0
 810              		.cfi_startproc
 811              		@ args = 0, pretend = 0, frame = 0
 812              		@ frame_needed = 0, uses_anonymous_args = 0
 813              		@ link register save eliminated.
 814              	.LVL35:
 815              		.loc 1 773 0
 816 0000 014B     		ldr	r3, .L66
 817 0002 1860     		str	r0, [r3]
 818 0004 7047     		bx	lr
 819              	.L67:
 820 0006 00BF     		.align	2
 821              	.L66:
 822 0008 8C852542 		.word	1109755276
 823              		.cfi_endproc
 824              	.LFE135:
 825              		.size	SDIO_DMACmd, .-SDIO_DMACmd
 826 000c AFF30080 		.section	.text.SDIO_ITConfig,"ax",%progbits
 827              		.align	2
 828              		.p2align 4,,15
 829              		.global	SDIO_ITConfig
 830              		.thumb
 831              		.thumb_func
 832              		.type	SDIO_ITConfig, %function
 833              	SDIO_ITConfig:
 834              	.LFB136:
 835              		.loc 1 827 0
 836              		.cfi_startproc
 837              		@ args = 0, pretend = 0, frame = 0
 838              		@ frame_needed = 0, uses_anonymous_args = 0
 839              		@ link register save eliminated.
 840              	.LVL36:
 841              		.loc 1 835 0
 842 0000 044B     		ldr	r3, .L73
 843 0002 DA6B     		ldr	r2, [r3, #60]
 844              		.loc 1 832 0
 845 0004 19B9     		cbnz	r1, .L72
 846              		.loc 1 840 0
 847 0006 22EA0000 		bic	r0, r2, r0
ARM GAS  C:\Users\jsyoon\AppData\Local\Temp\cciBRxxg.s 			page 16


 848              	.LVL37:
 849 000a D863     		str	r0, [r3, #60]
 850 000c 7047     		bx	lr
 851              	.LVL38:
 852              	.L72:
 853              		.loc 1 835 0
 854 000e 1043     		orrs	r0, r0, r2
 855              	.LVL39:
 856 0010 D863     		str	r0, [r3, #60]
 857 0012 7047     		bx	lr
 858              	.L74:
 859              		.align	2
 860              	.L73:
 861 0014 002C0140 		.word	1073818624
 862              		.cfi_endproc
 863              	.LFE136:
 864              		.size	SDIO_ITConfig, .-SDIO_ITConfig
 865 0018 AFF30080 		.section	.text.SDIO_GetFlagStatus,"ax",%progbits
 865      AFF30080 
 866              		.align	2
 867              		.p2align 4,,15
 868              		.global	SDIO_GetFlagStatus
 869              		.thumb
 870              		.thumb_func
 871              		.type	SDIO_GetFlagStatus, %function
 872              	SDIO_GetFlagStatus:
 873              	.LFB137:
 874              		.loc 1 875 0
 875              		.cfi_startproc
 876              		@ args = 0, pretend = 0, frame = 0
 877              		@ frame_needed = 0, uses_anonymous_args = 0
 878              		@ link register save eliminated.
 879              	.LVL40:
 880              		.loc 1 881 0
 881 0000 034B     		ldr	r3, .L76
 882 0002 5B6B     		ldr	r3, [r3, #52]
 883              	.LVL41:
 884 0004 1842     		tst	r0, r3
 885              		.loc 1 890 0
 886 0006 0CBF     		ite	eq
 887 0008 0020     		moveq	r0, #0
 888 000a 0120     		movne	r0, #1
 889              	.LVL42:
 890 000c 7047     		bx	lr
 891              	.L77:
 892 000e 00BF     		.align	2
 893              	.L76:
 894 0010 002C0140 		.word	1073818624
 895              		.cfi_endproc
 896              	.LFE137:
 897              		.size	SDIO_GetFlagStatus, .-SDIO_GetFlagStatus
 898 0014 AFF30080 		.section	.text.SDIO_ClearFlag,"ax",%progbits
 898      AFF30080 
 898      AFF30080 
 899              		.align	2
 900              		.p2align 4,,15
 901              		.global	SDIO_ClearFlag
ARM GAS  C:\Users\jsyoon\AppData\Local\Temp\cciBRxxg.s 			page 17


 902              		.thumb
 903              		.thumb_func
 904              		.type	SDIO_ClearFlag, %function
 905              	SDIO_ClearFlag:
 906              	.LFB138:
 907              		.loc 1 912 0
 908              		.cfi_startproc
 909              		@ args = 0, pretend = 0, frame = 0
 910              		@ frame_needed = 0, uses_anonymous_args = 0
 911              		@ link register save eliminated.
 912              	.LVL43:
 913              		.loc 1 916 0
 914 0000 014B     		ldr	r3, .L79
 915 0002 9863     		str	r0, [r3, #56]
 916 0004 7047     		bx	lr
 917              	.L80:
 918 0006 00BF     		.align	2
 919              	.L79:
 920 0008 002C0140 		.word	1073818624
 921              		.cfi_endproc
 922              	.LFE138:
 923              		.size	SDIO_ClearFlag, .-SDIO_ClearFlag
 924 000c AFF30080 		.section	.text.SDIO_GetITStatus,"ax",%progbits
 925              		.align	2
 926              		.p2align 4,,15
 927              		.global	SDIO_GetITStatus
 928              		.thumb
 929              		.thumb_func
 930              		.type	SDIO_GetITStatus, %function
 931              	SDIO_GetITStatus:
 932              	.LFB139:
 933              		.loc 1 951 0
 934              		.cfi_startproc
 935              		@ args = 0, pretend = 0, frame = 0
 936              		@ frame_needed = 0, uses_anonymous_args = 0
 937              		@ link register save eliminated.
 938              	.LVL44:
 939              		.loc 1 956 0
 940 0000 034B     		ldr	r3, .L82
 941 0002 5B6B     		ldr	r3, [r3, #52]
 942              	.LVL45:
 943 0004 1842     		tst	r0, r3
 944              		.loc 1 965 0
 945 0006 0CBF     		ite	eq
 946 0008 0020     		moveq	r0, #0
 947 000a 0120     		movne	r0, #1
 948              	.LVL46:
 949 000c 7047     		bx	lr
 950              	.L83:
 951 000e 00BF     		.align	2
 952              	.L82:
 953 0010 002C0140 		.word	1073818624
 954              		.cfi_endproc
 955              	.LFE139:
 956              		.size	SDIO_GetITStatus, .-SDIO_GetITStatus
 957 0014 AFF30080 		.section	.text.SDIO_ClearITPendingBit,"ax",%progbits
 957      AFF30080 
ARM GAS  C:\Users\jsyoon\AppData\Local\Temp\cciBRxxg.s 			page 18


 957      AFF30080 
 958              		.align	2
 959              		.p2align 4,,15
 960              		.global	SDIO_ClearITPendingBit
 961              		.thumb
 962              		.thumb_func
 963              		.type	SDIO_ClearITPendingBit, %function
 964              	SDIO_ClearITPendingBit:
 965              	.LFB140:
 966              		.loc 1 987 0
 967              		.cfi_startproc
 968              		@ args = 0, pretend = 0, frame = 0
 969              		@ frame_needed = 0, uses_anonymous_args = 0
 970              		@ link register save eliminated.
 971              	.LVL47:
 972              		.loc 1 991 0
 973 0000 014B     		ldr	r3, .L85
 974 0002 9863     		str	r0, [r3, #56]
 975 0004 7047     		bx	lr
 976              	.L86:
 977 0006 00BF     		.align	2
 978              	.L85:
 979 0008 002C0140 		.word	1073818624
 980              		.cfi_endproc
 981              	.LFE140:
 982              		.size	SDIO_ClearITPendingBit, .-SDIO_ClearITPendingBit
 983 000c AFF30080 		.text
 984              	.Letext0:
 985              		.file 2 "c:\\crosstools\\gcc-arm-embedded\\4.8_2014q2\\arm-none-eabi\\include\\machine\\_default_t
 986              		.file 3 "c:\\crosstools\\gcc-arm-embedded\\4.8_2014q2\\arm-none-eabi\\include\\stdint.h"
 987              		.file 4 "ChibiOS_2.6.6/os/hal/platforms/STM32F4xx/stm32f4xx.h"
 988              		.file 5 "ChibiOS_2.6.6/ext/stdperiph_stm32f4/inc/stm32f4xx_sdio.h"
 989              		.file 6 "ChibiOS_2.6.6/os/ports/common/ARMCMx/CMSIS/include/core_cm4.h"
 990              		.file 7 "ChibiOS_2.6.6/ext/stdperiph_stm32f4/inc/stm32f4xx_rcc.h"
 991              		.section	.debug_info,"",%progbits
 992              	.Ldebug_info0:
 993 0000 39080000 		.4byte	0x839
 994 0004 0400     		.2byte	0x4
 995 0006 00000000 		.4byte	.Ldebug_abbrev0
 996 000a 04       		.byte	0x4
 997 000b 01       		.uleb128 0x1
 998 000c 32030000 		.4byte	.LASF101
 999 0010 01       		.byte	0x1
 1000 0011 CB050000 		.4byte	.LASF102
 1001 0015 ED000000 		.4byte	.LASF103
 1002 0019 00000000 		.4byte	.Ldebug_ranges0+0
 1003 001d 00000000 		.4byte	0
 1004 0021 00000000 		.4byte	.Ldebug_line0
 1005 0025 02       		.uleb128 0x2
 1006 0026 01       		.byte	0x1
 1007 0027 06       		.byte	0x6
 1008 0028 56040000 		.4byte	.LASF0
 1009 002c 03       		.uleb128 0x3
 1010 002d CE020000 		.4byte	.LASF4
 1011 0031 02       		.byte	0x2
 1012 0032 1C       		.byte	0x1c
 1013 0033 37000000 		.4byte	0x37
ARM GAS  C:\Users\jsyoon\AppData\Local\Temp\cciBRxxg.s 			page 19


 1014 0037 02       		.uleb128 0x2
 1015 0038 01       		.byte	0x1
 1016 0039 08       		.byte	0x8
 1017 003a 10030000 		.4byte	.LASF1
 1018 003e 02       		.uleb128 0x2
 1019 003f 02       		.byte	0x2
 1020 0040 05       		.byte	0x5
 1021 0041 AB010000 		.4byte	.LASF2
 1022 0045 02       		.uleb128 0x2
 1023 0046 02       		.byte	0x2
 1024 0047 07       		.byte	0x7
 1025 0048 F5040000 		.4byte	.LASF3
 1026 004c 03       		.uleb128 0x3
 1027 004d 32050000 		.4byte	.LASF5
 1028 0051 02       		.byte	0x2
 1029 0052 37       		.byte	0x37
 1030 0053 57000000 		.4byte	0x57
 1031 0057 02       		.uleb128 0x2
 1032 0058 04       		.byte	0x4
 1033 0059 05       		.byte	0x5
 1034 005a 92020000 		.4byte	.LASF6
 1035 005e 03       		.uleb128 0x3
 1036 005f C0050000 		.4byte	.LASF7
 1037 0063 02       		.byte	0x2
 1038 0064 38       		.byte	0x38
 1039 0065 69000000 		.4byte	0x69
 1040 0069 02       		.uleb128 0x2
 1041 006a 04       		.byte	0x4
 1042 006b 07       		.byte	0x7
 1043 006c 63050000 		.4byte	.LASF8
 1044 0070 02       		.uleb128 0x2
 1045 0071 08       		.byte	0x8
 1046 0072 05       		.byte	0x5
 1047 0073 2B010000 		.4byte	.LASF9
 1048 0077 02       		.uleb128 0x2
 1049 0078 08       		.byte	0x8
 1050 0079 07       		.byte	0x7
 1051 007a 62040000 		.4byte	.LASF10
 1052 007e 04       		.uleb128 0x4
 1053 007f 04       		.byte	0x4
 1054 0080 05       		.byte	0x5
 1055 0081 696E7400 		.ascii	"int\000"
 1056 0085 02       		.uleb128 0x2
 1057 0086 04       		.byte	0x4
 1058 0087 07       		.byte	0x7
 1059 0088 96040000 		.4byte	.LASF11
 1060 008c 03       		.uleb128 0x3
 1061 008d E0010000 		.4byte	.LASF12
 1062 0091 03       		.byte	0x3
 1063 0092 2A       		.byte	0x2a
 1064 0093 2C000000 		.4byte	0x2c
 1065 0097 03       		.uleb128 0x3
 1066 0098 2A050000 		.4byte	.LASF13
 1067 009c 03       		.byte	0x3
 1068 009d 41       		.byte	0x41
 1069 009e 4C000000 		.4byte	0x4c
 1070 00a2 03       		.uleb128 0x3
ARM GAS  C:\Users\jsyoon\AppData\Local\Temp\cciBRxxg.s 			page 20


 1071 00a3 79040000 		.4byte	.LASF14
 1072 00a7 03       		.byte	0x3
 1073 00a8 42       		.byte	0x42
 1074 00a9 5E000000 		.4byte	0x5e
 1075 00ad 02       		.uleb128 0x2
 1076 00ae 04       		.byte	0x4
 1077 00af 07       		.byte	0x7
 1078 00b0 8C000000 		.4byte	.LASF15
 1079 00b4 05       		.uleb128 0x5
 1080 00b5 A2000000 		.4byte	0xa2
 1081 00b9 06       		.uleb128 0x6
 1082 00ba B4000000 		.4byte	0xb4
 1083 00be 07       		.uleb128 0x7
 1084 00bf A2000000 		.4byte	0xa2
 1085 00c3 CE000000 		.4byte	0xce
 1086 00c7 08       		.uleb128 0x8
 1087 00c8 AD000000 		.4byte	0xad
 1088 00cc 01       		.byte	0x1
 1089 00cd 00       		.byte	0
 1090 00ce 05       		.uleb128 0x5
 1091 00cf 97000000 		.4byte	0x97
 1092 00d3 09       		.uleb128 0x9
 1093 00d4 01       		.byte	0x1
 1094 00d5 04       		.byte	0x4
 1095 00d6 F701     		.2byte	0x1f7
 1096 00d8 E9000000 		.4byte	0xe9
 1097 00dc 0A       		.uleb128 0xa
 1098 00dd 45060000 		.4byte	.LASF16
 1099 00e1 00       		.sleb128 0
 1100 00e2 0B       		.uleb128 0xb
 1101 00e3 53455400 		.ascii	"SET\000"
 1102 00e7 01       		.sleb128 1
 1103 00e8 00       		.byte	0
 1104 00e9 0C       		.uleb128 0xc
 1105 00ea EC060000 		.4byte	.LASF17
 1106 00ee 04       		.byte	0x4
 1107 00ef F701     		.2byte	0x1f7
 1108 00f1 D3000000 		.4byte	0xd3
 1109 00f5 0C       		.uleb128 0xc
 1110 00f6 46050000 		.4byte	.LASF18
 1111 00fa 04       		.byte	0x4
 1112 00fb F701     		.2byte	0x1f7
 1113 00fd D3000000 		.4byte	0xd3
 1114 0101 09       		.uleb128 0x9
 1115 0102 01       		.byte	0x1
 1116 0103 04       		.byte	0x4
 1117 0104 F901     		.2byte	0x1f9
 1118 0106 17010000 		.4byte	0x117
 1119 010a 0A       		.uleb128 0xa
 1120 010b 0B020000 		.4byte	.LASF19
 1121 010f 00       		.sleb128 0
 1122 0110 0A       		.uleb128 0xa
 1123 0111 F7060000 		.4byte	.LASF20
 1124 0115 01       		.sleb128 1
 1125 0116 00       		.byte	0
 1126 0117 0C       		.uleb128 0xc
 1127 0118 56020000 		.4byte	.LASF21
ARM GAS  C:\Users\jsyoon\AppData\Local\Temp\cciBRxxg.s 			page 21


 1128 011c 04       		.byte	0x4
 1129 011d F901     		.2byte	0x1f9
 1130 011f 01010000 		.4byte	0x101
 1131 0123 0D       		.uleb128 0xd
 1132 0124 84       		.byte	0x84
 1133 0125 04       		.byte	0x4
 1134 0126 C704     		.2byte	0x4c7
 1135 0128 31020000 		.4byte	0x231
 1136 012c 0E       		.uleb128 0xe
 1137 012d EE010000 		.4byte	.LASF22
 1138 0131 04       		.byte	0x4
 1139 0132 C904     		.2byte	0x4c9
 1140 0134 B4000000 		.4byte	0xb4
 1141 0138 00       		.byte	0
 1142 0139 0E       		.uleb128 0xe
 1143 013a 9B050000 		.4byte	.LASF23
 1144 013e 04       		.byte	0x4
 1145 013f CA04     		.2byte	0x4ca
 1146 0141 B4000000 		.4byte	0xb4
 1147 0145 04       		.byte	0x4
 1148 0146 0F       		.uleb128 0xf
 1149 0147 41524700 		.ascii	"ARG\000"
 1150 014b 04       		.byte	0x4
 1151 014c CB04     		.2byte	0x4cb
 1152 014e B4000000 		.4byte	0xb4
 1153 0152 08       		.byte	0x8
 1154 0153 0F       		.uleb128 0xf
 1155 0154 434D4400 		.ascii	"CMD\000"
 1156 0158 04       		.byte	0x4
 1157 0159 CC04     		.2byte	0x4cc
 1158 015b B4000000 		.4byte	0xb4
 1159 015f 0C       		.byte	0xc
 1160 0160 0E       		.uleb128 0xe
 1161 0161 D1060000 		.4byte	.LASF24
 1162 0165 04       		.byte	0x4
 1163 0166 CD04     		.2byte	0x4cd
 1164 0168 B9000000 		.4byte	0xb9
 1165 016c 10       		.byte	0x10
 1166 016d 0E       		.uleb128 0xe
 1167 016e 12050000 		.4byte	.LASF25
 1168 0172 04       		.byte	0x4
 1169 0173 CE04     		.2byte	0x4ce
 1170 0175 B9000000 		.4byte	0xb9
 1171 0179 14       		.byte	0x14
 1172 017a 0E       		.uleb128 0xe
 1173 017b 18050000 		.4byte	.LASF26
 1174 017f 04       		.byte	0x4
 1175 0180 CF04     		.2byte	0x4cf
 1176 0182 B9000000 		.4byte	0xb9
 1177 0186 18       		.byte	0x18
 1178 0187 0E       		.uleb128 0xe
 1179 0188 1E050000 		.4byte	.LASF27
 1180 018c 04       		.byte	0x4
 1181 018d D004     		.2byte	0x4d0
 1182 018f B9000000 		.4byte	0xb9
 1183 0193 1C       		.byte	0x1c
 1184 0194 0E       		.uleb128 0xe
ARM GAS  C:\Users\jsyoon\AppData\Local\Temp\cciBRxxg.s 			page 22


 1185 0195 24050000 		.4byte	.LASF28
 1186 0199 04       		.byte	0x4
 1187 019a D104     		.2byte	0x4d1
 1188 019c B9000000 		.4byte	0xb9
 1189 01a0 20       		.byte	0x20
 1190 01a1 0E       		.uleb128 0xe
 1191 01a2 41000000 		.4byte	.LASF29
 1192 01a6 04       		.byte	0x4
 1193 01a7 D204     		.2byte	0x4d2
 1194 01a9 B4000000 		.4byte	0xb4
 1195 01ad 24       		.byte	0x24
 1196 01ae 0E       		.uleb128 0xe
 1197 01af DB010000 		.4byte	.LASF30
 1198 01b3 04       		.byte	0x4
 1199 01b4 D304     		.2byte	0x4d3
 1200 01b6 B4000000 		.4byte	0xb4
 1201 01ba 28       		.byte	0x28
 1202 01bb 0E       		.uleb128 0xe
 1203 01bc E8010000 		.4byte	.LASF31
 1204 01c0 04       		.byte	0x4
 1205 01c1 D404     		.2byte	0x4d4
 1206 01c3 B4000000 		.4byte	0xb4
 1207 01c7 2C       		.byte	0x2c
 1208 01c8 0E       		.uleb128 0xe
 1209 01c9 3A000000 		.4byte	.LASF32
 1210 01cd 04       		.byte	0x4
 1211 01ce D504     		.2byte	0x4d5
 1212 01d0 B9000000 		.4byte	0xb9
 1213 01d4 30       		.byte	0x30
 1214 01d5 0F       		.uleb128 0xf
 1215 01d6 53544100 		.ascii	"STA\000"
 1216 01da 04       		.byte	0x4
 1217 01db D604     		.2byte	0x4d6
 1218 01dd B9000000 		.4byte	0xb9
 1219 01e1 34       		.byte	0x34
 1220 01e2 0F       		.uleb128 0xf
 1221 01e3 49435200 		.ascii	"ICR\000"
 1222 01e7 04       		.byte	0x4
 1223 01e8 D704     		.2byte	0x4d7
 1224 01ea B4000000 		.4byte	0xb4
 1225 01ee 38       		.byte	0x38
 1226 01ef 0E       		.uleb128 0xe
 1227 01f0 A3040000 		.4byte	.LASF33
 1228 01f4 04       		.byte	0x4
 1229 01f5 D804     		.2byte	0x4d8
 1230 01f7 B4000000 		.4byte	0xb4
 1231 01fb 3C       		.byte	0x3c
 1232 01fc 0E       		.uleb128 0xe
 1233 01fd 4F050000 		.4byte	.LASF34
 1234 0201 04       		.byte	0x4
 1235 0202 D904     		.2byte	0x4d9
 1236 0204 BE000000 		.4byte	0xbe
 1237 0208 40       		.byte	0x40
 1238 0209 0E       		.uleb128 0xe
 1239 020a 98060000 		.4byte	.LASF35
 1240 020e 04       		.byte	0x4
 1241 020f DA04     		.2byte	0x4da
ARM GAS  C:\Users\jsyoon\AppData\Local\Temp\cciBRxxg.s 			page 23


 1242 0211 B9000000 		.4byte	0xb9
 1243 0215 48       		.byte	0x48
 1244 0216 0E       		.uleb128 0xe
 1245 0217 59050000 		.4byte	.LASF36
 1246 021b 04       		.byte	0x4
 1247 021c DB04     		.2byte	0x4db
 1248 021e 31020000 		.4byte	0x231
 1249 0222 4C       		.byte	0x4c
 1250 0223 0E       		.uleb128 0xe
 1251 0224 8D020000 		.4byte	.LASF37
 1252 0228 04       		.byte	0x4
 1253 0229 DC04     		.2byte	0x4dc
 1254 022b B4000000 		.4byte	0xb4
 1255 022f 80       		.byte	0x80
 1256 0230 00       		.byte	0
 1257 0231 07       		.uleb128 0x7
 1258 0232 A2000000 		.4byte	0xa2
 1259 0236 41020000 		.4byte	0x241
 1260 023a 08       		.uleb128 0x8
 1261 023b AD000000 		.4byte	0xad
 1262 023f 0C       		.byte	0xc
 1263 0240 00       		.byte	0
 1264 0241 0C       		.uleb128 0xc
 1265 0242 A8040000 		.4byte	.LASF38
 1266 0246 04       		.byte	0x4
 1267 0247 DD04     		.2byte	0x4dd
 1268 0249 23010000 		.4byte	0x123
 1269 024d 10       		.uleb128 0x10
 1270 024e 18       		.byte	0x18
 1271 024f 05       		.byte	0x5
 1272 0250 32       		.byte	0x32
 1273 0251 9E020000 		.4byte	0x29e
 1274 0255 11       		.uleb128 0x11
 1275 0256 00000000 		.4byte	.LASF39
 1276 025a 05       		.byte	0x5
 1277 025b 34       		.byte	0x34
 1278 025c A2000000 		.4byte	0xa2
 1279 0260 00       		.byte	0
 1280 0261 11       		.uleb128 0x11
 1281 0262 0F000000 		.4byte	.LASF40
 1282 0266 05       		.byte	0x5
 1283 0267 37       		.byte	0x37
 1284 0268 A2000000 		.4byte	0xa2
 1285 026c 04       		.byte	0x4
 1286 026d 11       		.uleb128 0x11
 1287 026e DD020000 		.4byte	.LASF41
 1288 0272 05       		.byte	0x5
 1289 0273 3B       		.byte	0x3b
 1290 0274 A2000000 		.4byte	0xa2
 1291 0278 08       		.byte	0x8
 1292 0279 11       		.uleb128 0x11
 1293 027a B3050000 		.4byte	.LASF42
 1294 027e 05       		.byte	0x5
 1295 027f 3F       		.byte	0x3f
 1296 0280 A2000000 		.4byte	0xa2
 1297 0284 0C       		.byte	0xc
 1298 0285 11       		.uleb128 0x11
ARM GAS  C:\Users\jsyoon\AppData\Local\Temp\cciBRxxg.s 			page 24


 1299 0286 92010000 		.4byte	.LASF43
 1300 028a 05       		.byte	0x5
 1301 028b 42       		.byte	0x42
 1302 028c A2000000 		.4byte	0xa2
 1303 0290 10       		.byte	0x10
 1304 0291 11       		.uleb128 0x11
 1305 0292 1D010000 		.4byte	.LASF44
 1306 0296 05       		.byte	0x5
 1307 0297 45       		.byte	0x45
 1308 0298 8C000000 		.4byte	0x8c
 1309 029c 14       		.byte	0x14
 1310 029d 00       		.byte	0
 1311 029e 03       		.uleb128 0x3
 1312 029f 48000000 		.4byte	.LASF45
 1313 02a3 05       		.byte	0x5
 1314 02a4 48       		.byte	0x48
 1315 02a5 4D020000 		.4byte	0x24d
 1316 02a9 10       		.uleb128 0x10
 1317 02aa 14       		.byte	0x14
 1318 02ab 05       		.byte	0x5
 1319 02ac 4A       		.byte	0x4a
 1320 02ad EE020000 		.4byte	0x2ee
 1321 02b1 11       		.uleb128 0x11
 1322 02b2 95000000 		.4byte	.LASF46
 1323 02b6 05       		.byte	0x5
 1324 02b7 4C       		.byte	0x4c
 1325 02b8 A2000000 		.4byte	0xa2
 1326 02bc 00       		.byte	0
 1327 02bd 11       		.uleb128 0x11
 1328 02be 4B010000 		.4byte	.LASF47
 1329 02c2 05       		.byte	0x5
 1330 02c3 51       		.byte	0x51
 1331 02c4 A2000000 		.4byte	0xa2
 1332 02c8 04       		.byte	0x4
 1333 02c9 11       		.uleb128 0x11
 1334 02ca 37020000 		.4byte	.LASF48
 1335 02ce 05       		.byte	0x5
 1336 02cf 53       		.byte	0x53
 1337 02d0 A2000000 		.4byte	0xa2
 1338 02d4 08       		.byte	0x8
 1339 02d5 11       		.uleb128 0x11
 1340 02d6 08050000 		.4byte	.LASF49
 1341 02da 05       		.byte	0x5
 1342 02db 56       		.byte	0x56
 1343 02dc A2000000 		.4byte	0xa2
 1344 02e0 0C       		.byte	0xc
 1345 02e1 11       		.uleb128 0x11
 1346 02e2 A0060000 		.4byte	.LASF50
 1347 02e6 05       		.byte	0x5
 1348 02e7 59       		.byte	0x59
 1349 02e8 A2000000 		.4byte	0xa2
 1350 02ec 10       		.byte	0x10
 1351 02ed 00       		.byte	0
 1352 02ee 03       		.uleb128 0x3
 1353 02ef 31060000 		.4byte	.LASF51
 1354 02f3 05       		.byte	0x5
 1355 02f4 5C       		.byte	0x5c
ARM GAS  C:\Users\jsyoon\AppData\Local\Temp\cciBRxxg.s 			page 25


 1356 02f5 A9020000 		.4byte	0x2a9
 1357 02f9 10       		.uleb128 0x10
 1358 02fa 18       		.byte	0x18
 1359 02fb 05       		.byte	0x5
 1360 02fc 5E       		.byte	0x5e
 1361 02fd 4A030000 		.4byte	0x34a
 1362 0301 11       		.uleb128 0x11
 1363 0302 26020000 		.4byte	.LASF52
 1364 0306 05       		.byte	0x5
 1365 0307 60       		.byte	0x60
 1366 0308 A2000000 		.4byte	0xa2
 1367 030c 00       		.byte	0
 1368 030d 11       		.uleb128 0x11
 1369 030e CA000000 		.4byte	.LASF53
 1370 0312 05       		.byte	0x5
 1371 0313 62       		.byte	0x62
 1372 0314 A2000000 		.4byte	0xa2
 1373 0318 04       		.byte	0x4
 1374 0319 11       		.uleb128 0x11
 1375 031a DA000000 		.4byte	.LASF54
 1376 031e 05       		.byte	0x5
 1377 031f 64       		.byte	0x64
 1378 0320 A2000000 		.4byte	0xa2
 1379 0324 08       		.byte	0x8
 1380 0325 11       		.uleb128 0x11
 1381 0326 45020000 		.4byte	.LASF55
 1382 032a 05       		.byte	0x5
 1383 032b 67       		.byte	0x67
 1384 032c A2000000 		.4byte	0xa2
 1385 0330 0C       		.byte	0xc
 1386 0331 11       		.uleb128 0x11
 1387 0332 0C070000 		.4byte	.LASF56
 1388 0336 05       		.byte	0x5
 1389 0337 6B       		.byte	0x6b
 1390 0338 A2000000 		.4byte	0xa2
 1391 033c 10       		.byte	0x10
 1392 033d 11       		.uleb128 0x11
 1393 033e 88010000 		.4byte	.LASF57
 1394 0342 05       		.byte	0x5
 1395 0343 6E       		.byte	0x6e
 1396 0344 A2000000 		.4byte	0xa2
 1397 0348 14       		.byte	0x14
 1398 0349 00       		.byte	0
 1399 034a 03       		.uleb128 0x3
 1400 034b 68060000 		.4byte	.LASF58
 1401 034f 05       		.byte	0x5
 1402 0350 71       		.byte	0x71
 1403 0351 F9020000 		.4byte	0x2f9
 1404 0355 12       		.uleb128 0x12
 1405 0356 8C060000 		.4byte	.LASF59
 1406 035a 01       		.byte	0x1
 1407 035b 0901     		.2byte	0x109
 1408 035d 00000000 		.4byte	.LFB111
 1409 0361 1A000000 		.4byte	.LFE111-.LFB111
 1410 0365 01       		.uleb128 0x1
 1411 0366 9C       		.byte	0x9c
 1412 0367 9C030000 		.4byte	0x39c
ARM GAS  C:\Users\jsyoon\AppData\Local\Temp\cciBRxxg.s 			page 26


 1413 036b 13       		.uleb128 0x13
 1414 036c 0C000000 		.4byte	.LVL0
 1415 0370 29080000 		.4byte	0x829
 1416 0374 85030000 		.4byte	0x385
 1417 0378 14       		.uleb128 0x14
 1418 0379 01       		.uleb128 0x1
 1419 037a 51       		.byte	0x51
 1420 037b 01       		.uleb128 0x1
 1421 037c 31       		.byte	0x31
 1422 037d 14       		.uleb128 0x14
 1423 037e 01       		.uleb128 0x1
 1424 037f 50       		.byte	0x50
 1425 0380 03       		.uleb128 0x3
 1426 0381 0A       		.byte	0xa
 1427 0382 0008     		.2byte	0x800
 1428 0384 00       		.byte	0
 1429 0385 15       		.uleb128 0x15
 1430 0386 1A000000 		.4byte	.LVL1
 1431 038a 29080000 		.4byte	0x829
 1432 038e 14       		.uleb128 0x14
 1433 038f 01       		.uleb128 0x1
 1434 0390 51       		.byte	0x51
 1435 0391 01       		.uleb128 0x1
 1436 0392 30       		.byte	0x30
 1437 0393 14       		.uleb128 0x14
 1438 0394 01       		.uleb128 0x1
 1439 0395 50       		.byte	0x50
 1440 0396 03       		.uleb128 0x3
 1441 0397 0A       		.byte	0xa
 1442 0398 0008     		.2byte	0x800
 1443 039a 00       		.byte	0
 1444 039b 00       		.byte	0
 1445 039c 12       		.uleb128 0x12
 1446 039d 30000000 		.4byte	.LASF60
 1447 03a1 01       		.byte	0x1
 1448 03a2 1601     		.2byte	0x116
 1449 03a4 00000000 		.4byte	.LFB112
 1450 03a8 34000000 		.4byte	.LFE112-.LFB112
 1451 03ac 01       		.uleb128 0x1
 1452 03ad 9C       		.byte	0x9c
 1453 03ae D3030000 		.4byte	0x3d3
 1454 03b2 16       		.uleb128 0x16
 1455 03b3 66020000 		.4byte	.LASF62
 1456 03b7 01       		.byte	0x1
 1457 03b8 1601     		.2byte	0x116
 1458 03ba D3030000 		.4byte	0x3d3
 1459 03be 00000000 		.4byte	.LLST0
 1460 03c2 17       		.uleb128 0x17
 1461 03c3 F1020000 		.4byte	.LASF69
 1462 03c7 01       		.byte	0x1
 1463 03c8 1801     		.2byte	0x118
 1464 03ca A2000000 		.4byte	0xa2
 1465 03ce 21000000 		.4byte	.LLST1
 1466 03d2 00       		.byte	0
 1467 03d3 18       		.uleb128 0x18
 1468 03d4 04       		.byte	0x4
 1469 03d5 9E020000 		.4byte	0x29e
ARM GAS  C:\Users\jsyoon\AppData\Local\Temp\cciBRxxg.s 			page 27


 1470 03d9 12       		.uleb128 0x12
 1471 03da AA060000 		.4byte	.LASF61
 1472 03de 01       		.byte	0x1
 1473 03df 3C01     		.2byte	0x13c
 1474 03e1 00000000 		.4byte	.LFB113
 1475 03e5 10000000 		.4byte	.LFE113-.LFB113
 1476 03e9 01       		.uleb128 0x1
 1477 03ea 9C       		.byte	0x9c
 1478 03eb FE030000 		.4byte	0x3fe
 1479 03ef 19       		.uleb128 0x19
 1480 03f0 66020000 		.4byte	.LASF62
 1481 03f4 01       		.byte	0x1
 1482 03f5 3C01     		.2byte	0x13c
 1483 03f7 D3030000 		.4byte	0x3d3
 1484 03fb 01       		.uleb128 0x1
 1485 03fc 50       		.byte	0x50
 1486 03fd 00       		.byte	0
 1487 03fe 12       		.uleb128 0x12
 1488 03ff F4010000 		.4byte	.LASF63
 1489 0403 01       		.byte	0x1
 1490 0404 4D01     		.2byte	0x14d
 1491 0406 00000000 		.4byte	.LFB114
 1492 040a 0C000000 		.4byte	.LFE114-.LFB114
 1493 040e 01       		.uleb128 0x1
 1494 040f 9C       		.byte	0x9c
 1495 0410 23040000 		.4byte	0x423
 1496 0414 19       		.uleb128 0x19
 1497 0415 02020000 		.4byte	.LASF64
 1498 0419 01       		.byte	0x1
 1499 041a 4D01     		.2byte	0x14d
 1500 041c 17010000 		.4byte	0x117
 1501 0420 01       		.uleb128 0x1
 1502 0421 50       		.byte	0x50
 1503 0422 00       		.byte	0
 1504 0423 12       		.uleb128 0x12
 1505 0424 75050000 		.4byte	.LASF65
 1506 0428 01       		.byte	0x1
 1507 0429 5D01     		.2byte	0x15d
 1508 042b 00000000 		.4byte	.LFB115
 1509 042f 0C000000 		.4byte	.LFE115-.LFB115
 1510 0433 01       		.uleb128 0x1
 1511 0434 9C       		.byte	0x9c
 1512 0435 48040000 		.4byte	0x448
 1513 0439 19       		.uleb128 0x19
 1514 043a BE020000 		.4byte	.LASF66
 1515 043e 01       		.byte	0x1
 1516 043f 5D01     		.2byte	0x15d
 1517 0441 A2000000 		.4byte	0xa2
 1518 0445 01       		.uleb128 0x1
 1519 0446 50       		.byte	0x50
 1520 0447 00       		.byte	0
 1521 0448 1A       		.uleb128 0x1a
 1522 0449 13020000 		.4byte	.LASF71
 1523 044d 01       		.byte	0x1
 1524 044e 6E01     		.2byte	0x16e
 1525 0450 A2000000 		.4byte	0xa2
 1526 0454 00000000 		.4byte	.LFB116
ARM GAS  C:\Users\jsyoon\AppData\Local\Temp\cciBRxxg.s 			page 28


 1527 0458 10000000 		.4byte	.LFE116-.LFB116
 1528 045c 01       		.uleb128 0x1
 1529 045d 9C       		.byte	0x9c
 1530 045e 12       		.uleb128 0x12
 1531 045f 71000000 		.4byte	.LASF67
 1532 0463 01       		.byte	0x1
 1533 0464 8E01     		.2byte	0x18e
 1534 0466 00000000 		.4byte	.LFB117
 1535 046a 2C000000 		.4byte	.LFE117-.LFB117
 1536 046e 01       		.uleb128 0x1
 1537 046f 9C       		.byte	0x9c
 1538 0470 95040000 		.4byte	0x495
 1539 0474 16       		.uleb128 0x16
 1540 0475 88050000 		.4byte	.LASF68
 1541 0479 01       		.byte	0x1
 1542 047a 8E01     		.2byte	0x18e
 1543 047c 95040000 		.4byte	0x495
 1544 0480 51000000 		.4byte	.LLST2
 1545 0484 17       		.uleb128 0x17
 1546 0485 F1020000 		.4byte	.LASF69
 1547 0489 01       		.byte	0x1
 1548 048a 9001     		.2byte	0x190
 1549 048c A2000000 		.4byte	0xa2
 1550 0490 72000000 		.4byte	.LLST3
 1551 0494 00       		.byte	0
 1552 0495 18       		.uleb128 0x18
 1553 0496 04       		.byte	0x4
 1554 0497 EE020000 		.4byte	0x2ee
 1555 049b 12       		.uleb128 0x12
 1556 049c 04060000 		.4byte	.LASF70
 1557 04a0 01       		.byte	0x1
 1558 04a1 B201     		.2byte	0x1b2
 1559 04a3 00000000 		.4byte	.LFB118
 1560 04a7 0E000000 		.4byte	.LFE118-.LFB118
 1561 04ab 01       		.uleb128 0x1
 1562 04ac 9C       		.byte	0x9c
 1563 04ad C0040000 		.4byte	0x4c0
 1564 04b1 19       		.uleb128 0x19
 1565 04b2 88050000 		.4byte	.LASF68
 1566 04b6 01       		.byte	0x1
 1567 04b7 B201     		.2byte	0x1b2
 1568 04b9 95040000 		.4byte	0x495
 1569 04bd 01       		.uleb128 0x1
 1570 04be 50       		.byte	0x50
 1571 04bf 00       		.byte	0
 1572 04c0 1A       		.uleb128 0x1a
 1573 04c1 C6040000 		.4byte	.LASF72
 1574 04c5 01       		.byte	0x1
 1575 04c6 C101     		.2byte	0x1c1
 1576 04c8 8C000000 		.4byte	0x8c
 1577 04cc 00000000 		.4byte	.LFB119
 1578 04d0 0C000000 		.4byte	.LFE119-.LFB119
 1579 04d4 01       		.uleb128 0x1
 1580 04d5 9C       		.byte	0x9c
 1581 04d6 1B       		.uleb128 0x1b
 1582 04d7 B5040000 		.4byte	.LASF94
 1583 04db 01       		.byte	0x1
ARM GAS  C:\Users\jsyoon\AppData\Local\Temp\cciBRxxg.s 			page 29


 1584 04dc D001     		.2byte	0x1d0
 1585 04de A2000000 		.4byte	0xa2
 1586 04e2 00000000 		.4byte	.LFB120
 1587 04e6 18000000 		.4byte	.LFE120-.LFB120
 1588 04ea 01       		.uleb128 0x1
 1589 04eb 9C       		.byte	0x9c
 1590 04ec 10050000 		.4byte	0x510
 1591 04f0 16       		.uleb128 0x16
 1592 04f1 82000000 		.4byte	.LASF73
 1593 04f5 01       		.byte	0x1
 1594 04f6 D001     		.2byte	0x1d0
 1595 04f8 A2000000 		.4byte	0xa2
 1596 04fc 9C000000 		.4byte	.LLST4
 1597 0500 1C       		.uleb128 0x1c
 1598 0501 746D7000 		.ascii	"tmp\000"
 1599 0505 01       		.byte	0x1
 1600 0506 D201     		.2byte	0x1d2
 1601 0508 B4000000 		.4byte	0xb4
 1602 050c 02       		.uleb128 0x2
 1603 050d 91       		.byte	0x91
 1604 050e 7C       		.sleb128 -4
 1605 050f 00       		.byte	0
 1606 0510 12       		.uleb128 0x12
 1607 0511 F8020000 		.4byte	.LASF74
 1608 0515 01       		.byte	0x1
 1609 0516 F601     		.2byte	0x1f6
 1610 0518 00000000 		.4byte	.LFB121
 1611 051c 2C000000 		.4byte	.LFE121-.LFB121
 1612 0520 01       		.uleb128 0x1
 1613 0521 9C       		.byte	0x9c
 1614 0522 47050000 		.4byte	0x547
 1615 0526 16       		.uleb128 0x16
 1616 0527 1E030000 		.4byte	.LASF75
 1617 052b 01       		.byte	0x1
 1618 052c F601     		.2byte	0x1f6
 1619 052e 47050000 		.4byte	0x547
 1620 0532 BD000000 		.4byte	.LLST5
 1621 0536 17       		.uleb128 0x17
 1622 0537 F1020000 		.4byte	.LASF69
 1623 053b 01       		.byte	0x1
 1624 053c F801     		.2byte	0x1f8
 1625 053e A2000000 		.4byte	0xa2
 1626 0542 DE000000 		.4byte	.LLST6
 1627 0546 00       		.byte	0
 1628 0547 18       		.uleb128 0x18
 1629 0548 04       		.byte	0x4
 1630 0549 4A030000 		.4byte	0x34a
 1631 054d 12       		.uleb128 0x12
 1632 054e 82040000 		.4byte	.LASF76
 1633 0552 01       		.byte	0x1
 1634 0553 1F02     		.2byte	0x21f
 1635 0555 00000000 		.4byte	.LFB122
 1636 0559 14000000 		.4byte	.LFE122-.LFB122
 1637 055d 01       		.uleb128 0x1
 1638 055e 9C       		.byte	0x9c
 1639 055f 72050000 		.4byte	0x572
 1640 0563 19       		.uleb128 0x19
ARM GAS  C:\Users\jsyoon\AppData\Local\Temp\cciBRxxg.s 			page 30


 1641 0564 1E030000 		.4byte	.LASF75
 1642 0568 01       		.byte	0x1
 1643 0569 1F02     		.2byte	0x21f
 1644 056b 47050000 		.4byte	0x547
 1645 056f 01       		.uleb128 0x1
 1646 0570 50       		.byte	0x50
 1647 0571 00       		.byte	0
 1648 0572 1A       		.uleb128 0x1a
 1649 0573 B5010000 		.4byte	.LASF77
 1650 0577 01       		.byte	0x1
 1651 0578 2F02     		.2byte	0x22f
 1652 057a A2000000 		.4byte	0xa2
 1653 057e 00000000 		.4byte	.LFB123
 1654 0582 0C000000 		.4byte	.LFE123-.LFB123
 1655 0586 01       		.uleb128 0x1
 1656 0587 9C       		.byte	0x9c
 1657 0588 1A       		.uleb128 0x1a
 1658 0589 5A060000 		.4byte	.LASF78
 1659 058d 01       		.byte	0x1
 1660 058e 3902     		.2byte	0x239
 1661 0590 A2000000 		.4byte	0xa2
 1662 0594 00000000 		.4byte	.LFB124
 1663 0598 0C000000 		.4byte	.LFE124-.LFB124
 1664 059c 01       		.uleb128 0x1
 1665 059d 9C       		.byte	0x9c
 1666 059e 12       		.uleb128 0x12
 1667 059f 4B060000 		.4byte	.LASF79
 1668 05a3 01       		.byte	0x1
 1669 05a4 4302     		.2byte	0x243
 1670 05a6 00000000 		.4byte	.LFB125
 1671 05aa 0C000000 		.4byte	.LFE125-.LFB125
 1672 05ae 01       		.uleb128 0x1
 1673 05af 9C       		.byte	0x9c
 1674 05b0 C3050000 		.4byte	0x5c3
 1675 05b4 19       		.uleb128 0x19
 1676 05b5 D8020000 		.4byte	.LASF80
 1677 05b9 01       		.byte	0x1
 1678 05ba 4302     		.2byte	0x243
 1679 05bc A2000000 		.4byte	0xa2
 1680 05c0 01       		.uleb128 0x1
 1681 05c1 50       		.byte	0x50
 1682 05c2 00       		.byte	0
 1683 05c3 1A       		.uleb128 0x1a
 1684 05c4 C9010000 		.4byte	.LASF81
 1685 05c8 01       		.byte	0x1
 1686 05c9 4D02     		.2byte	0x24d
 1687 05cb A2000000 		.4byte	0xa2
 1688 05cf 00000000 		.4byte	.LFB126
 1689 05d3 0C000000 		.4byte	.LFE126-.LFB126
 1690 05d7 01       		.uleb128 0x1
 1691 05d8 9C       		.byte	0x9c
 1692 05d9 12       		.uleb128 0x12
 1693 05da 76020000 		.4byte	.LASF82
 1694 05de 01       		.byte	0x1
 1695 05df 6A02     		.2byte	0x26a
 1696 05e1 00000000 		.4byte	.LFB127
 1697 05e5 0C000000 		.4byte	.LFE127-.LFB127
ARM GAS  C:\Users\jsyoon\AppData\Local\Temp\cciBRxxg.s 			page 31


 1698 05e9 01       		.uleb128 0x1
 1699 05ea 9C       		.byte	0x9c
 1700 05eb FE050000 		.4byte	0x5fe
 1701 05ef 19       		.uleb128 0x19
 1702 05f0 02020000 		.4byte	.LASF64
 1703 05f4 01       		.byte	0x1
 1704 05f5 6A02     		.2byte	0x26a
 1705 05f7 17010000 		.4byte	0x117
 1706 05fb 01       		.uleb128 0x1
 1707 05fc 50       		.byte	0x50
 1708 05fd 00       		.byte	0
 1709 05fe 12       		.uleb128 0x12
 1710 05ff 72010000 		.4byte	.LASF83
 1711 0603 01       		.byte	0x1
 1712 0604 7802     		.2byte	0x278
 1713 0606 00000000 		.4byte	.LFB128
 1714 060a 0C000000 		.4byte	.LFE128-.LFB128
 1715 060e 01       		.uleb128 0x1
 1716 060f 9C       		.byte	0x9c
 1717 0610 23060000 		.4byte	0x623
 1718 0614 19       		.uleb128 0x19
 1719 0615 02020000 		.4byte	.LASF64
 1720 0619 01       		.byte	0x1
 1721 061a 7802     		.2byte	0x278
 1722 061c 17010000 		.4byte	0x117
 1723 0620 01       		.uleb128 0x1
 1724 0621 50       		.byte	0x50
 1725 0622 00       		.byte	0
 1726 0623 12       		.uleb128 0x12
 1727 0624 59010000 		.4byte	.LASF84
 1728 0628 01       		.byte	0x1
 1729 0629 8802     		.2byte	0x288
 1730 062b 00000000 		.4byte	.LFB129
 1731 062f 0C000000 		.4byte	.LFE129-.LFB129
 1732 0633 01       		.uleb128 0x1
 1733 0634 9C       		.byte	0x9c
 1734 0635 48060000 		.4byte	0x648
 1735 0639 19       		.uleb128 0x19
 1736 063a 39010000 		.4byte	.LASF85
 1737 063e 01       		.byte	0x1
 1738 063f 8802     		.2byte	0x288
 1739 0641 A2000000 		.4byte	0xa2
 1740 0645 01       		.uleb128 0x1
 1741 0646 50       		.byte	0x50
 1742 0647 00       		.byte	0
 1743 0648 12       		.uleb128 0x12
 1744 0649 B4000000 		.4byte	.LASF86
 1745 064d 01       		.byte	0x1
 1746 064e 9602     		.2byte	0x296
 1747 0650 00000000 		.4byte	.LFB130
 1748 0654 0C000000 		.4byte	.LFE130-.LFB130
 1749 0658 01       		.uleb128 0x1
 1750 0659 9C       		.byte	0x9c
 1751 065a 6D060000 		.4byte	0x66d
 1752 065e 19       		.uleb128 0x19
 1753 065f 02020000 		.4byte	.LASF64
 1754 0663 01       		.byte	0x1
ARM GAS  C:\Users\jsyoon\AppData\Local\Temp\cciBRxxg.s 			page 32


 1755 0664 9602     		.2byte	0x296
 1756 0666 17010000 		.4byte	0x117
 1757 066a 01       		.uleb128 0x1
 1758 066b 50       		.byte	0x50
 1759 066c 00       		.byte	0
 1760 066d 12       		.uleb128 0x12
 1761 066e 59000000 		.4byte	.LASF87
 1762 0672 01       		.byte	0x1
 1763 0673 A402     		.2byte	0x2a4
 1764 0675 00000000 		.4byte	.LFB131
 1765 0679 0C000000 		.4byte	.LFE131-.LFB131
 1766 067d 01       		.uleb128 0x1
 1767 067e 9C       		.byte	0x9c
 1768 067f 92060000 		.4byte	0x692
 1769 0683 19       		.uleb128 0x19
 1770 0684 02020000 		.4byte	.LASF64
 1771 0688 01       		.byte	0x1
 1772 0689 A402     		.2byte	0x2a4
 1773 068b 17010000 		.4byte	0x117
 1774 068f 01       		.uleb128 0x1
 1775 0690 50       		.byte	0x50
 1776 0691 00       		.byte	0
 1777 0692 12       		.uleb128 0x12
 1778 0693 17060000 		.4byte	.LASF88
 1779 0697 01       		.byte	0x1
 1780 0698 C402     		.2byte	0x2c4
 1781 069a 00000000 		.4byte	.LFB132
 1782 069e 0C000000 		.4byte	.LFE132-.LFB132
 1783 06a2 01       		.uleb128 0x1
 1784 06a3 9C       		.byte	0x9c
 1785 06a4 B7060000 		.4byte	0x6b7
 1786 06a8 19       		.uleb128 0x19
 1787 06a9 02020000 		.4byte	.LASF64
 1788 06ad 01       		.byte	0x1
 1789 06ae C402     		.2byte	0x2c4
 1790 06b0 17010000 		.4byte	0x117
 1791 06b4 01       		.uleb128 0x1
 1792 06b5 50       		.byte	0x50
 1793 06b6 00       		.byte	0
 1794 06b7 12       		.uleb128 0x12
 1795 06b8 20000000 		.4byte	.LASF89
 1796 06bc 01       		.byte	0x1
 1797 06bd D202     		.2byte	0x2d2
 1798 06bf 00000000 		.4byte	.LFB133
 1799 06c3 14000000 		.4byte	.LFE133-.LFB133
 1800 06c7 01       		.uleb128 0x1
 1801 06c8 9C       		.byte	0x9c
 1802 06c9 DE060000 		.4byte	0x6de
 1803 06cd 16       		.uleb128 0x16
 1804 06ce 02020000 		.4byte	.LASF64
 1805 06d2 01       		.byte	0x1
 1806 06d3 D202     		.2byte	0x2d2
 1807 06d5 17010000 		.4byte	0x117
 1808 06d9 08010000 		.4byte	.LLST7
 1809 06dd 00       		.byte	0
 1810 06de 12       		.uleb128 0x12
 1811 06df A1050000 		.4byte	.LASF90
ARM GAS  C:\Users\jsyoon\AppData\Local\Temp\cciBRxxg.s 			page 33


 1812 06e3 01       		.byte	0x1
 1813 06e4 E002     		.2byte	0x2e0
 1814 06e6 00000000 		.4byte	.LFB134
 1815 06ea 0C000000 		.4byte	.LFE134-.LFB134
 1816 06ee 01       		.uleb128 0x1
 1817 06ef 9C       		.byte	0x9c
 1818 06f0 03070000 		.4byte	0x703
 1819 06f4 19       		.uleb128 0x19
 1820 06f5 02020000 		.4byte	.LASF64
 1821 06f9 01       		.byte	0x1
 1822 06fa E002     		.2byte	0x2e0
 1823 06fc 17010000 		.4byte	0x117
 1824 0700 01       		.uleb128 0x1
 1825 0701 50       		.byte	0x50
 1826 0702 00       		.byte	0
 1827 0703 12       		.uleb128 0x12
 1828 0704 B2020000 		.4byte	.LASF91
 1829 0708 01       		.byte	0x1
 1830 0709 0003     		.2byte	0x300
 1831 070b 00000000 		.4byte	.LFB135
 1832 070f 0C000000 		.4byte	.LFE135-.LFB135
 1833 0713 01       		.uleb128 0x1
 1834 0714 9C       		.byte	0x9c
 1835 0715 28070000 		.4byte	0x728
 1836 0719 19       		.uleb128 0x19
 1837 071a 02020000 		.4byte	.LASF64
 1838 071e 01       		.byte	0x1
 1839 071f 0003     		.2byte	0x300
 1840 0721 17010000 		.4byte	0x117
 1841 0725 01       		.uleb128 0x1
 1842 0726 50       		.byte	0x50
 1843 0727 00       		.byte	0
 1844 0728 12       		.uleb128 0x12
 1845 0729 FE060000 		.4byte	.LASF92
 1846 072d 01       		.byte	0x1
 1847 072e 3A03     		.2byte	0x33a
 1848 0730 00000000 		.4byte	.LFB136
 1849 0734 18000000 		.4byte	.LFE136-.LFB136
 1850 0738 01       		.uleb128 0x1
 1851 0739 9C       		.byte	0x9c
 1852 073a 5D070000 		.4byte	0x75d
 1853 073e 16       		.uleb128 0x16
 1854 073f 08030000 		.4byte	.LASF93
 1855 0743 01       		.byte	0x1
 1856 0744 3A03     		.2byte	0x33a
 1857 0746 A2000000 		.4byte	0xa2
 1858 074a 29010000 		.4byte	.LLST8
 1859 074e 19       		.uleb128 0x19
 1860 074f 02020000 		.4byte	.LASF64
 1861 0753 01       		.byte	0x1
 1862 0754 3A03     		.2byte	0x33a
 1863 0756 17010000 		.4byte	0x117
 1864 075a 01       		.uleb128 0x1
 1865 075b 51       		.byte	0x51
 1866 075c 00       		.byte	0
 1867 075d 1B       		.uleb128 0x1b
 1868 075e D9060000 		.4byte	.LASF95
ARM GAS  C:\Users\jsyoon\AppData\Local\Temp\cciBRxxg.s 			page 34


 1869 0762 01       		.byte	0x1
 1870 0763 6A03     		.2byte	0x36a
 1871 0765 E9000000 		.4byte	0xe9
 1872 0769 00000000 		.4byte	.LFB137
 1873 076d 14000000 		.4byte	.LFE137-.LFB137
 1874 0771 01       		.uleb128 0x1
 1875 0772 9C       		.byte	0x9c
 1876 0773 98070000 		.4byte	0x798
 1877 0777 16       		.uleb128 0x16
 1878 0778 3C050000 		.4byte	.LASF96
 1879 077c 01       		.byte	0x1
 1880 077d 6A03     		.2byte	0x36a
 1881 077f A2000000 		.4byte	0xa2
 1882 0783 63010000 		.4byte	.LLST9
 1883 0787 17       		.uleb128 0x17
 1884 0788 C7060000 		.4byte	.LASF97
 1885 078c 01       		.byte	0x1
 1886 078d 6C03     		.2byte	0x36c
 1887 078f E9000000 		.4byte	0xe9
 1888 0793 84010000 		.4byte	.LLST10
 1889 0797 00       		.byte	0
 1890 0798 12       		.uleb128 0x12
 1891 0799 7D060000 		.4byte	.LASF98
 1892 079d 01       		.byte	0x1
 1893 079e 8F03     		.2byte	0x38f
 1894 07a0 00000000 		.4byte	.LFB138
 1895 07a4 0C000000 		.4byte	.LFE138-.LFB138
 1896 07a8 01       		.uleb128 0x1
 1897 07a9 9C       		.byte	0x9c
 1898 07aa BD070000 		.4byte	0x7bd
 1899 07ae 19       		.uleb128 0x19
 1900 07af 3C050000 		.4byte	.LASF96
 1901 07b3 01       		.byte	0x1
 1902 07b4 8F03     		.2byte	0x38f
 1903 07b6 A2000000 		.4byte	0xa2
 1904 07ba 01       		.uleb128 0x1
 1905 07bb 50       		.byte	0x50
 1906 07bc 00       		.byte	0
 1907 07bd 1B       		.uleb128 0x1b
 1908 07be A3000000 		.4byte	.LASF99
 1909 07c2 01       		.byte	0x1
 1910 07c3 B603     		.2byte	0x3b6
 1911 07c5 F5000000 		.4byte	0xf5
 1912 07c9 00000000 		.4byte	.LFB139
 1913 07cd 14000000 		.4byte	.LFE139-.LFB139
 1914 07d1 01       		.uleb128 0x1
 1915 07d2 9C       		.byte	0x9c
 1916 07d3 F8070000 		.4byte	0x7f8
 1917 07d7 16       		.uleb128 0x16
 1918 07d8 08030000 		.4byte	.LASF93
 1919 07dc 01       		.byte	0x1
 1920 07dd B603     		.2byte	0x3b6
 1921 07df A2000000 		.4byte	0xa2
 1922 07e3 BD010000 		.4byte	.LLST11
 1923 07e7 17       		.uleb128 0x17
 1924 07e8 C7060000 		.4byte	.LASF97
 1925 07ec 01       		.byte	0x1
ARM GAS  C:\Users\jsyoon\AppData\Local\Temp\cciBRxxg.s 			page 35


 1926 07ed B803     		.2byte	0x3b8
 1927 07ef F5000000 		.4byte	0xf5
 1928 07f3 DE010000 		.4byte	.LLST12
 1929 07f7 00       		.byte	0
 1930 07f8 12       		.uleb128 0x12
 1931 07f9 9B020000 		.4byte	.LASF100
 1932 07fd 01       		.byte	0x1
 1933 07fe DA03     		.2byte	0x3da
 1934 0800 00000000 		.4byte	.LFB140
 1935 0804 0C000000 		.4byte	.LFE140-.LFB140
 1936 0808 01       		.uleb128 0x1
 1937 0809 9C       		.byte	0x9c
 1938 080a 1D080000 		.4byte	0x81d
 1939 080e 19       		.uleb128 0x19
 1940 080f 08030000 		.4byte	.LASF93
 1941 0813 01       		.byte	0x1
 1942 0814 DA03     		.2byte	0x3da
 1943 0816 A2000000 		.4byte	0xa2
 1944 081a 01       		.uleb128 0x1
 1945 081b 50       		.byte	0x50
 1946 081c 00       		.byte	0
 1947 081d 1D       		.uleb128 0x1d
 1948 081e BA060000 		.4byte	.LASF104
 1949 0822 06       		.byte	0x6
 1950 0823 9806     		.2byte	0x698
 1951 0825 CE000000 		.4byte	0xce
 1952 0829 1E       		.uleb128 0x1e
 1953 082a DE040000 		.4byte	.LASF105
 1954 082e 07       		.byte	0x7
 1955 082f E701     		.2byte	0x1e7
 1956 0831 1F       		.uleb128 0x1f
 1957 0832 A2000000 		.4byte	0xa2
 1958 0836 1F       		.uleb128 0x1f
 1959 0837 17010000 		.4byte	0x117
 1960 083b 00       		.byte	0
 1961 083c 00       		.byte	0
 1962              		.section	.debug_abbrev,"",%progbits
 1963              	.Ldebug_abbrev0:
 1964 0000 01       		.uleb128 0x1
 1965 0001 11       		.uleb128 0x11
 1966 0002 01       		.byte	0x1
 1967 0003 25       		.uleb128 0x25
 1968 0004 0E       		.uleb128 0xe
 1969 0005 13       		.uleb128 0x13
 1970 0006 0B       		.uleb128 0xb
 1971 0007 03       		.uleb128 0x3
 1972 0008 0E       		.uleb128 0xe
 1973 0009 1B       		.uleb128 0x1b
 1974 000a 0E       		.uleb128 0xe
 1975 000b 55       		.uleb128 0x55
 1976 000c 17       		.uleb128 0x17
 1977 000d 11       		.uleb128 0x11
 1978 000e 01       		.uleb128 0x1
 1979 000f 10       		.uleb128 0x10
 1980 0010 17       		.uleb128 0x17
 1981 0011 00       		.byte	0
 1982 0012 00       		.byte	0
ARM GAS  C:\Users\jsyoon\AppData\Local\Temp\cciBRxxg.s 			page 36


 1983 0013 02       		.uleb128 0x2
 1984 0014 24       		.uleb128 0x24
 1985 0015 00       		.byte	0
 1986 0016 0B       		.uleb128 0xb
 1987 0017 0B       		.uleb128 0xb
 1988 0018 3E       		.uleb128 0x3e
 1989 0019 0B       		.uleb128 0xb
 1990 001a 03       		.uleb128 0x3
 1991 001b 0E       		.uleb128 0xe
 1992 001c 00       		.byte	0
 1993 001d 00       		.byte	0
 1994 001e 03       		.uleb128 0x3
 1995 001f 16       		.uleb128 0x16
 1996 0020 00       		.byte	0
 1997 0021 03       		.uleb128 0x3
 1998 0022 0E       		.uleb128 0xe
 1999 0023 3A       		.uleb128 0x3a
 2000 0024 0B       		.uleb128 0xb
 2001 0025 3B       		.uleb128 0x3b
 2002 0026 0B       		.uleb128 0xb
 2003 0027 49       		.uleb128 0x49
 2004 0028 13       		.uleb128 0x13
 2005 0029 00       		.byte	0
 2006 002a 00       		.byte	0
 2007 002b 04       		.uleb128 0x4
 2008 002c 24       		.uleb128 0x24
 2009 002d 00       		.byte	0
 2010 002e 0B       		.uleb128 0xb
 2011 002f 0B       		.uleb128 0xb
 2012 0030 3E       		.uleb128 0x3e
 2013 0031 0B       		.uleb128 0xb
 2014 0032 03       		.uleb128 0x3
 2015 0033 08       		.uleb128 0x8
 2016 0034 00       		.byte	0
 2017 0035 00       		.byte	0
 2018 0036 05       		.uleb128 0x5
 2019 0037 35       		.uleb128 0x35
 2020 0038 00       		.byte	0
 2021 0039 49       		.uleb128 0x49
 2022 003a 13       		.uleb128 0x13
 2023 003b 00       		.byte	0
 2024 003c 00       		.byte	0
 2025 003d 06       		.uleb128 0x6
 2026 003e 26       		.uleb128 0x26
 2027 003f 00       		.byte	0
 2028 0040 49       		.uleb128 0x49
 2029 0041 13       		.uleb128 0x13
 2030 0042 00       		.byte	0
 2031 0043 00       		.byte	0
 2032 0044 07       		.uleb128 0x7
 2033 0045 01       		.uleb128 0x1
 2034 0046 01       		.byte	0x1
 2035 0047 49       		.uleb128 0x49
 2036 0048 13       		.uleb128 0x13
 2037 0049 01       		.uleb128 0x1
 2038 004a 13       		.uleb128 0x13
 2039 004b 00       		.byte	0
ARM GAS  C:\Users\jsyoon\AppData\Local\Temp\cciBRxxg.s 			page 37


 2040 004c 00       		.byte	0
 2041 004d 08       		.uleb128 0x8
 2042 004e 21       		.uleb128 0x21
 2043 004f 00       		.byte	0
 2044 0050 49       		.uleb128 0x49
 2045 0051 13       		.uleb128 0x13
 2046 0052 2F       		.uleb128 0x2f
 2047 0053 0B       		.uleb128 0xb
 2048 0054 00       		.byte	0
 2049 0055 00       		.byte	0
 2050 0056 09       		.uleb128 0x9
 2051 0057 04       		.uleb128 0x4
 2052 0058 01       		.byte	0x1
 2053 0059 0B       		.uleb128 0xb
 2054 005a 0B       		.uleb128 0xb
 2055 005b 3A       		.uleb128 0x3a
 2056 005c 0B       		.uleb128 0xb
 2057 005d 3B       		.uleb128 0x3b
 2058 005e 05       		.uleb128 0x5
 2059 005f 01       		.uleb128 0x1
 2060 0060 13       		.uleb128 0x13
 2061 0061 00       		.byte	0
 2062 0062 00       		.byte	0
 2063 0063 0A       		.uleb128 0xa
 2064 0064 28       		.uleb128 0x28
 2065 0065 00       		.byte	0
 2066 0066 03       		.uleb128 0x3
 2067 0067 0E       		.uleb128 0xe
 2068 0068 1C       		.uleb128 0x1c
 2069 0069 0D       		.uleb128 0xd
 2070 006a 00       		.byte	0
 2071 006b 00       		.byte	0
 2072 006c 0B       		.uleb128 0xb
 2073 006d 28       		.uleb128 0x28
 2074 006e 00       		.byte	0
 2075 006f 03       		.uleb128 0x3
 2076 0070 08       		.uleb128 0x8
 2077 0071 1C       		.uleb128 0x1c
 2078 0072 0D       		.uleb128 0xd
 2079 0073 00       		.byte	0
 2080 0074 00       		.byte	0
 2081 0075 0C       		.uleb128 0xc
 2082 0076 16       		.uleb128 0x16
 2083 0077 00       		.byte	0
 2084 0078 03       		.uleb128 0x3
 2085 0079 0E       		.uleb128 0xe
 2086 007a 3A       		.uleb128 0x3a
 2087 007b 0B       		.uleb128 0xb
 2088 007c 3B       		.uleb128 0x3b
 2089 007d 05       		.uleb128 0x5
 2090 007e 49       		.uleb128 0x49
 2091 007f 13       		.uleb128 0x13
 2092 0080 00       		.byte	0
 2093 0081 00       		.byte	0
 2094 0082 0D       		.uleb128 0xd
 2095 0083 13       		.uleb128 0x13
 2096 0084 01       		.byte	0x1
ARM GAS  C:\Users\jsyoon\AppData\Local\Temp\cciBRxxg.s 			page 38


 2097 0085 0B       		.uleb128 0xb
 2098 0086 0B       		.uleb128 0xb
 2099 0087 3A       		.uleb128 0x3a
 2100 0088 0B       		.uleb128 0xb
 2101 0089 3B       		.uleb128 0x3b
 2102 008a 05       		.uleb128 0x5
 2103 008b 01       		.uleb128 0x1
 2104 008c 13       		.uleb128 0x13
 2105 008d 00       		.byte	0
 2106 008e 00       		.byte	0
 2107 008f 0E       		.uleb128 0xe
 2108 0090 0D       		.uleb128 0xd
 2109 0091 00       		.byte	0
 2110 0092 03       		.uleb128 0x3
 2111 0093 0E       		.uleb128 0xe
 2112 0094 3A       		.uleb128 0x3a
 2113 0095 0B       		.uleb128 0xb
 2114 0096 3B       		.uleb128 0x3b
 2115 0097 05       		.uleb128 0x5
 2116 0098 49       		.uleb128 0x49
 2117 0099 13       		.uleb128 0x13
 2118 009a 38       		.uleb128 0x38
 2119 009b 0B       		.uleb128 0xb
 2120 009c 00       		.byte	0
 2121 009d 00       		.byte	0
 2122 009e 0F       		.uleb128 0xf
 2123 009f 0D       		.uleb128 0xd
 2124 00a0 00       		.byte	0
 2125 00a1 03       		.uleb128 0x3
 2126 00a2 08       		.uleb128 0x8
 2127 00a3 3A       		.uleb128 0x3a
 2128 00a4 0B       		.uleb128 0xb
 2129 00a5 3B       		.uleb128 0x3b
 2130 00a6 05       		.uleb128 0x5
 2131 00a7 49       		.uleb128 0x49
 2132 00a8 13       		.uleb128 0x13
 2133 00a9 38       		.uleb128 0x38
 2134 00aa 0B       		.uleb128 0xb
 2135 00ab 00       		.byte	0
 2136 00ac 00       		.byte	0
 2137 00ad 10       		.uleb128 0x10
 2138 00ae 13       		.uleb128 0x13
 2139 00af 01       		.byte	0x1
 2140 00b0 0B       		.uleb128 0xb
 2141 00b1 0B       		.uleb128 0xb
 2142 00b2 3A       		.uleb128 0x3a
 2143 00b3 0B       		.uleb128 0xb
 2144 00b4 3B       		.uleb128 0x3b
 2145 00b5 0B       		.uleb128 0xb
 2146 00b6 01       		.uleb128 0x1
 2147 00b7 13       		.uleb128 0x13
 2148 00b8 00       		.byte	0
 2149 00b9 00       		.byte	0
 2150 00ba 11       		.uleb128 0x11
 2151 00bb 0D       		.uleb128 0xd
 2152 00bc 00       		.byte	0
 2153 00bd 03       		.uleb128 0x3
ARM GAS  C:\Users\jsyoon\AppData\Local\Temp\cciBRxxg.s 			page 39


 2154 00be 0E       		.uleb128 0xe
 2155 00bf 3A       		.uleb128 0x3a
 2156 00c0 0B       		.uleb128 0xb
 2157 00c1 3B       		.uleb128 0x3b
 2158 00c2 0B       		.uleb128 0xb
 2159 00c3 49       		.uleb128 0x49
 2160 00c4 13       		.uleb128 0x13
 2161 00c5 38       		.uleb128 0x38
 2162 00c6 0B       		.uleb128 0xb
 2163 00c7 00       		.byte	0
 2164 00c8 00       		.byte	0
 2165 00c9 12       		.uleb128 0x12
 2166 00ca 2E       		.uleb128 0x2e
 2167 00cb 01       		.byte	0x1
 2168 00cc 3F       		.uleb128 0x3f
 2169 00cd 19       		.uleb128 0x19
 2170 00ce 03       		.uleb128 0x3
 2171 00cf 0E       		.uleb128 0xe
 2172 00d0 3A       		.uleb128 0x3a
 2173 00d1 0B       		.uleb128 0xb
 2174 00d2 3B       		.uleb128 0x3b
 2175 00d3 05       		.uleb128 0x5
 2176 00d4 27       		.uleb128 0x27
 2177 00d5 19       		.uleb128 0x19
 2178 00d6 11       		.uleb128 0x11
 2179 00d7 01       		.uleb128 0x1
 2180 00d8 12       		.uleb128 0x12
 2181 00d9 06       		.uleb128 0x6
 2182 00da 40       		.uleb128 0x40
 2183 00db 18       		.uleb128 0x18
 2184 00dc 9742     		.uleb128 0x2117
 2185 00de 19       		.uleb128 0x19
 2186 00df 01       		.uleb128 0x1
 2187 00e0 13       		.uleb128 0x13
 2188 00e1 00       		.byte	0
 2189 00e2 00       		.byte	0
 2190 00e3 13       		.uleb128 0x13
 2191 00e4 898201   		.uleb128 0x4109
 2192 00e7 01       		.byte	0x1
 2193 00e8 11       		.uleb128 0x11
 2194 00e9 01       		.uleb128 0x1
 2195 00ea 31       		.uleb128 0x31
 2196 00eb 13       		.uleb128 0x13
 2197 00ec 01       		.uleb128 0x1
 2198 00ed 13       		.uleb128 0x13
 2199 00ee 00       		.byte	0
 2200 00ef 00       		.byte	0
 2201 00f0 14       		.uleb128 0x14
 2202 00f1 8A8201   		.uleb128 0x410a
 2203 00f4 00       		.byte	0
 2204 00f5 02       		.uleb128 0x2
 2205 00f6 18       		.uleb128 0x18
 2206 00f7 9142     		.uleb128 0x2111
 2207 00f9 18       		.uleb128 0x18
 2208 00fa 00       		.byte	0
 2209 00fb 00       		.byte	0
 2210 00fc 15       		.uleb128 0x15
ARM GAS  C:\Users\jsyoon\AppData\Local\Temp\cciBRxxg.s 			page 40


 2211 00fd 898201   		.uleb128 0x4109
 2212 0100 01       		.byte	0x1
 2213 0101 11       		.uleb128 0x11
 2214 0102 01       		.uleb128 0x1
 2215 0103 9542     		.uleb128 0x2115
 2216 0105 19       		.uleb128 0x19
 2217 0106 31       		.uleb128 0x31
 2218 0107 13       		.uleb128 0x13
 2219 0108 00       		.byte	0
 2220 0109 00       		.byte	0
 2221 010a 16       		.uleb128 0x16
 2222 010b 05       		.uleb128 0x5
 2223 010c 00       		.byte	0
 2224 010d 03       		.uleb128 0x3
 2225 010e 0E       		.uleb128 0xe
 2226 010f 3A       		.uleb128 0x3a
 2227 0110 0B       		.uleb128 0xb
 2228 0111 3B       		.uleb128 0x3b
 2229 0112 05       		.uleb128 0x5
 2230 0113 49       		.uleb128 0x49
 2231 0114 13       		.uleb128 0x13
 2232 0115 02       		.uleb128 0x2
 2233 0116 17       		.uleb128 0x17
 2234 0117 00       		.byte	0
 2235 0118 00       		.byte	0
 2236 0119 17       		.uleb128 0x17
 2237 011a 34       		.uleb128 0x34
 2238 011b 00       		.byte	0
 2239 011c 03       		.uleb128 0x3
 2240 011d 0E       		.uleb128 0xe
 2241 011e 3A       		.uleb128 0x3a
 2242 011f 0B       		.uleb128 0xb
 2243 0120 3B       		.uleb128 0x3b
 2244 0121 05       		.uleb128 0x5
 2245 0122 49       		.uleb128 0x49
 2246 0123 13       		.uleb128 0x13
 2247 0124 02       		.uleb128 0x2
 2248 0125 17       		.uleb128 0x17
 2249 0126 00       		.byte	0
 2250 0127 00       		.byte	0
 2251 0128 18       		.uleb128 0x18
 2252 0129 0F       		.uleb128 0xf
 2253 012a 00       		.byte	0
 2254 012b 0B       		.uleb128 0xb
 2255 012c 0B       		.uleb128 0xb
 2256 012d 49       		.uleb128 0x49
 2257 012e 13       		.uleb128 0x13
 2258 012f 00       		.byte	0
 2259 0130 00       		.byte	0
 2260 0131 19       		.uleb128 0x19
 2261 0132 05       		.uleb128 0x5
 2262 0133 00       		.byte	0
 2263 0134 03       		.uleb128 0x3
 2264 0135 0E       		.uleb128 0xe
 2265 0136 3A       		.uleb128 0x3a
 2266 0137 0B       		.uleb128 0xb
 2267 0138 3B       		.uleb128 0x3b
ARM GAS  C:\Users\jsyoon\AppData\Local\Temp\cciBRxxg.s 			page 41


 2268 0139 05       		.uleb128 0x5
 2269 013a 49       		.uleb128 0x49
 2270 013b 13       		.uleb128 0x13
 2271 013c 02       		.uleb128 0x2
 2272 013d 18       		.uleb128 0x18
 2273 013e 00       		.byte	0
 2274 013f 00       		.byte	0
 2275 0140 1A       		.uleb128 0x1a
 2276 0141 2E       		.uleb128 0x2e
 2277 0142 00       		.byte	0
 2278 0143 3F       		.uleb128 0x3f
 2279 0144 19       		.uleb128 0x19
 2280 0145 03       		.uleb128 0x3
 2281 0146 0E       		.uleb128 0xe
 2282 0147 3A       		.uleb128 0x3a
 2283 0148 0B       		.uleb128 0xb
 2284 0149 3B       		.uleb128 0x3b
 2285 014a 05       		.uleb128 0x5
 2286 014b 27       		.uleb128 0x27
 2287 014c 19       		.uleb128 0x19
 2288 014d 49       		.uleb128 0x49
 2289 014e 13       		.uleb128 0x13
 2290 014f 11       		.uleb128 0x11
 2291 0150 01       		.uleb128 0x1
 2292 0151 12       		.uleb128 0x12
 2293 0152 06       		.uleb128 0x6
 2294 0153 40       		.uleb128 0x40
 2295 0154 18       		.uleb128 0x18
 2296 0155 9742     		.uleb128 0x2117
 2297 0157 19       		.uleb128 0x19
 2298 0158 00       		.byte	0
 2299 0159 00       		.byte	0
 2300 015a 1B       		.uleb128 0x1b
 2301 015b 2E       		.uleb128 0x2e
 2302 015c 01       		.byte	0x1
 2303 015d 3F       		.uleb128 0x3f
 2304 015e 19       		.uleb128 0x19
 2305 015f 03       		.uleb128 0x3
 2306 0160 0E       		.uleb128 0xe
 2307 0161 3A       		.uleb128 0x3a
 2308 0162 0B       		.uleb128 0xb
 2309 0163 3B       		.uleb128 0x3b
 2310 0164 05       		.uleb128 0x5
 2311 0165 27       		.uleb128 0x27
 2312 0166 19       		.uleb128 0x19
 2313 0167 49       		.uleb128 0x49
 2314 0168 13       		.uleb128 0x13
 2315 0169 11       		.uleb128 0x11
 2316 016a 01       		.uleb128 0x1
 2317 016b 12       		.uleb128 0x12
 2318 016c 06       		.uleb128 0x6
 2319 016d 40       		.uleb128 0x40
 2320 016e 18       		.uleb128 0x18
 2321 016f 9742     		.uleb128 0x2117
 2322 0171 19       		.uleb128 0x19
 2323 0172 01       		.uleb128 0x1
 2324 0173 13       		.uleb128 0x13
ARM GAS  C:\Users\jsyoon\AppData\Local\Temp\cciBRxxg.s 			page 42


 2325 0174 00       		.byte	0
 2326 0175 00       		.byte	0
 2327 0176 1C       		.uleb128 0x1c
 2328 0177 34       		.uleb128 0x34
 2329 0178 00       		.byte	0
 2330 0179 03       		.uleb128 0x3
 2331 017a 08       		.uleb128 0x8
 2332 017b 3A       		.uleb128 0x3a
 2333 017c 0B       		.uleb128 0xb
 2334 017d 3B       		.uleb128 0x3b
 2335 017e 05       		.uleb128 0x5
 2336 017f 49       		.uleb128 0x49
 2337 0180 13       		.uleb128 0x13
 2338 0181 02       		.uleb128 0x2
 2339 0182 18       		.uleb128 0x18
 2340 0183 00       		.byte	0
 2341 0184 00       		.byte	0
 2342 0185 1D       		.uleb128 0x1d
 2343 0186 34       		.uleb128 0x34
 2344 0187 00       		.byte	0
 2345 0188 03       		.uleb128 0x3
 2346 0189 0E       		.uleb128 0xe
 2347 018a 3A       		.uleb128 0x3a
 2348 018b 0B       		.uleb128 0xb
 2349 018c 3B       		.uleb128 0x3b
 2350 018d 05       		.uleb128 0x5
 2351 018e 49       		.uleb128 0x49
 2352 018f 13       		.uleb128 0x13
 2353 0190 3F       		.uleb128 0x3f
 2354 0191 19       		.uleb128 0x19
 2355 0192 3C       		.uleb128 0x3c
 2356 0193 19       		.uleb128 0x19
 2357 0194 00       		.byte	0
 2358 0195 00       		.byte	0
 2359 0196 1E       		.uleb128 0x1e
 2360 0197 2E       		.uleb128 0x2e
 2361 0198 01       		.byte	0x1
 2362 0199 3F       		.uleb128 0x3f
 2363 019a 19       		.uleb128 0x19
 2364 019b 03       		.uleb128 0x3
 2365 019c 0E       		.uleb128 0xe
 2366 019d 3A       		.uleb128 0x3a
 2367 019e 0B       		.uleb128 0xb
 2368 019f 3B       		.uleb128 0x3b
 2369 01a0 05       		.uleb128 0x5
 2370 01a1 27       		.uleb128 0x27
 2371 01a2 19       		.uleb128 0x19
 2372 01a3 3C       		.uleb128 0x3c
 2373 01a4 19       		.uleb128 0x19
 2374 01a5 00       		.byte	0
 2375 01a6 00       		.byte	0
 2376 01a7 1F       		.uleb128 0x1f
 2377 01a8 05       		.uleb128 0x5
 2378 01a9 00       		.byte	0
 2379 01aa 49       		.uleb128 0x49
 2380 01ab 13       		.uleb128 0x13
 2381 01ac 00       		.byte	0
ARM GAS  C:\Users\jsyoon\AppData\Local\Temp\cciBRxxg.s 			page 43


 2382 01ad 00       		.byte	0
 2383 01ae 00       		.byte	0
 2384              		.section	.debug_loc,"",%progbits
 2385              	.Ldebug_loc0:
 2386              	.LLST0:
 2387 0000 00000000 		.4byte	.LVL2
 2388 0004 18000000 		.4byte	.LVL4
 2389 0008 0100     		.2byte	0x1
 2390 000a 50       		.byte	0x50
 2391 000b 18000000 		.4byte	.LVL4
 2392 000f 34000000 		.4byte	.LFE112
 2393 0013 0400     		.2byte	0x4
 2394 0015 F3       		.byte	0xf3
 2395 0016 01       		.uleb128 0x1
 2396 0017 50       		.byte	0x50
 2397 0018 9F       		.byte	0x9f
 2398 0019 00000000 		.4byte	0
 2399 001d 00000000 		.4byte	0
 2400              	.LLST1:
 2401 0021 00000000 		.4byte	.LVL2
 2402 0025 14000000 		.4byte	.LVL3
 2403 0029 0200     		.2byte	0x2
 2404 002b 30       		.byte	0x30
 2405 002c 9F       		.byte	0x9f
 2406 002d 14000000 		.4byte	.LVL3
 2407 0031 20000000 		.4byte	.LVL5
 2408 0035 0700     		.2byte	0x7
 2409 0037 73       		.byte	0x73
 2410 0038 00       		.sleb128 0
 2411 0039 0B       		.byte	0xb
 2412 003a 0081     		.2byte	0x8100
 2413 003c 1A       		.byte	0x1a
 2414 003d 9F       		.byte	0x9f
 2415 003e 2A000000 		.4byte	.LVL6
 2416 0042 34000000 		.4byte	.LFE112
 2417 0046 0100     		.2byte	0x1
 2418 0048 53       		.byte	0x53
 2419 0049 00000000 		.4byte	0
 2420 004d 00000000 		.4byte	0
 2421              	.LLST2:
 2422 0051 00000000 		.4byte	.LVL10
 2423 0055 12000000 		.4byte	.LVL12
 2424 0059 0100     		.2byte	0x1
 2425 005b 50       		.byte	0x50
 2426 005c 12000000 		.4byte	.LVL12
 2427 0060 2C000000 		.4byte	.LFE117
 2428 0064 0400     		.2byte	0x4
 2429 0066 F3       		.byte	0xf3
 2430 0067 01       		.uleb128 0x1
 2431 0068 50       		.byte	0x50
 2432 0069 9F       		.byte	0x9f
 2433 006a 00000000 		.4byte	0
 2434 006e 00000000 		.4byte	0
 2435              	.LLST3:
 2436 0072 00000000 		.4byte	.LVL10
 2437 0076 10000000 		.4byte	.LVL11
 2438 007a 0200     		.2byte	0x2
ARM GAS  C:\Users\jsyoon\AppData\Local\Temp\cciBRxxg.s 			page 44


 2439 007c 30       		.byte	0x30
 2440 007d 9F       		.byte	0x9f
 2441 007e 10000000 		.4byte	.LVL11
 2442 0082 1A000000 		.4byte	.LVL13
 2443 0086 0100     		.2byte	0x1
 2444 0088 52       		.byte	0x52
 2445 0089 20000000 		.4byte	.LVL14
 2446 008d 2C000000 		.4byte	.LFE117
 2447 0091 0100     		.2byte	0x1
 2448 0093 52       		.byte	0x52
 2449 0094 00000000 		.4byte	0
 2450 0098 00000000 		.4byte	0
 2451              	.LLST4:
 2452 009c 00000000 		.4byte	.LVL17
 2453 00a0 10000000 		.4byte	.LVL18
 2454 00a4 0100     		.2byte	0x1
 2455 00a6 50       		.byte	0x50
 2456 00a7 10000000 		.4byte	.LVL18
 2457 00ab 18000000 		.4byte	.LFE120
 2458 00af 0400     		.2byte	0x4
 2459 00b1 F3       		.byte	0xf3
 2460 00b2 01       		.uleb128 0x1
 2461 00b3 50       		.byte	0x50
 2462 00b4 9F       		.byte	0x9f
 2463 00b5 00000000 		.4byte	0
 2464 00b9 00000000 		.4byte	0
 2465              	.LLST5:
 2466 00bd 00000000 		.4byte	.LVL19
 2467 00c1 16000000 		.4byte	.LVL21
 2468 00c5 0100     		.2byte	0x1
 2469 00c7 50       		.byte	0x50
 2470 00c8 16000000 		.4byte	.LVL21
 2471 00cc 2C000000 		.4byte	.LFE121
 2472 00d0 0400     		.2byte	0x4
 2473 00d2 F3       		.byte	0xf3
 2474 00d3 01       		.uleb128 0x1
 2475 00d4 50       		.byte	0x50
 2476 00d5 9F       		.byte	0x9f
 2477 00d6 00000000 		.4byte	0
 2478 00da 00000000 		.4byte	0
 2479              	.LLST6:
 2480 00de 00000000 		.4byte	.LVL19
 2481 00e2 14000000 		.4byte	.LVL20
 2482 00e6 0200     		.2byte	0x2
 2483 00e8 30       		.byte	0x30
 2484 00e9 9F       		.byte	0x9f
 2485 00ea 14000000 		.4byte	.LVL20
 2486 00ee 22000000 		.4byte	.LVL23
 2487 00f2 0100     		.2byte	0x1
 2488 00f4 51       		.byte	0x51
 2489 00f5 22000000 		.4byte	.LVL23
 2490 00f9 2C000000 		.4byte	.LFE121
 2491 00fd 0100     		.2byte	0x1
 2492 00ff 52       		.byte	0x52
 2493 0100 00000000 		.4byte	0
 2494 0104 00000000 		.4byte	0
 2495              	.LLST7:
ARM GAS  C:\Users\jsyoon\AppData\Local\Temp\cciBRxxg.s 			page 45


 2496 0108 00000000 		.4byte	.LVL32
 2497 010c 04000000 		.4byte	.LVL33
 2498 0110 0100     		.2byte	0x1
 2499 0112 50       		.byte	0x50
 2500 0113 04000000 		.4byte	.LVL33
 2501 0117 14000000 		.4byte	.LFE133
 2502 011b 0400     		.2byte	0x4
 2503 011d F3       		.byte	0xf3
 2504 011e 01       		.uleb128 0x1
 2505 011f 50       		.byte	0x50
 2506 0120 9F       		.byte	0x9f
 2507 0121 00000000 		.4byte	0
 2508 0125 00000000 		.4byte	0
 2509              	.LLST8:
 2510 0129 00000000 		.4byte	.LVL36
 2511 012d 0A000000 		.4byte	.LVL37
 2512 0131 0100     		.2byte	0x1
 2513 0133 50       		.byte	0x50
 2514 0134 0A000000 		.4byte	.LVL37
 2515 0138 0E000000 		.4byte	.LVL38
 2516 013c 0400     		.2byte	0x4
 2517 013e F3       		.byte	0xf3
 2518 013f 01       		.uleb128 0x1
 2519 0140 50       		.byte	0x50
 2520 0141 9F       		.byte	0x9f
 2521 0142 0E000000 		.4byte	.LVL38
 2522 0146 10000000 		.4byte	.LVL39
 2523 014a 0100     		.2byte	0x1
 2524 014c 50       		.byte	0x50
 2525 014d 10000000 		.4byte	.LVL39
 2526 0151 18000000 		.4byte	.LFE136
 2527 0155 0400     		.2byte	0x4
 2528 0157 F3       		.byte	0xf3
 2529 0158 01       		.uleb128 0x1
 2530 0159 50       		.byte	0x50
 2531 015a 9F       		.byte	0x9f
 2532 015b 00000000 		.4byte	0
 2533 015f 00000000 		.4byte	0
 2534              	.LLST9:
 2535 0163 00000000 		.4byte	.LVL40
 2536 0167 0C000000 		.4byte	.LVL42
 2537 016b 0100     		.2byte	0x1
 2538 016d 50       		.byte	0x50
 2539 016e 0C000000 		.4byte	.LVL42
 2540 0172 14000000 		.4byte	.LFE137
 2541 0176 0400     		.2byte	0x4
 2542 0178 F3       		.byte	0xf3
 2543 0179 01       		.uleb128 0x1
 2544 017a 50       		.byte	0x50
 2545 017b 9F       		.byte	0x9f
 2546 017c 00000000 		.4byte	0
 2547 0180 00000000 		.4byte	0
 2548              	.LLST10:
 2549 0184 00000000 		.4byte	.LVL40
 2550 0188 04000000 		.4byte	.LVL41
 2551 018c 0200     		.2byte	0x2
 2552 018e 30       		.byte	0x30
ARM GAS  C:\Users\jsyoon\AppData\Local\Temp\cciBRxxg.s 			page 46


 2553 018f 9F       		.byte	0x9f
 2554 0190 04000000 		.4byte	.LVL41
 2555 0194 0C000000 		.4byte	.LVL42
 2556 0198 0800     		.2byte	0x8
 2557 019a 70       		.byte	0x70
 2558 019b 00       		.sleb128 0
 2559 019c 73       		.byte	0x73
 2560 019d 00       		.sleb128 0
 2561 019e 1A       		.byte	0x1a
 2562 019f 30       		.byte	0x30
 2563 01a0 2E       		.byte	0x2e
 2564 01a1 9F       		.byte	0x9f
 2565 01a2 0C000000 		.4byte	.LVL42
 2566 01a6 14000000 		.4byte	.LFE137
 2567 01aa 0900     		.2byte	0x9
 2568 01ac F3       		.byte	0xf3
 2569 01ad 01       		.uleb128 0x1
 2570 01ae 50       		.byte	0x50
 2571 01af 73       		.byte	0x73
 2572 01b0 00       		.sleb128 0
 2573 01b1 1A       		.byte	0x1a
 2574 01b2 30       		.byte	0x30
 2575 01b3 2E       		.byte	0x2e
 2576 01b4 9F       		.byte	0x9f
 2577 01b5 00000000 		.4byte	0
 2578 01b9 00000000 		.4byte	0
 2579              	.LLST11:
 2580 01bd 00000000 		.4byte	.LVL44
 2581 01c1 0C000000 		.4byte	.LVL46
 2582 01c5 0100     		.2byte	0x1
 2583 01c7 50       		.byte	0x50
 2584 01c8 0C000000 		.4byte	.LVL46
 2585 01cc 14000000 		.4byte	.LFE139
 2586 01d0 0400     		.2byte	0x4
 2587 01d2 F3       		.byte	0xf3
 2588 01d3 01       		.uleb128 0x1
 2589 01d4 50       		.byte	0x50
 2590 01d5 9F       		.byte	0x9f
 2591 01d6 00000000 		.4byte	0
 2592 01da 00000000 		.4byte	0
 2593              	.LLST12:
 2594 01de 00000000 		.4byte	.LVL44
 2595 01e2 04000000 		.4byte	.LVL45
 2596 01e6 0200     		.2byte	0x2
 2597 01e8 30       		.byte	0x30
 2598 01e9 9F       		.byte	0x9f
 2599 01ea 04000000 		.4byte	.LVL45
 2600 01ee 0C000000 		.4byte	.LVL46
 2601 01f2 0800     		.2byte	0x8
 2602 01f4 70       		.byte	0x70
 2603 01f5 00       		.sleb128 0
 2604 01f6 73       		.byte	0x73
 2605 01f7 00       		.sleb128 0
 2606 01f8 1A       		.byte	0x1a
 2607 01f9 30       		.byte	0x30
 2608 01fa 2E       		.byte	0x2e
 2609 01fb 9F       		.byte	0x9f
ARM GAS  C:\Users\jsyoon\AppData\Local\Temp\cciBRxxg.s 			page 47


 2610 01fc 0C000000 		.4byte	.LVL46
 2611 0200 14000000 		.4byte	.LFE139
 2612 0204 0900     		.2byte	0x9
 2613 0206 F3       		.byte	0xf3
 2614 0207 01       		.uleb128 0x1
 2615 0208 50       		.byte	0x50
 2616 0209 73       		.byte	0x73
 2617 020a 00       		.sleb128 0
 2618 020b 1A       		.byte	0x1a
 2619 020c 30       		.byte	0x30
 2620 020d 2E       		.byte	0x2e
 2621 020e 9F       		.byte	0x9f
 2622 020f 00000000 		.4byte	0
 2623 0213 00000000 		.4byte	0
 2624              		.section	.debug_aranges,"",%progbits
 2625 0000 04010000 		.4byte	0x104
 2626 0004 0200     		.2byte	0x2
 2627 0006 00000000 		.4byte	.Ldebug_info0
 2628 000a 04       		.byte	0x4
 2629 000b 00       		.byte	0
 2630 000c 0000     		.2byte	0
 2631 000e 0000     		.2byte	0
 2632 0010 00000000 		.4byte	.LFB111
 2633 0014 1A000000 		.4byte	.LFE111-.LFB111
 2634 0018 00000000 		.4byte	.LFB112
 2635 001c 34000000 		.4byte	.LFE112-.LFB112
 2636 0020 00000000 		.4byte	.LFB113
 2637 0024 10000000 		.4byte	.LFE113-.LFB113
 2638 0028 00000000 		.4byte	.LFB114
 2639 002c 0C000000 		.4byte	.LFE114-.LFB114
 2640 0030 00000000 		.4byte	.LFB115
 2641 0034 0C000000 		.4byte	.LFE115-.LFB115
 2642 0038 00000000 		.4byte	.LFB116
 2643 003c 10000000 		.4byte	.LFE116-.LFB116
 2644 0040 00000000 		.4byte	.LFB117
 2645 0044 2C000000 		.4byte	.LFE117-.LFB117
 2646 0048 00000000 		.4byte	.LFB118
 2647 004c 0E000000 		.4byte	.LFE118-.LFB118
 2648 0050 00000000 		.4byte	.LFB119
 2649 0054 0C000000 		.4byte	.LFE119-.LFB119
 2650 0058 00000000 		.4byte	.LFB120
 2651 005c 18000000 		.4byte	.LFE120-.LFB120
 2652 0060 00000000 		.4byte	.LFB121
 2653 0064 2C000000 		.4byte	.LFE121-.LFB121
 2654 0068 00000000 		.4byte	.LFB122
 2655 006c 14000000 		.4byte	.LFE122-.LFB122
 2656 0070 00000000 		.4byte	.LFB123
 2657 0074 0C000000 		.4byte	.LFE123-.LFB123
 2658 0078 00000000 		.4byte	.LFB124
 2659 007c 0C000000 		.4byte	.LFE124-.LFB124
 2660 0080 00000000 		.4byte	.LFB125
 2661 0084 0C000000 		.4byte	.LFE125-.LFB125
 2662 0088 00000000 		.4byte	.LFB126
 2663 008c 0C000000 		.4byte	.LFE126-.LFB126
 2664 0090 00000000 		.4byte	.LFB127
 2665 0094 0C000000 		.4byte	.LFE127-.LFB127
 2666 0098 00000000 		.4byte	.LFB128
ARM GAS  C:\Users\jsyoon\AppData\Local\Temp\cciBRxxg.s 			page 48


 2667 009c 0C000000 		.4byte	.LFE128-.LFB128
 2668 00a0 00000000 		.4byte	.LFB129
 2669 00a4 0C000000 		.4byte	.LFE129-.LFB129
 2670 00a8 00000000 		.4byte	.LFB130
 2671 00ac 0C000000 		.4byte	.LFE130-.LFB130
 2672 00b0 00000000 		.4byte	.LFB131
 2673 00b4 0C000000 		.4byte	.LFE131-.LFB131
 2674 00b8 00000000 		.4byte	.LFB132
 2675 00bc 0C000000 		.4byte	.LFE132-.LFB132
 2676 00c0 00000000 		.4byte	.LFB133
 2677 00c4 14000000 		.4byte	.LFE133-.LFB133
 2678 00c8 00000000 		.4byte	.LFB134
 2679 00cc 0C000000 		.4byte	.LFE134-.LFB134
 2680 00d0 00000000 		.4byte	.LFB135
 2681 00d4 0C000000 		.4byte	.LFE135-.LFB135
 2682 00d8 00000000 		.4byte	.LFB136
 2683 00dc 18000000 		.4byte	.LFE136-.LFB136
 2684 00e0 00000000 		.4byte	.LFB137
 2685 00e4 14000000 		.4byte	.LFE137-.LFB137
 2686 00e8 00000000 		.4byte	.LFB138
 2687 00ec 0C000000 		.4byte	.LFE138-.LFB138
 2688 00f0 00000000 		.4byte	.LFB139
 2689 00f4 14000000 		.4byte	.LFE139-.LFB139
 2690 00f8 00000000 		.4byte	.LFB140
 2691 00fc 0C000000 		.4byte	.LFE140-.LFB140
 2692 0100 00000000 		.4byte	0
 2693 0104 00000000 		.4byte	0
 2694              		.section	.debug_ranges,"",%progbits
 2695              	.Ldebug_ranges0:
 2696 0000 00000000 		.4byte	.LFB111
 2697 0004 1A000000 		.4byte	.LFE111
 2698 0008 00000000 		.4byte	.LFB112
 2699 000c 34000000 		.4byte	.LFE112
 2700 0010 00000000 		.4byte	.LFB113
 2701 0014 10000000 		.4byte	.LFE113
 2702 0018 00000000 		.4byte	.LFB114
 2703 001c 0C000000 		.4byte	.LFE114
 2704 0020 00000000 		.4byte	.LFB115
 2705 0024 0C000000 		.4byte	.LFE115
 2706 0028 00000000 		.4byte	.LFB116
 2707 002c 10000000 		.4byte	.LFE116
 2708 0030 00000000 		.4byte	.LFB117
 2709 0034 2C000000 		.4byte	.LFE117
 2710 0038 00000000 		.4byte	.LFB118
 2711 003c 0E000000 		.4byte	.LFE118
 2712 0040 00000000 		.4byte	.LFB119
 2713 0044 0C000000 		.4byte	.LFE119
 2714 0048 00000000 		.4byte	.LFB120
 2715 004c 18000000 		.4byte	.LFE120
 2716 0050 00000000 		.4byte	.LFB121
 2717 0054 2C000000 		.4byte	.LFE121
 2718 0058 00000000 		.4byte	.LFB122
 2719 005c 14000000 		.4byte	.LFE122
 2720 0060 00000000 		.4byte	.LFB123
 2721 0064 0C000000 		.4byte	.LFE123
 2722 0068 00000000 		.4byte	.LFB124
 2723 006c 0C000000 		.4byte	.LFE124
ARM GAS  C:\Users\jsyoon\AppData\Local\Temp\cciBRxxg.s 			page 49


 2724 0070 00000000 		.4byte	.LFB125
 2725 0074 0C000000 		.4byte	.LFE125
 2726 0078 00000000 		.4byte	.LFB126
 2727 007c 0C000000 		.4byte	.LFE126
 2728 0080 00000000 		.4byte	.LFB127
 2729 0084 0C000000 		.4byte	.LFE127
 2730 0088 00000000 		.4byte	.LFB128
 2731 008c 0C000000 		.4byte	.LFE128
 2732 0090 00000000 		.4byte	.LFB129
 2733 0094 0C000000 		.4byte	.LFE129
 2734 0098 00000000 		.4byte	.LFB130
 2735 009c 0C000000 		.4byte	.LFE130
 2736 00a0 00000000 		.4byte	.LFB131
 2737 00a4 0C000000 		.4byte	.LFE131
 2738 00a8 00000000 		.4byte	.LFB132
 2739 00ac 0C000000 		.4byte	.LFE132
 2740 00b0 00000000 		.4byte	.LFB133
 2741 00b4 14000000 		.4byte	.LFE133
 2742 00b8 00000000 		.4byte	.LFB134
 2743 00bc 0C000000 		.4byte	.LFE134
 2744 00c0 00000000 		.4byte	.LFB135
 2745 00c4 0C000000 		.4byte	.LFE135
 2746 00c8 00000000 		.4byte	.LFB136
 2747 00cc 18000000 		.4byte	.LFE136
 2748 00d0 00000000 		.4byte	.LFB137
 2749 00d4 14000000 		.4byte	.LFE137
 2750 00d8 00000000 		.4byte	.LFB138
 2751 00dc 0C000000 		.4byte	.LFE138
 2752 00e0 00000000 		.4byte	.LFB139
 2753 00e4 14000000 		.4byte	.LFE139
 2754 00e8 00000000 		.4byte	.LFB140
 2755 00ec 0C000000 		.4byte	.LFE140
 2756 00f0 00000000 		.4byte	0
 2757 00f4 00000000 		.4byte	0
 2758              		.section	.debug_line,"",%progbits
 2759              	.Ldebug_line0:
 2760 0000 3B040000 		.section	.debug_str,"MS",%progbits,1
 2760      0200BF01 
 2760      00000201 
 2760      FB0E0D00 
 2760      01010101 
 2761              	.LASF39:
 2762 0000 5344494F 		.ascii	"SDIO_ClockEdge\000"
 2762      5F436C6F 
 2762      636B4564 
 2762      676500
 2763              	.LASF40:
 2764 000f 5344494F 		.ascii	"SDIO_ClockBypass\000"
 2764      5F436C6F 
 2764      636B4279 
 2764      70617373 
 2764      00
 2765              	.LASF89:
 2766 0020 5344494F 		.ascii	"SDIO_CEATAITCmd\000"
 2766      5F434541 
 2766      54414954 
 2766      436D6400 
ARM GAS  C:\Users\jsyoon\AppData\Local\Temp\cciBRxxg.s 			page 50


 2767              	.LASF60:
 2768 0030 5344494F 		.ascii	"SDIO_Init\000"
 2768      5F496E69 
 2768      7400
 2769              	.LASF32:
 2770 003a 44434F55 		.ascii	"DCOUNT\000"
 2770      4E5400
 2771              	.LASF29:
 2772 0041 4454494D 		.ascii	"DTIMER\000"
 2772      455200
 2773              	.LASF45:
 2774 0048 5344494F 		.ascii	"SDIO_InitTypeDef\000"
 2774      5F496E69 
 2774      74547970 
 2774      65446566 
 2774      00
 2775              	.LASF87:
 2776 0059 5344494F 		.ascii	"SDIO_SendSDIOSuspendCmd\000"
 2776      5F53656E 
 2776      64534449 
 2776      4F537573 
 2776      70656E64 
 2777              	.LASF67:
 2778 0071 5344494F 		.ascii	"SDIO_SendCommand\000"
 2778      5F53656E 
 2778      64436F6D 
 2778      6D616E64 
 2778      00
 2779              	.LASF73:
 2780 0082 5344494F 		.ascii	"SDIO_RESP\000"
 2780      5F524553 
 2780      5000
 2781              	.LASF15:
 2782 008c 73697A65 		.ascii	"sizetype\000"
 2782      74797065 
 2782      00
 2783              	.LASF46:
 2784 0095 5344494F 		.ascii	"SDIO_Argument\000"
 2784      5F417267 
 2784      756D656E 
 2784      7400
 2785              	.LASF99:
 2786 00a3 5344494F 		.ascii	"SDIO_GetITStatus\000"
 2786      5F476574 
 2786      49545374 
 2786      61747573 
 2786      00
 2787              	.LASF86:
 2788 00b4 5344494F 		.ascii	"SDIO_SetSDIOOperation\000"
 2788      5F536574 
 2788      5344494F 
 2788      4F706572 
 2788      6174696F 
 2789              	.LASF53:
 2790 00ca 5344494F 		.ascii	"SDIO_DataLength\000"
 2790      5F446174 
 2790      614C656E 
ARM GAS  C:\Users\jsyoon\AppData\Local\Temp\cciBRxxg.s 			page 51


 2790      67746800 
 2791              	.LASF54:
 2792 00da 5344494F 		.ascii	"SDIO_DataBlockSize\000"
 2792      5F446174 
 2792      61426C6F 
 2792      636B5369 
 2792      7A6500
 2793              	.LASF103:
 2794 00ed 453A5C4D 		.ascii	"E:\\Maker\\BLDC\\test_eval\\try2\\OROCA-BLDC_R15080"
 2794      616B6572 
 2794      5C424C44 
 2794      435C7465 
 2794      73745F65 
 2795 011b 3700     		.ascii	"7\000"
 2796              	.LASF44:
 2797 011d 5344494F 		.ascii	"SDIO_ClockDiv\000"
 2797      5F436C6F 
 2797      636B4469 
 2797      7600
 2798              	.LASF9:
 2799 012b 6C6F6E67 		.ascii	"long long int\000"
 2799      206C6F6E 
 2799      6720696E 
 2799      7400
 2800              	.LASF85:
 2801 0139 5344494F 		.ascii	"SDIO_ReadWaitMode\000"
 2801      5F526561 
 2801      64576169 
 2801      744D6F64 
 2801      6500
 2802              	.LASF47:
 2803 014b 5344494F 		.ascii	"SDIO_CmdIndex\000"
 2803      5F436D64 
 2803      496E6465 
 2803      7800
 2804              	.LASF84:
 2805 0159 5344494F 		.ascii	"SDIO_SetSDIOReadWaitMode\000"
 2805      5F536574 
 2805      5344494F 
 2805      52656164 
 2805      57616974 
 2806              	.LASF83:
 2807 0172 5344494F 		.ascii	"SDIO_StopSDIOReadWait\000"
 2807      5F53746F 
 2807      70534449 
 2807      4F526561 
 2807      64576169 
 2808              	.LASF57:
 2809 0188 5344494F 		.ascii	"SDIO_DPSM\000"
 2809      5F445053 
 2809      4D00
 2810              	.LASF43:
 2811 0192 5344494F 		.ascii	"SDIO_HardwareFlowControl\000"
 2811      5F486172 
 2811      64776172 
 2811      65466C6F 
 2811      77436F6E 
ARM GAS  C:\Users\jsyoon\AppData\Local\Temp\cciBRxxg.s 			page 52


 2812              	.LASF2:
 2813 01ab 73686F72 		.ascii	"short int\000"
 2813      7420696E 
 2813      7400
 2814              	.LASF77:
 2815 01b5 5344494F 		.ascii	"SDIO_GetDataCounter\000"
 2815      5F476574 
 2815      44617461 
 2815      436F756E 
 2815      74657200 
 2816              	.LASF81:
 2817 01c9 5344494F 		.ascii	"SDIO_GetFIFOCount\000"
 2817      5F476574 
 2817      4649464F 
 2817      436F756E 
 2817      7400
 2818              	.LASF30:
 2819 01db 444C454E 		.ascii	"DLEN\000"
 2819      00
 2820              	.LASF12:
 2821 01e0 75696E74 		.ascii	"uint8_t\000"
 2821      385F7400 
 2822              	.LASF31:
 2823 01e8 44435452 		.ascii	"DCTRL\000"
 2823      4C00
 2824              	.LASF22:
 2825 01ee 504F5745 		.ascii	"POWER\000"
 2825      5200
 2826              	.LASF63:
 2827 01f4 5344494F 		.ascii	"SDIO_ClockCmd\000"
 2827      5F436C6F 
 2827      636B436D 
 2827      6400
 2828              	.LASF64:
 2829 0202 4E657753 		.ascii	"NewState\000"
 2829      74617465 
 2829      00
 2830              	.LASF19:
 2831 020b 44495341 		.ascii	"DISABLE\000"
 2831      424C4500 
 2832              	.LASF71:
 2833 0213 5344494F 		.ascii	"SDIO_GetPowerState\000"
 2833      5F476574 
 2833      506F7765 
 2833      72537461 
 2833      746500
 2834              	.LASF52:
 2835 0226 5344494F 		.ascii	"SDIO_DataTimeOut\000"
 2835      5F446174 
 2835      6154696D 
 2835      654F7574 
 2835      00
 2836              	.LASF48:
 2837 0237 5344494F 		.ascii	"SDIO_Response\000"
 2837      5F526573 
 2837      706F6E73 
 2837      6500
ARM GAS  C:\Users\jsyoon\AppData\Local\Temp\cciBRxxg.s 			page 53


 2838              	.LASF55:
 2839 0245 5344494F 		.ascii	"SDIO_TransferDir\000"
 2839      5F547261 
 2839      6E736665 
 2839      72446972 
 2839      00
 2840              	.LASF21:
 2841 0256 46756E63 		.ascii	"FunctionalState\000"
 2841      74696F6E 
 2841      616C5374 
 2841      61746500 
 2842              	.LASF62:
 2843 0266 5344494F 		.ascii	"SDIO_InitStruct\000"
 2843      5F496E69 
 2843      74537472 
 2843      75637400 
 2844              	.LASF82:
 2845 0276 5344494F 		.ascii	"SDIO_StartSDIOReadWait\000"
 2845      5F537461 
 2845      72745344 
 2845      494F5265 
 2845      61645761 
 2846              	.LASF37:
 2847 028d 4649464F 		.ascii	"FIFO\000"
 2847      00
 2848              	.LASF6:
 2849 0292 6C6F6E67 		.ascii	"long int\000"
 2849      20696E74 
 2849      00
 2850              	.LASF100:
 2851 029b 5344494F 		.ascii	"SDIO_ClearITPendingBit\000"
 2851      5F436C65 
 2851      61724954 
 2851      50656E64 
 2851      696E6742 
 2852              	.LASF91:
 2853 02b2 5344494F 		.ascii	"SDIO_DMACmd\000"
 2853      5F444D41 
 2853      436D6400 
 2854              	.LASF66:
 2855 02be 5344494F 		.ascii	"SDIO_PowerState\000"
 2855      5F506F77 
 2855      65725374 
 2855      61746500 
 2856              	.LASF4:
 2857 02ce 5F5F7569 		.ascii	"__uint8_t\000"
 2857      6E74385F 
 2857      7400
 2858              	.LASF80:
 2859 02d8 44617461 		.ascii	"Data\000"
 2859      00
 2860              	.LASF41:
 2861 02dd 5344494F 		.ascii	"SDIO_ClockPowerSave\000"
 2861      5F436C6F 
 2861      636B506F 
 2861      77657253 
 2861      61766500 
ARM GAS  C:\Users\jsyoon\AppData\Local\Temp\cciBRxxg.s 			page 54


 2862              	.LASF69:
 2863 02f1 746D7072 		.ascii	"tmpreg\000"
 2863      656700
 2864              	.LASF74:
 2865 02f8 5344494F 		.ascii	"SDIO_DataConfig\000"
 2865      5F446174 
 2865      61436F6E 
 2865      66696700 
 2866              	.LASF93:
 2867 0308 5344494F 		.ascii	"SDIO_IT\000"
 2867      5F495400 
 2868              	.LASF1:
 2869 0310 756E7369 		.ascii	"unsigned char\000"
 2869      676E6564 
 2869      20636861 
 2869      7200
 2870              	.LASF75:
 2871 031e 5344494F 		.ascii	"SDIO_DataInitStruct\000"
 2871      5F446174 
 2871      61496E69 
 2871      74537472 
 2871      75637400 
 2872              	.LASF101:
 2873 0332 474E5520 		.ascii	"GNU C 4.8.4 20140526 (release) [ARM/embedded-4_8-br"
 2873      4320342E 
 2873      382E3420 
 2873      32303134 
 2873      30353236 
 2874 0365 616E6368 		.ascii	"anch revision 211358] -mcpu=cortex-m4 -mfloat-abi=h"
 2874      20726576 
 2874      6973696F 
 2874      6E203231 
 2874      31333538 
 2875 0398 61726420 		.ascii	"ard -mfpu=fpv4-sp-d16 -mno-thumb-interwork -mthumb "
 2875      2D6D6670 
 2875      753D6670 
 2875      76342D73 
 2875      702D6431 
 2876 03cb 2D676764 		.ascii	"-ggdb -O2 -std=gnu99 -fomit-frame-pointer -falign-f"
 2876      62202D4F 
 2876      32202D73 
 2876      74643D67 
 2876      6E753939 
 2877 03fe 756E6374 		.ascii	"unctions=16 -ffunction-sections -fdata-sections -fn"
 2877      696F6E73 
 2877      3D313620 
 2877      2D666675 
 2877      6E637469 
 2878 0431 6F2D636F 		.ascii	"o-common -fsingle-precision-constant\000"
 2878      6D6D6F6E 
 2878      202D6673 
 2878      696E676C 
 2878      652D7072 
 2879              	.LASF0:
 2880 0456 7369676E 		.ascii	"signed char\000"
 2880      65642063 
 2880      68617200 
ARM GAS  C:\Users\jsyoon\AppData\Local\Temp\cciBRxxg.s 			page 55


 2881              	.LASF10:
 2882 0462 6C6F6E67 		.ascii	"long long unsigned int\000"
 2882      206C6F6E 
 2882      6720756E 
 2882      7369676E 
 2882      65642069 
 2883              	.LASF14:
 2884 0479 75696E74 		.ascii	"uint32_t\000"
 2884      33325F74 
 2884      00
 2885              	.LASF76:
 2886 0482 5344494F 		.ascii	"SDIO_DataStructInit\000"
 2886      5F446174 
 2886      61537472 
 2886      75637449 
 2886      6E697400 
 2887              	.LASF11:
 2888 0496 756E7369 		.ascii	"unsigned int\000"
 2888      676E6564 
 2888      20696E74 
 2888      00
 2889              	.LASF33:
 2890 04a3 4D41534B 		.ascii	"MASK\000"
 2890      00
 2891              	.LASF38:
 2892 04a8 5344494F 		.ascii	"SDIO_TypeDef\000"
 2892      5F547970 
 2892      65446566 
 2892      00
 2893              	.LASF94:
 2894 04b5 5344494F 		.ascii	"SDIO_GetResponse\000"
 2894      5F476574 
 2894      52657370 
 2894      6F6E7365 
 2894      00
 2895              	.LASF72:
 2896 04c6 5344494F 		.ascii	"SDIO_GetCommandResponse\000"
 2896      5F476574 
 2896      436F6D6D 
 2896      616E6452 
 2896      6573706F 
 2897              	.LASF105:
 2898 04de 5243435F 		.ascii	"RCC_APB2PeriphResetCmd\000"
 2898      41504232 
 2898      50657269 
 2898      70685265 
 2898      73657443 
 2899              	.LASF3:
 2900 04f5 73686F72 		.ascii	"short unsigned int\000"
 2900      7420756E 
 2900      7369676E 
 2900      65642069 
 2900      6E7400
 2901              	.LASF49:
 2902 0508 5344494F 		.ascii	"SDIO_Wait\000"
 2902      5F576169 
 2902      7400
ARM GAS  C:\Users\jsyoon\AppData\Local\Temp\cciBRxxg.s 			page 56


 2903              	.LASF25:
 2904 0512 52455350 		.ascii	"RESP1\000"
 2904      3100
 2905              	.LASF26:
 2906 0518 52455350 		.ascii	"RESP2\000"
 2906      3200
 2907              	.LASF27:
 2908 051e 52455350 		.ascii	"RESP3\000"
 2908      3300
 2909              	.LASF28:
 2910 0524 52455350 		.ascii	"RESP4\000"
 2910      3400
 2911              	.LASF13:
 2912 052a 696E7433 		.ascii	"int32_t\000"
 2912      325F7400 
 2913              	.LASF5:
 2914 0532 5F5F696E 		.ascii	"__int32_t\000"
 2914      7433325F 
 2914      7400
 2915              	.LASF96:
 2916 053c 5344494F 		.ascii	"SDIO_FLAG\000"
 2916      5F464C41 
 2916      4700
 2917              	.LASF18:
 2918 0546 49545374 		.ascii	"ITStatus\000"
 2918      61747573 
 2918      00
 2919              	.LASF34:
 2920 054f 52455345 		.ascii	"RESERVED0\000"
 2920      52564544 
 2920      3000
 2921              	.LASF36:
 2922 0559 52455345 		.ascii	"RESERVED1\000"
 2922      52564544 
 2922      3100
 2923              	.LASF8:
 2924 0563 6C6F6E67 		.ascii	"long unsigned int\000"
 2924      20756E73 
 2924      69676E65 
 2924      6420696E 
 2924      7400
 2925              	.LASF65:
 2926 0575 5344494F 		.ascii	"SDIO_SetPowerState\000"
 2926      5F536574 
 2926      506F7765 
 2926      72537461 
 2926      746500
 2927              	.LASF68:
 2928 0588 5344494F 		.ascii	"SDIO_CmdInitStruct\000"
 2928      5F436D64 
 2928      496E6974 
 2928      53747275 
 2928      637400
 2929              	.LASF23:
 2930 059b 434C4B43 		.ascii	"CLKCR\000"
 2930      5200
 2931              	.LASF90:
ARM GAS  C:\Users\jsyoon\AppData\Local\Temp\cciBRxxg.s 			page 57


 2932 05a1 5344494F 		.ascii	"SDIO_SendCEATACmd\000"
 2932      5F53656E 
 2932      64434541 
 2932      5441436D 
 2932      6400
 2933              	.LASF42:
 2934 05b3 5344494F 		.ascii	"SDIO_BusWide\000"
 2934      5F427573 
 2934      57696465 
 2934      00
 2935              	.LASF7:
 2936 05c0 5F5F7569 		.ascii	"__uint32_t\000"
 2936      6E743332 
 2936      5F7400
 2937              	.LASF102:
 2938 05cb 43686962 		.ascii	"ChibiOS_2.6.6/ext/stdperiph_stm32f4/src/stm32f4xx_s"
 2938      694F535F 
 2938      322E362E 
 2938      362F6578 
 2938      742F7374 
 2939 05fe 64696F2E 		.ascii	"dio.c\000"
 2939      6300
 2940              	.LASF70:
 2941 0604 5344494F 		.ascii	"SDIO_CmdStructInit\000"
 2941      5F436D64 
 2941      53747275 
 2941      6374496E 
 2941      697400
 2942              	.LASF88:
 2943 0617 5344494F 		.ascii	"SDIO_CommandCompletionCmd\000"
 2943      5F436F6D 
 2943      6D616E64 
 2943      436F6D70 
 2943      6C657469 
 2944              	.LASF51:
 2945 0631 5344494F 		.ascii	"SDIO_CmdInitTypeDef\000"
 2945      5F436D64 
 2945      496E6974 
 2945      54797065 
 2945      44656600 
 2946              	.LASF16:
 2947 0645 52455345 		.ascii	"RESET\000"
 2947      5400
 2948              	.LASF79:
 2949 064b 5344494F 		.ascii	"SDIO_WriteData\000"
 2949      5F577269 
 2949      74654461 
 2949      746100
 2950              	.LASF78:
 2951 065a 5344494F 		.ascii	"SDIO_ReadData\000"
 2951      5F526561 
 2951      64446174 
 2951      6100
 2952              	.LASF58:
 2953 0668 5344494F 		.ascii	"SDIO_DataInitTypeDef\000"
 2953      5F446174 
 2953      61496E69 
ARM GAS  C:\Users\jsyoon\AppData\Local\Temp\cciBRxxg.s 			page 58


 2953      74547970 
 2953      65446566 
 2954              	.LASF98:
 2955 067d 5344494F 		.ascii	"SDIO_ClearFlag\000"
 2955      5F436C65 
 2955      6172466C 
 2955      616700
 2956              	.LASF59:
 2957 068c 5344494F 		.ascii	"SDIO_DeInit\000"
 2957      5F446549 
 2957      6E697400 
 2958              	.LASF35:
 2959 0698 4649464F 		.ascii	"FIFOCNT\000"
 2959      434E5400 
 2960              	.LASF50:
 2961 06a0 5344494F 		.ascii	"SDIO_CPSM\000"
 2961      5F435053 
 2961      4D00
 2962              	.LASF61:
 2963 06aa 5344494F 		.ascii	"SDIO_StructInit\000"
 2963      5F537472 
 2963      75637449 
 2963      6E697400 
 2964              	.LASF104:
 2965 06ba 49544D5F 		.ascii	"ITM_RxBuffer\000"
 2965      52784275 
 2965      66666572 
 2965      00
 2966              	.LASF97:
 2967 06c7 62697473 		.ascii	"bitstatus\000"
 2967      74617475 
 2967      7300
 2968              	.LASF24:
 2969 06d1 52455350 		.ascii	"RESPCMD\000"
 2969      434D4400 
 2970              	.LASF95:
 2971 06d9 5344494F 		.ascii	"SDIO_GetFlagStatus\000"
 2971      5F476574 
 2971      466C6167 
 2971      53746174 
 2971      757300
 2972              	.LASF17:
 2973 06ec 466C6167 		.ascii	"FlagStatus\000"
 2973      53746174 
 2973      757300
 2974              	.LASF20:
 2975 06f7 454E4142 		.ascii	"ENABLE\000"
 2975      4C4500
 2976              	.LASF92:
 2977 06fe 5344494F 		.ascii	"SDIO_ITConfig\000"
 2977      5F495443 
 2977      6F6E6669 
 2977      6700
 2978              	.LASF56:
 2979 070c 5344494F 		.ascii	"SDIO_TransferMode\000"
 2979      5F547261 
 2979      6E736665 
ARM GAS  C:\Users\jsyoon\AppData\Local\Temp\cciBRxxg.s 			page 59


 2979      724D6F64 
 2979      6500
 2980              		.ident	"GCC: (GNU Tools for ARM Embedded Processors) 4.8.4 20140526 (release) [ARM/embedded-4_8-br
ARM GAS  C:\Users\jsyoon\AppData\Local\Temp\cciBRxxg.s 			page 60


DEFINED SYMBOLS
                            *ABS*:00000000 stm32f4xx_sdio.c
C:\Users\jsyoon\AppData\Local\Temp\cciBRxxg.s:21     .text.SDIO_DeInit:00000000 $t
C:\Users\jsyoon\AppData\Local\Temp\cciBRxxg.s:27     .text.SDIO_DeInit:00000000 SDIO_DeInit
C:\Users\jsyoon\AppData\Local\Temp\cciBRxxg.s:55     .text.SDIO_Init:00000000 $t
C:\Users\jsyoon\AppData\Local\Temp\cciBRxxg.s:61     .text.SDIO_Init:00000000 SDIO_Init
C:\Users\jsyoon\AppData\Local\Temp\cciBRxxg.s:115    .text.SDIO_Init:00000030 $d
C:\Users\jsyoon\AppData\Local\Temp\cciBRxxg.s:120    .text.SDIO_StructInit:00000000 $t
C:\Users\jsyoon\AppData\Local\Temp\cciBRxxg.s:126    .text.SDIO_StructInit:00000000 SDIO_StructInit
C:\Users\jsyoon\AppData\Local\Temp\cciBRxxg.s:152    .text.SDIO_ClockCmd:00000000 $t
C:\Users\jsyoon\AppData\Local\Temp\cciBRxxg.s:158    .text.SDIO_ClockCmd:00000000 SDIO_ClockCmd
C:\Users\jsyoon\AppData\Local\Temp\cciBRxxg.s:173    .text.SDIO_ClockCmd:00000008 $d
C:\Users\jsyoon\AppData\Local\Temp\cciBRxxg.s:178    .text.SDIO_SetPowerState:00000000 $t
C:\Users\jsyoon\AppData\Local\Temp\cciBRxxg.s:184    .text.SDIO_SetPowerState:00000000 SDIO_SetPowerState
C:\Users\jsyoon\AppData\Local\Temp\cciBRxxg.s:199    .text.SDIO_SetPowerState:00000008 $d
C:\Users\jsyoon\AppData\Local\Temp\cciBRxxg.s:204    .text.SDIO_GetPowerState:00000000 $t
C:\Users\jsyoon\AppData\Local\Temp\cciBRxxg.s:210    .text.SDIO_GetPowerState:00000000 SDIO_GetPowerState
C:\Users\jsyoon\AppData\Local\Temp\cciBRxxg.s:226    .text.SDIO_GetPowerState:0000000c $d
C:\Users\jsyoon\AppData\Local\Temp\cciBRxxg.s:231    .text.SDIO_SendCommand:00000000 $t
C:\Users\jsyoon\AppData\Local\Temp\cciBRxxg.s:237    .text.SDIO_SendCommand:00000000 SDIO_SendCommand
C:\Users\jsyoon\AppData\Local\Temp\cciBRxxg.s:289    .text.SDIO_SendCommand:00000028 $d
C:\Users\jsyoon\AppData\Local\Temp\cciBRxxg.s:294    .text.SDIO_CmdStructInit:00000000 $t
C:\Users\jsyoon\AppData\Local\Temp\cciBRxxg.s:300    .text.SDIO_CmdStructInit:00000000 SDIO_CmdStructInit
C:\Users\jsyoon\AppData\Local\Temp\cciBRxxg.s:324    .text.SDIO_GetCommandResponse:00000000 $t
C:\Users\jsyoon\AppData\Local\Temp\cciBRxxg.s:330    .text.SDIO_GetCommandResponse:00000000 SDIO_GetCommandResponse
C:\Users\jsyoon\AppData\Local\Temp\cciBRxxg.s:346    .text.SDIO_GetCommandResponse:00000008 $d
C:\Users\jsyoon\AppData\Local\Temp\cciBRxxg.s:351    .text.SDIO_GetResponse:00000000 $t
C:\Users\jsyoon\AppData\Local\Temp\cciBRxxg.s:357    .text.SDIO_GetResponse:00000000 SDIO_GetResponse
C:\Users\jsyoon\AppData\Local\Temp\cciBRxxg.s:388    .text.SDIO_GetResponse:00000014 $d
C:\Users\jsyoon\AppData\Local\Temp\cciBRxxg.s:393    .text.SDIO_DataConfig:00000000 $t
C:\Users\jsyoon\AppData\Local\Temp\cciBRxxg.s:399    .text.SDIO_DataConfig:00000000 SDIO_DataConfig
C:\Users\jsyoon\AppData\Local\Temp\cciBRxxg.s:450    .text.SDIO_DataConfig:00000028 $d
C:\Users\jsyoon\AppData\Local\Temp\cciBRxxg.s:455    .text.SDIO_DataStructInit:00000000 $t
C:\Users\jsyoon\AppData\Local\Temp\cciBRxxg.s:461    .text.SDIO_DataStructInit:00000000 SDIO_DataStructInit
C:\Users\jsyoon\AppData\Local\Temp\cciBRxxg.s:486    .text.SDIO_GetDataCounter:00000000 $t
C:\Users\jsyoon\AppData\Local\Temp\cciBRxxg.s:492    .text.SDIO_GetDataCounter:00000000 SDIO_GetDataCounter
C:\Users\jsyoon\AppData\Local\Temp\cciBRxxg.s:507    .text.SDIO_GetDataCounter:00000008 $d
C:\Users\jsyoon\AppData\Local\Temp\cciBRxxg.s:512    .text.SDIO_ReadData:00000000 $t
C:\Users\jsyoon\AppData\Local\Temp\cciBRxxg.s:518    .text.SDIO_ReadData:00000000 SDIO_ReadData
C:\Users\jsyoon\AppData\Local\Temp\cciBRxxg.s:533    .text.SDIO_ReadData:00000008 $d
C:\Users\jsyoon\AppData\Local\Temp\cciBRxxg.s:538    .text.SDIO_WriteData:00000000 $t
C:\Users\jsyoon\AppData\Local\Temp\cciBRxxg.s:544    .text.SDIO_WriteData:00000000 SDIO_WriteData
C:\Users\jsyoon\AppData\Local\Temp\cciBRxxg.s:559    .text.SDIO_WriteData:00000008 $d
C:\Users\jsyoon\AppData\Local\Temp\cciBRxxg.s:564    .text.SDIO_GetFIFOCount:00000000 $t
C:\Users\jsyoon\AppData\Local\Temp\cciBRxxg.s:570    .text.SDIO_GetFIFOCount:00000000 SDIO_GetFIFOCount
C:\Users\jsyoon\AppData\Local\Temp\cciBRxxg.s:585    .text.SDIO_GetFIFOCount:00000008 $d
C:\Users\jsyoon\AppData\Local\Temp\cciBRxxg.s:590    .text.SDIO_StartSDIOReadWait:00000000 $t
C:\Users\jsyoon\AppData\Local\Temp\cciBRxxg.s:596    .text.SDIO_StartSDIOReadWait:00000000 SDIO_StartSDIOReadWait
C:\Users\jsyoon\AppData\Local\Temp\cciBRxxg.s:611    .text.SDIO_StartSDIOReadWait:00000008 $d
C:\Users\jsyoon\AppData\Local\Temp\cciBRxxg.s:616    .text.SDIO_StopSDIOReadWait:00000000 $t
C:\Users\jsyoon\AppData\Local\Temp\cciBRxxg.s:622    .text.SDIO_StopSDIOReadWait:00000000 SDIO_StopSDIOReadWait
C:\Users\jsyoon\AppData\Local\Temp\cciBRxxg.s:637    .text.SDIO_StopSDIOReadWait:00000008 $d
C:\Users\jsyoon\AppData\Local\Temp\cciBRxxg.s:642    .text.SDIO_SetSDIOReadWaitMode:00000000 $t
C:\Users\jsyoon\AppData\Local\Temp\cciBRxxg.s:648    .text.SDIO_SetSDIOReadWaitMode:00000000 SDIO_SetSDIOReadWaitMode
C:\Users\jsyoon\AppData\Local\Temp\cciBRxxg.s:663    .text.SDIO_SetSDIOReadWaitMode:00000008 $d
C:\Users\jsyoon\AppData\Local\Temp\cciBRxxg.s:668    .text.SDIO_SetSDIOOperation:00000000 $t
C:\Users\jsyoon\AppData\Local\Temp\cciBRxxg.s:674    .text.SDIO_SetSDIOOperation:00000000 SDIO_SetSDIOOperation
ARM GAS  C:\Users\jsyoon\AppData\Local\Temp\cciBRxxg.s 			page 61


C:\Users\jsyoon\AppData\Local\Temp\cciBRxxg.s:689    .text.SDIO_SetSDIOOperation:00000008 $d
C:\Users\jsyoon\AppData\Local\Temp\cciBRxxg.s:694    .text.SDIO_SendSDIOSuspendCmd:00000000 $t
C:\Users\jsyoon\AppData\Local\Temp\cciBRxxg.s:700    .text.SDIO_SendSDIOSuspendCmd:00000000 SDIO_SendSDIOSuspendCmd
C:\Users\jsyoon\AppData\Local\Temp\cciBRxxg.s:715    .text.SDIO_SendSDIOSuspendCmd:00000008 $d
C:\Users\jsyoon\AppData\Local\Temp\cciBRxxg.s:720    .text.SDIO_CommandCompletionCmd:00000000 $t
C:\Users\jsyoon\AppData\Local\Temp\cciBRxxg.s:726    .text.SDIO_CommandCompletionCmd:00000000 SDIO_CommandCompletionCmd
C:\Users\jsyoon\AppData\Local\Temp\cciBRxxg.s:741    .text.SDIO_CommandCompletionCmd:00000008 $d
C:\Users\jsyoon\AppData\Local\Temp\cciBRxxg.s:746    .text.SDIO_CEATAITCmd:00000000 $t
C:\Users\jsyoon\AppData\Local\Temp\cciBRxxg.s:752    .text.SDIO_CEATAITCmd:00000000 SDIO_CEATAITCmd
C:\Users\jsyoon\AppData\Local\Temp\cciBRxxg.s:770    .text.SDIO_CEATAITCmd:00000010 $d
C:\Users\jsyoon\AppData\Local\Temp\cciBRxxg.s:775    .text.SDIO_SendCEATACmd:00000000 $t
C:\Users\jsyoon\AppData\Local\Temp\cciBRxxg.s:781    .text.SDIO_SendCEATACmd:00000000 SDIO_SendCEATACmd
C:\Users\jsyoon\AppData\Local\Temp\cciBRxxg.s:796    .text.SDIO_SendCEATACmd:00000008 $d
C:\Users\jsyoon\AppData\Local\Temp\cciBRxxg.s:801    .text.SDIO_DMACmd:00000000 $t
C:\Users\jsyoon\AppData\Local\Temp\cciBRxxg.s:807    .text.SDIO_DMACmd:00000000 SDIO_DMACmd
C:\Users\jsyoon\AppData\Local\Temp\cciBRxxg.s:822    .text.SDIO_DMACmd:00000008 $d
C:\Users\jsyoon\AppData\Local\Temp\cciBRxxg.s:827    .text.SDIO_ITConfig:00000000 $t
C:\Users\jsyoon\AppData\Local\Temp\cciBRxxg.s:833    .text.SDIO_ITConfig:00000000 SDIO_ITConfig
C:\Users\jsyoon\AppData\Local\Temp\cciBRxxg.s:861    .text.SDIO_ITConfig:00000014 $d
C:\Users\jsyoon\AppData\Local\Temp\cciBRxxg.s:866    .text.SDIO_GetFlagStatus:00000000 $t
C:\Users\jsyoon\AppData\Local\Temp\cciBRxxg.s:872    .text.SDIO_GetFlagStatus:00000000 SDIO_GetFlagStatus
C:\Users\jsyoon\AppData\Local\Temp\cciBRxxg.s:894    .text.SDIO_GetFlagStatus:00000010 $d
C:\Users\jsyoon\AppData\Local\Temp\cciBRxxg.s:899    .text.SDIO_ClearFlag:00000000 $t
C:\Users\jsyoon\AppData\Local\Temp\cciBRxxg.s:905    .text.SDIO_ClearFlag:00000000 SDIO_ClearFlag
C:\Users\jsyoon\AppData\Local\Temp\cciBRxxg.s:920    .text.SDIO_ClearFlag:00000008 $d
C:\Users\jsyoon\AppData\Local\Temp\cciBRxxg.s:925    .text.SDIO_GetITStatus:00000000 $t
C:\Users\jsyoon\AppData\Local\Temp\cciBRxxg.s:931    .text.SDIO_GetITStatus:00000000 SDIO_GetITStatus
C:\Users\jsyoon\AppData\Local\Temp\cciBRxxg.s:953    .text.SDIO_GetITStatus:00000010 $d
C:\Users\jsyoon\AppData\Local\Temp\cciBRxxg.s:958    .text.SDIO_ClearITPendingBit:00000000 $t
C:\Users\jsyoon\AppData\Local\Temp\cciBRxxg.s:964    .text.SDIO_ClearITPendingBit:00000000 SDIO_ClearITPendingBit
C:\Users\jsyoon\AppData\Local\Temp\cciBRxxg.s:979    .text.SDIO_ClearITPendingBit:00000008 $d
                     .debug_frame:00000010 $d
C:\Users\jsyoon\AppData\Local\Temp\cciBRxxg.s:119    .text.SDIO_Init:00000034 $t
C:\Users\jsyoon\AppData\Local\Temp\cciBRxxg.s:177    .text.SDIO_ClockCmd:0000000c $t
C:\Users\jsyoon\AppData\Local\Temp\cciBRxxg.s:203    .text.SDIO_SetPowerState:0000000c $t
C:\Users\jsyoon\AppData\Local\Temp\cciBRxxg.s:293    .text.SDIO_SendCommand:0000002c $t
C:\Users\jsyoon\AppData\Local\Temp\cciBRxxg.s:350    .text.SDIO_GetCommandResponse:0000000c $t
C:\Users\jsyoon\AppData\Local\Temp\cciBRxxg.s:392    .text.SDIO_GetResponse:00000018 $t
C:\Users\jsyoon\AppData\Local\Temp\cciBRxxg.s:454    .text.SDIO_DataConfig:0000002c $t
C:\Users\jsyoon\AppData\Local\Temp\cciBRxxg.s:511    .text.SDIO_GetDataCounter:0000000c $t
C:\Users\jsyoon\AppData\Local\Temp\cciBRxxg.s:537    .text.SDIO_ReadData:0000000c $t
C:\Users\jsyoon\AppData\Local\Temp\cciBRxxg.s:563    .text.SDIO_WriteData:0000000c $t
C:\Users\jsyoon\AppData\Local\Temp\cciBRxxg.s:589    .text.SDIO_GetFIFOCount:0000000c $t
C:\Users\jsyoon\AppData\Local\Temp\cciBRxxg.s:615    .text.SDIO_StartSDIOReadWait:0000000c $t
C:\Users\jsyoon\AppData\Local\Temp\cciBRxxg.s:641    .text.SDIO_StopSDIOReadWait:0000000c $t
C:\Users\jsyoon\AppData\Local\Temp\cciBRxxg.s:667    .text.SDIO_SetSDIOReadWaitMode:0000000c $t
C:\Users\jsyoon\AppData\Local\Temp\cciBRxxg.s:693    .text.SDIO_SetSDIOOperation:0000000c $t
C:\Users\jsyoon\AppData\Local\Temp\cciBRxxg.s:719    .text.SDIO_SendSDIOSuspendCmd:0000000c $t
C:\Users\jsyoon\AppData\Local\Temp\cciBRxxg.s:745    .text.SDIO_CommandCompletionCmd:0000000c $t
C:\Users\jsyoon\AppData\Local\Temp\cciBRxxg.s:774    .text.SDIO_CEATAITCmd:00000014 $t
C:\Users\jsyoon\AppData\Local\Temp\cciBRxxg.s:800    .text.SDIO_SendCEATACmd:0000000c $t
C:\Users\jsyoon\AppData\Local\Temp\cciBRxxg.s:826    .text.SDIO_DMACmd:0000000c $t
C:\Users\jsyoon\AppData\Local\Temp\cciBRxxg.s:865    .text.SDIO_ITConfig:00000018 $t
C:\Users\jsyoon\AppData\Local\Temp\cciBRxxg.s:898    .text.SDIO_GetFlagStatus:00000014 $t
C:\Users\jsyoon\AppData\Local\Temp\cciBRxxg.s:924    .text.SDIO_ClearFlag:0000000c $t
C:\Users\jsyoon\AppData\Local\Temp\cciBRxxg.s:957    .text.SDIO_GetITStatus:00000014 $t
C:\Users\jsyoon\AppData\Local\Temp\cciBRxxg.s:983    .text.SDIO_ClearITPendingBit:0000000c $t
ARM GAS  C:\Users\jsyoon\AppData\Local\Temp\cciBRxxg.s 			page 62



UNDEFINED SYMBOLS
RCC_APB2PeriphResetCmd
