ARM GAS  C:\Users\jsyoon\AppData\Local\Temp\ccHEUWmT.s 			page 1


   1              		.syntax unified
   2              		.cpu cortex-m4
   3              		.eabi_attribute 27, 3
   4              		.eabi_attribute 28, 1
   5              		.fpu fpv4-sp-d16
   6              		.eabi_attribute 20, 1
   7              		.eabi_attribute 21, 1
   8              		.eabi_attribute 23, 3
   9              		.eabi_attribute 24, 1
  10              		.eabi_attribute 25, 1
  11              		.eabi_attribute 26, 1
  12              		.eabi_attribute 30, 2
  13              		.eabi_attribute 34, 1
  14              		.eabi_attribute 18, 4
  15              		.thumb
  16              		.file	"stm32f4xx_rtc.c"
  17              		.text
  18              	.Ltext0:
  19              		.cfi_sections	.debug_frame
  20              		.section	.text.RTC_StructInit,"ax",%progbits
  21              		.align	2
  22              		.p2align 4,,15
  23              		.global	RTC_StructInit
  24              		.thumb
  25              		.thumb_func
  26              		.type	RTC_StructInit, %function
  27              	RTC_StructInit:
  28              	.LFB113:
  29              		.file 1 "ChibiOS_2.6.6/ext/stdperiph_stm32f4/src/stm32f4xx_rtc.c"
  30              		.loc 1 502 0
  31              		.cfi_startproc
  32              		@ args = 0, pretend = 0, frame = 0
  33              		@ frame_needed = 0, uses_anonymous_args = 0
  34              		@ link register save eliminated.
  35              	.LVL0:
  36              		.loc 1 510 0
  37 0000 0021     		movs	r1, #0
  38 0002 7F22     		movs	r2, #127
  39 0004 FF23     		movs	r3, #255
  40 0006 80E80E00 		stmia	r0, {r1, r2, r3}
  41 000a 7047     		bx	lr
  42              		.cfi_endproc
  43              	.LFE113:
  44              		.size	RTC_StructInit, .-RTC_StructInit
  45 000c AFF30080 		.section	.text.RTC_WriteProtectionCmd,"ax",%progbits
  46              		.align	2
  47              		.p2align 4,,15
  48              		.global	RTC_WriteProtectionCmd
  49              		.thumb
  50              		.thumb_func
  51              		.type	RTC_WriteProtectionCmd, %function
  52              	RTC_WriteProtectionCmd:
  53              	.LFB114:
  54              		.loc 1 524 0
  55              		.cfi_startproc
  56              		@ args = 0, pretend = 0, frame = 0
  57              		@ frame_needed = 0, uses_anonymous_args = 0
ARM GAS  C:\Users\jsyoon\AppData\Local\Temp\ccHEUWmT.s 			page 2


  58              		@ link register save eliminated.
  59              	.LVL1:
  60              		.loc 1 531 0
  61 0000 044B     		ldr	r3, .L7
  62              		.loc 1 528 0
  63 0002 20B9     		cbnz	r0, .L6
  64              		.loc 1 536 0
  65 0004 CA21     		movs	r1, #202
  66              		.loc 1 537 0
  67 0006 5322     		movs	r2, #83
  68              		.loc 1 536 0
  69 0008 5962     		str	r1, [r3, #36]
  70              		.loc 1 537 0
  71 000a 5A62     		str	r2, [r3, #36]
  72 000c 7047     		bx	lr
  73              	.L6:
  74              		.loc 1 531 0
  75 000e FF22     		movs	r2, #255
  76 0010 5A62     		str	r2, [r3, #36]
  77 0012 7047     		bx	lr
  78              	.L8:
  79              		.align	2
  80              	.L7:
  81 0014 00280040 		.word	1073752064
  82              		.cfi_endproc
  83              	.LFE114:
  84              		.size	RTC_WriteProtectionCmd, .-RTC_WriteProtectionCmd
  85 0018 AFF30080 		.section	.text.RTC_EnterInitMode,"ax",%progbits
  85      AFF30080 
  86              		.align	2
  87              		.p2align 4,,15
  88              		.global	RTC_EnterInitMode
  89              		.thumb
  90              		.thumb_func
  91              		.type	RTC_EnterInitMode, %function
  92              	RTC_EnterInitMode:
  93              	.LFB115:
  94              		.loc 1 551 0
  95              		.cfi_startproc
  96              		@ args = 0, pretend = 0, frame = 8
  97              		@ frame_needed = 0, uses_anonymous_args = 0
  98              		@ link register save eliminated.
  99 0000 82B0     		sub	sp, sp, #8
 100              		.cfi_def_cfa_offset 8
 101              		.loc 1 552 0
 102 0002 0023     		movs	r3, #0
 103              		.loc 1 557 0
 104 0004 0E49     		ldr	r1, .L18
 105              		.loc 1 552 0
 106 0006 0193     		str	r3, [sp, #4]
 107              	.LVL2:
 108              		.loc 1 557 0
 109 0008 CB68     		ldr	r3, [r1, #12]
 110 000a 5B06     		lsls	r3, r3, #25
 111 000c 14D4     		bmi	.L13
 112              		.loc 1 560 0
 113 000e 4FF0FF33 		mov	r3, #-1
ARM GAS  C:\Users\jsyoon\AppData\Local\Temp\ccHEUWmT.s 			page 3


 114 0012 CB60     		str	r3, [r1, #12]
 115 0014 00E0     		b	.L12
 116              	.LVL3:
 117              	.L17:
 118              		.loc 1 567 0 discriminator 1
 119 0016 4AB9     		cbnz	r2, .L11
 120              	.LVL4:
 121              	.L12:
 122              		.loc 1 565 0 discriminator 1
 123 0018 CA68     		ldr	r2, [r1, #12]
 124              		.loc 1 566 0 discriminator 1
 125 001a 019B     		ldr	r3, [sp, #4]
 126 001c 0133     		adds	r3, r3, #1
 127 001e 0193     		str	r3, [sp, #4]
 128              		.loc 1 567 0 discriminator 1
 129 0020 019B     		ldr	r3, [sp, #4]
 130 0022 B3F5803F 		cmp	r3, #65536
 131              		.loc 1 565 0 discriminator 1
 132 0026 02F04002 		and	r2, r2, #64
 133              	.LVL5:
 134              		.loc 1 567 0 discriminator 1
 135 002a F4D1     		bne	.L17
 136              	.L11:
 137              	.LBB80:
 138              	.LBB81:
 139              		.loc 1 569 0
 140 002c 044B     		ldr	r3, .L18
 141 002e D868     		ldr	r0, [r3, #12]
 142              		.loc 1 571 0
 143 0030 C0F38010 		ubfx	r0, r0, #6, #1
 144              	.LVL6:
 145              	.LBE81:
 146              	.LBE80:
 147              		.loc 1 584 0
 148 0034 02B0     		add	sp, sp, #8
 149              		@ sp needed
 150 0036 7047     		bx	lr
 151              	.LVL7:
 152              	.L13:
 153              		.loc 1 580 0
 154 0038 0120     		movs	r0, #1
 155              	.LVL8:
 156              		.loc 1 584 0
 157 003a 02B0     		add	sp, sp, #8
 158              		@ sp needed
 159 003c 7047     		bx	lr
 160              	.L19:
 161 003e 00BF     		.align	2
 162              	.L18:
 163 0040 00280040 		.word	1073752064
 164              		.cfi_endproc
 165              	.LFE115:
 166              		.size	RTC_EnterInitMode, .-RTC_EnterInitMode
 167 0044 AFF30080 		.section	.text.RTC_Init,"ax",%progbits
 167      AFF30080 
 167      AFF30080 
 168              		.align	2
ARM GAS  C:\Users\jsyoon\AppData\Local\Temp\ccHEUWmT.s 			page 4


 169              		.p2align 4,,15
 170              		.global	RTC_Init
 171              		.thumb
 172              		.thumb_func
 173              		.type	RTC_Init, %function
 174              	RTC_Init:
 175              	.LFB112:
 176              		.loc 1 456 0
 177              		.cfi_startproc
 178              		@ args = 0, pretend = 0, frame = 0
 179              		@ frame_needed = 0, uses_anonymous_args = 0
 180              	.LVL9:
 181 0000 38B5     		push	{r3, r4, r5, lr}
 182              		.cfi_def_cfa_offset 16
 183              		.cfi_offset 3, -16
 184              		.cfi_offset 4, -12
 185              		.cfi_offset 5, -8
 186              		.cfi_offset 14, -4
 187              		.loc 1 465 0
 188 0002 104C     		ldr	r4, .L23
 189 0004 CA22     		movs	r2, #202
 190              		.loc 1 466 0
 191 0006 5323     		movs	r3, #83
 192              		.loc 1 465 0
 193 0008 6262     		str	r2, [r4, #36]
 194              		.loc 1 466 0
 195 000a 6362     		str	r3, [r4, #36]
 196              		.loc 1 456 0
 197 000c 0546     		mov	r5, r0
 198              		.loc 1 469 0
 199 000e FFF7FEFF 		bl	RTC_EnterInitMode
 200              	.LVL10:
 201 0012 98B1     		cbz	r0, .L21
 202              		.loc 1 476 0
 203 0014 A368     		ldr	r3, [r4, #8]
 204 0016 23F04003 		bic	r3, r3, #64
 205 001a A360     		str	r3, [r4, #8]
 206              		.loc 1 478 0
 207 001c A268     		ldr	r2, [r4, #8]
 208 001e 2B68     		ldr	r3, [r5]
 209 0020 1343     		orrs	r3, r3, r2
 210 0022 A360     		str	r3, [r4, #8]
 211              		.loc 1 481 0
 212 0024 AB68     		ldr	r3, [r5, #8]
 213 0026 2361     		str	r3, [r4, #16]
 214              		.loc 1 482 0
 215 0028 2369     		ldr	r3, [r4, #16]
 216 002a 6A68     		ldr	r2, [r5, #4]
 217 002c 43EA0243 		orr	r3, r3, r2, lsl #16
 218 0030 2361     		str	r3, [r4, #16]
 219              	.LBB82:
 220              	.LBB83:
 221              		.loc 1 598 0
 222 0032 E368     		ldr	r3, [r4, #12]
 223 0034 23F08003 		bic	r3, r3, #128
 224 0038 E360     		str	r3, [r4, #12]
 225              	.LVL11:
ARM GAS  C:\Users\jsyoon\AppData\Local\Temp\ccHEUWmT.s 			page 5


 226              	.LBE83:
 227              	.LBE82:
 228              		.loc 1 487 0
 229 003a 0120     		movs	r0, #1
 230              	.LVL12:
 231              	.L21:
 232              		.loc 1 490 0
 233 003c 014B     		ldr	r3, .L23
 234 003e FF22     		movs	r2, #255
 235 0040 5A62     		str	r2, [r3, #36]
 236              		.loc 1 493 0
 237 0042 38BD     		pop	{r3, r4, r5, pc}
 238              	.LVL13:
 239              	.L24:
 240              		.align	2
 241              	.L23:
 242 0044 00280040 		.word	1073752064
 243              		.cfi_endproc
 244              	.LFE112:
 245              		.size	RTC_Init, .-RTC_Init
 246 0048 AFF30080 		.section	.text.RTC_ExitInitMode,"ax",%progbits
 246      AFF30080 
 247              		.align	2
 248              		.p2align 4,,15
 249              		.global	RTC_ExitInitMode
 250              		.thumb
 251              		.thumb_func
 252              		.type	RTC_ExitInitMode, %function
 253              	RTC_ExitInitMode:
 254              	.LFB116:
 255              		.loc 1 596 0
 256              		.cfi_startproc
 257              		@ args = 0, pretend = 0, frame = 0
 258              		@ frame_needed = 0, uses_anonymous_args = 0
 259              		@ link register save eliminated.
 260              		.loc 1 598 0
 261 0000 024B     		ldr	r3, .L26
 262 0002 DA68     		ldr	r2, [r3, #12]
 263 0004 22F08002 		bic	r2, r2, #128
 264 0008 DA60     		str	r2, [r3, #12]
 265 000a 7047     		bx	lr
 266              	.L27:
 267              		.align	2
 268              	.L26:
 269 000c 00280040 		.word	1073752064
 270              		.cfi_endproc
 271              	.LFE116:
 272              		.size	RTC_ExitInitMode, .-RTC_ExitInitMode
 273              		.section	.text.RTC_WaitForSynchro,"ax",%progbits
 274              		.align	2
 275              		.p2align 4,,15
 276              		.global	RTC_WaitForSynchro
 277              		.thumb
 278              		.thumb_func
 279              		.type	RTC_WaitForSynchro, %function
 280              	RTC_WaitForSynchro:
 281              	.LFB117:
ARM GAS  C:\Users\jsyoon\AppData\Local\Temp\ccHEUWmT.s 			page 6


 282              		.loc 1 618 0
 283              		.cfi_startproc
 284              		@ args = 0, pretend = 0, frame = 8
 285              		@ frame_needed = 0, uses_anonymous_args = 0
 286              		@ link register save eliminated.
 287              		.loc 1 624 0
 288 0000 0F49     		ldr	r1, .L35
 289              		.loc 1 618 0
 290 0002 82B0     		sub	sp, sp, #8
 291              		.cfi_def_cfa_offset 8
 292              		.loc 1 625 0
 293 0004 5323     		movs	r3, #83
 294              		.loc 1 619 0
 295 0006 0020     		movs	r0, #0
 296              		.loc 1 624 0
 297 0008 CA22     		movs	r2, #202
 298              		.loc 1 619 0
 299 000a 0190     		str	r0, [sp, #4]
 300              	.LVL14:
 301              		.loc 1 624 0
 302 000c 4A62     		str	r2, [r1, #36]
 303              		.loc 1 625 0
 304 000e 4B62     		str	r3, [r1, #36]
 305              		.loc 1 628 0
 306 0010 CB68     		ldr	r3, [r1, #12]
 307 0012 23F0A003 		bic	r3, r3, #160
 308 0016 CB60     		str	r3, [r1, #12]
 309 0018 00E0     		b	.L30
 310              	.LVL15:
 311              	.L34:
 312              		.loc 1 635 0 discriminator 1
 313 001a 4AB9     		cbnz	r2, .L29
 314              	.LVL16:
 315              	.L30:
 316              		.loc 1 633 0 discriminator 1
 317 001c CA68     		ldr	r2, [r1, #12]
 318              		.loc 1 634 0 discriminator 1
 319 001e 019B     		ldr	r3, [sp, #4]
 320 0020 0133     		adds	r3, r3, #1
 321 0022 0193     		str	r3, [sp, #4]
 322              		.loc 1 635 0 discriminator 1
 323 0024 019B     		ldr	r3, [sp, #4]
 324 0026 B3F5003F 		cmp	r3, #131072
 325              		.loc 1 633 0 discriminator 1
 326 002a 02F02002 		and	r2, r2, #32
 327              	.LVL17:
 328              		.loc 1 635 0 discriminator 1
 329 002e F4D1     		bne	.L34
 330              	.L29:
 331              		.loc 1 637 0
 332 0030 034B     		ldr	r3, .L35
 333 0032 D868     		ldr	r0, [r3, #12]
 334              	.LVL18:
 335              		.loc 1 647 0
 336 0034 FF22     		movs	r2, #255
 337              	.LVL19:
 338              		.loc 1 650 0
ARM GAS  C:\Users\jsyoon\AppData\Local\Temp\ccHEUWmT.s 			page 7


 339 0036 C0F34010 		ubfx	r0, r0, #5, #1
 340              	.LVL20:
 341              		.loc 1 647 0
 342 003a 5A62     		str	r2, [r3, #36]
 343              		.loc 1 650 0
 344 003c 02B0     		add	sp, sp, #8
 345              		@ sp needed
 346 003e 7047     		bx	lr
 347              	.L36:
 348              		.align	2
 349              	.L35:
 350 0040 00280040 		.word	1073752064
 351              		.cfi_endproc
 352              	.LFE117:
 353              		.size	RTC_WaitForSynchro, .-RTC_WaitForSynchro
 354 0044 AFF30080 		.section	.text.RTC_DeInit,"ax",%progbits
 354      AFF30080 
 354      AFF30080 
 355              		.align	2
 356              		.p2align 4,,15
 357              		.global	RTC_DeInit
 358              		.thumb
 359              		.thumb_func
 360              		.type	RTC_DeInit, %function
 361              	RTC_DeInit:
 362              	.LFB111:
 363              		.loc 1 374 0
 364              		.cfi_startproc
 365              		@ args = 0, pretend = 0, frame = 8
 366              		@ frame_needed = 0, uses_anonymous_args = 0
 367 0000 30B5     		push	{r4, r5, lr}
 368              		.cfi_def_cfa_offset 12
 369              		.cfi_offset 4, -12
 370              		.cfi_offset 5, -8
 371              		.cfi_offset 14, -4
 372              		.loc 1 380 0
 373 0002 204C     		ldr	r4, .L51
 374              		.loc 1 374 0
 375 0004 83B0     		sub	sp, sp, #12
 376              		.cfi_def_cfa_offset 24
 377              		.loc 1 375 0
 378 0006 0025     		movs	r5, #0
 379              		.loc 1 380 0
 380 0008 CA22     		movs	r2, #202
 381              		.loc 1 381 0
 382 000a 5323     		movs	r3, #83
 383              		.loc 1 375 0
 384 000c 0195     		str	r5, [sp, #4]
 385              	.LVL21:
 386              		.loc 1 380 0
 387 000e 6262     		str	r2, [r4, #36]
 388              		.loc 1 381 0
 389 0010 6362     		str	r3, [r4, #36]
 390              		.loc 1 384 0
 391 0012 FFF7FEFF 		bl	RTC_EnterInitMode
 392              	.LVL22:
 393 0016 C0B1     		cbz	r0, .L42
ARM GAS  C:\Users\jsyoon\AppData\Local\Temp\ccHEUWmT.s 			page 8


 394              		.loc 1 392 0
 395 0018 42F20113 		movw	r3, #8449
 396              		.loc 1 391 0
 397 001c 2560     		str	r5, [r4]
 398              		.loc 1 392 0
 399 001e 6360     		str	r3, [r4, #4]
 400              		.loc 1 394 0
 401 0020 A368     		ldr	r3, [r4, #8]
 402 0022 03F00703 		and	r3, r3, #7
 403 0026 A360     		str	r3, [r4, #8]
 404              		.loc 1 399 0
 405 0028 2146     		mov	r1, r4
 406 002a 00E0     		b	.L41
 407              	.LVL23:
 408              	.L49:
 409              		.loc 1 401 0 discriminator 1
 410 002c 4AB9     		cbnz	r2, .L40
 411              	.LVL24:
 412              	.L41:
 413              		.loc 1 399 0 discriminator 1
 414 002e CA68     		ldr	r2, [r1, #12]
 415              		.loc 1 400 0 discriminator 1
 416 0030 019B     		ldr	r3, [sp, #4]
 417 0032 0133     		adds	r3, r3, #1
 418 0034 0193     		str	r3, [sp, #4]
 419              		.loc 1 401 0 discriminator 1
 420 0036 019B     		ldr	r3, [sp, #4]
 421 0038 B3F5803F 		cmp	r3, #65536
 422              		.loc 1 399 0 discriminator 1
 423 003c 02F00402 		and	r2, r2, #4
 424              	.LVL25:
 425              		.loc 1 401 0 discriminator 1
 426 0040 F4D1     		bne	.L49
 427              	.L40:
 428              		.loc 1 403 0
 429 0042 104B     		ldr	r3, .L51
 430 0044 DA68     		ldr	r2, [r3, #12]
 431              	.LVL26:
 432 0046 5207     		lsls	r2, r2, #29
 433 0048 05D4     		bmi	.L50
 434              	.L42:
 435              		.loc 1 386 0
 436 004a 0020     		movs	r0, #0
 437              	.L39:
 438              	.LVL27:
 439              		.loc 1 439 0
 440 004c 0D4B     		ldr	r3, .L51
 441 004e FF22     		movs	r2, #255
 442 0050 5A62     		str	r2, [r3, #36]
 443              		.loc 1 442 0
 444 0052 03B0     		add	sp, sp, #12
 445              		@ sp needed
 446 0054 30BD     		pop	{r4, r5, pc}
 447              	.LVL28:
 448              	.L50:
 449              		.loc 1 410 0
 450 0056 0022     		movs	r2, #0
ARM GAS  C:\Users\jsyoon\AppData\Local\Temp\ccHEUWmT.s 			page 9


 451              		.loc 1 411 0
 452 0058 4FF6FF70 		movw	r0, #65535
 453              		.loc 1 412 0
 454 005c 0A49     		ldr	r1, .L51+4
 455              		.loc 1 410 0
 456 005e 9C68     		ldr	r4, [r3, #8]
 457 0060 9A60     		str	r2, [r3, #8]
 458              		.loc 1 411 0
 459 0062 5861     		str	r0, [r3, #20]
 460              		.loc 1 412 0
 461 0064 1961     		str	r1, [r3, #16]
 462              		.loc 1 413 0
 463 0066 9A61     		str	r2, [r3, #24]
 464              		.loc 1 414 0
 465 0068 DA61     		str	r2, [r3, #28]
 466              		.loc 1 415 0
 467 006a 1A62     		str	r2, [r3, #32]
 468              		.loc 1 416 0
 469 006c DA62     		str	r2, [r3, #44]
 470              		.loc 1 417 0
 471 006e DA63     		str	r2, [r3, #60]
 472              		.loc 1 418 0
 473 0070 5A64     		str	r2, [r3, #68]
 474              		.loc 1 419 0
 475 0072 9A64     		str	r2, [r3, #72]
 476              		.loc 1 422 0
 477 0074 DA60     		str	r2, [r3, #12]
 478              		.loc 1 425 0
 479 0076 1A64     		str	r2, [r3, #64]
 480              		.loc 1 427 0
 481 0078 FFF7FEFF 		bl	RTC_WaitForSynchro
 482              	.LVL29:
 483              		.loc 1 386 0
 484 007c 0030     		adds	r0, r0, #0
 485 007e 18BF     		it	ne
 486 0080 0120     		movne	r0, #1
 487 0082 E3E7     		b	.L39
 488              	.L52:
 489              		.align	2
 490              	.L51:
 491 0084 00280040 		.word	1073752064
 492 0088 FF007F00 		.word	8323327
 493              		.cfi_endproc
 494              	.LFE111:
 495              		.size	RTC_DeInit, .-RTC_DeInit
 496 008c AFF30080 		.section	.text.RTC_RefClockCmd,"ax",%progbits
 497              		.align	2
 498              		.p2align 4,,15
 499              		.global	RTC_RefClockCmd
 500              		.thumb
 501              		.thumb_func
 502              		.type	RTC_RefClockCmd, %function
 503              	RTC_RefClockCmd:
 504              	.LFB118:
 505              		.loc 1 661 0
 506              		.cfi_startproc
 507              		@ args = 0, pretend = 0, frame = 0
ARM GAS  C:\Users\jsyoon\AppData\Local\Temp\ccHEUWmT.s 			page 10


 508              		@ frame_needed = 0, uses_anonymous_args = 0
 509              	.LVL30:
 510 0000 38B5     		push	{r3, r4, r5, lr}
 511              		.cfi_def_cfa_offset 16
 512              		.cfi_offset 3, -16
 513              		.cfi_offset 4, -12
 514              		.cfi_offset 5, -8
 515              		.cfi_offset 14, -4
 516              		.loc 1 668 0
 517 0002 0E4C     		ldr	r4, .L59
 518 0004 CA22     		movs	r2, #202
 519              		.loc 1 669 0
 520 0006 5323     		movs	r3, #83
 521              		.loc 1 668 0
 522 0008 6262     		str	r2, [r4, #36]
 523              		.loc 1 669 0
 524 000a 6362     		str	r3, [r4, #36]
 525              		.loc 1 661 0
 526 000c 0546     		mov	r5, r0
 527              		.loc 1 672 0
 528 000e FFF7FEFF 		bl	RTC_EnterInitMode
 529              	.LVL31:
 530 0012 50B1     		cbz	r0, .L54
 531              		.loc 1 681 0
 532 0014 A368     		ldr	r3, [r4, #8]
 533              		.loc 1 678 0
 534 0016 65B9     		cbnz	r5, .L58
 535              		.loc 1 686 0
 536 0018 23F01003 		bic	r3, r3, #16
 537 001c A360     		str	r3, [r4, #8]
 538              	.L56:
 539              	.LBB84:
 540              	.LBB85:
 541              		.loc 1 598 0
 542 001e 074B     		ldr	r3, .L59
 543 0020 DA68     		ldr	r2, [r3, #12]
 544 0022 22F08002 		bic	r2, r2, #128
 545 0026 DA60     		str	r2, [r3, #12]
 546              	.LVL32:
 547              	.LBE85:
 548              	.LBE84:
 549              		.loc 1 691 0
 550 0028 0120     		movs	r0, #1
 551              	.LVL33:
 552              	.L54:
 553              		.loc 1 695 0
 554 002a 044B     		ldr	r3, .L59
 555 002c FF22     		movs	r2, #255
 556 002e 5A62     		str	r2, [r3, #36]
 557              		.loc 1 698 0
 558 0030 38BD     		pop	{r3, r4, r5, pc}
 559              	.LVL34:
 560              	.L58:
 561              		.loc 1 681 0
 562 0032 43F01003 		orr	r3, r3, #16
 563 0036 A360     		str	r3, [r4, #8]
 564 0038 F1E7     		b	.L56
ARM GAS  C:\Users\jsyoon\AppData\Local\Temp\ccHEUWmT.s 			page 11


 565              	.L60:
 566 003a 00BF     		.align	2
 567              	.L59:
 568 003c 00280040 		.word	1073752064
 569              		.cfi_endproc
 570              	.LFE118:
 571              		.size	RTC_RefClockCmd, .-RTC_RefClockCmd
 572              		.section	.text.RTC_BypassShadowCmd,"ax",%progbits
 573              		.align	2
 574              		.p2align 4,,15
 575              		.global	RTC_BypassShadowCmd
 576              		.thumb
 577              		.thumb_func
 578              		.type	RTC_BypassShadowCmd, %function
 579              	RTC_BypassShadowCmd:
 580              	.LFB119:
 581              		.loc 1 709 0
 582              		.cfi_startproc
 583              		@ args = 0, pretend = 0, frame = 0
 584              		@ frame_needed = 0, uses_anonymous_args = 0
 585              		@ link register save eliminated.
 586              	.LVL35:
 587              		.loc 1 714 0
 588 0000 0A4B     		ldr	r3, .L65
 589              		.loc 1 715 0
 590 0002 5322     		movs	r2, #83
 591              		.loc 1 714 0
 592 0004 CA21     		movs	r1, #202
 593 0006 5962     		str	r1, [r3, #36]
 594              		.loc 1 715 0
 595 0008 5A62     		str	r2, [r3, #36]
 596              		.loc 1 720 0
 597 000a 9A68     		ldr	r2, [r3, #8]
 598              		.loc 1 717 0
 599 000c 30B9     		cbnz	r0, .L64
 600              		.loc 1 725 0
 601 000e 02F0DF02 		and	r2, r2, #223
 602 0012 9A60     		str	r2, [r3, #8]
 603              		.loc 1 729 0
 604 0014 054B     		ldr	r3, .L65
 605 0016 FF22     		movs	r2, #255
 606 0018 5A62     		str	r2, [r3, #36]
 607 001a 7047     		bx	lr
 608              	.L64:
 609              		.loc 1 720 0
 610 001c 42F02002 		orr	r2, r2, #32
 611 0020 9A60     		str	r2, [r3, #8]
 612              		.loc 1 729 0
 613 0022 024B     		ldr	r3, .L65
 614 0024 FF22     		movs	r2, #255
 615 0026 5A62     		str	r2, [r3, #36]
 616 0028 7047     		bx	lr
 617              	.L66:
 618 002a 00BF     		.align	2
 619              	.L65:
 620 002c 00280040 		.word	1073752064
 621              		.cfi_endproc
ARM GAS  C:\Users\jsyoon\AppData\Local\Temp\ccHEUWmT.s 			page 12


 622              	.LFE119:
 623              		.size	RTC_BypassShadowCmd, .-RTC_BypassShadowCmd
 624              		.section	.text.RTC_SetTime,"ax",%progbits
 625              		.align	2
 626              		.p2align 4,,15
 627              		.global	RTC_SetTime
 628              		.thumb
 629              		.thumb_func
 630              		.type	RTC_SetTime, %function
 631              	RTC_SetTime:
 632              	.LFB120:
 633              		.loc 1 764 0
 634              		.cfi_startproc
 635              		@ args = 0, pretend = 0, frame = 0
 636              		@ frame_needed = 0, uses_anonymous_args = 0
 637              	.LVL36:
 638 0000 38B5     		push	{r3, r4, r5, lr}
 639              		.cfi_def_cfa_offset 16
 640              		.cfi_offset 3, -16
 641              		.cfi_offset 4, -12
 642              		.cfi_offset 5, -8
 643              		.cfi_offset 14, -4
 644              		.loc 1 773 0
 645 0002 394B     		ldr	r3, .L91
 646              		.loc 1 771 0
 647 0004 0028     		cmp	r0, #0
 648 0006 36D1     		bne	.L68
 649              		.loc 1 773 0
 650 0008 9C68     		ldr	r4, [r3, #8]
 651 000a 14F04004 		ands	r4, r4, #64
 652 000e 58D1     		bne	.L69
 653              		.loc 1 780 0
 654 0010 CC70     		strb	r4, [r1, #3]
 655              	.L70:
 656              		.loc 1 813 0
 657 0012 0B78     		ldrb	r3, [r1]	@ zero_extendqisi2
 658              	.LVL37:
 659              	.LBB86:
 660              	.LBB87:
 661              		.loc 1 2726 0
 662 0014 092B     		cmp	r3, #9
 663              		.loc 1 2724 0
 664 0016 4FF00002 		mov	r2, #0
 665              		.loc 1 2726 0
 666 001a 07D9     		bls	.L82
 667              	.LVL38:
 668              	.L83:
 669              		.loc 1 2729 0
 670 001c 0A3B     		subs	r3, r3, #10
 671              	.LVL39:
 672 001e DBB2     		uxtb	r3, r3
 673              	.LVL40:
 674              		.loc 1 2728 0
 675 0020 0132     		adds	r2, r2, #1
 676              	.LVL41:
 677              		.loc 1 2726 0
 678 0022 092B     		cmp	r3, #9
ARM GAS  C:\Users\jsyoon\AppData\Local\Temp\ccHEUWmT.s 			page 13


 679              		.loc 1 2728 0
 680 0024 D2B2     		uxtb	r2, r2
 681              	.LVL42:
 682              		.loc 1 2726 0
 683 0026 F9D8     		bhi	.L83
 684 0028 1201     		lsls	r2, r2, #4
 685              	.LVL43:
 686 002a D2B2     		uxtb	r2, r2
 687              	.LVL44:
 688              	.L82:
 689              	.LBE87:
 690              	.LBE86:
 691              		.loc 1 814 0
 692 002c 4878     		ldrb	r0, [r1, #1]	@ zero_extendqisi2
 693              	.LVL45:
 694              		.loc 1 813 0
 695 002e 1343     		orrs	r3, r3, r2
 696              	.LBB88:
 697              	.LBB89:
 698              		.loc 1 2726 0
 699 0030 0928     		cmp	r0, #9
 700              	.LBE89:
 701              	.LBE88:
 702              		.loc 1 813 0
 703 0032 4FEA0343 		lsl	r3, r3, #16
 704              	.LBB92:
 705              	.LBB90:
 706              		.loc 1 2726 0
 707 0036 54D9     		bls	.L84
 708              		.loc 1 2724 0
 709 0038 0022     		movs	r2, #0
 710              	.LVL46:
 711              	.L76:
 712              		.loc 1 2729 0
 713 003a 0A38     		subs	r0, r0, #10
 714              	.LVL47:
 715 003c C0B2     		uxtb	r0, r0
 716              	.LVL48:
 717              		.loc 1 2728 0
 718 003e 0132     		adds	r2, r2, #1
 719              	.LVL49:
 720              		.loc 1 2726 0
 721 0040 0928     		cmp	r0, #9
 722              		.loc 1 2728 0
 723 0042 D2B2     		uxtb	r2, r2
 724              	.LVL50:
 725              		.loc 1 2726 0
 726 0044 F9D8     		bhi	.L76
 727 0046 1201     		lsls	r2, r2, #4
 728              	.LVL51:
 729 0048 D5B2     		uxtb	r5, r2
 730              	.LVL52:
 731              	.L74:
 732              	.LBE90:
 733              	.LBE92:
 734              		.loc 1 815 0
 735 004a 8A78     		ldrb	r2, [r1, #2]	@ zero_extendqisi2
ARM GAS  C:\Users\jsyoon\AppData\Local\Temp\ccHEUWmT.s 			page 14


 736              	.LVL53:
 737              		.loc 1 814 0
 738 004c 2843     		orrs	r0, r0, r5
 739              	.LBB93:
 740              	.LBB94:
 741              		.loc 1 2726 0
 742 004e 092A     		cmp	r2, #9
 743              	.LBE94:
 744              	.LBE93:
 745              		.loc 1 814 0
 746 0050 4FEA0020 		lsl	r0, r0, #8
 747              	.LBB96:
 748              	.LBB95:
 749              		.loc 1 2724 0
 750 0054 4FF00001 		mov	r1, #0
 751              	.LVL54:
 752              		.loc 1 2726 0
 753 0058 07D9     		bls	.L77
 754              	.LVL55:
 755              	.L79:
 756              		.loc 1 2729 0
 757 005a 0A3A     		subs	r2, r2, #10
 758              	.LVL56:
 759 005c D2B2     		uxtb	r2, r2
 760              	.LVL57:
 761              		.loc 1 2728 0
 762 005e 0131     		adds	r1, r1, #1
 763              	.LVL58:
 764              		.loc 1 2726 0
 765 0060 092A     		cmp	r2, #9
 766              		.loc 1 2728 0
 767 0062 C9B2     		uxtb	r1, r1
 768              	.LVL59:
 769              		.loc 1 2726 0
 770 0064 F9D8     		bhi	.L79
 771 0066 0901     		lsls	r1, r1, #4
 772              	.LVL60:
 773 0068 C9B2     		uxtb	r1, r1
 774              	.LVL61:
 775              	.L77:
 776              	.LBE95:
 777              	.LBE96:
 778              		.loc 1 813 0
 779 006a 1C43     		orrs	r4, r4, r3
 780              		.loc 1 814 0
 781 006c 44EA0005 		orr	r5, r4, r0
 782              		.loc 1 815 0
 783 0070 0A43     		orrs	r2, r2, r1
 784              		.loc 1 813 0
 785 0072 1543     		orrs	r5, r5, r2
 786              	.LVL62:
 787 0074 0CE0     		b	.L81
 788              	.LVL63:
 789              	.L68:
 790              		.loc 1 788 0
 791 0076 9B68     		ldr	r3, [r3, #8]
 792 0078 13F04003 		ands	r3, r3, #64
ARM GAS  C:\Users\jsyoon\AppData\Local\Temp\ccHEUWmT.s 			page 15


 793 007c 24D1     		bne	.L71
 794              		.loc 1 796 0
 795 007e CB70     		strb	r3, [r1, #3]
 796              	.L72:
 797              		.loc 1 807 0
 798 0080 4D78     		ldrb	r5, [r1, #1]	@ zero_extendqisi2
 799              		.loc 1 806 0
 800 0082 0878     		ldrb	r0, [r1]	@ zero_extendqisi2
 801              	.LVL64:
 802              		.loc 1 808 0
 803 0084 8A78     		ldrb	r2, [r1, #2]	@ zero_extendqisi2
 804              		.loc 1 807 0
 805 0086 2D02     		lsls	r5, r5, #8
 806              		.loc 1 806 0
 807 0088 45EA0045 		orr	r5, r5, r0, lsl #16
 808              		.loc 1 807 0
 809 008c 1543     		orrs	r5, r5, r2
 810              		.loc 1 806 0
 811 008e 1D43     		orrs	r5, r5, r3
 812              	.LVL65:
 813              	.L81:
 814              		.loc 1 820 0
 815 0090 154C     		ldr	r4, .L91
 816 0092 CA21     		movs	r1, #202
 817              		.loc 1 821 0
 818 0094 5323     		movs	r3, #83
 819              		.loc 1 820 0
 820 0096 6162     		str	r1, [r4, #36]
 821              		.loc 1 821 0
 822 0098 6362     		str	r3, [r4, #36]
 823              		.loc 1 824 0
 824 009a FFF7FEFF 		bl	RTC_EnterInitMode
 825              	.LVL66:
 826 009e 60B1     		cbz	r0, .L80
 827              		.loc 1 831 0
 828 00a0 05F07F32 		and	r2, r5, #2139062143
 829 00a4 22F0FE42 		bic	r2, r2, #2130706432
 830 00a8 2260     		str	r2, [r4]
 831              	.LBB97:
 832              	.LBB98:
 833              		.loc 1 598 0
 834 00aa E368     		ldr	r3, [r4, #12]
 835 00ac 23F08003 		bic	r3, r3, #128
 836 00b0 E360     		str	r3, [r4, #12]
 837              	.LBE98:
 838              	.LBE97:
 839              		.loc 1 837 0
 840 00b2 A368     		ldr	r3, [r4, #8]
 841 00b4 9B06     		lsls	r3, r3, #26
 842 00b6 0AD5     		bpl	.L90
 843              		.loc 1 850 0
 844 00b8 0120     		movs	r0, #1
 845              	.L80:
 846              	.LVL67:
 847              		.loc 1 854 0
 848 00ba 0B4B     		ldr	r3, .L91
 849 00bc FF22     		movs	r2, #255
ARM GAS  C:\Users\jsyoon\AppData\Local\Temp\ccHEUWmT.s 			page 16


 850 00be 5A62     		str	r2, [r3, #36]
 851 00c0 38BD     		pop	{r3, r4, r5, pc}
 852              	.LVL68:
 853              	.L69:
 854 00c2 CC78     		ldrb	r4, [r1, #3]	@ zero_extendqisi2
 855 00c4 2404     		lsls	r4, r4, #16
 856 00c6 A4E7     		b	.L70
 857              	.L71:
 858 00c8 CB78     		ldrb	r3, [r1, #3]	@ zero_extendqisi2
 859 00ca 1B04     		lsls	r3, r3, #16
 860 00cc D8E7     		b	.L72
 861              	.LVL69:
 862              	.L90:
 863              		.loc 1 839 0
 864 00ce FFF7FEFF 		bl	RTC_WaitForSynchro
 865              	.LVL70:
 866              		.loc 1 854 0
 867 00d2 054B     		ldr	r3, .L91
 868              		.loc 1 826 0
 869 00d4 0030     		adds	r0, r0, #0
 870              		.loc 1 854 0
 871 00d6 4FF0FF02 		mov	r2, #255
 872              		.loc 1 826 0
 873 00da 18BF     		it	ne
 874 00dc 0120     		movne	r0, #1
 875              	.LVL71:
 876              		.loc 1 854 0
 877 00de 5A62     		str	r2, [r3, #36]
 878 00e0 38BD     		pop	{r3, r4, r5, pc}
 879              	.LVL72:
 880              	.L84:
 881              	.LBB99:
 882              	.LBB91:
 883              		.loc 1 2726 0
 884 00e2 0025     		movs	r5, #0
 885 00e4 B1E7     		b	.L74
 886              	.L92:
 887 00e6 00BF     		.align	2
 888              	.L91:
 889 00e8 00280040 		.word	1073752064
 890              	.LBE91:
 891              	.LBE99:
 892              		.cfi_endproc
 893              	.LFE120:
 894              		.size	RTC_SetTime, .-RTC_SetTime
 895 00ec AFF30080 		.section	.text.RTC_TimeStructInit,"ax",%progbits
 896              		.align	2
 897              		.p2align 4,,15
 898              		.global	RTC_TimeStructInit
 899              		.thumb
 900              		.thumb_func
 901              		.type	RTC_TimeStructInit, %function
 902              	RTC_TimeStructInit:
 903              	.LFB121:
 904              		.loc 1 867 0
 905              		.cfi_startproc
 906              		@ args = 0, pretend = 0, frame = 0
ARM GAS  C:\Users\jsyoon\AppData\Local\Temp\ccHEUWmT.s 			page 17


 907              		@ frame_needed = 0, uses_anonymous_args = 0
 908              		@ link register save eliminated.
 909              	.LVL73:
 910              		.loc 1 869 0
 911 0000 0023     		movs	r3, #0
 912 0002 C370     		strb	r3, [r0, #3]
 913              		.loc 1 870 0
 914 0004 0370     		strb	r3, [r0]
 915              		.loc 1 871 0
 916 0006 4370     		strb	r3, [r0, #1]
 917              		.loc 1 872 0
 918 0008 8370     		strb	r3, [r0, #2]
 919 000a 7047     		bx	lr
 920              		.cfi_endproc
 921              	.LFE121:
 922              		.size	RTC_TimeStructInit, .-RTC_TimeStructInit
 923 000c AFF30080 		.section	.text.RTC_GetTime,"ax",%progbits
 924              		.align	2
 925              		.p2align 4,,15
 926              		.global	RTC_GetTime
 927              		.thumb
 928              		.thumb_func
 929              		.type	RTC_GetTime, %function
 930              	RTC_GetTime:
 931              	.LFB122:
 932              		.loc 1 886 0
 933              		.cfi_startproc
 934              		@ args = 0, pretend = 0, frame = 0
 935              		@ frame_needed = 0, uses_anonymous_args = 0
 936              		@ link register save eliminated.
 937              	.LVL74:
 938              		.loc 1 893 0
 939 0000 154B     		ldr	r3, .L96
 940 0002 1B68     		ldr	r3, [r3]
 941              	.LVL75:
 942              		.loc 1 886 0
 943 0004 70B4     		push	{r4, r5, r6}
 944              		.cfi_def_cfa_offset 12
 945              		.cfi_offset 4, -12
 946              		.cfi_offset 5, -8
 947              		.cfi_offset 6, -4
 948              		.loc 1 899 0
 949 0006 03F48006 		and	r6, r3, #4194304
 950              		.loc 1 898 0
 951 000a 03F07F04 		and	r4, r3, #127
 952              		.loc 1 896 0
 953 000e C3F30542 		ubfx	r2, r3, #16, #6
 954              		.loc 1 899 0
 955 0012 360C     		lsrs	r6, r6, #16
 956              		.loc 1 897 0
 957 0014 C3F30623 		ubfx	r3, r3, #8, #7
 958              	.LVL76:
 959              		.loc 1 899 0
 960 0018 CE70     		strb	r6, [r1, #3]
 961              		.loc 1 898 0
 962 001a 8C70     		strb	r4, [r1, #2]
 963              		.loc 1 896 0
ARM GAS  C:\Users\jsyoon\AppData\Local\Temp\ccHEUWmT.s 			page 18


 964 001c 0A70     		strb	r2, [r1]
 965              		.loc 1 897 0
 966 001e 4B70     		strb	r3, [r1, #1]
 967              		.loc 1 902 0
 968 0020 B8B9     		cbnz	r0, .L94
 969              	.LVL77:
 970              	.LBB100:
 971              	.LBB101:
 972              		.loc 1 2743 0
 973 0022 2509     		lsrs	r5, r4, #4
 974              	.LBE101:
 975              	.LBE100:
 976              	.LBB104:
 977              	.LBB105:
 978 0024 1609     		lsrs	r6, r2, #4
 979              	.LBE105:
 980              	.LBE104:
 981              	.LBB108:
 982              	.LBB109:
 983 0026 1809     		lsrs	r0, r3, #4
 984              	.LVL78:
 985              	.LBE109:
 986              	.LBE108:
 987              	.LBB112:
 988              	.LBB102:
 989 0028 05EB8505 		add	r5, r5, r5, lsl #2
 990              		.loc 1 2744 0
 991 002c 04F00F04 		and	r4, r4, #15
 992              	.LBE102:
 993              	.LBE112:
 994              	.LBB113:
 995              	.LBB106:
 996              		.loc 1 2743 0
 997 0030 06EB8606 		add	r6, r6, r6, lsl #2
 998              		.loc 1 2744 0
 999 0034 02F00F02 		and	r2, r2, #15
 1000              	.LVL79:
 1001              	.LBE106:
 1002              	.LBE113:
 1003              	.LBB114:
 1004              	.LBB110:
 1005              		.loc 1 2743 0
 1006 0038 00EB8000 		add	r0, r0, r0, lsl #2
 1007              		.loc 1 2744 0
 1008 003c 03F00F03 		and	r3, r3, #15
 1009              	.LBE110:
 1010              	.LBE114:
 1011              	.LBB115:
 1012              	.LBB103:
 1013 0040 04EB4505 		add	r5, r4, r5, lsl #1
 1014              	.LBE103:
 1015              	.LBE115:
 1016              	.LBB116:
 1017              	.LBB107:
 1018 0044 02EB4606 		add	r6, r2, r6, lsl #1
 1019              	.LBE107:
 1020              	.LBE116:
ARM GAS  C:\Users\jsyoon\AppData\Local\Temp\ccHEUWmT.s 			page 19


 1021              	.LBB117:
 1022              	.LBB111:
 1023 0048 03EB4003 		add	r3, r3, r0, lsl #1
 1024              	.LBE111:
 1025              	.LBE117:
 1026              		.loc 1 907 0
 1027 004c 8D70     		strb	r5, [r1, #2]
 1028              		.loc 1 905 0
 1029 004e 0E70     		strb	r6, [r1]
 1030              	.LVL80:
 1031              		.loc 1 906 0
 1032 0050 4B70     		strb	r3, [r1, #1]
 1033              	.LVL81:
 1034              	.L94:
 1035              		.loc 1 909 0
 1036 0052 70BC     		pop	{r4, r5, r6}
 1037 0054 7047     		bx	lr
 1038              	.L97:
 1039 0056 00BF     		.align	2
 1040              	.L96:
 1041 0058 00280040 		.word	1073752064
 1042              		.cfi_endproc
 1043              	.LFE122:
 1044              		.size	RTC_GetTime, .-RTC_GetTime
 1045 005c AFF30080 		.section	.text.RTC_GetSubSecond,"ax",%progbits
 1046              		.align	2
 1047              		.p2align 4,,15
 1048              		.global	RTC_GetSubSecond
 1049              		.thumb
 1050              		.thumb_func
 1051              		.type	RTC_GetSubSecond, %function
 1052              	RTC_GetSubSecond:
 1053              	.LFB123:
 1054              		.loc 1 919 0
 1055              		.cfi_startproc
 1056              		@ args = 0, pretend = 0, frame = 0
 1057              		@ frame_needed = 0, uses_anonymous_args = 0
 1058              		@ link register save eliminated.
 1059              	.LVL82:
 1060              		.loc 1 923 0
 1061 0000 014B     		ldr	r3, .L99
 1062 0002 986A     		ldr	r0, [r3, #40]
 1063              	.LVL83:
 1064              		.loc 1 926 0
 1065 0004 5B68     		ldr	r3, [r3, #4]
 1066              		.loc 1 929 0
 1067 0006 7047     		bx	lr
 1068              	.L100:
 1069              		.align	2
 1070              	.L99:
 1071 0008 00280040 		.word	1073752064
 1072              		.cfi_endproc
 1073              	.LFE123:
 1074              		.size	RTC_GetSubSecond, .-RTC_GetSubSecond
 1075 000c AFF30080 		.section	.text.RTC_SetDate,"ax",%progbits
 1076              		.align	2
 1077              		.p2align 4,,15
ARM GAS  C:\Users\jsyoon\AppData\Local\Temp\ccHEUWmT.s 			page 20


 1078              		.global	RTC_SetDate
 1079              		.thumb
 1080              		.thumb_func
 1081              		.type	RTC_SetDate, %function
 1082              	RTC_SetDate:
 1083              	.LFB124:
 1084              		.loc 1 944 0
 1085              		.cfi_startproc
 1086              		@ args = 0, pretend = 0, frame = 0
 1087              		@ frame_needed = 0, uses_anonymous_args = 0
 1088              	.LVL84:
 1089 0000 38B5     		push	{r3, r4, r5, lr}
 1090              		.cfi_def_cfa_offset 16
 1091              		.cfi_offset 3, -16
 1092              		.cfi_offset 4, -12
 1093              		.cfi_offset 5, -8
 1094              		.cfi_offset 14, -4
 1095              		.loc 1 951 0
 1096 0002 0028     		cmp	r0, #0
 1097 0004 39D1     		bne	.L102
 1098              		.loc 1 951 0 is_stmt 0 discriminator 1
 1099 0006 4A78     		ldrb	r2, [r1, #1]	@ zero_extendqisi2
 1100 0008 D006     		lsls	r0, r2, #27
 1101              	.LVL85:
 1102 000a 04D5     		bpl	.L103
 1103              		.loc 1 953 0 is_stmt 1
 1104 000c 22F01002 		bic	r2, r2, #16
 1105 0010 0A32     		adds	r2, r2, #10
 1106 0012 D2B2     		uxtb	r2, r2
 1107 0014 4A70     		strb	r2, [r1, #1]
 1108              	.L103:
 1109              		.loc 1 981 0
 1110 0016 CB78     		ldrb	r3, [r1, #3]	@ zero_extendqisi2
 1111              	.LVL86:
 1112              	.LBB118:
 1113              	.LBB119:
 1114              		.loc 1 2726 0
 1115 0018 092B     		cmp	r3, #9
 1116              		.loc 1 2724 0
 1117 001a 4FF00000 		mov	r0, #0
 1118              		.loc 1 2726 0
 1119 001e 07D9     		bls	.L112
 1120              	.LVL87:
 1121              	.L113:
 1122              		.loc 1 2729 0
 1123 0020 0A3B     		subs	r3, r3, #10
 1124              	.LVL88:
 1125 0022 DBB2     		uxtb	r3, r3
 1126              	.LVL89:
 1127              		.loc 1 2728 0
 1128 0024 0130     		adds	r0, r0, #1
 1129              	.LVL90:
 1130              		.loc 1 2726 0
 1131 0026 092B     		cmp	r3, #9
 1132              		.loc 1 2728 0
 1133 0028 C0B2     		uxtb	r0, r0
 1134              	.LVL91:
ARM GAS  C:\Users\jsyoon\AppData\Local\Temp\ccHEUWmT.s 			page 21


 1135              		.loc 1 2726 0
 1136 002a F9D8     		bhi	.L113
 1137 002c 0001     		lsls	r0, r0, #4
 1138              	.LVL92:
 1139 002e C0B2     		uxtb	r0, r0
 1140              	.LVL93:
 1141              	.L112:
 1142              	.LBE119:
 1143              	.LBE118:
 1144              		.loc 1 981 0
 1145 0030 0343     		orrs	r3, r3, r0
 1146              	.LBB120:
 1147              	.LBB121:
 1148              		.loc 1 2726 0
 1149 0032 092A     		cmp	r2, #9
 1150              	.LBE121:
 1151              	.LBE120:
 1152              		.loc 1 981 0
 1153 0034 4FEA0343 		lsl	r3, r3, #16
 1154              	.LVL94:
 1155              	.LBB124:
 1156              	.LBB122:
 1157              		.loc 1 2726 0
 1158 0038 4CD9     		bls	.L116
 1159              		.loc 1 2724 0
 1160 003a 0020     		movs	r0, #0
 1161              	.LVL95:
 1162              	.L107:
 1163              		.loc 1 2729 0
 1164 003c 0A3A     		subs	r2, r2, #10
 1165              	.LVL96:
 1166 003e D2B2     		uxtb	r2, r2
 1167              	.LVL97:
 1168              		.loc 1 2728 0
 1169 0040 0130     		adds	r0, r0, #1
 1170              	.LVL98:
 1171              		.loc 1 2726 0
 1172 0042 092A     		cmp	r2, #9
 1173              		.loc 1 2728 0
 1174 0044 C0B2     		uxtb	r0, r0
 1175              	.LVL99:
 1176              		.loc 1 2726 0
 1177 0046 F9D8     		bhi	.L107
 1178 0048 0001     		lsls	r0, r0, #4
 1179              	.LVL100:
 1180 004a C5B2     		uxtb	r5, r0
 1181              	.LVL101:
 1182              	.L105:
 1183              	.LBE122:
 1184              	.LBE124:
 1185              		.loc 1 983 0
 1186 004c 8878     		ldrb	r0, [r1, #2]	@ zero_extendqisi2
 1187              	.LVL102:
 1188              		.loc 1 982 0
 1189 004e 2A43     		orrs	r2, r2, r5
 1190              	.LBB125:
 1191              	.LBB126:
ARM GAS  C:\Users\jsyoon\AppData\Local\Temp\ccHEUWmT.s 			page 22


 1192              		.loc 1 2726 0
 1193 0050 0928     		cmp	r0, #9
 1194              	.LBE126:
 1195              	.LBE125:
 1196              		.loc 1 982 0
 1197 0052 4FEA0222 		lsl	r2, r2, #8
 1198              	.LBB128:
 1199              	.LBB127:
 1200              		.loc 1 2724 0
 1201 0056 4FF00004 		mov	r4, #0
 1202              		.loc 1 2726 0
 1203 005a 07D9     		bls	.L108
 1204              	.LVL103:
 1205              	.L110:
 1206              		.loc 1 2729 0
 1207 005c 0A38     		subs	r0, r0, #10
 1208              	.LVL104:
 1209 005e C0B2     		uxtb	r0, r0
 1210              	.LVL105:
 1211              		.loc 1 2728 0
 1212 0060 0134     		adds	r4, r4, #1
 1213              	.LVL106:
 1214              		.loc 1 2726 0
 1215 0062 0928     		cmp	r0, #9
 1216              		.loc 1 2728 0
 1217 0064 E4B2     		uxtb	r4, r4
 1218              	.LVL107:
 1219              		.loc 1 2726 0
 1220 0066 F9D8     		bhi	.L110
 1221 0068 2401     		lsls	r4, r4, #4
 1222              	.LVL108:
 1223 006a E4B2     		uxtb	r4, r4
 1224              	.LVL109:
 1225              	.L108:
 1226              	.LBE127:
 1227              	.LBE128:
 1228              		.loc 1 984 0
 1229 006c 0D78     		ldrb	r5, [r1]	@ zero_extendqisi2
 1230              		.loc 1 981 0
 1231 006e 43EA4535 		orr	r5, r3, r5, lsl #13
 1232              		.loc 1 982 0
 1233 0072 1543     		orrs	r5, r5, r2
 1234              		.loc 1 983 0
 1235 0074 2043     		orrs	r0, r0, r4
 1236              		.loc 1 981 0
 1237 0076 0543     		orrs	r5, r5, r0
 1238              	.LVL110:
 1239 0078 09E0     		b	.L114
 1240              	.LVL111:
 1241              	.L102:
 1242              		.loc 1 975 0
 1243 007a 4D78     		ldrb	r5, [r1, #1]	@ zero_extendqisi2
 1244              		.loc 1 974 0
 1245 007c CA78     		ldrb	r2, [r1, #3]	@ zero_extendqisi2
 1246              		.loc 1 976 0
 1247 007e 8B78     		ldrb	r3, [r1, #2]	@ zero_extendqisi2
 1248              		.loc 1 977 0
ARM GAS  C:\Users\jsyoon\AppData\Local\Temp\ccHEUWmT.s 			page 23


 1249 0080 0878     		ldrb	r0, [r1]	@ zero_extendqisi2
 1250              	.LVL112:
 1251              		.loc 1 975 0
 1252 0082 2D02     		lsls	r5, r5, #8
 1253              		.loc 1 974 0
 1254 0084 45EA0245 		orr	r5, r5, r2, lsl #16
 1255              		.loc 1 975 0
 1256 0088 1D43     		orrs	r5, r5, r3
 1257              		.loc 1 974 0
 1258 008a 45EA4035 		orr	r5, r5, r0, lsl #13
 1259              	.LVL113:
 1260              	.L114:
 1261              		.loc 1 988 0
 1262 008e 124C     		ldr	r4, .L123
 1263 0090 CA22     		movs	r2, #202
 1264              		.loc 1 989 0
 1265 0092 5323     		movs	r3, #83
 1266              		.loc 1 988 0
 1267 0094 6262     		str	r2, [r4, #36]
 1268              		.loc 1 989 0
 1269 0096 6362     		str	r3, [r4, #36]
 1270              		.loc 1 992 0
 1271 0098 FFF7FEFF 		bl	RTC_EnterInitMode
 1272              	.LVL114:
 1273 009c 60B1     		cbz	r0, .L111
 1274              		.loc 1 999 0
 1275 009e 25F07F40 		bic	r0, r5, #-16777216
 1276 00a2 20F0C000 		bic	r0, r0, #192
 1277 00a6 6060     		str	r0, [r4, #4]
 1278              	.LBB129:
 1279              	.LBB130:
 1280              		.loc 1 598 0
 1281 00a8 E368     		ldr	r3, [r4, #12]
 1282 00aa 23F08003 		bic	r3, r3, #128
 1283 00ae E360     		str	r3, [r4, #12]
 1284              	.LBE130:
 1285              	.LBE129:
 1286              		.loc 1 1005 0
 1287 00b0 A368     		ldr	r3, [r4, #8]
 1288 00b2 9B06     		lsls	r3, r3, #26
 1289 00b4 04D5     		bpl	.L122
 1290              		.loc 1 1018 0
 1291 00b6 0120     		movs	r0, #1
 1292              	.L111:
 1293              	.LVL115:
 1294              		.loc 1 1022 0
 1295 00b8 074B     		ldr	r3, .L123
 1296 00ba FF22     		movs	r2, #255
 1297 00bc 5A62     		str	r2, [r3, #36]
 1298 00be 38BD     		pop	{r3, r4, r5, pc}
 1299              	.LVL116:
 1300              	.L122:
 1301              		.loc 1 1007 0
 1302 00c0 FFF7FEFF 		bl	RTC_WaitForSynchro
 1303              	.LVL117:
 1304              		.loc 1 1022 0
 1305 00c4 044B     		ldr	r3, .L123
ARM GAS  C:\Users\jsyoon\AppData\Local\Temp\ccHEUWmT.s 			page 24


 1306              		.loc 1 994 0
 1307 00c6 0030     		adds	r0, r0, #0
 1308              		.loc 1 1022 0
 1309 00c8 4FF0FF02 		mov	r2, #255
 1310              		.loc 1 994 0
 1311 00cc 18BF     		it	ne
 1312 00ce 0120     		movne	r0, #1
 1313              	.LVL118:
 1314              		.loc 1 1022 0
 1315 00d0 5A62     		str	r2, [r3, #36]
 1316 00d2 38BD     		pop	{r3, r4, r5, pc}
 1317              	.LVL119:
 1318              	.L116:
 1319              	.LBB131:
 1320              	.LBB123:
 1321              		.loc 1 2726 0
 1322 00d4 0025     		movs	r5, #0
 1323 00d6 B9E7     		b	.L105
 1324              	.L124:
 1325              		.align	2
 1326              	.L123:
 1327 00d8 00280040 		.word	1073752064
 1328              	.LBE123:
 1329              	.LBE131:
 1330              		.cfi_endproc
 1331              	.LFE124:
 1332              		.size	RTC_SetDate, .-RTC_SetDate
 1333 00dc AFF30080 		.section	.text.RTC_DateStructInit,"ax",%progbits
 1334              		.align	2
 1335              		.p2align 4,,15
 1336              		.global	RTC_DateStructInit
 1337              		.thumb
 1338              		.thumb_func
 1339              		.type	RTC_DateStructInit, %function
 1340              	RTC_DateStructInit:
 1341              	.LFB125:
 1342              		.loc 1 1035 0
 1343              		.cfi_startproc
 1344              		@ args = 0, pretend = 0, frame = 0
 1345              		@ frame_needed = 0, uses_anonymous_args = 0
 1346              		@ link register save eliminated.
 1347              	.LVL120:
 1348              		.loc 1 1037 0
 1349 0000 0123     		movs	r3, #1
 1350              		.loc 1 1040 0
 1351 0002 0022     		movs	r2, #0
 1352 0004 C270     		strb	r2, [r0, #3]
 1353              		.loc 1 1037 0
 1354 0006 0370     		strb	r3, [r0]
 1355              		.loc 1 1038 0
 1356 0008 8370     		strb	r3, [r0, #2]
 1357              		.loc 1 1039 0
 1358 000a 4370     		strb	r3, [r0, #1]
 1359 000c 7047     		bx	lr
 1360              		.cfi_endproc
 1361              	.LFE125:
 1362              		.size	RTC_DateStructInit, .-RTC_DateStructInit
ARM GAS  C:\Users\jsyoon\AppData\Local\Temp\ccHEUWmT.s 			page 25


 1363 000e 00BF     		.section	.text.RTC_GetDate,"ax",%progbits
 1364              		.align	2
 1365              		.p2align 4,,15
 1366              		.global	RTC_GetDate
 1367              		.thumb
 1368              		.thumb_func
 1369              		.type	RTC_GetDate, %function
 1370              	RTC_GetDate:
 1371              	.LFB126:
 1372              		.loc 1 1054 0
 1373              		.cfi_startproc
 1374              		@ args = 0, pretend = 0, frame = 0
 1375              		@ frame_needed = 0, uses_anonymous_args = 0
 1376              		@ link register save eliminated.
 1377              	.LVL121:
 1378              		.loc 1 1061 0
 1379 0000 144B     		ldr	r3, .L128
 1380 0002 5B68     		ldr	r3, [r3, #4]
 1381              	.LVL122:
 1382              		.loc 1 1054 0
 1383 0004 F0B4     		push	{r4, r5, r6, r7}
 1384              		.cfi_def_cfa_offset 16
 1385              		.cfi_offset 4, -16
 1386              		.cfi_offset 5, -12
 1387              		.cfi_offset 6, -8
 1388              		.cfi_offset 7, -4
 1389              		.loc 1 1064 0
 1390 0006 C3F30742 		ubfx	r2, r3, #16, #8
 1391              		.loc 1 1066 0
 1392 000a 03F03F04 		and	r4, r3, #63
 1393              		.loc 1 1067 0
 1394 000e C3F34236 		ubfx	r6, r3, #13, #3
 1395              		.loc 1 1065 0
 1396 0012 C3F30423 		ubfx	r3, r3, #8, #5
 1397              	.LVL123:
 1398              		.loc 1 1067 0
 1399 0016 0E70     		strb	r6, [r1]
 1400              		.loc 1 1066 0
 1401 0018 8C70     		strb	r4, [r1, #2]
 1402              		.loc 1 1064 0
 1403 001a CA70     		strb	r2, [r1, #3]
 1404              		.loc 1 1065 0
 1405 001c 4B70     		strb	r3, [r1, #1]
 1406              		.loc 1 1070 0
 1407 001e B8B9     		cbnz	r0, .L126
 1408              	.LVL124:
 1409              	.LBB132:
 1410              	.LBB133:
 1411              		.loc 1 2743 0
 1412 0020 1E09     		lsrs	r6, r3, #4
 1413              	.LBE133:
 1414              	.LBE132:
 1415              	.LBB137:
 1416              	.LBB138:
 1417 0022 2509     		lsrs	r5, r4, #4
 1418              	.LBE138:
 1419              	.LBE137:
ARM GAS  C:\Users\jsyoon\AppData\Local\Temp\ccHEUWmT.s 			page 26


 1420              	.LBB141:
 1421              	.LBB142:
 1422 0024 1009     		lsrs	r0, r2, #4
 1423              	.LVL125:
 1424              	.LBE142:
 1425              	.LBE141:
 1426              	.LBB145:
 1427              	.LBB134:
 1428 0026 B700     		lsls	r7, r6, #2
 1429              	.LBE134:
 1430              	.LBE145:
 1431              	.LBB146:
 1432              	.LBB139:
 1433 0028 05EB8505 		add	r5, r5, r5, lsl #2
 1434              		.loc 1 2744 0
 1435 002c 04F00F04 		and	r4, r4, #15
 1436              	.LBE139:
 1437              	.LBE146:
 1438              	.LBB147:
 1439              	.LBB135:
 1440 0030 03F00F03 		and	r3, r3, #15
 1441              		.loc 1 2743 0
 1442 0034 3E44     		add	r6, r6, r7
 1443              	.LBE135:
 1444              	.LBE147:
 1445              	.LBB148:
 1446              	.LBB143:
 1447 0036 00EB8000 		add	r0, r0, r0, lsl #2
 1448              		.loc 1 2744 0
 1449 003a 02F00F02 		and	r2, r2, #15
 1450              	.LVL126:
 1451              	.LBE143:
 1452              	.LBE148:
 1453              	.LBB149:
 1454              	.LBB140:
 1455 003e 04EB4505 		add	r5, r4, r5, lsl #1
 1456              	.LBE140:
 1457              	.LBE149:
 1458              	.LBB150:
 1459              	.LBB136:
 1460 0042 03EB4603 		add	r3, r3, r6, lsl #1
 1461              	.LBE136:
 1462              	.LBE150:
 1463              	.LBB151:
 1464              	.LBB144:
 1465 0046 02EB4000 		add	r0, r2, r0, lsl #1
 1466              	.LBE144:
 1467              	.LBE151:
 1468              		.loc 1 1075 0
 1469 004a 8D70     		strb	r5, [r1, #2]
 1470              		.loc 1 1074 0
 1471 004c 4B70     		strb	r3, [r1, #1]
 1472              		.loc 1 1073 0
 1473 004e C870     		strb	r0, [r1, #3]
 1474              	.LVL127:
 1475              	.L126:
 1476              		.loc 1 1077 0
ARM GAS  C:\Users\jsyoon\AppData\Local\Temp\ccHEUWmT.s 			page 27


 1477 0050 F0BC     		pop	{r4, r5, r6, r7}
 1478 0052 7047     		bx	lr
 1479              	.L129:
 1480              		.align	2
 1481              	.L128:
 1482 0054 00280040 		.word	1073752064
 1483              		.cfi_endproc
 1484              	.LFE126:
 1485              		.size	RTC_GetDate, .-RTC_GetDate
 1486 0058 AFF30080 		.section	.text.RTC_SetAlarm,"ax",%progbits
 1486      AFF30080 
 1487              		.align	2
 1488              		.p2align 4,,15
 1489              		.global	RTC_SetAlarm
 1490              		.thumb
 1491              		.thumb_func
 1492              		.type	RTC_SetAlarm, %function
 1493              	RTC_SetAlarm:
 1494              	.LFB127:
 1495              		.loc 1 1114 0
 1496              		.cfi_startproc
 1497              		@ args = 0, pretend = 0, frame = 0
 1498              		@ frame_needed = 0, uses_anonymous_args = 0
 1499              		@ link register save eliminated.
 1500              	.LVL128:
 1501 0000 F0B4     		push	{r4, r5, r6, r7}
 1502              		.cfi_def_cfa_offset 16
 1503              		.cfi_offset 4, -16
 1504              		.cfi_offset 5, -12
 1505              		.cfi_offset 6, -8
 1506              		.cfi_offset 7, -4
 1507              		.loc 1 1125 0
 1508 0002 3E4B     		ldr	r3, .L156
 1509              		.loc 1 1123 0
 1510 0004 0028     		cmp	r0, #0
 1511 0006 4BD1     		bne	.L131
 1512              		.loc 1 1125 0
 1513 0008 9E68     		ldr	r6, [r3, #8]
 1514 000a 16F04006 		ands	r6, r6, #64
 1515 000e 6DD1     		bne	.L132
 1516              		.loc 1 1132 0
 1517 0010 D670     		strb	r6, [r2, #3]
 1518              	.L133:
 1519              		.loc 1 1189 0
 1520 0012 1378     		ldrb	r3, [r2]	@ zero_extendqisi2
 1521              	.LVL129:
 1522              	.LBB152:
 1523              	.LBB153:
 1524              		.loc 1 2726 0
 1525 0014 092B     		cmp	r3, #9
 1526 0016 6CD9     		bls	.L154
 1527              		.loc 1 2724 0
 1528 0018 0020     		movs	r0, #0
 1529              	.LVL130:
 1530              	.L150:
 1531              		.loc 1 2729 0
 1532 001a 0A3B     		subs	r3, r3, #10
ARM GAS  C:\Users\jsyoon\AppData\Local\Temp\ccHEUWmT.s 			page 28


 1533              	.LVL131:
 1534 001c DBB2     		uxtb	r3, r3
 1535              	.LVL132:
 1536              		.loc 1 2728 0
 1537 001e 0130     		adds	r0, r0, #1
 1538              	.LVL133:
 1539              		.loc 1 2726 0
 1540 0020 092B     		cmp	r3, #9
 1541              		.loc 1 2728 0
 1542 0022 C0B2     		uxtb	r0, r0
 1543              	.LVL134:
 1544              		.loc 1 2726 0
 1545 0024 F9D8     		bhi	.L150
 1546 0026 0001     		lsls	r0, r0, #4
 1547              	.LVL135:
 1548 0028 C4B2     		uxtb	r4, r0
 1549              	.LVL136:
 1550              	.L149:
 1551              	.LBE153:
 1552              	.LBE152:
 1553              		.loc 1 1190 0
 1554 002a 5078     		ldrb	r0, [r2, #1]	@ zero_extendqisi2
 1555              	.LVL137:
 1556              		.loc 1 1189 0
 1557 002c 2343     		orrs	r3, r3, r4
 1558              	.LBB155:
 1559              	.LBB156:
 1560              		.loc 1 2726 0
 1561 002e 0928     		cmp	r0, #9
 1562              	.LBE156:
 1563              	.LBE155:
 1564              		.loc 1 1189 0
 1565 0030 4FEA0343 		lsl	r3, r3, #16
 1566              	.LBB159:
 1567              	.LBB157:
 1568              		.loc 1 2726 0
 1569 0034 5FD9     		bls	.L151
 1570              		.loc 1 2724 0
 1571 0036 0024     		movs	r4, #0
 1572              	.LVL138:
 1573              	.L139:
 1574              		.loc 1 2729 0
 1575 0038 0A38     		subs	r0, r0, #10
 1576              	.LVL139:
 1577 003a C0B2     		uxtb	r0, r0
 1578              	.LVL140:
 1579              		.loc 1 2728 0
 1580 003c 0134     		adds	r4, r4, #1
 1581              	.LVL141:
 1582              		.loc 1 2726 0
 1583 003e 0928     		cmp	r0, #9
 1584              		.loc 1 2728 0
 1585 0040 E4B2     		uxtb	r4, r4
 1586              	.LVL142:
 1587              		.loc 1 2726 0
 1588 0042 F9D8     		bhi	.L139
 1589 0044 2401     		lsls	r4, r4, #4
ARM GAS  C:\Users\jsyoon\AppData\Local\Temp\ccHEUWmT.s 			page 29


 1590              	.LVL143:
 1591 0046 E7B2     		uxtb	r7, r4
 1592              	.LVL144:
 1593              	.L137:
 1594              	.LBE157:
 1595              	.LBE159:
 1596              		.loc 1 1191 0
 1597 0048 9478     		ldrb	r4, [r2, #2]	@ zero_extendqisi2
 1598              	.LVL145:
 1599              		.loc 1 1190 0
 1600 004a 3843     		orrs	r0, r0, r7
 1601              	.LBB160:
 1602              	.LBB161:
 1603              		.loc 1 2726 0
 1604 004c 092C     		cmp	r4, #9
 1605              	.LBE161:
 1606              	.LBE160:
 1607              		.loc 1 1190 0
 1608 004e 4FEA0027 		lsl	r7, r0, #8
 1609              	.LBB163:
 1610              	.LBB162:
 1611              		.loc 1 2724 0
 1612 0052 4FF00005 		mov	r5, #0
 1613              		.loc 1 2726 0
 1614 0056 07D9     		bls	.L140
 1615              	.LVL146:
 1616              	.L142:
 1617              		.loc 1 2729 0
 1618 0058 0A3C     		subs	r4, r4, #10
 1619              	.LVL147:
 1620 005a E4B2     		uxtb	r4, r4
 1621              	.LVL148:
 1622              		.loc 1 2728 0
 1623 005c 0135     		adds	r5, r5, #1
 1624              	.LVL149:
 1625              		.loc 1 2726 0
 1626 005e 092C     		cmp	r4, #9
 1627              		.loc 1 2728 0
 1628 0060 EDB2     		uxtb	r5, r5
 1629              	.LVL150:
 1630              		.loc 1 2726 0
 1631 0062 F9D8     		bhi	.L142
 1632 0064 2D01     		lsls	r5, r5, #4
 1633              	.LVL151:
 1634 0066 EDB2     		uxtb	r5, r5
 1635              	.LVL152:
 1636              	.L140:
 1637              	.LBE162:
 1638              	.LBE163:
 1639              		.loc 1 1193 0
 1640 0068 107B     		ldrb	r0, [r2, #12]	@ zero_extendqisi2
 1641              	.LVL153:
 1642              	.LBB164:
 1643              	.LBB165:
 1644              		.loc 1 2726 0
 1645 006a 0928     		cmp	r0, #9
 1646              	.LBE165:
ARM GAS  C:\Users\jsyoon\AppData\Local\Temp\ccHEUWmT.s 			page 30


 1647              	.LBE164:
 1648              		.loc 1 1191 0
 1649 006c 45EA0404 		orr	r4, r5, r4
 1650              	.LBB167:
 1651              	.LBB166:
 1652              		.loc 1 2724 0
 1653 0070 4FF00005 		mov	r5, #0
 1654              		.loc 1 2726 0
 1655 0074 07D9     		bls	.L143
 1656              	.LVL154:
 1657              	.L145:
 1658              		.loc 1 2729 0
 1659 0076 0A38     		subs	r0, r0, #10
 1660              	.LVL155:
 1661 0078 C0B2     		uxtb	r0, r0
 1662              	.LVL156:
 1663              		.loc 1 2728 0
 1664 007a 0135     		adds	r5, r5, #1
 1665              	.LVL157:
 1666              		.loc 1 2726 0
 1667 007c 0928     		cmp	r0, #9
 1668              		.loc 1 2728 0
 1669 007e EDB2     		uxtb	r5, r5
 1670              	.LVL158:
 1671              		.loc 1 2726 0
 1672 0080 F9D8     		bhi	.L145
 1673 0082 2D01     		lsls	r5, r5, #4
 1674              	.LVL159:
 1675 0084 EDB2     		uxtb	r5, r5
 1676              	.LVL160:
 1677              	.L143:
 1678              	.LBE166:
 1679              	.LBE167:
 1680              		.loc 1 1189 0
 1681 0086 D2F804C0 		ldr	ip, [r2, #4]
 1682 008a 9268     		ldr	r2, [r2, #8]
 1683              	.LVL161:
 1684 008c 4CEA0202 		orr	r2, ip, r2
 1685              		.loc 1 1190 0
 1686 0090 1643     		orrs	r6, r6, r2
 1687              		.loc 1 1191 0
 1688 0092 3343     		orrs	r3, r3, r6
 1689              		.loc 1 1192 0
 1690 0094 1F43     		orrs	r7, r7, r3
 1691              		.loc 1 1193 0
 1692 0096 2843     		orrs	r0, r0, r5
 1693 0098 3C43     		orrs	r4, r4, r7
 1694              		.loc 1 1189 0
 1695 009a 44EA0060 		orr	r0, r4, r0, lsl #24
 1696              	.LVL162:
 1697 009e 13E0     		b	.L148
 1698              	.LVL163:
 1699              	.L131:
 1700              		.loc 1 1149 0
 1701 00a0 9B68     		ldr	r3, [r3, #8]
 1702 00a2 13F04003 		ands	r3, r3, #64
 1703 00a6 1ED1     		bne	.L134
ARM GAS  C:\Users\jsyoon\AppData\Local\Temp\ccHEUWmT.s 			page 31


 1704              		.loc 1 1157 0
 1705 00a8 D370     		strb	r3, [r2, #3]
 1706              	.L135:
 1707              		.loc 1 1179 0
 1708 00aa 5768     		ldr	r7, [r2, #4]
 1709 00ac 9068     		ldr	r0, [r2, #8]
 1710              	.LVL164:
 1711              		.loc 1 1181 0
 1712 00ae 9678     		ldrb	r6, [r2, #2]	@ zero_extendqisi2
 1713              		.loc 1 1179 0
 1714 00b0 1578     		ldrb	r5, [r2]	@ zero_extendqisi2
 1715              		.loc 1 1180 0
 1716 00b2 5478     		ldrb	r4, [r2, #1]	@ zero_extendqisi2
 1717              		.loc 1 1183 0
 1718 00b4 127B     		ldrb	r2, [r2, #12]	@ zero_extendqisi2
 1719              	.LVL165:
 1720              		.loc 1 1179 0
 1721 00b6 3843     		orrs	r0, r0, r7
 1722              		.loc 1 1180 0
 1723 00b8 3043     		orrs	r0, r0, r6
 1724              		.loc 1 1181 0
 1725 00ba 40EA0540 		orr	r0, r0, r5, lsl #16
 1726              		.loc 1 1182 0
 1727 00be 40EA0420 		orr	r0, r0, r4, lsl #8
 1728              		.loc 1 1183 0
 1729 00c2 40EA0260 		orr	r0, r0, r2, lsl #24
 1730              		.loc 1 1179 0
 1731 00c6 1843     		orrs	r0, r0, r3
 1732              	.LVL166:
 1733              	.L148:
 1734              		.loc 1 1199 0
 1735 00c8 0C4B     		ldr	r3, .L156
 1736 00ca CA25     		movs	r5, #202
 1737              		.loc 1 1200 0
 1738 00cc 5322     		movs	r2, #83
 1739              		.loc 1 1203 0
 1740 00ce B1F5807F 		cmp	r1, #256
 1741              		.loc 1 1199 0
 1742 00d2 5D62     		str	r5, [r3, #36]
 1743              		.loc 1 1200 0
 1744 00d4 5A62     		str	r2, [r3, #36]
 1745              		.loc 1 1205 0
 1746 00d6 0CBF     		ite	eq
 1747 00d8 D861     		streq	r0, [r3, #28]
 1748              		.loc 1 1209 0
 1749 00da 1862     		strne	r0, [r3, #32]
 1750              		.loc 1 1213 0
 1751 00dc 074B     		ldr	r3, .L156
 1752 00de FF22     		movs	r2, #255
 1753 00e0 5A62     		str	r2, [r3, #36]
 1754              		.loc 1 1214 0
 1755 00e2 F0BC     		pop	{r4, r5, r6, r7}
 1756 00e4 7047     		bx	lr
 1757              	.LVL167:
 1758              	.L134:
 1759 00e6 D378     		ldrb	r3, [r2, #3]	@ zero_extendqisi2
 1760 00e8 1B04     		lsls	r3, r3, #16
ARM GAS  C:\Users\jsyoon\AppData\Local\Temp\ccHEUWmT.s 			page 32


 1761 00ea DEE7     		b	.L135
 1762              	.L132:
 1763 00ec D678     		ldrb	r6, [r2, #3]	@ zero_extendqisi2
 1764 00ee 3604     		lsls	r6, r6, #16
 1765 00f0 8FE7     		b	.L133
 1766              	.LVL168:
 1767              	.L154:
 1768              	.LBB168:
 1769              	.LBB154:
 1770              		.loc 1 2726 0
 1771 00f2 0024     		movs	r4, #0
 1772 00f4 99E7     		b	.L149
 1773              	.LVL169:
 1774              	.L151:
 1775              	.LBE154:
 1776              	.LBE168:
 1777              	.LBB169:
 1778              	.LBB158:
 1779 00f6 0027     		movs	r7, #0
 1780 00f8 A6E7     		b	.L137
 1781              	.L157:
 1782 00fa 00BF     		.align	2
 1783              	.L156:
 1784 00fc 00280040 		.word	1073752064
 1785              	.LBE158:
 1786              	.LBE169:
 1787              		.cfi_endproc
 1788              	.LFE127:
 1789              		.size	RTC_SetAlarm, .-RTC_SetAlarm
 1790              		.section	.text.RTC_AlarmStructInit,"ax",%progbits
 1791              		.align	2
 1792              		.p2align 4,,15
 1793              		.global	RTC_AlarmStructInit
 1794              		.thumb
 1795              		.thumb_func
 1796              		.type	RTC_AlarmStructInit, %function
 1797              	RTC_AlarmStructInit:
 1798              	.LFB128:
 1799              		.loc 1 1225 0
 1800              		.cfi_startproc
 1801              		@ args = 0, pretend = 0, frame = 0
 1802              		@ frame_needed = 0, uses_anonymous_args = 0
 1803              		@ link register save eliminated.
 1804              	.LVL170:
 1805              		.loc 1 1227 0
 1806 0000 0023     		movs	r3, #0
 1807              		.loc 1 1234 0
 1808 0002 0122     		movs	r2, #1
 1809 0004 0273     		strb	r2, [r0, #12]
 1810              		.loc 1 1227 0
 1811 0006 C370     		strb	r3, [r0, #3]
 1812              		.loc 1 1228 0
 1813 0008 0370     		strb	r3, [r0]
 1814              		.loc 1 1229 0
 1815 000a 4370     		strb	r3, [r0, #1]
 1816              		.loc 1 1230 0
 1817 000c 8370     		strb	r3, [r0, #2]
ARM GAS  C:\Users\jsyoon\AppData\Local\Temp\ccHEUWmT.s 			page 33


 1818              		.loc 1 1233 0
 1819 000e 8360     		str	r3, [r0, #8]
 1820              		.loc 1 1237 0
 1821 0010 4360     		str	r3, [r0, #4]
 1822 0012 7047     		bx	lr
 1823              		.cfi_endproc
 1824              	.LFE128:
 1825              		.size	RTC_AlarmStructInit, .-RTC_AlarmStructInit
 1826 0014 AFF30080 		.section	.text.RTC_GetAlarm,"ax",%progbits
 1826      AFF30080 
 1826      AFF30080 
 1827              		.align	2
 1828              		.p2align 4,,15
 1829              		.global	RTC_GetAlarm
 1830              		.thumb
 1831              		.thumb_func
 1832              		.type	RTC_GetAlarm, %function
 1833              	RTC_GetAlarm:
 1834              	.LFB129:
 1835              		.loc 1 1255 0
 1836              		.cfi_startproc
 1837              		@ args = 0, pretend = 0, frame = 0
 1838              		@ frame_needed = 0, uses_anonymous_args = 0
 1839              		@ link register save eliminated.
 1840              	.LVL171:
 1841              		.loc 1 1265 0
 1842 0000 234B     		ldr	r3, .L163
 1843              		.loc 1 1263 0
 1844 0002 B1F5807F 		cmp	r1, #256
 1845              		.loc 1 1265 0
 1846 0006 0CBF     		ite	eq
 1847 0008 DB69     		ldreq	r3, [r3, #28]
 1848              	.LVL172:
 1849              		.loc 1 1269 0
 1850 000a 1B6A     		ldrne	r3, [r3, #32]
 1851              	.LVL173:
 1852              		.loc 1 1255 0
 1853 000c 2DE9F001 		push	{r4, r5, r6, r7, r8}
 1854              		.cfi_def_cfa_offset 20
 1855              		.cfi_offset 4, -20
 1856              		.cfi_offset 5, -16
 1857              		.cfi_offset 6, -12
 1858              		.cfi_offset 7, -8
 1859              		.cfi_offset 8, -4
 1860              		.loc 1 1277 0
 1861 0010 DEB2     		uxtb	r6, r3
 1862              		.loc 1 1279 0
 1863 0012 03F48008 		and	r8, r3, #4194304
 1864              		.loc 1 1273 0
 1865 0016 C3F30545 		ubfx	r5, r3, #16, #6
 1866              		.loc 1 1275 0
 1867 001a C3F30624 		ubfx	r4, r3, #8, #7
 1868              		.loc 1 1280 0
 1869 001e C3F30561 		ubfx	r1, r3, #24, #6
 1870              	.LVL174:
 1871              		.loc 1 1281 0
 1872 0022 03F0804C 		and	ip, r3, #1073741824
ARM GAS  C:\Users\jsyoon\AppData\Local\Temp\ccHEUWmT.s 			page 34


 1873              		.loc 1 1277 0
 1874 0026 06F07F07 		and	r7, r6, #127
 1875              		.loc 1 1279 0
 1876 002a 4FEA1848 		lsr	r8, r8, #16
 1877              		.loc 1 1282 0
 1878 002e 03F08033 		and	r3, r3, #-2139062144
 1879              	.LVL175:
 1880              		.loc 1 1277 0
 1881 0032 9770     		strb	r7, [r2, #2]
 1882              		.loc 1 1279 0
 1883 0034 82F80380 		strb	r8, [r2, #3]
 1884              		.loc 1 1273 0
 1885 0038 1570     		strb	r5, [r2]
 1886              		.loc 1 1275 0
 1887 003a 5470     		strb	r4, [r2, #1]
 1888              		.loc 1 1280 0
 1889 003c 1173     		strb	r1, [r2, #12]
 1890              		.loc 1 1281 0
 1891 003e C2F808C0 		str	ip, [r2, #8]
 1892              		.loc 1 1282 0
 1893 0042 5360     		str	r3, [r2, #4]
 1894              		.loc 1 1284 0
 1895 0044 08BB     		cbnz	r0, .L159
 1896              	.LVL176:
 1897              	.LBB170:
 1898              	.LBB171:
 1899              		.loc 1 2743 0
 1900 0046 4FEA151C 		lsr	ip, r5, #4
 1901              	.LBE171:
 1902              	.LBE170:
 1903              	.LBB174:
 1904              	.LBB175:
 1905 004a 2009     		lsrs	r0, r4, #4
 1906              	.LVL177:
 1907              	.LBE175:
 1908              	.LBE174:
 1909              	.LBB178:
 1910              	.LBB179:
 1911 004c 0B09     		lsrs	r3, r1, #4
 1912              	.LBE179:
 1913              	.LBE178:
 1914              	.LBB182:
 1915              	.LBB183:
 1916 004e 3F09     		lsrs	r7, r7, #4
 1917 0050 07EB8707 		add	r7, r7, r7, lsl #2
 1918              		.loc 1 2744 0
 1919 0054 06F00F06 		and	r6, r6, #15
 1920              	.LBE183:
 1921              	.LBE182:
 1922              	.LBB185:
 1923              	.LBB172:
 1924              		.loc 1 2743 0
 1925 0058 0CEB8C0C 		add	ip, ip, ip, lsl #2
 1926              		.loc 1 2744 0
 1927 005c 05F00F05 		and	r5, r5, #15
 1928              	.LVL178:
 1929              	.LBE172:
ARM GAS  C:\Users\jsyoon\AppData\Local\Temp\ccHEUWmT.s 			page 35


 1930              	.LBE185:
 1931              	.LBB186:
 1932              	.LBB176:
 1933              		.loc 1 2743 0
 1934 0060 00EB8000 		add	r0, r0, r0, lsl #2
 1935              		.loc 1 2744 0
 1936 0064 04F00F04 		and	r4, r4, #15
 1937              	.LBE176:
 1938              	.LBE186:
 1939              	.LBB187:
 1940              	.LBB180:
 1941              		.loc 1 2743 0
 1942 0068 03EB8303 		add	r3, r3, r3, lsl #2
 1943              		.loc 1 2744 0
 1944 006c 01F00F01 		and	r1, r1, #15
 1945              	.LBE180:
 1946              	.LBE187:
 1947              	.LBB188:
 1948              	.LBB184:
 1949 0070 06EB4707 		add	r7, r6, r7, lsl #1
 1950              	.LBE184:
 1951              	.LBE188:
 1952              	.LBB189:
 1953              	.LBB173:
 1954 0074 05EB4C0C 		add	ip, r5, ip, lsl #1
 1955              	.LBE173:
 1956              	.LBE189:
 1957              	.LBB190:
 1958              	.LBB177:
 1959 0078 04EB4000 		add	r0, r4, r0, lsl #1
 1960              	.LBE177:
 1961              	.LBE190:
 1962              	.LBB191:
 1963              	.LBB181:
 1964 007c 01EB4303 		add	r3, r1, r3, lsl #1
 1965              	.LBE181:
 1966              	.LBE191:
 1967              		.loc 1 1290 0
 1968 0080 9770     		strb	r7, [r2, #2]
 1969              		.loc 1 1286 0
 1970 0082 82F800C0 		strb	ip, [r2]
 1971              	.LVL179:
 1972              		.loc 1 1288 0
 1973 0086 5070     		strb	r0, [r2, #1]
 1974              	.LVL180:
 1975              		.loc 1 1292 0
 1976 0088 1373     		strb	r3, [r2, #12]
 1977              	.L159:
 1978              		.loc 1 1294 0
 1979 008a BDE8F001 		pop	{r4, r5, r6, r7, r8}
 1980 008e 7047     		bx	lr
 1981              	.L164:
 1982              		.align	2
 1983              	.L163:
 1984 0090 00280040 		.word	1073752064
 1985              		.cfi_endproc
 1986              	.LFE129:
ARM GAS  C:\Users\jsyoon\AppData\Local\Temp\ccHEUWmT.s 			page 36


 1987              		.size	RTC_GetAlarm, .-RTC_GetAlarm
 1988 0094 AFF30080 		.section	.text.RTC_AlarmCmd,"ax",%progbits
 1988      AFF30080 
 1988      AFF30080 
 1989              		.align	2
 1990              		.p2align 4,,15
 1991              		.global	RTC_AlarmCmd
 1992              		.thumb
 1993              		.thumb_func
 1994              		.type	RTC_AlarmCmd, %function
 1995              	RTC_AlarmCmd:
 1996              	.LFB130:
 1997              		.loc 1 1309 0
 1998              		.cfi_startproc
 1999              		@ args = 0, pretend = 0, frame = 8
 2000              		@ frame_needed = 0, uses_anonymous_args = 0
 2001              		@ link register save eliminated.
 2002              	.LVL181:
 2003 0000 30B4     		push	{r4, r5}
 2004              		.cfi_def_cfa_offset 8
 2005              		.cfi_offset 4, -8
 2006              		.cfi_offset 5, -4
 2007              		.loc 1 1319 0
 2008 0002 154B     		ldr	r3, .L172
 2009              		.loc 1 1309 0
 2010 0004 82B0     		sub	sp, sp, #8
 2011              		.cfi_def_cfa_offset 16
 2012              		.loc 1 1320 0
 2013 0006 5322     		movs	r2, #83
 2014              		.loc 1 1310 0
 2015 0008 0025     		movs	r5, #0
 2016              		.loc 1 1319 0
 2017 000a CA24     		movs	r4, #202
 2018              		.loc 1 1310 0
 2019 000c 0195     		str	r5, [sp, #4]
 2020              	.LVL182:
 2021              		.loc 1 1319 0
 2022 000e 5C62     		str	r4, [r3, #36]
 2023              		.loc 1 1320 0
 2024 0010 5A62     		str	r2, [r3, #36]
 2025              		.loc 1 1325 0
 2026 0012 9A68     		ldr	r2, [r3, #8]
 2027              		.loc 1 1323 0
 2028 0014 E1B9     		cbnz	r1, .L171
 2029              		.loc 1 1332 0
 2030 0016 22EA0002 		bic	r2, r2, r0
 2031 001a 9A60     		str	r2, [r3, #8]
 2032 001c 000A     		lsrs	r0, r0, #8
 2033              	.LVL183:
 2034              		.loc 1 1337 0
 2035 001e 1946     		mov	r1, r3
 2036              	.LVL184:
 2037 0020 00E0     		b	.L170
 2038              	.LVL185:
 2039              	.L168:
 2040              		.loc 1 1339 0 discriminator 1
 2041 0022 4AB9     		cbnz	r2, .L169
ARM GAS  C:\Users\jsyoon\AppData\Local\Temp\ccHEUWmT.s 			page 37


 2042              	.LVL186:
 2043              	.L170:
 2044              		.loc 1 1337 0 discriminator 1
 2045 0024 CA68     		ldr	r2, [r1, #12]
 2046              		.loc 1 1338 0 discriminator 1
 2047 0026 019B     		ldr	r3, [sp, #4]
 2048 0028 0133     		adds	r3, r3, #1
 2049 002a 0193     		str	r3, [sp, #4]
 2050              		.loc 1 1339 0 discriminator 1
 2051 002c 019B     		ldr	r3, [sp, #4]
 2052 002e B3F5803F 		cmp	r3, #65536
 2053              		.loc 1 1337 0 discriminator 1
 2054 0032 00EA0202 		and	r2, r0, r2
 2055              	.LVL187:
 2056              		.loc 1 1339 0 discriminator 1
 2057 0036 F4D1     		bne	.L168
 2058              	.L169:
 2059              		.loc 1 1341 0
 2060 0038 074B     		ldr	r3, .L172
 2061 003a DB68     		ldr	r3, [r3, #12]
 2062 003c 0342     		tst	r3, r0
 2063              		.loc 1 1327 0
 2064 003e 0CBF     		ite	eq
 2065 0040 0020     		moveq	r0, #0
 2066 0042 0120     		movne	r0, #1
 2067              	.LVL188:
 2068              	.L167:
 2069              		.loc 1 1352 0
 2070 0044 044B     		ldr	r3, .L172
 2071 0046 FF22     		movs	r2, #255
 2072 0048 5A62     		str	r2, [r3, #36]
 2073              		.loc 1 1355 0
 2074 004a 02B0     		add	sp, sp, #8
 2075              		@ sp needed
 2076 004c 30BC     		pop	{r4, r5}
 2077 004e 7047     		bx	lr
 2078              	.LVL189:
 2079              	.L171:
 2080              		.loc 1 1325 0
 2081 0050 1043     		orrs	r0, r0, r2
 2082              	.LVL190:
 2083 0052 9860     		str	r0, [r3, #8]
 2084              	.LVL191:
 2085              		.loc 1 1327 0
 2086 0054 0120     		movs	r0, #1
 2087 0056 F5E7     		b	.L167
 2088              	.L173:
 2089              		.align	2
 2090              	.L172:
 2091 0058 00280040 		.word	1073752064
 2092              		.cfi_endproc
 2093              	.LFE130:
 2094              		.size	RTC_AlarmCmd, .-RTC_AlarmCmd
 2095 005c AFF30080 		.section	.text.RTC_AlarmSubSecondConfig,"ax",%progbits
 2096              		.align	2
 2097              		.p2align 4,,15
 2098              		.global	RTC_AlarmSubSecondConfig
ARM GAS  C:\Users\jsyoon\AppData\Local\Temp\ccHEUWmT.s 			page 38


 2099              		.thumb
 2100              		.thumb_func
 2101              		.type	RTC_AlarmSubSecondConfig, %function
 2102              	RTC_AlarmSubSecondConfig:
 2103              	.LFB131:
 2104              		.loc 1 1403 0
 2105              		.cfi_startproc
 2106              		@ args = 0, pretend = 0, frame = 0
 2107              		@ frame_needed = 0, uses_anonymous_args = 0
 2108              		@ link register save eliminated.
 2109              	.LVL192:
 2110 0000 30B4     		push	{r4, r5}
 2111              		.cfi_def_cfa_offset 8
 2112              		.cfi_offset 4, -8
 2113              		.cfi_offset 5, -4
 2114              		.loc 1 1412 0
 2115 0002 084B     		ldr	r3, .L177
 2116              		.loc 1 1416 0
 2117 0004 0A43     		orrs	r2, r2, r1
 2118              	.LVL193:
 2119              		.loc 1 1412 0
 2120 0006 CA25     		movs	r5, #202
 2121              		.loc 1 1413 0
 2122 0008 5324     		movs	r4, #83
 2123              		.loc 1 1418 0
 2124 000a B0F5807F 		cmp	r0, #256
 2125              		.loc 1 1412 0
 2126 000e 5D62     		str	r5, [r3, #36]
 2127              		.loc 1 1413 0
 2128 0010 5C62     		str	r4, [r3, #36]
 2129              		.loc 1 1421 0
 2130 0012 0CBF     		ite	eq
 2131 0014 5A64     		streq	r2, [r3, #68]
 2132              		.loc 1 1426 0
 2133 0016 9A64     		strne	r2, [r3, #72]
 2134              		.loc 1 1430 0
 2135 0018 024B     		ldr	r3, .L177
 2136 001a FF22     		movs	r2, #255
 2137              	.LVL194:
 2138 001c 5A62     		str	r2, [r3, #36]
 2139              		.loc 1 1432 0
 2140 001e 30BC     		pop	{r4, r5}
 2141 0020 7047     		bx	lr
 2142              	.L178:
 2143 0022 00BF     		.align	2
 2144              	.L177:
 2145 0024 00280040 		.word	1073752064
 2146              		.cfi_endproc
 2147              	.LFE131:
 2148              		.size	RTC_AlarmSubSecondConfig, .-RTC_AlarmSubSecondConfig
 2149 0028 AFF30080 		.section	.text.RTC_GetAlarmSubSecond,"ax",%progbits
 2149      AFF30080 
 2150              		.align	2
 2151              		.p2align 4,,15
 2152              		.global	RTC_GetAlarmSubSecond
 2153              		.thumb
 2154              		.thumb_func
ARM GAS  C:\Users\jsyoon\AppData\Local\Temp\ccHEUWmT.s 			page 39


 2155              		.type	RTC_GetAlarmSubSecond, %function
 2156              	RTC_GetAlarmSubSecond:
 2157              	.LFB132:
 2158              		.loc 1 1444 0
 2159              		.cfi_startproc
 2160              		@ args = 0, pretend = 0, frame = 0
 2161              		@ frame_needed = 0, uses_anonymous_args = 0
 2162              		@ link register save eliminated.
 2163              	.LVL195:
 2164              		.loc 1 1450 0
 2165 0000 044B     		ldr	r3, .L182
 2166              		.loc 1 1448 0
 2167 0002 B0F5807F 		cmp	r0, #256
 2168              		.loc 1 1450 0
 2169 0006 0CBF     		ite	eq
 2170 0008 586C     		ldreq	r0, [r3, #68]
 2171              	.LVL196:
 2172              		.loc 1 1454 0
 2173 000a 986C     		ldrne	r0, [r3, #72]
 2174 000c C0F30E00 		ubfx	r0, r0, #0, #15
 2175              	.LVL197:
 2176              		.loc 1 1458 0
 2177 0010 7047     		bx	lr
 2178              	.L183:
 2179 0012 00BF     		.align	2
 2180              	.L182:
 2181 0014 00280040 		.word	1073752064
 2182              		.cfi_endproc
 2183              	.LFE132:
 2184              		.size	RTC_GetAlarmSubSecond, .-RTC_GetAlarmSubSecond
 2185 0018 AFF30080 		.section	.text.RTC_WakeUpClockConfig,"ax",%progbits
 2185      AFF30080 
 2186              		.align	2
 2187              		.p2align 4,,15
 2188              		.global	RTC_WakeUpClockConfig
 2189              		.thumb
 2190              		.thumb_func
 2191              		.type	RTC_WakeUpClockConfig, %function
 2192              	RTC_WakeUpClockConfig:
 2193              	.LFB133:
 2194              		.loc 1 1493 0
 2195              		.cfi_startproc
 2196              		@ args = 0, pretend = 0, frame = 0
 2197              		@ frame_needed = 0, uses_anonymous_args = 0
 2198              		@ link register save eliminated.
 2199              	.LVL198:
 2200              		.loc 1 1498 0
 2201 0000 074B     		ldr	r3, .L185
 2202 0002 CA21     		movs	r1, #202
 2203              		.loc 1 1499 0
 2204 0004 5322     		movs	r2, #83
 2205              		.loc 1 1498 0
 2206 0006 5962     		str	r1, [r3, #36]
 2207              		.loc 1 1499 0
 2208 0008 5A62     		str	r2, [r3, #36]
 2209              		.loc 1 1502 0
 2210 000a 9A68     		ldr	r2, [r3, #8]
ARM GAS  C:\Users\jsyoon\AppData\Local\Temp\ccHEUWmT.s 			page 40


 2211 000c 22F00702 		bic	r2, r2, #7
 2212 0010 9A60     		str	r2, [r3, #8]
 2213              		.loc 1 1505 0
 2214 0012 9968     		ldr	r1, [r3, #8]
 2215              		.loc 1 1508 0
 2216 0014 FF22     		movs	r2, #255
 2217              		.loc 1 1505 0
 2218 0016 0843     		orrs	r0, r0, r1
 2219              	.LVL199:
 2220 0018 9860     		str	r0, [r3, #8]
 2221              		.loc 1 1508 0
 2222 001a 5A62     		str	r2, [r3, #36]
 2223 001c 7047     		bx	lr
 2224              	.L186:
 2225 001e 00BF     		.align	2
 2226              	.L185:
 2227 0020 00280040 		.word	1073752064
 2228              		.cfi_endproc
 2229              	.LFE133:
 2230              		.size	RTC_WakeUpClockConfig, .-RTC_WakeUpClockConfig
 2231 0024 AFF30080 		.section	.text.RTC_SetWakeUpCounter,"ax",%progbits
 2231      AFF30080 
 2231      AFF30080 
 2232              		.align	2
 2233              		.p2align 4,,15
 2234              		.global	RTC_SetWakeUpCounter
 2235              		.thumb
 2236              		.thumb_func
 2237              		.type	RTC_SetWakeUpCounter, %function
 2238              	RTC_SetWakeUpCounter:
 2239              	.LFB134:
 2240              		.loc 1 1520 0
 2241              		.cfi_startproc
 2242              		@ args = 0, pretend = 0, frame = 0
 2243              		@ frame_needed = 0, uses_anonymous_args = 0
 2244              		@ link register save eliminated.
 2245              	.LVL200:
 2246              		.loc 1 1525 0
 2247 0000 054B     		ldr	r3, .L188
 2248              		.loc 1 1520 0
 2249 0002 10B4     		push	{r4}
 2250              		.cfi_def_cfa_offset 4
 2251              		.cfi_offset 4, -4
 2252              		.loc 1 1526 0
 2253 0004 5321     		movs	r1, #83
 2254              		.loc 1 1525 0
 2255 0006 CA24     		movs	r4, #202
 2256              		.loc 1 1532 0
 2257 0008 FF22     		movs	r2, #255
 2258              		.loc 1 1525 0
 2259 000a 5C62     		str	r4, [r3, #36]
 2260              		.loc 1 1526 0
 2261 000c 5962     		str	r1, [r3, #36]
 2262              		.loc 1 1533 0
 2263 000e 5DF8044B 		ldr	r4, [sp], #4
 2264              		.loc 1 1529 0
 2265 0012 5861     		str	r0, [r3, #20]
ARM GAS  C:\Users\jsyoon\AppData\Local\Temp\ccHEUWmT.s 			page 41


 2266              		.loc 1 1532 0
 2267 0014 5A62     		str	r2, [r3, #36]
 2268              		.loc 1 1533 0
 2269 0016 7047     		bx	lr
 2270              	.L189:
 2271              		.align	2
 2272              	.L188:
 2273 0018 00280040 		.word	1073752064
 2274              		.cfi_endproc
 2275              	.LFE134:
 2276              		.size	RTC_SetWakeUpCounter, .-RTC_SetWakeUpCounter
 2277 001c AFF30080 		.section	.text.RTC_GetWakeUpCounter,"ax",%progbits
 2278              		.align	2
 2279              		.p2align 4,,15
 2280              		.global	RTC_GetWakeUpCounter
 2281              		.thumb
 2282              		.thumb_func
 2283              		.type	RTC_GetWakeUpCounter, %function
 2284              	RTC_GetWakeUpCounter:
 2285              	.LFB135:
 2286              		.loc 1 1541 0
 2287              		.cfi_startproc
 2288              		@ args = 0, pretend = 0, frame = 0
 2289              		@ frame_needed = 0, uses_anonymous_args = 0
 2290              		@ link register save eliminated.
 2291              		.loc 1 1543 0
 2292 0000 014B     		ldr	r3, .L191
 2293 0002 5869     		ldr	r0, [r3, #20]
 2294              		.loc 1 1544 0
 2295 0004 80B2     		uxth	r0, r0
 2296 0006 7047     		bx	lr
 2297              	.L192:
 2298              		.align	2
 2299              	.L191:
 2300 0008 00280040 		.word	1073752064
 2301              		.cfi_endproc
 2302              	.LFE135:
 2303              		.size	RTC_GetWakeUpCounter, .-RTC_GetWakeUpCounter
 2304 000c AFF30080 		.section	.text.RTC_WakeUpCmd,"ax",%progbits
 2305              		.align	2
 2306              		.p2align 4,,15
 2307              		.global	RTC_WakeUpCmd
 2308              		.thumb
 2309              		.thumb_func
 2310              		.type	RTC_WakeUpCmd, %function
 2311              	RTC_WakeUpCmd:
 2312              	.LFB136:
 2313              		.loc 1 1553 0
 2314              		.cfi_startproc
 2315              		@ args = 0, pretend = 0, frame = 8
 2316              		@ frame_needed = 0, uses_anonymous_args = 0
 2317              		@ link register save eliminated.
 2318              	.LVL201:
 2319 0000 10B4     		push	{r4}
 2320              		.cfi_def_cfa_offset 4
 2321              		.cfi_offset 4, -4
 2322              		.loc 1 1562 0
ARM GAS  C:\Users\jsyoon\AppData\Local\Temp\ccHEUWmT.s 			page 42


 2323 0002 1449     		ldr	r1, .L203
 2324              		.loc 1 1553 0
 2325 0004 83B0     		sub	sp, sp, #12
 2326              		.cfi_def_cfa_offset 16
 2327              		.loc 1 1563 0
 2328 0006 5323     		movs	r3, #83
 2329              		.loc 1 1554 0
 2330 0008 0024     		movs	r4, #0
 2331              		.loc 1 1562 0
 2332 000a CA22     		movs	r2, #202
 2333              		.loc 1 1554 0
 2334 000c 0194     		str	r4, [sp, #4]
 2335              	.LVL202:
 2336              		.loc 1 1562 0
 2337 000e 4A62     		str	r2, [r1, #36]
 2338              		.loc 1 1563 0
 2339 0010 4B62     		str	r3, [r1, #36]
 2340              		.loc 1 1568 0
 2341 0012 8B68     		ldr	r3, [r1, #8]
 2342              		.loc 1 1565 0
 2343 0014 C8B9     		cbnz	r0, .L201
 2344              		.loc 1 1574 0
 2345 0016 23F48063 		bic	r3, r3, #1024
 2346 001a 8B60     		str	r3, [r1, #8]
 2347 001c 00E0     		b	.L197
 2348              	.LVL203:
 2349              	.L202:
 2350              		.loc 1 1580 0 discriminator 1
 2351 001e 4AB9     		cbnz	r2, .L196
 2352              	.LVL204:
 2353              	.L197:
 2354              		.loc 1 1578 0 discriminator 1
 2355 0020 CA68     		ldr	r2, [r1, #12]
 2356              		.loc 1 1579 0 discriminator 1
 2357 0022 019B     		ldr	r3, [sp, #4]
 2358 0024 0133     		adds	r3, r3, #1
 2359 0026 0193     		str	r3, [sp, #4]
 2360              		.loc 1 1580 0 discriminator 1
 2361 0028 019B     		ldr	r3, [sp, #4]
 2362 002a B3F5803F 		cmp	r3, #65536
 2363              		.loc 1 1578 0 discriminator 1
 2364 002e 02F00402 		and	r2, r2, #4
 2365              	.LVL205:
 2366              		.loc 1 1580 0 discriminator 1
 2367 0032 F4D1     		bne	.L202
 2368              	.L196:
 2369              		.loc 1 1582 0
 2370 0034 074B     		ldr	r3, .L203
 2371 0036 D868     		ldr	r0, [r3, #12]
 2372              	.LVL206:
 2373              		.loc 1 1569 0
 2374 0038 C0F38000 		ubfx	r0, r0, #2, #1
 2375              	.LVL207:
 2376              	.L195:
 2377              		.loc 1 1593 0
 2378 003c 054B     		ldr	r3, .L203
 2379 003e FF22     		movs	r2, #255
ARM GAS  C:\Users\jsyoon\AppData\Local\Temp\ccHEUWmT.s 			page 43


 2380 0040 5A62     		str	r2, [r3, #36]
 2381              		.loc 1 1596 0
 2382 0042 03B0     		add	sp, sp, #12
 2383              		@ sp needed
 2384 0044 5DF8044B 		ldr	r4, [sp], #4
 2385 0048 7047     		bx	lr
 2386              	.LVL208:
 2387              	.L201:
 2388              		.loc 1 1568 0
 2389 004a 43F48063 		orr	r3, r3, #1024
 2390 004e 8B60     		str	r3, [r1, #8]
 2391              	.LVL209:
 2392              		.loc 1 1569 0
 2393 0050 0120     		movs	r0, #1
 2394              	.LVL210:
 2395 0052 F3E7     		b	.L195
 2396              	.L204:
 2397              		.align	2
 2398              	.L203:
 2399 0054 00280040 		.word	1073752064
 2400              		.cfi_endproc
 2401              	.LFE136:
 2402              		.size	RTC_WakeUpCmd, .-RTC_WakeUpCmd
 2403 0058 AFF30080 		.section	.text.RTC_DayLightSavingConfig,"ax",%progbits
 2403      AFF30080 
 2404              		.align	2
 2405              		.p2align 4,,15
 2406              		.global	RTC_DayLightSavingConfig
 2407              		.thumb
 2408              		.thumb_func
 2409              		.type	RTC_DayLightSavingConfig, %function
 2410              	RTC_DayLightSavingConfig:
 2411              	.LFB137:
 2412              		.loc 1 1630 0
 2413              		.cfi_startproc
 2414              		@ args = 0, pretend = 0, frame = 0
 2415              		@ frame_needed = 0, uses_anonymous_args = 0
 2416              		@ link register save eliminated.
 2417              	.LVL211:
 2418              		.loc 1 1636 0
 2419 0000 094B     		ldr	r3, .L206
 2420              		.loc 1 1630 0
 2421 0002 10B4     		push	{r4}
 2422              		.cfi_def_cfa_offset 4
 2423              		.cfi_offset 4, -4
 2424              		.loc 1 1637 0
 2425 0004 5322     		movs	r2, #83
 2426              		.loc 1 1636 0
 2427 0006 CA24     		movs	r4, #202
 2428 0008 5C62     		str	r4, [r3, #36]
 2429              		.loc 1 1637 0
 2430 000a 5A62     		str	r2, [r3, #36]
 2431              		.loc 1 1640 0
 2432 000c 9A68     		ldr	r2, [r3, #8]
 2433              		.loc 1 1647 0
 2434 000e 5DF8044B 		ldr	r4, [sp], #4
 2435              		.loc 1 1640 0
ARM GAS  C:\Users\jsyoon\AppData\Local\Temp\ccHEUWmT.s 			page 44


 2436 0012 22F48022 		bic	r2, r2, #262144
 2437 0016 9A60     		str	r2, [r3, #8]
 2438              		.loc 1 1643 0
 2439 0018 9A68     		ldr	r2, [r3, #8]
 2440 001a 1143     		orrs	r1, r1, r2
 2441              	.LVL212:
 2442 001c 0843     		orrs	r0, r0, r1
 2443              	.LVL213:
 2444              		.loc 1 1646 0
 2445 001e FF21     		movs	r1, #255
 2446              		.loc 1 1643 0
 2447 0020 9860     		str	r0, [r3, #8]
 2448              		.loc 1 1646 0
 2449 0022 5962     		str	r1, [r3, #36]
 2450              		.loc 1 1647 0
 2451 0024 7047     		bx	lr
 2452              	.L207:
 2453 0026 00BF     		.align	2
 2454              	.L206:
 2455 0028 00280040 		.word	1073752064
 2456              		.cfi_endproc
 2457              	.LFE137:
 2458              		.size	RTC_DayLightSavingConfig, .-RTC_DayLightSavingConfig
 2459 002c AFF30080 		.section	.text.RTC_GetStoreOperation,"ax",%progbits
 2460              		.align	2
 2461              		.p2align 4,,15
 2462              		.global	RTC_GetStoreOperation
 2463              		.thumb
 2464              		.thumb_func
 2465              		.type	RTC_GetStoreOperation, %function
 2466              	RTC_GetStoreOperation:
 2467              	.LFB138:
 2468              		.loc 1 1657 0
 2469              		.cfi_startproc
 2470              		@ args = 0, pretend = 0, frame = 0
 2471              		@ frame_needed = 0, uses_anonymous_args = 0
 2472              		@ link register save eliminated.
 2473              		.loc 1 1658 0
 2474 0000 024B     		ldr	r3, .L209
 2475 0002 9868     		ldr	r0, [r3, #8]
 2476              		.loc 1 1659 0
 2477 0004 00F48020 		and	r0, r0, #262144
 2478 0008 7047     		bx	lr
 2479              	.L210:
 2480 000a 00BF     		.align	2
 2481              	.L209:
 2482 000c 00280040 		.word	1073752064
 2483              		.cfi_endproc
 2484              	.LFE138:
 2485              		.size	RTC_GetStoreOperation, .-RTC_GetStoreOperation
 2486              		.section	.text.RTC_OutputConfig,"ax",%progbits
 2487              		.align	2
 2488              		.p2align 4,,15
 2489              		.global	RTC_OutputConfig
 2490              		.thumb
 2491              		.thumb_func
 2492              		.type	RTC_OutputConfig, %function
ARM GAS  C:\Users\jsyoon\AppData\Local\Temp\ccHEUWmT.s 			page 45


 2493              	RTC_OutputConfig:
 2494              	.LFB139:
 2495              		.loc 1 1696 0
 2496              		.cfi_startproc
 2497              		@ args = 0, pretend = 0, frame = 0
 2498              		@ frame_needed = 0, uses_anonymous_args = 0
 2499              		@ link register save eliminated.
 2500              	.LVL214:
 2501              		.loc 1 1702 0
 2502 0000 094B     		ldr	r3, .L212
 2503              		.loc 1 1696 0
 2504 0002 10B4     		push	{r4}
 2505              		.cfi_def_cfa_offset 4
 2506              		.cfi_offset 4, -4
 2507              		.loc 1 1703 0
 2508 0004 5322     		movs	r2, #83
 2509              		.loc 1 1702 0
 2510 0006 CA24     		movs	r4, #202
 2511 0008 5C62     		str	r4, [r3, #36]
 2512              		.loc 1 1703 0
 2513 000a 5A62     		str	r2, [r3, #36]
 2514              		.loc 1 1706 0
 2515 000c 9A68     		ldr	r2, [r3, #8]
 2516              		.loc 1 1713 0
 2517 000e 5DF8044B 		ldr	r4, [sp], #4
 2518              		.loc 1 1706 0
 2519 0012 22F4E002 		bic	r2, r2, #7340032
 2520 0016 9A60     		str	r2, [r3, #8]
 2521              		.loc 1 1709 0
 2522 0018 9A68     		ldr	r2, [r3, #8]
 2523 001a 1143     		orrs	r1, r1, r2
 2524              	.LVL215:
 2525 001c 0843     		orrs	r0, r0, r1
 2526              	.LVL216:
 2527              		.loc 1 1712 0
 2528 001e FF21     		movs	r1, #255
 2529              		.loc 1 1709 0
 2530 0020 9860     		str	r0, [r3, #8]
 2531              		.loc 1 1712 0
 2532 0022 5962     		str	r1, [r3, #36]
 2533              		.loc 1 1713 0
 2534 0024 7047     		bx	lr
 2535              	.L213:
 2536 0026 00BF     		.align	2
 2537              	.L212:
 2538 0028 00280040 		.word	1073752064
 2539              		.cfi_endproc
 2540              	.LFE139:
 2541              		.size	RTC_OutputConfig, .-RTC_OutputConfig
 2542 002c AFF30080 		.section	.text.RTC_CoarseCalibConfig,"ax",%progbits
 2543              		.align	2
 2544              		.p2align 4,,15
 2545              		.global	RTC_CoarseCalibConfig
 2546              		.thumb
 2547              		.thumb_func
 2548              		.type	RTC_CoarseCalibConfig, %function
 2549              	RTC_CoarseCalibConfig:
ARM GAS  C:\Users\jsyoon\AppData\Local\Temp\ccHEUWmT.s 			page 46


 2550              	.LFB140:
 2551              		.loc 1 1750 0
 2552              		.cfi_startproc
 2553              		@ args = 0, pretend = 0, frame = 0
 2554              		@ frame_needed = 0, uses_anonymous_args = 0
 2555              	.LVL217:
 2556 0000 70B5     		push	{r4, r5, r6, lr}
 2557              		.cfi_def_cfa_offset 16
 2558              		.cfi_offset 4, -16
 2559              		.cfi_offset 5, -12
 2560              		.cfi_offset 6, -8
 2561              		.cfi_offset 14, -4
 2562              		.loc 1 1758 0
 2563 0002 0A4C     		ldr	r4, .L217
 2564 0004 CA22     		movs	r2, #202
 2565              		.loc 1 1759 0
 2566 0006 5323     		movs	r3, #83
 2567              		.loc 1 1758 0
 2568 0008 6262     		str	r2, [r4, #36]
 2569              		.loc 1 1759 0
 2570 000a 6362     		str	r3, [r4, #36]
 2571              		.loc 1 1750 0
 2572 000c 0546     		mov	r5, r0
 2573 000e 0E46     		mov	r6, r1
 2574              		.loc 1 1762 0
 2575 0010 FFF7FEFF 		bl	RTC_EnterInitMode
 2576              	.LVL218:
 2577 0014 30B1     		cbz	r0, .L215
 2578              		.loc 1 1769 0
 2579 0016 3543     		orrs	r5, r5, r6
 2580              	.LVL219:
 2581 0018 A561     		str	r5, [r4, #24]
 2582              	.LBB192:
 2583              	.LBB193:
 2584              		.loc 1 598 0
 2585 001a E368     		ldr	r3, [r4, #12]
 2586 001c 23F08003 		bic	r3, r3, #128
 2587 0020 E360     		str	r3, [r4, #12]
 2588              	.LVL220:
 2589              	.LBE193:
 2590              	.LBE192:
 2591              		.loc 1 1773 0
 2592 0022 0120     		movs	r0, #1
 2593              	.LVL221:
 2594              	.L215:
 2595              		.loc 1 1777 0
 2596 0024 014B     		ldr	r3, .L217
 2597 0026 FF22     		movs	r2, #255
 2598 0028 5A62     		str	r2, [r3, #36]
 2599              		.loc 1 1780 0
 2600 002a 70BD     		pop	{r4, r5, r6, pc}
 2601              	.LVL222:
 2602              	.L218:
 2603              		.align	2
 2604              	.L217:
 2605 002c 00280040 		.word	1073752064
 2606              		.cfi_endproc
ARM GAS  C:\Users\jsyoon\AppData\Local\Temp\ccHEUWmT.s 			page 47


 2607              	.LFE140:
 2608              		.size	RTC_CoarseCalibConfig, .-RTC_CoarseCalibConfig
 2609              		.section	.text.RTC_CoarseCalibCmd,"ax",%progbits
 2610              		.align	2
 2611              		.p2align 4,,15
 2612              		.global	RTC_CoarseCalibCmd
 2613              		.thumb
 2614              		.thumb_func
 2615              		.type	RTC_CoarseCalibCmd, %function
 2616              	RTC_CoarseCalibCmd:
 2617              	.LFB141:
 2618              		.loc 1 1791 0
 2619              		.cfi_startproc
 2620              		@ args = 0, pretend = 0, frame = 0
 2621              		@ frame_needed = 0, uses_anonymous_args = 0
 2622              	.LVL223:
 2623 0000 38B5     		push	{r3, r4, r5, lr}
 2624              		.cfi_def_cfa_offset 16
 2625              		.cfi_offset 3, -16
 2626              		.cfi_offset 4, -12
 2627              		.cfi_offset 5, -8
 2628              		.cfi_offset 14, -4
 2629              		.loc 1 1798 0
 2630 0002 0E4C     		ldr	r4, .L225
 2631 0004 CA22     		movs	r2, #202
 2632              		.loc 1 1799 0
 2633 0006 5323     		movs	r3, #83
 2634              		.loc 1 1798 0
 2635 0008 6262     		str	r2, [r4, #36]
 2636              		.loc 1 1799 0
 2637 000a 6362     		str	r3, [r4, #36]
 2638              		.loc 1 1791 0
 2639 000c 0546     		mov	r5, r0
 2640              		.loc 1 1802 0
 2641 000e FFF7FEFF 		bl	RTC_EnterInitMode
 2642              	.LVL224:
 2643 0012 50B1     		cbz	r0, .L220
 2644              		.loc 1 1811 0
 2645 0014 A368     		ldr	r3, [r4, #8]
 2646              		.loc 1 1808 0
 2647 0016 65B9     		cbnz	r5, .L224
 2648              		.loc 1 1816 0
 2649 0018 23F08003 		bic	r3, r3, #128
 2650 001c A360     		str	r3, [r4, #8]
 2651              	.L222:
 2652              	.LBB194:
 2653              	.LBB195:
 2654              		.loc 1 598 0
 2655 001e 074B     		ldr	r3, .L225
 2656 0020 DA68     		ldr	r2, [r3, #12]
 2657 0022 22F08002 		bic	r2, r2, #128
 2658 0026 DA60     		str	r2, [r3, #12]
 2659              	.LVL225:
 2660              	.LBE195:
 2661              	.LBE194:
 2662              		.loc 1 1821 0
 2663 0028 0120     		movs	r0, #1
ARM GAS  C:\Users\jsyoon\AppData\Local\Temp\ccHEUWmT.s 			page 48


 2664              	.LVL226:
 2665              	.L220:
 2666              		.loc 1 1825 0
 2667 002a 044B     		ldr	r3, .L225
 2668 002c FF22     		movs	r2, #255
 2669 002e 5A62     		str	r2, [r3, #36]
 2670              		.loc 1 1828 0
 2671 0030 38BD     		pop	{r3, r4, r5, pc}
 2672              	.LVL227:
 2673              	.L224:
 2674              		.loc 1 1811 0
 2675 0032 43F08003 		orr	r3, r3, #128
 2676 0036 A360     		str	r3, [r4, #8]
 2677 0038 F1E7     		b	.L222
 2678              	.L226:
 2679 003a 00BF     		.align	2
 2680              	.L225:
 2681 003c 00280040 		.word	1073752064
 2682              		.cfi_endproc
 2683              	.LFE141:
 2684              		.size	RTC_CoarseCalibCmd, .-RTC_CoarseCalibCmd
 2685              		.section	.text.RTC_CalibOutputCmd,"ax",%progbits
 2686              		.align	2
 2687              		.p2align 4,,15
 2688              		.global	RTC_CalibOutputCmd
 2689              		.thumb
 2690              		.thumb_func
 2691              		.type	RTC_CalibOutputCmd, %function
 2692              	RTC_CalibOutputCmd:
 2693              	.LFB142:
 2694              		.loc 1 1837 0
 2695              		.cfi_startproc
 2696              		@ args = 0, pretend = 0, frame = 0
 2697              		@ frame_needed = 0, uses_anonymous_args = 0
 2698              		@ link register save eliminated.
 2699              	.LVL228:
 2700              		.loc 1 1842 0
 2701 0000 0A4B     		ldr	r3, .L231
 2702              		.loc 1 1843 0
 2703 0002 5322     		movs	r2, #83
 2704              		.loc 1 1842 0
 2705 0004 CA21     		movs	r1, #202
 2706 0006 5962     		str	r1, [r3, #36]
 2707              		.loc 1 1843 0
 2708 0008 5A62     		str	r2, [r3, #36]
 2709              		.loc 1 1848 0
 2710 000a 9A68     		ldr	r2, [r3, #8]
 2711              		.loc 1 1845 0
 2712 000c 30B9     		cbnz	r0, .L230
 2713              		.loc 1 1853 0
 2714 000e 22F40002 		bic	r2, r2, #8388608
 2715 0012 9A60     		str	r2, [r3, #8]
 2716              		.loc 1 1857 0
 2717 0014 054B     		ldr	r3, .L231
 2718 0016 FF22     		movs	r2, #255
 2719 0018 5A62     		str	r2, [r3, #36]
 2720 001a 7047     		bx	lr
ARM GAS  C:\Users\jsyoon\AppData\Local\Temp\ccHEUWmT.s 			page 49


 2721              	.L230:
 2722              		.loc 1 1848 0
 2723 001c 42F40002 		orr	r2, r2, #8388608
 2724 0020 9A60     		str	r2, [r3, #8]
 2725              		.loc 1 1857 0
 2726 0022 024B     		ldr	r3, .L231
 2727 0024 FF22     		movs	r2, #255
 2728 0026 5A62     		str	r2, [r3, #36]
 2729 0028 7047     		bx	lr
 2730              	.L232:
 2731 002a 00BF     		.align	2
 2732              	.L231:
 2733 002c 00280040 		.word	1073752064
 2734              		.cfi_endproc
 2735              	.LFE142:
 2736              		.size	RTC_CalibOutputCmd, .-RTC_CalibOutputCmd
 2737              		.section	.text.RTC_CalibOutputConfig,"ax",%progbits
 2738              		.align	2
 2739              		.p2align 4,,15
 2740              		.global	RTC_CalibOutputConfig
 2741              		.thumb
 2742              		.thumb_func
 2743              		.type	RTC_CalibOutputConfig, %function
 2744              	RTC_CalibOutputConfig:
 2745              	.LFB143:
 2746              		.loc 1 1869 0
 2747              		.cfi_startproc
 2748              		@ args = 0, pretend = 0, frame = 0
 2749              		@ frame_needed = 0, uses_anonymous_args = 0
 2750              		@ link register save eliminated.
 2751              	.LVL229:
 2752              		.loc 1 1874 0
 2753 0000 074B     		ldr	r3, .L234
 2754 0002 CA21     		movs	r1, #202
 2755              		.loc 1 1875 0
 2756 0004 5322     		movs	r2, #83
 2757              		.loc 1 1874 0
 2758 0006 5962     		str	r1, [r3, #36]
 2759              		.loc 1 1875 0
 2760 0008 5A62     		str	r2, [r3, #36]
 2761              		.loc 1 1878 0
 2762 000a 9A68     		ldr	r2, [r3, #8]
 2763 000c 22F40022 		bic	r2, r2, #524288
 2764 0010 9A60     		str	r2, [r3, #8]
 2765              		.loc 1 1881 0
 2766 0012 9968     		ldr	r1, [r3, #8]
 2767              		.loc 1 1884 0
 2768 0014 FF22     		movs	r2, #255
 2769              		.loc 1 1881 0
 2770 0016 0843     		orrs	r0, r0, r1
 2771              	.LVL230:
 2772 0018 9860     		str	r0, [r3, #8]
 2773              		.loc 1 1884 0
 2774 001a 5A62     		str	r2, [r3, #36]
 2775 001c 7047     		bx	lr
 2776              	.L235:
 2777 001e 00BF     		.align	2
ARM GAS  C:\Users\jsyoon\AppData\Local\Temp\ccHEUWmT.s 			page 50


 2778              	.L234:
 2779 0020 00280040 		.word	1073752064
 2780              		.cfi_endproc
 2781              	.LFE143:
 2782              		.size	RTC_CalibOutputConfig, .-RTC_CalibOutputConfig
 2783 0024 AFF30080 		.section	.text.RTC_SmoothCalibConfig,"ax",%progbits
 2783      AFF30080 
 2783      AFF30080 
 2784              		.align	2
 2785              		.p2align 4,,15
 2786              		.global	RTC_SmoothCalibConfig
 2787              		.thumb
 2788              		.thumb_func
 2789              		.type	RTC_SmoothCalibConfig, %function
 2790              	RTC_SmoothCalibConfig:
 2791              	.LFB144:
 2792              		.loc 1 1907 0
 2793              		.cfi_startproc
 2794              		@ args = 0, pretend = 0, frame = 0
 2795              		@ frame_needed = 0, uses_anonymous_args = 0
 2796              		@ link register save eliminated.
 2797              	.LVL231:
 2798 0000 30B4     		push	{r4, r5}
 2799              		.cfi_def_cfa_offset 8
 2800              		.cfi_offset 4, -8
 2801              		.cfi_offset 5, -4
 2802              		.loc 1 1917 0
 2803 0002 114D     		ldr	r5, .L255
 2804 0004 CA24     		movs	r4, #202
 2805              		.loc 1 1918 0
 2806 0006 5323     		movs	r3, #83
 2807              		.loc 1 1917 0
 2808 0008 6C62     		str	r4, [r5, #36]
 2809              		.loc 1 1918 0
 2810 000a 6B62     		str	r3, [r5, #36]
 2811              		.loc 1 1921 0
 2812 000c EB68     		ldr	r3, [r5, #12]
 2813 000e DC03     		lsls	r4, r3, #15
 2814 0010 0AD5     		bpl	.L237
 2815              		.loc 1 1924 0 discriminator 1
 2816 0012 EB68     		ldr	r3, [r5, #12]
 2817 0014 DB03     		lsls	r3, r3, #15
 2818 0016 07D5     		bpl	.L237
 2819              		.loc 1 1924 0 is_stmt 0
 2820 0018 4FF40033 		mov	r3, #131072
 2821 001c 01E0     		b	.L238
 2822              	.LVL232:
 2823              	.L254:
 2824              		.loc 1 1924 0 discriminator 2
 2825 001e 013B     		subs	r3, r3, #1
 2826              	.LVL233:
 2827 0020 02D0     		beq	.L237
 2828              	.LVL234:
 2829              	.L238:
 2830              		.loc 1 1924 0
 2831 0022 EC68     		ldr	r4, [r5, #12]
 2832 0024 E403     		lsls	r4, r4, #15
ARM GAS  C:\Users\jsyoon\AppData\Local\Temp\ccHEUWmT.s 			page 51


 2833 0026 FAD4     		bmi	.L254
 2834              	.LVL235:
 2835              	.L237:
 2836              		.loc 1 1931 0 is_stmt 1
 2837 0028 074B     		ldr	r3, .L255
 2838 002a DC68     		ldr	r4, [r3, #12]
 2839 002c E403     		lsls	r4, r4, #15
 2840 002e 08D4     		bmi	.L240
 2841              		.loc 1 1934 0
 2842 0030 1143     		orrs	r1, r1, r2
 2843              	.LVL236:
 2844 0032 0843     		orrs	r0, r0, r1
 2845              	.LVL237:
 2846 0034 D863     		str	r0, [r3, #60]
 2847              	.LVL238:
 2848              		.loc 1 1936 0
 2849 0036 0120     		movs	r0, #1
 2850              	.LVL239:
 2851              	.L239:
 2852              		.loc 1 1944 0
 2853 0038 034B     		ldr	r3, .L255
 2854 003a FF22     		movs	r2, #255
 2855              	.LVL240:
 2856 003c 5A62     		str	r2, [r3, #36]
 2857              		.loc 1 1947 0
 2858 003e 30BC     		pop	{r4, r5}
 2859 0040 7047     		bx	lr
 2860              	.LVL241:
 2861              	.L240:
 2862              		.loc 1 1940 0
 2863 0042 0020     		movs	r0, #0
 2864              	.LVL242:
 2865 0044 F8E7     		b	.L239
 2866              	.L256:
 2867 0046 00BF     		.align	2
 2868              	.L255:
 2869 0048 00280040 		.word	1073752064
 2870              		.cfi_endproc
 2871              	.LFE144:
 2872              		.size	RTC_SmoothCalibConfig, .-RTC_SmoothCalibConfig
 2873 004c AFF30080 		.section	.text.RTC_TimeStampCmd,"ax",%progbits
 2874              		.align	2
 2875              		.p2align 4,,15
 2876              		.global	RTC_TimeStampCmd
 2877              		.thumb
 2878              		.thumb_func
 2879              		.type	RTC_TimeStampCmd, %function
 2880              	RTC_TimeStampCmd:
 2881              	.LFB145:
 2882              		.loc 1 1981 0
 2883              		.cfi_startproc
 2884              		@ args = 0, pretend = 0, frame = 0
 2885              		@ frame_needed = 0, uses_anonymous_args = 0
 2886              		@ link register save eliminated.
 2887              	.LVL243:
 2888              		.loc 1 1989 0
 2889 0000 0B4B     		ldr	r3, .L261
ARM GAS  C:\Users\jsyoon\AppData\Local\Temp\ccHEUWmT.s 			page 52


 2890 0002 9B68     		ldr	r3, [r3, #8]
 2891 0004 23F40063 		bic	r3, r3, #2048
 2892              		.loc 1 1981 0
 2893 0008 10B4     		push	{r4}
 2894              		.cfi_def_cfa_offset 4
 2895              		.cfi_offset 4, -4
 2896              		.loc 1 1989 0
 2897 000a 23F00803 		bic	r3, r3, #8
 2898              	.LVL244:
 2899              		.loc 1 1992 0
 2900 000e 59B9     		cbnz	r1, .L260
 2901              		.loc 1 1998 0
 2902 0010 1843     		orrs	r0, r0, r3
 2903              	.LVL245:
 2904              	.L259:
 2905              		.loc 1 2002 0
 2906 0012 074B     		ldr	r3, .L261
 2907 0014 CA24     		movs	r4, #202
 2908              		.loc 1 2003 0
 2909 0016 5321     		movs	r1, #83
 2910              	.LVL246:
 2911              		.loc 1 2009 0
 2912 0018 FF22     		movs	r2, #255
 2913              		.loc 1 2002 0
 2914 001a 5C62     		str	r4, [r3, #36]
 2915              		.loc 1 2003 0
 2916 001c 5962     		str	r1, [r3, #36]
 2917              		.loc 1 2010 0
 2918 001e 5DF8044B 		ldr	r4, [sp], #4
 2919              		.loc 1 2006 0
 2920 0022 9860     		str	r0, [r3, #8]
 2921              		.loc 1 2009 0
 2922 0024 5A62     		str	r2, [r3, #36]
 2923              		.loc 1 2010 0
 2924 0026 7047     		bx	lr
 2925              	.LVL247:
 2926              	.L260:
 2927              		.loc 1 1994 0
 2928 0028 43F40063 		orr	r3, r3, #2048
 2929              	.LVL248:
 2930 002c 1843     		orrs	r0, r0, r3
 2931              	.LVL249:
 2932 002e F0E7     		b	.L259
 2933              	.L262:
 2934              		.align	2
 2935              	.L261:
 2936 0030 00280040 		.word	1073752064
 2937              		.cfi_endproc
 2938              	.LFE145:
 2939              		.size	RTC_TimeStampCmd, .-RTC_TimeStampCmd
 2940 0034 AFF30080 		.section	.text.RTC_GetTimeStamp,"ax",%progbits
 2940      AFF30080 
 2940      AFF30080 
 2941              		.align	2
 2942              		.p2align 4,,15
 2943              		.global	RTC_GetTimeStamp
 2944              		.thumb
ARM GAS  C:\Users\jsyoon\AppData\Local\Temp\ccHEUWmT.s 			page 53


 2945              		.thumb_func
 2946              		.type	RTC_GetTimeStamp, %function
 2947              	RTC_GetTimeStamp:
 2948              	.LFB146:
 2949              		.loc 1 2026 0
 2950              		.cfi_startproc
 2951              		@ args = 0, pretend = 0, frame = 0
 2952              		@ frame_needed = 0, uses_anonymous_args = 0
 2953              		@ link register save eliminated.
 2954              	.LVL250:
 2955 0000 2DE9F003 		push	{r4, r5, r6, r7, r8, r9}
 2956              		.cfi_def_cfa_offset 24
 2957              		.cfi_offset 4, -24
 2958              		.cfi_offset 5, -20
 2959              		.cfi_offset 6, -16
 2960              		.cfi_offset 7, -12
 2961              		.cfi_offset 8, -8
 2962              		.cfi_offset 9, -4
 2963              		.loc 1 2033 0
 2964 0004 2C4C     		ldr	r4, .L265
 2965 0006 236B     		ldr	r3, [r4, #48]
 2966              	.LVL251:
 2967              		.loc 1 2034 0
 2968 0008 646B     		ldr	r4, [r4, #52]
 2969              	.LVL252:
 2970              		.loc 1 2040 0
 2971 000a 03F4800C 		and	ip, r3, #4194304
 2972              		.loc 1 2037 0
 2973 000e C3F30549 		ubfx	r9, r3, #16, #6
 2974              		.loc 1 2038 0
 2975 0012 C3F30628 		ubfx	r8, r3, #8, #7
 2976              		.loc 1 2044 0
 2977 0016 C4F30426 		ubfx	r6, r4, #8, #5
 2978              		.loc 1 2045 0
 2979 001a 04F03F05 		and	r5, r4, #63
 2980              		.loc 1 2039 0
 2981 001e 03F07F03 		and	r3, r3, #127
 2982              	.LVL253:
 2983              		.loc 1 2040 0
 2984 0022 4FEA1C4C 		lsr	ip, ip, #16
 2985              		.loc 1 2043 0
 2986 0026 0027     		movs	r7, #0
 2987              		.loc 1 2046 0
 2988 0028 C4F34234 		ubfx	r4, r4, #13, #3
 2989              	.LVL254:
 2990              		.loc 1 2037 0
 2991 002c 81F80090 		strb	r9, [r1]
 2992              		.loc 1 2038 0
 2993 0030 81F80180 		strb	r8, [r1, #1]
 2994              		.loc 1 2039 0
 2995 0034 8B70     		strb	r3, [r1, #2]
 2996              		.loc 1 2040 0
 2997 0036 81F803C0 		strb	ip, [r1, #3]
 2998              		.loc 1 2043 0
 2999 003a D770     		strb	r7, [r2, #3]
 3000              		.loc 1 2044 0
 3001 003c 5670     		strb	r6, [r2, #1]
ARM GAS  C:\Users\jsyoon\AppData\Local\Temp\ccHEUWmT.s 			page 54


 3002              		.loc 1 2045 0
 3003 003e 9570     		strb	r5, [r2, #2]
 3004              		.loc 1 2046 0
 3005 0040 1470     		strb	r4, [r2]
 3006              		.loc 1 2049 0
 3007 0042 A8BB     		cbnz	r0, .L263
 3008              		.loc 1 2052 0
 3009 0044 0E78     		ldrb	r6, [r1]	@ zero_extendqisi2
 3010              	.LVL255:
 3011              		.loc 1 2053 0
 3012 0046 4C78     		ldrb	r4, [r1, #1]	@ zero_extendqisi2
 3013              	.LVL256:
 3014              		.loc 1 2054 0
 3015 0048 8B78     		ldrb	r3, [r1, #2]	@ zero_extendqisi2
 3016              	.LVL257:
 3017              	.LBB196:
 3018              	.LBB197:
 3019              		.loc 1 2743 0
 3020 004a 3709     		lsrs	r7, r6, #4
 3021              	.LBE197:
 3022              	.LBE196:
 3023              	.LBB201:
 3024              	.LBB202:
 3025 004c 2509     		lsrs	r5, r4, #4
 3026              	.LBE202:
 3027              	.LBE201:
 3028              	.LBB206:
 3029              	.LBB207:
 3030 004e 1809     		lsrs	r0, r3, #4
 3031              	.LVL258:
 3032              	.LBE207:
 3033              	.LBE206:
 3034              	.LBB211:
 3035              	.LBB198:
 3036              		.loc 1 2744 0
 3037 0050 06F00F06 		and	r6, r6, #15
 3038              	.LVL259:
 3039              	.LBE198:
 3040              	.LBE211:
 3041              	.LBB212:
 3042              	.LBB203:
 3043 0054 04F00F04 		and	r4, r4, #15
 3044              	.LVL260:
 3045              	.LBE203:
 3046              	.LBE212:
 3047              	.LBB213:
 3048              	.LBB208:
 3049 0058 03F00F03 		and	r3, r3, #15
 3050              	.LVL261:
 3051              	.LBE208:
 3052              	.LBE213:
 3053              	.LBB214:
 3054              	.LBB199:
 3055              		.loc 1 2743 0
 3056 005c 07EB8707 		add	r7, r7, r7, lsl #2
 3057              	.LBE199:
 3058              	.LBE214:
ARM GAS  C:\Users\jsyoon\AppData\Local\Temp\ccHEUWmT.s 			page 55


 3059              	.LBB215:
 3060              	.LBB204:
 3061 0060 05EB8505 		add	r5, r5, r5, lsl #2
 3062              	.LBE204:
 3063              	.LBE215:
 3064              	.LBB216:
 3065              	.LBB209:
 3066 0064 00EB8000 		add	r0, r0, r0, lsl #2
 3067              	.LBE209:
 3068              	.LBE216:
 3069              	.LBB217:
 3070              	.LBB205:
 3071              		.loc 1 2744 0
 3072 0068 04EB4505 		add	r5, r4, r5, lsl #1
 3073              	.LBE205:
 3074              	.LBE217:
 3075              	.LBB218:
 3076              	.LBB210:
 3077 006c 03EB4000 		add	r0, r3, r0, lsl #1
 3078              	.LBE210:
 3079              	.LBE218:
 3080              	.LBB219:
 3081              	.LBB200:
 3082 0070 06EB4707 		add	r7, r6, r7, lsl #1
 3083              	.LBE200:
 3084              	.LBE219:
 3085              		.loc 1 2052 0
 3086 0074 0F70     		strb	r7, [r1]
 3087              	.LVL262:
 3088              		.loc 1 2053 0
 3089 0076 4D70     		strb	r5, [r1, #1]
 3090              	.LVL263:
 3091              		.loc 1 2054 0
 3092 0078 8870     		strb	r0, [r1, #2]
 3093              	.LVL264:
 3094              		.loc 1 2057 0
 3095 007a 5578     		ldrb	r5, [r2, #1]	@ zero_extendqisi2
 3096              	.LVL265:
 3097              		.loc 1 2058 0
 3098 007c 9078     		ldrb	r0, [r2, #2]	@ zero_extendqisi2
 3099              	.LVL266:
 3100              		.loc 1 2059 0
 3101 007e 1378     		ldrb	r3, [r2]	@ zero_extendqisi2
 3102              	.LVL267:
 3103              	.LBB220:
 3104              	.LBB221:
 3105              		.loc 1 2743 0
 3106 0080 2E09     		lsrs	r6, r5, #4
 3107              	.LBE221:
 3108              	.LBE220:
 3109              	.LBB224:
 3110              	.LBB225:
 3111 0082 0409     		lsrs	r4, r0, #4
 3112              	.LBE225:
 3113              	.LBE224:
 3114              	.LBB228:
 3115              	.LBB229:
ARM GAS  C:\Users\jsyoon\AppData\Local\Temp\ccHEUWmT.s 			page 56


 3116 0084 1909     		lsrs	r1, r3, #4
 3117              	.LVL268:
 3118              	.LBE229:
 3119              	.LBE228:
 3120              	.LBB232:
 3121              	.LBB222:
 3122 0086 06EB8606 		add	r6, r6, r6, lsl #2
 3123              		.loc 1 2744 0
 3124 008a 05F00F05 		and	r5, r5, #15
 3125              	.LVL269:
 3126              	.LBE222:
 3127              	.LBE232:
 3128              	.LBB233:
 3129              	.LBB226:
 3130              		.loc 1 2743 0
 3131 008e 04EB8404 		add	r4, r4, r4, lsl #2
 3132              		.loc 1 2744 0
 3133 0092 00F00F00 		and	r0, r0, #15
 3134              	.LVL270:
 3135              	.LBE226:
 3136              	.LBE233:
 3137              	.LBB234:
 3138              	.LBB230:
 3139              		.loc 1 2743 0
 3140 0096 01EB8101 		add	r1, r1, r1, lsl #2
 3141              		.loc 1 2744 0
 3142 009a 03F00F03 		and	r3, r3, #15
 3143              	.LVL271:
 3144              	.LBE230:
 3145              	.LBE234:
 3146              	.LBB235:
 3147              	.LBB223:
 3148 009e 05EB4606 		add	r6, r5, r6, lsl #1
 3149              	.LBE223:
 3150              	.LBE235:
 3151              	.LBB236:
 3152              	.LBB227:
 3153 00a2 00EB4404 		add	r4, r0, r4, lsl #1
 3154              	.LBE227:
 3155              	.LBE236:
 3156              	.LBB237:
 3157              	.LBB231:
 3158 00a6 03EB4101 		add	r1, r3, r1, lsl #1
 3159              	.LBE231:
 3160              	.LBE237:
 3161              		.loc 1 2057 0
 3162 00aa 5670     		strb	r6, [r2, #1]
 3163              	.LVL272:
 3164              		.loc 1 2058 0
 3165 00ac 9470     		strb	r4, [r2, #2]
 3166              	.LVL273:
 3167              		.loc 1 2059 0
 3168 00ae 1170     		strb	r1, [r2]
 3169              	.LVL274:
 3170              	.L263:
 3171              		.loc 1 2061 0
 3172 00b0 BDE8F003 		pop	{r4, r5, r6, r7, r8, r9}
ARM GAS  C:\Users\jsyoon\AppData\Local\Temp\ccHEUWmT.s 			page 57


 3173 00b4 7047     		bx	lr
 3174              	.L266:
 3175 00b6 00BF     		.align	2
 3176              	.L265:
 3177 00b8 00280040 		.word	1073752064
 3178              		.cfi_endproc
 3179              	.LFE146:
 3180              		.size	RTC_GetTimeStamp, .-RTC_GetTimeStamp
 3181 00bc AFF30080 		.section	.text.RTC_GetTimeStampSubSecond,"ax",%progbits
 3182              		.align	2
 3183              		.p2align 4,,15
 3184              		.global	RTC_GetTimeStampSubSecond
 3185              		.thumb
 3186              		.thumb_func
 3187              		.type	RTC_GetTimeStampSubSecond, %function
 3188              	RTC_GetTimeStampSubSecond:
 3189              	.LFB147:
 3190              		.loc 1 2069 0
 3191              		.cfi_startproc
 3192              		@ args = 0, pretend = 0, frame = 0
 3193              		@ frame_needed = 0, uses_anonymous_args = 0
 3194              		@ link register save eliminated.
 3195              		.loc 1 2071 0
 3196 0000 014B     		ldr	r3, .L268
 3197 0002 986B     		ldr	r0, [r3, #56]
 3198              		.loc 1 2072 0
 3199 0004 7047     		bx	lr
 3200              	.L269:
 3201 0006 00BF     		.align	2
 3202              	.L268:
 3203 0008 00280040 		.word	1073752064
 3204              		.cfi_endproc
 3205              	.LFE147:
 3206              		.size	RTC_GetTimeStampSubSecond, .-RTC_GetTimeStampSubSecond
 3207 000c AFF30080 		.section	.text.RTC_TamperTriggerConfig,"ax",%progbits
 3208              		.align	2
 3209              		.p2align 4,,15
 3210              		.global	RTC_TamperTriggerConfig
 3211              		.thumb
 3212              		.thumb_func
 3213              		.type	RTC_TamperTriggerConfig, %function
 3214              	RTC_TamperTriggerConfig:
 3215              	.LFB148:
 3216              		.loc 1 2104 0
 3217              		.cfi_startproc
 3218              		@ args = 0, pretend = 0, frame = 0
 3219              		@ frame_needed = 0, uses_anonymous_args = 0
 3220              		@ link register save eliminated.
 3221              	.LVL275:
 3222              		.loc 1 2112 0
 3223 0000 054B     		ldr	r3, .L274
 3224 0002 1A6C     		ldr	r2, [r3, #64]
 3225              		.loc 1 2109 0
 3226 0004 19B1     		cbz	r1, .L273
 3227              		.loc 1 2117 0
 3228 0006 42EA4000 		orr	r0, r2, r0, lsl #1
 3229              	.LVL276:
ARM GAS  C:\Users\jsyoon\AppData\Local\Temp\ccHEUWmT.s 			page 58


 3230 000a 1864     		str	r0, [r3, #64]
 3231 000c 7047     		bx	lr
 3232              	.LVL277:
 3233              	.L273:
 3234              		.loc 1 2112 0
 3235 000e 22EA4000 		bic	r0, r2, r0, lsl #1
 3236              	.LVL278:
 3237 0012 1864     		str	r0, [r3, #64]
 3238 0014 7047     		bx	lr
 3239              	.L275:
 3240 0016 00BF     		.align	2
 3241              	.L274:
 3242 0018 00280040 		.word	1073752064
 3243              		.cfi_endproc
 3244              	.LFE148:
 3245              		.size	RTC_TamperTriggerConfig, .-RTC_TamperTriggerConfig
 3246 001c AFF30080 		.section	.text.RTC_TamperCmd,"ax",%progbits
 3247              		.align	2
 3248              		.p2align 4,,15
 3249              		.global	RTC_TamperCmd
 3250              		.thumb
 3251              		.thumb_func
 3252              		.type	RTC_TamperCmd, %function
 3253              	RTC_TamperCmd:
 3254              	.LFB149:
 3255              		.loc 1 2130 0
 3256              		.cfi_startproc
 3257              		@ args = 0, pretend = 0, frame = 0
 3258              		@ frame_needed = 0, uses_anonymous_args = 0
 3259              		@ link register save eliminated.
 3260              	.LVL279:
 3261              		.loc 1 2138 0
 3262 0000 044B     		ldr	r3, .L280
 3263 0002 1A6C     		ldr	r2, [r3, #64]
 3264              		.loc 1 2135 0
 3265 0004 19B9     		cbnz	r1, .L279
 3266              		.loc 1 2143 0
 3267 0006 22EA0000 		bic	r0, r2, r0
 3268              	.LVL280:
 3269 000a 1864     		str	r0, [r3, #64]
 3270 000c 7047     		bx	lr
 3271              	.LVL281:
 3272              	.L279:
 3273              		.loc 1 2138 0
 3274 000e 1043     		orrs	r0, r0, r2
 3275              	.LVL282:
 3276 0010 1864     		str	r0, [r3, #64]
 3277 0012 7047     		bx	lr
 3278              	.L281:
 3279              		.align	2
 3280              	.L280:
 3281 0014 00280040 		.word	1073752064
 3282              		.cfi_endproc
 3283              	.LFE149:
 3284              		.size	RTC_TamperCmd, .-RTC_TamperCmd
 3285 0018 AFF30080 		.section	.text.RTC_TamperFilterConfig,"ax",%progbits
 3285      AFF30080 
ARM GAS  C:\Users\jsyoon\AppData\Local\Temp\ccHEUWmT.s 			page 59


 3286              		.align	2
 3287              		.p2align 4,,15
 3288              		.global	RTC_TamperFilterConfig
 3289              		.thumb
 3290              		.thumb_func
 3291              		.type	RTC_TamperFilterConfig, %function
 3292              	RTC_TamperFilterConfig:
 3293              	.LFB150:
 3294              		.loc 1 2161 0
 3295              		.cfi_startproc
 3296              		@ args = 0, pretend = 0, frame = 0
 3297              		@ frame_needed = 0, uses_anonymous_args = 0
 3298              		@ link register save eliminated.
 3299              	.LVL283:
 3300              		.loc 1 2166 0
 3301 0000 044B     		ldr	r3, .L283
 3302 0002 1A6C     		ldr	r2, [r3, #64]
 3303 0004 22F4C052 		bic	r2, r2, #6144
 3304 0008 1A64     		str	r2, [r3, #64]
 3305              		.loc 1 2169 0
 3306 000a 1A6C     		ldr	r2, [r3, #64]
 3307 000c 1043     		orrs	r0, r0, r2
 3308              	.LVL284:
 3309 000e 1864     		str	r0, [r3, #64]
 3310 0010 7047     		bx	lr
 3311              	.L284:
 3312 0012 00BF     		.align	2
 3313              	.L283:
 3314 0014 00280040 		.word	1073752064
 3315              		.cfi_endproc
 3316              	.LFE150:
 3317              		.size	RTC_TamperFilterConfig, .-RTC_TamperFilterConfig
 3318 0018 AFF30080 		.section	.text.RTC_TamperSamplingFreqConfig,"ax",%progbits
 3318      AFF30080 
 3319              		.align	2
 3320              		.p2align 4,,15
 3321              		.global	RTC_TamperSamplingFreqConfig
 3322              		.thumb
 3323              		.thumb_func
 3324              		.type	RTC_TamperSamplingFreqConfig, %function
 3325              	RTC_TamperSamplingFreqConfig:
 3326              	.LFB151:
 3327              		.loc 1 2195 0
 3328              		.cfi_startproc
 3329              		@ args = 0, pretend = 0, frame = 0
 3330              		@ frame_needed = 0, uses_anonymous_args = 0
 3331              		@ link register save eliminated.
 3332              	.LVL285:
 3333              		.loc 1 2200 0
 3334 0000 044B     		ldr	r3, .L286
 3335 0002 1A6C     		ldr	r2, [r3, #64]
 3336 0004 22F4E062 		bic	r2, r2, #1792
 3337 0008 1A64     		str	r2, [r3, #64]
 3338              		.loc 1 2203 0
 3339 000a 1A6C     		ldr	r2, [r3, #64]
 3340 000c 1043     		orrs	r0, r0, r2
 3341              	.LVL286:
ARM GAS  C:\Users\jsyoon\AppData\Local\Temp\ccHEUWmT.s 			page 60


 3342 000e 1864     		str	r0, [r3, #64]
 3343 0010 7047     		bx	lr
 3344              	.L287:
 3345 0012 00BF     		.align	2
 3346              	.L286:
 3347 0014 00280040 		.word	1073752064
 3348              		.cfi_endproc
 3349              	.LFE151:
 3350              		.size	RTC_TamperSamplingFreqConfig, .-RTC_TamperSamplingFreqConfig
 3351 0018 AFF30080 		.section	.text.RTC_TamperPinsPrechargeDuration,"ax",%progbits
 3351      AFF30080 
 3352              		.align	2
 3353              		.p2align 4,,15
 3354              		.global	RTC_TamperPinsPrechargeDuration
 3355              		.thumb
 3356              		.thumb_func
 3357              		.type	RTC_TamperPinsPrechargeDuration, %function
 3358              	RTC_TamperPinsPrechargeDuration:
 3359              	.LFB152:
 3360              		.loc 1 2218 0
 3361              		.cfi_startproc
 3362              		@ args = 0, pretend = 0, frame = 0
 3363              		@ frame_needed = 0, uses_anonymous_args = 0
 3364              		@ link register save eliminated.
 3365              	.LVL287:
 3366              		.loc 1 2223 0
 3367 0000 044B     		ldr	r3, .L289
 3368 0002 1A6C     		ldr	r2, [r3, #64]
 3369 0004 22F4C042 		bic	r2, r2, #24576
 3370 0008 1A64     		str	r2, [r3, #64]
 3371              		.loc 1 2226 0
 3372 000a 1A6C     		ldr	r2, [r3, #64]
 3373 000c 1043     		orrs	r0, r0, r2
 3374              	.LVL288:
 3375 000e 1864     		str	r0, [r3, #64]
 3376 0010 7047     		bx	lr
 3377              	.L290:
 3378 0012 00BF     		.align	2
 3379              	.L289:
 3380 0014 00280040 		.word	1073752064
 3381              		.cfi_endproc
 3382              	.LFE152:
 3383              		.size	RTC_TamperPinsPrechargeDuration, .-RTC_TamperPinsPrechargeDuration
 3384 0018 AFF30080 		.section	.text.RTC_TimeStampOnTamperDetectionCmd,"ax",%progbits
 3384      AFF30080 
 3385              		.align	2
 3386              		.p2align 4,,15
 3387              		.global	RTC_TimeStampOnTamperDetectionCmd
 3388              		.thumb
 3389              		.thumb_func
 3390              		.type	RTC_TimeStampOnTamperDetectionCmd, %function
 3391              	RTC_TimeStampOnTamperDetectionCmd:
 3392              	.LFB153:
 3393              		.loc 1 2238 0
 3394              		.cfi_startproc
 3395              		@ args = 0, pretend = 0, frame = 0
 3396              		@ frame_needed = 0, uses_anonymous_args = 0
ARM GAS  C:\Users\jsyoon\AppData\Local\Temp\ccHEUWmT.s 			page 61


 3397              		@ link register save eliminated.
 3398              	.LVL289:
 3399              		.loc 1 2245 0
 3400 0000 054B     		ldr	r3, .L295
 3401 0002 1A6C     		ldr	r2, [r3, #64]
 3402              		.loc 1 2242 0
 3403 0004 18B9     		cbnz	r0, .L294
 3404              		.loc 1 2250 0
 3405 0006 22F08002 		bic	r2, r2, #128
 3406 000a 1A64     		str	r2, [r3, #64]
 3407 000c 7047     		bx	lr
 3408              	.L294:
 3409              		.loc 1 2245 0
 3410 000e 42F08002 		orr	r2, r2, #128
 3411 0012 1A64     		str	r2, [r3, #64]
 3412 0014 7047     		bx	lr
 3413              	.L296:
 3414 0016 00BF     		.align	2
 3415              	.L295:
 3416 0018 00280040 		.word	1073752064
 3417              		.cfi_endproc
 3418              	.LFE153:
 3419              		.size	RTC_TimeStampOnTamperDetectionCmd, .-RTC_TimeStampOnTamperDetectionCmd
 3420 001c AFF30080 		.section	.text.RTC_TamperPullUpCmd,"ax",%progbits
 3421              		.align	2
 3422              		.p2align 4,,15
 3423              		.global	RTC_TamperPullUpCmd
 3424              		.thumb
 3425              		.thumb_func
 3426              		.type	RTC_TamperPullUpCmd, %function
 3427              	RTC_TamperPullUpCmd:
 3428              	.LFB154:
 3429              		.loc 1 2261 0
 3430              		.cfi_startproc
 3431              		@ args = 0, pretend = 0, frame = 0
 3432              		@ frame_needed = 0, uses_anonymous_args = 0
 3433              		@ link register save eliminated.
 3434              	.LVL290:
 3435              		.loc 1 2268 0
 3436 0000 054B     		ldr	r3, .L301
 3437 0002 1A6C     		ldr	r2, [r3, #64]
 3438              		.loc 1 2265 0
 3439 0004 18B9     		cbnz	r0, .L300
 3440              		.loc 1 2273 0
 3441 0006 42F40042 		orr	r2, r2, #32768
 3442 000a 1A64     		str	r2, [r3, #64]
 3443 000c 7047     		bx	lr
 3444              	.L300:
 3445              		.loc 1 2268 0
 3446 000e 22F40042 		bic	r2, r2, #32768
 3447 0012 1A64     		str	r2, [r3, #64]
 3448 0014 7047     		bx	lr
 3449              	.L302:
 3450 0016 00BF     		.align	2
 3451              	.L301:
 3452 0018 00280040 		.word	1073752064
 3453              		.cfi_endproc
ARM GAS  C:\Users\jsyoon\AppData\Local\Temp\ccHEUWmT.s 			page 62


 3454              	.LFE154:
 3455              		.size	RTC_TamperPullUpCmd, .-RTC_TamperPullUpCmd
 3456 001c AFF30080 		.section	.text.RTC_WriteBackupRegister,"ax",%progbits
 3457              		.align	2
 3458              		.p2align 4,,15
 3459              		.global	RTC_WriteBackupRegister
 3460              		.thumb
 3461              		.thumb_func
 3462              		.type	RTC_WriteBackupRegister, %function
 3463              	RTC_WriteBackupRegister:
 3464              	.LFB155:
 3465              		.loc 1 2302 0
 3466              		.cfi_startproc
 3467              		@ args = 0, pretend = 0, frame = 8
 3468              		@ frame_needed = 0, uses_anonymous_args = 0
 3469              		@ link register save eliminated.
 3470              	.LVL291:
 3471 0000 82B0     		sub	sp, sp, #8
 3472              		.cfi_def_cfa_offset 8
 3473              		.loc 1 2303 0
 3474 0002 0022     		movs	r2, #0
 3475              		.loc 1 2308 0
 3476 0004 054B     		ldr	r3, .L304
 3477              		.loc 1 2303 0
 3478 0006 0192     		str	r2, [sp, #4]
 3479              		.loc 1 2308 0
 3480 0008 0193     		str	r3, [sp, #4]
 3481              		.loc 1 2309 0
 3482 000a 019B     		ldr	r3, [sp, #4]
 3483 000c 03EB8000 		add	r0, r3, r0, lsl #2
 3484              	.LVL292:
 3485 0010 0190     		str	r0, [sp, #4]
 3486              		.loc 1 2312 0
 3487 0012 019B     		ldr	r3, [sp, #4]
 3488 0014 1960     		str	r1, [r3]
 3489              		.loc 1 2313 0
 3490 0016 02B0     		add	sp, sp, #8
 3491              		@ sp needed
 3492 0018 7047     		bx	lr
 3493              	.L305:
 3494 001a 00BF     		.align	2
 3495              	.L304:
 3496 001c 50280040 		.word	1073752144
 3497              		.cfi_endproc
 3498              	.LFE155:
 3499              		.size	RTC_WriteBackupRegister, .-RTC_WriteBackupRegister
 3500              		.section	.text.RTC_ReadBackupRegister,"ax",%progbits
 3501              		.align	2
 3502              		.p2align 4,,15
 3503              		.global	RTC_ReadBackupRegister
 3504              		.thumb
 3505              		.thumb_func
 3506              		.type	RTC_ReadBackupRegister, %function
 3507              	RTC_ReadBackupRegister:
 3508              	.LFB156:
 3509              		.loc 1 2323 0
 3510              		.cfi_startproc
ARM GAS  C:\Users\jsyoon\AppData\Local\Temp\ccHEUWmT.s 			page 63


 3511              		@ args = 0, pretend = 0, frame = 8
 3512              		@ frame_needed = 0, uses_anonymous_args = 0
 3513              		@ link register save eliminated.
 3514              	.LVL293:
 3515 0000 82B0     		sub	sp, sp, #8
 3516              		.cfi_def_cfa_offset 8
 3517              		.loc 1 2324 0
 3518 0002 0022     		movs	r2, #0
 3519              		.loc 1 2329 0
 3520 0004 054B     		ldr	r3, .L307
 3521              		.loc 1 2324 0
 3522 0006 0192     		str	r2, [sp, #4]
 3523              		.loc 1 2329 0
 3524 0008 0193     		str	r3, [sp, #4]
 3525              		.loc 1 2330 0
 3526 000a 019B     		ldr	r3, [sp, #4]
 3527 000c 03EB8000 		add	r0, r3, r0, lsl #2
 3528              	.LVL294:
 3529 0010 0190     		str	r0, [sp, #4]
 3530              		.loc 1 2333 0
 3531 0012 019B     		ldr	r3, [sp, #4]
 3532 0014 1868     		ldr	r0, [r3]
 3533              		.loc 1 2334 0
 3534 0016 02B0     		add	sp, sp, #8
 3535              		@ sp needed
 3536 0018 7047     		bx	lr
 3537              	.L308:
 3538 001a 00BF     		.align	2
 3539              	.L307:
 3540 001c 50280040 		.word	1073752144
 3541              		.cfi_endproc
 3542              	.LFE156:
 3543              		.size	RTC_ReadBackupRegister, .-RTC_ReadBackupRegister
 3544              		.section	.text.RTC_TamperPinSelection,"ax",%progbits
 3545              		.align	2
 3546              		.p2align 4,,15
 3547              		.global	RTC_TamperPinSelection
 3548              		.thumb
 3549              		.thumb_func
 3550              		.type	RTC_TamperPinSelection, %function
 3551              	RTC_TamperPinSelection:
 3552              	.LFB157:
 3553              		.loc 1 2363 0
 3554              		.cfi_startproc
 3555              		@ args = 0, pretend = 0, frame = 0
 3556              		@ frame_needed = 0, uses_anonymous_args = 0
 3557              		@ link register save eliminated.
 3558              	.LVL295:
 3559              		.loc 1 2367 0
 3560 0000 044B     		ldr	r3, .L310
 3561 0002 1A6C     		ldr	r2, [r3, #64]
 3562 0004 22F48032 		bic	r2, r2, #65536
 3563 0008 1A64     		str	r2, [r3, #64]
 3564              		.loc 1 2368 0
 3565 000a 1A6C     		ldr	r2, [r3, #64]
 3566 000c 1043     		orrs	r0, r0, r2
 3567              	.LVL296:
ARM GAS  C:\Users\jsyoon\AppData\Local\Temp\ccHEUWmT.s 			page 64


 3568 000e 1864     		str	r0, [r3, #64]
 3569 0010 7047     		bx	lr
 3570              	.L311:
 3571 0012 00BF     		.align	2
 3572              	.L310:
 3573 0014 00280040 		.word	1073752064
 3574              		.cfi_endproc
 3575              	.LFE157:
 3576              		.size	RTC_TamperPinSelection, .-RTC_TamperPinSelection
 3577 0018 AFF30080 		.section	.text.RTC_TimeStampPinSelection,"ax",%progbits
 3577      AFF30080 
 3578              		.align	2
 3579              		.p2align 4,,15
 3580              		.global	RTC_TimeStampPinSelection
 3581              		.thumb
 3582              		.thumb_func
 3583              		.type	RTC_TimeStampPinSelection, %function
 3584              	RTC_TimeStampPinSelection:
 3585              	.LFB158:
 3586              		.loc 1 2380 0
 3587              		.cfi_startproc
 3588              		@ args = 0, pretend = 0, frame = 0
 3589              		@ frame_needed = 0, uses_anonymous_args = 0
 3590              		@ link register save eliminated.
 3591              	.LVL297:
 3592              		.loc 1 2384 0
 3593 0000 044B     		ldr	r3, .L313
 3594 0002 1A6C     		ldr	r2, [r3, #64]
 3595 0004 22F40032 		bic	r2, r2, #131072
 3596 0008 1A64     		str	r2, [r3, #64]
 3597              		.loc 1 2385 0
 3598 000a 1A6C     		ldr	r2, [r3, #64]
 3599 000c 1043     		orrs	r0, r0, r2
 3600              	.LVL298:
 3601 000e 1864     		str	r0, [r3, #64]
 3602 0010 7047     		bx	lr
 3603              	.L314:
 3604 0012 00BF     		.align	2
 3605              	.L313:
 3606 0014 00280040 		.word	1073752064
 3607              		.cfi_endproc
 3608              	.LFE158:
 3609              		.size	RTC_TimeStampPinSelection, .-RTC_TimeStampPinSelection
 3610 0018 AFF30080 		.section	.text.RTC_OutputTypeConfig,"ax",%progbits
 3610      AFF30080 
 3611              		.align	2
 3612              		.p2align 4,,15
 3613              		.global	RTC_OutputTypeConfig
 3614              		.thumb
 3615              		.thumb_func
 3616              		.type	RTC_OutputTypeConfig, %function
 3617              	RTC_OutputTypeConfig:
 3618              	.LFB159:
 3619              		.loc 1 2399 0
 3620              		.cfi_startproc
 3621              		@ args = 0, pretend = 0, frame = 0
 3622              		@ frame_needed = 0, uses_anonymous_args = 0
ARM GAS  C:\Users\jsyoon\AppData\Local\Temp\ccHEUWmT.s 			page 65


 3623              		@ link register save eliminated.
 3624              	.LVL299:
 3625              		.loc 1 2403 0
 3626 0000 044B     		ldr	r3, .L316
 3627 0002 1A6C     		ldr	r2, [r3, #64]
 3628 0004 22F48022 		bic	r2, r2, #262144
 3629 0008 1A64     		str	r2, [r3, #64]
 3630              		.loc 1 2404 0
 3631 000a 1A6C     		ldr	r2, [r3, #64]
 3632 000c 1043     		orrs	r0, r0, r2
 3633              	.LVL300:
 3634 000e 1864     		str	r0, [r3, #64]
 3635 0010 7047     		bx	lr
 3636              	.L317:
 3637 0012 00BF     		.align	2
 3638              	.L316:
 3639 0014 00280040 		.word	1073752064
 3640              		.cfi_endproc
 3641              	.LFE159:
 3642              		.size	RTC_OutputTypeConfig, .-RTC_OutputTypeConfig
 3643 0018 AFF30080 		.section	.text.RTC_SynchroShiftConfig,"ax",%progbits
 3643      AFF30080 
 3644              		.align	2
 3645              		.p2align 4,,15
 3646              		.global	RTC_SynchroShiftConfig
 3647              		.thumb
 3648              		.thumb_func
 3649              		.type	RTC_SynchroShiftConfig, %function
 3650              	RTC_SynchroShiftConfig:
 3651              	.LFB160:
 3652              		.loc 1 2437 0
 3653              		.cfi_startproc
 3654              		@ args = 0, pretend = 0, frame = 0
 3655              		@ frame_needed = 0, uses_anonymous_args = 0
 3656              	.LVL301:
 3657 0000 10B5     		push	{r4, lr}
 3658              		.cfi_def_cfa_offset 8
 3659              		.cfi_offset 4, -8
 3660              		.cfi_offset 14, -4
 3661              		.loc 1 2446 0
 3662 0002 184C     		ldr	r4, .L339
 3663 0004 CA22     		movs	r2, #202
 3664              		.loc 1 2447 0
 3665 0006 5323     		movs	r3, #83
 3666              		.loc 1 2446 0
 3667 0008 6262     		str	r2, [r4, #36]
 3668              		.loc 1 2447 0
 3669 000a 6362     		str	r3, [r4, #36]
 3670              		.loc 1 2450 0
 3671 000c E368     		ldr	r3, [r4, #12]
 3672 000e 1A07     		lsls	r2, r3, #28
 3673 0010 0AD5     		bpl	.L319
 3674              		.loc 1 2453 0 discriminator 1
 3675 0012 E368     		ldr	r3, [r4, #12]
 3676 0014 1B07     		lsls	r3, r3, #28
 3677 0016 07D5     		bpl	.L319
 3678              		.loc 1 2453 0 is_stmt 0
ARM GAS  C:\Users\jsyoon\AppData\Local\Temp\ccHEUWmT.s 			page 66


 3679 0018 4FF48053 		mov	r3, #4096
 3680 001c 01E0     		b	.L320
 3681              	.LVL302:
 3682              	.L337:
 3683              		.loc 1 2453 0 discriminator 2
 3684 001e 013B     		subs	r3, r3, #1
 3685              	.LVL303:
 3686 0020 02D0     		beq	.L319
 3687              	.LVL304:
 3688              	.L320:
 3689              		.loc 1 2453 0
 3690 0022 E268     		ldr	r2, [r4, #12]
 3691 0024 1207     		lsls	r2, r2, #28
 3692 0026 FAD4     		bmi	.L337
 3693              	.LVL305:
 3694              	.L319:
 3695              		.loc 1 2460 0 is_stmt 1
 3696 0028 0E4A     		ldr	r2, .L339
 3697 002a D368     		ldr	r3, [r2, #12]
 3698 002c 13F00803 		ands	r3, r3, #8
 3699 0030 13D1     		bne	.L322
 3700              		.loc 1 2463 0
 3701 0032 9468     		ldr	r4, [r2, #8]
 3702 0034 E406     		lsls	r4, r4, #27
 3703 0036 04D5     		bpl	.L338
 3704              		.loc 1 2488 0
 3705 0038 0A4A     		ldr	r2, .L339
 3706 003a FF21     		movs	r1, #255
 3707              	.LVL306:
 3708              		.loc 1 2484 0
 3709 003c 1846     		mov	r0, r3
 3710              	.LVL307:
 3711              		.loc 1 2488 0
 3712 003e 5162     		str	r1, [r2, #36]
 3713              		.loc 1 2491 0
 3714 0040 10BD     		pop	{r4, pc}
 3715              	.LVL308:
 3716              	.L338:
 3717              		.loc 1 2466 0
 3718 0042 0143     		orrs	r1, r1, r0
 3719              	.LVL309:
 3720 0044 D162     		str	r1, [r2, #44]
 3721              		.loc 1 2468 0
 3722 0046 FFF7FEFF 		bl	RTC_WaitForSynchro
 3723              	.LVL310:
 3724              		.loc 1 2488 0
 3725 004a 064A     		ldr	r2, .L339
 3726              		.loc 1 2479 0
 3727 004c 0030     		adds	r0, r0, #0
 3728              		.loc 1 2488 0
 3729 004e 4FF0FF01 		mov	r1, #255
 3730              		.loc 1 2479 0
 3731 0052 18BF     		it	ne
 3732 0054 0120     		movne	r0, #1
 3733              	.LVL311:
 3734              		.loc 1 2488 0
 3735 0056 5162     		str	r1, [r2, #36]
ARM GAS  C:\Users\jsyoon\AppData\Local\Temp\ccHEUWmT.s 			page 67


 3736              		.loc 1 2491 0
 3737 0058 10BD     		pop	{r4, pc}
 3738              	.LVL312:
 3739              	.L322:
 3740              		.loc 1 2488 0
 3741 005a 024A     		ldr	r2, .L339
 3742 005c FF21     		movs	r1, #255
 3743              	.LVL313:
 3744              		.loc 1 2484 0
 3745 005e 0020     		movs	r0, #0
 3746              	.LVL314:
 3747              		.loc 1 2488 0
 3748 0060 5162     		str	r1, [r2, #36]
 3749              		.loc 1 2491 0
 3750 0062 10BD     		pop	{r4, pc}
 3751              	.L340:
 3752              		.align	2
 3753              	.L339:
 3754 0064 00280040 		.word	1073752064
 3755              		.cfi_endproc
 3756              	.LFE160:
 3757              		.size	RTC_SynchroShiftConfig, .-RTC_SynchroShiftConfig
 3758 0068 AFF30080 		.section	.text.RTC_ITConfig,"ax",%progbits
 3758      AFF30080 
 3759              		.align	2
 3760              		.p2align 4,,15
 3761              		.global	RTC_ITConfig
 3762              		.thumb
 3763              		.thumb_func
 3764              		.type	RTC_ITConfig, %function
 3765              	RTC_ITConfig:
 3766              	.LFB161:
 3767              		.loc 1 2556 0
 3768              		.cfi_startproc
 3769              		@ args = 0, pretend = 0, frame = 0
 3770              		@ frame_needed = 0, uses_anonymous_args = 0
 3771              		@ link register save eliminated.
 3772              	.LVL315:
 3773              		.loc 1 2562 0
 3774 0000 114B     		ldr	r3, .L345
 3775              		.loc 1 2556 0
 3776 0002 10B4     		push	{r4}
 3777              		.cfi_def_cfa_offset 4
 3778              		.cfi_offset 4, -4
 3779              		.loc 1 2563 0
 3780 0004 5322     		movs	r2, #83
 3781              		.loc 1 2562 0
 3782 0006 CA24     		movs	r4, #202
 3783 0008 5C62     		str	r4, [r3, #36]
 3784              		.loc 1 2563 0
 3785 000a 5A62     		str	r2, [r3, #36]
 3786              		.loc 1 2568 0
 3787 000c 9A68     		ldr	r2, [r3, #8]
 3788              		.loc 1 2565 0
 3789 000e 81B9     		cbnz	r1, .L344
 3790              		.loc 1 2575 0
 3791 0010 20F00401 		bic	r1, r0, #4
ARM GAS  C:\Users\jsyoon\AppData\Local\Temp\ccHEUWmT.s 			page 68


 3792              	.LVL316:
 3793 0014 22EA0102 		bic	r2, r2, r1
 3794 0018 9A60     		str	r2, [r3, #8]
 3795              		.loc 1 2577 0
 3796 001a 1A6C     		ldr	r2, [r3, #64]
 3797 001c 00F00400 		and	r0, r0, #4
 3798              	.LVL317:
 3799 0020 22EA0000 		bic	r0, r2, r0
 3800 0024 1864     		str	r0, [r3, #64]
 3801              	.L343:
 3802              		.loc 1 2580 0
 3803 0026 084B     		ldr	r3, .L345
 3804              		.loc 1 2581 0
 3805 0028 5DF8044B 		ldr	r4, [sp], #4
 3806              		.loc 1 2580 0
 3807 002c FF22     		movs	r2, #255
 3808 002e 5A62     		str	r2, [r3, #36]
 3809              		.loc 1 2581 0
 3810 0030 7047     		bx	lr
 3811              	.LVL318:
 3812              	.L344:
 3813              		.loc 1 2568 0
 3814 0032 20F00401 		bic	r1, r0, #4
 3815              	.LVL319:
 3816 0036 0A43     		orrs	r2, r2, r1
 3817 0038 9A60     		str	r2, [r3, #8]
 3818              		.loc 1 2570 0
 3819 003a 1A6C     		ldr	r2, [r3, #64]
 3820 003c 00F00400 		and	r0, r0, #4
 3821              	.LVL320:
 3822 0040 1043     		orrs	r0, r0, r2
 3823 0042 1864     		str	r0, [r3, #64]
 3824 0044 EFE7     		b	.L343
 3825              	.L346:
 3826 0046 00BF     		.align	2
 3827              	.L345:
 3828 0048 00280040 		.word	1073752064
 3829              		.cfi_endproc
 3830              	.LFE161:
 3831              		.size	RTC_ITConfig, .-RTC_ITConfig
 3832 004c AFF30080 		.section	.text.RTC_GetFlagStatus,"ax",%progbits
 3833              		.align	2
 3834              		.p2align 4,,15
 3835              		.global	RTC_GetFlagStatus
 3836              		.thumb
 3837              		.thumb_func
 3838              		.type	RTC_GetFlagStatus, %function
 3839              	RTC_GetFlagStatus:
 3840              	.LFB162:
 3841              		.loc 1 2604 0
 3842              		.cfi_startproc
 3843              		@ args = 0, pretend = 0, frame = 0
 3844              		@ frame_needed = 0, uses_anonymous_args = 0
 3845              		@ link register save eliminated.
 3846              	.LVL321:
 3847              		.loc 1 2612 0
 3848 0000 044A     		ldr	r2, .L348
ARM GAS  C:\Users\jsyoon\AppData\Local\Temp\ccHEUWmT.s 			page 69


 3849 0002 054B     		ldr	r3, .L348+4
 3850 0004 D268     		ldr	r2, [r2, #12]
 3851              	.LVL322:
 3852 0006 1340     		ands	r3, r3, r2
 3853              	.LVL323:
 3854              		.loc 1 2615 0
 3855 0008 0342     		tst	r3, r0
 3856              		.loc 1 2624 0
 3857 000a 0CBF     		ite	eq
 3858 000c 0020     		moveq	r0, #0
 3859 000e 0120     		movne	r0, #1
 3860              	.LVL324:
 3861 0010 7047     		bx	lr
 3862              	.L349:
 3863 0012 00BF     		.align	2
 3864              	.L348:
 3865 0014 00280040 		.word	1073752064
 3866 0018 7F3F0100 		.word	81791
 3867              		.cfi_endproc
 3868              	.LFE162:
 3869              		.size	RTC_GetFlagStatus, .-RTC_GetFlagStatus
 3870 001c AFF30080 		.section	.text.RTC_ClearFlag,"ax",%progbits
 3871              		.align	2
 3872              		.p2align 4,,15
 3873              		.global	RTC_ClearFlag
 3874              		.thumb
 3875              		.thumb_func
 3876              		.type	RTC_ClearFlag, %function
 3877              	RTC_ClearFlag:
 3878              	.LFB163:
 3879              		.loc 1 2640 0
 3880              		.cfi_startproc
 3881              		@ args = 0, pretend = 0, frame = 0
 3882              		@ frame_needed = 0, uses_anonymous_args = 0
 3883              		@ link register save eliminated.
 3884              	.LVL325:
 3885              		.loc 1 2645 0
 3886 0000 054B     		ldr	r3, .L351
 3887 0002 DA68     		ldr	r2, [r3, #12]
 3888 0004 80B2     		uxth	r0, r0
 3889              	.LVL326:
 3890 0006 40F08000 		orr	r0, r0, #128
 3891 000a 02F08002 		and	r2, r2, #128
 3892 000e 62EA0002 		orn	r2, r2, r0
 3893 0012 DA60     		str	r2, [r3, #12]
 3894 0014 7047     		bx	lr
 3895              	.L352:
 3896 0016 00BF     		.align	2
 3897              	.L351:
 3898 0018 00280040 		.word	1073752064
 3899              		.cfi_endproc
 3900              	.LFE163:
 3901              		.size	RTC_ClearFlag, .-RTC_ClearFlag
 3902 001c AFF30080 		.section	.text.RTC_GetITStatus,"ax",%progbits
 3903              		.align	2
 3904              		.p2align 4,,15
 3905              		.global	RTC_GetITStatus
ARM GAS  C:\Users\jsyoon\AppData\Local\Temp\ccHEUWmT.s 			page 70


 3906              		.thumb
 3907              		.thumb_func
 3908              		.type	RTC_GetITStatus, %function
 3909              	RTC_GetITStatus:
 3910              	.LFB164:
 3911              		.loc 1 2660 0
 3912              		.cfi_startproc
 3913              		@ args = 0, pretend = 0, frame = 0
 3914              		@ frame_needed = 0, uses_anonymous_args = 0
 3915              		@ link register save eliminated.
 3916              	.LVL327:
 3917              		.loc 1 2668 0
 3918 0000 0C4B     		ldr	r3, .L356
 3919 0002 1A6C     		ldr	r2, [r3, #64]
 3920              	.LVL328:
 3921              		.loc 1 2671 0
 3922 0004 9968     		ldr	r1, [r3, #8]
 3923              		.loc 1 2668 0
 3924 0006 02F00402 		and	r2, r2, #4
 3925              	.LVL329:
 3926              		.loc 1 2660 0
 3927 000a 10B4     		push	{r4}
 3928              		.cfi_def_cfa_offset 4
 3929              		.cfi_offset 4, -4
 3930              		.loc 1 2671 0
 3931 000c 02EAD032 		and	r2, r2, r0, lsr #15
 3932              	.LVL330:
 3933              		.loc 1 2674 0
 3934 0010 DC68     		ldr	r4, [r3, #12]
 3935              	.LVL331:
 3936              		.loc 1 2671 0
 3937 0012 00EA0103 		and	r3, r0, r1
 3938              		.loc 1 2677 0
 3939 0016 1343     		orrs	r3, r2, r3
 3940 0018 08D0     		beq	.L355
 3941              		.loc 1 2674 0 discriminator 1
 3942 001a A4B2     		uxth	r4, r4
 3943              	.LVL332:
 3944              		.loc 1 2677 0 discriminator 1
 3945 001c 14EA1014 		ands	r4, r4, r0, lsr #4
 3946              		.loc 1 2679 0 discriminator 1
 3947 0020 0CBF     		ite	eq
 3948 0022 0020     		moveq	r0, #0
 3949 0024 0120     		movne	r0, #1
 3950              	.LVL333:
 3951              		.loc 1 2686 0 discriminator 1
 3952 0026 5DF8044B 		ldr	r4, [sp], #4
 3953 002a 7047     		bx	lr
 3954              	.LVL334:
 3955              	.L355:
 3956              		.loc 1 2683 0
 3957 002c 1846     		mov	r0, r3
 3958              	.LVL335:
 3959              		.loc 1 2686 0
 3960 002e 5DF8044B 		ldr	r4, [sp], #4
 3961              	.LVL336:
 3962 0032 7047     		bx	lr
ARM GAS  C:\Users\jsyoon\AppData\Local\Temp\ccHEUWmT.s 			page 71


 3963              	.L357:
 3964              		.align	2
 3965              	.L356:
 3966 0034 00280040 		.word	1073752064
 3967              		.cfi_endproc
 3968              	.LFE164:
 3969              		.size	RTC_GetITStatus, .-RTC_GetITStatus
 3970 0038 AFF30080 		.section	.text.RTC_ClearITPendingBit,"ax",%progbits
 3970      AFF30080 
 3971              		.align	2
 3972              		.p2align 4,,15
 3973              		.global	RTC_ClearITPendingBit
 3974              		.thumb
 3975              		.thumb_func
 3976              		.type	RTC_ClearITPendingBit, %function
 3977              	RTC_ClearITPendingBit:
 3978              	.LFB165:
 3979              		.loc 1 2700 0
 3980              		.cfi_startproc
 3981              		@ args = 0, pretend = 0, frame = 0
 3982              		@ frame_needed = 0, uses_anonymous_args = 0
 3983              		@ link register save eliminated.
 3984              	.LVL337:
 3985              		.loc 1 2710 0
 3986 0000 054B     		ldr	r3, .L359
 3987 0002 DA68     		ldr	r2, [r3, #12]
 3988 0004 C0F30F10 		ubfx	r0, r0, #4, #16
 3989              	.LVL338:
 3990 0008 40F08000 		orr	r0, r0, #128
 3991 000c 02F08002 		and	r2, r2, #128
 3992 0010 62EA0002 		orn	r2, r2, r0
 3993 0014 DA60     		str	r2, [r3, #12]
 3994 0016 7047     		bx	lr
 3995              	.L360:
 3996              		.align	2
 3997              	.L359:
 3998 0018 00280040 		.word	1073752064
 3999              		.cfi_endproc
 4000              	.LFE165:
 4001              		.size	RTC_ClearITPendingBit, .-RTC_ClearITPendingBit
 4002 001c AFF30080 		.text
 4003              	.Letext0:
 4004              		.file 2 "c:\\crosstools\\gcc-arm-embedded\\4.8_2014q2\\arm-none-eabi\\include\\machine\\_default_t
 4005              		.file 3 "c:\\crosstools\\gcc-arm-embedded\\4.8_2014q2\\arm-none-eabi\\include\\stdint.h"
 4006              		.file 4 "ChibiOS_2.6.6/os/hal/platforms/STM32F4xx/stm32f4xx.h"
 4007              		.file 5 "ChibiOS_2.6.6/ext/stdperiph_stm32f4/inc/stm32f4xx_rtc.h"
 4008              		.file 6 "ChibiOS_2.6.6/os/ports/common/ARMCMx/CMSIS/include/core_cm4.h"