ARM GAS  C:\Users\ADMINI~1\AppData\Local\Temp\ccA7kAh4.s 			page 1


   1              		.syntax unified
   2              		.cpu cortex-m4
   3              		.eabi_attribute 27, 1
   4              		.eabi_attribute 28, 1
   5              		.fpu fpv4-sp-d16
   6              		.eabi_attribute 20, 1
   7              		.eabi_attribute 21, 1
   8              		.eabi_attribute 23, 3
   9              		.eabi_attribute 24, 1
  10              		.eabi_attribute 25, 1
  11              		.eabi_attribute 26, 1
  12              		.eabi_attribute 30, 2
  13              		.eabi_attribute 34, 1
  14              		.eabi_attribute 18, 4
  15              		.thumb
  16              		.file	"stm32f4xx_cryp_tdes.c"
  17              		.text
  18              	.Ltext0:
  19              		.cfi_sections	.debug_frame
  20              		.section	.text.CRYP_TDES_ECB,"ax",%progbits
  21              		.align	2
  22              		.p2align 4,,15
  23              		.global	CRYP_TDES_ECB
  24              		.thumb
  25              		.thumb_func
  26              		.type	CRYP_TDES_ECB, %function
  27              	CRYP_TDES_ECB:
  28              	.LFB111:
  29              		.file 1 "ChibiOS_2.6.6/ext/stdperiph_stm32f4/src/stm32f4xx_cryp_tdes.c"
  30              		.loc 1 104 0
  31              		.cfi_startproc
  32              		@ args = 4, pretend = 0, frame = 48
  33              		@ frame_needed = 0, uses_anonymous_args = 0
  34              	.LVL0:
  35 0000 2DE9F043 		push	{r4, r5, r6, r7, r8, r9, lr}
  36              		.cfi_def_cfa_offset 28
  37              		.cfi_offset 4, -28
  38              		.cfi_offset 5, -24
  39              		.cfi_offset 6, -20
  40              		.cfi_offset 7, -16
  41              		.cfi_offset 8, -12
  42              		.cfi_offset 9, -8
  43              		.cfi_offset 14, -4
  44 0004 8DB0     		sub	sp, sp, #52
  45              		.cfi_def_cfa_offset 80
  46              		.loc 1 104 0
  47 0006 8146     		mov	r9, r0
  48              		.loc 1 107 0
  49 0008 0026     		movs	r6, #0
  50              		.loc 1 116 0
  51 000a 04A8     		add	r0, sp, #16
  52              	.LVL1:
  53              		.loc 1 104 0
  54 000c 0F46     		mov	r7, r1
  55 000e 9846     		mov	r8, r3
  56 0010 1446     		mov	r4, r2
  57              		.loc 1 107 0
ARM GAS  C:\Users\ADMINI~1\AppData\Local\Temp\ccA7kAh4.s 			page 2


  58 0012 0196     		str	r6, [sp, #4]
  59              	.LVL2:
  60              		.loc 1 104 0
  61 0014 149D     		ldr	r5, [sp, #80]
  62              	.LVL3:
  63              		.loc 1 116 0
  64 0016 FFF7FEFF 		bl	CRYP_KeyStructInit
  65              	.LVL4:
  66              		.loc 1 119 0
  67 001a B9F1010F 		cmp	r9, #1
  68              		.loc 1 125 0
  69 001e 16BF     		itet	ne
  70 0020 0423     		movne	r3, #4
  71              		.loc 1 121 0
  72 0022 ADF80860 		strheq	r6, [sp, #8]	@ movhi
  73              		.loc 1 125 0
  74 0026 ADF80830 		strhne	r3, [sp, #8]	@ movhi
  75              		.loc 1 128 0
  76 002a 0026     		movs	r6, #0
  77              		.loc 1 129 0
  78 002c 8023     		movs	r3, #128
  79              		.loc 1 130 0
  80 002e 02A8     		add	r0, sp, #8
  81              		.loc 1 129 0
  82 0030 ADF80C30 		strh	r3, [sp, #12]	@ movhi
  83              		.loc 1 128 0
  84 0034 ADF80A60 		strh	r6, [sp, #10]	@ movhi
  85              		.loc 1 130 0
  86 0038 FFF7FEFF 		bl	CRYP_Init
  87              	.LVL5:
  88              	.LBB30:
  89              	.LBB31:
  90              		.file 2 "ChibiOS_2.6.6/os/ports/common/ARMCMx/CMSIS/include/core_cmInstr.h"
  91              		.loc 2 369 0
  92 003c 3B68     		ldr	r3, [r7]
  93              	@ 369 "ChibiOS_2.6.6/os/ports/common/ARMCMx/CMSIS/include/core_cmInstr.h" 1
  94 003e 1BBA     		rev r3, r3
  95              	@ 0 "" 2
  96              	.LVL6:
  97              		.thumb
  98              	.LBE31:
  99              	.LBE30:
 100              		.loc 1 133 0
 101 0040 0693     		str	r3, [sp, #24]
 102              	.LVL7:
 103              	.LBB32:
 104              	.LBB33:
 105              		.loc 2 369 0
 106 0042 7B68     		ldr	r3, [r7, #4]
 107              	.LVL8:
 108              	@ 369 "ChibiOS_2.6.6/os/ports/common/ARMCMx/CMSIS/include/core_cmInstr.h" 1
 109 0044 1BBA     		rev r3, r3
 110              	@ 0 "" 2
 111              	.LVL9:
 112              		.thumb
 113              	.LBE33:
 114              	.LBE32:
ARM GAS  C:\Users\ADMINI~1\AppData\Local\Temp\ccA7kAh4.s 			page 3


 115              		.loc 1 135 0
 116 0046 0793     		str	r3, [sp, #28]
 117              	.LVL10:
 118              	.LBB34:
 119              	.LBB35:
 120              		.loc 2 369 0
 121 0048 BB68     		ldr	r3, [r7, #8]
 122              	.LVL11:
 123              	@ 369 "ChibiOS_2.6.6/os/ports/common/ARMCMx/CMSIS/include/core_cmInstr.h" 1
 124 004a 1BBA     		rev r3, r3
 125              	@ 0 "" 2
 126              	.LVL12:
 127              		.thumb
 128              	.LBE35:
 129              	.LBE34:
 130              		.loc 1 137 0
 131 004c 0893     		str	r3, [sp, #32]
 132              	.LVL13:
 133              	.LBB36:
 134              	.LBB37:
 135              		.loc 2 369 0
 136 004e FB68     		ldr	r3, [r7, #12]
 137              	.LVL14:
 138              	@ 369 "ChibiOS_2.6.6/os/ports/common/ARMCMx/CMSIS/include/core_cmInstr.h" 1
 139 0050 1BBA     		rev r3, r3
 140              	@ 0 "" 2
 141              	.LVL15:
 142              		.thumb
 143              	.LBE37:
 144              	.LBE36:
 145              		.loc 1 139 0
 146 0052 0993     		str	r3, [sp, #36]
 147              	.LVL16:
 148              	.LBB38:
 149              	.LBB39:
 150              		.loc 2 369 0
 151 0054 3B69     		ldr	r3, [r7, #16]
 152              	.LVL17:
 153              	@ 369 "ChibiOS_2.6.6/os/ports/common/ARMCMx/CMSIS/include/core_cmInstr.h" 1
 154 0056 1BBA     		rev r3, r3
 155              	@ 0 "" 2
 156              	.LVL18:
 157              		.thumb
 158              	.LBE39:
 159              	.LBE38:
 160              		.loc 1 141 0
 161 0058 0A93     		str	r3, [sp, #40]
 162              	.LVL19:
 163              	.LBB40:
 164              	.LBB41:
 165              		.loc 2 369 0
 166 005a 7B69     		ldr	r3, [r7, #20]
 167              	.LVL20:
 168              	@ 369 "ChibiOS_2.6.6/os/ports/common/ARMCMx/CMSIS/include/core_cmInstr.h" 1
 169 005c 1BBA     		rev r3, r3
 170              	@ 0 "" 2
 171              	.LVL21:
ARM GAS  C:\Users\ADMINI~1\AppData\Local\Temp\ccA7kAh4.s 			page 4


 172              		.thumb
 173              	.LBE41:
 174              	.LBE40:
 175              		.loc 1 144 0
 176 005e 04A8     		add	r0, sp, #16
 177              		.loc 1 143 0
 178 0060 0B93     		str	r3, [sp, #44]
 179              		.loc 1 144 0
 180 0062 FFF7FEFF 		bl	CRYP_KeyInit
 181              	.LVL22:
 182              		.loc 1 147 0
 183 0066 FFF7FEFF 		bl	CRYP_FIFOFlush
 184              	.LVL23:
 185              		.loc 1 150 0
 186 006a 0120     		movs	r0, #1
 187 006c FFF7FEFF 		bl	CRYP_Cmd
 188              	.LVL24:
 189              		.loc 1 152 0
 190 0070 B8F1000F 		cmp	r8, #0
 191 0074 2FD0     		beq	.L10
 192 0076 0834     		adds	r4, r4, #8
 193              	.LVL25:
 194 0078 0835     		adds	r5, r5, #8
 195              	.LVL26:
 196              		.loc 1 161 0
 197 007a 3746     		mov	r7, r6
 198              	.LVL27:
 199              	.L9:
 200              		.loc 1 155 0
 201 007c 54F8080C 		ldr	r0, [r4, #-8]
 202 0080 FFF7FEFF 		bl	CRYP_DataIn
 203              	.LVL28:
 204              		.loc 1 157 0
 205 0084 54F8040C 		ldr	r0, [r4, #-4]
 206 0088 FFF7FEFF 		bl	CRYP_DataIn
 207              	.LVL29:
 208              		.loc 1 161 0
 209 008c 0197     		str	r7, [sp, #4]
 210 008e 00E0     		b	.L7
 211              	.LVL30:
 212              	.L16:
 213              		.loc 1 166 0 discriminator 1
 214 0090 90B1     		cbz	r0, .L8
 215              	.LVL31:
 216              	.L7:
 217              		.loc 1 164 0 discriminator 2
 218 0092 1020     		movs	r0, #16
 219 0094 FFF7FEFF 		bl	CRYP_GetFlagStatus
 220              	.LVL32:
 221              		.loc 1 165 0 discriminator 2
 222 0098 019B     		ldr	r3, [sp, #4]
 223 009a 0133     		adds	r3, r3, #1
 224 009c 0193     		str	r3, [sp, #4]
 225              		.loc 1 166 0 discriminator 2
 226 009e 019B     		ldr	r3, [sp, #4]
 227 00a0 B3F5803F 		cmp	r3, #65536
 228 00a4 F4D1     		bne	.L16
ARM GAS  C:\Users\ADMINI~1\AppData\Local\Temp\ccA7kAh4.s 			page 5


 229              		.loc 1 168 0
 230 00a6 38B1     		cbz	r0, .L8
 231              		.loc 1 170 0
 232 00a8 0024     		movs	r4, #0
 233              	.LVL33:
 234              	.L5:
 235              		.loc 1 184 0
 236 00aa 0020     		movs	r0, #0
 237 00ac FFF7FEFF 		bl	CRYP_Cmd
 238              	.LVL34:
 239              		.loc 1 187 0
 240 00b0 2046     		mov	r0, r4
 241 00b2 0DB0     		add	sp, sp, #52
 242              		.cfi_remember_state
 243              		.cfi_def_cfa_offset 28
 244              		@ sp needed
 245 00b4 BDE8F083 		pop	{r4, r5, r6, r7, r8, r9, pc}
 246              	.LVL35:
 247              	.L8:
 248              		.cfi_restore_state
 249              		.loc 1 176 0
 250 00b8 FFF7FEFF 		bl	CRYP_DataOut
 251              	.LVL36:
 252 00bc 45F8080C 		str	r0, [r5, #-8]
 253              	.LVL37:
 254              		.loc 1 178 0
 255 00c0 FFF7FEFF 		bl	CRYP_DataOut
 256              	.LVL38:
 257              		.loc 1 152 0
 258 00c4 0836     		adds	r6, r6, #8
 259              	.LVL39:
 260 00c6 B045     		cmp	r8, r6
 261              		.loc 1 178 0
 262 00c8 45F8040C 		str	r0, [r5, #-4]
 263              	.LVL40:
 264 00cc 04F10804 		add	r4, r4, #8
 265 00d0 05F10805 		add	r5, r5, #8
 266              		.loc 1 152 0
 267 00d4 D2D8     		bhi	.L9
 268              	.LVL41:
 269              	.L10:
 270              		.loc 1 109 0
 271 00d6 0124     		movs	r4, #1
 272 00d8 E7E7     		b	.L5
 273              		.cfi_endproc
 274              	.LFE111:
 275              		.size	CRYP_TDES_ECB, .-CRYP_TDES_ECB
 276 00da 00BF     		.section	.text.CRYP_TDES_CBC,"ax",%progbits
 277              		.align	2
 278              		.p2align 4,,15
 279              		.global	CRYP_TDES_CBC
 280              		.thumb
 281              		.thumb_func
 282              		.type	CRYP_TDES_CBC, %function
 283              	CRYP_TDES_CBC:
 284              	.LFB112:
 285              		.loc 1 206 0
ARM GAS  C:\Users\ADMINI~1\AppData\Local\Temp\ccA7kAh4.s 			page 6


 286              		.cfi_startproc
 287              		@ args = 8, pretend = 0, frame = 64
 288              		@ frame_needed = 0, uses_anonymous_args = 0
 289              	.LVL42:
 290 0000 2DE9F045 		push	{r4, r5, r6, r7, r8, r10, lr}
 291              		.cfi_def_cfa_offset 28
 292              		.cfi_offset 4, -28
 293              		.cfi_offset 5, -24
 294              		.cfi_offset 6, -20
 295              		.cfi_offset 7, -16
 296              		.cfi_offset 8, -12
 297              		.cfi_offset 10, -8
 298              		.cfi_offset 14, -4
 299 0004 91B0     		sub	sp, sp, #68
 300              		.cfi_def_cfa_offset 96
 301              		.loc 1 206 0
 302 0006 8246     		mov	r10, r0
 303              		.loc 1 210 0
 304 0008 0025     		movs	r5, #0
 305              		.loc 1 220 0
 306 000a 08A8     		add	r0, sp, #32
 307              	.LVL43:
 308              		.loc 1 206 0
 309 000c 0E46     		mov	r6, r1
 310 000e 1C46     		mov	r4, r3
 311 0010 1746     		mov	r7, r2
 312              		.loc 1 210 0
 313 0012 0195     		str	r5, [sp, #4]
 314              		.loc 1 206 0
 315 0014 DDF86080 		ldr	r8, [sp, #96]
 316              	.LVL44:
 317              		.loc 1 220 0
 318 0018 FFF7FEFF 		bl	CRYP_KeyStructInit
 319              	.LVL45:
 320              		.loc 1 223 0
 321 001c BAF1010F 		cmp	r10, #1
 322              		.loc 1 229 0
 323 0020 18BF     		it	ne
 324 0022 0423     		movne	r3, #4
 325              		.loc 1 231 0
 326 0024 4FF00802 		mov	r2, #8
 327              		.loc 1 229 0
 328 0028 18BF     		it	ne
 329 002a ADF80830 		strhne	r3, [sp, #8]	@ movhi
 330              		.loc 1 234 0
 331 002e 0DEB0200 		add	r0, sp, r2
 332              		.loc 1 232 0
 333 0032 4FF08003 		mov	r3, #128
 334              		.loc 1 225 0
 335 0036 08BF     		it	eq
 336 0038 ADF80850 		strheq	r5, [sp, #8]	@ movhi
 337              		.loc 1 232 0
 338 003c ADF80C30 		strh	r3, [sp, #12]	@ movhi
 339              		.loc 1 231 0
 340 0040 ADF80A20 		strh	r2, [sp, #10]	@ movhi
 341              		.loc 1 234 0
 342 0044 FFF7FEFF 		bl	CRYP_Init
ARM GAS  C:\Users\ADMINI~1\AppData\Local\Temp\ccA7kAh4.s 			page 7


 343              	.LVL46:
 344              	.LBB42:
 345              	.LBB43:
 346              		.loc 2 369 0
 347 0048 3368     		ldr	r3, [r6]
 348              	@ 369 "ChibiOS_2.6.6/os/ports/common/ARMCMx/CMSIS/include/core_cmInstr.h" 1
 349 004a 1BBA     		rev r3, r3
 350              	@ 0 "" 2
 351              	.LVL47:
 352              		.thumb
 353              	.LBE43:
 354              	.LBE42:
 355              		.loc 1 237 0
 356 004c 0A93     		str	r3, [sp, #40]
 357              	.LVL48:
 358              	.LBB44:
 359              	.LBB45:
 360              		.loc 2 369 0
 361 004e 7368     		ldr	r3, [r6, #4]
 362              	.LVL49:
 363              	@ 369 "ChibiOS_2.6.6/os/ports/common/ARMCMx/CMSIS/include/core_cmInstr.h" 1
 364 0050 1BBA     		rev r3, r3
 365              	@ 0 "" 2
 366              	.LVL50:
 367              		.thumb
 368              	.LBE45:
 369              	.LBE44:
 370              		.loc 1 239 0
 371 0052 0B93     		str	r3, [sp, #44]
 372              	.LVL51:
 373              	.LBB46:
 374              	.LBB47:
 375              		.loc 2 369 0
 376 0054 B368     		ldr	r3, [r6, #8]
 377              	.LVL52:
 378              	@ 369 "ChibiOS_2.6.6/os/ports/common/ARMCMx/CMSIS/include/core_cmInstr.h" 1
 379 0056 1BBA     		rev r3, r3
 380              	@ 0 "" 2
 381              	.LVL53:
 382              		.thumb
 383              	.LBE47:
 384              	.LBE46:
 385              		.loc 1 241 0
 386 0058 0C93     		str	r3, [sp, #48]
 387              	.LVL54:
 388              	.LBB48:
 389              	.LBB49:
 390              		.loc 2 369 0
 391 005a F368     		ldr	r3, [r6, #12]
 392              	.LVL55:
 393              	@ 369 "ChibiOS_2.6.6/os/ports/common/ARMCMx/CMSIS/include/core_cmInstr.h" 1
 394 005c 1BBA     		rev r3, r3
 395              	@ 0 "" 2
 396              	.LVL56:
 397              		.thumb
 398              	.LBE49:
 399              	.LBE48:
ARM GAS  C:\Users\ADMINI~1\AppData\Local\Temp\ccA7kAh4.s 			page 8


 400              		.loc 1 243 0
 401 005e 0D93     		str	r3, [sp, #52]
 402              	.LVL57:
 403              	.LBB50:
 404              	.LBB51:
 405              		.loc 2 369 0
 406 0060 3369     		ldr	r3, [r6, #16]
 407              	.LVL58:
 408              	@ 369 "ChibiOS_2.6.6/os/ports/common/ARMCMx/CMSIS/include/core_cmInstr.h" 1
 409 0062 1BBA     		rev r3, r3
 410              	@ 0 "" 2
 411              	.LVL59:
 412              		.thumb
 413              	.LBE51:
 414              	.LBE50:
 415              		.loc 1 245 0
 416 0064 0E93     		str	r3, [sp, #56]
 417              	.LVL60:
 418              	.LBB52:
 419              	.LBB53:
 420              		.loc 2 369 0
 421 0066 7369     		ldr	r3, [r6, #20]
 422              	.LVL61:
 423              	@ 369 "ChibiOS_2.6.6/os/ports/common/ARMCMx/CMSIS/include/core_cmInstr.h" 1
 424 0068 1BBA     		rev r3, r3
 425              	@ 0 "" 2
 426              	.LVL62:
 427              		.thumb
 428              	.LBE53:
 429              	.LBE52:
 430              		.loc 1 248 0
 431 006a 08A8     		add	r0, sp, #32
 432              		.loc 1 247 0
 433 006c 0F93     		str	r3, [sp, #60]
 434              		.loc 1 248 0
 435 006e FFF7FEFF 		bl	CRYP_KeyInit
 436              	.LVL63:
 437              	.LBB54:
 438              	.LBB55:
 439              		.loc 2 369 0
 440 0072 3B68     		ldr	r3, [r7]
 441              	@ 369 "ChibiOS_2.6.6/os/ports/common/ARMCMx/CMSIS/include/core_cmInstr.h" 1
 442 0074 1BBA     		rev r3, r3
 443              	@ 0 "" 2
 444              	.LVL64:
 445              		.thumb
 446              	.LBE55:
 447              	.LBE54:
 448              		.loc 1 251 0
 449 0076 0493     		str	r3, [sp, #16]
 450              	.LVL65:
 451              	.LBB56:
 452              	.LBB57:
 453              		.loc 2 369 0
 454 0078 7B68     		ldr	r3, [r7, #4]
 455              	.LVL66:
 456              	@ 369 "ChibiOS_2.6.6/os/ports/common/ARMCMx/CMSIS/include/core_cmInstr.h" 1
ARM GAS  C:\Users\ADMINI~1\AppData\Local\Temp\ccA7kAh4.s 			page 9


 457 007a 1BBA     		rev r3, r3
 458              	@ 0 "" 2
 459              	.LVL67:
 460              		.thumb
 461              	.LBE57:
 462              	.LBE56:
 463              		.loc 1 254 0
 464 007c 04A8     		add	r0, sp, #16
 465              	.LVL68:
 466              		.loc 1 253 0
 467 007e 0593     		str	r3, [sp, #20]
 468              		.loc 1 254 0
 469 0080 FFF7FEFF 		bl	CRYP_IVInit
 470              	.LVL69:
 471              		.loc 1 257 0
 472 0084 FFF7FEFF 		bl	CRYP_FIFOFlush
 473              	.LVL70:
 474              		.loc 1 260 0
 475 0088 0120     		movs	r0, #1
 476 008a FFF7FEFF 		bl	CRYP_Cmd
 477              	.LVL71:
 478              		.loc 1 262 0
 479 008e B8F1000F 		cmp	r8, #0
 480 0092 32D0     		beq	.L26
 481 0094 199B     		ldr	r3, [sp, #100]
 482 0096 0027     		movs	r7, #0
 483              	.LVL72:
 484 0098 0834     		adds	r4, r4, #8
 485              	.LVL73:
 486 009a 03F10805 		add	r5, r3, #8
 487              		.loc 1 271 0
 488 009e 3E46     		mov	r6, r7
 489              	.LVL74:
 490              	.L25:
 491              		.loc 1 265 0
 492 00a0 54F8080C 		ldr	r0, [r4, #-8]
 493 00a4 FFF7FEFF 		bl	CRYP_DataIn
 494              	.LVL75:
 495              		.loc 1 267 0
 496 00a8 54F8040C 		ldr	r0, [r4, #-4]
 497 00ac FFF7FEFF 		bl	CRYP_DataIn
 498              	.LVL76:
 499              		.loc 1 271 0
 500 00b0 0196     		str	r6, [sp, #4]
 501 00b2 00E0     		b	.L23
 502              	.LVL77:
 503              	.L31:
 504              		.loc 1 276 0 discriminator 1
 505 00b4 90B1     		cbz	r0, .L24
 506              	.LVL78:
 507              	.L23:
 508              		.loc 1 274 0 discriminator 2
 509 00b6 1020     		movs	r0, #16
 510 00b8 FFF7FEFF 		bl	CRYP_GetFlagStatus
 511              	.LVL79:
 512              		.loc 1 275 0 discriminator 2
 513 00bc 019B     		ldr	r3, [sp, #4]
ARM GAS  C:\Users\ADMINI~1\AppData\Local\Temp\ccA7kAh4.s 			page 10


 514 00be 0133     		adds	r3, r3, #1
 515 00c0 0193     		str	r3, [sp, #4]
 516              		.loc 1 276 0 discriminator 2
 517 00c2 019B     		ldr	r3, [sp, #4]
 518 00c4 B3F5803F 		cmp	r3, #65536
 519 00c8 F4D1     		bne	.L31
 520              		.loc 1 278 0
 521 00ca 38B1     		cbz	r0, .L24
 522              		.loc 1 280 0
 523 00cc 0024     		movs	r4, #0
 524              	.LVL80:
 525              	.L21:
 526              		.loc 1 294 0
 527 00ce 0020     		movs	r0, #0
 528 00d0 FFF7FEFF 		bl	CRYP_Cmd
 529              	.LVL81:
 530              		.loc 1 297 0
 531 00d4 2046     		mov	r0, r4
 532 00d6 11B0     		add	sp, sp, #68
 533              		.cfi_remember_state
 534              		.cfi_def_cfa_offset 28
 535              		@ sp needed
 536 00d8 BDE8F085 		pop	{r4, r5, r6, r7, r8, r10, pc}
 537              	.LVL82:
 538              	.L24:
 539              		.cfi_restore_state
 540              		.loc 1 286 0
 541 00dc FFF7FEFF 		bl	CRYP_DataOut
 542              	.LVL83:
 543 00e0 45F8080C 		str	r0, [r5, #-8]
 544              	.LVL84:
 545              		.loc 1 288 0
 546 00e4 FFF7FEFF 		bl	CRYP_DataOut
 547              	.LVL85:
 548              		.loc 1 262 0
 549 00e8 0837     		adds	r7, r7, #8
 550              	.LVL86:
 551 00ea B845     		cmp	r8, r7
 552              		.loc 1 288 0
 553 00ec 45F8040C 		str	r0, [r5, #-4]
 554              	.LVL87:
 555 00f0 04F10804 		add	r4, r4, #8
 556 00f4 05F10805 		add	r5, r5, #8
 557              		.loc 1 262 0
 558 00f8 D2D8     		bhi	.L25
 559              	.LVL88:
 560              	.L26:
 561              		.loc 1 212 0
 562 00fa 0124     		movs	r4, #1
 563 00fc E7E7     		b	.L21
 564              		.cfi_endproc
 565              	.LFE112:
 566              		.size	CRYP_TDES_CBC, .-CRYP_TDES_CBC
 567 00fe 00BF     		.text
 568              	.Letext0:
 569              		.file 3 "c:\\program files\\gnu tools arm embedded\\4.9 2015q2\\arm-none-eabi\\include\\machine\\_
 570              		.file 4 "c:\\program files\\gnu tools arm embedded\\4.9 2015q2\\arm-none-eabi\\include\\sys\\_stdi
ARM GAS  C:\Users\ADMINI~1\AppData\Local\Temp\ccA7kAh4.s 			page 11


 571              		.file 5 "ChibiOS_2.6.6/os/hal/platforms/STM32F4xx/stm32f4xx.h"
 572              		.file 6 "ChibiOS_2.6.6/ext/stdperiph_stm32f4/inc/stm32f4xx_cryp.h"
 573              		.file 7 "ChibiOS_2.6.6/os/ports/common/ARMCMx/CMSIS/include/core_cm4.h"
 574              		.section	.debug_info,"",%progbits
 575              	.Ldebug_info0:
 576 0000 0B090000 		.4byte	0x90b
 577 0004 0400     		.2byte	0x4
 578 0006 00000000 		.4byte	.Ldebug_abbrev0
 579 000a 04       		.byte	0x4
 580 000b 01       		.uleb128 0x1
 581 000c 2B020000 		.4byte	.LASF68
 582 0010 01       		.byte	0x1
 583 0011 9E000000 		.4byte	.LASF69
 584 0015 10010000 		.4byte	.LASF70
 585 0019 00000000 		.4byte	.Ldebug_ranges0+0
 586 001d 00000000 		.4byte	0
 587 0021 00000000 		.4byte	.Ldebug_line0
 588 0025 02       		.uleb128 0x2
 589 0026 01       		.byte	0x1
 590 0027 06       		.byte	0x6
 591 0028 4F030000 		.4byte	.LASF0
 592 002c 03       		.uleb128 0x3
 593 002d AF010000 		.4byte	.LASF3
 594 0031 03       		.byte	0x3
 595 0032 1D       		.byte	0x1d
 596 0033 37000000 		.4byte	0x37
 597 0037 02       		.uleb128 0x2
 598 0038 01       		.byte	0x1
 599 0039 08       		.byte	0x8
 600 003a 08020000 		.4byte	.LASF1
 601 003e 02       		.uleb128 0x2
 602 003f 02       		.byte	0x2
 603 0040 05       		.byte	0x5
 604 0041 79010000 		.4byte	.LASF2
 605 0045 03       		.uleb128 0x3
 606 0046 84000000 		.4byte	.LASF4
 607 004a 03       		.byte	0x3
 608 004b 2B       		.byte	0x2b
 609 004c 50000000 		.4byte	0x50
 610 0050 02       		.uleb128 0x2
 611 0051 02       		.byte	0x2
 612 0052 07       		.byte	0x7
 613 0053 D0030000 		.4byte	.LASF5
 614 0057 03       		.uleb128 0x3
 615 0058 7E040000 		.4byte	.LASF6
 616 005c 03       		.byte	0x3
 617 005d 3F       		.byte	0x3f
 618 005e 62000000 		.4byte	0x62
 619 0062 02       		.uleb128 0x2
 620 0063 04       		.byte	0x4
 621 0064 05       		.byte	0x5
 622 0065 9A010000 		.4byte	.LASF7
 623 0069 03       		.uleb128 0x3
 624 006a 6A000000 		.4byte	.LASF8
 625 006e 03       		.byte	0x3
 626 006f 41       		.byte	0x41
 627 0070 74000000 		.4byte	0x74
ARM GAS  C:\Users\ADMINI~1\AppData\Local\Temp\ccA7kAh4.s 			page 12


 628 0074 02       		.uleb128 0x2
 629 0075 04       		.byte	0x4
 630 0076 07       		.byte	0x7
 631 0077 51040000 		.4byte	.LASF9
 632 007b 02       		.uleb128 0x2
 633 007c 08       		.byte	0x8
 634 007d 05       		.byte	0x5
 635 007e 8C010000 		.4byte	.LASF10
 636 0082 02       		.uleb128 0x2
 637 0083 08       		.byte	0x8
 638 0084 07       		.byte	0x7
 639 0085 5B030000 		.4byte	.LASF11
 640 0089 04       		.uleb128 0x4
 641 008a 04       		.byte	0x4
 642 008b 05       		.byte	0x5
 643 008c 696E7400 		.ascii	"int\000"
 644 0090 02       		.uleb128 0x2
 645 0091 04       		.byte	0x4
 646 0092 07       		.byte	0x7
 647 0093 88030000 		.4byte	.LASF12
 648 0097 03       		.uleb128 0x3
 649 0098 22010000 		.4byte	.LASF13
 650 009c 04       		.byte	0x4
 651 009d 14       		.byte	0x14
 652 009e 2C000000 		.4byte	0x2c
 653 00a2 03       		.uleb128 0x3
 654 00a3 95030000 		.4byte	.LASF14
 655 00a7 04       		.byte	0x4
 656 00a8 1A       		.byte	0x1a
 657 00a9 45000000 		.4byte	0x45
 658 00ad 03       		.uleb128 0x3
 659 00ae 04040000 		.4byte	.LASF15
 660 00b2 04       		.byte	0x4
 661 00b3 1F       		.byte	0x1f
 662 00b4 57000000 		.4byte	0x57
 663 00b8 03       		.uleb128 0x3
 664 00b9 7F030000 		.4byte	.LASF16
 665 00bd 04       		.byte	0x4
 666 00be 20       		.byte	0x20
 667 00bf 69000000 		.4byte	0x69
 668 00c3 02       		.uleb128 0x2
 669 00c4 04       		.byte	0x4
 670 00c5 07       		.byte	0x7
 671 00c6 50000000 		.4byte	.LASF17
 672 00ca 05       		.uleb128 0x5
 673 00cb B8000000 		.4byte	0xb8
 674 00cf 05       		.uleb128 0x5
 675 00d0 AD000000 		.4byte	0xad
 676 00d4 06       		.uleb128 0x6
 677 00d5 01       		.byte	0x1
 678 00d6 05       		.byte	0x5
 679 00d7 F701     		.2byte	0x1f7
 680 00d9 EA000000 		.4byte	0xea
 681 00dd 07       		.uleb128 0x7
 682 00de 88040000 		.4byte	.LASF18
 683 00e2 00       		.sleb128 0
 684 00e3 08       		.uleb128 0x8
ARM GAS  C:\Users\ADMINI~1\AppData\Local\Temp\ccA7kAh4.s 			page 13


 685 00e4 53455400 		.ascii	"SET\000"
 686 00e8 01       		.sleb128 1
 687 00e9 00       		.byte	0
 688 00ea 09       		.uleb128 0x9
 689 00eb E8040000 		.4byte	.LASF19
 690 00ef 05       		.byte	0x5
 691 00f0 F701     		.2byte	0x1f7
 692 00f2 D4000000 		.4byte	0xd4
 693 00f6 06       		.uleb128 0x6
 694 00f7 01       		.byte	0x1
 695 00f8 05       		.byte	0x5
 696 00f9 F901     		.2byte	0x1f9
 697 00fb 0C010000 		.4byte	0x10c
 698 00ff 07       		.uleb128 0x7
 699 0100 69010000 		.4byte	.LASF20
 700 0104 00       		.sleb128 0
 701 0105 07       		.uleb128 0x7
 702 0106 01050000 		.4byte	.LASF21
 703 010a 01       		.sleb128 1
 704 010b 00       		.byte	0
 705 010c 09       		.uleb128 0x9
 706 010d 6E040000 		.4byte	.LASF22
 707 0111 05       		.byte	0x5
 708 0112 F901     		.2byte	0x1f9
 709 0114 F6000000 		.4byte	0xf6
 710 0118 06       		.uleb128 0x6
 711 0119 01       		.byte	0x1
 712 011a 05       		.byte	0x5
 713 011b FC01     		.2byte	0x1fc
 714 011d 2E010000 		.4byte	0x12e
 715 0121 07       		.uleb128 0x7
 716 0122 B9010000 		.4byte	.LASF23
 717 0126 00       		.sleb128 0
 718 0127 07       		.uleb128 0x7
 719 0128 C8030000 		.4byte	.LASF24
 720 012c 01       		.sleb128 1
 721 012d 00       		.byte	0
 722 012e 09       		.uleb128 0x9
 723 012f A3010000 		.4byte	.LASF25
 724 0133 05       		.byte	0x5
 725 0134 FC01     		.2byte	0x1fc
 726 0136 18010000 		.4byte	0x118
 727 013a 0A       		.uleb128 0xa
 728 013b 08       		.byte	0x8
 729 013c 06       		.byte	0x6
 730 013d 35       		.byte	0x35
 731 013e 73010000 		.4byte	0x173
 732 0142 0B       		.uleb128 0xb
 733 0143 D9010000 		.4byte	.LASF26
 734 0147 06       		.byte	0x6
 735 0148 37       		.byte	0x37
 736 0149 A2000000 		.4byte	0xa2
 737 014d 00       		.byte	0
 738 014e 0B       		.uleb128 0xb
 739 014f 08050000 		.4byte	.LASF27
 740 0153 06       		.byte	0x6
 741 0154 39       		.byte	0x39
ARM GAS  C:\Users\ADMINI~1\AppData\Local\Temp\ccA7kAh4.s 			page 14


 742 0155 A2000000 		.4byte	0xa2
 743 0159 02       		.byte	0x2
 744 015a 0B       		.uleb128 0xb
 745 015b AC030000 		.4byte	.LASF28
 746 015f 06       		.byte	0x6
 747 0160 3C       		.byte	0x3c
 748 0161 A2000000 		.4byte	0xa2
 749 0165 04       		.byte	0x4
 750 0166 0B       		.uleb128 0xb
 751 0167 44040000 		.4byte	.LASF29
 752 016b 06       		.byte	0x6
 753 016c 3E       		.byte	0x3e
 754 016d A2000000 		.4byte	0xa2
 755 0171 06       		.byte	0x6
 756 0172 00       		.byte	0
 757 0173 03       		.uleb128 0x3
 758 0174 59000000 		.4byte	.LASF30
 759 0178 06       		.byte	0x6
 760 0179 41       		.byte	0x41
 761 017a 3A010000 		.4byte	0x13a
 762 017e 0A       		.uleb128 0xa
 763 017f 20       		.byte	0x20
 764 0180 06       		.byte	0x6
 765 0181 46       		.byte	0x46
 766 0182 E7010000 		.4byte	0x1e7
 767 0186 0B       		.uleb128 0xb
 768 0187 9E030000 		.4byte	.LASF31
 769 018b 06       		.byte	0x6
 770 018c 48       		.byte	0x48
 771 018d B8000000 		.4byte	0xb8
 772 0191 00       		.byte	0
 773 0192 0B       		.uleb128 0xb
 774 0193 27040000 		.4byte	.LASF32
 775 0197 06       		.byte	0x6
 776 0198 49       		.byte	0x49
 777 0199 B8000000 		.4byte	0xb8
 778 019d 04       		.byte	0x4
 779 019e 0B       		.uleb128 0xb
 780 019f B5040000 		.4byte	.LASF33
 781 01a3 06       		.byte	0x6
 782 01a4 4A       		.byte	0x4a
 783 01a5 B8000000 		.4byte	0xb8
 784 01a9 08       		.byte	0x8
 785 01aa 0B       		.uleb128 0xb
 786 01ab 8F000000 		.4byte	.LASF34
 787 01af 06       		.byte	0x6
 788 01b0 4B       		.byte	0x4b
 789 01b1 B8000000 		.4byte	0xb8
 790 01b5 0C       		.byte	0xc
 791 01b6 0B       		.uleb128 0xb
 792 01b7 BA030000 		.4byte	.LASF35
 793 01bb 06       		.byte	0x6
 794 01bc 4C       		.byte	0x4c
 795 01bd B8000000 		.4byte	0xb8
 796 01c1 10       		.byte	0x10
 797 01c2 0B       		.uleb128 0xb
 798 01c3 0C040000 		.4byte	.LASF36
ARM GAS  C:\Users\ADMINI~1\AppData\Local\Temp\ccA7kAh4.s 			page 15


 799 01c7 06       		.byte	0x6
 800 01c8 4D       		.byte	0x4d
 801 01c9 B8000000 		.4byte	0xb8
 802 01cd 14       		.byte	0x14
 803 01ce 0B       		.uleb128 0xb
 804 01cf EA030000 		.4byte	.LASF37
 805 01d3 06       		.byte	0x6
 806 01d4 4E       		.byte	0x4e
 807 01d5 B8000000 		.4byte	0xb8
 808 01d9 18       		.byte	0x18
 809 01da 0B       		.uleb128 0xb
 810 01db 75000000 		.4byte	.LASF38
 811 01df 06       		.byte	0x6
 812 01e0 4F       		.byte	0x4f
 813 01e1 B8000000 		.4byte	0xb8
 814 01e5 1C       		.byte	0x1c
 815 01e6 00       		.byte	0
 816 01e7 03       		.uleb128 0x3
 817 01e8 E6010000 		.4byte	.LASF39
 818 01ec 06       		.byte	0x6
 819 01ed 50       		.byte	0x50
 820 01ee 7E010000 		.4byte	0x17e
 821 01f2 0A       		.uleb128 0xa
 822 01f3 10       		.byte	0x10
 823 01f4 06       		.byte	0x6
 824 01f5 54       		.byte	0x54
 825 01f6 2B020000 		.4byte	0x22b
 826 01fa 0B       		.uleb128 0xb
 827 01fb 1E020000 		.4byte	.LASF40
 828 01ff 06       		.byte	0x6
 829 0200 56       		.byte	0x56
 830 0201 B8000000 		.4byte	0xb8
 831 0205 00       		.byte	0
 832 0206 0B       		.uleb128 0xb
 833 0207 FA010000 		.4byte	.LASF41
 834 020b 06       		.byte	0x6
 835 020c 57       		.byte	0x57
 836 020d B8000000 		.4byte	0xb8
 837 0211 04       		.byte	0x4
 838 0212 0B       		.uleb128 0xb
 839 0213 8E040000 		.4byte	.LASF42
 840 0217 06       		.byte	0x6
 841 0218 58       		.byte	0x58
 842 0219 B8000000 		.4byte	0xb8
 843 021d 08       		.byte	0x8
 844 021e 0B       		.uleb128 0xb
 845 021f F3040000 		.4byte	.LASF43
 846 0223 06       		.byte	0x6
 847 0224 59       		.byte	0x59
 848 0225 B8000000 		.4byte	0xb8
 849 0229 0C       		.byte	0xc
 850 022a 00       		.byte	0
 851 022b 03       		.uleb128 0x3
 852 022c 07000000 		.4byte	.LASF44
 853 0230 06       		.byte	0x6
 854 0231 5A       		.byte	0x5a
 855 0232 F2010000 		.4byte	0x1f2
ARM GAS  C:\Users\ADMINI~1\AppData\Local\Temp\ccA7kAh4.s 			page 16


 856 0236 0C       		.uleb128 0xc
 857 0237 35010000 		.4byte	.LASF71
 858 023b 02       		.byte	0x2
 859 023c 6D01     		.2byte	0x16d
 860 023e B8000000 		.4byte	0xb8
 861 0242 03       		.byte	0x3
 862 0243 60020000 		.4byte	0x260
 863 0247 0D       		.uleb128 0xd
 864 0248 0A010000 		.4byte	.LASF72
 865 024c 02       		.byte	0x2
 866 024d 6D01     		.2byte	0x16d
 867 024f B8000000 		.4byte	0xb8
 868 0253 0E       		.uleb128 0xe
 869 0254 00000000 		.4byte	.LASF73
 870 0258 02       		.byte	0x2
 871 0259 6F01     		.2byte	0x16f
 872 025b B8000000 		.4byte	0xb8
 873 025f 00       		.byte	0
 874 0260 0F       		.uleb128 0xf
 875 0261 36040000 		.4byte	.LASF57
 876 0265 01       		.byte	0x1
 877 0266 66       		.byte	0x66
 878 0267 2E010000 		.4byte	0x12e
 879 026b 00000000 		.4byte	.LFB111
 880 026f DA000000 		.4byte	.LFE111-.LFB111
 881 0273 01       		.uleb128 0x1
 882 0274 9C       		.byte	0x9c
 883 0275 09050000 		.4byte	0x509
 884 0279 10       		.uleb128 0x10
 885 027a AA040000 		.4byte	.LASF45
 886 027e 01       		.byte	0x1
 887 027f 66       		.byte	0x66
 888 0280 97000000 		.4byte	0x97
 889 0284 00000000 		.4byte	.LLST0
 890 0288 11       		.uleb128 0x11
 891 0289 4B657900 		.ascii	"Key\000"
 892 028d 01       		.byte	0x1
 893 028e 66       		.byte	0x66
 894 028f 09050000 		.4byte	0x509
 895 0293 21000000 		.4byte	.LLST1
 896 0297 10       		.uleb128 0x10
 897 0298 AF040000 		.4byte	.LASF46
 898 029c 01       		.byte	0x1
 899 029d 66       		.byte	0x66
 900 029e 09050000 		.4byte	0x509
 901 02a2 4D000000 		.4byte	.LLST2
 902 02a6 10       		.uleb128 0x10
 903 02a7 3B010000 		.4byte	.LASF47
 904 02ab 01       		.byte	0x1
 905 02ac 67       		.byte	0x67
 906 02ad B8000000 		.4byte	0xb8
 907 02b1 86000000 		.4byte	.LLST3
 908 02b5 10       		.uleb128 0x10
 909 02b6 49000000 		.4byte	.LASF48
 910 02ba 01       		.byte	0x1
 911 02bb 67       		.byte	0x67
 912 02bc 09050000 		.4byte	0x509
ARM GAS  C:\Users\ADMINI~1\AppData\Local\Temp\ccA7kAh4.s 			page 17


 913 02c0 A4000000 		.4byte	.LLST4
 914 02c4 12       		.uleb128 0x12
 915 02c5 31000000 		.4byte	.LASF49
 916 02c9 01       		.byte	0x1
 917 02ca 69       		.byte	0x69
 918 02cb 73010000 		.4byte	0x173
 919 02cf 03       		.uleb128 0x3
 920 02d0 91       		.byte	0x91
 921 02d1 B87F     		.sleb128 -72
 922 02d3 12       		.uleb128 0x12
 923 02d4 DC000000 		.4byte	.LASF50
 924 02d8 01       		.byte	0x1
 925 02d9 6A       		.byte	0x6a
 926 02da E7010000 		.4byte	0x1e7
 927 02de 02       		.uleb128 0x2
 928 02df 91       		.byte	0x91
 929 02e0 40       		.sleb128 -64
 930 02e1 12       		.uleb128 0x12
 931 02e2 16020000 		.4byte	.LASF51
 932 02e6 01       		.byte	0x1
 933 02e7 6B       		.byte	0x6b
 934 02e8 CA000000 		.4byte	0xca
 935 02ec 03       		.uleb128 0x3
 936 02ed 91       		.byte	0x91
 937 02ee B47F     		.sleb128 -76
 938 02f0 13       		.uleb128 0x13
 939 02f1 63040000 		.4byte	.LASF52
 940 02f5 01       		.byte	0x1
 941 02f6 6C       		.byte	0x6c
 942 02f7 B8000000 		.4byte	0xb8
 943 02fb C4000000 		.4byte	.LLST5
 944 02ff 14       		.uleb128 0x14
 945 0300 E3030000 		.4byte	.LASF53
 946 0304 01       		.byte	0x1
 947 0305 6D       		.byte	0x6d
 948 0306 2E010000 		.4byte	0x12e
 949 030a 01       		.byte	0x1
 950 030b 13       		.uleb128 0x13
 951 030c 71010000 		.4byte	.LASF54
 952 0310 01       		.byte	0x1
 953 0311 6E       		.byte	0x6e
 954 0312 B8000000 		.4byte	0xb8
 955 0316 F9000000 		.4byte	.LLST6
 956 031a 13       		.uleb128 0x13
 957 031b 1A000000 		.4byte	.LASF55
 958 031f 01       		.byte	0x1
 959 0320 6F       		.byte	0x6f
 960 0321 B8000000 		.4byte	0xb8
 961 0325 68010000 		.4byte	.LLST7
 962 0329 13       		.uleb128 0x13
 963 032a 2A010000 		.4byte	.LASF56
 964 032e 01       		.byte	0x1
 965 032f 70       		.byte	0x70
 966 0330 B8000000 		.4byte	0xb8
 967 0334 EE010000 		.4byte	.LLST8
 968 0338 15       		.uleb128 0x15
 969 0339 6900     		.ascii	"i\000"
ARM GAS  C:\Users\ADMINI~1\AppData\Local\Temp\ccA7kAh4.s 			page 18


 970 033b 01       		.byte	0x1
 971 033c 71       		.byte	0x71
 972 033d B8000000 		.4byte	0xb8
 973 0341 55020000 		.4byte	.LLST9
 974 0345 16       		.uleb128 0x16
 975 0346 36020000 		.4byte	0x236
 976 034a 3C000000 		.4byte	.LBB30
 977 034e 04000000 		.4byte	.LBE30-.LBB30
 978 0352 01       		.byte	0x1
 979 0353 85       		.byte	0x85
 980 0354 75030000 		.4byte	0x375
 981 0358 17       		.uleb128 0x17
 982 0359 47020000 		.4byte	0x247
 983 035d 97020000 		.4byte	.LLST10
 984 0361 18       		.uleb128 0x18
 985 0362 3C000000 		.4byte	.LBB31
 986 0366 04000000 		.4byte	.LBE31-.LBB31
 987 036a 19       		.uleb128 0x19
 988 036b 53020000 		.4byte	0x253
 989 036f AB020000 		.4byte	.LLST11
 990 0373 00       		.byte	0
 991 0374 00       		.byte	0
 992 0375 16       		.uleb128 0x16
 993 0376 36020000 		.4byte	0x236
 994 037a 42000000 		.4byte	.LBB32
 995 037e 04000000 		.4byte	.LBE32-.LBB32
 996 0382 01       		.byte	0x1
 997 0383 87       		.byte	0x87
 998 0384 A5030000 		.4byte	0x3a5
 999 0388 17       		.uleb128 0x17
 1000 0389 47020000 		.4byte	0x247
 1001 038d CA020000 		.4byte	.LLST12
 1002 0391 18       		.uleb128 0x18
 1003 0392 42000000 		.4byte	.LBB33
 1004 0396 04000000 		.4byte	.LBE33-.LBB33
 1005 039a 19       		.uleb128 0x19
 1006 039b 53020000 		.4byte	0x253
 1007 039f DE020000 		.4byte	.LLST13
 1008 03a3 00       		.byte	0
 1009 03a4 00       		.byte	0
 1010 03a5 16       		.uleb128 0x16
 1011 03a6 36020000 		.4byte	0x236
 1012 03aa 48000000 		.4byte	.LBB34
 1013 03ae 04000000 		.4byte	.LBE34-.LBB34
 1014 03b2 01       		.byte	0x1
 1015 03b3 89       		.byte	0x89
 1016 03b4 D5030000 		.4byte	0x3d5
 1017 03b8 17       		.uleb128 0x17
 1018 03b9 47020000 		.4byte	0x247
 1019 03bd FD020000 		.4byte	.LLST14
 1020 03c1 18       		.uleb128 0x18
 1021 03c2 48000000 		.4byte	.LBB35
 1022 03c6 04000000 		.4byte	.LBE35-.LBB35
 1023 03ca 19       		.uleb128 0x19
 1024 03cb 53020000 		.4byte	0x253
 1025 03cf 11030000 		.4byte	.LLST15
 1026 03d3 00       		.byte	0
ARM GAS  C:\Users\ADMINI~1\AppData\Local\Temp\ccA7kAh4.s 			page 19


 1027 03d4 00       		.byte	0
 1028 03d5 16       		.uleb128 0x16
 1029 03d6 36020000 		.4byte	0x236
 1030 03da 4E000000 		.4byte	.LBB36
 1031 03de 04000000 		.4byte	.LBE36-.LBB36
 1032 03e2 01       		.byte	0x1
 1033 03e3 8B       		.byte	0x8b
 1034 03e4 05040000 		.4byte	0x405
 1035 03e8 17       		.uleb128 0x17
 1036 03e9 47020000 		.4byte	0x247
 1037 03ed 30030000 		.4byte	.LLST16
 1038 03f1 18       		.uleb128 0x18
 1039 03f2 4E000000 		.4byte	.LBB37
 1040 03f6 04000000 		.4byte	.LBE37-.LBB37
 1041 03fa 19       		.uleb128 0x19
 1042 03fb 53020000 		.4byte	0x253
 1043 03ff 44030000 		.4byte	.LLST17
 1044 0403 00       		.byte	0
 1045 0404 00       		.byte	0
 1046 0405 16       		.uleb128 0x16
 1047 0406 36020000 		.4byte	0x236
 1048 040a 54000000 		.4byte	.LBB38
 1049 040e 04000000 		.4byte	.LBE38-.LBB38
 1050 0412 01       		.byte	0x1
 1051 0413 8D       		.byte	0x8d
 1052 0414 35040000 		.4byte	0x435
 1053 0418 17       		.uleb128 0x17
 1054 0419 47020000 		.4byte	0x247
 1055 041d 63030000 		.4byte	.LLST18
 1056 0421 18       		.uleb128 0x18
 1057 0422 54000000 		.4byte	.LBB39
 1058 0426 04000000 		.4byte	.LBE39-.LBB39
 1059 042a 19       		.uleb128 0x19
 1060 042b 53020000 		.4byte	0x253
 1061 042f 77030000 		.4byte	.LLST19
 1062 0433 00       		.byte	0
 1063 0434 00       		.byte	0
 1064 0435 16       		.uleb128 0x16
 1065 0436 36020000 		.4byte	0x236
 1066 043a 5A000000 		.4byte	.LBB40
 1067 043e 04000000 		.4byte	.LBE40-.LBB40
 1068 0442 01       		.byte	0x1
 1069 0443 8F       		.byte	0x8f
 1070 0444 65040000 		.4byte	0x465
 1071 0448 17       		.uleb128 0x17
 1072 0449 47020000 		.4byte	0x247
 1073 044d 96030000 		.4byte	.LLST20
 1074 0451 18       		.uleb128 0x18
 1075 0452 5A000000 		.4byte	.LBB41
 1076 0456 04000000 		.4byte	.LBE41-.LBB41
 1077 045a 19       		.uleb128 0x19
 1078 045b 53020000 		.4byte	0x253
 1079 045f AA030000 		.4byte	.LLST21
 1080 0463 00       		.byte	0
 1081 0464 00       		.byte	0
 1082 0465 1A       		.uleb128 0x1a
 1083 0466 1A000000 		.4byte	.LVL4
ARM GAS  C:\Users\ADMINI~1\AppData\Local\Temp\ccA7kAh4.s 			page 20


 1084 046a 66080000 		.4byte	0x866
 1085 046e 79040000 		.4byte	0x479
 1086 0472 1B       		.uleb128 0x1b
 1087 0473 01       		.uleb128 0x1
 1088 0474 50       		.byte	0x50
 1089 0475 02       		.uleb128 0x2
 1090 0476 91       		.byte	0x91
 1091 0477 40       		.sleb128 -64
 1092 0478 00       		.byte	0
 1093 0479 1A       		.uleb128 0x1a
 1094 047a 3C000000 		.4byte	.LVL5
 1095 047e 7E080000 		.4byte	0x87e
 1096 0482 8E040000 		.4byte	0x48e
 1097 0486 1B       		.uleb128 0x1b
 1098 0487 01       		.uleb128 0x1
 1099 0488 50       		.byte	0x50
 1100 0489 03       		.uleb128 0x3
 1101 048a 91       		.byte	0x91
 1102 048b B87F     		.sleb128 -72
 1103 048d 00       		.byte	0
 1104 048e 1A       		.uleb128 0x1a
 1105 048f 66000000 		.4byte	.LVL22
 1106 0493 96080000 		.4byte	0x896
 1107 0497 A2040000 		.4byte	0x4a2
 1108 049b 1B       		.uleb128 0x1b
 1109 049c 01       		.uleb128 0x1
 1110 049d 50       		.byte	0x50
 1111 049e 02       		.uleb128 0x2
 1112 049f 91       		.byte	0x91
 1113 04a0 40       		.sleb128 -64
 1114 04a1 00       		.byte	0
 1115 04a2 1C       		.uleb128 0x1c
 1116 04a3 6A000000 		.4byte	.LVL23
 1117 04a7 A8080000 		.4byte	0x8a8
 1118 04ab 1A       		.uleb128 0x1a
 1119 04ac 70000000 		.4byte	.LVL24
 1120 04b0 B0080000 		.4byte	0x8b0
 1121 04b4 BE040000 		.4byte	0x4be
 1122 04b8 1B       		.uleb128 0x1b
 1123 04b9 01       		.uleb128 0x1
 1124 04ba 50       		.byte	0x50
 1125 04bb 01       		.uleb128 0x1
 1126 04bc 31       		.byte	0x31
 1127 04bd 00       		.byte	0
 1128 04be 1C       		.uleb128 0x1c
 1129 04bf 84000000 		.4byte	.LVL28
 1130 04c3 C2080000 		.4byte	0x8c2
 1131 04c7 1C       		.uleb128 0x1c
 1132 04c8 8C000000 		.4byte	.LVL29
 1133 04cc C2080000 		.4byte	0x8c2
 1134 04d0 1A       		.uleb128 0x1a
 1135 04d1 98000000 		.4byte	.LVL32
 1136 04d5 D4080000 		.4byte	0x8d4
 1137 04d9 E3040000 		.4byte	0x4e3
 1138 04dd 1B       		.uleb128 0x1b
 1139 04de 01       		.uleb128 0x1
 1140 04df 50       		.byte	0x50
ARM GAS  C:\Users\ADMINI~1\AppData\Local\Temp\ccA7kAh4.s 			page 21


 1141 04e0 01       		.uleb128 0x1
 1142 04e1 40       		.byte	0x40
 1143 04e2 00       		.byte	0
 1144 04e3 1A       		.uleb128 0x1a
 1145 04e4 B0000000 		.4byte	.LVL34
 1146 04e8 B0080000 		.4byte	0x8b0
 1147 04ec F6040000 		.4byte	0x4f6
 1148 04f0 1B       		.uleb128 0x1b
 1149 04f1 01       		.uleb128 0x1
 1150 04f2 50       		.byte	0x50
 1151 04f3 01       		.uleb128 0x1
 1152 04f4 30       		.byte	0x30
 1153 04f5 00       		.byte	0
 1154 04f6 1C       		.uleb128 0x1c
 1155 04f7 BC000000 		.4byte	.LVL36
 1156 04fb EA080000 		.4byte	0x8ea
 1157 04ff 1C       		.uleb128 0x1c
 1158 0500 C4000000 		.4byte	.LVL38
 1159 0504 EA080000 		.4byte	0x8ea
 1160 0508 00       		.byte	0
 1161 0509 1D       		.uleb128 0x1d
 1162 050a 04       		.byte	0x4
 1163 050b 97000000 		.4byte	0x97
 1164 050f 0F       		.uleb128 0xf
 1165 0510 D0040000 		.4byte	.LASF58
 1166 0514 01       		.byte	0x1
 1167 0515 CC       		.byte	0xcc
 1168 0516 2E010000 		.4byte	0x12e
 1169 051a 00000000 		.4byte	.LFB112
 1170 051e FE000000 		.4byte	.LFE112-.LFB112
 1171 0522 01       		.uleb128 0x1
 1172 0523 9C       		.byte	0x9c
 1173 0524 5A080000 		.4byte	0x85a
 1174 0528 10       		.uleb128 0x10
 1175 0529 AA040000 		.4byte	.LASF45
 1176 052d 01       		.byte	0x1
 1177 052e CC       		.byte	0xcc
 1178 052f 97000000 		.4byte	0x97
 1179 0533 BD030000 		.4byte	.LLST22
 1180 0537 11       		.uleb128 0x11
 1181 0538 4B657900 		.ascii	"Key\000"
 1182 053c 01       		.byte	0x1
 1183 053d CC       		.byte	0xcc
 1184 053e 09050000 		.4byte	0x509
 1185 0542 DE030000 		.4byte	.LLST23
 1186 0546 10       		.uleb128 0x10
 1187 0547 FE000000 		.4byte	.LASF59
 1188 054b 01       		.byte	0x1
 1189 054c CC       		.byte	0xcc
 1190 054d 09050000 		.4byte	0x509
 1191 0551 0A040000 		.4byte	.LLST24
 1192 0555 10       		.uleb128 0x10
 1193 0556 AF040000 		.4byte	.LASF46
 1194 055a 01       		.byte	0x1
 1195 055b CD       		.byte	0xcd
 1196 055c 09050000 		.4byte	0x509
 1197 0560 36040000 		.4byte	.LLST25
ARM GAS  C:\Users\ADMINI~1\AppData\Local\Temp\ccA7kAh4.s 			page 22


 1198 0564 10       		.uleb128 0x10
 1199 0565 3B010000 		.4byte	.LASF47
 1200 0569 01       		.byte	0x1
 1201 056a CD       		.byte	0xcd
 1202 056b B8000000 		.4byte	0xb8
 1203 056f 6F040000 		.4byte	.LLST26
 1204 0573 10       		.uleb128 0x10
 1205 0574 49000000 		.4byte	.LASF48
 1206 0578 01       		.byte	0x1
 1207 0579 CD       		.byte	0xcd
 1208 057a 09050000 		.4byte	0x509
 1209 057e 8F040000 		.4byte	.LLST27
 1210 0582 12       		.uleb128 0x12
 1211 0583 31000000 		.4byte	.LASF49
 1212 0587 01       		.byte	0x1
 1213 0588 CF       		.byte	0xcf
 1214 0589 73010000 		.4byte	0x173
 1215 058d 03       		.uleb128 0x3
 1216 058e 91       		.byte	0x91
 1217 058f A87F     		.sleb128 -88
 1218 0591 12       		.uleb128 0x12
 1219 0592 DC000000 		.4byte	.LASF50
 1220 0596 01       		.byte	0x1
 1221 0597 D0       		.byte	0xd0
 1222 0598 E7010000 		.4byte	0x1e7
 1223 059c 02       		.uleb128 0x2
 1224 059d 91       		.byte	0x91
 1225 059e 40       		.sleb128 -64
 1226 059f 12       		.uleb128 0x12
 1227 05a0 BF010000 		.4byte	.LASF60
 1228 05a4 01       		.byte	0x1
 1229 05a5 D1       		.byte	0xd1
 1230 05a6 2B020000 		.4byte	0x22b
 1231 05aa 03       		.uleb128 0x3
 1232 05ab 91       		.byte	0x91
 1233 05ac B07F     		.sleb128 -80
 1234 05ae 12       		.uleb128 0x12
 1235 05af 16020000 		.4byte	.LASF51
 1236 05b3 01       		.byte	0x1
 1237 05b4 D2       		.byte	0xd2
 1238 05b5 CA000000 		.4byte	0xca
 1239 05b9 03       		.uleb128 0x3
 1240 05ba 91       		.byte	0x91
 1241 05bb A47F     		.sleb128 -92
 1242 05bd 13       		.uleb128 0x13
 1243 05be 63040000 		.4byte	.LASF52
 1244 05c2 01       		.byte	0x1
 1245 05c3 D3       		.byte	0xd3
 1246 05c4 B8000000 		.4byte	0xb8
 1247 05c8 AF040000 		.4byte	.LLST28
 1248 05cc 14       		.uleb128 0x14
 1249 05cd E3030000 		.4byte	.LASF53
 1250 05d1 01       		.byte	0x1
 1251 05d2 D4       		.byte	0xd4
 1252 05d3 2E010000 		.4byte	0x12e
 1253 05d7 01       		.byte	0x1
 1254 05d8 13       		.uleb128 0x13
ARM GAS  C:\Users\ADMINI~1\AppData\Local\Temp\ccA7kAh4.s 			page 23


 1255 05d9 71010000 		.4byte	.LASF54
 1256 05dd 01       		.byte	0x1
 1257 05de D5       		.byte	0xd5
 1258 05df B8000000 		.4byte	0xb8
 1259 05e3 E4040000 		.4byte	.LLST29
 1260 05e7 13       		.uleb128 0x13
 1261 05e8 1A000000 		.4byte	.LASF55
 1262 05ec 01       		.byte	0x1
 1263 05ed D6       		.byte	0xd6
 1264 05ee B8000000 		.4byte	0xb8
 1265 05f2 53050000 		.4byte	.LLST30
 1266 05f6 13       		.uleb128 0x13
 1267 05f7 2A010000 		.4byte	.LASF56
 1268 05fb 01       		.byte	0x1
 1269 05fc D7       		.byte	0xd7
 1270 05fd B8000000 		.4byte	0xb8
 1271 0601 D9050000 		.4byte	.LLST31
 1272 0605 13       		.uleb128 0x13
 1273 0606 F7000000 		.4byte	.LASF61
 1274 060a 01       		.byte	0x1
 1275 060b D8       		.byte	0xd8
 1276 060c B8000000 		.4byte	0xb8
 1277 0610 35060000 		.4byte	.LLST32
 1278 0614 15       		.uleb128 0x15
 1279 0615 6900     		.ascii	"i\000"
 1280 0617 01       		.byte	0x1
 1281 0618 D9       		.byte	0xd9
 1282 0619 B8000000 		.4byte	0xb8
 1283 061d 70060000 		.4byte	.LLST33
 1284 0621 16       		.uleb128 0x16
 1285 0622 36020000 		.4byte	0x236
 1286 0626 48000000 		.4byte	.LBB42
 1287 062a 04000000 		.4byte	.LBE42-.LBB42
 1288 062e 01       		.byte	0x1
 1289 062f ED       		.byte	0xed
 1290 0630 51060000 		.4byte	0x651
 1291 0634 17       		.uleb128 0x17
 1292 0635 47020000 		.4byte	0x247
 1293 0639 B2060000 		.4byte	.LLST34
 1294 063d 18       		.uleb128 0x18
 1295 063e 48000000 		.4byte	.LBB43
 1296 0642 04000000 		.4byte	.LBE43-.LBB43
 1297 0646 19       		.uleb128 0x19
 1298 0647 53020000 		.4byte	0x253
 1299 064b C6060000 		.4byte	.LLST35
 1300 064f 00       		.byte	0
 1301 0650 00       		.byte	0
 1302 0651 16       		.uleb128 0x16
 1303 0652 36020000 		.4byte	0x236
 1304 0656 4E000000 		.4byte	.LBB44
 1305 065a 04000000 		.4byte	.LBE44-.LBB44
 1306 065e 01       		.byte	0x1
 1307 065f EF       		.byte	0xef
 1308 0660 81060000 		.4byte	0x681
 1309 0664 17       		.uleb128 0x17
 1310 0665 47020000 		.4byte	0x247
 1311 0669 E5060000 		.4byte	.LLST36
ARM GAS  C:\Users\ADMINI~1\AppData\Local\Temp\ccA7kAh4.s 			page 24


 1312 066d 18       		.uleb128 0x18
 1313 066e 4E000000 		.4byte	.LBB45
 1314 0672 04000000 		.4byte	.LBE45-.LBB45
 1315 0676 19       		.uleb128 0x19
 1316 0677 53020000 		.4byte	0x253
 1317 067b F9060000 		.4byte	.LLST37
 1318 067f 00       		.byte	0
 1319 0680 00       		.byte	0
 1320 0681 16       		.uleb128 0x16
 1321 0682 36020000 		.4byte	0x236
 1322 0686 54000000 		.4byte	.LBB46
 1323 068a 04000000 		.4byte	.LBE46-.LBB46
 1324 068e 01       		.byte	0x1
 1325 068f F1       		.byte	0xf1
 1326 0690 B1060000 		.4byte	0x6b1
 1327 0694 17       		.uleb128 0x17
 1328 0695 47020000 		.4byte	0x247
 1329 0699 18070000 		.4byte	.LLST38
 1330 069d 18       		.uleb128 0x18
 1331 069e 54000000 		.4byte	.LBB47
 1332 06a2 04000000 		.4byte	.LBE47-.LBB47
 1333 06a6 19       		.uleb128 0x19
 1334 06a7 53020000 		.4byte	0x253
 1335 06ab 2C070000 		.4byte	.LLST39
 1336 06af 00       		.byte	0
 1337 06b0 00       		.byte	0
 1338 06b1 16       		.uleb128 0x16
 1339 06b2 36020000 		.4byte	0x236
 1340 06b6 5A000000 		.4byte	.LBB48
 1341 06ba 04000000 		.4byte	.LBE48-.LBB48
 1342 06be 01       		.byte	0x1
 1343 06bf F3       		.byte	0xf3
 1344 06c0 E1060000 		.4byte	0x6e1
 1345 06c4 17       		.uleb128 0x17
 1346 06c5 47020000 		.4byte	0x247
 1347 06c9 4B070000 		.4byte	.LLST40
 1348 06cd 18       		.uleb128 0x18
 1349 06ce 5A000000 		.4byte	.LBB49
 1350 06d2 04000000 		.4byte	.LBE49-.LBB49
 1351 06d6 19       		.uleb128 0x19
 1352 06d7 53020000 		.4byte	0x253
 1353 06db 5F070000 		.4byte	.LLST41
 1354 06df 00       		.byte	0
 1355 06e0 00       		.byte	0
 1356 06e1 16       		.uleb128 0x16
 1357 06e2 36020000 		.4byte	0x236
 1358 06e6 60000000 		.4byte	.LBB50
 1359 06ea 04000000 		.4byte	.LBE50-.LBB50
 1360 06ee 01       		.byte	0x1
 1361 06ef F5       		.byte	0xf5
 1362 06f0 11070000 		.4byte	0x711
 1363 06f4 17       		.uleb128 0x17
 1364 06f5 47020000 		.4byte	0x247
 1365 06f9 7E070000 		.4byte	.LLST42
 1366 06fd 18       		.uleb128 0x18
 1367 06fe 60000000 		.4byte	.LBB51
 1368 0702 04000000 		.4byte	.LBE51-.LBB51
ARM GAS  C:\Users\ADMINI~1\AppData\Local\Temp\ccA7kAh4.s 			page 25


 1369 0706 19       		.uleb128 0x19
 1370 0707 53020000 		.4byte	0x253
 1371 070b 92070000 		.4byte	.LLST43
 1372 070f 00       		.byte	0
 1373 0710 00       		.byte	0
 1374 0711 16       		.uleb128 0x16
 1375 0712 36020000 		.4byte	0x236
 1376 0716 66000000 		.4byte	.LBB52
 1377 071a 04000000 		.4byte	.LBE52-.LBB52
 1378 071e 01       		.byte	0x1
 1379 071f F7       		.byte	0xf7
 1380 0720 41070000 		.4byte	0x741
 1381 0724 17       		.uleb128 0x17
 1382 0725 47020000 		.4byte	0x247
 1383 0729 B1070000 		.4byte	.LLST44
 1384 072d 18       		.uleb128 0x18
 1385 072e 66000000 		.4byte	.LBB53
 1386 0732 04000000 		.4byte	.LBE53-.LBB53
 1387 0736 19       		.uleb128 0x19
 1388 0737 53020000 		.4byte	0x253
 1389 073b C5070000 		.4byte	.LLST45
 1390 073f 00       		.byte	0
 1391 0740 00       		.byte	0
 1392 0741 16       		.uleb128 0x16
 1393 0742 36020000 		.4byte	0x236
 1394 0746 72000000 		.4byte	.LBB54
 1395 074a 04000000 		.4byte	.LBE54-.LBB54
 1396 074e 01       		.byte	0x1
 1397 074f FB       		.byte	0xfb
 1398 0750 71070000 		.4byte	0x771
 1399 0754 17       		.uleb128 0x17
 1400 0755 47020000 		.4byte	0x247
 1401 0759 D8070000 		.4byte	.LLST46
 1402 075d 18       		.uleb128 0x18
 1403 075e 72000000 		.4byte	.LBB55
 1404 0762 04000000 		.4byte	.LBE55-.LBB55
 1405 0766 19       		.uleb128 0x19
 1406 0767 53020000 		.4byte	0x253
 1407 076b EC070000 		.4byte	.LLST47
 1408 076f 00       		.byte	0
 1409 0770 00       		.byte	0
 1410 0771 16       		.uleb128 0x16
 1411 0772 36020000 		.4byte	0x236
 1412 0776 78000000 		.4byte	.LBB56
 1413 077a 04000000 		.4byte	.LBE56-.LBB56
 1414 077e 01       		.byte	0x1
 1415 077f FD       		.byte	0xfd
 1416 0780 A1070000 		.4byte	0x7a1
 1417 0784 17       		.uleb128 0x17
 1418 0785 47020000 		.4byte	0x247
 1419 0789 18080000 		.4byte	.LLST48
 1420 078d 18       		.uleb128 0x18
 1421 078e 78000000 		.4byte	.LBB57
 1422 0792 04000000 		.4byte	.LBE57-.LBB57
 1423 0796 19       		.uleb128 0x19
 1424 0797 53020000 		.4byte	0x253
 1425 079b 2C080000 		.4byte	.LLST49
ARM GAS  C:\Users\ADMINI~1\AppData\Local\Temp\ccA7kAh4.s 			page 26


 1426 079f 00       		.byte	0
 1427 07a0 00       		.byte	0
 1428 07a1 1A       		.uleb128 0x1a
 1429 07a2 1C000000 		.4byte	.LVL45
 1430 07a6 66080000 		.4byte	0x866
 1431 07aa B5070000 		.4byte	0x7b5
 1432 07ae 1B       		.uleb128 0x1b
 1433 07af 01       		.uleb128 0x1
 1434 07b0 50       		.byte	0x50
 1435 07b1 02       		.uleb128 0x2
 1436 07b2 91       		.byte	0x91
 1437 07b3 40       		.sleb128 -64
 1438 07b4 00       		.byte	0
 1439 07b5 1A       		.uleb128 0x1a
 1440 07b6 48000000 		.4byte	.LVL46
 1441 07ba 7E080000 		.4byte	0x87e
 1442 07be CA070000 		.4byte	0x7ca
 1443 07c2 1B       		.uleb128 0x1b
 1444 07c3 01       		.uleb128 0x1
 1445 07c4 50       		.byte	0x50
 1446 07c5 03       		.uleb128 0x3
 1447 07c6 91       		.byte	0x91
 1448 07c7 A87F     		.sleb128 -88
 1449 07c9 00       		.byte	0
 1450 07ca 1A       		.uleb128 0x1a
 1451 07cb 72000000 		.4byte	.LVL63
 1452 07cf 96080000 		.4byte	0x896
 1453 07d3 DE070000 		.4byte	0x7de
 1454 07d7 1B       		.uleb128 0x1b
 1455 07d8 01       		.uleb128 0x1
 1456 07d9 50       		.byte	0x50
 1457 07da 02       		.uleb128 0x2
 1458 07db 91       		.byte	0x91
 1459 07dc 40       		.sleb128 -64
 1460 07dd 00       		.byte	0
 1461 07de 1A       		.uleb128 0x1a
 1462 07df 84000000 		.4byte	.LVL69
 1463 07e3 F6080000 		.4byte	0x8f6
 1464 07e7 F3070000 		.4byte	0x7f3
 1465 07eb 1B       		.uleb128 0x1b
 1466 07ec 01       		.uleb128 0x1
 1467 07ed 50       		.byte	0x50
 1468 07ee 03       		.uleb128 0x3
 1469 07ef 91       		.byte	0x91
 1470 07f0 B07F     		.sleb128 -80
 1471 07f2 00       		.byte	0
 1472 07f3 1C       		.uleb128 0x1c
 1473 07f4 88000000 		.4byte	.LVL70
 1474 07f8 A8080000 		.4byte	0x8a8
 1475 07fc 1A       		.uleb128 0x1a
 1476 07fd 8E000000 		.4byte	.LVL71
 1477 0801 B0080000 		.4byte	0x8b0
 1478 0805 0F080000 		.4byte	0x80f
 1479 0809 1B       		.uleb128 0x1b
 1480 080a 01       		.uleb128 0x1
 1481 080b 50       		.byte	0x50
 1482 080c 01       		.uleb128 0x1
ARM GAS  C:\Users\ADMINI~1\AppData\Local\Temp\ccA7kAh4.s 			page 27


 1483 080d 31       		.byte	0x31
 1484 080e 00       		.byte	0
 1485 080f 1C       		.uleb128 0x1c
 1486 0810 A8000000 		.4byte	.LVL75
 1487 0814 C2080000 		.4byte	0x8c2
 1488 0818 1C       		.uleb128 0x1c
 1489 0819 B0000000 		.4byte	.LVL76
 1490 081d C2080000 		.4byte	0x8c2
 1491 0821 1A       		.uleb128 0x1a
 1492 0822 BC000000 		.4byte	.LVL79
 1493 0826 D4080000 		.4byte	0x8d4
 1494 082a 34080000 		.4byte	0x834
 1495 082e 1B       		.uleb128 0x1b
 1496 082f 01       		.uleb128 0x1
 1497 0830 50       		.byte	0x50
 1498 0831 01       		.uleb128 0x1
 1499 0832 40       		.byte	0x40
 1500 0833 00       		.byte	0
 1501 0834 1A       		.uleb128 0x1a
 1502 0835 D4000000 		.4byte	.LVL81
 1503 0839 B0080000 		.4byte	0x8b0
 1504 083d 47080000 		.4byte	0x847
 1505 0841 1B       		.uleb128 0x1b
 1506 0842 01       		.uleb128 0x1
 1507 0843 50       		.byte	0x50
 1508 0844 01       		.uleb128 0x1
 1509 0845 30       		.byte	0x30
 1510 0846 00       		.byte	0
 1511 0847 1C       		.uleb128 0x1c
 1512 0848 E0000000 		.4byte	.LVL83
 1513 084c EA080000 		.4byte	0x8ea
 1514 0850 1C       		.uleb128 0x1c
 1515 0851 E8000000 		.4byte	.LVL85
 1516 0855 EA080000 		.4byte	0x8ea
 1517 0859 00       		.byte	0
 1518 085a 1E       		.uleb128 0x1e
 1519 085b C3040000 		.4byte	.LASF74
 1520 085f 07       		.byte	0x7
 1521 0860 9806     		.2byte	0x698
 1522 0862 CF000000 		.4byte	0xcf
 1523 0866 1F       		.uleb128 0x1f
 1524 0867 43010000 		.4byte	.LASF62
 1525 086b 06       		.byte	0x6
 1526 086c 0901     		.2byte	0x109
 1527 086e 78080000 		.4byte	0x878
 1528 0872 20       		.uleb128 0x20
 1529 0873 78080000 		.4byte	0x878
 1530 0877 00       		.byte	0
 1531 0878 1D       		.uleb128 0x1d
 1532 0879 04       		.byte	0x4
 1533 087a E7010000 		.4byte	0x1e7
 1534 087e 1F       		.uleb128 0x1f
 1535 087f DE040000 		.4byte	.LASF63
 1536 0883 06       		.byte	0x6
 1537 0884 0601     		.2byte	0x106
 1538 0886 90080000 		.4byte	0x890
 1539 088a 20       		.uleb128 0x20
ARM GAS  C:\Users\ADMINI~1\AppData\Local\Temp\ccA7kAh4.s 			page 28


 1540 088b 90080000 		.4byte	0x890
 1541 088f 00       		.byte	0
 1542 0890 1D       		.uleb128 0x1d
 1543 0891 04       		.byte	0x4
 1544 0892 73010000 		.4byte	0x173
 1545 0896 1F       		.uleb128 0x1f
 1546 0897 24000000 		.4byte	.LASF64
 1547 089b 06       		.byte	0x6
 1548 089c 0801     		.2byte	0x108
 1549 089e A8080000 		.4byte	0x8a8
 1550 08a2 20       		.uleb128 0x20
 1551 08a3 78080000 		.4byte	0x878
 1552 08a7 00       		.byte	0
 1553 08a8 21       		.uleb128 0x21
 1554 08a9 9B040000 		.4byte	.LASF75
 1555 08ad 06       		.byte	0x6
 1556 08ae 1101     		.2byte	0x111
 1557 08b0 1F       		.uleb128 0x1f
 1558 08b1 83010000 		.4byte	.LASF65
 1559 08b5 06       		.byte	0x6
 1560 08b6 0C01     		.2byte	0x10c
 1561 08b8 C2080000 		.4byte	0x8c2
 1562 08bc 20       		.uleb128 0x20
 1563 08bd 0C010000 		.4byte	0x10c
 1564 08c1 00       		.byte	0
 1565 08c2 1F       		.uleb128 0x1f
 1566 08c3 F8030000 		.4byte	.LASF66
 1567 08c7 06       		.byte	0x6
 1568 08c8 0F01     		.2byte	0x10f
 1569 08ca D4080000 		.4byte	0x8d4
 1570 08ce 20       		.uleb128 0x20
 1571 08cf B8000000 		.4byte	0xb8
 1572 08d3 00       		.byte	0
 1573 08d4 22       		.uleb128 0x22
 1574 08d5 56010000 		.4byte	.LASF76
 1575 08d9 06       		.byte	0x6
 1576 08da 1E01     		.2byte	0x11e
 1577 08dc EA000000 		.4byte	0xea
 1578 08e0 EA080000 		.4byte	0x8ea
 1579 08e4 20       		.uleb128 0x20
 1580 08e5 97000000 		.4byte	0x97
 1581 08e9 00       		.byte	0
 1582 08ea 23       		.uleb128 0x23
 1583 08eb 72030000 		.4byte	.LASF77
 1584 08ef 06       		.byte	0x6
 1585 08f0 1001     		.2byte	0x110
 1586 08f2 B8000000 		.4byte	0xb8
 1587 08f6 1F       		.uleb128 0x1f
 1588 08f7 1B040000 		.4byte	.LASF67
 1589 08fb 06       		.byte	0x6
 1590 08fc 0A01     		.2byte	0x10a
 1591 08fe 08090000 		.4byte	0x908
 1592 0902 20       		.uleb128 0x20
 1593 0903 08090000 		.4byte	0x908
 1594 0907 00       		.byte	0
 1595 0908 1D       		.uleb128 0x1d
 1596 0909 04       		.byte	0x4
ARM GAS  C:\Users\ADMINI~1\AppData\Local\Temp\ccA7kAh4.s 			page 29


 1597 090a 2B020000 		.4byte	0x22b
 1598 090e 00       		.byte	0
 1599              		.section	.debug_abbrev,"",%progbits
 1600              	.Ldebug_abbrev0:
 1601 0000 01       		.uleb128 0x1
 1602 0001 11       		.uleb128 0x11
 1603 0002 01       		.byte	0x1
 1604 0003 25       		.uleb128 0x25
 1605 0004 0E       		.uleb128 0xe
 1606 0005 13       		.uleb128 0x13
 1607 0006 0B       		.uleb128 0xb
 1608 0007 03       		.uleb128 0x3
 1609 0008 0E       		.uleb128 0xe
 1610 0009 1B       		.uleb128 0x1b
 1611 000a 0E       		.uleb128 0xe
 1612 000b 55       		.uleb128 0x55
 1613 000c 17       		.uleb128 0x17
 1614 000d 11       		.uleb128 0x11
 1615 000e 01       		.uleb128 0x1
 1616 000f 10       		.uleb128 0x10
 1617 0010 17       		.uleb128 0x17
 1618 0011 00       		.byte	0
 1619 0012 00       		.byte	0
 1620 0013 02       		.uleb128 0x2
 1621 0014 24       		.uleb128 0x24
 1622 0015 00       		.byte	0
 1623 0016 0B       		.uleb128 0xb
 1624 0017 0B       		.uleb128 0xb
 1625 0018 3E       		.uleb128 0x3e
 1626 0019 0B       		.uleb128 0xb
 1627 001a 03       		.uleb128 0x3
 1628 001b 0E       		.uleb128 0xe
 1629 001c 00       		.byte	0
 1630 001d 00       		.byte	0
 1631 001e 03       		.uleb128 0x3
 1632 001f 16       		.uleb128 0x16
 1633 0020 00       		.byte	0
 1634 0021 03       		.uleb128 0x3
 1635 0022 0E       		.uleb128 0xe
 1636 0023 3A       		.uleb128 0x3a
 1637 0024 0B       		.uleb128 0xb
 1638 0025 3B       		.uleb128 0x3b
 1639 0026 0B       		.uleb128 0xb
 1640 0027 49       		.uleb128 0x49
 1641 0028 13       		.uleb128 0x13
 1642 0029 00       		.byte	0
 1643 002a 00       		.byte	0
 1644 002b 04       		.uleb128 0x4
 1645 002c 24       		.uleb128 0x24
 1646 002d 00       		.byte	0
 1647 002e 0B       		.uleb128 0xb
 1648 002f 0B       		.uleb128 0xb
 1649 0030 3E       		.uleb128 0x3e
 1650 0031 0B       		.uleb128 0xb
 1651 0032 03       		.uleb128 0x3
 1652 0033 08       		.uleb128 0x8
 1653 0034 00       		.byte	0
ARM GAS  C:\Users\ADMINI~1\AppData\Local\Temp\ccA7kAh4.s 			page 30


 1654 0035 00       		.byte	0
 1655 0036 05       		.uleb128 0x5
 1656 0037 35       		.uleb128 0x35
 1657 0038 00       		.byte	0
 1658 0039 49       		.uleb128 0x49
 1659 003a 13       		.uleb128 0x13
 1660 003b 00       		.byte	0
 1661 003c 00       		.byte	0
 1662 003d 06       		.uleb128 0x6
 1663 003e 04       		.uleb128 0x4
 1664 003f 01       		.byte	0x1
 1665 0040 0B       		.uleb128 0xb
 1666 0041 0B       		.uleb128 0xb
 1667 0042 3A       		.uleb128 0x3a
 1668 0043 0B       		.uleb128 0xb
 1669 0044 3B       		.uleb128 0x3b
 1670 0045 05       		.uleb128 0x5
 1671 0046 01       		.uleb128 0x1
 1672 0047 13       		.uleb128 0x13
 1673 0048 00       		.byte	0
 1674 0049 00       		.byte	0
 1675 004a 07       		.uleb128 0x7
 1676 004b 28       		.uleb128 0x28
 1677 004c 00       		.byte	0
 1678 004d 03       		.uleb128 0x3
 1679 004e 0E       		.uleb128 0xe
 1680 004f 1C       		.uleb128 0x1c
 1681 0050 0D       		.uleb128 0xd
 1682 0051 00       		.byte	0
 1683 0052 00       		.byte	0
 1684 0053 08       		.uleb128 0x8
 1685 0054 28       		.uleb128 0x28
 1686 0055 00       		.byte	0
 1687 0056 03       		.uleb128 0x3
 1688 0057 08       		.uleb128 0x8
 1689 0058 1C       		.uleb128 0x1c
 1690 0059 0D       		.uleb128 0xd
 1691 005a 00       		.byte	0
 1692 005b 00       		.byte	0
 1693 005c 09       		.uleb128 0x9
 1694 005d 16       		.uleb128 0x16
 1695 005e 00       		.byte	0
 1696 005f 03       		.uleb128 0x3
 1697 0060 0E       		.uleb128 0xe
 1698 0061 3A       		.uleb128 0x3a
 1699 0062 0B       		.uleb128 0xb
 1700 0063 3B       		.uleb128 0x3b
 1701 0064 05       		.uleb128 0x5
 1702 0065 49       		.uleb128 0x49
 1703 0066 13       		.uleb128 0x13
 1704 0067 00       		.byte	0
 1705 0068 00       		.byte	0
 1706 0069 0A       		.uleb128 0xa
 1707 006a 13       		.uleb128 0x13
 1708 006b 01       		.byte	0x1
 1709 006c 0B       		.uleb128 0xb
 1710 006d 0B       		.uleb128 0xb
ARM GAS  C:\Users\ADMINI~1\AppData\Local\Temp\ccA7kAh4.s 			page 31


 1711 006e 3A       		.uleb128 0x3a
 1712 006f 0B       		.uleb128 0xb
 1713 0070 3B       		.uleb128 0x3b
 1714 0071 0B       		.uleb128 0xb
 1715 0072 01       		.uleb128 0x1
 1716 0073 13       		.uleb128 0x13
 1717 0074 00       		.byte	0
 1718 0075 00       		.byte	0
 1719 0076 0B       		.uleb128 0xb
 1720 0077 0D       		.uleb128 0xd
 1721 0078 00       		.byte	0
 1722 0079 03       		.uleb128 0x3
 1723 007a 0E       		.uleb128 0xe
 1724 007b 3A       		.uleb128 0x3a
 1725 007c 0B       		.uleb128 0xb
 1726 007d 3B       		.uleb128 0x3b
 1727 007e 0B       		.uleb128 0xb
 1728 007f 49       		.uleb128 0x49
 1729 0080 13       		.uleb128 0x13
 1730 0081 38       		.uleb128 0x38
 1731 0082 0B       		.uleb128 0xb
 1732 0083 00       		.byte	0
 1733 0084 00       		.byte	0
 1734 0085 0C       		.uleb128 0xc
 1735 0086 2E       		.uleb128 0x2e
 1736 0087 01       		.byte	0x1
 1737 0088 03       		.uleb128 0x3
 1738 0089 0E       		.uleb128 0xe
 1739 008a 3A       		.uleb128 0x3a
 1740 008b 0B       		.uleb128 0xb
 1741 008c 3B       		.uleb128 0x3b
 1742 008d 05       		.uleb128 0x5
 1743 008e 27       		.uleb128 0x27
 1744 008f 19       		.uleb128 0x19
 1745 0090 49       		.uleb128 0x49
 1746 0091 13       		.uleb128 0x13
 1747 0092 20       		.uleb128 0x20
 1748 0093 0B       		.uleb128 0xb
 1749 0094 01       		.uleb128 0x1
 1750 0095 13       		.uleb128 0x13
 1751 0096 00       		.byte	0
 1752 0097 00       		.byte	0
 1753 0098 0D       		.uleb128 0xd
 1754 0099 05       		.uleb128 0x5
 1755 009a 00       		.byte	0
 1756 009b 03       		.uleb128 0x3
 1757 009c 0E       		.uleb128 0xe
 1758 009d 3A       		.uleb128 0x3a
 1759 009e 0B       		.uleb128 0xb
 1760 009f 3B       		.uleb128 0x3b
 1761 00a0 05       		.uleb128 0x5
 1762 00a1 49       		.uleb128 0x49
 1763 00a2 13       		.uleb128 0x13
 1764 00a3 00       		.byte	0
 1765 00a4 00       		.byte	0
 1766 00a5 0E       		.uleb128 0xe
 1767 00a6 34       		.uleb128 0x34
ARM GAS  C:\Users\ADMINI~1\AppData\Local\Temp\ccA7kAh4.s 			page 32


 1768 00a7 00       		.byte	0
 1769 00a8 03       		.uleb128 0x3
 1770 00a9 0E       		.uleb128 0xe
 1771 00aa 3A       		.uleb128 0x3a
 1772 00ab 0B       		.uleb128 0xb
 1773 00ac 3B       		.uleb128 0x3b
 1774 00ad 05       		.uleb128 0x5
 1775 00ae 49       		.uleb128 0x49
 1776 00af 13       		.uleb128 0x13
 1777 00b0 00       		.byte	0
 1778 00b1 00       		.byte	0
 1779 00b2 0F       		.uleb128 0xf
 1780 00b3 2E       		.uleb128 0x2e
 1781 00b4 01       		.byte	0x1
 1782 00b5 3F       		.uleb128 0x3f
 1783 00b6 19       		.uleb128 0x19
 1784 00b7 03       		.uleb128 0x3
 1785 00b8 0E       		.uleb128 0xe
 1786 00b9 3A       		.uleb128 0x3a
 1787 00ba 0B       		.uleb128 0xb
 1788 00bb 3B       		.uleb128 0x3b
 1789 00bc 0B       		.uleb128 0xb
 1790 00bd 27       		.uleb128 0x27
 1791 00be 19       		.uleb128 0x19
 1792 00bf 49       		.uleb128 0x49
 1793 00c0 13       		.uleb128 0x13
 1794 00c1 11       		.uleb128 0x11
 1795 00c2 01       		.uleb128 0x1
 1796 00c3 12       		.uleb128 0x12
 1797 00c4 06       		.uleb128 0x6
 1798 00c5 40       		.uleb128 0x40
 1799 00c6 18       		.uleb128 0x18
 1800 00c7 9742     		.uleb128 0x2117
 1801 00c9 19       		.uleb128 0x19
 1802 00ca 01       		.uleb128 0x1
 1803 00cb 13       		.uleb128 0x13
 1804 00cc 00       		.byte	0
 1805 00cd 00       		.byte	0
 1806 00ce 10       		.uleb128 0x10
 1807 00cf 05       		.uleb128 0x5
 1808 00d0 00       		.byte	0
 1809 00d1 03       		.uleb128 0x3
 1810 00d2 0E       		.uleb128 0xe
 1811 00d3 3A       		.uleb128 0x3a
 1812 00d4 0B       		.uleb128 0xb
 1813 00d5 3B       		.uleb128 0x3b
 1814 00d6 0B       		.uleb128 0xb
 1815 00d7 49       		.uleb128 0x49
 1816 00d8 13       		.uleb128 0x13
 1817 00d9 02       		.uleb128 0x2
 1818 00da 17       		.uleb128 0x17
 1819 00db 00       		.byte	0
 1820 00dc 00       		.byte	0
 1821 00dd 11       		.uleb128 0x11
 1822 00de 05       		.uleb128 0x5
 1823 00df 00       		.byte	0
 1824 00e0 03       		.uleb128 0x3
ARM GAS  C:\Users\ADMINI~1\AppData\Local\Temp\ccA7kAh4.s 			page 33


 1825 00e1 08       		.uleb128 0x8
 1826 00e2 3A       		.uleb128 0x3a
 1827 00e3 0B       		.uleb128 0xb
 1828 00e4 3B       		.uleb128 0x3b
 1829 00e5 0B       		.uleb128 0xb
 1830 00e6 49       		.uleb128 0x49
 1831 00e7 13       		.uleb128 0x13
 1832 00e8 02       		.uleb128 0x2
 1833 00e9 17       		.uleb128 0x17
 1834 00ea 00       		.byte	0
 1835 00eb 00       		.byte	0
 1836 00ec 12       		.uleb128 0x12
 1837 00ed 34       		.uleb128 0x34
 1838 00ee 00       		.byte	0
 1839 00ef 03       		.uleb128 0x3
 1840 00f0 0E       		.uleb128 0xe
 1841 00f1 3A       		.uleb128 0x3a
 1842 00f2 0B       		.uleb128 0xb
 1843 00f3 3B       		.uleb128 0x3b
 1844 00f4 0B       		.uleb128 0xb
 1845 00f5 49       		.uleb128 0x49
 1846 00f6 13       		.uleb128 0x13
 1847 00f7 02       		.uleb128 0x2
 1848 00f8 18       		.uleb128 0x18
 1849 00f9 00       		.byte	0
 1850 00fa 00       		.byte	0
 1851 00fb 13       		.uleb128 0x13
 1852 00fc 34       		.uleb128 0x34
 1853 00fd 00       		.byte	0
 1854 00fe 03       		.uleb128 0x3
 1855 00ff 0E       		.uleb128 0xe
 1856 0100 3A       		.uleb128 0x3a
 1857 0101 0B       		.uleb128 0xb
 1858 0102 3B       		.uleb128 0x3b
 1859 0103 0B       		.uleb128 0xb
 1860 0104 49       		.uleb128 0x49
 1861 0105 13       		.uleb128 0x13
 1862 0106 02       		.uleb128 0x2
 1863 0107 17       		.uleb128 0x17
 1864 0108 00       		.byte	0
 1865 0109 00       		.byte	0
 1866 010a 14       		.uleb128 0x14
 1867 010b 34       		.uleb128 0x34
 1868 010c 00       		.byte	0
 1869 010d 03       		.uleb128 0x3
 1870 010e 0E       		.uleb128 0xe
 1871 010f 3A       		.uleb128 0x3a
 1872 0110 0B       		.uleb128 0xb
 1873 0111 3B       		.uleb128 0x3b
 1874 0112 0B       		.uleb128 0xb
 1875 0113 49       		.uleb128 0x49
 1876 0114 13       		.uleb128 0x13
 1877 0115 1C       		.uleb128 0x1c
 1878 0116 0B       		.uleb128 0xb
 1879 0117 00       		.byte	0
 1880 0118 00       		.byte	0
 1881 0119 15       		.uleb128 0x15
ARM GAS  C:\Users\ADMINI~1\AppData\Local\Temp\ccA7kAh4.s 			page 34


 1882 011a 34       		.uleb128 0x34
 1883 011b 00       		.byte	0
 1884 011c 03       		.uleb128 0x3
 1885 011d 08       		.uleb128 0x8
 1886 011e 3A       		.uleb128 0x3a
 1887 011f 0B       		.uleb128 0xb
 1888 0120 3B       		.uleb128 0x3b
 1889 0121 0B       		.uleb128 0xb
 1890 0122 49       		.uleb128 0x49
 1891 0123 13       		.uleb128 0x13
 1892 0124 02       		.uleb128 0x2
 1893 0125 17       		.uleb128 0x17
 1894 0126 00       		.byte	0
 1895 0127 00       		.byte	0
 1896 0128 16       		.uleb128 0x16
 1897 0129 1D       		.uleb128 0x1d
 1898 012a 01       		.byte	0x1
 1899 012b 31       		.uleb128 0x31
 1900 012c 13       		.uleb128 0x13
 1901 012d 11       		.uleb128 0x11
 1902 012e 01       		.uleb128 0x1
 1903 012f 12       		.uleb128 0x12
 1904 0130 06       		.uleb128 0x6
 1905 0131 58       		.uleb128 0x58
 1906 0132 0B       		.uleb128 0xb
 1907 0133 59       		.uleb128 0x59
 1908 0134 0B       		.uleb128 0xb
 1909 0135 01       		.uleb128 0x1
 1910 0136 13       		.uleb128 0x13
 1911 0137 00       		.byte	0
 1912 0138 00       		.byte	0
 1913 0139 17       		.uleb128 0x17
 1914 013a 05       		.uleb128 0x5
 1915 013b 00       		.byte	0
 1916 013c 31       		.uleb128 0x31
 1917 013d 13       		.uleb128 0x13
 1918 013e 02       		.uleb128 0x2
 1919 013f 17       		.uleb128 0x17
 1920 0140 00       		.byte	0
 1921 0141 00       		.byte	0
 1922 0142 18       		.uleb128 0x18
 1923 0143 0B       		.uleb128 0xb
 1924 0144 01       		.byte	0x1
 1925 0145 11       		.uleb128 0x11
 1926 0146 01       		.uleb128 0x1
 1927 0147 12       		.uleb128 0x12
 1928 0148 06       		.uleb128 0x6
 1929 0149 00       		.byte	0
 1930 014a 00       		.byte	0
 1931 014b 19       		.uleb128 0x19
 1932 014c 34       		.uleb128 0x34
 1933 014d 00       		.byte	0
 1934 014e 31       		.uleb128 0x31
 1935 014f 13       		.uleb128 0x13
 1936 0150 02       		.uleb128 0x2
 1937 0151 17       		.uleb128 0x17
 1938 0152 00       		.byte	0
ARM GAS  C:\Users\ADMINI~1\AppData\Local\Temp\ccA7kAh4.s 			page 35


 1939 0153 00       		.byte	0
 1940 0154 1A       		.uleb128 0x1a
 1941 0155 898201   		.uleb128 0x4109
 1942 0158 01       		.byte	0x1
 1943 0159 11       		.uleb128 0x11
 1944 015a 01       		.uleb128 0x1
 1945 015b 31       		.uleb128 0x31
 1946 015c 13       		.uleb128 0x13
 1947 015d 01       		.uleb128 0x1
 1948 015e 13       		.uleb128 0x13
 1949 015f 00       		.byte	0
 1950 0160 00       		.byte	0
 1951 0161 1B       		.uleb128 0x1b
 1952 0162 8A8201   		.uleb128 0x410a
 1953 0165 00       		.byte	0
 1954 0166 02       		.uleb128 0x2
 1955 0167 18       		.uleb128 0x18
 1956 0168 9142     		.uleb128 0x2111
 1957 016a 18       		.uleb128 0x18
 1958 016b 00       		.byte	0
 1959 016c 00       		.byte	0
 1960 016d 1C       		.uleb128 0x1c
 1961 016e 898201   		.uleb128 0x4109
 1962 0171 00       		.byte	0
 1963 0172 11       		.uleb128 0x11
 1964 0173 01       		.uleb128 0x1
 1965 0174 31       		.uleb128 0x31
 1966 0175 13       		.uleb128 0x13
 1967 0176 00       		.byte	0
 1968 0177 00       		.byte	0
 1969 0178 1D       		.uleb128 0x1d
 1970 0179 0F       		.uleb128 0xf
 1971 017a 00       		.byte	0
 1972 017b 0B       		.uleb128 0xb
 1973 017c 0B       		.uleb128 0xb
 1974 017d 49       		.uleb128 0x49
 1975 017e 13       		.uleb128 0x13
 1976 017f 00       		.byte	0
 1977 0180 00       		.byte	0
 1978 0181 1E       		.uleb128 0x1e
 1979 0182 34       		.uleb128 0x34
 1980 0183 00       		.byte	0
 1981 0184 03       		.uleb128 0x3
 1982 0185 0E       		.uleb128 0xe
 1983 0186 3A       		.uleb128 0x3a
 1984 0187 0B       		.uleb128 0xb
 1985 0188 3B       		.uleb128 0x3b
 1986 0189 05       		.uleb128 0x5
 1987 018a 49       		.uleb128 0x49
 1988 018b 13       		.uleb128 0x13
 1989 018c 3F       		.uleb128 0x3f
 1990 018d 19       		.uleb128 0x19
 1991 018e 3C       		.uleb128 0x3c
 1992 018f 19       		.uleb128 0x19
 1993 0190 00       		.byte	0
 1994 0191 00       		.byte	0
 1995 0192 1F       		.uleb128 0x1f
ARM GAS  C:\Users\ADMINI~1\AppData\Local\Temp\ccA7kAh4.s 			page 36


 1996 0193 2E       		.uleb128 0x2e
 1997 0194 01       		.byte	0x1
 1998 0195 3F       		.uleb128 0x3f
 1999 0196 19       		.uleb128 0x19
 2000 0197 03       		.uleb128 0x3
 2001 0198 0E       		.uleb128 0xe
 2002 0199 3A       		.uleb128 0x3a
 2003 019a 0B       		.uleb128 0xb
 2004 019b 3B       		.uleb128 0x3b
 2005 019c 05       		.uleb128 0x5
 2006 019d 27       		.uleb128 0x27
 2007 019e 19       		.uleb128 0x19
 2008 019f 3C       		.uleb128 0x3c
 2009 01a0 19       		.uleb128 0x19
 2010 01a1 01       		.uleb128 0x1
 2011 01a2 13       		.uleb128 0x13
 2012 01a3 00       		.byte	0
 2013 01a4 00       		.byte	0
 2014 01a5 20       		.uleb128 0x20
 2015 01a6 05       		.uleb128 0x5
 2016 01a7 00       		.byte	0
 2017 01a8 49       		.uleb128 0x49
 2018 01a9 13       		.uleb128 0x13
 2019 01aa 00       		.byte	0
 2020 01ab 00       		.byte	0
 2021 01ac 21       		.uleb128 0x21
 2022 01ad 2E       		.uleb128 0x2e
 2023 01ae 00       		.byte	0
 2024 01af 3F       		.uleb128 0x3f
 2025 01b0 19       		.uleb128 0x19
 2026 01b1 03       		.uleb128 0x3
 2027 01b2 0E       		.uleb128 0xe
 2028 01b3 3A       		.uleb128 0x3a
 2029 01b4 0B       		.uleb128 0xb
 2030 01b5 3B       		.uleb128 0x3b
 2031 01b6 05       		.uleb128 0x5
 2032 01b7 27       		.uleb128 0x27
 2033 01b8 19       		.uleb128 0x19
 2034 01b9 3C       		.uleb128 0x3c
 2035 01ba 19       		.uleb128 0x19
 2036 01bb 00       		.byte	0
 2037 01bc 00       		.byte	0
 2038 01bd 22       		.uleb128 0x22
 2039 01be 2E       		.uleb128 0x2e
 2040 01bf 01       		.byte	0x1
 2041 01c0 3F       		.uleb128 0x3f
 2042 01c1 19       		.uleb128 0x19
 2043 01c2 03       		.uleb128 0x3
 2044 01c3 0E       		.uleb128 0xe
 2045 01c4 3A       		.uleb128 0x3a
 2046 01c5 0B       		.uleb128 0xb
 2047 01c6 3B       		.uleb128 0x3b
 2048 01c7 05       		.uleb128 0x5
 2049 01c8 27       		.uleb128 0x27
 2050 01c9 19       		.uleb128 0x19
 2051 01ca 49       		.uleb128 0x49
 2052 01cb 13       		.uleb128 0x13
ARM GAS  C:\Users\ADMINI~1\AppData\Local\Temp\ccA7kAh4.s 			page 37


 2053 01cc 3C       		.uleb128 0x3c
 2054 01cd 19       		.uleb128 0x19
 2055 01ce 01       		.uleb128 0x1
 2056 01cf 13       		.uleb128 0x13
 2057 01d0 00       		.byte	0
 2058 01d1 00       		.byte	0
 2059 01d2 23       		.uleb128 0x23
 2060 01d3 2E       		.uleb128 0x2e
 2061 01d4 00       		.byte	0
 2062 01d5 3F       		.uleb128 0x3f
 2063 01d6 19       		.uleb128 0x19
 2064 01d7 03       		.uleb128 0x3
 2065 01d8 0E       		.uleb128 0xe
 2066 01d9 3A       		.uleb128 0x3a
 2067 01da 0B       		.uleb128 0xb
 2068 01db 3B       		.uleb128 0x3b
 2069 01dc 05       		.uleb128 0x5
 2070 01dd 27       		.uleb128 0x27
 2071 01de 19       		.uleb128 0x19
 2072 01df 49       		.uleb128 0x49
 2073 01e0 13       		.uleb128 0x13
 2074 01e1 3C       		.uleb128 0x3c
 2075 01e2 19       		.uleb128 0x19
 2076 01e3 00       		.byte	0
 2077 01e4 00       		.byte	0
 2078 01e5 00       		.byte	0
 2079              		.section	.debug_loc,"",%progbits
 2080              	.Ldebug_loc0:
 2081              	.LLST0:
 2082 0000 00000000 		.4byte	.LVL0
 2083 0004 0C000000 		.4byte	.LVL1
 2084 0008 0100     		.2byte	0x1
 2085 000a 50       		.byte	0x50
 2086 000b 0C000000 		.4byte	.LVL1
 2087 000f DA000000 		.4byte	.LFE111
 2088 0013 0400     		.2byte	0x4
 2089 0015 F3       		.byte	0xf3
 2090 0016 01       		.uleb128 0x1
 2091 0017 50       		.byte	0x50
 2092 0018 9F       		.byte	0x9f
 2093 0019 00000000 		.4byte	0
 2094 001d 00000000 		.4byte	0
 2095              	.LLST1:
 2096 0021 00000000 		.4byte	.LVL0
 2097 0025 19000000 		.4byte	.LVL4-1
 2098 0029 0100     		.2byte	0x1
 2099 002b 51       		.byte	0x51
 2100 002c 19000000 		.4byte	.LVL4-1
 2101 0030 7C000000 		.4byte	.LVL27
 2102 0034 0100     		.2byte	0x1
 2103 0036 57       		.byte	0x57
 2104 0037 7C000000 		.4byte	.LVL27
 2105 003b DA000000 		.4byte	.LFE111
 2106 003f 0400     		.2byte	0x4
 2107 0041 F3       		.byte	0xf3
 2108 0042 01       		.uleb128 0x1
 2109 0043 51       		.byte	0x51
ARM GAS  C:\Users\ADMINI~1\AppData\Local\Temp\ccA7kAh4.s 			page 38


 2110 0044 9F       		.byte	0x9f
 2111 0045 00000000 		.4byte	0
 2112 0049 00000000 		.4byte	0
 2113              	.LLST2:
 2114 004d 00000000 		.4byte	.LVL0
 2115 0051 19000000 		.4byte	.LVL4-1
 2116 0055 0100     		.2byte	0x1
 2117 0057 52       		.byte	0x52
 2118 0058 19000000 		.4byte	.LVL4-1
 2119 005c 78000000 		.4byte	.LVL25
 2120 0060 0100     		.2byte	0x1
 2121 0062 54       		.byte	0x54
 2122 0063 78000000 		.4byte	.LVL25
 2123 0067 7C000000 		.4byte	.LVL27
 2124 006b 0300     		.2byte	0x3
 2125 006d 74       		.byte	0x74
 2126 006e 78       		.sleb128 -8
 2127 006f 9F       		.byte	0x9f
 2128 0070 7C000000 		.4byte	.LVL27
 2129 0074 DA000000 		.4byte	.LFE111
 2130 0078 0400     		.2byte	0x4
 2131 007a F3       		.byte	0xf3
 2132 007b 01       		.uleb128 0x1
 2133 007c 52       		.byte	0x52
 2134 007d 9F       		.byte	0x9f
 2135 007e 00000000 		.4byte	0
 2136 0082 00000000 		.4byte	0
 2137              	.LLST3:
 2138 0086 00000000 		.4byte	.LVL0
 2139 008a 19000000 		.4byte	.LVL4-1
 2140 008e 0100     		.2byte	0x1
 2141 0090 53       		.byte	0x53
 2142 0091 19000000 		.4byte	.LVL4-1
 2143 0095 DA000000 		.4byte	.LFE111
 2144 0099 0100     		.2byte	0x1
 2145 009b 58       		.byte	0x58
 2146 009c 00000000 		.4byte	0
 2147 00a0 00000000 		.4byte	0
 2148              	.LLST4:
 2149 00a4 00000000 		.4byte	.LVL0
 2150 00a8 B8000000 		.4byte	.LVL35
 2151 00ac 0200     		.2byte	0x2
 2152 00ae 91       		.byte	0x91
 2153 00af 00       		.sleb128 0
 2154 00b0 B8000000 		.4byte	.LVL35
 2155 00b4 DA000000 		.4byte	.LFE111
 2156 00b8 0200     		.2byte	0x2
 2157 00ba 91       		.byte	0x91
 2158 00bb 00       		.sleb128 0
 2159 00bc 00000000 		.4byte	0
 2160 00c0 00000000 		.4byte	0
 2161              	.LLST5:
 2162 00c4 14000000 		.4byte	.LVL2
 2163 00c8 7C000000 		.4byte	.LVL27
 2164 00cc 0200     		.2byte	0x2
 2165 00ce 30       		.byte	0x30
 2166 00cf 9F       		.byte	0x9f
ARM GAS  C:\Users\ADMINI~1\AppData\Local\Temp\ccA7kAh4.s 			page 39


 2167 00d0 90000000 		.4byte	.LVL30
 2168 00d4 92000000 		.4byte	.LVL31
 2169 00d8 0100     		.2byte	0x1
 2170 00da 50       		.byte	0x50
 2171 00db 98000000 		.4byte	.LVL32
 2172 00df AA000000 		.4byte	.LVL33
 2173 00e3 0100     		.2byte	0x1
 2174 00e5 50       		.byte	0x50
 2175 00e6 B8000000 		.4byte	.LVL35
 2176 00ea BB000000 		.4byte	.LVL36-1
 2177 00ee 0100     		.2byte	0x1
 2178 00f0 50       		.byte	0x50
 2179 00f1 00000000 		.4byte	0
 2180 00f5 00000000 		.4byte	0
 2181              	.LLST6:
 2182 00f9 14000000 		.4byte	.LVL2
 2183 00fd 19000000 		.4byte	.LVL4-1
 2184 0101 0100     		.2byte	0x1
 2185 0103 51       		.byte	0x51
 2186 0104 19000000 		.4byte	.LVL4-1
 2187 0108 42000000 		.4byte	.LVL7
 2188 010c 0100     		.2byte	0x1
 2189 010e 57       		.byte	0x57
 2190 010f 42000000 		.4byte	.LVL7
 2191 0113 48000000 		.4byte	.LVL10
 2192 0117 0300     		.2byte	0x3
 2193 0119 77       		.byte	0x77
 2194 011a 04       		.sleb128 4
 2195 011b 9F       		.byte	0x9f
 2196 011c 48000000 		.4byte	.LVL10
 2197 0120 4E000000 		.4byte	.LVL13
 2198 0124 0300     		.2byte	0x3
 2199 0126 77       		.byte	0x77
 2200 0127 08       		.sleb128 8
 2201 0128 9F       		.byte	0x9f
 2202 0129 4E000000 		.4byte	.LVL13
 2203 012d 54000000 		.4byte	.LVL16
 2204 0131 0300     		.2byte	0x3
 2205 0133 77       		.byte	0x77
 2206 0134 0C       		.sleb128 12
 2207 0135 9F       		.byte	0x9f
 2208 0136 54000000 		.4byte	.LVL16
 2209 013a 5A000000 		.4byte	.LVL19
 2210 013e 0300     		.2byte	0x3
 2211 0140 77       		.byte	0x77
 2212 0141 10       		.sleb128 16
 2213 0142 9F       		.byte	0x9f
 2214 0143 5A000000 		.4byte	.LVL19
 2215 0147 7C000000 		.4byte	.LVL27
 2216 014b 0300     		.2byte	0x3
 2217 014d 77       		.byte	0x77
 2218 014e 14       		.sleb128 20
 2219 014f 9F       		.byte	0x9f
 2220 0150 7C000000 		.4byte	.LVL27
 2221 0154 DA000000 		.4byte	.LFE111
 2222 0158 0600     		.2byte	0x6
 2223 015a F3       		.byte	0xf3
ARM GAS  C:\Users\ADMINI~1\AppData\Local\Temp\ccA7kAh4.s 			page 40


 2224 015b 01       		.uleb128 0x1
 2225 015c 51       		.byte	0x51
 2226 015d 23       		.byte	0x23
 2227 015e 14       		.uleb128 0x14
 2228 015f 9F       		.byte	0x9f
 2229 0160 00000000 		.4byte	0
 2230 0164 00000000 		.4byte	0
 2231              	.LLST7:
 2232 0168 14000000 		.4byte	.LVL2
 2233 016c 19000000 		.4byte	.LVL4-1
 2234 0170 0100     		.2byte	0x1
 2235 0172 52       		.byte	0x52
 2236 0173 19000000 		.4byte	.LVL4-1
 2237 0177 78000000 		.4byte	.LVL25
 2238 017b 0100     		.2byte	0x1
 2239 017d 54       		.byte	0x54
 2240 017e 78000000 		.4byte	.LVL25
 2241 0182 7C000000 		.4byte	.LVL27
 2242 0186 0300     		.2byte	0x3
 2243 0188 74       		.byte	0x74
 2244 0189 78       		.sleb128 -8
 2245 018a 9F       		.byte	0x9f
 2246 018b 7C000000 		.4byte	.LVL27
 2247 018f 84000000 		.4byte	.LVL28
 2248 0193 0700     		.2byte	0x7
 2249 0195 F3       		.byte	0xf3
 2250 0196 01       		.uleb128 0x1
 2251 0197 52       		.byte	0x52
 2252 0198 76       		.byte	0x76
 2253 0199 00       		.sleb128 0
 2254 019a 22       		.byte	0x22
 2255 019b 9F       		.byte	0x9f
 2256 019c 84000000 		.4byte	.LVL28
 2257 01a0 8C000000 		.4byte	.LVL29
 2258 01a4 0900     		.2byte	0x9
 2259 01a6 F3       		.byte	0xf3
 2260 01a7 01       		.uleb128 0x1
 2261 01a8 52       		.byte	0x52
 2262 01a9 76       		.byte	0x76
 2263 01aa 00       		.sleb128 0
 2264 01ab 22       		.byte	0x22
 2265 01ac 23       		.byte	0x23
 2266 01ad 04       		.uleb128 0x4
 2267 01ae 9F       		.byte	0x9f
 2268 01af 8C000000 		.4byte	.LVL29
 2269 01b3 AA000000 		.4byte	.LVL33
 2270 01b7 0900     		.2byte	0x9
 2271 01b9 F3       		.byte	0xf3
 2272 01ba 01       		.uleb128 0x1
 2273 01bb 52       		.byte	0x52
 2274 01bc 76       		.byte	0x76
 2275 01bd 00       		.sleb128 0
 2276 01be 22       		.byte	0x22
 2277 01bf 23       		.byte	0x23
 2278 01c0 08       		.uleb128 0x8
 2279 01c1 9F       		.byte	0x9f
 2280 01c2 B8000000 		.4byte	.LVL35
ARM GAS  C:\Users\ADMINI~1\AppData\Local\Temp\ccA7kAh4.s 			page 41


 2281 01c6 C6000000 		.4byte	.LVL39
 2282 01ca 0900     		.2byte	0x9
 2283 01cc F3       		.byte	0xf3
 2284 01cd 01       		.uleb128 0x1
 2285 01ce 52       		.byte	0x52
 2286 01cf 76       		.byte	0x76
 2287 01d0 00       		.sleb128 0
 2288 01d1 22       		.byte	0x22
 2289 01d2 23       		.byte	0x23
 2290 01d3 08       		.uleb128 0x8
 2291 01d4 9F       		.byte	0x9f
 2292 01d5 C6000000 		.4byte	.LVL39
 2293 01d9 D6000000 		.4byte	.LVL41
 2294 01dd 0700     		.2byte	0x7
 2295 01df 76       		.byte	0x76
 2296 01e0 00       		.sleb128 0
 2297 01e1 F3       		.byte	0xf3
 2298 01e2 01       		.uleb128 0x1
 2299 01e3 52       		.byte	0x52
 2300 01e4 22       		.byte	0x22
 2301 01e5 9F       		.byte	0x9f
 2302 01e6 00000000 		.4byte	0
 2303 01ea 00000000 		.4byte	0
 2304              	.LLST8:
 2305 01ee 16000000 		.4byte	.LVL3
 2306 01f2 7A000000 		.4byte	.LVL26
 2307 01f6 0100     		.2byte	0x1
 2308 01f8 55       		.byte	0x55
 2309 01f9 7A000000 		.4byte	.LVL26
 2310 01fd 7C000000 		.4byte	.LVL27
 2311 0201 0200     		.2byte	0x2
 2312 0203 91       		.byte	0x91
 2313 0204 00       		.sleb128 0
 2314 0205 7C000000 		.4byte	.LVL27
 2315 0209 AA000000 		.4byte	.LVL33
 2316 020d 0700     		.2byte	0x7
 2317 020f 91       		.byte	0x91
 2318 0210 00       		.sleb128 0
 2319 0211 06       		.byte	0x6
 2320 0212 76       		.byte	0x76
 2321 0213 00       		.sleb128 0
 2322 0214 22       		.byte	0x22
 2323 0215 9F       		.byte	0x9f
 2324 0216 B8000000 		.4byte	.LVL35
 2325 021a C0000000 		.4byte	.LVL37
 2326 021e 0700     		.2byte	0x7
 2327 0220 91       		.byte	0x91
 2328 0221 00       		.sleb128 0
 2329 0222 06       		.byte	0x6
 2330 0223 76       		.byte	0x76
 2331 0224 00       		.sleb128 0
 2332 0225 22       		.byte	0x22
 2333 0226 9F       		.byte	0x9f
 2334 0227 C0000000 		.4byte	.LVL37
 2335 022b C6000000 		.4byte	.LVL39
 2336 022f 0900     		.2byte	0x9
 2337 0231 91       		.byte	0x91
ARM GAS  C:\Users\ADMINI~1\AppData\Local\Temp\ccA7kAh4.s 			page 42


 2338 0232 00       		.sleb128 0
 2339 0233 06       		.byte	0x6
 2340 0234 76       		.byte	0x76
 2341 0235 00       		.sleb128 0
 2342 0236 22       		.byte	0x22
 2343 0237 23       		.byte	0x23
 2344 0238 04       		.uleb128 0x4
 2345 0239 9F       		.byte	0x9f
 2346 023a C6000000 		.4byte	.LVL39
 2347 023e CC000000 		.4byte	.LVL40
 2348 0242 0900     		.2byte	0x9
 2349 0244 91       		.byte	0x91
 2350 0245 00       		.sleb128 0
 2351 0246 06       		.byte	0x6
 2352 0247 76       		.byte	0x76
 2353 0248 00       		.sleb128 0
 2354 0249 22       		.byte	0x22
 2355 024a 34       		.byte	0x34
 2356 024b 1C       		.byte	0x1c
 2357 024c 9F       		.byte	0x9f
 2358 024d 00000000 		.4byte	0
 2359 0251 00000000 		.4byte	0
 2360              	.LLST9:
 2361 0255 16000000 		.4byte	.LVL3
 2362 0259 7C000000 		.4byte	.LVL27
 2363 025d 0200     		.2byte	0x2
 2364 025f 30       		.byte	0x30
 2365 0260 9F       		.byte	0x9f
 2366 0261 7C000000 		.4byte	.LVL27
 2367 0265 AA000000 		.4byte	.LVL33
 2368 0269 0100     		.2byte	0x1
 2369 026b 56       		.byte	0x56
 2370 026c B8000000 		.4byte	.LVL35
 2371 0270 C6000000 		.4byte	.LVL39
 2372 0274 0100     		.2byte	0x1
 2373 0276 56       		.byte	0x56
 2374 0277 C6000000 		.4byte	.LVL39
 2375 027b CC000000 		.4byte	.LVL40
 2376 027f 0300     		.2byte	0x3
 2377 0281 76       		.byte	0x76
 2378 0282 78       		.sleb128 -8
 2379 0283 9F       		.byte	0x9f
 2380 0284 CC000000 		.4byte	.LVL40
 2381 0288 D6000000 		.4byte	.LVL41
 2382 028c 0100     		.2byte	0x1
 2383 028e 56       		.byte	0x56
 2384 028f 00000000 		.4byte	0
 2385 0293 00000000 		.4byte	0
 2386              	.LLST10:
 2387 0297 3C000000 		.4byte	.LVL5
 2388 029b 65000000 		.4byte	.LVL22-1
 2389 029f 0200     		.2byte	0x2
 2390 02a1 77       		.byte	0x77
 2391 02a2 00       		.sleb128 0
 2392 02a3 00000000 		.4byte	0
 2393 02a7 00000000 		.4byte	0
 2394              	.LLST11:
ARM GAS  C:\Users\ADMINI~1\AppData\Local\Temp\ccA7kAh4.s 			page 43


 2395 02ab 40000000 		.4byte	.LVL6
 2396 02af 44000000 		.4byte	.LVL8
 2397 02b3 0100     		.2byte	0x1
 2398 02b5 53       		.byte	0x53
 2399 02b6 44000000 		.4byte	.LVL8
 2400 02ba 65000000 		.4byte	.LVL22-1
 2401 02be 0200     		.2byte	0x2
 2402 02c0 91       		.byte	0x91
 2403 02c1 48       		.sleb128 -56
 2404 02c2 00000000 		.4byte	0
 2405 02c6 00000000 		.4byte	0
 2406              	.LLST12:
 2407 02ca 42000000 		.4byte	.LVL7
 2408 02ce 65000000 		.4byte	.LVL22-1
 2409 02d2 0200     		.2byte	0x2
 2410 02d4 77       		.byte	0x77
 2411 02d5 04       		.sleb128 4
 2412 02d6 00000000 		.4byte	0
 2413 02da 00000000 		.4byte	0
 2414              	.LLST13:
 2415 02de 46000000 		.4byte	.LVL9
 2416 02e2 4A000000 		.4byte	.LVL11
 2417 02e6 0100     		.2byte	0x1
 2418 02e8 53       		.byte	0x53
 2419 02e9 4A000000 		.4byte	.LVL11
 2420 02ed 65000000 		.4byte	.LVL22-1
 2421 02f1 0200     		.2byte	0x2
 2422 02f3 91       		.byte	0x91
 2423 02f4 4C       		.sleb128 -52
 2424 02f5 00000000 		.4byte	0
 2425 02f9 00000000 		.4byte	0
 2426              	.LLST14:
 2427 02fd 48000000 		.4byte	.LVL10
 2428 0301 65000000 		.4byte	.LVL22-1
 2429 0305 0200     		.2byte	0x2
 2430 0307 77       		.byte	0x77
 2431 0308 08       		.sleb128 8
 2432 0309 00000000 		.4byte	0
 2433 030d 00000000 		.4byte	0
 2434              	.LLST15:
 2435 0311 4C000000 		.4byte	.LVL12
 2436 0315 50000000 		.4byte	.LVL14
 2437 0319 0100     		.2byte	0x1
 2438 031b 53       		.byte	0x53
 2439 031c 50000000 		.4byte	.LVL14
 2440 0320 65000000 		.4byte	.LVL22-1
 2441 0324 0200     		.2byte	0x2
 2442 0326 91       		.byte	0x91
 2443 0327 50       		.sleb128 -48
 2444 0328 00000000 		.4byte	0
 2445 032c 00000000 		.4byte	0
 2446              	.LLST16:
 2447 0330 4E000000 		.4byte	.LVL13
 2448 0334 65000000 		.4byte	.LVL22-1
 2449 0338 0200     		.2byte	0x2
 2450 033a 77       		.byte	0x77
 2451 033b 0C       		.sleb128 12
ARM GAS  C:\Users\ADMINI~1\AppData\Local\Temp\ccA7kAh4.s 			page 44


 2452 033c 00000000 		.4byte	0
 2453 0340 00000000 		.4byte	0
 2454              	.LLST17:
 2455 0344 52000000 		.4byte	.LVL15
 2456 0348 56000000 		.4byte	.LVL17
 2457 034c 0100     		.2byte	0x1
 2458 034e 53       		.byte	0x53
 2459 034f 56000000 		.4byte	.LVL17
 2460 0353 65000000 		.4byte	.LVL22-1
 2461 0357 0200     		.2byte	0x2
 2462 0359 91       		.byte	0x91
 2463 035a 54       		.sleb128 -44
 2464 035b 00000000 		.4byte	0
 2465 035f 00000000 		.4byte	0
 2466              	.LLST18:
 2467 0363 54000000 		.4byte	.LVL16
 2468 0367 65000000 		.4byte	.LVL22-1
 2469 036b 0200     		.2byte	0x2
 2470 036d 77       		.byte	0x77
 2471 036e 10       		.sleb128 16
 2472 036f 00000000 		.4byte	0
 2473 0373 00000000 		.4byte	0
 2474              	.LLST19:
 2475 0377 58000000 		.4byte	.LVL18
 2476 037b 5C000000 		.4byte	.LVL20
 2477 037f 0100     		.2byte	0x1
 2478 0381 53       		.byte	0x53
 2479 0382 5C000000 		.4byte	.LVL20
 2480 0386 65000000 		.4byte	.LVL22-1
 2481 038a 0200     		.2byte	0x2
 2482 038c 91       		.byte	0x91
 2483 038d 58       		.sleb128 -40
 2484 038e 00000000 		.4byte	0
 2485 0392 00000000 		.4byte	0
 2486              	.LLST20:
 2487 0396 5A000000 		.4byte	.LVL19
 2488 039a 65000000 		.4byte	.LVL22-1
 2489 039e 0200     		.2byte	0x2
 2490 03a0 77       		.byte	0x77
 2491 03a1 14       		.sleb128 20
 2492 03a2 00000000 		.4byte	0
 2493 03a6 00000000 		.4byte	0
 2494              	.LLST21:
 2495 03aa 5E000000 		.4byte	.LVL21
 2496 03ae 65000000 		.4byte	.LVL22-1
 2497 03b2 0100     		.2byte	0x1
 2498 03b4 53       		.byte	0x53
 2499 03b5 00000000 		.4byte	0
 2500 03b9 00000000 		.4byte	0
 2501              	.LLST22:
 2502 03bd 00000000 		.4byte	.LVL42
 2503 03c1 0C000000 		.4byte	.LVL43
 2504 03c5 0100     		.2byte	0x1
 2505 03c7 50       		.byte	0x50
 2506 03c8 0C000000 		.4byte	.LVL43
 2507 03cc FE000000 		.4byte	.LFE112
 2508 03d0 0400     		.2byte	0x4
ARM GAS  C:\Users\ADMINI~1\AppData\Local\Temp\ccA7kAh4.s 			page 45


 2509 03d2 F3       		.byte	0xf3
 2510 03d3 01       		.uleb128 0x1
 2511 03d4 50       		.byte	0x50
 2512 03d5 9F       		.byte	0x9f
 2513 03d6 00000000 		.4byte	0
 2514 03da 00000000 		.4byte	0
 2515              	.LLST23:
 2516 03de 00000000 		.4byte	.LVL42
 2517 03e2 1B000000 		.4byte	.LVL45-1
 2518 03e6 0100     		.2byte	0x1
 2519 03e8 51       		.byte	0x51
 2520 03e9 1B000000 		.4byte	.LVL45-1
 2521 03ed A0000000 		.4byte	.LVL74
 2522 03f1 0100     		.2byte	0x1
 2523 03f3 56       		.byte	0x56
 2524 03f4 A0000000 		.4byte	.LVL74
 2525 03f8 FE000000 		.4byte	.LFE112
 2526 03fc 0400     		.2byte	0x4
 2527 03fe F3       		.byte	0xf3
 2528 03ff 01       		.uleb128 0x1
 2529 0400 51       		.byte	0x51
 2530 0401 9F       		.byte	0x9f
 2531 0402 00000000 		.4byte	0
 2532 0406 00000000 		.4byte	0
 2533              	.LLST24:
 2534 040a 00000000 		.4byte	.LVL42
 2535 040e 1B000000 		.4byte	.LVL45-1
 2536 0412 0100     		.2byte	0x1
 2537 0414 52       		.byte	0x52
 2538 0415 1B000000 		.4byte	.LVL45-1
 2539 0419 98000000 		.4byte	.LVL72
 2540 041d 0100     		.2byte	0x1
 2541 041f 57       		.byte	0x57
 2542 0420 98000000 		.4byte	.LVL72
 2543 0424 FE000000 		.4byte	.LFE112
 2544 0428 0400     		.2byte	0x4
 2545 042a F3       		.byte	0xf3
 2546 042b 01       		.uleb128 0x1
 2547 042c 52       		.byte	0x52
 2548 042d 9F       		.byte	0x9f
 2549 042e 00000000 		.4byte	0
 2550 0432 00000000 		.4byte	0
 2551              	.LLST25:
 2552 0436 00000000 		.4byte	.LVL42
 2553 043a 1B000000 		.4byte	.LVL45-1
 2554 043e 0100     		.2byte	0x1
 2555 0440 53       		.byte	0x53
 2556 0441 1B000000 		.4byte	.LVL45-1
 2557 0445 9A000000 		.4byte	.LVL73
 2558 0449 0100     		.2byte	0x1
 2559 044b 54       		.byte	0x54
 2560 044c 9A000000 		.4byte	.LVL73
 2561 0450 A0000000 		.4byte	.LVL74
 2562 0454 0300     		.2byte	0x3
 2563 0456 74       		.byte	0x74
 2564 0457 78       		.sleb128 -8
 2565 0458 9F       		.byte	0x9f
ARM GAS  C:\Users\ADMINI~1\AppData\Local\Temp\ccA7kAh4.s 			page 46


 2566 0459 A0000000 		.4byte	.LVL74
 2567 045d FE000000 		.4byte	.LFE112
 2568 0461 0400     		.2byte	0x4
 2569 0463 F3       		.byte	0xf3
 2570 0464 01       		.uleb128 0x1
 2571 0465 53       		.byte	0x53
 2572 0466 9F       		.byte	0x9f
 2573 0467 00000000 		.4byte	0
 2574 046b 00000000 		.4byte	0
 2575              	.LLST26:
 2576 046f 00000000 		.4byte	.LVL42
 2577 0473 DC000000 		.4byte	.LVL82
 2578 0477 0200     		.2byte	0x2
 2579 0479 91       		.byte	0x91
 2580 047a 00       		.sleb128 0
 2581 047b DC000000 		.4byte	.LVL82
 2582 047f FE000000 		.4byte	.LFE112
 2583 0483 0200     		.2byte	0x2
 2584 0485 91       		.byte	0x91
 2585 0486 00       		.sleb128 0
 2586 0487 00000000 		.4byte	0
 2587 048b 00000000 		.4byte	0
 2588              	.LLST27:
 2589 048f 00000000 		.4byte	.LVL42
 2590 0493 DC000000 		.4byte	.LVL82
 2591 0497 0200     		.2byte	0x2
 2592 0499 91       		.byte	0x91
 2593 049a 04       		.sleb128 4
 2594 049b DC000000 		.4byte	.LVL82
 2595 049f FE000000 		.4byte	.LFE112
 2596 04a3 0200     		.2byte	0x2
 2597 04a5 91       		.byte	0x91
 2598 04a6 04       		.sleb128 4
 2599 04a7 00000000 		.4byte	0
 2600 04ab 00000000 		.4byte	0
 2601              	.LLST28:
 2602 04af 18000000 		.4byte	.LVL44
 2603 04b3 A0000000 		.4byte	.LVL74
 2604 04b7 0200     		.2byte	0x2
 2605 04b9 30       		.byte	0x30
 2606 04ba 9F       		.byte	0x9f
 2607 04bb B4000000 		.4byte	.LVL77
 2608 04bf B6000000 		.4byte	.LVL78
 2609 04c3 0100     		.2byte	0x1
 2610 04c5 50       		.byte	0x50
 2611 04c6 BC000000 		.4byte	.LVL79
 2612 04ca CE000000 		.4byte	.LVL80
 2613 04ce 0100     		.2byte	0x1
 2614 04d0 50       		.byte	0x50
 2615 04d1 DC000000 		.4byte	.LVL82
 2616 04d5 DF000000 		.4byte	.LVL83-1
 2617 04d9 0100     		.2byte	0x1
 2618 04db 50       		.byte	0x50
 2619 04dc 00000000 		.4byte	0
 2620 04e0 00000000 		.4byte	0
 2621              	.LLST29:
 2622 04e4 18000000 		.4byte	.LVL44
ARM GAS  C:\Users\ADMINI~1\AppData\Local\Temp\ccA7kAh4.s 			page 47


 2623 04e8 1B000000 		.4byte	.LVL45-1
 2624 04ec 0100     		.2byte	0x1
 2625 04ee 51       		.byte	0x51
 2626 04ef 1B000000 		.4byte	.LVL45-1
 2627 04f3 4E000000 		.4byte	.LVL48
 2628 04f7 0100     		.2byte	0x1
 2629 04f9 56       		.byte	0x56
 2630 04fa 4E000000 		.4byte	.LVL48
 2631 04fe 54000000 		.4byte	.LVL51
 2632 0502 0300     		.2byte	0x3
 2633 0504 76       		.byte	0x76
 2634 0505 04       		.sleb128 4
 2635 0506 9F       		.byte	0x9f
 2636 0507 54000000 		.4byte	.LVL51
 2637 050b 5A000000 		.4byte	.LVL54
 2638 050f 0300     		.2byte	0x3
 2639 0511 76       		.byte	0x76
 2640 0512 08       		.sleb128 8
 2641 0513 9F       		.byte	0x9f
 2642 0514 5A000000 		.4byte	.LVL54
 2643 0518 60000000 		.4byte	.LVL57
 2644 051c 0300     		.2byte	0x3
 2645 051e 76       		.byte	0x76
 2646 051f 0C       		.sleb128 12
 2647 0520 9F       		.byte	0x9f
 2648 0521 60000000 		.4byte	.LVL57
 2649 0525 66000000 		.4byte	.LVL60
 2650 0529 0300     		.2byte	0x3
 2651 052b 76       		.byte	0x76
 2652 052c 10       		.sleb128 16
 2653 052d 9F       		.byte	0x9f
 2654 052e 66000000 		.4byte	.LVL60
 2655 0532 A0000000 		.4byte	.LVL74
 2656 0536 0300     		.2byte	0x3
 2657 0538 76       		.byte	0x76
 2658 0539 14       		.sleb128 20
 2659 053a 9F       		.byte	0x9f
 2660 053b A0000000 		.4byte	.LVL74
 2661 053f FE000000 		.4byte	.LFE112
 2662 0543 0600     		.2byte	0x6
 2663 0545 F3       		.byte	0xf3
 2664 0546 01       		.uleb128 0x1
 2665 0547 51       		.byte	0x51
 2666 0548 23       		.byte	0x23
 2667 0549 14       		.uleb128 0x14
 2668 054a 9F       		.byte	0x9f
 2669 054b 00000000 		.4byte	0
 2670 054f 00000000 		.4byte	0
 2671              	.LLST30:
 2672 0553 18000000 		.4byte	.LVL44
 2673 0557 1B000000 		.4byte	.LVL45-1
 2674 055b 0100     		.2byte	0x1
 2675 055d 53       		.byte	0x53
 2676 055e 1B000000 		.4byte	.LVL45-1
 2677 0562 9A000000 		.4byte	.LVL73
 2678 0566 0100     		.2byte	0x1
 2679 0568 54       		.byte	0x54
ARM GAS  C:\Users\ADMINI~1\AppData\Local\Temp\ccA7kAh4.s 			page 48


 2680 0569 9A000000 		.4byte	.LVL73
 2681 056d A0000000 		.4byte	.LVL74
 2682 0571 0300     		.2byte	0x3
 2683 0573 74       		.byte	0x74
 2684 0574 78       		.sleb128 -8
 2685 0575 9F       		.byte	0x9f
 2686 0576 A0000000 		.4byte	.LVL74
 2687 057a A8000000 		.4byte	.LVL75
 2688 057e 0700     		.2byte	0x7
 2689 0580 F3       		.byte	0xf3
 2690 0581 01       		.uleb128 0x1
 2691 0582 53       		.byte	0x53
 2692 0583 77       		.byte	0x77
 2693 0584 00       		.sleb128 0
 2694 0585 22       		.byte	0x22
 2695 0586 9F       		.byte	0x9f
 2696 0587 A8000000 		.4byte	.LVL75
 2697 058b B0000000 		.4byte	.LVL76
 2698 058f 0900     		.2byte	0x9
 2699 0591 F3       		.byte	0xf3
 2700 0592 01       		.uleb128 0x1
 2701 0593 53       		.byte	0x53
 2702 0594 77       		.byte	0x77
 2703 0595 00       		.sleb128 0
 2704 0596 22       		.byte	0x22
 2705 0597 23       		.byte	0x23
 2706 0598 04       		.uleb128 0x4
 2707 0599 9F       		.byte	0x9f
 2708 059a B0000000 		.4byte	.LVL76
 2709 059e CE000000 		.4byte	.LVL80
 2710 05a2 0900     		.2byte	0x9
 2711 05a4 F3       		.byte	0xf3
 2712 05a5 01       		.uleb128 0x1
 2713 05a6 53       		.byte	0x53
 2714 05a7 77       		.byte	0x77
 2715 05a8 00       		.sleb128 0
 2716 05a9 22       		.byte	0x22
 2717 05aa 23       		.byte	0x23
 2718 05ab 08       		.uleb128 0x8
 2719 05ac 9F       		.byte	0x9f
 2720 05ad DC000000 		.4byte	.LVL82
 2721 05b1 EA000000 		.4byte	.LVL86
 2722 05b5 0900     		.2byte	0x9
 2723 05b7 F3       		.byte	0xf3
 2724 05b8 01       		.uleb128 0x1
 2725 05b9 53       		.byte	0x53
 2726 05ba 77       		.byte	0x77
 2727 05bb 00       		.sleb128 0
 2728 05bc 22       		.byte	0x22
 2729 05bd 23       		.byte	0x23
 2730 05be 08       		.uleb128 0x8
 2731 05bf 9F       		.byte	0x9f
 2732 05c0 EA000000 		.4byte	.LVL86
 2733 05c4 FA000000 		.4byte	.LVL88
 2734 05c8 0700     		.2byte	0x7
 2735 05ca 77       		.byte	0x77
 2736 05cb 00       		.sleb128 0
ARM GAS  C:\Users\ADMINI~1\AppData\Local\Temp\ccA7kAh4.s 			page 49


 2737 05cc F3       		.byte	0xf3
 2738 05cd 01       		.uleb128 0x1
 2739 05ce 53       		.byte	0x53
 2740 05cf 22       		.byte	0x22
 2741 05d0 9F       		.byte	0x9f
 2742 05d1 00000000 		.4byte	0
 2743 05d5 00000000 		.4byte	0
 2744              	.LLST31:
 2745 05d9 18000000 		.4byte	.LVL44
 2746 05dd A0000000 		.4byte	.LVL74
 2747 05e1 0200     		.2byte	0x2
 2748 05e3 91       		.byte	0x91
 2749 05e4 04       		.sleb128 4
 2750 05e5 A0000000 		.4byte	.LVL74
 2751 05e9 CE000000 		.4byte	.LVL80
 2752 05ed 0700     		.2byte	0x7
 2753 05ef 91       		.byte	0x91
 2754 05f0 04       		.sleb128 4
 2755 05f1 06       		.byte	0x6
 2756 05f2 77       		.byte	0x77
 2757 05f3 00       		.sleb128 0
 2758 05f4 22       		.byte	0x22
 2759 05f5 9F       		.byte	0x9f
 2760 05f6 DC000000 		.4byte	.LVL82
 2761 05fa E4000000 		.4byte	.LVL84
 2762 05fe 0700     		.2byte	0x7
 2763 0600 91       		.byte	0x91
 2764 0601 04       		.sleb128 4
 2765 0602 06       		.byte	0x6
 2766 0603 77       		.byte	0x77
 2767 0604 00       		.sleb128 0
 2768 0605 22       		.byte	0x22
 2769 0606 9F       		.byte	0x9f
 2770 0607 E4000000 		.4byte	.LVL84
 2771 060b EA000000 		.4byte	.LVL86
 2772 060f 0900     		.2byte	0x9
 2773 0611 91       		.byte	0x91
 2774 0612 04       		.sleb128 4
 2775 0613 06       		.byte	0x6
 2776 0614 77       		.byte	0x77
 2777 0615 00       		.sleb128 0
 2778 0616 22       		.byte	0x22
 2779 0617 23       		.byte	0x23
 2780 0618 04       		.uleb128 0x4
 2781 0619 9F       		.byte	0x9f
 2782 061a EA000000 		.4byte	.LVL86
 2783 061e F0000000 		.4byte	.LVL87
 2784 0622 0900     		.2byte	0x9
 2785 0624 91       		.byte	0x91
 2786 0625 04       		.sleb128 4
 2787 0626 06       		.byte	0x6
 2788 0627 77       		.byte	0x77
 2789 0628 00       		.sleb128 0
 2790 0629 22       		.byte	0x22
 2791 062a 34       		.byte	0x34
 2792 062b 1C       		.byte	0x1c
 2793 062c 9F       		.byte	0x9f
ARM GAS  C:\Users\ADMINI~1\AppData\Local\Temp\ccA7kAh4.s 			page 50


 2794 062d 00000000 		.4byte	0
 2795 0631 00000000 		.4byte	0
 2796              	.LLST32:
 2797 0635 18000000 		.4byte	.LVL44
 2798 0639 1B000000 		.4byte	.LVL45-1
 2799 063d 0100     		.2byte	0x1
 2800 063f 52       		.byte	0x52
 2801 0640 1B000000 		.4byte	.LVL45-1
 2802 0644 78000000 		.4byte	.LVL65
 2803 0648 0100     		.2byte	0x1
 2804 064a 57       		.byte	0x57
 2805 064b 78000000 		.4byte	.LVL65
 2806 064f 98000000 		.4byte	.LVL72
 2807 0653 0300     		.2byte	0x3
 2808 0655 77       		.byte	0x77
 2809 0656 04       		.sleb128 4
 2810 0657 9F       		.byte	0x9f
 2811 0658 98000000 		.4byte	.LVL72
 2812 065c FE000000 		.4byte	.LFE112
 2813 0660 0600     		.2byte	0x6
 2814 0662 F3       		.byte	0xf3
 2815 0663 01       		.uleb128 0x1
 2816 0664 52       		.byte	0x52
 2817 0665 23       		.byte	0x23
 2818 0666 04       		.uleb128 0x4
 2819 0667 9F       		.byte	0x9f
 2820 0668 00000000 		.4byte	0
 2821 066c 00000000 		.4byte	0
 2822              	.LLST33:
 2823 0670 18000000 		.4byte	.LVL44
 2824 0674 A0000000 		.4byte	.LVL74
 2825 0678 0200     		.2byte	0x2
 2826 067a 30       		.byte	0x30
 2827 067b 9F       		.byte	0x9f
 2828 067c A0000000 		.4byte	.LVL74
 2829 0680 CE000000 		.4byte	.LVL80
 2830 0684 0100     		.2byte	0x1
 2831 0686 57       		.byte	0x57
 2832 0687 DC000000 		.4byte	.LVL82
 2833 068b EA000000 		.4byte	.LVL86
 2834 068f 0100     		.2byte	0x1
 2835 0691 57       		.byte	0x57
 2836 0692 EA000000 		.4byte	.LVL86
 2837 0696 F0000000 		.4byte	.LVL87
 2838 069a 0300     		.2byte	0x3
 2839 069c 77       		.byte	0x77
 2840 069d 78       		.sleb128 -8
 2841 069e 9F       		.byte	0x9f
 2842 069f F0000000 		.4byte	.LVL87
 2843 06a3 FA000000 		.4byte	.LVL88
 2844 06a7 0100     		.2byte	0x1
 2845 06a9 57       		.byte	0x57
 2846 06aa 00000000 		.4byte	0
 2847 06ae 00000000 		.4byte	0
 2848              	.LLST34:
 2849 06b2 48000000 		.4byte	.LVL46
 2850 06b6 71000000 		.4byte	.LVL63-1
ARM GAS  C:\Users\ADMINI~1\AppData\Local\Temp\ccA7kAh4.s 			page 51


 2851 06ba 0200     		.2byte	0x2
 2852 06bc 76       		.byte	0x76
 2853 06bd 00       		.sleb128 0
 2854 06be 00000000 		.4byte	0
 2855 06c2 00000000 		.4byte	0
 2856              	.LLST35:
 2857 06c6 4C000000 		.4byte	.LVL47
 2858 06ca 50000000 		.4byte	.LVL49
 2859 06ce 0100     		.2byte	0x1
 2860 06d0 53       		.byte	0x53
 2861 06d1 50000000 		.4byte	.LVL49
 2862 06d5 71000000 		.4byte	.LVL63-1
 2863 06d9 0200     		.2byte	0x2
 2864 06db 91       		.byte	0x91
 2865 06dc 48       		.sleb128 -56
 2866 06dd 00000000 		.4byte	0
 2867 06e1 00000000 		.4byte	0
 2868              	.LLST36:
 2869 06e5 4E000000 		.4byte	.LVL48
 2870 06e9 71000000 		.4byte	.LVL63-1
 2871 06ed 0200     		.2byte	0x2
 2872 06ef 76       		.byte	0x76
 2873 06f0 04       		.sleb128 4
 2874 06f1 00000000 		.4byte	0
 2875 06f5 00000000 		.4byte	0
 2876              	.LLST37:
 2877 06f9 52000000 		.4byte	.LVL50
 2878 06fd 56000000 		.4byte	.LVL52
 2879 0701 0100     		.2byte	0x1
 2880 0703 53       		.byte	0x53
 2881 0704 56000000 		.4byte	.LVL52
 2882 0708 71000000 		.4byte	.LVL63-1
 2883 070c 0200     		.2byte	0x2
 2884 070e 91       		.byte	0x91
 2885 070f 4C       		.sleb128 -52
 2886 0710 00000000 		.4byte	0
 2887 0714 00000000 		.4byte	0
 2888              	.LLST38:
 2889 0718 54000000 		.4byte	.LVL51
 2890 071c 71000000 		.4byte	.LVL63-1
 2891 0720 0200     		.2byte	0x2
 2892 0722 76       		.byte	0x76
 2893 0723 08       		.sleb128 8
 2894 0724 00000000 		.4byte	0
 2895 0728 00000000 		.4byte	0
 2896              	.LLST39:
 2897 072c 58000000 		.4byte	.LVL53
 2898 0730 5C000000 		.4byte	.LVL55
 2899 0734 0100     		.2byte	0x1
 2900 0736 53       		.byte	0x53
 2901 0737 5C000000 		.4byte	.LVL55
 2902 073b 71000000 		.4byte	.LVL63-1
 2903 073f 0200     		.2byte	0x2
 2904 0741 91       		.byte	0x91
 2905 0742 50       		.sleb128 -48
 2906 0743 00000000 		.4byte	0
 2907 0747 00000000 		.4byte	0
ARM GAS  C:\Users\ADMINI~1\AppData\Local\Temp\ccA7kAh4.s 			page 52


 2908              	.LLST40:
 2909 074b 5A000000 		.4byte	.LVL54
 2910 074f 71000000 		.4byte	.LVL63-1
 2911 0753 0200     		.2byte	0x2
 2912 0755 76       		.byte	0x76
 2913 0756 0C       		.sleb128 12
 2914 0757 00000000 		.4byte	0
 2915 075b 00000000 		.4byte	0
 2916              	.LLST41:
 2917 075f 5E000000 		.4byte	.LVL56
 2918 0763 62000000 		.4byte	.LVL58
 2919 0767 0100     		.2byte	0x1
 2920 0769 53       		.byte	0x53
 2921 076a 62000000 		.4byte	.LVL58
 2922 076e 71000000 		.4byte	.LVL63-1
 2923 0772 0200     		.2byte	0x2
 2924 0774 91       		.byte	0x91
 2925 0775 54       		.sleb128 -44
 2926 0776 00000000 		.4byte	0
 2927 077a 00000000 		.4byte	0
 2928              	.LLST42:
 2929 077e 60000000 		.4byte	.LVL57
 2930 0782 71000000 		.4byte	.LVL63-1
 2931 0786 0200     		.2byte	0x2
 2932 0788 76       		.byte	0x76
 2933 0789 10       		.sleb128 16
 2934 078a 00000000 		.4byte	0
 2935 078e 00000000 		.4byte	0
 2936              	.LLST43:
 2937 0792 64000000 		.4byte	.LVL59
 2938 0796 68000000 		.4byte	.LVL61
 2939 079a 0100     		.2byte	0x1
 2940 079c 53       		.byte	0x53
 2941 079d 68000000 		.4byte	.LVL61
 2942 07a1 71000000 		.4byte	.LVL63-1
 2943 07a5 0200     		.2byte	0x2
 2944 07a7 91       		.byte	0x91
 2945 07a8 58       		.sleb128 -40
 2946 07a9 00000000 		.4byte	0
 2947 07ad 00000000 		.4byte	0
 2948              	.LLST44:
 2949 07b1 66000000 		.4byte	.LVL60
 2950 07b5 71000000 		.4byte	.LVL63-1
 2951 07b9 0200     		.2byte	0x2
 2952 07bb 76       		.byte	0x76
 2953 07bc 14       		.sleb128 20
 2954 07bd 00000000 		.4byte	0
 2955 07c1 00000000 		.4byte	0
 2956              	.LLST45:
 2957 07c5 6A000000 		.4byte	.LVL62
 2958 07c9 71000000 		.4byte	.LVL63-1
 2959 07cd 0100     		.2byte	0x1
 2960 07cf 53       		.byte	0x53
 2961 07d0 00000000 		.4byte	0
 2962 07d4 00000000 		.4byte	0
 2963              	.LLST46:
 2964 07d8 72000000 		.4byte	.LVL63
ARM GAS  C:\Users\ADMINI~1\AppData\Local\Temp\ccA7kAh4.s 			page 53


 2965 07dc 83000000 		.4byte	.LVL69-1
 2966 07e0 0200     		.2byte	0x2
 2967 07e2 77       		.byte	0x77
 2968 07e3 00       		.sleb128 0
 2969 07e4 00000000 		.4byte	0
 2970 07e8 00000000 		.4byte	0
 2971              	.LLST47:
 2972 07ec 76000000 		.4byte	.LVL64
 2973 07f0 7A000000 		.4byte	.LVL66
 2974 07f4 0100     		.2byte	0x1
 2975 07f6 53       		.byte	0x53
 2976 07f7 7A000000 		.4byte	.LVL66
 2977 07fb 7E000000 		.4byte	.LVL68
 2978 07ff 0300     		.2byte	0x3
 2979 0801 91       		.byte	0x91
 2980 0802 B07F     		.sleb128 -80
 2981 0804 7E000000 		.4byte	.LVL68
 2982 0808 83000000 		.4byte	.LVL69-1
 2983 080c 0200     		.2byte	0x2
 2984 080e 70       		.byte	0x70
 2985 080f 00       		.sleb128 0
 2986 0810 00000000 		.4byte	0
 2987 0814 00000000 		.4byte	0
 2988              	.LLST48:
 2989 0818 78000000 		.4byte	.LVL65
 2990 081c 83000000 		.4byte	.LVL69-1
 2991 0820 0200     		.2byte	0x2
 2992 0822 77       		.byte	0x77
 2993 0823 04       		.sleb128 4
 2994 0824 00000000 		.4byte	0
 2995 0828 00000000 		.4byte	0
 2996              	.LLST49:
 2997 082c 7C000000 		.4byte	.LVL67
 2998 0830 83000000 		.4byte	.LVL69-1
 2999 0834 0100     		.2byte	0x1
 3000 0836 53       		.byte	0x53
 3001 0837 00000000 		.4byte	0
 3002 083b 00000000 		.4byte	0
 3003              		.section	.debug_aranges,"",%progbits
 3004 0000 24000000 		.4byte	0x24
 3005 0004 0200     		.2byte	0x2
 3006 0006 00000000 		.4byte	.Ldebug_info0
 3007 000a 04       		.byte	0x4
 3008 000b 00       		.byte	0
 3009 000c 0000     		.2byte	0
 3010 000e 0000     		.2byte	0
 3011 0010 00000000 		.4byte	.LFB111
 3012 0014 DA000000 		.4byte	.LFE111-.LFB111
 3013 0018 00000000 		.4byte	.LFB112
 3014 001c FE000000 		.4byte	.LFE112-.LFB112
 3015 0020 00000000 		.4byte	0
 3016 0024 00000000 		.4byte	0
 3017              		.section	.debug_ranges,"",%progbits
 3018              	.Ldebug_ranges0:
 3019 0000 00000000 		.4byte	.LFB111
 3020 0004 DA000000 		.4byte	.LFE111
 3021 0008 00000000 		.4byte	.LFB112
ARM GAS  C:\Users\ADMINI~1\AppData\Local\Temp\ccA7kAh4.s 			page 54


 3022 000c FE000000 		.4byte	.LFE112
 3023 0010 00000000 		.4byte	0
 3024 0014 00000000 		.4byte	0
 3025              		.section	.debug_line,"",%progbits
 3026              	.Ldebug_line0:
 3027 0000 48030000 		.section	.debug_str,"MS",%progbits,1
 3027      0200DA01 
 3027      00000201 
 3027      FB0E0D00 
 3027      01010101 
 3028              	.LASF73:
 3029 0000 72657375 		.ascii	"result\000"
 3029      6C7400
 3030              	.LASF44:
 3031 0007 43525950 		.ascii	"CRYP_IVInitTypeDef\000"
 3031      5F495649 
 3031      6E697454 
 3031      79706544 
 3031      656600
 3032              	.LASF55:
 3033 001a 696E7075 		.ascii	"inputaddr\000"
 3033      74616464 
 3033      7200
 3034              	.LASF64:
 3035 0024 43525950 		.ascii	"CRYP_KeyInit\000"
 3035      5F4B6579 
 3035      496E6974 
 3035      00
 3036              	.LASF49:
 3037 0031 54444553 		.ascii	"TDES_CRYP_InitStructure\000"
 3037      5F435259 
 3037      505F496E 
 3037      69745374 
 3037      72756374 
 3038              	.LASF48:
 3039 0049 4F757470 		.ascii	"Output\000"
 3039      757400
 3040              	.LASF17:
 3041 0050 73697A65 		.ascii	"sizetype\000"
 3041      74797065 
 3041      00
 3042              	.LASF30:
 3043 0059 43525950 		.ascii	"CRYP_InitTypeDef\000"
 3043      5F496E69 
 3043      74547970 
 3043      65446566 
 3043      00
 3044              	.LASF8:
 3045 006a 5F5F7569 		.ascii	"__uint32_t\000"
 3045      6E743332 
 3045      5F7400
 3046              	.LASF38:
 3047 0075 43525950 		.ascii	"CRYP_Key3Right\000"
 3047      5F4B6579 
 3047      33526967 
 3047      687400
 3048              	.LASF4:
ARM GAS  C:\Users\ADMINI~1\AppData\Local\Temp\ccA7kAh4.s 			page 55


 3049 0084 5F5F7569 		.ascii	"__uint16_t\000"
 3049      6E743136 
 3049      5F7400
 3050              	.LASF34:
 3051 008f 43525950 		.ascii	"CRYP_Key1Right\000"
 3051      5F4B6579 
 3051      31526967 
 3051      687400
 3052              	.LASF69:
 3053 009e 43686962 		.ascii	"ChibiOS_2.6.6/ext/stdperiph_stm32f4/src/stm32f4xx_c"
 3053      694F535F 
 3053      322E362E 
 3053      362F6578 
 3053      742F7374 
 3054 00d1 7279705F 		.ascii	"ryp_tdes.c\000"
 3054      74646573 
 3054      2E6300
 3055              	.LASF50:
 3056 00dc 54444553 		.ascii	"TDES_CRYP_KeyInitStructure\000"
 3056      5F435259 
 3056      505F4B65 
 3056      79496E69 
 3056      74537472 
 3057              	.LASF61:
 3058 00f7 69766164 		.ascii	"ivaddr\000"
 3058      647200
 3059              	.LASF59:
 3060 00fe 496E6974 		.ascii	"InitVectors\000"
 3060      56656374 
 3060      6F727300 
 3061              	.LASF72:
 3062 010a 76616C75 		.ascii	"value\000"
 3062      6500
 3063              	.LASF70:
 3064 0110 563A5C6F 		.ascii	"V:\\oroca_bldc_dev\000"
 3064      726F6361 
 3064      5F626C64 
 3064      635F6465 
 3064      7600
 3065              	.LASF13:
 3066 0122 75696E74 		.ascii	"uint8_t\000"
 3066      385F7400 
 3067              	.LASF56:
 3068 012a 6F757470 		.ascii	"outputaddr\000"
 3068      75746164 
 3068      647200
 3069              	.LASF71:
 3070 0135 5F5F5245 		.ascii	"__REV\000"
 3070      5600
 3071              	.LASF47:
 3072 013b 496C656E 		.ascii	"Ilength\000"
 3072      67746800 
 3073              	.LASF62:
 3074 0143 43525950 		.ascii	"CRYP_KeyStructInit\000"
 3074      5F4B6579 
 3074      53747275 
 3074      6374496E 
ARM GAS  C:\Users\ADMINI~1\AppData\Local\Temp\ccA7kAh4.s 			page 56


 3074      697400
 3075              	.LASF76:
 3076 0156 43525950 		.ascii	"CRYP_GetFlagStatus\000"
 3076      5F476574 
 3076      466C6167 
 3076      53746174 
 3076      757300
 3077              	.LASF20:
 3078 0169 44495341 		.ascii	"DISABLE\000"
 3078      424C4500 
 3079              	.LASF54:
 3080 0171 6B657961 		.ascii	"keyaddr\000"
 3080      64647200 
 3081              	.LASF2:
 3082 0179 73686F72 		.ascii	"short int\000"
 3082      7420696E 
 3082      7400
 3083              	.LASF65:
 3084 0183 43525950 		.ascii	"CRYP_Cmd\000"
 3084      5F436D64 
 3084      00
 3085              	.LASF10:
 3086 018c 6C6F6E67 		.ascii	"long long int\000"
 3086      206C6F6E 
 3086      6720696E 
 3086      7400
 3087              	.LASF7:
 3088 019a 6C6F6E67 		.ascii	"long int\000"
 3088      20696E74 
 3088      00
 3089              	.LASF25:
 3090 01a3 4572726F 		.ascii	"ErrorStatus\000"
 3090      72537461 
 3090      74757300 
 3091              	.LASF3:
 3092 01af 5F5F7569 		.ascii	"__uint8_t\000"
 3092      6E74385F 
 3092      7400
 3093              	.LASF23:
 3094 01b9 4552524F 		.ascii	"ERROR\000"
 3094      5200
 3095              	.LASF60:
 3096 01bf 54444553 		.ascii	"TDES_CRYP_IVInitStructure\000"
 3096      5F435259 
 3096      505F4956 
 3096      496E6974 
 3096      53747275 
 3097              	.LASF26:
 3098 01d9 43525950 		.ascii	"CRYP_AlgoDir\000"
 3098      5F416C67 
 3098      6F446972 
 3098      00
 3099              	.LASF39:
 3100 01e6 43525950 		.ascii	"CRYP_KeyInitTypeDef\000"
 3100      5F4B6579 
 3100      496E6974 
 3100      54797065 
ARM GAS  C:\Users\ADMINI~1\AppData\Local\Temp\ccA7kAh4.s 			page 57


 3100      44656600 
 3101              	.LASF41:
 3102 01fa 43525950 		.ascii	"CRYP_IV0Right\000"
 3102      5F495630 
 3102      52696768 
 3102      7400
 3103              	.LASF1:
 3104 0208 756E7369 		.ascii	"unsigned char\000"
 3104      676E6564 
 3104      20636861 
 3104      7200
 3105              	.LASF51:
 3106 0216 636F756E 		.ascii	"counter\000"
 3106      74657200 
 3107              	.LASF40:
 3108 021e 43525950 		.ascii	"CRYP_IV0Left\000"
 3108      5F495630 
 3108      4C656674 
 3108      00
 3109              	.LASF68:
 3110 022b 474E5520 		.ascii	"GNU C 4.9.3 20150529 (release) [ARM/embedded-4_9-br"
 3110      4320342E 
 3110      392E3320 
 3110      32303135 
 3110      30353239 
 3111 025e 616E6368 		.ascii	"anch revision 224288] -mcpu=cortex-m4 -mfloat-abi=h"
 3111      20726576 
 3111      6973696F 
 3111      6E203232 
 3111      34323838 
 3112 0291 61726420 		.ascii	"ard -mfpu=fpv4-sp-d16 -mno-thumb-interwork -mthumb "
 3112      2D6D6670 
 3112      753D6670 
 3112      76342D73 
 3112      702D6431 
 3113 02c4 2D676764 		.ascii	"-ggdb -O2 -std=gnu99 -fomit-frame-pointer -falign-f"
 3113      62202D4F 
 3113      32202D73 
 3113      74643D67 
 3113      6E753939 
 3114 02f7 756E6374 		.ascii	"unctions=16 -ffunction-sections -fdata-sections -fn"
 3114      696F6E73 
 3114      3D313620 
 3114      2D666675 
 3114      6E637469 
 3115 032a 6F2D636F 		.ascii	"o-common -fsingle-precision-constant\000"
 3115      6D6D6F6E 
 3115      202D6673 
 3115      696E676C 
 3115      652D7072 
 3116              	.LASF0:
 3117 034f 7369676E 		.ascii	"signed char\000"
 3117      65642063 
 3117      68617200 
 3118              	.LASF11:
 3119 035b 6C6F6E67 		.ascii	"long long unsigned int\000"
 3119      206C6F6E 
ARM GAS  C:\Users\ADMINI~1\AppData\Local\Temp\ccA7kAh4.s 			page 58


 3119      6720756E 
 3119      7369676E 
 3119      65642069 
 3120              	.LASF77:
 3121 0372 43525950 		.ascii	"CRYP_DataOut\000"
 3121      5F446174 
 3121      614F7574 
 3121      00
 3122              	.LASF16:
 3123 037f 75696E74 		.ascii	"uint32_t\000"
 3123      33325F74 
 3123      00
 3124              	.LASF12:
 3125 0388 756E7369 		.ascii	"unsigned int\000"
 3125      676E6564 
 3125      20696E74 
 3125      00
 3126              	.LASF14:
 3127 0395 75696E74 		.ascii	"uint16_t\000"
 3127      31365F74 
 3127      00
 3128              	.LASF31:
 3129 039e 43525950 		.ascii	"CRYP_Key0Left\000"
 3129      5F4B6579 
 3129      304C6566 
 3129      7400
 3130              	.LASF28:
 3131 03ac 43525950 		.ascii	"CRYP_DataType\000"
 3131      5F446174 
 3131      61547970 
 3131      6500
 3132              	.LASF35:
 3133 03ba 43525950 		.ascii	"CRYP_Key2Left\000"
 3133      5F4B6579 
 3133      324C6566 
 3133      7400
 3134              	.LASF24:
 3135 03c8 53554343 		.ascii	"SUCCESS\000"
 3135      45535300 
 3136              	.LASF5:
 3137 03d0 73686F72 		.ascii	"short unsigned int\000"
 3137      7420756E 
 3137      7369676E 
 3137      65642069 
 3137      6E7400
 3138              	.LASF53:
 3139 03e3 73746174 		.ascii	"status\000"
 3139      757300
 3140              	.LASF37:
 3141 03ea 43525950 		.ascii	"CRYP_Key3Left\000"
 3141      5F4B6579 
 3141      334C6566 
 3141      7400
 3142              	.LASF66:
 3143 03f8 43525950 		.ascii	"CRYP_DataIn\000"
 3143      5F446174 
 3143      61496E00 
ARM GAS  C:\Users\ADMINI~1\AppData\Local\Temp\ccA7kAh4.s 			page 59


 3144              	.LASF15:
 3145 0404 696E7433 		.ascii	"int32_t\000"
 3145      325F7400 
 3146              	.LASF36:
 3147 040c 43525950 		.ascii	"CRYP_Key2Right\000"
 3147      5F4B6579 
 3147      32526967 
 3147      687400
 3148              	.LASF67:
 3149 041b 43525950 		.ascii	"CRYP_IVInit\000"
 3149      5F495649 
 3149      6E697400 
 3150              	.LASF32:
 3151 0427 43525950 		.ascii	"CRYP_Key0Right\000"
 3151      5F4B6579 
 3151      30526967 
 3151      687400
 3152              	.LASF57:
 3153 0436 43525950 		.ascii	"CRYP_TDES_ECB\000"
 3153      5F544445 
 3153      535F4543 
 3153      4200
 3154              	.LASF29:
 3155 0444 43525950 		.ascii	"CRYP_KeySize\000"
 3155      5F4B6579 
 3155      53697A65 
 3155      00
 3156              	.LASF9:
 3157 0451 6C6F6E67 		.ascii	"long unsigned int\000"
 3157      20756E73 
 3157      69676E65 
 3157      6420696E 
 3157      7400
 3158              	.LASF52:
 3159 0463 62757379 		.ascii	"busystatus\000"
 3159      73746174 
 3159      757300
 3160              	.LASF22:
 3161 046e 46756E63 		.ascii	"FunctionalState\000"
 3161      74696F6E 
 3161      616C5374 
 3161      61746500 
 3162              	.LASF6:
 3163 047e 5F5F696E 		.ascii	"__int32_t\000"
 3163      7433325F 
 3163      7400
 3164              	.LASF18:
 3165 0488 52455345 		.ascii	"RESET\000"
 3165      5400
 3166              	.LASF42:
 3167 048e 43525950 		.ascii	"CRYP_IV1Left\000"
 3167      5F495631 
 3167      4C656674 
 3167      00
 3168              	.LASF75:
 3169 049b 43525950 		.ascii	"CRYP_FIFOFlush\000"
 3169      5F464946 
ARM GAS  C:\Users\ADMINI~1\AppData\Local\Temp\ccA7kAh4.s 			page 60


 3169      4F466C75 
 3169      736800
 3170              	.LASF45:
 3171 04aa 4D6F6465 		.ascii	"Mode\000"
 3171      00
 3172              	.LASF46:
 3173 04af 496E7075 		.ascii	"Input\000"
 3173      7400
 3174              	.LASF33:
 3175 04b5 43525950 		.ascii	"CRYP_Key1Left\000"
 3175      5F4B6579 
 3175      314C6566 
 3175      7400
 3176              	.LASF74:
 3177 04c3 49544D5F 		.ascii	"ITM_RxBuffer\000"
 3177      52784275 
 3177      66666572 
 3177      00
 3178              	.LASF58:
 3179 04d0 43525950 		.ascii	"CRYP_TDES_CBC\000"
 3179      5F544445 
 3179      535F4342 
 3179      4300
 3180              	.LASF63:
 3181 04de 43525950 		.ascii	"CRYP_Init\000"
 3181      5F496E69 
 3181      7400
 3182              	.LASF19:
 3183 04e8 466C6167 		.ascii	"FlagStatus\000"
 3183      53746174 
 3183      757300
 3184              	.LASF43:
 3185 04f3 43525950 		.ascii	"CRYP_IV1Right\000"
 3185      5F495631 
 3185      52696768 
 3185      7400
 3186              	.LASF21:
 3187 0501 454E4142 		.ascii	"ENABLE\000"
 3187      4C4500
 3188              	.LASF27:
 3189 0508 43525950 		.ascii	"CRYP_AlgoMode\000"
 3189      5F416C67 
 3189      6F4D6F64 
 3189      6500
 3190              		.ident	"GCC: (GNU Tools for ARM Embedded Processors) 4.9.3 20150529 (release) [ARM/embedded-4_9-br
ARM GAS  C:\Users\ADMINI~1\AppData\Local\Temp\ccA7kAh4.s 			page 61


DEFINED SYMBOLS
                            *ABS*:00000000 stm32f4xx_cryp_tdes.c
C:\Users\ADMINI~1\AppData\Local\Temp\ccA7kAh4.s:21     .text.CRYP_TDES_ECB:00000000 $t
C:\Users\ADMINI~1\AppData\Local\Temp\ccA7kAh4.s:27     .text.CRYP_TDES_ECB:00000000 CRYP_TDES_ECB
C:\Users\ADMINI~1\AppData\Local\Temp\ccA7kAh4.s:277    .text.CRYP_TDES_CBC:00000000 $t
C:\Users\ADMINI~1\AppData\Local\Temp\ccA7kAh4.s:283    .text.CRYP_TDES_CBC:00000000 CRYP_TDES_CBC
                     .debug_frame:00000010 $d

UNDEFINED SYMBOLS
CRYP_KeyStructInit
CRYP_Init
CRYP_KeyInit
CRYP_FIFOFlush
CRYP_Cmd
CRYP_DataIn
CRYP_GetFlagStatus
CRYP_DataOut
CRYP_IVInit
