ARM GAS  C:\Users\jsyoon\AppData\Local\Temp\cc7861fK.s 			page 1


   1              		.syntax unified
   2              		.cpu cortex-m4
   3              		.eabi_attribute 27, 3
   4              		.eabi_attribute 28, 1
   5              		.fpu fpv4-sp-d16
   6              		.eabi_attribute 20, 1
   7              		.eabi_attribute 21, 1
   8              		.eabi_attribute 23, 3
   9              		.eabi_attribute 24, 1
  10              		.eabi_attribute 25, 1
  11              		.eabi_attribute 26, 1
  12              		.eabi_attribute 30, 2
  13              		.eabi_attribute 34, 1
  14              		.eabi_attribute 18, 4
  15              		.thumb
  16              		.file	"stm32f4xx_usart.c"
  17              		.text
  18              	.Ltext0:
  19              		.cfi_sections	.debug_frame
  20              		.section	.text.USART_DeInit,"ax",%progbits
  21              		.align	2
  22              		.p2align 4,,15
  23              		.global	USART_DeInit
  24              		.thumb
  25              		.thumb_func
  26              		.type	USART_DeInit, %function
  27              	USART_DeInit:
  28              	.LFB111:
  29              		.file 1 "ChibiOS_2.6.6/ext/stdperiph_stm32f4/src/stm32f4xx_usart.c"
  30              		.loc 1 185 0
  31              		.cfi_startproc
  32              		@ args = 0, pretend = 0, frame = 0
  33              		@ frame_needed = 0, uses_anonymous_args = 0
  34              	.LVL0:
  35 0000 08B5     		push	{r3, lr}
  36              		.cfi_def_cfa_offset 8
  37              		.cfi_offset 3, -8
  38              		.cfi_offset 14, -4
  39              		.loc 1 189 0
  40 0002 2B4B     		ldr	r3, .L15
  41 0004 9842     		cmp	r0, r3
  42 0006 19D0     		beq	.L9
  43              		.loc 1 194 0
  44 0008 2A4B     		ldr	r3, .L15+4
  45 000a 9842     		cmp	r0, r3
  46 000c 20D0     		beq	.L10
  47              		.loc 1 199 0
  48 000e 2A4B     		ldr	r3, .L15+8
  49 0010 9842     		cmp	r0, r3
  50 0012 29D0     		beq	.L11
  51              		.loc 1 204 0
  52 0014 294B     		ldr	r3, .L15+12
  53 0016 9842     		cmp	r0, r3
  54 0018 32D0     		beq	.L12
  55              		.loc 1 209 0
  56 001a 294B     		ldr	r3, .L15+16
  57 001c 9842     		cmp	r0, r3
ARM GAS  C:\Users\jsyoon\AppData\Local\Temp\cc7861fK.s 			page 2


  58 001e 3BD0     		beq	.L13
  59              		.loc 1 216 0
  60 0020 284B     		ldr	r3, .L15+20
  61 0022 9842     		cmp	r0, r3
  62 0024 00D0     		beq	.L14
  63 0026 08BD     		pop	{r3, pc}
  64              	.L14:
  65              		.loc 1 218 0
  66 0028 2020     		movs	r0, #32
  67              	.LVL1:
  68 002a 0121     		movs	r1, #1
  69 002c FFF7FEFF 		bl	RCC_APB2PeriphResetCmd
  70              	.LVL2:
  71              		.loc 1 219 0
  72 0030 2020     		movs	r0, #32
  73 0032 0021     		movs	r1, #0
  74              		.loc 1 222 0
  75 0034 BDE80840 		pop	{r3, lr}
  76              		.loc 1 219 0
  77 0038 FFF7FEBF 		b	RCC_APB2PeriphResetCmd
  78              	.LVL3:
  79              	.L9:
  80              		.loc 1 191 0
  81 003c 1020     		movs	r0, #16
  82              	.LVL4:
  83 003e 0121     		movs	r1, #1
  84 0040 FFF7FEFF 		bl	RCC_APB2PeriphResetCmd
  85              	.LVL5:
  86              		.loc 1 192 0
  87 0044 1020     		movs	r0, #16
  88 0046 0021     		movs	r1, #0
  89              		.loc 1 222 0
  90 0048 BDE80840 		pop	{r3, lr}
  91              		.loc 1 192 0
  92 004c FFF7FEBF 		b	RCC_APB2PeriphResetCmd
  93              	.LVL6:
  94              	.L10:
  95              		.loc 1 196 0
  96 0050 4FF40030 		mov	r0, #131072
  97              	.LVL7:
  98 0054 0121     		movs	r1, #1
  99 0056 FFF7FEFF 		bl	RCC_APB1PeriphResetCmd
 100              	.LVL8:
 101              		.loc 1 197 0
 102 005a 4FF40030 		mov	r0, #131072
 103 005e 0021     		movs	r1, #0
 104              		.loc 1 222 0
 105 0060 BDE80840 		pop	{r3, lr}
 106              		.loc 1 197 0
 107 0064 FFF7FEBF 		b	RCC_APB1PeriphResetCmd
 108              	.LVL9:
 109              	.L11:
 110              		.loc 1 201 0
 111 0068 4FF48020 		mov	r0, #262144
 112              	.LVL10:
 113 006c 0121     		movs	r1, #1
 114 006e FFF7FEFF 		bl	RCC_APB1PeriphResetCmd
ARM GAS  C:\Users\jsyoon\AppData\Local\Temp\cc7861fK.s 			page 3


 115              	.LVL11:
 116              		.loc 1 202 0
 117 0072 4FF48020 		mov	r0, #262144
 118 0076 0021     		movs	r1, #0
 119              		.loc 1 222 0
 120 0078 BDE80840 		pop	{r3, lr}
 121              		.loc 1 202 0
 122 007c FFF7FEBF 		b	RCC_APB1PeriphResetCmd
 123              	.LVL12:
 124              	.L12:
 125              		.loc 1 206 0
 126 0080 4FF40020 		mov	r0, #524288
 127              	.LVL13:
 128 0084 0121     		movs	r1, #1
 129 0086 FFF7FEFF 		bl	RCC_APB1PeriphResetCmd
 130              	.LVL14:
 131              		.loc 1 207 0
 132 008a 4FF40020 		mov	r0, #524288
 133 008e 0021     		movs	r1, #0
 134              		.loc 1 222 0
 135 0090 BDE80840 		pop	{r3, lr}
 136              		.loc 1 207 0
 137 0094 FFF7FEBF 		b	RCC_APB1PeriphResetCmd
 138              	.LVL15:
 139              	.L13:
 140              		.loc 1 211 0
 141 0098 4FF48010 		mov	r0, #1048576
 142              	.LVL16:
 143 009c 0121     		movs	r1, #1
 144 009e FFF7FEFF 		bl	RCC_APB1PeriphResetCmd
 145              	.LVL17:
 146              		.loc 1 212 0
 147 00a2 4FF48010 		mov	r0, #1048576
 148 00a6 0021     		movs	r1, #0
 149              		.loc 1 222 0
 150 00a8 BDE80840 		pop	{r3, lr}
 151              		.loc 1 212 0
 152 00ac FFF7FEBF 		b	RCC_APB1PeriphResetCmd
 153              	.LVL18:
 154              	.L16:
 155              		.align	2
 156              	.L15:
 157 00b0 00100140 		.word	1073811456
 158 00b4 00440040 		.word	1073759232
 159 00b8 00480040 		.word	1073760256
 160 00bc 004C0040 		.word	1073761280
 161 00c0 00500040 		.word	1073762304
 162 00c4 00140140 		.word	1073812480
 163              		.cfi_endproc
 164              	.LFE111:
 165              		.size	USART_DeInit, .-USART_DeInit
 166 00c8 AFF30080 		.section	.text.USART_Init,"ax",%progbits
 166      AFF30080 
 167              		.align	2
 168              		.p2align 4,,15
 169              		.global	USART_Init
 170              		.thumb
ARM GAS  C:\Users\jsyoon\AppData\Local\Temp\cc7861fK.s 			page 4


 171              		.thumb_func
 172              		.type	USART_Init, %function
 173              	USART_Init:
 174              	.LFB112:
 175              		.loc 1 234 0
 176              		.cfi_startproc
 177              		@ args = 0, pretend = 0, frame = 16
 178              		@ frame_needed = 0, uses_anonymous_args = 0
 179              	.LVL19:
 180 0000 F0B5     		push	{r4, r5, r6, r7, lr}
 181              		.cfi_def_cfa_offset 20
 182              		.cfi_offset 4, -20
 183              		.cfi_offset 5, -16
 184              		.cfi_offset 6, -12
 185              		.cfi_offset 7, -8
 186              		.cfi_offset 14, -4
 187 0002 0D46     		mov	r5, r1
 188              		.loc 1 256 0
 189 0004 018A     		ldrh	r1, [r0, #16]
 190              	.LVL20:
 191              		.loc 1 263 0
 192 0006 EF88     		ldrh	r7, [r5, #6]
 193              		.loc 1 278 0
 194 0008 2E89     		ldrh	r6, [r5, #8]
 195 000a AB88     		ldrh	r3, [r5, #4]
 196              		.loc 1 292 0
 197 000c AA89     		ldrh	r2, [r5, #12]
 198              		.loc 1 256 0
 199 000e 89B2     		uxth	r1, r1
 200              	.LVL21:
 201              		.loc 1 234 0
 202 0010 0446     		mov	r4, r0
 203              		.loc 1 259 0
 204 0012 21F44051 		bic	r1, r1, #12288
 205              	.LVL22:
 206              		.loc 1 266 0
 207 0016 3943     		orrs	r1, r1, r7
 208              	.LVL23:
 209              		.loc 1 278 0
 210 0018 6889     		ldrh	r0, [r5, #10]
 211              	.LVL24:
 212              		.loc 1 266 0
 213 001a 2182     		strh	r1, [r4, #16]	@ movhi
 214              		.loc 1 269 0
 215 001c A189     		ldrh	r1, [r4, #12]
 216              	.LVL25:
 217              		.loc 1 278 0
 218 001e 3343     		orrs	r3, r3, r6
 219              		.loc 1 269 0
 220 0020 89B2     		uxth	r1, r1
 221              	.LVL26:
 222              		.loc 1 278 0
 223 0022 0343     		orrs	r3, r3, r0
 224              		.loc 1 272 0
 225 0024 21F4B051 		bic	r1, r1, #5632
 226              	.LVL27:
 227 0028 21F00C01 		bic	r1, r1, #12
ARM GAS  C:\Users\jsyoon\AppData\Local\Temp\cc7861fK.s 			page 5


 228              	.LVL28:
 229              		.loc 1 278 0
 230 002c 9BB2     		uxth	r3, r3
 231              		.loc 1 282 0
 232 002e 0B43     		orrs	r3, r3, r1
 233 0030 A381     		strh	r3, [r4, #12]	@ movhi
 234              	.LVL29:
 235              		.loc 1 285 0
 236 0032 A38A     		ldrh	r3, [r4, #20]
 237 0034 9BB2     		uxth	r3, r3
 238              	.LVL30:
 239              		.loc 1 288 0
 240 0036 23F44073 		bic	r3, r3, #768
 241              	.LVL31:
 242              		.loc 1 295 0
 243 003a 1343     		orrs	r3, r3, r2
 244              	.LVL32:
 245              		.loc 1 234 0
 246 003c 85B0     		sub	sp, sp, #20
 247              		.cfi_def_cfa_offset 40
 248              		.loc 1 295 0
 249 003e A382     		strh	r3, [r4, #20]	@ movhi
 250              		.loc 1 299 0
 251 0040 6846     		mov	r0, sp
 252 0042 FFF7FEFF 		bl	RCC_GetClocksFreq
 253              	.LVL33:
 254              		.loc 1 301 0
 255 0046 1D4B     		ldr	r3, .L26
 256 0048 9C42     		cmp	r4, r3
 257 004a 29D0     		beq	.L18
 258              		.loc 1 301 0 is_stmt 0 discriminator 1
 259 004c 03F58063 		add	r3, r3, #1024
 260 0050 9C42     		cmp	r4, r3
 261 0052 25D0     		beq	.L18
 262              		.loc 1 307 0 is_stmt 1
 263 0054 029B     		ldr	r3, [sp, #8]
 264              	.LVL34:
 265              	.L20:
 266              		.loc 1 311 0
 267 0056 A289     		ldrh	r2, [r4, #12]
 268              		.loc 1 314 0
 269 0058 2968     		ldr	r1, [r5]
 270              		.loc 1 327 0
 271 005a A089     		ldrh	r0, [r4, #12]
 272              		.loc 1 311 0
 273 005c 12B2     		sxth	r2, r2
 274 005e 002A     		cmp	r2, #0
 275              		.loc 1 314 0
 276 0060 03EB8303 		add	r3, r3, r3, lsl #2
 277              	.LVL35:
 278 0064 B4BF     		ite	lt
 279 0066 4900     		lsllt	r1, r1, #1
 280              		.loc 1 319 0
 281 0068 8900     		lslge	r1, r1, #2
 282 006a 03EB8303 		add	r3, r3, r3, lsl #2
 283 006e B3FBF1F2 		udiv	r2, r3, r1
 284              	.LVL36:
ARM GAS  C:\Users\jsyoon\AppData\Local\Temp\cc7861fK.s 			page 6


 285              		.loc 1 321 0
 286 0072 1349     		ldr	r1, .L26+4
 287              		.loc 1 327 0
 288 0074 00B2     		sxth	r0, r0
 289              		.loc 1 321 0
 290 0076 A1FB0253 		umull	r5, r3, r1, r2
 291              	.LVL37:
 292 007a 5B09     		lsrs	r3, r3, #5
 293              	.LVL38:
 294              		.loc 1 324 0
 295 007c 6425     		movs	r5, #100
 296              		.loc 1 327 0
 297 007e 0028     		cmp	r0, #0
 298              		.loc 1 324 0
 299 0080 03FB1522 		mls	r2, r3, r5, r2
 300              	.LVL39:
 301 0084 4FEA0313 		lsl	r3, r3, #4
 302              	.LVL40:
 303              		.loc 1 327 0
 304 0088 0CDB     		blt	.L25
 305              		.loc 1 333 0
 306 008a 1201     		lsls	r2, r2, #4
 307              	.LVL41:
 308 008c 3232     		adds	r2, r2, #50
 309 008e A1FB0251 		umull	r5, r1, r1, r2
 310 0092 C1F34311 		ubfx	r1, r1, #5, #4
 311 0096 0B43     		orrs	r3, r3, r1
 312              	.LVL42:
 313              		.loc 1 337 0
 314 0098 9BB2     		uxth	r3, r3
 315              	.LVL43:
 316 009a 2381     		strh	r3, [r4, #8]	@ movhi
 317              		.loc 1 338 0
 318 009c 05B0     		add	sp, sp, #20
 319              		@ sp needed
 320 009e F0BD     		pop	{r4, r5, r6, r7, pc}
 321              	.LVL44:
 322              	.L18:
 323              		.loc 1 303 0
 324 00a0 039B     		ldr	r3, [sp, #12]
 325              	.LVL45:
 326 00a2 D8E7     		b	.L20
 327              	.LVL46:
 328              	.L25:
 329              		.loc 1 329 0
 330 00a4 D200     		lsls	r2, r2, #3
 331              	.LVL47:
 332 00a6 3232     		adds	r2, r2, #50
 333 00a8 A1FB0201 		umull	r0, r1, r1, r2
 334 00ac C1F34211 		ubfx	r1, r1, #5, #3
 335 00b0 0B43     		orrs	r3, r3, r1
 336              	.LVL48:
 337              		.loc 1 337 0
 338 00b2 9BB2     		uxth	r3, r3
 339              	.LVL49:
 340 00b4 2381     		strh	r3, [r4, #8]	@ movhi
 341              		.loc 1 338 0
ARM GAS  C:\Users\jsyoon\AppData\Local\Temp\cc7861fK.s 			page 7


 342 00b6 05B0     		add	sp, sp, #20
 343              		@ sp needed
 344 00b8 F0BD     		pop	{r4, r5, r6, r7, pc}
 345              	.LVL50:
 346              	.L27:
 347 00ba 00BF     		.align	2
 348              	.L26:
 349 00bc 00100140 		.word	1073811456
 350 00c0 1F85EB51 		.word	1374389535
 351              		.cfi_endproc
 352              	.LFE112:
 353              		.size	USART_Init, .-USART_Init
 354 00c4 AFF30080 		.section	.text.USART_StructInit,"ax",%progbits
 354      AFF30080 
 354      AFF30080 
 355              		.align	2
 356              		.p2align 4,,15
 357              		.global	USART_StructInit
 358              		.thumb
 359              		.thumb_func
 360              		.type	USART_StructInit, %function
 361              	USART_StructInit:
 362              	.LFB113:
 363              		.loc 1 347 0
 364              		.cfi_startproc
 365              		@ args = 0, pretend = 0, frame = 0
 366              		@ frame_needed = 0, uses_anonymous_args = 0
 367              		@ link register save eliminated.
 368              	.LVL51:
 369              		.loc 1 350 0
 370 0000 0023     		movs	r3, #0
 371              		.loc 1 349 0
 372 0002 4FF41651 		mov	r1, #9600
 373              		.loc 1 353 0
 374 0006 0C22     		movs	r2, #12
 375              		.loc 1 349 0
 376 0008 0160     		str	r1, [r0]
 377              		.loc 1 353 0
 378 000a 4281     		strh	r2, [r0, #10]	@ movhi
 379              		.loc 1 350 0
 380 000c 8380     		strh	r3, [r0, #4]	@ movhi
 381              		.loc 1 351 0
 382 000e C380     		strh	r3, [r0, #6]	@ movhi
 383              		.loc 1 352 0
 384 0010 0381     		strh	r3, [r0, #8]	@ movhi
 385              		.loc 1 354 0
 386 0012 8381     		strh	r3, [r0, #12]	@ movhi
 387 0014 7047     		bx	lr
 388              		.cfi_endproc
 389              	.LFE113:
 390              		.size	USART_StructInit, .-USART_StructInit
 391 0016 00BFAFF3 		.section	.text.USART_ClockInit,"ax",%progbits
 391      0080AFF3 
 391      0080
 392              		.align	2
 393              		.p2align 4,,15
 394              		.global	USART_ClockInit
ARM GAS  C:\Users\jsyoon\AppData\Local\Temp\cc7861fK.s 			page 8


 395              		.thumb
 396              		.thumb_func
 397              		.type	USART_ClockInit, %function
 398              	USART_ClockInit:
 399              	.LFB114:
 400              		.loc 1 367 0
 401              		.cfi_startproc
 402              		@ args = 0, pretend = 0, frame = 0
 403              		@ frame_needed = 0, uses_anonymous_args = 0
 404              		@ link register save eliminated.
 405              	.LVL52:
 406 0000 30B4     		push	{r4, r5}
 407              		.cfi_def_cfa_offset 8
 408              		.cfi_offset 4, -8
 409              		.cfi_offset 5, -4
 410              		.loc 1 386 0
 411 0002 0A88     		ldrh	r2, [r1]
 412 0004 4D88     		ldrh	r5, [r1, #2]
 413 0006 8C88     		ldrh	r4, [r1, #4]
 414              		.loc 1 377 0
 415 0008 038A     		ldrh	r3, [r0, #16]
 416              		.loc 1 386 0
 417 000a C988     		ldrh	r1, [r1, #6]
 418              	.LVL53:
 419 000c 2A43     		orrs	r2, r2, r5
 420 000e 2243     		orrs	r2, r2, r4
 421 0010 0A43     		orrs	r2, r2, r1
 422              		.loc 1 377 0
 423 0012 9BB2     		uxth	r3, r3
 424              	.LVL54:
 425              		.loc 1 386 0
 426 0014 92B2     		uxth	r2, r2
 427              		.loc 1 379 0
 428 0016 23F47063 		bic	r3, r3, #3840
 429              	.LVL55:
 430              		.loc 1 388 0
 431 001a 1343     		orrs	r3, r3, r2
 432              	.LVL56:
 433 001c 0382     		strh	r3, [r0, #16]	@ movhi
 434              		.loc 1 389 0
 435 001e 30BC     		pop	{r4, r5}
 436 0020 7047     		bx	lr
 437              		.cfi_endproc
 438              	.LFE114:
 439              		.size	USART_ClockInit, .-USART_ClockInit
 440 0022 00BFAFF3 		.section	.text.USART_ClockStructInit,"ax",%progbits
 440      0080AFF3 
 440      0080AFF3 
 440      0080
 441              		.align	2
 442              		.p2align 4,,15
 443              		.global	USART_ClockStructInit
 444              		.thumb
 445              		.thumb_func
 446              		.type	USART_ClockStructInit, %function
 447              	USART_ClockStructInit:
 448              	.LFB115:
ARM GAS  C:\Users\jsyoon\AppData\Local\Temp\cc7861fK.s 			page 9


 449              		.loc 1 398 0
 450              		.cfi_startproc
 451              		@ args = 0, pretend = 0, frame = 0
 452              		@ frame_needed = 0, uses_anonymous_args = 0
 453              		@ link register save eliminated.
 454              	.LVL57:
 455              		.loc 1 400 0
 456 0000 0023     		movs	r3, #0
 457 0002 0380     		strh	r3, [r0]	@ movhi
 458              		.loc 1 401 0
 459 0004 4380     		strh	r3, [r0, #2]	@ movhi
 460              		.loc 1 402 0
 461 0006 8380     		strh	r3, [r0, #4]	@ movhi
 462              		.loc 1 403 0
 463 0008 C380     		strh	r3, [r0, #6]	@ movhi
 464 000a 7047     		bx	lr
 465              		.cfi_endproc
 466              	.LFE115:
 467              		.size	USART_ClockStructInit, .-USART_ClockStructInit
 468 000c AFF30080 		.section	.text.USART_Cmd,"ax",%progbits
 469              		.align	2
 470              		.p2align 4,,15
 471              		.global	USART_Cmd
 472              		.thumb
 473              		.thumb_func
 474              		.type	USART_Cmd, %function
 475              	USART_Cmd:
 476              	.LFB116:
 477              		.loc 1 415 0
 478              		.cfi_startproc
 479              		@ args = 0, pretend = 0, frame = 0
 480              		@ frame_needed = 0, uses_anonymous_args = 0
 481              		@ link register save eliminated.
 482              	.LVL58:
 483              		.loc 1 423 0
 484 0000 8389     		ldrh	r3, [r0, #12]
 485              		.loc 1 420 0
 486 0002 29B9     		cbnz	r1, .L34
 487              		.loc 1 428 0
 488 0004 23F40053 		bic	r3, r3, #8192
 489 0008 1B04     		lsls	r3, r3, #16
 490 000a 1B0C     		lsrs	r3, r3, #16
 491 000c 8381     		strh	r3, [r0, #12]	@ movhi
 492 000e 7047     		bx	lr
 493              	.L34:
 494              		.loc 1 423 0
 495 0010 9BB2     		uxth	r3, r3
 496 0012 43F40053 		orr	r3, r3, #8192
 497 0016 8381     		strh	r3, [r0, #12]	@ movhi
 498 0018 7047     		bx	lr
 499              		.cfi_endproc
 500              	.LFE116:
 501              		.size	USART_Cmd, .-USART_Cmd
 502 001a 00BFAFF3 		.section	.text.USART_SetPrescaler,"ax",%progbits
 502      0080
 503              		.align	2
 504              		.p2align 4,,15
ARM GAS  C:\Users\jsyoon\AppData\Local\Temp\cc7861fK.s 			page 10


 505              		.global	USART_SetPrescaler
 506              		.thumb
 507              		.thumb_func
 508              		.type	USART_SetPrescaler, %function
 509              	USART_SetPrescaler:
 510              	.LFB117:
 511              		.loc 1 441 0
 512              		.cfi_startproc
 513              		@ args = 0, pretend = 0, frame = 0
 514              		@ frame_needed = 0, uses_anonymous_args = 0
 515              		@ link register save eliminated.
 516              	.LVL59:
 517              		.loc 1 446 0
 518 0000 038B     		ldrh	r3, [r0, #24]
 519 0002 03F47F43 		and	r3, r3, #65280
 520 0006 0383     		strh	r3, [r0, #24]	@ movhi
 521              		.loc 1 448 0
 522 0008 038B     		ldrh	r3, [r0, #24]
 523 000a 9BB2     		uxth	r3, r3
 524 000c 1943     		orrs	r1, r1, r3
 525              	.LVL60:
 526 000e 0183     		strh	r1, [r0, #24]	@ movhi
 527 0010 7047     		bx	lr
 528              		.cfi_endproc
 529              	.LFE117:
 530              		.size	USART_SetPrescaler, .-USART_SetPrescaler
 531 0012 00BFAFF3 		.section	.text.USART_OverSampling8Cmd,"ax",%progbits
 531      0080AFF3 
 531      0080AFF3 
 531      0080
 532              		.align	2
 533              		.p2align 4,,15
 534              		.global	USART_OverSampling8Cmd
 535              		.thumb
 536              		.thumb_func
 537              		.type	USART_OverSampling8Cmd, %function
 538              	USART_OverSampling8Cmd:
 539              	.LFB118:
 540              		.loc 1 462 0
 541              		.cfi_startproc
 542              		@ args = 0, pretend = 0, frame = 0
 543              		@ frame_needed = 0, uses_anonymous_args = 0
 544              		@ link register save eliminated.
 545              	.LVL61:
 546              		.loc 1 470 0
 547 0000 8389     		ldrh	r3, [r0, #12]
 548              		.loc 1 467 0
 549 0002 19B9     		cbnz	r1, .L39
 550              		.loc 1 475 0
 551 0004 C3F30E03 		ubfx	r3, r3, #0, #15
 552 0008 8381     		strh	r3, [r0, #12]	@ movhi
 553 000a 7047     		bx	lr
 554              	.L39:
 555              		.loc 1 470 0
 556 000c 6FEA4343 		mvn	r3, r3, lsl #17
 557 0010 6FEA5343 		mvn	r3, r3, lsr #17
 558 0014 9BB2     		uxth	r3, r3
ARM GAS  C:\Users\jsyoon\AppData\Local\Temp\cc7861fK.s 			page 11


 559 0016 8381     		strh	r3, [r0, #12]	@ movhi
 560 0018 7047     		bx	lr
 561              		.cfi_endproc
 562              	.LFE118:
 563              		.size	USART_OverSampling8Cmd, .-USART_OverSampling8Cmd
 564 001a 00BFAFF3 		.section	.text.USART_OneBitMethodCmd,"ax",%progbits
 564      0080
 565              		.align	2
 566              		.p2align 4,,15
 567              		.global	USART_OneBitMethodCmd
 568              		.thumb
 569              		.thumb_func
 570              		.type	USART_OneBitMethodCmd, %function
 571              	USART_OneBitMethodCmd:
 572              	.LFB119:
 573              		.loc 1 488 0
 574              		.cfi_startproc
 575              		@ args = 0, pretend = 0, frame = 0
 576              		@ frame_needed = 0, uses_anonymous_args = 0
 577              		@ link register save eliminated.
 578              	.LVL62:
 579              		.loc 1 496 0
 580 0000 838A     		ldrh	r3, [r0, #20]
 581              		.loc 1 493 0
 582 0002 29B9     		cbnz	r1, .L43
 583              		.loc 1 501 0
 584 0004 23F40063 		bic	r3, r3, #2048
 585 0008 1B04     		lsls	r3, r3, #16
 586 000a 1B0C     		lsrs	r3, r3, #16
 587 000c 8382     		strh	r3, [r0, #20]	@ movhi
 588 000e 7047     		bx	lr
 589              	.L43:
 590              		.loc 1 496 0
 591 0010 9BB2     		uxth	r3, r3
 592 0012 43F40063 		orr	r3, r3, #2048
 593 0016 8382     		strh	r3, [r0, #20]	@ movhi
 594 0018 7047     		bx	lr
 595              		.cfi_endproc
 596              	.LFE119:
 597              		.size	USART_OneBitMethodCmd, .-USART_OneBitMethodCmd
 598 001a 00BFAFF3 		.section	.text.USART_SendData,"ax",%progbits
 598      0080
 599              		.align	2
 600              		.p2align 4,,15
 601              		.global	USART_SendData
 602              		.thumb
 603              		.thumb_func
 604              		.type	USART_SendData, %function
 605              	USART_SendData:
 606              	.LFB120:
 607              		.loc 1 545 0
 608              		.cfi_startproc
 609              		@ args = 0, pretend = 0, frame = 0
 610              		@ frame_needed = 0, uses_anonymous_args = 0
 611              		@ link register save eliminated.
 612              	.LVL63:
 613              		.loc 1 551 0
ARM GAS  C:\Users\jsyoon\AppData\Local\Temp\cc7861fK.s 			page 12


 614 0000 C1F30801 		ubfx	r1, r1, #0, #9
 615              	.LVL64:
 616 0004 8180     		strh	r1, [r0, #4]	@ movhi
 617 0006 7047     		bx	lr
 618              		.cfi_endproc
 619              	.LFE120:
 620              		.size	USART_SendData, .-USART_SendData
 621 0008 AFF30080 		.section	.text.USART_ReceiveData,"ax",%progbits
 621      AFF30080 
 622              		.align	2
 623              		.p2align 4,,15
 624              		.global	USART_ReceiveData
 625              		.thumb
 626              		.thumb_func
 627              		.type	USART_ReceiveData, %function
 628              	USART_ReceiveData:
 629              	.LFB121:
 630              		.loc 1 561 0
 631              		.cfi_startproc
 632              		@ args = 0, pretend = 0, frame = 0
 633              		@ frame_needed = 0, uses_anonymous_args = 0
 634              		@ link register save eliminated.
 635              	.LVL65:
 636              		.loc 1 566 0
 637 0000 8088     		ldrh	r0, [r0, #4]
 638              	.LVL66:
 639              		.loc 1 567 0
 640 0002 C0F30800 		ubfx	r0, r0, #0, #9
 641 0006 7047     		bx	lr
 642              		.cfi_endproc
 643              	.LFE121:
 644              		.size	USART_ReceiveData, .-USART_ReceiveData
 645 0008 AFF30080 		.section	.text.USART_SetAddress,"ax",%progbits
 645      AFF30080 
 646              		.align	2
 647              		.p2align 4,,15
 648              		.global	USART_SetAddress
 649              		.thumb
 650              		.thumb_func
 651              		.type	USART_SetAddress, %function
 652              	USART_SetAddress:
 653              	.LFB122:
 654              		.loc 1 612 0
 655              		.cfi_startproc
 656              		@ args = 0, pretend = 0, frame = 0
 657              		@ frame_needed = 0, uses_anonymous_args = 0
 658              		@ link register save eliminated.
 659              	.LVL67:
 660              		.loc 1 618 0
 661 0000 038A     		ldrh	r3, [r0, #16]
 662 0002 23F00F03 		bic	r3, r3, #15
 663 0006 1B04     		lsls	r3, r3, #16
 664 0008 1B0C     		lsrs	r3, r3, #16
 665 000a 0382     		strh	r3, [r0, #16]	@ movhi
 666              		.loc 1 620 0
 667 000c 038A     		ldrh	r3, [r0, #16]
 668 000e 9BB2     		uxth	r3, r3
ARM GAS  C:\Users\jsyoon\AppData\Local\Temp\cc7861fK.s 			page 13


 669 0010 1943     		orrs	r1, r1, r3
 670              	.LVL68:
 671 0012 0182     		strh	r1, [r0, #16]	@ movhi
 672 0014 7047     		bx	lr
 673              		.cfi_endproc
 674              	.LFE122:
 675              		.size	USART_SetAddress, .-USART_SetAddress
 676 0016 00BFAFF3 		.section	.text.USART_ReceiverWakeUpCmd,"ax",%progbits
 676      0080AFF3 
 676      0080
 677              		.align	2
 678              		.p2align 4,,15
 679              		.global	USART_ReceiverWakeUpCmd
 680              		.thumb
 681              		.thumb_func
 682              		.type	USART_ReceiverWakeUpCmd, %function
 683              	USART_ReceiverWakeUpCmd:
 684              	.LFB123:
 685              		.loc 1 632 0
 686              		.cfi_startproc
 687              		@ args = 0, pretend = 0, frame = 0
 688              		@ frame_needed = 0, uses_anonymous_args = 0
 689              		@ link register save eliminated.
 690              	.LVL69:
 691              		.loc 1 640 0
 692 0000 8389     		ldrh	r3, [r0, #12]
 693              		.loc 1 637 0
 694 0002 29B9     		cbnz	r1, .L50
 695              		.loc 1 645 0
 696 0004 23F00203 		bic	r3, r3, #2
 697 0008 1B04     		lsls	r3, r3, #16
 698 000a 1B0C     		lsrs	r3, r3, #16
 699 000c 8381     		strh	r3, [r0, #12]	@ movhi
 700 000e 7047     		bx	lr
 701              	.L50:
 702              		.loc 1 640 0
 703 0010 9BB2     		uxth	r3, r3
 704 0012 43F00203 		orr	r3, r3, #2
 705 0016 8381     		strh	r3, [r0, #12]	@ movhi
 706 0018 7047     		bx	lr
 707              		.cfi_endproc
 708              	.LFE123:
 709              		.size	USART_ReceiverWakeUpCmd, .-USART_ReceiverWakeUpCmd
 710 001a 00BFAFF3 		.section	.text.USART_WakeUpConfig,"ax",%progbits
 710      0080
 711              		.align	2
 712              		.p2align 4,,15
 713              		.global	USART_WakeUpConfig
 714              		.thumb
 715              		.thumb_func
 716              		.type	USART_WakeUpConfig, %function
 717              	USART_WakeUpConfig:
 718              	.LFB124:
 719              		.loc 1 659 0
 720              		.cfi_startproc
 721              		@ args = 0, pretend = 0, frame = 0
 722              		@ frame_needed = 0, uses_anonymous_args = 0
ARM GAS  C:\Users\jsyoon\AppData\Local\Temp\cc7861fK.s 			page 14


 723              		@ link register save eliminated.
 724              	.LVL70:
 725              		.loc 1 664 0
 726 0000 8389     		ldrh	r3, [r0, #12]
 727 0002 23F40063 		bic	r3, r3, #2048
 728 0006 1B04     		lsls	r3, r3, #16
 729 0008 1B0C     		lsrs	r3, r3, #16
 730 000a 8381     		strh	r3, [r0, #12]	@ movhi
 731              		.loc 1 665 0
 732 000c 8389     		ldrh	r3, [r0, #12]
 733 000e 9BB2     		uxth	r3, r3
 734 0010 1943     		orrs	r1, r1, r3
 735              	.LVL71:
 736 0012 8181     		strh	r1, [r0, #12]	@ movhi
 737 0014 7047     		bx	lr
 738              		.cfi_endproc
 739              	.LFE124:
 740              		.size	USART_WakeUpConfig, .-USART_WakeUpConfig
 741 0016 00BFAFF3 		.section	.text.USART_LINBreakDetectLengthConfig,"ax",%progbits
 741      0080AFF3 
 741      0080
 742              		.align	2
 743              		.p2align 4,,15
 744              		.global	USART_LINBreakDetectLengthConfig
 745              		.thumb
 746              		.thumb_func
 747              		.type	USART_LINBreakDetectLengthConfig, %function
 748              	USART_LINBreakDetectLengthConfig:
 749              	.LFB125:
 750              		.loc 1 728 0
 751              		.cfi_startproc
 752              		@ args = 0, pretend = 0, frame = 0
 753              		@ frame_needed = 0, uses_anonymous_args = 0
 754              		@ link register save eliminated.
 755              	.LVL72:
 756              		.loc 1 733 0
 757 0000 038A     		ldrh	r3, [r0, #16]
 758 0002 23F02003 		bic	r3, r3, #32
 759 0006 1B04     		lsls	r3, r3, #16
 760 0008 1B0C     		lsrs	r3, r3, #16
 761 000a 0382     		strh	r3, [r0, #16]	@ movhi
 762              		.loc 1 734 0
 763 000c 038A     		ldrh	r3, [r0, #16]
 764 000e 9BB2     		uxth	r3, r3
 765 0010 1943     		orrs	r1, r1, r3
 766              	.LVL73:
 767 0012 0182     		strh	r1, [r0, #16]	@ movhi
 768 0014 7047     		bx	lr
 769              		.cfi_endproc
 770              	.LFE125:
 771              		.size	USART_LINBreakDetectLengthConfig, .-USART_LINBreakDetectLengthConfig
 772 0016 00BFAFF3 		.section	.text.USART_LINCmd,"ax",%progbits
 772      0080AFF3 
 772      0080
 773              		.align	2
 774              		.p2align 4,,15
 775              		.global	USART_LINCmd
ARM GAS  C:\Users\jsyoon\AppData\Local\Temp\cc7861fK.s 			page 15


 776              		.thumb
 777              		.thumb_func
 778              		.type	USART_LINCmd, %function
 779              	USART_LINCmd:
 780              	.LFB126:
 781              		.loc 1 746 0
 782              		.cfi_startproc
 783              		@ args = 0, pretend = 0, frame = 0
 784              		@ frame_needed = 0, uses_anonymous_args = 0
 785              		@ link register save eliminated.
 786              	.LVL74:
 787              		.loc 1 754 0
 788 0000 038A     		ldrh	r3, [r0, #16]
 789              		.loc 1 751 0
 790 0002 29B9     		cbnz	r1, .L56
 791              		.loc 1 759 0
 792 0004 23F48043 		bic	r3, r3, #16384
 793 0008 1B04     		lsls	r3, r3, #16
 794 000a 1B0C     		lsrs	r3, r3, #16
 795 000c 0382     		strh	r3, [r0, #16]	@ movhi
 796 000e 7047     		bx	lr
 797              	.L56:
 798              		.loc 1 754 0
 799 0010 9BB2     		uxth	r3, r3
 800 0012 43F48043 		orr	r3, r3, #16384
 801 0016 0382     		strh	r3, [r0, #16]	@ movhi
 802 0018 7047     		bx	lr
 803              		.cfi_endproc
 804              	.LFE126:
 805              		.size	USART_LINCmd, .-USART_LINCmd
 806 001a 00BFAFF3 		.section	.text.USART_SendBreak,"ax",%progbits
 806      0080
 807              		.align	2
 808              		.p2align 4,,15
 809              		.global	USART_SendBreak
 810              		.thumb
 811              		.thumb_func
 812              		.type	USART_SendBreak, %function
 813              	USART_SendBreak:
 814              	.LFB127:
 815              		.loc 1 770 0
 816              		.cfi_startproc
 817              		@ args = 0, pretend = 0, frame = 0
 818              		@ frame_needed = 0, uses_anonymous_args = 0
 819              		@ link register save eliminated.
 820              	.LVL75:
 821              		.loc 1 775 0
 822 0000 8389     		ldrh	r3, [r0, #12]
 823 0002 9BB2     		uxth	r3, r3
 824 0004 43F00103 		orr	r3, r3, #1
 825 0008 8381     		strh	r3, [r0, #12]	@ movhi
 826 000a 7047     		bx	lr
 827              		.cfi_endproc
 828              	.LFE127:
 829              		.size	USART_SendBreak, .-USART_SendBreak
 830              		.section	.text.USART_HalfDuplexCmd,"ax",%progbits
 831              		.align	2
ARM GAS  C:\Users\jsyoon\AppData\Local\Temp\cc7861fK.s 			page 16


 832              		.p2align 4,,15
 833              		.global	USART_HalfDuplexCmd
 834              		.thumb
 835              		.thumb_func
 836              		.type	USART_HalfDuplexCmd, %function
 837              	USART_HalfDuplexCmd:
 838              	.LFB128:
 839              		.loc 1 823 0
 840              		.cfi_startproc
 841              		@ args = 0, pretend = 0, frame = 0
 842              		@ frame_needed = 0, uses_anonymous_args = 0
 843              		@ link register save eliminated.
 844              	.LVL76:
 845              		.loc 1 831 0
 846 0000 838A     		ldrh	r3, [r0, #20]
 847              		.loc 1 828 0
 848 0002 29B9     		cbnz	r1, .L61
 849              		.loc 1 836 0
 850 0004 23F00803 		bic	r3, r3, #8
 851 0008 1B04     		lsls	r3, r3, #16
 852 000a 1B0C     		lsrs	r3, r3, #16
 853 000c 8382     		strh	r3, [r0, #20]	@ movhi
 854 000e 7047     		bx	lr
 855              	.L61:
 856              		.loc 1 831 0
 857 0010 9BB2     		uxth	r3, r3
 858 0012 43F00803 		orr	r3, r3, #8
 859 0016 8382     		strh	r3, [r0, #20]	@ movhi
 860 0018 7047     		bx	lr
 861              		.cfi_endproc
 862              	.LFE128:
 863              		.size	USART_HalfDuplexCmd, .-USART_HalfDuplexCmd
 864 001a 00BFAFF3 		.section	.text.USART_SetGuardTime,"ax",%progbits
 864      0080
 865              		.align	2
 866              		.p2align 4,,15
 867              		.global	USART_SetGuardTime
 868              		.thumb
 869              		.thumb_func
 870              		.type	USART_SetGuardTime, %function
 871              	USART_SetGuardTime:
 872              	.LFB129:
 873              		.loc 1 908 0
 874              		.cfi_startproc
 875              		@ args = 0, pretend = 0, frame = 0
 876              		@ frame_needed = 0, uses_anonymous_args = 0
 877              		@ link register save eliminated.
 878              	.LVL77:
 879              		.loc 1 913 0
 880 0000 038B     		ldrh	r3, [r0, #24]
 881 0002 DBB2     		uxtb	r3, r3
 882 0004 0383     		strh	r3, [r0, #24]	@ movhi
 883              		.loc 1 915 0
 884 0006 038B     		ldrh	r3, [r0, #24]
 885 0008 9BB2     		uxth	r3, r3
 886 000a 43EA0121 		orr	r1, r3, r1, lsl #8
 887              	.LVL78:
ARM GAS  C:\Users\jsyoon\AppData\Local\Temp\cc7861fK.s 			page 17


 888 000e 0183     		strh	r1, [r0, #24]	@ movhi
 889 0010 7047     		bx	lr
 890              		.cfi_endproc
 891              	.LFE129:
 892              		.size	USART_SetGuardTime, .-USART_SetGuardTime
 893 0012 00BFAFF3 		.section	.text.USART_SmartCardCmd,"ax",%progbits
 893      0080AFF3 
 893      0080AFF3 
 893      0080
 894              		.align	2
 895              		.p2align 4,,15
 896              		.global	USART_SmartCardCmd
 897              		.thumb
 898              		.thumb_func
 899              		.type	USART_SmartCardCmd, %function
 900              	USART_SmartCardCmd:
 901              	.LFB130:
 902              		.loc 1 927 0
 903              		.cfi_startproc
 904              		@ args = 0, pretend = 0, frame = 0
 905              		@ frame_needed = 0, uses_anonymous_args = 0
 906              		@ link register save eliminated.
 907              	.LVL79:
 908              		.loc 1 934 0
 909 0000 838A     		ldrh	r3, [r0, #20]
 910              		.loc 1 931 0
 911 0002 29B9     		cbnz	r1, .L66
 912              		.loc 1 939 0
 913 0004 23F02003 		bic	r3, r3, #32
 914 0008 1B04     		lsls	r3, r3, #16
 915 000a 1B0C     		lsrs	r3, r3, #16
 916 000c 8382     		strh	r3, [r0, #20]	@ movhi
 917 000e 7047     		bx	lr
 918              	.L66:
 919              		.loc 1 934 0
 920 0010 9BB2     		uxth	r3, r3
 921 0012 43F02003 		orr	r3, r3, #32
 922 0016 8382     		strh	r3, [r0, #20]	@ movhi
 923 0018 7047     		bx	lr
 924              		.cfi_endproc
 925              	.LFE130:
 926              		.size	USART_SmartCardCmd, .-USART_SmartCardCmd
 927 001a 00BFAFF3 		.section	.text.USART_SmartCardNACKCmd,"ax",%progbits
 927      0080
 928              		.align	2
 929              		.p2align 4,,15
 930              		.global	USART_SmartCardNACKCmd
 931              		.thumb
 932              		.thumb_func
 933              		.type	USART_SmartCardNACKCmd, %function
 934              	USART_SmartCardNACKCmd:
 935              	.LFB131:
 936              		.loc 1 952 0
 937              		.cfi_startproc
 938              		@ args = 0, pretend = 0, frame = 0
 939              		@ frame_needed = 0, uses_anonymous_args = 0
 940              		@ link register save eliminated.
ARM GAS  C:\Users\jsyoon\AppData\Local\Temp\cc7861fK.s 			page 18


 941              	.LVL80:
 942              		.loc 1 959 0
 943 0000 838A     		ldrh	r3, [r0, #20]
 944              		.loc 1 956 0
 945 0002 29B9     		cbnz	r1, .L70
 946              		.loc 1 964 0
 947 0004 23F01003 		bic	r3, r3, #16
 948 0008 1B04     		lsls	r3, r3, #16
 949 000a 1B0C     		lsrs	r3, r3, #16
 950 000c 8382     		strh	r3, [r0, #20]	@ movhi
 951 000e 7047     		bx	lr
 952              	.L70:
 953              		.loc 1 959 0
 954 0010 9BB2     		uxth	r3, r3
 955 0012 43F01003 		orr	r3, r3, #16
 956 0016 8382     		strh	r3, [r0, #20]	@ movhi
 957 0018 7047     		bx	lr
 958              		.cfi_endproc
 959              	.LFE131:
 960              		.size	USART_SmartCardNACKCmd, .-USART_SmartCardNACKCmd
 961 001a 00BFAFF3 		.section	.text.USART_IrDAConfig,"ax",%progbits
 961      0080
 962              		.align	2
 963              		.p2align 4,,15
 964              		.global	USART_IrDAConfig
 965              		.thumb
 966              		.thumb_func
 967              		.type	USART_IrDAConfig, %function
 968              	USART_IrDAConfig:
 969              	.LFB132:
 970              		.loc 1 1023 0
 971              		.cfi_startproc
 972              		@ args = 0, pretend = 0, frame = 0
 973              		@ frame_needed = 0, uses_anonymous_args = 0
 974              		@ link register save eliminated.
 975              	.LVL81:
 976              		.loc 1 1028 0
 977 0000 838A     		ldrh	r3, [r0, #20]
 978 0002 23F00403 		bic	r3, r3, #4
 979 0006 1B04     		lsls	r3, r3, #16
 980 0008 1B0C     		lsrs	r3, r3, #16
 981 000a 8382     		strh	r3, [r0, #20]	@ movhi
 982              		.loc 1 1029 0
 983 000c 838A     		ldrh	r3, [r0, #20]
 984 000e 9BB2     		uxth	r3, r3
 985 0010 1943     		orrs	r1, r1, r3
 986              	.LVL82:
 987 0012 8182     		strh	r1, [r0, #20]	@ movhi
 988 0014 7047     		bx	lr
 989              		.cfi_endproc
 990              	.LFE132:
 991              		.size	USART_IrDAConfig, .-USART_IrDAConfig
 992 0016 00BFAFF3 		.section	.text.USART_IrDACmd,"ax",%progbits
 992      0080AFF3 
 992      0080
 993              		.align	2
 994              		.p2align 4,,15
ARM GAS  C:\Users\jsyoon\AppData\Local\Temp\cc7861fK.s 			page 19


 995              		.global	USART_IrDACmd
 996              		.thumb
 997              		.thumb_func
 998              		.type	USART_IrDACmd, %function
 999              	USART_IrDACmd:
 1000              	.LFB133:
 1001              		.loc 1 1041 0
 1002              		.cfi_startproc
 1003              		@ args = 0, pretend = 0, frame = 0
 1004              		@ frame_needed = 0, uses_anonymous_args = 0
 1005              		@ link register save eliminated.
 1006              	.LVL83:
 1007              		.loc 1 1049 0
 1008 0000 838A     		ldrh	r3, [r0, #20]
 1009              		.loc 1 1046 0
 1010 0002 29B9     		cbnz	r1, .L75
 1011              		.loc 1 1054 0
 1012 0004 23F00203 		bic	r3, r3, #2
 1013 0008 1B04     		lsls	r3, r3, #16
 1014 000a 1B0C     		lsrs	r3, r3, #16
 1015 000c 8382     		strh	r3, [r0, #20]	@ movhi
 1016 000e 7047     		bx	lr
 1017              	.L75:
 1018              		.loc 1 1049 0
 1019 0010 9BB2     		uxth	r3, r3
 1020 0012 43F00203 		orr	r3, r3, #2
 1021 0016 8382     		strh	r3, [r0, #20]	@ movhi
 1022 0018 7047     		bx	lr
 1023              		.cfi_endproc
 1024              	.LFE133:
 1025              		.size	USART_IrDACmd, .-USART_IrDACmd
 1026 001a 00BFAFF3 		.section	.text.USART_DMACmd,"ax",%progbits
 1026      0080
 1027              		.align	2
 1028              		.p2align 4,,15
 1029              		.global	USART_DMACmd
 1030              		.thumb
 1031              		.thumb_func
 1032              		.type	USART_DMACmd, %function
 1033              	USART_DMACmd:
 1034              	.LFB134:
 1035              		.loc 1 1087 0
 1036              		.cfi_startproc
 1037              		@ args = 0, pretend = 0, frame = 0
 1038              		@ frame_needed = 0, uses_anonymous_args = 0
 1039              		@ link register save eliminated.
 1040              	.LVL84:
 1041              		.loc 1 1097 0
 1042 0000 838A     		ldrh	r3, [r0, #20]
 1043 0002 9BB2     		uxth	r3, r3
 1044              		.loc 1 1093 0
 1045 0004 1AB9     		cbnz	r2, .L79
 1046              		.loc 1 1103 0
 1047 0006 23EA0101 		bic	r1, r3, r1
 1048              	.LVL85:
 1049 000a 8182     		strh	r1, [r0, #20]	@ movhi
 1050 000c 7047     		bx	lr
ARM GAS  C:\Users\jsyoon\AppData\Local\Temp\cc7861fK.s 			page 20


 1051              	.LVL86:
 1052              	.L79:
 1053              		.loc 1 1097 0
 1054 000e 1943     		orrs	r1, r1, r3
 1055              	.LVL87:
 1056 0010 8182     		strh	r1, [r0, #20]	@ movhi
 1057 0012 7047     		bx	lr
 1058              		.cfi_endproc
 1059              	.LFE134:
 1060              		.size	USART_DMACmd, .-USART_DMACmd
 1061 0014 AFF30080 		.section	.text.USART_ITConfig,"ax",%progbits
 1061      AFF30080 
 1061      AFF30080 
 1062              		.align	2
 1063              		.p2align 4,,15
 1064              		.global	USART_ITConfig
 1065              		.thumb
 1066              		.thumb_func
 1067              		.type	USART_ITConfig, %function
 1068              	USART_ITConfig:
 1069              	.LFB135:
 1070              		.loc 1 1215 0
 1071              		.cfi_startproc
 1072              		@ args = 0, pretend = 0, frame = 0
 1073              		@ frame_needed = 0, uses_anonymous_args = 0
 1074              		@ link register save eliminated.
 1075              	.LVL88:
 1076              		.loc 1 1236 0
 1077 0000 01F01F03 		and	r3, r1, #31
 1078              		.loc 1 1215 0
 1079 0004 10B4     		push	{r4}
 1080              		.cfi_def_cfa_offset 4
 1081              		.cfi_offset 4, -4
 1082              		.loc 1 1232 0
 1083 0006 C1F34211 		ubfx	r1, r1, #5, #3
 1084              	.LVL89:
 1085              		.loc 1 1236 0
 1086 000a 0124     		movs	r4, #1
 1087              	.LVL90:
 1088              		.loc 1 1238 0
 1089 000c A142     		cmp	r1, r4
 1090              		.loc 1 1236 0
 1091 000e 04FA03F3 		lsl	r3, r4, r3
 1092              	.LVL91:
 1093              		.loc 1 1238 0
 1094 0012 10D0     		beq	.L86
 1095              		.loc 1 1242 0
 1096 0014 0229     		cmp	r1, #2
 1097              		.loc 1 1244 0
 1098 0016 0CBF     		ite	eq
 1099 0018 1030     		addeq	r0, r0, #16
 1100              	.LVL92:
 1101              		.loc 1 1248 0
 1102 001a 1430     		addne	r0, r0, #20
 1103              	.LVL93:
 1104              	.L82:
 1105              		.loc 1 1252 0
ARM GAS  C:\Users\jsyoon\AppData\Local\Temp\cc7861fK.s 			page 21


 1106 001c 0468     		ldr	r4, [r0]
 1107              		.loc 1 1250 0
 1108 001e 2AB9     		cbnz	r2, .L87
 1109              		.loc 1 1256 0
 1110 0020 24EA0303 		bic	r3, r4, r3
 1111              	.LVL94:
 1112 0024 0360     		str	r3, [r0]
 1113              		.loc 1 1258 0
 1114 0026 5DF8044B 		ldr	r4, [sp], #4
 1115 002a 7047     		bx	lr
 1116              	.LVL95:
 1117              	.L87:
 1118              		.loc 1 1252 0
 1119 002c 2343     		orrs	r3, r3, r4
 1120              	.LVL96:
 1121 002e 0360     		str	r3, [r0]
 1122              		.loc 1 1258 0
 1123 0030 5DF8044B 		ldr	r4, [sp], #4
 1124 0034 7047     		bx	lr
 1125              	.LVL97:
 1126              	.L86:
 1127              		.loc 1 1240 0
 1128 0036 0C30     		adds	r0, r0, #12
 1129              	.LVL98:
 1130 0038 F0E7     		b	.L82
 1131              		.cfi_endproc
 1132              	.LFE135:
 1133              		.size	USART_ITConfig, .-USART_ITConfig
 1134 003a 00BFAFF3 		.section	.text.USART_GetFlagStatus,"ax",%progbits
 1134      0080
 1135              		.align	2
 1136              		.p2align 4,,15
 1137              		.global	USART_GetFlagStatus
 1138              		.thumb
 1139              		.thumb_func
 1140              		.type	USART_GetFlagStatus, %function
 1141              	USART_GetFlagStatus:
 1142              	.LFB136:
 1143              		.loc 1 1279 0
 1144              		.cfi_startproc
 1145              		@ args = 0, pretend = 0, frame = 0
 1146              		@ frame_needed = 0, uses_anonymous_args = 0
 1147              		@ link register save eliminated.
 1148              	.LVL99:
 1149              		.loc 1 1291 0
 1150 0000 0388     		ldrh	r3, [r0]
 1151              	.LVL100:
 1152 0002 1942     		tst	r1, r3
 1153              		.loc 1 1300 0
 1154 0004 0CBF     		ite	eq
 1155 0006 0020     		moveq	r0, #0
 1156 0008 0120     		movne	r0, #1
 1157              	.LVL101:
 1158 000a 7047     		bx	lr
 1159              		.cfi_endproc
 1160              	.LFE136:
 1161              		.size	USART_GetFlagStatus, .-USART_GetFlagStatus
ARM GAS  C:\Users\jsyoon\AppData\Local\Temp\cc7861fK.s 			page 22


 1162 000c AFF30080 		.section	.text.USART_ClearFlag,"ax",%progbits
 1163              		.align	2
 1164              		.p2align 4,,15
 1165              		.global	USART_ClearFlag
 1166              		.thumb
 1167              		.thumb_func
 1168              		.type	USART_ClearFlag, %function
 1169              	USART_ClearFlag:
 1170              	.LFB137:
 1171              		.loc 1 1328 0
 1172              		.cfi_startproc
 1173              		@ args = 0, pretend = 0, frame = 0
 1174              		@ frame_needed = 0, uses_anonymous_args = 0
 1175              		@ link register save eliminated.
 1176              	.LVL102:
 1177              		.loc 1 1339 0
 1178 0000 C943     		mvns	r1, r1
 1179              	.LVL103:
 1180 0002 89B2     		uxth	r1, r1
 1181 0004 0180     		strh	r1, [r0]	@ movhi
 1182 0006 7047     		bx	lr
 1183              		.cfi_endproc
 1184              	.LFE137:
 1185              		.size	USART_ClearFlag, .-USART_ClearFlag
 1186 0008 AFF30080 		.section	.text.USART_GetITStatus,"ax",%progbits
 1186      AFF30080 
 1187              		.align	2
 1188              		.p2align 4,,15
 1189              		.global	USART_GetITStatus
 1190              		.thumb
 1191              		.thumb_func
 1192              		.type	USART_GetITStatus, %function
 1193              	USART_GetITStatus:
 1194              	.LFB138:
 1195              		.loc 1 1362 0
 1196              		.cfi_startproc
 1197              		@ args = 0, pretend = 0, frame = 0
 1198              		@ frame_needed = 0, uses_anonymous_args = 0
 1199              		@ link register save eliminated.
 1200              	.LVL104:
 1201 0000 10B4     		push	{r4}
 1202              		.cfi_def_cfa_offset 4
 1203              		.cfi_offset 4, -4
 1204              		.loc 1 1376 0
 1205 0002 C1F34213 		ubfx	r3, r1, #5, #3
 1206              	.LVL105:
 1207              		.loc 1 1379 0
 1208 0006 0124     		movs	r4, #1
 1209 0008 01F01F02 		and	r2, r1, #31
 1210              		.loc 1 1381 0
 1211 000c A342     		cmp	r3, r4
 1212              		.loc 1 1379 0
 1213 000e 04FA02F2 		lsl	r2, r4, r2
 1214              	.LVL106:
 1215              		.loc 1 1381 0
 1216 0012 17D0     		beq	.L96
 1217              		.loc 1 1385 0
ARM GAS  C:\Users\jsyoon\AppData\Local\Temp\cc7861fK.s 			page 23


 1218 0014 022B     		cmp	r3, #2
 1219              		.loc 1 1387 0
 1220 0016 0CBF     		ite	eq
 1221 0018 038A     		ldrheq	r3, [r0, #16]
 1222              	.LVL107:
 1223              		.loc 1 1391 0
 1224 001a 838A     		ldrhne	r3, [r0, #20]
 1225 001c 9BB2     		uxth	r3, r3
 1226 001e 1340     		ands	r3, r3, r2
 1227              	.LVL108:
 1228              	.L92:
 1229              		.loc 1 1396 0
 1230 0020 0288     		ldrh	r2, [r0]
 1231 0022 92B2     		uxth	r2, r2
 1232              	.LVL109:
 1233              		.loc 1 1397 0
 1234 0024 53B1     		cbz	r3, .L95
 1235              		.loc 1 1395 0 discriminator 1
 1236 0026 090A     		lsrs	r1, r1, #8
 1237              	.LVL110:
 1238 0028 0123     		movs	r3, #1
 1239              	.LVL111:
 1240 002a 03FA01F1 		lsl	r1, r3, r1
 1241              		.loc 1 1397 0 discriminator 1
 1242 002e 1142     		tst	r1, r2
 1243              		.loc 1 1399 0 discriminator 1
 1244 0030 0CBF     		ite	eq
 1245 0032 0020     		moveq	r0, #0
 1246 0034 0120     		movne	r0, #1
 1247              	.LVL112:
 1248              		.loc 1 1407 0 discriminator 1
 1249 0036 5DF8044B 		ldr	r4, [sp], #4
 1250 003a 7047     		bx	lr
 1251              	.LVL113:
 1252              	.L95:
 1253              		.loc 1 1403 0
 1254 003c 1846     		mov	r0, r3
 1255              	.LVL114:
 1256              		.loc 1 1407 0
 1257 003e 5DF8044B 		ldr	r4, [sp], #4
 1258 0042 7047     		bx	lr
 1259              	.LVL115:
 1260              	.L96:
 1261              		.loc 1 1383 0
 1262 0044 8389     		ldrh	r3, [r0, #12]
 1263              	.LVL116:
 1264 0046 9BB2     		uxth	r3, r3
 1265 0048 1340     		ands	r3, r3, r2
 1266              	.LVL117:
 1267 004a E9E7     		b	.L92
 1268              		.cfi_endproc
 1269              	.LFE138:
 1270              		.size	USART_GetITStatus, .-USART_GetITStatus
 1271 004c AFF30080 		.section	.text.USART_ClearITPendingBit,"ax",%progbits
 1272              		.align	2
 1273              		.p2align 4,,15
 1274              		.global	USART_ClearITPendingBit
ARM GAS  C:\Users\jsyoon\AppData\Local\Temp\cc7861fK.s 			page 24


 1275              		.thumb
 1276              		.thumb_func
 1277              		.type	USART_ClearITPendingBit, %function
 1278              	USART_ClearITPendingBit:
 1279              	.LFB139:
 1280              		.loc 1 1436 0
 1281              		.cfi_startproc
 1282              		@ args = 0, pretend = 0, frame = 0
 1283              		@ frame_needed = 0, uses_anonymous_args = 0
 1284              		@ link register save eliminated.
 1285              	.LVL118:
 1286              		.loc 1 1449 0
 1287 0000 090A     		lsrs	r1, r1, #8
 1288              	.LVL119:
 1289 0002 0123     		movs	r3, #1
 1290 0004 03FA01F1 		lsl	r1, r3, r1
 1291              		.loc 1 1450 0
 1292 0008 C943     		mvns	r1, r1
 1293 000a 89B2     		uxth	r1, r1
 1294 000c 0180     		strh	r1, [r0]	@ movhi
 1295 000e 7047     		bx	lr
 1296              		.cfi_endproc
 1297              	.LFE139:
 1298              		.size	USART_ClearITPendingBit, .-USART_ClearITPendingBit
 1299              		.text
 1300              	.Letext0:
 1301              		.file 2 "c:\\crosstools\\gcc-arm-embedded\\4.8_2014q2\\arm-none-eabi\\include\\machine\\_default_t
 1302              		.file 3 "c:\\crosstools\\gcc-arm-embedded\\4.8_2014q2\\arm-none-eabi\\include\\stdint.h"
 1303              		.file 4 "ChibiOS_2.6.6/os/hal/platforms/STM32F4xx/stm32f4xx.h"
 1304              		.file 5 "ChibiOS_2.6.6/ext/stdperiph_stm32f4/inc/stm32f4xx_rcc.h"
 1305              		.file 6 "ChibiOS_2.6.6/ext/stdperiph_stm32f4/inc/stm32f4xx_usart.h"
 1306              		.file 7 "ChibiOS_2.6.6/os/ports/common/ARMCMx/CMSIS/include/core_cm4.h"
 1307              		.section	.debug_info,"",%progbits
 1308              	.Ldebug_info0:
 1309 0000 410B0000 		.4byte	0xb41
 1310 0004 0400     		.2byte	0x4
 1311 0006 00000000 		.4byte	.Ldebug_abbrev0
 1312 000a 04       		.byte	0x4
 1313 000b 01       		.uleb128 0x1
 1314 000c 38010000 		.4byte	.LASF107
 1315 0010 01       		.byte	0x1
 1316 0011 3A070000 		.4byte	.LASF108
 1317 0015 84000000 		.4byte	.LASF109
 1318 0019 00000000 		.4byte	.Ldebug_ranges0+0
 1319 001d 00000000 		.4byte	0
 1320 0021 00000000 		.4byte	.Ldebug_line0
 1321 0025 02       		.uleb128 0x2
 1322 0026 01       		.byte	0x1
 1323 0027 06       		.byte	0x6
 1324 0028 B8020000 		.4byte	.LASF0
 1325 002c 03       		.uleb128 0x3
 1326 002d 83030000 		.4byte	.LASF3
 1327 0031 02       		.byte	0x2
 1328 0032 1C       		.byte	0x1c
 1329 0033 37000000 		.4byte	0x37
 1330 0037 02       		.uleb128 0x2
 1331 0038 01       		.byte	0x1
ARM GAS  C:\Users\jsyoon\AppData\Local\Temp\cc7861fK.s 			page 25


 1332 0039 08       		.byte	0x8
 1333 003a EA030000 		.4byte	.LASF1
 1334 003e 02       		.uleb128 0x2
 1335 003f 02       		.byte	0x2
 1336 0040 05       		.byte	0x5
 1337 0041 58030000 		.4byte	.LASF2
 1338 0045 03       		.uleb128 0x3
 1339 0046 E5000000 		.4byte	.LASF4
 1340 004a 02       		.byte	0x2
 1341 004b 26       		.byte	0x26
 1342 004c 50000000 		.4byte	0x50
 1343 0050 02       		.uleb128 0x2
 1344 0051 02       		.byte	0x2
 1345 0052 07       		.byte	0x7
 1346 0053 6F050000 		.4byte	.LASF5
 1347 0057 03       		.uleb128 0x3
 1348 0058 85060000 		.4byte	.LASF6
 1349 005c 02       		.byte	0x2
 1350 005d 37       		.byte	0x37
 1351 005e 62000000 		.4byte	0x62
 1352 0062 02       		.uleb128 0x2
 1353 0063 04       		.byte	0x4
 1354 0064 05       		.byte	0x5
 1355 0065 27030000 		.4byte	.LASF7
 1356 0069 03       		.uleb128 0x3
 1357 006a CF000000 		.4byte	.LASF8
 1358 006e 02       		.byte	0x2
 1359 006f 38       		.byte	0x38
 1360 0070 74000000 		.4byte	0x74
 1361 0074 02       		.uleb128 0x2
 1362 0075 04       		.byte	0x4
 1363 0076 07       		.byte	0x7
 1364 0077 6D040000 		.4byte	.LASF9
 1365 007b 02       		.uleb128 0x2
 1366 007c 08       		.byte	0x8
 1367 007d 05       		.byte	0x5
 1368 007e F9020000 		.4byte	.LASF10
 1369 0082 02       		.uleb128 0x2
 1370 0083 08       		.byte	0x8
 1371 0084 07       		.byte	0x7
 1372 0085 24040000 		.4byte	.LASF11
 1373 0089 04       		.uleb128 0x4
 1374 008a 04       		.byte	0x4
 1375 008b 05       		.byte	0x5
 1376 008c 696E7400 		.ascii	"int\000"
 1377 0090 02       		.uleb128 0x2
 1378 0091 04       		.byte	0x4
 1379 0092 07       		.byte	0x7
 1380 0093 57040000 		.4byte	.LASF12
 1381 0097 03       		.uleb128 0x3
 1382 0098 6B020000 		.4byte	.LASF13
 1383 009c 03       		.byte	0x3
 1384 009d 2A       		.byte	0x2a
 1385 009e 2C000000 		.4byte	0x2c
 1386 00a2 03       		.uleb128 0x3
 1387 00a3 64040000 		.4byte	.LASF14
 1388 00a7 03       		.byte	0x3
ARM GAS  C:\Users\jsyoon\AppData\Local\Temp\cc7861fK.s 			page 26


 1389 00a8 36       		.byte	0x36
 1390 00a9 45000000 		.4byte	0x45
 1391 00ad 03       		.uleb128 0x3
 1392 00ae 49050000 		.4byte	.LASF15
 1393 00b2 03       		.byte	0x3
 1394 00b3 41       		.byte	0x41
 1395 00b4 57000000 		.4byte	0x57
 1396 00b8 03       		.uleb128 0x3
 1397 00b9 3B040000 		.4byte	.LASF16
 1398 00bd 03       		.byte	0x3
 1399 00be 42       		.byte	0x42
 1400 00bf 69000000 		.4byte	0x69
 1401 00c3 02       		.uleb128 0x2
 1402 00c4 04       		.byte	0x4
 1403 00c5 07       		.byte	0x7
 1404 00c6 6C000000 		.4byte	.LASF17
 1405 00ca 05       		.uleb128 0x5
 1406 00cb A2000000 		.4byte	0xa2
 1407 00cf 05       		.uleb128 0x5
 1408 00d0 AD000000 		.4byte	0xad
 1409 00d4 06       		.uleb128 0x6
 1410 00d5 01       		.byte	0x1
 1411 00d6 04       		.byte	0x4
 1412 00d7 F701     		.2byte	0x1f7
 1413 00d9 EA000000 		.4byte	0xea
 1414 00dd 07       		.uleb128 0x7
 1415 00de B2050000 		.4byte	.LASF18
 1416 00e2 00       		.sleb128 0
 1417 00e3 08       		.uleb128 0x8
 1418 00e4 53455400 		.ascii	"SET\000"
 1419 00e8 01       		.sleb128 1
 1420 00e9 00       		.byte	0
 1421 00ea 09       		.uleb128 0x9
 1422 00eb DA000000 		.4byte	.LASF19
 1423 00ef 04       		.byte	0x4
 1424 00f0 F701     		.2byte	0x1f7
 1425 00f2 D4000000 		.4byte	0xd4
 1426 00f6 09       		.uleb128 0x9
 1427 00f7 1E030000 		.4byte	.LASF20
 1428 00fb 04       		.byte	0x4
 1429 00fc F701     		.2byte	0x1f7
 1430 00fe D4000000 		.4byte	0xd4
 1431 0102 06       		.uleb128 0x6
 1432 0103 01       		.byte	0x1
 1433 0104 04       		.byte	0x4
 1434 0105 F901     		.2byte	0x1f9
 1435 0107 18010000 		.4byte	0x118
 1436 010b 07       		.uleb128 0x7
 1437 010c B0020000 		.4byte	.LASF21
 1438 0110 00       		.sleb128 0
 1439 0111 07       		.uleb128 0x7
 1440 0112 8F070000 		.4byte	.LASF22
 1441 0116 01       		.sleb128 1
 1442 0117 00       		.byte	0
 1443 0118 09       		.uleb128 0x9
 1444 0119 3A060000 		.4byte	.LASF23
 1445 011d 04       		.byte	0x4
ARM GAS  C:\Users\jsyoon\AppData\Local\Temp\cc7861fK.s 			page 27


 1446 011e F901     		.2byte	0x1f9
 1447 0120 02010000 		.4byte	0x102
 1448 0124 0A       		.uleb128 0xa
 1449 0125 1C       		.byte	0x1c
 1450 0126 04       		.byte	0x4
 1451 0127 2905     		.2byte	0x529
 1452 0129 E2010000 		.4byte	0x1e2
 1453 012d 0B       		.uleb128 0xb
 1454 012e 535200   		.ascii	"SR\000"
 1455 0131 04       		.byte	0x4
 1456 0132 2B05     		.2byte	0x52b
 1457 0134 CA000000 		.4byte	0xca
 1458 0138 00       		.byte	0
 1459 0139 0C       		.uleb128 0xc
 1460 013a D4050000 		.4byte	.LASF24
 1461 013e 04       		.byte	0x4
 1462 013f 2C05     		.2byte	0x52c
 1463 0141 A2000000 		.4byte	0xa2
 1464 0145 02       		.byte	0x2
 1465 0146 0B       		.uleb128 0xb
 1466 0147 445200   		.ascii	"DR\000"
 1467 014a 04       		.byte	0x4
 1468 014b 2D05     		.2byte	0x52d
 1469 014d CA000000 		.4byte	0xca
 1470 0151 04       		.byte	0x4
 1471 0152 0C       		.uleb128 0xc
 1472 0153 DE050000 		.4byte	.LASF25
 1473 0157 04       		.byte	0x4
 1474 0158 2E05     		.2byte	0x52e
 1475 015a A2000000 		.4byte	0xa2
 1476 015e 06       		.byte	0x6
 1477 015f 0B       		.uleb128 0xb
 1478 0160 42525200 		.ascii	"BRR\000"
 1479 0164 04       		.byte	0x4
 1480 0165 2F05     		.2byte	0x52f
 1481 0167 CA000000 		.4byte	0xca
 1482 016b 08       		.byte	0x8
 1483 016c 0C       		.uleb128 0xc
 1484 016d E8050000 		.4byte	.LASF26
 1485 0171 04       		.byte	0x4
 1486 0172 3005     		.2byte	0x530
 1487 0174 A2000000 		.4byte	0xa2
 1488 0178 0A       		.byte	0xa
 1489 0179 0B       		.uleb128 0xb
 1490 017a 43523100 		.ascii	"CR1\000"
 1491 017e 04       		.byte	0x4
 1492 017f 3105     		.2byte	0x531
 1493 0181 CA000000 		.4byte	0xca
 1494 0185 0C       		.byte	0xc
 1495 0186 0C       		.uleb128 0xc
 1496 0187 F2050000 		.4byte	.LASF27
 1497 018b 04       		.byte	0x4
 1498 018c 3205     		.2byte	0x532
 1499 018e A2000000 		.4byte	0xa2
 1500 0192 0E       		.byte	0xe
 1501 0193 0B       		.uleb128 0xb
 1502 0194 43523200 		.ascii	"CR2\000"
ARM GAS  C:\Users\jsyoon\AppData\Local\Temp\cc7861fK.s 			page 28


 1503 0198 04       		.byte	0x4
 1504 0199 3305     		.2byte	0x533
 1505 019b CA000000 		.4byte	0xca
 1506 019f 10       		.byte	0x10
 1507 01a0 0C       		.uleb128 0xc
 1508 01a1 FC050000 		.4byte	.LASF28
 1509 01a5 04       		.byte	0x4
 1510 01a6 3405     		.2byte	0x534
 1511 01a8 A2000000 		.4byte	0xa2
 1512 01ac 12       		.byte	0x12
 1513 01ad 0B       		.uleb128 0xb
 1514 01ae 43523300 		.ascii	"CR3\000"
 1515 01b2 04       		.byte	0x4
 1516 01b3 3505     		.2byte	0x535
 1517 01b5 CA000000 		.4byte	0xca
 1518 01b9 14       		.byte	0x14
 1519 01ba 0C       		.uleb128 0xc
 1520 01bb 06060000 		.4byte	.LASF29
 1521 01bf 04       		.byte	0x4
 1522 01c0 3605     		.2byte	0x536
 1523 01c2 A2000000 		.4byte	0xa2
 1524 01c6 16       		.byte	0x16
 1525 01c7 0C       		.uleb128 0xc
 1526 01c8 1A000000 		.4byte	.LASF30
 1527 01cc 04       		.byte	0x4
 1528 01cd 3705     		.2byte	0x537
 1529 01cf CA000000 		.4byte	0xca
 1530 01d3 18       		.byte	0x18
 1531 01d4 0C       		.uleb128 0xc
 1532 01d5 10060000 		.4byte	.LASF31
 1533 01d9 04       		.byte	0x4
 1534 01da 3805     		.2byte	0x538
 1535 01dc A2000000 		.4byte	0xa2
 1536 01e0 1A       		.byte	0x1a
 1537 01e1 00       		.byte	0
 1538 01e2 09       		.uleb128 0x9
 1539 01e3 F0000000 		.4byte	.LASF32
 1540 01e7 04       		.byte	0x4
 1541 01e8 3905     		.2byte	0x539
 1542 01ea 24010000 		.4byte	0x124
 1543 01ee 0D       		.uleb128 0xd
 1544 01ef 10       		.byte	0x10
 1545 01f0 05       		.byte	0x5
 1546 01f1 30       		.byte	0x30
 1547 01f2 27020000 		.4byte	0x227
 1548 01f6 0E       		.uleb128 0xe
 1549 01f7 3D000000 		.4byte	.LASF33
 1550 01fb 05       		.byte	0x5
 1551 01fc 32       		.byte	0x32
 1552 01fd B8000000 		.4byte	0xb8
 1553 0201 00       		.byte	0
 1554 0202 0E       		.uleb128 0xe
 1555 0203 75000000 		.4byte	.LASF34
 1556 0207 05       		.byte	0x5
 1557 0208 33       		.byte	0x33
 1558 0209 B8000000 		.4byte	0xb8
 1559 020d 04       		.byte	0x4
ARM GAS  C:\Users\jsyoon\AppData\Local\Temp\cc7861fK.s 			page 29


 1560 020e 0E       		.uleb128 0xe
 1561 020f 61060000 		.4byte	.LASF35
 1562 0213 05       		.byte	0x5
 1563 0214 34       		.byte	0x34
 1564 0215 B8000000 		.4byte	0xb8
 1565 0219 08       		.byte	0x8
 1566 021a 0E       		.uleb128 0xe
 1567 021b B8050000 		.4byte	.LASF36
 1568 021f 05       		.byte	0x5
 1569 0220 35       		.byte	0x35
 1570 0221 B8000000 		.4byte	0xb8
 1571 0225 0C       		.byte	0xc
 1572 0226 00       		.byte	0
 1573 0227 03       		.uleb128 0x3
 1574 0228 C7040000 		.4byte	.LASF37
 1575 022c 05       		.byte	0x5
 1576 022d 36       		.byte	0x36
 1577 022e EE010000 		.4byte	0x1ee
 1578 0232 0D       		.uleb128 0xd
 1579 0233 10       		.byte	0x10
 1580 0234 06       		.byte	0x6
 1581 0235 36       		.byte	0x36
 1582 0236 83020000 		.4byte	0x283
 1583 023a 0E       		.uleb128 0xe
 1584 023b D2020000 		.4byte	.LASF38
 1585 023f 06       		.byte	0x6
 1586 0240 38       		.byte	0x38
 1587 0241 B8000000 		.4byte	0xb8
 1588 0245 00       		.byte	0
 1589 0246 0E       		.uleb128 0xe
 1590 0247 89020000 		.4byte	.LASF39
 1591 024b 06       		.byte	0x6
 1592 024c 3E       		.byte	0x3e
 1593 024d A2000000 		.4byte	0xa2
 1594 0251 04       		.byte	0x4
 1595 0252 0E       		.uleb128 0xe
 1596 0253 FE000000 		.4byte	.LASF40
 1597 0257 06       		.byte	0x6
 1598 0258 41       		.byte	0x41
 1599 0259 A2000000 		.4byte	0xa2
 1600 025d 06       		.byte	0x6
 1601 025e 0E       		.uleb128 0xe
 1602 025f C7030000 		.4byte	.LASF41
 1603 0263 06       		.byte	0x6
 1604 0264 44       		.byte	0x44
 1605 0265 A2000000 		.4byte	0xa2
 1606 0269 08       		.byte	0x8
 1607 026a 0E       		.uleb128 0xe
 1608 026b 30050000 		.4byte	.LASF42
 1609 026f 06       		.byte	0x6
 1610 0270 4B       		.byte	0x4b
 1611 0271 A2000000 		.4byte	0xa2
 1612 0275 0A       		.byte	0xa
 1613 0276 0E       		.uleb128 0xe
 1614 0277 03050000 		.4byte	.LASF43
 1615 027b 06       		.byte	0x6
 1616 027c 4E       		.byte	0x4e
ARM GAS  C:\Users\jsyoon\AppData\Local\Temp\cc7861fK.s 			page 30


 1617 027d A2000000 		.4byte	0xa2
 1618 0281 0C       		.byte	0xc
 1619 0282 00       		.byte	0
 1620 0283 03       		.uleb128 0x3
 1621 0284 8F040000 		.4byte	.LASF44
 1622 0288 06       		.byte	0x6
 1623 0289 51       		.byte	0x51
 1624 028a 32020000 		.4byte	0x232
 1625 028e 0D       		.uleb128 0xd
 1626 028f 08       		.byte	0x8
 1627 0290 06       		.byte	0x6
 1628 0291 57       		.byte	0x57
 1629 0292 C7020000 		.4byte	0x2c7
 1630 0296 0E       		.uleb128 0xe
 1631 0297 C8050000 		.4byte	.LASF45
 1632 029b 06       		.byte	0x6
 1633 029c 5A       		.byte	0x5a
 1634 029d A2000000 		.4byte	0xa2
 1635 02a1 00       		.byte	0
 1636 02a2 0E       		.uleb128 0xe
 1637 02a3 1B070000 		.4byte	.LASF46
 1638 02a7 06       		.byte	0x6
 1639 02a8 5D       		.byte	0x5d
 1640 02a9 A2000000 		.4byte	0xa2
 1641 02ad 02       		.byte	0x2
 1642 02ae 0E       		.uleb128 0xe
 1643 02af 0F000000 		.4byte	.LASF47
 1644 02b3 06       		.byte	0x6
 1645 02b4 60       		.byte	0x60
 1646 02b5 A2000000 		.4byte	0xa2
 1647 02b9 04       		.byte	0x4
 1648 02ba 0E       		.uleb128 0xe
 1649 02bb C4020000 		.4byte	.LASF48
 1650 02bf 06       		.byte	0x6
 1651 02c0 63       		.byte	0x63
 1652 02c1 A2000000 		.4byte	0xa2
 1653 02c5 06       		.byte	0x6
 1654 02c6 00       		.byte	0
 1655 02c7 03       		.uleb128 0x3
 1656 02c8 17010000 		.4byte	.LASF49
 1657 02cc 06       		.byte	0x6
 1658 02cd 66       		.byte	0x66
 1659 02ce 8E020000 		.4byte	0x28e
 1660 02d2 0F       		.uleb128 0xf
 1661 02d3 98030000 		.4byte	.LASF50
 1662 02d7 01       		.byte	0x1
 1663 02d8 B8       		.byte	0xb8
 1664 02d9 00000000 		.4byte	.LFB111
 1665 02dd C8000000 		.4byte	.LFE111-.LFB111
 1666 02e1 01       		.uleb128 0x1
 1667 02e2 9C       		.byte	0x9c
 1668 02e3 25040000 		.4byte	0x425
 1669 02e7 10       		.uleb128 0x10
 1670 02e8 E6040000 		.4byte	.LASF52
 1671 02ec 01       		.byte	0x1
 1672 02ed B8       		.byte	0xb8
 1673 02ee 25040000 		.4byte	0x425
ARM GAS  C:\Users\jsyoon\AppData\Local\Temp\cc7861fK.s 			page 31


 1674 02f2 00000000 		.4byte	.LLST0
 1675 02f6 11       		.uleb128 0x11
 1676 02f7 30000000 		.4byte	.LVL2
 1677 02fb FE0A0000 		.4byte	0xafe
 1678 02ff 0F030000 		.4byte	0x30f
 1679 0303 12       		.uleb128 0x12
 1680 0304 01       		.uleb128 0x1
 1681 0305 51       		.byte	0x51
 1682 0306 01       		.uleb128 0x1
 1683 0307 31       		.byte	0x31
 1684 0308 12       		.uleb128 0x12
 1685 0309 01       		.uleb128 0x1
 1686 030a 50       		.byte	0x50
 1687 030b 02       		.uleb128 0x2
 1688 030c 08       		.byte	0x8
 1689 030d 20       		.byte	0x20
 1690 030e 00       		.byte	0
 1691 030f 13       		.uleb128 0x13
 1692 0310 3C000000 		.4byte	.LVL3
 1693 0314 FE0A0000 		.4byte	0xafe
 1694 0318 28030000 		.4byte	0x328
 1695 031c 12       		.uleb128 0x12
 1696 031d 01       		.uleb128 0x1
 1697 031e 51       		.byte	0x51
 1698 031f 01       		.uleb128 0x1
 1699 0320 30       		.byte	0x30
 1700 0321 12       		.uleb128 0x12
 1701 0322 01       		.uleb128 0x1
 1702 0323 50       		.byte	0x50
 1703 0324 02       		.uleb128 0x2
 1704 0325 08       		.byte	0x8
 1705 0326 20       		.byte	0x20
 1706 0327 00       		.byte	0
 1707 0328 11       		.uleb128 0x11
 1708 0329 44000000 		.4byte	.LVL5
 1709 032d FE0A0000 		.4byte	0xafe
 1710 0331 40030000 		.4byte	0x340
 1711 0335 12       		.uleb128 0x12
 1712 0336 01       		.uleb128 0x1
 1713 0337 51       		.byte	0x51
 1714 0338 01       		.uleb128 0x1
 1715 0339 31       		.byte	0x31
 1716 033a 12       		.uleb128 0x12
 1717 033b 01       		.uleb128 0x1
 1718 033c 50       		.byte	0x50
 1719 033d 01       		.uleb128 0x1
 1720 033e 40       		.byte	0x40
 1721 033f 00       		.byte	0
 1722 0340 13       		.uleb128 0x13
 1723 0341 50000000 		.4byte	.LVL6
 1724 0345 FE0A0000 		.4byte	0xafe
 1725 0349 58030000 		.4byte	0x358
 1726 034d 12       		.uleb128 0x12
 1727 034e 01       		.uleb128 0x1
 1728 034f 51       		.byte	0x51
 1729 0350 01       		.uleb128 0x1
 1730 0351 30       		.byte	0x30
ARM GAS  C:\Users\jsyoon\AppData\Local\Temp\cc7861fK.s 			page 32


 1731 0352 12       		.uleb128 0x12
 1732 0353 01       		.uleb128 0x1
 1733 0354 50       		.byte	0x50
 1734 0355 01       		.uleb128 0x1
 1735 0356 40       		.byte	0x40
 1736 0357 00       		.byte	0
 1737 0358 11       		.uleb128 0x11
 1738 0359 5A000000 		.4byte	.LVL8
 1739 035d 150B0000 		.4byte	0xb15
 1740 0361 72030000 		.4byte	0x372
 1741 0365 12       		.uleb128 0x12
 1742 0366 01       		.uleb128 0x1
 1743 0367 51       		.byte	0x51
 1744 0368 01       		.uleb128 0x1
 1745 0369 31       		.byte	0x31
 1746 036a 12       		.uleb128 0x12
 1747 036b 01       		.uleb128 0x1
 1748 036c 50       		.byte	0x50
 1749 036d 03       		.uleb128 0x3
 1750 036e 40       		.byte	0x40
 1751 036f 3D       		.byte	0x3d
 1752 0370 24       		.byte	0x24
 1753 0371 00       		.byte	0
 1754 0372 13       		.uleb128 0x13
 1755 0373 68000000 		.4byte	.LVL9
 1756 0377 150B0000 		.4byte	0xb15
 1757 037b 8C030000 		.4byte	0x38c
 1758 037f 12       		.uleb128 0x12
 1759 0380 01       		.uleb128 0x1
 1760 0381 51       		.byte	0x51
 1761 0382 01       		.uleb128 0x1
 1762 0383 30       		.byte	0x30
 1763 0384 12       		.uleb128 0x12
 1764 0385 01       		.uleb128 0x1
 1765 0386 50       		.byte	0x50
 1766 0387 03       		.uleb128 0x3
 1767 0388 40       		.byte	0x40
 1768 0389 3D       		.byte	0x3d
 1769 038a 24       		.byte	0x24
 1770 038b 00       		.byte	0
 1771 038c 11       		.uleb128 0x11
 1772 038d 72000000 		.4byte	.LVL11
 1773 0391 150B0000 		.4byte	0xb15
 1774 0395 A6030000 		.4byte	0x3a6
 1775 0399 12       		.uleb128 0x12
 1776 039a 01       		.uleb128 0x1
 1777 039b 51       		.byte	0x51
 1778 039c 01       		.uleb128 0x1
 1779 039d 31       		.byte	0x31
 1780 039e 12       		.uleb128 0x12
 1781 039f 01       		.uleb128 0x1
 1782 03a0 50       		.byte	0x50
 1783 03a1 03       		.uleb128 0x3
 1784 03a2 40       		.byte	0x40
 1785 03a3 3E       		.byte	0x3e
 1786 03a4 24       		.byte	0x24
 1787 03a5 00       		.byte	0
ARM GAS  C:\Users\jsyoon\AppData\Local\Temp\cc7861fK.s 			page 33


 1788 03a6 13       		.uleb128 0x13
 1789 03a7 80000000 		.4byte	.LVL12
 1790 03ab 150B0000 		.4byte	0xb15
 1791 03af C0030000 		.4byte	0x3c0
 1792 03b3 12       		.uleb128 0x12
 1793 03b4 01       		.uleb128 0x1
 1794 03b5 51       		.byte	0x51
 1795 03b6 01       		.uleb128 0x1
 1796 03b7 30       		.byte	0x30
 1797 03b8 12       		.uleb128 0x12
 1798 03b9 01       		.uleb128 0x1
 1799 03ba 50       		.byte	0x50
 1800 03bb 03       		.uleb128 0x3
 1801 03bc 40       		.byte	0x40
 1802 03bd 3E       		.byte	0x3e
 1803 03be 24       		.byte	0x24
 1804 03bf 00       		.byte	0
 1805 03c0 11       		.uleb128 0x11
 1806 03c1 8A000000 		.4byte	.LVL14
 1807 03c5 150B0000 		.4byte	0xb15
 1808 03c9 DA030000 		.4byte	0x3da
 1809 03cd 12       		.uleb128 0x12
 1810 03ce 01       		.uleb128 0x1
 1811 03cf 51       		.byte	0x51
 1812 03d0 01       		.uleb128 0x1
 1813 03d1 31       		.byte	0x31
 1814 03d2 12       		.uleb128 0x12
 1815 03d3 01       		.uleb128 0x1
 1816 03d4 50       		.byte	0x50
 1817 03d5 03       		.uleb128 0x3
 1818 03d6 40       		.byte	0x40
 1819 03d7 3F       		.byte	0x3f
 1820 03d8 24       		.byte	0x24
 1821 03d9 00       		.byte	0
 1822 03da 13       		.uleb128 0x13
 1823 03db 98000000 		.4byte	.LVL15
 1824 03df 150B0000 		.4byte	0xb15
 1825 03e3 F4030000 		.4byte	0x3f4
 1826 03e7 12       		.uleb128 0x12
 1827 03e8 01       		.uleb128 0x1
 1828 03e9 51       		.byte	0x51
 1829 03ea 01       		.uleb128 0x1
 1830 03eb 30       		.byte	0x30
 1831 03ec 12       		.uleb128 0x12
 1832 03ed 01       		.uleb128 0x1
 1833 03ee 50       		.byte	0x50
 1834 03ef 03       		.uleb128 0x3
 1835 03f0 40       		.byte	0x40
 1836 03f1 3F       		.byte	0x3f
 1837 03f2 24       		.byte	0x24
 1838 03f3 00       		.byte	0
 1839 03f4 11       		.uleb128 0x11
 1840 03f5 A2000000 		.4byte	.LVL17
 1841 03f9 150B0000 		.4byte	0xb15
 1842 03fd 0E040000 		.4byte	0x40e
 1843 0401 12       		.uleb128 0x12
 1844 0402 01       		.uleb128 0x1
ARM GAS  C:\Users\jsyoon\AppData\Local\Temp\cc7861fK.s 			page 34


 1845 0403 51       		.byte	0x51
 1846 0404 01       		.uleb128 0x1
 1847 0405 31       		.byte	0x31
 1848 0406 12       		.uleb128 0x12
 1849 0407 01       		.uleb128 0x1
 1850 0408 50       		.byte	0x50
 1851 0409 03       		.uleb128 0x3
 1852 040a 40       		.byte	0x40
 1853 040b 40       		.byte	0x40
 1854 040c 24       		.byte	0x24
 1855 040d 00       		.byte	0
 1856 040e 14       		.uleb128 0x14
 1857 040f B0000000 		.4byte	.LVL18
 1858 0413 150B0000 		.4byte	0xb15
 1859 0417 12       		.uleb128 0x12
 1860 0418 01       		.uleb128 0x1
 1861 0419 51       		.byte	0x51
 1862 041a 01       		.uleb128 0x1
 1863 041b 30       		.byte	0x30
 1864 041c 12       		.uleb128 0x12
 1865 041d 01       		.uleb128 0x1
 1866 041e 50       		.byte	0x50
 1867 041f 03       		.uleb128 0x3
 1868 0420 40       		.byte	0x40
 1869 0421 40       		.byte	0x40
 1870 0422 24       		.byte	0x24
 1871 0423 00       		.byte	0
 1872 0424 00       		.byte	0
 1873 0425 15       		.uleb128 0x15
 1874 0426 04       		.byte	0x4
 1875 0427 E2010000 		.4byte	0x1e2
 1876 042b 0F       		.uleb128 0xf
 1877 042c 61000000 		.4byte	.LASF51
 1878 0430 01       		.byte	0x1
 1879 0431 E9       		.byte	0xe9
 1880 0432 00000000 		.4byte	.LFB112
 1881 0436 C4000000 		.4byte	.LFE112-.LFB112
 1882 043a 01       		.uleb128 0x1
 1883 043b 9C       		.byte	0x9c
 1884 043c B9040000 		.4byte	0x4b9
 1885 0440 10       		.uleb128 0x10
 1886 0441 E6040000 		.4byte	.LASF52
 1887 0445 01       		.byte	0x1
 1888 0446 E9       		.byte	0xe9
 1889 0447 25040000 		.4byte	0x425
 1890 044b 9E000000 		.4byte	.LLST1
 1891 044f 10       		.uleb128 0x10
 1892 0450 A1060000 		.4byte	.LASF53
 1893 0454 01       		.byte	0x1
 1894 0455 E9       		.byte	0xe9
 1895 0456 B9040000 		.4byte	0x4b9
 1896 045a CA000000 		.4byte	.LLST2
 1897 045e 16       		.uleb128 0x16
 1898 045f C0030000 		.4byte	.LASF54
 1899 0463 01       		.byte	0x1
 1900 0464 EB       		.byte	0xeb
 1901 0465 B8000000 		.4byte	0xb8
ARM GAS  C:\Users\jsyoon\AppData\Local\Temp\cc7861fK.s 			page 35


 1902 0469 0F010000 		.4byte	.LLST3
 1903 046d 16       		.uleb128 0x16
 1904 046e F0020000 		.4byte	.LASF55
 1905 0472 01       		.byte	0x1
 1906 0473 EB       		.byte	0xeb
 1907 0474 B8000000 		.4byte	0xb8
 1908 0478 C0010000 		.4byte	.LLST4
 1909 047c 16       		.uleb128 0x16
 1910 047d 00000000 		.4byte	.LASF56
 1911 0481 01       		.byte	0x1
 1912 0482 EC       		.byte	0xec
 1913 0483 B8000000 		.4byte	0xb8
 1914 0487 F6010000 		.4byte	.LLST5
 1915 048b 16       		.uleb128 0x16
 1916 048c 28060000 		.4byte	.LASF57
 1917 0490 01       		.byte	0x1
 1918 0491 ED       		.byte	0xed
 1919 0492 B8000000 		.4byte	0xb8
 1920 0496 21020000 		.4byte	.LLST6
 1921 049a 17       		.uleb128 0x17
 1922 049b B2060000 		.4byte	.LASF58
 1923 049f 01       		.byte	0x1
 1924 04a0 EE       		.byte	0xee
 1925 04a1 27020000 		.4byte	0x227
 1926 04a5 02       		.uleb128 0x2
 1927 04a6 91       		.byte	0x91
 1928 04a7 58       		.sleb128 -40
 1929 04a8 18       		.uleb128 0x18
 1930 04a9 46000000 		.4byte	.LVL33
 1931 04ad 2C0B0000 		.4byte	0xb2c
 1932 04b1 12       		.uleb128 0x12
 1933 04b2 01       		.uleb128 0x1
 1934 04b3 50       		.byte	0x50
 1935 04b4 02       		.uleb128 0x2
 1936 04b5 7D       		.byte	0x7d
 1937 04b6 00       		.sleb128 0
 1938 04b7 00       		.byte	0
 1939 04b8 00       		.byte	0
 1940 04b9 15       		.uleb128 0x15
 1941 04ba 04       		.byte	0x4
 1942 04bb 83020000 		.4byte	0x283
 1943 04bf 19       		.uleb128 0x19
 1944 04c0 FA060000 		.4byte	.LASF59
 1945 04c4 01       		.byte	0x1
 1946 04c5 5A01     		.2byte	0x15a
 1947 04c7 00000000 		.4byte	.LFB113
 1948 04cb 16000000 		.4byte	.LFE113-.LFB113
 1949 04cf 01       		.uleb128 0x1
 1950 04d0 9C       		.byte	0x9c
 1951 04d1 E4040000 		.4byte	0x4e4
 1952 04d5 1A       		.uleb128 0x1a
 1953 04d6 A1060000 		.4byte	.LASF53
 1954 04da 01       		.byte	0x1
 1955 04db 5A01     		.2byte	0x15a
 1956 04dd B9040000 		.4byte	0x4b9
 1957 04e1 01       		.uleb128 0x1
 1958 04e2 50       		.byte	0x50
ARM GAS  C:\Users\jsyoon\AppData\Local\Temp\cc7861fK.s 			page 36


 1959 04e3 00       		.byte	0
 1960 04e4 19       		.uleb128 0x19
 1961 04e5 C3060000 		.4byte	.LASF60
 1962 04e9 01       		.byte	0x1
 1963 04ea 6E01     		.2byte	0x16e
 1964 04ec 00000000 		.4byte	.LFB114
 1965 04f0 22000000 		.4byte	.LFE114-.LFB114
 1966 04f4 01       		.uleb128 0x1
 1967 04f5 9C       		.byte	0x9c
 1968 04f6 29050000 		.4byte	0x529
 1969 04fa 1A       		.uleb128 0x1a
 1970 04fb E6040000 		.4byte	.LASF52
 1971 04ff 01       		.byte	0x1
 1972 0500 6E01     		.2byte	0x16e
 1973 0502 25040000 		.4byte	0x425
 1974 0506 01       		.uleb128 0x1
 1975 0507 50       		.byte	0x50
 1976 0508 1B       		.uleb128 0x1b
 1977 0509 A5030000 		.4byte	.LASF61
 1978 050d 01       		.byte	0x1
 1979 050e 6E01     		.2byte	0x16e
 1980 0510 29050000 		.4byte	0x529
 1981 0514 57020000 		.4byte	.LLST7
 1982 0518 1C       		.uleb128 0x1c
 1983 0519 C0030000 		.4byte	.LASF54
 1984 051d 01       		.byte	0x1
 1985 051e 7001     		.2byte	0x170
 1986 0520 B8000000 		.4byte	0xb8
 1987 0524 78020000 		.4byte	.LLST8
 1988 0528 00       		.byte	0
 1989 0529 15       		.uleb128 0x15
 1990 052a 04       		.byte	0x4
 1991 052b C7020000 		.4byte	0x2c7
 1992 052f 19       		.uleb128 0x19
 1993 0530 D4030000 		.4byte	.LASF62
 1994 0534 01       		.byte	0x1
 1995 0535 8D01     		.2byte	0x18d
 1996 0537 00000000 		.4byte	.LFB115
 1997 053b 0C000000 		.4byte	.LFE115-.LFB115
 1998 053f 01       		.uleb128 0x1
 1999 0540 9C       		.byte	0x9c
 2000 0541 54050000 		.4byte	0x554
 2001 0545 1A       		.uleb128 0x1a
 2002 0546 A5030000 		.4byte	.LASF61
 2003 054a 01       		.byte	0x1
 2004 054b 8D01     		.2byte	0x18d
 2005 054d 29050000 		.4byte	0x529
 2006 0551 01       		.uleb128 0x1
 2007 0552 50       		.byte	0x50
 2008 0553 00       		.byte	0
 2009 0554 19       		.uleb128 0x19
 2010 0555 2E010000 		.4byte	.LASF63
 2011 0559 01       		.byte	0x1
 2012 055a 9E01     		.2byte	0x19e
 2013 055c 00000000 		.4byte	.LFB116
 2014 0560 1A000000 		.4byte	.LFE116-.LFB116
 2015 0564 01       		.uleb128 0x1
ARM GAS  C:\Users\jsyoon\AppData\Local\Temp\cc7861fK.s 			page 37


 2016 0565 9C       		.byte	0x9c
 2017 0566 87050000 		.4byte	0x587
 2018 056a 1A       		.uleb128 0x1a
 2019 056b E6040000 		.4byte	.LASF52
 2020 056f 01       		.byte	0x1
 2021 0570 9E01     		.2byte	0x19e
 2022 0572 25040000 		.4byte	0x425
 2023 0576 01       		.uleb128 0x1
 2024 0577 50       		.byte	0x50
 2025 0578 1A       		.uleb128 0x1a
 2026 0579 9A020000 		.4byte	.LASF64
 2027 057d 01       		.byte	0x1
 2028 057e 9E01     		.2byte	0x19e
 2029 0580 18010000 		.4byte	0x118
 2030 0584 01       		.uleb128 0x1
 2031 0585 51       		.byte	0x51
 2032 0586 00       		.byte	0
 2033 0587 19       		.uleb128 0x19
 2034 0588 4E000000 		.4byte	.LASF65
 2035 058c 01       		.byte	0x1
 2036 058d B801     		.2byte	0x1b8
 2037 058f 00000000 		.4byte	.LFB117
 2038 0593 12000000 		.4byte	.LFE117-.LFB117
 2039 0597 01       		.uleb128 0x1
 2040 0598 9C       		.byte	0x9c
 2041 0599 BC050000 		.4byte	0x5bc
 2042 059d 1A       		.uleb128 0x1a
 2043 059e E6040000 		.4byte	.LASF52
 2044 05a2 01       		.byte	0x1
 2045 05a3 B801     		.2byte	0x1b8
 2046 05a5 25040000 		.4byte	0x425
 2047 05a9 01       		.uleb128 0x1
 2048 05aa 50       		.byte	0x50
 2049 05ab 1B       		.uleb128 0x1b
 2050 05ac 0B070000 		.4byte	.LASF66
 2051 05b0 01       		.byte	0x1
 2052 05b1 B801     		.2byte	0x1b8
 2053 05b3 97000000 		.4byte	0x97
 2054 05b7 C6020000 		.4byte	.LLST9
 2055 05bb 00       		.byte	0
 2056 05bc 19       		.uleb128 0x19
 2057 05bd 58050000 		.4byte	.LASF67
 2058 05c1 01       		.byte	0x1
 2059 05c2 CD01     		.2byte	0x1cd
 2060 05c4 00000000 		.4byte	.LFB118
 2061 05c8 1A000000 		.4byte	.LFE118-.LFB118
 2062 05cc 01       		.uleb128 0x1
 2063 05cd 9C       		.byte	0x9c
 2064 05ce EF050000 		.4byte	0x5ef
 2065 05d2 1A       		.uleb128 0x1a
 2066 05d3 E6040000 		.4byte	.LASF52
 2067 05d7 01       		.byte	0x1
 2068 05d8 CD01     		.2byte	0x1cd
 2069 05da 25040000 		.4byte	0x425
 2070 05de 01       		.uleb128 0x1
 2071 05df 50       		.byte	0x50
 2072 05e0 1A       		.uleb128 0x1a
ARM GAS  C:\Users\jsyoon\AppData\Local\Temp\cc7861fK.s 			page 38


 2073 05e1 9A020000 		.4byte	.LASF64
 2074 05e5 01       		.byte	0x1
 2075 05e6 CD01     		.2byte	0x1cd
 2076 05e8 18010000 		.4byte	0x118
 2077 05ec 01       		.uleb128 0x1
 2078 05ed 51       		.byte	0x51
 2079 05ee 00       		.byte	0
 2080 05ef 19       		.uleb128 0x19
 2081 05f0 ED040000 		.4byte	.LASF68
 2082 05f4 01       		.byte	0x1
 2083 05f5 E701     		.2byte	0x1e7
 2084 05f7 00000000 		.4byte	.LFB119
 2085 05fb 1A000000 		.4byte	.LFE119-.LFB119
 2086 05ff 01       		.uleb128 0x1
 2087 0600 9C       		.byte	0x9c
 2088 0601 22060000 		.4byte	0x622
 2089 0605 1A       		.uleb128 0x1a
 2090 0606 E6040000 		.4byte	.LASF52
 2091 060a 01       		.byte	0x1
 2092 060b E701     		.2byte	0x1e7
 2093 060d 25040000 		.4byte	0x425
 2094 0611 01       		.uleb128 0x1
 2095 0612 50       		.byte	0x50
 2096 0613 1A       		.uleb128 0x1a
 2097 0614 9A020000 		.4byte	.LASF64
 2098 0618 01       		.byte	0x1
 2099 0619 E701     		.2byte	0x1e7
 2100 061b 18010000 		.4byte	0x118
 2101 061f 01       		.uleb128 0x1
 2102 0620 51       		.byte	0x51
 2103 0621 00       		.byte	0
 2104 0622 19       		.uleb128 0x19
 2105 0623 5C020000 		.4byte	.LASF69
 2106 0627 01       		.byte	0x1
 2107 0628 2002     		.2byte	0x220
 2108 062a 00000000 		.4byte	.LFB120
 2109 062e 08000000 		.4byte	.LFE120-.LFB120
 2110 0632 01       		.uleb128 0x1
 2111 0633 9C       		.byte	0x9c
 2112 0634 57060000 		.4byte	0x657
 2113 0638 1A       		.uleb128 0x1a
 2114 0639 E6040000 		.4byte	.LASF52
 2115 063d 01       		.byte	0x1
 2116 063e 2002     		.2byte	0x220
 2117 0640 25040000 		.4byte	0x425
 2118 0644 01       		.uleb128 0x1
 2119 0645 50       		.byte	0x50
 2120 0646 1B       		.uleb128 0x1b
 2121 0647 BB030000 		.4byte	.LASF70
 2122 064b 01       		.byte	0x1
 2123 064c 2002     		.2byte	0x220
 2124 064e A2000000 		.4byte	0xa2
 2125 0652 E7020000 		.4byte	.LLST10
 2126 0656 00       		.byte	0
 2127 0657 1D       		.uleb128 0x1d
 2128 0658 74070000 		.4byte	.LASF96
 2129 065c 01       		.byte	0x1
ARM GAS  C:\Users\jsyoon\AppData\Local\Temp\cc7861fK.s 			page 39


 2130 065d 3002     		.2byte	0x230
 2131 065f A2000000 		.4byte	0xa2
 2132 0663 00000000 		.4byte	.LFB121
 2133 0667 08000000 		.4byte	.LFE121-.LFB121
 2134 066b 01       		.uleb128 0x1
 2135 066c 9C       		.byte	0x9c
 2136 066d 82060000 		.4byte	0x682
 2137 0671 1B       		.uleb128 0x1b
 2138 0672 E6040000 		.4byte	.LASF52
 2139 0676 01       		.byte	0x1
 2140 0677 3002     		.2byte	0x230
 2141 0679 25040000 		.4byte	0x425
 2142 067d 08030000 		.4byte	.LLST11
 2143 0681 00       		.byte	0
 2144 0682 19       		.uleb128 0x19
 2145 0683 13040000 		.4byte	.LASF71
 2146 0687 01       		.byte	0x1
 2147 0688 6302     		.2byte	0x263
 2148 068a 00000000 		.4byte	.LFB122
 2149 068e 16000000 		.4byte	.LFE122-.LFB122
 2150 0692 01       		.uleb128 0x1
 2151 0693 9C       		.byte	0x9c
 2152 0694 B7060000 		.4byte	0x6b7
 2153 0698 1A       		.uleb128 0x1a
 2154 0699 E6040000 		.4byte	.LASF52
 2155 069d 01       		.byte	0x1
 2156 069e 6302     		.2byte	0x263
 2157 06a0 25040000 		.4byte	0x425
 2158 06a4 01       		.uleb128 0x1
 2159 06a5 50       		.byte	0x50
 2160 06a6 1B       		.uleb128 0x1b
 2161 06a7 3B050000 		.4byte	.LASF72
 2162 06ab 01       		.byte	0x1
 2163 06ac 6302     		.2byte	0x263
 2164 06ae 97000000 		.4byte	0x97
 2165 06b2 29030000 		.4byte	.LLST12
 2166 06b6 00       		.byte	0
 2167 06b7 19       		.uleb128 0x19
 2168 06b8 25000000 		.4byte	.LASF73
 2169 06bc 01       		.byte	0x1
 2170 06bd 7702     		.2byte	0x277
 2171 06bf 00000000 		.4byte	.LFB123
 2172 06c3 1A000000 		.4byte	.LFE123-.LFB123
 2173 06c7 01       		.uleb128 0x1
 2174 06c8 9C       		.byte	0x9c
 2175 06c9 EA060000 		.4byte	0x6ea
 2176 06cd 1A       		.uleb128 0x1a
 2177 06ce E6040000 		.4byte	.LASF52
 2178 06d2 01       		.byte	0x1
 2179 06d3 7702     		.2byte	0x277
 2180 06d5 25040000 		.4byte	0x425
 2181 06d9 01       		.uleb128 0x1
 2182 06da 50       		.byte	0x50
 2183 06db 1A       		.uleb128 0x1a
 2184 06dc 9A020000 		.4byte	.LASF64
 2185 06e0 01       		.byte	0x1
 2186 06e1 7702     		.2byte	0x277
ARM GAS  C:\Users\jsyoon\AppData\Local\Temp\cc7861fK.s 			page 40


 2187 06e3 18010000 		.4byte	0x118
 2188 06e7 01       		.uleb128 0x1
 2189 06e8 51       		.byte	0x51
 2190 06e9 00       		.byte	0
 2191 06ea 19       		.uleb128 0x19
 2192 06eb D3060000 		.4byte	.LASF74
 2193 06ef 01       		.byte	0x1
 2194 06f0 9202     		.2byte	0x292
 2195 06f2 00000000 		.4byte	.LFB124
 2196 06f6 16000000 		.4byte	.LFE124-.LFB124
 2197 06fa 01       		.uleb128 0x1
 2198 06fb 9C       		.byte	0x9c
 2199 06fc 1F070000 		.4byte	0x71f
 2200 0700 1A       		.uleb128 0x1a
 2201 0701 E6040000 		.4byte	.LASF52
 2202 0705 01       		.byte	0x1
 2203 0706 9202     		.2byte	0x292
 2204 0708 25040000 		.4byte	0x425
 2205 070c 01       		.uleb128 0x1
 2206 070d 50       		.byte	0x50
 2207 070e 1B       		.uleb128 0x1b
 2208 070f 7C020000 		.4byte	.LASF75
 2209 0713 01       		.byte	0x1
 2210 0714 9202     		.2byte	0x292
 2211 0716 A2000000 		.4byte	0xa2
 2212 071a 4A030000 		.4byte	.LLST13
 2213 071e 00       		.byte	0
 2214 071f 19       		.uleb128 0x19
 2215 0720 62030000 		.4byte	.LASF76
 2216 0724 01       		.byte	0x1
 2217 0725 D702     		.2byte	0x2d7
 2218 0727 00000000 		.4byte	.LFB125
 2219 072b 16000000 		.4byte	.LFE125-.LFB125
 2220 072f 01       		.uleb128 0x1
 2221 0730 9C       		.byte	0x9c
 2222 0731 54070000 		.4byte	0x754
 2223 0735 1A       		.uleb128 0x1a
 2224 0736 E6040000 		.4byte	.LASF52
 2225 073a 01       		.byte	0x1
 2226 073b D702     		.2byte	0x2d7
 2227 073d 25040000 		.4byte	0x425
 2228 0741 01       		.uleb128 0x1
 2229 0742 50       		.byte	0x50
 2230 0743 1B       		.uleb128 0x1b
 2231 0744 B4000000 		.4byte	.LASF77
 2232 0748 01       		.byte	0x1
 2233 0749 D702     		.2byte	0x2d7
 2234 074b A2000000 		.4byte	0xa2
 2235 074f 6B030000 		.4byte	.LLST14
 2236 0753 00       		.byte	0
 2237 0754 19       		.uleb128 0x19
 2238 0755 94050000 		.4byte	.LASF78
 2239 0759 01       		.byte	0x1
 2240 075a E902     		.2byte	0x2e9
 2241 075c 00000000 		.4byte	.LFB126
 2242 0760 1A000000 		.4byte	.LFE126-.LFB126
 2243 0764 01       		.uleb128 0x1
ARM GAS  C:\Users\jsyoon\AppData\Local\Temp\cc7861fK.s 			page 41


 2244 0765 9C       		.byte	0x9c
 2245 0766 87070000 		.4byte	0x787
 2246 076a 1A       		.uleb128 0x1a
 2247 076b E6040000 		.4byte	.LASF52
 2248 076f 01       		.byte	0x1
 2249 0770 E902     		.2byte	0x2e9
 2250 0772 25040000 		.4byte	0x425
 2251 0776 01       		.uleb128 0x1
 2252 0777 50       		.byte	0x50
 2253 0778 1A       		.uleb128 0x1a
 2254 0779 9A020000 		.4byte	.LASF64
 2255 077d 01       		.byte	0x1
 2256 077e E902     		.2byte	0x2e9
 2257 0780 18010000 		.4byte	0x118
 2258 0784 01       		.uleb128 0x1
 2259 0785 51       		.byte	0x51
 2260 0786 00       		.byte	0
 2261 0787 19       		.uleb128 0x19
 2262 0788 7F040000 		.4byte	.LASF79
 2263 078c 01       		.byte	0x1
 2264 078d 0103     		.2byte	0x301
 2265 078f 00000000 		.4byte	.LFB127
 2266 0793 0C000000 		.4byte	.LFE127-.LFB127
 2267 0797 01       		.uleb128 0x1
 2268 0798 9C       		.byte	0x9c
 2269 0799 AC070000 		.4byte	0x7ac
 2270 079d 1A       		.uleb128 0x1a
 2271 079e E6040000 		.4byte	.LASF52
 2272 07a2 01       		.byte	0x1
 2273 07a3 0103     		.2byte	0x301
 2274 07a5 25040000 		.4byte	0x425
 2275 07a9 01       		.uleb128 0x1
 2276 07aa 50       		.byte	0x50
 2277 07ab 00       		.byte	0
 2278 07ac 19       		.uleb128 0x19
 2279 07ad E6060000 		.4byte	.LASF80
 2280 07b1 01       		.byte	0x1
 2281 07b2 3603     		.2byte	0x336
 2282 07b4 00000000 		.4byte	.LFB128
 2283 07b8 1A000000 		.4byte	.LFE128-.LFB128
 2284 07bc 01       		.uleb128 0x1
 2285 07bd 9C       		.byte	0x9c
 2286 07be DF070000 		.4byte	0x7df
 2287 07c2 1A       		.uleb128 0x1a
 2288 07c3 E6040000 		.4byte	.LASF52
 2289 07c7 01       		.byte	0x1
 2290 07c8 3603     		.2byte	0x336
 2291 07ca 25040000 		.4byte	0x425
 2292 07ce 01       		.uleb128 0x1
 2293 07cf 50       		.byte	0x50
 2294 07d0 1A       		.uleb128 0x1a
 2295 07d1 9A020000 		.4byte	.LASF64
 2296 07d5 01       		.byte	0x1
 2297 07d6 3603     		.2byte	0x336
 2298 07d8 18010000 		.4byte	0x118
 2299 07dc 01       		.uleb128 0x1
 2300 07dd 51       		.byte	0x51
ARM GAS  C:\Users\jsyoon\AppData\Local\Temp\cc7861fK.s 			page 42


 2301 07de 00       		.byte	0
 2302 07df 19       		.uleb128 0x19
 2303 07e0 44040000 		.4byte	.LASF81
 2304 07e4 01       		.byte	0x1
 2305 07e5 8B03     		.2byte	0x38b
 2306 07e7 00000000 		.4byte	.LFB129
 2307 07eb 12000000 		.4byte	.LFE129-.LFB129
 2308 07ef 01       		.uleb128 0x1
 2309 07f0 9C       		.byte	0x9c
 2310 07f1 14080000 		.4byte	0x814
 2311 07f5 1A       		.uleb128 0x1a
 2312 07f6 E6040000 		.4byte	.LASF52
 2313 07fa 01       		.byte	0x1
 2314 07fb 8B03     		.2byte	0x38b
 2315 07fd 25040000 		.4byte	0x425
 2316 0801 01       		.uleb128 0x1
 2317 0802 50       		.byte	0x50
 2318 0803 1B       		.uleb128 0x1b
 2319 0804 48030000 		.4byte	.LASF82
 2320 0808 01       		.byte	0x1
 2321 0809 8B03     		.2byte	0x38b
 2322 080b 97000000 		.4byte	0x97
 2323 080f 8C030000 		.4byte	.LLST15
 2324 0813 00       		.byte	0
 2325 0814 19       		.uleb128 0x19
 2326 0815 1D050000 		.4byte	.LASF83
 2327 0819 01       		.byte	0x1
 2328 081a 9E03     		.2byte	0x39e
 2329 081c 00000000 		.4byte	.LFB130
 2330 0820 1A000000 		.4byte	.LFE130-.LFB130
 2331 0824 01       		.uleb128 0x1
 2332 0825 9C       		.byte	0x9c
 2333 0826 47080000 		.4byte	0x847
 2334 082a 1A       		.uleb128 0x1a
 2335 082b E6040000 		.4byte	.LASF52
 2336 082f 01       		.byte	0x1
 2337 0830 9E03     		.2byte	0x39e
 2338 0832 25040000 		.4byte	0x425
 2339 0836 01       		.uleb128 0x1
 2340 0837 50       		.byte	0x50
 2341 0838 1A       		.uleb128 0x1a
 2342 0839 9A020000 		.4byte	.LASF64
 2343 083d 01       		.byte	0x1
 2344 083e 9E03     		.2byte	0x39e
 2345 0840 18010000 		.4byte	0x118
 2346 0844 01       		.uleb128 0x1
 2347 0845 51       		.byte	0x51
 2348 0846 00       		.byte	0
 2349 0847 19       		.uleb128 0x19
 2350 0848 4A060000 		.4byte	.LASF84
 2351 084c 01       		.byte	0x1
 2352 084d B703     		.2byte	0x3b7
 2353 084f 00000000 		.4byte	.LFB131
 2354 0853 1A000000 		.4byte	.LFE131-.LFB131
 2355 0857 01       		.uleb128 0x1
 2356 0858 9C       		.byte	0x9c
 2357 0859 7A080000 		.4byte	0x87a
ARM GAS  C:\Users\jsyoon\AppData\Local\Temp\cc7861fK.s 			page 43


 2358 085d 1A       		.uleb128 0x1a
 2359 085e E6040000 		.4byte	.LASF52
 2360 0862 01       		.byte	0x1
 2361 0863 B703     		.2byte	0x3b7
 2362 0865 25040000 		.4byte	0x425
 2363 0869 01       		.uleb128 0x1
 2364 086a 50       		.byte	0x50
 2365 086b 1A       		.uleb128 0x1a
 2366 086c 9A020000 		.4byte	.LASF64
 2367 0870 01       		.byte	0x1
 2368 0871 B703     		.2byte	0x3b7
 2369 0873 18010000 		.4byte	0x118
 2370 0877 01       		.uleb128 0x1
 2371 0878 51       		.byte	0x51
 2372 0879 00       		.byte	0
 2373 087a 19       		.uleb128 0x19
 2374 087b A1050000 		.4byte	.LASF85
 2375 087f 01       		.byte	0x1
 2376 0880 FE03     		.2byte	0x3fe
 2377 0882 00000000 		.4byte	.LFB132
 2378 0886 16000000 		.4byte	.LFE132-.LFB132
 2379 088a 01       		.uleb128 0x1
 2380 088b 9C       		.byte	0x9c
 2381 088c AF080000 		.4byte	0x8af
 2382 0890 1A       		.uleb128 0x1a
 2383 0891 E6040000 		.4byte	.LASF52
 2384 0895 01       		.byte	0x1
 2385 0896 FE03     		.2byte	0x3fe
 2386 0898 25040000 		.4byte	0x425
 2387 089c 01       		.uleb128 0x1
 2388 089d 50       		.byte	0x50
 2389 089e 1B       		.uleb128 0x1b
 2390 089f E1020000 		.4byte	.LASF86
 2391 08a3 01       		.byte	0x1
 2392 08a4 FE03     		.2byte	0x3fe
 2393 08a6 A2000000 		.4byte	0xa2
 2394 08aa AD030000 		.4byte	.LLST16
 2395 08ae 00       		.byte	0
 2396 08af 19       		.uleb128 0x19
 2397 08b0 1A060000 		.4byte	.LASF87
 2398 08b4 01       		.byte	0x1
 2399 08b5 1004     		.2byte	0x410
 2400 08b7 00000000 		.4byte	.LFB133
 2401 08bb 1A000000 		.4byte	.LFE133-.LFB133
 2402 08bf 01       		.uleb128 0x1
 2403 08c0 9C       		.byte	0x9c
 2404 08c1 E2080000 		.4byte	0x8e2
 2405 08c5 1A       		.uleb128 0x1a
 2406 08c6 E6040000 		.4byte	.LASF52
 2407 08ca 01       		.byte	0x1
 2408 08cb 1004     		.2byte	0x410
 2409 08cd 25040000 		.4byte	0x425
 2410 08d1 01       		.uleb128 0x1
 2411 08d2 50       		.byte	0x50
 2412 08d3 1A       		.uleb128 0x1a
 2413 08d4 9A020000 		.4byte	.LASF64
 2414 08d8 01       		.byte	0x1
ARM GAS  C:\Users\jsyoon\AppData\Local\Temp\cc7861fK.s 			page 44


 2415 08d9 1004     		.2byte	0x410
 2416 08db 18010000 		.4byte	0x118
 2417 08df 01       		.uleb128 0x1
 2418 08e0 51       		.byte	0x51
 2419 08e1 00       		.byte	0
 2420 08e2 19       		.uleb128 0x19
 2421 08e3 A3020000 		.4byte	.LASF88
 2422 08e7 01       		.byte	0x1
 2423 08e8 3E04     		.2byte	0x43e
 2424 08ea 00000000 		.4byte	.LFB134
 2425 08ee 14000000 		.4byte	.LFE134-.LFB134
 2426 08f2 01       		.uleb128 0x1
 2427 08f3 9C       		.byte	0x9c
 2428 08f4 25090000 		.4byte	0x925
 2429 08f8 1A       		.uleb128 0x1a
 2430 08f9 E6040000 		.4byte	.LASF52
 2431 08fd 01       		.byte	0x1
 2432 08fe 3E04     		.2byte	0x43e
 2433 0900 25040000 		.4byte	0x425
 2434 0904 01       		.uleb128 0x1
 2435 0905 50       		.byte	0x50
 2436 0906 1B       		.uleb128 0x1b
 2437 0907 D9040000 		.4byte	.LASF89
 2438 090b 01       		.byte	0x1
 2439 090c 3E04     		.2byte	0x43e
 2440 090e A2000000 		.4byte	0xa2
 2441 0912 CE030000 		.4byte	.LLST17
 2442 0916 1A       		.uleb128 0x1a
 2443 0917 9A020000 		.4byte	.LASF64
 2444 091b 01       		.byte	0x1
 2445 091c 3E04     		.2byte	0x43e
 2446 091e 18010000 		.4byte	0x118
 2447 0922 01       		.uleb128 0x1
 2448 0923 52       		.byte	0x52
 2449 0924 00       		.byte	0
 2450 0925 19       		.uleb128 0x19
 2451 0926 B8040000 		.4byte	.LASF90
 2452 092a 01       		.byte	0x1
 2453 092b BE04     		.2byte	0x4be
 2454 092d 00000000 		.4byte	.LFB135
 2455 0931 3A000000 		.4byte	.LFE135-.LFB135
 2456 0935 01       		.uleb128 0x1
 2457 0936 9C       		.byte	0x9c
 2458 0937 A8090000 		.4byte	0x9a8
 2459 093b 1B       		.uleb128 0x1b
 2460 093c E6040000 		.4byte	.LASF52
 2461 0940 01       		.byte	0x1
 2462 0941 BE04     		.2byte	0x4be
 2463 0943 25040000 		.4byte	0x425
 2464 0947 08040000 		.4byte	.LLST18
 2465 094b 1B       		.uleb128 0x1b
 2466 094c 73020000 		.4byte	.LASF91
 2467 0950 01       		.byte	0x1
 2468 0951 BE04     		.2byte	0x4be
 2469 0953 A2000000 		.4byte	0xa2
 2470 0957 41040000 		.4byte	.LLST19
 2471 095b 1A       		.uleb128 0x1a
ARM GAS  C:\Users\jsyoon\AppData\Local\Temp\cc7861fK.s 			page 45


 2472 095c 9A020000 		.4byte	.LASF64
 2473 0960 01       		.byte	0x1
 2474 0961 BE04     		.2byte	0x4be
 2475 0963 18010000 		.4byte	0x118
 2476 0967 01       		.uleb128 0x1
 2477 0968 52       		.byte	0x52
 2478 0969 1C       		.uleb128 0x1c
 2479 096a 86070000 		.4byte	.LASF92
 2480 096e 01       		.byte	0x1
 2481 096f C004     		.2byte	0x4c0
 2482 0971 B8000000 		.4byte	0xb8
 2483 0975 62040000 		.4byte	.LLST20
 2484 0979 1C       		.uleb128 0x1c
 2485 097a 1F000000 		.4byte	.LASF93
 2486 097e 01       		.byte	0x1
 2487 097f C004     		.2byte	0x4c0
 2488 0981 B8000000 		.4byte	0xb8
 2489 0985 81040000 		.4byte	.LLST21
 2490 0989 1C       		.uleb128 0x1c
 2491 098a 26070000 		.4byte	.LASF94
 2492 098e 01       		.byte	0x1
 2493 098f C004     		.2byte	0x4c0
 2494 0991 B8000000 		.4byte	0xb8
 2495 0995 95040000 		.4byte	.LLST22
 2496 0999 1E       		.uleb128 0x1e
 2497 099a F8030000 		.4byte	.LASF95
 2498 099e 01       		.byte	0x1
 2499 099f C104     		.2byte	0x4c1
 2500 09a1 B8000000 		.4byte	0xb8
 2501 09a5 01       		.uleb128 0x1
 2502 09a6 50       		.byte	0x50
 2503 09a7 00       		.byte	0
 2504 09a8 1D       		.uleb128 0x1d
 2505 09a9 71060000 		.4byte	.LASF97
 2506 09ad 01       		.byte	0x1
 2507 09ae FE04     		.2byte	0x4fe
 2508 09b0 EA000000 		.4byte	0xea
 2509 09b4 00000000 		.4byte	.LFB136
 2510 09b8 0C000000 		.4byte	.LFE136-.LFB136
 2511 09bc 01       		.uleb128 0x1
 2512 09bd 9C       		.byte	0x9c
 2513 09be F1090000 		.4byte	0x9f1
 2514 09c2 1B       		.uleb128 0x1b
 2515 09c3 E6040000 		.4byte	.LASF52
 2516 09c7 01       		.byte	0x1
 2517 09c8 FE04     		.2byte	0x4fe
 2518 09ca 25040000 		.4byte	0x425
 2519 09ce CA040000 		.4byte	.LLST23
 2520 09d2 1A       		.uleb128 0x1a
 2521 09d3 8D030000 		.4byte	.LASF98
 2522 09d7 01       		.byte	0x1
 2523 09d8 FE04     		.2byte	0x4fe
 2524 09da A2000000 		.4byte	0xa2
 2525 09de 01       		.uleb128 0x1
 2526 09df 51       		.byte	0x51
 2527 09e0 1C       		.uleb128 0x1c
 2528 09e1 0D010000 		.4byte	.LASF99
ARM GAS  C:\Users\jsyoon\AppData\Local\Temp\cc7861fK.s 			page 46


 2529 09e5 01       		.byte	0x1
 2530 09e6 0005     		.2byte	0x500
 2531 09e8 EA000000 		.4byte	0xea
 2532 09ec EB040000 		.4byte	.LLST24
 2533 09f0 00       		.byte	0
 2534 09f1 19       		.uleb128 0x19
 2535 09f2 03040000 		.4byte	.LASF100
 2536 09f6 01       		.byte	0x1
 2537 09f7 2F05     		.2byte	0x52f
 2538 09f9 00000000 		.4byte	.LFB137
 2539 09fd 08000000 		.4byte	.LFE137-.LFB137
 2540 0a01 01       		.uleb128 0x1
 2541 0a02 9C       		.byte	0x9c
 2542 0a03 260A0000 		.4byte	0xa26
 2543 0a07 1A       		.uleb128 0x1a
 2544 0a08 E6040000 		.4byte	.LASF52
 2545 0a0c 01       		.byte	0x1
 2546 0a0d 2F05     		.2byte	0x52f
 2547 0a0f 25040000 		.4byte	0x425
 2548 0a13 01       		.uleb128 0x1
 2549 0a14 50       		.byte	0x50
 2550 0a15 1B       		.uleb128 0x1b
 2551 0a16 8D030000 		.4byte	.LASF98
 2552 0a1a 01       		.byte	0x1
 2553 0a1b 2F05     		.2byte	0x52f
 2554 0a1d A2000000 		.4byte	0xa2
 2555 0a21 13050000 		.4byte	.LLST25
 2556 0a25 00       		.byte	0
 2557 0a26 1D       		.uleb128 0x1d
 2558 0a27 82050000 		.4byte	.LASF101
 2559 0a2b 01       		.byte	0x1
 2560 0a2c 5105     		.2byte	0x551
 2561 0a2e F6000000 		.4byte	0xf6
 2562 0a32 00000000 		.4byte	.LFB138
 2563 0a36 4C000000 		.4byte	.LFE138-.LFB138
 2564 0a3a 01       		.uleb128 0x1
 2565 0a3b 9C       		.byte	0x9c
 2566 0a3c A10A0000 		.4byte	0xaa1
 2567 0a40 1B       		.uleb128 0x1b
 2568 0a41 E6040000 		.4byte	.LASF52
 2569 0a45 01       		.byte	0x1
 2570 0a46 5105     		.2byte	0x551
 2571 0a48 25040000 		.4byte	0x425
 2572 0a4c 34050000 		.4byte	.LLST26
 2573 0a50 1B       		.uleb128 0x1b
 2574 0a51 73020000 		.4byte	.LASF91
 2575 0a55 01       		.byte	0x1
 2576 0a56 5105     		.2byte	0x551
 2577 0a58 A2000000 		.4byte	0xa2
 2578 0a5c 79050000 		.4byte	.LLST27
 2579 0a60 1C       		.uleb128 0x1c
 2580 0a61 51050000 		.4byte	.LASF102
 2581 0a65 01       		.byte	0x1
 2582 0a66 5305     		.2byte	0x553
 2583 0a68 B8000000 		.4byte	0xb8
 2584 0a6c A5050000 		.4byte	.LLST28
 2585 0a70 1C       		.uleb128 0x1c
ARM GAS  C:\Users\jsyoon\AppData\Local\Temp\cc7861fK.s 			page 47


 2586 0a71 26070000 		.4byte	.LASF94
 2587 0a75 01       		.byte	0x1
 2588 0a76 5305     		.2byte	0x553
 2589 0a78 B8000000 		.4byte	0xb8
 2590 0a7c 12060000 		.4byte	.LLST29
 2591 0a80 1C       		.uleb128 0x1c
 2592 0a81 86070000 		.4byte	.LASF92
 2593 0a85 01       		.byte	0x1
 2594 0a86 5305     		.2byte	0x553
 2595 0a88 B8000000 		.4byte	0xb8
 2596 0a8c 70060000 		.4byte	.LLST30
 2597 0a90 1C       		.uleb128 0x1c
 2598 0a91 0D010000 		.4byte	.LASF99
 2599 0a95 01       		.byte	0x1
 2600 0a96 5405     		.2byte	0x554
 2601 0a98 F6000000 		.4byte	0xf6
 2602 0a9c D0060000 		.4byte	.LLST31
 2603 0aa0 00       		.byte	0
 2604 0aa1 19       		.uleb128 0x19
 2605 0aa2 30030000 		.4byte	.LASF103
 2606 0aa6 01       		.byte	0x1
 2607 0aa7 9B05     		.2byte	0x59b
 2608 0aa9 00000000 		.4byte	.LFB139
 2609 0aad 10000000 		.4byte	.LFE139-.LFB139
 2610 0ab1 01       		.uleb128 0x1
 2611 0ab2 9C       		.byte	0x9c
 2612 0ab3 F20A0000 		.4byte	0xaf2
 2613 0ab7 1A       		.uleb128 0x1a
 2614 0ab8 E6040000 		.4byte	.LASF52
 2615 0abc 01       		.byte	0x1
 2616 0abd 9B05     		.2byte	0x59b
 2617 0abf 25040000 		.4byte	0x425
 2618 0ac3 01       		.uleb128 0x1
 2619 0ac4 50       		.byte	0x50
 2620 0ac5 1B       		.uleb128 0x1b
 2621 0ac6 73020000 		.4byte	.LASF91
 2622 0aca 01       		.byte	0x1
 2623 0acb 9B05     		.2byte	0x59b
 2624 0acd A2000000 		.4byte	0xa2
 2625 0ad1 12070000 		.4byte	.LLST32
 2626 0ad5 1C       		.uleb128 0x1c
 2627 0ad6 51050000 		.4byte	.LASF102
 2628 0ada 01       		.byte	0x1
 2629 0adb 9D05     		.2byte	0x59d
 2630 0add A2000000 		.4byte	0xa2
 2631 0ae1 33070000 		.4byte	.LLST33
 2632 0ae5 1F       		.uleb128 0x1f
 2633 0ae6 26070000 		.4byte	.LASF94
 2634 0aea 01       		.byte	0x1
 2635 0aeb 9D05     		.2byte	0x59d
 2636 0aed A2000000 		.4byte	0xa2
 2637 0af1 00       		.byte	0
 2638 0af2 20       		.uleb128 0x20
 2639 0af3 2D070000 		.4byte	.LASF110
 2640 0af7 07       		.byte	0x7
 2641 0af8 9806     		.2byte	0x698
 2642 0afa CF000000 		.4byte	0xcf
ARM GAS  C:\Users\jsyoon\AppData\Local\Temp\cc7861fK.s 			page 48


 2643 0afe 21       		.uleb128 0x21
 2644 0aff A1040000 		.4byte	.LASF104
 2645 0b03 05       		.byte	0x5
 2646 0b04 E701     		.2byte	0x1e7
 2647 0b06 150B0000 		.4byte	0xb15
 2648 0b0a 22       		.uleb128 0x22
 2649 0b0b B8000000 		.4byte	0xb8
 2650 0b0f 22       		.uleb128 0x22
 2651 0b10 18010000 		.4byte	0x118
 2652 0b14 00       		.byte	0
 2653 0b15 21       		.uleb128 0x21
 2654 0b16 07030000 		.4byte	.LASF105
 2655 0b1a 05       		.byte	0x5
 2656 0b1b E601     		.2byte	0x1e6
 2657 0b1d 2C0B0000 		.4byte	0xb2c
 2658 0b21 22       		.uleb128 0x22
 2659 0b22 B8000000 		.4byte	0xb8
 2660 0b26 22       		.uleb128 0x22
 2661 0b27 18010000 		.4byte	0x118
 2662 0b2b 00       		.byte	0
 2663 0b2c 21       		.uleb128 0x21
 2664 0b2d 8F060000 		.4byte	.LASF106
 2665 0b31 05       		.byte	0x5
 2666 0b32 D501     		.2byte	0x1d5
 2667 0b34 3E0B0000 		.4byte	0xb3e
 2668 0b38 22       		.uleb128 0x22
 2669 0b39 3E0B0000 		.4byte	0xb3e
 2670 0b3d 00       		.byte	0
 2671 0b3e 15       		.uleb128 0x15
 2672 0b3f 04       		.byte	0x4
 2673 0b40 27020000 		.4byte	0x227
 2674 0b44 00       		.byte	0
 2675              		.section	.debug_abbrev,"",%progbits
 2676              	.Ldebug_abbrev0:
 2677 0000 01       		.uleb128 0x1
 2678 0001 11       		.uleb128 0x11
 2679 0002 01       		.byte	0x1
 2680 0003 25       		.uleb128 0x25
 2681 0004 0E       		.uleb128 0xe
 2682 0005 13       		.uleb128 0x13
 2683 0006 0B       		.uleb128 0xb
 2684 0007 03       		.uleb128 0x3
 2685 0008 0E       		.uleb128 0xe
 2686 0009 1B       		.uleb128 0x1b
 2687 000a 0E       		.uleb128 0xe
 2688 000b 55       		.uleb128 0x55
 2689 000c 17       		.uleb128 0x17
 2690 000d 11       		.uleb128 0x11
 2691 000e 01       		.uleb128 0x1
 2692 000f 10       		.uleb128 0x10
 2693 0010 17       		.uleb128 0x17
 2694 0011 00       		.byte	0
 2695 0012 00       		.byte	0
 2696 0013 02       		.uleb128 0x2
 2697 0014 24       		.uleb128 0x24
 2698 0015 00       		.byte	0
 2699 0016 0B       		.uleb128 0xb
ARM GAS  C:\Users\jsyoon\AppData\Local\Temp\cc7861fK.s 			page 49


 2700 0017 0B       		.uleb128 0xb
 2701 0018 3E       		.uleb128 0x3e
 2702 0019 0B       		.uleb128 0xb
 2703 001a 03       		.uleb128 0x3
 2704 001b 0E       		.uleb128 0xe
 2705 001c 00       		.byte	0
 2706 001d 00       		.byte	0
 2707 001e 03       		.uleb128 0x3
 2708 001f 16       		.uleb128 0x16
 2709 0020 00       		.byte	0
 2710 0021 03       		.uleb128 0x3
 2711 0022 0E       		.uleb128 0xe
 2712 0023 3A       		.uleb128 0x3a
 2713 0024 0B       		.uleb128 0xb
 2714 0025 3B       		.uleb128 0x3b
 2715 0026 0B       		.uleb128 0xb
 2716 0027 49       		.uleb128 0x49
 2717 0028 13       		.uleb128 0x13
 2718 0029 00       		.byte	0
 2719 002a 00       		.byte	0
 2720 002b 04       		.uleb128 0x4
 2721 002c 24       		.uleb128 0x24
 2722 002d 00       		.byte	0
 2723 002e 0B       		.uleb128 0xb
 2724 002f 0B       		.uleb128 0xb
 2725 0030 3E       		.uleb128 0x3e
 2726 0031 0B       		.uleb128 0xb
 2727 0032 03       		.uleb128 0x3
 2728 0033 08       		.uleb128 0x8
 2729 0034 00       		.byte	0
 2730 0035 00       		.byte	0
 2731 0036 05       		.uleb128 0x5
 2732 0037 35       		.uleb128 0x35
 2733 0038 00       		.byte	0
 2734 0039 49       		.uleb128 0x49
 2735 003a 13       		.uleb128 0x13
 2736 003b 00       		.byte	0
 2737 003c 00       		.byte	0
 2738 003d 06       		.uleb128 0x6
 2739 003e 04       		.uleb128 0x4
 2740 003f 01       		.byte	0x1
 2741 0040 0B       		.uleb128 0xb
 2742 0041 0B       		.uleb128 0xb
 2743 0042 3A       		.uleb128 0x3a
 2744 0043 0B       		.uleb128 0xb
 2745 0044 3B       		.uleb128 0x3b
 2746 0045 05       		.uleb128 0x5
 2747 0046 01       		.uleb128 0x1
 2748 0047 13       		.uleb128 0x13
 2749 0048 00       		.byte	0
 2750 0049 00       		.byte	0
 2751 004a 07       		.uleb128 0x7
 2752 004b 28       		.uleb128 0x28
 2753 004c 00       		.byte	0
 2754 004d 03       		.uleb128 0x3
 2755 004e 0E       		.uleb128 0xe
 2756 004f 1C       		.uleb128 0x1c
ARM GAS  C:\Users\jsyoon\AppData\Local\Temp\cc7861fK.s 			page 50


 2757 0050 0D       		.uleb128 0xd
 2758 0051 00       		.byte	0
 2759 0052 00       		.byte	0
 2760 0053 08       		.uleb128 0x8
 2761 0054 28       		.uleb128 0x28
 2762 0055 00       		.byte	0
 2763 0056 03       		.uleb128 0x3
 2764 0057 08       		.uleb128 0x8
 2765 0058 1C       		.uleb128 0x1c
 2766 0059 0D       		.uleb128 0xd
 2767 005a 00       		.byte	0
 2768 005b 00       		.byte	0
 2769 005c 09       		.uleb128 0x9
 2770 005d 16       		.uleb128 0x16
 2771 005e 00       		.byte	0
 2772 005f 03       		.uleb128 0x3
 2773 0060 0E       		.uleb128 0xe
 2774 0061 3A       		.uleb128 0x3a
 2775 0062 0B       		.uleb128 0xb
 2776 0063 3B       		.uleb128 0x3b
 2777 0064 05       		.uleb128 0x5
 2778 0065 49       		.uleb128 0x49
 2779 0066 13       		.uleb128 0x13
 2780 0067 00       		.byte	0
 2781 0068 00       		.byte	0
 2782 0069 0A       		.uleb128 0xa
 2783 006a 13       		.uleb128 0x13
 2784 006b 01       		.byte	0x1
 2785 006c 0B       		.uleb128 0xb
 2786 006d 0B       		.uleb128 0xb
 2787 006e 3A       		.uleb128 0x3a
 2788 006f 0B       		.uleb128 0xb
 2789 0070 3B       		.uleb128 0x3b
 2790 0071 05       		.uleb128 0x5
 2791 0072 01       		.uleb128 0x1
 2792 0073 13       		.uleb128 0x13
 2793 0074 00       		.byte	0
 2794 0075 00       		.byte	0
 2795 0076 0B       		.uleb128 0xb
 2796 0077 0D       		.uleb128 0xd
 2797 0078 00       		.byte	0
 2798 0079 03       		.uleb128 0x3
 2799 007a 08       		.uleb128 0x8
 2800 007b 3A       		.uleb128 0x3a
 2801 007c 0B       		.uleb128 0xb
 2802 007d 3B       		.uleb128 0x3b
 2803 007e 05       		.uleb128 0x5
 2804 007f 49       		.uleb128 0x49
 2805 0080 13       		.uleb128 0x13
 2806 0081 38       		.uleb128 0x38
 2807 0082 0B       		.uleb128 0xb
 2808 0083 00       		.byte	0
 2809 0084 00       		.byte	0
 2810 0085 0C       		.uleb128 0xc
 2811 0086 0D       		.uleb128 0xd
 2812 0087 00       		.byte	0
 2813 0088 03       		.uleb128 0x3
ARM GAS  C:\Users\jsyoon\AppData\Local\Temp\cc7861fK.s 			page 51


 2814 0089 0E       		.uleb128 0xe
 2815 008a 3A       		.uleb128 0x3a
 2816 008b 0B       		.uleb128 0xb
 2817 008c 3B       		.uleb128 0x3b
 2818 008d 05       		.uleb128 0x5
 2819 008e 49       		.uleb128 0x49
 2820 008f 13       		.uleb128 0x13
 2821 0090 38       		.uleb128 0x38
 2822 0091 0B       		.uleb128 0xb
 2823 0092 00       		.byte	0
 2824 0093 00       		.byte	0
 2825 0094 0D       		.uleb128 0xd
 2826 0095 13       		.uleb128 0x13
 2827 0096 01       		.byte	0x1
 2828 0097 0B       		.uleb128 0xb
 2829 0098 0B       		.uleb128 0xb
 2830 0099 3A       		.uleb128 0x3a
 2831 009a 0B       		.uleb128 0xb
 2832 009b 3B       		.uleb128 0x3b
 2833 009c 0B       		.uleb128 0xb
 2834 009d 01       		.uleb128 0x1
 2835 009e 13       		.uleb128 0x13
 2836 009f 00       		.byte	0
 2837 00a0 00       		.byte	0
 2838 00a1 0E       		.uleb128 0xe
 2839 00a2 0D       		.uleb128 0xd
 2840 00a3 00       		.byte	0
 2841 00a4 03       		.uleb128 0x3
 2842 00a5 0E       		.uleb128 0xe
 2843 00a6 3A       		.uleb128 0x3a
 2844 00a7 0B       		.uleb128 0xb
 2845 00a8 3B       		.uleb128 0x3b
 2846 00a9 0B       		.uleb128 0xb
 2847 00aa 49       		.uleb128 0x49
 2848 00ab 13       		.uleb128 0x13
 2849 00ac 38       		.uleb128 0x38
 2850 00ad 0B       		.uleb128 0xb
 2851 00ae 00       		.byte	0
 2852 00af 00       		.byte	0
 2853 00b0 0F       		.uleb128 0xf
 2854 00b1 2E       		.uleb128 0x2e
 2855 00b2 01       		.byte	0x1
 2856 00b3 3F       		.uleb128 0x3f
 2857 00b4 19       		.uleb128 0x19
 2858 00b5 03       		.uleb128 0x3
 2859 00b6 0E       		.uleb128 0xe
 2860 00b7 3A       		.uleb128 0x3a
 2861 00b8 0B       		.uleb128 0xb
 2862 00b9 3B       		.uleb128 0x3b
 2863 00ba 0B       		.uleb128 0xb
 2864 00bb 27       		.uleb128 0x27
 2865 00bc 19       		.uleb128 0x19
 2866 00bd 11       		.uleb128 0x11
 2867 00be 01       		.uleb128 0x1
 2868 00bf 12       		.uleb128 0x12
 2869 00c0 06       		.uleb128 0x6
 2870 00c1 40       		.uleb128 0x40
ARM GAS  C:\Users\jsyoon\AppData\Local\Temp\cc7861fK.s 			page 52


 2871 00c2 18       		.uleb128 0x18
 2872 00c3 9742     		.uleb128 0x2117
 2873 00c5 19       		.uleb128 0x19
 2874 00c6 01       		.uleb128 0x1
 2875 00c7 13       		.uleb128 0x13
 2876 00c8 00       		.byte	0
 2877 00c9 00       		.byte	0
 2878 00ca 10       		.uleb128 0x10
 2879 00cb 05       		.uleb128 0x5
 2880 00cc 00       		.byte	0
 2881 00cd 03       		.uleb128 0x3
 2882 00ce 0E       		.uleb128 0xe
 2883 00cf 3A       		.uleb128 0x3a
 2884 00d0 0B       		.uleb128 0xb
 2885 00d1 3B       		.uleb128 0x3b
 2886 00d2 0B       		.uleb128 0xb
 2887 00d3 49       		.uleb128 0x49
 2888 00d4 13       		.uleb128 0x13
 2889 00d5 02       		.uleb128 0x2
 2890 00d6 17       		.uleb128 0x17
 2891 00d7 00       		.byte	0
 2892 00d8 00       		.byte	0
 2893 00d9 11       		.uleb128 0x11
 2894 00da 898201   		.uleb128 0x4109
 2895 00dd 01       		.byte	0x1
 2896 00de 11       		.uleb128 0x11
 2897 00df 01       		.uleb128 0x1
 2898 00e0 31       		.uleb128 0x31
 2899 00e1 13       		.uleb128 0x13
 2900 00e2 01       		.uleb128 0x1
 2901 00e3 13       		.uleb128 0x13
 2902 00e4 00       		.byte	0
 2903 00e5 00       		.byte	0
 2904 00e6 12       		.uleb128 0x12
 2905 00e7 8A8201   		.uleb128 0x410a
 2906 00ea 00       		.byte	0
 2907 00eb 02       		.uleb128 0x2
 2908 00ec 18       		.uleb128 0x18
 2909 00ed 9142     		.uleb128 0x2111
 2910 00ef 18       		.uleb128 0x18
 2911 00f0 00       		.byte	0
 2912 00f1 00       		.byte	0
 2913 00f2 13       		.uleb128 0x13
 2914 00f3 898201   		.uleb128 0x4109
 2915 00f6 01       		.byte	0x1
 2916 00f7 11       		.uleb128 0x11
 2917 00f8 01       		.uleb128 0x1
 2918 00f9 9542     		.uleb128 0x2115
 2919 00fb 19       		.uleb128 0x19
 2920 00fc 31       		.uleb128 0x31
 2921 00fd 13       		.uleb128 0x13
 2922 00fe 01       		.uleb128 0x1
 2923 00ff 13       		.uleb128 0x13
 2924 0100 00       		.byte	0
 2925 0101 00       		.byte	0
 2926 0102 14       		.uleb128 0x14
 2927 0103 898201   		.uleb128 0x4109
ARM GAS  C:\Users\jsyoon\AppData\Local\Temp\cc7861fK.s 			page 53


 2928 0106 01       		.byte	0x1
 2929 0107 11       		.uleb128 0x11
 2930 0108 01       		.uleb128 0x1
 2931 0109 9542     		.uleb128 0x2115
 2932 010b 19       		.uleb128 0x19
 2933 010c 31       		.uleb128 0x31
 2934 010d 13       		.uleb128 0x13
 2935 010e 00       		.byte	0
 2936 010f 00       		.byte	0
 2937 0110 15       		.uleb128 0x15
 2938 0111 0F       		.uleb128 0xf
 2939 0112 00       		.byte	0
 2940 0113 0B       		.uleb128 0xb
 2941 0114 0B       		.uleb128 0xb
 2942 0115 49       		.uleb128 0x49
 2943 0116 13       		.uleb128 0x13
 2944 0117 00       		.byte	0
 2945 0118 00       		.byte	0
 2946 0119 16       		.uleb128 0x16
 2947 011a 34       		.uleb128 0x34
 2948 011b 00       		.byte	0
 2949 011c 03       		.uleb128 0x3
 2950 011d 0E       		.uleb128 0xe
 2951 011e 3A       		.uleb128 0x3a
 2952 011f 0B       		.uleb128 0xb
 2953 0120 3B       		.uleb128 0x3b
 2954 0121 0B       		.uleb128 0xb
 2955 0122 49       		.uleb128 0x49
 2956 0123 13       		.uleb128 0x13
 2957 0124 02       		.uleb128 0x2
 2958 0125 17       		.uleb128 0x17
 2959 0126 00       		.byte	0
 2960 0127 00       		.byte	0
 2961 0128 17       		.uleb128 0x17
 2962 0129 34       		.uleb128 0x34
 2963 012a 00       		.byte	0
 2964 012b 03       		.uleb128 0x3
 2965 012c 0E       		.uleb128 0xe
 2966 012d 3A       		.uleb128 0x3a
 2967 012e 0B       		.uleb128 0xb
 2968 012f 3B       		.uleb128 0x3b
 2969 0130 0B       		.uleb128 0xb
 2970 0131 49       		.uleb128 0x49
 2971 0132 13       		.uleb128 0x13
 2972 0133 02       		.uleb128 0x2
 2973 0134 18       		.uleb128 0x18
 2974 0135 00       		.byte	0
 2975 0136 00       		.byte	0
 2976 0137 18       		.uleb128 0x18
 2977 0138 898201   		.uleb128 0x4109
 2978 013b 01       		.byte	0x1
 2979 013c 11       		.uleb128 0x11
 2980 013d 01       		.uleb128 0x1
 2981 013e 31       		.uleb128 0x31
 2982 013f 13       		.uleb128 0x13
 2983 0140 00       		.byte	0
 2984 0141 00       		.byte	0
ARM GAS  C:\Users\jsyoon\AppData\Local\Temp\cc7861fK.s 			page 54


 2985 0142 19       		.uleb128 0x19
 2986 0143 2E       		.uleb128 0x2e
 2987 0144 01       		.byte	0x1
 2988 0145 3F       		.uleb128 0x3f
 2989 0146 19       		.uleb128 0x19
 2990 0147 03       		.uleb128 0x3
 2991 0148 0E       		.uleb128 0xe
 2992 0149 3A       		.uleb128 0x3a
 2993 014a 0B       		.uleb128 0xb
 2994 014b 3B       		.uleb128 0x3b
 2995 014c 05       		.uleb128 0x5
 2996 014d 27       		.uleb128 0x27
 2997 014e 19       		.uleb128 0x19
 2998 014f 11       		.uleb128 0x11
 2999 0150 01       		.uleb128 0x1
 3000 0151 12       		.uleb128 0x12
 3001 0152 06       		.uleb128 0x6
 3002 0153 40       		.uleb128 0x40
 3003 0154 18       		.uleb128 0x18
 3004 0155 9742     		.uleb128 0x2117
 3005 0157 19       		.uleb128 0x19
 3006 0158 01       		.uleb128 0x1
 3007 0159 13       		.uleb128 0x13
 3008 015a 00       		.byte	0
 3009 015b 00       		.byte	0
 3010 015c 1A       		.uleb128 0x1a
 3011 015d 05       		.uleb128 0x5
 3012 015e 00       		.byte	0
 3013 015f 03       		.uleb128 0x3
 3014 0160 0E       		.uleb128 0xe
 3015 0161 3A       		.uleb128 0x3a
 3016 0162 0B       		.uleb128 0xb
 3017 0163 3B       		.uleb128 0x3b
 3018 0164 05       		.uleb128 0x5
 3019 0165 49       		.uleb128 0x49
 3020 0166 13       		.uleb128 0x13
 3021 0167 02       		.uleb128 0x2
 3022 0168 18       		.uleb128 0x18
 3023 0169 00       		.byte	0
 3024 016a 00       		.byte	0
 3025 016b 1B       		.uleb128 0x1b
 3026 016c 05       		.uleb128 0x5
 3027 016d 00       		.byte	0
 3028 016e 03       		.uleb128 0x3
 3029 016f 0E       		.uleb128 0xe
 3030 0170 3A       		.uleb128 0x3a
 3031 0171 0B       		.uleb128 0xb
 3032 0172 3B       		.uleb128 0x3b
 3033 0173 05       		.uleb128 0x5
 3034 0174 49       		.uleb128 0x49
 3035 0175 13       		.uleb128 0x13
 3036 0176 02       		.uleb128 0x2
 3037 0177 17       		.uleb128 0x17
 3038 0178 00       		.byte	0
 3039 0179 00       		.byte	0
 3040 017a 1C       		.uleb128 0x1c
 3041 017b 34       		.uleb128 0x34
ARM GAS  C:\Users\jsyoon\AppData\Local\Temp\cc7861fK.s 			page 55


 3042 017c 00       		.byte	0
 3043 017d 03       		.uleb128 0x3
 3044 017e 0E       		.uleb128 0xe
 3045 017f 3A       		.uleb128 0x3a
 3046 0180 0B       		.uleb128 0xb
 3047 0181 3B       		.uleb128 0x3b
 3048 0182 05       		.uleb128 0x5
 3049 0183 49       		.uleb128 0x49
 3050 0184 13       		.uleb128 0x13
 3051 0185 02       		.uleb128 0x2
 3052 0186 17       		.uleb128 0x17
 3053 0187 00       		.byte	0
 3054 0188 00       		.byte	0
 3055 0189 1D       		.uleb128 0x1d
 3056 018a 2E       		.uleb128 0x2e
 3057 018b 01       		.byte	0x1
 3058 018c 3F       		.uleb128 0x3f
 3059 018d 19       		.uleb128 0x19
 3060 018e 03       		.uleb128 0x3
 3061 018f 0E       		.uleb128 0xe
 3062 0190 3A       		.uleb128 0x3a
 3063 0191 0B       		.uleb128 0xb
 3064 0192 3B       		.uleb128 0x3b
 3065 0193 05       		.uleb128 0x5
 3066 0194 27       		.uleb128 0x27
 3067 0195 19       		.uleb128 0x19
 3068 0196 49       		.uleb128 0x49
 3069 0197 13       		.uleb128 0x13
 3070 0198 11       		.uleb128 0x11
 3071 0199 01       		.uleb128 0x1
 3072 019a 12       		.uleb128 0x12
 3073 019b 06       		.uleb128 0x6
 3074 019c 40       		.uleb128 0x40
 3075 019d 18       		.uleb128 0x18
 3076 019e 9742     		.uleb128 0x2117
 3077 01a0 19       		.uleb128 0x19
 3078 01a1 01       		.uleb128 0x1
 3079 01a2 13       		.uleb128 0x13
 3080 01a3 00       		.byte	0
 3081 01a4 00       		.byte	0
 3082 01a5 1E       		.uleb128 0x1e
 3083 01a6 34       		.uleb128 0x34
 3084 01a7 00       		.byte	0
 3085 01a8 03       		.uleb128 0x3
 3086 01a9 0E       		.uleb128 0xe
 3087 01aa 3A       		.uleb128 0x3a
 3088 01ab 0B       		.uleb128 0xb
 3089 01ac 3B       		.uleb128 0x3b
 3090 01ad 05       		.uleb128 0x5
 3091 01ae 49       		.uleb128 0x49
 3092 01af 13       		.uleb128 0x13
 3093 01b0 02       		.uleb128 0x2
 3094 01b1 18       		.uleb128 0x18
 3095 01b2 00       		.byte	0
 3096 01b3 00       		.byte	0
 3097 01b4 1F       		.uleb128 0x1f
 3098 01b5 34       		.uleb128 0x34
ARM GAS  C:\Users\jsyoon\AppData\Local\Temp\cc7861fK.s 			page 56


 3099 01b6 00       		.byte	0
 3100 01b7 03       		.uleb128 0x3
 3101 01b8 0E       		.uleb128 0xe
 3102 01b9 3A       		.uleb128 0x3a
 3103 01ba 0B       		.uleb128 0xb
 3104 01bb 3B       		.uleb128 0x3b
 3105 01bc 05       		.uleb128 0x5
 3106 01bd 49       		.uleb128 0x49
 3107 01be 13       		.uleb128 0x13
 3108 01bf 00       		.byte	0
 3109 01c0 00       		.byte	0
 3110 01c1 20       		.uleb128 0x20
 3111 01c2 34       		.uleb128 0x34
 3112 01c3 00       		.byte	0
 3113 01c4 03       		.uleb128 0x3
 3114 01c5 0E       		.uleb128 0xe
 3115 01c6 3A       		.uleb128 0x3a
 3116 01c7 0B       		.uleb128 0xb
 3117 01c8 3B       		.uleb128 0x3b
 3118 01c9 05       		.uleb128 0x5
 3119 01ca 49       		.uleb128 0x49
 3120 01cb 13       		.uleb128 0x13
 3121 01cc 3F       		.uleb128 0x3f
 3122 01cd 19       		.uleb128 0x19
 3123 01ce 3C       		.uleb128 0x3c
 3124 01cf 19       		.uleb128 0x19
 3125 01d0 00       		.byte	0
 3126 01d1 00       		.byte	0
 3127 01d2 21       		.uleb128 0x21
 3128 01d3 2E       		.uleb128 0x2e
 3129 01d4 01       		.byte	0x1
 3130 01d5 3F       		.uleb128 0x3f
 3131 01d6 19       		.uleb128 0x19
 3132 01d7 03       		.uleb128 0x3
 3133 01d8 0E       		.uleb128 0xe
 3134 01d9 3A       		.uleb128 0x3a
 3135 01da 0B       		.uleb128 0xb
 3136 01db 3B       		.uleb128 0x3b
 3137 01dc 05       		.uleb128 0x5
 3138 01dd 27       		.uleb128 0x27
 3139 01de 19       		.uleb128 0x19
 3140 01df 3C       		.uleb128 0x3c
 3141 01e0 19       		.uleb128 0x19
 3142 01e1 01       		.uleb128 0x1
 3143 01e2 13       		.uleb128 0x13
 3144 01e3 00       		.byte	0
 3145 01e4 00       		.byte	0
 3146 01e5 22       		.uleb128 0x22
 3147 01e6 05       		.uleb128 0x5
 3148 01e7 00       		.byte	0
 3149 01e8 49       		.uleb128 0x49
 3150 01e9 13       		.uleb128 0x13
 3151 01ea 00       		.byte	0
 3152 01eb 00       		.byte	0
 3153 01ec 00       		.byte	0
 3154              		.section	.debug_loc,"",%progbits
 3155              	.Ldebug_loc0:
ARM GAS  C:\Users\jsyoon\AppData\Local\Temp\cc7861fK.s 			page 57


 3156              	.LLST0:
 3157 0000 00000000 		.4byte	.LVL0
 3158 0004 2A000000 		.4byte	.LVL1
 3159 0008 0100     		.2byte	0x1
 3160 000a 50       		.byte	0x50
 3161 000b 2A000000 		.4byte	.LVL1
 3162 000f 3C000000 		.4byte	.LVL3
 3163 0013 0400     		.2byte	0x4
 3164 0015 F3       		.byte	0xf3
 3165 0016 01       		.uleb128 0x1
 3166 0017 50       		.byte	0x50
 3167 0018 9F       		.byte	0x9f
 3168 0019 3C000000 		.4byte	.LVL3
 3169 001d 3E000000 		.4byte	.LVL4
 3170 0021 0100     		.2byte	0x1
 3171 0023 50       		.byte	0x50
 3172 0024 3E000000 		.4byte	.LVL4
 3173 0028 50000000 		.4byte	.LVL6
 3174 002c 0400     		.2byte	0x4
 3175 002e F3       		.byte	0xf3
 3176 002f 01       		.uleb128 0x1
 3177 0030 50       		.byte	0x50
 3178 0031 9F       		.byte	0x9f
 3179 0032 50000000 		.4byte	.LVL6
 3180 0036 54000000 		.4byte	.LVL7
 3181 003a 0100     		.2byte	0x1
 3182 003c 50       		.byte	0x50
 3183 003d 54000000 		.4byte	.LVL7
 3184 0041 68000000 		.4byte	.LVL9
 3185 0045 0400     		.2byte	0x4
 3186 0047 F3       		.byte	0xf3
 3187 0048 01       		.uleb128 0x1
 3188 0049 50       		.byte	0x50
 3189 004a 9F       		.byte	0x9f
 3190 004b 68000000 		.4byte	.LVL9
 3191 004f 6C000000 		.4byte	.LVL10
 3192 0053 0100     		.2byte	0x1
 3193 0055 50       		.byte	0x50
 3194 0056 6C000000 		.4byte	.LVL10
 3195 005a 80000000 		.4byte	.LVL12
 3196 005e 0400     		.2byte	0x4
 3197 0060 F3       		.byte	0xf3
 3198 0061 01       		.uleb128 0x1
 3199 0062 50       		.byte	0x50
 3200 0063 9F       		.byte	0x9f
 3201 0064 80000000 		.4byte	.LVL12
 3202 0068 84000000 		.4byte	.LVL13
 3203 006c 0100     		.2byte	0x1
 3204 006e 50       		.byte	0x50
 3205 006f 84000000 		.4byte	.LVL13
 3206 0073 98000000 		.4byte	.LVL15
 3207 0077 0400     		.2byte	0x4
 3208 0079 F3       		.byte	0xf3
 3209 007a 01       		.uleb128 0x1
 3210 007b 50       		.byte	0x50
 3211 007c 9F       		.byte	0x9f
 3212 007d 98000000 		.4byte	.LVL15
ARM GAS  C:\Users\jsyoon\AppData\Local\Temp\cc7861fK.s 			page 58


 3213 0081 9C000000 		.4byte	.LVL16
 3214 0085 0100     		.2byte	0x1
 3215 0087 50       		.byte	0x50
 3216 0088 9C000000 		.4byte	.LVL16
 3217 008c C8000000 		.4byte	.LFE111
 3218 0090 0400     		.2byte	0x4
 3219 0092 F3       		.byte	0xf3
 3220 0093 01       		.uleb128 0x1
 3221 0094 50       		.byte	0x50
 3222 0095 9F       		.byte	0x9f
 3223 0096 00000000 		.4byte	0
 3224 009a 00000000 		.4byte	0
 3225              	.LLST1:
 3226 009e 00000000 		.4byte	.LVL19
 3227 00a2 1A000000 		.4byte	.LVL24
 3228 00a6 0100     		.2byte	0x1
 3229 00a8 50       		.byte	0x50
 3230 00a9 1A000000 		.4byte	.LVL24
 3231 00ad BA000000 		.4byte	.LVL50
 3232 00b1 0100     		.2byte	0x1
 3233 00b3 54       		.byte	0x54
 3234 00b4 BA000000 		.4byte	.LVL50
 3235 00b8 C4000000 		.4byte	.LFE112
 3236 00bc 0400     		.2byte	0x4
 3237 00be F3       		.byte	0xf3
 3238 00bf 01       		.uleb128 0x1
 3239 00c0 50       		.byte	0x50
 3240 00c1 9F       		.byte	0x9f
 3241 00c2 00000000 		.4byte	0
 3242 00c6 00000000 		.4byte	0
 3243              	.LLST2:
 3244 00ca 00000000 		.4byte	.LVL19
 3245 00ce 06000000 		.4byte	.LVL20
 3246 00d2 0100     		.2byte	0x1
 3247 00d4 51       		.byte	0x51
 3248 00d5 06000000 		.4byte	.LVL20
 3249 00d9 7A000000 		.4byte	.LVL37
 3250 00dd 0100     		.2byte	0x1
 3251 00df 55       		.byte	0x55
 3252 00e0 7A000000 		.4byte	.LVL37
 3253 00e4 A0000000 		.4byte	.LVL44
 3254 00e8 0400     		.2byte	0x4
 3255 00ea F3       		.byte	0xf3
 3256 00eb 01       		.uleb128 0x1
 3257 00ec 51       		.byte	0x51
 3258 00ed 9F       		.byte	0x9f
 3259 00ee A0000000 		.4byte	.LVL44
 3260 00f2 A4000000 		.4byte	.LVL46
 3261 00f6 0100     		.2byte	0x1
 3262 00f8 55       		.byte	0x55
 3263 00f9 A4000000 		.4byte	.LVL46
 3264 00fd C4000000 		.4byte	.LFE112
 3265 0101 0400     		.2byte	0x4
 3266 0103 F3       		.byte	0xf3
 3267 0104 01       		.uleb128 0x1
 3268 0105 51       		.byte	0x51
 3269 0106 9F       		.byte	0x9f
ARM GAS  C:\Users\jsyoon\AppData\Local\Temp\cc7861fK.s 			page 59


 3270 0107 00000000 		.4byte	0
 3271 010b 00000000 		.4byte	0
 3272              	.LLST3:
 3273 010f 00000000 		.4byte	.LVL19
 3274 0113 10000000 		.4byte	.LVL21
 3275 0117 0200     		.2byte	0x2
 3276 0119 30       		.byte	0x30
 3277 011a 9F       		.byte	0x9f
 3278 011b 10000000 		.4byte	.LVL21
 3279 011f 16000000 		.4byte	.LVL22
 3280 0123 0100     		.2byte	0x1
 3281 0125 51       		.byte	0x51
 3282 0126 16000000 		.4byte	.LVL22
 3283 012a 18000000 		.4byte	.LVL23
 3284 012e 0C00     		.2byte	0xc
 3285 0130 75       		.byte	0x75
 3286 0131 06       		.sleb128 6
 3287 0132 94       		.byte	0x94
 3288 0133 02       		.byte	0x2
 3289 0134 0A       		.byte	0xa
 3290 0135 FFFF     		.2byte	0xffff
 3291 0137 1A       		.byte	0x1a
 3292 0138 71       		.byte	0x71
 3293 0139 00       		.sleb128 0
 3294 013a 21       		.byte	0x21
 3295 013b 9F       		.byte	0x9f
 3296 013c 18000000 		.4byte	.LVL23
 3297 0140 1E000000 		.4byte	.LVL25
 3298 0144 0100     		.2byte	0x1
 3299 0146 51       		.byte	0x51
 3300 0147 22000000 		.4byte	.LVL26
 3301 014b 28000000 		.4byte	.LVL27
 3302 014f 0100     		.2byte	0x1
 3303 0151 51       		.byte	0x51
 3304 0152 2C000000 		.4byte	.LVL28
 3305 0156 32000000 		.4byte	.LVL29
 3306 015a 1600     		.2byte	0x16
 3307 015c 75       		.byte	0x75
 3308 015d 08       		.sleb128 8
 3309 015e 94       		.byte	0x94
 3310 015f 02       		.byte	0x2
 3311 0160 75       		.byte	0x75
 3312 0161 04       		.sleb128 4
 3313 0162 94       		.byte	0x94
 3314 0163 02       		.byte	0x2
 3315 0164 21       		.byte	0x21
 3316 0165 75       		.byte	0x75
 3317 0166 0A       		.sleb128 10
 3318 0167 94       		.byte	0x94
 3319 0168 02       		.byte	0x2
 3320 0169 21       		.byte	0x21
 3321 016a 0A       		.byte	0xa
 3322 016b FFFF     		.2byte	0xffff
 3323 016d 1A       		.byte	0x1a
 3324 016e 71       		.byte	0x71
 3325 016f 00       		.sleb128 0
 3326 0170 21       		.byte	0x21
ARM GAS  C:\Users\jsyoon\AppData\Local\Temp\cc7861fK.s 			page 60


 3327 0171 9F       		.byte	0x9f
 3328 0172 36000000 		.4byte	.LVL30
 3329 0176 3A000000 		.4byte	.LVL31
 3330 017a 0100     		.2byte	0x1
 3331 017c 53       		.byte	0x53
 3332 017d 3A000000 		.4byte	.LVL31
 3333 0181 3C000000 		.4byte	.LVL32
 3334 0185 0C00     		.2byte	0xc
 3335 0187 75       		.byte	0x75
 3336 0188 0C       		.sleb128 12
 3337 0189 94       		.byte	0x94
 3338 018a 02       		.byte	0x2
 3339 018b 0A       		.byte	0xa
 3340 018c FFFF     		.2byte	0xffff
 3341 018e 1A       		.byte	0x1a
 3342 018f 73       		.byte	0x73
 3343 0190 00       		.sleb128 0
 3344 0191 21       		.byte	0x21
 3345 0192 9F       		.byte	0x9f
 3346 0193 7C000000 		.4byte	.LVL38
 3347 0197 88000000 		.4byte	.LVL40
 3348 019b 0500     		.2byte	0x5
 3349 019d 73       		.byte	0x73
 3350 019e 00       		.sleb128 0
 3351 019f 34       		.byte	0x34
 3352 01a0 24       		.byte	0x24
 3353 01a1 9F       		.byte	0x9f
 3354 01a2 88000000 		.4byte	.LVL40
 3355 01a6 9A000000 		.4byte	.LVL43
 3356 01aa 0100     		.2byte	0x1
 3357 01ac 53       		.byte	0x53
 3358 01ad A4000000 		.4byte	.LVL46
 3359 01b1 B4000000 		.4byte	.LVL49
 3360 01b5 0100     		.2byte	0x1
 3361 01b7 53       		.byte	0x53
 3362 01b8 00000000 		.4byte	0
 3363 01bc 00000000 		.4byte	0
 3364              	.LLST4:
 3365 01c0 00000000 		.4byte	.LVL19
 3366 01c4 56000000 		.4byte	.LVL34
 3367 01c8 0200     		.2byte	0x2
 3368 01ca 30       		.byte	0x30
 3369 01cb 9F       		.byte	0x9f
 3370 01cc 56000000 		.4byte	.LVL34
 3371 01d0 64000000 		.4byte	.LVL35
 3372 01d4 0100     		.2byte	0x1
 3373 01d6 53       		.byte	0x53
 3374 01d7 A0000000 		.4byte	.LVL44
 3375 01db A2000000 		.4byte	.LVL45
 3376 01df 0200     		.2byte	0x2
 3377 01e1 30       		.byte	0x30
 3378 01e2 9F       		.byte	0x9f
 3379 01e3 A2000000 		.4byte	.LVL45
 3380 01e7 A4000000 		.4byte	.LVL46
 3381 01eb 0100     		.2byte	0x1
 3382 01ed 53       		.byte	0x53
 3383 01ee 00000000 		.4byte	0
ARM GAS  C:\Users\jsyoon\AppData\Local\Temp\cc7861fK.s 			page 61


 3384 01f2 00000000 		.4byte	0
 3385              	.LLST5:
 3386 01f6 00000000 		.4byte	.LVL19
 3387 01fa 72000000 		.4byte	.LVL36
 3388 01fe 0200     		.2byte	0x2
 3389 0200 30       		.byte	0x30
 3390 0201 9F       		.byte	0x9f
 3391 0202 72000000 		.4byte	.LVL36
 3392 0206 84000000 		.4byte	.LVL39
 3393 020a 0100     		.2byte	0x1
 3394 020c 52       		.byte	0x52
 3395 020d A0000000 		.4byte	.LVL44
 3396 0211 A4000000 		.4byte	.LVL46
 3397 0215 0200     		.2byte	0x2
 3398 0217 30       		.byte	0x30
 3399 0218 9F       		.byte	0x9f
 3400 0219 00000000 		.4byte	0
 3401 021d 00000000 		.4byte	0
 3402              	.LLST6:
 3403 0221 00000000 		.4byte	.LVL19
 3404 0225 84000000 		.4byte	.LVL39
 3405 0229 0200     		.2byte	0x2
 3406 022b 30       		.byte	0x30
 3407 022c 9F       		.byte	0x9f
 3408 022d 84000000 		.4byte	.LVL39
 3409 0231 8C000000 		.4byte	.LVL41
 3410 0235 0100     		.2byte	0x1
 3411 0237 52       		.byte	0x52
 3412 0238 A0000000 		.4byte	.LVL44
 3413 023c A4000000 		.4byte	.LVL46
 3414 0240 0200     		.2byte	0x2
 3415 0242 30       		.byte	0x30
 3416 0243 9F       		.byte	0x9f
 3417 0244 A4000000 		.4byte	.LVL46
 3418 0248 A6000000 		.4byte	.LVL47
 3419 024c 0100     		.2byte	0x1
 3420 024e 52       		.byte	0x52
 3421 024f 00000000 		.4byte	0
 3422 0253 00000000 		.4byte	0
 3423              	.LLST7:
 3424 0257 00000000 		.4byte	.LVL52
 3425 025b 0C000000 		.4byte	.LVL53
 3426 025f 0100     		.2byte	0x1
 3427 0261 51       		.byte	0x51
 3428 0262 0C000000 		.4byte	.LVL53
 3429 0266 22000000 		.4byte	.LFE114
 3430 026a 0400     		.2byte	0x4
 3431 026c F3       		.byte	0xf3
 3432 026d 01       		.uleb128 0x1
 3433 026e 51       		.byte	0x51
 3434 026f 9F       		.byte	0x9f
 3435 0270 00000000 		.4byte	0
 3436 0274 00000000 		.4byte	0
 3437              	.LLST8:
 3438 0278 00000000 		.4byte	.LVL52
 3439 027c 14000000 		.4byte	.LVL54
 3440 0280 0200     		.2byte	0x2
ARM GAS  C:\Users\jsyoon\AppData\Local\Temp\cc7861fK.s 			page 62


 3441 0282 30       		.byte	0x30
 3442 0283 9F       		.byte	0x9f
 3443 0284 14000000 		.4byte	.LVL54
 3444 0288 1A000000 		.4byte	.LVL55
 3445 028c 0100     		.2byte	0x1
 3446 028e 53       		.byte	0x53
 3447 028f 1A000000 		.4byte	.LVL55
 3448 0293 1C000000 		.4byte	.LVL56
 3449 0297 2500     		.2byte	0x25
 3450 0299 F3       		.byte	0xf3
 3451 029a 01       		.uleb128 0x1
 3452 029b 51       		.byte	0x51
 3453 029c 23       		.byte	0x23
 3454 029d 02       		.uleb128 0x2
 3455 029e 94       		.byte	0x94
 3456 029f 02       		.byte	0x2
 3457 02a0 F3       		.byte	0xf3
 3458 02a1 01       		.uleb128 0x1
 3459 02a2 51       		.byte	0x51
 3460 02a3 94       		.byte	0x94
 3461 02a4 02       		.byte	0x2
 3462 02a5 21       		.byte	0x21
 3463 02a6 F3       		.byte	0xf3
 3464 02a7 01       		.uleb128 0x1
 3465 02a8 51       		.byte	0x51
 3466 02a9 23       		.byte	0x23
 3467 02aa 04       		.uleb128 0x4
 3468 02ab 94       		.byte	0x94
 3469 02ac 02       		.byte	0x2
 3470 02ad 21       		.byte	0x21
 3471 02ae F3       		.byte	0xf3
 3472 02af 01       		.uleb128 0x1
 3473 02b0 51       		.byte	0x51
 3474 02b1 23       		.byte	0x23
 3475 02b2 06       		.uleb128 0x6
 3476 02b3 94       		.byte	0x94
 3477 02b4 02       		.byte	0x2
 3478 02b5 21       		.byte	0x21
 3479 02b6 0A       		.byte	0xa
 3480 02b7 FFFF     		.2byte	0xffff
 3481 02b9 1A       		.byte	0x1a
 3482 02ba 73       		.byte	0x73
 3483 02bb 00       		.sleb128 0
 3484 02bc 21       		.byte	0x21
 3485 02bd 9F       		.byte	0x9f
 3486 02be 00000000 		.4byte	0
 3487 02c2 00000000 		.4byte	0
 3488              	.LLST9:
 3489 02c6 00000000 		.4byte	.LVL59
 3490 02ca 0E000000 		.4byte	.LVL60
 3491 02ce 0100     		.2byte	0x1
 3492 02d0 51       		.byte	0x51
 3493 02d1 0E000000 		.4byte	.LVL60
 3494 02d5 12000000 		.4byte	.LFE117
 3495 02d9 0400     		.2byte	0x4
 3496 02db F3       		.byte	0xf3
 3497 02dc 01       		.uleb128 0x1
ARM GAS  C:\Users\jsyoon\AppData\Local\Temp\cc7861fK.s 			page 63


 3498 02dd 51       		.byte	0x51
 3499 02de 9F       		.byte	0x9f
 3500 02df 00000000 		.4byte	0
 3501 02e3 00000000 		.4byte	0
 3502              	.LLST10:
 3503 02e7 00000000 		.4byte	.LVL63
 3504 02eb 04000000 		.4byte	.LVL64
 3505 02ef 0100     		.2byte	0x1
 3506 02f1 51       		.byte	0x51
 3507 02f2 04000000 		.4byte	.LVL64
 3508 02f6 08000000 		.4byte	.LFE120
 3509 02fa 0400     		.2byte	0x4
 3510 02fc F3       		.byte	0xf3
 3511 02fd 01       		.uleb128 0x1
 3512 02fe 51       		.byte	0x51
 3513 02ff 9F       		.byte	0x9f
 3514 0300 00000000 		.4byte	0
 3515 0304 00000000 		.4byte	0
 3516              	.LLST11:
 3517 0308 00000000 		.4byte	.LVL65
 3518 030c 02000000 		.4byte	.LVL66
 3519 0310 0100     		.2byte	0x1
 3520 0312 50       		.byte	0x50
 3521 0313 02000000 		.4byte	.LVL66
 3522 0317 08000000 		.4byte	.LFE121
 3523 031b 0400     		.2byte	0x4
 3524 031d F3       		.byte	0xf3
 3525 031e 01       		.uleb128 0x1
 3526 031f 50       		.byte	0x50
 3527 0320 9F       		.byte	0x9f
 3528 0321 00000000 		.4byte	0
 3529 0325 00000000 		.4byte	0
 3530              	.LLST12:
 3531 0329 00000000 		.4byte	.LVL67
 3532 032d 12000000 		.4byte	.LVL68
 3533 0331 0100     		.2byte	0x1
 3534 0333 51       		.byte	0x51
 3535 0334 12000000 		.4byte	.LVL68
 3536 0338 16000000 		.4byte	.LFE122
 3537 033c 0400     		.2byte	0x4
 3538 033e F3       		.byte	0xf3
 3539 033f 01       		.uleb128 0x1
 3540 0340 51       		.byte	0x51
 3541 0341 9F       		.byte	0x9f
 3542 0342 00000000 		.4byte	0
 3543 0346 00000000 		.4byte	0
 3544              	.LLST13:
 3545 034a 00000000 		.4byte	.LVL70
 3546 034e 12000000 		.4byte	.LVL71
 3547 0352 0100     		.2byte	0x1
 3548 0354 51       		.byte	0x51
 3549 0355 12000000 		.4byte	.LVL71
 3550 0359 16000000 		.4byte	.LFE124
 3551 035d 0400     		.2byte	0x4
 3552 035f F3       		.byte	0xf3
 3553 0360 01       		.uleb128 0x1
 3554 0361 51       		.byte	0x51
ARM GAS  C:\Users\jsyoon\AppData\Local\Temp\cc7861fK.s 			page 64


 3555 0362 9F       		.byte	0x9f
 3556 0363 00000000 		.4byte	0
 3557 0367 00000000 		.4byte	0
 3558              	.LLST14:
 3559 036b 00000000 		.4byte	.LVL72
 3560 036f 12000000 		.4byte	.LVL73
 3561 0373 0100     		.2byte	0x1
 3562 0375 51       		.byte	0x51
 3563 0376 12000000 		.4byte	.LVL73
 3564 037a 16000000 		.4byte	.LFE125
 3565 037e 0400     		.2byte	0x4
 3566 0380 F3       		.byte	0xf3
 3567 0381 01       		.uleb128 0x1
 3568 0382 51       		.byte	0x51
 3569 0383 9F       		.byte	0x9f
 3570 0384 00000000 		.4byte	0
 3571 0388 00000000 		.4byte	0
 3572              	.LLST15:
 3573 038c 00000000 		.4byte	.LVL77
 3574 0390 0E000000 		.4byte	.LVL78
 3575 0394 0100     		.2byte	0x1
 3576 0396 51       		.byte	0x51
 3577 0397 0E000000 		.4byte	.LVL78
 3578 039b 12000000 		.4byte	.LFE129
 3579 039f 0400     		.2byte	0x4
 3580 03a1 F3       		.byte	0xf3
 3581 03a2 01       		.uleb128 0x1
 3582 03a3 51       		.byte	0x51
 3583 03a4 9F       		.byte	0x9f
 3584 03a5 00000000 		.4byte	0
 3585 03a9 00000000 		.4byte	0
 3586              	.LLST16:
 3587 03ad 00000000 		.4byte	.LVL81
 3588 03b1 12000000 		.4byte	.LVL82
 3589 03b5 0100     		.2byte	0x1
 3590 03b7 51       		.byte	0x51
 3591 03b8 12000000 		.4byte	.LVL82
 3592 03bc 16000000 		.4byte	.LFE132
 3593 03c0 0400     		.2byte	0x4
 3594 03c2 F3       		.byte	0xf3
 3595 03c3 01       		.uleb128 0x1
 3596 03c4 51       		.byte	0x51
 3597 03c5 9F       		.byte	0x9f
 3598 03c6 00000000 		.4byte	0
 3599 03ca 00000000 		.4byte	0
 3600              	.LLST17:
 3601 03ce 00000000 		.4byte	.LVL84
 3602 03d2 0A000000 		.4byte	.LVL85
 3603 03d6 0100     		.2byte	0x1
 3604 03d8 51       		.byte	0x51
 3605 03d9 0A000000 		.4byte	.LVL85
 3606 03dd 0E000000 		.4byte	.LVL86
 3607 03e1 0400     		.2byte	0x4
 3608 03e3 F3       		.byte	0xf3
 3609 03e4 01       		.uleb128 0x1
 3610 03e5 51       		.byte	0x51
 3611 03e6 9F       		.byte	0x9f
ARM GAS  C:\Users\jsyoon\AppData\Local\Temp\cc7861fK.s 			page 65


 3612 03e7 0E000000 		.4byte	.LVL86
 3613 03eb 10000000 		.4byte	.LVL87
 3614 03ef 0100     		.2byte	0x1
 3615 03f1 51       		.byte	0x51
 3616 03f2 10000000 		.4byte	.LVL87
 3617 03f6 14000000 		.4byte	.LFE134
 3618 03fa 0400     		.2byte	0x4
 3619 03fc F3       		.byte	0xf3
 3620 03fd 01       		.uleb128 0x1
 3621 03fe 51       		.byte	0x51
 3622 03ff 9F       		.byte	0x9f
 3623 0400 00000000 		.4byte	0
 3624 0404 00000000 		.4byte	0
 3625              	.LLST18:
 3626 0408 00000000 		.4byte	.LVL88
 3627 040c 1A000000 		.4byte	.LVL92
 3628 0410 0100     		.2byte	0x1
 3629 0412 50       		.byte	0x50
 3630 0413 1A000000 		.4byte	.LVL92
 3631 0417 36000000 		.4byte	.LVL97
 3632 041b 0400     		.2byte	0x4
 3633 041d F3       		.byte	0xf3
 3634 041e 01       		.uleb128 0x1
 3635 041f 50       		.byte	0x50
 3636 0420 9F       		.byte	0x9f
 3637 0421 36000000 		.4byte	.LVL97
 3638 0425 38000000 		.4byte	.LVL98
 3639 0429 0100     		.2byte	0x1
 3640 042b 50       		.byte	0x50
 3641 042c 38000000 		.4byte	.LVL98
 3642 0430 3A000000 		.4byte	.LFE135
 3643 0434 0300     		.2byte	0x3
 3644 0436 70       		.byte	0x70
 3645 0437 74       		.sleb128 -12
 3646 0438 9F       		.byte	0x9f
 3647 0439 00000000 		.4byte	0
 3648 043d 00000000 		.4byte	0
 3649              	.LLST19:
 3650 0441 00000000 		.4byte	.LVL88
 3651 0445 0A000000 		.4byte	.LVL89
 3652 0449 0100     		.2byte	0x1
 3653 044b 51       		.byte	0x51
 3654 044c 0A000000 		.4byte	.LVL89
 3655 0450 3A000000 		.4byte	.LFE135
 3656 0454 0400     		.2byte	0x4
 3657 0456 F3       		.byte	0xf3
 3658 0457 01       		.uleb128 0x1
 3659 0458 51       		.byte	0x51
 3660 0459 9F       		.byte	0x9f
 3661 045a 00000000 		.4byte	0
 3662 045e 00000000 		.4byte	0
 3663              	.LLST20:
 3664 0462 00000000 		.4byte	.LVL88
 3665 0466 0C000000 		.4byte	.LVL90
 3666 046a 0200     		.2byte	0x2
 3667 046c 30       		.byte	0x30
 3668 046d 9F       		.byte	0x9f
ARM GAS  C:\Users\jsyoon\AppData\Local\Temp\cc7861fK.s 			page 66


 3669 046e 0C000000 		.4byte	.LVL90
 3670 0472 3A000000 		.4byte	.LFE135
 3671 0476 0100     		.2byte	0x1
 3672 0478 51       		.byte	0x51
 3673 0479 00000000 		.4byte	0
 3674 047d 00000000 		.4byte	0
 3675              	.LLST21:
 3676 0481 00000000 		.4byte	.LVL88
 3677 0485 0C000000 		.4byte	.LVL90
 3678 0489 0200     		.2byte	0x2
 3679 048b 30       		.byte	0x30
 3680 048c 9F       		.byte	0x9f
 3681 048d 00000000 		.4byte	0
 3682 0491 00000000 		.4byte	0
 3683              	.LLST22:
 3684 0495 00000000 		.4byte	.LVL88
 3685 0499 12000000 		.4byte	.LVL91
 3686 049d 0200     		.2byte	0x2
 3687 049f 30       		.byte	0x30
 3688 04a0 9F       		.byte	0x9f
 3689 04a1 12000000 		.4byte	.LVL91
 3690 04a5 24000000 		.4byte	.LVL94
 3691 04a9 0100     		.2byte	0x1
 3692 04ab 53       		.byte	0x53
 3693 04ac 2C000000 		.4byte	.LVL95
 3694 04b0 2E000000 		.4byte	.LVL96
 3695 04b4 0100     		.2byte	0x1
 3696 04b6 53       		.byte	0x53
 3697 04b7 36000000 		.4byte	.LVL97
 3698 04bb 3A000000 		.4byte	.LFE135
 3699 04bf 0100     		.2byte	0x1
 3700 04c1 53       		.byte	0x53
 3701 04c2 00000000 		.4byte	0
 3702 04c6 00000000 		.4byte	0
 3703              	.LLST23:
 3704 04ca 00000000 		.4byte	.LVL99
 3705 04ce 0A000000 		.4byte	.LVL101
 3706 04d2 0100     		.2byte	0x1
 3707 04d4 50       		.byte	0x50
 3708 04d5 0A000000 		.4byte	.LVL101
 3709 04d9 0C000000 		.4byte	.LFE136
 3710 04dd 0400     		.2byte	0x4
 3711 04df F3       		.byte	0xf3
 3712 04e0 01       		.uleb128 0x1
 3713 04e1 50       		.byte	0x50
 3714 04e2 9F       		.byte	0x9f
 3715 04e3 00000000 		.4byte	0
 3716 04e7 00000000 		.4byte	0
 3717              	.LLST24:
 3718 04eb 00000000 		.4byte	.LVL99
 3719 04ef 02000000 		.4byte	.LVL100
 3720 04f3 0200     		.2byte	0x2
 3721 04f5 30       		.byte	0x30
 3722 04f6 9F       		.byte	0x9f
 3723 04f7 02000000 		.4byte	.LVL100
 3724 04fb 0C000000 		.4byte	.LFE136
 3725 04ff 0A00     		.2byte	0xa
ARM GAS  C:\Users\jsyoon\AppData\Local\Temp\cc7861fK.s 			page 67


 3726 0501 71       		.byte	0x71
 3727 0502 00       		.sleb128 0
 3728 0503 73       		.byte	0x73
 3729 0504 00       		.sleb128 0
 3730 0505 1A       		.byte	0x1a
 3731 0506 40       		.byte	0x40
 3732 0507 24       		.byte	0x24
 3733 0508 30       		.byte	0x30
 3734 0509 2E       		.byte	0x2e
 3735 050a 9F       		.byte	0x9f
 3736 050b 00000000 		.4byte	0
 3737 050f 00000000 		.4byte	0
 3738              	.LLST25:
 3739 0513 00000000 		.4byte	.LVL102
 3740 0517 02000000 		.4byte	.LVL103
 3741 051b 0100     		.2byte	0x1
 3742 051d 51       		.byte	0x51
 3743 051e 02000000 		.4byte	.LVL103
 3744 0522 08000000 		.4byte	.LFE137
 3745 0526 0400     		.2byte	0x4
 3746 0528 F3       		.byte	0xf3
 3747 0529 01       		.uleb128 0x1
 3748 052a 51       		.byte	0x51
 3749 052b 9F       		.byte	0x9f
 3750 052c 00000000 		.4byte	0
 3751 0530 00000000 		.4byte	0
 3752              	.LLST26:
 3753 0534 00000000 		.4byte	.LVL104
 3754 0538 36000000 		.4byte	.LVL112
 3755 053c 0100     		.2byte	0x1
 3756 053e 50       		.byte	0x50
 3757 053f 36000000 		.4byte	.LVL112
 3758 0543 3C000000 		.4byte	.LVL113
 3759 0547 0400     		.2byte	0x4
 3760 0549 F3       		.byte	0xf3
 3761 054a 01       		.uleb128 0x1
 3762 054b 50       		.byte	0x50
 3763 054c 9F       		.byte	0x9f
 3764 054d 3C000000 		.4byte	.LVL113
 3765 0551 3E000000 		.4byte	.LVL114
 3766 0555 0100     		.2byte	0x1
 3767 0557 50       		.byte	0x50
 3768 0558 3E000000 		.4byte	.LVL114
 3769 055c 44000000 		.4byte	.LVL115
 3770 0560 0400     		.2byte	0x4
 3771 0562 F3       		.byte	0xf3
 3772 0563 01       		.uleb128 0x1
 3773 0564 50       		.byte	0x50
 3774 0565 9F       		.byte	0x9f
 3775 0566 44000000 		.4byte	.LVL115
 3776 056a 4C000000 		.4byte	.LFE138
 3777 056e 0100     		.2byte	0x1
 3778 0570 50       		.byte	0x50
 3779 0571 00000000 		.4byte	0
 3780 0575 00000000 		.4byte	0
 3781              	.LLST27:
 3782 0579 00000000 		.4byte	.LVL104
ARM GAS  C:\Users\jsyoon\AppData\Local\Temp\cc7861fK.s 			page 68


 3783 057d 28000000 		.4byte	.LVL110
 3784 0581 0100     		.2byte	0x1
 3785 0583 51       		.byte	0x51
 3786 0584 28000000 		.4byte	.LVL110
 3787 0588 3C000000 		.4byte	.LVL113
 3788 058c 0400     		.2byte	0x4
 3789 058e F3       		.byte	0xf3
 3790 058f 01       		.uleb128 0x1
 3791 0590 51       		.byte	0x51
 3792 0591 9F       		.byte	0x9f
 3793 0592 3C000000 		.4byte	.LVL113
 3794 0596 4C000000 		.4byte	.LFE138
 3795 059a 0100     		.2byte	0x1
 3796 059c 51       		.byte	0x51
 3797 059d 00000000 		.4byte	0
 3798 05a1 00000000 		.4byte	0
 3799              	.LLST28:
 3800 05a5 00000000 		.4byte	.LVL104
 3801 05a9 20000000 		.4byte	.LVL108
 3802 05ad 0200     		.2byte	0x2
 3803 05af 30       		.byte	0x30
 3804 05b0 9F       		.byte	0x9f
 3805 05b1 20000000 		.4byte	.LVL108
 3806 05b5 24000000 		.4byte	.LVL109
 3807 05b9 0B00     		.2byte	0xb
 3808 05bb 31       		.byte	0x31
 3809 05bc 71       		.byte	0x71
 3810 05bd 00       		.sleb128 0
 3811 05be 38       		.byte	0x38
 3812 05bf 25       		.byte	0x25
 3813 05c0 0A       		.byte	0xa
 3814 05c1 FFFF     		.2byte	0xffff
 3815 05c3 1A       		.byte	0x1a
 3816 05c4 24       		.byte	0x24
 3817 05c5 9F       		.byte	0x9f
 3818 05c6 24000000 		.4byte	.LVL109
 3819 05ca 28000000 		.4byte	.LVL110
 3820 05ce 1200     		.2byte	0x12
 3821 05d0 31       		.byte	0x31
 3822 05d1 71       		.byte	0x71
 3823 05d2 00       		.sleb128 0
 3824 05d3 38       		.byte	0x38
 3825 05d4 25       		.byte	0x25
 3826 05d5 0A       		.byte	0xa
 3827 05d6 FFFF     		.2byte	0xffff
 3828 05d8 1A       		.byte	0x1a
 3829 05d9 24       		.byte	0x24
 3830 05da 72       		.byte	0x72
 3831 05db 00       		.sleb128 0
 3832 05dc 0A       		.byte	0xa
 3833 05dd FFFF     		.2byte	0xffff
 3834 05df 1A       		.byte	0x1a
 3835 05e0 1A       		.byte	0x1a
 3836 05e1 9F       		.byte	0x9f
 3837 05e2 3C000000 		.4byte	.LVL113
 3838 05e6 44000000 		.4byte	.LVL115
 3839 05ea 1200     		.2byte	0x12
ARM GAS  C:\Users\jsyoon\AppData\Local\Temp\cc7861fK.s 			page 69


 3840 05ec 31       		.byte	0x31
 3841 05ed 71       		.byte	0x71
 3842 05ee 00       		.sleb128 0
 3843 05ef 38       		.byte	0x38
 3844 05f0 25       		.byte	0x25
 3845 05f1 0A       		.byte	0xa
 3846 05f2 FFFF     		.2byte	0xffff
 3847 05f4 1A       		.byte	0x1a
 3848 05f5 24       		.byte	0x24
 3849 05f6 72       		.byte	0x72
 3850 05f7 00       		.sleb128 0
 3851 05f8 0A       		.byte	0xa
 3852 05f9 FFFF     		.2byte	0xffff
 3853 05fb 1A       		.byte	0x1a
 3854 05fc 1A       		.byte	0x1a
 3855 05fd 9F       		.byte	0x9f
 3856 05fe 44000000 		.4byte	.LVL115
 3857 0602 4C000000 		.4byte	.LFE138
 3858 0606 0200     		.2byte	0x2
 3859 0608 30       		.byte	0x30
 3860 0609 9F       		.byte	0x9f
 3861 060a 00000000 		.4byte	0
 3862 060e 00000000 		.4byte	0
 3863              	.LLST29:
 3864 0612 00000000 		.4byte	.LVL104
 3865 0616 06000000 		.4byte	.LVL105
 3866 061a 0200     		.2byte	0x2
 3867 061c 30       		.byte	0x30
 3868 061d 9F       		.byte	0x9f
 3869 061e 06000000 		.4byte	.LVL105
 3870 0622 12000000 		.4byte	.LVL106
 3871 0626 0900     		.2byte	0x9
 3872 0628 71       		.byte	0x71
 3873 0629 00       		.sleb128 0
 3874 062a 4F       		.byte	0x4f
 3875 062b 1A       		.byte	0x1a
 3876 062c 0A       		.byte	0xa
 3877 062d FFFF     		.2byte	0xffff
 3878 062f 1A       		.byte	0x1a
 3879 0630 9F       		.byte	0x9f
 3880 0631 12000000 		.4byte	.LVL106
 3881 0635 20000000 		.4byte	.LVL108
 3882 0639 0100     		.2byte	0x1
 3883 063b 52       		.byte	0x52
 3884 063c 20000000 		.4byte	.LVL108
 3885 0640 2A000000 		.4byte	.LVL111
 3886 0644 0100     		.2byte	0x1
 3887 0646 53       		.byte	0x53
 3888 0647 3C000000 		.4byte	.LVL113
 3889 064b 44000000 		.4byte	.LVL115
 3890 064f 0100     		.2byte	0x1
 3891 0651 53       		.byte	0x53
 3892 0652 44000000 		.4byte	.LVL115
 3893 0656 4A000000 		.4byte	.LVL117
 3894 065a 0100     		.2byte	0x1
 3895 065c 52       		.byte	0x52
 3896 065d 4A000000 		.4byte	.LVL117
ARM GAS  C:\Users\jsyoon\AppData\Local\Temp\cc7861fK.s 			page 70


 3897 0661 4C000000 		.4byte	.LFE138
 3898 0665 0100     		.2byte	0x1
 3899 0667 53       		.byte	0x53
 3900 0668 00000000 		.4byte	0
 3901 066c 00000000 		.4byte	0
 3902              	.LLST30:
 3903 0670 00000000 		.4byte	.LVL104
 3904 0674 06000000 		.4byte	.LVL105
 3905 0678 0200     		.2byte	0x2
 3906 067a 30       		.byte	0x30
 3907 067b 9F       		.byte	0x9f
 3908 067c 06000000 		.4byte	.LVL105
 3909 0680 1A000000 		.4byte	.LVL107
 3910 0684 0100     		.2byte	0x1
 3911 0686 53       		.byte	0x53
 3912 0687 1A000000 		.4byte	.LVL107
 3913 068b 28000000 		.4byte	.LVL110
 3914 068f 0800     		.2byte	0x8
 3915 0691 71       		.byte	0x71
 3916 0692 00       		.sleb128 0
 3917 0693 09       		.byte	0x9
 3918 0694 FC       		.byte	0xfc
 3919 0695 24       		.byte	0x24
 3920 0696 31       		.byte	0x31
 3921 0697 25       		.byte	0x25
 3922 0698 9F       		.byte	0x9f
 3923 0699 3C000000 		.4byte	.LVL113
 3924 069d 44000000 		.4byte	.LVL115
 3925 06a1 0800     		.2byte	0x8
 3926 06a3 71       		.byte	0x71
 3927 06a4 00       		.sleb128 0
 3928 06a5 09       		.byte	0x9
 3929 06a6 FC       		.byte	0xfc
 3930 06a7 24       		.byte	0x24
 3931 06a8 31       		.byte	0x31
 3932 06a9 25       		.byte	0x25
 3933 06aa 9F       		.byte	0x9f
 3934 06ab 44000000 		.4byte	.LVL115
 3935 06af 46000000 		.4byte	.LVL116
 3936 06b3 0100     		.2byte	0x1
 3937 06b5 53       		.byte	0x53
 3938 06b6 46000000 		.4byte	.LVL116
 3939 06ba 4C000000 		.4byte	.LFE138
 3940 06be 0800     		.2byte	0x8
 3941 06c0 71       		.byte	0x71
 3942 06c1 00       		.sleb128 0
 3943 06c2 09       		.byte	0x9
 3944 06c3 FC       		.byte	0xfc
 3945 06c4 24       		.byte	0x24
 3946 06c5 31       		.byte	0x31
 3947 06c6 25       		.byte	0x25
 3948 06c7 9F       		.byte	0x9f
 3949 06c8 00000000 		.4byte	0
 3950 06cc 00000000 		.4byte	0
 3951              	.LLST31:
 3952 06d0 00000000 		.4byte	.LVL104
 3953 06d4 36000000 		.4byte	.LVL112
ARM GAS  C:\Users\jsyoon\AppData\Local\Temp\cc7861fK.s 			page 71


 3954 06d8 0200     		.2byte	0x2
 3955 06da 30       		.byte	0x30
 3956 06db 9F       		.byte	0x9f
 3957 06dc 36000000 		.4byte	.LVL112
 3958 06e0 3C000000 		.4byte	.LVL113
 3959 06e4 0100     		.2byte	0x1
 3960 06e6 50       		.byte	0x50
 3961 06e7 3C000000 		.4byte	.LVL113
 3962 06eb 3E000000 		.4byte	.LVL114
 3963 06ef 0200     		.2byte	0x2
 3964 06f1 30       		.byte	0x30
 3965 06f2 9F       		.byte	0x9f
 3966 06f3 3E000000 		.4byte	.LVL114
 3967 06f7 44000000 		.4byte	.LVL115
 3968 06fb 0100     		.2byte	0x1
 3969 06fd 50       		.byte	0x50
 3970 06fe 44000000 		.4byte	.LVL115
 3971 0702 4C000000 		.4byte	.LFE138
 3972 0706 0200     		.2byte	0x2
 3973 0708 30       		.byte	0x30
 3974 0709 9F       		.byte	0x9f
 3975 070a 00000000 		.4byte	0
 3976 070e 00000000 		.4byte	0
 3977              	.LLST32:
 3978 0712 00000000 		.4byte	.LVL118
 3979 0716 02000000 		.4byte	.LVL119
 3980 071a 0100     		.2byte	0x1
 3981 071c 51       		.byte	0x51
 3982 071d 02000000 		.4byte	.LVL119
 3983 0721 10000000 		.4byte	.LFE139
 3984 0725 0400     		.2byte	0x4
 3985 0727 F3       		.byte	0xf3
 3986 0728 01       		.uleb128 0x1
 3987 0729 51       		.byte	0x51
 3988 072a 9F       		.byte	0x9f
 3989 072b 00000000 		.4byte	0
 3990 072f 00000000 		.4byte	0
 3991              	.LLST33:
 3992 0733 00000000 		.4byte	.LVL118
 3993 0737 02000000 		.4byte	.LVL119
 3994 073b 0500     		.2byte	0x5
 3995 073d 71       		.byte	0x71
 3996 073e 00       		.sleb128 0
 3997 073f 38       		.byte	0x38
 3998 0740 25       		.byte	0x25
 3999 0741 9F       		.byte	0x9f
 4000 0742 02000000 		.4byte	.LVL119
 4001 0746 10000000 		.4byte	.LFE139
 4002 074a 0600     		.2byte	0x6
 4003 074c F3       		.byte	0xf3
 4004 074d 01       		.uleb128 0x1
 4005 074e 51       		.byte	0x51
 4006 074f 38       		.byte	0x38
 4007 0750 25       		.byte	0x25
 4008 0751 9F       		.byte	0x9f
 4009 0752 00000000 		.4byte	0
 4010 0756 00000000 		.4byte	0
ARM GAS  C:\Users\jsyoon\AppData\Local\Temp\cc7861fK.s 			page 72


 4011              		.section	.debug_aranges,"",%progbits
 4012 0000 FC000000 		.4byte	0xfc
 4013 0004 0200     		.2byte	0x2
 4014 0006 00000000 		.4byte	.Ldebug_info0
 4015 000a 04       		.byte	0x4
 4016 000b 00       		.byte	0
 4017 000c 0000     		.2byte	0
 4018 000e 0000     		.2byte	0
 4019 0010 00000000 		.4byte	.LFB111
 4020 0014 C8000000 		.4byte	.LFE111-.LFB111
 4021 0018 00000000 		.4byte	.LFB112
 4022 001c C4000000 		.4byte	.LFE112-.LFB112
 4023 0020 00000000 		.4byte	.LFB113
 4024 0024 16000000 		.4byte	.LFE113-.LFB113
 4025 0028 00000000 		.4byte	.LFB114
 4026 002c 22000000 		.4byte	.LFE114-.LFB114
 4027 0030 00000000 		.4byte	.LFB115
 4028 0034 0C000000 		.4byte	.LFE115-.LFB115
 4029 0038 00000000 		.4byte	.LFB116
 4030 003c 1A000000 		.4byte	.LFE116-.LFB116
 4031 0040 00000000 		.4byte	.LFB117
 4032 0044 12000000 		.4byte	.LFE117-.LFB117
 4033 0048 00000000 		.4byte	.LFB118
 4034 004c 1A000000 		.4byte	.LFE118-.LFB118
 4035 0050 00000000 		.4byte	.LFB119
 4036 0054 1A000000 		.4byte	.LFE119-.LFB119
 4037 0058 00000000 		.4byte	.LFB120
 4038 005c 08000000 		.4byte	.LFE120-.LFB120
 4039 0060 00000000 		.4byte	.LFB121
 4040 0064 08000000 		.4byte	.LFE121-.LFB121
 4041 0068 00000000 		.4byte	.LFB122
 4042 006c 16000000 		.4byte	.LFE122-.LFB122
 4043 0070 00000000 		.4byte	.LFB123
 4044 0074 1A000000 		.4byte	.LFE123-.LFB123
 4045 0078 00000000 		.4byte	.LFB124
 4046 007c 16000000 		.4byte	.LFE124-.LFB124
 4047 0080 00000000 		.4byte	.LFB125
 4048 0084 16000000 		.4byte	.LFE125-.LFB125
 4049 0088 00000000 		.4byte	.LFB126
 4050 008c 1A000000 		.4byte	.LFE126-.LFB126
 4051 0090 00000000 		.4byte	.LFB127
 4052 0094 0C000000 		.4byte	.LFE127-.LFB127
 4053 0098 00000000 		.4byte	.LFB128
 4054 009c 1A000000 		.4byte	.LFE128-.LFB128
 4055 00a0 00000000 		.4byte	.LFB129
 4056 00a4 12000000 		.4byte	.LFE129-.LFB129
 4057 00a8 00000000 		.4byte	.LFB130
 4058 00ac 1A000000 		.4byte	.LFE130-.LFB130
 4059 00b0 00000000 		.4byte	.LFB131
 4060 00b4 1A000000 		.4byte	.LFE131-.LFB131
 4061 00b8 00000000 		.4byte	.LFB132
 4062 00bc 16000000 		.4byte	.LFE132-.LFB132
 4063 00c0 00000000 		.4byte	.LFB133
 4064 00c4 1A000000 		.4byte	.LFE133-.LFB133
 4065 00c8 00000000 		.4byte	.LFB134
 4066 00cc 14000000 		.4byte	.LFE134-.LFB134
 4067 00d0 00000000 		.4byte	.LFB135
ARM GAS  C:\Users\jsyoon\AppData\Local\Temp\cc7861fK.s 			page 73


 4068 00d4 3A000000 		.4byte	.LFE135-.LFB135
 4069 00d8 00000000 		.4byte	.LFB136
 4070 00dc 0C000000 		.4byte	.LFE136-.LFB136
 4071 00e0 00000000 		.4byte	.LFB137
 4072 00e4 08000000 		.4byte	.LFE137-.LFB137
 4073 00e8 00000000 		.4byte	.LFB138
 4074 00ec 4C000000 		.4byte	.LFE138-.LFB138
 4075 00f0 00000000 		.4byte	.LFB139
 4076 00f4 10000000 		.4byte	.LFE139-.LFB139
 4077 00f8 00000000 		.4byte	0
 4078 00fc 00000000 		.4byte	0
 4079              		.section	.debug_ranges,"",%progbits
 4080              	.Ldebug_ranges0:
 4081 0000 00000000 		.4byte	.LFB111
 4082 0004 C8000000 		.4byte	.LFE111
 4083 0008 00000000 		.4byte	.LFB112
 4084 000c C4000000 		.4byte	.LFE112
 4085 0010 00000000 		.4byte	.LFB113
 4086 0014 16000000 		.4byte	.LFE113
 4087 0018 00000000 		.4byte	.LFB114
 4088 001c 22000000 		.4byte	.LFE114
 4089 0020 00000000 		.4byte	.LFB115
 4090 0024 0C000000 		.4byte	.LFE115
 4091 0028 00000000 		.4byte	.LFB116
 4092 002c 1A000000 		.4byte	.LFE116
 4093 0030 00000000 		.4byte	.LFB117
 4094 0034 12000000 		.4byte	.LFE117
 4095 0038 00000000 		.4byte	.LFB118
 4096 003c 1A000000 		.4byte	.LFE118
 4097 0040 00000000 		.4byte	.LFB119
 4098 0044 1A000000 		.4byte	.LFE119
 4099 0048 00000000 		.4byte	.LFB120
 4100 004c 08000000 		.4byte	.LFE120
 4101 0050 00000000 		.4byte	.LFB121
 4102 0054 08000000 		.4byte	.LFE121
 4103 0058 00000000 		.4byte	.LFB122
 4104 005c 16000000 		.4byte	.LFE122
 4105 0060 00000000 		.4byte	.LFB123
 4106 0064 1A000000 		.4byte	.LFE123
 4107 0068 00000000 		.4byte	.LFB124
 4108 006c 16000000 		.4byte	.LFE124
 4109 0070 00000000 		.4byte	.LFB125
 4110 0074 16000000 		.4byte	.LFE125
 4111 0078 00000000 		.4byte	.LFB126
 4112 007c 1A000000 		.4byte	.LFE126
 4113 0080 00000000 		.4byte	.LFB127
 4114 0084 0C000000 		.4byte	.LFE127
 4115 0088 00000000 		.4byte	.LFB128
 4116 008c 1A000000 		.4byte	.LFE128
 4117 0090 00000000 		.4byte	.LFB129
 4118 0094 12000000 		.4byte	.LFE129
 4119 0098 00000000 		.4byte	.LFB130
 4120 009c 1A000000 		.4byte	.LFE130
 4121 00a0 00000000 		.4byte	.LFB131
 4122 00a4 1A000000 		.4byte	.LFE131
 4123 00a8 00000000 		.4byte	.LFB132
 4124 00ac 16000000 		.4byte	.LFE132
ARM GAS  C:\Users\jsyoon\AppData\Local\Temp\cc7861fK.s 			page 74


 4125 00b0 00000000 		.4byte	.LFB133
 4126 00b4 1A000000 		.4byte	.LFE133
 4127 00b8 00000000 		.4byte	.LFB134
 4128 00bc 14000000 		.4byte	.LFE134
 4129 00c0 00000000 		.4byte	.LFB135
 4130 00c4 3A000000 		.4byte	.LFE135
 4131 00c8 00000000 		.4byte	.LFB136
 4132 00cc 0C000000 		.4byte	.LFE136
 4133 00d0 00000000 		.4byte	.LFB137
 4134 00d4 08000000 		.4byte	.LFE137
 4135 00d8 00000000 		.4byte	.LFB138
 4136 00dc 4C000000 		.4byte	.LFE138
 4137 00e0 00000000 		.4byte	.LFB139
 4138 00e4 10000000 		.4byte	.LFE139
 4139 00e8 00000000 		.4byte	0
 4140 00ec 00000000 		.4byte	0
 4141              		.section	.debug_line,"",%progbits
 4142              	.Ldebug_line0:
 4143 0000 D3040000 		.section	.debug_str,"MS",%progbits,1
 4143      0200C101 
 4143      00000201 
 4143      FB0E0D00 
 4143      01010101 
 4144              	.LASF56:
 4145 0000 696E7465 		.ascii	"integerdivider\000"
 4145      67657264 
 4145      69766964 
 4145      657200
 4146              	.LASF47:
 4147 000f 55534152 		.ascii	"USART_CPHA\000"
 4147      545F4350 
 4147      484100
 4148              	.LASF30:
 4149 001a 47545052 		.ascii	"GTPR\000"
 4149      00
 4150              	.LASF93:
 4151 001f 6974706F 		.ascii	"itpos\000"
 4151      7300
 4152              	.LASF73:
 4153 0025 55534152 		.ascii	"USART_ReceiverWakeUpCmd\000"
 4153      545F5265 
 4153      63656976 
 4153      65725761 
 4153      6B655570 
 4154              	.LASF33:
 4155 003d 53595343 		.ascii	"SYSCLK_Frequency\000"
 4155      4C4B5F46 
 4155      72657175 
 4155      656E6379 
 4155      00
 4156              	.LASF65:
 4157 004e 55534152 		.ascii	"USART_SetPrescaler\000"
 4157      545F5365 
 4157      74507265 
 4157      7363616C 
 4157      657200
 4158              	.LASF51:
ARM GAS  C:\Users\jsyoon\AppData\Local\Temp\cc7861fK.s 			page 75


 4159 0061 55534152 		.ascii	"USART_Init\000"
 4159      545F496E 
 4159      697400
 4160              	.LASF17:
 4161 006c 73697A65 		.ascii	"sizetype\000"
 4161      74797065 
 4161      00
 4162              	.LASF34:
 4163 0075 48434C4B 		.ascii	"HCLK_Frequency\000"
 4163      5F467265 
 4163      7175656E 
 4163      637900
 4164              	.LASF109:
 4165 0084 453A5C4D 		.ascii	"E:\\Maker\\BLDC\\test_eval\\try2\\OROCA-BLDC_R15080"
 4165      616B6572 
 4165      5C424C44 
 4165      435C7465 
 4165      73745F65 
 4166 00b2 3700     		.ascii	"7\000"
 4167              	.LASF77:
 4168 00b4 55534152 		.ascii	"USART_LINBreakDetectLength\000"
 4168      545F4C49 
 4168      4E427265 
 4168      616B4465 
 4168      74656374 
 4169              	.LASF8:
 4170 00cf 5F5F7569 		.ascii	"__uint32_t\000"
 4170      6E743332 
 4170      5F7400
 4171              	.LASF19:
 4172 00da 466C6167 		.ascii	"FlagStatus\000"
 4172      53746174 
 4172      757300
 4173              	.LASF4:
 4174 00e5 5F5F7569 		.ascii	"__uint16_t\000"
 4174      6E743136 
 4174      5F7400
 4175              	.LASF32:
 4176 00f0 55534152 		.ascii	"USART_TypeDef\000"
 4176      545F5479 
 4176      70654465 
 4176      6600
 4177              	.LASF40:
 4178 00fe 55534152 		.ascii	"USART_StopBits\000"
 4178      545F5374 
 4178      6F704269 
 4178      747300
 4179              	.LASF99:
 4180 010d 62697473 		.ascii	"bitstatus\000"
 4180      74617475 
 4180      7300
 4181              	.LASF49:
 4182 0117 55534152 		.ascii	"USART_ClockInitTypeDef\000"
 4182      545F436C 
 4182      6F636B49 
 4182      6E697454 
 4182      79706544 
ARM GAS  C:\Users\jsyoon\AppData\Local\Temp\cc7861fK.s 			page 76


 4183              	.LASF63:
 4184 012e 55534152 		.ascii	"USART_Cmd\000"
 4184      545F436D 
 4184      6400
 4185              	.LASF107:
 4186 0138 474E5520 		.ascii	"GNU C 4.8.4 20140526 (release) [ARM/embedded-4_8-br"
 4186      4320342E 
 4186      382E3420 
 4186      32303134 
 4186      30353236 
 4187 016b 616E6368 		.ascii	"anch revision 211358] -mcpu=cortex-m4 -mfloat-abi=h"
 4187      20726576 
 4187      6973696F 
 4187      6E203231 
 4187      31333538 
 4188 019e 61726420 		.ascii	"ard -mfpu=fpv4-sp-d16 -mno-thumb-interwork -mthumb "
 4188      2D6D6670 
 4188      753D6670 
 4188      76342D73 
 4188      702D6431 
 4189 01d1 2D676764 		.ascii	"-ggdb -O2 -std=gnu99 -fomit-frame-pointer -falign-f"
 4189      62202D4F 
 4189      32202D73 
 4189      74643D67 
 4189      6E753939 
 4190 0204 756E6374 		.ascii	"unctions=16 -ffunction-sections -fdata-sections -fn"
 4190      696F6E73 
 4190      3D313620 
 4190      2D666675 
 4190      6E637469 
 4191 0237 6F2D636F 		.ascii	"o-common -fsingle-precision-constant\000"
 4191      6D6D6F6E 
 4191      202D6673 
 4191      696E676C 
 4191      652D7072 
 4192              	.LASF69:
 4193 025c 55534152 		.ascii	"USART_SendData\000"
 4193      545F5365 
 4193      6E644461 
 4193      746100
 4194              	.LASF13:
 4195 026b 75696E74 		.ascii	"uint8_t\000"
 4195      385F7400 
 4196              	.LASF91:
 4197 0273 55534152 		.ascii	"USART_IT\000"
 4197      545F4954 
 4197      00
 4198              	.LASF75:
 4199 027c 55534152 		.ascii	"USART_WakeUp\000"
 4199      545F5761 
 4199      6B655570 
 4199      00
 4200              	.LASF39:
 4201 0289 55534152 		.ascii	"USART_WordLength\000"
 4201      545F576F 
 4201      72644C65 
 4201      6E677468 
ARM GAS  C:\Users\jsyoon\AppData\Local\Temp\cc7861fK.s 			page 77


 4201      00
 4202              	.LASF64:
 4203 029a 4E657753 		.ascii	"NewState\000"
 4203      74617465 
 4203      00
 4204              	.LASF88:
 4205 02a3 55534152 		.ascii	"USART_DMACmd\000"
 4205      545F444D 
 4205      41436D64 
 4205      00
 4206              	.LASF21:
 4207 02b0 44495341 		.ascii	"DISABLE\000"
 4207      424C4500 
 4208              	.LASF0:
 4209 02b8 7369676E 		.ascii	"signed char\000"
 4209      65642063 
 4209      68617200 
 4210              	.LASF48:
 4211 02c4 55534152 		.ascii	"USART_LastBit\000"
 4211      545F4C61 
 4211      73744269 
 4211      7400
 4212              	.LASF38:
 4213 02d2 55534152 		.ascii	"USART_BaudRate\000"
 4213      545F4261 
 4213      75645261 
 4213      746500
 4214              	.LASF86:
 4215 02e1 55534152 		.ascii	"USART_IrDAMode\000"
 4215      545F4972 
 4215      44414D6F 
 4215      646500
 4216              	.LASF55:
 4217 02f0 61706263 		.ascii	"apbclock\000"
 4217      6C6F636B 
 4217      00
 4218              	.LASF10:
 4219 02f9 6C6F6E67 		.ascii	"long long int\000"
 4219      206C6F6E 
 4219      6720696E 
 4219      7400
 4220              	.LASF105:
 4221 0307 5243435F 		.ascii	"RCC_APB1PeriphResetCmd\000"
 4221      41504231 
 4221      50657269 
 4221      70685265 
 4221      73657443 
 4222              	.LASF20:
 4223 031e 49545374 		.ascii	"ITStatus\000"
 4223      61747573 
 4223      00
 4224              	.LASF7:
 4225 0327 6C6F6E67 		.ascii	"long int\000"
 4225      20696E74 
 4225      00
 4226              	.LASF103:
 4227 0330 55534152 		.ascii	"USART_ClearITPendingBit\000"
ARM GAS  C:\Users\jsyoon\AppData\Local\Temp\cc7861fK.s 			page 78


 4227      545F436C 
 4227      65617249 
 4227      5450656E 
 4227      64696E67 
 4228              	.LASF82:
 4229 0348 55534152 		.ascii	"USART_GuardTime\000"
 4229      545F4775 
 4229      61726454 
 4229      696D6500 
 4230              	.LASF2:
 4231 0358 73686F72 		.ascii	"short int\000"
 4231      7420696E 
 4231      7400
 4232              	.LASF76:
 4233 0362 55534152 		.ascii	"USART_LINBreakDetectLengthConfig\000"
 4233      545F4C49 
 4233      4E427265 
 4233      616B4465 
 4233      74656374 
 4234              	.LASF3:
 4235 0383 5F5F7569 		.ascii	"__uint8_t\000"
 4235      6E74385F 
 4235      7400
 4236              	.LASF98:
 4237 038d 55534152 		.ascii	"USART_FLAG\000"
 4237      545F464C 
 4237      414700
 4238              	.LASF50:
 4239 0398 55534152 		.ascii	"USART_DeInit\000"
 4239      545F4465 
 4239      496E6974 
 4239      00
 4240              	.LASF61:
 4241 03a5 55534152 		.ascii	"USART_ClockInitStruct\000"
 4241      545F436C 
 4241      6F636B49 
 4241      6E697453 
 4241      74727563 
 4242              	.LASF70:
 4243 03bb 44617461 		.ascii	"Data\000"
 4243      00
 4244              	.LASF54:
 4245 03c0 746D7072 		.ascii	"tmpreg\000"
 4245      656700
 4246              	.LASF41:
 4247 03c7 55534152 		.ascii	"USART_Parity\000"
 4247      545F5061 
 4247      72697479 
 4247      00
 4248              	.LASF62:
 4249 03d4 55534152 		.ascii	"USART_ClockStructInit\000"
 4249      545F436C 
 4249      6F636B53 
 4249      74727563 
 4249      74496E69 
 4250              	.LASF1:
 4251 03ea 756E7369 		.ascii	"unsigned char\000"
ARM GAS  C:\Users\jsyoon\AppData\Local\Temp\cc7861fK.s 			page 79


 4251      676E6564 
 4251      20636861 
 4251      7200
 4252              	.LASF95:
 4253 03f8 75736172 		.ascii	"usartxbase\000"
 4253      74786261 
 4253      736500
 4254              	.LASF100:
 4255 0403 55534152 		.ascii	"USART_ClearFlag\000"
 4255      545F436C 
 4255      65617246 
 4255      6C616700 
 4256              	.LASF71:
 4257 0413 55534152 		.ascii	"USART_SetAddress\000"
 4257      545F5365 
 4257      74416464 
 4257      72657373 
 4257      00
 4258              	.LASF11:
 4259 0424 6C6F6E67 		.ascii	"long long unsigned int\000"
 4259      206C6F6E 
 4259      6720756E 
 4259      7369676E 
 4259      65642069 
 4260              	.LASF16:
 4261 043b 75696E74 		.ascii	"uint32_t\000"
 4261      33325F74 
 4261      00
 4262              	.LASF81:
 4263 0444 55534152 		.ascii	"USART_SetGuardTime\000"
 4263      545F5365 
 4263      74477561 
 4263      72645469 
 4263      6D6500
 4264              	.LASF12:
 4265 0457 756E7369 		.ascii	"unsigned int\000"
 4265      676E6564 
 4265      20696E74 
 4265      00
 4266              	.LASF14:
 4267 0464 75696E74 		.ascii	"uint16_t\000"
 4267      31365F74 
 4267      00
 4268              	.LASF9:
 4269 046d 6C6F6E67 		.ascii	"long unsigned int\000"
 4269      20756E73 
 4269      69676E65 
 4269      6420696E 
 4269      7400
 4270              	.LASF79:
 4271 047f 55534152 		.ascii	"USART_SendBreak\000"
 4271      545F5365 
 4271      6E644272 
 4271      65616B00 
 4272              	.LASF44:
 4273 048f 55534152 		.ascii	"USART_InitTypeDef\000"
 4273      545F496E 
ARM GAS  C:\Users\jsyoon\AppData\Local\Temp\cc7861fK.s 			page 80


 4273      69745479 
 4273      70654465 
 4273      6600
 4274              	.LASF104:
 4275 04a1 5243435F 		.ascii	"RCC_APB2PeriphResetCmd\000"
 4275      41504232 
 4275      50657269 
 4275      70685265 
 4275      73657443 
 4276              	.LASF90:
 4277 04b8 55534152 		.ascii	"USART_ITConfig\000"
 4277      545F4954 
 4277      436F6E66 
 4277      696700
 4278              	.LASF37:
 4279 04c7 5243435F 		.ascii	"RCC_ClocksTypeDef\000"
 4279      436C6F63 
 4279      6B735479 
 4279      70654465 
 4279      6600
 4280              	.LASF89:
 4281 04d9 55534152 		.ascii	"USART_DMAReq\000"
 4281      545F444D 
 4281      41526571 
 4281      00
 4282              	.LASF52:
 4283 04e6 55534152 		.ascii	"USARTx\000"
 4283      547800
 4284              	.LASF68:
 4285 04ed 55534152 		.ascii	"USART_OneBitMethodCmd\000"
 4285      545F4F6E 
 4285      65426974 
 4285      4D657468 
 4285      6F64436D 
 4286              	.LASF43:
 4287 0503 55534152 		.ascii	"USART_HardwareFlowControl\000"
 4287      545F4861 
 4287      72647761 
 4287      7265466C 
 4287      6F77436F 
 4288              	.LASF83:
 4289 051d 55534152 		.ascii	"USART_SmartCardCmd\000"
 4289      545F536D 
 4289      61727443 
 4289      61726443 
 4289      6D6400
 4290              	.LASF42:
 4291 0530 55534152 		.ascii	"USART_Mode\000"
 4291      545F4D6F 
 4291      646500
 4292              	.LASF72:
 4293 053b 55534152 		.ascii	"USART_Address\000"
 4293      545F4164 
 4293      64726573 
 4293      7300
 4294              	.LASF15:
 4295 0549 696E7433 		.ascii	"int32_t\000"
ARM GAS  C:\Users\jsyoon\AppData\Local\Temp\cc7861fK.s 			page 81


 4295      325F7400 
 4296              	.LASF102:
 4297 0551 62697470 		.ascii	"bitpos\000"
 4297      6F7300
 4298              	.LASF67:
 4299 0558 55534152 		.ascii	"USART_OverSampling8Cmd\000"
 4299      545F4F76 
 4299      65725361 
 4299      6D706C69 
 4299      6E673843 
 4300              	.LASF5:
 4301 056f 73686F72 		.ascii	"short unsigned int\000"
 4301      7420756E 
 4301      7369676E 
 4301      65642069 
 4301      6E7400
 4302              	.LASF101:
 4303 0582 55534152 		.ascii	"USART_GetITStatus\000"
 4303      545F4765 
 4303      74495453 
 4303      74617475 
 4303      7300
 4304              	.LASF78:
 4305 0594 55534152 		.ascii	"USART_LINCmd\000"
 4305      545F4C49 
 4305      4E436D64 
 4305      00
 4306              	.LASF85:
 4307 05a1 55534152 		.ascii	"USART_IrDAConfig\000"
 4307      545F4972 
 4307      4441436F 
 4307      6E666967 
 4307      00
 4308              	.LASF18:
 4309 05b2 52455345 		.ascii	"RESET\000"
 4309      5400
 4310              	.LASF36:
 4311 05b8 50434C4B 		.ascii	"PCLK2_Frequency\000"
 4311      325F4672 
 4311      65717565 
 4311      6E637900 
 4312              	.LASF45:
 4313 05c8 55534152 		.ascii	"USART_Clock\000"
 4313      545F436C 
 4313      6F636B00 
 4314              	.LASF24:
 4315 05d4 52455345 		.ascii	"RESERVED0\000"
 4315      52564544 
 4315      3000
 4316              	.LASF25:
 4317 05de 52455345 		.ascii	"RESERVED1\000"
 4317      52564544 
 4317      3100
 4318              	.LASF26:
 4319 05e8 52455345 		.ascii	"RESERVED2\000"
 4319      52564544 
 4319      3200
ARM GAS  C:\Users\jsyoon\AppData\Local\Temp\cc7861fK.s 			page 82


 4320              	.LASF27:
 4321 05f2 52455345 		.ascii	"RESERVED3\000"
 4321      52564544 
 4321      3300
 4322              	.LASF28:
 4323 05fc 52455345 		.ascii	"RESERVED4\000"
 4323      52564544 
 4323      3400
 4324              	.LASF29:
 4325 0606 52455345 		.ascii	"RESERVED5\000"
 4325      52564544 
 4325      3500
 4326              	.LASF31:
 4327 0610 52455345 		.ascii	"RESERVED6\000"
 4327      52564544 
 4327      3600
 4328              	.LASF87:
 4329 061a 55534152 		.ascii	"USART_IrDACmd\000"
 4329      545F4972 
 4329      4441436D 
 4329      6400
 4330              	.LASF57:
 4331 0628 66726163 		.ascii	"fractionaldivider\000"
 4331      74696F6E 
 4331      616C6469 
 4331      76696465 
 4331      7200
 4332              	.LASF23:
 4333 063a 46756E63 		.ascii	"FunctionalState\000"
 4333      74696F6E 
 4333      616C5374 
 4333      61746500 
 4334              	.LASF84:
 4335 064a 55534152 		.ascii	"USART_SmartCardNACKCmd\000"
 4335      545F536D 
 4335      61727443 
 4335      6172644E 
 4335      41434B43 
 4336              	.LASF35:
 4337 0661 50434C4B 		.ascii	"PCLK1_Frequency\000"
 4337      315F4672 
 4337      65717565 
 4337      6E637900 
 4338              	.LASF97:
 4339 0671 55534152 		.ascii	"USART_GetFlagStatus\000"
 4339      545F4765 
 4339      74466C61 
 4339      67537461 
 4339      74757300 
 4340              	.LASF6:
 4341 0685 5F5F696E 		.ascii	"__int32_t\000"
 4341      7433325F 
 4341      7400
 4342              	.LASF106:
 4343 068f 5243435F 		.ascii	"RCC_GetClocksFreq\000"
 4343      47657443 
 4343      6C6F636B 
ARM GAS  C:\Users\jsyoon\AppData\Local\Temp\cc7861fK.s 			page 83


 4343      73467265 
 4343      7100
 4344              	.LASF53:
 4345 06a1 55534152 		.ascii	"USART_InitStruct\000"
 4345      545F496E 
 4345      69745374 
 4345      72756374 
 4345      00
 4346              	.LASF58:
 4347 06b2 5243435F 		.ascii	"RCC_ClocksStatus\000"
 4347      436C6F63 
 4347      6B735374 
 4347      61747573 
 4347      00
 4348              	.LASF60:
 4349 06c3 55534152 		.ascii	"USART_ClockInit\000"
 4349      545F436C 
 4349      6F636B49 
 4349      6E697400 
 4350              	.LASF74:
 4351 06d3 55534152 		.ascii	"USART_WakeUpConfig\000"
 4351      545F5761 
 4351      6B655570 
 4351      436F6E66 
 4351      696700
 4352              	.LASF80:
 4353 06e6 55534152 		.ascii	"USART_HalfDuplexCmd\000"
 4353      545F4861 
 4353      6C664475 
 4353      706C6578 
 4353      436D6400 
 4354              	.LASF59:
 4355 06fa 55534152 		.ascii	"USART_StructInit\000"
 4355      545F5374 
 4355      72756374 
 4355      496E6974 
 4355      00
 4356              	.LASF66:
 4357 070b 55534152 		.ascii	"USART_Prescaler\000"
 4357      545F5072 
 4357      65736361 
 4357      6C657200 
 4358              	.LASF46:
 4359 071b 55534152 		.ascii	"USART_CPOL\000"
 4359      545F4350 
 4359      4F4C00
 4360              	.LASF94:
 4361 0726 69746D61 		.ascii	"itmask\000"
 4361      736B00
 4362              	.LASF110:
 4363 072d 49544D5F 		.ascii	"ITM_RxBuffer\000"
 4363      52784275 
 4363      66666572 
 4363      00
 4364              	.LASF108:
 4365 073a 43686962 		.ascii	"ChibiOS_2.6.6/ext/stdperiph_stm32f4/src/stm32f4xx_u"
 4365      694F535F 
ARM GAS  C:\Users\jsyoon\AppData\Local\Temp\cc7861fK.s 			page 84


 4365      322E362E 
 4365      362F6578 
 4365      742F7374 
 4366 076d 73617274 		.ascii	"sart.c\000"
 4366      2E6300
 4367              	.LASF96:
 4368 0774 55534152 		.ascii	"USART_ReceiveData\000"
 4368      545F5265 
 4368      63656976 
 4368      65446174 
 4368      6100
 4369              	.LASF92:
 4370 0786 75736172 		.ascii	"usartreg\000"
 4370      74726567 
 4370      00
 4371              	.LASF22:
 4372 078f 454E4142 		.ascii	"ENABLE\000"
 4372      4C4500
 4373              		.ident	"GCC: (GNU Tools for ARM Embedded Processors) 4.8.4 20140526 (release) [ARM/embedded-4_8-br
ARM GAS  C:\Users\jsyoon\AppData\Local\Temp\cc7861fK.s 			page 85


DEFINED SYMBOLS
                            *ABS*:00000000 stm32f4xx_usart.c
C:\Users\jsyoon\AppData\Local\Temp\cc7861fK.s:21     .text.USART_DeInit:00000000 $t
C:\Users\jsyoon\AppData\Local\Temp\cc7861fK.s:27     .text.USART_DeInit:00000000 USART_DeInit
C:\Users\jsyoon\AppData\Local\Temp\cc7861fK.s:157    .text.USART_DeInit:000000b0 $d
C:\Users\jsyoon\AppData\Local\Temp\cc7861fK.s:167    .text.USART_Init:00000000 $t
C:\Users\jsyoon\AppData\Local\Temp\cc7861fK.s:173    .text.USART_Init:00000000 USART_Init
C:\Users\jsyoon\AppData\Local\Temp\cc7861fK.s:349    .text.USART_Init:000000bc $d
C:\Users\jsyoon\AppData\Local\Temp\cc7861fK.s:355    .text.USART_StructInit:00000000 $t
C:\Users\jsyoon\AppData\Local\Temp\cc7861fK.s:361    .text.USART_StructInit:00000000 USART_StructInit
C:\Users\jsyoon\AppData\Local\Temp\cc7861fK.s:392    .text.USART_ClockInit:00000000 $t
C:\Users\jsyoon\AppData\Local\Temp\cc7861fK.s:398    .text.USART_ClockInit:00000000 USART_ClockInit
C:\Users\jsyoon\AppData\Local\Temp\cc7861fK.s:441    .text.USART_ClockStructInit:00000000 $t
C:\Users\jsyoon\AppData\Local\Temp\cc7861fK.s:447    .text.USART_ClockStructInit:00000000 USART_ClockStructInit
C:\Users\jsyoon\AppData\Local\Temp\cc7861fK.s:469    .text.USART_Cmd:00000000 $t
C:\Users\jsyoon\AppData\Local\Temp\cc7861fK.s:475    .text.USART_Cmd:00000000 USART_Cmd
C:\Users\jsyoon\AppData\Local\Temp\cc7861fK.s:503    .text.USART_SetPrescaler:00000000 $t
C:\Users\jsyoon\AppData\Local\Temp\cc7861fK.s:509    .text.USART_SetPrescaler:00000000 USART_SetPrescaler
C:\Users\jsyoon\AppData\Local\Temp\cc7861fK.s:532    .text.USART_OverSampling8Cmd:00000000 $t
C:\Users\jsyoon\AppData\Local\Temp\cc7861fK.s:538    .text.USART_OverSampling8Cmd:00000000 USART_OverSampling8Cmd
C:\Users\jsyoon\AppData\Local\Temp\cc7861fK.s:565    .text.USART_OneBitMethodCmd:00000000 $t
C:\Users\jsyoon\AppData\Local\Temp\cc7861fK.s:571    .text.USART_OneBitMethodCmd:00000000 USART_OneBitMethodCmd
C:\Users\jsyoon\AppData\Local\Temp\cc7861fK.s:599    .text.USART_SendData:00000000 $t
C:\Users\jsyoon\AppData\Local\Temp\cc7861fK.s:605    .text.USART_SendData:00000000 USART_SendData
C:\Users\jsyoon\AppData\Local\Temp\cc7861fK.s:622    .text.USART_ReceiveData:00000000 $t
C:\Users\jsyoon\AppData\Local\Temp\cc7861fK.s:628    .text.USART_ReceiveData:00000000 USART_ReceiveData
C:\Users\jsyoon\AppData\Local\Temp\cc7861fK.s:646    .text.USART_SetAddress:00000000 $t
C:\Users\jsyoon\AppData\Local\Temp\cc7861fK.s:652    .text.USART_SetAddress:00000000 USART_SetAddress
C:\Users\jsyoon\AppData\Local\Temp\cc7861fK.s:677    .text.USART_ReceiverWakeUpCmd:00000000 $t
C:\Users\jsyoon\AppData\Local\Temp\cc7861fK.s:683    .text.USART_ReceiverWakeUpCmd:00000000 USART_ReceiverWakeUpCmd
C:\Users\jsyoon\AppData\Local\Temp\cc7861fK.s:711    .text.USART_WakeUpConfig:00000000 $t
C:\Users\jsyoon\AppData\Local\Temp\cc7861fK.s:717    .text.USART_WakeUpConfig:00000000 USART_WakeUpConfig
C:\Users\jsyoon\AppData\Local\Temp\cc7861fK.s:742    .text.USART_LINBreakDetectLengthConfig:00000000 $t
C:\Users\jsyoon\AppData\Local\Temp\cc7861fK.s:748    .text.USART_LINBreakDetectLengthConfig:00000000 USART_LINBreakDetectLengthConfig
C:\Users\jsyoon\AppData\Local\Temp\cc7861fK.s:773    .text.USART_LINCmd:00000000 $t
C:\Users\jsyoon\AppData\Local\Temp\cc7861fK.s:779    .text.USART_LINCmd:00000000 USART_LINCmd
C:\Users\jsyoon\AppData\Local\Temp\cc7861fK.s:807    .text.USART_SendBreak:00000000 $t
C:\Users\jsyoon\AppData\Local\Temp\cc7861fK.s:813    .text.USART_SendBreak:00000000 USART_SendBreak
C:\Users\jsyoon\AppData\Local\Temp\cc7861fK.s:831    .text.USART_HalfDuplexCmd:00000000 $t
C:\Users\jsyoon\AppData\Local\Temp\cc7861fK.s:837    .text.USART_HalfDuplexCmd:00000000 USART_HalfDuplexCmd
C:\Users\jsyoon\AppData\Local\Temp\cc7861fK.s:865    .text.USART_SetGuardTime:00000000 $t
C:\Users\jsyoon\AppData\Local\Temp\cc7861fK.s:871    .text.USART_SetGuardTime:00000000 USART_SetGuardTime
C:\Users\jsyoon\AppData\Local\Temp\cc7861fK.s:894    .text.USART_SmartCardCmd:00000000 $t
C:\Users\jsyoon\AppData\Local\Temp\cc7861fK.s:900    .text.USART_SmartCardCmd:00000000 USART_SmartCardCmd
C:\Users\jsyoon\AppData\Local\Temp\cc7861fK.s:928    .text.USART_SmartCardNACKCmd:00000000 $t
C:\Users\jsyoon\AppData\Local\Temp\cc7861fK.s:934    .text.USART_SmartCardNACKCmd:00000000 USART_SmartCardNACKCmd
C:\Users\jsyoon\AppData\Local\Temp\cc7861fK.s:962    .text.USART_IrDAConfig:00000000 $t
C:\Users\jsyoon\AppData\Local\Temp\cc7861fK.s:968    .text.USART_IrDAConfig:00000000 USART_IrDAConfig
C:\Users\jsyoon\AppData\Local\Temp\cc7861fK.s:993    .text.USART_IrDACmd:00000000 $t
C:\Users\jsyoon\AppData\Local\Temp\cc7861fK.s:999    .text.USART_IrDACmd:00000000 USART_IrDACmd
C:\Users\jsyoon\AppData\Local\Temp\cc7861fK.s:1027   .text.USART_DMACmd:00000000 $t
C:\Users\jsyoon\AppData\Local\Temp\cc7861fK.s:1033   .text.USART_DMACmd:00000000 USART_DMACmd
C:\Users\jsyoon\AppData\Local\Temp\cc7861fK.s:1062   .text.USART_ITConfig:00000000 $t
C:\Users\jsyoon\AppData\Local\Temp\cc7861fK.s:1068   .text.USART_ITConfig:00000000 USART_ITConfig
C:\Users\jsyoon\AppData\Local\Temp\cc7861fK.s:1135   .text.USART_GetFlagStatus:00000000 $t
C:\Users\jsyoon\AppData\Local\Temp\cc7861fK.s:1141   .text.USART_GetFlagStatus:00000000 USART_GetFlagStatus
C:\Users\jsyoon\AppData\Local\Temp\cc7861fK.s:1163   .text.USART_ClearFlag:00000000 $t
ARM GAS  C:\Users\jsyoon\AppData\Local\Temp\cc7861fK.s 			page 86


C:\Users\jsyoon\AppData\Local\Temp\cc7861fK.s:1169   .text.USART_ClearFlag:00000000 USART_ClearFlag
C:\Users\jsyoon\AppData\Local\Temp\cc7861fK.s:1187   .text.USART_GetITStatus:00000000 $t
C:\Users\jsyoon\AppData\Local\Temp\cc7861fK.s:1193   .text.USART_GetITStatus:00000000 USART_GetITStatus
C:\Users\jsyoon\AppData\Local\Temp\cc7861fK.s:1272   .text.USART_ClearITPendingBit:00000000 $t
C:\Users\jsyoon\AppData\Local\Temp\cc7861fK.s:1278   .text.USART_ClearITPendingBit:00000000 USART_ClearITPendingBit
                     .debug_frame:00000010 $d
C:\Users\jsyoon\AppData\Local\Temp\cc7861fK.s:166    .text.USART_DeInit:000000c8 $t
C:\Users\jsyoon\AppData\Local\Temp\cc7861fK.s:354    .text.USART_Init:000000c4 $t

UNDEFINED SYMBOLS
RCC_APB2PeriphResetCmd
RCC_APB1PeriphResetCmd
RCC_GetClocksFreq
