ARM GAS  C:\Users\jsyoon\AppData\Local\Temp\ccRKgIox.s 			page 1


   1              		.syntax unified
   2              		.cpu cortex-m4
   3              		.eabi_attribute 27, 3
   4              		.eabi_attribute 28, 1
   5              		.fpu fpv4-sp-d16
   6              		.eabi_attribute 20, 1
   7              		.eabi_attribute 21, 1
   8              		.eabi_attribute 23, 3
   9              		.eabi_attribute 24, 1
  10              		.eabi_attribute 25, 1
  11              		.eabi_attribute 26, 1
  12              		.eabi_attribute 30, 2
  13              		.eabi_attribute 34, 1
  14              		.eabi_attribute 18, 4
  15              		.thumb
  16              		.file	"stm32f4xx_dma.c"
  17              		.text
  18              	.Ltext0:
  19              		.cfi_sections	.debug_frame
  20              		.section	.text.DMA_DeInit,"ax",%progbits
  21              		.align	2
  22              		.p2align 4,,15
  23              		.global	DMA_DeInit
  24              		.thumb
  25              		.thumb_func
  26              		.type	DMA_DeInit, %function
  27              	DMA_DeInit:
  28              	.LFB111:
  29              		.file 1 "ChibiOS_2.6.6/ext/stdperiph_stm32f4/src/stm32f4xx_dma.c"
  30              		.loc 1 195 0
  31              		.cfi_startproc
  32              		@ args = 0, pretend = 0, frame = 0
  33              		@ frame_needed = 0, uses_anonymous_args = 0
  34              		@ link register save eliminated.
  35              	.LVL0:
  36 0000 10B4     		push	{r4}
  37              		.cfi_def_cfa_offset 4
  38              		.cfi_offset 4, -4
  39              		.loc 1 221 0
  40 0002 374A     		ldr	r2, .L28
  41              		.loc 1 200 0
  42 0004 0468     		ldr	r4, [r0]
  43              		.loc 1 203 0
  44 0006 0023     		movs	r3, #0
  45              		.loc 1 200 0
  46 0008 24F00104 		bic	r4, r4, #1
  47              		.loc 1 218 0
  48 000c 2121     		movs	r1, #33
  49              		.loc 1 221 0
  50 000e 9042     		cmp	r0, r2
  51              		.loc 1 200 0
  52 0010 0460     		str	r4, [r0]
  53              		.loc 1 203 0
  54 0012 0360     		str	r3, [r0]
  55              		.loc 1 206 0
  56 0014 4360     		str	r3, [r0, #4]
  57              		.loc 1 209 0
ARM GAS  C:\Users\jsyoon\AppData\Local\Temp\ccRKgIox.s 			page 2


  58 0016 8360     		str	r3, [r0, #8]
  59              		.loc 1 212 0
  60 0018 C360     		str	r3, [r0, #12]
  61              		.loc 1 215 0
  62 001a 0361     		str	r3, [r0, #16]
  63              		.loc 1 218 0
  64 001c 4161     		str	r1, [r0, #20]
  65              		.loc 1 221 0
  66 001e 4DD0     		beq	.L26
  67              		.loc 1 226 0
  68 0020 304B     		ldr	r3, .L28+4
  69 0022 9842     		cmp	r0, r3
  70 0024 35D0     		beq	.L18
  71              		.loc 1 231 0
  72 0026 304B     		ldr	r3, .L28+8
  73 0028 9842     		cmp	r0, r3
  74 002a 39D0     		beq	.L19
  75              		.loc 1 236 0
  76 002c 2F4B     		ldr	r3, .L28+12
  77 002e 9842     		cmp	r0, r3
  78 0030 3DD0     		beq	.L20
  79              		.loc 1 241 0
  80 0032 2F4B     		ldr	r3, .L28+16
  81 0034 9842     		cmp	r0, r3
  82 0036 47D0     		beq	.L21
  83              		.loc 1 246 0
  84 0038 2E4B     		ldr	r3, .L28+20
  85 003a 9842     		cmp	r0, r3
  86 003c 48D0     		beq	.L22
  87              		.loc 1 251 0
  88 003e 2E4B     		ldr	r3, .L28+24
  89 0040 9842     		cmp	r0, r3
  90 0042 1DD0     		beq	.L23
  91              		.loc 1 256 0
  92 0044 2D4B     		ldr	r3, .L28+28
  93 0046 9842     		cmp	r0, r3
  94 0048 1ED0     		beq	.L24
  95              		.loc 1 261 0
  96 004a 2D4B     		ldr	r3, .L28+32
  97 004c 9842     		cmp	r0, r3
  98 004e 43D0     		beq	.L27
  99              		.loc 1 266 0
 100 0050 2C4B     		ldr	r3, .L28+36
 101 0052 9842     		cmp	r0, r3
 102 0054 1DD0     		beq	.L18
 103              		.loc 1 271 0
 104 0056 2C4B     		ldr	r3, .L28+40
 105 0058 9842     		cmp	r0, r3
 106 005a 21D0     		beq	.L19
 107              		.loc 1 276 0
 108 005c 2B4B     		ldr	r3, .L28+44
 109 005e 9842     		cmp	r0, r3
 110 0060 25D0     		beq	.L20
 111              		.loc 1 281 0
 112 0062 2B4B     		ldr	r3, .L28+48
 113 0064 9842     		cmp	r0, r3
 114 0066 2FD0     		beq	.L21
ARM GAS  C:\Users\jsyoon\AppData\Local\Temp\ccRKgIox.s 			page 3


 115              		.loc 1 286 0
 116 0068 2A4B     		ldr	r3, .L28+52
 117 006a 9842     		cmp	r0, r3
 118 006c 30D0     		beq	.L22
 119              		.loc 1 291 0
 120 006e 2A4B     		ldr	r3, .L28+56
 121 0070 9842     		cmp	r0, r3
 122 0072 05D0     		beq	.L23
 123              		.loc 1 298 0
 124 0074 294B     		ldr	r3, .L28+60
 125 0076 9842     		cmp	r0, r3
 126 0078 06D0     		beq	.L24
 127              	.L1:
 128              		.loc 1 304 0
 129 007a 5DF8044B 		ldr	r4, [sp], #4
 130 007e 7047     		bx	lr
 131              	.L23:
 132              		.loc 1 294 0
 133 0080 274A     		ldr	r2, .L28+64
 134 0082 43F8942C 		str	r2, [r3, #-148]
 135 0086 F8E7     		b	.L1
 136              	.L24:
 137              		.loc 1 301 0
 138 0088 4FF03D52 		mov	r2, #792723456
 139 008c 43F8AC2C 		str	r2, [r3, #-172]
 140 0090 F3E7     		b	.L1
 141              	.L18:
 142              		.loc 1 269 0
 143 0092 4FF47462 		mov	r2, #3904
 144 0096 43F8202C 		str	r2, [r3, #-32]
 145              		.loc 1 304 0
 146 009a 5DF8044B 		ldr	r4, [sp], #4
 147 009e 7047     		bx	lr
 148              	.L19:
 149              		.loc 1 274 0
 150 00a0 4FF47412 		mov	r2, #3997696
 151 00a4 43F8382C 		str	r2, [r3, #-56]
 152              		.loc 1 304 0
 153 00a8 5DF8044B 		ldr	r4, [sp], #4
 154 00ac 7047     		bx	lr
 155              	.L20:
 156              		.loc 1 279 0
 157 00ae 4FF07462 		mov	r2, #255852544
 158 00b2 43F8502C 		str	r2, [r3, #-80]
 159              		.loc 1 304 0
 160 00b6 5DF8044B 		ldr	r4, [sp], #4
 161 00ba 7047     		bx	lr
 162              	.L26:
 163              		.loc 1 224 0
 164 00bc 194B     		ldr	r3, .L28+68
 165              		.loc 1 304 0
 166 00be 5DF8044B 		ldr	r4, [sp], #4
 167              		.loc 1 224 0
 168 00c2 3D22     		movs	r2, #61
 169 00c4 9A60     		str	r2, [r3, #8]
 170              		.loc 1 304 0
 171 00c6 7047     		bx	lr
ARM GAS  C:\Users\jsyoon\AppData\Local\Temp\ccRKgIox.s 			page 4


 172              	.L21:
 173              		.loc 1 284 0
 174 00c8 174A     		ldr	r2, .L28+72
 175 00ca 43F8642C 		str	r2, [r3, #-100]
 176 00ce D4E7     		b	.L1
 177              	.L22:
 178              		.loc 1 289 0
 179 00d0 164A     		ldr	r2, .L28+76
 180 00d2 43F87C2C 		str	r2, [r3, #-124]
 181 00d6 D0E7     		b	.L1
 182              	.L27:
 183              		.loc 1 264 0
 184 00d8 3D22     		movs	r2, #61
 185 00da 43F8082C 		str	r2, [r3, #-8]
 186 00de CCE7     		b	.L1
 187              	.L29:
 188              		.align	2
 189              	.L28:
 190 00e0 10600240 		.word	1073897488
 191 00e4 28600240 		.word	1073897512
 192 00e8 40600240 		.word	1073897536
 193 00ec 58600240 		.word	1073897560
 194 00f0 70600240 		.word	1073897584
 195 00f4 88600240 		.word	1073897608
 196 00f8 A0600240 		.word	1073897632
 197 00fc B8600240 		.word	1073897656
 198 0100 10640240 		.word	1073898512
 199 0104 28640240 		.word	1073898536
 200 0108 40640240 		.word	1073898560
 201 010c 58640240 		.word	1073898584
 202 0110 70640240 		.word	1073898608
 203 0114 88640240 		.word	1073898632
 204 0118 A0640240 		.word	1073898656
 205 011c B8640240 		.word	1073898680
 206 0120 00003D20 		.word	540868608
 207 0124 00600240 		.word	1073897472
 208 0128 3D000020 		.word	536870973
 209 012c 400F0020 		.word	536874816
 210              		.cfi_endproc
 211              	.LFE111:
 212              		.size	DMA_DeInit, .-DMA_DeInit
 213              		.section	.text.DMA_Init,"ax",%progbits
 214              		.align	2
 215              		.p2align 4,,15
 216              		.global	DMA_Init
 217              		.thumb
 218              		.thumb_func
 219              		.type	DMA_Init, %function
 220              	DMA_Init:
 221              	.LFB112:
 222              		.loc 1 318 0
 223              		.cfi_startproc
 224              		@ args = 0, pretend = 0, frame = 0
 225              		@ frame_needed = 0, uses_anonymous_args = 0
 226              		@ link register save eliminated.
 227              	.LVL1:
 228              		.loc 1 358 0
ARM GAS  C:\Users\jsyoon\AppData\Local\Temp\ccRKgIox.s 			page 5


 229 0000 CA68     		ldr	r2, [r1, #12]
 230 0002 0B68     		ldr	r3, [r1]
 231              		.loc 1 339 0
 232 0004 D0F800C0 		ldr	ip, [r0]
 233              	.LVL2:
 234              		.loc 1 318 0
 235 0008 2DE9F007 		push	{r4, r5, r6, r7, r8, r9, r10}
 236              		.cfi_def_cfa_offset 28
 237              		.cfi_offset 4, -28
 238              		.cfi_offset 5, -24
 239              		.cfi_offset 6, -20
 240              		.cfi_offset 7, -16
 241              		.cfi_offset 8, -12
 242              		.cfi_offset 9, -8
 243              		.cfi_offset 10, -4
 244              		.loc 1 358 0
 245 000c 4F69     		ldr	r7, [r1, #20]
 246              		.loc 1 359 0
 247 000e 8E69     		ldr	r6, [r1, #24]
 248 0010 CD69     		ldr	r5, [r1, #28]
 249              		.loc 1 360 0
 250 0012 0C6A     		ldr	r4, [r1, #32]
 251              		.loc 1 361 0
 252 0014 D1F83490 		ldr	r9, [r1, #52]
 253              		.loc 1 362 0
 254 0018 D1F83880 		ldr	r8, [r1, #56]
 255              		.loc 1 358 0
 256 001c 42EA030A 		orr	r10, r2, r3
 257 0020 4AEA0707 		orr	r7, r10, r7
 258              		.loc 1 359 0
 259 0024 3E43     		orrs	r6, r6, r7
 260              		.loc 1 360 0
 261 0026 4B6A     		ldr	r3, [r1, #36]
 262              		.loc 1 388 0
 263 0028 4F68     		ldr	r7, [r1, #4]
 264              		.loc 1 359 0
 265 002a 3543     		orrs	r5, r5, r6
 266              		.loc 1 360 0
 267 002c 2C43     		orrs	r4, r4, r5
 268 002e 44EA0302 		orr	r2, r4, r3
 269              		.loc 1 361 0
 270 0032 8B6A     		ldr	r3, [r1, #40]
 271              		.loc 1 342 0
 272 0034 0D4E     		ldr	r6, .L31
 273              		.loc 1 377 0
 274 0036 CC6A     		ldr	r4, [r1, #44]
 275              		.loc 1 384 0
 276 0038 0D69     		ldr	r5, [r1, #16]
 277              		.loc 1 361 0
 278 003a 1A43     		orrs	r2, r2, r3
 279 003c 42EA0909 		orr	r9, r2, r9
 280              		.loc 1 362 0
 281 0040 49EA0808 		orr	r8, r9, r8
 282              		.loc 1 342 0
 283 0044 0CEA0606 		and	r6, ip, r6
 284              	.LVL3:
 285              		.loc 1 358 0
ARM GAS  C:\Users\jsyoon\AppData\Local\Temp\ccRKgIox.s 			page 6


 286 0048 48EA0606 		orr	r6, r8, r6
 287              	.LVL4:
 288              		.loc 1 377 0
 289 004c 0B6B     		ldr	r3, [r1, #48]
 290              		.loc 1 392 0
 291 004e 8968     		ldr	r1, [r1, #8]
 292              	.LVL5:
 293              		.loc 1 365 0
 294 0050 0660     		str	r6, [r0]
 295              		.loc 1 369 0
 296 0052 4269     		ldr	r2, [r0, #20]
 297              	.LVL6:
 298              		.loc 1 377 0
 299 0054 2343     		orrs	r3, r3, r4
 300              		.loc 1 372 0
 301 0056 22F00702 		bic	r2, r2, #7
 302              	.LVL7:
 303              		.loc 1 377 0
 304 005a 1343     		orrs	r3, r3, r2
 305              	.LVL8:
 306              		.loc 1 380 0
 307 005c 4361     		str	r3, [r0, #20]
 308              		.loc 1 384 0
 309 005e 4560     		str	r5, [r0, #4]
 310              		.loc 1 388 0
 311 0060 8760     		str	r7, [r0, #8]
 312              		.loc 1 392 0
 313 0062 C160     		str	r1, [r0, #12]
 314              		.loc 1 393 0
 315 0064 BDE8F007 		pop	{r4, r5, r6, r7, r8, r9, r10}
 316 0068 7047     		bx	lr
 317              	.L32:
 318 006a 00BF     		.align	2
 319              	.L31:
 320 006c 3F801CF0 		.word	-266567617
 321              		.cfi_endproc
 322              	.LFE112:
 323              		.size	DMA_Init, .-DMA_Init
 324              		.section	.text.DMA_StructInit,"ax",%progbits
 325              		.align	2
 326              		.p2align 4,,15
 327              		.global	DMA_StructInit
 328              		.thumb
 329              		.thumb_func
 330              		.type	DMA_StructInit, %function
 331              	DMA_StructInit:
 332              	.LFB113:
 333              		.loc 1 402 0
 334              		.cfi_startproc
 335              		@ args = 0, pretend = 0, frame = 0
 336              		@ frame_needed = 0, uses_anonymous_args = 0
 337              		@ link register save eliminated.
 338              	.LVL9:
 339              		.loc 1 405 0
 340 0000 0023     		movs	r3, #0
 341 0002 0360     		str	r3, [r0]
 342              		.loc 1 408 0
ARM GAS  C:\Users\jsyoon\AppData\Local\Temp\ccRKgIox.s 			page 7


 343 0004 4360     		str	r3, [r0, #4]
 344              		.loc 1 411 0
 345 0006 8360     		str	r3, [r0, #8]
 346              		.loc 1 414 0
 347 0008 C360     		str	r3, [r0, #12]
 348              		.loc 1 417 0
 349 000a 0361     		str	r3, [r0, #16]
 350              		.loc 1 420 0
 351 000c 4361     		str	r3, [r0, #20]
 352              		.loc 1 423 0
 353 000e 8361     		str	r3, [r0, #24]
 354              		.loc 1 426 0
 355 0010 C361     		str	r3, [r0, #28]
 356              		.loc 1 429 0
 357 0012 0362     		str	r3, [r0, #32]
 358              		.loc 1 432 0
 359 0014 4362     		str	r3, [r0, #36]
 360              		.loc 1 435 0
 361 0016 8362     		str	r3, [r0, #40]
 362              		.loc 1 438 0
 363 0018 C362     		str	r3, [r0, #44]
 364              		.loc 1 441 0
 365 001a 0363     		str	r3, [r0, #48]
 366              		.loc 1 444 0
 367 001c 4363     		str	r3, [r0, #52]
 368              		.loc 1 447 0
 369 001e 8363     		str	r3, [r0, #56]
 370 0020 7047     		bx	lr
 371              		.cfi_endproc
 372              	.LFE113:
 373              		.size	DMA_StructInit, .-DMA_StructInit
 374 0022 00BFAFF3 		.section	.text.DMA_Cmd,"ax",%progbits
 374      0080AFF3 
 374      0080AFF3 
 374      0080
 375              		.align	2
 376              		.p2align 4,,15
 377              		.global	DMA_Cmd
 378              		.thumb
 379              		.thumb_func
 380              		.type	DMA_Cmd, %function
 381              	DMA_Cmd:
 382              	.LFB114:
 383              		.loc 1 477 0
 384              		.cfi_startproc
 385              		@ args = 0, pretend = 0, frame = 0
 386              		@ frame_needed = 0, uses_anonymous_args = 0
 387              		@ link register save eliminated.
 388              	.LVL10:
 389              		.loc 1 485 0
 390 0000 0368     		ldr	r3, [r0]
 391              		.loc 1 482 0
 392 0002 19B9     		cbnz	r1, .L37
 393              		.loc 1 490 0
 394 0004 23F00103 		bic	r3, r3, #1
 395 0008 0360     		str	r3, [r0]
 396 000a 7047     		bx	lr
ARM GAS  C:\Users\jsyoon\AppData\Local\Temp\ccRKgIox.s 			page 8


 397              	.L37:
 398              		.loc 1 485 0
 399 000c 43F00103 		orr	r3, r3, #1
 400 0010 0360     		str	r3, [r0]
 401 0012 7047     		bx	lr
 402              		.cfi_endproc
 403              	.LFE114:
 404              		.size	DMA_Cmd, .-DMA_Cmd
 405 0014 AFF30080 		.section	.text.DMA_PeriphIncOffsetSizeConfig,"ax",%progbits
 405      AFF30080 
 405      AFF30080 
 406              		.align	2
 407              		.p2align 4,,15
 408              		.global	DMA_PeriphIncOffsetSizeConfig
 409              		.thumb
 410              		.thumb_func
 411              		.type	DMA_PeriphIncOffsetSizeConfig, %function
 412              	DMA_PeriphIncOffsetSizeConfig:
 413              	.LFB115:
 414              		.loc 1 513 0
 415              		.cfi_startproc
 416              		@ args = 0, pretend = 0, frame = 0
 417              		@ frame_needed = 0, uses_anonymous_args = 0
 418              		@ link register save eliminated.
 419              	.LVL11:
 420              		.loc 1 522 0
 421 0000 0368     		ldr	r3, [r0]
 422              		.loc 1 519 0
 423 0002 19B9     		cbnz	r1, .L41
 424              		.loc 1 527 0
 425 0004 23F40043 		bic	r3, r3, #32768
 426 0008 0360     		str	r3, [r0]
 427 000a 7047     		bx	lr
 428              	.L41:
 429              		.loc 1 522 0
 430 000c 43F40043 		orr	r3, r3, #32768
 431 0010 0360     		str	r3, [r0]
 432 0012 7047     		bx	lr
 433              		.cfi_endproc
 434              	.LFE115:
 435              		.size	DMA_PeriphIncOffsetSizeConfig, .-DMA_PeriphIncOffsetSizeConfig
 436 0014 AFF30080 		.section	.text.DMA_FlowControllerConfig,"ax",%progbits
 436      AFF30080 
 436      AFF30080 
 437              		.align	2
 438              		.p2align 4,,15
 439              		.global	DMA_FlowControllerConfig
 440              		.thumb
 441              		.thumb_func
 442              		.type	DMA_FlowControllerConfig, %function
 443              	DMA_FlowControllerConfig:
 444              	.LFB116:
 445              		.loc 1 549 0
 446              		.cfi_startproc
 447              		@ args = 0, pretend = 0, frame = 0
 448              		@ frame_needed = 0, uses_anonymous_args = 0
 449              		@ link register save eliminated.
ARM GAS  C:\Users\jsyoon\AppData\Local\Temp\ccRKgIox.s 			page 9


 450              	.LVL12:
 451              		.loc 1 558 0
 452 0000 0368     		ldr	r3, [r0]
 453              		.loc 1 555 0
 454 0002 19B9     		cbnz	r1, .L45
 455              		.loc 1 563 0
 456 0004 23F02003 		bic	r3, r3, #32
 457 0008 0360     		str	r3, [r0]
 458 000a 7047     		bx	lr
 459              	.L45:
 460              		.loc 1 558 0
 461 000c 43F02003 		orr	r3, r3, #32
 462 0010 0360     		str	r3, [r0]
 463 0012 7047     		bx	lr
 464              		.cfi_endproc
 465              	.LFE116:
 466              		.size	DMA_FlowControllerConfig, .-DMA_FlowControllerConfig
 467 0014 AFF30080 		.section	.text.DMA_SetCurrDataCounter,"ax",%progbits
 467      AFF30080 
 467      AFF30080 
 468              		.align	2
 469              		.p2align 4,,15
 470              		.global	DMA_SetCurrDataCounter
 471              		.thumb
 472              		.thumb_func
 473              		.type	DMA_SetCurrDataCounter, %function
 474              	DMA_SetCurrDataCounter:
 475              	.LFB117:
 476              		.loc 1 633 0
 477              		.cfi_startproc
 478              		@ args = 0, pretend = 0, frame = 0
 479              		@ frame_needed = 0, uses_anonymous_args = 0
 480              		@ link register save eliminated.
 481              	.LVL13:
 482              		.loc 1 638 0
 483 0000 4160     		str	r1, [r0, #4]
 484 0002 7047     		bx	lr
 485              		.cfi_endproc
 486              	.LFE117:
 487              		.size	DMA_SetCurrDataCounter, .-DMA_SetCurrDataCounter
 488 0004 AFF30080 		.section	.text.DMA_GetCurrDataCounter,"ax",%progbits
 488      AFF30080 
 488      AFF30080 
 489              		.align	2
 490              		.p2align 4,,15
 491              		.global	DMA_GetCurrDataCounter
 492              		.thumb
 493              		.thumb_func
 494              		.type	DMA_GetCurrDataCounter, %function
 495              	DMA_GetCurrDataCounter:
 496              	.LFB118:
 497              		.loc 1 648 0
 498              		.cfi_startproc
 499              		@ args = 0, pretend = 0, frame = 0
 500              		@ frame_needed = 0, uses_anonymous_args = 0
 501              		@ link register save eliminated.
 502              	.LVL14:
ARM GAS  C:\Users\jsyoon\AppData\Local\Temp\ccRKgIox.s 			page 10


 503              		.loc 1 653 0
 504 0000 4068     		ldr	r0, [r0, #4]
 505              	.LVL15:
 506              		.loc 1 654 0
 507 0002 80B2     		uxth	r0, r0
 508 0004 7047     		bx	lr
 509              		.cfi_endproc
 510              	.LFE118:
 511              		.size	DMA_GetCurrDataCounter, .-DMA_GetCurrDataCounter
 512 0006 00BFAFF3 		.section	.text.DMA_DoubleBufferModeConfig,"ax",%progbits
 512      0080AFF3 
 512      0080
 513              		.align	2
 514              		.p2align 4,,15
 515              		.global	DMA_DoubleBufferModeConfig
 516              		.thumb
 517              		.thumb_func
 518              		.type	DMA_DoubleBufferModeConfig, %function
 519              	DMA_DoubleBufferModeConfig:
 520              	.LFB119:
 521              		.loc 1 726 0
 522              		.cfi_startproc
 523              		@ args = 0, pretend = 0, frame = 0
 524              		@ frame_needed = 0, uses_anonymous_args = 0
 525              		@ link register save eliminated.
 526              	.LVL16:
 527              		.loc 1 734 0
 528 0000 0368     		ldr	r3, [r0]
 529              		.loc 1 731 0
 530 0002 22B9     		cbnz	r2, .L51
 531              		.loc 1 739 0
 532 0004 23F40023 		bic	r3, r3, #524288
 533 0008 0360     		str	r3, [r0]
 534              		.loc 1 743 0
 535 000a 0161     		str	r1, [r0, #16]
 536 000c 7047     		bx	lr
 537              	.L51:
 538              		.loc 1 734 0
 539 000e 43F40023 		orr	r3, r3, #524288
 540 0012 0360     		str	r3, [r0]
 541              		.loc 1 743 0
 542 0014 0161     		str	r1, [r0, #16]
 543 0016 7047     		bx	lr
 544              		.cfi_endproc
 545              	.LFE119:
 546              		.size	DMA_DoubleBufferModeConfig, .-DMA_DoubleBufferModeConfig
 547 0018 AFF30080 		.section	.text.DMA_DoubleBufferModeCmd,"ax",%progbits
 547      AFF30080 
 548              		.align	2
 549              		.p2align 4,,15
 550              		.global	DMA_DoubleBufferModeCmd
 551              		.thumb
 552              		.thumb_func
 553              		.type	DMA_DoubleBufferModeCmd, %function
 554              	DMA_DoubleBufferModeCmd:
 555              	.LFB120:
 556              		.loc 1 756 0
ARM GAS  C:\Users\jsyoon\AppData\Local\Temp\ccRKgIox.s 			page 11


 557              		.cfi_startproc
 558              		@ args = 0, pretend = 0, frame = 0
 559              		@ frame_needed = 0, uses_anonymous_args = 0
 560              		@ link register save eliminated.
 561              	.LVL17:
 562              		.loc 1 765 0
 563 0000 0368     		ldr	r3, [r0]
 564              		.loc 1 762 0
 565 0002 19B9     		cbnz	r1, .L55
 566              		.loc 1 770 0
 567 0004 23F48023 		bic	r3, r3, #262144
 568 0008 0360     		str	r3, [r0]
 569 000a 7047     		bx	lr
 570              	.L55:
 571              		.loc 1 765 0
 572 000c 43F48023 		orr	r3, r3, #262144
 573 0010 0360     		str	r3, [r0]
 574 0012 7047     		bx	lr
 575              		.cfi_endproc
 576              	.LFE120:
 577              		.size	DMA_DoubleBufferModeCmd, .-DMA_DoubleBufferModeCmd
 578 0014 AFF30080 		.section	.text.DMA_MemoryTargetConfig,"ax",%progbits
 578      AFF30080 
 578      AFF30080 
 579              		.align	2
 580              		.p2align 4,,15
 581              		.global	DMA_MemoryTargetConfig
 582              		.thumb
 583              		.thumb_func
 584              		.type	DMA_MemoryTargetConfig, %function
 585              	DMA_MemoryTargetConfig:
 586              	.LFB121:
 587              		.loc 1 798 0
 588              		.cfi_startproc
 589              		@ args = 0, pretend = 0, frame = 0
 590              		@ frame_needed = 0, uses_anonymous_args = 0
 591              		@ link register save eliminated.
 592              	.LVL18:
 593              		.loc 1 804 0
 594 0000 0AB9     		cbnz	r2, .L59
 595              		.loc 1 812 0
 596 0002 C160     		str	r1, [r0, #12]
 597 0004 7047     		bx	lr
 598              	.L59:
 599              		.loc 1 807 0
 600 0006 0161     		str	r1, [r0, #16]
 601 0008 7047     		bx	lr
 602              		.cfi_endproc
 603              	.LFE121:
 604              		.size	DMA_MemoryTargetConfig, .-DMA_MemoryTargetConfig
 605 000a 00BFAFF3 		.section	.text.DMA_GetCurrentMemoryTarget,"ax",%progbits
 605      0080
 606              		.align	2
 607              		.p2align 4,,15
 608              		.global	DMA_GetCurrentMemoryTarget
 609              		.thumb
 610              		.thumb_func
ARM GAS  C:\Users\jsyoon\AppData\Local\Temp\ccRKgIox.s 			page 12


 611              		.type	DMA_GetCurrentMemoryTarget, %function
 612              	DMA_GetCurrentMemoryTarget:
 613              	.LFB122:
 614              		.loc 1 823 0
 615              		.cfi_startproc
 616              		@ args = 0, pretend = 0, frame = 0
 617              		@ frame_needed = 0, uses_anonymous_args = 0
 618              		@ link register save eliminated.
 619              	.LVL19:
 620              		.loc 1 830 0
 621 0000 0068     		ldr	r0, [r0]
 622              	.LVL20:
 623              		.loc 1 841 0
 624 0002 C0F3C040 		ubfx	r0, r0, #19, #1
 625              	.LVL21:
 626 0006 7047     		bx	lr
 627              		.cfi_endproc
 628              	.LFE122:
 629              		.size	DMA_GetCurrentMemoryTarget, .-DMA_GetCurrentMemoryTarget
 630 0008 AFF30080 		.section	.text.DMA_GetCmdStatus,"ax",%progbits
 630      AFF30080 
 631              		.align	2
 632              		.p2align 4,,15
 633              		.global	DMA_GetCmdStatus
 634              		.thumb
 635              		.thumb_func
 636              		.type	DMA_GetCmdStatus, %function
 637              	DMA_GetCmdStatus:
 638              	.LFB123:
 639              		.loc 1 932 0
 640              		.cfi_startproc
 641              		@ args = 0, pretend = 0, frame = 0
 642              		@ frame_needed = 0, uses_anonymous_args = 0
 643              		@ link register save eliminated.
 644              	.LVL22:
 645              		.loc 1 938 0
 646 0000 0068     		ldr	r0, [r0]
 647              	.LVL23:
 648              		.loc 1 950 0
 649 0002 00F00100 		and	r0, r0, #1
 650              	.LVL24:
 651 0006 7047     		bx	lr
 652              		.cfi_endproc
 653              	.LFE123:
 654              		.size	DMA_GetCmdStatus, .-DMA_GetCmdStatus
 655 0008 AFF30080 		.section	.text.DMA_GetFIFOStatus,"ax",%progbits
 655      AFF30080 
 656              		.align	2
 657              		.p2align 4,,15
 658              		.global	DMA_GetFIFOStatus
 659              		.thumb
 660              		.thumb_func
 661              		.type	DMA_GetFIFOStatus, %function
 662              	DMA_GetFIFOStatus:
 663              	.LFB124:
 664              		.loc 1 966 0
 665              		.cfi_startproc
ARM GAS  C:\Users\jsyoon\AppData\Local\Temp\ccRKgIox.s 			page 13


 666              		@ args = 0, pretend = 0, frame = 0
 667              		@ frame_needed = 0, uses_anonymous_args = 0
 668              		@ link register save eliminated.
 669              	.LVL25:
 670              		.loc 1 973 0
 671 0000 4069     		ldr	r0, [r0, #20]
 672              	.LVL26:
 673              		.loc 1 976 0
 674 0002 00F03800 		and	r0, r0, #56
 675              	.LVL27:
 676 0006 7047     		bx	lr
 677              		.cfi_endproc
 678              	.LFE124:
 679              		.size	DMA_GetFIFOStatus, .-DMA_GetFIFOStatus
 680 0008 AFF30080 		.section	.text.DMA_GetFlagStatus,"ax",%progbits
 680      AFF30080 
 681              		.align	2
 682              		.p2align 4,,15
 683              		.global	DMA_GetFlagStatus
 684              		.thumb
 685              		.thumb_func
 686              		.type	DMA_GetFlagStatus, %function
 687              	DMA_GetFlagStatus:
 688              	.LFB125:
 689              		.loc 1 993 0
 690              		.cfi_startproc
 691              		@ args = 0, pretend = 0, frame = 0
 692              		@ frame_needed = 0, uses_anonymous_args = 0
 693              		@ link register save eliminated.
 694              	.LVL28:
 695              		.loc 1 1006 0
 696 0000 0B4B     		ldr	r3, .L68
 697 0002 0C4A     		ldr	r2, .L68+4
 698              		.loc 1 993 0
 699 0004 10B4     		push	{r4}
 700              		.cfi_def_cfa_offset 4
 701              		.cfi_offset 4, -4
 702              		.loc 1 1003 0
 703 0006 0C4C     		ldr	r4, .L68+8
 704              		.loc 1 1006 0
 705 0008 A042     		cmp	r0, r4
 706 000a 8CBF     		ite	hi
 707 000c 1046     		movhi	r0, r2
 708 000e 1846     		movls	r0, r3
 709              	.LVL29:
 710              		.loc 1 1015 0
 711 0010 8B00     		lsls	r3, r1, #2
 712              		.loc 1 1018 0
 713 0012 4CBF     		ite	mi
 714 0014 4368     		ldrmi	r3, [r0, #4]
 715              	.LVL30:
 716              		.loc 1 1023 0
 717 0016 0368     		ldrpl	r3, [r0]
 718              	.LVL31:
 719              		.loc 1 1043 0
 720 0018 5DF8044B 		ldr	r4, [sp], #4
 721              		.loc 1 1027 0
ARM GAS  C:\Users\jsyoon\AppData\Local\Temp\ccRKgIox.s 			page 14


 722 001c 21F0F021 		bic	r1, r1, #-268374016
 723              	.LVL32:
 724 0020 21F08211 		bic	r1, r1, #8519810
 725              		.loc 1 1030 0
 726 0024 1942     		tst	r1, r3
 727              		.loc 1 1043 0
 728 0026 0CBF     		ite	eq
 729 0028 0020     		moveq	r0, #0
 730 002a 0120     		movne	r0, #1
 731              	.LVL33:
 732 002c 7047     		bx	lr
 733              	.L69:
 734 002e 00BF     		.align	2
 735              	.L68:
 736 0030 00600240 		.word	1073897472
 737 0034 00640240 		.word	1073898496
 738 0038 0F640240 		.word	1073898511
 739              		.cfi_endproc
 740              	.LFE125:
 741              		.size	DMA_GetFlagStatus, .-DMA_GetFlagStatus
 742 003c AFF30080 		.section	.text.DMA_ClearFlag,"ax",%progbits
 743              		.align	2
 744              		.p2align 4,,15
 745              		.global	DMA_ClearFlag
 746              		.thumb
 747              		.thumb_func
 748              		.type	DMA_ClearFlag, %function
 749              	DMA_ClearFlag:
 750              	.LFB126:
 751              		.loc 1 1060 0
 752              		.cfi_startproc
 753              		@ args = 0, pretend = 0, frame = 0
 754              		@ frame_needed = 0, uses_anonymous_args = 0
 755              		@ link register save eliminated.
 756              	.LVL34:
 757 0000 10B4     		push	{r4}
 758              		.cfi_def_cfa_offset 4
 759              		.cfi_offset 4, -4
 760              		.loc 1 1071 0
 761 0002 094A     		ldr	r2, .L75
 762              		.loc 1 1068 0
 763 0004 094C     		ldr	r4, .L75+4
 764              		.loc 1 1071 0
 765 0006 0A4B     		ldr	r3, .L75+8
 766 0008 A042     		cmp	r0, r4
 767 000a 8CBF     		ite	hi
 768 000c 1046     		movhi	r0, r2
 769 000e 1846     		movls	r0, r3
 770              	.LVL35:
 771              		.loc 1 1080 0
 772 0010 11F0005F 		tst	r1, #536870912
 773              		.loc 1 1083 0
 774 0014 21F0F021 		bic	r1, r1, #-268374016
 775              	.LVL36:
 776 0018 21F08211 		bic	r1, r1, #8519810
 777 001c 14BF     		ite	ne
 778 001e C160     		strne	r1, [r0, #12]
ARM GAS  C:\Users\jsyoon\AppData\Local\Temp\ccRKgIox.s 			page 15


 779              		.loc 1 1088 0
 780 0020 8160     		streq	r1, [r0, #8]
 781              		.loc 1 1090 0
 782 0022 5DF8044B 		ldr	r4, [sp], #4
 783 0026 7047     		bx	lr
 784              	.L76:
 785              		.align	2
 786              	.L75:
 787 0028 00640240 		.word	1073898496
 788 002c 0F640240 		.word	1073898511
 789 0030 00600240 		.word	1073897472
 790              		.cfi_endproc
 791              	.LFE126:
 792              		.size	DMA_ClearFlag, .-DMA_ClearFlag
 793 0034 AFF30080 		.section	.text.DMA_ITConfig,"ax",%progbits
 793      AFF30080 
 793      AFF30080 
 794              		.align	2
 795              		.p2align 4,,15
 796              		.global	DMA_ITConfig
 797              		.thumb
 798              		.thumb_func
 799              		.type	DMA_ITConfig, %function
 800              	DMA_ITConfig:
 801              	.LFB127:
 802              		.loc 1 1107 0
 803              		.cfi_startproc
 804              		@ args = 0, pretend = 0, frame = 0
 805              		@ frame_needed = 0, uses_anonymous_args = 0
 806              		@ link register save eliminated.
 807              	.LVL37:
 808              		.loc 1 1114 0
 809 0000 0B06     		lsls	r3, r1, #24
 810 0002 0CD5     		bpl	.L78
 811              		.loc 1 1119 0
 812 0004 4369     		ldr	r3, [r0, #20]
 813              		.loc 1 1116 0
 814 0006 AAB1     		cbz	r2, .L79
 815              		.loc 1 1119 0
 816 0008 43F08003 		orr	r3, r3, #128
 817              		.loc 1 1129 0
 818 000c 8029     		cmp	r1, #128
 819              		.loc 1 1119 0
 820 000e 4361     		str	r3, [r0, #20]
 821              		.loc 1 1129 0
 822 0010 0FD0     		beq	.L77
 823              	.L80:
 824              		.loc 1 1134 0
 825 0012 0368     		ldr	r3, [r0]
 826 0014 01F01E01 		and	r1, r1, #30
 827              	.LVL38:
 828 0018 1943     		orrs	r1, r1, r3
 829 001a 0160     		str	r1, [r0]
 830 001c 7047     		bx	lr
 831              	.LVL39:
 832              	.L78:
 833              		.loc 1 1129 0
ARM GAS  C:\Users\jsyoon\AppData\Local\Temp\ccRKgIox.s 			page 16


 834 001e 8029     		cmp	r1, #128
 835 0020 07D0     		beq	.L77
 836              		.loc 1 1131 0
 837 0022 002A     		cmp	r2, #0
 838 0024 F5D1     		bne	.L80
 839              	.L82:
 840              		.loc 1 1139 0
 841 0026 0368     		ldr	r3, [r0]
 842 0028 01F01E01 		and	r1, r1, #30
 843              	.LVL40:
 844 002c 23EA0101 		bic	r1, r3, r1
 845 0030 0160     		str	r1, [r0]
 846              	.L77:
 847 0032 7047     		bx	lr
 848              	.LVL41:
 849              	.L79:
 850              		.loc 1 1124 0
 851 0034 23F08003 		bic	r3, r3, #128
 852              		.loc 1 1129 0
 853 0038 8029     		cmp	r1, #128
 854              		.loc 1 1124 0
 855 003a 4361     		str	r3, [r0, #20]
 856              		.loc 1 1129 0
 857 003c F3D1     		bne	.L82
 858 003e 7047     		bx	lr
 859              		.cfi_endproc
 860              	.LFE127:
 861              		.size	DMA_ITConfig, .-DMA_ITConfig
 862              		.section	.text.DMA_GetITStatus,"ax",%progbits
 863              		.align	2
 864              		.p2align 4,,15
 865              		.global	DMA_GetITStatus
 866              		.thumb
 867              		.thumb_func
 868              		.type	DMA_GetITStatus, %function
 869              	DMA_GetITStatus:
 870              	.LFB128:
 871              		.loc 1 1159 0
 872              		.cfi_startproc
 873              		@ args = 0, pretend = 0, frame = 0
 874              		@ frame_needed = 0, uses_anonymous_args = 0
 875              		@ link register save eliminated.
 876              	.LVL42:
 877 0000 70B4     		push	{r4, r5, r6}
 878              		.cfi_def_cfa_offset 12
 879              		.cfi_offset 4, -12
 880              		.cfi_offset 5, -8
 881              		.cfi_offset 6, -4
 882              		.loc 1 1172 0
 883 0002 114A     		ldr	r2, .L96
 884              		.loc 1 1169 0
 885 0004 114D     		ldr	r5, .L96+4
 886              		.loc 1 1172 0
 887 0006 124C     		ldr	r4, .L96+8
 888              		.loc 1 1181 0
 889 0008 21F0F023 		bic	r3, r1, #-268374016
 890 000c 23F0C316 		bic	r6, r3, #12779715
ARM GAS  C:\Users\jsyoon\AppData\Local\Temp\ccRKgIox.s 			page 17


 891              		.loc 1 1172 0
 892 0010 A842     		cmp	r0, r5
 893 0012 88BF     		it	hi
 894 0014 2246     		movhi	r2, r4
 895              	.LVL43:
 896              		.loc 1 1181 0
 897 0016 96B1     		cbz	r6, .L89
 898              	.LVL44:
 899              		.loc 1 1187 0
 900 0018 0468     		ldr	r4, [r0]
 901              		.loc 1 1184 0
 902 001a 04F01E04 		and	r4, r4, #30
 903              		.loc 1 1187 0
 904 001e 04EAD124 		and	r4, r4, r1, lsr #11
 905              	.LVL45:
 906              	.L90:
 907              		.loc 1 1196 0
 908 0022 8900     		lsls	r1, r1, #2
 909              	.LVL46:
 910              		.loc 1 1199 0
 911 0024 4CBF     		ite	mi
 912 0026 5268     		ldrmi	r2, [r2, #4]
 913              	.LVL47:
 914              		.loc 1 1204 0
 915 0028 1268     		ldrpl	r2, [r2]
 916              	.LVL48:
 917              		.loc 1 1208 0
 918 002a 23F08213 		bic	r3, r3, #8519810
 919              		.loc 1 1211 0
 920 002e 13EA0200 		ands	r0, r3, r2
 921              	.LVL49:
 922 0032 02D0     		beq	.L93
 923              		.loc 1 1214 0 discriminator 1
 924 0034 201C     		adds	r0, r4, #0
 925 0036 18BF     		it	ne
 926 0038 0120     		movne	r0, #1
 927              	.L93:
 928              	.LVL50:
 929              		.loc 1 1224 0
 930 003a 70BC     		pop	{r4, r5, r6}
 931              	.LVL51:
 932 003c 7047     		bx	lr
 933              	.LVL52:
 934              	.L89:
 935              		.loc 1 1192 0
 936 003e 4469     		ldr	r4, [r0, #20]
 937 0040 04F08004 		and	r4, r4, #128
 938              	.LVL53:
 939 0044 EDE7     		b	.L90
 940              	.L97:
 941 0046 00BF     		.align	2
 942              	.L96:
 943 0048 00600240 		.word	1073897472
 944 004c 0F640240 		.word	1073898511
 945 0050 00640240 		.word	1073898496
 946              		.cfi_endproc
 947              	.LFE128:
ARM GAS  C:\Users\jsyoon\AppData\Local\Temp\ccRKgIox.s 			page 18


 948              		.size	DMA_GetITStatus, .-DMA_GetITStatus
 949 0054 AFF30080 		.section	.text.DMA_ClearITPendingBit,"ax",%progbits
 949      AFF30080 
 949      AFF30080 
 950              		.align	2
 951              		.p2align 4,,15
 952              		.global	DMA_ClearITPendingBit
 953              		.thumb
 954              		.thumb_func
 955              		.type	DMA_ClearITPendingBit, %function
 956              	DMA_ClearITPendingBit:
 957              	.LFB129:
 958              		.loc 1 1241 0
 959              		.cfi_startproc
 960              		@ args = 0, pretend = 0, frame = 0
 961              		@ frame_needed = 0, uses_anonymous_args = 0
 962              		@ link register save eliminated.
 963              	.LVL54:
 964 0000 10B4     		push	{r4}
 965              		.cfi_def_cfa_offset 4
 966              		.cfi_offset 4, -4
 967              		.loc 1 1252 0
 968 0002 094A     		ldr	r2, .L103
 969              		.loc 1 1249 0
 970 0004 094C     		ldr	r4, .L103+4
 971              		.loc 1 1252 0
 972 0006 0A4B     		ldr	r3, .L103+8
 973 0008 A042     		cmp	r0, r4
 974 000a 8CBF     		ite	hi
 975 000c 1046     		movhi	r0, r2
 976 000e 1846     		movls	r0, r3
 977              	.LVL55:
 978              		.loc 1 1261 0
 979 0010 11F0005F 		tst	r1, #536870912
 980              		.loc 1 1264 0
 981 0014 21F0F021 		bic	r1, r1, #-268374016
 982              	.LVL56:
 983 0018 21F08211 		bic	r1, r1, #8519810
 984 001c 14BF     		ite	ne
 985 001e C160     		strne	r1, [r0, #12]
 986              		.loc 1 1269 0
 987 0020 8160     		streq	r1, [r0, #8]
 988              		.loc 1 1271 0
 989 0022 5DF8044B 		ldr	r4, [sp], #4
 990 0026 7047     		bx	lr
 991              	.L104:
 992              		.align	2
 993              	.L103:
 994 0028 00640240 		.word	1073898496
 995 002c 0F640240 		.word	1073898511
 996 0030 00600240 		.word	1073897472
 997              		.cfi_endproc
 998              	.LFE129:
 999              		.size	DMA_ClearITPendingBit, .-DMA_ClearITPendingBit
 1000 0034 AFF30080 		.text
 1000      AFF30080 
 1000      AFF30080 
ARM GAS  C:\Users\jsyoon\AppData\Local\Temp\ccRKgIox.s 			page 19


 1001              	.Letext0:
 1002              		.file 2 "c:\\crosstools\\gcc-arm-embedded\\4.8_2014q2\\arm-none-eabi\\include\\machine\\_default_t
 1003              		.file 3 "c:\\crosstools\\gcc-arm-embedded\\4.8_2014q2\\arm-none-eabi\\include\\stdint.h"
 1004              		.file 4 "ChibiOS_2.6.6/os/hal/platforms/STM32F4xx/stm32f4xx.h"
 1005              		.file 5 "ChibiOS_2.6.6/ext/stdperiph_stm32f4/inc/stm32f4xx_dma.h"
 1006              		.file 6 "ChibiOS_2.6.6/os/ports/common/ARMCMx/CMSIS/include/core_cm4.h"