ARM GAS  C:\Users\jsyoon\AppData\Local\Temp\ccHEUWmT.s 			page 1


   1              		.syntax unified
   2              		.cpu cortex-m4
   3              		.eabi_attribute 27, 3
   4              		.eabi_attribute 28, 1
   5              		.fpu fpv4-sp-d16
   6              		.eabi_attribute 20, 1
   7              		.eabi_attribute 21, 1
   8              		.eabi_attribute 23, 3
   9              		.eabi_attribute 24, 1
  10              		.eabi_attribute 25, 1
  11              		.eabi_attribute 26, 1
  12              		.eabi_attribute 30, 2
  13              		.eabi_attribute 34, 1
  14              		.eabi_attribute 18, 4
  15              		.thumb
  16              		.file	"stm32f4xx_rtc.c"
  17              		.text
  18              	.Ltext0:
  19              		.cfi_sections	.debug_frame
  20              		.section	.text.RTC_StructInit,"ax",%progbits
  21              		.align	2
  22              		.p2align 4,,15
  23              		.global	RTC_StructInit
  24              		.thumb
  25              		.thumb_func
  26              		.type	RTC_StructInit, %function
  27              	RTC_StructInit:
  28              	.LFB113:
  29              		.file 1 "ChibiOS_2.6.6/ext/stdperiph_stm32f4/src/stm32f4xx_rtc.c"
  30              		.loc 1 502 0
  31              		.cfi_startproc
  32              		@ args = 0, pretend = 0, frame = 0
  33              		@ frame_needed = 0, uses_anonymous_args = 0
  34              		@ link register save eliminated.
  35              	.LVL0:
  36              		.loc 1 510 0
  37 0000 0021     		movs	r1, #0
  38 0002 7F22     		movs	r2, #127
  39 0004 FF23     		movs	r3, #255
  40 0006 80E80E00 		stmia	r0, {r1, r2, r3}
  41 000a 7047     		bx	lr
  42              		.cfi_endproc
  43              	.LFE113:
  44              		.size	RTC_StructInit, .-RTC_StructInit
  45 000c AFF30080 		.section	.text.RTC_WriteProtectionCmd,"ax",%progbits
  46              		.align	2
  47              		.p2align 4,,15
  48              		.global	RTC_WriteProtectionCmd
  49              		.thumb
  50              		.thumb_func
  51              		.type	RTC_WriteProtectionCmd, %function
  52              	RTC_WriteProtectionCmd:
  53              	.LFB114:
  54              		.loc 1 524 0
  55              		.cfi_startproc
  56              		@ args = 0, pretend = 0, frame = 0
  57              		@ frame_needed = 0, uses_anonymous_args = 0
ARM GAS  C:\Users\jsyoon\AppData\Local\Temp\ccHEUWmT.s 			page 2


  58              		@ link register save eliminated.
  59              	.LVL1:
  60              		.loc 1 531 0
  61 0000 044B     		ldr	r3, .L7
  62              		.loc 1 528 0
  63 0002 20B9     		cbnz	r0, .L6
  64              		.loc 1 536 0
  65 0004 CA21     		movs	r1, #202
  66              		.loc 1 537 0
  67 0006 5322     		movs	r2, #83
  68              		.loc 1 536 0
  69 0008 5962     		str	r1, [r3, #36]
  70              		.loc 1 537 0
  71 000a 5A62     		str	r2, [r3, #36]
  72 000c 7047     		bx	lr
  73              	.L6:
  74              		.loc 1 531 0
  75 000e FF22     		movs	r2, #255
  76 0010 5A62     		str	r2, [r3, #36]
  77 0012 7047     		bx	lr
  78              	.L8:
  79              		.align	2
  80              	.L7:
  81 0014 00280040 		.word	1073752064
  82              		.cfi_endproc
  83              	.LFE114:
  84              		.size	RTC_WriteProtectionCmd, .-RTC_WriteProtectionCmd
  85 0018 AFF30080 		.section	.text.RTC_EnterInitMode,"ax",%progbits
  85      AFF30080 
  86              		.align	2
  87              		.p2align 4,,15
  88              		.global	RTC_EnterInitMode
  89              		.thumb
  90              		.thumb_func
  91              		.type	RTC_EnterInitMode, %function
  92              	RTC_EnterInitMode:
  93              	.LFB115:
  94              		.loc 1 551 0
  95              		.cfi_startproc
  96              		@ args = 0, pretend = 0, frame = 8
  97              		@ frame_needed = 0, uses_anonymous_args = 0
  98              		@ link register save eliminated.
  99 0000 82B0     		sub	sp, sp, #8
 100              		.cfi_def_cfa_offset 8
 101              		.loc 1 552 0
 102 0002 0023     		movs	r3, #0
 103              		.loc 1 557 0
 104 0004 0E49     		ldr	r1, .L18
 105              		.loc 1 552 0
 106 0006 0193     		str	r3, [sp, #4]
 107              	.LVL2:
 108              		.loc 1 557 0
 109 0008 CB68     		ldr	r3, [r1, #12]
 110 000a 5B06     		lsls	r3, r3, #25
 111 000c 14D4     		bmi	.L13
 112              		.loc 1 560 0
 113 000e 4FF0FF33 		mov	r3, #-1
ARM GAS  C:\Users\jsyoon\AppData\Local\Temp\ccHEUWmT.s 			page 3


 114 0012 CB60     		str	r3, [r1, #12]
 115 0014 00E0     		b	.L12
 116              	.LVL3:
 117              	.L17:
 118              		.loc 1 567 0 discriminator 1
 119 0016 4AB9     		cbnz	r2, .L11
 120              	.LVL4:
 121              	.L12:
 122              		.loc 1 565 0 discriminator 1
 123 0018 CA68     		ldr	r2, [r1, #12]
 124              		.loc 1 566 0 discriminator 1
 125 001a 019B     		ldr	r3, [sp, #4]
 126 001c 0133     		adds	r3, r3, #1
 127 001e 0193     		str	r3, [sp, #4]
 128              		.loc 1 567 0 discriminator 1
 129 0020 019B     		ldr	r3, [sp, #4]
 130 0022 B3F5803F 		cmp	r3, #65536
 131              		.loc 1 565 0 discriminator 1
 132 0026 02F04002 		and	r2, r2, #64
 133              	.LVL5:
 134              		.loc 1 567 0 discriminator 1
 135 002a F4D1     		bne	.L17
 136              	.L11:
 137              	.LBB80:
 138              	.LBB81:
 139              		.loc 1 569 0
 140 002c 044B     		ldr	r3, .L18
 141 002e D868     		ldr	r0, [r3, #12]
 142              		.loc 1 571 0
 143 0030 C0F38010 		ubfx	r0, r0, #6, #1
 144              	.LVL6:
 145              	.LBE81:
 146              	.LBE80:
 147              		.loc 1 584 0
 148 0034 02B0     		add	sp, sp, #8
 149              		@ sp needed
 150 0036 7047     		bx	lr
 151              	.LVL7:
 152              	.L13:
 153              		.loc 1 580 0
 154 0038 0120     		movs	r0, #1
 155              	.LVL8:
 156              		.loc 1 584 0
 157 003a 02B0     		add	sp, sp, #8
 158              		@ sp needed
 159 003c 7047     		bx	lr
 160              	.L19:
 161 003e 00BF     		.align	2
 162              	.L18:
 163 0040 00280040 		.word	1073752064
 164              		.cfi_endproc
 165              	.LFE115:
 166              		.size	RTC_EnterInitMode, .-RTC_EnterInitMode
 167 0044 AFF30080 		.section	.text.RTC_Init,"ax",%progbits
 167      AFF30080 
 167      AFF30080 
 168              		.align	2
ARM GAS  C:\Users\jsyoon\AppData\Local\Temp\ccHEUWmT.s 			page 4


 169              		.p2align 4,,15
 170              		.global	RTC_Init
 171              		.thumb
 172              		.thumb_func
 173              		.type	RTC_Init, %function
 174              	RTC_Init:
 175              	.LFB112:
 176              		.loc 1 456 0
 177              		.cfi_startproc
 178              		@ args = 0, pretend = 0, frame = 0
 179              		@ frame_needed = 0, uses_anonymous_args = 0
 180              	.LVL9:
 181 0000 38B5     		push	{r3, r4, r5, lr}
 182              		.cfi_def_cfa_offset 16
 183              		.cfi_offset 3, -16
 184              		.cfi_offset 4, -12
 185              		.cfi_offset 5, -8
 186              		.cfi_offset 14, -4
 187              		.loc 1 465 0
 188 0002 104C     		ldr	r4, .L23
 189 0004 CA22     		movs	r2, #202
 190              		.loc 1 466 0
 191 0006 5323     		movs	r3, #83
 192              		.loc 1 465 0
 193 0008 6262     		str	r2, [r4, #36]
 194              		.loc 1 466 0
 195 000a 6362     		str	r3, [r4, #36]
 196              		.loc 1 456 0
 197 000c 0546     		mov	r5, r0
 198              		.loc 1 469 0
 199 000e FFF7FEFF 		bl	RTC_EnterInitMode
 200              	.LVL10:
 201 0012 98B1     		cbz	r0, .L21
 202              		.loc 1 476 0
 203 0014 A368     		ldr	r3, [r4, #8]
 204 0016 23F04003 		bic	r3, r3, #64
 205 001a A360     		str	r3, [r4, #8]
 206              		.loc 1 478 0
 207 001c A268     		ldr	r2, [r4, #8]
 208 001e 2B68     		ldr	r3, [r5]
 209 0020 1343     		orrs	r3, r3, r2
 210 0022 A360     		str	r3, [r4, #8]
 211              		.loc 1 481 0
 212 0024 AB68     		ldr	r3, [r5, #8]
 213 0026 2361     		str	r3, [r4, #16]
 214              		.loc 1 482 0
 215 0028 2369     		ldr	r3, [r4, #16]
 216 002a 6A68     		ldr	r2, [r5, #4]
 217 002c 43EA0243 		orr	r3, r3, r2, lsl #16
 218 0030 2361     		str	r3, [r4, #16]
 219              	.LBB82:
 220              	.LBB83:
 221              		.loc 1 598 0
 222 0032 E368     		ldr	r3, [r4, #12]
 223 0034 23F08003 		bic	r3, r3, #128
 224 0038 E360     		str	r3, [r4, #12]
 225              	.LVL11:
ARM GAS  C:\Users\jsyoon\AppData\Local\Temp\ccHEUWmT.s 			page 5


 226              	.LBE83:
 227              	.LBE82:
 228              		.loc 1 487 0
 229 003a 0120     		movs	r0, #1
 230              	.LVL12:
 231              	.L21:
 232              		.loc 1 490 0
 233 003c 014B     		ldr	r3, .L23
 234 003e FF22     		movs	r2, #255
 235 0040 5A62     		str	r2, [r3, #36]
 236              		.loc 1 493 0
 237 0042 38BD     		pop	{r3, r4, r5, pc}
 238              	.LVL13:
 239              	.L24:
 240              		.align	2
 241              	.L23:
 242 0044 00280040 		.word	1073752064
 243              		.cfi_endproc
 244              	.LFE112:
 245              		.size	RTC_Init, .-RTC_Init
 246 0048 AFF30080 		.section	.text.RTC_ExitInitMode,"ax",%progbits
 246      AFF30080 
 247              		.align	2
 248              		.p2align 4,,15
 249              		.global	RTC_ExitInitMode
 250              		.thumb
 251              		.thumb_func
 252              		.type	RTC_ExitInitMode, %function
 253              	RTC_ExitInitMode:
 254              	.LFB116:
 255              		.loc 1 596 0
 256              		.cfi_startproc
 257              		@ args = 0, pretend = 0, frame = 0
 258              		@ frame_needed = 0, uses_anonymous_args = 0
 259              		@ link register save eliminated.
 260              		.loc 1 598 0
 261 0000 024B     		ldr	r3, .L26
 262 0002 DA68     		ldr	r2, [r3, #12]
 263 0004 22F08002 		bic	r2, r2, #128
 264 0008 DA60     		str	r2, [r3, #12]
 265 000a 7047     		bx	lr
 266              	.L27:
 267              		.align	2
 268              	.L26:
 269 000c 00280040 		.word	1073752064
 270              		.cfi_endproc
 271              	.LFE116:
 272              		.size	RTC_ExitInitMode, .-RTC_ExitInitMode
 273              		.section	.text.RTC_WaitForSynchro,"ax",%progbits
 274              		.align	2
 275              		.p2align 4,,15
 276              		.global	RTC_WaitForSynchro
 277              		.thumb
 278              		.thumb_func
 279              		.type	RTC_WaitForSynchro, %function
 280              	RTC_WaitForSynchro:
 281              	.LFB117:
ARM GAS  C:\Users\jsyoon\AppData\Local\Temp\ccHEUWmT.s 			page 6


 282              		.loc 1 618 0
 283              		.cfi_startproc
 284              		@ args = 0, pretend = 0, frame = 8
 285              		@ frame_needed = 0, uses_anonymous_args = 0
 286              		@ link register save eliminated.
 287              		.loc 1 624 0
 288 0000 0F49     		ldr	r1, .L35
 289              		.loc 1 618 0
 290 0002 82B0     		sub	sp, sp, #8
 291              		.cfi_def_cfa_offset 8
 292              		.loc 1 625 0
 293 0004 5323     		movs	r3, #83
 294              		.loc 1 619 0
 295 0006 0020     		movs	r0, #0
 296              		.loc 1 624 0
 297 0008 CA22     		movs	r2, #202
 298              		.loc 1 619 0
 299 000a 0190     		str	r0, [sp, #4]
 300              	.LVL14:
 301              		.loc 1 624 0
 302 000c 4A62     		str	r2, [r1, #36]
 303              		.loc 1 625 0
 304 000e 4B62     		str	r3, [r1, #36]
 305              		.loc 1 628 0
 306 0010 CB68     		ldr	r3, [r1, #12]
 307 0012 23F0A003 		bic	r3, r3, #160
 308 0016 CB60     		str	r3, [r1, #12]
 309 0018 00E0     		b	.L30
 310              	.LVL15:
 311              	.L34:
 312              		.loc 1 635 0 discriminator 1
 313 001a 4AB9     		cbnz	r2, .L29
 314              	.LVL16:
 315              	.L30:
 316              		.loc 1 633 0 discriminator 1
 317 001c CA68     		ldr	r2, [r1, #12]
 318              		.loc 1 634 0 discriminator 1
 319 001e 019B     		ldr	r3, [sp, #4]
 320 0020 0133     		adds	r3, r3, #1
 321 0022 0193     		str	r3, [sp, #4]
 322              		.loc 1 635 0 discriminator 1
 323 0024 019B     		ldr	r3, [sp, #4]
 324 0026 B3F5003F 		cmp	r3, #131072
 325              		.loc 1 633 0 discriminator 1
 326 002a 02F02002 		and	r2, r2, #32
 327              	.LVL17:
 328              		.loc 1 635 0 discriminator 1
 329 002e F4D1     		bne	.L34
 330              	.L29:
 331              		.loc 1 637 0
 332 0030 034B     		ldr	r3, .L35
 333 0032 D868     		ldr	r0, [r3, #12]
 334              	.LVL18:
 335              		.loc 1 647 0
 336 0034 FF22     		movs	r2, #255
 337              	.LVL19:
 338              		.loc 1 650 0
ARM GAS  C:\Users\jsyoon\AppData\Local\Temp\ccHEUWmT.s 			page 7


 339 0036 C0F34010 		ubfx	r0, r0, #5, #1
 340              	.LVL20:
 341              		.loc 1 647 0
 342 003a 5A62     		str	r2, [r3, #36]
 343              		.loc 1 650 0
 344 003c 02B0     		add	sp, sp, #8
 345              		@ sp needed
 346 003e 7047     		bx	lr
 347              	.L36:
 348              		.align	2
 349              	.L35:
 350 0040 00280040 		.word	1073752064
 351              		.cfi_endproc
 352              	.LFE117:
 353              		.size	RTC_WaitForSynchro, .-RTC_WaitForSynchro
 354 0044 AFF30080 		.section	.text.RTC_DeInit,"ax",%progbits
 354      AFF30080 
 354      AFF30080 
 355              		.align	2
 356              		.p2align 4,,15
 357              		.global	RTC_DeInit
 358              		.thumb
 359              		.thumb_func
 360              		.type	RTC_DeInit, %function
 361              	RTC_DeInit:
 362              	.LFB111:
 363              		.loc 1 374 0
 364              		.cfi_startproc
 365              		@ args = 0, pretend = 0, frame = 8
 366              		@ frame_needed = 0, uses_anonymous_args = 0
 367 0000 30B5     		push	{r4, r5, lr}
 368              		.cfi_def_cfa_offset 12
 369              		.cfi_offset 4, -12
 370              		.cfi_offset 5, -8
 371              		.cfi_offset 14, -4
 372              		.loc 1 380 0
 373 0002 204C     		ldr	r4, .L51
 374              		.loc 1 374 0
 375 0004 83B0     		sub	sp, sp, #12
 376              		.cfi_def_cfa_offset 24
 377              		.loc 1 375 0
 378 0006 0025     		movs	r5, #0
 379              		.loc 1 380 0
 380 0008 CA22     		movs	r2, #202
 381              		.loc 1 381 0
 382 000a 5323     		movs	r3, #83
 383              		.loc 1 375 0
 384 000c 0195     		str	r5, [sp, #4]
 385              	.LVL21:
 386              		.loc 1 380 0
 387 000e 6262     		str	r2, [r4, #36]
 388              		.loc 1 381 0
 389 0010 6362     		str	r3, [r4, #36]
 390              		.loc 1 384 0
 391 0012 FFF7FEFF 		bl	RTC_EnterInitMode
 392              	.LVL22:
 393 0016 C0B1     		cbz	r0, .L42
ARM GAS  C:\Users\jsyoon\AppData\Local\Temp\ccHEUWmT.s 			page 8


 394              		.loc 1 392 0
 395 0018 42F20113 		movw	r3, #8449
 396              		.loc 1 391 0
 397 001c 2560     		str	r5, [r4]
 398              		.loc 1 392 0
 399 001e 6360     		str	r3, [r4, #4]
 400              		.loc 1 394 0
 401 0020 A368     		ldr	r3, [r4, #8]
 402 0022 03F00703 		and	r3, r3, #7
 403 0026 A360     		str	r3, [r4, #8]
 404              		.loc 1 399 0
 405 0028 2146     		mov	r1, r4
 406 002a 00E0     		b	.L41
 407              	.LVL23:
 408              	.L49:
 409              		.loc 1 401 0 discriminator 1
 410 002c 4AB9     		cbnz	r2, .L40
 411              	.LVL24:
 412              	.L41:
 413              		.loc 1 399 0 discriminator 1
 414 002e CA68     		ldr	r2, [r1, #12]
 415              		.loc 1 400 0 discriminator 1
 416 0030 019B     		ldr	r3, [sp, #4]
 417 0032 0133     		adds	r3, r3, #1
 418 0034 0193     		str	r3, [sp, #4]
 419              		.loc 1 401 0 discriminator 1
 420 0036 019B     		ldr	r3, [sp, #4]
 421 0038 B3F5803F 		cmp	r3, #65536
 422              		.loc 1 399 0 discriminator 1
 423 003c 02F00402 		and	r2, r2, #4
 424              	.LVL25:
 425              		.loc 1 401 0 discriminator 1
 426 0040 F4D1     		bne	.L49
 427              	.L40:
 428              		.loc 1 403 0
 429 0042 104B     		ldr	r3, .L51
 430 0044 DA68     		ldr	r2, [r3, #12]
 431              	.LVL26:
 432 0046 5207     		lsls	r2, r2, #29
 433 0048 05D4     		bmi	.L50
 434              	.L42:
 435              		.loc 1 386 0
 436 004a 0020     		movs	r0, #0
 437              	.L39:
 438              	.LVL27:
 439              		.loc 1 439 0
 440 004c 0D4B     		ldr	r3, .L51
 441 004e FF22     		movs	r2, #255
 442 0050 5A62     		str	r2, [r3, #36]
 443              		.loc 1 442 0
 444 0052 03B0     		add	sp, sp, #12
 445              		@ sp needed
 446 0054 30BD     		pop	{r4, r5, pc}
 447              	.LVL28:
 448              	.L50:
 449              		.loc 1 410 0
 450 0056 0022     		movs	r2, #0
ARM GAS  C:\Users\jsyoon\AppData\Local\Temp\ccHEUWmT.s 			page 9


 451              		.loc 1 411 0
 452 0058 4FF6FF70 		movw	r0, #65535
 453              		.loc 1 412 0
 454 005c 0A49     		ldr	r1, .L51+4
 455              		.loc 1 410 0
 456 005e 9C68     		ldr	r4, [r3, #8]
 457 0060 9A60     		str	r2, [r3, #8]
 458              		.loc 1 411 0
 459 0062 5861     		str	r0, [r3, #20]
 460              		.loc 1 412 0
 461 0064 1961     		str	r1, [r3, #16]
 462              		.loc 1 413 0
 463 0066 9A61     		str	r2, [r3, #24]
 464              		.loc 1 414 0
 465 0068 DA61     		str	r2, [r3, #28]
 466              		.loc 1 415 0
 467 006a 1A62     		str	r2, [r3, #32]
 468              		.loc 1 416 0
 469 006c DA62     		str	r2, [r3, #44]
 470              		.loc 1 417 0
 471 006e DA63     		str	r2, [r3, #60]
 472              		.loc 1 418 0
 473 0070 5A64     		str	r2, [r3, #68]
 474              		.loc 1 419 0
 475 0072 9A64     		str	r2, [r3, #72]
 476              		.loc 1 422 0
 477 0074 DA60     		str	r2, [r3, #12]
 478              		.loc 1 425 0
 479 0076 1A64     		str	r2, [r3, #64]
 480              		.loc 1 427 0
 481 0078 FFF7FEFF 		bl	RTC_WaitForSynchro
 482              	.LVL29:
 483              		.loc 1 386 0
 484 007c 0030     		adds	r0, r0, #0
 485 007e 18BF     		it	ne
 486 0080 0120     		movne	r0, #1
 487 0082 E3E7     		b	.L39
 488              	.L52:
 489              		.align	2
 490              	.L51:
 491 0084 00280040 		.word	1073752064
 492 0088 FF007F00 		.word	8323327
 493              		.cfi_endproc
 494              	.LFE111:
 495              		.size	RTC_DeInit, .-RTC_DeInit
 496 008c AFF30080 		.section	.text.RTC_RefClockCmd,"ax",%progbits
 497              		.align	2
 498              		.p2align 4,,15
 499              		.global	RTC_RefClockCmd
 500              		.thumb
 501              		.thumb_func
 502              		.type	RTC_RefClockCmd, %function
 503              	RTC_RefClockCmd:
 504              	.LFB118:
 505              		.loc 1 661 0
 506              		.cfi_startproc
 507              		@ args = 0, pretend = 0, frame = 0
ARM GAS  C:\Users\jsyoon\AppData\Local\Temp\ccHEUWmT.s 			page 10


 508              		@ frame_needed = 0, uses_anonymous_args = 0
 509              	.LVL30:
 510 0000 38B5     		push	{r3, r4, r5, lr}
 511              		.cfi_def_cfa_offset 16
 512              		.cfi_offset 3, -16
 513              		.cfi_offset 4, -12
 514              		.cfi_offset 5, -8
 515              		.cfi_offset 14, -4
 516              		.loc 1 668 0
 517 0002 0E4C     		ldr	r4, .L59
 518 0004 CA22     		movs	r2, #202
 519              		.loc 1 669 0
 520 0006 5323     		movs	r3, #83
 521              		.loc 1 668 0
 522 0008 6262     		str	r2, [r4, #36]
 523              		.loc 1 669 0
 524 000a 6362     		str	r3, [r4, #36]
 525              		.loc 1 661 0
 526 000c 0546     		mov	r5, r0
 527              		.loc 1 672 0
 528 000e FFF7FEFF 		bl	RTC_EnterInitMode
 529              	.LVL31:
 530 0012 50B1     		cbz	r0, .L54
 531              		.loc 1 681 0
 532 0014 A368     		ldr	r3, [r4, #8]
 533              		.loc 1 678 0
 534 0016 65B9     		cbnz	r5, .L58
 535              		.loc 1 686 0
 536 0018 23F01003 		bic	r3, r3, #16
 537 001c A360     		str	r3, [r4, #8]
 538              	.L56:
 539              	.LBB84:
 540              	.LBB85:
 541              		.loc 1 598 0
 542 001e 074B     		ldr	r3, .L59
 543 0020 DA68     		ldr	r2, [r3, #12]
 544 0022 22F08002 		bic	r2, r2, #128
 545 0026 DA60     		str	r2, [r3, #12]
 546              	.LVL32:
 547              	.LBE85:
 548              	.LBE84:
 549              		.loc 1 691 0
 550 0028 0120     		movs	r0, #1
 551              	.LVL33:
 552              	.L54:
 553              		.loc 1 695 0
 554 002a 044B     		ldr	r3, .L59
 555 002c FF22     		movs	r2, #255
 556 002e 5A62     		str	r2, [r3, #36]
 557              		.loc 1 698 0
 558 0030 38BD     		pop	{r3, r4, r5, pc}
 559              	.LVL34:
 560              	.L58:
 561              		.loc 1 681 0
 562 0032 43F01003 		orr	r3, r3, #16
 563 0036 A360     		str	r3, [r4, #8]
 564 0038 F1E7     		b	.L56
ARM GAS  C:\Users\jsyoon\AppData\Local\Temp\ccHEUWmT.s 			page 11


 565              	.L60:
 566 003a 00BF     		.align	2
 567              	.L59:
 568 003c 00280040 		.word	1073752064
 569              		.cfi_endproc
 570              	.LFE118:
 571              		.size	RTC_RefClockCmd, .-RTC_RefClockCmd
 572              		.section	.text.RTC_BypassShadowCmd,"ax",%progbits
 573              		.align	2
 574              		.p2align 4,,15
 575              		.global	RTC_BypassShadowCmd
 576              		.thumb
 577              		.thumb_func
 578              		.type	RTC_BypassShadowCmd, %function
 579              	RTC_BypassShadowCmd:
 580              	.LFB119:
 581              		.loc 1 709 0
 582              		.cfi_startproc
 583              		@ args = 0, pretend = 0, frame = 0
 584              		@ frame_needed = 0, uses_anonymous_args = 0
 585              		@ link register save eliminated.
 586              	.LVL35:
 587              		.loc 1 714 0
 588 0000 0A4B     		ldr	r3, .L65
 589              		.loc 1 715 0
 590 0002 5322     		movs	r2, #83
 591              		.loc 1 714 0
 592 0004 CA21     		movs	r1, #202
 593 0006 5962     		str	r1, [r3, #36]
 594              		.loc 1 715 0
 595 0008 5A62     		str	r2, [r3, #36]
 596              		.loc 1 720 0
 597 000a 9A68     		ldr	r2, [r3, #8]
 598              		.loc 1 717 0
 599 000c 30B9     		cbnz	r0, .L64
 600              		.loc 1 725 0
 601 000e 02F0DF02 		and	r2, r2, #223
 602 0012 9A60     		str	r2, [r3, #8]
 603              		.loc 1 729 0
 604 0014 054B     		ldr	r3, .L65
 605 0016 FF22     		movs	r2, #255
 606 0018 5A62     		str	r2, [r3, #36]
 607 001a 7047     		bx	lr
 608              	.L64:
 609              		.loc 1 720 0
 610 001c 42F02002 		orr	r2, r2, #32
 611 0020 9A60     		str	r2, [r3, #8]
 612              		.loc 1 729 0
 613 0022 024B     		ldr	r3, .L65
 614 0024 FF22     		movs	r2, #255
 615 0026 5A62     		str	r2, [r3, #36]
 616 0028 7047     		bx	lr
 617              	.L66:
 618 002a 00BF     		.align	2
 619              	.L65:
 620 002c 00280040 		.word	1073752064
 621              		.cfi_endproc
ARM GAS  C:\Users\jsyoon\AppData\Local\Temp\ccHEUWmT.s 			page 12


 622              	.LFE119:
 623              		.size	RTC_BypassShadowCmd, .-RTC_BypassShadowCmd
 624              		.section	.text.RTC_SetTime,"ax",%progbits
 625              		.align	2
 626              		.p2align 4,,15
 627              		.global	RTC_SetTime
 628              		.thumb
 629              		.thumb_func
 630              		.type	RTC_SetTime, %function
 631              	RTC_SetTime:
 632              	.LFB120:
 633              		.loc 1 764 0
 634              		.cfi_startproc
 635              		@ args = 0, pretend = 0, frame = 0
 636              		@ frame_needed = 0, uses_anonymous_args = 0
 637              	.LVL36:
 638 0000 38B5     		push	{r3, r4, r5, lr}
 639              		.cfi_def_cfa_offset 16
 640              		.cfi_offset 3, -16
 641              		.cfi_offset 4, -12
 642              		.cfi_offset 5, -8
 643              		.cfi_offset 14, -4
 644              		.loc 1 773 0
 645 0002 394B     		ldr	r3, .L91
 646              		.loc 1 771 0
 647 0004 0028     		cmp	r0, #0
 648 0006 36D1     		bne	.L68
 649              		.loc 1 773 0
 650 0008 9C68     		ldr	r4, [r3, #8]
 651 000a 14F04004 		ands	r4, r4, #64
 652 000e 58D1     		bne	.L69
 653              		.loc 1 780 0
 654 0010 CC70     		strb	r4, [r1, #3]
 655              	.L70:
 656              		.loc 1 813 0
 657 0012 0B78     		ldrb	r3, [r1]	@ zero_extendqisi2
 658              	.LVL37:
 659              	.LBB86:
 660              	.LBB87:
 661              		.loc 1 2726 0
 662 0014 092B     		cmp	r3, #9
 663              		.loc 1 2724 0
 664 0016 4FF00002 		mov	r2, #0
 665              		.loc 1 2726 0
 666 001a 07D9     		bls	.L82
 667              	.LVL38:
 668              	.L83:
 669              		.loc 1 2729 0
 670 001c 0A3B     		subs	r3, r3, #10
 671              	.LVL39:
 672 001e DBB2     		uxtb	r3, r3
 673              	.LVL40:
 674              		.loc 1 2728 0
 675 0020 0132     		adds	r2, r2, #1
 676              	.LVL41:
 677              		.loc 1 2726 0
 678 0022 092B     		cmp	r3, #9
ARM GAS  C:\Users\jsyoon\AppData\Local\Temp\ccHEUWmT.s 			page 13


 679              		.loc 1 2728 0
 680 0024 D2B2     		uxtb	r2, r2
 681              	.LVL42:
 682              		.loc 1 2726 0
 683 0026 F9D8     		bhi	.L83
 684 0028 1201     		lsls	r2, r2, #4
 685              	.LVL43:
 686 002a D2B2     		uxtb	r2, r2
 687              	.LVL44:
 688              	.L82:
 689              	.LBE87:
 690              	.LBE86:
 691              		.loc 1 814 0
 692 002c 4878     		ldrb	r0, [r1, #1]	@ zero_extendqisi2
 693              	.LVL45:
 694              		.loc 1 813 0
 695 002e 1343     		orrs	r3, r3, r2
 696              	.LBB88:
 697              	.LBB89:
 698              		.loc 1 2726 0
 699 0030 0928     		cmp	r0, #9
 700              	.LBE89:
 701              	.LBE88:
 702              		.loc 1 813 0
 703 0032 4FEA0343 		lsl	r3, r3, #16
 704              	.LBB92:
 705              	.LBB90:
 706              		.loc 1 2726 0
 707 0036 54D9     		bls	.L84
 708              		.loc 1 2724 0
 709 0038 0022     		movs	r2, #0
 710              	.LVL46:
 711              	.L76:
 712              		.loc 1 2729 0
 713 003a 0A38     		subs	r0, r0, #10
 714              	.LVL47:
 715 003c C0B2     		uxtb	r0, r0
 716              	.LVL48:
 717              		.loc 1 2728 0
 718 003e 0132     		adds	r2, r2, #1
 719              	.LVL49:
 720              		.loc 1 2726 0
 721 0040 0928     		cmp	r0, #9
 722              		.loc 1 2728 0
 723 0042 D2B2     		uxtb	r2, r2
 724              	.LVL50:
 725              		.loc 1 2726 0
 726 0044 F9D8     		bhi	.L76
 727 0046 1201     		lsls	r2, r2, #4
 728              	.LVL51:
 729 0048 D5B2     		uxtb	r5, r2
 730              	.LVL52:
 731              	.L74:
 732              	.LBE90:
 733              	.LBE92:
 734              		.loc 1 815 0
 735 004a 8A78     		ldrb	r2, [r1, #2]	@ zero_extendqisi2
ARM GAS  C:\Users\jsyoon\AppData\Local\Temp\ccHEUWmT.s 			page 14


 736              	.LVL53:
 737              		.loc 1 814 0
 738 004c 2843     		orrs	r0, r0, r5
 739              	.LBB93:
 740              	.LBB94:
 741              		.loc 1 2726 0
 742 004e 092A     		cmp	r2, #9
 743              	.LBE94:
 744              	.LBE93:
 745              		.loc 1 814 0
 746 0050 4FEA0020 		lsl	r0, r0, #8
 747              	.LBB96:
 748              	.LBB95:
 749              		.loc 1 2724 0
 750 0054 4FF00001 		mov	r1, #0
 751              	.LVL54:
 752              		.loc 1 2726 0
 753 0058 07D9     		bls	.L77
 754              	.LVL55:
 755              	.L79:
 756              		.loc 1 2729 0
 757 005a 0A3A     		subs	r2, r2, #10
 758              	.LVL56:
 759 005c D2B2     		uxtb	r2, r2
 760              	.LVL57:
 761              		.loc 1 2728 0
 762 005e 0131     		adds	r1, r1, #1
 763              	.LVL58:
 764              		.loc 1 2726 0
 765 0060 092A     		cmp	r2, #9
 766              		.loc 1 2728 0
 767 0062 C9B2     		uxtb	r1, r1
 768              	.LVL59:
 769              		.loc 1 2726 0
 770 0064 F9D8     		bhi	.L79
 771 0066 0901     		lsls	r1, r1, #4
 772              	.LVL60:
 773 0068 C9B2     		uxtb	r1, r1
 774              	.LVL61:
 775              	.L77:
 776              	.LBE95:
 777              	.LBE96:
 778              		.loc 1 813 0
 779 006a 1C43     		orrs	r4, r4, r3
 780              		.loc 1 814 0
 781 006c 44EA0005 		orr	r5, r4, r0
 782              		.loc 1 815 0
 783 0070 0A43     		orrs	r2, r2, r1
 784              		.loc 1 813 0
 785 0072 1543     		orrs	r5, r5, r2
 786              	.LVL62:
 787 0074 0CE0     		b	.L81
 788              	.LVL63:
 789              	.L68:
 790              		.loc 1 788 0
 791 0076 9B68     		ldr	r3, [r3, #8]
 792 0078 13F04003 		ands	r3, r3, #64
ARM GAS  C:\Users\jsyoon\AppData\Local\Temp\ccHEUWmT.s 			page 15


 793 007c 24D1     		bne	.L71
 794              		.loc 1 796 0
 795 007e CB70     		strb	r3, [r1, #3]
 796              	.L72:
 797              		.loc 1 807 0
 798 0080 4D78     		ldrb	r5, [r1, #1]	@ zero_extendqisi2
 799              		.loc 1 806 0
 800 0082 0878     		ldrb	r0, [r1]	@ zero_extendqisi2
 801              	.LVL64:
 802              		.loc 1 808 0
 803 0084 8A78     		ldrb	r2, [r1, #2]	@ zero_extendqisi2
 804              		.loc 1 807 0
 805 0086 2D02     		lsls	r5, r5, #8
 806              		.loc 1 806 0
 807 0088 45EA0045 		orr	r5, r5, r0, lsl #16
 808              		.loc 1 807 0
 809 008c 1543     		orrs	r5, r5, r2
 810              		.loc 1 806 0
 811 008e 1D43     		orrs	r5, r5, r3
 812              	.LVL65:
 813              	.L81:
 814              		.loc 1 820 0
 815 0090 154C     		ldr	r4, .L91
 816 0092 CA21     		movs	r1, #202
 817              		.loc 1 821 0
 818 0094 5323     		movs	r3, #83
 819              		.loc 1 820 0
 820 0096 6162     		str	r1, [r4, #36]
 821              		.loc 1 821 0
 822 0098 6362     		str	r3, [r4, #36]
 823              		.loc 1 824 0
 824 009a FFF7FEFF 		bl	RTC_EnterInitMode
 825              	.LVL66:
 826 009e 60B1     		cbz	r0, .L80
 827              		.loc 1 831 0
 828 00a0 05F07F32 		and	r2, r5, #2139062143
 829 00a4 22F0FE42 		bic	r2, r2, #2130706432
 830 00a8 2260     		str	r2, [r4]
 831              	.LBB97:
 832              	.LBB98:
 833              		.loc 1 598 0
 834 00aa E368     		ldr	r3, [r4, #12]
 835 00ac 23F08003 		bic	r3, r3, #128
 836 00b0 E360     		str	r3, [r4, #12]
 837              	.LBE98:
 838              	.LBE97:
 839              		.loc 1 837 0
 840 00b2 A368     		ldr	r3, [r4, #8]
 841 00b4 9B06     		lsls	r3, r3, #26
 842 00b6 0AD5     		bpl	.L90
 843              		.loc 1 850 0
 844 00b8 0120     		movs	r0, #1
 845              	.L80:
 846              	.LVL67:
 847              		.loc 1 854 0
 848 00ba 0B4B     		ldr	r3, .L91
 849 00bc FF22     		movs	r2, #255
ARM GAS  C:\Users\jsyoon\AppData\Local\Temp\ccHEUWmT.s 			page 16


 850 00be 5A62     		str	r2, [r3, #36]
 851 00c0 38BD     		pop	{r3, r4, r5, pc}
 852              	.LVL68:
 853              	.L69:
 854 00c2 CC78     		ldrb	r4, [r1, #3]	@ zero_extendqisi2
 855 00c4 2404     		lsls	r4, r4, #16
 856 00c6 A4E7     		b	.L70
 857              	.L71:
 858 00c8 CB78     		ldrb	r3, [r1, #3]	@ zero_extendqisi2
 859 00ca 1B04     		lsls	r3, r3, #16
 860 00cc D8E7     		b	.L72
 861              	.LVL69:
 862              	.L90:
 863              		.loc 1 839 0
 864 00ce FFF7FEFF 		bl	RTC_WaitForSynchro
 865              	.LVL70:
 866              		.loc 1 854 0
 867 00d2 054B     		ldr	r3, .L91
 868              		.loc 1 826 0
 869 00d4 0030     		adds	r0, r0, #0
 870              		.loc 1 854 0
 871 00d6 4FF0FF02 		mov	r2, #255
 872              		.loc 1 826 0
 873 00da 18BF     		it	ne
 874 00dc 0120     		movne	r0, #1
 875              	.LVL71:
 876              		.loc 1 854 0
 877 00de 5A62     		str	r2, [r3, #36]
 878 00e0 38BD     		pop	{r3, r4, r5, pc}
 879              	.LVL72:
 880              	.L84:
 881              	.LBB99:
 882              	.LBB91:
 883              		.loc 1 2726 0
 884 00e2 0025     		movs	r5, #0
 885 00e4 B1E7     		b	.L74
 886              	.L92:
 887 00e6 00BF     		.align	2
 888              	.L91:
 889 00e8 00280040 		.word	1073752064
 890              	.LBE91:
 891              	.LBE99:
 892              		.cfi_endproc
 893              	.LFE120:
 894              		.size	RTC_SetTime, .-RTC_SetTime
 895 00ec AFF30080 		.section	.text.RTC_TimeStructInit,"ax",%progbits
 896              		.align	2
 897              		.p2align 4,,15
 898              		.global	RTC_TimeStructInit
 899              		.thumb
 900              		.thumb_func
 901              		.type	RTC_TimeStructInit, %function
 902              	RTC_TimeStructInit:
 903              	.LFB121:
 904              		.loc 1 867 0
 905              		.cfi_startproc
 906              		@ args = 0, pretend = 0, frame = 0
ARM GAS  C:\Users\jsyoon\AppData\Local\Temp\ccHEUWmT.s 			page 17


 907              		@ frame_needed = 0, uses_anonymous_args = 0
 908              		@ link register save eliminated.
 909              	.LVL73:
 910              		.loc 1 869 0
 911 0000 0023     		movs	r3, #0
 912 0002 C370     		strb	r3, [r0, #3]
 913              		.loc 1 870 0
 914 0004 0370     		strb	r3, [r0]
 915              		.loc 1 871 0
 916 0006 4370     		strb	r3, [r0, #1]
 917              		.loc 1 872 0
 918 0008 8370     		strb	r3, [r0, #2]
 919 000a 7047     		bx	lr
 920              		.cfi_endproc
 921              	.LFE121:
 922              		.size	RTC_TimeStructInit, .-RTC_TimeStructInit
 923 000c AFF30080 		.section	.text.RTC_GetTime,"ax",%progbits
 924              		.align	2
 925              		.p2align 4,,15
 926              		.global	RTC_GetTime
 927              		.thumb
 928              		.thumb_func
 929              		.type	RTC_GetTime, %function
 930              	RTC_GetTime:
 931              	.LFB122:
 932              		.loc 1 886 0
 933              		.cfi_startproc
 934              		@ args = 0, pretend = 0, frame = 0
 935              		@ frame_needed = 0, uses_anonymous_args = 0
 936              		@ link register save eliminated.
 937              	.LVL74:
 938              		.loc 1 893 0
 939 0000 154B     		ldr	r3, .L96
 940 0002 1B68     		ldr	r3, [r3]
 941              	.LVL75:
 942              		.loc 1 886 0
 943 0004 70B4     		push	{r4, r5, r6}
 944              		.cfi_def_cfa_offset 12
 945              		.cfi_offset 4, -12
 946              		.cfi_offset 5, -8
 947              		.cfi_offset 6, -4
 948              		.loc 1 899 0
 949 0006 03F48006 		and	r6, r3, #4194304
 950              		.loc 1 898 0
 951 000a 03F07F04 		and	r4, r3, #127
 952              		.loc 1 896 0
 953 000e C3F30542 		ubfx	r2, r3, #16, #6
 954              		.loc 1 899 0
 955 0012 360C     		lsrs	r6, r6, #16
 956              		.loc 1 897 0
 957 0014 C3F30623 		ubfx	r3, r3, #8, #7
 958              	.LVL76:
 959              		.loc 1 899 0
 960 0018 CE70     		strb	r6, [r1, #3]
 961              		.loc 1 898 0
 962 001a 8C70     		strb	r4, [r1, #2]
 963              		.loc 1 896 0
ARM GAS  C:\Users\jsyoon\AppData\Local\Temp\ccHEUWmT.s 			page 18


 964 001c 0A70     		strb	r2, [r1]
 965              		.loc 1 897 0
 966 001e 4B70     		strb	r3, [r1, #1]
 967              		.loc 1 902 0
 968 0020 B8B9     		cbnz	r0, .L94
 969              	.LVL77:
 970              	.LBB100:
 971              	.LBB101:
 972              		.loc 1 2743 0
 973 0022 2509     		lsrs	r5, r4, #4
 974              	.LBE101:
 975              	.LBE100:
 976              	.LBB104:
 977              	.LBB105:
 978 0024 1609     		lsrs	r6, r2, #4
 979              	.LBE105:
 980              	.LBE104:
 981              	.LBB108:
 982              	.LBB109:
 983 0026 1809     		lsrs	r0, r3, #4
 984              	.LVL78:
 985              	.LBE109:
 986              	.LBE108:
 987              	.LBB112:
 988              	.LBB102:
 989 0028 05EB8505 		add	r5, r5, r5, lsl #2
 990              		.loc 1 2744 0
 991 002c 04F00F04 		and	r4, r4, #15
 992              	.LBE102:
 993              	.LBE112:
 994              	.LBB113:
 995              	.LBB106:
 996              		.loc 1 2743 0
 997 0030 06EB8606 		add	r6, r6, r6, lsl #2
 998              		.loc 1 2744 0
 999 0034 02F00F02 		and	r2, r2, #15
 1000              	.LVL79:
 1001              	.LBE106:
 1002              	.LBE113:
 1003              	.LBB114:
 1004              	.LBB110:
 1005              		.loc 1 2743 0
 1006 0038 00EB8000 		add	r0, r0, r0, lsl #2
 1007              		.loc 1 2744 0
 1008 003c 03F00F03 		and	r3, r3, #15
 1009              	.LBE110:
 1010              	.LBE114:
 1011              	.LBB115:
 1012              	.LBB103:
 1013 0040 04EB4505 		add	r5, r4, r5, lsl #1
 1014              	.LBE103:
 1015              	.LBE115:
 1016              	.LBB116:
 1017              	.LBB107:
 1018 0044 02EB4606 		add	r6, r2, r6, lsl #1
 1019              	.LBE107:
 1020              	.LBE116:
ARM GAS  C:\Users\jsyoon\AppData\Local\Temp\ccHEUWmT.s 			page 19


 1021              	.LBB117:
 1022              	.LBB111:
 1023 0048 03EB4003 		add	r3, r3, r0, lsl #1
 1024              	.LBE111:
 1025              	.LBE117:
 1026              		.loc 1 907 0
 1027 004c 8D70     		strb	r5, [r1, #2]
 1028              		.loc 1 905 0
 1029 004e 0E70     		strb	r6, [r1]
 1030              	.LVL80:
 1031              		.loc 1 906 0
 1032 0050 4B70     		strb	r3, [r1, #1]
 1033              	.LVL81:
 1034              	.L94:
 1035              		.loc 1 909 0
 1036 0052 70BC     		pop	{r4, r5, r6}
 1037 0054 7047     		bx	lr
 1038              	.L97:
 1039 0056 00BF     		.align	2
 1040              	.L96:
 1041 0058 00280040 		.word	1073752064
 1042              		.cfi_endproc
 1043              	.LFE122:
 1044              		.size	RTC_GetTime, .-RTC_GetTime
 1045 005c AFF30080 		.section	.text.RTC_GetSubSecond,"ax",%progbits
 1046              		.align	2
 1047              		.p2align 4,,15
 1048              		.global	RTC_GetSubSecond
 1049              		.thumb
 1050              		.thumb_func
 1051              		.type	RTC_GetSubSecond, %function
 1052              	RTC_GetSubSecond:
 1053              	.LFB123:
 1054              		.loc 1 919 0
 1055              		.cfi_startproc
 1056              		@ args = 0, pretend = 0, frame = 0
 1057              		@ frame_needed = 0, uses_anonymous_args = 0
 1058              		@ link register save eliminated.
 1059              	.LVL82:
 1060              		.loc 1 923 0
 1061 0000 014B     		ldr	r3, .L99
 1062 0002 986A     		ldr	r0, [r3, #40]
 1063              	.LVL83:
 1064              		.loc 1 926 0
 1065 0004 5B68     		ldr	r3, [r3, #4]
 1066              		.loc 1 929 0
 1067 0006 7047     		bx	lr
 1068              	.L100:
 1069              		.align	2
 1070              	.L99:
 1071 0008 00280040 		.word	1073752064
 1072              		.cfi_endproc
 1073              	.LFE123:
 1074              		.size	RTC_GetSubSecond, .-RTC_GetSubSecond
 1075 000c AFF30080 		.section	.text.RTC_SetDate,"ax",%progbits
 1076              		.align	2
 1077              		.p2align 4,,15
ARM GAS  C:\Users\jsyoon\AppData\Local\Temp\ccHEUWmT.s 			page 20


 1078              		.global	RTC_SetDate
 1079              		.thumb
 1080              		.thumb_func
 1081              		.type	RTC_SetDate, %function
 1082              	RTC_SetDate:
 1083              	.LFB124:
 1084              		.loc 1 944 0
 1085              		.cfi_startproc
 1086              		@ args = 0, pretend = 0, frame = 0
 1087              		@ frame_needed = 0, uses_anonymous_args = 0
 1088              	.LVL84:
 1089 0000 38B5     		push	{r3, r4, r5, lr}
 1090              		.cfi_def_cfa_offset 16
 1091              		.cfi_offset 3, -16
 1092              		.cfi_offset 4, -12
 1093              		.cfi_offset 5, -8
 1094              		.cfi_offset 14, -4
 1095              		.loc 1 951 0
 1096 0002 0028     		cmp	r0, #0
 1097 0004 39D1     		bne	.L102
 1098              		.loc 1 951 0 is_stmt 0 discriminator 1
 1099 0006 4A78     		ldrb	r2, [r1, #1]	@ zero_extendqisi2
 1100 0008 D006     		lsls	r0, r2, #27
 1101              	.LVL85:
 1102 000a 04D5     		bpl	.L103
 1103              		.loc 1 953 0 is_stmt 1
 1104 000c 22F01002 		bic	r2, r2, #16
 1105 0010 0A32     		adds	r2, r2, #10
 1106 0012 D2B2     		uxtb	r2, r2
 1107 0014 4A70     		strb	r2, [r1, #1]
 1108              	.L103:
 1109              		.loc 1 981 0
 1110 0016 CB78     		ldrb	r3, [r1, #3]	@ zero_extendqisi2
 1111              	.LVL86:
 1112              	.LBB118:
 1113              	.LBB119:
 1114              		.loc 1 2726 0
 1115 0018 092B     		cmp	r3, #9
 1116              		.loc 1 2724 0
 1117 001a 4FF00000 		mov	r0, #0
 1118              		.loc 1 2726 0
 1119 001e 07D9     		bls	.L112
 1120              	.LVL87:
 1121              	.L113:
 1122              		.loc 1 2729 0
 1123 0020 0A3B     		subs	r3, r3, #10
 1124              	.LVL88:
 1125 0022 DBB2     		uxtb	r3, r3
 1126              	.LVL89:
 1127              		.loc 1 2728 0
 1128 0024 0130     		adds	r0, r0, #1
 1129              	.LVL90:
 1130              		.loc 1 2726 0
 1131 0026 092B     		cmp	r3, #9
 1132              		.loc 1 2728 0
 1133 0028 C0B2     		uxtb	r0, r0
 1134              	.LVL91:
ARM GAS  C:\Users\jsyoon\AppData\Local\Temp\ccHEUWmT.s 			page 21


 1135              		.loc 1 2726 0
 1136 002a F9D8     		bhi	.L113
 1137 002c 0001     		lsls	r0, r0, #4
 1138              	.LVL92:
 1139 002e C0B2     		uxtb	r0, r0
 1140              	.LVL93:
 1141              	.L112:
 1142              	.LBE119:
 1143              	.LBE118:
 1144              		.loc 1 981 0
 1145 0030 0343     		orrs	r3, r3, r0
 1146              	.LBB120:
 1147              	.LBB121:
 1148              		.loc 1 2726 0
 1149 0032 092A     		cmp	r2, #9
 1150              	.LBE121:
 1151              	.LBE120:
 1152              		.loc 1 981 0
 1153 0034 4FEA0343 		lsl	r3, r3, #16
 1154              	.LVL94:
 1155              	.LBB124:
 1156              	.LBB122:
 1157              		.loc 1 2726 0
 1158 0038 4CD9     		bls	.L116
 1159              		.loc 1 2724 0
 1160 003a 0020     		movs	r0, #0
 1161              	.LVL95:
 1162              	.L107:
 1163              		.loc 1 2729 0
 1164 003c 0A3A     		subs	r2, r2, #10
 1165              	.LVL96:
 1166 003e D2B2     		uxtb	r2, r2
 1167              	.LVL97:
 1168              		.loc 1 2728 0
 1169 0040 0130     		adds	r0, r0, #1
 1170              	.LVL98:
 1171              		.loc 1 2726 0
 1172 0042 092A     		cmp	r2, #9
 1173              		.loc 1 2728 0
 1174 0044 C0B2     		uxtb	r0, r0
 1175              	.LVL99:
 1176              		.loc 1 2726 0
 1177 0046 F9D8     		bhi	.L107
 1178 0048 0001     		lsls	r0, r0, #4
 1179              	.LVL100:
 1180 004a C5B2     		uxtb	r5, r0
 1181              	.LVL101:
 1182              	.L105:
 1183              	.LBE122:
 1184              	.LBE124:
 1185              		.loc 1 983 0
 1186 004c 8878     		ldrb	r0, [r1, #2]	@ zero_extendqisi2
 1187              	.LVL102:
 1188              		.loc 1 982 0
 1189 004e 2A43     		orrs	r2, r2, r5
 1190              	.LBB125:
 1191              	.LBB126:
ARM GAS  C:\Users\jsyoon\AppData\Local\Temp\ccHEUWmT.s 			page 22


 1192              		.loc 1 2726 0
 1193 0050 0928     		cmp	r0, #9
 1194              	.LBE126:
 1195              	.LBE125:
 1196              		.loc 1 982 0
 1197 0052 4FEA0222 		lsl	r2, r2, #8
 1198              	.LBB128:
 1199              	.LBB127:
 1200              		.loc 1 2724 0
 1201 0056 4FF00004 		mov	r4, #0
 1202              		.loc 1 2726 0
 1203 005a 07D9     		bls	.L108
 1204              	.LVL103:
 1205              	.L110:
 1206              		.loc 1 2729 0
 1207 005c 0A38     		subs	r0, r0, #10
 1208              	.LVL104:
 1209 005e C0B2     		uxtb	r0, r0
 1210              	.LVL105:
 1211              		.loc 1 2728 0
 1212 0060 0134     		adds	r4, r4, #1
 1213              	.LVL106:
 1214              		.loc 1 2726 0
 1215 0062 0928     		cmp	r0, #9
 1216              		.loc 1 2728 0
 1217 0064 E4B2     		uxtb	r4, r4
 1218              	.LVL107:
 1219              		.loc 1 2726 0
 1220 0066 F9D8     		bhi	.L110
 1221 0068 2401     		lsls	r4, r4, #4
 1222              	.LVL108:
 1223 006a E4B2     		uxtb	r4, r4
 1224              	.LVL109:
 1225              	.L108:
 1226              	.LBE127:
 1227              	.LBE128:
 1228              		.loc 1 984 0
 1229 006c 0D78     		ldrb	r5, [r1]	@ zero_extendqisi2
 1230              		.loc 1 981 0
 1231 006e 43EA4535 		orr	r5, r3, r5, lsl #13
 1232              		.loc 1 982 0
 1233 0072 1543     		orrs	r5, r5, r2
 1234              		.loc 1 983 0
 1235 0074 2043     		orrs	r0, r0, r4
 1236              		.loc 1 981 0
 1237 0076 0543     		orrs	r5, r5, r0
 1238              	.LVL110:
 1239 0078 09E0     		b	.L114
 1240              	.LVL111:
 1241              	.L102:
 1242              		.loc 1 975 0
 1243 007a 4D78     		ldrb	r5, [r1, #1]	@ zero_extendqisi2
 1244              		.loc 1 974 0
 1245 007c CA78     		ldrb	r2, [r1, #3]	@ zero_extendqisi2
 1246              		.loc 1 976 0
 1247 007e 8B78     		ldrb	r3, [r1, #2]	@ zero_extendqisi2
 1248              		.loc 1 977 0
ARM GAS  C:\Users\jsyoon\AppData\Local\Temp\ccHEUWmT.s 			page 23


 1249 0080 0878     		ldrb	r0, [r1]	@ zero_extendqisi2
 1250              	.LVL112:
 1251              		.loc 1 975 0
 1252 0082 2D02     		lsls	r5, r5, #8
 1253              		.loc 1 974 0
 1254 0084 45EA0245 		orr	r5, r5, r2, lsl #16
 1255              		.loc 1 975 0
 1256 0088 1D43     		orrs	r5, r5, r3
 1257              		.loc 1 974 0
 1258 008a 45EA4035 		orr	r5, r5, r0, lsl #13
 1259              	.LVL113:
 1260              	.L114:
 1261              		.loc 1 988 0
 1262 008e 124C     		ldr	r4, .L123
 1263 0090 CA22     		movs	r2, #202
 1264              		.loc 1 989 0
 1265 0092 5323     		movs	r3, #83
 1266              		.loc 1 988 0
 1267 0094 6262     		str	r2, [r4, #36]
 1268              		.loc 1 989 0
 1269 0096 6362     		str	r3, [r4, #36]
 1270              		.loc 1 992 0
 1271 0098 FFF7FEFF 		bl	RTC_EnterInitMode
 1272              	.LVL114:
 1273 009c 60B1     		cbz	r0, .L111
 1274              		.loc 1 999 0
 1275 009e 25F07F40 		bic	r0, r5, #-16777216
 1276 00a2 20F0C000 		bic	r0, r0, #192
 1277 00a6 6060     		str	r0, [r4, #4]
 1278              	.LBB129:
 1279              	.LBB130:
 1280              		.loc 1 598 0
 1281 00a8 E368     		ldr	r3, [r4, #12]
 1282 00aa 23F08003 		bic	r3, r3, #128
 1283 00ae E360     		str	r3, [r4, #12]
 1284              	.LBE130:
 1285              	.LBE129:
 1286              		.loc 1 1005 0
 1287 00b0 A368     		ldr	r3, [r4, #8]
 1288 00b2 9B06     		lsls	r3, r3, #26
 1289 00b4 04D5     		bpl	.L122
 1290              		.loc 1 1018 0
 1291 00b6 0120     		movs	r0, #1
 1292              	.L111:
 1293              	.LVL115:
 1294              		.loc 1 1022 0
 1295 00b8 074B     		ldr	r3, .L123
 1296 00ba FF22     		movs	r2, #255
 1297 00bc 5A62     		str	r2, [r3, #36]
 1298 00be 38BD     		pop	{r3, r4, r5, pc}
 1299              	.LVL116:
 1300              	.L122:
 1301              		.loc 1 1007 0
 1302 00c0 FFF7FEFF 		bl	RTC_WaitForSynchro
 1303              	.LVL117:
 1304              		.loc 1 1022 0
 1305 00c4 044B     		ldr	r3, .L123
ARM GAS  C:\Users\jsyoon\AppData\Local\Temp\ccHEUWmT.s 			page 24


 1306              		.loc 1 994 0
 1307 00c6 0030     		adds	r0, r0, #0
 1308              		.loc 1 1022 0
 1309 00c8 4FF0FF02 		mov	r2, #255
 1310              		.loc 1 994 0
 1311 00cc 18BF     		it	ne
 1312 00ce 0120     		movne	r0, #1
 1313              	.LVL118:
 1314              		.loc 1 1022 0
 1315 00d0 5A62     		str	r2, [r3, #36]
 1316 00d2 38BD     		pop	{r3, r4, r5, pc}
 1317              	.LVL119:
 1318              	.L116:
 1319              	.LBB131:
 1320              	.LBB123:
 1321              		.loc 1 2726 0
 1322 00d4 0025     		movs	r5, #0
 1323 00d6 B9E7     		b	.L105
 1324              	.L124:
 1325              		.align	2
 1326              	.L123:
 1327 00d8 00280040 		.word	1073752064
 1328              	.LBE123:
 1329              	.LBE131:
 1330              		.cfi_endproc
 1331              	.LFE124:
 1332              		.size	RTC_SetDate, .-RTC_SetDate
 1333 00dc AFF30080 		.section	.text.RTC_DateStructInit,"ax",%progbits
 1334              		.align	2
 1335              		.p2align 4,,15
 1336              		.global	RTC_DateStructInit
 1337              		.thumb
 1338              		.thumb_func
 1339              		.type	RTC_DateStructInit, %function
 1340              	RTC_DateStructInit:
 1341              	.LFB125:
 1342              		.loc 1 1035 0
 1343              		.cfi_startproc
 1344              		@ args = 0, pretend = 0, frame = 0
 1345              		@ frame_needed = 0, uses_anonymous_args = 0
 1346              		@ link register save eliminated.
 1347              	.LVL120:
 1348              		.loc 1 1037 0
 1349 0000 0123     		movs	r3, #1
 1350              		.loc 1 1040 0
 1351 0002 0022     		movs	r2, #0
 1352 0004 C270     		strb	r2, [r0, #3]
 1353              		.loc 1 1037 0
 1354 0006 0370     		strb	r3, [r0]
 1355              		.loc 1 1038 0
 1356 0008 8370     		strb	r3, [r0, #2]
 1357              		.loc 1 1039 0
 1358 000a 4370     		strb	r3, [r0, #1]
 1359 000c 7047     		bx	lr
 1360              		.cfi_endproc
 1361              	.LFE125:
 1362              		.size	RTC_DateStructInit, .-RTC_DateStructInit
ARM GAS  C:\Users\jsyoon\AppData\Local\Temp\ccHEUWmT.s 			page 25


 1363 000e 00BF     		.section	.text.RTC_GetDate,"ax",%progbits
 1364              		.align	2
 1365              		.p2align 4,,15
 1366              		.global	RTC_GetDate
 1367              		.thumb
 1368              		.thumb_func
 1369              		.type	RTC_GetDate, %function
 1370              	RTC_GetDate:
 1371              	.LFB126:
 1372              		.loc 1 1054 0
 1373              		.cfi_startproc
 1374              		@ args = 0, pretend = 0, frame = 0
 1375              		@ frame_needed = 0, uses_anonymous_args = 0
 1376              		@ link register save eliminated.
 1377              	.LVL121:
 1378              		.loc 1 1061 0
 1379 0000 144B     		ldr	r3, .L128
 1380 0002 5B68     		ldr	r3, [r3, #4]
 1381              	.LVL122:
 1382              		.loc 1 1054 0
 1383 0004 F0B4     		push	{r4, r5, r6, r7}
 1384              		.cfi_def_cfa_offset 16
 1385              		.cfi_offset 4, -16
 1386              		.cfi_offset 5, -12
 1387              		.cfi_offset 6, -8
 1388              		.cfi_offset 7, -4
 1389              		.loc 1 1064 0
 1390 0006 C3F30742 		ubfx	r2, r3, #16, #8
 1391              		.loc 1 1066 0
 1392 000a 03F03F04 		and	r4, r3, #63
 1393              		.loc 1 1067 0
 1394 000e C3F34236 		ubfx	r6, r3, #13, #3
 1395              		.loc 1 1065 0
 1396 0012 C3F30423 		ubfx	r3, r3, #8, #5
 1397              	.LVL123:
 1398              		.loc 1 1067 0
 1399 0016 0E70     		strb	r6, [r1]
 1400              		.loc 1 1066 0
 1401 0018 8C70     		strb	r4, [r1, #2]
 1402              		.loc 1 1064 0
 1403 001a CA70     		strb	r2, [r1, #3]
 1404              		.loc 1 1065 0
 1405 001c 4B70     		strb	r3, [r1, #1]
 1406              		.loc 1 1070 0
 1407 001e B8B9     		cbnz	r0, .L126
 1408              	.LVL124:
 1409              	.LBB132:
 1410              	.LBB133:
 1411              		.loc 1 2743 0
 1412 0020 1E09     		lsrs	r6, r3, #4
 1413              	.LBE133:
 1414              	.LBE132:
 1415              	.LBB137:
 1416              	.LBB138:
 1417 0022 2509     		lsrs	r5, r4, #4
 1418              	.LBE138:
 1419              	.LBE137:
ARM GAS  C:\Users\jsyoon\AppData\Local\Temp\ccHEUWmT.s 			page 26


 1420              	.LBB141:
 1421              	.LBB142:
 1422 0024 1009     		lsrs	r0, r2, #4
 1423              	.LVL125:
 1424              	.LBE142:
 1425              	.LBE141:
 1426              	.LBB145:
 1427              	.LBB134:
 1428 0026 B700     		lsls	r7, r6, #2
 1429              	.LBE134:
 1430              	.LBE145:
 1431              	.LBB146:
 1432              	.LBB139:
 1433 0028 05EB8505 		add	r5, r5, r5, lsl #2
 1434              		.loc 1 2744 0
 1435 002c 04F00F04 		and	r4, r4, #15
 1436              	.LBE139:
 1437              	.LBE146:
 1438              	.LBB147:
 1439              	.LBB135:
 1440 0030 03F00F03 		and	r3, r3, #15
 1441              		.loc 1 2743 0
 1442 0034 3E44     		add	r6, r6, r7
 1443              	.LBE135:
 1444              	.LBE147:
 1445              	.LBB148:
 1446              	.LBB143:
 1447 0036 00EB8000 		add	r0, r0, r0, lsl #2
 1448              		.loc 1 2744 0
 1449 003a 02F00F02 		and	r2, r2, #15
 1450              	.LVL126:
 1451              	.LBE143:
 1452              	.LBE148:
 1453              	.LBB149:
 1454              	.LBB140:
 1455 003e 04EB4505 		add	r5, r4, r5, lsl #1
 1456              	.LBE140:
 1457              	.LBE149:
 1458              	.LBB150:
 1459              	.LBB136:
 1460 0042 03EB4603 		add	r3, r3, r6, lsl #1
 1461              	.LBE136:
 1462              	.LBE150:
 1463              	.LBB151:
 1464              	.LBB144:
 1465 0046 02EB4000 		add	r0, r2, r0, lsl #1
 1466              	.LBE144:
 1467              	.LBE151:
 1468              		.loc 1 1075 0
 1469 004a 8D70     		strb	r5, [r1, #2]
 1470              		.loc 1 1074 0
 1471 004c 4B70     		strb	r3, [r1, #1]
 1472              		.loc 1 1073 0
 1473 004e C870     		strb	r0, [r1, #3]
 1474              	.LVL127:
 1475              	.L126:
 1476              		.loc 1 1077 0
ARM GAS  C:\Users\jsyoon\AppData\Local\Temp\ccHEUWmT.s 			page 27


 1477 0050 F0BC     		pop	{r4, r5, r6, r7}
 1478 0052 7047     		bx	lr
 1479              	.L129:
 1480              		.align	2
 1481              	.L128:
 1482 0054 00280040 		.word	1073752064
 1483              		.cfi_endproc
 1484              	.LFE126:
 1485              		.size	RTC_GetDate, .-RTC_GetDate
 1486 0058 AFF30080 		.section	.text.RTC_SetAlarm,"ax",%progbits
 1486      AFF30080 
 1487              		.align	2
 1488              		.p2align 4,,15
 1489              		.global	RTC_SetAlarm
 1490              		.thumb
 1491              		.thumb_func
 1492              		.type	RTC_SetAlarm, %function
 1493              	RTC_SetAlarm:
 1494              	.LFB127:
 1495              		.loc 1 1114 0
 1496              		.cfi_startproc
 1497              		@ args = 0, pretend = 0, frame = 0
 1498              		@ frame_needed = 0, uses_anonymous_args = 0
 1499              		@ link register save eliminated.
 1500              	.LVL128:
 1501 0000 F0B4     		push	{r4, r5, r6, r7}
 1502              		.cfi_def_cfa_offset 16
 1503              		.cfi_offset 4, -16
 1504              		.cfi_offset 5, -12
 1505              		.cfi_offset 6, -8
 1506              		.cfi_offset 7, -4
 1507              		.loc 1 1125 0
 1508 0002 3E4B     		ldr	r3, .L156
 1509              		.loc 1 1123 0
 1510 0004 0028     		cmp	r0, #0
 1511 0006 4BD1     		bne	.L131
 1512              		.loc 1 1125 0
 1513 0008 9E68     		ldr	r6, [r3, #8]
 1514 000a 16F04006 		ands	r6, r6, #64
 1515 000e 6DD1     		bne	.L132
 1516              		.loc 1 1132 0
 1517 0010 D670     		strb	r6, [r2, #3]
 1518              	.L133:
 1519              		.loc 1 1189 0
 1520 0012 1378     		ldrb	r3, [r2]	@ zero_extendqisi2
 1521              	.LVL129:
 1522              	.LBB152:
 1523              	.LBB153:
 1524              		.loc 1 2726 0
 1525 0014 092B     		cmp	r3, #9
 1526 0016 6CD9     		bls	.L154
 1527              		.loc 1 2724 0
 1528 0018 0020     		movs	r0, #0
 1529              	.LVL130:
 1530              	.L150:
 1531              		.loc 1 2729 0
 1532 001a 0A3B     		subs	r3, r3, #10
ARM GAS  C:\Users\jsyoon\AppData\Local\Temp\ccHEUWmT.s 			page 28


 1533              	.LVL131:
 1534 001c DBB2     		uxtb	r3, r3
 1535              	.LVL132:
 1536              		.loc 1 2728 0
 1537 001e 0130     		adds	r0, r0, #1
 1538              	.LVL133:
 1539              		.loc 1 2726 0
 1540 0020 092B     		cmp	r3, #9
 1541              		.loc 1 2728 0
 1542 0022 C0B2     		uxtb	r0, r0
 1543              	.LVL134:
 1544              		.loc 1 2726 0
 1545 0024 F9D8     		bhi	.L150
 1546 0026 0001     		lsls	r0, r0, #4
 1547              	.LVL135:
 1548 0028 C4B2     		uxtb	r4, r0
 1549              	.LVL136:
 1550              	.L149:
 1551              	.LBE153:
 1552              	.LBE152:
 1553              		.loc 1 1190 0
 1554 002a 5078     		ldrb	r0, [r2, #1]	@ zero_extendqisi2
 1555              	.LVL137:
 1556              		.loc 1 1189 0
 1557 002c 2343     		orrs	r3, r3, r4
 1558              	.LBB155:
 1559              	.LBB156:
 1560              		.loc 1 2726 0
 1561 002e 0928     		cmp	r0, #9
 1562              	.LBE156:
 1563              	.LBE155:
 1564              		.loc 1 1189 0
 1565 0030 4FEA0343 		lsl	r3, r3, #16
 1566              	.LBB159:
 1567              	.LBB157:
 1568              		.loc 1 2726 0
 1569 0034 5FD9     		bls	.L151
 1570              		.loc 1 2724 0
 1571 0036 0024     		movs	r4, #0
 1572              	.LVL138:
 1573              	.L139:
 1574              		.loc 1 2729 0
 1575 0038 0A38     		subs	r0, r0, #10
 1576              	.LVL139:
 1577 003a C0B2     		uxtb	r0, r0
 1578              	.LVL140:
 1579              		.loc 1 2728 0
 1580 003c 0134     		adds	r4, r4, #1
 1581              	.LVL141:
 1582              		.loc 1 2726 0
 1583 003e 0928     		cmp	r0, #9
 1584              		.loc 1 2728 0
 1585 0040 E4B2     		uxtb	r4, r4
 1586              	.LVL142:
 1587              		.loc 1 2726 0
 1588 0042 F9D8     		bhi	.L139
 1589 0044 2401     		lsls	r4, r4, #4
ARM GAS  C:\Users\jsyoon\AppData\Local\Temp\ccHEUWmT.s 			page 29


 1590              	.LVL143:
 1591 0046 E7B2     		uxtb	r7, r4
 1592              	.LVL144:
 1593              	.L137:
 1594              	.LBE157:
 1595              	.LBE159:
 1596              		.loc 1 1191 0
 1597 0048 9478     		ldrb	r4, [r2, #2]	@ zero_extendqisi2
 1598              	.LVL145:
 1599              		.loc 1 1190 0
 1600 004a 3843     		orrs	r0, r0, r7
 1601              	.LBB160:
 1602              	.LBB161:
 1603              		.loc 1 2726 0
 1604 004c 092C     		cmp	r4, #9
 1605              	.LBE161:
 1606              	.LBE160:
 1607              		.loc 1 1190 0
 1608 004e 4FEA0027 		lsl	r7, r0, #8
 1609              	.LBB163:
 1610              	.LBB162:
 1611              		.loc 1 2724 0
 1612 0052 4FF00005 		mov	r5, #0
 1613              		.loc 1 2726 0
 1614 0056 07D9     		bls	.L140
 1615              	.LVL146:
 1616              	.L142:
 1617              		.loc 1 2729 0
 1618 0058 0A3C     		subs	r4, r4, #10
 1619              	.LVL147:
 1620 005a E4B2     		uxtb	r4, r4
 1621              	.LVL148:
 1622              		.loc 1 2728 0
 1623 005c 0135     		adds	r5, r5, #1
 1624              	.LVL149:
 1625              		.loc 1 2726 0
 1626 005e 092C     		cmp	r4, #9
 1627              		.loc 1 2728 0
 1628 0060 EDB2     		uxtb	r5, r5
 1629              	.LVL150:
 1630              		.loc 1 2726 0
 1631 0062 F9D8     		bhi	.L142
 1632 0064 2D01     		lsls	r5, r5, #4
 1633              	.LVL151:
 1634 0066 EDB2     		uxtb	r5, r5
 1635              	.LVL152:
 1636              	.L140:
 1637              	.LBE162:
 1638              	.LBE163:
 1639              		.loc 1 1193 0
 1640 0068 107B     		ldrb	r0, [r2, #12]	@ zero_extendqisi2
 1641              	.LVL153:
 1642              	.LBB164:
 1643              	.LBB165:
 1644              		.loc 1 2726 0
 1645 006a 0928     		cmp	r0, #9
 1646              	.LBE165:
ARM GAS  C:\Users\jsyoon\AppData\Local\Temp\ccHEUWmT.s 			page 30


 1647              	.LBE164:
 1648              		.loc 1 1191 0
 1649 006c 45EA0404 		orr	r4, r5, r4
 1650              	.LBB167:
 1651              	.LBB166:
 1652              		.loc 1 2724 0
 1653 0070 4FF00005 		mov	r5, #0
 1654              		.loc 1 2726 0
 1655 0074 07D9     		bls	.L143
 1656              	.LVL154:
 1657              	.L145:
 1658              		.loc 1 2729 0
 1659 0076 0A38     		subs	r0, r0, #10
 1660              	.LVL155:
 1661 0078 C0B2     		uxtb	r0, r0
 1662              	.LVL156:
 1663              		.loc 1 2728 0
 1664 007a 0135     		adds	r5, r5, #1
 1665              	.LVL157:
 1666              		.loc 1 2726 0
 1667 007c 0928     		cmp	r0, #9
 1668              		.loc 1 2728 0
 1669 007e EDB2     		uxtb	r5, r5
 1670              	.LVL158:
 1671              		.loc 1 2726 0
 1672 0080 F9D8     		bhi	.L145
 1673 0082 2D01     		lsls	r5, r5, #4
 1674              	.LVL159:
 1675 0084 EDB2     		uxtb	r5, r5
 1676              	.LVL160:
 1677              	.L143:
 1678              	.LBE166:
 1679              	.LBE167:
 1680              		.loc 1 1189 0
 1681 0086 D2F804C0 		ldr	ip, [r2, #4]
 1682 008a 9268     		ldr	r2, [r2, #8]
 1683              	.LVL161:
 1684 008c 4CEA0202 		orr	r2, ip, r2
 1685              		.loc 1 1190 0
 1686 0090 1643     		orrs	r6, r6, r2
 1687              		.loc 1 1191 0
 1688 0092 3343     		orrs	r3, r3, r6
 1689              		.loc 1 1192 0
 1690 0094 1F43     		orrs	r7, r7, r3
 1691              		.loc 1 1193 0
 1692 0096 2843     		orrs	r0, r0, r5
 1693 0098 3C43     		orrs	r4, r4, r7
 1694              		.loc 1 1189 0
 1695 009a 44EA0060 		orr	r0, r4, r0, lsl #24
 1696              	.LVL162:
 1697 009e 13E0     		b	.L148
 1698              	.LVL163:
 1699              	.L131:
 1700              		.loc 1 1149 0
 1701 00a0 9B68     		ldr	r3, [r3, #8]
 1702 00a2 13F04003 		ands	r3, r3, #64
 1703 00a6 1ED1     		bne	.L134
ARM GAS  C:\Users\jsyoon\AppData\Local\Temp\ccHEUWmT.s 			page 31


 1704              		.loc 1 1157 0
 1705 00a8 D370     		strb	r3, [r2, #3]
 1706              	.L135:
 1707              		.loc 1 1179 0
 1708 00aa 5768     		ldr	r7, [r2, #4]
 1709 00ac 9068     		ldr	r0, [r2, #8]
 1710              	.LVL164:
 1711              		.loc 1 1181 0
 1712 00ae 9678     		ldrb	r6, [r2, #2]	@ zero_extendqisi2
 1713              		.loc 1 1179 0
 1714 00b0 1578     		ldrb	r5, [r2]	@ zero_extendqisi2
 1715              		.loc 1 1180 0
 1716 00b2 5478     		ldrb	r4, [r2, #1]	@ zero_extendqisi2
 1717              		.loc 1 1183 0
 1718 00b4 127B     		ldrb	r2, [r2, #12]	@ zero_extendqisi2
 1719              	.LVL165:
 1720              		.loc 1 1179 0
 1721 00b6 3843     		orrs	r0, r0, r7
 1722              		.loc 1 1180 0
 1723 00b8 3043     		orrs	r0, r0, r6
 1724              		.loc 1 1181 0
 1725 00ba 40EA0540 		orr	r0, r0, r5, lsl #16
 1726              		.loc 1 1182 0
 1727 00be 40EA0420 		orr	r0, r0, r4, lsl #8
 1728              		.loc 1 1183 0
 1729 00c2 40EA0260 		orr	r0, r0, r2, lsl #24
 1730              		.loc 1 1179 0
 1731 00c6 1843     		orrs	r0, r0, r3
 1732              	.LVL166:
 1733              	.L148:
 1734              		.loc 1 1199 0
 1735 00c8 0C4B     		ldr	r3, .L156
 1736 00ca CA25     		movs	r5, #202
 1737              		.loc 1 1200 0
 1738 00cc 5322     		movs	r2, #83
 1739              		.loc 1 1203 0
 1740 00ce B1F5807F 		cmp	r1, #256
 1741              		.loc 1 1199 0
 1742 00d2 5D62     		str	r5, [r3, #36]
 1743              		.loc 1 1200 0
 1744 00d4 5A62     		str	r2, [r3, #36]
 1745              		.loc 1 1205 0
 1746 00d6 0CBF     		ite	eq
 1747 00d8 D861     		streq	r0, [r3, #28]
 1748              		.loc 1 1209 0
 1749 00da 1862     		strne	r0, [r3, #32]
 1750              		.loc 1 1213 0
 1751 00dc 074B     		ldr	r3, .L156
 1752 00de FF22     		movs	r2, #255
 1753 00e0 5A62     		str	r2, [r3, #36]
 1754              		.loc 1 1214 0
 1755 00e2 F0BC     		pop	{r4, r5, r6, r7}
 1756 00e4 7047     		bx	lr
 1757              	.LVL167:
 1758              	.L134:
 1759 00e6 D378     		ldrb	r3, [r2, #3]	@ zero_extendqisi2
 1760 00e8 1B04     		lsls	r3, r3, #16
ARM GAS  C:\Users\jsyoon\AppData\Local\Temp\ccHEUWmT.s 			page 32


 1761 00ea DEE7     		b	.L135
 1762              	.L132:
 1763 00ec D678     		ldrb	r6, [r2, #3]	@ zero_extendqisi2
 1764 00ee 3604     		lsls	r6, r6, #16
 1765 00f0 8FE7     		b	.L133
 1766              	.LVL168:
 1767              	.L154:
 1768              	.LBB168:
 1769              	.LBB154:
 1770              		.loc 1 2726 0
 1771 00f2 0024     		movs	r4, #0
 1772 00f4 99E7     		b	.L149
 1773              	.LVL169:
 1774              	.L151:
 1775              	.LBE154:
 1776              	.LBE168:
 1777              	.LBB169:
 1778              	.LBB158:
 1779 00f6 0027     		movs	r7, #0
 1780 00f8 A6E7     		b	.L137
 1781              	.L157:
 1782 00fa 00BF     		.align	2
 1783              	.L156:
 1784 00fc 00280040 		.word	1073752064
 1785              	.LBE158:
 1786              	.LBE169:
 1787              		.cfi_endproc
 1788              	.LFE127:
 1789              		.size	RTC_SetAlarm, .-RTC_SetAlarm
 1790              		.section	.text.RTC_AlarmStructInit,"ax",%progbits
 1791              		.align	2
 1792              		.p2align 4,,15
 1793              		.global	RTC_AlarmStructInit
 1794              		.thumb
 1795              		.thumb_func
 1796              		.type	RTC_AlarmStructInit, %function
 1797              	RTC_AlarmStructInit:
 1798              	.LFB128:
 1799              		.loc 1 1225 0
 1800              		.cfi_startproc
 1801              		@ args = 0, pretend = 0, frame = 0
 1802              		@ frame_needed = 0, uses_anonymous_args = 0
 1803              		@ link register save eliminated.
 1804              	.LVL170:
 1805              		.loc 1 1227 0
 1806 0000 0023     		movs	r3, #0
 1807              		.loc 1 1234 0
 1808 0002 0122     		movs	r2, #1
 1809 0004 0273     		strb	r2, [r0, #12]
 1810              		.loc 1 1227 0
 1811 0006 C370     		strb	r3, [r0, #3]
 1812              		.loc 1 1228 0
 1813 0008 0370     		strb	r3, [r0]
 1814              		.loc 1 1229 0
 1815 000a 4370     		strb	r3, [r0, #1]
 1816              		.loc 1 1230 0
 1817 000c 8370     		strb	r3, [r0, #2]
ARM GAS  C:\Users\jsyoon\AppData\Local\Temp\ccHEUWmT.s 			page 33


 1818              		.loc 1 1233 0
 1819 000e 8360     		str	r3, [r0, #8]
 1820              		.loc 1 1237 0
 1821 0010 4360     		str	r3, [r0, #4]
 1822 0012 7047     		bx	lr
 1823              		.cfi_endproc
 1824              	.LFE128:
 1825              		.size	RTC_AlarmStructInit, .-RTC_AlarmStructInit
 1826 0014 AFF30080 		.section	.text.RTC_GetAlarm,"ax",%progbits
 1826      AFF30080 
 1826      AFF30080 
 1827              		.align	2
 1828              		.p2align 4,,15
 1829              		.global	RTC_GetAlarm
 1830              		.thumb
 1831              		.thumb_func
 1832              		.type	RTC_GetAlarm, %function
 1833              	RTC_GetAlarm:
 1834              	.LFB129:
 1835              		.loc 1 1255 0
 1836              		.cfi_startproc
 1837              		@ args = 0, pretend = 0, frame = 0
 1838              		@ frame_needed = 0, uses_anonymous_args = 0
 1839              		@ link register save eliminated.
 1840              	.LVL171:
 1841              		.loc 1 1265 0
 1842 0000 234B     		ldr	r3, .L163
 1843              		.loc 1 1263 0
 1844 0002 B1F5807F 		cmp	r1, #256
 1845              		.loc 1 1265 0
 1846 0006 0CBF     		ite	eq
 1847 0008 DB69     		ldreq	r3, [r3, #28]
 1848              	.LVL172:
 1849              		.loc 1 1269 0
 1850 000a 1B6A     		ldrne	r3, [r3, #32]
 1851              	.LVL173:
 1852              		.loc 1 1255 0
 1853 000c 2DE9F001 		push	{r4, r5, r6, r7, r8}
 1854              		.cfi_def_cfa_offset 20
 1855              		.cfi_offset 4, -20
 1856              		.cfi_offset 5, -16
 1857              		.cfi_offset 6, -12
 1858              		.cfi_offset 7, -8
 1859              		.cfi_offset 8, -4
 1860              		.loc 1 1277 0
 1861 0010 DEB2     		uxtb	r6, r3
 1862              		.loc 1 1279 0
 1863 0012 03F48008 		and	r8, r3, #4194304
 1864              		.loc 1 1273 0
 1865 0016 C3F30545 		ubfx	r5, r3, #16, #6
 1866              		.loc 1 1275 0
 1867 001a C3F30624 		ubfx	r4, r3, #8, #7
 1868              		.loc 1 1280 0
 1869 001e C3F30561 		ubfx	r1, r3, #24, #6
 1870              	.LVL174:
 1871              		.loc 1 1281 0
 1872 0022 03F0804C 		and	ip, r3, #1073741824
ARM GAS  C:\Users\jsyoon\AppData\Local\Temp\ccHEUWmT.s 			page 34


 1873              		.loc 1 1277 0
 1874 0026 06F07F07 		and	r7, r6, #127
 1875              		.loc 1 1279 0
 1876 002a 4FEA1848 		lsr	r8, r8, #16
 1877              		.loc 1 1282 0
 1878 002e 03F08033 		and	r3, r3, #-2139062144
 1879              	.LVL175:
 1880              		.loc 1 1277 0
 1881 0032 9770     		strb	r7, [r2, #2]
 1882              		.loc 1 1279 0
 1883 0034 82F80380 		strb	r8, [r2, #3]
 1884              		.loc 1 1273 0
 1885 0038 1570     		strb	r5, [r2]
 1886              		.loc 1 1275 0
 1887 003a 5470     		strb	r4, [r2, #1]
 1888              		.loc 1 1280 0
 1889 003c 1173     		strb	r1, [r2, #12]
 1890              		.loc 1 1281 0
 1891 003e C2F808C0 		str	ip, [r2, #8]
 1892              		.loc 1 1282 0
 1893 0042 5360     		str	r3, [r2, #4]
 1894              		.loc 1 1284 0
 1895 0044 08BB     		cbnz	r0, .L159
 1896              	.LVL176:
 1897              	.LBB170:
 1898              	.LBB171:
 1899              		.loc 1 2743 0
 1900 0046 4FEA151C 		lsr	ip, r5, #4
 1901              	.LBE171:
 1902              	.LBE170:
 1903              	.LBB174:
 1904              	.LBB175:
 1905 004a 2009     		lsrs	r0, r4, #4
 1906              	.LVL177:
 1907              	.LBE175:
 1908              	.LBE174:
 1909              	.LBB178:
 1910              	.LBB179:
 1911 004c 0B09     		lsrs	r3, r1, #4
 1912              	.LBE179:
 1913              	.LBE178:
 1914              	.LBB182:
 1915              	.LBB183:
 1916 004e 3F09     		lsrs	r7, r7, #4
 1917 0050 07EB8707 		add	r7, r7, r7, lsl #2
 1918              		.loc 1 2744 0
 1919 0054 06F00F06 		and	r6, r6, #15
 1920              	.LBE183:
 1921              	.LBE182:
 1922              	.LBB185:
 1923              	.LBB172:
 1924              		.loc 1 2743 0
 1925 0058 0CEB8C0C 		add	ip, ip, ip, lsl #2
 1926              		.loc 1 2744 0
 1927 005c 05F00F05 		and	r5, r5, #15
 1928              	.LVL178:
 1929              	.LBE172:
ARM GAS  C:\Users\jsyoon\AppData\Local\Temp\ccHEUWmT.s 			page 35


 1930              	.LBE185:
 1931              	.LBB186:
 1932              	.LBB176:
 1933              		.loc 1 2743 0
 1934 0060 00EB8000 		add	r0, r0, r0, lsl #2
 1935              		.loc 1 2744 0
 1936 0064 04F00F04 		and	r4, r4, #15
 1937              	.LBE176:
 1938              	.LBE186:
 1939              	.LBB187:
 1940              	.LBB180:
 1941              		.loc 1 2743 0
 1942 0068 03EB8303 		add	r3, r3, r3, lsl #2
 1943              		.loc 1 2744 0
 1944 006c 01F00F01 		and	r1, r1, #15
 1945              	.LBE180:
 1946              	.LBE187:
 1947              	.LBB188:
 1948              	.LBB184:
 1949 0070 06EB4707 		add	r7, r6, r7, lsl #1
 1950              	.LBE184:
 1951              	.LBE188:
 1952              	.LBB189:
 1953              	.LBB173:
 1954 0074 05EB4C0C 		add	ip, r5, ip, lsl #1
 1955              	.LBE173:
 1956              	.LBE189:
 1957              	.LBB190:
 1958              	.LBB177:
 1959 0078 04EB4000 		add	r0, r4, r0, lsl #1
 1960              	.LBE177:
 1961              	.LBE190:
 1962              	.LBB191:
 1963              	.LBB181:
 1964 007c 01EB4303 		add	r3, r1, r3, lsl #1
 1965              	.LBE181:
 1966              	.LBE191:
 1967              		.loc 1 1290 0
 1968 0080 9770     		strb	r7, [r2, #2]
 1969              		.loc 1 1286 0
 1970 0082 82F800C0 		strb	ip, [r2]
 1971              	.LVL179:
 1972              		.loc 1 1288 0
 1973 0086 5070     		strb	r0, [r2, #1]
 1974              	.LVL180:
 1975              		.loc 1 1292 0
 1976 0088 1373     		strb	r3, [r2, #12]
 1977              	.L159:
 1978              		.loc 1 1294 0
 1979 008a BDE8F001 		pop	{r4, r5, r6, r7, r8}
 1980 008e 7047     		bx	lr
 1981              	.L164:
 1982              		.align	2
 1983              	.L163:
 1984 0090 00280040 		.word	1073752064
 1985              		.cfi_endproc
 1986              	.LFE129:
ARM GAS  C:\Users\jsyoon\AppData\Local\Temp\ccHEUWmT.s 			page 36


 1987              		.size	RTC_GetAlarm, .-RTC_GetAlarm
 1988 0094 AFF30080 		.section	.text.RTC_AlarmCmd,"ax",%progbits
 1988      AFF30080 
 1988      AFF30080 
 1989              		.align	2
 1990              		.p2align 4,,15
 1991              		.global	RTC_AlarmCmd
 1992              		.thumb
 1993              		.thumb_func
 1994              		.type	RTC_AlarmCmd, %function
 1995              	RTC_AlarmCmd:
 1996              	.LFB130:
 1997              		.loc 1 1309 0
 1998              		.cfi_startproc
 1999              		@ args = 0, pretend = 0, frame = 8
 2000              		@ frame_needed = 0, uses_anonymous_args = 0
 2001              		@ link register save eliminated.
 2002              	.LVL181:
 2003 0000 30B4     		push	{r4, r5}
 2004              		.cfi_def_cfa_offset 8
 2005              		.cfi_offset 4, -8
 2006              		.cfi_offset 5, -4
 2007              		.loc 1 1319 0
 2008 0002 154B     		ldr	r3, .L172
 2009              		.loc 1 1309 0
 2010 0004 82B0     		sub	sp, sp, #8
 2011              		.cfi_def_cfa_offset 16
 2012              		.loc 1 1320 0
 2013 0006 5322     		movs	r2, #83
 2014              		.loc 1 1310 0
 2015 0008 0025     		movs	r5, #0
 2016              		.loc 1 1319 0
 2017 000a CA24     		movs	r4, #202
 2018              		.loc 1 1310 0
 2019 000c 0195     		str	r5, [sp, #4]
 2020              	.LVL182:
 2021              		.loc 1 1319 0
 2022 000e 5C62     		str	r4, [r3, #36]
 2023              		.loc 1 1320 0
 2024 0010 5A62     		str	r2, [r3, #36]
 2025              		.loc 1 1325 0
 2026 0012 9A68     		ldr	r2, [r3, #8]
 2027              		.loc 1 1323 0
 2028 0014 E1B9     		cbnz	r1, .L171
 2029              		.loc 1 1332 0
 2030 0016 22EA0002 		bic	r2, r2, r0
 2031 001a 9A60     		str	r2, [r3, #8]
 2032 001c 000A     		lsrs	r0, r0, #8
 2033              	.LVL183:
 2034              		.loc 1 1337 0
 2035 001e 1946     		mov	r1, r3
 2036              	.LVL184:
 2037 0020 00E0     		b	.L170
 2038              	.LVL185:
 2039              	.L168:
 2040              		.loc 1 1339 0 discriminator 1
 2041 0022 4AB9     		cbnz	r2, .L169
ARM GAS  C:\Users\jsyoon\AppData\Local\Temp\ccHEUWmT.s 			page 37


 2042              	.LVL186:
 2043              	.L170:
 2044              		.loc 1 1337 0 discriminator 1
 2045 0024 CA68     		ldr	r2, [r1, #12]
 2046              		.loc 1 1338 0 discriminator 1
 2047 0026 019B     		ldr	r3, [sp, #4]
 2048 0028 0133     		adds	r3, r3, #1
 2049 002a 0193     		str	r3, [sp, #4]
 2050              		.loc 1 1339 0 discriminator 1
 2051 002c 019B     		ldr	r3, [sp, #4]
 2052 002e B3F5803F 		cmp	r3, #65536
 2053              		.loc 1 1337 0 discriminator 1
 2054 0032 00EA0202 		and	r2, r0, r2
 2055              	.LVL187:
 2056              		.loc 1 1339 0 discriminator 1
 2057 0036 F4D1     		bne	.L168
 2058              	.L169:
 2059              		.loc 1 1341 0
 2060 0038 074B     		ldr	r3, .L172
 2061 003a DB68     		ldr	r3, [r3, #12]
 2062 003c 0342     		tst	r3, r0
 2063              		.loc 1 1327 0
 2064 003e 0CBF     		ite	eq
 2065 0040 0020     		moveq	r0, #0
 2066 0042 0120     		movne	r0, #1
 2067              	.LVL188:
 2068              	.L167:
 2069              		.loc 1 1352 0
 2070 0044 044B     		ldr	r3, .L172
 2071 0046 FF22     		movs	r2, #255
 2072 0048 5A62     		str	r2, [r3, #36]
 2073              		.loc 1 1355 0
 2074 004a 02B0     		add	sp, sp, #8
 2075              		@ sp needed
 2076 004c 30BC     		pop	{r4, r5}
 2077 004e 7047     		bx	lr
 2078              	.LVL189:
 2079              	.L171:
 2080              		.loc 1 1325 0
 2081 0050 1043     		orrs	r0, r0, r2
 2082              	.LVL190:
 2083 0052 9860     		str	r0, [r3, #8]
 2084              	.LVL191:
 2085              		.loc 1 1327 0
 2086 0054 0120     		movs	r0, #1
 2087 0056 F5E7     		b	.L167
 2088              	.L173:
 2089              		.align	2
 2090              	.L172:
 2091 0058 00280040 		.word	1073752064
 2092              		.cfi_endproc
 2093              	.LFE130:
 2094              		.size	RTC_AlarmCmd, .-RTC_AlarmCmd
 2095 005c AFF30080 		.section	.text.RTC_AlarmSubSecondConfig,"ax",%progbits
 2096              		.align	2
 2097              		.p2align 4,,15
 2098              		.global	RTC_AlarmSubSecondConfig
ARM GAS  C:\Users\jsyoon\AppData\Local\Temp\ccHEUWmT.s 			page 38


 2099              		.thumb
 2100              		.thumb_func
 2101              		.type	RTC_AlarmSubSecondConfig, %function
 2102              	RTC_AlarmSubSecondConfig:
 2103              	.LFB131:
 2104              		.loc 1 1403 0
 2105              		.cfi_startproc
 2106              		@ args = 0, pretend = 0, frame = 0
 2107              		@ frame_needed = 0, uses_anonymous_args = 0
 2108              		@ link register save eliminated.
 2109              	.LVL192:
 2110 0000 30B4     		push	{r4, r5}
 2111              		.cfi_def_cfa_offset 8
 2112              		.cfi_offset 4, -8
 2113              		.cfi_offset 5, -4
 2114              		.loc 1 1412 0
 2115 0002 084B     		ldr	r3, .L177
 2116              		.loc 1 1416 0
 2117 0004 0A43     		orrs	r2, r2, r1
 2118              	.LVL193:
 2119              		.loc 1 1412 0
 2120 0006 CA25     		movs	r5, #202
 2121              		.loc 1 1413 0
 2122 0008 5324     		movs	r4, #83
 2123              		.loc 1 1418 0
 2124 000a B0F5807F 		cmp	r0, #256
 2125              		.loc 1 1412 0
 2126 000e 5D62     		str	r5, [r3, #36]
 2127              		.loc 1 1413 0
 2128 0010 5C62     		str	r4, [r3, #36]
 2129              		.loc 1 1421 0
 2130 0012 0CBF     		ite	eq
 2131 0014 5A64     		streq	r2, [r3, #68]
 2132              		.loc 1 1426 0
 2133 0016 9A64     		strne	r2, [r3, #72]
 2134              		.loc 1 1430 0
 2135 0018 024B     		ldr	r3, .L177
 2136 001a FF22     		movs	r2, #255
 2137              	.LVL194:
 2138 001c 5A62     		str	r2, [r3, #36]
 2139              		.loc 1 1432 0
 2140 001e 30BC     		pop	{r4, r5}
 2141 0020 7047     		bx	lr
 2142              	.L178:
 2143 0022 00BF     		.align	2
 2144              	.L177:
 2145 0024 00280040 		.word	1073752064
 2146              		.cfi_endproc
 2147              	.LFE131:
 2148              		.size	RTC_AlarmSubSecondConfig, .-RTC_AlarmSubSecondConfig
 2149 0028 AFF30080 		.section	.text.RTC_GetAlarmSubSecond,"ax",%progbits
 2149      AFF30080 
 2150              		.align	2
 2151              		.p2align 4,,15
 2152              		.global	RTC_GetAlarmSubSecond
 2153              		.thumb
 2154              		.thumb_func
ARM GAS  C:\Users\jsyoon\AppData\Local\Temp\ccHEUWmT.s 			page 39


 2155              		.type	RTC_GetAlarmSubSecond, %function
 2156              	RTC_GetAlarmSubSecond:
 2157              	.LFB132:
 2158              		.loc 1 1444 0
 2159              		.cfi_startproc
 2160              		@ args = 0, pretend = 0, frame = 0
 2161              		@ frame_needed = 0, uses_anonymous_args = 0
 2162              		@ link register save eliminated.
 2163              	.LVL195:
 2164              		.loc 1 1450 0
 2165 0000 044B     		ldr	r3, .L182
 2166              		.loc 1 1448 0
 2167 0002 B0F5807F 		cmp	r0, #256
 2168              		.loc 1 1450 0
 2169 0006 0CBF     		ite	eq
 2170 0008 586C     		ldreq	r0, [r3, #68]
 2171              	.LVL196:
 2172              		.loc 1 1454 0
 2173 000a 986C     		ldrne	r0, [r3, #72]
 2174 000c C0F30E00 		ubfx	r0, r0, #0, #15
 2175              	.LVL197:
 2176              		.loc 1 1458 0
 2177 0010 7047     		bx	lr
 2178              	.L183:
 2179 0012 00BF     		.align	2
 2180              	.L182:
 2181 0014 00280040 		.word	1073752064
 2182              		.cfi_endproc
 2183              	.LFE132:
 2184              		.size	RTC_GetAlarmSubSecond, .-RTC_GetAlarmSubSecond
 2185 0018 AFF30080 		.section	.text.RTC_WakeUpClockConfig,"ax",%progbits
 2185      AFF30080 
 2186              		.align	2
 2187              		.p2align 4,,15
 2188              		.global	RTC_WakeUpClockConfig
 2189              		.thumb
 2190              		.thumb_func
 2191              		.type	RTC_WakeUpClockConfig, %function
 2192              	RTC_WakeUpClockConfig:
 2193              	.LFB133:
 2194              		.loc 1 1493 0
 2195              		.cfi_startproc
 2196              		@ args = 0, pretend = 0, frame = 0
 2197              		@ frame_needed = 0, uses_anonymous_args = 0
 2198              		@ link register save eliminated.
 2199              	.LVL198:
 2200              		.loc 1 1498 0
 2201 0000 074B     		ldr	r3, .L185
 2202 0002 CA21     		movs	r1, #202
 2203              		.loc 1 1499 0
 2204 0004 5322     		movs	r2, #83
 2205              		.loc 1 1498 0
 2206 0006 5962     		str	r1, [r3, #36]
 2207              		.loc 1 1499 0
 2208 0008 5A62     		str	r2, [r3, #36]
 2209              		.loc 1 1502 0
 2210 000a 9A68     		ldr	r2, [r3, #8]
ARM GAS  C:\Users\jsyoon\AppData\Local\Temp\ccHEUWmT.s 			page 40


 2211 000c 22F00702 		bic	r2, r2, #7
 2212 0010 9A60     		str	r2, [r3, #8]
 2213              		.loc 1 1505 0
 2214 0012 9968     		ldr	r1, [r3, #8]
 2215              		.loc 1 1508 0
 2216 0014 FF22     		movs	r2, #255
 2217              		.loc 1 1505 0
 2218 0016 0843     		orrs	r0, r0, r1
 2219              	.LVL199:
 2220 0018 9860     		str	r0, [r3, #8]
 2221              		.loc 1 1508 0
 2222 001a 5A62     		str	r2, [r3, #36]
 2223 001c 7047     		bx	lr
 2224              	.L186:
 2225 001e 00BF     		.align	2
 2226              	.L185:
 2227 0020 00280040 		.word	1073752064
 2228              		.cfi_endproc
 2229              	.LFE133:
 2230              		.size	RTC_WakeUpClockConfig, .-RTC_WakeUpClockConfig
 2231 0024 AFF30080 		.section	.text.RTC_SetWakeUpCounter,"ax",%progbits
 2231      AFF30080 
 2231      AFF30080 
 2232              		.align	2
 2233              		.p2align 4,,15
 2234              		.global	RTC_SetWakeUpCounter
 2235              		.thumb
 2236              		.thumb_func
 2237              		.type	RTC_SetWakeUpCounter, %function
 2238              	RTC_SetWakeUpCounter:
 2239              	.LFB134:
 2240              		.loc 1 1520 0
 2241              		.cfi_startproc
 2242              		@ args = 0, pretend = 0, frame = 0
 2243              		@ frame_needed = 0, uses_anonymous_args = 0
 2244              		@ link register save eliminated.
 2245              	.LVL200:
 2246              		.loc 1 1525 0
 2247 0000 054B     		ldr	r3, .L188
 2248              		.loc 1 1520 0
 2249 0002 10B4     		push	{r4}
 2250              		.cfi_def_cfa_offset 4
 2251              		.cfi_offset 4, -4
 2252              		.loc 1 1526 0
 2253 0004 5321     		movs	r1, #83
 2254              		.loc 1 1525 0
 2255 0006 CA24     		movs	r4, #202
 2256              		.loc 1 1532 0
 2257 0008 FF22     		movs	r2, #255
 2258              		.loc 1 1525 0
 2259 000a 5C62     		str	r4, [r3, #36]
 2260              		.loc 1 1526 0
 2261 000c 5962     		str	r1, [r3, #36]
 2262              		.loc 1 1533 0
 2263 000e 5DF8044B 		ldr	r4, [sp], #4
 2264              		.loc 1 1529 0
 2265 0012 5861     		str	r0, [r3, #20]
ARM GAS  C:\Users\jsyoon\AppData\Local\Temp\ccHEUWmT.s 			page 41


 2266              		.loc 1 1532 0
 2267 0014 5A62     		str	r2, [r3, #36]
 2268              		.loc 1 1533 0
 2269 0016 7047     		bx	lr
 2270              	.L189:
 2271              		.align	2
 2272              	.L188:
 2273 0018 00280040 		.word	1073752064
 2274              		.cfi_endproc
 2275              	.LFE134:
 2276              		.size	RTC_SetWakeUpCounter, .-RTC_SetWakeUpCounter
 2277 001c AFF30080 		.section	.text.RTC_GetWakeUpCounter,"ax",%progbits
 2278              		.align	2
 2279              		.p2align 4,,15
 2280              		.global	RTC_GetWakeUpCounter
 2281              		.thumb
 2282              		.thumb_func
 2283              		.type	RTC_GetWakeUpCounter, %function
 2284              	RTC_GetWakeUpCounter:
 2285              	.LFB135:
 2286              		.loc 1 1541 0
 2287              		.cfi_startproc
 2288              		@ args = 0, pretend = 0, frame = 0
 2289              		@ frame_needed = 0, uses_anonymous_args = 0
 2290              		@ link register save eliminated.
 2291              		.loc 1 1543 0
 2292 0000 014B     		ldr	r3, .L191
 2293 0002 5869     		ldr	r0, [r3, #20]
 2294              		.loc 1 1544 0
 2295 0004 80B2     		uxth	r0, r0
 2296 0006 7047     		bx	lr
 2297              	.L192:
 2298              		.align	2
 2299              	.L191:
 2300 0008 00280040 		.word	1073752064
 2301              		.cfi_endproc
 2302              	.LFE135:
 2303              		.size	RTC_GetWakeUpCounter, .-RTC_GetWakeUpCounter
 2304 000c AFF30080 		.section	.text.RTC_WakeUpCmd,"ax",%progbits
 2305              		.align	2
 2306              		.p2align 4,,15
 2307              		.global	RTC_WakeUpCmd
 2308              		.thumb
 2309              		.thumb_func
 2310              		.type	RTC_WakeUpCmd, %function
 2311              	RTC_WakeUpCmd:
 2312              	.LFB136:
 2313              		.loc 1 1553 0
 2314              		.cfi_startproc
 2315              		@ args = 0, pretend = 0, frame = 8
 2316              		@ frame_needed = 0, uses_anonymous_args = 0
 2317              		@ link register save eliminated.
 2318              	.LVL201:
 2319 0000 10B4     		push	{r4}
 2320              		.cfi_def_cfa_offset 4
 2321              		.cfi_offset 4, -4
 2322              		.loc 1 1562 0
ARM GAS  C:\Users\jsyoon\AppData\Local\Temp\ccHEUWmT.s 			page 42


 2323 0002 1449     		ldr	r1, .L203
 2324              		.loc 1 1553 0
 2325 0004 83B0     		sub	sp, sp, #12
 2326              		.cfi_def_cfa_offset 16
 2327              		.loc 1 1563 0
 2328 0006 5323     		movs	r3, #83
 2329              		.loc 1 1554 0
 2330 0008 0024     		movs	r4, #0
 2331              		.loc 1 1562 0
 2332 000a CA22     		movs	r2, #202
 2333              		.loc 1 1554 0
 2334 000c 0194     		str	r4, [sp, #4]
 2335              	.LVL202:
 2336              		.loc 1 1562 0
 2337 000e 4A62     		str	r2, [r1, #36]
 2338              		.loc 1 1563 0
 2339 0010 4B62     		str	r3, [r1, #36]
 2340              		.loc 1 1568 0
 2341 0012 8B68     		ldr	r3, [r1, #8]
 2342              		.loc 1 1565 0
 2343 0014 C8B9     		cbnz	r0, .L201
 2344              		.loc 1 1574 0
 2345 0016 23F48063 		bic	r3, r3, #1024
 2346 001a 8B60     		str	r3, [r1, #8]
 2347 001c 00E0     		b	.L197
 2348              	.LVL203:
 2349              	.L202:
 2350              		.loc 1 1580 0 discriminator 1
 2351 001e 4AB9     		cbnz	r2, .L196
 2352              	.LVL204:
 2353              	.L197:
 2354              		.loc 1 1578 0 discriminator 1
 2355 0020 CA68     		ldr	r2, [r1, #12]
 2356              		.loc 1 1579 0 discriminator 1
 2357 0022 019B     		ldr	r3, [sp, #4]
 2358 0024 0133     		adds	r3, r3, #1
 2359 0026 0193     		str	r3, [sp, #4]
 2360              		.loc 1 1580 0 discriminator 1
 2361 0028 019B     		ldr	r3, [sp, #4]
 2362 002a B3F5803F 		cmp	r3, #65536
 2363              		.loc 1 1578 0 discriminator 1
 2364 002e 02F00402 		and	r2, r2, #4
 2365              	.LVL205:
 2366              		.loc 1 1580 0 discriminator 1
 2367 0032 F4D1     		bne	.L202
 2368              	.L196:
 2369              		.loc 1 1582 0
 2370 0034 074B     		ldr	r3, .L203
 2371 0036 D868     		ldr	r0, [r3, #12]
 2372              	.LVL206:
 2373              		.loc 1 1569 0
 2374 0038 C0F38000 		ubfx	r0, r0, #2, #1
 2375              	.LVL207:
 2376              	.L195:
 2377              		.loc 1 1593 0
 2378 003c 054B     		ldr	r3, .L203
 2379 003e FF22     		movs	r2, #255
ARM GAS  C:\Users\jsyoon\AppData\Local\Temp\ccHEUWmT.s 			page 43


 2380 0040 5A62     		str	r2, [r3, #36]
 2381              		.loc 1 1596 0
 2382 0042 03B0     		add	sp, sp, #12
 2383              		@ sp needed
 2384 0044 5DF8044B 		ldr	r4, [sp], #4
 2385 0048 7047     		bx	lr
 2386              	.LVL208:
 2387              	.L201:
 2388              		.loc 1 1568 0
 2389 004a 43F48063 		orr	r3, r3, #1024
 2390 004e 8B60     		str	r3, [r1, #8]
 2391              	.LVL209:
 2392              		.loc 1 1569 0
 2393 0050 0120     		movs	r0, #1
 2394              	.LVL210:
 2395 0052 F3E7     		b	.L195
 2396              	.L204:
 2397              		.align	2
 2398              	.L203:
 2399 0054 00280040 		.word	1073752064
 2400              		.cfi_endproc
 2401              	.LFE136:
 2402              		.size	RTC_WakeUpCmd, .-RTC_WakeUpCmd
 2403 0058 AFF30080 		.section	.text.RTC_DayLightSavingConfig,"ax",%progbits
 2403      AFF30080 
 2404              		.align	2
 2405              		.p2align 4,,15
 2406              		.global	RTC_DayLightSavingConfig
 2407              		.thumb
 2408              		.thumb_func
 2409              		.type	RTC_DayLightSavingConfig, %function
 2410              	RTC_DayLightSavingConfig:
 2411              	.LFB137:
 2412              		.loc 1 1630 0
 2413              		.cfi_startproc
 2414              		@ args = 0, pretend = 0, frame = 0
 2415              		@ frame_needed = 0, uses_anonymous_args = 0
 2416              		@ link register save eliminated.
 2417              	.LVL211:
 2418              		.loc 1 1636 0
 2419 0000 094B     		ldr	r3, .L206
 2420              		.loc 1 1630 0
 2421 0002 10B4     		push	{r4}
 2422              		.cfi_def_cfa_offset 4
 2423              		.cfi_offset 4, -4
 2424              		.loc 1 1637 0
 2425 0004 5322     		movs	r2, #83
 2426              		.loc 1 1636 0
 2427 0006 CA24     		movs	r4, #202
 2428 0008 5C62     		str	r4, [r3, #36]
 2429              		.loc 1 1637 0
 2430 000a 5A62     		str	r2, [r3, #36]
 2431              		.loc 1 1640 0
 2432 000c 9A68     		ldr	r2, [r3, #8]
 2433              		.loc 1 1647 0
 2434 000e 5DF8044B 		ldr	r4, [sp], #4
 2435              		.loc 1 1640 0
ARM GAS  C:\Users\jsyoon\AppData\Local\Temp\ccHEUWmT.s 			page 44


 2436 0012 22F48022 		bic	r2, r2, #262144
 2437 0016 9A60     		str	r2, [r3, #8]
 2438              		.loc 1 1643 0
 2439 0018 9A68     		ldr	r2, [r3, #8]
 2440 001a 1143     		orrs	r1, r1, r2
 2441              	.LVL212:
 2442 001c 0843     		orrs	r0, r0, r1
 2443              	.LVL213:
 2444              		.loc 1 1646 0
 2445 001e FF21     		movs	r1, #255
 2446              		.loc 1 1643 0
 2447 0020 9860     		str	r0, [r3, #8]
 2448              		.loc 1 1646 0
 2449 0022 5962     		str	r1, [r3, #36]
 2450              		.loc 1 1647 0
 2451 0024 7047     		bx	lr
 2452              	.L207:
 2453 0026 00BF     		.align	2
 2454              	.L206:
 2455 0028 00280040 		.word	1073752064
 2456              		.cfi_endproc
 2457              	.LFE137:
 2458              		.size	RTC_DayLightSavingConfig, .-RTC_DayLightSavingConfig
 2459 002c AFF30080 		.section	.text.RTC_GetStoreOperation,"ax",%progbits
 2460              		.align	2
 2461              		.p2align 4,,15
 2462              		.global	RTC_GetStoreOperation
 2463              		.thumb
 2464              		.thumb_func
 2465              		.type	RTC_GetStoreOperation, %function
 2466              	RTC_GetStoreOperation:
 2467              	.LFB138:
 2468              		.loc 1 1657 0
 2469              		.cfi_startproc
 2470              		@ args = 0, pretend = 0, frame = 0
 2471              		@ frame_needed = 0, uses_anonymous_args = 0
 2472              		@ link register save eliminated.
 2473              		.loc 1 1658 0
 2474 0000 024B     		ldr	r3, .L209
 2475 0002 9868     		ldr	r0, [r3, #8]
 2476              		.loc 1 1659 0
 2477 0004 00F48020 		and	r0, r0, #262144
 2478 0008 7047     		bx	lr
 2479              	.L210:
 2480 000a 00BF     		.align	2
 2481              	.L209:
 2482 000c 00280040 		.word	1073752064
 2483              		.cfi_endproc
 2484              	.LFE138:
 2485              		.size	RTC_GetStoreOperation, .-RTC_GetStoreOperation
 2486              		.section	.text.RTC_OutputConfig,"ax",%progbits
 2487              		.align	2
 2488              		.p2align 4,,15
 2489              		.global	RTC_OutputConfig
 2490              		.thumb
 2491              		.thumb_func
 2492              		.type	RTC_OutputConfig, %function
ARM GAS  C:\Users\jsyoon\AppData\Local\Temp\ccHEUWmT.s 			page 45


 2493              	RTC_OutputConfig:
 2494              	.LFB139:
 2495              		.loc 1 1696 0
 2496              		.cfi_startproc
 2497              		@ args = 0, pretend = 0, frame = 0
 2498              		@ frame_needed = 0, uses_anonymous_args = 0
 2499              		@ link register save eliminated.
 2500              	.LVL214:
 2501              		.loc 1 1702 0
 2502 0000 094B     		ldr	r3, .L212
 2503              		.loc 1 1696 0
 2504 0002 10B4     		push	{r4}
 2505              		.cfi_def_cfa_offset 4
 2506              		.cfi_offset 4, -4
 2507              		.loc 1 1703 0
 2508 0004 5322     		movs	r2, #83
 2509              		.loc 1 1702 0
 2510 0006 CA24     		movs	r4, #202
 2511 0008 5C62     		str	r4, [r3, #36]
 2512              		.loc 1 1703 0
 2513 000a 5A62     		str	r2, [r3, #36]
 2514              		.loc 1 1706 0
 2515 000c 9A68     		ldr	r2, [r3, #8]
 2516              		.loc 1 1713 0
 2517 000e 5DF8044B 		ldr	r4, [sp], #4
 2518              		.loc 1 1706 0
 2519 0012 22F4E002 		bic	r2, r2, #7340032
 2520 0016 9A60     		str	r2, [r3, #8]
 2521              		.loc 1 1709 0
 2522 0018 9A68     		ldr	r2, [r3, #8]
 2523 001a 1143     		orrs	r1, r1, r2
 2524              	.LVL215:
 2525 001c 0843     		orrs	r0, r0, r1
 2526              	.LVL216:
 2527              		.loc 1 1712 0
 2528 001e FF21     		movs	r1, #255
 2529              		.loc 1 1709 0
 2530 0020 9860     		str	r0, [r3, #8]
 2531              		.loc 1 1712 0
 2532 0022 5962     		str	r1, [r3, #36]
 2533              		.loc 1 1713 0
 2534 0024 7047     		bx	lr
 2535              	.L213:
 2536 0026 00BF     		.align	2
 2537              	.L212:
 2538 0028 00280040 		.word	1073752064
 2539              		.cfi_endproc
 2540              	.LFE139:
 2541              		.size	RTC_OutputConfig, .-RTC_OutputConfig
 2542 002c AFF30080 		.section	.text.RTC_CoarseCalibConfig,"ax",%progbits
 2543              		.align	2
 2544              		.p2align 4,,15
 2545              		.global	RTC_CoarseCalibConfig
 2546              		.thumb
 2547              		.thumb_func
 2548              		.type	RTC_CoarseCalibConfig, %function
 2549              	RTC_CoarseCalibConfig:
ARM GAS  C:\Users\jsyoon\AppData\Local\Temp\ccHEUWmT.s 			page 46


 2550              	.LFB140:
 2551              		.loc 1 1750 0
 2552              		.cfi_startproc
 2553              		@ args = 0, pretend = 0, frame = 0
 2554              		@ frame_needed = 0, uses_anonymous_args = 0
 2555              	.LVL217:
 2556 0000 70B5     		push	{r4, r5, r6, lr}
 2557              		.cfi_def_cfa_offset 16
 2558              		.cfi_offset 4, -16
 2559              		.cfi_offset 5, -12
 2560              		.cfi_offset 6, -8
 2561              		.cfi_offset 14, -4
 2562              		.loc 1 1758 0
 2563 0002 0A4C     		ldr	r4, .L217
 2564 0004 CA22     		movs	r2, #202
 2565              		.loc 1 1759 0
 2566 0006 5323     		movs	r3, #83
 2567              		.loc 1 1758 0
 2568 0008 6262     		str	r2, [r4, #36]
 2569              		.loc 1 1759 0
 2570 000a 6362     		str	r3, [r4, #36]
 2571              		.loc 1 1750 0
 2572 000c 0546     		mov	r5, r0
 2573 000e 0E46     		mov	r6, r1
 2574              		.loc 1 1762 0
 2575 0010 FFF7FEFF 		bl	RTC_EnterInitMode
 2576              	.LVL218:
 2577 0014 30B1     		cbz	r0, .L215
 2578              		.loc 1 1769 0
 2579 0016 3543     		orrs	r5, r5, r6
 2580              	.LVL219:
 2581 0018 A561     		str	r5, [r4, #24]
 2582              	.LBB192:
 2583              	.LBB193:
 2584              		.loc 1 598 0
 2585 001a E368     		ldr	r3, [r4, #12]
 2586 001c 23F08003 		bic	r3, r3, #128
 2587 0020 E360     		str	r3, [r4, #12]
 2588              	.LVL220:
 2589              	.LBE193:
 2590              	.LBE192:
 2591              		.loc 1 1773 0
 2592 0022 0120     		movs	r0, #1
 2593              	.LVL221:
 2594              	.L215:
 2595              		.loc 1 1777 0
 2596 0024 014B     		ldr	r3, .L217
 2597 0026 FF22     		movs	r2, #255
 2598 0028 5A62     		str	r2, [r3, #36]
 2599              		.loc 1 1780 0
 2600 002a 70BD     		pop	{r4, r5, r6, pc}
 2601              	.LVL222:
 2602              	.L218:
 2603              		.align	2
 2604              	.L217:
 2605 002c 00280040 		.word	1073752064
 2606              		.cfi_endproc
ARM GAS  C:\Users\jsyoon\AppData\Local\Temp\ccHEUWmT.s 			page 47


 2607              	.LFE140:
 2608              		.size	RTC_CoarseCalibConfig, .-RTC_CoarseCalibConfig
 2609              		.section	.text.RTC_CoarseCalibCmd,"ax",%progbits
 2610              		.align	2
 2611              		.p2align 4,,15
 2612              		.global	RTC_CoarseCalibCmd
 2613              		.thumb
 2614              		.thumb_func
 2615              		.type	RTC_CoarseCalibCmd, %function
 2616              	RTC_CoarseCalibCmd:
 2617              	.LFB141:
 2618              		.loc 1 1791 0
 2619              		.cfi_startproc
 2620              		@ args = 0, pretend = 0, frame = 0
 2621              		@ frame_needed = 0, uses_anonymous_args = 0
 2622              	.LVL223:
 2623 0000 38B5     		push	{r3, r4, r5, lr}
 2624              		.cfi_def_cfa_offset 16
 2625              		.cfi_offset 3, -16
 2626              		.cfi_offset 4, -12
 2627              		.cfi_offset 5, -8
 2628              		.cfi_offset 14, -4
 2629              		.loc 1 1798 0
 2630 0002 0E4C     		ldr	r4, .L225
 2631 0004 CA22     		movs	r2, #202
 2632              		.loc 1 1799 0
 2633 0006 5323     		movs	r3, #83
 2634              		.loc 1 1798 0
 2635 0008 6262     		str	r2, [r4, #36]
 2636              		.loc 1 1799 0
 2637 000a 6362     		str	r3, [r4, #36]
 2638              		.loc 1 1791 0
 2639 000c 0546     		mov	r5, r0
 2640              		.loc 1 1802 0
 2641 000e FFF7FEFF 		bl	RTC_EnterInitMode
 2642              	.LVL224:
 2643 0012 50B1     		cbz	r0, .L220
 2644              		.loc 1 1811 0
 2645 0014 A368     		ldr	r3, [r4, #8]
 2646              		.loc 1 1808 0
 2647 0016 65B9     		cbnz	r5, .L224
 2648              		.loc 1 1816 0
 2649 0018 23F08003 		bic	r3, r3, #128
 2650 001c A360     		str	r3, [r4, #8]
 2651              	.L222:
 2652              	.LBB194:
 2653              	.LBB195:
 2654              		.loc 1 598 0
 2655 001e 074B     		ldr	r3, .L225
 2656 0020 DA68     		ldr	r2, [r3, #12]
 2657 0022 22F08002 		bic	r2, r2, #128
 2658 0026 DA60     		str	r2, [r3, #12]
 2659              	.LVL225:
 2660              	.LBE195:
 2661              	.LBE194:
 2662              		.loc 1 1821 0
 2663 0028 0120     		movs	r0, #1
ARM GAS  C:\Users\jsyoon\AppData\Local\Temp\ccHEUWmT.s 			page 48


 2664              	.LVL226:
 2665              	.L220:
 2666              		.loc 1 1825 0
 2667 002a 044B     		ldr	r3, .L225
 2668 002c FF22     		movs	r2, #255
 2669 002e 5A62     		str	r2, [r3, #36]
 2670              		.loc 1 1828 0
 2671 0030 38BD     		pop	{r3, r4, r5, pc}
 2672              	.LVL227:
 2673              	.L224:
 2674              		.loc 1 1811 0
 2675 0032 43F08003 		orr	r3, r3, #128
 2676 0036 A360     		str	r3, [r4, #8]
 2677 0038 F1E7     		b	.L222
 2678              	.L226:
 2679 003a 00BF     		.align	2
 2680              	.L225:
 2681 003c 00280040 		.word	1073752064
 2682              		.cfi_endproc
 2683              	.LFE141:
 2684              		.size	RTC_CoarseCalibCmd, .-RTC_CoarseCalibCmd
 2685              		.section	.text.RTC_CalibOutputCmd,"ax",%progbits
 2686              		.align	2
 2687              		.p2align 4,,15
 2688              		.global	RTC_CalibOutputCmd
 2689              		.thumb
 2690              		.thumb_func
 2691              		.type	RTC_CalibOutputCmd, %function
 2692              	RTC_CalibOutputCmd:
 2693              	.LFB142:
 2694              		.loc 1 1837 0
 2695              		.cfi_startproc
 2696              		@ args = 0, pretend = 0, frame = 0
 2697              		@ frame_needed = 0, uses_anonymous_args = 0
 2698              		@ link register save eliminated.
 2699              	.LVL228:
 2700              		.loc 1 1842 0
 2701 0000 0A4B     		ldr	r3, .L231
 2702              		.loc 1 1843 0
 2703 0002 5322     		movs	r2, #83
 2704              		.loc 1 1842 0
 2705 0004 CA21     		movs	r1, #202
 2706 0006 5962     		str	r1, [r3, #36]
 2707              		.loc 1 1843 0
 2708 0008 5A62     		str	r2, [r3, #36]
 2709              		.loc 1 1848 0
 2710 000a 9A68     		ldr	r2, [r3, #8]
 2711              		.loc 1 1845 0
 2712 000c 30B9     		cbnz	r0, .L230
 2713              		.loc 1 1853 0
 2714 000e 22F40002 		bic	r2, r2, #8388608
 2715 0012 9A60     		str	r2, [r3, #8]
 2716              		.loc 1 1857 0
 2717 0014 054B     		ldr	r3, .L231
 2718 0016 FF22     		movs	r2, #255
 2719 0018 5A62     		str	r2, [r3, #36]
 2720 001a 7047     		bx	lr
ARM GAS  C:\Users\jsyoon\AppData\Local\Temp\ccHEUWmT.s 			page 49


 2721              	.L230:
 2722              		.loc 1 1848 0
 2723 001c 42F40002 		orr	r2, r2, #8388608
 2724 0020 9A60     		str	r2, [r3, #8]
 2725              		.loc 1 1857 0
 2726 0022 024B     		ldr	r3, .L231
 2727 0024 FF22     		movs	r2, #255
 2728 0026 5A62     		str	r2, [r3, #36]
 2729 0028 7047     		bx	lr
 2730              	.L232:
 2731 002a 00BF     		.align	2
 2732              	.L231:
 2733 002c 00280040 		.word	1073752064
 2734              		.cfi_endproc
 2735              	.LFE142:
 2736              		.size	RTC_CalibOutputCmd, .-RTC_CalibOutputCmd
 2737              		.section	.text.RTC_CalibOutputConfig,"ax",%progbits
 2738              		.align	2
 2739              		.p2align 4,,15
 2740              		.global	RTC_CalibOutputConfig
 2741              		.thumb
 2742              		.thumb_func
 2743              		.type	RTC_CalibOutputConfig, %function
 2744              	RTC_CalibOutputConfig:
 2745              	.LFB143:
 2746              		.loc 1 1869 0
 2747              		.cfi_startproc
 2748              		@ args = 0, pretend = 0, frame = 0
 2749              		@ frame_needed = 0, uses_anonymous_args = 0
 2750              		@ link register save eliminated.
 2751              	.LVL229:
 2752              		.loc 1 1874 0
 2753 0000 074B     		ldr	r3, .L234
 2754 0002 CA21     		movs	r1, #202
 2755              		.loc 1 1875 0
 2756 0004 5322     		movs	r2, #83
 2757              		.loc 1 1874 0
 2758 0006 5962     		str	r1, [r3, #36]
 2759              		.loc 1 1875 0
 2760 0008 5A62     		str	r2, [r3, #36]
 2761              		.loc 1 1878 0
 2762 000a 9A68     		ldr	r2, [r3, #8]
 2763 000c 22F40022 		bic	r2, r2, #524288
 2764 0010 9A60     		str	r2, [r3, #8]
 2765              		.loc 1 1881 0
 2766 0012 9968     		ldr	r1, [r3, #8]
 2767              		.loc 1 1884 0
 2768 0014 FF22     		movs	r2, #255
 2769              		.loc 1 1881 0
 2770 0016 0843     		orrs	r0, r0, r1
 2771              	.LVL230:
 2772 0018 9860     		str	r0, [r3, #8]
 2773              		.loc 1 1884 0
 2774 001a 5A62     		str	r2, [r3, #36]
 2775 001c 7047     		bx	lr
 2776              	.L235:
 2777 001e 00BF     		.align	2
ARM GAS  C:\Users\jsyoon\AppData\Local\Temp\ccHEUWmT.s 			page 50


 2778              	.L234:
 2779 0020 00280040 		.word	1073752064
 2780              		.cfi_endproc
 2781              	.LFE143:
 2782              		.size	RTC_CalibOutputConfig, .-RTC_CalibOutputConfig
 2783 0024 AFF30080 		.section	.text.RTC_SmoothCalibConfig,"ax",%progbits
 2783      AFF30080 
 2783      AFF30080 
 2784              		.align	2
 2785              		.p2align 4,,15
 2786              		.global	RTC_SmoothCalibConfig
 2787              		.thumb
 2788              		.thumb_func
 2789              		.type	RTC_SmoothCalibConfig, %function
 2790              	RTC_SmoothCalibConfig:
 2791              	.LFB144:
 2792              		.loc 1 1907 0
 2793              		.cfi_startproc
 2794              		@ args = 0, pretend = 0, frame = 0
 2795              		@ frame_needed = 0, uses_anonymous_args = 0
 2796              		@ link register save eliminated.
 2797              	.LVL231:
 2798 0000 30B4     		push	{r4, r5}
 2799              		.cfi_def_cfa_offset 8
 2800              		.cfi_offset 4, -8
 2801              		.cfi_offset 5, -4
 2802              		.loc 1 1917 0
 2803 0002 114D     		ldr	r5, .L255
 2804 0004 CA24     		movs	r4, #202
 2805              		.loc 1 1918 0
 2806 0006 5323     		movs	r3, #83
 2807              		.loc 1 1917 0
 2808 0008 6C62     		str	r4, [r5, #36]
 2809              		.loc 1 1918 0
 2810 000a 6B62     		str	r3, [r5, #36]
 2811              		.loc 1 1921 0
 2812 000c EB68     		ldr	r3, [r5, #12]
 2813 000e DC03     		lsls	r4, r3, #15
 2814 0010 0AD5     		bpl	.L237
 2815              		.loc 1 1924 0 discriminator 1
 2816 0012 EB68     		ldr	r3, [r5, #12]
 2817 0014 DB03     		lsls	r3, r3, #15
 2818 0016 07D5     		bpl	.L237
 2819              		.loc 1 1924 0 is_stmt 0
 2820 0018 4FF40033 		mov	r3, #131072
 2821 001c 01E0     		b	.L238
 2822              	.LVL232:
 2823              	.L254:
 2824              		.loc 1 1924 0 discriminator 2
 2825 001e 013B     		subs	r3, r3, #1
 2826              	.LVL233:
 2827 0020 02D0     		beq	.L237
 2828              	.LVL234:
 2829              	.L238:
 2830              		.loc 1 1924 0
 2831 0022 EC68     		ldr	r4, [r5, #12]
 2832 0024 E403     		lsls	r4, r4, #15
ARM GAS  C:\Users\jsyoon\AppData\Local\Temp\ccHEUWmT.s 			page 51


 2833 0026 FAD4     		bmi	.L254
 2834              	.LVL235:
 2835              	.L237:
 2836              		.loc 1 1931 0 is_stmt 1
 2837 0028 074B     		ldr	r3, .L255
 2838 002a DC68     		ldr	r4, [r3, #12]
 2839 002c E403     		lsls	r4, r4, #15
 2840 002e 08D4     		bmi	.L240
 2841              		.loc 1 1934 0
 2842 0030 1143     		orrs	r1, r1, r2
 2843              	.LVL236:
 2844 0032 0843     		orrs	r0, r0, r1
 2845              	.LVL237:
 2846 0034 D863     		str	r0, [r3, #60]
 2847              	.LVL238:
 2848              		.loc 1 1936 0
 2849 0036 0120     		movs	r0, #1
 2850              	.LVL239:
 2851              	.L239:
 2852              		.loc 1 1944 0
 2853 0038 034B     		ldr	r3, .L255
 2854 003a FF22     		movs	r2, #255
 2855              	.LVL240:
 2856 003c 5A62     		str	r2, [r3, #36]
 2857              		.loc 1 1947 0
 2858 003e 30BC     		pop	{r4, r5}
 2859 0040 7047     		bx	lr
 2860              	.LVL241:
 2861              	.L240:
 2862              		.loc 1 1940 0
 2863 0042 0020     		movs	r0, #0
 2864              	.LVL242:
 2865 0044 F8E7     		b	.L239
 2866              	.L256:
 2867 0046 00BF     		.align	2
 2868              	.L255:
 2869 0048 00280040 		.word	1073752064
 2870              		.cfi_endproc
 2871              	.LFE144:
 2872              		.size	RTC_SmoothCalibConfig, .-RTC_SmoothCalibConfig
 2873 004c AFF30080 		.section	.text.RTC_TimeStampCmd,"ax",%progbits
 2874              		.align	2
 2875              		.p2align 4,,15
 2876              		.global	RTC_TimeStampCmd
 2877              		.thumb
 2878              		.thumb_func
 2879              		.type	RTC_TimeStampCmd, %function
 2880              	RTC_TimeStampCmd:
 2881              	.LFB145:
 2882              		.loc 1 1981 0
 2883              		.cfi_startproc
 2884              		@ args = 0, pretend = 0, frame = 0
 2885              		@ frame_needed = 0, uses_anonymous_args = 0
 2886              		@ link register save eliminated.
 2887              	.LVL243:
 2888              		.loc 1 1989 0
 2889 0000 0B4B     		ldr	r3, .L261
ARM GAS  C:\Users\jsyoon\AppData\Local\Temp\ccHEUWmT.s 			page 52


 2890 0002 9B68     		ldr	r3, [r3, #8]
 2891 0004 23F40063 		bic	r3, r3, #2048
 2892              		.loc 1 1981 0
 2893 0008 10B4     		push	{r4}
 2894              		.cfi_def_cfa_offset 4
 2895              		.cfi_offset 4, -4
 2896              		.loc 1 1989 0
 2897 000a 23F00803 		bic	r3, r3, #8
 2898              	.LVL244:
 2899              		.loc 1 1992 0
 2900 000e 59B9     		cbnz	r1, .L260
 2901              		.loc 1 1998 0
 2902 0010 1843     		orrs	r0, r0, r3
 2903              	.LVL245:
 2904              	.L259:
 2905              		.loc 1 2002 0
 2906 0012 074B     		ldr	r3, .L261
 2907 0014 CA24     		movs	r4, #202
 2908              		.loc 1 2003 0
 2909 0016 5321     		movs	r1, #83
 2910              	.LVL246:
 2911              		.loc 1 2009 0
 2912 0018 FF22     		movs	r2, #255
 2913              		.loc 1 2002 0
 2914 001a 5C62     		str	r4, [r3, #36]
 2915              		.loc 1 2003 0
 2916 001c 5962     		str	r1, [r3, #36]
 2917              		.loc 1 2010 0
 2918 001e 5DF8044B 		ldr	r4, [sp], #4
 2919              		.loc 1 2006 0
 2920 0022 9860     		str	r0, [r3, #8]
 2921              		.loc 1 2009 0
 2922 0024 5A62     		str	r2, [r3, #36]
 2923              		.loc 1 2010 0
 2924 0026 7047     		bx	lr
 2925              	.LVL247:
 2926              	.L260:
 2927              		.loc 1 1994 0
 2928 0028 43F40063 		orr	r3, r3, #2048
 2929              	.LVL248:
 2930 002c 1843     		orrs	r0, r0, r3
 2931              	.LVL249:
 2932 002e F0E7     		b	.L259
 2933              	.L262:
 2934              		.align	2
 2935              	.L261:
 2936 0030 00280040 		.word	1073752064
 2937              		.cfi_endproc
 2938              	.LFE145:
 2939              		.size	RTC_TimeStampCmd, .-RTC_TimeStampCmd
 2940 0034 AFF30080 		.section	.text.RTC_GetTimeStamp,"ax",%progbits
 2940      AFF30080 
 2940      AFF30080 
 2941              		.align	2
 2942              		.p2align 4,,15
 2943              		.global	RTC_GetTimeStamp
 2944              		.thumb
ARM GAS  C:\Users\jsyoon\AppData\Local\Temp\ccHEUWmT.s 			page 53


 2945              		.thumb_func
 2946              		.type	RTC_GetTimeStamp, %function
 2947              	RTC_GetTimeStamp:
 2948              	.LFB146:
 2949              		.loc 1 2026 0
 2950              		.cfi_startproc
 2951              		@ args = 0, pretend = 0, frame = 0
 2952              		@ frame_needed = 0, uses_anonymous_args = 0
 2953              		@ link register save eliminated.
 2954              	.LVL250:
 2955 0000 2DE9F003 		push	{r4, r5, r6, r7, r8, r9}
 2956              		.cfi_def_cfa_offset 24
 2957              		.cfi_offset 4, -24
 2958              		.cfi_offset 5, -20
 2959              		.cfi_offset 6, -16
 2960              		.cfi_offset 7, -12
 2961              		.cfi_offset 8, -8
 2962              		.cfi_offset 9, -4
 2963              		.loc 1 2033 0
 2964 0004 2C4C     		ldr	r4, .L265
 2965 0006 236B     		ldr	r3, [r4, #48]
 2966              	.LVL251:
 2967              		.loc 1 2034 0
 2968 0008 646B     		ldr	r4, [r4, #52]
 2969              	.LVL252:
 2970              		.loc 1 2040 0
 2971 000a 03F4800C 		and	ip, r3, #4194304
 2972              		.loc 1 2037 0
 2973 000e C3F30549 		ubfx	r9, r3, #16, #6
 2974              		.loc 1 2038 0
 2975 0012 C3F30628 		ubfx	r8, r3, #8, #7
 2976              		.loc 1 2044 0
 2977 0016 C4F30426 		ubfx	r6, r4, #8, #5
 2978              		.loc 1 2045 0
 2979 001a 04F03F05 		and	r5, r4, #63
 2980              		.loc 1 2039 0
 2981 001e 03F07F03 		and	r3, r3, #127
 2982              	.LVL253:
 2983              		.loc 1 2040 0
 2984 0022 4FEA1C4C 		lsr	ip, ip, #16
 2985              		.loc 1 2043 0
 2986 0026 0027     		movs	r7, #0
 2987              		.loc 1 2046 0
 2988 0028 C4F34234 		ubfx	r4, r4, #13, #3
 2989              	.LVL254:
 2990              		.loc 1 2037 0
 2991 002c 81F80090 		strb	r9, [r1]
 2992              		.loc 1 2038 0
 2993 0030 81F80180 		strb	r8, [r1, #1]
 2994              		.loc 1 2039 0
 2995 0034 8B70     		strb	r3, [r1, #2]
 2996              		.loc 1 2040 0
 2997 0036 81F803C0 		strb	ip, [r1, #3]
 2998              		.loc 1 2043 0
 2999 003a D770     		strb	r7, [r2, #3]
 3000              		.loc 1 2044 0
 3001 003c 5670     		strb	r6, [r2, #1]
ARM GAS  C:\Users\jsyoon\AppData\Local\Temp\ccHEUWmT.s 			page 54


 3002              		.loc 1 2045 0
 3003 003e 9570     		strb	r5, [r2, #2]
 3004              		.loc 1 2046 0
 3005 0040 1470     		strb	r4, [r2]
 3006              		.loc 1 2049 0
 3007 0042 A8BB     		cbnz	r0, .L263
 3008              		.loc 1 2052 0
 3009 0044 0E78     		ldrb	r6, [r1]	@ zero_extendqisi2
 3010              	.LVL255:
 3011              		.loc 1 2053 0
 3012 0046 4C78     		ldrb	r4, [r1, #1]	@ zero_extendqisi2
 3013              	.LVL256:
 3014              		.loc 1 2054 0
 3015 0048 8B78     		ldrb	r3, [r1, #2]	@ zero_extendqisi2
 3016              	.LVL257:
 3017              	.LBB196:
 3018              	.LBB197:
 3019              		.loc 1 2743 0
 3020 004a 3709     		lsrs	r7, r6, #4
 3021              	.LBE197:
 3022              	.LBE196:
 3023              	.LBB201:
 3024              	.LBB202:
 3025 004c 2509     		lsrs	r5, r4, #4
 3026              	.LBE202:
 3027              	.LBE201:
 3028              	.LBB206:
 3029              	.LBB207:
 3030 004e 1809     		lsrs	r0, r3, #4
 3031              	.LVL258:
 3032              	.LBE207:
 3033              	.LBE206:
 3034              	.LBB211:
 3035              	.LBB198:
 3036              		.loc 1 2744 0
 3037 0050 06F00F06 		and	r6, r6, #15
 3038              	.LVL259:
 3039              	.LBE198:
 3040              	.LBE211:
 3041              	.LBB212:
 3042              	.LBB203:
 3043 0054 04F00F04 		and	r4, r4, #15
 3044              	.LVL260:
 3045              	.LBE203:
 3046              	.LBE212:
 3047              	.LBB213:
 3048              	.LBB208:
 3049 0058 03F00F03 		and	r3, r3, #15
 3050              	.LVL261:
 3051              	.LBE208:
 3052              	.LBE213:
 3053              	.LBB214:
 3054              	.LBB199:
 3055              		.loc 1 2743 0
 3056 005c 07EB8707 		add	r7, r7, r7, lsl #2
 3057              	.LBE199:
 3058              	.LBE214:
ARM GAS  C:\Users\jsyoon\AppData\Local\Temp\ccHEUWmT.s 			page 55


 3059              	.LBB215:
 3060              	.LBB204:
 3061 0060 05EB8505 		add	r5, r5, r5, lsl #2
 3062              	.LBE204:
 3063              	.LBE215:
 3064              	.LBB216:
 3065              	.LBB209:
 3066 0064 00EB8000 		add	r0, r0, r0, lsl #2
 3067              	.LBE209:
 3068              	.LBE216:
 3069              	.LBB217:
 3070              	.LBB205:
 3071              		.loc 1 2744 0
 3072 0068 04EB4505 		add	r5, r4, r5, lsl #1
 3073              	.LBE205:
 3074              	.LBE217:
 3075              	.LBB218:
 3076              	.LBB210:
 3077 006c 03EB4000 		add	r0, r3, r0, lsl #1
 3078              	.LBE210:
 3079              	.LBE218:
 3080              	.LBB219:
 3081              	.LBB200:
 3082 0070 06EB4707 		add	r7, r6, r7, lsl #1
 3083              	.LBE200:
 3084              	.LBE219:
 3085              		.loc 1 2052 0
 3086 0074 0F70     		strb	r7, [r1]
 3087              	.LVL262:
 3088              		.loc 1 2053 0
 3089 0076 4D70     		strb	r5, [r1, #1]
 3090              	.LVL263:
 3091              		.loc 1 2054 0
 3092 0078 8870     		strb	r0, [r1, #2]
 3093              	.LVL264:
 3094              		.loc 1 2057 0
 3095 007a 5578     		ldrb	r5, [r2, #1]	@ zero_extendqisi2
 3096              	.LVL265:
 3097              		.loc 1 2058 0
 3098 007c 9078     		ldrb	r0, [r2, #2]	@ zero_extendqisi2
 3099              	.LVL266:
 3100              		.loc 1 2059 0
 3101 007e 1378     		ldrb	r3, [r2]	@ zero_extendqisi2
 3102              	.LVL267:
 3103              	.LBB220:
 3104              	.LBB221:
 3105              		.loc 1 2743 0
 3106 0080 2E09     		lsrs	r6, r5, #4
 3107              	.LBE221:
 3108              	.LBE220:
 3109              	.LBB224:
 3110              	.LBB225:
 3111 0082 0409     		lsrs	r4, r0, #4
 3112              	.LBE225:
 3113              	.LBE224:
 3114              	.LBB228:
 3115              	.LBB229:
ARM GAS  C:\Users\jsyoon\AppData\Local\Temp\ccHEUWmT.s 			page 56


 3116 0084 1909     		lsrs	r1, r3, #4
 3117              	.LVL268:
 3118              	.LBE229:
 3119              	.LBE228:
 3120              	.LBB232:
 3121              	.LBB222:
 3122 0086 06EB8606 		add	r6, r6, r6, lsl #2
 3123              		.loc 1 2744 0
 3124 008a 05F00F05 		and	r5, r5, #15
 3125              	.LVL269:
 3126              	.LBE222:
 3127              	.LBE232:
 3128              	.LBB233:
 3129              	.LBB226:
 3130              		.loc 1 2743 0
 3131 008e 04EB8404 		add	r4, r4, r4, lsl #2
 3132              		.loc 1 2744 0
 3133 0092 00F00F00 		and	r0, r0, #15
 3134              	.LVL270:
 3135              	.LBE226:
 3136              	.LBE233:
 3137              	.LBB234:
 3138              	.LBB230:
 3139              		.loc 1 2743 0
 3140 0096 01EB8101 		add	r1, r1, r1, lsl #2
 3141              		.loc 1 2744 0
 3142 009a 03F00F03 		and	r3, r3, #15
 3143              	.LVL271:
 3144              	.LBE230:
 3145              	.LBE234:
 3146              	.LBB235:
 3147              	.LBB223:
 3148 009e 05EB4606 		add	r6, r5, r6, lsl #1
 3149              	.LBE223:
 3150              	.LBE235:
 3151              	.LBB236:
 3152              	.LBB227:
 3153 00a2 00EB4404 		add	r4, r0, r4, lsl #1
 3154              	.LBE227:
 3155              	.LBE236:
 3156              	.LBB237:
 3157              	.LBB231:
 3158 00a6 03EB4101 		add	r1, r3, r1, lsl #1
 3159              	.LBE231:
 3160              	.LBE237:
 3161              		.loc 1 2057 0
 3162 00aa 5670     		strb	r6, [r2, #1]
 3163              	.LVL272:
 3164              		.loc 1 2058 0
 3165 00ac 9470     		strb	r4, [r2, #2]
 3166              	.LVL273:
 3167              		.loc 1 2059 0
 3168 00ae 1170     		strb	r1, [r2]
 3169              	.LVL274:
 3170              	.L263:
 3171              		.loc 1 2061 0
 3172 00b0 BDE8F003 		pop	{r4, r5, r6, r7, r8, r9}
ARM GAS  C:\Users\jsyoon\AppData\Local\Temp\ccHEUWmT.s 			page 57


 3173 00b4 7047     		bx	lr
 3174              	.L266:
 3175 00b6 00BF     		.align	2
 3176              	.L265:
 3177 00b8 00280040 		.word	1073752064
 3178              		.cfi_endproc
 3179              	.LFE146:
 3180              		.size	RTC_GetTimeStamp, .-RTC_GetTimeStamp
 3181 00bc AFF30080 		.section	.text.RTC_GetTimeStampSubSecond,"ax",%progbits
 3182              		.align	2
 3183              		.p2align 4,,15
 3184              		.global	RTC_GetTimeStampSubSecond
 3185              		.thumb
 3186              		.thumb_func
 3187              		.type	RTC_GetTimeStampSubSecond, %function
 3188              	RTC_GetTimeStampSubSecond:
 3189              	.LFB147:
 3190              		.loc 1 2069 0
 3191              		.cfi_startproc
 3192              		@ args = 0, pretend = 0, frame = 0
 3193              		@ frame_needed = 0, uses_anonymous_args = 0
 3194              		@ link register save eliminated.
 3195              		.loc 1 2071 0
 3196 0000 014B     		ldr	r3, .L268
 3197 0002 986B     		ldr	r0, [r3, #56]
 3198              		.loc 1 2072 0
 3199 0004 7047     		bx	lr
 3200              	.L269:
 3201 0006 00BF     		.align	2
 3202              	.L268:
 3203 0008 00280040 		.word	1073752064
 3204              		.cfi_endproc
 3205              	.LFE147:
 3206              		.size	RTC_GetTimeStampSubSecond, .-RTC_GetTimeStampSubSecond
 3207 000c AFF30080 		.section	.text.RTC_TamperTriggerConfig,"ax",%progbits
 3208              		.align	2
 3209              		.p2align 4,,15
 3210              		.global	RTC_TamperTriggerConfig
 3211              		.thumb
 3212              		.thumb_func
 3213              		.type	RTC_TamperTriggerConfig, %function
 3214              	RTC_TamperTriggerConfig:
 3215              	.LFB148:
 3216              		.loc 1 2104 0
 3217              		.cfi_startproc
 3218              		@ args = 0, pretend = 0, frame = 0
 3219              		@ frame_needed = 0, uses_anonymous_args = 0
 3220              		@ link register save eliminated.
 3221              	.LVL275:
 3222              		.loc 1 2112 0
 3223 0000 054B     		ldr	r3, .L274
 3224 0002 1A6C     		ldr	r2, [r3, #64]
 3225              		.loc 1 2109 0
 3226 0004 19B1     		cbz	r1, .L273
 3227              		.loc 1 2117 0
 3228 0006 42EA4000 		orr	r0, r2, r0, lsl #1
 3229              	.LVL276:
ARM GAS  C:\Users\jsyoon\AppData\Local\Temp\ccHEUWmT.s 			page 58


 3230 000a 1864     		str	r0, [r3, #64]
 3231 000c 7047     		bx	lr
 3232              	.LVL277:
 3233              	.L273:
 3234              		.loc 1 2112 0
 3235 000e 22EA4000 		bic	r0, r2, r0, lsl #1
 3236              	.LVL278:
 3237 0012 1864     		str	r0, [r3, #64]
 3238 0014 7047     		bx	lr
 3239              	.L275:
 3240 0016 00BF     		.align	2
 3241              	.L274:
 3242 0018 00280040 		.word	1073752064
 3243              		.cfi_endproc
 3244              	.LFE148:
 3245              		.size	RTC_TamperTriggerConfig, .-RTC_TamperTriggerConfig
 3246 001c AFF30080 		.section	.text.RTC_TamperCmd,"ax",%progbits
 3247              		.align	2
 3248              		.p2align 4,,15
 3249              		.global	RTC_TamperCmd
 3250              		.thumb
 3251              		.thumb_func
 3252              		.type	RTC_TamperCmd, %function
 3253              	RTC_TamperCmd:
 3254              	.LFB149:
 3255              		.loc 1 2130 0
 3256              		.cfi_startproc
 3257              		@ args = 0, pretend = 0, frame = 0
 3258              		@ frame_needed = 0, uses_anonymous_args = 0
 3259              		@ link register save eliminated.
 3260              	.LVL279:
 3261              		.loc 1 2138 0
 3262 0000 044B     		ldr	r3, .L280
 3263 0002 1A6C     		ldr	r2, [r3, #64]
 3264              		.loc 1 2135 0
 3265 0004 19B9     		cbnz	r1, .L279
 3266              		.loc 1 2143 0
 3267 0006 22EA0000 		bic	r0, r2, r0
 3268              	.LVL280:
 3269 000a 1864     		str	r0, [r3, #64]
 3270 000c 7047     		bx	lr
 3271              	.LVL281:
 3272              	.L279:
 3273              		.loc 1 2138 0
 3274 000e 1043     		orrs	r0, r0, r2
 3275              	.LVL282:
 3276 0010 1864     		str	r0, [r3, #64]
 3277 0012 7047     		bx	lr
 3278              	.L281:
 3279              		.align	2
 3280              	.L280:
 3281 0014 00280040 		.word	1073752064
 3282              		.cfi_endproc
 3283              	.LFE149:
 3284              		.size	RTC_TamperCmd, .-RTC_TamperCmd
 3285 0018 AFF30080 		.section	.text.RTC_TamperFilterConfig,"ax",%progbits
 3285      AFF30080 
ARM GAS  C:\Users\jsyoon\AppData\Local\Temp\ccHEUWmT.s 			page 59


 3286              		.align	2
 3287              		.p2align 4,,15
 3288              		.global	RTC_TamperFilterConfig
 3289              		.thumb
 3290              		.thumb_func
 3291              		.type	RTC_TamperFilterConfig, %function
 3292              	RTC_TamperFilterConfig:
 3293              	.LFB150:
 3294              		.loc 1 2161 0
 3295              		.cfi_startproc
 3296              		@ args = 0, pretend = 0, frame = 0
 3297              		@ frame_needed = 0, uses_anonymous_args = 0
 3298              		@ link register save eliminated.
 3299              	.LVL283:
 3300              		.loc 1 2166 0
 3301 0000 044B     		ldr	r3, .L283
 3302 0002 1A6C     		ldr	r2, [r3, #64]
 3303 0004 22F4C052 		bic	r2, r2, #6144
 3304 0008 1A64     		str	r2, [r3, #64]
 3305              		.loc 1 2169 0
 3306 000a 1A6C     		ldr	r2, [r3, #64]
 3307 000c 1043     		orrs	r0, r0, r2
 3308              	.LVL284:
 3309 000e 1864     		str	r0, [r3, #64]
 3310 0010 7047     		bx	lr
 3311              	.L284:
 3312 0012 00BF     		.align	2
 3313              	.L283:
 3314 0014 00280040 		.word	1073752064
 3315              		.cfi_endproc
 3316              	.LFE150:
 3317              		.size	RTC_TamperFilterConfig, .-RTC_TamperFilterConfig
 3318 0018 AFF30080 		.section	.text.RTC_TamperSamplingFreqConfig,"ax",%progbits
 3318      AFF30080 
 3319              		.align	2
 3320              		.p2align 4,,15
 3321              		.global	RTC_TamperSamplingFreqConfig
 3322              		.thumb
 3323              		.thumb_func
 3324              		.type	RTC_TamperSamplingFreqConfig, %function
 3325              	RTC_TamperSamplingFreqConfig:
 3326              	.LFB151:
 3327              		.loc 1 2195 0
 3328              		.cfi_startproc
 3329              		@ args = 0, pretend = 0, frame = 0
 3330              		@ frame_needed = 0, uses_anonymous_args = 0
 3331              		@ link register save eliminated.
 3332              	.LVL285:
 3333              		.loc 1 2200 0
 3334 0000 044B     		ldr	r3, .L286
 3335 0002 1A6C     		ldr	r2, [r3, #64]
 3336 0004 22F4E062 		bic	r2, r2, #1792
 3337 0008 1A64     		str	r2, [r3, #64]
 3338              		.loc 1 2203 0
 3339 000a 1A6C     		ldr	r2, [r3, #64]
 3340 000c 1043     		orrs	r0, r0, r2
 3341              	.LVL286:
ARM GAS  C:\Users\jsyoon\AppData\Local\Temp\ccHEUWmT.s 			page 60


 3342 000e 1864     		str	r0, [r3, #64]
 3343 0010 7047     		bx	lr
 3344              	.L287:
 3345 0012 00BF     		.align	2
 3346              	.L286:
 3347 0014 00280040 		.word	1073752064
 3348              		.cfi_endproc
 3349              	.LFE151:
 3350              		.size	RTC_TamperSamplingFreqConfig, .-RTC_TamperSamplingFreqConfig
 3351 0018 AFF30080 		.section	.text.RTC_TamperPinsPrechargeDuration,"ax",%progbits
 3351      AFF30080 
 3352              		.align	2
 3353              		.p2align 4,,15
 3354              		.global	RTC_TamperPinsPrechargeDuration
 3355              		.thumb
 3356              		.thumb_func
 3357              		.type	RTC_TamperPinsPrechargeDuration, %function
 3358              	RTC_TamperPinsPrechargeDuration:
 3359              	.LFB152:
 3360              		.loc 1 2218 0
 3361              		.cfi_startproc
 3362              		@ args = 0, pretend = 0, frame = 0
 3363              		@ frame_needed = 0, uses_anonymous_args = 0
 3364              		@ link register save eliminated.
 3365              	.LVL287:
 3366              		.loc 1 2223 0
 3367 0000 044B     		ldr	r3, .L289
 3368 0002 1A6C     		ldr	r2, [r3, #64]
 3369 0004 22F4C042 		bic	r2, r2, #24576
 3370 0008 1A64     		str	r2, [r3, #64]
 3371              		.loc 1 2226 0
 3372 000a 1A6C     		ldr	r2, [r3, #64]
 3373 000c 1043     		orrs	r0, r0, r2
 3374              	.LVL288:
 3375 000e 1864     		str	r0, [r3, #64]
 3376 0010 7047     		bx	lr
 3377              	.L290:
 3378 0012 00BF     		.align	2
 3379              	.L289:
 3380 0014 00280040 		.word	1073752064
 3381              		.cfi_endproc
 3382              	.LFE152:
 3383              		.size	RTC_TamperPinsPrechargeDuration, .-RTC_TamperPinsPrechargeDuration
 3384 0018 AFF30080 		.section	.text.RTC_TimeStampOnTamperDetectionCmd,"ax",%progbits
 3384      AFF30080 
 3385              		.align	2
 3386              		.p2align 4,,15
 3387              		.global	RTC_TimeStampOnTamperDetectionCmd
 3388              		.thumb
 3389              		.thumb_func
 3390              		.type	RTC_TimeStampOnTamperDetectionCmd, %function
 3391              	RTC_TimeStampOnTamperDetectionCmd:
 3392              	.LFB153:
 3393              		.loc 1 2238 0
 3394              		.cfi_startproc
 3395              		@ args = 0, pretend = 0, frame = 0
 3396              		@ frame_needed = 0, uses_anonymous_args = 0
ARM GAS  C:\Users\jsyoon\AppData\Local\Temp\ccHEUWmT.s 			page 61


 3397              		@ link register save eliminated.
 3398              	.LVL289:
 3399              		.loc 1 2245 0
 3400 0000 054B     		ldr	r3, .L295
 3401 0002 1A6C     		ldr	r2, [r3, #64]
 3402              		.loc 1 2242 0
 3403 0004 18B9     		cbnz	r0, .L294
 3404              		.loc 1 2250 0
 3405 0006 22F08002 		bic	r2, r2, #128
 3406 000a 1A64     		str	r2, [r3, #64]
 3407 000c 7047     		bx	lr
 3408              	.L294:
 3409              		.loc 1 2245 0
 3410 000e 42F08002 		orr	r2, r2, #128
 3411 0012 1A64     		str	r2, [r3, #64]
 3412 0014 7047     		bx	lr
 3413              	.L296:
 3414 0016 00BF     		.align	2
 3415              	.L295:
 3416 0018 00280040 		.word	1073752064
 3417              		.cfi_endproc
 3418              	.LFE153:
 3419              		.size	RTC_TimeStampOnTamperDetectionCmd, .-RTC_TimeStampOnTamperDetectionCmd
 3420 001c AFF30080 		.section	.text.RTC_TamperPullUpCmd,"ax",%progbits
 3421              		.align	2
 3422              		.p2align 4,,15
 3423              		.global	RTC_TamperPullUpCmd
 3424              		.thumb
 3425              		.thumb_func
 3426              		.type	RTC_TamperPullUpCmd, %function
 3427              	RTC_TamperPullUpCmd:
 3428              	.LFB154:
 3429              		.loc 1 2261 0
 3430              		.cfi_startproc
 3431              		@ args = 0, pretend = 0, frame = 0
 3432              		@ frame_needed = 0, uses_anonymous_args = 0
 3433              		@ link register save eliminated.
 3434              	.LVL290:
 3435              		.loc 1 2268 0
 3436 0000 054B     		ldr	r3, .L301
 3437 0002 1A6C     		ldr	r2, [r3, #64]
 3438              		.loc 1 2265 0
 3439 0004 18B9     		cbnz	r0, .L300
 3440              		.loc 1 2273 0
 3441 0006 42F40042 		orr	r2, r2, #32768
 3442 000a 1A64     		str	r2, [r3, #64]
 3443 000c 7047     		bx	lr
 3444              	.L300:
 3445              		.loc 1 2268 0
 3446 000e 22F40042 		bic	r2, r2, #32768
 3447 0012 1A64     		str	r2, [r3, #64]
 3448 0014 7047     		bx	lr
 3449              	.L302:
 3450 0016 00BF     		.align	2
 3451              	.L301:
 3452 0018 00280040 		.word	1073752064
 3453              		.cfi_endproc
ARM GAS  C:\Users\jsyoon\AppData\Local\Temp\ccHEUWmT.s 			page 62


 3454              	.LFE154:
 3455              		.size	RTC_TamperPullUpCmd, .-RTC_TamperPullUpCmd
 3456 001c AFF30080 		.section	.text.RTC_WriteBackupRegister,"ax",%progbits
 3457              		.align	2
 3458              		.p2align 4,,15
 3459              		.global	RTC_WriteBackupRegister
 3460              		.thumb
 3461              		.thumb_func
 3462              		.type	RTC_WriteBackupRegister, %function
 3463              	RTC_WriteBackupRegister:
 3464              	.LFB155:
 3465              		.loc 1 2302 0
 3466              		.cfi_startproc
 3467              		@ args = 0, pretend = 0, frame = 8
 3468              		@ frame_needed = 0, uses_anonymous_args = 0
 3469              		@ link register save eliminated.
 3470              	.LVL291:
 3471 0000 82B0     		sub	sp, sp, #8
 3472              		.cfi_def_cfa_offset 8
 3473              		.loc 1 2303 0
 3474 0002 0022     		movs	r2, #0
 3475              		.loc 1 2308 0
 3476 0004 054B     		ldr	r3, .L304
 3477              		.loc 1 2303 0
 3478 0006 0192     		str	r2, [sp, #4]
 3479              		.loc 1 2308 0
 3480 0008 0193     		str	r3, [sp, #4]
 3481              		.loc 1 2309 0
 3482 000a 019B     		ldr	r3, [sp, #4]
 3483 000c 03EB8000 		add	r0, r3, r0, lsl #2
 3484              	.LVL292:
 3485 0010 0190     		str	r0, [sp, #4]
 3486              		.loc 1 2312 0
 3487 0012 019B     		ldr	r3, [sp, #4]
 3488 0014 1960     		str	r1, [r3]
 3489              		.loc 1 2313 0
 3490 0016 02B0     		add	sp, sp, #8
 3491              		@ sp needed
 3492 0018 7047     		bx	lr
 3493              	.L305:
 3494 001a 00BF     		.align	2
 3495              	.L304:
 3496 001c 50280040 		.word	1073752144
 3497              		.cfi_endproc
 3498              	.LFE155:
 3499              		.size	RTC_WriteBackupRegister, .-RTC_WriteBackupRegister
 3500              		.section	.text.RTC_ReadBackupRegister,"ax",%progbits
 3501              		.align	2
 3502              		.p2align 4,,15
 3503              		.global	RTC_ReadBackupRegister
 3504              		.thumb
 3505              		.thumb_func
 3506              		.type	RTC_ReadBackupRegister, %function
 3507              	RTC_ReadBackupRegister:
 3508              	.LFB156:
 3509              		.loc 1 2323 0
 3510              		.cfi_startproc
ARM GAS  C:\Users\jsyoon\AppData\Local\Temp\ccHEUWmT.s 			page 63


 3511              		@ args = 0, pretend = 0, frame = 8
 3512              		@ frame_needed = 0, uses_anonymous_args = 0
 3513              		@ link register save eliminated.
 3514              	.LVL293:
 3515 0000 82B0     		sub	sp, sp, #8
 3516              		.cfi_def_cfa_offset 8
 3517              		.loc 1 2324 0
 3518 0002 0022     		movs	r2, #0
 3519              		.loc 1 2329 0
 3520 0004 054B     		ldr	r3, .L307
 3521              		.loc 1 2324 0
 3522 0006 0192     		str	r2, [sp, #4]
 3523              		.loc 1 2329 0
 3524 0008 0193     		str	r3, [sp, #4]
 3525              		.loc 1 2330 0
 3526 000a 019B     		ldr	r3, [sp, #4]
 3527 000c 03EB8000 		add	r0, r3, r0, lsl #2
 3528              	.LVL294:
 3529 0010 0190     		str	r0, [sp, #4]
 3530              		.loc 1 2333 0
 3531 0012 019B     		ldr	r3, [sp, #4]
 3532 0014 1868     		ldr	r0, [r3]
 3533              		.loc 1 2334 0
 3534 0016 02B0     		add	sp, sp, #8
 3535              		@ sp needed
 3536 0018 7047     		bx	lr
 3537              	.L308:
 3538 001a 00BF     		.align	2
 3539              	.L307:
 3540 001c 50280040 		.word	1073752144
 3541              		.cfi_endproc
 3542              	.LFE156:
 3543              		.size	RTC_ReadBackupRegister, .-RTC_ReadBackupRegister
 3544              		.section	.text.RTC_TamperPinSelection,"ax",%progbits
 3545              		.align	2
 3546              		.p2align 4,,15
 3547              		.global	RTC_TamperPinSelection
 3548              		.thumb
 3549              		.thumb_func
 3550              		.type	RTC_TamperPinSelection, %function
 3551              	RTC_TamperPinSelection:
 3552              	.LFB157:
 3553              		.loc 1 2363 0
 3554              		.cfi_startproc
 3555              		@ args = 0, pretend = 0, frame = 0
 3556              		@ frame_needed = 0, uses_anonymous_args = 0
 3557              		@ link register save eliminated.
 3558              	.LVL295:
 3559              		.loc 1 2367 0
 3560 0000 044B     		ldr	r3, .L310
 3561 0002 1A6C     		ldr	r2, [r3, #64]
 3562 0004 22F48032 		bic	r2, r2, #65536
 3563 0008 1A64     		str	r2, [r3, #64]
 3564              		.loc 1 2368 0
 3565 000a 1A6C     		ldr	r2, [r3, #64]
 3566 000c 1043     		orrs	r0, r0, r2
 3567              	.LVL296:
ARM GAS  C:\Users\jsyoon\AppData\Local\Temp\ccHEUWmT.s 			page 64


 3568 000e 1864     		str	r0, [r3, #64]
 3569 0010 7047     		bx	lr
 3570              	.L311:
 3571 0012 00BF     		.align	2
 3572              	.L310:
 3573 0014 00280040 		.word	1073752064
 3574              		.cfi_endproc
 3575              	.LFE157:
 3576              		.size	RTC_TamperPinSelection, .-RTC_TamperPinSelection
 3577 0018 AFF30080 		.section	.text.RTC_TimeStampPinSelection,"ax",%progbits
 3577      AFF30080 
 3578              		.align	2
 3579              		.p2align 4,,15
 3580              		.global	RTC_TimeStampPinSelection
 3581              		.thumb
 3582              		.thumb_func
 3583              		.type	RTC_TimeStampPinSelection, %function
 3584              	RTC_TimeStampPinSelection:
 3585              	.LFB158:
 3586              		.loc 1 2380 0
 3587              		.cfi_startproc
 3588              		@ args = 0, pretend = 0, frame = 0
 3589              		@ frame_needed = 0, uses_anonymous_args = 0
 3590              		@ link register save eliminated.
 3591              	.LVL297:
 3592              		.loc 1 2384 0
 3593 0000 044B     		ldr	r3, .L313
 3594 0002 1A6C     		ldr	r2, [r3, #64]
 3595 0004 22F40032 		bic	r2, r2, #131072
 3596 0008 1A64     		str	r2, [r3, #64]
 3597              		.loc 1 2385 0
 3598 000a 1A6C     		ldr	r2, [r3, #64]
 3599 000c 1043     		orrs	r0, r0, r2
 3600              	.LVL298:
 3601 000e 1864     		str	r0, [r3, #64]
 3602 0010 7047     		bx	lr
 3603              	.L314:
 3604 0012 00BF     		.align	2
 3605              	.L313:
 3606 0014 00280040 		.word	1073752064
 3607              		.cfi_endproc
 3608              	.LFE158:
 3609              		.size	RTC_TimeStampPinSelection, .-RTC_TimeStampPinSelection
 3610 0018 AFF30080 		.section	.text.RTC_OutputTypeConfig,"ax",%progbits
 3610      AFF30080 
 3611              		.align	2
 3612              		.p2align 4,,15
 3613              		.global	RTC_OutputTypeConfig
 3614              		.thumb
 3615              		.thumb_func
 3616              		.type	RTC_OutputTypeConfig, %function
 3617              	RTC_OutputTypeConfig:
 3618              	.LFB159:
 3619              		.loc 1 2399 0
 3620              		.cfi_startproc
 3621              		@ args = 0, pretend = 0, frame = 0
 3622              		@ frame_needed = 0, uses_anonymous_args = 0
ARM GAS  C:\Users\jsyoon\AppData\Local\Temp\ccHEUWmT.s 			page 65


 3623              		@ link register save eliminated.
 3624              	.LVL299:
 3625              		.loc 1 2403 0
 3626 0000 044B     		ldr	r3, .L316
 3627 0002 1A6C     		ldr	r2, [r3, #64]
 3628 0004 22F48022 		bic	r2, r2, #262144
 3629 0008 1A64     		str	r2, [r3, #64]
 3630              		.loc 1 2404 0
 3631 000a 1A6C     		ldr	r2, [r3, #64]
 3632 000c 1043     		orrs	r0, r0, r2
 3633              	.LVL300:
 3634 000e 1864     		str	r0, [r3, #64]
 3635 0010 7047     		bx	lr
 3636              	.L317:
 3637 0012 00BF     		.align	2
 3638              	.L316:
 3639 0014 00280040 		.word	1073752064
 3640              		.cfi_endproc
 3641              	.LFE159:
 3642              		.size	RTC_OutputTypeConfig, .-RTC_OutputTypeConfig
 3643 0018 AFF30080 		.section	.text.RTC_SynchroShiftConfig,"ax",%progbits
 3643      AFF30080 
 3644              		.align	2
 3645              		.p2align 4,,15
 3646              		.global	RTC_SynchroShiftConfig
 3647              		.thumb
 3648              		.thumb_func
 3649              		.type	RTC_SynchroShiftConfig, %function
 3650              	RTC_SynchroShiftConfig:
 3651              	.LFB160:
 3652              		.loc 1 2437 0
 3653              		.cfi_startproc
 3654              		@ args = 0, pretend = 0, frame = 0
 3655              		@ frame_needed = 0, uses_anonymous_args = 0
 3656              	.LVL301:
 3657 0000 10B5     		push	{r4, lr}
 3658              		.cfi_def_cfa_offset 8
 3659              		.cfi_offset 4, -8
 3660              		.cfi_offset 14, -4
 3661              		.loc 1 2446 0
 3662 0002 184C     		ldr	r4, .L339
 3663 0004 CA22     		movs	r2, #202
 3664              		.loc 1 2447 0
 3665 0006 5323     		movs	r3, #83
 3666              		.loc 1 2446 0
 3667 0008 6262     		str	r2, [r4, #36]
 3668              		.loc 1 2447 0
 3669 000a 6362     		str	r3, [r4, #36]
 3670              		.loc 1 2450 0
 3671 000c E368     		ldr	r3, [r4, #12]
 3672 000e 1A07     		lsls	r2, r3, #28
 3673 0010 0AD5     		bpl	.L319
 3674              		.loc 1 2453 0 discriminator 1
 3675 0012 E368     		ldr	r3, [r4, #12]
 3676 0014 1B07     		lsls	r3, r3, #28
 3677 0016 07D5     		bpl	.L319
 3678              		.loc 1 2453 0 is_stmt 0
ARM GAS  C:\Users\jsyoon\AppData\Local\Temp\ccHEUWmT.s 			page 66


 3679 0018 4FF48053 		mov	r3, #4096
 3680 001c 01E0     		b	.L320
 3681              	.LVL302:
 3682              	.L337:
 3683              		.loc 1 2453 0 discriminator 2
 3684 001e 013B     		subs	r3, r3, #1
 3685              	.LVL303:
 3686 0020 02D0     		beq	.L319
 3687              	.LVL304:
 3688              	.L320:
 3689              		.loc 1 2453 0
 3690 0022 E268     		ldr	r2, [r4, #12]
 3691 0024 1207     		lsls	r2, r2, #28
 3692 0026 FAD4     		bmi	.L337
 3693              	.LVL305:
 3694              	.L319:
 3695              		.loc 1 2460 0 is_stmt 1
 3696 0028 0E4A     		ldr	r2, .L339
 3697 002a D368     		ldr	r3, [r2, #12]
 3698 002c 13F00803 		ands	r3, r3, #8
 3699 0030 13D1     		bne	.L322
 3700              		.loc 1 2463 0
 3701 0032 9468     		ldr	r4, [r2, #8]
 3702 0034 E406     		lsls	r4, r4, #27
 3703 0036 04D5     		bpl	.L338
 3704              		.loc 1 2488 0
 3705 0038 0A4A     		ldr	r2, .L339
 3706 003a FF21     		movs	r1, #255
 3707              	.LVL306:
 3708              		.loc 1 2484 0
 3709 003c 1846     		mov	r0, r3
 3710              	.LVL307:
 3711              		.loc 1 2488 0
 3712 003e 5162     		str	r1, [r2, #36]
 3713              		.loc 1 2491 0
 3714 0040 10BD     		pop	{r4, pc}
 3715              	.LVL308:
 3716              	.L338:
 3717              		.loc 1 2466 0
 3718 0042 0143     		orrs	r1, r1, r0
 3719              	.LVL309:
 3720 0044 D162     		str	r1, [r2, #44]
 3721              		.loc 1 2468 0
 3722 0046 FFF7FEFF 		bl	RTC_WaitForSynchro
 3723              	.LVL310:
 3724              		.loc 1 2488 0
 3725 004a 064A     		ldr	r2, .L339
 3726              		.loc 1 2479 0
 3727 004c 0030     		adds	r0, r0, #0
 3728              		.loc 1 2488 0
 3729 004e 4FF0FF01 		mov	r1, #255
 3730              		.loc 1 2479 0
 3731 0052 18BF     		it	ne
 3732 0054 0120     		movne	r0, #1
 3733              	.LVL311:
 3734              		.loc 1 2488 0
 3735 0056 5162     		str	r1, [r2, #36]
ARM GAS  C:\Users\jsyoon\AppData\Local\Temp\ccHEUWmT.s 			page 67


 3736              		.loc 1 2491 0
 3737 0058 10BD     		pop	{r4, pc}
 3738              	.LVL312:
 3739              	.L322:
 3740              		.loc 1 2488 0
 3741 005a 024A     		ldr	r2, .L339
 3742 005c FF21     		movs	r1, #255
 3743              	.LVL313:
 3744              		.loc 1 2484 0
 3745 005e 0020     		movs	r0, #0
 3746              	.LVL314:
 3747              		.loc 1 2488 0
 3748 0060 5162     		str	r1, [r2, #36]
 3749              		.loc 1 2491 0
 3750 0062 10BD     		pop	{r4, pc}
 3751              	.L340:
 3752              		.align	2
 3753              	.L339:
 3754 0064 00280040 		.word	1073752064
 3755              		.cfi_endproc
 3756              	.LFE160:
 3757              		.size	RTC_SynchroShiftConfig, .-RTC_SynchroShiftConfig
 3758 0068 AFF30080 		.section	.text.RTC_ITConfig,"ax",%progbits
 3758      AFF30080 
 3759              		.align	2
 3760              		.p2align 4,,15
 3761              		.global	RTC_ITConfig
 3762              		.thumb
 3763              		.thumb_func
 3764              		.type	RTC_ITConfig, %function
 3765              	RTC_ITConfig:
 3766              	.LFB161:
 3767              		.loc 1 2556 0
 3768              		.cfi_startproc
 3769              		@ args = 0, pretend = 0, frame = 0
 3770              		@ frame_needed = 0, uses_anonymous_args = 0
 3771              		@ link register save eliminated.
 3772              	.LVL315:
 3773              		.loc 1 2562 0
 3774 0000 114B     		ldr	r3, .L345
 3775              		.loc 1 2556 0
 3776 0002 10B4     		push	{r4}
 3777              		.cfi_def_cfa_offset 4
 3778              		.cfi_offset 4, -4
 3779              		.loc 1 2563 0
 3780 0004 5322     		movs	r2, #83
 3781              		.loc 1 2562 0
 3782 0006 CA24     		movs	r4, #202
 3783 0008 5C62     		str	r4, [r3, #36]
 3784              		.loc 1 2563 0
 3785 000a 5A62     		str	r2, [r3, #36]
 3786              		.loc 1 2568 0
 3787 000c 9A68     		ldr	r2, [r3, #8]
 3788              		.loc 1 2565 0
 3789 000e 81B9     		cbnz	r1, .L344
 3790              		.loc 1 2575 0
 3791 0010 20F00401 		bic	r1, r0, #4
ARM GAS  C:\Users\jsyoon\AppData\Local\Temp\ccHEUWmT.s 			page 68


 3792              	.LVL316:
 3793 0014 22EA0102 		bic	r2, r2, r1
 3794 0018 9A60     		str	r2, [r3, #8]
 3795              		.loc 1 2577 0
 3796 001a 1A6C     		ldr	r2, [r3, #64]
 3797 001c 00F00400 		and	r0, r0, #4
 3798              	.LVL317:
 3799 0020 22EA0000 		bic	r0, r2, r0
 3800 0024 1864     		str	r0, [r3, #64]
 3801              	.L343:
 3802              		.loc 1 2580 0
 3803 0026 084B     		ldr	r3, .L345
 3804              		.loc 1 2581 0
 3805 0028 5DF8044B 		ldr	r4, [sp], #4
 3806              		.loc 1 2580 0
 3807 002c FF22     		movs	r2, #255
 3808 002e 5A62     		str	r2, [r3, #36]
 3809              		.loc 1 2581 0
 3810 0030 7047     		bx	lr
 3811              	.LVL318:
 3812              	.L344:
 3813              		.loc 1 2568 0
 3814 0032 20F00401 		bic	r1, r0, #4
 3815              	.LVL319:
 3816 0036 0A43     		orrs	r2, r2, r1
 3817 0038 9A60     		str	r2, [r3, #8]
 3818              		.loc 1 2570 0
 3819 003a 1A6C     		ldr	r2, [r3, #64]
 3820 003c 00F00400 		and	r0, r0, #4
 3821              	.LVL320:
 3822 0040 1043     		orrs	r0, r0, r2
 3823 0042 1864     		str	r0, [r3, #64]
 3824 0044 EFE7     		b	.L343
 3825              	.L346:
 3826 0046 00BF     		.align	2
 3827              	.L345:
 3828 0048 00280040 		.word	1073752064
 3829              		.cfi_endproc
 3830              	.LFE161:
 3831              		.size	RTC_ITConfig, .-RTC_ITConfig
 3832 004c AFF30080 		.section	.text.RTC_GetFlagStatus,"ax",%progbits
 3833              		.align	2
 3834              		.p2align 4,,15
 3835              		.global	RTC_GetFlagStatus
 3836              		.thumb
 3837              		.thumb_func
 3838              		.type	RTC_GetFlagStatus, %function
 3839              	RTC_GetFlagStatus:
 3840              	.LFB162:
 3841              		.loc 1 2604 0
 3842              		.cfi_startproc
 3843              		@ args = 0, pretend = 0, frame = 0
 3844              		@ frame_needed = 0, uses_anonymous_args = 0
 3845              		@ link register save eliminated.
 3846              	.LVL321:
 3847              		.loc 1 2612 0
 3848 0000 044A     		ldr	r2, .L348
ARM GAS  C:\Users\jsyoon\AppData\Local\Temp\ccHEUWmT.s 			page 69


 3849 0002 054B     		ldr	r3, .L348+4
 3850 0004 D268     		ldr	r2, [r2, #12]
 3851              	.LVL322:
 3852 0006 1340     		ands	r3, r3, r2
 3853              	.LVL323:
 3854              		.loc 1 2615 0
 3855 0008 0342     		tst	r3, r0
 3856              		.loc 1 2624 0
 3857 000a 0CBF     		ite	eq
 3858 000c 0020     		moveq	r0, #0
 3859 000e 0120     		movne	r0, #1
 3860              	.LVL324:
 3861 0010 7047     		bx	lr
 3862              	.L349:
 3863 0012 00BF     		.align	2
 3864              	.L348:
 3865 0014 00280040 		.word	1073752064
 3866 0018 7F3F0100 		.word	81791
 3867              		.cfi_endproc
 3868              	.LFE162:
 3869              		.size	RTC_GetFlagStatus, .-RTC_GetFlagStatus
 3870 001c AFF30080 		.section	.text.RTC_ClearFlag,"ax",%progbits
 3871              		.align	2
 3872              		.p2align 4,,15
 3873              		.global	RTC_ClearFlag
 3874              		.thumb
 3875              		.thumb_func
 3876              		.type	RTC_ClearFlag, %function
 3877              	RTC_ClearFlag:
 3878              	.LFB163:
 3879              		.loc 1 2640 0
 3880              		.cfi_startproc
 3881              		@ args = 0, pretend = 0, frame = 0
 3882              		@ frame_needed = 0, uses_anonymous_args = 0
 3883              		@ link register save eliminated.
 3884              	.LVL325:
 3885              		.loc 1 2645 0
 3886 0000 054B     		ldr	r3, .L351
 3887 0002 DA68     		ldr	r2, [r3, #12]
 3888 0004 80B2     		uxth	r0, r0
 3889              	.LVL326:
 3890 0006 40F08000 		orr	r0, r0, #128
 3891 000a 02F08002 		and	r2, r2, #128
 3892 000e 62EA0002 		orn	r2, r2, r0
 3893 0012 DA60     		str	r2, [r3, #12]
 3894 0014 7047     		bx	lr
 3895              	.L352:
 3896 0016 00BF     		.align	2
 3897              	.L351:
 3898 0018 00280040 		.word	1073752064
 3899              		.cfi_endproc
 3900              	.LFE163:
 3901              		.size	RTC_ClearFlag, .-RTC_ClearFlag
 3902 001c AFF30080 		.section	.text.RTC_GetITStatus,"ax",%progbits
 3903              		.align	2
 3904              		.p2align 4,,15
 3905              		.global	RTC_GetITStatus
ARM GAS  C:\Users\jsyoon\AppData\Local\Temp\ccHEUWmT.s 			page 70


 3906              		.thumb
 3907              		.thumb_func
 3908              		.type	RTC_GetITStatus, %function
 3909              	RTC_GetITStatus:
 3910              	.LFB164:
 3911              		.loc 1 2660 0
 3912              		.cfi_startproc
 3913              		@ args = 0, pretend = 0, frame = 0
 3914              		@ frame_needed = 0, uses_anonymous_args = 0
 3915              		@ link register save eliminated.
 3916              	.LVL327:
 3917              		.loc 1 2668 0
 3918 0000 0C4B     		ldr	r3, .L356
 3919 0002 1A6C     		ldr	r2, [r3, #64]
 3920              	.LVL328:
 3921              		.loc 1 2671 0
 3922 0004 9968     		ldr	r1, [r3, #8]
 3923              		.loc 1 2668 0
 3924 0006 02F00402 		and	r2, r2, #4
 3925              	.LVL329:
 3926              		.loc 1 2660 0
 3927 000a 10B4     		push	{r4}
 3928              		.cfi_def_cfa_offset 4
 3929              		.cfi_offset 4, -4
 3930              		.loc 1 2671 0
 3931 000c 02EAD032 		and	r2, r2, r0, lsr #15
 3932              	.LVL330:
 3933              		.loc 1 2674 0
 3934 0010 DC68     		ldr	r4, [r3, #12]
 3935              	.LVL331:
 3936              		.loc 1 2671 0
 3937 0012 00EA0103 		and	r3, r0, r1
 3938              		.loc 1 2677 0
 3939 0016 1343     		orrs	r3, r2, r3
 3940 0018 08D0     		beq	.L355
 3941              		.loc 1 2674 0 discriminator 1
 3942 001a A4B2     		uxth	r4, r4
 3943              	.LVL332:
 3944              		.loc 1 2677 0 discriminator 1
 3945 001c 14EA1014 		ands	r4, r4, r0, lsr #4
 3946              		.loc 1 2679 0 discriminator 1
 3947 0020 0CBF     		ite	eq
 3948 0022 0020     		moveq	r0, #0
 3949 0024 0120     		movne	r0, #1
 3950              	.LVL333:
 3951              		.loc 1 2686 0 discriminator 1
 3952 0026 5DF8044B 		ldr	r4, [sp], #4
 3953 002a 7047     		bx	lr
 3954              	.LVL334:
 3955              	.L355:
 3956              		.loc 1 2683 0
 3957 002c 1846     		mov	r0, r3
 3958              	.LVL335:
 3959              		.loc 1 2686 0
 3960 002e 5DF8044B 		ldr	r4, [sp], #4
 3961              	.LVL336:
 3962 0032 7047     		bx	lr
ARM GAS  C:\Users\jsyoon\AppData\Local\Temp\ccHEUWmT.s 			page 71


 3963              	.L357:
 3964              		.align	2
 3965              	.L356:
 3966 0034 00280040 		.word	1073752064
 3967              		.cfi_endproc
 3968              	.LFE164:
 3969              		.size	RTC_GetITStatus, .-RTC_GetITStatus
 3970 0038 AFF30080 		.section	.text.RTC_ClearITPendingBit,"ax",%progbits
 3970      AFF30080 
 3971              		.align	2
 3972              		.p2align 4,,15
 3973              		.global	RTC_ClearITPendingBit
 3974              		.thumb
 3975              		.thumb_func
 3976              		.type	RTC_ClearITPendingBit, %function
 3977              	RTC_ClearITPendingBit:
 3978              	.LFB165:
 3979              		.loc 1 2700 0
 3980              		.cfi_startproc
 3981              		@ args = 0, pretend = 0, frame = 0
 3982              		@ frame_needed = 0, uses_anonymous_args = 0
 3983              		@ link register save eliminated.
 3984              	.LVL337:
 3985              		.loc 1 2710 0
 3986 0000 054B     		ldr	r3, .L359
 3987 0002 DA68     		ldr	r2, [r3, #12]
 3988 0004 C0F30F10 		ubfx	r0, r0, #4, #16
 3989              	.LVL338:
 3990 0008 40F08000 		orr	r0, r0, #128
 3991 000c 02F08002 		and	r2, r2, #128
 3992 0010 62EA0002 		orn	r2, r2, r0
 3993 0014 DA60     		str	r2, [r3, #12]
 3994 0016 7047     		bx	lr
 3995              	.L360:
 3996              		.align	2
 3997              	.L359:
 3998 0018 00280040 		.word	1073752064
 3999              		.cfi_endproc
 4000              	.LFE165:
 4001              		.size	RTC_ClearITPendingBit, .-RTC_ClearITPendingBit
 4002 001c AFF30080 		.text
 4003              	.Letext0:
 4004              		.file 2 "c:\\crosstools\\gcc-arm-embedded\\4.8_2014q2\\arm-none-eabi\\include\\machine\\_default_t
 4005              		.file 3 "c:\\crosstools\\gcc-arm-embedded\\4.8_2014q2\\arm-none-eabi\\include\\stdint.h"
 4006              		.file 4 "ChibiOS_2.6.6/os/hal/platforms/STM32F4xx/stm32f4xx.h"
 4007              		.file 5 "ChibiOS_2.6.6/ext/stdperiph_stm32f4/inc/stm32f4xx_rtc.h"
 4008              		.file 6 "ChibiOS_2.6.6/os/ports/common/ARMCMx/CMSIS/include/core_cm4.h"
 4009              		.section	.debug_info,"",%progbits
 4010              	.Ldebug_info0:
 4011 0000 54160000 		.4byte	0x1654
 4012 0004 0400     		.2byte	0x4
 4013 0006 00000000 		.4byte	.Ldebug_abbrev0
 4014 000a 04       		.byte	0x4
 4015 000b 01       		.uleb128 0x1
 4016 000c 65060000 		.4byte	.LASF189
 4017 0010 01       		.byte	0x1
 4018 0011 E0040000 		.4byte	.LASF190
ARM GAS  C:\Users\jsyoon\AppData\Local\Temp\ccHEUWmT.s 			page 72


 4019 0015 53000000 		.4byte	.LASF191
 4020 0019 F0020000 		.4byte	.Ldebug_ranges0+0x2f0
 4021 001d 00000000 		.4byte	0
 4022 0021 00000000 		.4byte	.Ldebug_line0
 4023 0025 02       		.uleb128 0x2
 4024 0026 01       		.byte	0x1
 4025 0027 06       		.byte	0x6
 4026 0028 9D010000 		.4byte	.LASF0
 4027 002c 03       		.uleb128 0x3
 4028 002d A6000000 		.4byte	.LASF4
 4029 0031 02       		.byte	0x2
 4030 0032 1C       		.byte	0x1c
 4031 0033 37000000 		.4byte	0x37
 4032 0037 02       		.uleb128 0x2
 4033 0038 01       		.byte	0x1
 4034 0039 08       		.byte	0x8
 4035 003a 28080000 		.4byte	.LASF1
 4036 003e 02       		.uleb128 0x2
 4037 003f 02       		.byte	0x2
 4038 0040 05       		.byte	0x5
 4039 0041 97080000 		.4byte	.LASF2
 4040 0045 02       		.uleb128 0x2
 4041 0046 02       		.byte	0x2
 4042 0047 07       		.byte	0x7
 4043 0048 F6090000 		.4byte	.LASF3
 4044 004c 03       		.uleb128 0x3
 4045 004d C3090000 		.4byte	.LASF5
 4046 0051 02       		.byte	0x2
 4047 0052 37       		.byte	0x37
 4048 0053 57000000 		.4byte	0x57
 4049 0057 02       		.uleb128 0x2
 4050 0058 04       		.byte	0x4
 4051 0059 05       		.byte	0x5
 4052 005a 12020000 		.4byte	.LASF6
 4053 005e 03       		.uleb128 0x3
 4054 005f E3020000 		.4byte	.LASF7
 4055 0063 02       		.byte	0x2
 4056 0064 38       		.byte	0x38
 4057 0065 69000000 		.4byte	0x69
 4058 0069 02       		.uleb128 0x2
 4059 006a 04       		.byte	0x4
 4060 006b 07       		.byte	0x7
 4061 006c 01040000 		.4byte	.LASF8
 4062 0070 02       		.uleb128 0x2
 4063 0071 08       		.byte	0x8
 4064 0072 05       		.byte	0x5
 4065 0073 8F010000 		.4byte	.LASF9
 4066 0077 02       		.uleb128 0x2
 4067 0078 08       		.byte	0x8
 4068 0079 07       		.byte	0x7
 4069 007a 00010000 		.4byte	.LASF10
 4070 007e 04       		.uleb128 0x4
 4071 007f 04       		.byte	0x4
 4072 0080 05       		.byte	0x5
 4073 0081 696E7400 		.ascii	"int\000"
 4074 0085 02       		.uleb128 0x2
 4075 0086 04       		.byte	0x4
ARM GAS  C:\Users\jsyoon\AppData\Local\Temp\ccHEUWmT.s 			page 73


 4076 0087 07       		.byte	0x7
 4077 0088 73090000 		.4byte	.LASF11
 4078 008c 03       		.uleb128 0x3
 4079 008d ED0A0000 		.4byte	.LASF12
 4080 0091 03       		.byte	0x3
 4081 0092 2A       		.byte	0x2a
 4082 0093 2C000000 		.4byte	0x2c
 4083 0097 03       		.uleb128 0x3
 4084 0098 20080000 		.4byte	.LASF13
 4085 009c 03       		.byte	0x3
 4086 009d 41       		.byte	0x41
 4087 009e 4C000000 		.4byte	0x4c
 4088 00a2 03       		.uleb128 0x3
 4089 00a3 FC080000 		.4byte	.LASF14
 4090 00a7 03       		.byte	0x3
 4091 00a8 42       		.byte	0x42
 4092 00a9 5E000000 		.4byte	0x5e
 4093 00ad 02       		.uleb128 0x2
 4094 00ae 04       		.byte	0x4
 4095 00af 07       		.byte	0x7
 4096 00b0 9B050000 		.4byte	.LASF15
 4097 00b4 05       		.uleb128 0x5
 4098 00b5 A2000000 		.4byte	0xa2
 4099 00b9 05       		.uleb128 0x5
 4100 00ba 97000000 		.4byte	0x97
 4101 00be 06       		.uleb128 0x6
 4102 00bf 01       		.byte	0x1
 4103 00c0 04       		.byte	0x4
 4104 00c1 F701     		.2byte	0x1f7
 4105 00c3 D4000000 		.4byte	0xd4
 4106 00c7 07       		.uleb128 0x7
 4107 00c8 AB030000 		.4byte	.LASF16
 4108 00cc 00       		.sleb128 0
 4109 00cd 08       		.uleb128 0x8
 4110 00ce 53455400 		.ascii	"SET\000"
 4111 00d2 01       		.sleb128 1
 4112 00d3 00       		.byte	0
 4113 00d4 09       		.uleb128 0x9
 4114 00d5 48000000 		.4byte	.LASF17
 4115 00d9 04       		.byte	0x4
 4116 00da F701     		.2byte	0x1f7
 4117 00dc BE000000 		.4byte	0xbe
 4118 00e0 09       		.uleb128 0x9
 4119 00e1 74030000 		.4byte	.LASF18
 4120 00e5 04       		.byte	0x4
 4121 00e6 F701     		.2byte	0x1f7
 4122 00e8 BE000000 		.4byte	0xbe
 4123 00ec 06       		.uleb128 0x6
 4124 00ed 01       		.byte	0x1
 4125 00ee 04       		.byte	0x4
 4126 00ef F901     		.2byte	0x1f9
 4127 00f1 02010000 		.4byte	0x102
 4128 00f5 07       		.uleb128 0x7
 4129 00f6 F1000000 		.4byte	.LASF19
 4130 00fa 00       		.sleb128 0
 4131 00fb 07       		.uleb128 0x7
 4132 00fc 6E020000 		.4byte	.LASF20
ARM GAS  C:\Users\jsyoon\AppData\Local\Temp\ccHEUWmT.s 			page 74


 4133 0100 01       		.sleb128 1
 4134 0101 00       		.byte	0
 4135 0102 09       		.uleb128 0x9
 4136 0103 ED050000 		.4byte	.LASF21
 4137 0107 04       		.byte	0x4
 4138 0108 F901     		.2byte	0x1f9
 4139 010a EC000000 		.4byte	0xec
 4140 010e 06       		.uleb128 0x6
 4141 010f 01       		.byte	0x1
 4142 0110 04       		.byte	0x4
 4143 0111 FC01     		.2byte	0x1fc
 4144 0113 24010000 		.4byte	0x124
 4145 0117 07       		.uleb128 0x7
 4146 0118 A4050000 		.4byte	.LASF22
 4147 011c 00       		.sleb128 0
 4148 011d 07       		.uleb128 0x7
 4149 011e FA0A0000 		.4byte	.LASF23
 4150 0122 01       		.sleb128 1
 4151 0123 00       		.byte	0
 4152 0124 09       		.uleb128 0x9
 4153 0125 FC020000 		.4byte	.LASF24
 4154 0129 04       		.byte	0x4
 4155 012a FC01     		.2byte	0x1fc
 4156 012c 0E010000 		.4byte	0x10e
 4157 0130 0A       		.uleb128 0xa
 4158 0131 A0       		.byte	0xa0
 4159 0132 04       		.byte	0x4
 4160 0133 8104     		.2byte	0x481
 4161 0135 3F030000 		.4byte	0x33f
 4162 0139 0B       		.uleb128 0xb
 4163 013a 545200   		.ascii	"TR\000"
 4164 013d 04       		.byte	0x4
 4165 013e 8304     		.2byte	0x483
 4166 0140 B4000000 		.4byte	0xb4
 4167 0144 00       		.byte	0
 4168 0145 0B       		.uleb128 0xb
 4169 0146 445200   		.ascii	"DR\000"
 4170 0149 04       		.byte	0x4
 4171 014a 8404     		.2byte	0x484
 4172 014c B4000000 		.4byte	0xb4
 4173 0150 04       		.byte	0x4
 4174 0151 0B       		.uleb128 0xb
 4175 0152 435200   		.ascii	"CR\000"
 4176 0155 04       		.byte	0x4
 4177 0156 8504     		.2byte	0x485
 4178 0158 B4000000 		.4byte	0xb4
 4179 015c 08       		.byte	0x8
 4180 015d 0B       		.uleb128 0xb
 4181 015e 49535200 		.ascii	"ISR\000"
 4182 0162 04       		.byte	0x4
 4183 0163 8604     		.2byte	0x486
 4184 0165 B4000000 		.4byte	0xb4
 4185 0169 0C       		.byte	0xc
 4186 016a 0C       		.uleb128 0xc
 4187 016b B6030000 		.4byte	.LASF25
 4188 016f 04       		.byte	0x4
 4189 0170 8704     		.2byte	0x487
ARM GAS  C:\Users\jsyoon\AppData\Local\Temp\ccHEUWmT.s 			page 75


 4190 0172 B4000000 		.4byte	0xb4
 4191 0176 10       		.byte	0x10
 4192 0177 0C       		.uleb128 0xc
 4193 0178 27090000 		.4byte	.LASF26
 4194 017c 04       		.byte	0x4
 4195 017d 8804     		.2byte	0x488
 4196 017f B4000000 		.4byte	0xb4
 4197 0183 14       		.byte	0x14
 4198 0184 0C       		.uleb128 0xc
 4199 0185 00000000 		.4byte	.LASF27
 4200 0189 04       		.byte	0x4
 4201 018a 8904     		.2byte	0x489
 4202 018c B4000000 		.4byte	0xb4
 4203 0190 18       		.byte	0x18
 4204 0191 0C       		.uleb128 0xc
 4205 0192 5E060000 		.4byte	.LASF28
 4206 0196 04       		.byte	0x4
 4207 0197 8A04     		.2byte	0x48a
 4208 0199 B4000000 		.4byte	0xb4
 4209 019d 1C       		.byte	0x1c
 4210 019e 0C       		.uleb128 0xc
 4211 019f E2080000 		.4byte	.LASF29
 4212 01a3 04       		.byte	0x4
 4213 01a4 8B04     		.2byte	0x48b
 4214 01a6 B4000000 		.4byte	0xb4
 4215 01aa 20       		.byte	0x20
 4216 01ab 0B       		.uleb128 0xb
 4217 01ac 57505200 		.ascii	"WPR\000"
 4218 01b0 04       		.byte	0x4
 4219 01b1 8C04     		.2byte	0x48c
 4220 01b3 B4000000 		.4byte	0xb4
 4221 01b7 24       		.byte	0x24
 4222 01b8 0B       		.uleb128 0xb
 4223 01b9 53535200 		.ascii	"SSR\000"
 4224 01bd 04       		.byte	0x4
 4225 01be 8D04     		.2byte	0x48d
 4226 01c0 B4000000 		.4byte	0xb4
 4227 01c4 28       		.byte	0x28
 4228 01c5 0C       		.uleb128 0xc
 4229 01c6 870A0000 		.4byte	.LASF30
 4230 01ca 04       		.byte	0x4
 4231 01cb 8E04     		.2byte	0x48e
 4232 01cd B4000000 		.4byte	0xb4
 4233 01d1 2C       		.byte	0x2c
 4234 01d2 0C       		.uleb128 0xc
 4235 01d3 B5040000 		.4byte	.LASF31
 4236 01d7 04       		.byte	0x4
 4237 01d8 8F04     		.2byte	0x48f
 4238 01da B4000000 		.4byte	0xb4
 4239 01de 30       		.byte	0x30
 4240 01df 0C       		.uleb128 0xc
 4241 01e0 B1030000 		.4byte	.LASF32
 4242 01e4 04       		.byte	0x4
 4243 01e5 9004     		.2byte	0x490
 4244 01e7 B4000000 		.4byte	0xb4
 4245 01eb 34       		.byte	0x34
 4246 01ec 0C       		.uleb128 0xc
ARM GAS  C:\Users\jsyoon\AppData\Local\Temp\ccHEUWmT.s 			page 76


 4247 01ed D5010000 		.4byte	.LASF33
 4248 01f1 04       		.byte	0x4
 4249 01f2 9104     		.2byte	0x491
 4250 01f4 B4000000 		.4byte	0xb4
 4251 01f8 38       		.byte	0x38
 4252 01f9 0C       		.uleb128 0xc
 4253 01fa 08030000 		.4byte	.LASF34
 4254 01fe 04       		.byte	0x4
 4255 01ff 9204     		.2byte	0x492
 4256 0201 B4000000 		.4byte	0xb4
 4257 0205 3C       		.byte	0x3c
 4258 0206 0C       		.uleb128 0xc
 4259 0207 7E040000 		.4byte	.LASF35
 4260 020b 04       		.byte	0x4
 4261 020c 9304     		.2byte	0x493
 4262 020e B4000000 		.4byte	0xb4
 4263 0212 40       		.byte	0x40
 4264 0213 0C       		.uleb128 0xc
 4265 0214 7D030000 		.4byte	.LASF36
 4266 0218 04       		.byte	0x4
 4267 0219 9404     		.2byte	0x494
 4268 021b B4000000 		.4byte	0xb4
 4269 021f 44       		.byte	0x44
 4270 0220 0C       		.uleb128 0xc
 4271 0221 43020000 		.4byte	.LASF37
 4272 0225 04       		.byte	0x4
 4273 0226 9504     		.2byte	0x495
 4274 0228 B4000000 		.4byte	0xb4
 4275 022c 48       		.byte	0x48
 4276 022d 0C       		.uleb128 0xc
 4277 022e 620A0000 		.4byte	.LASF38
 4278 0232 04       		.byte	0x4
 4279 0233 9604     		.2byte	0x496
 4280 0235 A2000000 		.4byte	0xa2
 4281 0239 4C       		.byte	0x4c
 4282 023a 0C       		.uleb128 0xc
 4283 023b C1080000 		.4byte	.LASF39
 4284 023f 04       		.byte	0x4
 4285 0240 9704     		.2byte	0x497
 4286 0242 B4000000 		.4byte	0xb4
 4287 0246 50       		.byte	0x50
 4288 0247 0C       		.uleb128 0xc
 4289 0248 E3090000 		.4byte	.LASF40
 4290 024c 04       		.byte	0x4
 4291 024d 9804     		.2byte	0x498
 4292 024f B4000000 		.4byte	0xb4
 4293 0253 54       		.byte	0x54
 4294 0254 0C       		.uleb128 0xc
 4295 0255 720B0000 		.4byte	.LASF41
 4296 0259 04       		.byte	0x4
 4297 025a 9904     		.2byte	0x499
 4298 025c B4000000 		.4byte	0xb4
 4299 0260 58       		.byte	0x58
 4300 0261 0C       		.uleb128 0xc
 4301 0262 C9000000 		.4byte	.LASF42
 4302 0266 04       		.byte	0x4
 4303 0267 9A04     		.2byte	0x49a
ARM GAS  C:\Users\jsyoon\AppData\Local\Temp\ccHEUWmT.s 			page 77


 4304 0269 B4000000 		.4byte	0xb4
 4305 026d 5C       		.byte	0x5c
 4306 026e 0C       		.uleb128 0xc
 4307 026f 3D020000 		.4byte	.LASF43
 4308 0273 04       		.byte	0x4
 4309 0274 9B04     		.2byte	0x49b
 4310 0276 B4000000 		.4byte	0xb4
 4311 027a 60       		.byte	0x60
 4312 027b 0C       		.uleb128 0xc
 4313 027c CC030000 		.4byte	.LASF44
 4314 0280 04       		.byte	0x4
 4315 0281 9C04     		.2byte	0x49c
 4316 0283 B4000000 		.4byte	0xb4
 4317 0287 64       		.byte	0x64
 4318 0288 0C       		.uleb128 0xc
 4319 0289 21050000 		.4byte	.LASF45
 4320 028d 04       		.byte	0x4
 4321 028e 9D04     		.2byte	0x49d
 4322 0290 B4000000 		.4byte	0xb4
 4323 0294 68       		.byte	0x68
 4324 0295 0C       		.uleb128 0xc
 4325 0296 99070000 		.4byte	.LASF46
 4326 029a 04       		.byte	0x4
 4327 029b 9E04     		.2byte	0x49e
 4328 029d B4000000 		.4byte	0xb4
 4329 02a1 6C       		.byte	0x6c
 4330 02a2 0C       		.uleb128 0xc
 4331 02a3 E9090000 		.4byte	.LASF47
 4332 02a7 04       		.byte	0x4
 4333 02a8 9F04     		.2byte	0x49f
 4334 02aa B4000000 		.4byte	0xb4
 4335 02ae 70       		.byte	0x70
 4336 02af 0C       		.uleb128 0xc
 4337 02b0 810A0000 		.4byte	.LASF48
 4338 02b4 04       		.byte	0x4
 4339 02b5 A004     		.2byte	0x4a0
 4340 02b7 B4000000 		.4byte	0xb4
 4341 02bb 74       		.byte	0x74
 4342 02bc 0C       		.uleb128 0xc
 4343 02bd AE040000 		.4byte	.LASF49
 4344 02c1 04       		.byte	0x4
 4345 02c2 A104     		.2byte	0x4a1
 4346 02c4 B4000000 		.4byte	0xb4
 4347 02c8 78       		.byte	0x78
 4348 02c9 0C       		.uleb128 0xc
 4349 02ca 1F060000 		.4byte	.LASF50
 4350 02ce 04       		.byte	0x4
 4351 02cf A204     		.2byte	0x4a2
 4352 02d1 B4000000 		.4byte	0xb4
 4353 02d5 7C       		.byte	0x7c
 4354 02d6 0C       		.uleb128 0xc
 4355 02d7 CF080000 		.4byte	.LASF51
 4356 02db 04       		.byte	0x4
 4357 02dc A304     		.2byte	0x4a3
 4358 02de B4000000 		.4byte	0xb4
 4359 02e2 80       		.byte	0x80
 4360 02e3 0C       		.uleb128 0xc
ARM GAS  C:\Users\jsyoon\AppData\Local\Temp\ccHEUWmT.s 			page 78


 4361 02e4 EF090000 		.4byte	.LASF52
 4362 02e8 04       		.byte	0x4
 4363 02e9 A404     		.2byte	0x4a4
 4364 02eb B4000000 		.4byte	0xb4
 4365 02ef 84       		.byte	0x84
 4366 02f0 0C       		.uleb128 0xc
 4367 02f1 A30B0000 		.4byte	.LASF53
 4368 02f5 04       		.byte	0x4
 4369 02f6 A504     		.2byte	0x4a5
 4370 02f8 B4000000 		.4byte	0xb4
 4371 02fc 88       		.byte	0x88
 4372 02fd 0C       		.uleb128 0xc
 4373 02fe F9000000 		.4byte	.LASF54
 4374 0302 04       		.byte	0x4
 4375 0303 A604     		.2byte	0x4a6
 4376 0305 B4000000 		.4byte	0xb4
 4377 0309 8C       		.byte	0x8c
 4378 030a 0C       		.uleb128 0xc
 4379 030b 67020000 		.4byte	.LASF55
 4380 030f 04       		.byte	0x4
 4381 0310 A704     		.2byte	0x4a7
 4382 0312 B4000000 		.4byte	0xb4
 4383 0316 90       		.byte	0x90
 4384 0317 0C       		.uleb128 0xc
 4385 0318 FA030000 		.4byte	.LASF56
 4386 031c 04       		.byte	0x4
 4387 031d A804     		.2byte	0x4a8
 4388 031f B4000000 		.4byte	0xb4
 4389 0323 94       		.byte	0x94
 4390 0324 0C       		.uleb128 0xc
 4391 0325 4C050000 		.4byte	.LASF57
 4392 0329 04       		.byte	0x4
 4393 032a A904     		.2byte	0x4a9
 4394 032c B4000000 		.4byte	0xb4
 4395 0330 98       		.byte	0x98
 4396 0331 0C       		.uleb128 0xc
 4397 0332 BA070000 		.4byte	.LASF58
 4398 0336 04       		.byte	0x4
 4399 0337 AA04     		.2byte	0x4aa
 4400 0339 B4000000 		.4byte	0xb4
 4401 033d 9C       		.byte	0x9c
 4402 033e 00       		.byte	0
 4403 033f 09       		.uleb128 0x9
 4404 0340 64010000 		.4byte	.LASF59
 4405 0344 04       		.byte	0x4
 4406 0345 AB04     		.2byte	0x4ab
 4407 0347 30010000 		.4byte	0x130
 4408 034b 0D       		.uleb128 0xd
 4409 034c 0C       		.byte	0xc
 4410 034d 05       		.byte	0x5
 4411 034e 35       		.byte	0x35
 4412 034f 78030000 		.4byte	0x378
 4413 0353 0E       		.uleb128 0xe
 4414 0354 CC050000 		.4byte	.LASF60
 4415 0358 05       		.byte	0x5
 4416 0359 37       		.byte	0x37
 4417 035a A2000000 		.4byte	0xa2
ARM GAS  C:\Users\jsyoon\AppData\Local\Temp\ccHEUWmT.s 			page 79


 4418 035e 00       		.byte	0
 4419 035f 0E       		.uleb128 0xe
 4420 0360 27050000 		.4byte	.LASF61
 4421 0364 05       		.byte	0x5
 4422 0365 3A       		.byte	0x3a
 4423 0366 A2000000 		.4byte	0xa2
 4424 036a 04       		.byte	0x4
 4425 036b 0E       		.uleb128 0xe
 4426 036c 300A0000 		.4byte	.LASF62
 4427 0370 05       		.byte	0x5
 4428 0371 3D       		.byte	0x3d
 4429 0372 A2000000 		.4byte	0xa2
 4430 0376 08       		.byte	0x8
 4431 0377 00       		.byte	0
 4432 0378 03       		.uleb128 0x3
 4433 0379 560B0000 		.4byte	.LASF63
 4434 037d 05       		.byte	0x5
 4435 037e 3F       		.byte	0x3f
 4436 037f 4B030000 		.4byte	0x34b
 4437 0383 0D       		.uleb128 0xd
 4438 0384 04       		.byte	0x4
 4439 0385 05       		.byte	0x5
 4440 0386 44       		.byte	0x44
 4441 0387 BC030000 		.4byte	0x3bc
 4442 038b 0E       		.uleb128 0xe
 4443 038c 24020000 		.4byte	.LASF64
 4444 0390 05       		.byte	0x5
 4445 0391 46       		.byte	0x46
 4446 0392 8C000000 		.4byte	0x8c
 4447 0396 00       		.byte	0
 4448 0397 0E       		.uleb128 0xe
 4449 0398 D6080000 		.4byte	.LASF65
 4450 039c 05       		.byte	0x5
 4451 039d 4B       		.byte	0x4b
 4452 039e 8C000000 		.4byte	0x8c
 4453 03a2 01       		.byte	0x1
 4454 03a3 0E       		.uleb128 0xe
 4455 03a4 63040000 		.4byte	.LASF66
 4456 03a8 05       		.byte	0x5
 4457 03a9 4E       		.byte	0x4e
 4458 03aa 8C000000 		.4byte	0x8c
 4459 03ae 02       		.byte	0x2
 4460 03af 0E       		.uleb128 0xe
 4461 03b0 CD090000 		.4byte	.LASF67
 4462 03b4 05       		.byte	0x5
 4463 03b5 51       		.byte	0x51
 4464 03b6 8C000000 		.4byte	0x8c
 4465 03ba 03       		.byte	0x3
 4466 03bb 00       		.byte	0
 4467 03bc 03       		.uleb128 0x3
 4468 03bd 38060000 		.4byte	.LASF68
 4469 03c1 05       		.byte	0x5
 4470 03c2 53       		.byte	0x53
 4471 03c3 83030000 		.4byte	0x383
 4472 03c7 0D       		.uleb128 0xd
 4473 03c8 04       		.byte	0x4
 4474 03c9 05       		.byte	0x5
ARM GAS  C:\Users\jsyoon\AppData\Local\Temp\ccHEUWmT.s 			page 80


 4475 03ca 58       		.byte	0x58
 4476 03cb 00040000 		.4byte	0x400
 4477 03cf 0E       		.uleb128 0xe
 4478 03d0 13040000 		.4byte	.LASF69
 4479 03d4 05       		.byte	0x5
 4480 03d5 5A       		.byte	0x5a
 4481 03d6 8C000000 		.4byte	0x8c
 4482 03da 00       		.byte	0
 4483 03db 0E       		.uleb128 0xe
 4484 03dc 580A0000 		.4byte	.LASF70
 4485 03e0 05       		.byte	0x5
 4486 03e1 5D       		.byte	0x5d
 4487 03e2 8C000000 		.4byte	0x8c
 4488 03e6 01       		.byte	0x1
 4489 03e7 0E       		.uleb128 0xe
 4490 03e8 18050000 		.4byte	.LASF71
 4491 03ec 05       		.byte	0x5
 4492 03ed 60       		.byte	0x60
 4493 03ee 8C000000 		.4byte	0x8c
 4494 03f2 02       		.byte	0x2
 4495 03f3 0E       		.uleb128 0xe
 4496 03f4 C20A0000 		.4byte	.LASF72
 4497 03f8 05       		.byte	0x5
 4498 03f9 63       		.byte	0x63
 4499 03fa 8C000000 		.4byte	0x8c
 4500 03fe 03       		.byte	0x3
 4501 03ff 00       		.byte	0
 4502 0400 03       		.uleb128 0x3
 4503 0401 89070000 		.4byte	.LASF73
 4504 0405 05       		.byte	0x5
 4505 0406 65       		.byte	0x65
 4506 0407 C7030000 		.4byte	0x3c7
 4507 040b 0D       		.uleb128 0xd
 4508 040c 10       		.byte	0x10
 4509 040d 05       		.byte	0x5
 4510 040e 6A       		.byte	0x6a
 4511 040f 44040000 		.4byte	0x444
 4512 0413 0E       		.uleb128 0xe
 4513 0414 D5090000 		.4byte	.LASF74
 4514 0418 05       		.byte	0x5
 4515 0419 6C       		.byte	0x6c
 4516 041a BC030000 		.4byte	0x3bc
 4517 041e 00       		.byte	0
 4518 041f 0E       		.uleb128 0xe
 4519 0420 AC070000 		.4byte	.LASF75
 4520 0424 05       		.byte	0x5
 4521 0425 6E       		.byte	0x6e
 4522 0426 A2000000 		.4byte	0xa2
 4523 042a 04       		.byte	0x4
 4524 042b 0E       		.uleb128 0xe
 4525 042c 400A0000 		.4byte	.LASF76
 4526 0430 05       		.byte	0x5
 4527 0431 71       		.byte	0x71
 4528 0432 A2000000 		.4byte	0xa2
 4529 0436 08       		.byte	0x8
 4530 0437 0E       		.uleb128 0xe
 4531 0438 6C0A0000 		.4byte	.LASF77
ARM GAS  C:\Users\jsyoon\AppData\Local\Temp\ccHEUWmT.s 			page 81


 4532 043c 05       		.byte	0x5
 4533 043d 74       		.byte	0x74
 4534 043e 8C000000 		.4byte	0x8c
 4535 0442 0C       		.byte	0xc
 4536 0443 00       		.byte	0
 4537 0444 03       		.uleb128 0x3
 4538 0445 46010000 		.4byte	.LASF78
 4539 0449 05       		.byte	0x5
 4540 044a 79       		.byte	0x79
 4541 044b 0B040000 		.4byte	0x40b
 4542 044f 0F       		.uleb128 0xf
 4543 0450 A9010000 		.4byte	.LASF192
 4544 0454 01       		.byte	0x1
 4545 0455 2602     		.2byte	0x226
 4546 0457 24010000 		.4byte	0x124
 4547 045b 01       		.byte	0x1
 4548 045c 85040000 		.4byte	0x485
 4549 0460 10       		.uleb128 0x10
 4550 0461 39040000 		.4byte	.LASF79
 4551 0465 01       		.byte	0x1
 4552 0466 2802     		.2byte	0x228
 4553 0468 B4000000 		.4byte	0xb4
 4554 046c 10       		.uleb128 0x10
 4555 046d BB0A0000 		.4byte	.LASF80
 4556 0471 01       		.byte	0x1
 4557 0472 2902     		.2byte	0x229
 4558 0474 24010000 		.4byte	0x124
 4559 0478 10       		.uleb128 0x10
 4560 0479 2E040000 		.4byte	.LASF81
 4561 047d 01       		.byte	0x1
 4562 047e 2A02     		.2byte	0x22a
 4563 0480 A2000000 		.4byte	0xa2
 4564 0484 00       		.byte	0
 4565 0485 11       		.uleb128 0x11
 4566 0486 E9030000 		.4byte	.LASF193
 4567 048a 01       		.byte	0x1
 4568 048b 5302     		.2byte	0x253
 4569 048d 01       		.byte	0x1
 4570 048e 12       		.uleb128 0x12
 4571 048f 020B0000 		.4byte	.LASF82
 4572 0493 01       		.byte	0x1
 4573 0494 B40A     		.2byte	0xab4
 4574 0496 8C000000 		.4byte	0x8c
 4575 049a 01       		.byte	0x1
 4576 049b B8040000 		.4byte	0x4b8
 4577 049f 13       		.uleb128 0x13
 4578 04a0 E70A0000 		.4byte	.LASF84
 4579 04a4 01       		.byte	0x1
 4580 04a5 B40A     		.2byte	0xab4
 4581 04a7 8C000000 		.4byte	0x8c
 4582 04ab 14       		.uleb128 0x14
 4583 04ac 746D7000 		.ascii	"tmp\000"
 4584 04b0 01       		.byte	0x1
 4585 04b1 B60A     		.2byte	0xab6
 4586 04b3 8C000000 		.4byte	0x8c
 4587 04b7 00       		.byte	0
 4588 04b8 12       		.uleb128 0x12
ARM GAS  C:\Users\jsyoon\AppData\Local\Temp\ccHEUWmT.s 			page 82


 4589 04b9 CB0A0000 		.4byte	.LASF83
 4590 04bd 01       		.byte	0x1
 4591 04be A20A     		.2byte	0xaa2
 4592 04c0 8C000000 		.4byte	0x8c
 4593 04c4 01       		.byte	0x1
 4594 04c5 E2040000 		.4byte	0x4e2
 4595 04c9 13       		.uleb128 0x13
 4596 04ca E70A0000 		.4byte	.LASF84
 4597 04ce 01       		.byte	0x1
 4598 04cf A20A     		.2byte	0xaa2
 4599 04d1 8C000000 		.4byte	0x8c
 4600 04d5 10       		.uleb128 0x10
 4601 04d6 C7080000 		.4byte	.LASF85
 4602 04da 01       		.byte	0x1
 4603 04db A40A     		.2byte	0xaa4
 4604 04dd 8C000000 		.4byte	0x8c
 4605 04e1 00       		.byte	0
 4606 04e2 15       		.uleb128 0x15
 4607 04e3 8B020000 		.4byte	.LASF86
 4608 04e7 01       		.byte	0x1
 4609 04e8 F501     		.2byte	0x1f5
 4610 04ea 00000000 		.4byte	.LFB113
 4611 04ee 0C000000 		.4byte	.LFE113-.LFB113
 4612 04f2 01       		.uleb128 0x1
 4613 04f3 9C       		.byte	0x9c
 4614 04f4 07050000 		.4byte	0x507
 4615 04f8 16       		.uleb128 0x16
 4616 04f9 2E020000 		.4byte	.LASF88
 4617 04fd 01       		.byte	0x1
 4618 04fe F501     		.2byte	0x1f5
 4619 0500 07050000 		.4byte	0x507
 4620 0504 01       		.uleb128 0x1
 4621 0505 50       		.byte	0x50
 4622 0506 00       		.byte	0
 4623 0507 17       		.uleb128 0x17
 4624 0508 04       		.byte	0x4
 4625 0509 78030000 		.4byte	0x378
 4626 050d 15       		.uleb128 0x15
 4627 050e 8E0A0000 		.4byte	.LASF87
 4628 0512 01       		.byte	0x1
 4629 0513 0B02     		.2byte	0x20b
 4630 0515 00000000 		.4byte	.LFB114
 4631 0519 18000000 		.4byte	.LFE114-.LFB114
 4632 051d 01       		.uleb128 0x1
 4633 051e 9C       		.byte	0x9c
 4634 051f 32050000 		.4byte	0x532
 4635 0523 16       		.uleb128 0x16
 4636 0524 07000000 		.4byte	.LASF89
 4637 0528 01       		.byte	0x1
 4638 0529 0B02     		.2byte	0x20b
 4639 052b 02010000 		.4byte	0x102
 4640 052f 01       		.uleb128 0x1
 4641 0530 50       		.byte	0x50
 4642 0531 00       		.byte	0
 4643 0532 18       		.uleb128 0x18
 4644 0533 4F040000 		.4byte	0x44f
 4645 0537 00000000 		.4byte	.LFB115
ARM GAS  C:\Users\jsyoon\AppData\Local\Temp\ccHEUWmT.s 			page 83


 4646 053b 44000000 		.4byte	.LFE115-.LFB115
 4647 053f 01       		.uleb128 0x1
 4648 0540 9C       		.byte	0x9c
 4649 0541 7D050000 		.4byte	0x57d
 4650 0545 19       		.uleb128 0x19
 4651 0546 60040000 		.4byte	0x460
 4652 054a 02       		.uleb128 0x2
 4653 054b 91       		.byte	0x91
 4654 054c 7C       		.sleb128 -4
 4655 054d 1A       		.uleb128 0x1a
 4656 054e 6C040000 		.4byte	0x46c
 4657 0552 00000000 		.4byte	.LLST0
 4658 0556 1A       		.uleb128 0x1a
 4659 0557 78040000 		.4byte	0x478
 4660 055b 36000000 		.4byte	.LLST1
 4661 055f 1B       		.uleb128 0x1b
 4662 0560 2C000000 		.4byte	.LBB81
 4663 0564 08000000 		.4byte	.LBE81-.LBB81
 4664 0568 1C       		.uleb128 0x1c
 4665 0569 60040000 		.4byte	0x460
 4666 056d 1A       		.uleb128 0x1a
 4667 056e 6C040000 		.4byte	0x46c
 4668 0572 6C000000 		.4byte	.LLST2
 4669 0576 1C       		.uleb128 0x1c
 4670 0577 78040000 		.4byte	0x478
 4671 057b 00       		.byte	0
 4672 057c 00       		.byte	0
 4673 057d 1D       		.uleb128 0x1d
 4674 057e CF000000 		.4byte	.LASF90
 4675 0582 01       		.byte	0x1
 4676 0583 C701     		.2byte	0x1c7
 4677 0585 24010000 		.4byte	0x124
 4678 0589 00000000 		.4byte	.LFB112
 4679 058d 48000000 		.4byte	.LFE112-.LFB112
 4680 0591 01       		.uleb128 0x1
 4681 0592 9C       		.byte	0x9c
 4682 0593 D1050000 		.4byte	0x5d1
 4683 0597 1E       		.uleb128 0x1e
 4684 0598 2E020000 		.4byte	.LASF88
 4685 059c 01       		.byte	0x1
 4686 059d C701     		.2byte	0x1c7
 4687 059f 07050000 		.4byte	0x507
 4688 05a3 7F000000 		.4byte	.LLST3
 4689 05a7 1F       		.uleb128 0x1f
 4690 05a8 BB0A0000 		.4byte	.LASF80
 4691 05ac 01       		.byte	0x1
 4692 05ad C901     		.2byte	0x1c9
 4693 05af 24010000 		.4byte	0x124
 4694 05b3 AB000000 		.4byte	.LLST4
 4695 05b7 20       		.uleb128 0x20
 4696 05b8 85040000 		.4byte	0x485
 4697 05bc 32000000 		.4byte	.LBB82
 4698 05c0 08000000 		.4byte	.LBE82-.LBB82
 4699 05c4 01       		.byte	0x1
 4700 05c5 E501     		.2byte	0x1e5
 4701 05c7 21       		.uleb128 0x21
 4702 05c8 12000000 		.4byte	.LVL10
ARM GAS  C:\Users\jsyoon\AppData\Local\Temp\ccHEUWmT.s 			page 84


 4703 05cc 4F040000 		.4byte	0x44f
 4704 05d0 00       		.byte	0
 4705 05d1 22       		.uleb128 0x22
 4706 05d2 85040000 		.4byte	0x485
 4707 05d6 00000000 		.4byte	.LFB116
 4708 05da 10000000 		.4byte	.LFE116-.LFB116
 4709 05de 01       		.uleb128 0x1
 4710 05df 9C       		.byte	0x9c
 4711 05e0 1D       		.uleb128 0x1d
 4712 05e1 E9080000 		.4byte	.LASF91
 4713 05e5 01       		.byte	0x1
 4714 05e6 6902     		.2byte	0x269
 4715 05e8 24010000 		.4byte	0x124
 4716 05ec 00000000 		.4byte	.LFB117
 4717 05f0 44000000 		.4byte	.LFE117-.LFB117
 4718 05f4 01       		.uleb128 0x1
 4719 05f5 9C       		.byte	0x9c
 4720 05f6 2A060000 		.4byte	0x62a
 4721 05fa 23       		.uleb128 0x23
 4722 05fb 6F040000 		.4byte	.LASF92
 4723 05ff 01       		.byte	0x1
 4724 0600 6B02     		.2byte	0x26b
 4725 0602 B4000000 		.4byte	0xb4
 4726 0606 02       		.uleb128 0x2
 4727 0607 91       		.byte	0x91
 4728 0608 7C       		.sleb128 -4
 4729 0609 1F       		.uleb128 0x1f
 4730 060a BB0A0000 		.4byte	.LASF80
 4731 060e 01       		.byte	0x1
 4732 060f 6C02     		.2byte	0x26c
 4733 0611 24010000 		.4byte	0x124
 4734 0615 D6000000 		.4byte	.LLST5
 4735 0619 1F       		.uleb128 0x1f
 4736 061a 330B0000 		.4byte	.LASF93
 4737 061e 01       		.byte	0x1
 4738 061f 6D02     		.2byte	0x26d
 4739 0621 A2000000 		.4byte	0xa2
 4740 0625 FC000000 		.4byte	.LLST6
 4741 0629 00       		.byte	0
 4742 062a 1D       		.uleb128 0x1d
 4743 062b 8C080000 		.4byte	.LASF94
 4744 062f 01       		.byte	0x1
 4745 0630 7501     		.2byte	0x175
 4746 0632 24010000 		.4byte	0x124
 4747 0636 00000000 		.4byte	.LFB111
 4748 063a 8C000000 		.4byte	.LFE111-.LFB111
 4749 063e 01       		.uleb128 0x1
 4750 063f 9C       		.byte	0x9c
 4751 0640 86060000 		.4byte	0x686
 4752 0644 23       		.uleb128 0x23
 4753 0645 45040000 		.4byte	.LASF95
 4754 0649 01       		.byte	0x1
 4755 064a 7701     		.2byte	0x177
 4756 064c B4000000 		.4byte	0xb4
 4757 0650 02       		.uleb128 0x2
 4758 0651 91       		.byte	0x91
 4759 0652 6C       		.sleb128 -20
ARM GAS  C:\Users\jsyoon\AppData\Local\Temp\ccHEUWmT.s 			page 85


 4760 0653 1F       		.uleb128 0x1f
 4761 0654 BB010000 		.4byte	.LASF96
 4762 0658 01       		.byte	0x1
 4763 0659 7801     		.2byte	0x178
 4764 065b A2000000 		.4byte	0xa2
 4765 065f 26010000 		.4byte	.LLST7
 4766 0663 1F       		.uleb128 0x1f
 4767 0664 BB0A0000 		.4byte	.LASF80
 4768 0668 01       		.byte	0x1
 4769 0669 7901     		.2byte	0x179
 4770 066b 24010000 		.4byte	0x124
 4771 066f 50010000 		.4byte	.LLST8
 4772 0673 21       		.uleb128 0x21
 4773 0674 16000000 		.4byte	.LVL22
 4774 0678 4F040000 		.4byte	0x44f
 4775 067c 21       		.uleb128 0x21
 4776 067d 7C000000 		.4byte	.LVL29
 4777 0681 E0050000 		.4byte	0x5e0
 4778 0685 00       		.byte	0
 4779 0686 1D       		.uleb128 0x1d
 4780 0687 F6070000 		.4byte	.LASF97
 4781 068b 01       		.byte	0x1
 4782 068c 9402     		.2byte	0x294
 4783 068e 24010000 		.4byte	0x124
 4784 0692 00000000 		.4byte	.LFB118
 4785 0696 40000000 		.4byte	.LFE118-.LFB118
 4786 069a 01       		.uleb128 0x1
 4787 069b 9C       		.byte	0x9c
 4788 069c DA060000 		.4byte	0x6da
 4789 06a0 1E       		.uleb128 0x1e
 4790 06a1 07000000 		.4byte	.LASF89
 4791 06a5 01       		.byte	0x1
 4792 06a6 9402     		.2byte	0x294
 4793 06a8 02010000 		.4byte	0x102
 4794 06ac 7B010000 		.4byte	.LLST9
 4795 06b0 1F       		.uleb128 0x1f
 4796 06b1 BB0A0000 		.4byte	.LASF80
 4797 06b5 01       		.byte	0x1
 4798 06b6 9602     		.2byte	0x296
 4799 06b8 24010000 		.4byte	0x124
 4800 06bc 9C010000 		.4byte	.LLST10
 4801 06c0 20       		.uleb128 0x20
 4802 06c1 85040000 		.4byte	0x485
 4803 06c5 1E000000 		.4byte	.LBB84
 4804 06c9 0A000000 		.4byte	.LBE84-.LBB84
 4805 06cd 01       		.byte	0x1
 4806 06ce B102     		.2byte	0x2b1
 4807 06d0 21       		.uleb128 0x21
 4808 06d1 12000000 		.4byte	.LVL31
 4809 06d5 4F040000 		.4byte	0x44f
 4810 06d9 00       		.byte	0
 4811 06da 15       		.uleb128 0x15
 4812 06db 38050000 		.4byte	.LASF98
 4813 06df 01       		.byte	0x1
 4814 06e0 C402     		.2byte	0x2c4
 4815 06e2 00000000 		.4byte	.LFB119
 4816 06e6 30000000 		.4byte	.LFE119-.LFB119
ARM GAS  C:\Users\jsyoon\AppData\Local\Temp\ccHEUWmT.s 			page 86


 4817 06ea 01       		.uleb128 0x1
 4818 06eb 9C       		.byte	0x9c
 4819 06ec FF060000 		.4byte	0x6ff
 4820 06f0 16       		.uleb128 0x16
 4821 06f1 07000000 		.4byte	.LASF89
 4822 06f5 01       		.byte	0x1
 4823 06f6 C402     		.2byte	0x2c4
 4824 06f8 02010000 		.4byte	0x102
 4825 06fc 01       		.uleb128 0x1
 4826 06fd 50       		.byte	0x50
 4827 06fe 00       		.byte	0
 4828 06ff 1D       		.uleb128 0x1d
 4829 0700 2D010000 		.4byte	.LASF99
 4830 0704 01       		.byte	0x1
 4831 0705 FB02     		.2byte	0x2fb
 4832 0707 24010000 		.4byte	0x124
 4833 070b 00000000 		.4byte	.LFB120
 4834 070f EC000000 		.4byte	.LFE120-.LFB120
 4835 0713 01       		.uleb128 0x1
 4836 0714 9C       		.byte	0x9c
 4837 0715 07080000 		.4byte	0x807
 4838 0719 1E       		.uleb128 0x1e
 4839 071a 80090000 		.4byte	.LASF100
 4840 071e 01       		.byte	0x1
 4841 071f FB02     		.2byte	0x2fb
 4842 0721 A2000000 		.4byte	0xa2
 4843 0725 D3010000 		.4byte	.LLST11
 4844 0729 1E       		.uleb128 0x1e
 4845 072a AC020000 		.4byte	.LASF101
 4846 072e 01       		.byte	0x1
 4847 072f FB02     		.2byte	0x2fb
 4848 0731 07080000 		.4byte	0x807
 4849 0735 26020000 		.4byte	.LLST12
 4850 0739 1F       		.uleb128 0x1f
 4851 073a DB010000 		.4byte	.LASF102
 4852 073e 01       		.byte	0x1
 4853 073f FD02     		.2byte	0x2fd
 4854 0741 A2000000 		.4byte	0xa2
 4855 0745 84020000 		.4byte	.LLST13
 4856 0749 1F       		.uleb128 0x1f
 4857 074a BB0A0000 		.4byte	.LASF80
 4858 074e 01       		.byte	0x1
 4859 074f FE02     		.2byte	0x2fe
 4860 0751 24010000 		.4byte	0x124
 4861 0755 DD020000 		.4byte	.LLST14
 4862 0759 24       		.uleb128 0x24
 4863 075a B8040000 		.4byte	0x4b8
 4864 075e 14000000 		.4byte	.LBB86
 4865 0762 18000000 		.4byte	.LBE86-.LBB86
 4866 0766 01       		.byte	0x1
 4867 0767 2D03     		.2byte	0x32d
 4868 0769 8A070000 		.4byte	0x78a
 4869 076d 25       		.uleb128 0x25
 4870 076e C9040000 		.4byte	0x4c9
 4871 0772 1F030000 		.4byte	.LLST15
 4872 0776 1B       		.uleb128 0x1b
 4873 0777 14000000 		.4byte	.LBB87
ARM GAS  C:\Users\jsyoon\AppData\Local\Temp\ccHEUWmT.s 			page 87


 4874 077b 18000000 		.4byte	.LBE87-.LBB87
 4875 077f 1A       		.uleb128 0x1a
 4876 0780 D5040000 		.4byte	0x4d5
 4877 0784 56030000 		.4byte	.LLST16
 4878 0788 00       		.byte	0
 4879 0789 00       		.byte	0
 4880 078a 26       		.uleb128 0x26
 4881 078b B8040000 		.4byte	0x4b8
 4882 078f 30000000 		.4byte	.LBB88
 4883 0793 00000000 		.4byte	.Ldebug_ranges0+0
 4884 0797 01       		.byte	0x1
 4885 0798 2E03     		.2byte	0x32e
 4886 079a B7070000 		.4byte	0x7b7
 4887 079e 25       		.uleb128 0x25
 4888 079f C9040000 		.4byte	0x4c9
 4889 07a3 8D030000 		.4byte	.LLST17
 4890 07a7 27       		.uleb128 0x27
 4891 07a8 00000000 		.4byte	.Ldebug_ranges0+0
 4892 07ac 1A       		.uleb128 0x1a
 4893 07ad D5040000 		.4byte	0x4d5
 4894 07b1 D0030000 		.4byte	.LLST18
 4895 07b5 00       		.byte	0
 4896 07b6 00       		.byte	0
 4897 07b7 26       		.uleb128 0x26
 4898 07b8 B8040000 		.4byte	0x4b8
 4899 07bc 4E000000 		.4byte	.LBB93
 4900 07c0 20000000 		.4byte	.Ldebug_ranges0+0x20
 4901 07c4 01       		.byte	0x1
 4902 07c5 2F03     		.2byte	0x32f
 4903 07c7 E4070000 		.4byte	0x7e4
 4904 07cb 25       		.uleb128 0x25
 4905 07cc C9040000 		.4byte	0x4c9
 4906 07d0 13040000 		.4byte	.LLST19
 4907 07d4 27       		.uleb128 0x27
 4908 07d5 20000000 		.4byte	.Ldebug_ranges0+0x20
 4909 07d9 1A       		.uleb128 0x1a
 4910 07da D5040000 		.4byte	0x4d5
 4911 07de 4A040000 		.4byte	.LLST20
 4912 07e2 00       		.byte	0
 4913 07e3 00       		.byte	0
 4914 07e4 20       		.uleb128 0x20
 4915 07e5 85040000 		.4byte	0x485
 4916 07e9 AA000000 		.4byte	.LBB97
 4917 07ed 08000000 		.4byte	.LBE97-.LBB97
 4918 07f1 01       		.byte	0x1
 4919 07f2 4203     		.2byte	0x342
 4920 07f4 21       		.uleb128 0x21
 4921 07f5 9E000000 		.4byte	.LVL66
 4922 07f9 4F040000 		.4byte	0x44f
 4923 07fd 21       		.uleb128 0x21
 4924 07fe D2000000 		.4byte	.LVL70
 4925 0802 E0050000 		.4byte	0x5e0
 4926 0806 00       		.byte	0
 4927 0807 17       		.uleb128 0x17
 4928 0808 04       		.byte	0x4
 4929 0809 BC030000 		.4byte	0x3bc
 4930 080d 15       		.uleb128 0x15
ARM GAS  C:\Users\jsyoon\AppData\Local\Temp\ccHEUWmT.s 			page 88


 4931 080e 53050000 		.4byte	.LASF103
 4932 0812 01       		.byte	0x1
 4933 0813 6203     		.2byte	0x362
 4934 0815 00000000 		.4byte	.LFB121
 4935 0819 0C000000 		.4byte	.LFE121-.LFB121
 4936 081d 01       		.uleb128 0x1
 4937 081e 9C       		.byte	0x9c
 4938 081f 32080000 		.4byte	0x832
 4939 0823 16       		.uleb128 0x16
 4940 0824 AC020000 		.4byte	.LASF101
 4941 0828 01       		.byte	0x1
 4942 0829 6203     		.2byte	0x362
 4943 082b 07080000 		.4byte	0x807
 4944 082f 01       		.uleb128 0x1
 4945 0830 50       		.byte	0x50
 4946 0831 00       		.byte	0
 4947 0832 15       		.uleb128 0x15
 4948 0833 06080000 		.4byte	.LASF104
 4949 0837 01       		.byte	0x1
 4950 0838 7503     		.2byte	0x375
 4951 083a 00000000 		.4byte	.LFB122
 4952 083e 5C000000 		.4byte	.LFE122-.LFB122
 4953 0842 01       		.uleb128 0x1
 4954 0843 9C       		.byte	0x9c
 4955 0844 EA080000 		.4byte	0x8ea
 4956 0848 1E       		.uleb128 0x1e
 4957 0849 80090000 		.4byte	.LASF100
 4958 084d 01       		.byte	0x1
 4959 084e 7503     		.2byte	0x375
 4960 0850 A2000000 		.4byte	0xa2
 4961 0854 81040000 		.4byte	.LLST21
 4962 0858 16       		.uleb128 0x16
 4963 0859 AC020000 		.4byte	.LASF101
 4964 085d 01       		.byte	0x1
 4965 085e 7503     		.2byte	0x375
 4966 0860 07080000 		.4byte	0x807
 4967 0864 01       		.uleb128 0x1
 4968 0865 51       		.byte	0x51
 4969 0866 1F       		.uleb128 0x1f
 4970 0867 DB010000 		.4byte	.LASF102
 4971 086b 01       		.byte	0x1
 4972 086c 7703     		.2byte	0x377
 4973 086e A2000000 		.4byte	0xa2
 4974 0872 A2040000 		.4byte	.LLST22
 4975 0876 26       		.uleb128 0x26
 4976 0877 8E040000 		.4byte	0x48e
 4977 087b 22000000 		.4byte	.LBB100
 4978 087f 38000000 		.4byte	.Ldebug_ranges0+0x38
 4979 0883 01       		.byte	0x1
 4980 0884 8B03     		.2byte	0x38b
 4981 0886 9B080000 		.4byte	0x89b
 4982 088a 28       		.uleb128 0x28
 4983 088b 9F040000 		.4byte	0x49f
 4984 088f 27       		.uleb128 0x27
 4985 0890 38000000 		.4byte	.Ldebug_ranges0+0x38
 4986 0894 1C       		.uleb128 0x1c
 4987 0895 AB040000 		.4byte	0x4ab
ARM GAS  C:\Users\jsyoon\AppData\Local\Temp\ccHEUWmT.s 			page 89


 4988 0899 00       		.byte	0
 4989 089a 00       		.byte	0
 4990 089b 26       		.uleb128 0x26
 4991 089c 8E040000 		.4byte	0x48e
 4992 08a0 24000000 		.4byte	.LBB104
 4993 08a4 58000000 		.4byte	.Ldebug_ranges0+0x58
 4994 08a8 01       		.byte	0x1
 4995 08a9 8903     		.2byte	0x389
 4996 08ab C8080000 		.4byte	0x8c8
 4997 08af 25       		.uleb128 0x25
 4998 08b0 9F040000 		.4byte	0x49f
 4999 08b4 C9040000 		.4byte	.LLST23
 5000 08b8 27       		.uleb128 0x27
 5001 08b9 58000000 		.4byte	.Ldebug_ranges0+0x58
 5002 08bd 1A       		.uleb128 0x1a
 5003 08be AB040000 		.4byte	0x4ab
 5004 08c2 DC040000 		.4byte	.LLST24
 5005 08c6 00       		.byte	0
 5006 08c7 00       		.byte	0
 5007 08c8 29       		.uleb128 0x29
 5008 08c9 8E040000 		.4byte	0x48e
 5009 08cd 26000000 		.4byte	.LBB108
 5010 08d1 78000000 		.4byte	.Ldebug_ranges0+0x78
 5011 08d5 01       		.byte	0x1
 5012 08d6 8A03     		.2byte	0x38a
 5013 08d8 28       		.uleb128 0x28
 5014 08d9 9F040000 		.4byte	0x49f
 5015 08dd 27       		.uleb128 0x27
 5016 08de 78000000 		.4byte	.Ldebug_ranges0+0x78
 5017 08e2 1C       		.uleb128 0x1c
 5018 08e3 AB040000 		.4byte	0x4ab
 5019 08e7 00       		.byte	0
 5020 08e8 00       		.byte	0
 5021 08e9 00       		.byte	0
 5022 08ea 1D       		.uleb128 0x1d
 5023 08eb 920B0000 		.4byte	.LASF105
 5024 08ef 01       		.byte	0x1
 5025 08f0 9603     		.2byte	0x396
 5026 08f2 A2000000 		.4byte	0xa2
 5027 08f6 00000000 		.4byte	.LFB123
 5028 08fa 0C000000 		.4byte	.LFE123-.LFB123
 5029 08fe 01       		.uleb128 0x1
 5030 08ff 9C       		.byte	0x9c
 5031 0900 15090000 		.4byte	0x915
 5032 0904 1F       		.uleb128 0x1f
 5033 0905 DB010000 		.4byte	.LASF102
 5034 0909 01       		.byte	0x1
 5035 090a 9803     		.2byte	0x398
 5036 090c A2000000 		.4byte	0xa2
 5037 0910 F5040000 		.4byte	.LLST25
 5038 0914 00       		.byte	0
 5039 0915 1D       		.uleb128 0x1d
 5040 0916 75020000 		.4byte	.LASF106
 5041 091a 01       		.byte	0x1
 5042 091b AF03     		.2byte	0x3af
 5043 091d 24010000 		.4byte	0x124
 5044 0921 00000000 		.4byte	.LFB124
ARM GAS  C:\Users\jsyoon\AppData\Local\Temp\ccHEUWmT.s 			page 90


 5045 0925 DC000000 		.4byte	.LFE124-.LFB124
 5046 0929 01       		.uleb128 0x1
 5047 092a 9C       		.byte	0x9c
 5048 092b 1D0A0000 		.4byte	0xa1d
 5049 092f 1E       		.uleb128 0x1e
 5050 0930 80090000 		.4byte	.LASF100
 5051 0934 01       		.byte	0x1
 5052 0935 AF03     		.2byte	0x3af
 5053 0937 A2000000 		.4byte	0xa2
 5054 093b 14050000 		.4byte	.LLST26
 5055 093f 1E       		.uleb128 0x1e
 5056 0940 66050000 		.4byte	.LASF107
 5057 0944 01       		.byte	0x1
 5058 0945 AF03     		.2byte	0x3af
 5059 0947 1D0A0000 		.4byte	0xa1d
 5060 094b 4E050000 		.4byte	.LLST27
 5061 094f 1F       		.uleb128 0x1f
 5062 0950 DB010000 		.4byte	.LASF102
 5063 0954 01       		.byte	0x1
 5064 0955 B103     		.2byte	0x3b1
 5065 0957 A2000000 		.4byte	0xa2
 5066 095b 7A050000 		.4byte	.LLST28
 5067 095f 1F       		.uleb128 0x1f
 5068 0960 BB0A0000 		.4byte	.LASF80
 5069 0964 01       		.byte	0x1
 5070 0965 B203     		.2byte	0x3b2
 5071 0967 24010000 		.4byte	0x124
 5072 096b BC050000 		.4byte	.LLST29
 5073 096f 24       		.uleb128 0x24
 5074 0970 B8040000 		.4byte	0x4b8
 5075 0974 18000000 		.4byte	.LBB118
 5076 0978 18000000 		.4byte	.LBE118-.LBB118
 5077 097c 01       		.byte	0x1
 5078 097d D503     		.2byte	0x3d5
 5079 097f A0090000 		.4byte	0x9a0
 5080 0983 25       		.uleb128 0x25
 5081 0984 C9040000 		.4byte	0x4c9
 5082 0988 FE050000 		.4byte	.LLST30
 5083 098c 1B       		.uleb128 0x1b
 5084 098d 18000000 		.4byte	.LBB119
 5085 0991 18000000 		.4byte	.LBE119-.LBB119
 5086 0995 1A       		.uleb128 0x1a
 5087 0996 D5040000 		.4byte	0x4d5
 5088 099a 35060000 		.4byte	.LLST31
 5089 099e 00       		.byte	0
 5090 099f 00       		.byte	0
 5091 09a0 26       		.uleb128 0x26
 5092 09a1 B8040000 		.4byte	0x4b8
 5093 09a5 32000000 		.4byte	.LBB120
 5094 09a9 98000000 		.4byte	.Ldebug_ranges0+0x98
 5095 09ad 01       		.byte	0x1
 5096 09ae D603     		.2byte	0x3d6
 5097 09b0 CD090000 		.4byte	0x9cd
 5098 09b4 25       		.uleb128 0x25
 5099 09b5 C9040000 		.4byte	0x4c9
 5100 09b9 6C060000 		.4byte	.LLST32
 5101 09bd 27       		.uleb128 0x27
ARM GAS  C:\Users\jsyoon\AppData\Local\Temp\ccHEUWmT.s 			page 91


 5102 09be 98000000 		.4byte	.Ldebug_ranges0+0x98
 5103 09c2 1A       		.uleb128 0x1a
 5104 09c3 D5040000 		.4byte	0x4d5
 5105 09c7 A2060000 		.4byte	.LLST33
 5106 09cb 00       		.byte	0
 5107 09cc 00       		.byte	0
 5108 09cd 26       		.uleb128 0x26
 5109 09ce B8040000 		.4byte	0x4b8
 5110 09d2 50000000 		.4byte	.LBB125
 5111 09d6 B8000000 		.4byte	.Ldebug_ranges0+0xb8
 5112 09da 01       		.byte	0x1
 5113 09db D703     		.2byte	0x3d7
 5114 09dd FA090000 		.4byte	0x9fa
 5115 09e1 25       		.uleb128 0x25
 5116 09e2 C9040000 		.4byte	0x4c9
 5117 09e6 E5060000 		.4byte	.LLST34
 5118 09ea 27       		.uleb128 0x27
 5119 09eb B8000000 		.4byte	.Ldebug_ranges0+0xb8
 5120 09ef 1A       		.uleb128 0x1a
 5121 09f0 D5040000 		.4byte	0x4d5
 5122 09f4 1C070000 		.4byte	.LLST35
 5123 09f8 00       		.byte	0
 5124 09f9 00       		.byte	0
 5125 09fa 20       		.uleb128 0x20
 5126 09fb 85040000 		.4byte	0x485
 5127 09ff A8000000 		.4byte	.LBB129
 5128 0a03 08000000 		.4byte	.LBE129-.LBB129
 5129 0a07 01       		.byte	0x1
 5130 0a08 EA03     		.2byte	0x3ea
 5131 0a0a 21       		.uleb128 0x21
 5132 0a0b 9C000000 		.4byte	.LVL114
 5133 0a0f 4F040000 		.4byte	0x44f
 5134 0a13 21       		.uleb128 0x21
 5135 0a14 C4000000 		.4byte	.LVL117
 5136 0a18 E0050000 		.4byte	0x5e0
 5137 0a1c 00       		.byte	0
 5138 0a1d 17       		.uleb128 0x17
 5139 0a1e 04       		.byte	0x4
 5140 0a1f 00040000 		.4byte	0x400
 5141 0a23 15       		.uleb128 0x15
 5142 0a24 4C020000 		.4byte	.LASF108
 5143 0a28 01       		.byte	0x1
 5144 0a29 0A04     		.2byte	0x40a
 5145 0a2b 00000000 		.4byte	.LFB125
 5146 0a2f 0E000000 		.4byte	.LFE125-.LFB125
 5147 0a33 01       		.uleb128 0x1
 5148 0a34 9C       		.byte	0x9c
 5149 0a35 480A0000 		.4byte	0xa48
 5150 0a39 16       		.uleb128 0x16
 5151 0a3a 66050000 		.4byte	.LASF107
 5152 0a3e 01       		.byte	0x1
 5153 0a3f 0A04     		.2byte	0x40a
 5154 0a41 1D0A0000 		.4byte	0xa1d
 5155 0a45 01       		.uleb128 0x1
 5156 0a46 50       		.byte	0x50
 5157 0a47 00       		.byte	0
 5158 0a48 15       		.uleb128 0x15
ARM GAS  C:\Users\jsyoon\AppData\Local\Temp\ccHEUWmT.s 			page 92


 5159 0a49 53090000 		.4byte	.LASF109
 5160 0a4d 01       		.byte	0x1
 5161 0a4e 1D04     		.2byte	0x41d
 5162 0a50 00000000 		.4byte	.LFB126
 5163 0a54 58000000 		.4byte	.LFE126-.LFB126
 5164 0a58 01       		.uleb128 0x1
 5165 0a59 9C       		.byte	0x9c
 5166 0a5a 000B0000 		.4byte	0xb00
 5167 0a5e 1E       		.uleb128 0x1e
 5168 0a5f 80090000 		.4byte	.LASF100
 5169 0a63 01       		.byte	0x1
 5170 0a64 1D04     		.2byte	0x41d
 5171 0a66 A2000000 		.4byte	0xa2
 5172 0a6a 53070000 		.4byte	.LLST36
 5173 0a6e 16       		.uleb128 0x16
 5174 0a6f 66050000 		.4byte	.LASF107
 5175 0a73 01       		.byte	0x1
 5176 0a74 1D04     		.2byte	0x41d
 5177 0a76 1D0A0000 		.4byte	0xa1d
 5178 0a7a 01       		.uleb128 0x1
 5179 0a7b 51       		.byte	0x51
 5180 0a7c 1F       		.uleb128 0x1f
 5181 0a7d DB010000 		.4byte	.LASF102
 5182 0a81 01       		.byte	0x1
 5183 0a82 1F04     		.2byte	0x41f
 5184 0a84 A2000000 		.4byte	0xa2
 5185 0a88 74070000 		.4byte	.LLST37
 5186 0a8c 26       		.uleb128 0x26
 5187 0a8d 8E040000 		.4byte	0x48e
 5188 0a91 20000000 		.4byte	.LBB132
 5189 0a95 D0000000 		.4byte	.Ldebug_ranges0+0xd0
 5190 0a99 01       		.byte	0x1
 5191 0a9a 3204     		.2byte	0x432
 5192 0a9c B10A0000 		.4byte	0xab1
 5193 0aa0 28       		.uleb128 0x28
 5194 0aa1 9F040000 		.4byte	0x49f
 5195 0aa5 27       		.uleb128 0x27
 5196 0aa6 D0000000 		.4byte	.Ldebug_ranges0+0xd0
 5197 0aaa 1C       		.uleb128 0x1c
 5198 0aab AB040000 		.4byte	0x4ab
 5199 0aaf 00       		.byte	0
 5200 0ab0 00       		.byte	0
 5201 0ab1 26       		.uleb128 0x26
 5202 0ab2 8E040000 		.4byte	0x48e
 5203 0ab6 22000000 		.4byte	.LBB137
 5204 0aba F8000000 		.4byte	.Ldebug_ranges0+0xf8
 5205 0abe 01       		.byte	0x1
 5206 0abf 3304     		.2byte	0x433
 5207 0ac1 D60A0000 		.4byte	0xad6
 5208 0ac5 28       		.uleb128 0x28
 5209 0ac6 9F040000 		.4byte	0x49f
 5210 0aca 27       		.uleb128 0x27
 5211 0acb F8000000 		.4byte	.Ldebug_ranges0+0xf8
 5212 0acf 1C       		.uleb128 0x1c
 5213 0ad0 AB040000 		.4byte	0x4ab
 5214 0ad4 00       		.byte	0
 5215 0ad5 00       		.byte	0
ARM GAS  C:\Users\jsyoon\AppData\Local\Temp\ccHEUWmT.s 			page 93


 5216 0ad6 29       		.uleb128 0x29
 5217 0ad7 8E040000 		.4byte	0x48e
 5218 0adb 24000000 		.4byte	.LBB141
 5219 0adf 18010000 		.4byte	.Ldebug_ranges0+0x118
 5220 0ae3 01       		.byte	0x1
 5221 0ae4 3104     		.2byte	0x431
 5222 0ae6 25       		.uleb128 0x25
 5223 0ae7 9F040000 		.4byte	0x49f
 5224 0aeb 9B070000 		.4byte	.LLST38
 5225 0aef 27       		.uleb128 0x27
 5226 0af0 18010000 		.4byte	.Ldebug_ranges0+0x118
 5227 0af4 1A       		.uleb128 0x1a
 5228 0af5 AB040000 		.4byte	0x4ab
 5229 0af9 AE070000 		.4byte	.LLST39
 5230 0afd 00       		.byte	0
 5231 0afe 00       		.byte	0
 5232 0aff 00       		.byte	0
 5233 0b00 15       		.uleb128 0x15
 5234 0b01 9F070000 		.4byte	.LASF110
 5235 0b05 01       		.byte	0x1
 5236 0b06 5904     		.2byte	0x459
 5237 0b08 00000000 		.4byte	.LFB127
 5238 0b0c 00010000 		.4byte	.LFE127-.LFB127
 5239 0b10 01       		.uleb128 0x1
 5240 0b11 9C       		.byte	0x9c
 5241 0b12 050C0000 		.4byte	0xc05
 5242 0b16 1E       		.uleb128 0x1e
 5243 0b17 80090000 		.4byte	.LASF100
 5244 0b1b 01       		.byte	0x1
 5245 0b1c 5904     		.2byte	0x459
 5246 0b1e A2000000 		.4byte	0xa2
 5247 0b22 C7070000 		.4byte	.LLST40
 5248 0b26 16       		.uleb128 0x16
 5249 0b27 81020000 		.4byte	.LASF111
 5250 0b2b 01       		.byte	0x1
 5251 0b2c 5904     		.2byte	0x459
 5252 0b2e A2000000 		.4byte	0xa2
 5253 0b32 01       		.uleb128 0x1
 5254 0b33 51       		.byte	0x51
 5255 0b34 1E       		.uleb128 0x1e
 5256 0b35 96000000 		.4byte	.LASF112
 5257 0b39 01       		.byte	0x1
 5258 0b3a 5904     		.2byte	0x459
 5259 0b3c 050C0000 		.4byte	0xc05
 5260 0b40 1A080000 		.4byte	.LLST41
 5261 0b44 1F       		.uleb128 0x1f
 5262 0b45 DB010000 		.4byte	.LASF102
 5263 0b49 01       		.byte	0x1
 5264 0b4a 5B04     		.2byte	0x45b
 5265 0b4c A2000000 		.4byte	0xa2
 5266 0b50 5F080000 		.4byte	.LLST42
 5267 0b54 26       		.uleb128 0x26
 5268 0b55 B8040000 		.4byte	0x4b8
 5269 0b59 14000000 		.4byte	.LBB152
 5270 0b5d 38010000 		.4byte	.Ldebug_ranges0+0x138
 5271 0b61 01       		.byte	0x1
 5272 0b62 A504     		.2byte	0x4a5
ARM GAS  C:\Users\jsyoon\AppData\Local\Temp\ccHEUWmT.s 			page 94


 5273 0b64 810B0000 		.4byte	0xb81
 5274 0b68 25       		.uleb128 0x25
 5275 0b69 C9040000 		.4byte	0x4c9
 5276 0b6d A1080000 		.4byte	.LLST43
 5277 0b71 27       		.uleb128 0x27
 5278 0b72 38010000 		.4byte	.Ldebug_ranges0+0x138
 5279 0b76 1A       		.uleb128 0x1a
 5280 0b77 D5040000 		.4byte	0x4d5
 5281 0b7b E4080000 		.4byte	.LLST44
 5282 0b7f 00       		.byte	0
 5283 0b80 00       		.byte	0
 5284 0b81 26       		.uleb128 0x26
 5285 0b82 B8040000 		.4byte	0x4b8
 5286 0b86 2E000000 		.4byte	.LBB155
 5287 0b8a 50010000 		.4byte	.Ldebug_ranges0+0x150
 5288 0b8e 01       		.byte	0x1
 5289 0b8f A604     		.2byte	0x4a6
 5290 0b91 AE0B0000 		.4byte	0xbae
 5291 0b95 25       		.uleb128 0x25
 5292 0b96 C9040000 		.4byte	0x4c9
 5293 0b9a 27090000 		.4byte	.LLST45
 5294 0b9e 27       		.uleb128 0x27
 5295 0b9f 50010000 		.4byte	.Ldebug_ranges0+0x150
 5296 0ba3 1A       		.uleb128 0x1a
 5297 0ba4 D5040000 		.4byte	0x4d5
 5298 0ba8 6A090000 		.4byte	.LLST46
 5299 0bac 00       		.byte	0
 5300 0bad 00       		.byte	0
 5301 0bae 26       		.uleb128 0x26
 5302 0baf B8040000 		.4byte	0x4b8
 5303 0bb3 4C000000 		.4byte	.LBB160
 5304 0bb7 70010000 		.4byte	.Ldebug_ranges0+0x170
 5305 0bbb 01       		.byte	0x1
 5306 0bbc A704     		.2byte	0x4a7
 5307 0bbe DB0B0000 		.4byte	0xbdb
 5308 0bc2 25       		.uleb128 0x25
 5309 0bc3 C9040000 		.4byte	0x4c9
 5310 0bc7 AD090000 		.4byte	.LLST47
 5311 0bcb 27       		.uleb128 0x27
 5312 0bcc 70010000 		.4byte	.Ldebug_ranges0+0x170
 5313 0bd0 1A       		.uleb128 0x1a
 5314 0bd1 D5040000 		.4byte	0x4d5
 5315 0bd5 E4090000 		.4byte	.LLST48
 5316 0bd9 00       		.byte	0
 5317 0bda 00       		.byte	0
 5318 0bdb 29       		.uleb128 0x29
 5319 0bdc B8040000 		.4byte	0x4b8
 5320 0be0 6A000000 		.4byte	.LBB164
 5321 0be4 88010000 		.4byte	.Ldebug_ranges0+0x188
 5322 0be8 01       		.byte	0x1
 5323 0be9 A904     		.2byte	0x4a9
 5324 0beb 25       		.uleb128 0x25
 5325 0bec C9040000 		.4byte	0x4c9
 5326 0bf0 1B0A0000 		.4byte	.LLST49
 5327 0bf4 27       		.uleb128 0x27
 5328 0bf5 88010000 		.4byte	.Ldebug_ranges0+0x188
 5329 0bf9 1A       		.uleb128 0x1a
ARM GAS  C:\Users\jsyoon\AppData\Local\Temp\ccHEUWmT.s 			page 95


 5330 0bfa D5040000 		.4byte	0x4d5
 5331 0bfe 520A0000 		.4byte	.LLST50
 5332 0c02 00       		.byte	0
 5333 0c03 00       		.byte	0
 5334 0c04 00       		.byte	0
 5335 0c05 17       		.uleb128 0x17
 5336 0c06 04       		.byte	0x4
 5337 0c07 44040000 		.4byte	0x444
 5338 0c0b 15       		.uleb128 0x15
 5339 0c0c 5F090000 		.4byte	.LASF113
 5340 0c10 01       		.byte	0x1
 5341 0c11 C804     		.2byte	0x4c8
 5342 0c13 00000000 		.4byte	.LFB128
 5343 0c17 14000000 		.4byte	.LFE128-.LFB128
 5344 0c1b 01       		.uleb128 0x1
 5345 0c1c 9C       		.byte	0x9c
 5346 0c1d 300C0000 		.4byte	0xc30
 5347 0c21 16       		.uleb128 0x16
 5348 0c22 96000000 		.4byte	.LASF112
 5349 0c26 01       		.byte	0x1
 5350 0c27 C804     		.2byte	0x4c8
 5351 0c29 050C0000 		.4byte	0xc05
 5352 0c2d 01       		.uleb128 0x1
 5353 0c2e 50       		.byte	0x50
 5354 0c2f 00       		.byte	0
 5355 0c30 15       		.uleb128 0x15
 5356 0c31 DA0A0000 		.4byte	.LASF114
 5357 0c35 01       		.byte	0x1
 5358 0c36 E604     		.2byte	0x4e6
 5359 0c38 00000000 		.4byte	.LFB129
 5360 0c3c 94000000 		.4byte	.LFE129-.LFB129
 5361 0c40 01       		.uleb128 0x1
 5362 0c41 9C       		.byte	0x9c
 5363 0c42 1D0D0000 		.4byte	0xd1d
 5364 0c46 1E       		.uleb128 0x1e
 5365 0c47 80090000 		.4byte	.LASF100
 5366 0c4b 01       		.byte	0x1
 5367 0c4c E604     		.2byte	0x4e6
 5368 0c4e A2000000 		.4byte	0xa2
 5369 0c52 890A0000 		.4byte	.LLST51
 5370 0c56 1E       		.uleb128 0x1e
 5371 0c57 81020000 		.4byte	.LASF111
 5372 0c5b 01       		.byte	0x1
 5373 0c5c E604     		.2byte	0x4e6
 5374 0c5e A2000000 		.4byte	0xa2
 5375 0c62 AA0A0000 		.4byte	.LLST52
 5376 0c66 16       		.uleb128 0x16
 5377 0c67 96000000 		.4byte	.LASF112
 5378 0c6b 01       		.byte	0x1
 5379 0c6c E604     		.2byte	0x4e6
 5380 0c6e 050C0000 		.4byte	0xc05
 5381 0c72 01       		.uleb128 0x1
 5382 0c73 52       		.byte	0x52
 5383 0c74 1F       		.uleb128 0x1f
 5384 0c75 DB010000 		.4byte	.LASF102
 5385 0c79 01       		.byte	0x1
 5386 0c7a E804     		.2byte	0x4e8
ARM GAS  C:\Users\jsyoon\AppData\Local\Temp\ccHEUWmT.s 			page 96


 5387 0c7c A2000000 		.4byte	0xa2
 5388 0c80 CB0A0000 		.4byte	.LLST53
 5389 0c84 26       		.uleb128 0x26
 5390 0c85 8E040000 		.4byte	0x48e
 5391 0c89 46000000 		.4byte	.LBB170
 5392 0c8d A0010000 		.4byte	.Ldebug_ranges0+0x1a0
 5393 0c91 01       		.byte	0x1
 5394 0c92 0605     		.2byte	0x506
 5395 0c94 B10C0000 		.4byte	0xcb1
 5396 0c98 25       		.uleb128 0x25
 5397 0c99 9F040000 		.4byte	0x49f
 5398 0c9d EA0A0000 		.4byte	.LLST54
 5399 0ca1 27       		.uleb128 0x27
 5400 0ca2 A0010000 		.4byte	.Ldebug_ranges0+0x1a0
 5401 0ca6 1A       		.uleb128 0x1a
 5402 0ca7 AB040000 		.4byte	0x4ab
 5403 0cab FD0A0000 		.4byte	.LLST55
 5404 0caf 00       		.byte	0
 5405 0cb0 00       		.byte	0
 5406 0cb1 26       		.uleb128 0x26
 5407 0cb2 8E040000 		.4byte	0x48e
 5408 0cb6 4A000000 		.4byte	.LBB174
 5409 0cba C0010000 		.4byte	.Ldebug_ranges0+0x1c0
 5410 0cbe 01       		.byte	0x1
 5411 0cbf 0805     		.2byte	0x508
 5412 0cc1 D60C0000 		.4byte	0xcd6
 5413 0cc5 28       		.uleb128 0x28
 5414 0cc6 9F040000 		.4byte	0x49f
 5415 0cca 27       		.uleb128 0x27
 5416 0ccb C0010000 		.4byte	.Ldebug_ranges0+0x1c0
 5417 0ccf 1C       		.uleb128 0x1c
 5418 0cd0 AB040000 		.4byte	0x4ab
 5419 0cd4 00       		.byte	0
 5420 0cd5 00       		.byte	0
 5421 0cd6 26       		.uleb128 0x26
 5422 0cd7 8E040000 		.4byte	0x48e
 5423 0cdb 4C000000 		.4byte	.LBB178
 5424 0cdf E0010000 		.4byte	.Ldebug_ranges0+0x1e0
 5425 0ce3 01       		.byte	0x1
 5426 0ce4 0C05     		.2byte	0x50c
 5427 0ce6 FB0C0000 		.4byte	0xcfb
 5428 0cea 28       		.uleb128 0x28
 5429 0ceb 9F040000 		.4byte	0x49f
 5430 0cef 27       		.uleb128 0x27
 5431 0cf0 E0010000 		.4byte	.Ldebug_ranges0+0x1e0
 5432 0cf4 1C       		.uleb128 0x1c
 5433 0cf5 AB040000 		.4byte	0x4ab
 5434 0cf9 00       		.byte	0
 5435 0cfa 00       		.byte	0
 5436 0cfb 29       		.uleb128 0x29
 5437 0cfc 8E040000 		.4byte	0x48e
 5438 0d00 4E000000 		.4byte	.LBB182
 5439 0d04 00020000 		.4byte	.Ldebug_ranges0+0x200
 5440 0d08 01       		.byte	0x1
 5441 0d09 0A05     		.2byte	0x50a
 5442 0d0b 28       		.uleb128 0x28
 5443 0d0c 9F040000 		.4byte	0x49f
ARM GAS  C:\Users\jsyoon\AppData\Local\Temp\ccHEUWmT.s 			page 97


 5444 0d10 27       		.uleb128 0x27
 5445 0d11 00020000 		.4byte	.Ldebug_ranges0+0x200
 5446 0d15 1C       		.uleb128 0x1c
 5447 0d16 AB040000 		.4byte	0x4ab
 5448 0d1a 00       		.byte	0
 5449 0d1b 00       		.byte	0
 5450 0d1c 00       		.byte	0
 5451 0d1d 1D       		.uleb128 0x1d
 5452 0d1e D9070000 		.4byte	.LASF115
 5453 0d22 01       		.byte	0x1
 5454 0d23 1C05     		.2byte	0x51c
 5455 0d25 24010000 		.4byte	0x124
 5456 0d29 00000000 		.4byte	.LFB130
 5457 0d2d 5C000000 		.4byte	.LFE130-.LFB130
 5458 0d31 01       		.uleb128 0x1
 5459 0d32 9C       		.byte	0x9c
 5460 0d33 870D0000 		.4byte	0xd87
 5461 0d37 1E       		.uleb128 0x1e
 5462 0d38 81020000 		.4byte	.LASF111
 5463 0d3c 01       		.byte	0x1
 5464 0d3d 1C05     		.2byte	0x51c
 5465 0d3f A2000000 		.4byte	0xa2
 5466 0d43 160B0000 		.4byte	.LLST56
 5467 0d47 1E       		.uleb128 0x1e
 5468 0d48 07000000 		.4byte	.LASF89
 5469 0d4c 01       		.byte	0x1
 5470 0d4d 1C05     		.2byte	0x51c
 5471 0d4f 02010000 		.4byte	0x102
 5472 0d53 500B0000 		.4byte	.LLST57
 5473 0d57 23       		.uleb128 0x23
 5474 0d58 B6090000 		.4byte	.LASF116
 5475 0d5c 01       		.byte	0x1
 5476 0d5d 1E05     		.2byte	0x51e
 5477 0d5f B4000000 		.4byte	0xb4
 5478 0d63 02       		.uleb128 0x2
 5479 0d64 91       		.byte	0x91
 5480 0d65 74       		.sleb128 -12
 5481 0d66 1F       		.uleb128 0x1f
 5482 0d67 660B0000 		.4byte	.LASF117
 5483 0d6b 01       		.byte	0x1
 5484 0d6c 1F05     		.2byte	0x51f
 5485 0d6e A2000000 		.4byte	0xa2
 5486 0d72 7C0B0000 		.4byte	.LLST58
 5487 0d76 1F       		.uleb128 0x1f
 5488 0d77 BB0A0000 		.4byte	.LASF80
 5489 0d7b 01       		.byte	0x1
 5490 0d7c 2005     		.2byte	0x520
 5491 0d7e 24010000 		.4byte	0x124
 5492 0d82 B20B0000 		.4byte	.LLST59
 5493 0d86 00       		.byte	0
 5494 0d87 15       		.uleb128 0x15
 5495 0d88 B0000000 		.4byte	.LASF118
 5496 0d8c 01       		.byte	0x1
 5497 0d8d 7A05     		.2byte	0x57a
 5498 0d8f 00000000 		.4byte	.LFB131
 5499 0d93 28000000 		.4byte	.LFE131-.LFB131
 5500 0d97 01       		.uleb128 0x1
ARM GAS  C:\Users\jsyoon\AppData\Local\Temp\ccHEUWmT.s 			page 98


 5501 0d98 9C       		.byte	0x9c
 5502 0d99 DA0D0000 		.4byte	0xdda
 5503 0d9d 16       		.uleb128 0x16
 5504 0d9e 81020000 		.4byte	.LASF111
 5505 0da2 01       		.byte	0x1
 5506 0da3 7A05     		.2byte	0x57a
 5507 0da5 A2000000 		.4byte	0xa2
 5508 0da9 01       		.uleb128 0x1
 5509 0daa 50       		.byte	0x50
 5510 0dab 16       		.uleb128 0x16
 5511 0dac 86030000 		.4byte	.LASF119
 5512 0db0 01       		.byte	0x1
 5513 0db1 7A05     		.2byte	0x57a
 5514 0db3 A2000000 		.4byte	0xa2
 5515 0db7 01       		.uleb128 0x1
 5516 0db8 51       		.byte	0x51
 5517 0db9 1E       		.uleb128 0x1e
 5518 0dba 1E000000 		.4byte	.LASF120
 5519 0dbe 01       		.byte	0x1
 5520 0dbf 7A05     		.2byte	0x57a
 5521 0dc1 A2000000 		.4byte	0xa2
 5522 0dc5 E90B0000 		.4byte	.LLST60
 5523 0dc9 1F       		.uleb128 0x1f
 5524 0dca DB010000 		.4byte	.LASF102
 5525 0dce 01       		.byte	0x1
 5526 0dcf 7C05     		.2byte	0x57c
 5527 0dd1 A2000000 		.4byte	0xa2
 5528 0dd5 0A0C0000 		.4byte	.LLST61
 5529 0dd9 00       		.byte	0
 5530 0dda 1D       		.uleb128 0x1d
 5531 0ddb 48060000 		.4byte	.LASF121
 5532 0ddf 01       		.byte	0x1
 5533 0de0 A305     		.2byte	0x5a3
 5534 0de2 A2000000 		.4byte	0xa2
 5535 0de6 00000000 		.4byte	.LFB132
 5536 0dea 18000000 		.4byte	.LFE132-.LFB132
 5537 0dee 01       		.uleb128 0x1
 5538 0def 9C       		.byte	0x9c
 5539 0df0 150E0000 		.4byte	0xe15
 5540 0df4 1E       		.uleb128 0x1e
 5541 0df5 81020000 		.4byte	.LASF111
 5542 0df9 01       		.byte	0x1
 5543 0dfa A305     		.2byte	0x5a3
 5544 0dfc A2000000 		.4byte	0xa2
 5545 0e00 3A0C0000 		.4byte	.LLST62
 5546 0e04 1F       		.uleb128 0x1f
 5547 0e05 DB010000 		.4byte	.LASF102
 5548 0e09 01       		.byte	0x1
 5549 0e0a A505     		.2byte	0x5a5
 5550 0e0c A2000000 		.4byte	0xa2
 5551 0e10 5B0C0000 		.4byte	.LLST63
 5552 0e14 00       		.byte	0
 5553 0e15 15       		.uleb128 0x15
 5554 0e16 85050000 		.4byte	.LASF122
 5555 0e1a 01       		.byte	0x1
 5556 0e1b D405     		.2byte	0x5d4
 5557 0e1d 00000000 		.4byte	.LFB133
ARM GAS  C:\Users\jsyoon\AppData\Local\Temp\ccHEUWmT.s 			page 99


 5558 0e21 24000000 		.4byte	.LFE133-.LFB133
 5559 0e25 01       		.uleb128 0x1
 5560 0e26 9C       		.byte	0x9c
 5561 0e27 3C0E0000 		.4byte	0xe3c
 5562 0e2b 1E       		.uleb128 0x1e
 5563 0e2c E6070000 		.4byte	.LASF123
 5564 0e30 01       		.byte	0x1
 5565 0e31 D405     		.2byte	0x5d4
 5566 0e33 A2000000 		.4byte	0xa2
 5567 0e37 7A0C0000 		.4byte	.LLST64
 5568 0e3b 00       		.byte	0
 5569 0e3c 15       		.uleb128 0x15
 5570 0e3d 410B0000 		.4byte	.LASF124
 5571 0e41 01       		.byte	0x1
 5572 0e42 EF05     		.2byte	0x5ef
 5573 0e44 00000000 		.4byte	.LFB134
 5574 0e48 1C000000 		.4byte	.LFE134-.LFB134
 5575 0e4c 01       		.uleb128 0x1
 5576 0e4d 9C       		.byte	0x9c
 5577 0e4e 610E0000 		.4byte	0xe61
 5578 0e52 16       		.uleb128 0x16
 5579 0e53 26060000 		.4byte	.LASF125
 5580 0e57 01       		.byte	0x1
 5581 0e58 EF05     		.2byte	0x5ef
 5582 0e5a A2000000 		.4byte	0xa2
 5583 0e5e 01       		.uleb128 0x1
 5584 0e5f 50       		.byte	0x50
 5585 0e60 00       		.byte	0
 5586 0e61 2A       		.uleb128 0x2a
 5587 0e62 CB040000 		.4byte	.LASF130
 5588 0e66 01       		.byte	0x1
 5589 0e67 0406     		.2byte	0x604
 5590 0e69 A2000000 		.4byte	0xa2
 5591 0e6d 00000000 		.4byte	.LFB135
 5592 0e71 0C000000 		.4byte	.LFE135-.LFB135
 5593 0e75 01       		.uleb128 0x1
 5594 0e76 9C       		.byte	0x9c
 5595 0e77 1D       		.uleb128 0x1d
 5596 0e78 C7010000 		.4byte	.LASF126
 5597 0e7c 01       		.byte	0x1
 5598 0e7d 1006     		.2byte	0x610
 5599 0e7f 24010000 		.4byte	0x124
 5600 0e83 00000000 		.4byte	.LFB136
 5601 0e87 58000000 		.4byte	.LFE136-.LFB136
 5602 0e8b 01       		.uleb128 0x1
 5603 0e8c 9C       		.byte	0x9c
 5604 0e8d D10E0000 		.4byte	0xed1
 5605 0e91 1E       		.uleb128 0x1e
 5606 0e92 07000000 		.4byte	.LASF89
 5607 0e96 01       		.byte	0x1
 5608 0e97 1006     		.2byte	0x610
 5609 0e99 02010000 		.4byte	0x102
 5610 0e9d 9B0C0000 		.4byte	.LLST65
 5611 0ea1 23       		.uleb128 0x23
 5612 0ea2 45040000 		.4byte	.LASF95
 5613 0ea6 01       		.byte	0x1
 5614 0ea7 1206     		.2byte	0x612
ARM GAS  C:\Users\jsyoon\AppData\Local\Temp\ccHEUWmT.s 			page 100


 5615 0ea9 B4000000 		.4byte	0xb4
 5616 0ead 02       		.uleb128 0x2
 5617 0eae 91       		.byte	0x91
 5618 0eaf 74       		.sleb128 -12
 5619 0eb0 1F       		.uleb128 0x1f
 5620 0eb1 BB010000 		.4byte	.LASF96
 5621 0eb5 01       		.byte	0x1
 5622 0eb6 1306     		.2byte	0x613
 5623 0eb8 A2000000 		.4byte	0xa2
 5624 0ebc D50C0000 		.4byte	.LLST66
 5625 0ec0 1F       		.uleb128 0x1f
 5626 0ec1 BB0A0000 		.4byte	.LASF80
 5627 0ec5 01       		.byte	0x1
 5628 0ec6 1406     		.2byte	0x614
 5629 0ec8 24010000 		.4byte	0x124
 5630 0ecc 0B0D0000 		.4byte	.LLST67
 5631 0ed0 00       		.byte	0
 5632 0ed1 15       		.uleb128 0x15
 5633 0ed2 D8000000 		.4byte	.LASF127
 5634 0ed6 01       		.byte	0x1
 5635 0ed7 5D06     		.2byte	0x65d
 5636 0ed9 00000000 		.4byte	.LFB137
 5637 0edd 2C000000 		.4byte	.LFE137-.LFB137
 5638 0ee1 01       		.uleb128 0x1
 5639 0ee2 9C       		.byte	0x9c
 5640 0ee3 080F0000 		.4byte	0xf08
 5641 0ee7 1E       		.uleb128 0x1e
 5642 0ee8 83000000 		.4byte	.LASF128
 5643 0eec 01       		.byte	0x1
 5644 0eed 5D06     		.2byte	0x65d
 5645 0eef A2000000 		.4byte	0xa2
 5646 0ef3 420D0000 		.4byte	.LLST68
 5647 0ef7 1E       		.uleb128 0x1e
 5648 0ef8 50040000 		.4byte	.LASF129
 5649 0efc 01       		.byte	0x1
 5650 0efd 5D06     		.2byte	0x65d
 5651 0eff A2000000 		.4byte	0xa2
 5652 0f03 630D0000 		.4byte	.LLST69
 5653 0f07 00       		.byte	0
 5654 0f08 2A       		.uleb128 0x2a
 5655 0f09 17010000 		.4byte	.LASF131
 5656 0f0d 01       		.byte	0x1
 5657 0f0e 7806     		.2byte	0x678
 5658 0f10 A2000000 		.4byte	0xa2
 5659 0f14 00000000 		.4byte	.LFB138
 5660 0f18 10000000 		.4byte	.LFE138-.LFB138
 5661 0f1c 01       		.uleb128 0x1
 5662 0f1d 9C       		.byte	0x9c
 5663 0f1e 15       		.uleb128 0x15
 5664 0f1f BA040000 		.4byte	.LASF132
 5665 0f23 01       		.byte	0x1
 5666 0f24 9F06     		.2byte	0x69f
 5667 0f26 00000000 		.4byte	.LFB139
 5668 0f2a 2C000000 		.4byte	.LFE139-.LFB139
 5669 0f2e 01       		.uleb128 0x1
 5670 0f2f 9C       		.byte	0x9c
 5671 0f30 550F0000 		.4byte	0xf55
ARM GAS  C:\Users\jsyoon\AppData\Local\Temp\ccHEUWmT.s 			page 101


 5672 0f34 1E       		.uleb128 0x1e
 5673 0f35 8F040000 		.4byte	.LASF133
 5674 0f39 01       		.byte	0x1
 5675 0f3a 9F06     		.2byte	0x69f
 5676 0f3c A2000000 		.4byte	0xa2
 5677 0f40 840D0000 		.4byte	.LLST70
 5678 0f44 1E       		.uleb128 0x1e
 5679 0f45 36080000 		.4byte	.LASF134
 5680 0f49 01       		.byte	0x1
 5681 0f4a 9F06     		.2byte	0x69f
 5682 0f4c A2000000 		.4byte	0xa2
 5683 0f50 A50D0000 		.4byte	.LLST71
 5684 0f54 00       		.byte	0
 5685 0f55 1D       		.uleb128 0x1d
 5686 0f56 A50A0000 		.4byte	.LASF135
 5687 0f5a 01       		.byte	0x1
 5688 0f5b D506     		.2byte	0x6d5
 5689 0f5d 24010000 		.4byte	0x124
 5690 0f61 00000000 		.4byte	.LFB140
 5691 0f65 30000000 		.4byte	.LFE140-.LFB140
 5692 0f69 01       		.uleb128 0x1
 5693 0f6a 9C       		.byte	0x9c
 5694 0f6b B90F0000 		.4byte	0xfb9
 5695 0f6f 1E       		.uleb128 0x1e
 5696 0f70 12080000 		.4byte	.LASF136
 5697 0f74 01       		.byte	0x1
 5698 0f75 D506     		.2byte	0x6d5
 5699 0f77 A2000000 		.4byte	0xa2
 5700 0f7b C60D0000 		.4byte	.LLST72
 5701 0f7f 1E       		.uleb128 0x1e
 5702 0f80 E70A0000 		.4byte	.LASF84
 5703 0f84 01       		.byte	0x1
 5704 0f85 D506     		.2byte	0x6d5
 5705 0f87 A2000000 		.4byte	0xa2
 5706 0f8b F20D0000 		.4byte	.LLST73
 5707 0f8f 1F       		.uleb128 0x1f
 5708 0f90 BB0A0000 		.4byte	.LASF80
 5709 0f94 01       		.byte	0x1
 5710 0f95 D706     		.2byte	0x6d7
 5711 0f97 24010000 		.4byte	0x124
 5712 0f9b 1E0E0000 		.4byte	.LLST74
 5713 0f9f 20       		.uleb128 0x20
 5714 0fa0 85040000 		.4byte	0x485
 5715 0fa4 1A000000 		.4byte	.LBB192
 5716 0fa8 08000000 		.4byte	.LBE192-.LBB192
 5717 0fac 01       		.byte	0x1
 5718 0fad EB06     		.2byte	0x6eb
 5719 0faf 21       		.uleb128 0x21
 5720 0fb0 14000000 		.4byte	.LVL218
 5721 0fb4 4F040000 		.4byte	0x44f
 5722 0fb8 00       		.byte	0
 5723 0fb9 1D       		.uleb128 0x1d
 5724 0fba 35000000 		.4byte	.LASF137
 5725 0fbe 01       		.byte	0x1
 5726 0fbf FE06     		.2byte	0x6fe
 5727 0fc1 24010000 		.4byte	0x124
 5728 0fc5 00000000 		.4byte	.LFB141
ARM GAS  C:\Users\jsyoon\AppData\Local\Temp\ccHEUWmT.s 			page 102


 5729 0fc9 40000000 		.4byte	.LFE141-.LFB141
 5730 0fcd 01       		.uleb128 0x1
 5731 0fce 9C       		.byte	0x9c
 5732 0fcf 0D100000 		.4byte	0x100d
 5733 0fd3 1E       		.uleb128 0x1e
 5734 0fd4 07000000 		.4byte	.LASF89
 5735 0fd8 01       		.byte	0x1
 5736 0fd9 FE06     		.2byte	0x6fe
 5737 0fdb 02010000 		.4byte	0x102
 5738 0fdf 490E0000 		.4byte	.LLST75
 5739 0fe3 1F       		.uleb128 0x1f
 5740 0fe4 BB0A0000 		.4byte	.LASF80
 5741 0fe8 01       		.byte	0x1
 5742 0fe9 0007     		.2byte	0x700
 5743 0feb 24010000 		.4byte	0x124
 5744 0fef 6A0E0000 		.4byte	.LLST76
 5745 0ff3 20       		.uleb128 0x20
 5746 0ff4 85040000 		.4byte	0x485
 5747 0ff8 1E000000 		.4byte	.LBB194
 5748 0ffc 0A000000 		.4byte	.LBE194-.LBB194
 5749 1000 01       		.byte	0x1
 5750 1001 1B07     		.2byte	0x71b
 5751 1003 21       		.uleb128 0x21
 5752 1004 12000000 		.4byte	.LVL224
 5753 1008 4F040000 		.4byte	0x44f
 5754 100c 00       		.byte	0
 5755 100d 15       		.uleb128 0x15
 5756 100e 110B0000 		.4byte	.LASF138
 5757 1012 01       		.byte	0x1
 5758 1013 2C07     		.2byte	0x72c
 5759 1015 00000000 		.4byte	.LFB142
 5760 1019 30000000 		.4byte	.LFE142-.LFB142
 5761 101d 01       		.uleb128 0x1
 5762 101e 9C       		.byte	0x9c
 5763 101f 32100000 		.4byte	0x1032
 5764 1023 16       		.uleb128 0x16
 5765 1024 07000000 		.4byte	.LASF89
 5766 1028 01       		.byte	0x1
 5767 1029 2C07     		.2byte	0x72c
 5768 102b 02010000 		.4byte	0x102
 5769 102f 01       		.uleb128 0x1
 5770 1030 50       		.byte	0x50
 5771 1031 00       		.byte	0
 5772 1032 15       		.uleb128 0x15
 5773 1033 E2010000 		.4byte	.LASF139
 5774 1037 01       		.byte	0x1
 5775 1038 4C07     		.2byte	0x74c
 5776 103a 00000000 		.4byte	.LFB143
 5777 103e 24000000 		.4byte	.LFE143-.LFB143
 5778 1042 01       		.uleb128 0x1
 5779 1043 9C       		.byte	0x9c
 5780 1044 59100000 		.4byte	0x1059
 5781 1048 1E       		.uleb128 0x1e
 5782 1049 75050000 		.4byte	.LASF140
 5783 104d 01       		.byte	0x1
 5784 104e 4C07     		.2byte	0x74c
 5785 1050 A2000000 		.4byte	0xa2
ARM GAS  C:\Users\jsyoon\AppData\Local\Temp\ccHEUWmT.s 			page 103


 5786 1054 A10E0000 		.4byte	.LLST77
 5787 1058 00       		.byte	0
 5788 1059 1D       		.uleb128 0x1d
 5789 105a F90B0000 		.4byte	.LASF141
 5790 105e 01       		.byte	0x1
 5791 105f 7007     		.2byte	0x770
 5792 1061 24010000 		.4byte	0x124
 5793 1065 00000000 		.4byte	.LFB144
 5794 1069 4C000000 		.4byte	.LFE144-.LFB144
 5795 106d 01       		.uleb128 0x1
 5796 106e 9C       		.byte	0x9c
 5797 106f C4100000 		.4byte	0x10c4
 5798 1073 1E       		.uleb128 0x1e
 5799 1074 3E030000 		.4byte	.LASF142
 5800 1078 01       		.byte	0x1
 5801 1079 7007     		.2byte	0x770
 5802 107b A2000000 		.4byte	0xa2
 5803 107f C20E0000 		.4byte	.LLST78
 5804 1083 1E       		.uleb128 0x1e
 5805 1084 F8010000 		.4byte	.LASF143
 5806 1088 01       		.byte	0x1
 5807 1089 7107     		.2byte	0x771
 5808 108b A2000000 		.4byte	0xa2
 5809 108f FC0E0000 		.4byte	.LLST79
 5810 1093 1E       		.uleb128 0x1e
 5811 1094 54030000 		.4byte	.LASF144
 5812 1098 01       		.byte	0x1
 5813 1099 7207     		.2byte	0x772
 5814 109b A2000000 		.4byte	0xa2
 5815 109f 280F0000 		.4byte	.LLST80
 5816 10a3 1F       		.uleb128 0x1f
 5817 10a4 BB0A0000 		.4byte	.LASF80
 5818 10a8 01       		.byte	0x1
 5819 10a9 7407     		.2byte	0x774
 5820 10ab 24010000 		.4byte	0x124
 5821 10af 540F0000 		.4byte	.LLST81
 5822 10b3 1F       		.uleb128 0x1f
 5823 10b4 39010000 		.4byte	.LASF145
 5824 10b8 01       		.byte	0x1
 5825 10b9 7507     		.2byte	0x775
 5826 10bb A2000000 		.4byte	0xa2
 5827 10bf 8B0F0000 		.4byte	.LLST82
 5828 10c3 00       		.byte	0
 5829 10c4 15       		.uleb128 0x15
 5830 10c5 70010000 		.4byte	.LASF146
 5831 10c9 01       		.byte	0x1
 5832 10ca BC07     		.2byte	0x7bc
 5833 10cc 00000000 		.4byte	.LFB145
 5834 10d0 34000000 		.4byte	.LFE145-.LFB145
 5835 10d4 01       		.uleb128 0x1
 5836 10d5 9C       		.byte	0x9c
 5837 10d6 0B110000 		.4byte	0x110b
 5838 10da 1E       		.uleb128 0x1e
 5839 10db 090A0000 		.4byte	.LASF147
 5840 10df 01       		.byte	0x1
 5841 10e0 BC07     		.2byte	0x7bc
 5842 10e2 A2000000 		.4byte	0xa2
ARM GAS  C:\Users\jsyoon\AppData\Local\Temp\ccHEUWmT.s 			page 104


 5843 10e6 D60F0000 		.4byte	.LLST83
 5844 10ea 1E       		.uleb128 0x1e
 5845 10eb 07000000 		.4byte	.LASF89
 5846 10ef 01       		.byte	0x1
 5847 10f0 BC07     		.2byte	0x7bc
 5848 10f2 02010000 		.4byte	0x102
 5849 10f6 10100000 		.4byte	.LLST84
 5850 10fa 1F       		.uleb128 0x1f
 5851 10fb DB010000 		.4byte	.LASF102
 5852 10ff 01       		.byte	0x1
 5853 1100 BE07     		.2byte	0x7be
 5854 1102 A2000000 		.4byte	0xa2
 5855 1106 3C100000 		.4byte	.LLST85
 5856 110a 00       		.byte	0
 5857 110b 15       		.uleb128 0x15
 5858 110c BB030000 		.4byte	.LASF148
 5859 1110 01       		.byte	0x1
 5860 1111 E807     		.2byte	0x7e8
 5861 1113 00000000 		.4byte	.LFB146
 5862 1117 BC000000 		.4byte	.LFE146-.LFB146
 5863 111b 01       		.uleb128 0x1
 5864 111c 9C       		.byte	0x9c
 5865 111d 7A120000 		.4byte	0x127a
 5866 1121 1E       		.uleb128 0x1e
 5867 1122 80090000 		.4byte	.LASF100
 5868 1126 01       		.byte	0x1
 5869 1127 E807     		.2byte	0x7e8
 5870 1129 A2000000 		.4byte	0xa2
 5871 112d 7C100000 		.4byte	.LLST86
 5872 1131 1E       		.uleb128 0x1e
 5873 1132 9A040000 		.4byte	.LASF149
 5874 1136 01       		.byte	0x1
 5875 1137 E807     		.2byte	0x7e8
 5876 1139 07080000 		.4byte	0x807
 5877 113d 9D100000 		.4byte	.LLST87
 5878 1141 16       		.uleb128 0x16
 5879 1142 60080000 		.4byte	.LASF150
 5880 1146 01       		.byte	0x1
 5881 1147 E907     		.2byte	0x7e9
 5882 1149 1D0A0000 		.4byte	0xa1d
 5883 114d 01       		.uleb128 0x1
 5884 114e 52       		.byte	0x52
 5885 114f 1F       		.uleb128 0x1f
 5886 1150 5F020000 		.4byte	.LASF151
 5887 1154 01       		.byte	0x1
 5888 1155 EB07     		.2byte	0x7eb
 5889 1157 A2000000 		.4byte	0xa2
 5890 115b BE100000 		.4byte	.LLST88
 5891 115f 1F       		.uleb128 0x1f
 5892 1160 AA050000 		.4byte	.LASF152
 5893 1164 01       		.byte	0x1
 5894 1165 EB07     		.2byte	0x7eb
 5895 1167 A2000000 		.4byte	0xa2
 5896 116b E5100000 		.4byte	.LLST89
 5897 116f 26       		.uleb128 0x26
 5898 1170 8E040000 		.4byte	0x48e
 5899 1174 4A000000 		.4byte	.LBB196
ARM GAS  C:\Users\jsyoon\AppData\Local\Temp\ccHEUWmT.s 			page 105


 5900 1178 18020000 		.4byte	.Ldebug_ranges0+0x218
 5901 117c 01       		.byte	0x1
 5902 117d 0408     		.2byte	0x804
 5903 117f 9C110000 		.4byte	0x119c
 5904 1183 25       		.uleb128 0x25
 5905 1184 9F040000 		.4byte	0x49f
 5906 1188 0C110000 		.4byte	.LLST90
 5907 118c 27       		.uleb128 0x27
 5908 118d 18020000 		.4byte	.Ldebug_ranges0+0x218
 5909 1191 1A       		.uleb128 0x1a
 5910 1192 AB040000 		.4byte	0x4ab
 5911 1196 20110000 		.4byte	.LLST91
 5912 119a 00       		.byte	0
 5913 119b 00       		.byte	0
 5914 119c 26       		.uleb128 0x26
 5915 119d 8E040000 		.4byte	0x48e
 5916 11a1 4C000000 		.4byte	.LBB201
 5917 11a5 40020000 		.4byte	.Ldebug_ranges0+0x240
 5918 11a9 01       		.byte	0x1
 5919 11aa 0508     		.2byte	0x805
 5920 11ac C9110000 		.4byte	0x11c9
 5921 11b0 25       		.uleb128 0x25
 5922 11b1 9F040000 		.4byte	0x49f
 5923 11b5 4C110000 		.4byte	.LLST92
 5924 11b9 27       		.uleb128 0x27
 5925 11ba 40020000 		.4byte	.Ldebug_ranges0+0x240
 5926 11be 1A       		.uleb128 0x1a
 5927 11bf AB040000 		.4byte	0x4ab
 5928 11c3 60110000 		.4byte	.LLST93
 5929 11c7 00       		.byte	0
 5930 11c8 00       		.byte	0
 5931 11c9 26       		.uleb128 0x26
 5932 11ca 8E040000 		.4byte	0x48e
 5933 11ce 4E000000 		.4byte	.LBB206
 5934 11d2 68020000 		.4byte	.Ldebug_ranges0+0x268
 5935 11d6 01       		.byte	0x1
 5936 11d7 0608     		.2byte	0x806
 5937 11d9 F6110000 		.4byte	0x11f6
 5938 11dd 25       		.uleb128 0x25
 5939 11de 9F040000 		.4byte	0x49f
 5940 11e2 8C110000 		.4byte	.LLST94
 5941 11e6 27       		.uleb128 0x27
 5942 11e7 68020000 		.4byte	.Ldebug_ranges0+0x268
 5943 11eb 1A       		.uleb128 0x1a
 5944 11ec AB040000 		.4byte	0x4ab
 5945 11f0 A0110000 		.4byte	.LLST95
 5946 11f4 00       		.byte	0
 5947 11f5 00       		.byte	0
 5948 11f6 26       		.uleb128 0x26
 5949 11f7 8E040000 		.4byte	0x48e
 5950 11fb 80000000 		.4byte	.LBB220
 5951 11ff 90020000 		.4byte	.Ldebug_ranges0+0x290
 5952 1203 01       		.byte	0x1
 5953 1204 0908     		.2byte	0x809
 5954 1206 23120000 		.4byte	0x1223
 5955 120a 25       		.uleb128 0x25
 5956 120b 9F040000 		.4byte	0x49f
ARM GAS  C:\Users\jsyoon\AppData\Local\Temp\ccHEUWmT.s 			page 106


 5957 120f CC110000 		.4byte	.LLST96
 5958 1213 27       		.uleb128 0x27
 5959 1214 90020000 		.4byte	.Ldebug_ranges0+0x290
 5960 1218 1A       		.uleb128 0x1a
 5961 1219 AB040000 		.4byte	0x4ab
 5962 121d E0110000 		.4byte	.LLST97
 5963 1221 00       		.byte	0
 5964 1222 00       		.byte	0
 5965 1223 26       		.uleb128 0x26
 5966 1224 8E040000 		.4byte	0x48e
 5967 1228 82000000 		.4byte	.LBB224
 5968 122c B0020000 		.4byte	.Ldebug_ranges0+0x2b0
 5969 1230 01       		.byte	0x1
 5970 1231 0A08     		.2byte	0x80a
 5971 1233 50120000 		.4byte	0x1250
 5972 1237 25       		.uleb128 0x25
 5973 1238 9F040000 		.4byte	0x49f
 5974 123c 0C120000 		.4byte	.LLST98
 5975 1240 27       		.uleb128 0x27
 5976 1241 B0020000 		.4byte	.Ldebug_ranges0+0x2b0
 5977 1245 1A       		.uleb128 0x1a
 5978 1246 AB040000 		.4byte	0x4ab
 5979 124a 20120000 		.4byte	.LLST99
 5980 124e 00       		.byte	0
 5981 124f 00       		.byte	0
 5982 1250 29       		.uleb128 0x29
 5983 1251 8E040000 		.4byte	0x48e
 5984 1255 84000000 		.4byte	.LBB228
 5985 1259 D0020000 		.4byte	.Ldebug_ranges0+0x2d0
 5986 125d 01       		.byte	0x1
 5987 125e 0B08     		.2byte	0x80b
 5988 1260 25       		.uleb128 0x25
 5989 1261 9F040000 		.4byte	0x49f
 5990 1265 4C120000 		.4byte	.LLST100
 5991 1269 27       		.uleb128 0x27
 5992 126a D0020000 		.4byte	.Ldebug_ranges0+0x2d0
 5993 126e 1A       		.uleb128 0x1a
 5994 126f AB040000 		.4byte	0x4ab
 5995 1273 60120000 		.4byte	.LLST101
 5996 1277 00       		.byte	0
 5997 1278 00       		.byte	0
 5998 1279 00       		.byte	0
 5999 127a 2A       		.uleb128 0x2a
 6000 127b B2050000 		.4byte	.LASF153
 6001 127f 01       		.byte	0x1
 6002 1280 1408     		.2byte	0x814
 6003 1282 A2000000 		.4byte	0xa2
 6004 1286 00000000 		.4byte	.LFB147
 6005 128a 0C000000 		.4byte	.LFE147-.LFB147
 6006 128e 01       		.uleb128 0x1
 6007 128f 9C       		.byte	0x9c
 6008 1290 15       		.uleb128 0x15
 6009 1291 C1070000 		.4byte	.LASF154
 6010 1295 01       		.byte	0x1
 6011 1296 3708     		.2byte	0x837
 6012 1298 00000000 		.4byte	.LFB148
 6013 129c 1C000000 		.4byte	.LFE148-.LFB148
ARM GAS  C:\Users\jsyoon\AppData\Local\Temp\ccHEUWmT.s 			page 107


 6014 12a0 01       		.uleb128 0x1
 6015 12a1 9C       		.byte	0x9c
 6016 12a2 C5120000 		.4byte	0x12c5
 6017 12a6 1E       		.uleb128 0x1e
 6018 12a7 84040000 		.4byte	.LASF155
 6019 12ab 01       		.byte	0x1
 6020 12ac 3708     		.2byte	0x837
 6021 12ae A2000000 		.4byte	0xa2
 6022 12b2 8C120000 		.4byte	.LLST102
 6023 12b6 16       		.uleb128 0x16
 6024 12b7 DB050000 		.4byte	.LASF156
 6025 12bb 01       		.byte	0x1
 6026 12bc 3708     		.2byte	0x837
 6027 12be A2000000 		.4byte	0xa2
 6028 12c2 01       		.uleb128 0x1
 6029 12c3 51       		.byte	0x51
 6030 12c4 00       		.byte	0
 6031 12c5 15       		.uleb128 0x15
 6032 12c6 81010000 		.4byte	.LASF157
 6033 12ca 01       		.byte	0x1
 6034 12cb 5108     		.2byte	0x851
 6035 12cd 00000000 		.4byte	.LFB149
 6036 12d1 18000000 		.4byte	.LFE149-.LFB149
 6037 12d5 01       		.uleb128 0x1
 6038 12d6 9C       		.byte	0x9c
 6039 12d7 FA120000 		.4byte	0x12fa
 6040 12db 1E       		.uleb128 0x1e
 6041 12dc 84040000 		.4byte	.LASF155
 6042 12e0 01       		.byte	0x1
 6043 12e1 5108     		.2byte	0x851
 6044 12e3 A2000000 		.4byte	0xa2
 6045 12e7 C6120000 		.4byte	.LLST103
 6046 12eb 16       		.uleb128 0x16
 6047 12ec 07000000 		.4byte	.LASF89
 6048 12f0 01       		.byte	0x1
 6049 12f1 5108     		.2byte	0x851
 6050 12f3 02010000 		.4byte	0x102
 6051 12f7 01       		.uleb128 0x1
 6052 12f8 51       		.byte	0x51
 6053 12f9 00       		.byte	0
 6054 12fa 15       		.uleb128 0x15
 6055 12fb 1D030000 		.4byte	.LASF158
 6056 12ff 01       		.byte	0x1
 6057 1300 7008     		.2byte	0x870
 6058 1302 00000000 		.4byte	.LFB150
 6059 1306 18000000 		.4byte	.LFE150-.LFB150
 6060 130a 01       		.uleb128 0x1
 6061 130b 9C       		.byte	0x9c
 6062 130c 21130000 		.4byte	0x1321
 6063 1310 1E       		.uleb128 0x1e
 6064 1311 42090000 		.4byte	.LASF159
 6065 1315 01       		.byte	0x1
 6066 1316 7008     		.2byte	0x870
 6067 1318 A2000000 		.4byte	0xa2
 6068 131c 00130000 		.4byte	.LLST104
 6069 1320 00       		.byte	0
 6070 1321 15       		.uleb128 0x15
ARM GAS  C:\Users\jsyoon\AppData\Local\Temp\ccHEUWmT.s 			page 108


 6071 1322 DC0B0000 		.4byte	.LASF160
 6072 1326 01       		.byte	0x1
 6073 1327 9208     		.2byte	0x892
 6074 1329 00000000 		.4byte	.LFB151
 6075 132d 18000000 		.4byte	.LFE151-.LFB151
 6076 1331 01       		.uleb128 0x1
 6077 1332 9C       		.byte	0x9c
 6078 1333 48130000 		.4byte	0x1348
 6079 1337 1E       		.uleb128 0x1e
 6080 1338 49080000 		.4byte	.LASF161
 6081 133c 01       		.byte	0x1
 6082 133d 9208     		.2byte	0x892
 6083 133f A2000000 		.4byte	0xa2
 6084 1343 21130000 		.4byte	.LLST105
 6085 1347 00       		.byte	0
 6086 1348 15       		.uleb128 0x15
 6087 1349 A1080000 		.4byte	.LASF162
 6088 134d 01       		.byte	0x1
 6089 134e A908     		.2byte	0x8a9
 6090 1350 00000000 		.4byte	.LFB152
 6091 1354 18000000 		.4byte	.LFE152-.LFB152
 6092 1358 01       		.uleb128 0x1
 6093 1359 9C       		.byte	0x9c
 6094 135a 6F130000 		.4byte	0x136f
 6095 135e 1E       		.uleb128 0x1e
 6096 135f 8B090000 		.4byte	.LASF163
 6097 1363 01       		.byte	0x1
 6098 1364 A908     		.2byte	0x8a9
 6099 1366 A2000000 		.4byte	0xa2
 6100 136a 42130000 		.4byte	.LLST106
 6101 136e 00       		.byte	0
 6102 136f 15       		.uleb128 0x15
 6103 1370 FD050000 		.4byte	.LASF164
 6104 1374 01       		.byte	0x1
 6105 1375 BD08     		.2byte	0x8bd
 6106 1377 00000000 		.4byte	.LFB153
 6107 137b 1C000000 		.4byte	.LFE153-.LFB153
 6108 137f 01       		.uleb128 0x1
 6109 1380 9C       		.byte	0x9c
 6110 1381 94130000 		.4byte	0x1394
 6111 1385 16       		.uleb128 0x16
 6112 1386 07000000 		.4byte	.LASF89
 6113 138a 01       		.byte	0x1
 6114 138b BD08     		.2byte	0x8bd
 6115 138d 02010000 		.4byte	0x102
 6116 1391 01       		.uleb128 0x1
 6117 1392 50       		.byte	0x50
 6118 1393 00       		.byte	0
 6119 1394 15       		.uleb128 0x15
 6120 1395 BB0B0000 		.4byte	.LASF165
 6121 1399 01       		.byte	0x1
 6122 139a D408     		.2byte	0x8d4
 6123 139c 00000000 		.4byte	.LFB154
 6124 13a0 1C000000 		.4byte	.LFE154-.LFB154
 6125 13a4 01       		.uleb128 0x1
 6126 13a5 9C       		.byte	0x9c
 6127 13a6 B9130000 		.4byte	0x13b9
ARM GAS  C:\Users\jsyoon\AppData\Local\Temp\ccHEUWmT.s 			page 109


 6128 13aa 16       		.uleb128 0x16
 6129 13ab 07000000 		.4byte	.LASF89
 6130 13af 01       		.byte	0x1
 6131 13b0 D408     		.2byte	0x8d4
 6132 13b2 02010000 		.4byte	0x102
 6133 13b6 01       		.uleb128 0x1
 6134 13b7 50       		.byte	0x50
 6135 13b8 00       		.byte	0
 6136 13b9 15       		.uleb128 0x15
 6137 13ba 74080000 		.4byte	.LASF166
 6138 13be 01       		.byte	0x1
 6139 13bf FD08     		.2byte	0x8fd
 6140 13c1 00000000 		.4byte	.LFB155
 6141 13c5 20000000 		.4byte	.LFE155-.LFB155
 6142 13c9 01       		.uleb128 0x1
 6143 13ca 9C       		.byte	0x9c
 6144 13cb FD130000 		.4byte	0x13fd
 6145 13cf 1E       		.uleb128 0x1e
 6146 13d0 05090000 		.4byte	.LASF167
 6147 13d4 01       		.byte	0x1
 6148 13d5 FD08     		.2byte	0x8fd
 6149 13d7 A2000000 		.4byte	0xa2
 6150 13db 63130000 		.4byte	.LLST107
 6151 13df 16       		.uleb128 0x16
 6152 13e0 F50A0000 		.4byte	.LASF168
 6153 13e4 01       		.byte	0x1
 6154 13e5 FD08     		.2byte	0x8fd
 6155 13e7 A2000000 		.4byte	0xa2
 6156 13eb 01       		.uleb128 0x1
 6157 13ec 51       		.byte	0x51
 6158 13ed 2B       		.uleb128 0x2b
 6159 13ee 746D7000 		.ascii	"tmp\000"
 6160 13f2 01       		.byte	0x1
 6161 13f3 FF08     		.2byte	0x8ff
 6162 13f5 B4000000 		.4byte	0xb4
 6163 13f9 02       		.uleb128 0x2
 6164 13fa 91       		.byte	0x91
 6165 13fb 7C       		.sleb128 -4
 6166 13fc 00       		.byte	0
 6167 13fd 1D       		.uleb128 0x1d
 6168 13fe D2030000 		.4byte	.LASF169
 6169 1402 01       		.byte	0x1
 6170 1403 1209     		.2byte	0x912
 6171 1405 A2000000 		.4byte	0xa2
 6172 1409 00000000 		.4byte	.LFB156
 6173 140d 20000000 		.4byte	.LFE156-.LFB156
 6174 1411 01       		.uleb128 0x1
 6175 1412 9C       		.byte	0x9c
 6176 1413 37140000 		.4byte	0x1437
 6177 1417 1E       		.uleb128 0x1e
 6178 1418 05090000 		.4byte	.LASF167
 6179 141c 01       		.byte	0x1
 6180 141d 1209     		.2byte	0x912
 6181 141f A2000000 		.4byte	0xa2
 6182 1423 84130000 		.4byte	.LLST108
 6183 1427 2B       		.uleb128 0x2b
 6184 1428 746D7000 		.ascii	"tmp\000"
ARM GAS  C:\Users\jsyoon\AppData\Local\Temp\ccHEUWmT.s 			page 110


 6185 142c 01       		.byte	0x1
 6186 142d 1409     		.2byte	0x914
 6187 142f B4000000 		.4byte	0xb4
 6188 1433 02       		.uleb128 0x2
 6189 1434 91       		.byte	0x91
 6190 1435 7C       		.sleb128 -4
 6191 1436 00       		.byte	0
 6192 1437 15       		.uleb128 0x15
 6193 1438 10090000 		.4byte	.LASF170
 6194 143c 01       		.byte	0x1
 6195 143d 3A09     		.2byte	0x93a
 6196 143f 00000000 		.4byte	.LFB157
 6197 1443 18000000 		.4byte	.LFE157-.LFB157
 6198 1447 01       		.uleb128 0x1
 6199 1448 9C       		.byte	0x9c
 6200 1449 5E140000 		.4byte	0x145e
 6201 144d 1E       		.uleb128 0x1e
 6202 144e EE020000 		.4byte	.LASF171
 6203 1452 01       		.byte	0x1
 6204 1453 3A09     		.2byte	0x93a
 6205 1455 A2000000 		.4byte	0xa2
 6206 1459 A5130000 		.4byte	.LLST109
 6207 145d 00       		.byte	0
 6208 145e 15       		.uleb128 0x15
 6209 145f 780B0000 		.4byte	.LASF172
 6210 1463 01       		.byte	0x1
 6211 1464 4B09     		.2byte	0x94b
 6212 1466 00000000 		.4byte	.LFB158
 6213 146a 18000000 		.4byte	.LFE158-.LFB158
 6214 146e 01       		.uleb128 0x1
 6215 146f 9C       		.byte	0x9c
 6216 1470 85140000 		.4byte	0x1485
 6217 1474 1E       		.uleb128 0x1e
 6218 1475 BB020000 		.4byte	.LASF173
 6219 1479 01       		.byte	0x1
 6220 147a 4B09     		.2byte	0x94b
 6221 147c A2000000 		.4byte	0xa2
 6222 1480 C6130000 		.4byte	.LLST110
 6223 1484 00       		.byte	0
 6224 1485 15       		.uleb128 0x15
 6225 1486 1B0A0000 		.4byte	.LASF174
 6226 148a 01       		.byte	0x1
 6227 148b 5E09     		.2byte	0x95e
 6228 148d 00000000 		.4byte	.LFB159
 6229 1491 18000000 		.4byte	.LFE159-.LFB159
 6230 1495 01       		.uleb128 0x1
 6231 1496 9C       		.byte	0x9c
 6232 1497 AC140000 		.4byte	0x14ac
 6233 149b 1E       		.uleb128 0x1e
 6234 149c 240B0000 		.4byte	.LASF175
 6235 14a0 01       		.byte	0x1
 6236 14a1 5E09     		.2byte	0x95e
 6237 14a3 A2000000 		.4byte	0xa2
 6238 14a7 E7130000 		.4byte	.LLST111
 6239 14ab 00       		.byte	0
 6240 14ac 1D       		.uleb128 0x1d
 6241 14ad CC020000 		.4byte	.LASF176
ARM GAS  C:\Users\jsyoon\AppData\Local\Temp\ccHEUWmT.s 			page 111


 6242 14b1 01       		.byte	0x1
 6243 14b2 8409     		.2byte	0x984
 6244 14b4 24010000 		.4byte	0x124
 6245 14b8 00000000 		.4byte	.LFB160
 6246 14bc 68000000 		.4byte	.LFE160-.LFB160
 6247 14c0 01       		.uleb128 0x1
 6248 14c1 9C       		.byte	0x9c
 6249 14c2 10150000 		.4byte	0x1510
 6250 14c6 1E       		.uleb128 0x1e
 6251 14c7 A7090000 		.4byte	.LASF177
 6252 14cb 01       		.byte	0x1
 6253 14cc 8409     		.2byte	0x984
 6254 14ce A2000000 		.4byte	0xa2
 6255 14d2 08140000 		.4byte	.LLST112
 6256 14d6 1E       		.uleb128 0x1e
 6257 14d7 1F040000 		.4byte	.LASF178
 6258 14db 01       		.byte	0x1
 6259 14dc 8409     		.2byte	0x984
 6260 14de A2000000 		.4byte	0xa2
 6261 14e2 5B140000 		.4byte	.LLST113
 6262 14e6 1F       		.uleb128 0x1f
 6263 14e7 BB0A0000 		.4byte	.LASF80
 6264 14eb 01       		.byte	0x1
 6265 14ec 8609     		.2byte	0x986
 6266 14ee 24010000 		.4byte	0x124
 6267 14f2 AE140000 		.4byte	.LLST114
 6268 14f6 1F       		.uleb128 0x1f
 6269 14f7 B10B0000 		.4byte	.LASF179
 6270 14fb 01       		.byte	0x1
 6271 14fc 8709     		.2byte	0x987
 6272 14fe A2000000 		.4byte	0xa2
 6273 1502 FB140000 		.4byte	.LLST115
 6274 1506 21       		.uleb128 0x21
 6275 1507 4A000000 		.4byte	.LVL310
 6276 150b E0050000 		.4byte	0x5e0
 6277 150f 00       		.byte	0
 6278 1510 15       		.uleb128 0x15
 6279 1511 9E030000 		.4byte	.LASF180
 6280 1515 01       		.byte	0x1
 6281 1516 FB09     		.2byte	0x9fb
 6282 1518 00000000 		.4byte	.LFB161
 6283 151c 4C000000 		.4byte	.LFE161-.LFB161
 6284 1520 01       		.uleb128 0x1
 6285 1521 9C       		.byte	0x9c
 6286 1522 47150000 		.4byte	0x1547
 6287 1526 1E       		.uleb128 0x1e
 6288 1527 AA0B0000 		.4byte	.LASF181
 6289 152b 01       		.byte	0x1
 6290 152c FB09     		.2byte	0x9fb
 6291 152e A2000000 		.4byte	0xa2
 6292 1532 42150000 		.4byte	.LLST116
 6293 1536 1E       		.uleb128 0x1e
 6294 1537 07000000 		.4byte	.LASF89
 6295 153b 01       		.byte	0x1
 6296 153c FB09     		.2byte	0x9fb
 6297 153e 02010000 		.4byte	0x102
 6298 1542 7C150000 		.4byte	.LLST117
ARM GAS  C:\Users\jsyoon\AppData\Local\Temp\ccHEUWmT.s 			page 112


 6299 1546 00       		.byte	0
 6300 1547 1D       		.uleb128 0x1d
 6301 1548 9A020000 		.4byte	.LASF182
 6302 154c 01       		.byte	0x1
 6303 154d 2B0A     		.2byte	0xa2b
 6304 154f D4000000 		.4byte	0xd4
 6305 1553 00000000 		.4byte	.LFB162
 6306 1557 1C000000 		.4byte	.LFE162-.LFB162
 6307 155b 01       		.uleb128 0x1
 6308 155c 9C       		.byte	0x9c
 6309 155d 92150000 		.4byte	0x1592
 6310 1561 1E       		.uleb128 0x1e
 6311 1562 1B020000 		.4byte	.LASF183
 6312 1566 01       		.byte	0x1
 6313 1567 2B0A     		.2byte	0xa2b
 6314 1569 A2000000 		.4byte	0xa2
 6315 156d B6150000 		.4byte	.LLST118
 6316 1571 1F       		.uleb128 0x1f
 6317 1572 34030000 		.4byte	.LASF184
 6318 1576 01       		.byte	0x1
 6319 1577 2D0A     		.2byte	0xa2d
 6320 1579 D4000000 		.4byte	0xd4
 6321 157d D7150000 		.4byte	.LLST119
 6322 1581 1F       		.uleb128 0x1f
 6323 1582 DB010000 		.4byte	.LASF102
 6324 1586 01       		.byte	0x1
 6325 1587 2E0A     		.2byte	0xa2e
 6326 1589 A2000000 		.4byte	0xa2
 6327 158d 1C160000 		.4byte	.LLST120
 6328 1591 00       		.byte	0
 6329 1592 15       		.uleb128 0x15
 6330 1593 10000000 		.4byte	.LASF185
 6331 1597 01       		.byte	0x1
 6332 1598 4F0A     		.2byte	0xa4f
 6333 159a 00000000 		.4byte	.LFB163
 6334 159e 1C000000 		.4byte	.LFE163-.LFB163
 6335 15a2 01       		.uleb128 0x1
 6336 15a3 9C       		.byte	0x9c
 6337 15a4 B9150000 		.4byte	0x15b9
 6338 15a8 1E       		.uleb128 0x1e
 6339 15a9 1B020000 		.4byte	.LASF183
 6340 15ad 01       		.byte	0x1
 6341 15ae 4F0A     		.2byte	0xa4f
 6342 15b0 A2000000 		.4byte	0xa2
 6343 15b4 4E160000 		.4byte	.LLST121
 6344 15b8 00       		.byte	0
 6345 15b9 1D       		.uleb128 0x1d
 6346 15ba 0D030000 		.4byte	.LASF186
 6347 15be 01       		.byte	0x1
 6348 15bf 630A     		.2byte	0xa63
 6349 15c1 E0000000 		.4byte	0xe0
 6350 15c5 00000000 		.4byte	.LFB164
 6351 15c9 38000000 		.4byte	.LFE164-.LFB164
 6352 15cd 01       		.uleb128 0x1
 6353 15ce 9C       		.byte	0x9c
 6354 15cf 14160000 		.4byte	0x1614
 6355 15d3 1E       		.uleb128 0x1e
ARM GAS  C:\Users\jsyoon\AppData\Local\Temp\ccHEUWmT.s 			page 113


 6356 15d4 AA0B0000 		.4byte	.LASF181
 6357 15d8 01       		.byte	0x1
 6358 15d9 630A     		.2byte	0xa63
 6359 15db A2000000 		.4byte	0xa2
 6360 15df 6F160000 		.4byte	.LLST122
 6361 15e3 1F       		.uleb128 0x1f
 6362 15e4 34030000 		.4byte	.LASF184
 6363 15e8 01       		.byte	0x1
 6364 15e9 650A     		.2byte	0xa65
 6365 15eb E0000000 		.4byte	0xe0
 6366 15ef A9160000 		.4byte	.LLST123
 6367 15f3 1F       		.uleb128 0x1f
 6368 15f4 DB010000 		.4byte	.LASF102
 6369 15f8 01       		.byte	0x1
 6370 15f9 660A     		.2byte	0xa66
 6371 15fb A2000000 		.4byte	0xa2
 6372 15ff DF160000 		.4byte	.LLST124
 6373 1603 1F       		.uleb128 0x1f
 6374 1604 CF0B0000 		.4byte	.LASF187
 6375 1608 01       		.byte	0x1
 6376 1609 660A     		.2byte	0xa66
 6377 160b A2000000 		.4byte	0xa2
 6378 160f 44170000 		.4byte	.LLST125
 6379 1613 00       		.byte	0
 6380 1614 15       		.uleb128 0x15
 6381 1615 2C090000 		.4byte	.LASF188
 6382 1619 01       		.byte	0x1
 6383 161a 8B0A     		.2byte	0xa8b
 6384 161c 00000000 		.4byte	.LFB165
 6385 1620 1C000000 		.4byte	.LFE165-.LFB165
 6386 1624 01       		.uleb128 0x1
 6387 1625 9C       		.byte	0x9c
 6388 1626 4B160000 		.4byte	0x164b
 6389 162a 1E       		.uleb128 0x1e
 6390 162b AA0B0000 		.4byte	.LASF181
 6391 162f 01       		.byte	0x1
 6392 1630 8B0A     		.2byte	0xa8b
 6393 1632 A2000000 		.4byte	0xa2
 6394 1636 58170000 		.4byte	.LLST126
 6395 163a 1F       		.uleb128 0x1f
 6396 163b DB010000 		.4byte	.LASF102
 6397 163f 01       		.byte	0x1
 6398 1640 8D0A     		.2byte	0xa8d
 6399 1642 A2000000 		.4byte	0xa2
 6400 1646 79170000 		.4byte	.LLST127
 6401 164a 00       		.byte	0
 6402 164b 2C       		.uleb128 0x2c
 6403 164c 57010000 		.4byte	.LASF194
 6404 1650 06       		.byte	0x6
 6405 1651 9806     		.2byte	0x698
 6406 1653 B9000000 		.4byte	0xb9
 6407 1657 00       		.byte	0
 6408              		.section	.debug_abbrev,"",%progbits
 6409              	.Ldebug_abbrev0:
 6410 0000 01       		.uleb128 0x1
 6411 0001 11       		.uleb128 0x11
 6412 0002 01       		.byte	0x1
ARM GAS  C:\Users\jsyoon\AppData\Local\Temp\ccHEUWmT.s 			page 114


 6413 0003 25       		.uleb128 0x25
 6414 0004 0E       		.uleb128 0xe
 6415 0005 13       		.uleb128 0x13
 6416 0006 0B       		.uleb128 0xb
 6417 0007 03       		.uleb128 0x3
 6418 0008 0E       		.uleb128 0xe
 6419 0009 1B       		.uleb128 0x1b
 6420 000a 0E       		.uleb128 0xe
 6421 000b 55       		.uleb128 0x55
 6422 000c 17       		.uleb128 0x17
 6423 000d 11       		.uleb128 0x11
 6424 000e 01       		.uleb128 0x1
 6425 000f 10       		.uleb128 0x10
 6426 0010 17       		.uleb128 0x17
 6427 0011 00       		.byte	0
 6428 0012 00       		.byte	0
 6429 0013 02       		.uleb128 0x2
 6430 0014 24       		.uleb128 0x24
 6431 0015 00       		.byte	0
 6432 0016 0B       		.uleb128 0xb
 6433 0017 0B       		.uleb128 0xb
 6434 0018 3E       		.uleb128 0x3e
 6435 0019 0B       		.uleb128 0xb
 6436 001a 03       		.uleb128 0x3
 6437 001b 0E       		.uleb128 0xe
 6438 001c 00       		.byte	0
 6439 001d 00       		.byte	0
 6440 001e 03       		.uleb128 0x3
 6441 001f 16       		.uleb128 0x16
 6442 0020 00       		.byte	0
 6443 0021 03       		.uleb128 0x3
 6444 0022 0E       		.uleb128 0xe
 6445 0023 3A       		.uleb128 0x3a
 6446 0024 0B       		.uleb128 0xb
 6447 0025 3B       		.uleb128 0x3b
 6448 0026 0B       		.uleb128 0xb
 6449 0027 49       		.uleb128 0x49
 6450 0028 13       		.uleb128 0x13
 6451 0029 00       		.byte	0
 6452 002a 00       		.byte	0
 6453 002b 04       		.uleb128 0x4
 6454 002c 24       		.uleb128 0x24
 6455 002d 00       		.byte	0
 6456 002e 0B       		.uleb128 0xb
 6457 002f 0B       		.uleb128 0xb
 6458 0030 3E       		.uleb128 0x3e
 6459 0031 0B       		.uleb128 0xb
 6460 0032 03       		.uleb128 0x3
 6461 0033 08       		.uleb128 0x8
 6462 0034 00       		.byte	0
 6463 0035 00       		.byte	0
 6464 0036 05       		.uleb128 0x5
 6465 0037 35       		.uleb128 0x35
 6466 0038 00       		.byte	0
 6467 0039 49       		.uleb128 0x49
 6468 003a 13       		.uleb128 0x13
 6469 003b 00       		.byte	0
ARM GAS  C:\Users\jsyoon\AppData\Local\Temp\ccHEUWmT.s 			page 115


 6470 003c 00       		.byte	0
 6471 003d 06       		.uleb128 0x6
 6472 003e 04       		.uleb128 0x4
 6473 003f 01       		.byte	0x1
 6474 0040 0B       		.uleb128 0xb
 6475 0041 0B       		.uleb128 0xb
 6476 0042 3A       		.uleb128 0x3a
 6477 0043 0B       		.uleb128 0xb
 6478 0044 3B       		.uleb128 0x3b
 6479 0045 05       		.uleb128 0x5
 6480 0046 01       		.uleb128 0x1
 6481 0047 13       		.uleb128 0x13
 6482 0048 00       		.byte	0
 6483 0049 00       		.byte	0
 6484 004a 07       		.uleb128 0x7
 6485 004b 28       		.uleb128 0x28
 6486 004c 00       		.byte	0
 6487 004d 03       		.uleb128 0x3
 6488 004e 0E       		.uleb128 0xe
 6489 004f 1C       		.uleb128 0x1c
 6490 0050 0D       		.uleb128 0xd
 6491 0051 00       		.byte	0
 6492 0052 00       		.byte	0
 6493 0053 08       		.uleb128 0x8
 6494 0054 28       		.uleb128 0x28
 6495 0055 00       		.byte	0
 6496 0056 03       		.uleb128 0x3
 6497 0057 08       		.uleb128 0x8
 6498 0058 1C       		.uleb128 0x1c
 6499 0059 0D       		.uleb128 0xd
 6500 005a 00       		.byte	0
 6501 005b 00       		.byte	0
 6502 005c 09       		.uleb128 0x9
 6503 005d 16       		.uleb128 0x16
 6504 005e 00       		.byte	0
 6505 005f 03       		.uleb128 0x3
 6506 0060 0E       		.uleb128 0xe
 6507 0061 3A       		.uleb128 0x3a
 6508 0062 0B       		.uleb128 0xb
 6509 0063 3B       		.uleb128 0x3b
 6510 0064 05       		.uleb128 0x5
 6511 0065 49       		.uleb128 0x49
 6512 0066 13       		.uleb128 0x13
 6513 0067 00       		.byte	0
 6514 0068 00       		.byte	0
 6515 0069 0A       		.uleb128 0xa
 6516 006a 13       		.uleb128 0x13
 6517 006b 01       		.byte	0x1
 6518 006c 0B       		.uleb128 0xb
 6519 006d 0B       		.uleb128 0xb
 6520 006e 3A       		.uleb128 0x3a
 6521 006f 0B       		.uleb128 0xb
 6522 0070 3B       		.uleb128 0x3b
 6523 0071 05       		.uleb128 0x5
 6524 0072 01       		.uleb128 0x1
 6525 0073 13       		.uleb128 0x13
 6526 0074 00       		.byte	0
ARM GAS  C:\Users\jsyoon\AppData\Local\Temp\ccHEUWmT.s 			page 116


 6527 0075 00       		.byte	0
 6528 0076 0B       		.uleb128 0xb
 6529 0077 0D       		.uleb128 0xd
 6530 0078 00       		.byte	0
 6531 0079 03       		.uleb128 0x3
 6532 007a 08       		.uleb128 0x8
 6533 007b 3A       		.uleb128 0x3a
 6534 007c 0B       		.uleb128 0xb
 6535 007d 3B       		.uleb128 0x3b
 6536 007e 05       		.uleb128 0x5
 6537 007f 49       		.uleb128 0x49
 6538 0080 13       		.uleb128 0x13
 6539 0081 38       		.uleb128 0x38
 6540 0082 0B       		.uleb128 0xb
 6541 0083 00       		.byte	0
 6542 0084 00       		.byte	0
 6543 0085 0C       		.uleb128 0xc
 6544 0086 0D       		.uleb128 0xd
 6545 0087 00       		.byte	0
 6546 0088 03       		.uleb128 0x3
 6547 0089 0E       		.uleb128 0xe
 6548 008a 3A       		.uleb128 0x3a
 6549 008b 0B       		.uleb128 0xb
 6550 008c 3B       		.uleb128 0x3b
 6551 008d 05       		.uleb128 0x5
 6552 008e 49       		.uleb128 0x49
 6553 008f 13       		.uleb128 0x13
 6554 0090 38       		.uleb128 0x38
 6555 0091 0B       		.uleb128 0xb
 6556 0092 00       		.byte	0
 6557 0093 00       		.byte	0
 6558 0094 0D       		.uleb128 0xd
 6559 0095 13       		.uleb128 0x13
 6560 0096 01       		.byte	0x1
 6561 0097 0B       		.uleb128 0xb
 6562 0098 0B       		.uleb128 0xb
 6563 0099 3A       		.uleb128 0x3a
 6564 009a 0B       		.uleb128 0xb
 6565 009b 3B       		.uleb128 0x3b
 6566 009c 0B       		.uleb128 0xb
 6567 009d 01       		.uleb128 0x1
 6568 009e 13       		.uleb128 0x13
 6569 009f 00       		.byte	0
 6570 00a0 00       		.byte	0
 6571 00a1 0E       		.uleb128 0xe
 6572 00a2 0D       		.uleb128 0xd
 6573 00a3 00       		.byte	0
 6574 00a4 03       		.uleb128 0x3
 6575 00a5 0E       		.uleb128 0xe
 6576 00a6 3A       		.uleb128 0x3a
 6577 00a7 0B       		.uleb128 0xb
 6578 00a8 3B       		.uleb128 0x3b
 6579 00a9 0B       		.uleb128 0xb
 6580 00aa 49       		.uleb128 0x49
 6581 00ab 13       		.uleb128 0x13
 6582 00ac 38       		.uleb128 0x38
 6583 00ad 0B       		.uleb128 0xb
ARM GAS  C:\Users\jsyoon\AppData\Local\Temp\ccHEUWmT.s 			page 117


 6584 00ae 00       		.byte	0
 6585 00af 00       		.byte	0
 6586 00b0 0F       		.uleb128 0xf
 6587 00b1 2E       		.uleb128 0x2e
 6588 00b2 01       		.byte	0x1
 6589 00b3 3F       		.uleb128 0x3f
 6590 00b4 19       		.uleb128 0x19
 6591 00b5 03       		.uleb128 0x3
 6592 00b6 0E       		.uleb128 0xe
 6593 00b7 3A       		.uleb128 0x3a
 6594 00b8 0B       		.uleb128 0xb
 6595 00b9 3B       		.uleb128 0x3b
 6596 00ba 05       		.uleb128 0x5
 6597 00bb 27       		.uleb128 0x27
 6598 00bc 19       		.uleb128 0x19
 6599 00bd 49       		.uleb128 0x49
 6600 00be 13       		.uleb128 0x13
 6601 00bf 20       		.uleb128 0x20
 6602 00c0 0B       		.uleb128 0xb
 6603 00c1 01       		.uleb128 0x1
 6604 00c2 13       		.uleb128 0x13
 6605 00c3 00       		.byte	0
 6606 00c4 00       		.byte	0
 6607 00c5 10       		.uleb128 0x10
 6608 00c6 34       		.uleb128 0x34
 6609 00c7 00       		.byte	0
 6610 00c8 03       		.uleb128 0x3
 6611 00c9 0E       		.uleb128 0xe
 6612 00ca 3A       		.uleb128 0x3a
 6613 00cb 0B       		.uleb128 0xb
 6614 00cc 3B       		.uleb128 0x3b
 6615 00cd 05       		.uleb128 0x5
 6616 00ce 49       		.uleb128 0x49
 6617 00cf 13       		.uleb128 0x13
 6618 00d0 00       		.byte	0
 6619 00d1 00       		.byte	0
 6620 00d2 11       		.uleb128 0x11
 6621 00d3 2E       		.uleb128 0x2e
 6622 00d4 00       		.byte	0
 6623 00d5 3F       		.uleb128 0x3f
 6624 00d6 19       		.uleb128 0x19
 6625 00d7 03       		.uleb128 0x3
 6626 00d8 0E       		.uleb128 0xe
 6627 00d9 3A       		.uleb128 0x3a
 6628 00da 0B       		.uleb128 0xb
 6629 00db 3B       		.uleb128 0x3b
 6630 00dc 05       		.uleb128 0x5
 6631 00dd 27       		.uleb128 0x27
 6632 00de 19       		.uleb128 0x19
 6633 00df 20       		.uleb128 0x20
 6634 00e0 0B       		.uleb128 0xb
 6635 00e1 00       		.byte	0
 6636 00e2 00       		.byte	0
 6637 00e3 12       		.uleb128 0x12
 6638 00e4 2E       		.uleb128 0x2e
 6639 00e5 01       		.byte	0x1
 6640 00e6 03       		.uleb128 0x3
ARM GAS  C:\Users\jsyoon\AppData\Local\Temp\ccHEUWmT.s 			page 118


 6641 00e7 0E       		.uleb128 0xe
 6642 00e8 3A       		.uleb128 0x3a
 6643 00e9 0B       		.uleb128 0xb
 6644 00ea 3B       		.uleb128 0x3b
 6645 00eb 05       		.uleb128 0x5
 6646 00ec 27       		.uleb128 0x27
 6647 00ed 19       		.uleb128 0x19
 6648 00ee 49       		.uleb128 0x49
 6649 00ef 13       		.uleb128 0x13
 6650 00f0 20       		.uleb128 0x20
 6651 00f1 0B       		.uleb128 0xb
 6652 00f2 01       		.uleb128 0x1
 6653 00f3 13       		.uleb128 0x13
 6654 00f4 00       		.byte	0
 6655 00f5 00       		.byte	0
 6656 00f6 13       		.uleb128 0x13
 6657 00f7 05       		.uleb128 0x5
 6658 00f8 00       		.byte	0
 6659 00f9 03       		.uleb128 0x3
 6660 00fa 0E       		.uleb128 0xe
 6661 00fb 3A       		.uleb128 0x3a
 6662 00fc 0B       		.uleb128 0xb
 6663 00fd 3B       		.uleb128 0x3b
 6664 00fe 05       		.uleb128 0x5
 6665 00ff 49       		.uleb128 0x49
 6666 0100 13       		.uleb128 0x13
 6667 0101 00       		.byte	0
 6668 0102 00       		.byte	0
 6669 0103 14       		.uleb128 0x14
 6670 0104 34       		.uleb128 0x34
 6671 0105 00       		.byte	0
 6672 0106 03       		.uleb128 0x3
 6673 0107 08       		.uleb128 0x8
 6674 0108 3A       		.uleb128 0x3a
 6675 0109 0B       		.uleb128 0xb
 6676 010a 3B       		.uleb128 0x3b
 6677 010b 05       		.uleb128 0x5
 6678 010c 49       		.uleb128 0x49
 6679 010d 13       		.uleb128 0x13
 6680 010e 00       		.byte	0
 6681 010f 00       		.byte	0
 6682 0110 15       		.uleb128 0x15
 6683 0111 2E       		.uleb128 0x2e
 6684 0112 01       		.byte	0x1
 6685 0113 3F       		.uleb128 0x3f
 6686 0114 19       		.uleb128 0x19
 6687 0115 03       		.uleb128 0x3
 6688 0116 0E       		.uleb128 0xe
 6689 0117 3A       		.uleb128 0x3a
 6690 0118 0B       		.uleb128 0xb
 6691 0119 3B       		.uleb128 0x3b
 6692 011a 05       		.uleb128 0x5
 6693 011b 27       		.uleb128 0x27
 6694 011c 19       		.uleb128 0x19
 6695 011d 11       		.uleb128 0x11
 6696 011e 01       		.uleb128 0x1
 6697 011f 12       		.uleb128 0x12
ARM GAS  C:\Users\jsyoon\AppData\Local\Temp\ccHEUWmT.s 			page 119


 6698 0120 06       		.uleb128 0x6
 6699 0121 40       		.uleb128 0x40
 6700 0122 18       		.uleb128 0x18
 6701 0123 9742     		.uleb128 0x2117
 6702 0125 19       		.uleb128 0x19
 6703 0126 01       		.uleb128 0x1
 6704 0127 13       		.uleb128 0x13
 6705 0128 00       		.byte	0
 6706 0129 00       		.byte	0
 6707 012a 16       		.uleb128 0x16
 6708 012b 05       		.uleb128 0x5
 6709 012c 00       		.byte	0
 6710 012d 03       		.uleb128 0x3
 6711 012e 0E       		.uleb128 0xe
 6712 012f 3A       		.uleb128 0x3a
 6713 0130 0B       		.uleb128 0xb
 6714 0131 3B       		.uleb128 0x3b
 6715 0132 05       		.uleb128 0x5
 6716 0133 49       		.uleb128 0x49
 6717 0134 13       		.uleb128 0x13
 6718 0135 02       		.uleb128 0x2
 6719 0136 18       		.uleb128 0x18
 6720 0137 00       		.byte	0
 6721 0138 00       		.byte	0
 6722 0139 17       		.uleb128 0x17
 6723 013a 0F       		.uleb128 0xf
 6724 013b 00       		.byte	0
 6725 013c 0B       		.uleb128 0xb
 6726 013d 0B       		.uleb128 0xb
 6727 013e 49       		.uleb128 0x49
 6728 013f 13       		.uleb128 0x13
 6729 0140 00       		.byte	0
 6730 0141 00       		.byte	0
 6731 0142 18       		.uleb128 0x18
 6732 0143 2E       		.uleb128 0x2e
 6733 0144 01       		.byte	0x1
 6734 0145 31       		.uleb128 0x31
 6735 0146 13       		.uleb128 0x13
 6736 0147 11       		.uleb128 0x11
 6737 0148 01       		.uleb128 0x1
 6738 0149 12       		.uleb128 0x12
 6739 014a 06       		.uleb128 0x6
 6740 014b 40       		.uleb128 0x40
 6741 014c 18       		.uleb128 0x18
 6742 014d 9742     		.uleb128 0x2117
 6743 014f 19       		.uleb128 0x19
 6744 0150 01       		.uleb128 0x1
 6745 0151 13       		.uleb128 0x13
 6746 0152 00       		.byte	0
 6747 0153 00       		.byte	0
 6748 0154 19       		.uleb128 0x19
 6749 0155 34       		.uleb128 0x34
 6750 0156 00       		.byte	0
 6751 0157 31       		.uleb128 0x31
 6752 0158 13       		.uleb128 0x13
 6753 0159 02       		.uleb128 0x2
 6754 015a 18       		.uleb128 0x18
ARM GAS  C:\Users\jsyoon\AppData\Local\Temp\ccHEUWmT.s 			page 120


 6755 015b 00       		.byte	0
 6756 015c 00       		.byte	0
 6757 015d 1A       		.uleb128 0x1a
 6758 015e 34       		.uleb128 0x34
 6759 015f 00       		.byte	0
 6760 0160 31       		.uleb128 0x31
 6761 0161 13       		.uleb128 0x13
 6762 0162 02       		.uleb128 0x2
 6763 0163 17       		.uleb128 0x17
 6764 0164 00       		.byte	0
 6765 0165 00       		.byte	0
 6766 0166 1B       		.uleb128 0x1b
 6767 0167 0B       		.uleb128 0xb
 6768 0168 01       		.byte	0x1
 6769 0169 11       		.uleb128 0x11
 6770 016a 01       		.uleb128 0x1
 6771 016b 12       		.uleb128 0x12
 6772 016c 06       		.uleb128 0x6
 6773 016d 00       		.byte	0
 6774 016e 00       		.byte	0
 6775 016f 1C       		.uleb128 0x1c
 6776 0170 34       		.uleb128 0x34
 6777 0171 00       		.byte	0
 6778 0172 31       		.uleb128 0x31
 6779 0173 13       		.uleb128 0x13
 6780 0174 00       		.byte	0
 6781 0175 00       		.byte	0
 6782 0176 1D       		.uleb128 0x1d
 6783 0177 2E       		.uleb128 0x2e
 6784 0178 01       		.byte	0x1
 6785 0179 3F       		.uleb128 0x3f
 6786 017a 19       		.uleb128 0x19
 6787 017b 03       		.uleb128 0x3
 6788 017c 0E       		.uleb128 0xe
 6789 017d 3A       		.uleb128 0x3a
 6790 017e 0B       		.uleb128 0xb
 6791 017f 3B       		.uleb128 0x3b
 6792 0180 05       		.uleb128 0x5
 6793 0181 27       		.uleb128 0x27
 6794 0182 19       		.uleb128 0x19
 6795 0183 49       		.uleb128 0x49
 6796 0184 13       		.uleb128 0x13
 6797 0185 11       		.uleb128 0x11
 6798 0186 01       		.uleb128 0x1
 6799 0187 12       		.uleb128 0x12
 6800 0188 06       		.uleb128 0x6
 6801 0189 40       		.uleb128 0x40
 6802 018a 18       		.uleb128 0x18
 6803 018b 9742     		.uleb128 0x2117
 6804 018d 19       		.uleb128 0x19
 6805 018e 01       		.uleb128 0x1
 6806 018f 13       		.uleb128 0x13
 6807 0190 00       		.byte	0
 6808 0191 00       		.byte	0
 6809 0192 1E       		.uleb128 0x1e
 6810 0193 05       		.uleb128 0x5
 6811 0194 00       		.byte	0
ARM GAS  C:\Users\jsyoon\AppData\Local\Temp\ccHEUWmT.s 			page 121


 6812 0195 03       		.uleb128 0x3
 6813 0196 0E       		.uleb128 0xe
 6814 0197 3A       		.uleb128 0x3a
 6815 0198 0B       		.uleb128 0xb
 6816 0199 3B       		.uleb128 0x3b
 6817 019a 05       		.uleb128 0x5
 6818 019b 49       		.uleb128 0x49
 6819 019c 13       		.uleb128 0x13
 6820 019d 02       		.uleb128 0x2
 6821 019e 17       		.uleb128 0x17
 6822 019f 00       		.byte	0
 6823 01a0 00       		.byte	0
 6824 01a1 1F       		.uleb128 0x1f
 6825 01a2 34       		.uleb128 0x34
 6826 01a3 00       		.byte	0
 6827 01a4 03       		.uleb128 0x3
 6828 01a5 0E       		.uleb128 0xe
 6829 01a6 3A       		.uleb128 0x3a
 6830 01a7 0B       		.uleb128 0xb
 6831 01a8 3B       		.uleb128 0x3b
 6832 01a9 05       		.uleb128 0x5
 6833 01aa 49       		.uleb128 0x49
 6834 01ab 13       		.uleb128 0x13
 6835 01ac 02       		.uleb128 0x2
 6836 01ad 17       		.uleb128 0x17
 6837 01ae 00       		.byte	0
 6838 01af 00       		.byte	0
 6839 01b0 20       		.uleb128 0x20
 6840 01b1 1D       		.uleb128 0x1d
 6841 01b2 00       		.byte	0
 6842 01b3 31       		.uleb128 0x31
 6843 01b4 13       		.uleb128 0x13
 6844 01b5 11       		.uleb128 0x11
 6845 01b6 01       		.uleb128 0x1
 6846 01b7 12       		.uleb128 0x12
 6847 01b8 06       		.uleb128 0x6
 6848 01b9 58       		.uleb128 0x58
 6849 01ba 0B       		.uleb128 0xb
 6850 01bb 59       		.uleb128 0x59
 6851 01bc 05       		.uleb128 0x5
 6852 01bd 00       		.byte	0
 6853 01be 00       		.byte	0
 6854 01bf 21       		.uleb128 0x21
 6855 01c0 898201   		.uleb128 0x4109
 6856 01c3 00       		.byte	0
 6857 01c4 11       		.uleb128 0x11
 6858 01c5 01       		.uleb128 0x1
 6859 01c6 31       		.uleb128 0x31
 6860 01c7 13       		.uleb128 0x13
 6861 01c8 00       		.byte	0
 6862 01c9 00       		.byte	0
 6863 01ca 22       		.uleb128 0x22
 6864 01cb 2E       		.uleb128 0x2e
 6865 01cc 00       		.byte	0
 6866 01cd 31       		.uleb128 0x31
 6867 01ce 13       		.uleb128 0x13
 6868 01cf 11       		.uleb128 0x11
ARM GAS  C:\Users\jsyoon\AppData\Local\Temp\ccHEUWmT.s 			page 122


 6869 01d0 01       		.uleb128 0x1
 6870 01d1 12       		.uleb128 0x12
 6871 01d2 06       		.uleb128 0x6
 6872 01d3 40       		.uleb128 0x40
 6873 01d4 18       		.uleb128 0x18
 6874 01d5 9742     		.uleb128 0x2117
 6875 01d7 19       		.uleb128 0x19
 6876 01d8 00       		.byte	0
 6877 01d9 00       		.byte	0
 6878 01da 23       		.uleb128 0x23
 6879 01db 34       		.uleb128 0x34
 6880 01dc 00       		.byte	0
 6881 01dd 03       		.uleb128 0x3
 6882 01de 0E       		.uleb128 0xe
 6883 01df 3A       		.uleb128 0x3a
 6884 01e0 0B       		.uleb128 0xb
 6885 01e1 3B       		.uleb128 0x3b
 6886 01e2 05       		.uleb128 0x5
 6887 01e3 49       		.uleb128 0x49
 6888 01e4 13       		.uleb128 0x13
 6889 01e5 02       		.uleb128 0x2
 6890 01e6 18       		.uleb128 0x18
 6891 01e7 00       		.byte	0
 6892 01e8 00       		.byte	0
 6893 01e9 24       		.uleb128 0x24
 6894 01ea 1D       		.uleb128 0x1d
 6895 01eb 01       		.byte	0x1
 6896 01ec 31       		.uleb128 0x31
 6897 01ed 13       		.uleb128 0x13
 6898 01ee 11       		.uleb128 0x11
 6899 01ef 01       		.uleb128 0x1
 6900 01f0 12       		.uleb128 0x12
 6901 01f1 06       		.uleb128 0x6
 6902 01f2 58       		.uleb128 0x58
 6903 01f3 0B       		.uleb128 0xb
 6904 01f4 59       		.uleb128 0x59
 6905 01f5 05       		.uleb128 0x5
 6906 01f6 01       		.uleb128 0x1
 6907 01f7 13       		.uleb128 0x13
 6908 01f8 00       		.byte	0
 6909 01f9 00       		.byte	0
 6910 01fa 25       		.uleb128 0x25
 6911 01fb 05       		.uleb128 0x5
 6912 01fc 00       		.byte	0
 6913 01fd 31       		.uleb128 0x31
 6914 01fe 13       		.uleb128 0x13
 6915 01ff 02       		.uleb128 0x2
 6916 0200 17       		.uleb128 0x17
 6917 0201 00       		.byte	0
 6918 0202 00       		.byte	0
 6919 0203 26       		.uleb128 0x26
 6920 0204 1D       		.uleb128 0x1d
 6921 0205 01       		.byte	0x1
 6922 0206 31       		.uleb128 0x31
 6923 0207 13       		.uleb128 0x13
 6924 0208 52       		.uleb128 0x52
 6925 0209 01       		.uleb128 0x1
ARM GAS  C:\Users\jsyoon\AppData\Local\Temp\ccHEUWmT.s 			page 123


 6926 020a 55       		.uleb128 0x55
 6927 020b 17       		.uleb128 0x17
 6928 020c 58       		.uleb128 0x58
 6929 020d 0B       		.uleb128 0xb
 6930 020e 59       		.uleb128 0x59
 6931 020f 05       		.uleb128 0x5
 6932 0210 01       		.uleb128 0x1
 6933 0211 13       		.uleb128 0x13
 6934 0212 00       		.byte	0
 6935 0213 00       		.byte	0
 6936 0214 27       		.uleb128 0x27
 6937 0215 0B       		.uleb128 0xb
 6938 0216 01       		.byte	0x1
 6939 0217 55       		.uleb128 0x55
 6940 0218 17       		.uleb128 0x17
 6941 0219 00       		.byte	0
 6942 021a 00       		.byte	0
 6943 021b 28       		.uleb128 0x28
 6944 021c 05       		.uleb128 0x5
 6945 021d 00       		.byte	0
 6946 021e 31       		.uleb128 0x31
 6947 021f 13       		.uleb128 0x13
 6948 0220 00       		.byte	0
 6949 0221 00       		.byte	0
 6950 0222 29       		.uleb128 0x29
 6951 0223 1D       		.uleb128 0x1d
 6952 0224 01       		.byte	0x1
 6953 0225 31       		.uleb128 0x31
 6954 0226 13       		.uleb128 0x13
 6955 0227 52       		.uleb128 0x52
 6956 0228 01       		.uleb128 0x1
 6957 0229 55       		.uleb128 0x55
 6958 022a 17       		.uleb128 0x17
 6959 022b 58       		.uleb128 0x58
 6960 022c 0B       		.uleb128 0xb
 6961 022d 59       		.uleb128 0x59
 6962 022e 05       		.uleb128 0x5
 6963 022f 00       		.byte	0
 6964 0230 00       		.byte	0
 6965 0231 2A       		.uleb128 0x2a
 6966 0232 2E       		.uleb128 0x2e
 6967 0233 00       		.byte	0
 6968 0234 3F       		.uleb128 0x3f
 6969 0235 19       		.uleb128 0x19
 6970 0236 03       		.uleb128 0x3
 6971 0237 0E       		.uleb128 0xe
 6972 0238 3A       		.uleb128 0x3a
 6973 0239 0B       		.uleb128 0xb
 6974 023a 3B       		.uleb128 0x3b
 6975 023b 05       		.uleb128 0x5
 6976 023c 27       		.uleb128 0x27
 6977 023d 19       		.uleb128 0x19
 6978 023e 49       		.uleb128 0x49
 6979 023f 13       		.uleb128 0x13
 6980 0240 11       		.uleb128 0x11
 6981 0241 01       		.uleb128 0x1
 6982 0242 12       		.uleb128 0x12
ARM GAS  C:\Users\jsyoon\AppData\Local\Temp\ccHEUWmT.s 			page 124


 6983 0243 06       		.uleb128 0x6
 6984 0244 40       		.uleb128 0x40
 6985 0245 18       		.uleb128 0x18
 6986 0246 9742     		.uleb128 0x2117
 6987 0248 19       		.uleb128 0x19
 6988 0249 00       		.byte	0
 6989 024a 00       		.byte	0
 6990 024b 2B       		.uleb128 0x2b
 6991 024c 34       		.uleb128 0x34
 6992 024d 00       		.byte	0
 6993 024e 03       		.uleb128 0x3
 6994 024f 08       		.uleb128 0x8
 6995 0250 3A       		.uleb128 0x3a
 6996 0251 0B       		.uleb128 0xb
 6997 0252 3B       		.uleb128 0x3b
 6998 0253 05       		.uleb128 0x5
 6999 0254 49       		.uleb128 0x49
 7000 0255 13       		.uleb128 0x13
 7001 0256 02       		.uleb128 0x2
 7002 0257 18       		.uleb128 0x18
 7003 0258 00       		.byte	0
 7004 0259 00       		.byte	0
 7005 025a 2C       		.uleb128 0x2c
 7006 025b 34       		.uleb128 0x34
 7007 025c 00       		.byte	0
 7008 025d 03       		.uleb128 0x3
 7009 025e 0E       		.uleb128 0xe
 7010 025f 3A       		.uleb128 0x3a
 7011 0260 0B       		.uleb128 0xb
 7012 0261 3B       		.uleb128 0x3b
 7013 0262 05       		.uleb128 0x5
 7014 0263 49       		.uleb128 0x49
 7015 0264 13       		.uleb128 0x13
 7016 0265 3F       		.uleb128 0x3f
 7017 0266 19       		.uleb128 0x19
 7018 0267 3C       		.uleb128 0x3c
 7019 0268 19       		.uleb128 0x19
 7020 0269 00       		.byte	0
 7021 026a 00       		.byte	0
 7022 026b 00       		.byte	0
 7023              		.section	.debug_loc,"",%progbits
 7024              	.Ldebug_loc0:
 7025              	.LLST0:
 7026 0000 08000000 		.4byte	.LVL2
 7027 0004 34000000 		.4byte	.LVL6
 7028 0008 0200     		.2byte	0x2
 7029 000a 30       		.byte	0x30
 7030 000b 9F       		.byte	0x9f
 7031 000c 34000000 		.4byte	.LVL6
 7032 0010 38000000 		.4byte	.LVL7
 7033 0014 0100     		.2byte	0x1
 7034 0016 50       		.byte	0x50
 7035 0017 38000000 		.4byte	.LVL7
 7036 001b 3A000000 		.4byte	.LVL8
 7037 001f 0200     		.2byte	0x2
 7038 0021 30       		.byte	0x30
 7039 0022 9F       		.byte	0x9f
ARM GAS  C:\Users\jsyoon\AppData\Local\Temp\ccHEUWmT.s 			page 125


 7040 0023 3A000000 		.4byte	.LVL8
 7041 0027 44000000 		.4byte	.LFE115
 7042 002b 0100     		.2byte	0x1
 7043 002d 50       		.byte	0x50
 7044 002e 00000000 		.4byte	0
 7045 0032 00000000 		.4byte	0
 7046              	.LLST1:
 7047 0036 08000000 		.4byte	.LVL2
 7048 003a 16000000 		.4byte	.LVL3
 7049 003e 0200     		.2byte	0x2
 7050 0040 30       		.byte	0x30
 7051 0041 9F       		.byte	0x9f
 7052 0042 16000000 		.4byte	.LVL3
 7053 0046 18000000 		.4byte	.LVL4
 7054 004a 0100     		.2byte	0x1
 7055 004c 52       		.byte	0x52
 7056 004d 2A000000 		.4byte	.LVL5
 7057 0051 38000000 		.4byte	.LVL7
 7058 0055 0100     		.2byte	0x1
 7059 0057 52       		.byte	0x52
 7060 0058 38000000 		.4byte	.LVL7
 7061 005c 44000000 		.4byte	.LFE115
 7062 0060 0200     		.2byte	0x2
 7063 0062 30       		.byte	0x30
 7064 0063 9F       		.byte	0x9f
 7065 0064 00000000 		.4byte	0
 7066 0068 00000000 		.4byte	0
 7067              	.LLST2:
 7068 006c 34000000 		.4byte	.LVL6
 7069 0070 38000000 		.4byte	.LVL7
 7070 0074 0100     		.2byte	0x1
 7071 0076 50       		.byte	0x50
 7072 0077 00000000 		.4byte	0
 7073 007b 00000000 		.4byte	0
 7074              	.LLST3:
 7075 007f 00000000 		.4byte	.LVL9
 7076 0083 11000000 		.4byte	.LVL10-1
 7077 0087 0100     		.2byte	0x1
 7078 0089 50       		.byte	0x50
 7079 008a 11000000 		.4byte	.LVL10-1
 7080 008e 44000000 		.4byte	.LVL13
 7081 0092 0100     		.2byte	0x1
 7082 0094 55       		.byte	0x55
 7083 0095 44000000 		.4byte	.LVL13
 7084 0099 48000000 		.4byte	.LFE112
 7085 009d 0400     		.2byte	0x4
 7086 009f F3       		.byte	0xf3
 7087 00a0 01       		.uleb128 0x1
 7088 00a1 50       		.byte	0x50
 7089 00a2 9F       		.byte	0x9f
 7090 00a3 00000000 		.4byte	0
 7091 00a7 00000000 		.4byte	0
 7092              	.LLST4:
 7093 00ab 00000000 		.4byte	.LVL9
 7094 00af 3A000000 		.4byte	.LVL11
 7095 00b3 0200     		.2byte	0x2
 7096 00b5 30       		.byte	0x30
ARM GAS  C:\Users\jsyoon\AppData\Local\Temp\ccHEUWmT.s 			page 126


 7097 00b6 9F       		.byte	0x9f
 7098 00b7 3A000000 		.4byte	.LVL11
 7099 00bb 3C000000 		.4byte	.LVL12
 7100 00bf 0200     		.2byte	0x2
 7101 00c1 31       		.byte	0x31
 7102 00c2 9F       		.byte	0x9f
 7103 00c3 3C000000 		.4byte	.LVL12
 7104 00c7 48000000 		.4byte	.LFE112
 7105 00cb 0100     		.2byte	0x1
 7106 00cd 50       		.byte	0x50
 7107 00ce 00000000 		.4byte	0
 7108 00d2 00000000 		.4byte	0
 7109              	.LLST5:
 7110 00d6 0C000000 		.4byte	.LVL14
 7111 00da 34000000 		.4byte	.LVL18
 7112 00de 0200     		.2byte	0x2
 7113 00e0 30       		.byte	0x30
 7114 00e1 9F       		.byte	0x9f
 7115 00e2 34000000 		.4byte	.LVL18
 7116 00e6 3A000000 		.4byte	.LVL20
 7117 00ea 0800     		.2byte	0x8
 7118 00ec 70       		.byte	0x70
 7119 00ed 00       		.sleb128 0
 7120 00ee 08       		.byte	0x8
 7121 00ef 20       		.byte	0x20
 7122 00f0 1A       		.byte	0x1a
 7123 00f1 30       		.byte	0x30
 7124 00f2 2E       		.byte	0x2e
 7125 00f3 9F       		.byte	0x9f
 7126 00f4 00000000 		.4byte	0
 7127 00f8 00000000 		.4byte	0
 7128              	.LLST6:
 7129 00fc 0C000000 		.4byte	.LVL14
 7130 0100 1A000000 		.4byte	.LVL15
 7131 0104 0200     		.2byte	0x2
 7132 0106 30       		.byte	0x30
 7133 0107 9F       		.byte	0x9f
 7134 0108 1A000000 		.4byte	.LVL15
 7135 010c 1C000000 		.4byte	.LVL16
 7136 0110 0100     		.2byte	0x1
 7137 0112 52       		.byte	0x52
 7138 0113 2E000000 		.4byte	.LVL17
 7139 0117 36000000 		.4byte	.LVL19
 7140 011b 0100     		.2byte	0x1
 7141 011d 52       		.byte	0x52
 7142 011e 00000000 		.4byte	0
 7143 0122 00000000 		.4byte	0
 7144              	.LLST7:
 7145 0126 0E000000 		.4byte	.LVL21
 7146 012a 2C000000 		.4byte	.LVL23
 7147 012e 0200     		.2byte	0x2
 7148 0130 30       		.byte	0x30
 7149 0131 9F       		.byte	0x9f
 7150 0132 2C000000 		.4byte	.LVL23
 7151 0136 2E000000 		.4byte	.LVL24
 7152 013a 0100     		.2byte	0x1
 7153 013c 52       		.byte	0x52
ARM GAS  C:\Users\jsyoon\AppData\Local\Temp\ccHEUWmT.s 			page 127


 7154 013d 40000000 		.4byte	.LVL25
 7155 0141 46000000 		.4byte	.LVL26
 7156 0145 0100     		.2byte	0x1
 7157 0147 52       		.byte	0x52
 7158 0148 00000000 		.4byte	0
 7159 014c 00000000 		.4byte	0
 7160              	.LLST8:
 7161 0150 0E000000 		.4byte	.LVL21
 7162 0154 4C000000 		.4byte	.LVL27
 7163 0158 0200     		.2byte	0x2
 7164 015a 30       		.byte	0x30
 7165 015b 9F       		.byte	0x9f
 7166 015c 4C000000 		.4byte	.LVL27
 7167 0160 56000000 		.4byte	.LVL28
 7168 0164 0100     		.2byte	0x1
 7169 0166 50       		.byte	0x50
 7170 0167 56000000 		.4byte	.LVL28
 7171 016b 8C000000 		.4byte	.LFE111
 7172 016f 0200     		.2byte	0x2
 7173 0171 30       		.byte	0x30
 7174 0172 9F       		.byte	0x9f
 7175 0173 00000000 		.4byte	0
 7176 0177 00000000 		.4byte	0
 7177              	.LLST9:
 7178 017b 00000000 		.4byte	.LVL30
 7179 017f 11000000 		.4byte	.LVL31-1
 7180 0183 0100     		.2byte	0x1
 7181 0185 50       		.byte	0x50
 7182 0186 11000000 		.4byte	.LVL31-1
 7183 018a 40000000 		.4byte	.LFE118
 7184 018e 0400     		.2byte	0x4
 7185 0190 F3       		.byte	0xf3
 7186 0191 01       		.uleb128 0x1
 7187 0192 50       		.byte	0x50
 7188 0193 9F       		.byte	0x9f
 7189 0194 00000000 		.4byte	0
 7190 0198 00000000 		.4byte	0
 7191              	.LLST10:
 7192 019c 00000000 		.4byte	.LVL30
 7193 01a0 28000000 		.4byte	.LVL32
 7194 01a4 0200     		.2byte	0x2
 7195 01a6 30       		.byte	0x30
 7196 01a7 9F       		.byte	0x9f
 7197 01a8 28000000 		.4byte	.LVL32
 7198 01ac 2A000000 		.4byte	.LVL33
 7199 01b0 0200     		.2byte	0x2
 7200 01b2 31       		.byte	0x31
 7201 01b3 9F       		.byte	0x9f
 7202 01b4 2A000000 		.4byte	.LVL33
 7203 01b8 32000000 		.4byte	.LVL34
 7204 01bc 0100     		.2byte	0x1
 7205 01be 50       		.byte	0x50
 7206 01bf 32000000 		.4byte	.LVL34
 7207 01c3 40000000 		.4byte	.LFE118
 7208 01c7 0200     		.2byte	0x2
 7209 01c9 30       		.byte	0x30
 7210 01ca 9F       		.byte	0x9f
ARM GAS  C:\Users\jsyoon\AppData\Local\Temp\ccHEUWmT.s 			page 128


 7211 01cb 00000000 		.4byte	0
 7212 01cf 00000000 		.4byte	0
 7213              	.LLST11:
 7214 01d3 00000000 		.4byte	.LVL36
 7215 01d7 2E000000 		.4byte	.LVL45
 7216 01db 0100     		.2byte	0x1
 7217 01dd 50       		.byte	0x50
 7218 01de 2E000000 		.4byte	.LVL45
 7219 01e2 76000000 		.4byte	.LVL63
 7220 01e6 0400     		.2byte	0x4
 7221 01e8 F3       		.byte	0xf3
 7222 01e9 01       		.uleb128 0x1
 7223 01ea 50       		.byte	0x50
 7224 01eb 9F       		.byte	0x9f
 7225 01ec 76000000 		.4byte	.LVL63
 7226 01f0 84000000 		.4byte	.LVL64
 7227 01f4 0100     		.2byte	0x1
 7228 01f6 50       		.byte	0x50
 7229 01f7 84000000 		.4byte	.LVL64
 7230 01fb C2000000 		.4byte	.LVL68
 7231 01ff 0400     		.2byte	0x4
 7232 0201 F3       		.byte	0xf3
 7233 0202 01       		.uleb128 0x1
 7234 0203 50       		.byte	0x50
 7235 0204 9F       		.byte	0x9f
 7236 0205 C2000000 		.4byte	.LVL68
 7237 0209 CE000000 		.4byte	.LVL69
 7238 020d 0100     		.2byte	0x1
 7239 020f 50       		.byte	0x50
 7240 0210 CE000000 		.4byte	.LVL69
 7241 0214 EC000000 		.4byte	.LFE120
 7242 0218 0400     		.2byte	0x4
 7243 021a F3       		.byte	0xf3
 7244 021b 01       		.uleb128 0x1
 7245 021c 50       		.byte	0x50
 7246 021d 9F       		.byte	0x9f
 7247 021e 00000000 		.4byte	0
 7248 0222 00000000 		.4byte	0
 7249              	.LLST12:
 7250 0226 00000000 		.4byte	.LVL36
 7251 022a 58000000 		.4byte	.LVL54
 7252 022e 0100     		.2byte	0x1
 7253 0230 51       		.byte	0x51
 7254 0231 58000000 		.4byte	.LVL54
 7255 0235 76000000 		.4byte	.LVL63
 7256 0239 0400     		.2byte	0x4
 7257 023b F3       		.byte	0xf3
 7258 023c 01       		.uleb128 0x1
 7259 023d 51       		.byte	0x51
 7260 023e 9F       		.byte	0x9f
 7261 023f 76000000 		.4byte	.LVL63
 7262 0243 90000000 		.4byte	.LVL65
 7263 0247 0100     		.2byte	0x1
 7264 0249 51       		.byte	0x51
 7265 024a 90000000 		.4byte	.LVL65
 7266 024e C2000000 		.4byte	.LVL68
 7267 0252 0400     		.2byte	0x4
ARM GAS  C:\Users\jsyoon\AppData\Local\Temp\ccHEUWmT.s 			page 129


 7268 0254 F3       		.byte	0xf3
 7269 0255 01       		.uleb128 0x1
 7270 0256 51       		.byte	0x51
 7271 0257 9F       		.byte	0x9f
 7272 0258 C2000000 		.4byte	.LVL68
 7273 025c CE000000 		.4byte	.LVL69
 7274 0260 0100     		.2byte	0x1
 7275 0262 51       		.byte	0x51
 7276 0263 CE000000 		.4byte	.LVL69
 7277 0267 E2000000 		.4byte	.LVL72
 7278 026b 0400     		.2byte	0x4
 7279 026d F3       		.byte	0xf3
 7280 026e 01       		.uleb128 0x1
 7281 026f 51       		.byte	0x51
 7282 0270 9F       		.byte	0x9f
 7283 0271 E2000000 		.4byte	.LVL72
 7284 0275 EC000000 		.4byte	.LFE120
 7285 0279 0100     		.2byte	0x1
 7286 027b 51       		.byte	0x51
 7287 027c 00000000 		.4byte	0
 7288 0280 00000000 		.4byte	0
 7289              	.LLST13:
 7290 0284 00000000 		.4byte	.LVL36
 7291 0288 74000000 		.4byte	.LVL62
 7292 028c 0200     		.2byte	0x2
 7293 028e 30       		.byte	0x30
 7294 028f 9F       		.byte	0x9f
 7295 0290 74000000 		.4byte	.LVL62
 7296 0294 76000000 		.4byte	.LVL63
 7297 0298 0100     		.2byte	0x1
 7298 029a 55       		.byte	0x55
 7299 029b 76000000 		.4byte	.LVL63
 7300 029f 90000000 		.4byte	.LVL65
 7301 02a3 0200     		.2byte	0x2
 7302 02a5 30       		.byte	0x30
 7303 02a6 9F       		.byte	0x9f
 7304 02a7 90000000 		.4byte	.LVL65
 7305 02ab C2000000 		.4byte	.LVL68
 7306 02af 0100     		.2byte	0x1
 7307 02b1 55       		.byte	0x55
 7308 02b2 C2000000 		.4byte	.LVL68
 7309 02b6 CE000000 		.4byte	.LVL69
 7310 02ba 0200     		.2byte	0x2
 7311 02bc 30       		.byte	0x30
 7312 02bd 9F       		.byte	0x9f
 7313 02be CE000000 		.4byte	.LVL69
 7314 02c2 E2000000 		.4byte	.LVL72
 7315 02c6 0100     		.2byte	0x1
 7316 02c8 55       		.byte	0x55
 7317 02c9 E2000000 		.4byte	.LVL72
 7318 02cd EC000000 		.4byte	.LFE120
 7319 02d1 0200     		.2byte	0x2
 7320 02d3 30       		.byte	0x30
 7321 02d4 9F       		.byte	0x9f
 7322 02d5 00000000 		.4byte	0
 7323 02d9 00000000 		.4byte	0
 7324              	.LLST14:
ARM GAS  C:\Users\jsyoon\AppData\Local\Temp\ccHEUWmT.s 			page 130


 7325 02dd 00000000 		.4byte	.LVL36
 7326 02e1 BA000000 		.4byte	.LVL67
 7327 02e5 0200     		.2byte	0x2
 7328 02e7 30       		.byte	0x30
 7329 02e8 9F       		.byte	0x9f
 7330 02e9 BA000000 		.4byte	.LVL67
 7331 02ed C2000000 		.4byte	.LVL68
 7332 02f1 0100     		.2byte	0x1
 7333 02f3 50       		.byte	0x50
 7334 02f4 C2000000 		.4byte	.LVL68
 7335 02f8 DE000000 		.4byte	.LVL71
 7336 02fc 0200     		.2byte	0x2
 7337 02fe 30       		.byte	0x30
 7338 02ff 9F       		.byte	0x9f
 7339 0300 DE000000 		.4byte	.LVL71
 7340 0304 E2000000 		.4byte	.LVL72
 7341 0308 0100     		.2byte	0x1
 7342 030a 50       		.byte	0x50
 7343 030b E2000000 		.4byte	.LVL72
 7344 030f EC000000 		.4byte	.LFE120
 7345 0313 0200     		.2byte	0x2
 7346 0315 30       		.byte	0x30
 7347 0316 9F       		.byte	0x9f
 7348 0317 00000000 		.4byte	0
 7349 031b 00000000 		.4byte	0
 7350              	.LLST15:
 7351 031f 14000000 		.4byte	.LVL37
 7352 0323 1C000000 		.4byte	.LVL38
 7353 0327 0200     		.2byte	0x2
 7354 0329 71       		.byte	0x71
 7355 032a 00       		.sleb128 0
 7356 032b 1C000000 		.4byte	.LVL38
 7357 032f 1E000000 		.4byte	.LVL39
 7358 0333 0100     		.2byte	0x1
 7359 0335 53       		.byte	0x53
 7360 0336 1E000000 		.4byte	.LVL39
 7361 033a 20000000 		.4byte	.LVL40
 7362 033e 0300     		.2byte	0x3
 7363 0340 73       		.byte	0x73
 7364 0341 0A       		.sleb128 10
 7365 0342 9F       		.byte	0x9f
 7366 0343 26000000 		.4byte	.LVL42
 7367 0347 2C000000 		.4byte	.LVL44
 7368 034b 0100     		.2byte	0x1
 7369 034d 53       		.byte	0x53
 7370 034e 00000000 		.4byte	0
 7371 0352 00000000 		.4byte	0
 7372              	.LLST16:
 7373 0356 14000000 		.4byte	.LVL37
 7374 035a 1C000000 		.4byte	.LVL38
 7375 035e 0200     		.2byte	0x2
 7376 0360 30       		.byte	0x30
 7377 0361 9F       		.byte	0x9f
 7378 0362 1C000000 		.4byte	.LVL38
 7379 0366 22000000 		.4byte	.LVL41
 7380 036a 0100     		.2byte	0x1
 7381 036c 52       		.byte	0x52
ARM GAS  C:\Users\jsyoon\AppData\Local\Temp\ccHEUWmT.s 			page 131


 7382 036d 22000000 		.4byte	.LVL41
 7383 0371 26000000 		.4byte	.LVL42
 7384 0375 0300     		.2byte	0x3
 7385 0377 72       		.byte	0x72
 7386 0378 7F       		.sleb128 -1
 7387 0379 9F       		.byte	0x9f
 7388 037a 26000000 		.4byte	.LVL42
 7389 037e 2A000000 		.4byte	.LVL43
 7390 0382 0100     		.2byte	0x1
 7391 0384 52       		.byte	0x52
 7392 0385 00000000 		.4byte	0
 7393 0389 00000000 		.4byte	0
 7394              	.LLST17:
 7395 038d 2E000000 		.4byte	.LVL45
 7396 0391 3A000000 		.4byte	.LVL46
 7397 0395 0200     		.2byte	0x2
 7398 0397 71       		.byte	0x71
 7399 0398 01       		.sleb128 1
 7400 0399 3A000000 		.4byte	.LVL46
 7401 039d 3C000000 		.4byte	.LVL47
 7402 03a1 0100     		.2byte	0x1
 7403 03a3 50       		.byte	0x50
 7404 03a4 3C000000 		.4byte	.LVL47
 7405 03a8 3E000000 		.4byte	.LVL48
 7406 03ac 0300     		.2byte	0x3
 7407 03ae 70       		.byte	0x70
 7408 03af 0A       		.sleb128 10
 7409 03b0 9F       		.byte	0x9f
 7410 03b1 44000000 		.4byte	.LVL50
 7411 03b5 4A000000 		.4byte	.LVL52
 7412 03b9 0100     		.2byte	0x1
 7413 03bb 50       		.byte	0x50
 7414 03bc E2000000 		.4byte	.LVL72
 7415 03c0 EC000000 		.4byte	.LFE120
 7416 03c4 0200     		.2byte	0x2
 7417 03c6 71       		.byte	0x71
 7418 03c7 01       		.sleb128 1
 7419 03c8 00000000 		.4byte	0
 7420 03cc 00000000 		.4byte	0
 7421              	.LLST18:
 7422 03d0 2E000000 		.4byte	.LVL45
 7423 03d4 3A000000 		.4byte	.LVL46
 7424 03d8 0200     		.2byte	0x2
 7425 03da 30       		.byte	0x30
 7426 03db 9F       		.byte	0x9f
 7427 03dc 3A000000 		.4byte	.LVL46
 7428 03e0 40000000 		.4byte	.LVL49
 7429 03e4 0100     		.2byte	0x1
 7430 03e6 52       		.byte	0x52
 7431 03e7 40000000 		.4byte	.LVL49
 7432 03eb 44000000 		.4byte	.LVL50
 7433 03ef 0300     		.2byte	0x3
 7434 03f1 72       		.byte	0x72
 7435 03f2 7F       		.sleb128 -1
 7436 03f3 9F       		.byte	0x9f
 7437 03f4 44000000 		.4byte	.LVL50
 7438 03f8 48000000 		.4byte	.LVL51
ARM GAS  C:\Users\jsyoon\AppData\Local\Temp\ccHEUWmT.s 			page 132


 7439 03fc 0100     		.2byte	0x1
 7440 03fe 52       		.byte	0x52
 7441 03ff E2000000 		.4byte	.LVL72
 7442 0403 EC000000 		.4byte	.LFE120
 7443 0407 0200     		.2byte	0x2
 7444 0409 30       		.byte	0x30
 7445 040a 9F       		.byte	0x9f
 7446 040b 00000000 		.4byte	0
 7447 040f 00000000 		.4byte	0
 7448              	.LLST19:
 7449 0413 4C000000 		.4byte	.LVL53
 7450 0417 58000000 		.4byte	.LVL54
 7451 041b 0200     		.2byte	0x2
 7452 041d 71       		.byte	0x71
 7453 041e 02       		.sleb128 2
 7454 041f 58000000 		.4byte	.LVL54
 7455 0423 5C000000 		.4byte	.LVL56
 7456 0427 0100     		.2byte	0x1
 7457 0429 52       		.byte	0x52
 7458 042a 5C000000 		.4byte	.LVL56
 7459 042e 5E000000 		.4byte	.LVL57
 7460 0432 0300     		.2byte	0x3
 7461 0434 72       		.byte	0x72
 7462 0435 0A       		.sleb128 10
 7463 0436 9F       		.byte	0x9f
 7464 0437 64000000 		.4byte	.LVL59
 7465 043b 6A000000 		.4byte	.LVL61
 7466 043f 0100     		.2byte	0x1
 7467 0441 52       		.byte	0x52
 7468 0442 00000000 		.4byte	0
 7469 0446 00000000 		.4byte	0
 7470              	.LLST20:
 7471 044a 4C000000 		.4byte	.LVL53
 7472 044e 5A000000 		.4byte	.LVL55
 7473 0452 0200     		.2byte	0x2
 7474 0454 30       		.byte	0x30
 7475 0455 9F       		.byte	0x9f
 7476 0456 5A000000 		.4byte	.LVL55
 7477 045a 60000000 		.4byte	.LVL58
 7478 045e 0100     		.2byte	0x1
 7479 0460 51       		.byte	0x51
 7480 0461 60000000 		.4byte	.LVL58
 7481 0465 64000000 		.4byte	.LVL59
 7482 0469 0300     		.2byte	0x3
 7483 046b 71       		.byte	0x71
 7484 046c 7F       		.sleb128 -1
 7485 046d 9F       		.byte	0x9f
 7486 046e 64000000 		.4byte	.LVL59
 7487 0472 68000000 		.4byte	.LVL60
 7488 0476 0100     		.2byte	0x1
 7489 0478 51       		.byte	0x51
 7490 0479 00000000 		.4byte	0
 7491 047d 00000000 		.4byte	0
 7492              	.LLST21:
 7493 0481 00000000 		.4byte	.LVL74
 7494 0485 28000000 		.4byte	.LVL78
 7495 0489 0100     		.2byte	0x1
ARM GAS  C:\Users\jsyoon\AppData\Local\Temp\ccHEUWmT.s 			page 133


 7496 048b 50       		.byte	0x50
 7497 048c 28000000 		.4byte	.LVL78
 7498 0490 5C000000 		.4byte	.LFE122
 7499 0494 0400     		.2byte	0x4
 7500 0496 F3       		.byte	0xf3
 7501 0497 01       		.uleb128 0x1
 7502 0498 50       		.byte	0x50
 7503 0499 9F       		.byte	0x9f
 7504 049a 00000000 		.4byte	0
 7505 049e 00000000 		.4byte	0
 7506              	.LLST22:
 7507 04a2 00000000 		.4byte	.LVL74
 7508 04a6 04000000 		.4byte	.LVL75
 7509 04aa 0200     		.2byte	0x2
 7510 04ac 30       		.byte	0x30
 7511 04ad 9F       		.byte	0x9f
 7512 04ae 04000000 		.4byte	.LVL75
 7513 04b2 18000000 		.4byte	.LVL76
 7514 04b6 0900     		.2byte	0x9
 7515 04b8 73       		.byte	0x73
 7516 04b9 00       		.sleb128 0
 7517 04ba 0C       		.byte	0xc
 7518 04bb 7F7F7F00 		.4byte	0x7f7f7f
 7519 04bf 1A       		.byte	0x1a
 7520 04c0 9F       		.byte	0x9f
 7521 04c1 00000000 		.4byte	0
 7522 04c5 00000000 		.4byte	0
 7523              	.LLST23:
 7524 04c9 22000000 		.4byte	.LVL77
 7525 04cd 38000000 		.4byte	.LVL79
 7526 04d1 0100     		.2byte	0x1
 7527 04d3 52       		.byte	0x52
 7528 04d4 00000000 		.4byte	0
 7529 04d8 00000000 		.4byte	0
 7530              	.LLST24:
 7531 04dc 22000000 		.4byte	.LVL77
 7532 04e0 38000000 		.4byte	.LVL79
 7533 04e4 0700     		.2byte	0x7
 7534 04e6 72       		.byte	0x72
 7535 04e7 00       		.sleb128 0
 7536 04e8 34       		.byte	0x34
 7537 04e9 25       		.byte	0x25
 7538 04ea 3A       		.byte	0x3a
 7539 04eb 1E       		.byte	0x1e
 7540 04ec 9F       		.byte	0x9f
 7541 04ed 00000000 		.4byte	0
 7542 04f1 00000000 		.4byte	0
 7543              	.LLST25:
 7544 04f5 00000000 		.4byte	.LVL82
 7545 04f9 04000000 		.4byte	.LVL83
 7546 04fd 0200     		.2byte	0x2
 7547 04ff 30       		.byte	0x30
 7548 0500 9F       		.byte	0x9f
 7549 0501 04000000 		.4byte	.LVL83
 7550 0505 0C000000 		.4byte	.LFE123
 7551 0509 0100     		.2byte	0x1
 7552 050b 50       		.byte	0x50
ARM GAS  C:\Users\jsyoon\AppData\Local\Temp\ccHEUWmT.s 			page 134


 7553 050c 00000000 		.4byte	0
 7554 0510 00000000 		.4byte	0
 7555              	.LLST26:
 7556 0514 00000000 		.4byte	.LVL84
 7557 0518 0A000000 		.4byte	.LVL85
 7558 051c 0100     		.2byte	0x1
 7559 051e 50       		.byte	0x50
 7560 051f 0A000000 		.4byte	.LVL85
 7561 0523 7A000000 		.4byte	.LVL111
 7562 0527 0400     		.2byte	0x4
 7563 0529 F3       		.byte	0xf3
 7564 052a 01       		.uleb128 0x1
 7565 052b 50       		.byte	0x50
 7566 052c 9F       		.byte	0x9f
 7567 052d 7A000000 		.4byte	.LVL111
 7568 0531 82000000 		.4byte	.LVL112
 7569 0535 0100     		.2byte	0x1
 7570 0537 50       		.byte	0x50
 7571 0538 82000000 		.4byte	.LVL112
 7572 053c DC000000 		.4byte	.LFE124
 7573 0540 0400     		.2byte	0x4
 7574 0542 F3       		.byte	0xf3
 7575 0543 01       		.uleb128 0x1
 7576 0544 50       		.byte	0x50
 7577 0545 9F       		.byte	0x9f
 7578 0546 00000000 		.4byte	0
 7579 054a 00000000 		.4byte	0
 7580              	.LLST27:
 7581 054e 00000000 		.4byte	.LVL84
 7582 0552 9B000000 		.4byte	.LVL114-1
 7583 0556 0100     		.2byte	0x1
 7584 0558 51       		.byte	0x51
 7585 0559 9B000000 		.4byte	.LVL114-1
 7586 055d D4000000 		.4byte	.LVL119
 7587 0561 0400     		.2byte	0x4
 7588 0563 F3       		.byte	0xf3
 7589 0564 01       		.uleb128 0x1
 7590 0565 51       		.byte	0x51
 7591 0566 9F       		.byte	0x9f
 7592 0567 D4000000 		.4byte	.LVL119
 7593 056b DC000000 		.4byte	.LFE124
 7594 056f 0100     		.2byte	0x1
 7595 0571 51       		.byte	0x51
 7596 0572 00000000 		.4byte	0
 7597 0576 00000000 		.4byte	0
 7598              	.LLST28:
 7599 057a 00000000 		.4byte	.LVL84
 7600 057e 78000000 		.4byte	.LVL110
 7601 0582 0200     		.2byte	0x2
 7602 0584 30       		.byte	0x30
 7603 0585 9F       		.byte	0x9f
 7604 0586 78000000 		.4byte	.LVL110
 7605 058a 7A000000 		.4byte	.LVL111
 7606 058e 0100     		.2byte	0x1
 7607 0590 55       		.byte	0x55
 7608 0591 7A000000 		.4byte	.LVL111
 7609 0595 8E000000 		.4byte	.LVL113
ARM GAS  C:\Users\jsyoon\AppData\Local\Temp\ccHEUWmT.s 			page 135


 7610 0599 0200     		.2byte	0x2
 7611 059b 30       		.byte	0x30
 7612 059c 9F       		.byte	0x9f
 7613 059d 8E000000 		.4byte	.LVL113
 7614 05a1 D4000000 		.4byte	.LVL119
 7615 05a5 0100     		.2byte	0x1
 7616 05a7 55       		.byte	0x55
 7617 05a8 D4000000 		.4byte	.LVL119
 7618 05ac DC000000 		.4byte	.LFE124
 7619 05b0 0200     		.2byte	0x2
 7620 05b2 30       		.byte	0x30
 7621 05b3 9F       		.byte	0x9f
 7622 05b4 00000000 		.4byte	0
 7623 05b8 00000000 		.4byte	0
 7624              	.LLST29:
 7625 05bc 00000000 		.4byte	.LVL84
 7626 05c0 B8000000 		.4byte	.LVL115
 7627 05c4 0200     		.2byte	0x2
 7628 05c6 30       		.byte	0x30
 7629 05c7 9F       		.byte	0x9f
 7630 05c8 B8000000 		.4byte	.LVL115
 7631 05cc C0000000 		.4byte	.LVL116
 7632 05d0 0100     		.2byte	0x1
 7633 05d2 50       		.byte	0x50
 7634 05d3 C0000000 		.4byte	.LVL116
 7635 05d7 D0000000 		.4byte	.LVL118
 7636 05db 0200     		.2byte	0x2
 7637 05dd 30       		.byte	0x30
 7638 05de 9F       		.byte	0x9f
 7639 05df D0000000 		.4byte	.LVL118
 7640 05e3 D4000000 		.4byte	.LVL119
 7641 05e7 0100     		.2byte	0x1
 7642 05e9 50       		.byte	0x50
 7643 05ea D4000000 		.4byte	.LVL119
 7644 05ee DC000000 		.4byte	.LFE124
 7645 05f2 0200     		.2byte	0x2
 7646 05f4 30       		.byte	0x30
 7647 05f5 9F       		.byte	0x9f
 7648 05f6 00000000 		.4byte	0
 7649 05fa 00000000 		.4byte	0
 7650              	.LLST30:
 7651 05fe 18000000 		.4byte	.LVL86
 7652 0602 20000000 		.4byte	.LVL87
 7653 0606 0200     		.2byte	0x2
 7654 0608 71       		.byte	0x71
 7655 0609 03       		.sleb128 3
 7656 060a 20000000 		.4byte	.LVL87
 7657 060e 22000000 		.4byte	.LVL88
 7658 0612 0100     		.2byte	0x1
 7659 0614 53       		.byte	0x53
 7660 0615 22000000 		.4byte	.LVL88
 7661 0619 24000000 		.4byte	.LVL89
 7662 061d 0300     		.2byte	0x3
 7663 061f 73       		.byte	0x73
 7664 0620 0A       		.sleb128 10
 7665 0621 9F       		.byte	0x9f
 7666 0622 2A000000 		.4byte	.LVL91
ARM GAS  C:\Users\jsyoon\AppData\Local\Temp\ccHEUWmT.s 			page 136


 7667 0626 30000000 		.4byte	.LVL93
 7668 062a 0100     		.2byte	0x1
 7669 062c 53       		.byte	0x53
 7670 062d 00000000 		.4byte	0
 7671 0631 00000000 		.4byte	0
 7672              	.LLST31:
 7673 0635 18000000 		.4byte	.LVL86
 7674 0639 20000000 		.4byte	.LVL87
 7675 063d 0200     		.2byte	0x2
 7676 063f 30       		.byte	0x30
 7677 0640 9F       		.byte	0x9f
 7678 0641 20000000 		.4byte	.LVL87
 7679 0645 26000000 		.4byte	.LVL90
 7680 0649 0100     		.2byte	0x1
 7681 064b 50       		.byte	0x50
 7682 064c 26000000 		.4byte	.LVL90
 7683 0650 2A000000 		.4byte	.LVL91
 7684 0654 0300     		.2byte	0x3
 7685 0656 70       		.byte	0x70
 7686 0657 7F       		.sleb128 -1
 7687 0658 9F       		.byte	0x9f
 7688 0659 2A000000 		.4byte	.LVL91
 7689 065d 2E000000 		.4byte	.LVL92
 7690 0661 0100     		.2byte	0x1
 7691 0663 50       		.byte	0x50
 7692 0664 00000000 		.4byte	0
 7693 0668 00000000 		.4byte	0
 7694              	.LLST32:
 7695 066c 38000000 		.4byte	.LVL94
 7696 0670 3E000000 		.4byte	.LVL96
 7697 0674 0100     		.2byte	0x1
 7698 0676 52       		.byte	0x52
 7699 0677 3E000000 		.4byte	.LVL96
 7700 067b 40000000 		.4byte	.LVL97
 7701 067f 0300     		.2byte	0x3
 7702 0681 72       		.byte	0x72
 7703 0682 0A       		.sleb128 10
 7704 0683 9F       		.byte	0x9f
 7705 0684 46000000 		.4byte	.LVL99
 7706 0688 4C000000 		.4byte	.LVL101
 7707 068c 0100     		.2byte	0x1
 7708 068e 52       		.byte	0x52
 7709 068f D4000000 		.4byte	.LVL119
 7710 0693 DC000000 		.4byte	.LFE124
 7711 0697 0100     		.2byte	0x1
 7712 0699 52       		.byte	0x52
 7713 069a 00000000 		.4byte	0
 7714 069e 00000000 		.4byte	0
 7715              	.LLST33:
 7716 06a2 38000000 		.4byte	.LVL94
 7717 06a6 3C000000 		.4byte	.LVL95
 7718 06aa 0200     		.2byte	0x2
 7719 06ac 30       		.byte	0x30
 7720 06ad 9F       		.byte	0x9f
 7721 06ae 3C000000 		.4byte	.LVL95
 7722 06b2 42000000 		.4byte	.LVL98
 7723 06b6 0100     		.2byte	0x1
ARM GAS  C:\Users\jsyoon\AppData\Local\Temp\ccHEUWmT.s 			page 137


 7724 06b8 50       		.byte	0x50
 7725 06b9 42000000 		.4byte	.LVL98
 7726 06bd 46000000 		.4byte	.LVL99
 7727 06c1 0300     		.2byte	0x3
 7728 06c3 70       		.byte	0x70
 7729 06c4 7F       		.sleb128 -1
 7730 06c5 9F       		.byte	0x9f
 7731 06c6 46000000 		.4byte	.LVL99
 7732 06ca 4A000000 		.4byte	.LVL100
 7733 06ce 0100     		.2byte	0x1
 7734 06d0 50       		.byte	0x50
 7735 06d1 D4000000 		.4byte	.LVL119
 7736 06d5 DC000000 		.4byte	.LFE124
 7737 06d9 0200     		.2byte	0x2
 7738 06db 30       		.byte	0x30
 7739 06dc 9F       		.byte	0x9f
 7740 06dd 00000000 		.4byte	0
 7741 06e1 00000000 		.4byte	0
 7742              	.LLST34:
 7743 06e5 4E000000 		.4byte	.LVL102
 7744 06e9 5C000000 		.4byte	.LVL103
 7745 06ed 0200     		.2byte	0x2
 7746 06ef 71       		.byte	0x71
 7747 06f0 02       		.sleb128 2
 7748 06f1 5C000000 		.4byte	.LVL103
 7749 06f5 5E000000 		.4byte	.LVL104
 7750 06f9 0100     		.2byte	0x1
 7751 06fb 50       		.byte	0x50
 7752 06fc 5E000000 		.4byte	.LVL104
 7753 0700 60000000 		.4byte	.LVL105
 7754 0704 0300     		.2byte	0x3
 7755 0706 70       		.byte	0x70
 7756 0707 0A       		.sleb128 10
 7757 0708 9F       		.byte	0x9f
 7758 0709 66000000 		.4byte	.LVL107
 7759 070d 6C000000 		.4byte	.LVL109
 7760 0711 0100     		.2byte	0x1
 7761 0713 50       		.byte	0x50
 7762 0714 00000000 		.4byte	0
 7763 0718 00000000 		.4byte	0
 7764              	.LLST35:
 7765 071c 4E000000 		.4byte	.LVL102
 7766 0720 5C000000 		.4byte	.LVL103
 7767 0724 0200     		.2byte	0x2
 7768 0726 30       		.byte	0x30
 7769 0727 9F       		.byte	0x9f
 7770 0728 5C000000 		.4byte	.LVL103
 7771 072c 62000000 		.4byte	.LVL106
 7772 0730 0100     		.2byte	0x1
 7773 0732 54       		.byte	0x54
 7774 0733 62000000 		.4byte	.LVL106
 7775 0737 66000000 		.4byte	.LVL107
 7776 073b 0300     		.2byte	0x3
 7777 073d 74       		.byte	0x74
 7778 073e 7F       		.sleb128 -1
 7779 073f 9F       		.byte	0x9f
 7780 0740 66000000 		.4byte	.LVL107
ARM GAS  C:\Users\jsyoon\AppData\Local\Temp\ccHEUWmT.s 			page 138


 7781 0744 6A000000 		.4byte	.LVL108
 7782 0748 0100     		.2byte	0x1
 7783 074a 54       		.byte	0x54
 7784 074b 00000000 		.4byte	0
 7785 074f 00000000 		.4byte	0
 7786              	.LLST36:
 7787 0753 00000000 		.4byte	.LVL121
 7788 0757 26000000 		.4byte	.LVL125
 7789 075b 0100     		.2byte	0x1
 7790 075d 50       		.byte	0x50
 7791 075e 26000000 		.4byte	.LVL125
 7792 0762 58000000 		.4byte	.LFE126
 7793 0766 0400     		.2byte	0x4
 7794 0768 F3       		.byte	0xf3
 7795 0769 01       		.uleb128 0x1
 7796 076a 50       		.byte	0x50
 7797 076b 9F       		.byte	0x9f
 7798 076c 00000000 		.4byte	0
 7799 0770 00000000 		.4byte	0
 7800              	.LLST37:
 7801 0774 00000000 		.4byte	.LVL121
 7802 0778 04000000 		.4byte	.LVL122
 7803 077c 0200     		.2byte	0x2
 7804 077e 30       		.byte	0x30
 7805 077f 9F       		.byte	0x9f
 7806 0780 04000000 		.4byte	.LVL122
 7807 0784 16000000 		.4byte	.LVL123
 7808 0788 0900     		.2byte	0x9
 7809 078a 73       		.byte	0x73
 7810 078b 00       		.sleb128 0
 7811 078c 0C       		.byte	0xc
 7812 078d 3FFFFF00 		.4byte	0xffff3f
 7813 0791 1A       		.byte	0x1a
 7814 0792 9F       		.byte	0x9f
 7815 0793 00000000 		.4byte	0
 7816 0797 00000000 		.4byte	0
 7817              	.LLST38:
 7818 079b 20000000 		.4byte	.LVL124
 7819 079f 3E000000 		.4byte	.LVL126
 7820 07a3 0100     		.2byte	0x1
 7821 07a5 52       		.byte	0x52
 7822 07a6 00000000 		.4byte	0
 7823 07aa 00000000 		.4byte	0
 7824              	.LLST39:
 7825 07ae 20000000 		.4byte	.LVL124
 7826 07b2 3E000000 		.4byte	.LVL126
 7827 07b6 0700     		.2byte	0x7
 7828 07b8 72       		.byte	0x72
 7829 07b9 00       		.sleb128 0
 7830 07ba 34       		.byte	0x34
 7831 07bb 25       		.byte	0x25
 7832 07bc 3A       		.byte	0x3a
 7833 07bd 1E       		.byte	0x1e
 7834 07be 9F       		.byte	0x9f
 7835 07bf 00000000 		.4byte	0
 7836 07c3 00000000 		.4byte	0
 7837              	.LLST40:
ARM GAS  C:\Users\jsyoon\AppData\Local\Temp\ccHEUWmT.s 			page 139


 7838 07c7 00000000 		.4byte	.LVL128
 7839 07cb 1A000000 		.4byte	.LVL130
 7840 07cf 0100     		.2byte	0x1
 7841 07d1 50       		.byte	0x50
 7842 07d2 1A000000 		.4byte	.LVL130
 7843 07d6 A0000000 		.4byte	.LVL163
 7844 07da 0400     		.2byte	0x4
 7845 07dc F3       		.byte	0xf3
 7846 07dd 01       		.uleb128 0x1
 7847 07de 50       		.byte	0x50
 7848 07df 9F       		.byte	0x9f
 7849 07e0 A0000000 		.4byte	.LVL163
 7850 07e4 AE000000 		.4byte	.LVL164
 7851 07e8 0100     		.2byte	0x1
 7852 07ea 50       		.byte	0x50
 7853 07eb AE000000 		.4byte	.LVL164
 7854 07ef E6000000 		.4byte	.LVL167
 7855 07f3 0400     		.2byte	0x4
 7856 07f5 F3       		.byte	0xf3
 7857 07f6 01       		.uleb128 0x1
 7858 07f7 50       		.byte	0x50
 7859 07f8 9F       		.byte	0x9f
 7860 07f9 E6000000 		.4byte	.LVL167
 7861 07fd F6000000 		.4byte	.LVL169
 7862 0801 0100     		.2byte	0x1
 7863 0803 50       		.byte	0x50
 7864 0804 F6000000 		.4byte	.LVL169
 7865 0808 00010000 		.4byte	.LFE127
 7866 080c 0400     		.2byte	0x4
 7867 080e F3       		.byte	0xf3
 7868 080f 01       		.uleb128 0x1
 7869 0810 50       		.byte	0x50
 7870 0811 9F       		.byte	0x9f
 7871 0812 00000000 		.4byte	0
 7872 0816 00000000 		.4byte	0
 7873              	.LLST41:
 7874 081a 00000000 		.4byte	.LVL128
 7875 081e 8C000000 		.4byte	.LVL161
 7876 0822 0100     		.2byte	0x1
 7877 0824 52       		.byte	0x52
 7878 0825 8C000000 		.4byte	.LVL161
 7879 0829 A0000000 		.4byte	.LVL163
 7880 082d 0400     		.2byte	0x4
 7881 082f F3       		.byte	0xf3
 7882 0830 01       		.uleb128 0x1
 7883 0831 52       		.byte	0x52
 7884 0832 9F       		.byte	0x9f
 7885 0833 A0000000 		.4byte	.LVL163
 7886 0837 B6000000 		.4byte	.LVL165
 7887 083b 0100     		.2byte	0x1
 7888 083d 52       		.byte	0x52
 7889 083e B6000000 		.4byte	.LVL165
 7890 0842 E6000000 		.4byte	.LVL167
 7891 0846 0400     		.2byte	0x4
 7892 0848 F3       		.byte	0xf3
 7893 0849 01       		.uleb128 0x1
 7894 084a 52       		.byte	0x52
ARM GAS  C:\Users\jsyoon\AppData\Local\Temp\ccHEUWmT.s 			page 140


 7895 084b 9F       		.byte	0x9f
 7896 084c E6000000 		.4byte	.LVL167
 7897 0850 00010000 		.4byte	.LFE127
 7898 0854 0100     		.2byte	0x1
 7899 0856 52       		.byte	0x52
 7900 0857 00000000 		.4byte	0
 7901 085b 00000000 		.4byte	0
 7902              	.LLST42:
 7903 085f 00000000 		.4byte	.LVL128
 7904 0863 9E000000 		.4byte	.LVL162
 7905 0867 0200     		.2byte	0x2
 7906 0869 30       		.byte	0x30
 7907 086a 9F       		.byte	0x9f
 7908 086b 9E000000 		.4byte	.LVL162
 7909 086f A0000000 		.4byte	.LVL163
 7910 0873 0100     		.2byte	0x1
 7911 0875 50       		.byte	0x50
 7912 0876 A0000000 		.4byte	.LVL163
 7913 087a C8000000 		.4byte	.LVL166
 7914 087e 0200     		.2byte	0x2
 7915 0880 30       		.byte	0x30
 7916 0881 9F       		.byte	0x9f
 7917 0882 C8000000 		.4byte	.LVL166
 7918 0886 E6000000 		.4byte	.LVL167
 7919 088a 0100     		.2byte	0x1
 7920 088c 50       		.byte	0x50
 7921 088d E6000000 		.4byte	.LVL167
 7922 0891 00010000 		.4byte	.LFE127
 7923 0895 0200     		.2byte	0x2
 7924 0897 30       		.byte	0x30
 7925 0898 9F       		.byte	0x9f
 7926 0899 00000000 		.4byte	0
 7927 089d 00000000 		.4byte	0
 7928              	.LLST43:
 7929 08a1 14000000 		.4byte	.LVL129
 7930 08a5 1A000000 		.4byte	.LVL130
 7931 08a9 0200     		.2byte	0x2
 7932 08ab 72       		.byte	0x72
 7933 08ac 00       		.sleb128 0
 7934 08ad 1A000000 		.4byte	.LVL130
 7935 08b1 1C000000 		.4byte	.LVL131
 7936 08b5 0100     		.2byte	0x1
 7937 08b7 53       		.byte	0x53
 7938 08b8 1C000000 		.4byte	.LVL131
 7939 08bc 1E000000 		.4byte	.LVL132
 7940 08c0 0300     		.2byte	0x3
 7941 08c2 73       		.byte	0x73
 7942 08c3 0A       		.sleb128 10
 7943 08c4 9F       		.byte	0x9f
 7944 08c5 24000000 		.4byte	.LVL134
 7945 08c9 2A000000 		.4byte	.LVL136
 7946 08cd 0100     		.2byte	0x1
 7947 08cf 53       		.byte	0x53
 7948 08d0 F2000000 		.4byte	.LVL168
 7949 08d4 F6000000 		.4byte	.LVL169
 7950 08d8 0200     		.2byte	0x2
 7951 08da 72       		.byte	0x72
ARM GAS  C:\Users\jsyoon\AppData\Local\Temp\ccHEUWmT.s 			page 141


 7952 08db 00       		.sleb128 0
 7953 08dc 00000000 		.4byte	0
 7954 08e0 00000000 		.4byte	0
 7955              	.LLST44:
 7956 08e4 14000000 		.4byte	.LVL129
 7957 08e8 1A000000 		.4byte	.LVL130
 7958 08ec 0200     		.2byte	0x2
 7959 08ee 30       		.byte	0x30
 7960 08ef 9F       		.byte	0x9f
 7961 08f0 1A000000 		.4byte	.LVL130
 7962 08f4 20000000 		.4byte	.LVL133
 7963 08f8 0100     		.2byte	0x1
 7964 08fa 50       		.byte	0x50
 7965 08fb 20000000 		.4byte	.LVL133
 7966 08ff 24000000 		.4byte	.LVL134
 7967 0903 0300     		.2byte	0x3
 7968 0905 70       		.byte	0x70
 7969 0906 7F       		.sleb128 -1
 7970 0907 9F       		.byte	0x9f
 7971 0908 24000000 		.4byte	.LVL134
 7972 090c 28000000 		.4byte	.LVL135
 7973 0910 0100     		.2byte	0x1
 7974 0912 50       		.byte	0x50
 7975 0913 F2000000 		.4byte	.LVL168
 7976 0917 F6000000 		.4byte	.LVL169
 7977 091b 0200     		.2byte	0x2
 7978 091d 30       		.byte	0x30
 7979 091e 9F       		.byte	0x9f
 7980 091f 00000000 		.4byte	0
 7981 0923 00000000 		.4byte	0
 7982              	.LLST45:
 7983 0927 2C000000 		.4byte	.LVL137
 7984 092b 38000000 		.4byte	.LVL138
 7985 092f 0200     		.2byte	0x2
 7986 0931 72       		.byte	0x72
 7987 0932 01       		.sleb128 1
 7988 0933 38000000 		.4byte	.LVL138
 7989 0937 3A000000 		.4byte	.LVL139
 7990 093b 0100     		.2byte	0x1
 7991 093d 50       		.byte	0x50
 7992 093e 3A000000 		.4byte	.LVL139
 7993 0942 3C000000 		.4byte	.LVL140
 7994 0946 0300     		.2byte	0x3
 7995 0948 70       		.byte	0x70
 7996 0949 0A       		.sleb128 10
 7997 094a 9F       		.byte	0x9f
 7998 094b 42000000 		.4byte	.LVL142
 7999 094f 48000000 		.4byte	.LVL144
 8000 0953 0100     		.2byte	0x1
 8001 0955 50       		.byte	0x50
 8002 0956 F6000000 		.4byte	.LVL169
 8003 095a 00010000 		.4byte	.LFE127
 8004 095e 0200     		.2byte	0x2
 8005 0960 72       		.byte	0x72
 8006 0961 01       		.sleb128 1
 8007 0962 00000000 		.4byte	0
 8008 0966 00000000 		.4byte	0
ARM GAS  C:\Users\jsyoon\AppData\Local\Temp\ccHEUWmT.s 			page 142


 8009              	.LLST46:
 8010 096a 2C000000 		.4byte	.LVL137
 8011 096e 38000000 		.4byte	.LVL138
 8012 0972 0200     		.2byte	0x2
 8013 0974 30       		.byte	0x30
 8014 0975 9F       		.byte	0x9f
 8015 0976 38000000 		.4byte	.LVL138
 8016 097a 3E000000 		.4byte	.LVL141
 8017 097e 0100     		.2byte	0x1
 8018 0980 54       		.byte	0x54
 8019 0981 3E000000 		.4byte	.LVL141
 8020 0985 42000000 		.4byte	.LVL142
 8021 0989 0300     		.2byte	0x3
 8022 098b 74       		.byte	0x74
 8023 098c 7F       		.sleb128 -1
 8024 098d 9F       		.byte	0x9f
 8025 098e 42000000 		.4byte	.LVL142
 8026 0992 46000000 		.4byte	.LVL143
 8027 0996 0100     		.2byte	0x1
 8028 0998 54       		.byte	0x54
 8029 0999 F6000000 		.4byte	.LVL169
 8030 099d 00010000 		.4byte	.LFE127
 8031 09a1 0200     		.2byte	0x2
 8032 09a3 30       		.byte	0x30
 8033 09a4 9F       		.byte	0x9f
 8034 09a5 00000000 		.4byte	0
 8035 09a9 00000000 		.4byte	0
 8036              	.LLST47:
 8037 09ad 4A000000 		.4byte	.LVL145
 8038 09b1 58000000 		.4byte	.LVL146
 8039 09b5 0200     		.2byte	0x2
 8040 09b7 72       		.byte	0x72
 8041 09b8 02       		.sleb128 2
 8042 09b9 58000000 		.4byte	.LVL146
 8043 09bd 5A000000 		.4byte	.LVL147
 8044 09c1 0100     		.2byte	0x1
 8045 09c3 54       		.byte	0x54
 8046 09c4 5A000000 		.4byte	.LVL147
 8047 09c8 5C000000 		.4byte	.LVL148
 8048 09cc 0300     		.2byte	0x3
 8049 09ce 74       		.byte	0x74
 8050 09cf 0A       		.sleb128 10
 8051 09d0 9F       		.byte	0x9f
 8052 09d1 62000000 		.4byte	.LVL150
 8053 09d5 68000000 		.4byte	.LVL152
 8054 09d9 0100     		.2byte	0x1
 8055 09db 54       		.byte	0x54
 8056 09dc 00000000 		.4byte	0
 8057 09e0 00000000 		.4byte	0
 8058              	.LLST48:
 8059 09e4 4A000000 		.4byte	.LVL145
 8060 09e8 58000000 		.4byte	.LVL146
 8061 09ec 0200     		.2byte	0x2
 8062 09ee 30       		.byte	0x30
 8063 09ef 9F       		.byte	0x9f
 8064 09f0 58000000 		.4byte	.LVL146
 8065 09f4 5E000000 		.4byte	.LVL149
ARM GAS  C:\Users\jsyoon\AppData\Local\Temp\ccHEUWmT.s 			page 143


 8066 09f8 0100     		.2byte	0x1
 8067 09fa 55       		.byte	0x55
 8068 09fb 5E000000 		.4byte	.LVL149
 8069 09ff 62000000 		.4byte	.LVL150
 8070 0a03 0300     		.2byte	0x3
 8071 0a05 75       		.byte	0x75
 8072 0a06 7F       		.sleb128 -1
 8073 0a07 9F       		.byte	0x9f
 8074 0a08 62000000 		.4byte	.LVL150
 8075 0a0c 66000000 		.4byte	.LVL151
 8076 0a10 0100     		.2byte	0x1
 8077 0a12 55       		.byte	0x55
 8078 0a13 00000000 		.4byte	0
 8079 0a17 00000000 		.4byte	0
 8080              	.LLST49:
 8081 0a1b 6A000000 		.4byte	.LVL153
 8082 0a1f 76000000 		.4byte	.LVL154
 8083 0a23 0200     		.2byte	0x2
 8084 0a25 72       		.byte	0x72
 8085 0a26 0C       		.sleb128 12
 8086 0a27 76000000 		.4byte	.LVL154
 8087 0a2b 78000000 		.4byte	.LVL155
 8088 0a2f 0100     		.2byte	0x1
 8089 0a31 50       		.byte	0x50
 8090 0a32 78000000 		.4byte	.LVL155
 8091 0a36 7A000000 		.4byte	.LVL156
 8092 0a3a 0300     		.2byte	0x3
 8093 0a3c 70       		.byte	0x70
 8094 0a3d 0A       		.sleb128 10
 8095 0a3e 9F       		.byte	0x9f
 8096 0a3f 80000000 		.4byte	.LVL158
 8097 0a43 86000000 		.4byte	.LVL160
 8098 0a47 0100     		.2byte	0x1
 8099 0a49 50       		.byte	0x50
 8100 0a4a 00000000 		.4byte	0
 8101 0a4e 00000000 		.4byte	0
 8102              	.LLST50:
 8103 0a52 6A000000 		.4byte	.LVL153
 8104 0a56 76000000 		.4byte	.LVL154
 8105 0a5a 0200     		.2byte	0x2
 8106 0a5c 30       		.byte	0x30
 8107 0a5d 9F       		.byte	0x9f
 8108 0a5e 76000000 		.4byte	.LVL154
 8109 0a62 7C000000 		.4byte	.LVL157
 8110 0a66 0100     		.2byte	0x1
 8111 0a68 55       		.byte	0x55
 8112 0a69 7C000000 		.4byte	.LVL157
 8113 0a6d 80000000 		.4byte	.LVL158
 8114 0a71 0300     		.2byte	0x3
 8115 0a73 75       		.byte	0x75
 8116 0a74 7F       		.sleb128 -1
 8117 0a75 9F       		.byte	0x9f
 8118 0a76 80000000 		.4byte	.LVL158
 8119 0a7a 84000000 		.4byte	.LVL159
 8120 0a7e 0100     		.2byte	0x1
 8121 0a80 55       		.byte	0x55
 8122 0a81 00000000 		.4byte	0
ARM GAS  C:\Users\jsyoon\AppData\Local\Temp\ccHEUWmT.s 			page 144


 8123 0a85 00000000 		.4byte	0
 8124              	.LLST51:
 8125 0a89 00000000 		.4byte	.LVL171
 8126 0a8d 4C000000 		.4byte	.LVL177
 8127 0a91 0100     		.2byte	0x1
 8128 0a93 50       		.byte	0x50
 8129 0a94 4C000000 		.4byte	.LVL177
 8130 0a98 94000000 		.4byte	.LFE129
 8131 0a9c 0400     		.2byte	0x4
 8132 0a9e F3       		.byte	0xf3
 8133 0a9f 01       		.uleb128 0x1
 8134 0aa0 50       		.byte	0x50
 8135 0aa1 9F       		.byte	0x9f
 8136 0aa2 00000000 		.4byte	0
 8137 0aa6 00000000 		.4byte	0
 8138              	.LLST52:
 8139 0aaa 00000000 		.4byte	.LVL171
 8140 0aae 22000000 		.4byte	.LVL174
 8141 0ab2 0100     		.2byte	0x1
 8142 0ab4 51       		.byte	0x51
 8143 0ab5 22000000 		.4byte	.LVL174
 8144 0ab9 94000000 		.4byte	.LFE129
 8145 0abd 0400     		.2byte	0x4
 8146 0abf F3       		.byte	0xf3
 8147 0ac0 01       		.uleb128 0x1
 8148 0ac1 51       		.byte	0x51
 8149 0ac2 9F       		.byte	0x9f
 8150 0ac3 00000000 		.4byte	0
 8151 0ac7 00000000 		.4byte	0
 8152              	.LLST53:
 8153 0acb 00000000 		.4byte	.LVL171
 8154 0acf 0A000000 		.4byte	.LVL172
 8155 0ad3 0200     		.2byte	0x2
 8156 0ad5 30       		.byte	0x30
 8157 0ad6 9F       		.byte	0x9f
 8158 0ad7 0A000000 		.4byte	.LVL172
 8159 0adb 32000000 		.4byte	.LVL175
 8160 0adf 0100     		.2byte	0x1
 8161 0ae1 53       		.byte	0x53
 8162 0ae2 00000000 		.4byte	0
 8163 0ae6 00000000 		.4byte	0
 8164              	.LLST54:
 8165 0aea 46000000 		.4byte	.LVL176
 8166 0aee 60000000 		.4byte	.LVL178
 8167 0af2 0100     		.2byte	0x1
 8168 0af4 55       		.byte	0x55
 8169 0af5 00000000 		.4byte	0
 8170 0af9 00000000 		.4byte	0
 8171              	.LLST55:
 8172 0afd 46000000 		.4byte	.LVL176
 8173 0b01 60000000 		.4byte	.LVL178
 8174 0b05 0700     		.2byte	0x7
 8175 0b07 75       		.byte	0x75
 8176 0b08 00       		.sleb128 0
 8177 0b09 34       		.byte	0x34
 8178 0b0a 25       		.byte	0x25
 8179 0b0b 3A       		.byte	0x3a
ARM GAS  C:\Users\jsyoon\AppData\Local\Temp\ccHEUWmT.s 			page 145


 8180 0b0c 1E       		.byte	0x1e
 8181 0b0d 9F       		.byte	0x9f
 8182 0b0e 00000000 		.4byte	0
 8183 0b12 00000000 		.4byte	0
 8184              	.LLST56:
 8185 0b16 00000000 		.4byte	.LVL181
 8186 0b1a 1E000000 		.4byte	.LVL183
 8187 0b1e 0100     		.2byte	0x1
 8188 0b20 50       		.byte	0x50
 8189 0b21 1E000000 		.4byte	.LVL183
 8190 0b25 50000000 		.4byte	.LVL189
 8191 0b29 0400     		.2byte	0x4
 8192 0b2b F3       		.byte	0xf3
 8193 0b2c 01       		.uleb128 0x1
 8194 0b2d 50       		.byte	0x50
 8195 0b2e 9F       		.byte	0x9f
 8196 0b2f 50000000 		.4byte	.LVL189
 8197 0b33 52000000 		.4byte	.LVL190
 8198 0b37 0100     		.2byte	0x1
 8199 0b39 50       		.byte	0x50
 8200 0b3a 52000000 		.4byte	.LVL190
 8201 0b3e 5C000000 		.4byte	.LFE130
 8202 0b42 0400     		.2byte	0x4
 8203 0b44 F3       		.byte	0xf3
 8204 0b45 01       		.uleb128 0x1
 8205 0b46 50       		.byte	0x50
 8206 0b47 9F       		.byte	0x9f
 8207 0b48 00000000 		.4byte	0
 8208 0b4c 00000000 		.4byte	0
 8209              	.LLST57:
 8210 0b50 00000000 		.4byte	.LVL181
 8211 0b54 20000000 		.4byte	.LVL184
 8212 0b58 0100     		.2byte	0x1
 8213 0b5a 51       		.byte	0x51
 8214 0b5b 20000000 		.4byte	.LVL184
 8215 0b5f 50000000 		.4byte	.LVL189
 8216 0b63 0400     		.2byte	0x4
 8217 0b65 F3       		.byte	0xf3
 8218 0b66 01       		.uleb128 0x1
 8219 0b67 51       		.byte	0x51
 8220 0b68 9F       		.byte	0x9f
 8221 0b69 50000000 		.4byte	.LVL189
 8222 0b6d 5C000000 		.4byte	.LFE130
 8223 0b71 0100     		.2byte	0x1
 8224 0b73 51       		.byte	0x51
 8225 0b74 00000000 		.4byte	0
 8226 0b78 00000000 		.4byte	0
 8227              	.LLST58:
 8228 0b7c 0E000000 		.4byte	.LVL182
 8229 0b80 22000000 		.4byte	.LVL185
 8230 0b84 0200     		.2byte	0x2
 8231 0b86 30       		.byte	0x30
 8232 0b87 9F       		.byte	0x9f
 8233 0b88 22000000 		.4byte	.LVL185
 8234 0b8c 24000000 		.4byte	.LVL186
 8235 0b90 0100     		.2byte	0x1
 8236 0b92 52       		.byte	0x52
ARM GAS  C:\Users\jsyoon\AppData\Local\Temp\ccHEUWmT.s 			page 146


 8237 0b93 36000000 		.4byte	.LVL187
 8238 0b97 44000000 		.4byte	.LVL188
 8239 0b9b 0100     		.2byte	0x1
 8240 0b9d 52       		.byte	0x52
 8241 0b9e 50000000 		.4byte	.LVL189
 8242 0ba2 5C000000 		.4byte	.LFE130
 8243 0ba6 0200     		.2byte	0x2
 8244 0ba8 30       		.byte	0x30
 8245 0ba9 9F       		.byte	0x9f
 8246 0baa 00000000 		.4byte	0
 8247 0bae 00000000 		.4byte	0
 8248              	.LLST59:
 8249 0bb2 0E000000 		.4byte	.LVL182
 8250 0bb6 44000000 		.4byte	.LVL188
 8251 0bba 0200     		.2byte	0x2
 8252 0bbc 30       		.byte	0x30
 8253 0bbd 9F       		.byte	0x9f
 8254 0bbe 44000000 		.4byte	.LVL188
 8255 0bc2 50000000 		.4byte	.LVL189
 8256 0bc6 0100     		.2byte	0x1
 8257 0bc8 50       		.byte	0x50
 8258 0bc9 50000000 		.4byte	.LVL189
 8259 0bcd 54000000 		.4byte	.LVL191
 8260 0bd1 0200     		.2byte	0x2
 8261 0bd3 30       		.byte	0x30
 8262 0bd4 9F       		.byte	0x9f
 8263 0bd5 54000000 		.4byte	.LVL191
 8264 0bd9 5C000000 		.4byte	.LFE130
 8265 0bdd 0200     		.2byte	0x2
 8266 0bdf 31       		.byte	0x31
 8267 0be0 9F       		.byte	0x9f
 8268 0be1 00000000 		.4byte	0
 8269 0be5 00000000 		.4byte	0
 8270              	.LLST60:
 8271 0be9 00000000 		.4byte	.LVL192
 8272 0bed 06000000 		.4byte	.LVL193
 8273 0bf1 0100     		.2byte	0x1
 8274 0bf3 52       		.byte	0x52
 8275 0bf4 06000000 		.4byte	.LVL193
 8276 0bf8 28000000 		.4byte	.LFE131
 8277 0bfc 0400     		.2byte	0x4
 8278 0bfe F3       		.byte	0xf3
 8279 0bff 01       		.uleb128 0x1
 8280 0c00 52       		.byte	0x52
 8281 0c01 9F       		.byte	0x9f
 8282 0c02 00000000 		.4byte	0
 8283 0c06 00000000 		.4byte	0
 8284              	.LLST61:
 8285 0c0a 00000000 		.4byte	.LVL192
 8286 0c0e 06000000 		.4byte	.LVL193
 8287 0c12 0200     		.2byte	0x2
 8288 0c14 30       		.byte	0x30
 8289 0c15 9F       		.byte	0x9f
 8290 0c16 06000000 		.4byte	.LVL193
 8291 0c1a 1C000000 		.4byte	.LVL194
 8292 0c1e 0100     		.2byte	0x1
 8293 0c20 52       		.byte	0x52
ARM GAS  C:\Users\jsyoon\AppData\Local\Temp\ccHEUWmT.s 			page 147


 8294 0c21 1C000000 		.4byte	.LVL194
 8295 0c25 28000000 		.4byte	.LFE131
 8296 0c29 0700     		.2byte	0x7
 8297 0c2b 71       		.byte	0x71
 8298 0c2c 00       		.sleb128 0
 8299 0c2d F3       		.byte	0xf3
 8300 0c2e 01       		.uleb128 0x1
 8301 0c2f 52       		.byte	0x52
 8302 0c30 21       		.byte	0x21
 8303 0c31 9F       		.byte	0x9f
 8304 0c32 00000000 		.4byte	0
 8305 0c36 00000000 		.4byte	0
 8306              	.LLST62:
 8307 0c3a 00000000 		.4byte	.LVL195
 8308 0c3e 0A000000 		.4byte	.LVL196
 8309 0c42 0100     		.2byte	0x1
 8310 0c44 50       		.byte	0x50
 8311 0c45 0A000000 		.4byte	.LVL196
 8312 0c49 18000000 		.4byte	.LFE132
 8313 0c4d 0400     		.2byte	0x4
 8314 0c4f F3       		.byte	0xf3
 8315 0c50 01       		.uleb128 0x1
 8316 0c51 50       		.byte	0x50
 8317 0c52 9F       		.byte	0x9f
 8318 0c53 00000000 		.4byte	0
 8319 0c57 00000000 		.4byte	0
 8320              	.LLST63:
 8321 0c5b 00000000 		.4byte	.LVL195
 8322 0c5f 10000000 		.4byte	.LVL197
 8323 0c63 0200     		.2byte	0x2
 8324 0c65 30       		.byte	0x30
 8325 0c66 9F       		.byte	0x9f
 8326 0c67 10000000 		.4byte	.LVL197
 8327 0c6b 18000000 		.4byte	.LFE132
 8328 0c6f 0100     		.2byte	0x1
 8329 0c71 50       		.byte	0x50
 8330 0c72 00000000 		.4byte	0
 8331 0c76 00000000 		.4byte	0
 8332              	.LLST64:
 8333 0c7a 00000000 		.4byte	.LVL198
 8334 0c7e 18000000 		.4byte	.LVL199
 8335 0c82 0100     		.2byte	0x1
 8336 0c84 50       		.byte	0x50
 8337 0c85 18000000 		.4byte	.LVL199
 8338 0c89 24000000 		.4byte	.LFE133
 8339 0c8d 0400     		.2byte	0x4
 8340 0c8f F3       		.byte	0xf3
 8341 0c90 01       		.uleb128 0x1
 8342 0c91 50       		.byte	0x50
 8343 0c92 9F       		.byte	0x9f
 8344 0c93 00000000 		.4byte	0
 8345 0c97 00000000 		.4byte	0
 8346              	.LLST65:
 8347 0c9b 00000000 		.4byte	.LVL201
 8348 0c9f 38000000 		.4byte	.LVL206
 8349 0ca3 0100     		.2byte	0x1
 8350 0ca5 50       		.byte	0x50
ARM GAS  C:\Users\jsyoon\AppData\Local\Temp\ccHEUWmT.s 			page 148


 8351 0ca6 38000000 		.4byte	.LVL206
 8352 0caa 4A000000 		.4byte	.LVL208
 8353 0cae 0400     		.2byte	0x4
 8354 0cb0 F3       		.byte	0xf3
 8355 0cb1 01       		.uleb128 0x1
 8356 0cb2 50       		.byte	0x50
 8357 0cb3 9F       		.byte	0x9f
 8358 0cb4 4A000000 		.4byte	.LVL208
 8359 0cb8 52000000 		.4byte	.LVL210
 8360 0cbc 0100     		.2byte	0x1
 8361 0cbe 50       		.byte	0x50
 8362 0cbf 52000000 		.4byte	.LVL210
 8363 0cc3 58000000 		.4byte	.LFE136
 8364 0cc7 0400     		.2byte	0x4
 8365 0cc9 F3       		.byte	0xf3
 8366 0cca 01       		.uleb128 0x1
 8367 0ccb 50       		.byte	0x50
 8368 0ccc 9F       		.byte	0x9f
 8369 0ccd 00000000 		.4byte	0
 8370 0cd1 00000000 		.4byte	0
 8371              	.LLST66:
 8372 0cd5 0E000000 		.4byte	.LVL202
 8373 0cd9 1E000000 		.4byte	.LVL203
 8374 0cdd 0200     		.2byte	0x2
 8375 0cdf 30       		.byte	0x30
 8376 0ce0 9F       		.byte	0x9f
 8377 0ce1 1E000000 		.4byte	.LVL203
 8378 0ce5 20000000 		.4byte	.LVL204
 8379 0ce9 0100     		.2byte	0x1
 8380 0ceb 52       		.byte	0x52
 8381 0cec 32000000 		.4byte	.LVL205
 8382 0cf0 3C000000 		.4byte	.LVL207
 8383 0cf4 0100     		.2byte	0x1
 8384 0cf6 52       		.byte	0x52
 8385 0cf7 4A000000 		.4byte	.LVL208
 8386 0cfb 58000000 		.4byte	.LFE136
 8387 0cff 0200     		.2byte	0x2
 8388 0d01 30       		.byte	0x30
 8389 0d02 9F       		.byte	0x9f
 8390 0d03 00000000 		.4byte	0
 8391 0d07 00000000 		.4byte	0
 8392              	.LLST67:
 8393 0d0b 0E000000 		.4byte	.LVL202
 8394 0d0f 3C000000 		.4byte	.LVL207
 8395 0d13 0200     		.2byte	0x2
 8396 0d15 30       		.byte	0x30
 8397 0d16 9F       		.byte	0x9f
 8398 0d17 3C000000 		.4byte	.LVL207
 8399 0d1b 4A000000 		.4byte	.LVL208
 8400 0d1f 0100     		.2byte	0x1
 8401 0d21 50       		.byte	0x50
 8402 0d22 4A000000 		.4byte	.LVL208
 8403 0d26 50000000 		.4byte	.LVL209
 8404 0d2a 0200     		.2byte	0x2
 8405 0d2c 30       		.byte	0x30
 8406 0d2d 9F       		.byte	0x9f
 8407 0d2e 50000000 		.4byte	.LVL209
ARM GAS  C:\Users\jsyoon\AppData\Local\Temp\ccHEUWmT.s 			page 149


 8408 0d32 58000000 		.4byte	.LFE136
 8409 0d36 0200     		.2byte	0x2
 8410 0d38 31       		.byte	0x31
 8411 0d39 9F       		.byte	0x9f
 8412 0d3a 00000000 		.4byte	0
 8413 0d3e 00000000 		.4byte	0
 8414              	.LLST68:
 8415 0d42 00000000 		.4byte	.LVL211
 8416 0d46 1E000000 		.4byte	.LVL213
 8417 0d4a 0100     		.2byte	0x1
 8418 0d4c 50       		.byte	0x50
 8419 0d4d 1E000000 		.4byte	.LVL213
 8420 0d51 2C000000 		.4byte	.LFE137
 8421 0d55 0400     		.2byte	0x4
 8422 0d57 F3       		.byte	0xf3
 8423 0d58 01       		.uleb128 0x1
 8424 0d59 50       		.byte	0x50
 8425 0d5a 9F       		.byte	0x9f
 8426 0d5b 00000000 		.4byte	0
 8427 0d5f 00000000 		.4byte	0
 8428              	.LLST69:
 8429 0d63 00000000 		.4byte	.LVL211
 8430 0d67 1C000000 		.4byte	.LVL212
 8431 0d6b 0100     		.2byte	0x1
 8432 0d6d 51       		.byte	0x51
 8433 0d6e 1C000000 		.4byte	.LVL212
 8434 0d72 2C000000 		.4byte	.LFE137
 8435 0d76 0400     		.2byte	0x4
 8436 0d78 F3       		.byte	0xf3
 8437 0d79 01       		.uleb128 0x1
 8438 0d7a 51       		.byte	0x51
 8439 0d7b 9F       		.byte	0x9f
 8440 0d7c 00000000 		.4byte	0
 8441 0d80 00000000 		.4byte	0
 8442              	.LLST70:
 8443 0d84 00000000 		.4byte	.LVL214
 8444 0d88 1E000000 		.4byte	.LVL216
 8445 0d8c 0100     		.2byte	0x1
 8446 0d8e 50       		.byte	0x50
 8447 0d8f 1E000000 		.4byte	.LVL216
 8448 0d93 2C000000 		.4byte	.LFE139
 8449 0d97 0400     		.2byte	0x4
 8450 0d99 F3       		.byte	0xf3
 8451 0d9a 01       		.uleb128 0x1
 8452 0d9b 50       		.byte	0x50
 8453 0d9c 9F       		.byte	0x9f
 8454 0d9d 00000000 		.4byte	0
 8455 0da1 00000000 		.4byte	0
 8456              	.LLST71:
 8457 0da5 00000000 		.4byte	.LVL214
 8458 0da9 1C000000 		.4byte	.LVL215
 8459 0dad 0100     		.2byte	0x1
 8460 0daf 51       		.byte	0x51
 8461 0db0 1C000000 		.4byte	.LVL215
 8462 0db4 2C000000 		.4byte	.LFE139
 8463 0db8 0400     		.2byte	0x4
 8464 0dba F3       		.byte	0xf3
ARM GAS  C:\Users\jsyoon\AppData\Local\Temp\ccHEUWmT.s 			page 150


 8465 0dbb 01       		.uleb128 0x1
 8466 0dbc 51       		.byte	0x51
 8467 0dbd 9F       		.byte	0x9f
 8468 0dbe 00000000 		.4byte	0
 8469 0dc2 00000000 		.4byte	0
 8470              	.LLST72:
 8471 0dc6 00000000 		.4byte	.LVL217
 8472 0dca 13000000 		.4byte	.LVL218-1
 8473 0dce 0100     		.2byte	0x1
 8474 0dd0 50       		.byte	0x50
 8475 0dd1 13000000 		.4byte	.LVL218-1
 8476 0dd5 18000000 		.4byte	.LVL219
 8477 0dd9 0100     		.2byte	0x1
 8478 0ddb 55       		.byte	0x55
 8479 0ddc 18000000 		.4byte	.LVL219
 8480 0de0 30000000 		.4byte	.LFE140
 8481 0de4 0400     		.2byte	0x4
 8482 0de6 F3       		.byte	0xf3
 8483 0de7 01       		.uleb128 0x1
 8484 0de8 50       		.byte	0x50
 8485 0de9 9F       		.byte	0x9f
 8486 0dea 00000000 		.4byte	0
 8487 0dee 00000000 		.4byte	0
 8488              	.LLST73:
 8489 0df2 00000000 		.4byte	.LVL217
 8490 0df6 13000000 		.4byte	.LVL218-1
 8491 0dfa 0100     		.2byte	0x1
 8492 0dfc 51       		.byte	0x51
 8493 0dfd 13000000 		.4byte	.LVL218-1
 8494 0e01 2C000000 		.4byte	.LVL222
 8495 0e05 0100     		.2byte	0x1
 8496 0e07 56       		.byte	0x56
 8497 0e08 2C000000 		.4byte	.LVL222
 8498 0e0c 30000000 		.4byte	.LFE140
 8499 0e10 0400     		.2byte	0x4
 8500 0e12 F3       		.byte	0xf3
 8501 0e13 01       		.uleb128 0x1
 8502 0e14 51       		.byte	0x51
 8503 0e15 9F       		.byte	0x9f
 8504 0e16 00000000 		.4byte	0
 8505 0e1a 00000000 		.4byte	0
 8506              	.LLST74:
 8507 0e1e 00000000 		.4byte	.LVL217
 8508 0e22 22000000 		.4byte	.LVL220
 8509 0e26 0200     		.2byte	0x2
 8510 0e28 30       		.byte	0x30
 8511 0e29 9F       		.byte	0x9f
 8512 0e2a 22000000 		.4byte	.LVL220
 8513 0e2e 24000000 		.4byte	.LVL221
 8514 0e32 0200     		.2byte	0x2
 8515 0e34 31       		.byte	0x31
 8516 0e35 9F       		.byte	0x9f
 8517 0e36 24000000 		.4byte	.LVL221
 8518 0e3a 30000000 		.4byte	.LFE140
 8519 0e3e 0100     		.2byte	0x1
 8520 0e40 50       		.byte	0x50
 8521 0e41 00000000 		.4byte	0
ARM GAS  C:\Users\jsyoon\AppData\Local\Temp\ccHEUWmT.s 			page 151


 8522 0e45 00000000 		.4byte	0
 8523              	.LLST75:
 8524 0e49 00000000 		.4byte	.LVL223
 8525 0e4d 11000000 		.4byte	.LVL224-1
 8526 0e51 0100     		.2byte	0x1
 8527 0e53 50       		.byte	0x50
 8528 0e54 11000000 		.4byte	.LVL224-1
 8529 0e58 40000000 		.4byte	.LFE141
 8530 0e5c 0400     		.2byte	0x4
 8531 0e5e F3       		.byte	0xf3
 8532 0e5f 01       		.uleb128 0x1
 8533 0e60 50       		.byte	0x50
 8534 0e61 9F       		.byte	0x9f
 8535 0e62 00000000 		.4byte	0
 8536 0e66 00000000 		.4byte	0
 8537              	.LLST76:
 8538 0e6a 00000000 		.4byte	.LVL223
 8539 0e6e 28000000 		.4byte	.LVL225
 8540 0e72 0200     		.2byte	0x2
 8541 0e74 30       		.byte	0x30
 8542 0e75 9F       		.byte	0x9f
 8543 0e76 28000000 		.4byte	.LVL225
 8544 0e7a 2A000000 		.4byte	.LVL226
 8545 0e7e 0200     		.2byte	0x2
 8546 0e80 31       		.byte	0x31
 8547 0e81 9F       		.byte	0x9f
 8548 0e82 2A000000 		.4byte	.LVL226
 8549 0e86 32000000 		.4byte	.LVL227
 8550 0e8a 0100     		.2byte	0x1
 8551 0e8c 50       		.byte	0x50
 8552 0e8d 32000000 		.4byte	.LVL227
 8553 0e91 40000000 		.4byte	.LFE141
 8554 0e95 0200     		.2byte	0x2
 8555 0e97 30       		.byte	0x30
 8556 0e98 9F       		.byte	0x9f
 8557 0e99 00000000 		.4byte	0
 8558 0e9d 00000000 		.4byte	0
 8559              	.LLST77:
 8560 0ea1 00000000 		.4byte	.LVL229
 8561 0ea5 18000000 		.4byte	.LVL230
 8562 0ea9 0100     		.2byte	0x1
 8563 0eab 50       		.byte	0x50
 8564 0eac 18000000 		.4byte	.LVL230
 8565 0eb0 24000000 		.4byte	.LFE143
 8566 0eb4 0400     		.2byte	0x4
 8567 0eb6 F3       		.byte	0xf3
 8568 0eb7 01       		.uleb128 0x1
 8569 0eb8 50       		.byte	0x50
 8570 0eb9 9F       		.byte	0x9f
 8571 0eba 00000000 		.4byte	0
 8572 0ebe 00000000 		.4byte	0
 8573              	.LLST78:
 8574 0ec2 00000000 		.4byte	.LVL231
 8575 0ec6 34000000 		.4byte	.LVL237
 8576 0eca 0100     		.2byte	0x1
 8577 0ecc 50       		.byte	0x50
 8578 0ecd 34000000 		.4byte	.LVL237
ARM GAS  C:\Users\jsyoon\AppData\Local\Temp\ccHEUWmT.s 			page 152


 8579 0ed1 42000000 		.4byte	.LVL241
 8580 0ed5 0400     		.2byte	0x4
 8581 0ed7 F3       		.byte	0xf3
 8582 0ed8 01       		.uleb128 0x1
 8583 0ed9 50       		.byte	0x50
 8584 0eda 9F       		.byte	0x9f
 8585 0edb 42000000 		.4byte	.LVL241
 8586 0edf 44000000 		.4byte	.LVL242
 8587 0ee3 0100     		.2byte	0x1
 8588 0ee5 50       		.byte	0x50
 8589 0ee6 44000000 		.4byte	.LVL242
 8590 0eea 4C000000 		.4byte	.LFE144
 8591 0eee 0400     		.2byte	0x4
 8592 0ef0 F3       		.byte	0xf3
 8593 0ef1 01       		.uleb128 0x1
 8594 0ef2 50       		.byte	0x50
 8595 0ef3 9F       		.byte	0x9f
 8596 0ef4 00000000 		.4byte	0
 8597 0ef8 00000000 		.4byte	0
 8598              	.LLST79:
 8599 0efc 00000000 		.4byte	.LVL231
 8600 0f00 32000000 		.4byte	.LVL236
 8601 0f04 0100     		.2byte	0x1
 8602 0f06 51       		.byte	0x51
 8603 0f07 32000000 		.4byte	.LVL236
 8604 0f0b 42000000 		.4byte	.LVL241
 8605 0f0f 0400     		.2byte	0x4
 8606 0f11 F3       		.byte	0xf3
 8607 0f12 01       		.uleb128 0x1
 8608 0f13 51       		.byte	0x51
 8609 0f14 9F       		.byte	0x9f
 8610 0f15 42000000 		.4byte	.LVL241
 8611 0f19 4C000000 		.4byte	.LFE144
 8612 0f1d 0100     		.2byte	0x1
 8613 0f1f 51       		.byte	0x51
 8614 0f20 00000000 		.4byte	0
 8615 0f24 00000000 		.4byte	0
 8616              	.LLST80:
 8617 0f28 00000000 		.4byte	.LVL231
 8618 0f2c 3C000000 		.4byte	.LVL240
 8619 0f30 0100     		.2byte	0x1
 8620 0f32 52       		.byte	0x52
 8621 0f33 3C000000 		.4byte	.LVL240
 8622 0f37 42000000 		.4byte	.LVL241
 8623 0f3b 0400     		.2byte	0x4
 8624 0f3d F3       		.byte	0xf3
 8625 0f3e 01       		.uleb128 0x1
 8626 0f3f 52       		.byte	0x52
 8627 0f40 9F       		.byte	0x9f
 8628 0f41 42000000 		.4byte	.LVL241
 8629 0f45 4C000000 		.4byte	.LFE144
 8630 0f49 0100     		.2byte	0x1
 8631 0f4b 52       		.byte	0x52
 8632 0f4c 00000000 		.4byte	0
 8633 0f50 00000000 		.4byte	0
 8634              	.LLST81:
 8635 0f54 00000000 		.4byte	.LVL231
ARM GAS  C:\Users\jsyoon\AppData\Local\Temp\ccHEUWmT.s 			page 153


 8636 0f58 36000000 		.4byte	.LVL238
 8637 0f5c 0200     		.2byte	0x2
 8638 0f5e 30       		.byte	0x30
 8639 0f5f 9F       		.byte	0x9f
 8640 0f60 36000000 		.4byte	.LVL238
 8641 0f64 38000000 		.4byte	.LVL239
 8642 0f68 0200     		.2byte	0x2
 8643 0f6a 31       		.byte	0x31
 8644 0f6b 9F       		.byte	0x9f
 8645 0f6c 38000000 		.4byte	.LVL239
 8646 0f70 42000000 		.4byte	.LVL241
 8647 0f74 0100     		.2byte	0x1
 8648 0f76 50       		.byte	0x50
 8649 0f77 42000000 		.4byte	.LVL241
 8650 0f7b 4C000000 		.4byte	.LFE144
 8651 0f7f 0200     		.2byte	0x2
 8652 0f81 30       		.byte	0x30
 8653 0f82 9F       		.byte	0x9f
 8654 0f83 00000000 		.4byte	0
 8655 0f87 00000000 		.4byte	0
 8656              	.LLST82:
 8657 0f8b 00000000 		.4byte	.LVL231
 8658 0f8f 1E000000 		.4byte	.LVL232
 8659 0f93 0200     		.2byte	0x2
 8660 0f95 30       		.byte	0x30
 8661 0f96 9F       		.byte	0x9f
 8662 0f97 1E000000 		.4byte	.LVL232
 8663 0f9b 20000000 		.4byte	.LVL233
 8664 0f9f 0900     		.2byte	0x9
 8665 0fa1 0C       		.byte	0xc
 8666 0fa2 01000200 		.4byte	0x20001
 8667 0fa6 73       		.byte	0x73
 8668 0fa7 00       		.sleb128 0
 8669 0fa8 1C       		.byte	0x1c
 8670 0fa9 9F       		.byte	0x9f
 8671 0faa 20000000 		.4byte	.LVL233
 8672 0fae 22000000 		.4byte	.LVL234
 8673 0fb2 0700     		.2byte	0x7
 8674 0fb4 40       		.byte	0x40
 8675 0fb5 3D       		.byte	0x3d
 8676 0fb6 24       		.byte	0x24
 8677 0fb7 73       		.byte	0x73
 8678 0fb8 00       		.sleb128 0
 8679 0fb9 1C       		.byte	0x1c
 8680 0fba 9F       		.byte	0x9f
 8681 0fbb 22000000 		.4byte	.LVL234
 8682 0fbf 28000000 		.4byte	.LVL235
 8683 0fc3 0900     		.2byte	0x9
 8684 0fc5 0C       		.byte	0xc
 8685 0fc6 01000200 		.4byte	0x20001
 8686 0fca 73       		.byte	0x73
 8687 0fcb 00       		.sleb128 0
 8688 0fcc 1C       		.byte	0x1c
 8689 0fcd 9F       		.byte	0x9f
 8690 0fce 00000000 		.4byte	0
 8691 0fd2 00000000 		.4byte	0
 8692              	.LLST83:
ARM GAS  C:\Users\jsyoon\AppData\Local\Temp\ccHEUWmT.s 			page 154


 8693 0fd6 00000000 		.4byte	.LVL243
 8694 0fda 12000000 		.4byte	.LVL245
 8695 0fde 0100     		.2byte	0x1
 8696 0fe0 50       		.byte	0x50
 8697 0fe1 12000000 		.4byte	.LVL245
 8698 0fe5 28000000 		.4byte	.LVL247
 8699 0fe9 0400     		.2byte	0x4
 8700 0feb F3       		.byte	0xf3
 8701 0fec 01       		.uleb128 0x1
 8702 0fed 50       		.byte	0x50
 8703 0fee 9F       		.byte	0x9f
 8704 0fef 28000000 		.4byte	.LVL247
 8705 0ff3 2E000000 		.4byte	.LVL249
 8706 0ff7 0100     		.2byte	0x1
 8707 0ff9 50       		.byte	0x50
 8708 0ffa 2E000000 		.4byte	.LVL249
 8709 0ffe 34000000 		.4byte	.LFE145
 8710 1002 0400     		.2byte	0x4
 8711 1004 F3       		.byte	0xf3
 8712 1005 01       		.uleb128 0x1
 8713 1006 50       		.byte	0x50
 8714 1007 9F       		.byte	0x9f
 8715 1008 00000000 		.4byte	0
 8716 100c 00000000 		.4byte	0
 8717              	.LLST84:
 8718 1010 00000000 		.4byte	.LVL243
 8719 1014 18000000 		.4byte	.LVL246
 8720 1018 0100     		.2byte	0x1
 8721 101a 51       		.byte	0x51
 8722 101b 18000000 		.4byte	.LVL246
 8723 101f 28000000 		.4byte	.LVL247
 8724 1023 0400     		.2byte	0x4
 8725 1025 F3       		.byte	0xf3
 8726 1026 01       		.uleb128 0x1
 8727 1027 51       		.byte	0x51
 8728 1028 9F       		.byte	0x9f
 8729 1029 28000000 		.4byte	.LVL247
 8730 102d 34000000 		.4byte	.LFE145
 8731 1031 0100     		.2byte	0x1
 8732 1033 51       		.byte	0x51
 8733 1034 00000000 		.4byte	0
 8734 1038 00000000 		.4byte	0
 8735              	.LLST85:
 8736 103c 00000000 		.4byte	.LVL243
 8737 1040 0E000000 		.4byte	.LVL244
 8738 1044 0200     		.2byte	0x2
 8739 1046 30       		.byte	0x30
 8740 1047 9F       		.byte	0x9f
 8741 1048 0E000000 		.4byte	.LVL244
 8742 104c 12000000 		.4byte	.LVL245
 8743 1050 0100     		.2byte	0x1
 8744 1052 53       		.byte	0x53
 8745 1053 12000000 		.4byte	.LVL245
 8746 1057 28000000 		.4byte	.LVL247
 8747 105b 0100     		.2byte	0x1
 8748 105d 50       		.byte	0x50
 8749 105e 28000000 		.4byte	.LVL247
ARM GAS  C:\Users\jsyoon\AppData\Local\Temp\ccHEUWmT.s 			page 155


 8750 1062 2C000000 		.4byte	.LVL248
 8751 1066 0100     		.2byte	0x1
 8752 1068 53       		.byte	0x53
 8753 1069 2E000000 		.4byte	.LVL249
 8754 106d 34000000 		.4byte	.LFE145
 8755 1071 0100     		.2byte	0x1
 8756 1073 50       		.byte	0x50
 8757 1074 00000000 		.4byte	0
 8758 1078 00000000 		.4byte	0
 8759              	.LLST86:
 8760 107c 00000000 		.4byte	.LVL250
 8761 1080 50000000 		.4byte	.LVL258
 8762 1084 0100     		.2byte	0x1
 8763 1086 50       		.byte	0x50
 8764 1087 50000000 		.4byte	.LVL258
 8765 108b BC000000 		.4byte	.LFE146
 8766 108f 0400     		.2byte	0x4
 8767 1091 F3       		.byte	0xf3
 8768 1092 01       		.uleb128 0x1
 8769 1093 50       		.byte	0x50
 8770 1094 9F       		.byte	0x9f
 8771 1095 00000000 		.4byte	0
 8772 1099 00000000 		.4byte	0
 8773              	.LLST87:
 8774 109d 00000000 		.4byte	.LVL250
 8775 10a1 86000000 		.4byte	.LVL268
 8776 10a5 0100     		.2byte	0x1
 8777 10a7 51       		.byte	0x51
 8778 10a8 86000000 		.4byte	.LVL268
 8779 10ac BC000000 		.4byte	.LFE146
 8780 10b0 0400     		.2byte	0x4
 8781 10b2 F3       		.byte	0xf3
 8782 10b3 01       		.uleb128 0x1
 8783 10b4 51       		.byte	0x51
 8784 10b5 9F       		.byte	0x9f
 8785 10b6 00000000 		.4byte	0
 8786 10ba 00000000 		.4byte	0
 8787              	.LLST88:
 8788 10be 00000000 		.4byte	.LVL250
 8789 10c2 08000000 		.4byte	.LVL251
 8790 10c6 0200     		.2byte	0x2
 8791 10c8 30       		.byte	0x30
 8792 10c9 9F       		.byte	0x9f
 8793 10ca 08000000 		.4byte	.LVL251
 8794 10ce 22000000 		.4byte	.LVL253
 8795 10d2 0900     		.2byte	0x9
 8796 10d4 73       		.byte	0x73
 8797 10d5 00       		.sleb128 0
 8798 10d6 0C       		.byte	0xc
 8799 10d7 7F7F7F00 		.4byte	0x7f7f7f
 8800 10db 1A       		.byte	0x1a
 8801 10dc 9F       		.byte	0x9f
 8802 10dd 00000000 		.4byte	0
 8803 10e1 00000000 		.4byte	0
 8804              	.LLST89:
 8805 10e5 00000000 		.4byte	.LVL250
 8806 10e9 0A000000 		.4byte	.LVL252
ARM GAS  C:\Users\jsyoon\AppData\Local\Temp\ccHEUWmT.s 			page 156


 8807 10ed 0200     		.2byte	0x2
 8808 10ef 30       		.byte	0x30
 8809 10f0 9F       		.byte	0x9f
 8810 10f1 0A000000 		.4byte	.LVL252
 8811 10f5 2C000000 		.4byte	.LVL254
 8812 10f9 0900     		.2byte	0x9
 8813 10fb 74       		.byte	0x74
 8814 10fc 00       		.sleb128 0
 8815 10fd 0C       		.byte	0xc
 8816 10fe 3FFFFF00 		.4byte	0xffff3f
 8817 1102 1A       		.byte	0x1a
 8818 1103 9F       		.byte	0x9f
 8819 1104 00000000 		.4byte	0
 8820 1108 00000000 		.4byte	0
 8821              	.LLST90:
 8822 110c 46000000 		.4byte	.LVL255
 8823 1110 76000000 		.4byte	.LVL262
 8824 1114 0200     		.2byte	0x2
 8825 1116 71       		.byte	0x71
 8826 1117 00       		.sleb128 0
 8827 1118 00000000 		.4byte	0
 8828 111c 00000000 		.4byte	0
 8829              	.LLST91:
 8830 1120 46000000 		.4byte	.LVL255
 8831 1124 54000000 		.4byte	.LVL259
 8832 1128 0700     		.2byte	0x7
 8833 112a 76       		.byte	0x76
 8834 112b 00       		.sleb128 0
 8835 112c 34       		.byte	0x34
 8836 112d 25       		.byte	0x25
 8837 112e 3A       		.byte	0x3a
 8838 112f 1E       		.byte	0x1e
 8839 1130 9F       		.byte	0x9f
 8840 1131 54000000 		.4byte	.LVL259
 8841 1135 76000000 		.4byte	.LVL262
 8842 1139 0900     		.2byte	0x9
 8843 113b 71       		.byte	0x71
 8844 113c 00       		.sleb128 0
 8845 113d 94       		.byte	0x94
 8846 113e 01       		.byte	0x1
 8847 113f 34       		.byte	0x34
 8848 1140 25       		.byte	0x25
 8849 1141 3A       		.byte	0x3a
 8850 1142 1E       		.byte	0x1e
 8851 1143 9F       		.byte	0x9f
 8852 1144 00000000 		.4byte	0
 8853 1148 00000000 		.4byte	0
 8854              	.LLST92:
 8855 114c 48000000 		.4byte	.LVL256
 8856 1150 78000000 		.4byte	.LVL263
 8857 1154 0200     		.2byte	0x2
 8858 1156 71       		.byte	0x71
 8859 1157 01       		.sleb128 1
 8860 1158 00000000 		.4byte	0
 8861 115c 00000000 		.4byte	0
 8862              	.LLST93:
 8863 1160 48000000 		.4byte	.LVL256
ARM GAS  C:\Users\jsyoon\AppData\Local\Temp\ccHEUWmT.s 			page 157


 8864 1164 58000000 		.4byte	.LVL260
 8865 1168 0700     		.2byte	0x7
 8866 116a 74       		.byte	0x74
 8867 116b 00       		.sleb128 0
 8868 116c 34       		.byte	0x34
 8869 116d 25       		.byte	0x25
 8870 116e 3A       		.byte	0x3a
 8871 116f 1E       		.byte	0x1e
 8872 1170 9F       		.byte	0x9f
 8873 1171 58000000 		.4byte	.LVL260
 8874 1175 78000000 		.4byte	.LVL263
 8875 1179 0900     		.2byte	0x9
 8876 117b 71       		.byte	0x71
 8877 117c 01       		.sleb128 1
 8878 117d 94       		.byte	0x94
 8879 117e 01       		.byte	0x1
 8880 117f 34       		.byte	0x34
 8881 1180 25       		.byte	0x25
 8882 1181 3A       		.byte	0x3a
 8883 1182 1E       		.byte	0x1e
 8884 1183 9F       		.byte	0x9f
 8885 1184 00000000 		.4byte	0
 8886 1188 00000000 		.4byte	0
 8887              	.LLST94:
 8888 118c 4A000000 		.4byte	.LVL257
 8889 1190 7A000000 		.4byte	.LVL264
 8890 1194 0200     		.2byte	0x2
 8891 1196 71       		.byte	0x71
 8892 1197 02       		.sleb128 2
 8893 1198 00000000 		.4byte	0
 8894 119c 00000000 		.4byte	0
 8895              	.LLST95:
 8896 11a0 4A000000 		.4byte	.LVL257
 8897 11a4 5C000000 		.4byte	.LVL261
 8898 11a8 0700     		.2byte	0x7
 8899 11aa 73       		.byte	0x73
 8900 11ab 00       		.sleb128 0
 8901 11ac 34       		.byte	0x34
 8902 11ad 25       		.byte	0x25
 8903 11ae 3A       		.byte	0x3a
 8904 11af 1E       		.byte	0x1e
 8905 11b0 9F       		.byte	0x9f
 8906 11b1 5C000000 		.4byte	.LVL261
 8907 11b5 7A000000 		.4byte	.LVL264
 8908 11b9 0900     		.2byte	0x9
 8909 11bb 71       		.byte	0x71
 8910 11bc 02       		.sleb128 2
 8911 11bd 94       		.byte	0x94
 8912 11be 01       		.byte	0x1
 8913 11bf 34       		.byte	0x34
 8914 11c0 25       		.byte	0x25
 8915 11c1 3A       		.byte	0x3a
 8916 11c2 1E       		.byte	0x1e
 8917 11c3 9F       		.byte	0x9f
 8918 11c4 00000000 		.4byte	0
 8919 11c8 00000000 		.4byte	0
 8920              	.LLST96:
ARM GAS  C:\Users\jsyoon\AppData\Local\Temp\ccHEUWmT.s 			page 158


 8921 11cc 7C000000 		.4byte	.LVL265
 8922 11d0 AC000000 		.4byte	.LVL272
 8923 11d4 0200     		.2byte	0x2
 8924 11d6 72       		.byte	0x72
 8925 11d7 01       		.sleb128 1
 8926 11d8 00000000 		.4byte	0
 8927 11dc 00000000 		.4byte	0
 8928              	.LLST97:
 8929 11e0 7C000000 		.4byte	.LVL265
 8930 11e4 8E000000 		.4byte	.LVL269
 8931 11e8 0700     		.2byte	0x7
 8932 11ea 75       		.byte	0x75
 8933 11eb 00       		.sleb128 0
 8934 11ec 34       		.byte	0x34
 8935 11ed 25       		.byte	0x25
 8936 11ee 3A       		.byte	0x3a
 8937 11ef 1E       		.byte	0x1e
 8938 11f0 9F       		.byte	0x9f
 8939 11f1 8E000000 		.4byte	.LVL269
 8940 11f5 AC000000 		.4byte	.LVL272
 8941 11f9 0900     		.2byte	0x9
 8942 11fb 72       		.byte	0x72
 8943 11fc 01       		.sleb128 1
 8944 11fd 94       		.byte	0x94
 8945 11fe 01       		.byte	0x1
 8946 11ff 34       		.byte	0x34
 8947 1200 25       		.byte	0x25
 8948 1201 3A       		.byte	0x3a
 8949 1202 1E       		.byte	0x1e
 8950 1203 9F       		.byte	0x9f
 8951 1204 00000000 		.4byte	0
 8952 1208 00000000 		.4byte	0
 8953              	.LLST98:
 8954 120c 7E000000 		.4byte	.LVL266
 8955 1210 AE000000 		.4byte	.LVL273
 8956 1214 0200     		.2byte	0x2
 8957 1216 72       		.byte	0x72
 8958 1217 02       		.sleb128 2
 8959 1218 00000000 		.4byte	0
 8960 121c 00000000 		.4byte	0
 8961              	.LLST99:
 8962 1220 7E000000 		.4byte	.LVL266
 8963 1224 96000000 		.4byte	.LVL270
 8964 1228 0700     		.2byte	0x7
 8965 122a 70       		.byte	0x70
 8966 122b 00       		.sleb128 0
 8967 122c 34       		.byte	0x34
 8968 122d 25       		.byte	0x25
 8969 122e 3A       		.byte	0x3a
 8970 122f 1E       		.byte	0x1e
 8971 1230 9F       		.byte	0x9f
 8972 1231 96000000 		.4byte	.LVL270
 8973 1235 AE000000 		.4byte	.LVL273
 8974 1239 0900     		.2byte	0x9
 8975 123b 72       		.byte	0x72
 8976 123c 02       		.sleb128 2
 8977 123d 94       		.byte	0x94
ARM GAS  C:\Users\jsyoon\AppData\Local\Temp\ccHEUWmT.s 			page 159


 8978 123e 01       		.byte	0x1
 8979 123f 34       		.byte	0x34
 8980 1240 25       		.byte	0x25
 8981 1241 3A       		.byte	0x3a
 8982 1242 1E       		.byte	0x1e
 8983 1243 9F       		.byte	0x9f
 8984 1244 00000000 		.4byte	0
 8985 1248 00000000 		.4byte	0
 8986              	.LLST100:
 8987 124c 80000000 		.4byte	.LVL267
 8988 1250 B0000000 		.4byte	.LVL274
 8989 1254 0200     		.2byte	0x2
 8990 1256 72       		.byte	0x72
 8991 1257 00       		.sleb128 0
 8992 1258 00000000 		.4byte	0
 8993 125c 00000000 		.4byte	0
 8994              	.LLST101:
 8995 1260 80000000 		.4byte	.LVL267
 8996 1264 9E000000 		.4byte	.LVL271
 8997 1268 0700     		.2byte	0x7
 8998 126a 73       		.byte	0x73
 8999 126b 00       		.sleb128 0
 9000 126c 34       		.byte	0x34
 9001 126d 25       		.byte	0x25
 9002 126e 3A       		.byte	0x3a
 9003 126f 1E       		.byte	0x1e
 9004 1270 9F       		.byte	0x9f
 9005 1271 9E000000 		.4byte	.LVL271
 9006 1275 B0000000 		.4byte	.LVL274
 9007 1279 0900     		.2byte	0x9
 9008 127b 72       		.byte	0x72
 9009 127c 00       		.sleb128 0
 9010 127d 94       		.byte	0x94
 9011 127e 01       		.byte	0x1
 9012 127f 34       		.byte	0x34
 9013 1280 25       		.byte	0x25
 9014 1281 3A       		.byte	0x3a
 9015 1282 1E       		.byte	0x1e
 9016 1283 9F       		.byte	0x9f
 9017 1284 00000000 		.4byte	0
 9018 1288 00000000 		.4byte	0
 9019              	.LLST102:
 9020 128c 00000000 		.4byte	.LVL275
 9021 1290 0A000000 		.4byte	.LVL276
 9022 1294 0100     		.2byte	0x1
 9023 1296 50       		.byte	0x50
 9024 1297 0A000000 		.4byte	.LVL276
 9025 129b 0E000000 		.4byte	.LVL277
 9026 129f 0400     		.2byte	0x4
 9027 12a1 F3       		.byte	0xf3
 9028 12a2 01       		.uleb128 0x1
 9029 12a3 50       		.byte	0x50
 9030 12a4 9F       		.byte	0x9f
 9031 12a5 0E000000 		.4byte	.LVL277
 9032 12a9 12000000 		.4byte	.LVL278
 9033 12ad 0100     		.2byte	0x1
 9034 12af 50       		.byte	0x50
ARM GAS  C:\Users\jsyoon\AppData\Local\Temp\ccHEUWmT.s 			page 160


 9035 12b0 12000000 		.4byte	.LVL278
 9036 12b4 1C000000 		.4byte	.LFE148
 9037 12b8 0400     		.2byte	0x4
 9038 12ba F3       		.byte	0xf3
 9039 12bb 01       		.uleb128 0x1
 9040 12bc 50       		.byte	0x50
 9041 12bd 9F       		.byte	0x9f
 9042 12be 00000000 		.4byte	0
 9043 12c2 00000000 		.4byte	0
 9044              	.LLST103:
 9045 12c6 00000000 		.4byte	.LVL279
 9046 12ca 0A000000 		.4byte	.LVL280
 9047 12ce 0100     		.2byte	0x1
 9048 12d0 50       		.byte	0x50
 9049 12d1 0A000000 		.4byte	.LVL280
 9050 12d5 0E000000 		.4byte	.LVL281
 9051 12d9 0400     		.2byte	0x4
 9052 12db F3       		.byte	0xf3
 9053 12dc 01       		.uleb128 0x1
 9054 12dd 50       		.byte	0x50
 9055 12de 9F       		.byte	0x9f
 9056 12df 0E000000 		.4byte	.LVL281
 9057 12e3 10000000 		.4byte	.LVL282
 9058 12e7 0100     		.2byte	0x1
 9059 12e9 50       		.byte	0x50
 9060 12ea 10000000 		.4byte	.LVL282
 9061 12ee 18000000 		.4byte	.LFE149
 9062 12f2 0400     		.2byte	0x4
 9063 12f4 F3       		.byte	0xf3
 9064 12f5 01       		.uleb128 0x1
 9065 12f6 50       		.byte	0x50
 9066 12f7 9F       		.byte	0x9f
 9067 12f8 00000000 		.4byte	0
 9068 12fc 00000000 		.4byte	0
 9069              	.LLST104:
 9070 1300 00000000 		.4byte	.LVL283
 9071 1304 0E000000 		.4byte	.LVL284
 9072 1308 0100     		.2byte	0x1
 9073 130a 50       		.byte	0x50
 9074 130b 0E000000 		.4byte	.LVL284
 9075 130f 18000000 		.4byte	.LFE150
 9076 1313 0400     		.2byte	0x4
 9077 1315 F3       		.byte	0xf3
 9078 1316 01       		.uleb128 0x1
 9079 1317 50       		.byte	0x50
 9080 1318 9F       		.byte	0x9f
 9081 1319 00000000 		.4byte	0
 9082 131d 00000000 		.4byte	0
 9083              	.LLST105:
 9084 1321 00000000 		.4byte	.LVL285
 9085 1325 0E000000 		.4byte	.LVL286
 9086 1329 0100     		.2byte	0x1
 9087 132b 50       		.byte	0x50
 9088 132c 0E000000 		.4byte	.LVL286
 9089 1330 18000000 		.4byte	.LFE151
 9090 1334 0400     		.2byte	0x4
 9091 1336 F3       		.byte	0xf3
ARM GAS  C:\Users\jsyoon\AppData\Local\Temp\ccHEUWmT.s 			page 161


 9092 1337 01       		.uleb128 0x1
 9093 1338 50       		.byte	0x50
 9094 1339 9F       		.byte	0x9f
 9095 133a 00000000 		.4byte	0
 9096 133e 00000000 		.4byte	0
 9097              	.LLST106:
 9098 1342 00000000 		.4byte	.LVL287
 9099 1346 0E000000 		.4byte	.LVL288
 9100 134a 0100     		.2byte	0x1
 9101 134c 50       		.byte	0x50
 9102 134d 0E000000 		.4byte	.LVL288
 9103 1351 18000000 		.4byte	.LFE152
 9104 1355 0400     		.2byte	0x4
 9105 1357 F3       		.byte	0xf3
 9106 1358 01       		.uleb128 0x1
 9107 1359 50       		.byte	0x50
 9108 135a 9F       		.byte	0x9f
 9109 135b 00000000 		.4byte	0
 9110 135f 00000000 		.4byte	0
 9111              	.LLST107:
 9112 1363 00000000 		.4byte	.LVL291
 9113 1367 10000000 		.4byte	.LVL292
 9114 136b 0100     		.2byte	0x1
 9115 136d 50       		.byte	0x50
 9116 136e 10000000 		.4byte	.LVL292
 9117 1372 20000000 		.4byte	.LFE155
 9118 1376 0400     		.2byte	0x4
 9119 1378 F3       		.byte	0xf3
 9120 1379 01       		.uleb128 0x1
 9121 137a 50       		.byte	0x50
 9122 137b 9F       		.byte	0x9f
 9123 137c 00000000 		.4byte	0
 9124 1380 00000000 		.4byte	0
 9125              	.LLST108:
 9126 1384 00000000 		.4byte	.LVL293
 9127 1388 10000000 		.4byte	.LVL294
 9128 138c 0100     		.2byte	0x1
 9129 138e 50       		.byte	0x50
 9130 138f 10000000 		.4byte	.LVL294
 9131 1393 20000000 		.4byte	.LFE156
 9132 1397 0400     		.2byte	0x4
 9133 1399 F3       		.byte	0xf3
 9134 139a 01       		.uleb128 0x1
 9135 139b 50       		.byte	0x50
 9136 139c 9F       		.byte	0x9f
 9137 139d 00000000 		.4byte	0
 9138 13a1 00000000 		.4byte	0
 9139              	.LLST109:
 9140 13a5 00000000 		.4byte	.LVL295
 9141 13a9 0E000000 		.4byte	.LVL296
 9142 13ad 0100     		.2byte	0x1
 9143 13af 50       		.byte	0x50
 9144 13b0 0E000000 		.4byte	.LVL296
 9145 13b4 18000000 		.4byte	.LFE157
 9146 13b8 0400     		.2byte	0x4
 9147 13ba F3       		.byte	0xf3
 9148 13bb 01       		.uleb128 0x1
ARM GAS  C:\Users\jsyoon\AppData\Local\Temp\ccHEUWmT.s 			page 162


 9149 13bc 50       		.byte	0x50
 9150 13bd 9F       		.byte	0x9f
 9151 13be 00000000 		.4byte	0
 9152 13c2 00000000 		.4byte	0
 9153              	.LLST110:
 9154 13c6 00000000 		.4byte	.LVL297
 9155 13ca 0E000000 		.4byte	.LVL298
 9156 13ce 0100     		.2byte	0x1
 9157 13d0 50       		.byte	0x50
 9158 13d1 0E000000 		.4byte	.LVL298
 9159 13d5 18000000 		.4byte	.LFE158
 9160 13d9 0400     		.2byte	0x4
 9161 13db F3       		.byte	0xf3
 9162 13dc 01       		.uleb128 0x1
 9163 13dd 50       		.byte	0x50
 9164 13de 9F       		.byte	0x9f
 9165 13df 00000000 		.4byte	0
 9166 13e3 00000000 		.4byte	0
 9167              	.LLST111:
 9168 13e7 00000000 		.4byte	.LVL299
 9169 13eb 0E000000 		.4byte	.LVL300
 9170 13ef 0100     		.2byte	0x1
 9171 13f1 50       		.byte	0x50
 9172 13f2 0E000000 		.4byte	.LVL300
 9173 13f6 18000000 		.4byte	.LFE159
 9174 13fa 0400     		.2byte	0x4
 9175 13fc F3       		.byte	0xf3
 9176 13fd 01       		.uleb128 0x1
 9177 13fe 50       		.byte	0x50
 9178 13ff 9F       		.byte	0x9f
 9179 1400 00000000 		.4byte	0
 9180 1404 00000000 		.4byte	0
 9181              	.LLST112:
 9182 1408 00000000 		.4byte	.LVL301
 9183 140c 3E000000 		.4byte	.LVL307
 9184 1410 0100     		.2byte	0x1
 9185 1412 50       		.byte	0x50
 9186 1413 3E000000 		.4byte	.LVL307
 9187 1417 42000000 		.4byte	.LVL308
 9188 141b 0400     		.2byte	0x4
 9189 141d F3       		.byte	0xf3
 9190 141e 01       		.uleb128 0x1
 9191 141f 50       		.byte	0x50
 9192 1420 9F       		.byte	0x9f
 9193 1421 42000000 		.4byte	.LVL308
 9194 1425 49000000 		.4byte	.LVL310-1
 9195 1429 0100     		.2byte	0x1
 9196 142b 50       		.byte	0x50
 9197 142c 49000000 		.4byte	.LVL310-1
 9198 1430 5A000000 		.4byte	.LVL312
 9199 1434 0400     		.2byte	0x4
 9200 1436 F3       		.byte	0xf3
 9201 1437 01       		.uleb128 0x1
 9202 1438 50       		.byte	0x50
 9203 1439 9F       		.byte	0x9f
 9204 143a 5A000000 		.4byte	.LVL312
 9205 143e 60000000 		.4byte	.LVL314
ARM GAS  C:\Users\jsyoon\AppData\Local\Temp\ccHEUWmT.s 			page 163


 9206 1442 0100     		.2byte	0x1
 9207 1444 50       		.byte	0x50
 9208 1445 60000000 		.4byte	.LVL314
 9209 1449 68000000 		.4byte	.LFE160
 9210 144d 0400     		.2byte	0x4
 9211 144f F3       		.byte	0xf3
 9212 1450 01       		.uleb128 0x1
 9213 1451 50       		.byte	0x50
 9214 1452 9F       		.byte	0x9f
 9215 1453 00000000 		.4byte	0
 9216 1457 00000000 		.4byte	0
 9217              	.LLST113:
 9218 145b 00000000 		.4byte	.LVL301
 9219 145f 3C000000 		.4byte	.LVL306
 9220 1463 0100     		.2byte	0x1
 9221 1465 51       		.byte	0x51
 9222 1466 3C000000 		.4byte	.LVL306
 9223 146a 42000000 		.4byte	.LVL308
 9224 146e 0400     		.2byte	0x4
 9225 1470 F3       		.byte	0xf3
 9226 1471 01       		.uleb128 0x1
 9227 1472 51       		.byte	0x51
 9228 1473 9F       		.byte	0x9f
 9229 1474 42000000 		.4byte	.LVL308
 9230 1478 44000000 		.4byte	.LVL309
 9231 147c 0100     		.2byte	0x1
 9232 147e 51       		.byte	0x51
 9233 147f 44000000 		.4byte	.LVL309
 9234 1483 5A000000 		.4byte	.LVL312
 9235 1487 0400     		.2byte	0x4
 9236 1489 F3       		.byte	0xf3
 9237 148a 01       		.uleb128 0x1
 9238 148b 51       		.byte	0x51
 9239 148c 9F       		.byte	0x9f
 9240 148d 5A000000 		.4byte	.LVL312
 9241 1491 5E000000 		.4byte	.LVL313
 9242 1495 0100     		.2byte	0x1
 9243 1497 51       		.byte	0x51
 9244 1498 5E000000 		.4byte	.LVL313
 9245 149c 68000000 		.4byte	.LFE160
 9246 14a0 0400     		.2byte	0x4
 9247 14a2 F3       		.byte	0xf3
 9248 14a3 01       		.uleb128 0x1
 9249 14a4 51       		.byte	0x51
 9250 14a5 9F       		.byte	0x9f
 9251 14a6 00000000 		.4byte	0
 9252 14aa 00000000 		.4byte	0
 9253              	.LLST114:
 9254 14ae 00000000 		.4byte	.LVL301
 9255 14b2 3E000000 		.4byte	.LVL307
 9256 14b6 0200     		.2byte	0x2
 9257 14b8 30       		.byte	0x30
 9258 14b9 9F       		.byte	0x9f
 9259 14ba 3E000000 		.4byte	.LVL307
 9260 14be 42000000 		.4byte	.LVL308
 9261 14c2 0100     		.2byte	0x1
 9262 14c4 50       		.byte	0x50
ARM GAS  C:\Users\jsyoon\AppData\Local\Temp\ccHEUWmT.s 			page 164


 9263 14c5 42000000 		.4byte	.LVL308
 9264 14c9 56000000 		.4byte	.LVL311
 9265 14cd 0200     		.2byte	0x2
 9266 14cf 30       		.byte	0x30
 9267 14d0 9F       		.byte	0x9f
 9268 14d1 56000000 		.4byte	.LVL311
 9269 14d5 5A000000 		.4byte	.LVL312
 9270 14d9 0100     		.2byte	0x1
 9271 14db 50       		.byte	0x50
 9272 14dc 5A000000 		.4byte	.LVL312
 9273 14e0 60000000 		.4byte	.LVL314
 9274 14e4 0200     		.2byte	0x2
 9275 14e6 30       		.byte	0x30
 9276 14e7 9F       		.byte	0x9f
 9277 14e8 60000000 		.4byte	.LVL314
 9278 14ec 68000000 		.4byte	.LFE160
 9279 14f0 0100     		.2byte	0x1
 9280 14f2 50       		.byte	0x50
 9281 14f3 00000000 		.4byte	0
 9282 14f7 00000000 		.4byte	0
 9283              	.LLST115:
 9284 14fb 00000000 		.4byte	.LVL301
 9285 14ff 1E000000 		.4byte	.LVL302
 9286 1503 0200     		.2byte	0x2
 9287 1505 30       		.byte	0x30
 9288 1506 9F       		.byte	0x9f
 9289 1507 1E000000 		.4byte	.LVL302
 9290 150b 20000000 		.4byte	.LVL303
 9291 150f 0700     		.2byte	0x7
 9292 1511 0A       		.byte	0xa
 9293 1512 0110     		.2byte	0x1001
 9294 1514 73       		.byte	0x73
 9295 1515 00       		.sleb128 0
 9296 1516 1C       		.byte	0x1c
 9297 1517 9F       		.byte	0x9f
 9298 1518 20000000 		.4byte	.LVL303
 9299 151c 22000000 		.4byte	.LVL304
 9300 1520 0700     		.2byte	0x7
 9301 1522 0A       		.byte	0xa
 9302 1523 0010     		.2byte	0x1000
 9303 1525 73       		.byte	0x73
 9304 1526 00       		.sleb128 0
 9305 1527 1C       		.byte	0x1c
 9306 1528 9F       		.byte	0x9f
 9307 1529 22000000 		.4byte	.LVL304
 9308 152d 28000000 		.4byte	.LVL305
 9309 1531 0700     		.2byte	0x7
 9310 1533 0A       		.byte	0xa
 9311 1534 0110     		.2byte	0x1001
 9312 1536 73       		.byte	0x73
 9313 1537 00       		.sleb128 0
 9314 1538 1C       		.byte	0x1c
 9315 1539 9F       		.byte	0x9f
 9316 153a 00000000 		.4byte	0
 9317 153e 00000000 		.4byte	0
 9318              	.LLST116:
 9319 1542 00000000 		.4byte	.LVL315
ARM GAS  C:\Users\jsyoon\AppData\Local\Temp\ccHEUWmT.s 			page 165


 9320 1546 20000000 		.4byte	.LVL317
 9321 154a 0100     		.2byte	0x1
 9322 154c 50       		.byte	0x50
 9323 154d 20000000 		.4byte	.LVL317
 9324 1551 32000000 		.4byte	.LVL318
 9325 1555 0400     		.2byte	0x4
 9326 1557 F3       		.byte	0xf3
 9327 1558 01       		.uleb128 0x1
 9328 1559 50       		.byte	0x50
 9329 155a 9F       		.byte	0x9f
 9330 155b 32000000 		.4byte	.LVL318
 9331 155f 40000000 		.4byte	.LVL320
 9332 1563 0100     		.2byte	0x1
 9333 1565 50       		.byte	0x50
 9334 1566 40000000 		.4byte	.LVL320
 9335 156a 4C000000 		.4byte	.LFE161
 9336 156e 0400     		.2byte	0x4
 9337 1570 F3       		.byte	0xf3
 9338 1571 01       		.uleb128 0x1
 9339 1572 50       		.byte	0x50
 9340 1573 9F       		.byte	0x9f
 9341 1574 00000000 		.4byte	0
 9342 1578 00000000 		.4byte	0
 9343              	.LLST117:
 9344 157c 00000000 		.4byte	.LVL315
 9345 1580 14000000 		.4byte	.LVL316
 9346 1584 0100     		.2byte	0x1
 9347 1586 51       		.byte	0x51
 9348 1587 14000000 		.4byte	.LVL316
 9349 158b 32000000 		.4byte	.LVL318
 9350 158f 0400     		.2byte	0x4
 9351 1591 F3       		.byte	0xf3
 9352 1592 01       		.uleb128 0x1
 9353 1593 51       		.byte	0x51
 9354 1594 9F       		.byte	0x9f
 9355 1595 32000000 		.4byte	.LVL318
 9356 1599 36000000 		.4byte	.LVL319
 9357 159d 0100     		.2byte	0x1
 9358 159f 51       		.byte	0x51
 9359 15a0 36000000 		.4byte	.LVL319
 9360 15a4 4C000000 		.4byte	.LFE161
 9361 15a8 0400     		.2byte	0x4
 9362 15aa F3       		.byte	0xf3
 9363 15ab 01       		.uleb128 0x1
 9364 15ac 51       		.byte	0x51
 9365 15ad 9F       		.byte	0x9f
 9366 15ae 00000000 		.4byte	0
 9367 15b2 00000000 		.4byte	0
 9368              	.LLST118:
 9369 15b6 00000000 		.4byte	.LVL321
 9370 15ba 10000000 		.4byte	.LVL324
 9371 15be 0100     		.2byte	0x1
 9372 15c0 50       		.byte	0x50
 9373 15c1 10000000 		.4byte	.LVL324
 9374 15c5 1C000000 		.4byte	.LFE162
 9375 15c9 0400     		.2byte	0x4
 9376 15cb F3       		.byte	0xf3
ARM GAS  C:\Users\jsyoon\AppData\Local\Temp\ccHEUWmT.s 			page 166


 9377 15cc 01       		.uleb128 0x1
 9378 15cd 50       		.byte	0x50
 9379 15ce 9F       		.byte	0x9f
 9380 15cf 00000000 		.4byte	0
 9381 15d3 00000000 		.4byte	0
 9382              	.LLST119:
 9383 15d7 00000000 		.4byte	.LVL321
 9384 15db 06000000 		.4byte	.LVL322
 9385 15df 0200     		.2byte	0x2
 9386 15e1 30       		.byte	0x30
 9387 15e2 9F       		.byte	0x9f
 9388 15e3 06000000 		.4byte	.LVL322
 9389 15e7 10000000 		.4byte	.LVL324
 9390 15eb 0E00     		.2byte	0xe
 9391 15ed 72       		.byte	0x72
 9392 15ee 00       		.sleb128 0
 9393 15ef 70       		.byte	0x70
 9394 15f0 00       		.sleb128 0
 9395 15f1 1A       		.byte	0x1a
 9396 15f2 0C       		.byte	0xc
 9397 15f3 7F3F0100 		.4byte	0x13f7f
 9398 15f7 1A       		.byte	0x1a
 9399 15f8 30       		.byte	0x30
 9400 15f9 2E       		.byte	0x2e
 9401 15fa 9F       		.byte	0x9f
 9402 15fb 10000000 		.4byte	.LVL324
 9403 15ff 1C000000 		.4byte	.LFE162
 9404 1603 0F00     		.2byte	0xf
 9405 1605 72       		.byte	0x72
 9406 1606 00       		.sleb128 0
 9407 1607 F3       		.byte	0xf3
 9408 1608 01       		.uleb128 0x1
 9409 1609 50       		.byte	0x50
 9410 160a 1A       		.byte	0x1a
 9411 160b 0C       		.byte	0xc
 9412 160c 7F3F0100 		.4byte	0x13f7f
 9413 1610 1A       		.byte	0x1a
 9414 1611 30       		.byte	0x30
 9415 1612 2E       		.byte	0x2e
 9416 1613 9F       		.byte	0x9f
 9417 1614 00000000 		.4byte	0
 9418 1618 00000000 		.4byte	0
 9419              	.LLST120:
 9420 161c 00000000 		.4byte	.LVL321
 9421 1620 06000000 		.4byte	.LVL322
 9422 1624 0200     		.2byte	0x2
 9423 1626 30       		.byte	0x30
 9424 1627 9F       		.byte	0x9f
 9425 1628 06000000 		.4byte	.LVL322
 9426 162c 08000000 		.4byte	.LVL323
 9427 1630 0900     		.2byte	0x9
 9428 1632 72       		.byte	0x72
 9429 1633 00       		.sleb128 0
 9430 1634 0C       		.byte	0xc
 9431 1635 7F3F0100 		.4byte	0x13f7f
 9432 1639 1A       		.byte	0x1a
 9433 163a 9F       		.byte	0x9f
ARM GAS  C:\Users\jsyoon\AppData\Local\Temp\ccHEUWmT.s 			page 167


 9434 163b 08000000 		.4byte	.LVL323
 9435 163f 1C000000 		.4byte	.LFE162
 9436 1643 0100     		.2byte	0x1
 9437 1645 53       		.byte	0x53
 9438 1646 00000000 		.4byte	0
 9439 164a 00000000 		.4byte	0
 9440              	.LLST121:
 9441 164e 00000000 		.4byte	.LVL325
 9442 1652 06000000 		.4byte	.LVL326
 9443 1656 0100     		.2byte	0x1
 9444 1658 50       		.byte	0x50
 9445 1659 06000000 		.4byte	.LVL326
 9446 165d 1C000000 		.4byte	.LFE163
 9447 1661 0400     		.2byte	0x4
 9448 1663 F3       		.byte	0xf3
 9449 1664 01       		.uleb128 0x1
 9450 1665 50       		.byte	0x50
 9451 1666 9F       		.byte	0x9f
 9452 1667 00000000 		.4byte	0
 9453 166b 00000000 		.4byte	0
 9454              	.LLST122:
 9455 166f 00000000 		.4byte	.LVL327
 9456 1673 26000000 		.4byte	.LVL333
 9457 1677 0100     		.2byte	0x1
 9458 1679 50       		.byte	0x50
 9459 167a 26000000 		.4byte	.LVL333
 9460 167e 2C000000 		.4byte	.LVL334
 9461 1682 0400     		.2byte	0x4
 9462 1684 F3       		.byte	0xf3
 9463 1685 01       		.uleb128 0x1
 9464 1686 50       		.byte	0x50
 9465 1687 9F       		.byte	0x9f
 9466 1688 2C000000 		.4byte	.LVL334
 9467 168c 2E000000 		.4byte	.LVL335
 9468 1690 0100     		.2byte	0x1
 9469 1692 50       		.byte	0x50
 9470 1693 2E000000 		.4byte	.LVL335
 9471 1697 38000000 		.4byte	.LFE164
 9472 169b 0400     		.2byte	0x4
 9473 169d F3       		.byte	0xf3
 9474 169e 01       		.uleb128 0x1
 9475 169f 50       		.byte	0x50
 9476 16a0 9F       		.byte	0x9f
 9477 16a1 00000000 		.4byte	0
 9478 16a5 00000000 		.4byte	0
 9479              	.LLST123:
 9480 16a9 00000000 		.4byte	.LVL327
 9481 16ad 26000000 		.4byte	.LVL333
 9482 16b1 0200     		.2byte	0x2
 9483 16b3 30       		.byte	0x30
 9484 16b4 9F       		.byte	0x9f
 9485 16b5 26000000 		.4byte	.LVL333
 9486 16b9 2C000000 		.4byte	.LVL334
 9487 16bd 0100     		.2byte	0x1
 9488 16bf 50       		.byte	0x50
 9489 16c0 2C000000 		.4byte	.LVL334
 9490 16c4 2E000000 		.4byte	.LVL335
ARM GAS  C:\Users\jsyoon\AppData\Local\Temp\ccHEUWmT.s 			page 168


 9491 16c8 0200     		.2byte	0x2
 9492 16ca 30       		.byte	0x30
 9493 16cb 9F       		.byte	0x9f
 9494 16cc 2E000000 		.4byte	.LVL335
 9495 16d0 38000000 		.4byte	.LFE164
 9496 16d4 0100     		.2byte	0x1
 9497 16d6 50       		.byte	0x50
 9498 16d7 00000000 		.4byte	0
 9499 16db 00000000 		.4byte	0
 9500              	.LLST124:
 9501 16df 00000000 		.4byte	.LVL327
 9502 16e3 04000000 		.4byte	.LVL328
 9503 16e7 0200     		.2byte	0x2
 9504 16e9 30       		.byte	0x30
 9505 16ea 9F       		.byte	0x9f
 9506 16eb 04000000 		.4byte	.LVL328
 9507 16ef 0A000000 		.4byte	.LVL329
 9508 16f3 0500     		.2byte	0x5
 9509 16f5 72       		.byte	0x72
 9510 16f6 00       		.sleb128 0
 9511 16f7 34       		.byte	0x34
 9512 16f8 1A       		.byte	0x1a
 9513 16f9 9F       		.byte	0x9f
 9514 16fa 0A000000 		.4byte	.LVL329
 9515 16fe 10000000 		.4byte	.LVL330
 9516 1702 0100     		.2byte	0x1
 9517 1704 52       		.byte	0x52
 9518 1705 12000000 		.4byte	.LVL331
 9519 1709 1C000000 		.4byte	.LVL332
 9520 170d 0800     		.2byte	0x8
 9521 170f 70       		.byte	0x70
 9522 1710 00       		.sleb128 0
 9523 1711 34       		.byte	0x34
 9524 1712 25       		.byte	0x25
 9525 1713 74       		.byte	0x74
 9526 1714 00       		.sleb128 0
 9527 1715 1A       		.byte	0x1a
 9528 1716 9F       		.byte	0x9f
 9529 1717 2C000000 		.4byte	.LVL334
 9530 171b 2E000000 		.4byte	.LVL335
 9531 171f 0800     		.2byte	0x8
 9532 1721 70       		.byte	0x70
 9533 1722 00       		.sleb128 0
 9534 1723 34       		.byte	0x34
 9535 1724 25       		.byte	0x25
 9536 1725 74       		.byte	0x74
 9537 1726 00       		.sleb128 0
 9538 1727 1A       		.byte	0x1a
 9539 1728 9F       		.byte	0x9f
 9540 1729 2E000000 		.4byte	.LVL335
 9541 172d 32000000 		.4byte	.LVL336
 9542 1731 0900     		.2byte	0x9
 9543 1733 F3       		.byte	0xf3
 9544 1734 01       		.uleb128 0x1
 9545 1735 50       		.byte	0x50
 9546 1736 34       		.byte	0x34
 9547 1737 25       		.byte	0x25
ARM GAS  C:\Users\jsyoon\AppData\Local\Temp\ccHEUWmT.s 			page 169


 9548 1738 74       		.byte	0x74
 9549 1739 00       		.sleb128 0
 9550 173a 1A       		.byte	0x1a
 9551 173b 9F       		.byte	0x9f
 9552 173c 00000000 		.4byte	0
 9553 1740 00000000 		.4byte	0
 9554              	.LLST125:
 9555 1744 00000000 		.4byte	.LVL327
 9556 1748 12000000 		.4byte	.LVL331
 9557 174c 0200     		.2byte	0x2
 9558 174e 30       		.byte	0x30
 9559 174f 9F       		.byte	0x9f
 9560 1750 00000000 		.4byte	0
 9561 1754 00000000 		.4byte	0
 9562              	.LLST126:
 9563 1758 00000000 		.4byte	.LVL337
 9564 175c 08000000 		.4byte	.LVL338
 9565 1760 0100     		.2byte	0x1
 9566 1762 50       		.byte	0x50
 9567 1763 08000000 		.4byte	.LVL338
 9568 1767 1C000000 		.4byte	.LFE165
 9569 176b 0400     		.2byte	0x4
 9570 176d F3       		.byte	0xf3
 9571 176e 01       		.uleb128 0x1
 9572 176f 50       		.byte	0x50
 9573 1770 9F       		.byte	0x9f
 9574 1771 00000000 		.4byte	0
 9575 1775 00000000 		.4byte	0
 9576              	.LLST127:
 9577 1779 00000000 		.4byte	.LVL337
 9578 177d 08000000 		.4byte	.LVL338
 9579 1781 0500     		.2byte	0x5
 9580 1783 70       		.byte	0x70
 9581 1784 00       		.sleb128 0
 9582 1785 34       		.byte	0x34
 9583 1786 25       		.byte	0x25
 9584 1787 9F       		.byte	0x9f
 9585 1788 08000000 		.4byte	.LVL338
 9586 178c 1C000000 		.4byte	.LFE165
 9587 1790 0600     		.2byte	0x6
 9588 1792 F3       		.byte	0xf3
 9589 1793 01       		.uleb128 0x1
 9590 1794 50       		.byte	0x50
 9591 1795 34       		.byte	0x34
 9592 1796 25       		.byte	0x25
 9593 1797 9F       		.byte	0x9f
 9594 1798 00000000 		.4byte	0
 9595 179c 00000000 		.4byte	0
 9596              		.section	.debug_aranges,"",%progbits
 9597 0000 CC010000 		.4byte	0x1cc
 9598 0004 0200     		.2byte	0x2
 9599 0006 00000000 		.4byte	.Ldebug_info0
 9600 000a 04       		.byte	0x4
 9601 000b 00       		.byte	0
 9602 000c 0000     		.2byte	0
 9603 000e 0000     		.2byte	0
 9604 0010 00000000 		.4byte	.LFB113
ARM GAS  C:\Users\jsyoon\AppData\Local\Temp\ccHEUWmT.s 			page 170


 9605 0014 0C000000 		.4byte	.LFE113-.LFB113
 9606 0018 00000000 		.4byte	.LFB114
 9607 001c 18000000 		.4byte	.LFE114-.LFB114
 9608 0020 00000000 		.4byte	.LFB115
 9609 0024 44000000 		.4byte	.LFE115-.LFB115
 9610 0028 00000000 		.4byte	.LFB112
 9611 002c 48000000 		.4byte	.LFE112-.LFB112
 9612 0030 00000000 		.4byte	.LFB116
 9613 0034 10000000 		.4byte	.LFE116-.LFB116
 9614 0038 00000000 		.4byte	.LFB117
 9615 003c 44000000 		.4byte	.LFE117-.LFB117
 9616 0040 00000000 		.4byte	.LFB111
 9617 0044 8C000000 		.4byte	.LFE111-.LFB111
 9618 0048 00000000 		.4byte	.LFB118
 9619 004c 40000000 		.4byte	.LFE118-.LFB118
 9620 0050 00000000 		.4byte	.LFB119
 9621 0054 30000000 		.4byte	.LFE119-.LFB119
 9622 0058 00000000 		.4byte	.LFB120
 9623 005c EC000000 		.4byte	.LFE120-.LFB120
 9624 0060 00000000 		.4byte	.LFB121
 9625 0064 0C000000 		.4byte	.LFE121-.LFB121
 9626 0068 00000000 		.4byte	.LFB122
 9627 006c 5C000000 		.4byte	.LFE122-.LFB122
 9628 0070 00000000 		.4byte	.LFB123
 9629 0074 0C000000 		.4byte	.LFE123-.LFB123
 9630 0078 00000000 		.4byte	.LFB124
 9631 007c DC000000 		.4byte	.LFE124-.LFB124
 9632 0080 00000000 		.4byte	.LFB125
 9633 0084 0E000000 		.4byte	.LFE125-.LFB125
 9634 0088 00000000 		.4byte	.LFB126
 9635 008c 58000000 		.4byte	.LFE126-.LFB126
 9636 0090 00000000 		.4byte	.LFB127
 9637 0094 00010000 		.4byte	.LFE127-.LFB127
 9638 0098 00000000 		.4byte	.LFB128
 9639 009c 14000000 		.4byte	.LFE128-.LFB128
 9640 00a0 00000000 		.4byte	.LFB129
 9641 00a4 94000000 		.4byte	.LFE129-.LFB129
 9642 00a8 00000000 		.4byte	.LFB130
 9643 00ac 5C000000 		.4byte	.LFE130-.LFB130
 9644 00b0 00000000 		.4byte	.LFB131
 9645 00b4 28000000 		.4byte	.LFE131-.LFB131
 9646 00b8 00000000 		.4byte	.LFB132
 9647 00bc 18000000 		.4byte	.LFE132-.LFB132
 9648 00c0 00000000 		.4byte	.LFB133
 9649 00c4 24000000 		.4byte	.LFE133-.LFB133
 9650 00c8 00000000 		.4byte	.LFB134
 9651 00cc 1C000000 		.4byte	.LFE134-.LFB134
 9652 00d0 00000000 		.4byte	.LFB135
 9653 00d4 0C000000 		.4byte	.LFE135-.LFB135
 9654 00d8 00000000 		.4byte	.LFB136
 9655 00dc 58000000 		.4byte	.LFE136-.LFB136
 9656 00e0 00000000 		.4byte	.LFB137
 9657 00e4 2C000000 		.4byte	.LFE137-.LFB137
 9658 00e8 00000000 		.4byte	.LFB138
 9659 00ec 10000000 		.4byte	.LFE138-.LFB138
 9660 00f0 00000000 		.4byte	.LFB139
 9661 00f4 2C000000 		.4byte	.LFE139-.LFB139
ARM GAS  C:\Users\jsyoon\AppData\Local\Temp\ccHEUWmT.s 			page 171


 9662 00f8 00000000 		.4byte	.LFB140
 9663 00fc 30000000 		.4byte	.LFE140-.LFB140
 9664 0100 00000000 		.4byte	.LFB141
 9665 0104 40000000 		.4byte	.LFE141-.LFB141
 9666 0108 00000000 		.4byte	.LFB142
 9667 010c 30000000 		.4byte	.LFE142-.LFB142
 9668 0110 00000000 		.4byte	.LFB143
 9669 0114 24000000 		.4byte	.LFE143-.LFB143
 9670 0118 00000000 		.4byte	.LFB144
 9671 011c 4C000000 		.4byte	.LFE144-.LFB144
 9672 0120 00000000 		.4byte	.LFB145
 9673 0124 34000000 		.4byte	.LFE145-.LFB145
 9674 0128 00000000 		.4byte	.LFB146
 9675 012c BC000000 		.4byte	.LFE146-.LFB146
 9676 0130 00000000 		.4byte	.LFB147
 9677 0134 0C000000 		.4byte	.LFE147-.LFB147
 9678 0138 00000000 		.4byte	.LFB148
 9679 013c 1C000000 		.4byte	.LFE148-.LFB148
 9680 0140 00000000 		.4byte	.LFB149
 9681 0144 18000000 		.4byte	.LFE149-.LFB149
 9682 0148 00000000 		.4byte	.LFB150
 9683 014c 18000000 		.4byte	.LFE150-.LFB150
 9684 0150 00000000 		.4byte	.LFB151
 9685 0154 18000000 		.4byte	.LFE151-.LFB151
 9686 0158 00000000 		.4byte	.LFB152
 9687 015c 18000000 		.4byte	.LFE152-.LFB152
 9688 0160 00000000 		.4byte	.LFB153
 9689 0164 1C000000 		.4byte	.LFE153-.LFB153
 9690 0168 00000000 		.4byte	.LFB154
 9691 016c 1C000000 		.4byte	.LFE154-.LFB154
 9692 0170 00000000 		.4byte	.LFB155
 9693 0174 20000000 		.4byte	.LFE155-.LFB155
 9694 0178 00000000 		.4byte	.LFB156
 9695 017c 20000000 		.4byte	.LFE156-.LFB156
 9696 0180 00000000 		.4byte	.LFB157
 9697 0184 18000000 		.4byte	.LFE157-.LFB157
 9698 0188 00000000 		.4byte	.LFB158
 9699 018c 18000000 		.4byte	.LFE158-.LFB158
 9700 0190 00000000 		.4byte	.LFB159
 9701 0194 18000000 		.4byte	.LFE159-.LFB159
 9702 0198 00000000 		.4byte	.LFB160
 9703 019c 68000000 		.4byte	.LFE160-.LFB160
 9704 01a0 00000000 		.4byte	.LFB161
 9705 01a4 4C000000 		.4byte	.LFE161-.LFB161
 9706 01a8 00000000 		.4byte	.LFB162
 9707 01ac 1C000000 		.4byte	.LFE162-.LFB162
 9708 01b0 00000000 		.4byte	.LFB163
 9709 01b4 1C000000 		.4byte	.LFE163-.LFB163
 9710 01b8 00000000 		.4byte	.LFB164
 9711 01bc 38000000 		.4byte	.LFE164-.LFB164
 9712 01c0 00000000 		.4byte	.LFB165
 9713 01c4 1C000000 		.4byte	.LFE165-.LFB165
 9714 01c8 00000000 		.4byte	0
 9715 01cc 00000000 		.4byte	0
 9716              		.section	.debug_ranges,"",%progbits
 9717              	.Ldebug_ranges0:
 9718 0000 30000000 		.4byte	.LBB88
ARM GAS  C:\Users\jsyoon\AppData\Local\Temp\ccHEUWmT.s 			page 172


 9719 0004 32000000 		.4byte	.LBE88
 9720 0008 36000000 		.4byte	.LBB92
 9721 000c 4A000000 		.4byte	.LBE92
 9722 0010 E2000000 		.4byte	.LBB99
 9723 0014 EC000000 		.4byte	.LBE99
 9724 0018 00000000 		.4byte	0
 9725 001c 00000000 		.4byte	0
 9726 0020 4E000000 		.4byte	.LBB93
 9727 0024 50000000 		.4byte	.LBE93
 9728 0028 54000000 		.4byte	.LBB96
 9729 002c 6A000000 		.4byte	.LBE96
 9730 0030 00000000 		.4byte	0
 9731 0034 00000000 		.4byte	0
 9732 0038 22000000 		.4byte	.LBB100
 9733 003c 24000000 		.4byte	.LBE100
 9734 0040 28000000 		.4byte	.LBB112
 9735 0044 30000000 		.4byte	.LBE112
 9736 0048 40000000 		.4byte	.LBB115
 9737 004c 44000000 		.4byte	.LBE115
 9738 0050 00000000 		.4byte	0
 9739 0054 00000000 		.4byte	0
 9740 0058 24000000 		.4byte	.LBB104
 9741 005c 26000000 		.4byte	.LBE104
 9742 0060 30000000 		.4byte	.LBB113
 9743 0064 38000000 		.4byte	.LBE113
 9744 0068 44000000 		.4byte	.LBB116
 9745 006c 48000000 		.4byte	.LBE116
 9746 0070 00000000 		.4byte	0
 9747 0074 00000000 		.4byte	0
 9748 0078 26000000 		.4byte	.LBB108
 9749 007c 28000000 		.4byte	.LBE108
 9750 0080 38000000 		.4byte	.LBB114
 9751 0084 40000000 		.4byte	.LBE114
 9752 0088 48000000 		.4byte	.LBB117
 9753 008c 4C000000 		.4byte	.LBE117
 9754 0090 00000000 		.4byte	0
 9755 0094 00000000 		.4byte	0
 9756 0098 32000000 		.4byte	.LBB120
 9757 009c 34000000 		.4byte	.LBE120
 9758 00a0 38000000 		.4byte	.LBB124
 9759 00a4 4C000000 		.4byte	.LBE124
 9760 00a8 D4000000 		.4byte	.LBB131
 9761 00ac DC000000 		.4byte	.LBE131
 9762 00b0 00000000 		.4byte	0
 9763 00b4 00000000 		.4byte	0
 9764 00b8 50000000 		.4byte	.LBB125
 9765 00bc 52000000 		.4byte	.LBE125
 9766 00c0 56000000 		.4byte	.LBB128
 9767 00c4 6C000000 		.4byte	.LBE128
 9768 00c8 00000000 		.4byte	0
 9769 00cc 00000000 		.4byte	0
 9770 00d0 20000000 		.4byte	.LBB132
 9771 00d4 22000000 		.4byte	.LBE132
 9772 00d8 26000000 		.4byte	.LBB145
 9773 00dc 28000000 		.4byte	.LBE145
 9774 00e0 30000000 		.4byte	.LBB147
 9775 00e4 36000000 		.4byte	.LBE147
ARM GAS  C:\Users\jsyoon\AppData\Local\Temp\ccHEUWmT.s 			page 173


 9776 00e8 42000000 		.4byte	.LBB150
 9777 00ec 46000000 		.4byte	.LBE150
 9778 00f0 00000000 		.4byte	0
 9779 00f4 00000000 		.4byte	0
 9780 00f8 22000000 		.4byte	.LBB137
 9781 00fc 24000000 		.4byte	.LBE137
 9782 0100 28000000 		.4byte	.LBB146
 9783 0104 30000000 		.4byte	.LBE146
 9784 0108 3E000000 		.4byte	.LBB149
 9785 010c 42000000 		.4byte	.LBE149
 9786 0110 00000000 		.4byte	0
 9787 0114 00000000 		.4byte	0
 9788 0118 24000000 		.4byte	.LBB141
 9789 011c 26000000 		.4byte	.LBE141
 9790 0120 36000000 		.4byte	.LBB148
 9791 0124 3E000000 		.4byte	.LBE148
 9792 0128 46000000 		.4byte	.LBB151
 9793 012c 4A000000 		.4byte	.LBE151
 9794 0130 00000000 		.4byte	0
 9795 0134 00000000 		.4byte	0
 9796 0138 14000000 		.4byte	.LBB152
 9797 013c 2A000000 		.4byte	.LBE152
 9798 0140 F2000000 		.4byte	.LBB168
 9799 0144 F6000000 		.4byte	.LBE168
 9800 0148 00000000 		.4byte	0
 9801 014c 00000000 		.4byte	0
 9802 0150 2E000000 		.4byte	.LBB155
 9803 0154 30000000 		.4byte	.LBE155
 9804 0158 34000000 		.4byte	.LBB159
 9805 015c 48000000 		.4byte	.LBE159
 9806 0160 F6000000 		.4byte	.LBB169
 9807 0164 00010000 		.4byte	.LBE169
 9808 0168 00000000 		.4byte	0
 9809 016c 00000000 		.4byte	0
 9810 0170 4C000000 		.4byte	.LBB160
 9811 0174 4E000000 		.4byte	.LBE160
 9812 0178 52000000 		.4byte	.LBB163
 9813 017c 68000000 		.4byte	.LBE163
 9814 0180 00000000 		.4byte	0
 9815 0184 00000000 		.4byte	0
 9816 0188 6A000000 		.4byte	.LBB164
 9817 018c 6C000000 		.4byte	.LBE164
 9818 0190 70000000 		.4byte	.LBB167
 9819 0194 86000000 		.4byte	.LBE167
 9820 0198 00000000 		.4byte	0
 9821 019c 00000000 		.4byte	0
 9822 01a0 46000000 		.4byte	.LBB170
 9823 01a4 4A000000 		.4byte	.LBE170
 9824 01a8 58000000 		.4byte	.LBB185
 9825 01ac 60000000 		.4byte	.LBE185
 9826 01b0 74000000 		.4byte	.LBB189
 9827 01b4 78000000 		.4byte	.LBE189
 9828 01b8 00000000 		.4byte	0
 9829 01bc 00000000 		.4byte	0
 9830 01c0 4A000000 		.4byte	.LBB174
 9831 01c4 4C000000 		.4byte	.LBE174
 9832 01c8 60000000 		.4byte	.LBB186
ARM GAS  C:\Users\jsyoon\AppData\Local\Temp\ccHEUWmT.s 			page 174


 9833 01cc 68000000 		.4byte	.LBE186
 9834 01d0 78000000 		.4byte	.LBB190
 9835 01d4 7C000000 		.4byte	.LBE190
 9836 01d8 00000000 		.4byte	0
 9837 01dc 00000000 		.4byte	0
 9838 01e0 4C000000 		.4byte	.LBB178
 9839 01e4 4E000000 		.4byte	.LBE178
 9840 01e8 68000000 		.4byte	.LBB187
 9841 01ec 70000000 		.4byte	.LBE187
 9842 01f0 7C000000 		.4byte	.LBB191
 9843 01f4 80000000 		.4byte	.LBE191
 9844 01f8 00000000 		.4byte	0
 9845 01fc 00000000 		.4byte	0
 9846 0200 4E000000 		.4byte	.LBB182
 9847 0204 58000000 		.4byte	.LBE182
 9848 0208 70000000 		.4byte	.LBB188
 9849 020c 74000000 		.4byte	.LBE188
 9850 0210 00000000 		.4byte	0
 9851 0214 00000000 		.4byte	0
 9852 0218 4A000000 		.4byte	.LBB196
 9853 021c 4C000000 		.4byte	.LBE196
 9854 0220 50000000 		.4byte	.LBB211
 9855 0224 54000000 		.4byte	.LBE211
 9856 0228 5C000000 		.4byte	.LBB214
 9857 022c 60000000 		.4byte	.LBE214
 9858 0230 70000000 		.4byte	.LBB219
 9859 0234 74000000 		.4byte	.LBE219
 9860 0238 00000000 		.4byte	0
 9861 023c 00000000 		.4byte	0
 9862 0240 4C000000 		.4byte	.LBB201
 9863 0244 4E000000 		.4byte	.LBE201
 9864 0248 54000000 		.4byte	.LBB212
 9865 024c 58000000 		.4byte	.LBE212
 9866 0250 60000000 		.4byte	.LBB215
 9867 0254 64000000 		.4byte	.LBE215
 9868 0258 68000000 		.4byte	.LBB217
 9869 025c 6C000000 		.4byte	.LBE217
 9870 0260 00000000 		.4byte	0
 9871 0264 00000000 		.4byte	0
 9872 0268 4E000000 		.4byte	.LBB206
 9873 026c 50000000 		.4byte	.LBE206
 9874 0270 58000000 		.4byte	.LBB213
 9875 0274 5C000000 		.4byte	.LBE213
 9876 0278 64000000 		.4byte	.LBB216
 9877 027c 68000000 		.4byte	.LBE216
 9878 0280 6C000000 		.4byte	.LBB218
 9879 0284 70000000 		.4byte	.LBE218
 9880 0288 00000000 		.4byte	0
 9881 028c 00000000 		.4byte	0
 9882 0290 80000000 		.4byte	.LBB220
 9883 0294 82000000 		.4byte	.LBE220
 9884 0298 86000000 		.4byte	.LBB232
 9885 029c 8E000000 		.4byte	.LBE232
 9886 02a0 9E000000 		.4byte	.LBB235
 9887 02a4 A2000000 		.4byte	.LBE235
 9888 02a8 00000000 		.4byte	0
 9889 02ac 00000000 		.4byte	0
ARM GAS  C:\Users\jsyoon\AppData\Local\Temp\ccHEUWmT.s 			page 175


 9890 02b0 82000000 		.4byte	.LBB224
 9891 02b4 84000000 		.4byte	.LBE224
 9892 02b8 8E000000 		.4byte	.LBB233
 9893 02bc 96000000 		.4byte	.LBE233
 9894 02c0 A2000000 		.4byte	.LBB236
 9895 02c4 A6000000 		.4byte	.LBE236
 9896 02c8 00000000 		.4byte	0
 9897 02cc 00000000 		.4byte	0
 9898 02d0 84000000 		.4byte	.LBB228
 9899 02d4 86000000 		.4byte	.LBE228
 9900 02d8 96000000 		.4byte	.LBB234
 9901 02dc 9E000000 		.4byte	.LBE234
 9902 02e0 A6000000 		.4byte	.LBB237
 9903 02e4 AA000000 		.4byte	.LBE237
 9904 02e8 00000000 		.4byte	0
 9905 02ec 00000000 		.4byte	0
 9906 02f0 00000000 		.4byte	.LFB113
 9907 02f4 0C000000 		.4byte	.LFE113
 9908 02f8 00000000 		.4byte	.LFB114
 9909 02fc 18000000 		.4byte	.LFE114
 9910 0300 00000000 		.4byte	.LFB115
 9911 0304 44000000 		.4byte	.LFE115
 9912 0308 00000000 		.4byte	.LFB112
 9913 030c 48000000 		.4byte	.LFE112
 9914 0310 00000000 		.4byte	.LFB116
 9915 0314 10000000 		.4byte	.LFE116
 9916 0318 00000000 		.4byte	.LFB117
 9917 031c 44000000 		.4byte	.LFE117
 9918 0320 00000000 		.4byte	.LFB111
 9919 0324 8C000000 		.4byte	.LFE111
 9920 0328 00000000 		.4byte	.LFB118
 9921 032c 40000000 		.4byte	.LFE118
 9922 0330 00000000 		.4byte	.LFB119
 9923 0334 30000000 		.4byte	.LFE119
 9924 0338 00000000 		.4byte	.LFB120
 9925 033c EC000000 		.4byte	.LFE120
 9926 0340 00000000 		.4byte	.LFB121
 9927 0344 0C000000 		.4byte	.LFE121
 9928 0348 00000000 		.4byte	.LFB122
 9929 034c 5C000000 		.4byte	.LFE122
 9930 0350 00000000 		.4byte	.LFB123
 9931 0354 0C000000 		.4byte	.LFE123
 9932 0358 00000000 		.4byte	.LFB124
 9933 035c DC000000 		.4byte	.LFE124
 9934 0360 00000000 		.4byte	.LFB125
 9935 0364 0E000000 		.4byte	.LFE125
 9936 0368 00000000 		.4byte	.LFB126
 9937 036c 58000000 		.4byte	.LFE126
 9938 0370 00000000 		.4byte	.LFB127
 9939 0374 00010000 		.4byte	.LFE127
 9940 0378 00000000 		.4byte	.LFB128
 9941 037c 14000000 		.4byte	.LFE128
 9942 0380 00000000 		.4byte	.LFB129
 9943 0384 94000000 		.4byte	.LFE129
 9944 0388 00000000 		.4byte	.LFB130
 9945 038c 5C000000 		.4byte	.LFE130
 9946 0390 00000000 		.4byte	.LFB131
ARM GAS  C:\Users\jsyoon\AppData\Local\Temp\ccHEUWmT.s 			page 176


 9947 0394 28000000 		.4byte	.LFE131
 9948 0398 00000000 		.4byte	.LFB132
 9949 039c 18000000 		.4byte	.LFE132
 9950 03a0 00000000 		.4byte	.LFB133
 9951 03a4 24000000 		.4byte	.LFE133
 9952 03a8 00000000 		.4byte	.LFB134
 9953 03ac 1C000000 		.4byte	.LFE134
 9954 03b0 00000000 		.4byte	.LFB135
 9955 03b4 0C000000 		.4byte	.LFE135
 9956 03b8 00000000 		.4byte	.LFB136
 9957 03bc 58000000 		.4byte	.LFE136
 9958 03c0 00000000 		.4byte	.LFB137
 9959 03c4 2C000000 		.4byte	.LFE137
 9960 03c8 00000000 		.4byte	.LFB138
 9961 03cc 10000000 		.4byte	.LFE138
 9962 03d0 00000000 		.4byte	.LFB139
 9963 03d4 2C000000 		.4byte	.LFE139
 9964 03d8 00000000 		.4byte	.LFB140
 9965 03dc 30000000 		.4byte	.LFE140
 9966 03e0 00000000 		.4byte	.LFB141
 9967 03e4 40000000 		.4byte	.LFE141
 9968 03e8 00000000 		.4byte	.LFB142
 9969 03ec 30000000 		.4byte	.LFE142
 9970 03f0 00000000 		.4byte	.LFB143
 9971 03f4 24000000 		.4byte	.LFE143
 9972 03f8 00000000 		.4byte	.LFB144
 9973 03fc 4C000000 		.4byte	.LFE144
 9974 0400 00000000 		.4byte	.LFB145
 9975 0404 34000000 		.4byte	.LFE145
 9976 0408 00000000 		.4byte	.LFB146
 9977 040c BC000000 		.4byte	.LFE146
 9978 0410 00000000 		.4byte	.LFB147
 9979 0414 0C000000 		.4byte	.LFE147
 9980 0418 00000000 		.4byte	.LFB148
 9981 041c 1C000000 		.4byte	.LFE148
 9982 0420 00000000 		.4byte	.LFB149
 9983 0424 18000000 		.4byte	.LFE149
 9984 0428 00000000 		.4byte	.LFB150
 9985 042c 18000000 		.4byte	.LFE150
 9986 0430 00000000 		.4byte	.LFB151
 9987 0434 18000000 		.4byte	.LFE151
 9988 0438 00000000 		.4byte	.LFB152
 9989 043c 18000000 		.4byte	.LFE152
 9990 0440 00000000 		.4byte	.LFB153
 9991 0444 1C000000 		.4byte	.LFE153
 9992 0448 00000000 		.4byte	.LFB154
 9993 044c 1C000000 		.4byte	.LFE154
 9994 0450 00000000 		.4byte	.LFB155
 9995 0454 20000000 		.4byte	.LFE155
 9996 0458 00000000 		.4byte	.LFB156
 9997 045c 20000000 		.4byte	.LFE156
 9998 0460 00000000 		.4byte	.LFB157
 9999 0464 18000000 		.4byte	.LFE157
 10000 0468 00000000 		.4byte	.LFB158
 10001 046c 18000000 		.4byte	.LFE158
 10002 0470 00000000 		.4byte	.LFB159
 10003 0474 18000000 		.4byte	.LFE159
ARM GAS  C:\Users\jsyoon\AppData\Local\Temp\ccHEUWmT.s 			page 177


 10004 0478 00000000 		.4byte	.LFB160
 10005 047c 68000000 		.4byte	.LFE160
 10006 0480 00000000 		.4byte	.LFB161
 10007 0484 4C000000 		.4byte	.LFE161
 10008 0488 00000000 		.4byte	.LFB162
 10009 048c 1C000000 		.4byte	.LFE162
 10010 0490 00000000 		.4byte	.LFB163
 10011 0494 1C000000 		.4byte	.LFE163
 10012 0498 00000000 		.4byte	.LFB164
 10013 049c 38000000 		.4byte	.LFE164
 10014 04a0 00000000 		.4byte	.LFB165
 10015 04a4 1C000000 		.4byte	.LFE165
 10016 04a8 00000000 		.4byte	0
 10017 04ac 00000000 		.4byte	0
 10018              		.section	.debug_line,"",%progbits
 10019              	.Ldebug_line0:
 10020 0000 4B0A0000 		.section	.debug_str,"MS",%progbits,1
 10020      0200AA01 
 10020      00000201 
 10020      FB0E0D00 
 10020      01010101 
 10021              	.LASF27:
 10022 0000 43414C49 		.ascii	"CALIBR\000"
 10022      425200
 10023              	.LASF89:
 10024 0007 4E657753 		.ascii	"NewState\000"
 10024      74617465 
 10024      00
 10025              	.LASF185:
 10026 0010 5254435F 		.ascii	"RTC_ClearFlag\000"
 10026      436C6561 
 10026      72466C61 
 10026      6700
 10027              	.LASF120:
 10028 001e 5254435F 		.ascii	"RTC_AlarmSubSecondMask\000"
 10028      416C6172 
 10028      6D537562 
 10028      5365636F 
 10028      6E644D61 
 10029              	.LASF137:
 10030 0035 5254435F 		.ascii	"RTC_CoarseCalibCmd\000"
 10030      436F6172 
 10030      73654361 
 10030      6C696243 
 10030      6D6400
 10031              	.LASF17:
 10032 0048 466C6167 		.ascii	"FlagStatus\000"
 10032      53746174 
 10032      757300
 10033              	.LASF191:
 10034 0053 453A5C4D 		.ascii	"E:\\Maker\\BLDC\\test_eval\\try2\\OROCA-BLDC_R15080"
 10034      616B6572 
 10034      5C424C44 
 10034      435C7465 
 10034      73745F65 
 10035 0081 3700     		.ascii	"7\000"
 10036              	.LASF128:
ARM GAS  C:\Users\jsyoon\AppData\Local\Temp\ccHEUWmT.s 			page 178


 10037 0083 5254435F 		.ascii	"RTC_DayLightSaving\000"
 10037      4461794C 
 10037      69676874 
 10037      53617669 
 10037      6E6700
 10038              	.LASF112:
 10039 0096 5254435F 		.ascii	"RTC_AlarmStruct\000"
 10039      416C6172 
 10039      6D537472 
 10039      75637400 
 10040              	.LASF4:
 10041 00a6 5F5F7569 		.ascii	"__uint8_t\000"
 10041      6E74385F 
 10041      7400
 10042              	.LASF118:
 10043 00b0 5254435F 		.ascii	"RTC_AlarmSubSecondConfig\000"
 10043      416C6172 
 10043      6D537562 
 10043      5365636F 
 10043      6E64436F 
 10044              	.LASF42:
 10045 00c9 424B5033 		.ascii	"BKP3R\000"
 10045      5200
 10046              	.LASF90:
 10047 00cf 5254435F 		.ascii	"RTC_Init\000"
 10047      496E6974 
 10047      00
 10048              	.LASF127:
 10049 00d8 5254435F 		.ascii	"RTC_DayLightSavingConfig\000"
 10049      4461794C 
 10049      69676874 
 10049      53617669 
 10049      6E67436F 
 10050              	.LASF19:
 10051 00f1 44495341 		.ascii	"DISABLE\000"
 10051      424C4500 
 10052              	.LASF54:
 10053 00f9 424B5031 		.ascii	"BKP15R\000"
 10053      355200
 10054              	.LASF10:
 10055 0100 6C6F6E67 		.ascii	"long long unsigned int\000"
 10055      206C6F6E 
 10055      6720756E 
 10055      7369676E 
 10055      65642069 
 10056              	.LASF131:
 10057 0117 5254435F 		.ascii	"RTC_GetStoreOperation\000"
 10057      47657453 
 10057      746F7265 
 10057      4F706572 
 10057      6174696F 
 10058              	.LASF99:
 10059 012d 5254435F 		.ascii	"RTC_SetTime\000"
 10059      53657454 
 10059      696D6500 
 10060              	.LASF145:
 10061 0139 72656361 		.ascii	"recalpfcount\000"
ARM GAS  C:\Users\jsyoon\AppData\Local\Temp\ccHEUWmT.s 			page 179


 10061      6C706663 
 10061      6F756E74 
 10061      00
 10062              	.LASF78:
 10063 0146 5254435F 		.ascii	"RTC_AlarmTypeDef\000"
 10063      416C6172 
 10063      6D547970 
 10063      65446566 
 10063      00
 10064              	.LASF194:
 10065 0157 49544D5F 		.ascii	"ITM_RxBuffer\000"
 10065      52784275 
 10065      66666572 
 10065      00
 10066              	.LASF59:
 10067 0164 5254435F 		.ascii	"RTC_TypeDef\000"
 10067      54797065 
 10067      44656600 
 10068              	.LASF146:
 10069 0170 5254435F 		.ascii	"RTC_TimeStampCmd\000"
 10069      54696D65 
 10069      5374616D 
 10069      70436D64 
 10069      00
 10070              	.LASF157:
 10071 0181 5254435F 		.ascii	"RTC_TamperCmd\000"
 10071      54616D70 
 10071      6572436D 
 10071      6400
 10072              	.LASF9:
 10073 018f 6C6F6E67 		.ascii	"long long int\000"
 10073      206C6F6E 
 10073      6720696E 
 10073      7400
 10074              	.LASF0:
 10075 019d 7369676E 		.ascii	"signed char\000"
 10075      65642063 
 10075      68617200 
 10076              	.LASF192:
 10077 01a9 5254435F 		.ascii	"RTC_EnterInitMode\000"
 10077      456E7465 
 10077      72496E69 
 10077      744D6F64 
 10077      6500
 10078              	.LASF96:
 10079 01bb 77757477 		.ascii	"wutwfstatus\000"
 10079      66737461 
 10079      74757300 
 10080              	.LASF126:
 10081 01c7 5254435F 		.ascii	"RTC_WakeUpCmd\000"
 10081      57616B65 
 10081      5570436D 
 10081      6400
 10082              	.LASF33:
 10083 01d5 54535353 		.ascii	"TSSSR\000"
 10083      5200
 10084              	.LASF102:
ARM GAS  C:\Users\jsyoon\AppData\Local\Temp\ccHEUWmT.s 			page 180


 10085 01db 746D7072 		.ascii	"tmpreg\000"
 10085      656700
 10086              	.LASF139:
 10087 01e2 5254435F 		.ascii	"RTC_CalibOutputConfig\000"
 10087      43616C69 
 10087      624F7574 
 10087      70757443 
 10087      6F6E6669 
 10088              	.LASF143:
 10089 01f8 5254435F 		.ascii	"RTC_SmoothCalibPlusPulses\000"
 10089      536D6F6F 
 10089      74684361 
 10089      6C696250 
 10089      6C757350 
 10090              	.LASF6:
 10091 0212 6C6F6E67 		.ascii	"long int\000"
 10091      20696E74 
 10091      00
 10092              	.LASF183:
 10093 021b 5254435F 		.ascii	"RTC_FLAG\000"
 10093      464C4147 
 10093      00
 10094              	.LASF64:
 10095 0224 5254435F 		.ascii	"RTC_Hours\000"
 10095      486F7572 
 10095      7300
 10096              	.LASF88:
 10097 022e 5254435F 		.ascii	"RTC_InitStruct\000"
 10097      496E6974 
 10097      53747275 
 10097      637400
 10098              	.LASF43:
 10099 023d 424B5034 		.ascii	"BKP4R\000"
 10099      5200
 10100              	.LASF37:
 10101 0243 414C524D 		.ascii	"ALRMBSSR\000"
 10101      42535352 
 10101      00
 10102              	.LASF108:
 10103 024c 5254435F 		.ascii	"RTC_DateStructInit\000"
 10103      44617465 
 10103      53747275 
 10103      6374496E 
 10103      697400
 10104              	.LASF151:
 10105 025f 746D7074 		.ascii	"tmptime\000"
 10105      696D6500 
 10106              	.LASF55:
 10107 0267 424B5031 		.ascii	"BKP16R\000"
 10107      365200
 10108              	.LASF20:
 10109 026e 454E4142 		.ascii	"ENABLE\000"
 10109      4C4500
 10110              	.LASF106:
 10111 0275 5254435F 		.ascii	"RTC_SetDate\000"
 10111      53657444 
 10111      61746500 
ARM GAS  C:\Users\jsyoon\AppData\Local\Temp\ccHEUWmT.s 			page 181


 10112              	.LASF111:
 10113 0281 5254435F 		.ascii	"RTC_Alarm\000"
 10113      416C6172 
 10113      6D00
 10114              	.LASF86:
 10115 028b 5254435F 		.ascii	"RTC_StructInit\000"
 10115      53747275 
 10115      6374496E 
 10115      697400
 10116              	.LASF182:
 10117 029a 5254435F 		.ascii	"RTC_GetFlagStatus\000"
 10117      47657446 
 10117      6C616753 
 10117      74617475 
 10117      7300
 10118              	.LASF101:
 10119 02ac 5254435F 		.ascii	"RTC_TimeStruct\000"
 10119      54696D65 
 10119      53747275 
 10119      637400
 10120              	.LASF173:
 10121 02bb 5254435F 		.ascii	"RTC_TimeStampPin\000"
 10121      54696D65 
 10121      5374616D 
 10121      7050696E 
 10121      00
 10122              	.LASF176:
 10123 02cc 5254435F 		.ascii	"RTC_SynchroShiftConfig\000"
 10123      53796E63 
 10123      68726F53 
 10123      68696674 
 10123      436F6E66 
 10124              	.LASF7:
 10125 02e3 5F5F7569 		.ascii	"__uint32_t\000"
 10125      6E743332 
 10125      5F7400
 10126              	.LASF171:
 10127 02ee 5254435F 		.ascii	"RTC_TamperPin\000"
 10127      54616D70 
 10127      65725069 
 10127      6E00
 10128              	.LASF24:
 10129 02fc 4572726F 		.ascii	"ErrorStatus\000"
 10129      72537461 
 10129      74757300 
 10130              	.LASF34:
 10131 0308 43414C52 		.ascii	"CALR\000"
 10131      00
 10132              	.LASF186:
 10133 030d 5254435F 		.ascii	"RTC_GetITStatus\000"
 10133      47657449 
 10133      54537461 
 10133      74757300 
 10134              	.LASF158:
 10135 031d 5254435F 		.ascii	"RTC_TamperFilterConfig\000"
 10135      54616D70 
 10135      65724669 
ARM GAS  C:\Users\jsyoon\AppData\Local\Temp\ccHEUWmT.s 			page 182


 10135      6C746572 
 10135      436F6E66 
 10136              	.LASF184:
 10137 0334 62697473 		.ascii	"bitstatus\000"
 10137      74617475 
 10137      7300
 10138              	.LASF142:
 10139 033e 5254435F 		.ascii	"RTC_SmoothCalibPeriod\000"
 10139      536D6F6F 
 10139      74684361 
 10139      6C696250 
 10139      6572696F 
 10140              	.LASF144:
 10141 0354 5254435F 		.ascii	"RTC_SmouthCalibMinusPulsesValue\000"
 10141      536D6F75 
 10141      74684361 
 10141      6C69624D 
 10141      696E7573 
 10142              	.LASF18:
 10143 0374 49545374 		.ascii	"ITStatus\000"
 10143      61747573 
 10143      00
 10144              	.LASF36:
 10145 037d 414C524D 		.ascii	"ALRMASSR\000"
 10145      41535352 
 10145      00
 10146              	.LASF119:
 10147 0386 5254435F 		.ascii	"RTC_AlarmSubSecondValue\000"
 10147      416C6172 
 10147      6D537562 
 10147      5365636F 
 10147      6E645661 
 10148              	.LASF180:
 10149 039e 5254435F 		.ascii	"RTC_ITConfig\000"
 10149      4954436F 
 10149      6E666967 
 10149      00
 10150              	.LASF16:
 10151 03ab 52455345 		.ascii	"RESET\000"
 10151      5400
 10152              	.LASF32:
 10153 03b1 54534452 		.ascii	"TSDR\000"
 10153      00
 10154              	.LASF25:
 10155 03b6 50524552 		.ascii	"PRER\000"
 10155      00
 10156              	.LASF148:
 10157 03bb 5254435F 		.ascii	"RTC_GetTimeStamp\000"
 10157      47657454 
 10157      696D6553 
 10157      74616D70 
 10157      00
 10158              	.LASF44:
 10159 03cc 424B5035 		.ascii	"BKP5R\000"
 10159      5200
 10160              	.LASF169:
 10161 03d2 5254435F 		.ascii	"RTC_ReadBackupRegister\000"
ARM GAS  C:\Users\jsyoon\AppData\Local\Temp\ccHEUWmT.s 			page 183


 10161      52656164 
 10161      4261636B 
 10161      75705265 
 10161      67697374 
 10162              	.LASF193:
 10163 03e9 5254435F 		.ascii	"RTC_ExitInitMode\000"
 10163      45786974 
 10163      496E6974 
 10163      4D6F6465 
 10163      00
 10164              	.LASF56:
 10165 03fa 424B5031 		.ascii	"BKP17R\000"
 10165      375200
 10166              	.LASF8:
 10167 0401 6C6F6E67 		.ascii	"long unsigned int\000"
 10167      20756E73 
 10167      69676E65 
 10167      6420696E 
 10167      7400
 10168              	.LASF69:
 10169 0413 5254435F 		.ascii	"RTC_WeekDay\000"
 10169      5765656B 
 10169      44617900 
 10170              	.LASF178:
 10171 041f 5254435F 		.ascii	"RTC_ShiftSubFS\000"
 10171      53686966 
 10171      74537562 
 10171      465300
 10172              	.LASF81:
 10173 042e 696E6974 		.ascii	"initstatus\000"
 10173      73746174 
 10173      757300
 10174              	.LASF79:
 10175 0439 696E6974 		.ascii	"initcounter\000"
 10175      636F756E 
 10175      74657200 
 10176              	.LASF95:
 10177 0445 77757463 		.ascii	"wutcounter\000"
 10177      6F756E74 
 10177      657200
 10178              	.LASF129:
 10179 0450 5254435F 		.ascii	"RTC_StoreOperation\000"
 10179      53746F72 
 10179      654F7065 
 10179      72617469 
 10179      6F6E00
 10180              	.LASF66:
 10181 0463 5254435F 		.ascii	"RTC_Seconds\000"
 10181      5365636F 
 10181      6E647300 
 10182              	.LASF92:
 10183 046f 73796E63 		.ascii	"synchrocounter\000"
 10183      68726F63 
 10183      6F756E74 
 10183      657200
 10184              	.LASF35:
 10185 047e 54414643 		.ascii	"TAFCR\000"
ARM GAS  C:\Users\jsyoon\AppData\Local\Temp\ccHEUWmT.s 			page 184


 10185      5200
 10186              	.LASF155:
 10187 0484 5254435F 		.ascii	"RTC_Tamper\000"
 10187      54616D70 
 10187      657200
 10188              	.LASF133:
 10189 048f 5254435F 		.ascii	"RTC_Output\000"
 10189      4F757470 
 10189      757400
 10190              	.LASF149:
 10191 049a 5254435F 		.ascii	"RTC_StampTimeStruct\000"
 10191      5374616D 
 10191      7054696D 
 10191      65537472 
 10191      75637400 
 10192              	.LASF49:
 10193 04ae 424B5031 		.ascii	"BKP10R\000"
 10193      305200
 10194              	.LASF31:
 10195 04b5 54535452 		.ascii	"TSTR\000"
 10195      00
 10196              	.LASF132:
 10197 04ba 5254435F 		.ascii	"RTC_OutputConfig\000"
 10197      4F757470 
 10197      7574436F 
 10197      6E666967 
 10197      00
 10198              	.LASF130:
 10199 04cb 5254435F 		.ascii	"RTC_GetWakeUpCounter\000"
 10199      47657457 
 10199      616B6555 
 10199      70436F75 
 10199      6E746572 
 10200              	.LASF190:
 10201 04e0 43686962 		.ascii	"ChibiOS_2.6.6/ext/stdperiph_stm32f4/src/stm32f4xx_r"
 10201      694F535F 
 10201      322E362E 
 10201      362F6578 
 10201      742F7374 
 10202 0513 74632E63 		.ascii	"tc.c\000"
 10202      00
 10203              	.LASF71:
 10204 0518 5254435F 		.ascii	"RTC_Date\000"
 10204      44617465 
 10204      00
 10205              	.LASF45:
 10206 0521 424B5036 		.ascii	"BKP6R\000"
 10206      5200
 10207              	.LASF61:
 10208 0527 5254435F 		.ascii	"RTC_AsynchPrediv\000"
 10208      4173796E 
 10208      63685072 
 10208      65646976 
 10208      00
 10209              	.LASF98:
 10210 0538 5254435F 		.ascii	"RTC_BypassShadowCmd\000"
 10210      42797061 
ARM GAS  C:\Users\jsyoon\AppData\Local\Temp\ccHEUWmT.s 			page 185


 10210      73735368 
 10210      61646F77 
 10210      436D6400 
 10211              	.LASF57:
 10212 054c 424B5031 		.ascii	"BKP18R\000"
 10212      385200
 10213              	.LASF103:
 10214 0553 5254435F 		.ascii	"RTC_TimeStructInit\000"
 10214      54696D65 
 10214      53747275 
 10214      6374496E 
 10214      697400
 10215              	.LASF107:
 10216 0566 5254435F 		.ascii	"RTC_DateStruct\000"
 10216      44617465 
 10216      53747275 
 10216      637400
 10217              	.LASF140:
 10218 0575 5254435F 		.ascii	"RTC_CalibOutput\000"
 10218      43616C69 
 10218      624F7574 
 10218      70757400 
 10219              	.LASF122:
 10220 0585 5254435F 		.ascii	"RTC_WakeUpClockConfig\000"
 10220      57616B65 
 10220      5570436C 
 10220      6F636B43 
 10220      6F6E6669 
 10221              	.LASF15:
 10222 059b 73697A65 		.ascii	"sizetype\000"
 10222      74797065 
 10222      00
 10223              	.LASF22:
 10224 05a4 4552524F 		.ascii	"ERROR\000"
 10224      5200
 10225              	.LASF152:
 10226 05aa 746D7064 		.ascii	"tmpdate\000"
 10226      61746500 
 10227              	.LASF153:
 10228 05b2 5254435F 		.ascii	"RTC_GetTimeStampSubSecond\000"
 10228      47657454 
 10228      696D6553 
 10228      74616D70 
 10228      53756253 
 10229              	.LASF60:
 10230 05cc 5254435F 		.ascii	"RTC_HourFormat\000"
 10230      486F7572 
 10230      466F726D 
 10230      617400
 10231              	.LASF156:
 10232 05db 5254435F 		.ascii	"RTC_TamperTrigger\000"
 10232      54616D70 
 10232      65725472 
 10232      69676765 
 10232      7200
 10233              	.LASF21:
 10234 05ed 46756E63 		.ascii	"FunctionalState\000"
ARM GAS  C:\Users\jsyoon\AppData\Local\Temp\ccHEUWmT.s 			page 186


 10234      74696F6E 
 10234      616C5374 
 10234      61746500 
 10235              	.LASF164:
 10236 05fd 5254435F 		.ascii	"RTC_TimeStampOnTamperDetectionCmd\000"
 10236      54696D65 
 10236      5374616D 
 10236      704F6E54 
 10236      616D7065 
 10237              	.LASF50:
 10238 061f 424B5031 		.ascii	"BKP11R\000"
 10238      315200
 10239              	.LASF125:
 10240 0626 5254435F 		.ascii	"RTC_WakeUpCounter\000"
 10240      57616B65 
 10240      5570436F 
 10240      756E7465 
 10240      7200
 10241              	.LASF68:
 10242 0638 5254435F 		.ascii	"RTC_TimeTypeDef\000"
 10242      54696D65 
 10242      54797065 
 10242      44656600 
 10243              	.LASF121:
 10244 0648 5254435F 		.ascii	"RTC_GetAlarmSubSecond\000"
 10244      47657441 
 10244      6C61726D 
 10244      53756253 
 10244      65636F6E 
 10245              	.LASF28:
 10246 065e 414C524D 		.ascii	"ALRMAR\000"
 10246      415200
 10247              	.LASF189:
 10248 0665 474E5520 		.ascii	"GNU C 4.8.4 20140526 (release) [ARM/embedded-4_8-br"
 10248      4320342E 
 10248      382E3420 
 10248      32303134 
 10248      30353236 
 10249 0698 616E6368 		.ascii	"anch revision 211358] -mcpu=cortex-m4 -mfloat-abi=h"
 10249      20726576 
 10249      6973696F 
 10249      6E203231 
 10249      31333538 
 10250 06cb 61726420 		.ascii	"ard -mfpu=fpv4-sp-d16 -mno-thumb-interwork -mthumb "
 10250      2D6D6670 
 10250      753D6670 
 10250      76342D73 
 10250      702D6431 
 10251 06fe 2D676764 		.ascii	"-ggdb -O2 -std=gnu99 -fomit-frame-pointer -falign-f"
 10251      62202D4F 
 10251      32202D73 
 10251      74643D67 
 10251      6E753939 
 10252 0731 756E6374 		.ascii	"unctions=16 -ffunction-sections -fdata-sections -fn"
 10252      696F6E73 
 10252      3D313620 
 10252      2D666675 
ARM GAS  C:\Users\jsyoon\AppData\Local\Temp\ccHEUWmT.s 			page 187


 10252      6E637469 
 10253 0764 6F2D636F 		.ascii	"o-common -fsingle-precision-constant\000"
 10253      6D6D6F6E 
 10253      202D6673 
 10253      696E676C 
 10253      652D7072 
 10254              	.LASF73:
 10255 0789 5254435F 		.ascii	"RTC_DateTypeDef\000"
 10255      44617465 
 10255      54797065 
 10255      44656600 
 10256              	.LASF46:
 10257 0799 424B5037 		.ascii	"BKP7R\000"
 10257      5200
 10258              	.LASF110:
 10259 079f 5254435F 		.ascii	"RTC_SetAlarm\000"
 10259      53657441 
 10259      6C61726D 
 10259      00
 10260              	.LASF75:
 10261 07ac 5254435F 		.ascii	"RTC_AlarmMask\000"
 10261      416C6172 
 10261      6D4D6173 
 10261      6B00
 10262              	.LASF58:
 10263 07ba 424B5031 		.ascii	"BKP19R\000"
 10263      395200
 10264              	.LASF154:
 10265 07c1 5254435F 		.ascii	"RTC_TamperTriggerConfig\000"
 10265      54616D70 
 10265      65725472 
 10265      69676765 
 10265      72436F6E 
 10266              	.LASF115:
 10267 07d9 5254435F 		.ascii	"RTC_AlarmCmd\000"
 10267      416C6172 
 10267      6D436D64 
 10267      00
 10268              	.LASF123:
 10269 07e6 5254435F 		.ascii	"RTC_WakeUpClock\000"
 10269      57616B65 
 10269      5570436C 
 10269      6F636B00 
 10270              	.LASF97:
 10271 07f6 5254435F 		.ascii	"RTC_RefClockCmd\000"
 10271      52656643 
 10271      6C6F636B 
 10271      436D6400 
 10272              	.LASF104:
 10273 0806 5254435F 		.ascii	"RTC_GetTime\000"
 10273      47657454 
 10273      696D6500 
 10274              	.LASF136:
 10275 0812 5254435F 		.ascii	"RTC_CalibSign\000"
 10275      43616C69 
 10275      62536967 
 10275      6E00
ARM GAS  C:\Users\jsyoon\AppData\Local\Temp\ccHEUWmT.s 			page 188


 10276              	.LASF13:
 10277 0820 696E7433 		.ascii	"int32_t\000"
 10277      325F7400 
 10278              	.LASF1:
 10279 0828 756E7369 		.ascii	"unsigned char\000"
 10279      676E6564 
 10279      20636861 
 10279      7200
 10280              	.LASF134:
 10281 0836 5254435F 		.ascii	"RTC_OutputPolarity\000"
 10281      4F757470 
 10281      7574506F 
 10281      6C617269 
 10281      747900
 10282              	.LASF161:
 10283 0849 5254435F 		.ascii	"RTC_TamperSamplingFreq\000"
 10283      54616D70 
 10283      65725361 
 10283      6D706C69 
 10283      6E674672 
 10284              	.LASF150:
 10285 0860 5254435F 		.ascii	"RTC_StampDateStruct\000"
 10285      5374616D 
 10285      70446174 
 10285      65537472 
 10285      75637400 
 10286              	.LASF166:
 10287 0874 5254435F 		.ascii	"RTC_WriteBackupRegister\000"
 10287      57726974 
 10287      65426163 
 10287      6B757052 
 10287      65676973 
 10288              	.LASF94:
 10289 088c 5254435F 		.ascii	"RTC_DeInit\000"
 10289      4465496E 
 10289      697400
 10290              	.LASF2:
 10291 0897 73686F72 		.ascii	"short int\000"
 10291      7420696E 
 10291      7400
 10292              	.LASF162:
 10293 08a1 5254435F 		.ascii	"RTC_TamperPinsPrechargeDuration\000"
 10293      54616D70 
 10293      65725069 
 10293      6E735072 
 10293      65636861 
 10294              	.LASF39:
 10295 08c1 424B5030 		.ascii	"BKP0R\000"
 10295      5200
 10296              	.LASF85:
 10297 08c7 62636468 		.ascii	"bcdhigh\000"
 10297      69676800 
 10298              	.LASF51:
 10299 08cf 424B5031 		.ascii	"BKP12R\000"
 10299      325200
 10300              	.LASF65:
 10301 08d6 5254435F 		.ascii	"RTC_Minutes\000"
ARM GAS  C:\Users\jsyoon\AppData\Local\Temp\ccHEUWmT.s 			page 189


 10301      4D696E75 
 10301      74657300 
 10302              	.LASF29:
 10303 08e2 414C524D 		.ascii	"ALRMBR\000"
 10303      425200
 10304              	.LASF91:
 10305 08e9 5254435F 		.ascii	"RTC_WaitForSynchro\000"
 10305      57616974 
 10305      466F7253 
 10305      796E6368 
 10305      726F00
 10306              	.LASF14:
 10307 08fc 75696E74 		.ascii	"uint32_t\000"
 10307      33325F74 
 10307      00
 10308              	.LASF167:
 10309 0905 5254435F 		.ascii	"RTC_BKP_DR\000"
 10309      424B505F 
 10309      445200
 10310              	.LASF170:
 10311 0910 5254435F 		.ascii	"RTC_TamperPinSelection\000"
 10311      54616D70 
 10311      65725069 
 10311      6E53656C 
 10311      65637469 
 10312              	.LASF26:
 10313 0927 57555452 		.ascii	"WUTR\000"
 10313      00
 10314              	.LASF188:
 10315 092c 5254435F 		.ascii	"RTC_ClearITPendingBit\000"
 10315      436C6561 
 10315      72495450 
 10315      656E6469 
 10315      6E674269 
 10316              	.LASF159:
 10317 0942 5254435F 		.ascii	"RTC_TamperFilter\000"
 10317      54616D70 
 10317      65724669 
 10317      6C746572 
 10317      00
 10318              	.LASF109:
 10319 0953 5254435F 		.ascii	"RTC_GetDate\000"
 10319      47657444 
 10319      61746500 
 10320              	.LASF113:
 10321 095f 5254435F 		.ascii	"RTC_AlarmStructInit\000"
 10321      416C6172 
 10321      6D537472 
 10321      75637449 
 10321      6E697400 
 10322              	.LASF11:
 10323 0973 756E7369 		.ascii	"unsigned int\000"
 10323      676E6564 
 10323      20696E74 
 10323      00
 10324              	.LASF100:
 10325 0980 5254435F 		.ascii	"RTC_Format\000"
ARM GAS  C:\Users\jsyoon\AppData\Local\Temp\ccHEUWmT.s 			page 190


 10325      466F726D 
 10325      617400
 10326              	.LASF163:
 10327 098b 5254435F 		.ascii	"RTC_TamperPrechargeDuration\000"
 10327      54616D70 
 10327      65725072 
 10327      65636861 
 10327      72676544 
 10328              	.LASF177:
 10329 09a7 5254435F 		.ascii	"RTC_ShiftAdd1S\000"
 10329      53686966 
 10329      74416464 
 10329      315300
 10330              	.LASF116:
 10331 09b6 616C6172 		.ascii	"alarmcounter\000"
 10331      6D636F75 
 10331      6E746572 
 10331      00
 10332              	.LASF5:
 10333 09c3 5F5F696E 		.ascii	"__int32_t\000"
 10333      7433325F 
 10333      7400
 10334              	.LASF67:
 10335 09cd 5254435F 		.ascii	"RTC_H12\000"
 10335      48313200 
 10336              	.LASF74:
 10337 09d5 5254435F 		.ascii	"RTC_AlarmTime\000"
 10337      416C6172 
 10337      6D54696D 
 10337      6500
 10338              	.LASF40:
 10339 09e3 424B5031 		.ascii	"BKP1R\000"
 10339      5200
 10340              	.LASF47:
 10341 09e9 424B5038 		.ascii	"BKP8R\000"
 10341      5200
 10342              	.LASF52:
 10343 09ef 424B5031 		.ascii	"BKP13R\000"
 10343      335200
 10344              	.LASF3:
 10345 09f6 73686F72 		.ascii	"short unsigned int\000"
 10345      7420756E 
 10345      7369676E 
 10345      65642069 
 10345      6E7400
 10346              	.LASF147:
 10347 0a09 5254435F 		.ascii	"RTC_TimeStampEdge\000"
 10347      54696D65 
 10347      5374616D 
 10347      70456467 
 10347      6500
 10348              	.LASF174:
 10349 0a1b 5254435F 		.ascii	"RTC_OutputTypeConfig\000"
 10349      4F757470 
 10349      75745479 
 10349      7065436F 
 10349      6E666967 
ARM GAS  C:\Users\jsyoon\AppData\Local\Temp\ccHEUWmT.s 			page 191


 10350              	.LASF62:
 10351 0a30 5254435F 		.ascii	"RTC_SynchPrediv\000"
 10351      53796E63 
 10351      68507265 
 10351      64697600 
 10352              	.LASF76:
 10353 0a40 5254435F 		.ascii	"RTC_AlarmDateWeekDaySel\000"
 10353      416C6172 
 10353      6D446174 
 10353      65576565 
 10353      6B446179 
 10354              	.LASF70:
 10355 0a58 5254435F 		.ascii	"RTC_Month\000"
 10355      4D6F6E74 
 10355      6800
 10356              	.LASF38:
 10357 0a62 52455345 		.ascii	"RESERVED7\000"
 10357      52564544 
 10357      3700
 10358              	.LASF77:
 10359 0a6c 5254435F 		.ascii	"RTC_AlarmDateWeekDay\000"
 10359      416C6172 
 10359      6D446174 
 10359      65576565 
 10359      6B446179 
 10360              	.LASF48:
 10361 0a81 424B5039 		.ascii	"BKP9R\000"
 10361      5200
 10362              	.LASF30:
 10363 0a87 53484946 		.ascii	"SHIFTR\000"
 10363      545200
 10364              	.LASF87:
 10365 0a8e 5254435F 		.ascii	"RTC_WriteProtectionCmd\000"
 10365      57726974 
 10365      6550726F 
 10365      74656374 
 10365      696F6E43 
 10366              	.LASF135:
 10367 0aa5 5254435F 		.ascii	"RTC_CoarseCalibConfig\000"
 10367      436F6172 
 10367      73654361 
 10367      6C696243 
 10367      6F6E6669 
 10368              	.LASF80:
 10369 0abb 73746174 		.ascii	"status\000"
 10369      757300
 10370              	.LASF72:
 10371 0ac2 5254435F 		.ascii	"RTC_Year\000"
 10371      59656172 
 10371      00
 10372              	.LASF83:
 10373 0acb 5254435F 		.ascii	"RTC_ByteToBcd2\000"
 10373      42797465 
 10373      546F4263 
 10373      643200
 10374              	.LASF114:
 10375 0ada 5254435F 		.ascii	"RTC_GetAlarm\000"
ARM GAS  C:\Users\jsyoon\AppData\Local\Temp\ccHEUWmT.s 			page 192


 10375      47657441 
 10375      6C61726D 
 10375      00
 10376              	.LASF84:
 10377 0ae7 56616C75 		.ascii	"Value\000"
 10377      6500
 10378              	.LASF12:
 10379 0aed 75696E74 		.ascii	"uint8_t\000"
 10379      385F7400 
 10380              	.LASF168:
 10381 0af5 44617461 		.ascii	"Data\000"
 10381      00
 10382              	.LASF23:
 10383 0afa 53554343 		.ascii	"SUCCESS\000"
 10383      45535300 
 10384              	.LASF82:
 10385 0b02 5254435F 		.ascii	"RTC_Bcd2ToByte\000"
 10385      42636432 
 10385      546F4279 
 10385      746500
 10386              	.LASF138:
 10387 0b11 5254435F 		.ascii	"RTC_CalibOutputCmd\000"
 10387      43616C69 
 10387      624F7574 
 10387      70757443 
 10387      6D6400
 10388              	.LASF175:
 10389 0b24 5254435F 		.ascii	"RTC_OutputType\000"
 10389      4F757470 
 10389      75745479 
 10389      706500
 10390              	.LASF93:
 10391 0b33 73796E63 		.ascii	"synchrostatus\000"
 10391      68726F73 
 10391      74617475 
 10391      7300
 10392              	.LASF124:
 10393 0b41 5254435F 		.ascii	"RTC_SetWakeUpCounter\000"
 10393      53657457 
 10393      616B6555 
 10393      70436F75 
 10393      6E746572 
 10394              	.LASF63:
 10395 0b56 5254435F 		.ascii	"RTC_InitTypeDef\000"
 10395      496E6974 
 10395      54797065 
 10395      44656600 
 10396              	.LASF117:
 10397 0b66 616C6172 		.ascii	"alarmstatus\000"
 10397      6D737461 
 10397      74757300 
 10398              	.LASF41:
 10399 0b72 424B5032 		.ascii	"BKP2R\000"
 10399      5200
 10400              	.LASF172:
 10401 0b78 5254435F 		.ascii	"RTC_TimeStampPinSelection\000"
 10401      54696D65 
ARM GAS  C:\Users\jsyoon\AppData\Local\Temp\ccHEUWmT.s 			page 193


 10401      5374616D 
 10401      7050696E 
 10401      53656C65 
 10402              	.LASF105:
 10403 0b92 5254435F 		.ascii	"RTC_GetSubSecond\000"
 10403      47657453 
 10403      75625365 
 10403      636F6E64 
 10403      00
 10404              	.LASF53:
 10405 0ba3 424B5031 		.ascii	"BKP14R\000"
 10405      345200
 10406              	.LASF181:
 10407 0baa 5254435F 		.ascii	"RTC_IT\000"
 10407      495400
 10408              	.LASF179:
 10409 0bb1 73687066 		.ascii	"shpfcount\000"
 10409      636F756E 
 10409      7400
 10410              	.LASF165:
 10411 0bbb 5254435F 		.ascii	"RTC_TamperPullUpCmd\000"
 10411      54616D70 
 10411      65725075 
 10411      6C6C5570 
 10411      436D6400 
 10412              	.LASF187:
 10413 0bcf 656E6162 		.ascii	"enablestatus\000"
 10413      6C657374 
 10413      61747573 
 10413      00
 10414              	.LASF160:
 10415 0bdc 5254435F 		.ascii	"RTC_TamperSamplingFreqConfig\000"
 10415      54616D70 
 10415      65725361 
 10415      6D706C69 
 10415      6E674672 
 10416              	.LASF141:
 10417 0bf9 5254435F 		.ascii	"RTC_SmoothCalibConfig\000"
 10417      536D6F6F 
 10417      74684361 
 10417      6C696243 
 10417      6F6E6669 
 10418              		.ident	"GCC: (GNU Tools for ARM Embedded Processors) 4.8.4 20140526 (release) [ARM/embedded-4_8-br
ARM GAS  C:\Users\jsyoon\AppData\Local\Temp\ccHEUWmT.s 			page 194


DEFINED SYMBOLS
                            *ABS*:00000000 stm32f4xx_rtc.c
C:\Users\jsyoon\AppData\Local\Temp\ccHEUWmT.s:21     .text.RTC_StructInit:00000000 $t
C:\Users\jsyoon\AppData\Local\Temp\ccHEUWmT.s:27     .text.RTC_StructInit:00000000 RTC_StructInit
C:\Users\jsyoon\AppData\Local\Temp\ccHEUWmT.s:46     .text.RTC_WriteProtectionCmd:00000000 $t
C:\Users\jsyoon\AppData\Local\Temp\ccHEUWmT.s:52     .text.RTC_WriteProtectionCmd:00000000 RTC_WriteProtectionCmd
C:\Users\jsyoon\AppData\Local\Temp\ccHEUWmT.s:81     .text.RTC_WriteProtectionCmd:00000014 $d
C:\Users\jsyoon\AppData\Local\Temp\ccHEUWmT.s:86     .text.RTC_EnterInitMode:00000000 $t
C:\Users\jsyoon\AppData\Local\Temp\ccHEUWmT.s:92     .text.RTC_EnterInitMode:00000000 RTC_EnterInitMode
C:\Users\jsyoon\AppData\Local\Temp\ccHEUWmT.s:163    .text.RTC_EnterInitMode:00000040 $d
C:\Users\jsyoon\AppData\Local\Temp\ccHEUWmT.s:168    .text.RTC_Init:00000000 $t
C:\Users\jsyoon\AppData\Local\Temp\ccHEUWmT.s:174    .text.RTC_Init:00000000 RTC_Init
C:\Users\jsyoon\AppData\Local\Temp\ccHEUWmT.s:242    .text.RTC_Init:00000044 $d
C:\Users\jsyoon\AppData\Local\Temp\ccHEUWmT.s:247    .text.RTC_ExitInitMode:00000000 $t
C:\Users\jsyoon\AppData\Local\Temp\ccHEUWmT.s:253    .text.RTC_ExitInitMode:00000000 RTC_ExitInitMode
C:\Users\jsyoon\AppData\Local\Temp\ccHEUWmT.s:269    .text.RTC_ExitInitMode:0000000c $d
C:\Users\jsyoon\AppData\Local\Temp\ccHEUWmT.s:274    .text.RTC_WaitForSynchro:00000000 $t
C:\Users\jsyoon\AppData\Local\Temp\ccHEUWmT.s:280    .text.RTC_WaitForSynchro:00000000 RTC_WaitForSynchro
C:\Users\jsyoon\AppData\Local\Temp\ccHEUWmT.s:350    .text.RTC_WaitForSynchro:00000040 $d
C:\Users\jsyoon\AppData\Local\Temp\ccHEUWmT.s:355    .text.RTC_DeInit:00000000 $t
C:\Users\jsyoon\AppData\Local\Temp\ccHEUWmT.s:361    .text.RTC_DeInit:00000000 RTC_DeInit
C:\Users\jsyoon\AppData\Local\Temp\ccHEUWmT.s:491    .text.RTC_DeInit:00000084 $d
C:\Users\jsyoon\AppData\Local\Temp\ccHEUWmT.s:497    .text.RTC_RefClockCmd:00000000 $t
C:\Users\jsyoon\AppData\Local\Temp\ccHEUWmT.s:503    .text.RTC_RefClockCmd:00000000 RTC_RefClockCmd
C:\Users\jsyoon\AppData\Local\Temp\ccHEUWmT.s:568    .text.RTC_RefClockCmd:0000003c $d
C:\Users\jsyoon\AppData\Local\Temp\ccHEUWmT.s:573    .text.RTC_BypassShadowCmd:00000000 $t
C:\Users\jsyoon\AppData\Local\Temp\ccHEUWmT.s:579    .text.RTC_BypassShadowCmd:00000000 RTC_BypassShadowCmd
C:\Users\jsyoon\AppData\Local\Temp\ccHEUWmT.s:620    .text.RTC_BypassShadowCmd:0000002c $d
C:\Users\jsyoon\AppData\Local\Temp\ccHEUWmT.s:625    .text.RTC_SetTime:00000000 $t
C:\Users\jsyoon\AppData\Local\Temp\ccHEUWmT.s:631    .text.RTC_SetTime:00000000 RTC_SetTime
C:\Users\jsyoon\AppData\Local\Temp\ccHEUWmT.s:889    .text.RTC_SetTime:000000e8 $d
C:\Users\jsyoon\AppData\Local\Temp\ccHEUWmT.s:896    .text.RTC_TimeStructInit:00000000 $t
C:\Users\jsyoon\AppData\Local\Temp\ccHEUWmT.s:902    .text.RTC_TimeStructInit:00000000 RTC_TimeStructInit
C:\Users\jsyoon\AppData\Local\Temp\ccHEUWmT.s:924    .text.RTC_GetTime:00000000 $t
C:\Users\jsyoon\AppData\Local\Temp\ccHEUWmT.s:930    .text.RTC_GetTime:00000000 RTC_GetTime
C:\Users\jsyoon\AppData\Local\Temp\ccHEUWmT.s:1041   .text.RTC_GetTime:00000058 $d
C:\Users\jsyoon\AppData\Local\Temp\ccHEUWmT.s:1046   .text.RTC_GetSubSecond:00000000 $t
C:\Users\jsyoon\AppData\Local\Temp\ccHEUWmT.s:1052   .text.RTC_GetSubSecond:00000000 RTC_GetSubSecond
C:\Users\jsyoon\AppData\Local\Temp\ccHEUWmT.s:1071   .text.RTC_GetSubSecond:00000008 $d
C:\Users\jsyoon\AppData\Local\Temp\ccHEUWmT.s:1076   .text.RTC_SetDate:00000000 $t
C:\Users\jsyoon\AppData\Local\Temp\ccHEUWmT.s:1082   .text.RTC_SetDate:00000000 RTC_SetDate
C:\Users\jsyoon\AppData\Local\Temp\ccHEUWmT.s:1327   .text.RTC_SetDate:000000d8 $d
C:\Users\jsyoon\AppData\Local\Temp\ccHEUWmT.s:1334   .text.RTC_DateStructInit:00000000 $t
C:\Users\jsyoon\AppData\Local\Temp\ccHEUWmT.s:1340   .text.RTC_DateStructInit:00000000 RTC_DateStructInit
C:\Users\jsyoon\AppData\Local\Temp\ccHEUWmT.s:1364   .text.RTC_GetDate:00000000 $t
C:\Users\jsyoon\AppData\Local\Temp\ccHEUWmT.s:1370   .text.RTC_GetDate:00000000 RTC_GetDate
C:\Users\jsyoon\AppData\Local\Temp\ccHEUWmT.s:1482   .text.RTC_GetDate:00000054 $d
C:\Users\jsyoon\AppData\Local\Temp\ccHEUWmT.s:1487   .text.RTC_SetAlarm:00000000 $t
C:\Users\jsyoon\AppData\Local\Temp\ccHEUWmT.s:1493   .text.RTC_SetAlarm:00000000 RTC_SetAlarm
C:\Users\jsyoon\AppData\Local\Temp\ccHEUWmT.s:1784   .text.RTC_SetAlarm:000000fc $d
C:\Users\jsyoon\AppData\Local\Temp\ccHEUWmT.s:1791   .text.RTC_AlarmStructInit:00000000 $t
C:\Users\jsyoon\AppData\Local\Temp\ccHEUWmT.s:1797   .text.RTC_AlarmStructInit:00000000 RTC_AlarmStructInit
C:\Users\jsyoon\AppData\Local\Temp\ccHEUWmT.s:1827   .text.RTC_GetAlarm:00000000 $t
C:\Users\jsyoon\AppData\Local\Temp\ccHEUWmT.s:1833   .text.RTC_GetAlarm:00000000 RTC_GetAlarm
C:\Users\jsyoon\AppData\Local\Temp\ccHEUWmT.s:1984   .text.RTC_GetAlarm:00000090 $d
C:\Users\jsyoon\AppData\Local\Temp\ccHEUWmT.s:1989   .text.RTC_AlarmCmd:00000000 $t
C:\Users\jsyoon\AppData\Local\Temp\ccHEUWmT.s:1995   .text.RTC_AlarmCmd:00000000 RTC_AlarmCmd
ARM GAS  C:\Users\jsyoon\AppData\Local\Temp\ccHEUWmT.s 			page 195


C:\Users\jsyoon\AppData\Local\Temp\ccHEUWmT.s:2091   .text.RTC_AlarmCmd:00000058 $d
C:\Users\jsyoon\AppData\Local\Temp\ccHEUWmT.s:2096   .text.RTC_AlarmSubSecondConfig:00000000 $t
C:\Users\jsyoon\AppData\Local\Temp\ccHEUWmT.s:2102   .text.RTC_AlarmSubSecondConfig:00000000 RTC_AlarmSubSecondConfig
C:\Users\jsyoon\AppData\Local\Temp\ccHEUWmT.s:2145   .text.RTC_AlarmSubSecondConfig:00000024 $d
C:\Users\jsyoon\AppData\Local\Temp\ccHEUWmT.s:2150   .text.RTC_GetAlarmSubSecond:00000000 $t
C:\Users\jsyoon\AppData\Local\Temp\ccHEUWmT.s:2156   .text.RTC_GetAlarmSubSecond:00000000 RTC_GetAlarmSubSecond
C:\Users\jsyoon\AppData\Local\Temp\ccHEUWmT.s:2181   .text.RTC_GetAlarmSubSecond:00000014 $d
C:\Users\jsyoon\AppData\Local\Temp\ccHEUWmT.s:2186   .text.RTC_WakeUpClockConfig:00000000 $t
C:\Users\jsyoon\AppData\Local\Temp\ccHEUWmT.s:2192   .text.RTC_WakeUpClockConfig:00000000 RTC_WakeUpClockConfig
C:\Users\jsyoon\AppData\Local\Temp\ccHEUWmT.s:2227   .text.RTC_WakeUpClockConfig:00000020 $d
C:\Users\jsyoon\AppData\Local\Temp\ccHEUWmT.s:2232   .text.RTC_SetWakeUpCounter:00000000 $t
C:\Users\jsyoon\AppData\Local\Temp\ccHEUWmT.s:2238   .text.RTC_SetWakeUpCounter:00000000 RTC_SetWakeUpCounter
C:\Users\jsyoon\AppData\Local\Temp\ccHEUWmT.s:2273   .text.RTC_SetWakeUpCounter:00000018 $d
C:\Users\jsyoon\AppData\Local\Temp\ccHEUWmT.s:2278   .text.RTC_GetWakeUpCounter:00000000 $t
C:\Users\jsyoon\AppData\Local\Temp\ccHEUWmT.s:2284   .text.RTC_GetWakeUpCounter:00000000 RTC_GetWakeUpCounter
C:\Users\jsyoon\AppData\Local\Temp\ccHEUWmT.s:2300   .text.RTC_GetWakeUpCounter:00000008 $d
C:\Users\jsyoon\AppData\Local\Temp\ccHEUWmT.s:2305   .text.RTC_WakeUpCmd:00000000 $t
C:\Users\jsyoon\AppData\Local\Temp\ccHEUWmT.s:2311   .text.RTC_WakeUpCmd:00000000 RTC_WakeUpCmd
C:\Users\jsyoon\AppData\Local\Temp\ccHEUWmT.s:2399   .text.RTC_WakeUpCmd:00000054 $d
C:\Users\jsyoon\AppData\Local\Temp\ccHEUWmT.s:2404   .text.RTC_DayLightSavingConfig:00000000 $t
C:\Users\jsyoon\AppData\Local\Temp\ccHEUWmT.s:2410   .text.RTC_DayLightSavingConfig:00000000 RTC_DayLightSavingConfig
C:\Users\jsyoon\AppData\Local\Temp\ccHEUWmT.s:2455   .text.RTC_DayLightSavingConfig:00000028 $d
C:\Users\jsyoon\AppData\Local\Temp\ccHEUWmT.s:2460   .text.RTC_GetStoreOperation:00000000 $t
C:\Users\jsyoon\AppData\Local\Temp\ccHEUWmT.s:2466   .text.RTC_GetStoreOperation:00000000 RTC_GetStoreOperation
C:\Users\jsyoon\AppData\Local\Temp\ccHEUWmT.s:2482   .text.RTC_GetStoreOperation:0000000c $d
C:\Users\jsyoon\AppData\Local\Temp\ccHEUWmT.s:2487   .text.RTC_OutputConfig:00000000 $t
C:\Users\jsyoon\AppData\Local\Temp\ccHEUWmT.s:2493   .text.RTC_OutputConfig:00000000 RTC_OutputConfig
C:\Users\jsyoon\AppData\Local\Temp\ccHEUWmT.s:2538   .text.RTC_OutputConfig:00000028 $d
C:\Users\jsyoon\AppData\Local\Temp\ccHEUWmT.s:2543   .text.RTC_CoarseCalibConfig:00000000 $t
C:\Users\jsyoon\AppData\Local\Temp\ccHEUWmT.s:2549   .text.RTC_CoarseCalibConfig:00000000 RTC_CoarseCalibConfig
C:\Users\jsyoon\AppData\Local\Temp\ccHEUWmT.s:2605   .text.RTC_CoarseCalibConfig:0000002c $d
C:\Users\jsyoon\AppData\Local\Temp\ccHEUWmT.s:2610   .text.RTC_CoarseCalibCmd:00000000 $t
C:\Users\jsyoon\AppData\Local\Temp\ccHEUWmT.s:2616   .text.RTC_CoarseCalibCmd:00000000 RTC_CoarseCalibCmd
C:\Users\jsyoon\AppData\Local\Temp\ccHEUWmT.s:2681   .text.RTC_CoarseCalibCmd:0000003c $d
C:\Users\jsyoon\AppData\Local\Temp\ccHEUWmT.s:2686   .text.RTC_CalibOutputCmd:00000000 $t
C:\Users\jsyoon\AppData\Local\Temp\ccHEUWmT.s:2692   .text.RTC_CalibOutputCmd:00000000 RTC_CalibOutputCmd
C:\Users\jsyoon\AppData\Local\Temp\ccHEUWmT.s:2733   .text.RTC_CalibOutputCmd:0000002c $d
C:\Users\jsyoon\AppData\Local\Temp\ccHEUWmT.s:2738   .text.RTC_CalibOutputConfig:00000000 $t
C:\Users\jsyoon\AppData\Local\Temp\ccHEUWmT.s:2744   .text.RTC_CalibOutputConfig:00000000 RTC_CalibOutputConfig
C:\Users\jsyoon\AppData\Local\Temp\ccHEUWmT.s:2779   .text.RTC_CalibOutputConfig:00000020 $d
C:\Users\jsyoon\AppData\Local\Temp\ccHEUWmT.s:2784   .text.RTC_SmoothCalibConfig:00000000 $t
C:\Users\jsyoon\AppData\Local\Temp\ccHEUWmT.s:2790   .text.RTC_SmoothCalibConfig:00000000 RTC_SmoothCalibConfig
C:\Users\jsyoon\AppData\Local\Temp\ccHEUWmT.s:2869   .text.RTC_SmoothCalibConfig:00000048 $d
C:\Users\jsyoon\AppData\Local\Temp\ccHEUWmT.s:2874   .text.RTC_TimeStampCmd:00000000 $t
C:\Users\jsyoon\AppData\Local\Temp\ccHEUWmT.s:2880   .text.RTC_TimeStampCmd:00000000 RTC_TimeStampCmd
C:\Users\jsyoon\AppData\Local\Temp\ccHEUWmT.s:2936   .text.RTC_TimeStampCmd:00000030 $d
C:\Users\jsyoon\AppData\Local\Temp\ccHEUWmT.s:2941   .text.RTC_GetTimeStamp:00000000 $t
C:\Users\jsyoon\AppData\Local\Temp\ccHEUWmT.s:2947   .text.RTC_GetTimeStamp:00000000 RTC_GetTimeStamp
C:\Users\jsyoon\AppData\Local\Temp\ccHEUWmT.s:3177   .text.RTC_GetTimeStamp:000000b8 $d
C:\Users\jsyoon\AppData\Local\Temp\ccHEUWmT.s:3182   .text.RTC_GetTimeStampSubSecond:00000000 $t
C:\Users\jsyoon\AppData\Local\Temp\ccHEUWmT.s:3188   .text.RTC_GetTimeStampSubSecond:00000000 RTC_GetTimeStampSubSecond
C:\Users\jsyoon\AppData\Local\Temp\ccHEUWmT.s:3203   .text.RTC_GetTimeStampSubSecond:00000008 $d
C:\Users\jsyoon\AppData\Local\Temp\ccHEUWmT.s:3208   .text.RTC_TamperTriggerConfig:00000000 $t
C:\Users\jsyoon\AppData\Local\Temp\ccHEUWmT.s:3214   .text.RTC_TamperTriggerConfig:00000000 RTC_TamperTriggerConfig
C:\Users\jsyoon\AppData\Local\Temp\ccHEUWmT.s:3242   .text.RTC_TamperTriggerConfig:00000018 $d
C:\Users\jsyoon\AppData\Local\Temp\ccHEUWmT.s:3247   .text.RTC_TamperCmd:00000000 $t
C:\Users\jsyoon\AppData\Local\Temp\ccHEUWmT.s:3253   .text.RTC_TamperCmd:00000000 RTC_TamperCmd
ARM GAS  C:\Users\jsyoon\AppData\Local\Temp\ccHEUWmT.s 			page 196


C:\Users\jsyoon\AppData\Local\Temp\ccHEUWmT.s:3281   .text.RTC_TamperCmd:00000014 $d
C:\Users\jsyoon\AppData\Local\Temp\ccHEUWmT.s:3286   .text.RTC_TamperFilterConfig:00000000 $t
C:\Users\jsyoon\AppData\Local\Temp\ccHEUWmT.s:3292   .text.RTC_TamperFilterConfig:00000000 RTC_TamperFilterConfig
C:\Users\jsyoon\AppData\Local\Temp\ccHEUWmT.s:3314   .text.RTC_TamperFilterConfig:00000014 $d
C:\Users\jsyoon\AppData\Local\Temp\ccHEUWmT.s:3319   .text.RTC_TamperSamplingFreqConfig:00000000 $t
C:\Users\jsyoon\AppData\Local\Temp\ccHEUWmT.s:3325   .text.RTC_TamperSamplingFreqConfig:00000000 RTC_TamperSamplingFreqConfig
C:\Users\jsyoon\AppData\Local\Temp\ccHEUWmT.s:3347   .text.RTC_TamperSamplingFreqConfig:00000014 $d
C:\Users\jsyoon\AppData\Local\Temp\ccHEUWmT.s:3352   .text.RTC_TamperPinsPrechargeDuration:00000000 $t
C:\Users\jsyoon\AppData\Local\Temp\ccHEUWmT.s:3358   .text.RTC_TamperPinsPrechargeDuration:00000000 RTC_TamperPinsPrechargeDuration
C:\Users\jsyoon\AppData\Local\Temp\ccHEUWmT.s:3380   .text.RTC_TamperPinsPrechargeDuration:00000014 $d
C:\Users\jsyoon\AppData\Local\Temp\ccHEUWmT.s:3385   .text.RTC_TimeStampOnTamperDetectionCmd:00000000 $t
C:\Users\jsyoon\AppData\Local\Temp\ccHEUWmT.s:3391   .text.RTC_TimeStampOnTamperDetectionCmd:00000000 RTC_TimeStampOnTamperDetectionCmd
C:\Users\jsyoon\AppData\Local\Temp\ccHEUWmT.s:3416   .text.RTC_TimeStampOnTamperDetectionCmd:00000018 $d
C:\Users\jsyoon\AppData\Local\Temp\ccHEUWmT.s:3421   .text.RTC_TamperPullUpCmd:00000000 $t
C:\Users\jsyoon\AppData\Local\Temp\ccHEUWmT.s:3427   .text.RTC_TamperPullUpCmd:00000000 RTC_TamperPullUpCmd
C:\Users\jsyoon\AppData\Local\Temp\ccHEUWmT.s:3452   .text.RTC_TamperPullUpCmd:00000018 $d
C:\Users\jsyoon\AppData\Local\Temp\ccHEUWmT.s:3457   .text.RTC_WriteBackupRegister:00000000 $t
C:\Users\jsyoon\AppData\Local\Temp\ccHEUWmT.s:3463   .text.RTC_WriteBackupRegister:00000000 RTC_WriteBackupRegister
C:\Users\jsyoon\AppData\Local\Temp\ccHEUWmT.s:3496   .text.RTC_WriteBackupRegister:0000001c $d
C:\Users\jsyoon\AppData\Local\Temp\ccHEUWmT.s:3501   .text.RTC_ReadBackupRegister:00000000 $t
C:\Users\jsyoon\AppData\Local\Temp\ccHEUWmT.s:3507   .text.RTC_ReadBackupRegister:00000000 RTC_ReadBackupRegister
C:\Users\jsyoon\AppData\Local\Temp\ccHEUWmT.s:3540   .text.RTC_ReadBackupRegister:0000001c $d
C:\Users\jsyoon\AppData\Local\Temp\ccHEUWmT.s:3545   .text.RTC_TamperPinSelection:00000000 $t
C:\Users\jsyoon\AppData\Local\Temp\ccHEUWmT.s:3551   .text.RTC_TamperPinSelection:00000000 RTC_TamperPinSelection
C:\Users\jsyoon\AppData\Local\Temp\ccHEUWmT.s:3573   .text.RTC_TamperPinSelection:00000014 $d
C:\Users\jsyoon\AppData\Local\Temp\ccHEUWmT.s:3578   .text.RTC_TimeStampPinSelection:00000000 $t
C:\Users\jsyoon\AppData\Local\Temp\ccHEUWmT.s:3584   .text.RTC_TimeStampPinSelection:00000000 RTC_TimeStampPinSelection
C:\Users\jsyoon\AppData\Local\Temp\ccHEUWmT.s:3606   .text.RTC_TimeStampPinSelection:00000014 $d
C:\Users\jsyoon\AppData\Local\Temp\ccHEUWmT.s:3611   .text.RTC_OutputTypeConfig:00000000 $t
C:\Users\jsyoon\AppData\Local\Temp\ccHEUWmT.s:3617   .text.RTC_OutputTypeConfig:00000000 RTC_OutputTypeConfig
C:\Users\jsyoon\AppData\Local\Temp\ccHEUWmT.s:3639   .text.RTC_OutputTypeConfig:00000014 $d
C:\Users\jsyoon\AppData\Local\Temp\ccHEUWmT.s:3644   .text.RTC_SynchroShiftConfig:00000000 $t
C:\Users\jsyoon\AppData\Local\Temp\ccHEUWmT.s:3650   .text.RTC_SynchroShiftConfig:00000000 RTC_SynchroShiftConfig
C:\Users\jsyoon\AppData\Local\Temp\ccHEUWmT.s:3754   .text.RTC_SynchroShiftConfig:00000064 $d
C:\Users\jsyoon\AppData\Local\Temp\ccHEUWmT.s:3759   .text.RTC_ITConfig:00000000 $t
C:\Users\jsyoon\AppData\Local\Temp\ccHEUWmT.s:3765   .text.RTC_ITConfig:00000000 RTC_ITConfig
C:\Users\jsyoon\AppData\Local\Temp\ccHEUWmT.s:3828   .text.RTC_ITConfig:00000048 $d
C:\Users\jsyoon\AppData\Local\Temp\ccHEUWmT.s:3833   .text.RTC_GetFlagStatus:00000000 $t
C:\Users\jsyoon\AppData\Local\Temp\ccHEUWmT.s:3839   .text.RTC_GetFlagStatus:00000000 RTC_GetFlagStatus
C:\Users\jsyoon\AppData\Local\Temp\ccHEUWmT.s:3865   .text.RTC_GetFlagStatus:00000014 $d
C:\Users\jsyoon\AppData\Local\Temp\ccHEUWmT.s:3871   .text.RTC_ClearFlag:00000000 $t
C:\Users\jsyoon\AppData\Local\Temp\ccHEUWmT.s:3877   .text.RTC_ClearFlag:00000000 RTC_ClearFlag
C:\Users\jsyoon\AppData\Local\Temp\ccHEUWmT.s:3898   .text.RTC_ClearFlag:00000018 $d
C:\Users\jsyoon\AppData\Local\Temp\ccHEUWmT.s:3903   .text.RTC_GetITStatus:00000000 $t
C:\Users\jsyoon\AppData\Local\Temp\ccHEUWmT.s:3909   .text.RTC_GetITStatus:00000000 RTC_GetITStatus
C:\Users\jsyoon\AppData\Local\Temp\ccHEUWmT.s:3966   .text.RTC_GetITStatus:00000034 $d
C:\Users\jsyoon\AppData\Local\Temp\ccHEUWmT.s:3971   .text.RTC_ClearITPendingBit:00000000 $t
C:\Users\jsyoon\AppData\Local\Temp\ccHEUWmT.s:3977   .text.RTC_ClearITPendingBit:00000000 RTC_ClearITPendingBit
C:\Users\jsyoon\AppData\Local\Temp\ccHEUWmT.s:3998   .text.RTC_ClearITPendingBit:00000018 $d
                     .debug_frame:00000010 $d
C:\Users\jsyoon\AppData\Local\Temp\ccHEUWmT.s:85     .text.RTC_WriteProtectionCmd:00000018 $t
C:\Users\jsyoon\AppData\Local\Temp\ccHEUWmT.s:167    .text.RTC_EnterInitMode:00000044 $t
C:\Users\jsyoon\AppData\Local\Temp\ccHEUWmT.s:246    .text.RTC_Init:00000048 $t
C:\Users\jsyoon\AppData\Local\Temp\ccHEUWmT.s:354    .text.RTC_WaitForSynchro:00000044 $t
C:\Users\jsyoon\AppData\Local\Temp\ccHEUWmT.s:496    .text.RTC_DeInit:0000008c $t
C:\Users\jsyoon\AppData\Local\Temp\ccHEUWmT.s:895    .text.RTC_SetTime:000000ec $t
C:\Users\jsyoon\AppData\Local\Temp\ccHEUWmT.s:1045   .text.RTC_GetTime:0000005c $t
ARM GAS  C:\Users\jsyoon\AppData\Local\Temp\ccHEUWmT.s 			page 197


C:\Users\jsyoon\AppData\Local\Temp\ccHEUWmT.s:1075   .text.RTC_GetSubSecond:0000000c $t
C:\Users\jsyoon\AppData\Local\Temp\ccHEUWmT.s:1333   .text.RTC_SetDate:000000dc $t
C:\Users\jsyoon\AppData\Local\Temp\ccHEUWmT.s:1486   .text.RTC_GetDate:00000058 $t
C:\Users\jsyoon\AppData\Local\Temp\ccHEUWmT.s:1988   .text.RTC_GetAlarm:00000094 $t
C:\Users\jsyoon\AppData\Local\Temp\ccHEUWmT.s:2095   .text.RTC_AlarmCmd:0000005c $t
C:\Users\jsyoon\AppData\Local\Temp\ccHEUWmT.s:2149   .text.RTC_AlarmSubSecondConfig:00000028 $t
C:\Users\jsyoon\AppData\Local\Temp\ccHEUWmT.s:2185   .text.RTC_GetAlarmSubSecond:00000018 $t
C:\Users\jsyoon\AppData\Local\Temp\ccHEUWmT.s:2231   .text.RTC_WakeUpClockConfig:00000024 $t
C:\Users\jsyoon\AppData\Local\Temp\ccHEUWmT.s:2277   .text.RTC_SetWakeUpCounter:0000001c $t
C:\Users\jsyoon\AppData\Local\Temp\ccHEUWmT.s:2304   .text.RTC_GetWakeUpCounter:0000000c $t
C:\Users\jsyoon\AppData\Local\Temp\ccHEUWmT.s:2403   .text.RTC_WakeUpCmd:00000058 $t
C:\Users\jsyoon\AppData\Local\Temp\ccHEUWmT.s:2459   .text.RTC_DayLightSavingConfig:0000002c $t
C:\Users\jsyoon\AppData\Local\Temp\ccHEUWmT.s:2542   .text.RTC_OutputConfig:0000002c $t
C:\Users\jsyoon\AppData\Local\Temp\ccHEUWmT.s:2783   .text.RTC_CalibOutputConfig:00000024 $t
C:\Users\jsyoon\AppData\Local\Temp\ccHEUWmT.s:2873   .text.RTC_SmoothCalibConfig:0000004c $t
C:\Users\jsyoon\AppData\Local\Temp\ccHEUWmT.s:2940   .text.RTC_TimeStampCmd:00000034 $t
C:\Users\jsyoon\AppData\Local\Temp\ccHEUWmT.s:3181   .text.RTC_GetTimeStamp:000000bc $t
C:\Users\jsyoon\AppData\Local\Temp\ccHEUWmT.s:3207   .text.RTC_GetTimeStampSubSecond:0000000c $t
C:\Users\jsyoon\AppData\Local\Temp\ccHEUWmT.s:3246   .text.RTC_TamperTriggerConfig:0000001c $t
C:\Users\jsyoon\AppData\Local\Temp\ccHEUWmT.s:3285   .text.RTC_TamperCmd:00000018 $t
C:\Users\jsyoon\AppData\Local\Temp\ccHEUWmT.s:3318   .text.RTC_TamperFilterConfig:00000018 $t
C:\Users\jsyoon\AppData\Local\Temp\ccHEUWmT.s:3351   .text.RTC_TamperSamplingFreqConfig:00000018 $t
C:\Users\jsyoon\AppData\Local\Temp\ccHEUWmT.s:3384   .text.RTC_TamperPinsPrechargeDuration:00000018 $t
C:\Users\jsyoon\AppData\Local\Temp\ccHEUWmT.s:3420   .text.RTC_TimeStampOnTamperDetectionCmd:0000001c $t
C:\Users\jsyoon\AppData\Local\Temp\ccHEUWmT.s:3456   .text.RTC_TamperPullUpCmd:0000001c $t
C:\Users\jsyoon\AppData\Local\Temp\ccHEUWmT.s:3577   .text.RTC_TamperPinSelection:00000018 $t
C:\Users\jsyoon\AppData\Local\Temp\ccHEUWmT.s:3610   .text.RTC_TimeStampPinSelection:00000018 $t
C:\Users\jsyoon\AppData\Local\Temp\ccHEUWmT.s:3643   .text.RTC_OutputTypeConfig:00000018 $t
C:\Users\jsyoon\AppData\Local\Temp\ccHEUWmT.s:3758   .text.RTC_SynchroShiftConfig:00000068 $t
C:\Users\jsyoon\AppData\Local\Temp\ccHEUWmT.s:3832   .text.RTC_ITConfig:0000004c $t
C:\Users\jsyoon\AppData\Local\Temp\ccHEUWmT.s:3870   .text.RTC_GetFlagStatus:0000001c $t
C:\Users\jsyoon\AppData\Local\Temp\ccHEUWmT.s:3902   .text.RTC_ClearFlag:0000001c $t
C:\Users\jsyoon\AppData\Local\Temp\ccHEUWmT.s:3970   .text.RTC_GetITStatus:00000038 $t
C:\Users\jsyoon\AppData\Local\Temp\ccHEUWmT.s:4002   .text.RTC_ClearITPendingBit:0000001c $t

NO UNDEFINED SYMBOLS
