ARM GAS  C:\Users\jsyoon\AppData\Local\Temp\ccYheA2D.s 			page 1


   1              		.syntax unified
   2              		.cpu cortex-m4
   3              		.eabi_attribute 27, 3
   4              		.eabi_attribute 28, 1
   5              		.fpu fpv4-sp-d16
   6              		.eabi_attribute 20, 1
   7              		.eabi_attribute 21, 1
   8              		.eabi_attribute 23, 3
   9              		.eabi_attribute 24, 1
  10              		.eabi_attribute 25, 1
  11              		.eabi_attribute 26, 1
  12              		.eabi_attribute 30, 2
  13              		.eabi_attribute 34, 1
  14              		.eabi_attribute 18, 4
  15              		.thumb
  16              		.file	"stm32f4xx_i2c.c"
  17              		.text
  18              	.Ltext0:
  19              		.cfi_sections	.debug_frame
  20              		.section	.text.I2C_DeInit,"ax",%progbits
  21              		.align	2
  22              		.p2align 4,,15
  23              		.global	I2C_DeInit
  24              		.thumb
  25              		.thumb_func
  26              		.type	I2C_DeInit, %function
  27              	I2C_DeInit:
  28              	.LFB111:
  29              		.file 1 "ChibiOS_2.6.6/ext/stdperiph_stm32f4/src/stm32f4xx_i2c.c"
  30              		.loc 1 139 0
  31              		.cfi_startproc
  32              		@ args = 0, pretend = 0, frame = 0
  33              		@ frame_needed = 0, uses_anonymous_args = 0
  34              	.LVL0:
  35 0000 08B5     		push	{r3, lr}
  36              		.cfi_def_cfa_offset 8
  37              		.cfi_offset 3, -8
  38              		.cfi_offset 14, -4
  39              		.loc 1 143 0
  40 0002 174B     		ldr	r3, .L9
  41 0004 9842     		cmp	r0, r3
  42 0006 12D0     		beq	.L6
  43              		.loc 1 150 0
  44 0008 164B     		ldr	r3, .L9+4
  45 000a 9842     		cmp	r0, r3
  46 000c 1BD0     		beq	.L7
  47              		.loc 1 159 0
  48 000e 164B     		ldr	r3, .L9+8
  49 0010 9842     		cmp	r0, r3
  50 0012 00D0     		beq	.L8
  51 0014 08BD     		pop	{r3, pc}
  52              	.L8:
  53              		.loc 1 162 0
  54 0016 4FF40000 		mov	r0, #8388608
  55              	.LVL1:
  56 001a 0121     		movs	r1, #1
  57 001c FFF7FEFF 		bl	RCC_APB1PeriphResetCmd
ARM GAS  C:\Users\jsyoon\AppData\Local\Temp\ccYheA2D.s 			page 2


  58              	.LVL2:
  59              		.loc 1 164 0
  60 0020 4FF40000 		mov	r0, #8388608
  61 0024 0021     		movs	r1, #0
  62              		.loc 1 167 0
  63 0026 BDE80840 		pop	{r3, lr}
  64              		.loc 1 164 0
  65 002a FFF7FEBF 		b	RCC_APB1PeriphResetCmd
  66              	.LVL3:
  67              	.L6:
  68              		.loc 1 146 0
  69 002e 4FF40010 		mov	r0, #2097152
  70              	.LVL4:
  71 0032 0121     		movs	r1, #1
  72 0034 FFF7FEFF 		bl	RCC_APB1PeriphResetCmd
  73              	.LVL5:
  74              		.loc 1 148 0
  75 0038 4FF40010 		mov	r0, #2097152
  76 003c 0021     		movs	r1, #0
  77              		.loc 1 167 0
  78 003e BDE80840 		pop	{r3, lr}
  79              		.loc 1 148 0
  80 0042 FFF7FEBF 		b	RCC_APB1PeriphResetCmd
  81              	.LVL6:
  82              	.L7:
  83              		.loc 1 153 0
  84 0046 4FF48000 		mov	r0, #4194304
  85              	.LVL7:
  86 004a 0121     		movs	r1, #1
  87 004c FFF7FEFF 		bl	RCC_APB1PeriphResetCmd
  88              	.LVL8:
  89              		.loc 1 155 0
  90 0050 4FF48000 		mov	r0, #4194304
  91 0054 0021     		movs	r1, #0
  92              		.loc 1 167 0
  93 0056 BDE80840 		pop	{r3, lr}
  94              		.loc 1 155 0
  95 005a FFF7FEBF 		b	RCC_APB1PeriphResetCmd
  96              	.LVL9:
  97              	.L10:
  98 005e 00BF     		.align	2
  99              	.L9:
 100 0060 00540040 		.word	1073763328
 101 0064 00580040 		.word	1073764352
 102 0068 005C0040 		.word	1073765376
 103              		.cfi_endproc
 104              	.LFE111:
 105              		.size	I2C_DeInit, .-I2C_DeInit
 106 006c AFF30080 		.section	.text.I2C_Init,"ax",%progbits
 107              		.align	2
 108              		.p2align 4,,15
 109              		.global	I2C_Init
 110              		.thumb
 111              		.thumb_func
 112              		.type	I2C_Init, %function
 113              	I2C_Init:
 114              	.LFB112:
ARM GAS  C:\Users\jsyoon\AppData\Local\Temp\ccYheA2D.s 			page 3


 115              		.loc 1 182 0
 116              		.cfi_startproc
 117              		@ args = 0, pretend = 0, frame = 16
 118              		@ frame_needed = 0, uses_anonymous_args = 0
 119              	.LVL10:
 120 0000 F0B5     		push	{r4, r5, r6, r7, lr}
 121              		.cfi_def_cfa_offset 20
 122              		.cfi_offset 4, -20
 123              		.cfi_offset 5, -16
 124              		.cfi_offset 6, -12
 125              		.cfi_offset 7, -8
 126              		.cfi_offset 14, -4
 127 0002 0446     		mov	r4, r0
 128 0004 85B0     		sub	sp, sp, #20
 129              		.cfi_def_cfa_offset 40
 130              		.loc 1 202 0
 131 0006 6846     		mov	r0, sp
 132              	.LVL11:
 133              		.loc 1 182 0
 134 0008 0D46     		mov	r5, r1
 135              		.loc 1 198 0
 136 000a A688     		ldrh	r6, [r4, #4]
 137              	.LVL12:
 138              		.loc 1 202 0
 139 000c FFF7FEFF 		bl	RCC_GetClocksFreq
 140              	.LVL13:
 141              		.loc 1 203 0
 142 0010 0299     		ldr	r1, [sp, #8]
 143              		.loc 1 205 0
 144 0012 3048     		ldr	r0, .L20
 145              		.loc 1 218 0
 146 0014 2A68     		ldr	r2, [r5]
 147 0016 DFF8C4C0 		ldr	ip, .L20+8
 148              		.loc 1 205 0
 149 001a A0FB0130 		umull	r3, r0, r0, r1
 150              		.loc 1 200 0
 151 001e 26F03F06 		bic	r6, r6, #63
 152              	.LVL14:
 153 0022 3604     		lsls	r6, r6, #16
 154              		.loc 1 205 0
 155 0024 800C     		lsrs	r0, r0, #18
 156              		.loc 1 200 0
 157 0026 360C     		lsrs	r6, r6, #16
 158              	.LVL15:
 159              		.loc 1 205 0
 160 0028 87B2     		uxth	r7, r0
 161              	.LVL16:
 162              		.loc 1 206 0
 163 002a 3E43     		orrs	r6, r6, r7
 164              	.LVL17:
 165              		.loc 1 208 0
 166 002c A680     		strh	r6, [r4, #4]	@ movhi
 167              		.loc 1 212 0
 168 002e 2388     		ldrh	r3, [r4]
 169 0030 23F00103 		bic	r3, r3, #1
 170 0034 1B04     		lsls	r3, r3, #16
 171 0036 1B0C     		lsrs	r3, r3, #16
ARM GAS  C:\Users\jsyoon\AppData\Local\Temp\ccYheA2D.s 			page 4


 172              		.loc 1 218 0
 173 0038 6245     		cmp	r2, ip
 174              		.loc 1 212 0
 175 003a 2380     		strh	r3, [r4]	@ movhi
 176              	.LVL18:
 177              		.loc 1 218 0
 178 003c 23D8     		bhi	.L12
 179              		.loc 1 221 0
 180 003e 5300     		lsls	r3, r2, #1
 181 0040 B1FBF3F3 		udiv	r3, r1, r3
 182 0044 9BB2     		uxth	r3, r3
 183              	.LVL19:
 184              		.loc 1 223 0
 185 0046 032B     		cmp	r3, #3
 186              		.loc 1 231 0
 187 0048 07F10107 		add	r7, r7, #1
 188              		.loc 1 226 0
 189 004c 98BF     		it	ls
 190 004e 0423     		movls	r3, #4
 191              	.LVL20:
 192              		.loc 1 231 0
 193 0050 2784     		strh	r7, [r4, #32]	@ movhi
 194              	.LVL21:
 195              	.L14:
 196              		.loc 1 264 0
 197 0052 A383     		strh	r3, [r4, #28]	@ movhi
 198              		.loc 1 266 0
 199 0054 2388     		ldrh	r3, [r4]
 200              	.LVL22:
 201              		.loc 1 276 0
 202 0056 6E89     		ldrh	r6, [r5, #10]
 203 0058 A888     		ldrh	r0, [r5, #4]
 204              		.loc 1 282 0
 205 005a 2989     		ldrh	r1, [r5, #8]
 206 005c AA89     		ldrh	r2, [r5, #12]
 207              		.loc 1 266 0
 208 005e 9BB2     		uxth	r3, r3
 209 0060 43F00103 		orr	r3, r3, #1
 210 0064 2380     		strh	r3, [r4]	@ movhi
 211              		.loc 1 270 0
 212 0066 2388     		ldrh	r3, [r4]
 213              	.LVL23:
 214              		.loc 1 272 0
 215 0068 23F48163 		bic	r3, r3, #1032
 216              	.LVL24:
 217 006c 23F00203 		bic	r3, r3, #2
 218 0070 1B04     		lsls	r3, r3, #16
 219              		.loc 1 276 0
 220 0072 3043     		orrs	r0, r0, r6
 221              		.loc 1 272 0
 222 0074 1B0C     		lsrs	r3, r3, #16
 223              	.LVL25:
 224              		.loc 1 276 0
 225 0076 0343     		orrs	r3, r3, r0
 226              	.LVL26:
 227              		.loc 1 282 0
 228 0078 0A43     		orrs	r2, r2, r1
ARM GAS  C:\Users\jsyoon\AppData\Local\Temp\ccYheA2D.s 			page 5


 229              		.loc 1 276 0
 230 007a 9BB2     		uxth	r3, r3
 231              	.LVL27:
 232              		.loc 1 282 0
 233 007c 92B2     		uxth	r2, r2
 234              		.loc 1 278 0
 235 007e 2380     		strh	r3, [r4]	@ movhi
 236              		.loc 1 282 0
 237 0080 2281     		strh	r2, [r4, #8]	@ movhi
 238              		.loc 1 283 0
 239 0082 05B0     		add	sp, sp, #20
 240              		@ sp needed
 241 0084 F0BD     		pop	{r4, r5, r6, r7, pc}
 242              	.LVL28:
 243              	.L12:
 244              		.loc 1 238 0
 245 0086 EE88     		ldrh	r6, [r5, #6]
 246 0088 4BF6FF73 		movw	r3, #49151
 247 008c 9E42     		cmp	r6, r3
 248 008e 1AD0     		beq	.L19
 249              		.loc 1 246 0
 250 0090 02EB8202 		add	r2, r2, r2, lsl #2
 251 0094 02EB8202 		add	r2, r2, r2, lsl #2
 252 0098 B1FBF2F3 		udiv	r3, r1, r2
 253 009c 9BB2     		uxth	r3, r3
 254              	.LVL29:
 255              		.loc 1 248 0
 256 009e 43F48043 		orr	r3, r3, #16384
 257              	.LVL30:
 258              	.L16:
 259              		.loc 1 252 0
 260 00a2 C3F30B02 		ubfx	r2, r3, #0, #12
 261 00a6 0AB9     		cbnz	r2, .L17
 262              		.loc 1 255 0
 263 00a8 43F00103 		orr	r3, r3, #1
 264              	.LVL31:
 265              	.L17:
 266              		.loc 1 260 0
 267 00ac 4FF49671 		mov	r1, #300
 268              	.LVL32:
 269 00b0 094A     		ldr	r2, .L20+4
 270 00b2 01FB00F0 		mul	r0, r1, r0
 271              	.LVL33:
 272 00b6 82FB0010 		smull	r1, r0, r2, r0
 273 00ba 8009     		lsrs	r0, r0, #6
 274 00bc 0130     		adds	r0, r0, #1
 275              		.loc 1 258 0
 276 00be 43F40043 		orr	r3, r3, #32768
 277              	.LVL34:
 278              		.loc 1 260 0
 279 00c2 2084     		strh	r0, [r4, #32]	@ movhi
 280 00c4 C5E7     		b	.L14
 281              	.LVL35:
 282              	.L19:
 283              		.loc 1 241 0
 284 00c6 02EB4202 		add	r2, r2, r2, lsl #1
 285 00ca B1FBF2F3 		udiv	r3, r1, r2
ARM GAS  C:\Users\jsyoon\AppData\Local\Temp\ccYheA2D.s 			page 6


 286 00ce 9BB2     		uxth	r3, r3
 287              	.LVL36:
 288 00d0 E7E7     		b	.L16
 289              	.L21:
 290 00d2 00BF     		.align	2
 291              	.L20:
 292 00d4 83DE1B43 		.word	1125899907
 293 00d8 D34D6210 		.word	274877907
 294 00dc A0860100 		.word	100000
 295              		.cfi_endproc
 296              	.LFE112:
 297              		.size	I2C_Init, .-I2C_Init
 298              		.section	.text.I2C_StructInit,"ax",%progbits
 299              		.align	2
 300              		.p2align 4,,15
 301              		.global	I2C_StructInit
 302              		.thumb
 303              		.thumb_func
 304              		.type	I2C_StructInit, %function
 305              	I2C_StructInit:
 306              	.LFB113:
 307              		.loc 1 291 0
 308              		.cfi_startproc
 309              		@ args = 0, pretend = 0, frame = 0
 310              		@ frame_needed = 0, uses_anonymous_args = 0
 311              		@ link register save eliminated.
 312              	.LVL37:
 313              		.loc 1 296 0
 314 0000 0023     		movs	r3, #0
 315              		.loc 1 291 0
 316 0002 10B4     		push	{r4}
 317              		.cfi_def_cfa_offset 4
 318              		.cfi_offset 4, -4
 319              		.loc 1 298 0
 320 0004 4BF6FF71 		movw	r1, #49151
 321              		.loc 1 294 0
 322 0008 41F28834 		movw	r4, #5000
 323              		.loc 1 304 0
 324 000c 4FF48042 		mov	r2, #16384
 325              		.loc 1 294 0
 326 0010 0460     		str	r4, [r0]
 327              		.loc 1 298 0
 328 0012 C180     		strh	r1, [r0, #6]	@ movhi
 329              		.loc 1 304 0
 330 0014 8281     		strh	r2, [r0, #12]	@ movhi
 331              		.loc 1 296 0
 332 0016 8380     		strh	r3, [r0, #4]	@ movhi
 333              		.loc 1 300 0
 334 0018 0381     		strh	r3, [r0, #8]	@ movhi
 335              		.loc 1 302 0
 336 001a 4381     		strh	r3, [r0, #10]	@ movhi
 337              		.loc 1 305 0
 338 001c 5DF8044B 		ldr	r4, [sp], #4
 339 0020 7047     		bx	lr
 340              		.cfi_endproc
 341              	.LFE113:
 342              		.size	I2C_StructInit, .-I2C_StructInit
ARM GAS  C:\Users\jsyoon\AppData\Local\Temp\ccYheA2D.s 			page 7


 343 0022 00BFAFF3 		.section	.text.I2C_Cmd,"ax",%progbits
 343      0080AFF3 
 343      0080AFF3 
 343      0080
 344              		.align	2
 345              		.p2align 4,,15
 346              		.global	I2C_Cmd
 347              		.thumb
 348              		.thumb_func
 349              		.type	I2C_Cmd, %function
 350              	I2C_Cmd:
 351              	.LFB114:
 352              		.loc 1 315 0
 353              		.cfi_startproc
 354              		@ args = 0, pretend = 0, frame = 0
 355              		@ frame_needed = 0, uses_anonymous_args = 0
 356              		@ link register save eliminated.
 357              	.LVL38:
 358              		.loc 1 322 0
 359 0000 0388     		ldrh	r3, [r0]
 360              		.loc 1 319 0
 361 0002 29B9     		cbnz	r1, .L26
 362              		.loc 1 327 0
 363 0004 23F00103 		bic	r3, r3, #1
 364 0008 1B04     		lsls	r3, r3, #16
 365 000a 1B0C     		lsrs	r3, r3, #16
 366 000c 0380     		strh	r3, [r0]	@ movhi
 367 000e 7047     		bx	lr
 368              	.L26:
 369              		.loc 1 322 0
 370 0010 9BB2     		uxth	r3, r3
 371 0012 43F00103 		orr	r3, r3, #1
 372 0016 0380     		strh	r3, [r0]	@ movhi
 373 0018 7047     		bx	lr
 374              		.cfi_endproc
 375              	.LFE114:
 376              		.size	I2C_Cmd, .-I2C_Cmd
 377 001a 00BFAFF3 		.section	.text.I2C_GenerateSTART,"ax",%progbits
 377      0080
 378              		.align	2
 379              		.p2align 4,,15
 380              		.global	I2C_GenerateSTART
 381              		.thumb
 382              		.thumb_func
 383              		.type	I2C_GenerateSTART, %function
 384              	I2C_GenerateSTART:
 385              	.LFB115:
 386              		.loc 1 339 0
 387              		.cfi_startproc
 388              		@ args = 0, pretend = 0, frame = 0
 389              		@ frame_needed = 0, uses_anonymous_args = 0
 390              		@ link register save eliminated.
 391              	.LVL39:
 392              		.loc 1 346 0
 393 0000 0388     		ldrh	r3, [r0]
 394              		.loc 1 343 0
 395 0002 29B9     		cbnz	r1, .L30
ARM GAS  C:\Users\jsyoon\AppData\Local\Temp\ccYheA2D.s 			page 8


 396              		.loc 1 351 0
 397 0004 23F48073 		bic	r3, r3, #256
 398 0008 1B04     		lsls	r3, r3, #16
 399 000a 1B0C     		lsrs	r3, r3, #16
 400 000c 0380     		strh	r3, [r0]	@ movhi
 401 000e 7047     		bx	lr
 402              	.L30:
 403              		.loc 1 346 0
 404 0010 9BB2     		uxth	r3, r3
 405 0012 43F48073 		orr	r3, r3, #256
 406 0016 0380     		strh	r3, [r0]	@ movhi
 407 0018 7047     		bx	lr
 408              		.cfi_endproc
 409              	.LFE115:
 410              		.size	I2C_GenerateSTART, .-I2C_GenerateSTART
 411 001a 00BFAFF3 		.section	.text.I2C_GenerateSTOP,"ax",%progbits
 411      0080
 412              		.align	2
 413              		.p2align 4,,15
 414              		.global	I2C_GenerateSTOP
 415              		.thumb
 416              		.thumb_func
 417              		.type	I2C_GenerateSTOP, %function
 418              	I2C_GenerateSTOP:
 419              	.LFB116:
 420              		.loc 1 363 0
 421              		.cfi_startproc
 422              		@ args = 0, pretend = 0, frame = 0
 423              		@ frame_needed = 0, uses_anonymous_args = 0
 424              		@ link register save eliminated.
 425              	.LVL40:
 426              		.loc 1 370 0
 427 0000 0388     		ldrh	r3, [r0]
 428              		.loc 1 367 0
 429 0002 29B9     		cbnz	r1, .L34
 430              		.loc 1 375 0
 431 0004 23F40073 		bic	r3, r3, #512
 432 0008 1B04     		lsls	r3, r3, #16
 433 000a 1B0C     		lsrs	r3, r3, #16
 434 000c 0380     		strh	r3, [r0]	@ movhi
 435 000e 7047     		bx	lr
 436              	.L34:
 437              		.loc 1 370 0
 438 0010 9BB2     		uxth	r3, r3
 439 0012 43F40073 		orr	r3, r3, #512
 440 0016 0380     		strh	r3, [r0]	@ movhi
 441 0018 7047     		bx	lr
 442              		.cfi_endproc
 443              	.LFE116:
 444              		.size	I2C_GenerateSTOP, .-I2C_GenerateSTOP
 445 001a 00BFAFF3 		.section	.text.I2C_Send7bitAddress,"ax",%progbits
 445      0080
 446              		.align	2
 447              		.p2align 4,,15
 448              		.global	I2C_Send7bitAddress
 449              		.thumb
 450              		.thumb_func
ARM GAS  C:\Users\jsyoon\AppData\Local\Temp\ccYheA2D.s 			page 9


 451              		.type	I2C_Send7bitAddress, %function
 452              	I2C_Send7bitAddress:
 453              	.LFB117:
 454              		.loc 1 391 0
 455              		.cfi_startproc
 456              		@ args = 0, pretend = 0, frame = 0
 457              		@ frame_needed = 0, uses_anonymous_args = 0
 458              		@ link register save eliminated.
 459              	.LVL41:
 460              		.loc 1 396 0
 461 0000 1AB9     		cbnz	r2, .L38
 462              		.loc 1 404 0
 463 0002 01F0FE01 		and	r1, r1, #254
 464              	.LVL42:
 465              		.loc 1 407 0
 466 0006 0182     		strh	r1, [r0, #16]	@ movhi
 467 0008 7047     		bx	lr
 468              	.L38:
 469              		.loc 1 399 0
 470 000a 41F00101 		orr	r1, r1, #1
 471              	.LVL43:
 472              		.loc 1 407 0
 473 000e 0182     		strh	r1, [r0, #16]	@ movhi
 474 0010 7047     		bx	lr
 475              		.cfi_endproc
 476              	.LFE117:
 477              		.size	I2C_Send7bitAddress, .-I2C_Send7bitAddress
 478 0012 00BFAFF3 		.section	.text.I2C_AcknowledgeConfig,"ax",%progbits
 478      0080AFF3 
 478      0080AFF3 
 478      0080
 479              		.align	2
 480              		.p2align 4,,15
 481              		.global	I2C_AcknowledgeConfig
 482              		.thumb
 483              		.thumb_func
 484              		.type	I2C_AcknowledgeConfig, %function
 485              	I2C_AcknowledgeConfig:
 486              	.LFB118:
 487              		.loc 1 418 0
 488              		.cfi_startproc
 489              		@ args = 0, pretend = 0, frame = 0
 490              		@ frame_needed = 0, uses_anonymous_args = 0
 491              		@ link register save eliminated.
 492              	.LVL44:
 493              		.loc 1 425 0
 494 0000 0388     		ldrh	r3, [r0]
 495              		.loc 1 422 0
 496 0002 29B9     		cbnz	r1, .L42
 497              		.loc 1 430 0
 498 0004 23F48063 		bic	r3, r3, #1024
 499 0008 1B04     		lsls	r3, r3, #16
 500 000a 1B0C     		lsrs	r3, r3, #16
 501 000c 0380     		strh	r3, [r0]	@ movhi
 502 000e 7047     		bx	lr
 503              	.L42:
 504              		.loc 1 425 0
ARM GAS  C:\Users\jsyoon\AppData\Local\Temp\ccYheA2D.s 			page 10


 505 0010 9BB2     		uxth	r3, r3
 506 0012 43F48063 		orr	r3, r3, #1024
 507 0016 0380     		strh	r3, [r0]	@ movhi
 508 0018 7047     		bx	lr
 509              		.cfi_endproc
 510              	.LFE118:
 511              		.size	I2C_AcknowledgeConfig, .-I2C_AcknowledgeConfig
 512 001a 00BFAFF3 		.section	.text.I2C_OwnAddress2Config,"ax",%progbits
 512      0080
 513              		.align	2
 514              		.p2align 4,,15
 515              		.global	I2C_OwnAddress2Config
 516              		.thumb
 517              		.thumb_func
 518              		.type	I2C_OwnAddress2Config, %function
 519              	I2C_OwnAddress2Config:
 520              	.LFB119:
 521              		.loc 1 441 0
 522              		.cfi_startproc
 523              		@ args = 0, pretend = 0, frame = 0
 524              		@ frame_needed = 0, uses_anonymous_args = 0
 525              		@ link register save eliminated.
 526              	.LVL45:
 527              		.loc 1 448 0
 528 0000 8389     		ldrh	r3, [r0, #12]
 529 0002 9BB2     		uxth	r3, r3
 530              	.LVL46:
 531              		.loc 1 454 0
 532 0004 01F0FE01 		and	r1, r1, #254
 533              	.LVL47:
 534              		.loc 1 451 0
 535 0008 23F0FE03 		bic	r3, r3, #254
 536              	.LVL48:
 537              		.loc 1 454 0
 538 000c 1943     		orrs	r1, r1, r3
 539              	.LVL49:
 540              		.loc 1 457 0
 541 000e 8181     		strh	r1, [r0, #12]	@ movhi
 542 0010 7047     		bx	lr
 543              		.cfi_endproc
 544              	.LFE119:
 545              		.size	I2C_OwnAddress2Config, .-I2C_OwnAddress2Config
 546 0012 00BFAFF3 		.section	.text.I2C_DualAddressCmd,"ax",%progbits
 546      0080AFF3 
 546      0080AFF3 
 546      0080
 547              		.align	2
 548              		.p2align 4,,15
 549              		.global	I2C_DualAddressCmd
 550              		.thumb
 551              		.thumb_func
 552              		.type	I2C_DualAddressCmd, %function
 553              	I2C_DualAddressCmd:
 554              	.LFB120:
 555              		.loc 1 468 0
 556              		.cfi_startproc
 557              		@ args = 0, pretend = 0, frame = 0
ARM GAS  C:\Users\jsyoon\AppData\Local\Temp\ccYheA2D.s 			page 11


 558              		@ frame_needed = 0, uses_anonymous_args = 0
 559              		@ link register save eliminated.
 560              	.LVL50:
 561              		.loc 1 475 0
 562 0000 8389     		ldrh	r3, [r0, #12]
 563              		.loc 1 472 0
 564 0002 29B9     		cbnz	r1, .L47
 565              		.loc 1 480 0
 566 0004 23F00103 		bic	r3, r3, #1
 567 0008 1B04     		lsls	r3, r3, #16
 568 000a 1B0C     		lsrs	r3, r3, #16
 569 000c 8381     		strh	r3, [r0, #12]	@ movhi
 570 000e 7047     		bx	lr
 571              	.L47:
 572              		.loc 1 475 0
 573 0010 9BB2     		uxth	r3, r3
 574 0012 43F00103 		orr	r3, r3, #1
 575 0016 8381     		strh	r3, [r0, #12]	@ movhi
 576 0018 7047     		bx	lr
 577              		.cfi_endproc
 578              	.LFE120:
 579              		.size	I2C_DualAddressCmd, .-I2C_DualAddressCmd
 580 001a 00BFAFF3 		.section	.text.I2C_GeneralCallCmd,"ax",%progbits
 580      0080
 581              		.align	2
 582              		.p2align 4,,15
 583              		.global	I2C_GeneralCallCmd
 584              		.thumb
 585              		.thumb_func
 586              		.type	I2C_GeneralCallCmd, %function
 587              	I2C_GeneralCallCmd:
 588              	.LFB121:
 589              		.loc 1 492 0
 590              		.cfi_startproc
 591              		@ args = 0, pretend = 0, frame = 0
 592              		@ frame_needed = 0, uses_anonymous_args = 0
 593              		@ link register save eliminated.
 594              	.LVL51:
 595              		.loc 1 499 0
 596 0000 0388     		ldrh	r3, [r0]
 597              		.loc 1 496 0
 598 0002 29B9     		cbnz	r1, .L51
 599              		.loc 1 504 0
 600 0004 23F04003 		bic	r3, r3, #64
 601 0008 1B04     		lsls	r3, r3, #16
 602 000a 1B0C     		lsrs	r3, r3, #16
 603 000c 0380     		strh	r3, [r0]	@ movhi
 604 000e 7047     		bx	lr
 605              	.L51:
 606              		.loc 1 499 0
 607 0010 9BB2     		uxth	r3, r3
 608 0012 43F04003 		orr	r3, r3, #64
 609 0016 0380     		strh	r3, [r0]	@ movhi
 610 0018 7047     		bx	lr
 611              		.cfi_endproc
 612              	.LFE121:
 613              		.size	I2C_GeneralCallCmd, .-I2C_GeneralCallCmd
ARM GAS  C:\Users\jsyoon\AppData\Local\Temp\ccYheA2D.s 			page 12


 614 001a 00BFAFF3 		.section	.text.I2C_SoftwareResetCmd,"ax",%progbits
 614      0080
 615              		.align	2
 616              		.p2align 4,,15
 617              		.global	I2C_SoftwareResetCmd
 618              		.thumb
 619              		.thumb_func
 620              		.type	I2C_SoftwareResetCmd, %function
 621              	I2C_SoftwareResetCmd:
 622              	.LFB122:
 623              		.loc 1 518 0
 624              		.cfi_startproc
 625              		@ args = 0, pretend = 0, frame = 0
 626              		@ frame_needed = 0, uses_anonymous_args = 0
 627              		@ link register save eliminated.
 628              	.LVL52:
 629              		.loc 1 525 0
 630 0000 0388     		ldrh	r3, [r0]
 631              		.loc 1 522 0
 632 0002 19B9     		cbnz	r1, .L55
 633              		.loc 1 530 0
 634 0004 C3F30E03 		ubfx	r3, r3, #0, #15
 635 0008 0380     		strh	r3, [r0]	@ movhi
 636 000a 7047     		bx	lr
 637              	.L55:
 638              		.loc 1 525 0
 639 000c 6FEA4343 		mvn	r3, r3, lsl #17
 640 0010 6FEA5343 		mvn	r3, r3, lsr #17
 641 0014 9BB2     		uxth	r3, r3
 642 0016 0380     		strh	r3, [r0]	@ movhi
 643 0018 7047     		bx	lr
 644              		.cfi_endproc
 645              	.LFE122:
 646              		.size	I2C_SoftwareResetCmd, .-I2C_SoftwareResetCmd
 647 001a 00BFAFF3 		.section	.text.I2C_StretchClockCmd,"ax",%progbits
 647      0080
 648              		.align	2
 649              		.p2align 4,,15
 650              		.global	I2C_StretchClockCmd
 651              		.thumb
 652              		.thumb_func
 653              		.type	I2C_StretchClockCmd, %function
 654              	I2C_StretchClockCmd:
 655              	.LFB123:
 656              		.loc 1 542 0
 657              		.cfi_startproc
 658              		@ args = 0, pretend = 0, frame = 0
 659              		@ frame_needed = 0, uses_anonymous_args = 0
 660              		@ link register save eliminated.
 661              	.LVL53:
 662              		.loc 1 549 0
 663 0000 0388     		ldrh	r3, [r0]
 664              		.loc 1 546 0
 665 0002 29B1     		cbz	r1, .L59
 666              		.loc 1 554 0
 667 0004 23F08003 		bic	r3, r3, #128
 668 0008 1B04     		lsls	r3, r3, #16
ARM GAS  C:\Users\jsyoon\AppData\Local\Temp\ccYheA2D.s 			page 13


 669 000a 1B0C     		lsrs	r3, r3, #16
 670 000c 0380     		strh	r3, [r0]	@ movhi
 671 000e 7047     		bx	lr
 672              	.L59:
 673              		.loc 1 549 0
 674 0010 9BB2     		uxth	r3, r3
 675 0012 43F08003 		orr	r3, r3, #128
 676 0016 0380     		strh	r3, [r0]	@ movhi
 677 0018 7047     		bx	lr
 678              		.cfi_endproc
 679              	.LFE123:
 680              		.size	I2C_StretchClockCmd, .-I2C_StretchClockCmd
 681 001a 00BFAFF3 		.section	.text.I2C_FastModeDutyCycleConfig,"ax",%progbits
 681      0080
 682              		.align	2
 683              		.p2align 4,,15
 684              		.global	I2C_FastModeDutyCycleConfig
 685              		.thumb
 686              		.thumb_func
 687              		.type	I2C_FastModeDutyCycleConfig, %function
 688              	I2C_FastModeDutyCycleConfig:
 689              	.LFB124:
 690              		.loc 1 568 0
 691              		.cfi_startproc
 692              		@ args = 0, pretend = 0, frame = 0
 693              		@ frame_needed = 0, uses_anonymous_args = 0
 694              		@ link register save eliminated.
 695              	.LVL54:
 696              		.loc 1 572 0
 697 0000 B1F5804F 		cmp	r1, #16384
 698              		.loc 1 575 0
 699 0004 838B     		ldrh	r3, [r0, #28]
 700              		.loc 1 572 0
 701 0006 05D0     		beq	.L61
 702              		.loc 1 575 0
 703 0008 23F48043 		bic	r3, r3, #16384
 704 000c 1B04     		lsls	r3, r3, #16
 705 000e 1B0C     		lsrs	r3, r3, #16
 706 0010 8383     		strh	r3, [r0, #28]	@ movhi
 707 0012 7047     		bx	lr
 708              	.L61:
 709              		.loc 1 580 0
 710 0014 9BB2     		uxth	r3, r3
 711 0016 43F48043 		orr	r3, r3, #16384
 712 001a 8383     		strh	r3, [r0, #28]	@ movhi
 713 001c 7047     		bx	lr
 714              		.cfi_endproc
 715              	.LFE124:
 716              		.size	I2C_FastModeDutyCycleConfig, .-I2C_FastModeDutyCycleConfig
 717 001e 00BF     		.section	.text.I2C_NACKPositionConfig,"ax",%progbits
 718              		.align	2
 719              		.p2align 4,,15
 720              		.global	I2C_NACKPositionConfig
 721              		.thumb
 722              		.thumb_func
 723              		.type	I2C_NACKPositionConfig, %function
 724              	I2C_NACKPositionConfig:
ARM GAS  C:\Users\jsyoon\AppData\Local\Temp\ccYheA2D.s 			page 14


 725              	.LFB125:
 726              		.loc 1 606 0
 727              		.cfi_startproc
 728              		@ args = 0, pretend = 0, frame = 0
 729              		@ frame_needed = 0, uses_anonymous_args = 0
 730              		@ link register save eliminated.
 731              	.LVL55:
 732              		.loc 1 612 0
 733 0000 B1F5006F 		cmp	r1, #2048
 734              		.loc 1 615 0
 735 0004 0388     		ldrh	r3, [r0]
 736              		.loc 1 612 0
 737 0006 05D0     		beq	.L66
 738              		.loc 1 620 0
 739 0008 23F40063 		bic	r3, r3, #2048
 740 000c 1B04     		lsls	r3, r3, #16
 741 000e 1B0C     		lsrs	r3, r3, #16
 742 0010 0380     		strh	r3, [r0]	@ movhi
 743 0012 7047     		bx	lr
 744              	.L66:
 745              		.loc 1 615 0
 746 0014 9BB2     		uxth	r3, r3
 747 0016 43F40063 		orr	r3, r3, #2048
 748 001a 0380     		strh	r3, [r0]	@ movhi
 749 001c 7047     		bx	lr
 750              		.cfi_endproc
 751              	.LFE125:
 752              		.size	I2C_NACKPositionConfig, .-I2C_NACKPositionConfig
 753 001e 00BF     		.section	.text.I2C_SMBusAlertConfig,"ax",%progbits
 754              		.align	2
 755              		.p2align 4,,15
 756              		.global	I2C_SMBusAlertConfig
 757              		.thumb
 758              		.thumb_func
 759              		.type	I2C_SMBusAlertConfig, %function
 760              	I2C_SMBusAlertConfig:
 761              	.LFB126:
 762              		.loc 1 634 0
 763              		.cfi_startproc
 764              		@ args = 0, pretend = 0, frame = 0
 765              		@ frame_needed = 0, uses_anonymous_args = 0
 766              		@ link register save eliminated.
 767              	.LVL56:
 768              		.loc 1 638 0
 769 0000 B1F5005F 		cmp	r1, #8192
 770              		.loc 1 641 0
 771 0004 0388     		ldrh	r3, [r0]
 772              		.loc 1 638 0
 773 0006 05D0     		beq	.L70
 774              		.loc 1 646 0
 775 0008 23F40053 		bic	r3, r3, #8192
 776 000c 1B04     		lsls	r3, r3, #16
 777 000e 1B0C     		lsrs	r3, r3, #16
 778 0010 0380     		strh	r3, [r0]	@ movhi
 779 0012 7047     		bx	lr
 780              	.L70:
 781              		.loc 1 641 0
ARM GAS  C:\Users\jsyoon\AppData\Local\Temp\ccYheA2D.s 			page 15


 782 0014 9BB2     		uxth	r3, r3
 783 0016 43F40053 		orr	r3, r3, #8192
 784 001a 0380     		strh	r3, [r0]	@ movhi
 785 001c 7047     		bx	lr
 786              		.cfi_endproc
 787              	.LFE126:
 788              		.size	I2C_SMBusAlertConfig, .-I2C_SMBusAlertConfig
 789 001e 00BF     		.section	.text.I2C_ARPCmd,"ax",%progbits
 790              		.align	2
 791              		.p2align 4,,15
 792              		.global	I2C_ARPCmd
 793              		.thumb
 794              		.thumb_func
 795              		.type	I2C_ARPCmd, %function
 796              	I2C_ARPCmd:
 797              	.LFB127:
 798              		.loc 1 658 0
 799              		.cfi_startproc
 800              		@ args = 0, pretend = 0, frame = 0
 801              		@ frame_needed = 0, uses_anonymous_args = 0
 802              		@ link register save eliminated.
 803              	.LVL57:
 804              		.loc 1 665 0
 805 0000 0388     		ldrh	r3, [r0]
 806              		.loc 1 662 0
 807 0002 29B9     		cbnz	r1, .L74
 808              		.loc 1 670 0
 809 0004 23F01003 		bic	r3, r3, #16
 810 0008 1B04     		lsls	r3, r3, #16
 811 000a 1B0C     		lsrs	r3, r3, #16
 812 000c 0380     		strh	r3, [r0]	@ movhi
 813 000e 7047     		bx	lr
 814              	.L74:
 815              		.loc 1 665 0
 816 0010 9BB2     		uxth	r3, r3
 817 0012 43F01003 		orr	r3, r3, #16
 818 0016 0380     		strh	r3, [r0]	@ movhi
 819 0018 7047     		bx	lr
 820              		.cfi_endproc
 821              	.LFE127:
 822              		.size	I2C_ARPCmd, .-I2C_ARPCmd
 823 001a 00BFAFF3 		.section	.text.I2C_SendData,"ax",%progbits
 823      0080
 824              		.align	2
 825              		.p2align 4,,15
 826              		.global	I2C_SendData
 827              		.thumb
 828              		.thumb_func
 829              		.type	I2C_SendData, %function
 830              	I2C_SendData:
 831              	.LFB128:
 832              		.loc 1 696 0
 833              		.cfi_startproc
 834              		@ args = 0, pretend = 0, frame = 0
 835              		@ frame_needed = 0, uses_anonymous_args = 0
 836              		@ link register save eliminated.
 837              	.LVL58:
ARM GAS  C:\Users\jsyoon\AppData\Local\Temp\ccYheA2D.s 			page 16


 838              		.loc 1 700 0
 839 0000 0182     		strh	r1, [r0, #16]	@ movhi
 840 0002 7047     		bx	lr
 841              		.cfi_endproc
 842              	.LFE128:
 843              		.size	I2C_SendData, .-I2C_SendData
 844 0004 AFF30080 		.section	.text.I2C_ReceiveData,"ax",%progbits
 844      AFF30080 
 844      AFF30080 
 845              		.align	2
 846              		.p2align 4,,15
 847              		.global	I2C_ReceiveData
 848              		.thumb
 849              		.thumb_func
 850              		.type	I2C_ReceiveData, %function
 851              	I2C_ReceiveData:
 852              	.LFB129:
 853              		.loc 1 709 0
 854              		.cfi_startproc
 855              		@ args = 0, pretend = 0, frame = 0
 856              		@ frame_needed = 0, uses_anonymous_args = 0
 857              		@ link register save eliminated.
 858              	.LVL59:
 859              		.loc 1 713 0
 860 0000 008A     		ldrh	r0, [r0, #16]
 861              	.LVL60:
 862              		.loc 1 714 0
 863 0002 C0B2     		uxtb	r0, r0
 864 0004 7047     		bx	lr
 865              		.cfi_endproc
 866              	.LFE129:
 867              		.size	I2C_ReceiveData, .-I2C_ReceiveData
 868 0006 00BFAFF3 		.section	.text.I2C_TransmitPEC,"ax",%progbits
 868      0080AFF3 
 868      0080
 869              		.align	2
 870              		.p2align 4,,15
 871              		.global	I2C_TransmitPEC
 872              		.thumb
 873              		.thumb_func
 874              		.type	I2C_TransmitPEC, %function
 875              	I2C_TransmitPEC:
 876              	.LFB130:
 877              		.loc 1 740 0
 878              		.cfi_startproc
 879              		@ args = 0, pretend = 0, frame = 0
 880              		@ frame_needed = 0, uses_anonymous_args = 0
 881              		@ link register save eliminated.
 882              	.LVL61:
 883              		.loc 1 747 0
 884 0000 0388     		ldrh	r3, [r0]
 885              		.loc 1 744 0
 886 0002 29B9     		cbnz	r1, .L80
 887              		.loc 1 752 0
 888 0004 23F48053 		bic	r3, r3, #4096
 889 0008 1B04     		lsls	r3, r3, #16
 890 000a 1B0C     		lsrs	r3, r3, #16
ARM GAS  C:\Users\jsyoon\AppData\Local\Temp\ccYheA2D.s 			page 17


 891 000c 0380     		strh	r3, [r0]	@ movhi
 892 000e 7047     		bx	lr
 893              	.L80:
 894              		.loc 1 747 0
 895 0010 9BB2     		uxth	r3, r3
 896 0012 43F48053 		orr	r3, r3, #4096
 897 0016 0380     		strh	r3, [r0]	@ movhi
 898 0018 7047     		bx	lr
 899              		.cfi_endproc
 900              	.LFE130:
 901              		.size	I2C_TransmitPEC, .-I2C_TransmitPEC
 902 001a 00BFAFF3 		.section	.text.I2C_PECPositionConfig,"ax",%progbits
 902      0080
 903              		.align	2
 904              		.p2align 4,,15
 905              		.global	I2C_PECPositionConfig
 906              		.thumb
 907              		.thumb_func
 908              		.type	I2C_PECPositionConfig, %function
 909              	I2C_PECPositionConfig:
 910              	.LFB131:
 911              		.loc 1 771 0
 912              		.cfi_startproc
 913              		@ args = 0, pretend = 0, frame = 0
 914              		@ frame_needed = 0, uses_anonymous_args = 0
 915              		@ link register save eliminated.
 916              	.LVL62:
 917              		.loc 1 775 0
 918 0000 B1F5006F 		cmp	r1, #2048
 919              		.loc 1 778 0
 920 0004 0388     		ldrh	r3, [r0]
 921              		.loc 1 775 0
 922 0006 05D0     		beq	.L84
 923              		.loc 1 783 0
 924 0008 23F40063 		bic	r3, r3, #2048
 925 000c 1B04     		lsls	r3, r3, #16
 926 000e 1B0C     		lsrs	r3, r3, #16
 927 0010 0380     		strh	r3, [r0]	@ movhi
 928 0012 7047     		bx	lr
 929              	.L84:
 930              		.loc 1 778 0
 931 0014 9BB2     		uxth	r3, r3
 932 0016 43F40063 		orr	r3, r3, #2048
 933 001a 0380     		strh	r3, [r0]	@ movhi
 934 001c 7047     		bx	lr
 935              		.cfi_endproc
 936              	.LFE131:
 937              		.size	I2C_PECPositionConfig, .-I2C_PECPositionConfig
 938 001e 00BF     		.section	.text.I2C_CalculatePEC,"ax",%progbits
 939              		.align	2
 940              		.p2align 4,,15
 941              		.global	I2C_CalculatePEC
 942              		.thumb
 943              		.thumb_func
 944              		.type	I2C_CalculatePEC, %function
 945              	I2C_CalculatePEC:
 946              	.LFB132:
ARM GAS  C:\Users\jsyoon\AppData\Local\Temp\ccYheA2D.s 			page 18


 947              		.loc 1 795 0
 948              		.cfi_startproc
 949              		@ args = 0, pretend = 0, frame = 0
 950              		@ frame_needed = 0, uses_anonymous_args = 0
 951              		@ link register save eliminated.
 952              	.LVL63:
 953              		.loc 1 802 0
 954 0000 0388     		ldrh	r3, [r0]
 955              		.loc 1 799 0
 956 0002 29B9     		cbnz	r1, .L88
 957              		.loc 1 807 0
 958 0004 23F02003 		bic	r3, r3, #32
 959 0008 1B04     		lsls	r3, r3, #16
 960 000a 1B0C     		lsrs	r3, r3, #16
 961 000c 0380     		strh	r3, [r0]	@ movhi
 962 000e 7047     		bx	lr
 963              	.L88:
 964              		.loc 1 802 0
 965 0010 9BB2     		uxth	r3, r3
 966 0012 43F02003 		orr	r3, r3, #32
 967 0016 0380     		strh	r3, [r0]	@ movhi
 968 0018 7047     		bx	lr
 969              		.cfi_endproc
 970              	.LFE132:
 971              		.size	I2C_CalculatePEC, .-I2C_CalculatePEC
 972 001a 00BFAFF3 		.section	.text.I2C_GetPEC,"ax",%progbits
 972      0080
 973              		.align	2
 974              		.p2align 4,,15
 975              		.global	I2C_GetPEC
 976              		.thumb
 977              		.thumb_func
 978              		.type	I2C_GetPEC, %function
 979              	I2C_GetPEC:
 980              	.LFB133:
 981              		.loc 1 817 0
 982              		.cfi_startproc
 983              		@ args = 0, pretend = 0, frame = 0
 984              		@ frame_needed = 0, uses_anonymous_args = 0
 985              		@ link register save eliminated.
 986              	.LVL64:
 987              		.loc 1 821 0
 988 0000 008B     		ldrh	r0, [r0, #24]
 989              	.LVL65:
 990              		.loc 1 822 0
 991 0002 C0F30720 		ubfx	r0, r0, #8, #8
 992 0006 7047     		bx	lr
 993              		.cfi_endproc
 994              	.LFE133:
 995              		.size	I2C_GetPEC, .-I2C_GetPEC
 996 0008 AFF30080 		.section	.text.I2C_DMACmd,"ax",%progbits
 996      AFF30080 
 997              		.align	2
 998              		.p2align 4,,15
 999              		.global	I2C_DMACmd
 1000              		.thumb
 1001              		.thumb_func
ARM GAS  C:\Users\jsyoon\AppData\Local\Temp\ccYheA2D.s 			page 19


 1002              		.type	I2C_DMACmd, %function
 1003              	I2C_DMACmd:
 1004              	.LFB134:
 1005              		.loc 1 850 0
 1006              		.cfi_startproc
 1007              		@ args = 0, pretend = 0, frame = 0
 1008              		@ frame_needed = 0, uses_anonymous_args = 0
 1009              		@ link register save eliminated.
 1010              	.LVL66:
 1011              		.loc 1 857 0
 1012 0000 8388     		ldrh	r3, [r0, #4]
 1013              		.loc 1 854 0
 1014 0002 29B9     		cbnz	r1, .L93
 1015              		.loc 1 862 0
 1016 0004 23F40063 		bic	r3, r3, #2048
 1017 0008 1B04     		lsls	r3, r3, #16
 1018 000a 1B0C     		lsrs	r3, r3, #16
 1019 000c 8380     		strh	r3, [r0, #4]	@ movhi
 1020 000e 7047     		bx	lr
 1021              	.L93:
 1022              		.loc 1 857 0
 1023 0010 9BB2     		uxth	r3, r3
 1024 0012 43F40063 		orr	r3, r3, #2048
 1025 0016 8380     		strh	r3, [r0, #4]	@ movhi
 1026 0018 7047     		bx	lr
 1027              		.cfi_endproc
 1028              	.LFE134:
 1029              		.size	I2C_DMACmd, .-I2C_DMACmd
 1030 001a 00BFAFF3 		.section	.text.I2C_DMALastTransferCmd,"ax",%progbits
 1030      0080
 1031              		.align	2
 1032              		.p2align 4,,15
 1033              		.global	I2C_DMALastTransferCmd
 1034              		.thumb
 1035              		.thumb_func
 1036              		.type	I2C_DMALastTransferCmd, %function
 1037              	I2C_DMALastTransferCmd:
 1038              	.LFB135:
 1039              		.loc 1 874 0
 1040              		.cfi_startproc
 1041              		@ args = 0, pretend = 0, frame = 0
 1042              		@ frame_needed = 0, uses_anonymous_args = 0
 1043              		@ link register save eliminated.
 1044              	.LVL67:
 1045              		.loc 1 881 0
 1046 0000 8388     		ldrh	r3, [r0, #4]
 1047              		.loc 1 878 0
 1048 0002 29B9     		cbnz	r1, .L97
 1049              		.loc 1 886 0
 1050 0004 23F48053 		bic	r3, r3, #4096
 1051 0008 1B04     		lsls	r3, r3, #16
 1052 000a 1B0C     		lsrs	r3, r3, #16
 1053 000c 8380     		strh	r3, [r0, #4]	@ movhi
 1054 000e 7047     		bx	lr
 1055              	.L97:
 1056              		.loc 1 881 0
 1057 0010 9BB2     		uxth	r3, r3
ARM GAS  C:\Users\jsyoon\AppData\Local\Temp\ccYheA2D.s 			page 20


 1058 0012 43F48053 		orr	r3, r3, #4096
 1059 0016 8380     		strh	r3, [r0, #4]	@ movhi
 1060 0018 7047     		bx	lr
 1061              		.cfi_endproc
 1062              	.LFE135:
 1063              		.size	I2C_DMALastTransferCmd, .-I2C_DMALastTransferCmd
 1064 001a 00BFAFF3 		.section	.text.I2C_ReadRegister,"ax",%progbits
 1064      0080
 1065              		.align	2
 1066              		.p2align 4,,15
 1067              		.global	I2C_ReadRegister
 1068              		.thumb
 1069              		.thumb_func
 1070              		.type	I2C_ReadRegister, %function
 1071              	I2C_ReadRegister:
 1072              	.LFB136:
 1073              		.loc 1 1012 0
 1074              		.cfi_startproc
 1075              		@ args = 0, pretend = 0, frame = 8
 1076              		@ frame_needed = 0, uses_anonymous_args = 0
 1077              		@ link register save eliminated.
 1078              	.LVL68:
 1079 0000 82B0     		sub	sp, sp, #8
 1080              		.cfi_def_cfa_offset 8
 1081              		.loc 1 1013 0
 1082 0002 0023     		movs	r3, #0
 1083 0004 0193     		str	r3, [sp, #4]
 1084              		.loc 1 1019 0
 1085 0006 0190     		str	r0, [sp, #4]
 1086              		.loc 1 1020 0
 1087 0008 019B     		ldr	r3, [sp, #4]
 1088 000a 1944     		add	r1, r1, r3
 1089              	.LVL69:
 1090 000c 0191     		str	r1, [sp, #4]
 1091              		.loc 1 1023 0
 1092 000e 019B     		ldr	r3, [sp, #4]
 1093 0010 1888     		ldrh	r0, [r3]
 1094              	.LVL70:
 1095              		.loc 1 1024 0
 1096 0012 80B2     		uxth	r0, r0
 1097 0014 02B0     		add	sp, sp, #8
 1098              		@ sp needed
 1099 0016 7047     		bx	lr
 1100              		.cfi_endproc
 1101              	.LFE136:
 1102              		.size	I2C_ReadRegister, .-I2C_ReadRegister
 1103 0018 AFF30080 		.section	.text.I2C_ITConfig,"ax",%progbits
 1103      AFF30080 
 1104              		.align	2
 1105              		.p2align 4,,15
 1106              		.global	I2C_ITConfig
 1107              		.thumb
 1108              		.thumb_func
 1109              		.type	I2C_ITConfig, %function
 1110              	I2C_ITConfig:
 1111              	.LFB137:
 1112              		.loc 1 1039 0
ARM GAS  C:\Users\jsyoon\AppData\Local\Temp\ccYheA2D.s 			page 21


 1113              		.cfi_startproc
 1114              		@ args = 0, pretend = 0, frame = 0
 1115              		@ frame_needed = 0, uses_anonymous_args = 0
 1116              		@ link register save eliminated.
 1117              	.LVL71:
 1118              		.loc 1 1048 0
 1119 0000 8388     		ldrh	r3, [r0, #4]
 1120 0002 9BB2     		uxth	r3, r3
 1121              		.loc 1 1045 0
 1122 0004 1AB9     		cbnz	r2, .L102
 1123              		.loc 1 1053 0
 1124 0006 23EA0101 		bic	r1, r3, r1
 1125              	.LVL72:
 1126 000a 8180     		strh	r1, [r0, #4]	@ movhi
 1127 000c 7047     		bx	lr
 1128              	.LVL73:
 1129              	.L102:
 1130              		.loc 1 1048 0
 1131 000e 1943     		orrs	r1, r1, r3
 1132              	.LVL74:
 1133 0010 8180     		strh	r1, [r0, #4]	@ movhi
 1134 0012 7047     		bx	lr
 1135              		.cfi_endproc
 1136              	.LFE137:
 1137              		.size	I2C_ITConfig, .-I2C_ITConfig
 1138 0014 AFF30080 		.section	.text.I2C_CheckEvent,"ax",%progbits
 1138      AFF30080 
 1138      AFF30080 
 1139              		.align	2
 1140              		.p2align 4,,15
 1141              		.global	I2C_CheckEvent
 1142              		.thumb
 1143              		.thumb_func
 1144              		.type	I2C_CheckEvent, %function
 1145              	I2C_CheckEvent:
 1146              	.LFB138:
 1147              		.loc 1 1098 0
 1148              		.cfi_startproc
 1149              		@ args = 0, pretend = 0, frame = 0
 1150              		@ frame_needed = 0, uses_anonymous_args = 0
 1151              		@ link register save eliminated.
 1152              	.LVL75:
 1153              		.loc 1 1108 0
 1154 0000 828A     		ldrh	r2, [r0, #20]
 1155              		.loc 1 1109 0
 1156 0002 038B     		ldrh	r3, [r0, #24]
 1157              		.loc 1 1108 0
 1158 0004 90B2     		uxth	r0, r2
 1159              	.LVL76:
 1160              		.loc 1 1113 0
 1161 0006 40EA0340 		orr	r0, r0, r3, lsl #16
 1162              	.LVL77:
 1163 000a 21F07F43 		bic	r3, r1, #-16777216
 1164              	.LVL78:
 1165              		.loc 1 1116 0
 1166 000e 1840     		ands	r0, r0, r3
 1167              		.loc 1 1128 0
ARM GAS  C:\Users\jsyoon\AppData\Local\Temp\ccYheA2D.s 			page 22


 1168 0010 0B1A     		subs	r3, r1, r0
 1169 0012 5842     		rsbs	r0, r3, #0
 1170 0014 5841     		adcs	r0, r0, r3
 1171 0016 7047     		bx	lr
 1172              		.cfi_endproc
 1173              	.LFE138:
 1174              		.size	I2C_CheckEvent, .-I2C_CheckEvent
 1175 0018 AFF30080 		.section	.text.I2C_GetLastEvent,"ax",%progbits
 1175      AFF30080 
 1176              		.align	2
 1177              		.p2align 4,,15
 1178              		.global	I2C_GetLastEvent
 1179              		.thumb
 1180              		.thumb_func
 1181              		.type	I2C_GetLastEvent, %function
 1182              	I2C_GetLastEvent:
 1183              	.LFB139:
 1184              		.loc 1 1146 0
 1185              		.cfi_startproc
 1186              		@ args = 0, pretend = 0, frame = 0
 1187              		@ frame_needed = 0, uses_anonymous_args = 0
 1188              		@ link register save eliminated.
 1189              	.LVL79:
 1190              		.loc 1 1154 0
 1191 0000 828A     		ldrh	r2, [r0, #20]
 1192              		.loc 1 1155 0
 1193 0002 038B     		ldrh	r3, [r0, #24]
 1194              		.loc 1 1154 0
 1195 0004 90B2     		uxth	r0, r2
 1196              	.LVL80:
 1197              		.loc 1 1159 0
 1198 0006 40EA0340 		orr	r0, r0, r3, lsl #16
 1199              	.LVL81:
 1200              		.loc 1 1163 0
 1201 000a 20F07F40 		bic	r0, r0, #-16777216
 1202 000e 7047     		bx	lr
 1203              		.cfi_endproc
 1204              	.LFE139:
 1205              		.size	I2C_GetLastEvent, .-I2C_GetLastEvent
 1206              		.section	.text.I2C_GetFlagStatus,"ax",%progbits
 1207              		.align	2
 1208              		.p2align 4,,15
 1209              		.global	I2C_GetFlagStatus
 1210              		.thumb
 1211              		.thumb_func
 1212              		.type	I2C_GetFlagStatus, %function
 1213              	I2C_GetFlagStatus:
 1214              	.LFB140:
 1215              		.loc 1 1201 0
 1216              		.cfi_startproc
 1217              		@ args = 0, pretend = 0, frame = 8
 1218              		@ frame_needed = 0, uses_anonymous_args = 0
 1219              		@ link register save eliminated.
 1220              	.LVL82:
 1221 0000 82B0     		sub	sp, sp, #8
 1222              		.cfi_def_cfa_offset 8
 1223              		.loc 1 1203 0
ARM GAS  C:\Users\jsyoon\AppData\Local\Temp\ccYheA2D.s 			page 23


 1224 0002 0023     		movs	r3, #0
 1225              		.loc 1 1213 0
 1226 0004 0A0F     		lsrs	r2, r1, #28
 1227              		.loc 1 1203 0
 1228 0006 0093     		str	r3, [sp]
 1229 0008 0193     		str	r3, [sp, #4]
 1230              		.loc 1 1210 0
 1231 000a 0190     		str	r0, [sp, #4]
 1232              		.loc 1 1213 0
 1233 000c 0092     		str	r2, [sp]
 1234              		.loc 1 1218 0
 1235 000e 009B     		ldr	r3, [sp]
 1236              		.loc 1 1216 0
 1237 0010 21F07F41 		bic	r1, r1, #-16777216
 1238              	.LVL83:
 1239              		.loc 1 1218 0
 1240 0014 53B1     		cbz	r3, .L106
 1241              		.loc 1 1221 0
 1242 0016 019B     		ldr	r3, [sp, #4]
 1243 0018 1433     		adds	r3, r3, #20
 1244 001a 0193     		str	r3, [sp, #4]
 1245              	.L107:
 1246              		.loc 1 1231 0
 1247 001c 019B     		ldr	r3, [sp, #4]
 1248 001e 1B68     		ldr	r3, [r3]
 1249              	.LVL84:
 1250 0020 1942     		tst	r1, r3
 1251              		.loc 1 1244 0
 1252 0022 0CBF     		ite	eq
 1253 0024 0020     		moveq	r0, #0
 1254 0026 0120     		movne	r0, #1
 1255              	.LVL85:
 1256 0028 02B0     		add	sp, sp, #8
 1257              		@ sp needed
 1258 002a 7047     		bx	lr
 1259              	.LVL86:
 1260              	.L106:
 1261              		.loc 1 1228 0
 1262 002c 019B     		ldr	r3, [sp, #4]
 1263 002e 1833     		adds	r3, r3, #24
 1264              		.loc 1 1226 0
 1265 0030 090C     		lsrs	r1, r1, #16
 1266              	.LVL87:
 1267              		.loc 1 1228 0
 1268 0032 0193     		str	r3, [sp, #4]
 1269 0034 F2E7     		b	.L107
 1270              		.cfi_endproc
 1271              	.LFE140:
 1272              		.size	I2C_GetFlagStatus, .-I2C_GetFlagStatus
 1273 0036 00BFAFF3 		.section	.text.I2C_ClearFlag,"ax",%progbits
 1273      0080AFF3 
 1273      0080
 1274              		.align	2
 1275              		.p2align 4,,15
 1276              		.global	I2C_ClearFlag
 1277              		.thumb
 1278              		.thumb_func
ARM GAS  C:\Users\jsyoon\AppData\Local\Temp\ccYheA2D.s 			page 24


 1279              		.type	I2C_ClearFlag, %function
 1280              	I2C_ClearFlag:
 1281              	.LFB141:
 1282              		.loc 1 1278 0
 1283              		.cfi_startproc
 1284              		@ args = 0, pretend = 0, frame = 0
 1285              		@ frame_needed = 0, uses_anonymous_args = 0
 1286              		@ link register save eliminated.
 1287              	.LVL88:
 1288              		.loc 1 1286 0
 1289 0000 C943     		mvns	r1, r1
 1290              	.LVL89:
 1291 0002 89B2     		uxth	r1, r1
 1292              	.LVL90:
 1293 0004 8182     		strh	r1, [r0, #20]	@ movhi
 1294 0006 7047     		bx	lr
 1295              		.cfi_endproc
 1296              	.LFE141:
 1297              		.size	I2C_ClearFlag, .-I2C_ClearFlag
 1298 0008 AFF30080 		.section	.text.I2C_GetITStatus,"ax",%progbits
 1298      AFF30080 
 1299              		.align	2
 1300              		.p2align 4,,15
 1301              		.global	I2C_GetITStatus
 1302              		.thumb
 1303              		.thumb_func
 1304              		.type	I2C_GetITStatus, %function
 1305              	I2C_GetITStatus:
 1306              	.LFB142:
 1307              		.loc 1 1312 0
 1308              		.cfi_startproc
 1309              		@ args = 0, pretend = 0, frame = 0
 1310              		@ frame_needed = 0, uses_anonymous_args = 0
 1311              		@ link register save eliminated.
 1312              	.LVL91:
 1313              		.loc 1 1321 0
 1314 0000 8388     		ldrh	r3, [r0, #4]
 1315              		.loc 1 1327 0
 1316 0002 808A     		ldrh	r0, [r0, #20]
 1317              	.LVL92:
 1318 0004 80B2     		uxth	r0, r0
 1319 0006 0840     		ands	r0, r1, r0
 1320              		.loc 1 1321 0
 1321 0008 9BB2     		uxth	r3, r3
 1322              	.LVL93:
 1323              		.loc 1 1327 0
 1324 000a 06D0     		beq	.L110
 1325              		.loc 1 1321 0 discriminator 1
 1326 000c 01F0E061 		and	r1, r1, #117440512
 1327              	.LVL94:
 1328              		.loc 1 1327 0 discriminator 1
 1329 0010 13EA1141 		ands	r1, r3, r1, lsr #16
 1330              	.LVL95:
 1331              		.loc 1 1330 0 discriminator 1
 1332 0014 0CBF     		ite	eq
 1333 0016 0020     		moveq	r0, #0
 1334 0018 0120     		movne	r0, #1
ARM GAS  C:\Users\jsyoon\AppData\Local\Temp\ccYheA2D.s 			page 25


 1335              	.L110:
 1336              	.LVL96:
 1337              		.loc 1 1339 0
 1338 001a 7047     		bx	lr
 1339              		.cfi_endproc
 1340              	.LFE142:
 1341              		.size	I2C_GetITStatus, .-I2C_GetITStatus
 1342 001c AFF30080 		.section	.text.I2C_ClearITPendingBit,"ax",%progbits
 1343              		.align	2
 1344              		.p2align 4,,15
 1345              		.global	I2C_ClearITPendingBit
 1346              		.thumb
 1347              		.thumb_func
 1348              		.type	I2C_ClearITPendingBit, %function
 1349              	I2C_ClearITPendingBit:
 1350              	.LFB143:
 1351              		.loc 1 1372 0
 1352              		.cfi_startproc
 1353              		@ args = 0, pretend = 0, frame = 0
 1354              		@ frame_needed = 0, uses_anonymous_args = 0
 1355              		@ link register save eliminated.
 1356              	.LVL97:
 1357              		.loc 1 1382 0
 1358 0000 C943     		mvns	r1, r1
 1359              	.LVL98:
 1360 0002 89B2     		uxth	r1, r1
 1361              	.LVL99:
 1362 0004 8182     		strh	r1, [r0, #20]	@ movhi
 1363 0006 7047     		bx	lr
 1364              		.cfi_endproc
 1365              	.LFE143:
 1366              		.size	I2C_ClearITPendingBit, .-I2C_ClearITPendingBit
 1367 0008 AFF30080 		.text
 1367      AFF30080 
 1368              	.Letext0:
 1369              		.file 2 "c:\\crosstools\\gcc-arm-embedded\\4.8_2014q2\\arm-none-eabi\\include\\machine\\_default_t
 1370              		.file 3 "c:\\crosstools\\gcc-arm-embedded\\4.8_2014q2\\arm-none-eabi\\include\\stdint.h"
 1371              		.file 4 "ChibiOS_2.6.6/os/hal/platforms/STM32F4xx/stm32f4xx.h"
 1372              		.file 5 "ChibiOS_2.6.6/ext/stdperiph_stm32f4/inc/stm32f4xx_rcc.h"
 1373              		.file 6 "ChibiOS_2.6.6/ext/stdperiph_stm32f4/inc/stm32f4xx_i2c.h"
 1374              		.file 7 "ChibiOS_2.6.6/os/ports/common/ARMCMx/CMSIS/include/core_cm4.h"
 1375              		.section	.debug_info,"",%progbits
 1376              	.Ldebug_info0:
 1377 0000 DB0B0000 		.4byte	0xbdb
 1378 0004 0400     		.2byte	0x4
 1379 0006 00000000 		.4byte	.Ldebug_abbrev0
 1380 000a 04       		.byte	0x4
 1381 000b 01       		.uleb128 0x1
 1382 000c AD010000 		.4byte	.LASF116
 1383 0010 01       		.byte	0x1
 1384 0011 F2050000 		.4byte	.LASF117
 1385 0015 56010000 		.4byte	.LASF118
 1386 0019 00000000 		.4byte	.Ldebug_ranges0+0
 1387 001d 00000000 		.4byte	0
 1388 0021 00000000 		.4byte	.Ldebug_line0
 1389 0025 02       		.uleb128 0x2
 1390 0026 08       		.byte	0x8
ARM GAS  C:\Users\jsyoon\AppData\Local\Temp\ccYheA2D.s 			page 26


 1391 0027 07       		.byte	0x7
 1392 0028 A4000000 		.4byte	.LASF0
 1393 002c 02       		.uleb128 0x2
 1394 002d 04       		.byte	0x4
 1395 002e 07       		.byte	0x7
 1396 002f 56030000 		.4byte	.LASF1
 1397 0033 02       		.uleb128 0x2
 1398 0034 01       		.byte	0x1
 1399 0035 06       		.byte	0x6
 1400 0036 12010000 		.4byte	.LASF2
 1401 003a 03       		.uleb128 0x3
 1402 003b 5B000000 		.4byte	.LASF5
 1403 003f 02       		.byte	0x2
 1404 0040 1C       		.byte	0x1c
 1405 0041 45000000 		.4byte	0x45
 1406 0045 02       		.uleb128 0x2
 1407 0046 01       		.byte	0x1
 1408 0047 08       		.byte	0x8
 1409 0048 29050000 		.4byte	.LASF3
 1410 004c 02       		.uleb128 0x2
 1411 004d 02       		.byte	0x2
 1412 004e 05       		.byte	0x5
 1413 004f 3F050000 		.4byte	.LASF4
 1414 0053 03       		.uleb128 0x3
 1415 0054 3D060000 		.4byte	.LASF6
 1416 0058 02       		.byte	0x2
 1417 0059 26       		.byte	0x26
 1418 005a 5E000000 		.4byte	0x5e
 1419 005e 02       		.uleb128 0x2
 1420 005f 02       		.byte	0x2
 1421 0060 07       		.byte	0x7
 1422 0061 81060000 		.4byte	.LASF7
 1423 0065 03       		.uleb128 0x3
 1424 0066 61060000 		.4byte	.LASF8
 1425 006a 02       		.byte	0x2
 1426 006b 37       		.byte	0x37
 1427 006c 70000000 		.4byte	0x70
 1428 0070 02       		.uleb128 0x2
 1429 0071 04       		.byte	0x4
 1430 0072 05       		.byte	0x5
 1431 0073 41070000 		.4byte	.LASF9
 1432 0077 03       		.uleb128 0x3
 1433 0078 02030000 		.4byte	.LASF10
 1434 007c 02       		.byte	0x2
 1435 007d 38       		.byte	0x38
 1436 007e 82000000 		.4byte	0x82
 1437 0082 02       		.uleb128 0x2
 1438 0083 04       		.byte	0x4
 1439 0084 07       		.byte	0x7
 1440 0085 63030000 		.4byte	.LASF11
 1441 0089 02       		.uleb128 0x2
 1442 008a 08       		.byte	0x8
 1443 008b 05       		.byte	0x5
 1444 008c 04010000 		.4byte	.LASF12
 1445 0090 04       		.uleb128 0x4
 1446 0091 04       		.byte	0x4
 1447 0092 05       		.byte	0x5
ARM GAS  C:\Users\jsyoon\AppData\Local\Temp\ccYheA2D.s 			page 27


 1448 0093 696E7400 		.ascii	"int\000"
 1449 0097 03       		.uleb128 0x3
 1450 0098 DC060000 		.4byte	.LASF13
 1451 009c 03       		.byte	0x3
 1452 009d 2A       		.byte	0x2a
 1453 009e 3A000000 		.4byte	0x3a
 1454 00a2 03       		.uleb128 0x3
 1455 00a3 D8020000 		.4byte	.LASF14
 1456 00a7 03       		.byte	0x3
 1457 00a8 36       		.byte	0x36
 1458 00a9 53000000 		.4byte	0x53
 1459 00ad 03       		.uleb128 0x3
 1460 00ae 21050000 		.4byte	.LASF15
 1461 00b2 03       		.byte	0x3
 1462 00b3 41       		.byte	0x41
 1463 00b4 65000000 		.4byte	0x65
 1464 00b8 03       		.uleb128 0x3
 1465 00b9 AB050000 		.4byte	.LASF16
 1466 00bd 03       		.byte	0x3
 1467 00be 42       		.byte	0x42
 1468 00bf 77000000 		.4byte	0x77
 1469 00c3 02       		.uleb128 0x2
 1470 00c4 04       		.byte	0x4
 1471 00c5 07       		.byte	0x7
 1472 00c6 1E040000 		.4byte	.LASF17
 1473 00ca 05       		.uleb128 0x5
 1474 00cb B8000000 		.4byte	0xb8
 1475 00cf 05       		.uleb128 0x5
 1476 00d0 A2000000 		.4byte	0xa2
 1477 00d4 05       		.uleb128 0x5
 1478 00d5 AD000000 		.4byte	0xad
 1479 00d9 06       		.uleb128 0x6
 1480 00da 01       		.byte	0x1
 1481 00db 04       		.byte	0x4
 1482 00dc F701     		.2byte	0x1f7
 1483 00de EF000000 		.4byte	0xef
 1484 00e2 07       		.uleb128 0x7
 1485 00e3 07040000 		.4byte	.LASF18
 1486 00e7 00       		.sleb128 0
 1487 00e8 08       		.uleb128 0x8
 1488 00e9 53455400 		.ascii	"SET\000"
 1489 00ed 01       		.sleb128 1
 1490 00ee 00       		.byte	0
 1491 00ef 09       		.uleb128 0x9
 1492 00f0 31000000 		.4byte	.LASF19
 1493 00f4 04       		.byte	0x4
 1494 00f5 F701     		.2byte	0x1f7
 1495 00f7 D9000000 		.4byte	0xd9
 1496 00fb 09       		.uleb128 0x9
 1497 00fc 4D030000 		.4byte	.LASF20
 1498 0100 04       		.byte	0x4
 1499 0101 F701     		.2byte	0x1f7
 1500 0103 D9000000 		.4byte	0xd9
 1501 0107 06       		.uleb128 0x6
 1502 0108 01       		.byte	0x1
 1503 0109 04       		.byte	0x4
 1504 010a F901     		.2byte	0x1f9
ARM GAS  C:\Users\jsyoon\AppData\Local\Temp\ccYheA2D.s 			page 28


 1505 010c 1D010000 		.4byte	0x11d
 1506 0110 07       		.uleb128 0x7
 1507 0111 9C000000 		.4byte	.LASF21
 1508 0115 00       		.sleb128 0
 1509 0116 07       		.uleb128 0x7
 1510 0117 D1020000 		.4byte	.LASF22
 1511 011b 01       		.sleb128 1
 1512 011c 00       		.byte	0
 1513 011d 09       		.uleb128 0x9
 1514 011e 53040000 		.4byte	.LASF23
 1515 0122 04       		.byte	0x4
 1516 0123 F901     		.2byte	0x1f9
 1517 0125 07010000 		.4byte	0x107
 1518 0129 06       		.uleb128 0x6
 1519 012a 01       		.byte	0x1
 1520 012b 04       		.byte	0x4
 1521 012c FC01     		.2byte	0x1fc
 1522 012e 3F010000 		.4byte	0x13f
 1523 0132 07       		.uleb128 0x7
 1524 0133 19030000 		.4byte	.LASF24
 1525 0137 00       		.sleb128 0
 1526 0138 07       		.uleb128 0x7
 1527 0139 F8060000 		.4byte	.LASF25
 1528 013d 01       		.sleb128 1
 1529 013e 00       		.byte	0
 1530 013f 09       		.uleb128 0x9
 1531 0140 0D030000 		.4byte	.LASF26
 1532 0144 04       		.byte	0x4
 1533 0145 FC01     		.2byte	0x1fc
 1534 0147 29010000 		.4byte	0x129
 1535 014b 0A       		.uleb128 0xa
 1536 014c 28       		.byte	0x28
 1537 014d 04       		.byte	0x4
 1538 014e F603     		.2byte	0x3f6
 1539 0150 58020000 		.4byte	0x258
 1540 0154 0B       		.uleb128 0xb
 1541 0155 43523100 		.ascii	"CR1\000"
 1542 0159 04       		.byte	0x4
 1543 015a F803     		.2byte	0x3f8
 1544 015c CF000000 		.4byte	0xcf
 1545 0160 00       		.byte	0
 1546 0161 0C       		.uleb128 0xc
 1547 0162 A2040000 		.4byte	.LASF27
 1548 0166 04       		.byte	0x4
 1549 0167 F903     		.2byte	0x3f9
 1550 0169 A2000000 		.4byte	0xa2
 1551 016d 02       		.byte	0x2
 1552 016e 0B       		.uleb128 0xb
 1553 016f 43523200 		.ascii	"CR2\000"
 1554 0173 04       		.byte	0x4
 1555 0174 FA03     		.2byte	0x3fa
 1556 0176 CF000000 		.4byte	0xcf
 1557 017a 04       		.byte	0x4
 1558 017b 0C       		.uleb128 0xc
 1559 017c AC040000 		.4byte	.LASF28
 1560 0180 04       		.byte	0x4
 1561 0181 FB03     		.2byte	0x3fb
ARM GAS  C:\Users\jsyoon\AppData\Local\Temp\ccYheA2D.s 			page 29


 1562 0183 A2000000 		.4byte	0xa2
 1563 0187 06       		.byte	0x6
 1564 0188 0C       		.uleb128 0xc
 1565 0189 E1020000 		.4byte	.LASF29
 1566 018d 04       		.byte	0x4
 1567 018e FC03     		.2byte	0x3fc
 1568 0190 CF000000 		.4byte	0xcf
 1569 0194 08       		.byte	0x8
 1570 0195 0C       		.uleb128 0xc
 1571 0196 B6040000 		.4byte	.LASF30
 1572 019a 04       		.byte	0x4
 1573 019b FD03     		.2byte	0x3fd
 1574 019d A2000000 		.4byte	0xa2
 1575 01a1 0A       		.byte	0xa
 1576 01a2 0C       		.uleb128 0xc
 1577 01a3 09070000 		.4byte	.LASF31
 1578 01a7 04       		.byte	0x4
 1579 01a8 FE03     		.2byte	0x3fe
 1580 01aa CF000000 		.4byte	0xcf
 1581 01ae 0C       		.byte	0xc
 1582 01af 0C       		.uleb128 0xc
 1583 01b0 C0040000 		.4byte	.LASF32
 1584 01b4 04       		.byte	0x4
 1585 01b5 FF03     		.2byte	0x3ff
 1586 01b7 A2000000 		.4byte	0xa2
 1587 01bb 0E       		.byte	0xe
 1588 01bc 0B       		.uleb128 0xb
 1589 01bd 445200   		.ascii	"DR\000"
 1590 01c0 04       		.byte	0x4
 1591 01c1 0004     		.2byte	0x400
 1592 01c3 CF000000 		.4byte	0xcf
 1593 01c7 10       		.byte	0x10
 1594 01c8 0C       		.uleb128 0xc
 1595 01c9 CA040000 		.4byte	.LASF33
 1596 01cd 04       		.byte	0x4
 1597 01ce 0104     		.2byte	0x401
 1598 01d0 A2000000 		.4byte	0xa2
 1599 01d4 12       		.byte	0x12
 1600 01d5 0B       		.uleb128 0xb
 1601 01d6 53523100 		.ascii	"SR1\000"
 1602 01da 04       		.byte	0x4
 1603 01db 0204     		.2byte	0x402
 1604 01dd CF000000 		.4byte	0xcf
 1605 01e1 14       		.byte	0x14
 1606 01e2 0C       		.uleb128 0xc
 1607 01e3 D4040000 		.4byte	.LASF34
 1608 01e7 04       		.byte	0x4
 1609 01e8 0304     		.2byte	0x403
 1610 01ea A2000000 		.4byte	0xa2
 1611 01ee 16       		.byte	0x16
 1612 01ef 0B       		.uleb128 0xb
 1613 01f0 53523200 		.ascii	"SR2\000"
 1614 01f4 04       		.byte	0x4
 1615 01f5 0404     		.2byte	0x404
 1616 01f7 CF000000 		.4byte	0xcf
 1617 01fb 18       		.byte	0x18
 1618 01fc 0C       		.uleb128 0xc
ARM GAS  C:\Users\jsyoon\AppData\Local\Temp\ccYheA2D.s 			page 30


 1619 01fd DE040000 		.4byte	.LASF35
 1620 0201 04       		.byte	0x4
 1621 0202 0504     		.2byte	0x405
 1622 0204 A2000000 		.4byte	0xa2
 1623 0208 1A       		.byte	0x1a
 1624 0209 0B       		.uleb128 0xb
 1625 020a 43435200 		.ascii	"CCR\000"
 1626 020e 04       		.byte	0x4
 1627 020f 0604     		.2byte	0x406
 1628 0211 CF000000 		.4byte	0xcf
 1629 0215 1C       		.byte	0x1c
 1630 0216 0C       		.uleb128 0xc
 1631 0217 E8040000 		.4byte	.LASF36
 1632 021b 04       		.byte	0x4
 1633 021c 0704     		.2byte	0x407
 1634 021e A2000000 		.4byte	0xa2
 1635 0222 1E       		.byte	0x1e
 1636 0223 0C       		.uleb128 0xc
 1637 0224 72000000 		.4byte	.LASF37
 1638 0228 04       		.byte	0x4
 1639 0229 0804     		.2byte	0x408
 1640 022b CF000000 		.4byte	0xcf
 1641 022f 20       		.byte	0x20
 1642 0230 0C       		.uleb128 0xc
 1643 0231 F2040000 		.4byte	.LASF38
 1644 0235 04       		.byte	0x4
 1645 0236 0904     		.2byte	0x409
 1646 0238 A2000000 		.4byte	0xa2
 1647 023c 22       		.byte	0x22
 1648 023d 0C       		.uleb128 0xc
 1649 023e E6020000 		.4byte	.LASF39
 1650 0242 04       		.byte	0x4
 1651 0243 0A04     		.2byte	0x40a
 1652 0245 CF000000 		.4byte	0xcf
 1653 0249 24       		.byte	0x24
 1654 024a 0C       		.uleb128 0xc
 1655 024b FC040000 		.4byte	.LASF40
 1656 024f 04       		.byte	0x4
 1657 0250 0B04     		.2byte	0x40b
 1658 0252 A2000000 		.4byte	0xa2
 1659 0256 26       		.byte	0x26
 1660 0257 00       		.byte	0
 1661 0258 09       		.uleb128 0x9
 1662 0259 4A070000 		.4byte	.LASF41
 1663 025d 04       		.byte	0x4
 1664 025e 0C04     		.2byte	0x40c
 1665 0260 4B010000 		.4byte	0x14b
 1666 0264 0D       		.uleb128 0xd
 1667 0265 10       		.byte	0x10
 1668 0266 05       		.byte	0x5
 1669 0267 30       		.byte	0x30
 1670 0268 9D020000 		.4byte	0x29d
 1671 026c 0E       		.uleb128 0xe
 1672 026d 53050000 		.4byte	.LASF42
 1673 0271 05       		.byte	0x5
 1674 0272 32       		.byte	0x32
 1675 0273 B8000000 		.4byte	0xb8
ARM GAS  C:\Users\jsyoon\AppData\Local\Temp\ccYheA2D.s 			page 31


 1676 0277 00       		.byte	0
 1677 0278 0E       		.uleb128 0xe
 1678 0279 3E030000 		.4byte	.LASF43
 1679 027d 05       		.byte	0x5
 1680 027e 33       		.byte	0x33
 1681 027f B8000000 		.4byte	0xb8
 1682 0283 04       		.byte	0x4
 1683 0284 0E       		.uleb128 0xe
 1684 0285 B4050000 		.4byte	.LASF44
 1685 0289 05       		.byte	0x5
 1686 028a 34       		.byte	0x34
 1687 028b B8000000 		.4byte	0xb8
 1688 028f 08       		.byte	0x8
 1689 0290 0E       		.uleb128 0xe
 1690 0291 46010000 		.4byte	.LASF45
 1691 0295 05       		.byte	0x5
 1692 0296 35       		.byte	0x35
 1693 0297 B8000000 		.4byte	0xb8
 1694 029b 0C       		.byte	0xc
 1695 029c 00       		.byte	0
 1696 029d 03       		.uleb128 0x3
 1697 029e 1F070000 		.4byte	.LASF46
 1698 02a2 05       		.byte	0x5
 1699 02a3 36       		.byte	0x36
 1700 02a4 64020000 		.4byte	0x264
 1701 02a8 0D       		.uleb128 0xd
 1702 02a9 10       		.byte	0x10
 1703 02aa 06       		.byte	0x6
 1704 02ab 36       		.byte	0x36
 1705 02ac F9020000 		.4byte	0x2f9
 1706 02b0 0E       		.uleb128 0xe
 1707 02b1 86010000 		.4byte	.LASF47
 1708 02b5 06       		.byte	0x6
 1709 02b6 38       		.byte	0x38
 1710 02b7 B8000000 		.4byte	0xb8
 1711 02bb 00       		.byte	0
 1712 02bc 0E       		.uleb128 0xe
 1713 02bd 95010000 		.4byte	.LASF48
 1714 02c1 06       		.byte	0x6
 1715 02c2 3B       		.byte	0x3b
 1716 02c3 A2000000 		.4byte	0xa2
 1717 02c7 04       		.byte	0x4
 1718 02c8 0E       		.uleb128 0xe
 1719 02c9 A7030000 		.4byte	.LASF49
 1720 02cd 06       		.byte	0x6
 1721 02ce 3E       		.byte	0x3e
 1722 02cf A2000000 		.4byte	0xa2
 1723 02d3 06       		.byte	0x6
 1724 02d4 0E       		.uleb128 0xe
 1725 02d5 06050000 		.4byte	.LASF50
 1726 02d9 06       		.byte	0x6
 1727 02da 41       		.byte	0x41
 1728 02db A2000000 		.4byte	0xa2
 1729 02df 08       		.byte	0x8
 1730 02e0 0E       		.uleb128 0xe
 1731 02e1 37050000 		.4byte	.LASF51
 1732 02e5 06       		.byte	0x6
ARM GAS  C:\Users\jsyoon\AppData\Local\Temp\ccYheA2D.s 			page 32


 1733 02e6 44       		.byte	0x44
 1734 02e7 A2000000 		.4byte	0xa2
 1735 02eb 0A       		.byte	0xa
 1736 02ec 0E       		.uleb128 0xe
 1737 02ed 82050000 		.4byte	.LASF52
 1738 02f1 06       		.byte	0x6
 1739 02f2 47       		.byte	0x47
 1740 02f3 A2000000 		.4byte	0xa2
 1741 02f7 0C       		.byte	0xc
 1742 02f8 00       		.byte	0
 1743 02f9 03       		.uleb128 0x3
 1744 02fa 7D040000 		.4byte	.LASF53
 1745 02fe 06       		.byte	0x6
 1746 02ff 49       		.byte	0x49
 1747 0300 A8020000 		.4byte	0x2a8
 1748 0304 0F       		.uleb128 0xf
 1749 0305 30040000 		.4byte	.LASF54
 1750 0309 01       		.byte	0x1
 1751 030a 8A       		.byte	0x8a
 1752 030b 00000000 		.4byte	.LFB111
 1753 030f 6C000000 		.4byte	.LFE111-.LFB111
 1754 0313 01       		.uleb128 0x1
 1755 0314 9C       		.byte	0x9c
 1756 0315 C1030000 		.4byte	0x3c1
 1757 0319 10       		.uleb128 0x10
 1758 031a E3030000 		.4byte	.LASF56
 1759 031e 01       		.byte	0x1
 1760 031f 8A       		.byte	0x8a
 1761 0320 C1030000 		.4byte	0x3c1
 1762 0324 00000000 		.4byte	.LLST0
 1763 0328 11       		.uleb128 0x11
 1764 0329 20000000 		.4byte	.LVL2
 1765 032d AF0B0000 		.4byte	0xbaf
 1766 0331 42030000 		.4byte	0x342
 1767 0335 12       		.uleb128 0x12
 1768 0336 01       		.uleb128 0x1
 1769 0337 51       		.byte	0x51
 1770 0338 01       		.uleb128 0x1
 1771 0339 31       		.byte	0x31
 1772 033a 12       		.uleb128 0x12
 1773 033b 01       		.uleb128 0x1
 1774 033c 50       		.byte	0x50
 1775 033d 03       		.uleb128 0x3
 1776 033e 40       		.byte	0x40
 1777 033f 43       		.byte	0x43
 1778 0340 24       		.byte	0x24
 1779 0341 00       		.byte	0
 1780 0342 13       		.uleb128 0x13
 1781 0343 2E000000 		.4byte	.LVL3
 1782 0347 AF0B0000 		.4byte	0xbaf
 1783 034b 5C030000 		.4byte	0x35c
 1784 034f 12       		.uleb128 0x12
 1785 0350 01       		.uleb128 0x1
 1786 0351 51       		.byte	0x51
 1787 0352 01       		.uleb128 0x1
 1788 0353 30       		.byte	0x30
 1789 0354 12       		.uleb128 0x12
ARM GAS  C:\Users\jsyoon\AppData\Local\Temp\ccYheA2D.s 			page 33


 1790 0355 01       		.uleb128 0x1
 1791 0356 50       		.byte	0x50
 1792 0357 03       		.uleb128 0x3
 1793 0358 40       		.byte	0x40
 1794 0359 43       		.byte	0x43
 1795 035a 24       		.byte	0x24
 1796 035b 00       		.byte	0
 1797 035c 11       		.uleb128 0x11
 1798 035d 38000000 		.4byte	.LVL5
 1799 0361 AF0B0000 		.4byte	0xbaf
 1800 0365 76030000 		.4byte	0x376
 1801 0369 12       		.uleb128 0x12
 1802 036a 01       		.uleb128 0x1
 1803 036b 51       		.byte	0x51
 1804 036c 01       		.uleb128 0x1
 1805 036d 31       		.byte	0x31
 1806 036e 12       		.uleb128 0x12
 1807 036f 01       		.uleb128 0x1
 1808 0370 50       		.byte	0x50
 1809 0371 03       		.uleb128 0x3
 1810 0372 40       		.byte	0x40
 1811 0373 41       		.byte	0x41
 1812 0374 24       		.byte	0x24
 1813 0375 00       		.byte	0
 1814 0376 13       		.uleb128 0x13
 1815 0377 46000000 		.4byte	.LVL6
 1816 037b AF0B0000 		.4byte	0xbaf
 1817 037f 90030000 		.4byte	0x390
 1818 0383 12       		.uleb128 0x12
 1819 0384 01       		.uleb128 0x1
 1820 0385 51       		.byte	0x51
 1821 0386 01       		.uleb128 0x1
 1822 0387 30       		.byte	0x30
 1823 0388 12       		.uleb128 0x12
 1824 0389 01       		.uleb128 0x1
 1825 038a 50       		.byte	0x50
 1826 038b 03       		.uleb128 0x3
 1827 038c 40       		.byte	0x40
 1828 038d 41       		.byte	0x41
 1829 038e 24       		.byte	0x24
 1830 038f 00       		.byte	0
 1831 0390 11       		.uleb128 0x11
 1832 0391 50000000 		.4byte	.LVL8
 1833 0395 AF0B0000 		.4byte	0xbaf
 1834 0399 AA030000 		.4byte	0x3aa
 1835 039d 12       		.uleb128 0x12
 1836 039e 01       		.uleb128 0x1
 1837 039f 51       		.byte	0x51
 1838 03a0 01       		.uleb128 0x1
 1839 03a1 31       		.byte	0x31
 1840 03a2 12       		.uleb128 0x12
 1841 03a3 01       		.uleb128 0x1
 1842 03a4 50       		.byte	0x50
 1843 03a5 03       		.uleb128 0x3
 1844 03a6 40       		.byte	0x40
 1845 03a7 42       		.byte	0x42
 1846 03a8 24       		.byte	0x24
ARM GAS  C:\Users\jsyoon\AppData\Local\Temp\ccYheA2D.s 			page 34


 1847 03a9 00       		.byte	0
 1848 03aa 14       		.uleb128 0x14
 1849 03ab 5E000000 		.4byte	.LVL9
 1850 03af AF0B0000 		.4byte	0xbaf
 1851 03b3 12       		.uleb128 0x12
 1852 03b4 01       		.uleb128 0x1
 1853 03b5 51       		.byte	0x51
 1854 03b6 01       		.uleb128 0x1
 1855 03b7 30       		.byte	0x30
 1856 03b8 12       		.uleb128 0x12
 1857 03b9 01       		.uleb128 0x1
 1858 03ba 50       		.byte	0x50
 1859 03bb 03       		.uleb128 0x3
 1860 03bc 40       		.byte	0x40
 1861 03bd 42       		.byte	0x42
 1862 03be 24       		.byte	0x24
 1863 03bf 00       		.byte	0
 1864 03c0 00       		.byte	0
 1865 03c1 15       		.uleb128 0x15
 1866 03c2 04       		.byte	0x4
 1867 03c3 58020000 		.4byte	0x258
 1868 03c7 0F       		.uleb128 0xf
 1869 03c8 93030000 		.4byte	.LASF55
 1870 03cc 01       		.byte	0x1
 1871 03cd B5       		.byte	0xb5
 1872 03ce 00000000 		.4byte	.LFB112
 1873 03d2 E0000000 		.4byte	.LFE112-.LFB112
 1874 03d6 01       		.uleb128 0x1
 1875 03d7 9C       		.byte	0x9c
 1876 03d8 55040000 		.4byte	0x455
 1877 03dc 10       		.uleb128 0x10
 1878 03dd E3030000 		.4byte	.LASF56
 1879 03e1 01       		.byte	0x1
 1880 03e2 B5       		.byte	0xb5
 1881 03e3 C1030000 		.4byte	0x3c1
 1882 03e7 53000000 		.4byte	.LLST1
 1883 03eb 10       		.uleb128 0x10
 1884 03ec F5000000 		.4byte	.LASF57
 1885 03f0 01       		.byte	0x1
 1886 03f1 B5       		.byte	0xb5
 1887 03f2 55040000 		.4byte	0x455
 1888 03f6 71000000 		.4byte	.LLST2
 1889 03fa 16       		.uleb128 0x16
 1890 03fb 56070000 		.4byte	.LASF58
 1891 03ff 01       		.byte	0x1
 1892 0400 B7       		.byte	0xb7
 1893 0401 A2000000 		.4byte	0xa2
 1894 0405 8F000000 		.4byte	.LLST3
 1895 0409 16       		.uleb128 0x16
 1896 040a 1E010000 		.4byte	.LASF59
 1897 040e 01       		.byte	0x1
 1898 040f B7       		.byte	0xb7
 1899 0410 A2000000 		.4byte	0xa2
 1900 0414 14010000 		.4byte	.LLST4
 1901 0418 16       		.uleb128 0x16
 1902 0419 5D070000 		.4byte	.LASF60
 1903 041d 01       		.byte	0x1
ARM GAS  C:\Users\jsyoon\AppData\Local\Temp\ccYheA2D.s 			page 35


 1904 041e B8       		.byte	0xb8
 1905 041f A2000000 		.4byte	0xa2
 1906 0423 77010000 		.4byte	.LLST5
 1907 0427 16       		.uleb128 0x16
 1908 0428 94040000 		.4byte	.LASF61
 1909 042c 01       		.byte	0x1
 1910 042d B9       		.byte	0xb9
 1911 042e B8000000 		.4byte	0xb8
 1912 0432 C4010000 		.4byte	.LLST6
 1913 0436 17       		.uleb128 0x17
 1914 0437 16050000 		.4byte	.LASF62
 1915 043b 01       		.byte	0x1
 1916 043c BA       		.byte	0xba
 1917 043d 9D020000 		.4byte	0x29d
 1918 0441 02       		.uleb128 0x2
 1919 0442 91       		.byte	0x91
 1920 0443 58       		.sleb128 -40
 1921 0444 18       		.uleb128 0x18
 1922 0445 10000000 		.4byte	.LVL13
 1923 0449 C60B0000 		.4byte	0xbc6
 1924 044d 12       		.uleb128 0x12
 1925 044e 01       		.uleb128 0x1
 1926 044f 50       		.byte	0x50
 1927 0450 02       		.uleb128 0x2
 1928 0451 7D       		.byte	0x7d
 1929 0452 00       		.sleb128 0
 1930 0453 00       		.byte	0
 1931 0454 00       		.byte	0
 1932 0455 15       		.uleb128 0x15
 1933 0456 04       		.byte	0x4
 1934 0457 F9020000 		.4byte	0x2f9
 1935 045b 19       		.uleb128 0x19
 1936 045c 9E010000 		.4byte	.LASF63
 1937 0460 01       		.byte	0x1
 1938 0461 2201     		.2byte	0x122
 1939 0463 00000000 		.4byte	.LFB113
 1940 0467 22000000 		.4byte	.LFE113-.LFB113
 1941 046b 01       		.uleb128 0x1
 1942 046c 9C       		.byte	0x9c
 1943 046d 80040000 		.4byte	0x480
 1944 0471 1A       		.uleb128 0x1a
 1945 0472 F5000000 		.4byte	.LASF57
 1946 0476 01       		.byte	0x1
 1947 0477 2201     		.2byte	0x122
 1948 0479 55040000 		.4byte	0x455
 1949 047d 01       		.uleb128 0x1
 1950 047e 50       		.byte	0x50
 1951 047f 00       		.byte	0
 1952 0480 19       		.uleb128 0x19
 1953 0481 9A040000 		.4byte	.LASF64
 1954 0485 01       		.byte	0x1
 1955 0486 3A01     		.2byte	0x13a
 1956 0488 00000000 		.4byte	.LFB114
 1957 048c 1A000000 		.4byte	.LFE114-.LFB114
 1958 0490 01       		.uleb128 0x1
 1959 0491 9C       		.byte	0x9c
 1960 0492 B3040000 		.4byte	0x4b3
ARM GAS  C:\Users\jsyoon\AppData\Local\Temp\ccYheA2D.s 			page 36


 1961 0496 1A       		.uleb128 0x1a
 1962 0497 E3030000 		.4byte	.LASF56
 1963 049b 01       		.byte	0x1
 1964 049c 3A01     		.2byte	0x13a
 1965 049e C1030000 		.4byte	0x3c1
 1966 04a2 01       		.uleb128 0x1
 1967 04a3 50       		.byte	0x50
 1968 04a4 1A       		.uleb128 0x1a
 1969 04a5 16000000 		.4byte	.LASF65
 1970 04a9 01       		.byte	0x1
 1971 04aa 3A01     		.2byte	0x13a
 1972 04ac 1D010000 		.4byte	0x11d
 1973 04b0 01       		.uleb128 0x1
 1974 04b1 51       		.byte	0x51
 1975 04b2 00       		.byte	0
 1976 04b3 19       		.uleb128 0x19
 1977 04b4 1F000000 		.4byte	.LASF66
 1978 04b8 01       		.byte	0x1
 1979 04b9 5201     		.2byte	0x152
 1980 04bb 00000000 		.4byte	.LFB115
 1981 04bf 1A000000 		.4byte	.LFE115-.LFB115
 1982 04c3 01       		.uleb128 0x1
 1983 04c4 9C       		.byte	0x9c
 1984 04c5 E6040000 		.4byte	0x4e6
 1985 04c9 1A       		.uleb128 0x1a
 1986 04ca E3030000 		.4byte	.LASF56
 1987 04ce 01       		.byte	0x1
 1988 04cf 5201     		.2byte	0x152
 1989 04d1 C1030000 		.4byte	0x3c1
 1990 04d5 01       		.uleb128 0x1
 1991 04d6 50       		.byte	0x50
 1992 04d7 1A       		.uleb128 0x1a
 1993 04d8 16000000 		.4byte	.LASF65
 1994 04dc 01       		.byte	0x1
 1995 04dd 5201     		.2byte	0x152
 1996 04df 1D010000 		.4byte	0x11d
 1997 04e3 01       		.uleb128 0x1
 1998 04e4 51       		.byte	0x51
 1999 04e5 00       		.byte	0
 2000 04e6 19       		.uleb128 0x19
 2001 04e7 0E070000 		.4byte	.LASF67
 2002 04eb 01       		.byte	0x1
 2003 04ec 6A01     		.2byte	0x16a
 2004 04ee 00000000 		.4byte	.LFB116
 2005 04f2 1A000000 		.4byte	.LFE116-.LFB116
 2006 04f6 01       		.uleb128 0x1
 2007 04f7 9C       		.byte	0x9c
 2008 04f8 19050000 		.4byte	0x519
 2009 04fc 1A       		.uleb128 0x1a
 2010 04fd E3030000 		.4byte	.LASF56
 2011 0501 01       		.byte	0x1
 2012 0502 6A01     		.2byte	0x16a
 2013 0504 C1030000 		.4byte	0x3c1
 2014 0508 01       		.uleb128 0x1
 2015 0509 50       		.byte	0x50
 2016 050a 1A       		.uleb128 0x1a
 2017 050b 16000000 		.4byte	.LASF65
ARM GAS  C:\Users\jsyoon\AppData\Local\Temp\ccYheA2D.s 			page 37


 2018 050f 01       		.byte	0x1
 2019 0510 6A01     		.2byte	0x16a
 2020 0512 1D010000 		.4byte	0x11d
 2021 0516 01       		.uleb128 0x1
 2022 0517 51       		.byte	0x51
 2023 0518 00       		.byte	0
 2024 0519 19       		.uleb128 0x19
 2025 051a E4060000 		.4byte	.LASF68
 2026 051e 01       		.byte	0x1
 2027 051f 8601     		.2byte	0x186
 2028 0521 00000000 		.4byte	.LFB117
 2029 0525 12000000 		.4byte	.LFE117-.LFB117
 2030 0529 01       		.uleb128 0x1
 2031 052a 9C       		.byte	0x9c
 2032 052b 5C050000 		.4byte	0x55c
 2033 052f 1A       		.uleb128 0x1a
 2034 0530 E3030000 		.4byte	.LASF56
 2035 0534 01       		.byte	0x1
 2036 0535 8601     		.2byte	0x186
 2037 0537 C1030000 		.4byte	0x3c1
 2038 053b 01       		.uleb128 0x1
 2039 053c 50       		.byte	0x50
 2040 053d 1B       		.uleb128 0x1b
 2041 053e DB030000 		.4byte	.LASF69
 2042 0542 01       		.byte	0x1
 2043 0543 8601     		.2byte	0x186
 2044 0545 97000000 		.4byte	0x97
 2045 0549 15020000 		.4byte	.LLST7
 2046 054d 1A       		.uleb128 0x1a
 2047 054e E8030000 		.4byte	.LASF70
 2048 0552 01       		.byte	0x1
 2049 0553 8601     		.2byte	0x186
 2050 0555 97000000 		.4byte	0x97
 2051 0559 01       		.uleb128 0x1
 2052 055a 52       		.byte	0x52
 2053 055b 00       		.byte	0
 2054 055c 19       		.uleb128 0x19
 2055 055d 6B060000 		.4byte	.LASF71
 2056 0561 01       		.byte	0x1
 2057 0562 A101     		.2byte	0x1a1
 2058 0564 00000000 		.4byte	.LFB118
 2059 0568 1A000000 		.4byte	.LFE118-.LFB118
 2060 056c 01       		.uleb128 0x1
 2061 056d 9C       		.byte	0x9c
 2062 056e 8F050000 		.4byte	0x58f
 2063 0572 1A       		.uleb128 0x1a
 2064 0573 E3030000 		.4byte	.LASF56
 2065 0577 01       		.byte	0x1
 2066 0578 A101     		.2byte	0x1a1
 2067 057a C1030000 		.4byte	0x3c1
 2068 057e 01       		.uleb128 0x1
 2069 057f 50       		.byte	0x50
 2070 0580 1A       		.uleb128 0x1a
 2071 0581 16000000 		.4byte	.LASF65
 2072 0585 01       		.byte	0x1
 2073 0586 A101     		.2byte	0x1a1
 2074 0588 1D010000 		.4byte	0x11d
ARM GAS  C:\Users\jsyoon\AppData\Local\Temp\ccYheA2D.s 			page 38


 2075 058c 01       		.uleb128 0x1
 2076 058d 51       		.byte	0x51
 2077 058e 00       		.byte	0
 2078 058f 19       		.uleb128 0x19
 2079 0590 DF000000 		.4byte	.LASF72
 2080 0594 01       		.byte	0x1
 2081 0595 B801     		.2byte	0x1b8
 2082 0597 00000000 		.4byte	.LFB119
 2083 059b 12000000 		.4byte	.LFE119-.LFB119
 2084 059f 01       		.uleb128 0x1
 2085 05a0 9C       		.byte	0x9c
 2086 05a1 D4050000 		.4byte	0x5d4
 2087 05a5 1A       		.uleb128 0x1a
 2088 05a6 E3030000 		.4byte	.LASF56
 2089 05aa 01       		.byte	0x1
 2090 05ab B801     		.2byte	0x1b8
 2091 05ad C1030000 		.4byte	0x3c1
 2092 05b1 01       		.uleb128 0x1
 2093 05b2 50       		.byte	0x50
 2094 05b3 1B       		.uleb128 0x1b
 2095 05b4 DB030000 		.4byte	.LASF69
 2096 05b8 01       		.byte	0x1
 2097 05b9 B801     		.2byte	0x1b8
 2098 05bb 97000000 		.4byte	0x97
 2099 05bf 33020000 		.4byte	.LLST8
 2100 05c3 1C       		.uleb128 0x1c
 2101 05c4 56070000 		.4byte	.LASF58
 2102 05c8 01       		.byte	0x1
 2103 05c9 BA01     		.2byte	0x1ba
 2104 05cb A2000000 		.4byte	0xa2
 2105 05cf 54020000 		.4byte	.LLST9
 2106 05d3 00       		.byte	0
 2107 05d4 19       		.uleb128 0x19
 2108 05d5 2A060000 		.4byte	.LASF73
 2109 05d9 01       		.byte	0x1
 2110 05da D301     		.2byte	0x1d3
 2111 05dc 00000000 		.4byte	.LFB120
 2112 05e0 1A000000 		.4byte	.LFE120-.LFB120
 2113 05e4 01       		.uleb128 0x1
 2114 05e5 9C       		.byte	0x9c
 2115 05e6 07060000 		.4byte	0x607
 2116 05ea 1A       		.uleb128 0x1a
 2117 05eb E3030000 		.4byte	.LASF56
 2118 05ef 01       		.byte	0x1
 2119 05f0 D301     		.2byte	0x1d3
 2120 05f2 C1030000 		.4byte	0x3c1
 2121 05f6 01       		.uleb128 0x1
 2122 05f7 50       		.byte	0x50
 2123 05f8 1A       		.uleb128 0x1a
 2124 05f9 16000000 		.4byte	.LASF65
 2125 05fd 01       		.byte	0x1
 2126 05fe D301     		.2byte	0x1d3
 2127 0600 1D010000 		.4byte	0x11d
 2128 0604 01       		.uleb128 0x1
 2129 0605 51       		.byte	0x51
 2130 0606 00       		.byte	0
 2131 0607 19       		.uleb128 0x19
ARM GAS  C:\Users\jsyoon\AppData\Local\Temp\ccYheA2D.s 			page 39


 2132 0608 3B040000 		.4byte	.LASF74
 2133 060c 01       		.byte	0x1
 2134 060d EB01     		.2byte	0x1eb
 2135 060f 00000000 		.4byte	.LFB121
 2136 0613 1A000000 		.4byte	.LFE121-.LFB121
 2137 0617 01       		.uleb128 0x1
 2138 0618 9C       		.byte	0x9c
 2139 0619 3A060000 		.4byte	0x63a
 2140 061d 1A       		.uleb128 0x1a
 2141 061e E3030000 		.4byte	.LASF56
 2142 0622 01       		.byte	0x1
 2143 0623 EB01     		.2byte	0x1eb
 2144 0625 C1030000 		.4byte	0x3c1
 2145 0629 01       		.uleb128 0x1
 2146 062a 50       		.byte	0x50
 2147 062b 1A       		.uleb128 0x1a
 2148 062c 16000000 		.4byte	.LASF65
 2149 0630 01       		.byte	0x1
 2150 0631 EB01     		.2byte	0x1eb
 2151 0633 1D010000 		.4byte	0x11d
 2152 0637 01       		.uleb128 0x1
 2153 0638 51       		.byte	0x51
 2154 0639 00       		.byte	0
 2155 063a 19       		.uleb128 0x19
 2156 063b C7060000 		.4byte	.LASF75
 2157 063f 01       		.byte	0x1
 2158 0640 0502     		.2byte	0x205
 2159 0642 00000000 		.4byte	.LFB122
 2160 0646 1A000000 		.4byte	.LFE122-.LFB122
 2161 064a 01       		.uleb128 0x1
 2162 064b 9C       		.byte	0x9c
 2163 064c 6D060000 		.4byte	0x66d
 2164 0650 1A       		.uleb128 0x1a
 2165 0651 E3030000 		.4byte	.LASF56
 2166 0655 01       		.byte	0x1
 2167 0656 0502     		.2byte	0x205
 2168 0658 C1030000 		.4byte	0x3c1
 2169 065c 01       		.uleb128 0x1
 2170 065d 50       		.byte	0x50
 2171 065e 1A       		.uleb128 0x1a
 2172 065f 16000000 		.4byte	.LASF65
 2173 0663 01       		.byte	0x1
 2174 0664 0502     		.2byte	0x205
 2175 0666 1D010000 		.4byte	0x11d
 2176 066a 01       		.uleb128 0x1
 2177 066b 51       		.byte	0x51
 2178 066c 00       		.byte	0
 2179 066d 19       		.uleb128 0x19
 2180 066e 47000000 		.4byte	.LASF76
 2181 0672 01       		.byte	0x1
 2182 0673 1D02     		.2byte	0x21d
 2183 0675 00000000 		.4byte	.LFB123
 2184 0679 1A000000 		.4byte	.LFE123-.LFB123
 2185 067d 01       		.uleb128 0x1
 2186 067e 9C       		.byte	0x9c
 2187 067f A0060000 		.4byte	0x6a0
 2188 0683 1A       		.uleb128 0x1a
ARM GAS  C:\Users\jsyoon\AppData\Local\Temp\ccYheA2D.s 			page 40


 2189 0684 E3030000 		.4byte	.LASF56
 2190 0688 01       		.byte	0x1
 2191 0689 1D02     		.2byte	0x21d
 2192 068b C1030000 		.4byte	0x3c1
 2193 068f 01       		.uleb128 0x1
 2194 0690 50       		.byte	0x50
 2195 0691 1A       		.uleb128 0x1a
 2196 0692 16000000 		.4byte	.LASF65
 2197 0696 01       		.byte	0x1
 2198 0697 1D02     		.2byte	0x21d
 2199 0699 1D010000 		.4byte	0x11d
 2200 069d 01       		.uleb128 0x1
 2201 069e 51       		.byte	0x51
 2202 069f 00       		.byte	0
 2203 06a0 19       		.uleb128 0x19
 2204 06a1 C4050000 		.4byte	.LASF77
 2205 06a5 01       		.byte	0x1
 2206 06a6 3702     		.2byte	0x237
 2207 06a8 00000000 		.4byte	.LFB124
 2208 06ac 1E000000 		.4byte	.LFE124-.LFB124
 2209 06b0 01       		.uleb128 0x1
 2210 06b1 9C       		.byte	0x9c
 2211 06b2 D3060000 		.4byte	0x6d3
 2212 06b6 1A       		.uleb128 0x1a
 2213 06b7 E3030000 		.4byte	.LASF56
 2214 06bb 01       		.byte	0x1
 2215 06bc 3702     		.2byte	0x237
 2216 06be C1030000 		.4byte	0x3c1
 2217 06c2 01       		.uleb128 0x1
 2218 06c3 50       		.byte	0x50
 2219 06c4 1A       		.uleb128 0x1a
 2220 06c5 A7030000 		.4byte	.LASF49
 2221 06c9 01       		.byte	0x1
 2222 06ca 3702     		.2byte	0x237
 2223 06cc A2000000 		.4byte	0xa2
 2224 06d0 01       		.uleb128 0x1
 2225 06d1 51       		.byte	0x51
 2226 06d2 00       		.byte	0
 2227 06d3 19       		.uleb128 0x19
 2228 06d4 C8000000 		.4byte	.LASF78
 2229 06d8 01       		.byte	0x1
 2230 06d9 5D02     		.2byte	0x25d
 2231 06db 00000000 		.4byte	.LFB125
 2232 06df 1E000000 		.4byte	.LFE125-.LFB125
 2233 06e3 01       		.uleb128 0x1
 2234 06e4 9C       		.byte	0x9c
 2235 06e5 06070000 		.4byte	0x706
 2236 06e9 1A       		.uleb128 0x1a
 2237 06ea E3030000 		.4byte	.LASF56
 2238 06ee 01       		.byte	0x1
 2239 06ef 5D02     		.2byte	0x25d
 2240 06f1 C1030000 		.4byte	0x3c1
 2241 06f5 01       		.uleb128 0x1
 2242 06f6 50       		.byte	0x50
 2243 06f7 1A       		.uleb128 0x1a
 2244 06f8 F6030000 		.4byte	.LASF79
 2245 06fc 01       		.byte	0x1
ARM GAS  C:\Users\jsyoon\AppData\Local\Temp\ccYheA2D.s 			page 41


 2246 06fd 5D02     		.2byte	0x25d
 2247 06ff A2000000 		.4byte	0xa2
 2248 0703 01       		.uleb128 0x1
 2249 0704 51       		.byte	0x51
 2250 0705 00       		.byte	0
 2251 0706 19       		.uleb128 0x19
 2252 0707 1F030000 		.4byte	.LASF80
 2253 070b 01       		.byte	0x1
 2254 070c 7902     		.2byte	0x279
 2255 070e 00000000 		.4byte	.LFB126
 2256 0712 1E000000 		.4byte	.LFE126-.LFB126
 2257 0716 01       		.uleb128 0x1
 2258 0717 9C       		.byte	0x9c
 2259 0718 39070000 		.4byte	0x739
 2260 071c 1A       		.uleb128 0x1a
 2261 071d E3030000 		.4byte	.LASF56
 2262 0721 01       		.byte	0x1
 2263 0722 7902     		.2byte	0x279
 2264 0724 C1030000 		.4byte	0x3c1
 2265 0728 01       		.uleb128 0x1
 2266 0729 50       		.byte	0x50
 2267 072a 1A       		.uleb128 0x1a
 2268 072b CC030000 		.4byte	.LASF81
 2269 072f 01       		.byte	0x1
 2270 0730 7902     		.2byte	0x279
 2271 0732 A2000000 		.4byte	0xa2
 2272 0736 01       		.uleb128 0x1
 2273 0737 51       		.byte	0x51
 2274 0738 00       		.byte	0
 2275 0739 19       		.uleb128 0x19
 2276 073a 9C030000 		.4byte	.LASF82
 2277 073e 01       		.byte	0x1
 2278 073f 9102     		.2byte	0x291
 2279 0741 00000000 		.4byte	.LFB127
 2280 0745 1A000000 		.4byte	.LFE127-.LFB127
 2281 0749 01       		.uleb128 0x1
 2282 074a 9C       		.byte	0x9c
 2283 074b 6C070000 		.4byte	0x76c
 2284 074f 1A       		.uleb128 0x1a
 2285 0750 E3030000 		.4byte	.LASF56
 2286 0754 01       		.byte	0x1
 2287 0755 9102     		.2byte	0x291
 2288 0757 C1030000 		.4byte	0x3c1
 2289 075b 01       		.uleb128 0x1
 2290 075c 50       		.byte	0x50
 2291 075d 1A       		.uleb128 0x1a
 2292 075e 16000000 		.4byte	.LASF65
 2293 0762 01       		.byte	0x1
 2294 0763 9102     		.2byte	0x291
 2295 0765 1D010000 		.4byte	0x11d
 2296 0769 01       		.uleb128 0x1
 2297 076a 51       		.byte	0x51
 2298 076b 00       		.byte	0
 2299 076c 19       		.uleb128 0x19
 2300 076d 28010000 		.4byte	.LASF83
 2301 0771 01       		.byte	0x1
 2302 0772 B702     		.2byte	0x2b7
ARM GAS  C:\Users\jsyoon\AppData\Local\Temp\ccYheA2D.s 			page 42


 2303 0774 00000000 		.4byte	.LFB128
 2304 0778 04000000 		.4byte	.LFE128-.LFB128
 2305 077c 01       		.uleb128 0x1
 2306 077d 9C       		.byte	0x9c
 2307 077e 9F070000 		.4byte	0x79f
 2308 0782 1A       		.uleb128 0x1a
 2309 0783 E3030000 		.4byte	.LASF56
 2310 0787 01       		.byte	0x1
 2311 0788 B702     		.2byte	0x2b7
 2312 078a C1030000 		.4byte	0x3c1
 2313 078e 01       		.uleb128 0x1
 2314 078f 50       		.byte	0x50
 2315 0790 1A       		.uleb128 0x1a
 2316 0791 4E040000 		.4byte	.LASF84
 2317 0795 01       		.byte	0x1
 2318 0796 B702     		.2byte	0x2b7
 2319 0798 97000000 		.4byte	0x97
 2320 079c 01       		.uleb128 0x1
 2321 079d 51       		.byte	0x51
 2322 079e 00       		.byte	0
 2323 079f 1D       		.uleb128 0x1d
 2324 07a0 64050000 		.4byte	.LASF89
 2325 07a4 01       		.byte	0x1
 2326 07a5 C402     		.2byte	0x2c4
 2327 07a7 97000000 		.4byte	0x97
 2328 07ab 00000000 		.4byte	.LFB129
 2329 07af 06000000 		.4byte	.LFE129-.LFB129
 2330 07b3 01       		.uleb128 0x1
 2331 07b4 9C       		.byte	0x9c
 2332 07b5 CA070000 		.4byte	0x7ca
 2333 07b9 1B       		.uleb128 0x1b
 2334 07ba E3030000 		.4byte	.LASF56
 2335 07be 01       		.byte	0x1
 2336 07bf C402     		.2byte	0x2c4
 2337 07c1 C1030000 		.4byte	0x3c1
 2338 07c5 84020000 		.4byte	.LLST10
 2339 07c9 00       		.byte	0
 2340 07ca 19       		.uleb128 0x19
 2341 07cb BC030000 		.4byte	.LASF85
 2342 07cf 01       		.byte	0x1
 2343 07d0 E302     		.2byte	0x2e3
 2344 07d2 00000000 		.4byte	.LFB130
 2345 07d6 1A000000 		.4byte	.LFE130-.LFB130
 2346 07da 01       		.uleb128 0x1
 2347 07db 9C       		.byte	0x9c
 2348 07dc FD070000 		.4byte	0x7fd
 2349 07e0 1A       		.uleb128 0x1a
 2350 07e1 E3030000 		.4byte	.LASF56
 2351 07e5 01       		.byte	0x1
 2352 07e6 E302     		.2byte	0x2e3
 2353 07e8 C1030000 		.4byte	0x3c1
 2354 07ec 01       		.uleb128 0x1
 2355 07ed 50       		.byte	0x50
 2356 07ee 1A       		.uleb128 0x1a
 2357 07ef 16000000 		.4byte	.LASF65
 2358 07f3 01       		.byte	0x1
 2359 07f4 E302     		.2byte	0x2e3
ARM GAS  C:\Users\jsyoon\AppData\Local\Temp\ccYheA2D.s 			page 43


 2360 07f6 1D010000 		.4byte	0x11d
 2361 07fa 01       		.uleb128 0x1
 2362 07fb 51       		.byte	0x51
 2363 07fc 00       		.byte	0
 2364 07fd 19       		.uleb128 0x19
 2365 07fe 75030000 		.4byte	.LASF86
 2366 0802 01       		.byte	0x1
 2367 0803 0203     		.2byte	0x302
 2368 0805 00000000 		.4byte	.LFB131
 2369 0809 1E000000 		.4byte	.LFE131-.LFB131
 2370 080d 01       		.uleb128 0x1
 2371 080e 9C       		.byte	0x9c
 2372 080f 30080000 		.4byte	0x830
 2373 0813 1A       		.uleb128 0x1a
 2374 0814 E3030000 		.4byte	.LASF56
 2375 0818 01       		.byte	0x1
 2376 0819 0203     		.2byte	0x302
 2377 081b C1030000 		.4byte	0x3c1
 2378 081f 01       		.uleb128 0x1
 2379 0820 50       		.byte	0x50
 2380 0821 1A       		.uleb128 0x1a
 2381 0822 94060000 		.4byte	.LASF87
 2382 0826 01       		.byte	0x1
 2383 0827 0203     		.2byte	0x302
 2384 0829 A2000000 		.4byte	0xa2
 2385 082d 01       		.uleb128 0x1
 2386 082e 51       		.byte	0x51
 2387 082f 00       		.byte	0
 2388 0830 19       		.uleb128 0x19
 2389 0831 35010000 		.4byte	.LASF88
 2390 0835 01       		.byte	0x1
 2391 0836 1A03     		.2byte	0x31a
 2392 0838 00000000 		.4byte	.LFB132
 2393 083c 1A000000 		.4byte	.LFE132-.LFB132
 2394 0840 01       		.uleb128 0x1
 2395 0841 9C       		.byte	0x9c
 2396 0842 63080000 		.4byte	0x863
 2397 0846 1A       		.uleb128 0x1a
 2398 0847 E3030000 		.4byte	.LASF56
 2399 084b 01       		.byte	0x1
 2400 084c 1A03     		.2byte	0x31a
 2401 084e C1030000 		.4byte	0x3c1
 2402 0852 01       		.uleb128 0x1
 2403 0853 50       		.byte	0x50
 2404 0854 1A       		.uleb128 0x1a
 2405 0855 16000000 		.4byte	.LASF65
 2406 0859 01       		.byte	0x1
 2407 085a 1A03     		.2byte	0x31a
 2408 085c 1D010000 		.4byte	0x11d
 2409 0860 01       		.uleb128 0x1
 2410 0861 51       		.byte	0x51
 2411 0862 00       		.byte	0
 2412 0863 1D       		.uleb128 0x1d
 2413 0864 3C000000 		.4byte	.LASF90
 2414 0868 01       		.byte	0x1
 2415 0869 3003     		.2byte	0x330
 2416 086b 97000000 		.4byte	0x97
ARM GAS  C:\Users\jsyoon\AppData\Local\Temp\ccYheA2D.s 			page 44


 2417 086f 00000000 		.4byte	.LFB133
 2418 0873 08000000 		.4byte	.LFE133-.LFB133
 2419 0877 01       		.uleb128 0x1
 2420 0878 9C       		.byte	0x9c
 2421 0879 8E080000 		.4byte	0x88e
 2422 087d 1B       		.uleb128 0x1b
 2423 087e E3030000 		.4byte	.LASF56
 2424 0882 01       		.byte	0x1
 2425 0883 3003     		.2byte	0x330
 2426 0885 C1030000 		.4byte	0x3c1
 2427 0889 A5020000 		.4byte	.LLST11
 2428 088d 00       		.byte	0
 2429 088e 19       		.uleb128 0x19
 2430 088f 72040000 		.4byte	.LASF91
 2431 0893 01       		.byte	0x1
 2432 0894 5103     		.2byte	0x351
 2433 0896 00000000 		.4byte	.LFB134
 2434 089a 1A000000 		.4byte	.LFE134-.LFB134
 2435 089e 01       		.uleb128 0x1
 2436 089f 9C       		.byte	0x9c
 2437 08a0 C1080000 		.4byte	0x8c1
 2438 08a4 1A       		.uleb128 0x1a
 2439 08a5 E3030000 		.4byte	.LASF56
 2440 08a9 01       		.byte	0x1
 2441 08aa 5103     		.2byte	0x351
 2442 08ac C1030000 		.4byte	0x3c1
 2443 08b0 01       		.uleb128 0x1
 2444 08b1 50       		.byte	0x50
 2445 08b2 1A       		.uleb128 0x1a
 2446 08b3 16000000 		.4byte	.LASF65
 2447 08b7 01       		.byte	0x1
 2448 08b8 5103     		.2byte	0x351
 2449 08ba 1D010000 		.4byte	0x11d
 2450 08be 01       		.uleb128 0x1
 2451 08bf 51       		.byte	0x51
 2452 08c0 00       		.byte	0
 2453 08c1 19       		.uleb128 0x19
 2454 08c2 EB020000 		.4byte	.LASF92
 2455 08c6 01       		.byte	0x1
 2456 08c7 6903     		.2byte	0x369
 2457 08c9 00000000 		.4byte	.LFB135
 2458 08cd 1A000000 		.4byte	.LFE135-.LFB135
 2459 08d1 01       		.uleb128 0x1
 2460 08d2 9C       		.byte	0x9c
 2461 08d3 F4080000 		.4byte	0x8f4
 2462 08d7 1A       		.uleb128 0x1a
 2463 08d8 E3030000 		.4byte	.LASF56
 2464 08dc 01       		.byte	0x1
 2465 08dd 6903     		.2byte	0x369
 2466 08df C1030000 		.4byte	0x3c1
 2467 08e3 01       		.uleb128 0x1
 2468 08e4 50       		.byte	0x50
 2469 08e5 1A       		.uleb128 0x1a
 2470 08e6 16000000 		.4byte	.LASF65
 2471 08ea 01       		.byte	0x1
 2472 08eb 6903     		.2byte	0x369
 2473 08ed 1D010000 		.4byte	0x11d
ARM GAS  C:\Users\jsyoon\AppData\Local\Temp\ccYheA2D.s 			page 45


 2474 08f1 01       		.uleb128 0x1
 2475 08f2 51       		.byte	0x51
 2476 08f3 00       		.byte	0
 2477 08f4 1D       		.uleb128 0x1d
 2478 08f5 9A050000 		.4byte	.LASF93
 2479 08f9 01       		.byte	0x1
 2480 08fa F303     		.2byte	0x3f3
 2481 08fc A2000000 		.4byte	0xa2
 2482 0900 00000000 		.4byte	.LFB136
 2483 0904 18000000 		.4byte	.LFE136-.LFB136
 2484 0908 01       		.uleb128 0x1
 2485 0909 9C       		.byte	0x9c
 2486 090a 3E090000 		.4byte	0x93e
 2487 090e 1B       		.uleb128 0x1b
 2488 090f E3030000 		.4byte	.LASF56
 2489 0913 01       		.byte	0x1
 2490 0914 F303     		.2byte	0x3f3
 2491 0916 C1030000 		.4byte	0x3c1
 2492 091a C6020000 		.4byte	.LLST12
 2493 091e 1B       		.uleb128 0x1b
 2494 091f 65000000 		.4byte	.LASF94
 2495 0923 01       		.byte	0x1
 2496 0924 F303     		.2byte	0x3f3
 2497 0926 97000000 		.4byte	0x97
 2498 092a E7020000 		.4byte	.LLST13
 2499 092e 1E       		.uleb128 0x1e
 2500 092f 746D7000 		.ascii	"tmp\000"
 2501 0933 01       		.byte	0x1
 2502 0934 F503     		.2byte	0x3f5
 2503 0936 CA000000 		.4byte	0xca
 2504 093a 02       		.uleb128 0x2
 2505 093b 91       		.byte	0x91
 2506 093c 7C       		.sleb128 -4
 2507 093d 00       		.byte	0
 2508 093e 19       		.uleb128 0x19
 2509 093f 8F000000 		.4byte	.LASF95
 2510 0943 01       		.byte	0x1
 2511 0944 0E04     		.2byte	0x40e
 2512 0946 00000000 		.4byte	.LFB137
 2513 094a 14000000 		.4byte	.LFE137-.LFB137
 2514 094e 01       		.uleb128 0x1
 2515 094f 9C       		.byte	0x9c
 2516 0950 81090000 		.4byte	0x981
 2517 0954 1A       		.uleb128 0x1a
 2518 0955 E3030000 		.4byte	.LASF56
 2519 0959 01       		.byte	0x1
 2520 095a 0E04     		.2byte	0x40e
 2521 095c C1030000 		.4byte	0x3c1
 2522 0960 01       		.uleb128 0x1
 2523 0961 50       		.byte	0x50
 2524 0962 1B       		.uleb128 0x1b
 2525 0963 8D040000 		.4byte	.LASF96
 2526 0967 01       		.byte	0x1
 2527 0968 0E04     		.2byte	0x40e
 2528 096a A2000000 		.4byte	0xa2
 2529 096e 08030000 		.4byte	.LLST14
 2530 0972 1A       		.uleb128 0x1a
ARM GAS  C:\Users\jsyoon\AppData\Local\Temp\ccYheA2D.s 			page 46


 2531 0973 16000000 		.4byte	.LASF65
 2532 0977 01       		.byte	0x1
 2533 0978 0E04     		.2byte	0x40e
 2534 097a 1D010000 		.4byte	0x11d
 2535 097e 01       		.uleb128 0x1
 2536 097f 52       		.byte	0x52
 2537 0980 00       		.byte	0
 2538 0981 1D       		.uleb128 0x1d
 2539 0982 63040000 		.4byte	.LASF97
 2540 0986 01       		.byte	0x1
 2541 0987 4904     		.2byte	0x449
 2542 0989 3F010000 		.4byte	0x13f
 2543 098d 00000000 		.4byte	.LFB138
 2544 0991 18000000 		.4byte	.LFE138-.LFB138
 2545 0995 01       		.uleb128 0x1
 2546 0996 9C       		.byte	0x9c
 2547 0997 FA090000 		.4byte	0x9fa
 2548 099b 1B       		.uleb128 0x1b
 2549 099c E3030000 		.4byte	.LASF56
 2550 09a0 01       		.byte	0x1
 2551 09a1 4904     		.2byte	0x449
 2552 09a3 C1030000 		.4byte	0x3c1
 2553 09a7 42030000 		.4byte	.LLST15
 2554 09ab 1A       		.uleb128 0x1a
 2555 09ac 49050000 		.4byte	.LASF98
 2556 09b0 01       		.byte	0x1
 2557 09b1 4904     		.2byte	0x449
 2558 09b3 B8000000 		.4byte	0xb8
 2559 09b7 01       		.uleb128 0x1
 2560 09b8 51       		.byte	0x51
 2561 09b9 1C       		.uleb128 0x1c
 2562 09ba B6060000 		.4byte	.LASF99
 2563 09be 01       		.byte	0x1
 2564 09bf 4B04     		.2byte	0x44b
 2565 09c1 B8000000 		.4byte	0xb8
 2566 09c5 63030000 		.4byte	.LLST16
 2567 09c9 1C       		.uleb128 0x1c
 2568 09ca 48060000 		.4byte	.LASF100
 2569 09ce 01       		.byte	0x1
 2570 09cf 4C04     		.2byte	0x44c
 2571 09d1 B8000000 		.4byte	0xb8
 2572 09d5 B7030000 		.4byte	.LLST17
 2573 09d9 1C       		.uleb128 0x1c
 2574 09da 4E060000 		.4byte	.LASF101
 2575 09de 01       		.byte	0x1
 2576 09df 4C04     		.2byte	0x44c
 2577 09e1 B8000000 		.4byte	0xb8
 2578 09e5 ED030000 		.4byte	.LLST18
 2579 09e9 1C       		.uleb128 0x1c
 2580 09ea C0060000 		.4byte	.LASF102
 2581 09ee 01       		.byte	0x1
 2582 09ef 4D04     		.2byte	0x44d
 2583 09f1 3F010000 		.4byte	0x13f
 2584 09f5 14040000 		.4byte	.LLST19
 2585 09f9 00       		.byte	0
 2586 09fa 1D       		.uleb128 0x1d
 2587 09fb 0D040000 		.4byte	.LASF103
ARM GAS  C:\Users\jsyoon\AppData\Local\Temp\ccYheA2D.s 			page 47


 2588 09ff 01       		.byte	0x1
 2589 0a00 7904     		.2byte	0x479
 2590 0a02 B8000000 		.4byte	0xb8
 2591 0a06 00000000 		.4byte	.LFB139
 2592 0a0a 10000000 		.4byte	.LFE139-.LFB139
 2593 0a0e 01       		.uleb128 0x1
 2594 0a0f 9C       		.byte	0x9c
 2595 0a10 550A0000 		.4byte	0xa55
 2596 0a14 1B       		.uleb128 0x1b
 2597 0a15 E3030000 		.4byte	.LASF56
 2598 0a19 01       		.byte	0x1
 2599 0a1a 7904     		.2byte	0x479
 2600 0a1c C1030000 		.4byte	0x3c1
 2601 0a20 74040000 		.4byte	.LLST20
 2602 0a24 1C       		.uleb128 0x1c
 2603 0a25 B6060000 		.4byte	.LASF99
 2604 0a29 01       		.byte	0x1
 2605 0a2a 7B04     		.2byte	0x47b
 2606 0a2c B8000000 		.4byte	0xb8
 2607 0a30 95040000 		.4byte	.LLST21
 2608 0a34 1C       		.uleb128 0x1c
 2609 0a35 48060000 		.4byte	.LASF100
 2610 0a39 01       		.byte	0x1
 2611 0a3a 7C04     		.2byte	0x47c
 2612 0a3c B8000000 		.4byte	0xb8
 2613 0a40 E9040000 		.4byte	.LLST22
 2614 0a44 1C       		.uleb128 0x1c
 2615 0a45 4E060000 		.4byte	.LASF101
 2616 0a49 01       		.byte	0x1
 2617 0a4a 7C04     		.2byte	0x47c
 2618 0a4c B8000000 		.4byte	0xb8
 2619 0a50 1F050000 		.4byte	.LLST23
 2620 0a54 00       		.byte	0
 2621 0a55 1D       		.uleb128 0x1d
 2622 0a56 A4060000 		.4byte	.LASF104
 2623 0a5a 01       		.byte	0x1
 2624 0a5b B004     		.2byte	0x4b0
 2625 0a5d EF000000 		.4byte	0xef
 2626 0a61 00000000 		.4byte	.LFB140
 2627 0a65 36000000 		.4byte	.LFE140-.LFB140
 2628 0a69 01       		.uleb128 0x1
 2629 0a6a 9C       		.byte	0x9c
 2630 0a6b BE0A0000 		.4byte	0xabe
 2631 0a6f 1B       		.uleb128 0x1b
 2632 0a70 E3030000 		.4byte	.LASF56
 2633 0a74 01       		.byte	0x1
 2634 0a75 B004     		.2byte	0x4b0
 2635 0a77 C1030000 		.4byte	0x3c1
 2636 0a7b 46050000 		.4byte	.LLST24
 2637 0a7f 1B       		.uleb128 0x1b
 2638 0a80 27040000 		.4byte	.LASF105
 2639 0a84 01       		.byte	0x1
 2640 0a85 B004     		.2byte	0x4b0
 2641 0a87 B8000000 		.4byte	0xb8
 2642 0a8b 72050000 		.4byte	.LLST25
 2643 0a8f 1C       		.uleb128 0x1c
 2644 0a90 34030000 		.4byte	.LASF106
ARM GAS  C:\Users\jsyoon\AppData\Local\Temp\ccYheA2D.s 			page 48


 2645 0a94 01       		.byte	0x1
 2646 0a95 B204     		.2byte	0x4b2
 2647 0a97 EF000000 		.4byte	0xef
 2648 0a9b 90050000 		.4byte	.LLST26
 2649 0a9f 1F       		.uleb128 0x1f
 2650 0aa0 B5030000 		.4byte	.LASF107
 2651 0aa4 01       		.byte	0x1
 2652 0aa5 B304     		.2byte	0x4b3
 2653 0aa7 CA000000 		.4byte	0xca
 2654 0aab 02       		.uleb128 0x2
 2655 0aac 91       		.byte	0x91
 2656 0aad 78       		.sleb128 -8
 2657 0aae 1F       		.uleb128 0x1f
 2658 0aaf 00070000 		.4byte	.LASF108
 2659 0ab3 01       		.byte	0x1
 2660 0ab4 B304     		.2byte	0x4b3
 2661 0ab6 CA000000 		.4byte	0xca
 2662 0aba 02       		.uleb128 0x2
 2663 0abb 91       		.byte	0x91
 2664 0abc 7C       		.sleb128 -4
 2665 0abd 00       		.byte	0
 2666 0abe 19       		.uleb128 0x19
 2667 0abf 74050000 		.4byte	.LASF109
 2668 0ac3 01       		.byte	0x1
 2669 0ac4 FD04     		.2byte	0x4fd
 2670 0ac6 00000000 		.4byte	.LFB141
 2671 0aca 08000000 		.4byte	.LFE141-.LFB141
 2672 0ace 01       		.uleb128 0x1
 2673 0acf 9C       		.byte	0x9c
 2674 0ad0 030B0000 		.4byte	0xb03
 2675 0ad4 1A       		.uleb128 0x1a
 2676 0ad5 E3030000 		.4byte	.LASF56
 2677 0ad9 01       		.byte	0x1
 2678 0ada FD04     		.2byte	0x4fd
 2679 0adc C1030000 		.4byte	0x3c1
 2680 0ae0 01       		.uleb128 0x1
 2681 0ae1 50       		.byte	0x50
 2682 0ae2 1B       		.uleb128 0x1b
 2683 0ae3 27040000 		.4byte	.LASF105
 2684 0ae7 01       		.byte	0x1
 2685 0ae8 FD04     		.2byte	0x4fd
 2686 0aea B8000000 		.4byte	0xb8
 2687 0aee C2050000 		.4byte	.LLST27
 2688 0af2 1C       		.uleb128 0x1c
 2689 0af3 8B030000 		.4byte	.LASF110
 2690 0af7 01       		.byte	0x1
 2691 0af8 FF04     		.2byte	0x4ff
 2692 0afa B8000000 		.4byte	0xb8
 2693 0afe F1050000 		.4byte	.LLST28
 2694 0b02 00       		.byte	0
 2695 0b03 1D       		.uleb128 0x1d
 2696 0b04 31070000 		.4byte	.LASF111
 2697 0b08 01       		.byte	0x1
 2698 0b09 1F05     		.2byte	0x51f
 2699 0b0b FB000000 		.4byte	0xfb
 2700 0b0f 00000000 		.4byte	.LFB142
 2701 0b13 1C000000 		.4byte	.LFE142-.LFB142
ARM GAS  C:\Users\jsyoon\AppData\Local\Temp\ccYheA2D.s 			page 49


 2702 0b17 01       		.uleb128 0x1
 2703 0b18 9C       		.byte	0x9c
 2704 0b19 5E0B0000 		.4byte	0xb5e
 2705 0b1d 1B       		.uleb128 0x1b
 2706 0b1e E3030000 		.4byte	.LASF56
 2707 0b22 01       		.byte	0x1
 2708 0b23 1F05     		.2byte	0x51f
 2709 0b25 C1030000 		.4byte	0x3c1
 2710 0b29 34060000 		.4byte	.LLST29
 2711 0b2d 1B       		.uleb128 0x1b
 2712 0b2e 8D040000 		.4byte	.LASF96
 2713 0b32 01       		.byte	0x1
 2714 0b33 1F05     		.2byte	0x51f
 2715 0b35 B8000000 		.4byte	0xb8
 2716 0b39 55060000 		.4byte	.LLST30
 2717 0b3d 1C       		.uleb128 0x1c
 2718 0b3e 34030000 		.4byte	.LASF106
 2719 0b42 01       		.byte	0x1
 2720 0b43 2105     		.2byte	0x521
 2721 0b45 FB000000 		.4byte	0xfb
 2722 0b49 8F060000 		.4byte	.LLST31
 2723 0b4d 1C       		.uleb128 0x1c
 2724 0b4e 54060000 		.4byte	.LASF112
 2725 0b52 01       		.byte	0x1
 2726 0b53 2205     		.2byte	0x522
 2727 0b55 B8000000 		.4byte	0xb8
 2728 0b59 AE060000 		.4byte	.LLST32
 2729 0b5d 00       		.byte	0
 2730 0b5e 19       		.uleb128 0x19
 2731 0b5f 00000000 		.4byte	.LASF113
 2732 0b63 01       		.byte	0x1
 2733 0b64 5B05     		.2byte	0x55b
 2734 0b66 00000000 		.4byte	.LFB143
 2735 0b6a 08000000 		.4byte	.LFE143-.LFB143
 2736 0b6e 01       		.uleb128 0x1
 2737 0b6f 9C       		.byte	0x9c
 2738 0b70 A30B0000 		.4byte	0xba3
 2739 0b74 1A       		.uleb128 0x1a
 2740 0b75 E3030000 		.4byte	.LASF56
 2741 0b79 01       		.byte	0x1
 2742 0b7a 5B05     		.2byte	0x55b
 2743 0b7c C1030000 		.4byte	0x3c1
 2744 0b80 01       		.uleb128 0x1
 2745 0b81 50       		.byte	0x50
 2746 0b82 1B       		.uleb128 0x1b
 2747 0b83 8D040000 		.4byte	.LASF96
 2748 0b87 01       		.byte	0x1
 2749 0b88 5B05     		.2byte	0x55b
 2750 0b8a B8000000 		.4byte	0xb8
 2751 0b8e 0D070000 		.4byte	.LLST33
 2752 0b92 1C       		.uleb128 0x1c
 2753 0b93 8B030000 		.4byte	.LASF110
 2754 0b97 01       		.byte	0x1
 2755 0b98 5D05     		.2byte	0x55d
 2756 0b9a B8000000 		.4byte	0xb8
 2757 0b9e 3C070000 		.4byte	.LLST34
 2758 0ba2 00       		.byte	0
ARM GAS  C:\Users\jsyoon\AppData\Local\Temp\ccYheA2D.s 			page 50


 2759 0ba3 20       		.uleb128 0x20
 2760 0ba4 BB000000 		.4byte	.LASF119
 2761 0ba8 07       		.byte	0x7
 2762 0ba9 9806     		.2byte	0x698
 2763 0bab D4000000 		.4byte	0xd4
 2764 0baf 21       		.uleb128 0x21
 2765 0bb0 78000000 		.4byte	.LASF114
 2766 0bb4 05       		.byte	0x5
 2767 0bb5 E601     		.2byte	0x1e6
 2768 0bb7 C60B0000 		.4byte	0xbc6
 2769 0bbb 22       		.uleb128 0x22
 2770 0bbc B8000000 		.4byte	0xb8
 2771 0bc0 22       		.uleb128 0x22
 2772 0bc1 1D010000 		.4byte	0x11d
 2773 0bc5 00       		.byte	0
 2774 0bc6 21       		.uleb128 0x21
 2775 0bc7 E0050000 		.4byte	.LASF115
 2776 0bcb 05       		.byte	0x5
 2777 0bcc D501     		.2byte	0x1d5
 2778 0bce D80B0000 		.4byte	0xbd8
 2779 0bd2 22       		.uleb128 0x22
 2780 0bd3 D80B0000 		.4byte	0xbd8
 2781 0bd7 00       		.byte	0
 2782 0bd8 15       		.uleb128 0x15
 2783 0bd9 04       		.byte	0x4
 2784 0bda 9D020000 		.4byte	0x29d
 2785 0bde 00       		.byte	0
 2786              		.section	.debug_abbrev,"",%progbits
 2787              	.Ldebug_abbrev0:
 2788 0000 01       		.uleb128 0x1
 2789 0001 11       		.uleb128 0x11
 2790 0002 01       		.byte	0x1
 2791 0003 25       		.uleb128 0x25
 2792 0004 0E       		.uleb128 0xe
 2793 0005 13       		.uleb128 0x13
 2794 0006 0B       		.uleb128 0xb
 2795 0007 03       		.uleb128 0x3
 2796 0008 0E       		.uleb128 0xe
 2797 0009 1B       		.uleb128 0x1b
 2798 000a 0E       		.uleb128 0xe
 2799 000b 55       		.uleb128 0x55
 2800 000c 17       		.uleb128 0x17
 2801 000d 11       		.uleb128 0x11
 2802 000e 01       		.uleb128 0x1
 2803 000f 10       		.uleb128 0x10
 2804 0010 17       		.uleb128 0x17
 2805 0011 00       		.byte	0
 2806 0012 00       		.byte	0
 2807 0013 02       		.uleb128 0x2
 2808 0014 24       		.uleb128 0x24
 2809 0015 00       		.byte	0
 2810 0016 0B       		.uleb128 0xb
 2811 0017 0B       		.uleb128 0xb
 2812 0018 3E       		.uleb128 0x3e
 2813 0019 0B       		.uleb128 0xb
 2814 001a 03       		.uleb128 0x3
 2815 001b 0E       		.uleb128 0xe
ARM GAS  C:\Users\jsyoon\AppData\Local\Temp\ccYheA2D.s 			page 51


 2816 001c 00       		.byte	0
 2817 001d 00       		.byte	0
 2818 001e 03       		.uleb128 0x3
 2819 001f 16       		.uleb128 0x16
 2820 0020 00       		.byte	0
 2821 0021 03       		.uleb128 0x3
 2822 0022 0E       		.uleb128 0xe
 2823 0023 3A       		.uleb128 0x3a
 2824 0024 0B       		.uleb128 0xb
 2825 0025 3B       		.uleb128 0x3b
 2826 0026 0B       		.uleb128 0xb
 2827 0027 49       		.uleb128 0x49
 2828 0028 13       		.uleb128 0x13
 2829 0029 00       		.byte	0
 2830 002a 00       		.byte	0
 2831 002b 04       		.uleb128 0x4
 2832 002c 24       		.uleb128 0x24
 2833 002d 00       		.byte	0
 2834 002e 0B       		.uleb128 0xb
 2835 002f 0B       		.uleb128 0xb
 2836 0030 3E       		.uleb128 0x3e
 2837 0031 0B       		.uleb128 0xb
 2838 0032 03       		.uleb128 0x3
 2839 0033 08       		.uleb128 0x8
 2840 0034 00       		.byte	0
 2841 0035 00       		.byte	0
 2842 0036 05       		.uleb128 0x5
 2843 0037 35       		.uleb128 0x35
 2844 0038 00       		.byte	0
 2845 0039 49       		.uleb128 0x49
 2846 003a 13       		.uleb128 0x13
 2847 003b 00       		.byte	0
 2848 003c 00       		.byte	0
 2849 003d 06       		.uleb128 0x6
 2850 003e 04       		.uleb128 0x4
 2851 003f 01       		.byte	0x1
 2852 0040 0B       		.uleb128 0xb
 2853 0041 0B       		.uleb128 0xb
 2854 0042 3A       		.uleb128 0x3a
 2855 0043 0B       		.uleb128 0xb
 2856 0044 3B       		.uleb128 0x3b
 2857 0045 05       		.uleb128 0x5
 2858 0046 01       		.uleb128 0x1
 2859 0047 13       		.uleb128 0x13
 2860 0048 00       		.byte	0
 2861 0049 00       		.byte	0
 2862 004a 07       		.uleb128 0x7
 2863 004b 28       		.uleb128 0x28
 2864 004c 00       		.byte	0
 2865 004d 03       		.uleb128 0x3
 2866 004e 0E       		.uleb128 0xe
 2867 004f 1C       		.uleb128 0x1c
 2868 0050 0D       		.uleb128 0xd
 2869 0051 00       		.byte	0
 2870 0052 00       		.byte	0
 2871 0053 08       		.uleb128 0x8
 2872 0054 28       		.uleb128 0x28
ARM GAS  C:\Users\jsyoon\AppData\Local\Temp\ccYheA2D.s 			page 52


 2873 0055 00       		.byte	0
 2874 0056 03       		.uleb128 0x3
 2875 0057 08       		.uleb128 0x8
 2876 0058 1C       		.uleb128 0x1c
 2877 0059 0D       		.uleb128 0xd
 2878 005a 00       		.byte	0
 2879 005b 00       		.byte	0
 2880 005c 09       		.uleb128 0x9
 2881 005d 16       		.uleb128 0x16
 2882 005e 00       		.byte	0
 2883 005f 03       		.uleb128 0x3
 2884 0060 0E       		.uleb128 0xe
 2885 0061 3A       		.uleb128 0x3a
 2886 0062 0B       		.uleb128 0xb
 2887 0063 3B       		.uleb128 0x3b
 2888 0064 05       		.uleb128 0x5
 2889 0065 49       		.uleb128 0x49
 2890 0066 13       		.uleb128 0x13
 2891 0067 00       		.byte	0
 2892 0068 00       		.byte	0
 2893 0069 0A       		.uleb128 0xa
 2894 006a 13       		.uleb128 0x13
 2895 006b 01       		.byte	0x1
 2896 006c 0B       		.uleb128 0xb
 2897 006d 0B       		.uleb128 0xb
 2898 006e 3A       		.uleb128 0x3a
 2899 006f 0B       		.uleb128 0xb
 2900 0070 3B       		.uleb128 0x3b
 2901 0071 05       		.uleb128 0x5
 2902 0072 01       		.uleb128 0x1
 2903 0073 13       		.uleb128 0x13
 2904 0074 00       		.byte	0
 2905 0075 00       		.byte	0
 2906 0076 0B       		.uleb128 0xb
 2907 0077 0D       		.uleb128 0xd
 2908 0078 00       		.byte	0
 2909 0079 03       		.uleb128 0x3
 2910 007a 08       		.uleb128 0x8
 2911 007b 3A       		.uleb128 0x3a
 2912 007c 0B       		.uleb128 0xb
 2913 007d 3B       		.uleb128 0x3b
 2914 007e 05       		.uleb128 0x5
 2915 007f 49       		.uleb128 0x49
 2916 0080 13       		.uleb128 0x13
 2917 0081 38       		.uleb128 0x38
 2918 0082 0B       		.uleb128 0xb
 2919 0083 00       		.byte	0
 2920 0084 00       		.byte	0
 2921 0085 0C       		.uleb128 0xc
 2922 0086 0D       		.uleb128 0xd
 2923 0087 00       		.byte	0
 2924 0088 03       		.uleb128 0x3
 2925 0089 0E       		.uleb128 0xe
 2926 008a 3A       		.uleb128 0x3a
 2927 008b 0B       		.uleb128 0xb
 2928 008c 3B       		.uleb128 0x3b
 2929 008d 05       		.uleb128 0x5
ARM GAS  C:\Users\jsyoon\AppData\Local\Temp\ccYheA2D.s 			page 53


 2930 008e 49       		.uleb128 0x49
 2931 008f 13       		.uleb128 0x13
 2932 0090 38       		.uleb128 0x38
 2933 0091 0B       		.uleb128 0xb
 2934 0092 00       		.byte	0
 2935 0093 00       		.byte	0
 2936 0094 0D       		.uleb128 0xd
 2937 0095 13       		.uleb128 0x13
 2938 0096 01       		.byte	0x1
 2939 0097 0B       		.uleb128 0xb
 2940 0098 0B       		.uleb128 0xb
 2941 0099 3A       		.uleb128 0x3a
 2942 009a 0B       		.uleb128 0xb
 2943 009b 3B       		.uleb128 0x3b
 2944 009c 0B       		.uleb128 0xb
 2945 009d 01       		.uleb128 0x1
 2946 009e 13       		.uleb128 0x13
 2947 009f 00       		.byte	0
 2948 00a0 00       		.byte	0
 2949 00a1 0E       		.uleb128 0xe
 2950 00a2 0D       		.uleb128 0xd
 2951 00a3 00       		.byte	0
 2952 00a4 03       		.uleb128 0x3
 2953 00a5 0E       		.uleb128 0xe
 2954 00a6 3A       		.uleb128 0x3a
 2955 00a7 0B       		.uleb128 0xb
 2956 00a8 3B       		.uleb128 0x3b
 2957 00a9 0B       		.uleb128 0xb
 2958 00aa 49       		.uleb128 0x49
 2959 00ab 13       		.uleb128 0x13
 2960 00ac 38       		.uleb128 0x38
 2961 00ad 0B       		.uleb128 0xb
 2962 00ae 00       		.byte	0
 2963 00af 00       		.byte	0
 2964 00b0 0F       		.uleb128 0xf
 2965 00b1 2E       		.uleb128 0x2e
 2966 00b2 01       		.byte	0x1
 2967 00b3 3F       		.uleb128 0x3f
 2968 00b4 19       		.uleb128 0x19
 2969 00b5 03       		.uleb128 0x3
 2970 00b6 0E       		.uleb128 0xe
 2971 00b7 3A       		.uleb128 0x3a
 2972 00b8 0B       		.uleb128 0xb
 2973 00b9 3B       		.uleb128 0x3b
 2974 00ba 0B       		.uleb128 0xb
 2975 00bb 27       		.uleb128 0x27
 2976 00bc 19       		.uleb128 0x19
 2977 00bd 11       		.uleb128 0x11
 2978 00be 01       		.uleb128 0x1
 2979 00bf 12       		.uleb128 0x12
 2980 00c0 06       		.uleb128 0x6
 2981 00c1 40       		.uleb128 0x40
 2982 00c2 18       		.uleb128 0x18
 2983 00c3 9742     		.uleb128 0x2117
 2984 00c5 19       		.uleb128 0x19
 2985 00c6 01       		.uleb128 0x1
 2986 00c7 13       		.uleb128 0x13
ARM GAS  C:\Users\jsyoon\AppData\Local\Temp\ccYheA2D.s 			page 54


 2987 00c8 00       		.byte	0
 2988 00c9 00       		.byte	0
 2989 00ca 10       		.uleb128 0x10
 2990 00cb 05       		.uleb128 0x5
 2991 00cc 00       		.byte	0
 2992 00cd 03       		.uleb128 0x3
 2993 00ce 0E       		.uleb128 0xe
 2994 00cf 3A       		.uleb128 0x3a
 2995 00d0 0B       		.uleb128 0xb
 2996 00d1 3B       		.uleb128 0x3b
 2997 00d2 0B       		.uleb128 0xb
 2998 00d3 49       		.uleb128 0x49
 2999 00d4 13       		.uleb128 0x13
 3000 00d5 02       		.uleb128 0x2
 3001 00d6 17       		.uleb128 0x17
 3002 00d7 00       		.byte	0
 3003 00d8 00       		.byte	0
 3004 00d9 11       		.uleb128 0x11
 3005 00da 898201   		.uleb128 0x4109
 3006 00dd 01       		.byte	0x1
 3007 00de 11       		.uleb128 0x11
 3008 00df 01       		.uleb128 0x1
 3009 00e0 31       		.uleb128 0x31
 3010 00e1 13       		.uleb128 0x13
 3011 00e2 01       		.uleb128 0x1
 3012 00e3 13       		.uleb128 0x13
 3013 00e4 00       		.byte	0
 3014 00e5 00       		.byte	0
 3015 00e6 12       		.uleb128 0x12
 3016 00e7 8A8201   		.uleb128 0x410a
 3017 00ea 00       		.byte	0
 3018 00eb 02       		.uleb128 0x2
 3019 00ec 18       		.uleb128 0x18
 3020 00ed 9142     		.uleb128 0x2111
 3021 00ef 18       		.uleb128 0x18
 3022 00f0 00       		.byte	0
 3023 00f1 00       		.byte	0
 3024 00f2 13       		.uleb128 0x13
 3025 00f3 898201   		.uleb128 0x4109
 3026 00f6 01       		.byte	0x1
 3027 00f7 11       		.uleb128 0x11
 3028 00f8 01       		.uleb128 0x1
 3029 00f9 9542     		.uleb128 0x2115
 3030 00fb 19       		.uleb128 0x19
 3031 00fc 31       		.uleb128 0x31
 3032 00fd 13       		.uleb128 0x13
 3033 00fe 01       		.uleb128 0x1
 3034 00ff 13       		.uleb128 0x13
 3035 0100 00       		.byte	0
 3036 0101 00       		.byte	0
 3037 0102 14       		.uleb128 0x14
 3038 0103 898201   		.uleb128 0x4109
 3039 0106 01       		.byte	0x1
 3040 0107 11       		.uleb128 0x11
 3041 0108 01       		.uleb128 0x1
 3042 0109 9542     		.uleb128 0x2115
 3043 010b 19       		.uleb128 0x19
ARM GAS  C:\Users\jsyoon\AppData\Local\Temp\ccYheA2D.s 			page 55


 3044 010c 31       		.uleb128 0x31
 3045 010d 13       		.uleb128 0x13
 3046 010e 00       		.byte	0
 3047 010f 00       		.byte	0
 3048 0110 15       		.uleb128 0x15
 3049 0111 0F       		.uleb128 0xf
 3050 0112 00       		.byte	0
 3051 0113 0B       		.uleb128 0xb
 3052 0114 0B       		.uleb128 0xb
 3053 0115 49       		.uleb128 0x49
 3054 0116 13       		.uleb128 0x13
 3055 0117 00       		.byte	0
 3056 0118 00       		.byte	0
 3057 0119 16       		.uleb128 0x16
 3058 011a 34       		.uleb128 0x34
 3059 011b 00       		.byte	0
 3060 011c 03       		.uleb128 0x3
 3061 011d 0E       		.uleb128 0xe
 3062 011e 3A       		.uleb128 0x3a
 3063 011f 0B       		.uleb128 0xb
 3064 0120 3B       		.uleb128 0x3b
 3065 0121 0B       		.uleb128 0xb
 3066 0122 49       		.uleb128 0x49
 3067 0123 13       		.uleb128 0x13
 3068 0124 02       		.uleb128 0x2
 3069 0125 17       		.uleb128 0x17
 3070 0126 00       		.byte	0
 3071 0127 00       		.byte	0
 3072 0128 17       		.uleb128 0x17
 3073 0129 34       		.uleb128 0x34
 3074 012a 00       		.byte	0
 3075 012b 03       		.uleb128 0x3
 3076 012c 0E       		.uleb128 0xe
 3077 012d 3A       		.uleb128 0x3a
 3078 012e 0B       		.uleb128 0xb
 3079 012f 3B       		.uleb128 0x3b
 3080 0130 0B       		.uleb128 0xb
 3081 0131 49       		.uleb128 0x49
 3082 0132 13       		.uleb128 0x13
 3083 0133 02       		.uleb128 0x2
 3084 0134 18       		.uleb128 0x18
 3085 0135 00       		.byte	0
 3086 0136 00       		.byte	0
 3087 0137 18       		.uleb128 0x18
 3088 0138 898201   		.uleb128 0x4109
 3089 013b 01       		.byte	0x1
 3090 013c 11       		.uleb128 0x11
 3091 013d 01       		.uleb128 0x1
 3092 013e 31       		.uleb128 0x31
 3093 013f 13       		.uleb128 0x13
 3094 0140 00       		.byte	0
 3095 0141 00       		.byte	0
 3096 0142 19       		.uleb128 0x19
 3097 0143 2E       		.uleb128 0x2e
 3098 0144 01       		.byte	0x1
 3099 0145 3F       		.uleb128 0x3f
 3100 0146 19       		.uleb128 0x19
ARM GAS  C:\Users\jsyoon\AppData\Local\Temp\ccYheA2D.s 			page 56


 3101 0147 03       		.uleb128 0x3
 3102 0148 0E       		.uleb128 0xe
 3103 0149 3A       		.uleb128 0x3a
 3104 014a 0B       		.uleb128 0xb
 3105 014b 3B       		.uleb128 0x3b
 3106 014c 05       		.uleb128 0x5
 3107 014d 27       		.uleb128 0x27
 3108 014e 19       		.uleb128 0x19
 3109 014f 11       		.uleb128 0x11
 3110 0150 01       		.uleb128 0x1
 3111 0151 12       		.uleb128 0x12
 3112 0152 06       		.uleb128 0x6
 3113 0153 40       		.uleb128 0x40
 3114 0154 18       		.uleb128 0x18
 3115 0155 9742     		.uleb128 0x2117
 3116 0157 19       		.uleb128 0x19
 3117 0158 01       		.uleb128 0x1
 3118 0159 13       		.uleb128 0x13
 3119 015a 00       		.byte	0
 3120 015b 00       		.byte	0
 3121 015c 1A       		.uleb128 0x1a
 3122 015d 05       		.uleb128 0x5
 3123 015e 00       		.byte	0
 3124 015f 03       		.uleb128 0x3
 3125 0160 0E       		.uleb128 0xe
 3126 0161 3A       		.uleb128 0x3a
 3127 0162 0B       		.uleb128 0xb
 3128 0163 3B       		.uleb128 0x3b
 3129 0164 05       		.uleb128 0x5
 3130 0165 49       		.uleb128 0x49
 3131 0166 13       		.uleb128 0x13
 3132 0167 02       		.uleb128 0x2
 3133 0168 18       		.uleb128 0x18
 3134 0169 00       		.byte	0
 3135 016a 00       		.byte	0
 3136 016b 1B       		.uleb128 0x1b
 3137 016c 05       		.uleb128 0x5
 3138 016d 00       		.byte	0
 3139 016e 03       		.uleb128 0x3
 3140 016f 0E       		.uleb128 0xe
 3141 0170 3A       		.uleb128 0x3a
 3142 0171 0B       		.uleb128 0xb
 3143 0172 3B       		.uleb128 0x3b
 3144 0173 05       		.uleb128 0x5
 3145 0174 49       		.uleb128 0x49
 3146 0175 13       		.uleb128 0x13
 3147 0176 02       		.uleb128 0x2
 3148 0177 17       		.uleb128 0x17
 3149 0178 00       		.byte	0
 3150 0179 00       		.byte	0
 3151 017a 1C       		.uleb128 0x1c
 3152 017b 34       		.uleb128 0x34
 3153 017c 00       		.byte	0
 3154 017d 03       		.uleb128 0x3
 3155 017e 0E       		.uleb128 0xe
 3156 017f 3A       		.uleb128 0x3a
 3157 0180 0B       		.uleb128 0xb
ARM GAS  C:\Users\jsyoon\AppData\Local\Temp\ccYheA2D.s 			page 57


 3158 0181 3B       		.uleb128 0x3b
 3159 0182 05       		.uleb128 0x5
 3160 0183 49       		.uleb128 0x49
 3161 0184 13       		.uleb128 0x13
 3162 0185 02       		.uleb128 0x2
 3163 0186 17       		.uleb128 0x17
 3164 0187 00       		.byte	0
 3165 0188 00       		.byte	0
 3166 0189 1D       		.uleb128 0x1d
 3167 018a 2E       		.uleb128 0x2e
 3168 018b 01       		.byte	0x1
 3169 018c 3F       		.uleb128 0x3f
 3170 018d 19       		.uleb128 0x19
 3171 018e 03       		.uleb128 0x3
 3172 018f 0E       		.uleb128 0xe
 3173 0190 3A       		.uleb128 0x3a
 3174 0191 0B       		.uleb128 0xb
 3175 0192 3B       		.uleb128 0x3b
 3176 0193 05       		.uleb128 0x5
 3177 0194 27       		.uleb128 0x27
 3178 0195 19       		.uleb128 0x19
 3179 0196 49       		.uleb128 0x49
 3180 0197 13       		.uleb128 0x13
 3181 0198 11       		.uleb128 0x11
 3182 0199 01       		.uleb128 0x1
 3183 019a 12       		.uleb128 0x12
 3184 019b 06       		.uleb128 0x6
 3185 019c 40       		.uleb128 0x40
 3186 019d 18       		.uleb128 0x18
 3187 019e 9742     		.uleb128 0x2117
 3188 01a0 19       		.uleb128 0x19
 3189 01a1 01       		.uleb128 0x1
 3190 01a2 13       		.uleb128 0x13
 3191 01a3 00       		.byte	0
 3192 01a4 00       		.byte	0
 3193 01a5 1E       		.uleb128 0x1e
 3194 01a6 34       		.uleb128 0x34
 3195 01a7 00       		.byte	0
 3196 01a8 03       		.uleb128 0x3
 3197 01a9 08       		.uleb128 0x8
 3198 01aa 3A       		.uleb128 0x3a
 3199 01ab 0B       		.uleb128 0xb
 3200 01ac 3B       		.uleb128 0x3b
 3201 01ad 05       		.uleb128 0x5
 3202 01ae 49       		.uleb128 0x49
 3203 01af 13       		.uleb128 0x13
 3204 01b0 02       		.uleb128 0x2
 3205 01b1 18       		.uleb128 0x18
 3206 01b2 00       		.byte	0
 3207 01b3 00       		.byte	0
 3208 01b4 1F       		.uleb128 0x1f
 3209 01b5 34       		.uleb128 0x34
 3210 01b6 00       		.byte	0
 3211 01b7 03       		.uleb128 0x3
 3212 01b8 0E       		.uleb128 0xe
 3213 01b9 3A       		.uleb128 0x3a
 3214 01ba 0B       		.uleb128 0xb
ARM GAS  C:\Users\jsyoon\AppData\Local\Temp\ccYheA2D.s 			page 58


 3215 01bb 3B       		.uleb128 0x3b
 3216 01bc 05       		.uleb128 0x5
 3217 01bd 49       		.uleb128 0x49
 3218 01be 13       		.uleb128 0x13
 3219 01bf 02       		.uleb128 0x2
 3220 01c0 18       		.uleb128 0x18
 3221 01c1 00       		.byte	0
 3222 01c2 00       		.byte	0
 3223 01c3 20       		.uleb128 0x20
 3224 01c4 34       		.uleb128 0x34
 3225 01c5 00       		.byte	0
 3226 01c6 03       		.uleb128 0x3
 3227 01c7 0E       		.uleb128 0xe
 3228 01c8 3A       		.uleb128 0x3a
 3229 01c9 0B       		.uleb128 0xb
 3230 01ca 3B       		.uleb128 0x3b
 3231 01cb 05       		.uleb128 0x5
 3232 01cc 49       		.uleb128 0x49
 3233 01cd 13       		.uleb128 0x13
 3234 01ce 3F       		.uleb128 0x3f
 3235 01cf 19       		.uleb128 0x19
 3236 01d0 3C       		.uleb128 0x3c
 3237 01d1 19       		.uleb128 0x19
 3238 01d2 00       		.byte	0
 3239 01d3 00       		.byte	0
 3240 01d4 21       		.uleb128 0x21
 3241 01d5 2E       		.uleb128 0x2e
 3242 01d6 01       		.byte	0x1
 3243 01d7 3F       		.uleb128 0x3f
 3244 01d8 19       		.uleb128 0x19
 3245 01d9 03       		.uleb128 0x3
 3246 01da 0E       		.uleb128 0xe
 3247 01db 3A       		.uleb128 0x3a
 3248 01dc 0B       		.uleb128 0xb
 3249 01dd 3B       		.uleb128 0x3b
 3250 01de 05       		.uleb128 0x5
 3251 01df 27       		.uleb128 0x27
 3252 01e0 19       		.uleb128 0x19
 3253 01e1 3C       		.uleb128 0x3c
 3254 01e2 19       		.uleb128 0x19
 3255 01e3 01       		.uleb128 0x1
 3256 01e4 13       		.uleb128 0x13
 3257 01e5 00       		.byte	0
 3258 01e6 00       		.byte	0
 3259 01e7 22       		.uleb128 0x22
 3260 01e8 05       		.uleb128 0x5
 3261 01e9 00       		.byte	0
 3262 01ea 49       		.uleb128 0x49
 3263 01eb 13       		.uleb128 0x13
 3264 01ec 00       		.byte	0
 3265 01ed 00       		.byte	0
 3266 01ee 00       		.byte	0
 3267              		.section	.debug_loc,"",%progbits
 3268              	.Ldebug_loc0:
 3269              	.LLST0:
 3270 0000 00000000 		.4byte	.LVL0
 3271 0004 1A000000 		.4byte	.LVL1
ARM GAS  C:\Users\jsyoon\AppData\Local\Temp\ccYheA2D.s 			page 59


 3272 0008 0100     		.2byte	0x1
 3273 000a 50       		.byte	0x50
 3274 000b 1A000000 		.4byte	.LVL1
 3275 000f 2E000000 		.4byte	.LVL3
 3276 0013 0400     		.2byte	0x4
 3277 0015 F3       		.byte	0xf3
 3278 0016 01       		.uleb128 0x1
 3279 0017 50       		.byte	0x50
 3280 0018 9F       		.byte	0x9f
 3281 0019 2E000000 		.4byte	.LVL3
 3282 001d 32000000 		.4byte	.LVL4
 3283 0021 0100     		.2byte	0x1
 3284 0023 50       		.byte	0x50
 3285 0024 32000000 		.4byte	.LVL4
 3286 0028 46000000 		.4byte	.LVL6
 3287 002c 0400     		.2byte	0x4
 3288 002e F3       		.byte	0xf3
 3289 002f 01       		.uleb128 0x1
 3290 0030 50       		.byte	0x50
 3291 0031 9F       		.byte	0x9f
 3292 0032 46000000 		.4byte	.LVL6
 3293 0036 4A000000 		.4byte	.LVL7
 3294 003a 0100     		.2byte	0x1
 3295 003c 50       		.byte	0x50
 3296 003d 4A000000 		.4byte	.LVL7
 3297 0041 6C000000 		.4byte	.LFE111
 3298 0045 0400     		.2byte	0x4
 3299 0047 F3       		.byte	0xf3
 3300 0048 01       		.uleb128 0x1
 3301 0049 50       		.byte	0x50
 3302 004a 9F       		.byte	0x9f
 3303 004b 00000000 		.4byte	0
 3304 004f 00000000 		.4byte	0
 3305              	.LLST1:
 3306 0053 00000000 		.4byte	.LVL10
 3307 0057 08000000 		.4byte	.LVL11
 3308 005b 0100     		.2byte	0x1
 3309 005d 50       		.byte	0x50
 3310 005e 08000000 		.4byte	.LVL11
 3311 0062 E0000000 		.4byte	.LFE112
 3312 0066 0100     		.2byte	0x1
 3313 0068 54       		.byte	0x54
 3314 0069 00000000 		.4byte	0
 3315 006d 00000000 		.4byte	0
 3316              	.LLST2:
 3317 0071 00000000 		.4byte	.LVL10
 3318 0075 0F000000 		.4byte	.LVL13-1
 3319 0079 0100     		.2byte	0x1
 3320 007b 51       		.byte	0x51
 3321 007c 0F000000 		.4byte	.LVL13-1
 3322 0080 E0000000 		.4byte	.LFE112
 3323 0084 0100     		.2byte	0x1
 3324 0086 55       		.byte	0x55
 3325 0087 00000000 		.4byte	0
 3326 008b 00000000 		.4byte	0
 3327              	.LLST3:
 3328 008f 00000000 		.4byte	.LVL10
ARM GAS  C:\Users\jsyoon\AppData\Local\Temp\ccYheA2D.s 			page 60


 3329 0093 0C000000 		.4byte	.LVL12
 3330 0097 0200     		.2byte	0x2
 3331 0099 30       		.byte	0x30
 3332 009a 9F       		.byte	0x9f
 3333 009b 0C000000 		.4byte	.LVL12
 3334 009f 22000000 		.4byte	.LVL14
 3335 00a3 0100     		.2byte	0x1
 3336 00a5 56       		.byte	0x56
 3337 00a6 28000000 		.4byte	.LVL15
 3338 00aa 3C000000 		.4byte	.LVL18
 3339 00ae 0100     		.2byte	0x1
 3340 00b0 56       		.byte	0x56
 3341 00b1 3C000000 		.4byte	.LVL18
 3342 00b5 50000000 		.4byte	.LVL20
 3343 00b9 0200     		.2byte	0x2
 3344 00bb 30       		.byte	0x30
 3345 00bc 9F       		.byte	0x9f
 3346 00bd 50000000 		.4byte	.LVL20
 3347 00c1 56000000 		.4byte	.LVL22
 3348 00c5 0100     		.2byte	0x1
 3349 00c7 53       		.byte	0x53
 3350 00c8 68000000 		.4byte	.LVL23
 3351 00cc 6C000000 		.4byte	.LVL24
 3352 00d0 0100     		.2byte	0x1
 3353 00d2 53       		.byte	0x53
 3354 00d3 76000000 		.4byte	.LVL25
 3355 00d7 78000000 		.4byte	.LVL26
 3356 00db 0100     		.2byte	0x1
 3357 00dd 53       		.byte	0x53
 3358 00de 7C000000 		.4byte	.LVL27
 3359 00e2 86000000 		.4byte	.LVL28
 3360 00e6 0100     		.2byte	0x1
 3361 00e8 53       		.byte	0x53
 3362 00e9 86000000 		.4byte	.LVL28
 3363 00ed C2000000 		.4byte	.LVL34
 3364 00f1 0200     		.2byte	0x2
 3365 00f3 30       		.byte	0x30
 3366 00f4 9F       		.byte	0x9f
 3367 00f5 C2000000 		.4byte	.LVL34
 3368 00f9 C6000000 		.4byte	.LVL35
 3369 00fd 0100     		.2byte	0x1
 3370 00ff 53       		.byte	0x53
 3371 0100 C6000000 		.4byte	.LVL35
 3372 0104 E0000000 		.4byte	.LFE112
 3373 0108 0200     		.2byte	0x2
 3374 010a 30       		.byte	0x30
 3375 010b 9F       		.byte	0x9f
 3376 010c 00000000 		.4byte	0
 3377 0110 00000000 		.4byte	0
 3378              	.LLST4:
 3379 0114 00000000 		.4byte	.LVL10
 3380 0118 2A000000 		.4byte	.LVL16
 3381 011c 0200     		.2byte	0x2
 3382 011e 30       		.byte	0x30
 3383 011f 9F       		.byte	0x9f
 3384 0120 2A000000 		.4byte	.LVL16
 3385 0124 52000000 		.4byte	.LVL21
ARM GAS  C:\Users\jsyoon\AppData\Local\Temp\ccYheA2D.s 			page 61


 3386 0128 0100     		.2byte	0x1
 3387 012a 50       		.byte	0x50
 3388 012b 52000000 		.4byte	.LVL21
 3389 012f 86000000 		.4byte	.LVL28
 3390 0133 1900     		.2byte	0x19
 3391 0135 91       		.byte	0x91
 3392 0136 60       		.sleb128 -32
 3393 0137 06       		.byte	0x6
 3394 0138 F7       		.byte	0xf7
 3395 0139 2C       		.uleb128 0x2c
 3396 013a F7       		.byte	0xf7
 3397 013b 25       		.uleb128 0x25
 3398 013c 0C       		.byte	0xc
 3399 013d 83DE1B43 		.4byte	0x431bde83
 3400 0141 F7       		.byte	0xf7
 3401 0142 25       		.uleb128 0x25
 3402 0143 1E       		.byte	0x1e
 3403 0144 08       		.byte	0x8
 3404 0145 20       		.byte	0x20
 3405 0146 F7       		.byte	0xf7
 3406 0147 25       		.uleb128 0x25
 3407 0148 25       		.byte	0x25
 3408 0149 F7       		.byte	0xf7
 3409 014a 2C       		.uleb128 0x2c
 3410 014b 42       		.byte	0x42
 3411 014c 25       		.byte	0x25
 3412 014d 9F       		.byte	0x9f
 3413 014e 86000000 		.4byte	.LVL28
 3414 0152 B6000000 		.4byte	.LVL33
 3415 0156 0100     		.2byte	0x1
 3416 0158 50       		.byte	0x50
 3417 0159 B6000000 		.4byte	.LVL33
 3418 015d C6000000 		.4byte	.LVL35
 3419 0161 0100     		.2byte	0x1
 3420 0163 57       		.byte	0x57
 3421 0164 C6000000 		.4byte	.LVL35
 3422 0168 E0000000 		.4byte	.LFE112
 3423 016c 0100     		.2byte	0x1
 3424 016e 50       		.byte	0x50
 3425 016f 00000000 		.4byte	0
 3426 0173 00000000 		.4byte	0
 3427              	.LLST5:
 3428 0177 00000000 		.4byte	.LVL10
 3429 017b 46000000 		.4byte	.LVL19
 3430 017f 0200     		.2byte	0x2
 3431 0181 34       		.byte	0x34
 3432 0182 9F       		.byte	0x9f
 3433 0183 46000000 		.4byte	.LVL19
 3434 0187 52000000 		.4byte	.LVL21
 3435 018b 0100     		.2byte	0x1
 3436 018d 53       		.byte	0x53
 3437 018e 86000000 		.4byte	.LVL28
 3438 0192 9E000000 		.4byte	.LVL29
 3439 0196 0200     		.2byte	0x2
 3440 0198 34       		.byte	0x34
 3441 0199 9F       		.byte	0x9f
 3442 019a 9E000000 		.4byte	.LVL29
ARM GAS  C:\Users\jsyoon\AppData\Local\Temp\ccYheA2D.s 			page 62


 3443 019e C2000000 		.4byte	.LVL34
 3444 01a2 0100     		.2byte	0x1
 3445 01a4 53       		.byte	0x53
 3446 01a5 C6000000 		.4byte	.LVL35
 3447 01a9 D0000000 		.4byte	.LVL36
 3448 01ad 0200     		.2byte	0x2
 3449 01af 34       		.byte	0x34
 3450 01b0 9F       		.byte	0x9f
 3451 01b1 D0000000 		.4byte	.LVL36
 3452 01b5 E0000000 		.4byte	.LFE112
 3453 01b9 0100     		.2byte	0x1
 3454 01bb 53       		.byte	0x53
 3455 01bc 00000000 		.4byte	0
 3456 01c0 00000000 		.4byte	0
 3457              	.LLST6:
 3458 01c4 00000000 		.4byte	.LVL10
 3459 01c8 28000000 		.4byte	.LVL15
 3460 01cc 0600     		.2byte	0x6
 3461 01ce 0C       		.byte	0xc
 3462 01cf 00127A00 		.4byte	0x7a1200
 3463 01d3 9F       		.byte	0x9f
 3464 01d4 28000000 		.4byte	.LVL15
 3465 01d8 52000000 		.4byte	.LVL21
 3466 01dc 0100     		.2byte	0x1
 3467 01de 51       		.byte	0x51
 3468 01df 52000000 		.4byte	.LVL21
 3469 01e3 86000000 		.4byte	.LVL28
 3470 01e7 0200     		.2byte	0x2
 3471 01e9 91       		.byte	0x91
 3472 01ea 60       		.sleb128 -32
 3473 01eb 86000000 		.4byte	.LVL28
 3474 01ef B0000000 		.4byte	.LVL32
 3475 01f3 0100     		.2byte	0x1
 3476 01f5 51       		.byte	0x51
 3477 01f6 B0000000 		.4byte	.LVL32
 3478 01fa C6000000 		.4byte	.LVL35
 3479 01fe 0200     		.2byte	0x2
 3480 0200 91       		.byte	0x91
 3481 0201 60       		.sleb128 -32
 3482 0202 C6000000 		.4byte	.LVL35
 3483 0206 E0000000 		.4byte	.LFE112
 3484 020a 0100     		.2byte	0x1
 3485 020c 51       		.byte	0x51
 3486 020d 00000000 		.4byte	0
 3487 0211 00000000 		.4byte	0
 3488              	.LLST7:
 3489 0215 00000000 		.4byte	.LVL41
 3490 0219 06000000 		.4byte	.LVL42
 3491 021d 0100     		.2byte	0x1
 3492 021f 51       		.byte	0x51
 3493 0220 06000000 		.4byte	.LVL42
 3494 0224 12000000 		.4byte	.LFE117
 3495 0228 0100     		.2byte	0x1
 3496 022a 51       		.byte	0x51
 3497 022b 00000000 		.4byte	0
 3498 022f 00000000 		.4byte	0
 3499              	.LLST8:
ARM GAS  C:\Users\jsyoon\AppData\Local\Temp\ccYheA2D.s 			page 63


 3500 0233 00000000 		.4byte	.LVL45
 3501 0237 08000000 		.4byte	.LVL47
 3502 023b 0100     		.2byte	0x1
 3503 023d 51       		.byte	0x51
 3504 023e 08000000 		.4byte	.LVL47
 3505 0242 12000000 		.4byte	.LFE119
 3506 0246 0400     		.2byte	0x4
 3507 0248 F3       		.byte	0xf3
 3508 0249 01       		.uleb128 0x1
 3509 024a 51       		.byte	0x51
 3510 024b 9F       		.byte	0x9f
 3511 024c 00000000 		.4byte	0
 3512 0250 00000000 		.4byte	0
 3513              	.LLST9:
 3514 0254 00000000 		.4byte	.LVL45
 3515 0258 04000000 		.4byte	.LVL46
 3516 025c 0200     		.2byte	0x2
 3517 025e 30       		.byte	0x30
 3518 025f 9F       		.byte	0x9f
 3519 0260 04000000 		.4byte	.LVL46
 3520 0264 0C000000 		.4byte	.LVL48
 3521 0268 0700     		.2byte	0x7
 3522 026a 73       		.byte	0x73
 3523 026b 00       		.sleb128 0
 3524 026c 0B       		.byte	0xb
 3525 026d 01FF     		.2byte	0xff01
 3526 026f 1A       		.byte	0x1a
 3527 0270 9F       		.byte	0x9f
 3528 0271 0E000000 		.4byte	.LVL49
 3529 0275 12000000 		.4byte	.LFE119
 3530 0279 0100     		.2byte	0x1
 3531 027b 51       		.byte	0x51
 3532 027c 00000000 		.4byte	0
 3533 0280 00000000 		.4byte	0
 3534              	.LLST10:
 3535 0284 00000000 		.4byte	.LVL59
 3536 0288 02000000 		.4byte	.LVL60
 3537 028c 0100     		.2byte	0x1
 3538 028e 50       		.byte	0x50
 3539 028f 02000000 		.4byte	.LVL60
 3540 0293 06000000 		.4byte	.LFE129
 3541 0297 0400     		.2byte	0x4
 3542 0299 F3       		.byte	0xf3
 3543 029a 01       		.uleb128 0x1
 3544 029b 50       		.byte	0x50
 3545 029c 9F       		.byte	0x9f
 3546 029d 00000000 		.4byte	0
 3547 02a1 00000000 		.4byte	0
 3548              	.LLST11:
 3549 02a5 00000000 		.4byte	.LVL64
 3550 02a9 02000000 		.4byte	.LVL65
 3551 02ad 0100     		.2byte	0x1
 3552 02af 50       		.byte	0x50
 3553 02b0 02000000 		.4byte	.LVL65
 3554 02b4 08000000 		.4byte	.LFE133
 3555 02b8 0400     		.2byte	0x4
 3556 02ba F3       		.byte	0xf3
ARM GAS  C:\Users\jsyoon\AppData\Local\Temp\ccYheA2D.s 			page 64


 3557 02bb 01       		.uleb128 0x1
 3558 02bc 50       		.byte	0x50
 3559 02bd 9F       		.byte	0x9f
 3560 02be 00000000 		.4byte	0
 3561 02c2 00000000 		.4byte	0
 3562              	.LLST12:
 3563 02c6 00000000 		.4byte	.LVL68
 3564 02ca 12000000 		.4byte	.LVL70
 3565 02ce 0100     		.2byte	0x1
 3566 02d0 50       		.byte	0x50
 3567 02d1 12000000 		.4byte	.LVL70
 3568 02d5 18000000 		.4byte	.LFE136
 3569 02d9 0400     		.2byte	0x4
 3570 02db F3       		.byte	0xf3
 3571 02dc 01       		.uleb128 0x1
 3572 02dd 50       		.byte	0x50
 3573 02de 9F       		.byte	0x9f
 3574 02df 00000000 		.4byte	0
 3575 02e3 00000000 		.4byte	0
 3576              	.LLST13:
 3577 02e7 00000000 		.4byte	.LVL68
 3578 02eb 0C000000 		.4byte	.LVL69
 3579 02ef 0100     		.2byte	0x1
 3580 02f1 51       		.byte	0x51
 3581 02f2 0C000000 		.4byte	.LVL69
 3582 02f6 18000000 		.4byte	.LFE136
 3583 02fa 0400     		.2byte	0x4
 3584 02fc F3       		.byte	0xf3
 3585 02fd 01       		.uleb128 0x1
 3586 02fe 51       		.byte	0x51
 3587 02ff 9F       		.byte	0x9f
 3588 0300 00000000 		.4byte	0
 3589 0304 00000000 		.4byte	0
 3590              	.LLST14:
 3591 0308 00000000 		.4byte	.LVL71
 3592 030c 0A000000 		.4byte	.LVL72
 3593 0310 0100     		.2byte	0x1
 3594 0312 51       		.byte	0x51
 3595 0313 0A000000 		.4byte	.LVL72
 3596 0317 0E000000 		.4byte	.LVL73
 3597 031b 0400     		.2byte	0x4
 3598 031d F3       		.byte	0xf3
 3599 031e 01       		.uleb128 0x1
 3600 031f 51       		.byte	0x51
 3601 0320 9F       		.byte	0x9f
 3602 0321 0E000000 		.4byte	.LVL73
 3603 0325 10000000 		.4byte	.LVL74
 3604 0329 0100     		.2byte	0x1
 3605 032b 51       		.byte	0x51
 3606 032c 10000000 		.4byte	.LVL74
 3607 0330 14000000 		.4byte	.LFE137
 3608 0334 0400     		.2byte	0x4
 3609 0336 F3       		.byte	0xf3
 3610 0337 01       		.uleb128 0x1
 3611 0338 51       		.byte	0x51
 3612 0339 9F       		.byte	0x9f
 3613 033a 00000000 		.4byte	0
ARM GAS  C:\Users\jsyoon\AppData\Local\Temp\ccYheA2D.s 			page 65


 3614 033e 00000000 		.4byte	0
 3615              	.LLST15:
 3616 0342 00000000 		.4byte	.LVL75
 3617 0346 06000000 		.4byte	.LVL76
 3618 034a 0100     		.2byte	0x1
 3619 034c 50       		.byte	0x50
 3620 034d 06000000 		.4byte	.LVL76
 3621 0351 18000000 		.4byte	.LFE138
 3622 0355 0400     		.2byte	0x4
 3623 0357 F3       		.byte	0xf3
 3624 0358 01       		.uleb128 0x1
 3625 0359 50       		.byte	0x50
 3626 035a 9F       		.byte	0x9f
 3627 035b 00000000 		.4byte	0
 3628 035f 00000000 		.4byte	0
 3629              	.LLST16:
 3630 0363 00000000 		.4byte	.LVL75
 3631 0367 06000000 		.4byte	.LVL76
 3632 036b 0200     		.2byte	0x2
 3633 036d 30       		.byte	0x30
 3634 036e 9F       		.byte	0x9f
 3635 036f 06000000 		.4byte	.LVL76
 3636 0373 0A000000 		.4byte	.LVL77
 3637 0377 1600     		.2byte	0x16
 3638 0379 73       		.byte	0x73
 3639 037a 00       		.sleb128 0
 3640 037b 0A       		.byte	0xa
 3641 037c FFFF     		.2byte	0xffff
 3642 037e 1A       		.byte	0x1a
 3643 037f 40       		.byte	0x40
 3644 0380 24       		.byte	0x24
 3645 0381 70       		.byte	0x70
 3646 0382 00       		.sleb128 0
 3647 0383 0A       		.byte	0xa
 3648 0384 FFFF     		.2byte	0xffff
 3649 0386 1A       		.byte	0x1a
 3650 0387 21       		.byte	0x21
 3651 0388 0C       		.byte	0xc
 3652 0389 FFFFFF00 		.4byte	0xffffff
 3653 038d 1A       		.byte	0x1a
 3654 038e 9F       		.byte	0x9f
 3655 038f 0A000000 		.4byte	.LVL77
 3656 0393 0E000000 		.4byte	.LVL78
 3657 0397 1600     		.2byte	0x16
 3658 0399 73       		.byte	0x73
 3659 039a 00       		.sleb128 0
 3660 039b 0A       		.byte	0xa
 3661 039c FFFF     		.2byte	0xffff
 3662 039e 1A       		.byte	0x1a
 3663 039f 40       		.byte	0x40
 3664 03a0 24       		.byte	0x24
 3665 03a1 72       		.byte	0x72
 3666 03a2 00       		.sleb128 0
 3667 03a3 0A       		.byte	0xa
 3668 03a4 FFFF     		.2byte	0xffff
 3669 03a6 1A       		.byte	0x1a
 3670 03a7 21       		.byte	0x21
ARM GAS  C:\Users\jsyoon\AppData\Local\Temp\ccYheA2D.s 			page 66


 3671 03a8 0C       		.byte	0xc
 3672 03a9 FFFFFF00 		.4byte	0xffffff
 3673 03ad 1A       		.byte	0x1a
 3674 03ae 9F       		.byte	0x9f
 3675 03af 00000000 		.4byte	0
 3676 03b3 00000000 		.4byte	0
 3677              	.LLST17:
 3678 03b7 00000000 		.4byte	.LVL75
 3679 03bb 06000000 		.4byte	.LVL76
 3680 03bf 0200     		.2byte	0x2
 3681 03c1 30       		.byte	0x30
 3682 03c2 9F       		.byte	0x9f
 3683 03c3 06000000 		.4byte	.LVL76
 3684 03c7 0A000000 		.4byte	.LVL77
 3685 03cb 0700     		.2byte	0x7
 3686 03cd 70       		.byte	0x70
 3687 03ce 00       		.sleb128 0
 3688 03cf 0A       		.byte	0xa
 3689 03d0 FFFF     		.2byte	0xffff
 3690 03d2 1A       		.byte	0x1a
 3691 03d3 9F       		.byte	0x9f
 3692 03d4 0A000000 		.4byte	.LVL77
 3693 03d8 18000000 		.4byte	.LFE138
 3694 03dc 0700     		.2byte	0x7
 3695 03de 72       		.byte	0x72
 3696 03df 00       		.sleb128 0
 3697 03e0 0A       		.byte	0xa
 3698 03e1 FFFF     		.2byte	0xffff
 3699 03e3 1A       		.byte	0x1a
 3700 03e4 9F       		.byte	0x9f
 3701 03e5 00000000 		.4byte	0
 3702 03e9 00000000 		.4byte	0
 3703              	.LLST18:
 3704 03ed 00000000 		.4byte	.LVL75
 3705 03f1 06000000 		.4byte	.LVL76
 3706 03f5 0200     		.2byte	0x2
 3707 03f7 30       		.byte	0x30
 3708 03f8 9F       		.byte	0x9f
 3709 03f9 06000000 		.4byte	.LVL76
 3710 03fd 0E000000 		.4byte	.LVL78
 3711 0401 0900     		.2byte	0x9
 3712 0403 73       		.byte	0x73
 3713 0404 00       		.sleb128 0
 3714 0405 0A       		.byte	0xa
 3715 0406 FFFF     		.2byte	0xffff
 3716 0408 1A       		.byte	0x1a
 3717 0409 40       		.byte	0x40
 3718 040a 24       		.byte	0x24
 3719 040b 9F       		.byte	0x9f
 3720 040c 00000000 		.4byte	0
 3721 0410 00000000 		.4byte	0
 3722              	.LLST19:
 3723 0414 00000000 		.4byte	.LVL75
 3724 0418 06000000 		.4byte	.LVL76
 3725 041c 0200     		.2byte	0x2
 3726 041e 30       		.byte	0x30
 3727 041f 9F       		.byte	0x9f
ARM GAS  C:\Users\jsyoon\AppData\Local\Temp\ccYheA2D.s 			page 67


 3728 0420 06000000 		.4byte	.LVL76
 3729 0424 0A000000 		.4byte	.LVL77
 3730 0428 1C00     		.2byte	0x1c
 3731 042a 71       		.byte	0x71
 3732 042b 00       		.sleb128 0
 3733 042c 73       		.byte	0x73
 3734 042d 00       		.sleb128 0
 3735 042e 0A       		.byte	0xa
 3736 042f FFFF     		.2byte	0xffff
 3737 0431 1A       		.byte	0x1a
 3738 0432 40       		.byte	0x40
 3739 0433 24       		.byte	0x24
 3740 0434 70       		.byte	0x70
 3741 0435 00       		.sleb128 0
 3742 0436 0A       		.byte	0xa
 3743 0437 FFFF     		.2byte	0xffff
 3744 0439 1A       		.byte	0x1a
 3745 043a 21       		.byte	0x21
 3746 043b 71       		.byte	0x71
 3747 043c 00       		.sleb128 0
 3748 043d 1A       		.byte	0x1a
 3749 043e 0C       		.byte	0xc
 3750 043f FFFFFF00 		.4byte	0xffffff
 3751 0443 1A       		.byte	0x1a
 3752 0444 29       		.byte	0x29
 3753 0445 9F       		.byte	0x9f
 3754 0446 0A000000 		.4byte	.LVL77
 3755 044a 0E000000 		.4byte	.LVL78
 3756 044e 1C00     		.2byte	0x1c
 3757 0450 71       		.byte	0x71
 3758 0451 00       		.sleb128 0
 3759 0452 73       		.byte	0x73
 3760 0453 00       		.sleb128 0
 3761 0454 0A       		.byte	0xa
 3762 0455 FFFF     		.2byte	0xffff
 3763 0457 1A       		.byte	0x1a
 3764 0458 40       		.byte	0x40
 3765 0459 24       		.byte	0x24
 3766 045a 72       		.byte	0x72
 3767 045b 00       		.sleb128 0
 3768 045c 0A       		.byte	0xa
 3769 045d FFFF     		.2byte	0xffff
 3770 045f 1A       		.byte	0x1a
 3771 0460 21       		.byte	0x21
 3772 0461 71       		.byte	0x71
 3773 0462 00       		.sleb128 0
 3774 0463 1A       		.byte	0x1a
 3775 0464 0C       		.byte	0xc
 3776 0465 FFFFFF00 		.4byte	0xffffff
 3777 0469 1A       		.byte	0x1a
 3778 046a 29       		.byte	0x29
 3779 046b 9F       		.byte	0x9f
 3780 046c 00000000 		.4byte	0
 3781 0470 00000000 		.4byte	0
 3782              	.LLST20:
 3783 0474 00000000 		.4byte	.LVL79
 3784 0478 06000000 		.4byte	.LVL80
ARM GAS  C:\Users\jsyoon\AppData\Local\Temp\ccYheA2D.s 			page 68


 3785 047c 0100     		.2byte	0x1
 3786 047e 50       		.byte	0x50
 3787 047f 06000000 		.4byte	.LVL80
 3788 0483 10000000 		.4byte	.LFE139
 3789 0487 0400     		.2byte	0x4
 3790 0489 F3       		.byte	0xf3
 3791 048a 01       		.uleb128 0x1
 3792 048b 50       		.byte	0x50
 3793 048c 9F       		.byte	0x9f
 3794 048d 00000000 		.4byte	0
 3795 0491 00000000 		.4byte	0
 3796              	.LLST21:
 3797 0495 00000000 		.4byte	.LVL79
 3798 0499 06000000 		.4byte	.LVL80
 3799 049d 0200     		.2byte	0x2
 3800 049f 30       		.byte	0x30
 3801 04a0 9F       		.byte	0x9f
 3802 04a1 06000000 		.4byte	.LVL80
 3803 04a5 0A000000 		.4byte	.LVL81
 3804 04a9 1600     		.2byte	0x16
 3805 04ab 73       		.byte	0x73
 3806 04ac 00       		.sleb128 0
 3807 04ad 0A       		.byte	0xa
 3808 04ae FFFF     		.2byte	0xffff
 3809 04b0 1A       		.byte	0x1a
 3810 04b1 40       		.byte	0x40
 3811 04b2 24       		.byte	0x24
 3812 04b3 70       		.byte	0x70
 3813 04b4 00       		.sleb128 0
 3814 04b5 0A       		.byte	0xa
 3815 04b6 FFFF     		.2byte	0xffff
 3816 04b8 1A       		.byte	0x1a
 3817 04b9 21       		.byte	0x21
 3818 04ba 0C       		.byte	0xc
 3819 04bb FFFFFF00 		.4byte	0xffffff
 3820 04bf 1A       		.byte	0x1a
 3821 04c0 9F       		.byte	0x9f
 3822 04c1 0A000000 		.4byte	.LVL81
 3823 04c5 10000000 		.4byte	.LFE139
 3824 04c9 1600     		.2byte	0x16
 3825 04cb 73       		.byte	0x73
 3826 04cc 00       		.sleb128 0
 3827 04cd 0A       		.byte	0xa
 3828 04ce FFFF     		.2byte	0xffff
 3829 04d0 1A       		.byte	0x1a
 3830 04d1 40       		.byte	0x40
 3831 04d2 24       		.byte	0x24
 3832 04d3 72       		.byte	0x72
 3833 04d4 00       		.sleb128 0
 3834 04d5 0A       		.byte	0xa
 3835 04d6 FFFF     		.2byte	0xffff
 3836 04d8 1A       		.byte	0x1a
 3837 04d9 21       		.byte	0x21
 3838 04da 0C       		.byte	0xc
 3839 04db FFFFFF00 		.4byte	0xffffff
 3840 04df 1A       		.byte	0x1a
 3841 04e0 9F       		.byte	0x9f
ARM GAS  C:\Users\jsyoon\AppData\Local\Temp\ccYheA2D.s 			page 69


 3842 04e1 00000000 		.4byte	0
 3843 04e5 00000000 		.4byte	0
 3844              	.LLST22:
 3845 04e9 00000000 		.4byte	.LVL79
 3846 04ed 06000000 		.4byte	.LVL80
 3847 04f1 0200     		.2byte	0x2
 3848 04f3 30       		.byte	0x30
 3849 04f4 9F       		.byte	0x9f
 3850 04f5 06000000 		.4byte	.LVL80
 3851 04f9 0A000000 		.4byte	.LVL81
 3852 04fd 0700     		.2byte	0x7
 3853 04ff 70       		.byte	0x70
 3854 0500 00       		.sleb128 0
 3855 0501 0A       		.byte	0xa
 3856 0502 FFFF     		.2byte	0xffff
 3857 0504 1A       		.byte	0x1a
 3858 0505 9F       		.byte	0x9f
 3859 0506 0A000000 		.4byte	.LVL81
 3860 050a 10000000 		.4byte	.LFE139
 3861 050e 0700     		.2byte	0x7
 3862 0510 72       		.byte	0x72
 3863 0511 00       		.sleb128 0
 3864 0512 0A       		.byte	0xa
 3865 0513 FFFF     		.2byte	0xffff
 3866 0515 1A       		.byte	0x1a
 3867 0516 9F       		.byte	0x9f
 3868 0517 00000000 		.4byte	0
 3869 051b 00000000 		.4byte	0
 3870              	.LLST23:
 3871 051f 00000000 		.4byte	.LVL79
 3872 0523 06000000 		.4byte	.LVL80
 3873 0527 0200     		.2byte	0x2
 3874 0529 30       		.byte	0x30
 3875 052a 9F       		.byte	0x9f
 3876 052b 06000000 		.4byte	.LVL80
 3877 052f 10000000 		.4byte	.LFE139
 3878 0533 0900     		.2byte	0x9
 3879 0535 73       		.byte	0x73
 3880 0536 00       		.sleb128 0
 3881 0537 0A       		.byte	0xa
 3882 0538 FFFF     		.2byte	0xffff
 3883 053a 1A       		.byte	0x1a
 3884 053b 40       		.byte	0x40
 3885 053c 24       		.byte	0x24
 3886 053d 9F       		.byte	0x9f
 3887 053e 00000000 		.4byte	0
 3888 0542 00000000 		.4byte	0
 3889              	.LLST24:
 3890 0546 00000000 		.4byte	.LVL82
 3891 054a 28000000 		.4byte	.LVL85
 3892 054e 0100     		.2byte	0x1
 3893 0550 50       		.byte	0x50
 3894 0551 28000000 		.4byte	.LVL85
 3895 0555 2C000000 		.4byte	.LVL86
 3896 0559 0400     		.2byte	0x4
 3897 055b F3       		.byte	0xf3
 3898 055c 01       		.uleb128 0x1
ARM GAS  C:\Users\jsyoon\AppData\Local\Temp\ccYheA2D.s 			page 70


 3899 055d 50       		.byte	0x50
 3900 055e 9F       		.byte	0x9f
 3901 055f 2C000000 		.4byte	.LVL86
 3902 0563 36000000 		.4byte	.LFE140
 3903 0567 0100     		.2byte	0x1
 3904 0569 50       		.byte	0x50
 3905 056a 00000000 		.4byte	0
 3906 056e 00000000 		.4byte	0
 3907              	.LLST25:
 3908 0572 00000000 		.4byte	.LVL82
 3909 0576 14000000 		.4byte	.LVL83
 3910 057a 0100     		.2byte	0x1
 3911 057c 51       		.byte	0x51
 3912 057d 14000000 		.4byte	.LVL83
 3913 0581 36000000 		.4byte	.LFE140
 3914 0585 0100     		.2byte	0x1
 3915 0587 51       		.byte	0x51
 3916 0588 00000000 		.4byte	0
 3917 058c 00000000 		.4byte	0
 3918              	.LLST26:
 3919 0590 00000000 		.4byte	.LVL82
 3920 0594 20000000 		.4byte	.LVL84
 3921 0598 0200     		.2byte	0x2
 3922 059a 30       		.byte	0x30
 3923 059b 9F       		.byte	0x9f
 3924 059c 20000000 		.4byte	.LVL84
 3925 05a0 2C000000 		.4byte	.LVL86
 3926 05a4 0800     		.2byte	0x8
 3927 05a6 71       		.byte	0x71
 3928 05a7 00       		.sleb128 0
 3929 05a8 73       		.byte	0x73
 3930 05a9 00       		.sleb128 0
 3931 05aa 1A       		.byte	0x1a
 3932 05ab 30       		.byte	0x30
 3933 05ac 2E       		.byte	0x2e
 3934 05ad 9F       		.byte	0x9f
 3935 05ae 2C000000 		.4byte	.LVL86
 3936 05b2 36000000 		.4byte	.LFE140
 3937 05b6 0200     		.2byte	0x2
 3938 05b8 30       		.byte	0x30
 3939 05b9 9F       		.byte	0x9f
 3940 05ba 00000000 		.4byte	0
 3941 05be 00000000 		.4byte	0
 3942              	.LLST27:
 3943 05c2 00000000 		.4byte	.LVL88
 3944 05c6 02000000 		.4byte	.LVL89
 3945 05ca 0100     		.2byte	0x1
 3946 05cc 51       		.byte	0x51
 3947 05cd 02000000 		.4byte	.LVL89
 3948 05d1 04000000 		.4byte	.LVL90
 3949 05d5 0400     		.2byte	0x4
 3950 05d7 71       		.byte	0x71
 3951 05d8 00       		.sleb128 0
 3952 05d9 20       		.byte	0x20
 3953 05da 9F       		.byte	0x9f
 3954 05db 04000000 		.4byte	.LVL90
 3955 05df 08000000 		.4byte	.LFE141
ARM GAS  C:\Users\jsyoon\AppData\Local\Temp\ccYheA2D.s 			page 71


 3956 05e3 0400     		.2byte	0x4
 3957 05e5 F3       		.byte	0xf3
 3958 05e6 01       		.uleb128 0x1
 3959 05e7 51       		.byte	0x51
 3960 05e8 9F       		.byte	0x9f
 3961 05e9 00000000 		.4byte	0
 3962 05ed 00000000 		.4byte	0
 3963              	.LLST28:
 3964 05f1 00000000 		.4byte	.LVL88
 3965 05f5 02000000 		.4byte	.LVL89
 3966 05f9 0900     		.2byte	0x9
 3967 05fb 71       		.byte	0x71
 3968 05fc 00       		.sleb128 0
 3969 05fd 0C       		.byte	0xc
 3970 05fe FFFFFF00 		.4byte	0xffffff
 3971 0602 1A       		.byte	0x1a
 3972 0603 9F       		.byte	0x9f
 3973 0604 02000000 		.4byte	.LVL89
 3974 0608 04000000 		.4byte	.LVL90
 3975 060c 0A00     		.2byte	0xa
 3976 060e 71       		.byte	0x71
 3977 060f 00       		.sleb128 0
 3978 0610 20       		.byte	0x20
 3979 0611 0C       		.byte	0xc
 3980 0612 FFFFFF00 		.4byte	0xffffff
 3981 0616 1A       		.byte	0x1a
 3982 0617 9F       		.byte	0x9f
 3983 0618 04000000 		.4byte	.LVL90
 3984 061c 08000000 		.4byte	.LFE141
 3985 0620 0A00     		.2byte	0xa
 3986 0622 F3       		.byte	0xf3
 3987 0623 01       		.uleb128 0x1
 3988 0624 51       		.byte	0x51
 3989 0625 0C       		.byte	0xc
 3990 0626 FFFFFF00 		.4byte	0xffffff
 3991 062a 1A       		.byte	0x1a
 3992 062b 9F       		.byte	0x9f
 3993 062c 00000000 		.4byte	0
 3994 0630 00000000 		.4byte	0
 3995              	.LLST29:
 3996 0634 00000000 		.4byte	.LVL91
 3997 0638 04000000 		.4byte	.LVL92
 3998 063c 0100     		.2byte	0x1
 3999 063e 50       		.byte	0x50
 4000 063f 04000000 		.4byte	.LVL92
 4001 0643 1C000000 		.4byte	.LFE142
 4002 0647 0400     		.2byte	0x4
 4003 0649 F3       		.byte	0xf3
 4004 064a 01       		.uleb128 0x1
 4005 064b 50       		.byte	0x50
 4006 064c 9F       		.byte	0x9f
 4007 064d 00000000 		.4byte	0
 4008 0651 00000000 		.4byte	0
 4009              	.LLST30:
 4010 0655 00000000 		.4byte	.LVL91
 4011 0659 0A000000 		.4byte	.LVL93
 4012 065d 0100     		.2byte	0x1
ARM GAS  C:\Users\jsyoon\AppData\Local\Temp\ccYheA2D.s 			page 72


 4013 065f 51       		.byte	0x51
 4014 0660 0A000000 		.4byte	.LVL93
 4015 0664 10000000 		.4byte	.LVL94
 4016 0668 0900     		.2byte	0x9
 4017 066a 71       		.byte	0x71
 4018 066b 00       		.sleb128 0
 4019 066c 0C       		.byte	0xc
 4020 066d FFFFFF00 		.4byte	0xffffff
 4021 0671 1A       		.byte	0x1a
 4022 0672 9F       		.byte	0x9f
 4023 0673 10000000 		.4byte	.LVL94
 4024 0677 1C000000 		.4byte	.LFE142
 4025 067b 0A00     		.2byte	0xa
 4026 067d F3       		.byte	0xf3
 4027 067e 01       		.uleb128 0x1
 4028 067f 51       		.byte	0x51
 4029 0680 0C       		.byte	0xc
 4030 0681 FFFFFF00 		.4byte	0xffffff
 4031 0685 1A       		.byte	0x1a
 4032 0686 9F       		.byte	0x9f
 4033 0687 00000000 		.4byte	0
 4034 068b 00000000 		.4byte	0
 4035              	.LLST31:
 4036 068f 00000000 		.4byte	.LVL91
 4037 0693 1A000000 		.4byte	.LVL96
 4038 0697 0200     		.2byte	0x2
 4039 0699 30       		.byte	0x30
 4040 069a 9F       		.byte	0x9f
 4041 069b 1A000000 		.4byte	.LVL96
 4042 069f 1C000000 		.4byte	.LFE142
 4043 06a3 0100     		.2byte	0x1
 4044 06a5 50       		.byte	0x50
 4045 06a6 00000000 		.4byte	0
 4046 06aa 00000000 		.4byte	0
 4047              	.LLST32:
 4048 06ae 00000000 		.4byte	.LVL91
 4049 06b2 0A000000 		.4byte	.LVL93
 4050 06b6 0200     		.2byte	0x2
 4051 06b8 30       		.byte	0x30
 4052 06b9 9F       		.byte	0x9f
 4053 06ba 0A000000 		.4byte	.LVL93
 4054 06be 10000000 		.4byte	.LVL94
 4055 06c2 1000     		.2byte	0x10
 4056 06c4 71       		.byte	0x71
 4057 06c5 00       		.sleb128 0
 4058 06c6 4C       		.byte	0x4c
 4059 06c7 46       		.byte	0x46
 4060 06c8 24       		.byte	0x24
 4061 06c9 1A       		.byte	0x1a
 4062 06ca 40       		.byte	0x40
 4063 06cb 25       		.byte	0x25
 4064 06cc 73       		.byte	0x73
 4065 06cd 00       		.sleb128 0
 4066 06ce 0A       		.byte	0xa
 4067 06cf FFFF     		.2byte	0xffff
 4068 06d1 1A       		.byte	0x1a
 4069 06d2 1A       		.byte	0x1a
ARM GAS  C:\Users\jsyoon\AppData\Local\Temp\ccYheA2D.s 			page 73


 4070 06d3 9F       		.byte	0x9f
 4071 06d4 10000000 		.4byte	.LVL94
 4072 06d8 14000000 		.4byte	.LVL95
 4073 06dc 0C00     		.2byte	0xc
 4074 06de 71       		.byte	0x71
 4075 06df 00       		.sleb128 0
 4076 06e0 40       		.byte	0x40
 4077 06e1 25       		.byte	0x25
 4078 06e2 73       		.byte	0x73
 4079 06e3 00       		.sleb128 0
 4080 06e4 0A       		.byte	0xa
 4081 06e5 FFFF     		.2byte	0xffff
 4082 06e7 1A       		.byte	0x1a
 4083 06e8 1A       		.byte	0x1a
 4084 06e9 9F       		.byte	0x9f
 4085 06ea 14000000 		.4byte	.LVL95
 4086 06ee 1C000000 		.4byte	.LFE142
 4087 06f2 1100     		.2byte	0x11
 4088 06f4 F3       		.byte	0xf3
 4089 06f5 01       		.uleb128 0x1
 4090 06f6 51       		.byte	0x51
 4091 06f7 4C       		.byte	0x4c
 4092 06f8 46       		.byte	0x46
 4093 06f9 24       		.byte	0x24
 4094 06fa 1A       		.byte	0x1a
 4095 06fb 40       		.byte	0x40
 4096 06fc 25       		.byte	0x25
 4097 06fd 73       		.byte	0x73
 4098 06fe 00       		.sleb128 0
 4099 06ff 0A       		.byte	0xa
 4100 0700 FFFF     		.2byte	0xffff
 4101 0702 1A       		.byte	0x1a
 4102 0703 1A       		.byte	0x1a
 4103 0704 9F       		.byte	0x9f
 4104 0705 00000000 		.4byte	0
 4105 0709 00000000 		.4byte	0
 4106              	.LLST33:
 4107 070d 00000000 		.4byte	.LVL97
 4108 0711 02000000 		.4byte	.LVL98
 4109 0715 0100     		.2byte	0x1
 4110 0717 51       		.byte	0x51
 4111 0718 02000000 		.4byte	.LVL98
 4112 071c 04000000 		.4byte	.LVL99
 4113 0720 0400     		.2byte	0x4
 4114 0722 71       		.byte	0x71
 4115 0723 00       		.sleb128 0
 4116 0724 20       		.byte	0x20
 4117 0725 9F       		.byte	0x9f
 4118 0726 04000000 		.4byte	.LVL99
 4119 072a 08000000 		.4byte	.LFE143
 4120 072e 0400     		.2byte	0x4
 4121 0730 F3       		.byte	0xf3
 4122 0731 01       		.uleb128 0x1
 4123 0732 51       		.byte	0x51
 4124 0733 9F       		.byte	0x9f
 4125 0734 00000000 		.4byte	0
 4126 0738 00000000 		.4byte	0
ARM GAS  C:\Users\jsyoon\AppData\Local\Temp\ccYheA2D.s 			page 74


 4127              	.LLST34:
 4128 073c 00000000 		.4byte	.LVL97
 4129 0740 02000000 		.4byte	.LVL98
 4130 0744 0900     		.2byte	0x9
 4131 0746 71       		.byte	0x71
 4132 0747 00       		.sleb128 0
 4133 0748 0C       		.byte	0xc
 4134 0749 FFFFFF00 		.4byte	0xffffff
 4135 074d 1A       		.byte	0x1a
 4136 074e 9F       		.byte	0x9f
 4137 074f 02000000 		.4byte	.LVL98
 4138 0753 04000000 		.4byte	.LVL99
 4139 0757 0A00     		.2byte	0xa
 4140 0759 71       		.byte	0x71
 4141 075a 00       		.sleb128 0
 4142 075b 20       		.byte	0x20
 4143 075c 0C       		.byte	0xc
 4144 075d FFFFFF00 		.4byte	0xffffff
 4145 0761 1A       		.byte	0x1a
 4146 0762 9F       		.byte	0x9f
 4147 0763 04000000 		.4byte	.LVL99
 4148 0767 08000000 		.4byte	.LFE143
 4149 076b 0A00     		.2byte	0xa
 4150 076d F3       		.byte	0xf3
 4151 076e 01       		.uleb128 0x1
 4152 076f 51       		.byte	0x51
 4153 0770 0C       		.byte	0xc
 4154 0771 FFFFFF00 		.4byte	0xffffff
 4155 0775 1A       		.byte	0x1a
 4156 0776 9F       		.byte	0x9f
 4157 0777 00000000 		.4byte	0
 4158 077b 00000000 		.4byte	0
 4159              		.section	.debug_aranges,"",%progbits
 4160 0000 1C010000 		.4byte	0x11c
 4161 0004 0200     		.2byte	0x2
 4162 0006 00000000 		.4byte	.Ldebug_info0
 4163 000a 04       		.byte	0x4
 4164 000b 00       		.byte	0
 4165 000c 0000     		.2byte	0
 4166 000e 0000     		.2byte	0
 4167 0010 00000000 		.4byte	.LFB111
 4168 0014 6C000000 		.4byte	.LFE111-.LFB111
 4169 0018 00000000 		.4byte	.LFB112
 4170 001c E0000000 		.4byte	.LFE112-.LFB112
 4171 0020 00000000 		.4byte	.LFB113
 4172 0024 22000000 		.4byte	.LFE113-.LFB113
 4173 0028 00000000 		.4byte	.LFB114
 4174 002c 1A000000 		.4byte	.LFE114-.LFB114
 4175 0030 00000000 		.4byte	.LFB115
 4176 0034 1A000000 		.4byte	.LFE115-.LFB115
 4177 0038 00000000 		.4byte	.LFB116
 4178 003c 1A000000 		.4byte	.LFE116-.LFB116
 4179 0040 00000000 		.4byte	.LFB117
 4180 0044 12000000 		.4byte	.LFE117-.LFB117
 4181 0048 00000000 		.4byte	.LFB118
 4182 004c 1A000000 		.4byte	.LFE118-.LFB118
 4183 0050 00000000 		.4byte	.LFB119
ARM GAS  C:\Users\jsyoon\AppData\Local\Temp\ccYheA2D.s 			page 75


 4184 0054 12000000 		.4byte	.LFE119-.LFB119
 4185 0058 00000000 		.4byte	.LFB120
 4186 005c 1A000000 		.4byte	.LFE120-.LFB120
 4187 0060 00000000 		.4byte	.LFB121
 4188 0064 1A000000 		.4byte	.LFE121-.LFB121
 4189 0068 00000000 		.4byte	.LFB122
 4190 006c 1A000000 		.4byte	.LFE122-.LFB122
 4191 0070 00000000 		.4byte	.LFB123
 4192 0074 1A000000 		.4byte	.LFE123-.LFB123
 4193 0078 00000000 		.4byte	.LFB124
 4194 007c 1E000000 		.4byte	.LFE124-.LFB124
 4195 0080 00000000 		.4byte	.LFB125
 4196 0084 1E000000 		.4byte	.LFE125-.LFB125
 4197 0088 00000000 		.4byte	.LFB126
 4198 008c 1E000000 		.4byte	.LFE126-.LFB126
 4199 0090 00000000 		.4byte	.LFB127
 4200 0094 1A000000 		.4byte	.LFE127-.LFB127
 4201 0098 00000000 		.4byte	.LFB128
 4202 009c 04000000 		.4byte	.LFE128-.LFB128
 4203 00a0 00000000 		.4byte	.LFB129
 4204 00a4 06000000 		.4byte	.LFE129-.LFB129
 4205 00a8 00000000 		.4byte	.LFB130
 4206 00ac 1A000000 		.4byte	.LFE130-.LFB130
 4207 00b0 00000000 		.4byte	.LFB131
 4208 00b4 1E000000 		.4byte	.LFE131-.LFB131
 4209 00b8 00000000 		.4byte	.LFB132
 4210 00bc 1A000000 		.4byte	.LFE132-.LFB132
 4211 00c0 00000000 		.4byte	.LFB133
 4212 00c4 08000000 		.4byte	.LFE133-.LFB133
 4213 00c8 00000000 		.4byte	.LFB134
 4214 00cc 1A000000 		.4byte	.LFE134-.LFB134
 4215 00d0 00000000 		.4byte	.LFB135
 4216 00d4 1A000000 		.4byte	.LFE135-.LFB135
 4217 00d8 00000000 		.4byte	.LFB136
 4218 00dc 18000000 		.4byte	.LFE136-.LFB136
 4219 00e0 00000000 		.4byte	.LFB137
 4220 00e4 14000000 		.4byte	.LFE137-.LFB137
 4221 00e8 00000000 		.4byte	.LFB138
 4222 00ec 18000000 		.4byte	.LFE138-.LFB138
 4223 00f0 00000000 		.4byte	.LFB139
 4224 00f4 10000000 		.4byte	.LFE139-.LFB139
 4225 00f8 00000000 		.4byte	.LFB140
 4226 00fc 36000000 		.4byte	.LFE140-.LFB140
 4227 0100 00000000 		.4byte	.LFB141
 4228 0104 08000000 		.4byte	.LFE141-.LFB141
 4229 0108 00000000 		.4byte	.LFB142
 4230 010c 1C000000 		.4byte	.LFE142-.LFB142
 4231 0110 00000000 		.4byte	.LFB143
 4232 0114 08000000 		.4byte	.LFE143-.LFB143
 4233 0118 00000000 		.4byte	0
 4234 011c 00000000 		.4byte	0
 4235              		.section	.debug_ranges,"",%progbits
 4236              	.Ldebug_ranges0:
 4237 0000 00000000 		.4byte	.LFB111
 4238 0004 6C000000 		.4byte	.LFE111
 4239 0008 00000000 		.4byte	.LFB112
 4240 000c E0000000 		.4byte	.LFE112
ARM GAS  C:\Users\jsyoon\AppData\Local\Temp\ccYheA2D.s 			page 76


 4241 0010 00000000 		.4byte	.LFB113
 4242 0014 22000000 		.4byte	.LFE113
 4243 0018 00000000 		.4byte	.LFB114
 4244 001c 1A000000 		.4byte	.LFE114
 4245 0020 00000000 		.4byte	.LFB115
 4246 0024 1A000000 		.4byte	.LFE115
 4247 0028 00000000 		.4byte	.LFB116
 4248 002c 1A000000 		.4byte	.LFE116
 4249 0030 00000000 		.4byte	.LFB117
 4250 0034 12000000 		.4byte	.LFE117
 4251 0038 00000000 		.4byte	.LFB118
 4252 003c 1A000000 		.4byte	.LFE118
 4253 0040 00000000 		.4byte	.LFB119
 4254 0044 12000000 		.4byte	.LFE119
 4255 0048 00000000 		.4byte	.LFB120
 4256 004c 1A000000 		.4byte	.LFE120
 4257 0050 00000000 		.4byte	.LFB121
 4258 0054 1A000000 		.4byte	.LFE121
 4259 0058 00000000 		.4byte	.LFB122
 4260 005c 1A000000 		.4byte	.LFE122
 4261 0060 00000000 		.4byte	.LFB123
 4262 0064 1A000000 		.4byte	.LFE123
 4263 0068 00000000 		.4byte	.LFB124
 4264 006c 1E000000 		.4byte	.LFE124
 4265 0070 00000000 		.4byte	.LFB125
 4266 0074 1E000000 		.4byte	.LFE125
 4267 0078 00000000 		.4byte	.LFB126
 4268 007c 1E000000 		.4byte	.LFE126
 4269 0080 00000000 		.4byte	.LFB127
 4270 0084 1A000000 		.4byte	.LFE127
 4271 0088 00000000 		.4byte	.LFB128
 4272 008c 04000000 		.4byte	.LFE128
 4273 0090 00000000 		.4byte	.LFB129
 4274 0094 06000000 		.4byte	.LFE129
 4275 0098 00000000 		.4byte	.LFB130
 4276 009c 1A000000 		.4byte	.LFE130
 4277 00a0 00000000 		.4byte	.LFB131
 4278 00a4 1E000000 		.4byte	.LFE131
 4279 00a8 00000000 		.4byte	.LFB132
 4280 00ac 1A000000 		.4byte	.LFE132
 4281 00b0 00000000 		.4byte	.LFB133
 4282 00b4 08000000 		.4byte	.LFE133
 4283 00b8 00000000 		.4byte	.LFB134
 4284 00bc 1A000000 		.4byte	.LFE134
 4285 00c0 00000000 		.4byte	.LFB135
 4286 00c4 1A000000 		.4byte	.LFE135
 4287 00c8 00000000 		.4byte	.LFB136
 4288 00cc 18000000 		.4byte	.LFE136
 4289 00d0 00000000 		.4byte	.LFB137
 4290 00d4 14000000 		.4byte	.LFE137
 4291 00d8 00000000 		.4byte	.LFB138
 4292 00dc 18000000 		.4byte	.LFE138
 4293 00e0 00000000 		.4byte	.LFB139
 4294 00e4 10000000 		.4byte	.LFE139
 4295 00e8 00000000 		.4byte	.LFB140
 4296 00ec 36000000 		.4byte	.LFE140
 4297 00f0 00000000 		.4byte	.LFB141
ARM GAS  C:\Users\jsyoon\AppData\Local\Temp\ccYheA2D.s 			page 77


 4298 00f4 08000000 		.4byte	.LFE141
 4299 00f8 00000000 		.4byte	.LFB142
 4300 00fc 1C000000 		.4byte	.LFE142
 4301 0100 00000000 		.4byte	.LFB143
 4302 0104 08000000 		.4byte	.LFE143
 4303 0108 00000000 		.4byte	0
 4304 010c 00000000 		.4byte	0
 4305              		.section	.debug_line,"",%progbits
 4306              	.Ldebug_line0:
 4307 0000 F3040000 		.section	.debug_str,"MS",%progbits,1
 4307      0200BD01 
 4307      00000201 
 4307      FB0E0D00 
 4307      01010101 
 4308              	.LASF113:
 4309 0000 4932435F 		.ascii	"I2C_ClearITPendingBit\000"
 4309      436C6561 
 4309      72495450 
 4309      656E6469 
 4309      6E674269 
 4310              	.LASF65:
 4311 0016 4E657753 		.ascii	"NewState\000"
 4311      74617465 
 4311      00
 4312              	.LASF66:
 4313 001f 4932435F 		.ascii	"I2C_GenerateSTART\000"
 4313      47656E65 
 4313      72617465 
 4313      53544152 
 4313      5400
 4314              	.LASF19:
 4315 0031 466C6167 		.ascii	"FlagStatus\000"
 4315      53746174 
 4315      757300
 4316              	.LASF90:
 4317 003c 4932435F 		.ascii	"I2C_GetPEC\000"
 4317      47657450 
 4317      454300
 4318              	.LASF76:
 4319 0047 4932435F 		.ascii	"I2C_StretchClockCmd\000"
 4319      53747265 
 4319      74636843 
 4319      6C6F636B 
 4319      436D6400 
 4320              	.LASF5:
 4321 005b 5F5F7569 		.ascii	"__uint8_t\000"
 4321      6E74385F 
 4321      7400
 4322              	.LASF94:
 4323 0065 4932435F 		.ascii	"I2C_Register\000"
 4323      52656769 
 4323      73746572 
 4323      00
 4324              	.LASF37:
 4325 0072 54524953 		.ascii	"TRISE\000"
 4325      4500
 4326              	.LASF114:
ARM GAS  C:\Users\jsyoon\AppData\Local\Temp\ccYheA2D.s 			page 78


 4327 0078 5243435F 		.ascii	"RCC_APB1PeriphResetCmd\000"
 4327      41504231 
 4327      50657269 
 4327      70685265 
 4327      73657443 
 4328              	.LASF95:
 4329 008f 4932435F 		.ascii	"I2C_ITConfig\000"
 4329      4954436F 
 4329      6E666967 
 4329      00
 4330              	.LASF21:
 4331 009c 44495341 		.ascii	"DISABLE\000"
 4331      424C4500 
 4332              	.LASF0:
 4333 00a4 6C6F6E67 		.ascii	"long long unsigned int\000"
 4333      206C6F6E 
 4333      6720756E 
 4333      7369676E 
 4333      65642069 
 4334              	.LASF119:
 4335 00bb 49544D5F 		.ascii	"ITM_RxBuffer\000"
 4335      52784275 
 4335      66666572 
 4335      00
 4336              	.LASF78:
 4337 00c8 4932435F 		.ascii	"I2C_NACKPositionConfig\000"
 4337      4E41434B 
 4337      506F7369 
 4337      74696F6E 
 4337      436F6E66 
 4338              	.LASF72:
 4339 00df 4932435F 		.ascii	"I2C_OwnAddress2Config\000"
 4339      4F776E41 
 4339      64647265 
 4339      73733243 
 4339      6F6E6669 
 4340              	.LASF57:
 4341 00f5 4932435F 		.ascii	"I2C_InitStruct\000"
 4341      496E6974 
 4341      53747275 
 4341      637400
 4342              	.LASF12:
 4343 0104 6C6F6E67 		.ascii	"long long int\000"
 4343      206C6F6E 
 4343      6720696E 
 4343      7400
 4344              	.LASF2:
 4345 0112 7369676E 		.ascii	"signed char\000"
 4345      65642063 
 4345      68617200 
 4346              	.LASF59:
 4347 011e 66726571 		.ascii	"freqrange\000"
 4347      72616E67 
 4347      6500
 4348              	.LASF83:
 4349 0128 4932435F 		.ascii	"I2C_SendData\000"
 4349      53656E64 
ARM GAS  C:\Users\jsyoon\AppData\Local\Temp\ccYheA2D.s 			page 79


 4349      44617461 
 4349      00
 4350              	.LASF88:
 4351 0135 4932435F 		.ascii	"I2C_CalculatePEC\000"
 4351      43616C63 
 4351      756C6174 
 4351      65504543 
 4351      00
 4352              	.LASF45:
 4353 0146 50434C4B 		.ascii	"PCLK2_Frequency\000"
 4353      325F4672 
 4353      65717565 
 4353      6E637900 
 4354              	.LASF118:
 4355 0156 453A5C4D 		.ascii	"E:\\Maker\\BLDC\\test_eval\\try2\\OROCA-BLDC_R15080"
 4355      616B6572 
 4355      5C424C44 
 4355      435C7465 
 4355      73745F65 
 4356 0184 3700     		.ascii	"7\000"
 4357              	.LASF47:
 4358 0186 4932435F 		.ascii	"I2C_ClockSpeed\000"
 4358      436C6F63 
 4358      6B537065 
 4358      656400
 4359              	.LASF48:
 4360 0195 4932435F 		.ascii	"I2C_Mode\000"
 4360      4D6F6465 
 4360      00
 4361              	.LASF63:
 4362 019e 4932435F 		.ascii	"I2C_StructInit\000"
 4362      53747275 
 4362      6374496E 
 4362      697400
 4363              	.LASF116:
 4364 01ad 474E5520 		.ascii	"GNU C 4.8.4 20140526 (release) [ARM/embedded-4_8-br"
 4364      4320342E 
 4364      382E3420 
 4364      32303134 
 4364      30353236 
 4365 01e0 616E6368 		.ascii	"anch revision 211358] -mcpu=cortex-m4 -mfloat-abi=h"
 4365      20726576 
 4365      6973696F 
 4365      6E203231 
 4365      31333538 
 4366 0213 61726420 		.ascii	"ard -mfpu=fpv4-sp-d16 -mno-thumb-interwork -mthumb "
 4366      2D6D6670 
 4366      753D6670 
 4366      76342D73 
 4366      702D6431 
 4367 0246 2D676764 		.ascii	"-ggdb -O2 -std=gnu99 -fomit-frame-pointer -falign-f"
 4367      62202D4F 
 4367      32202D73 
 4367      74643D67 
 4367      6E753939 
 4368 0279 756E6374 		.ascii	"unctions=16 -ffunction-sections -fdata-sections -fn"
 4368      696F6E73 
ARM GAS  C:\Users\jsyoon\AppData\Local\Temp\ccYheA2D.s 			page 80


 4368      3D313620 
 4368      2D666675 
 4368      6E637469 
 4369 02ac 6F2D636F 		.ascii	"o-common -fsingle-precision-constant\000"
 4369      6D6D6F6E 
 4369      202D6673 
 4369      696E676C 
 4369      652D7072 
 4370              	.LASF22:
 4371 02d1 454E4142 		.ascii	"ENABLE\000"
 4371      4C4500
 4372              	.LASF14:
 4373 02d8 75696E74 		.ascii	"uint16_t\000"
 4373      31365F74 
 4373      00
 4374              	.LASF29:
 4375 02e1 4F415231 		.ascii	"OAR1\000"
 4375      00
 4376              	.LASF39:
 4377 02e6 464C5452 		.ascii	"FLTR\000"
 4377      00
 4378              	.LASF92:
 4379 02eb 4932435F 		.ascii	"I2C_DMALastTransferCmd\000"
 4379      444D414C 
 4379      61737454 
 4379      72616E73 
 4379      66657243 
 4380              	.LASF10:
 4381 0302 5F5F7569 		.ascii	"__uint32_t\000"
 4381      6E743332 
 4381      5F7400
 4382              	.LASF26:
 4383 030d 4572726F 		.ascii	"ErrorStatus\000"
 4383      72537461 
 4383      74757300 
 4384              	.LASF24:
 4385 0319 4552524F 		.ascii	"ERROR\000"
 4385      5200
 4386              	.LASF80:
 4387 031f 4932435F 		.ascii	"I2C_SMBusAlertConfig\000"
 4387      534D4275 
 4387      73416C65 
 4387      7274436F 
 4387      6E666967 
 4388              	.LASF106:
 4389 0334 62697473 		.ascii	"bitstatus\000"
 4389      74617475 
 4389      7300
 4390              	.LASF43:
 4391 033e 48434C4B 		.ascii	"HCLK_Frequency\000"
 4391      5F467265 
 4391      7175656E 
 4391      637900
 4392              	.LASF20:
 4393 034d 49545374 		.ascii	"ITStatus\000"
 4393      61747573 
 4393      00
ARM GAS  C:\Users\jsyoon\AppData\Local\Temp\ccYheA2D.s 			page 81


 4394              	.LASF1:
 4395 0356 756E7369 		.ascii	"unsigned int\000"
 4395      676E6564 
 4395      20696E74 
 4395      00
 4396              	.LASF11:
 4397 0363 6C6F6E67 		.ascii	"long unsigned int\000"
 4397      20756E73 
 4397      69676E65 
 4397      6420696E 
 4397      7400
 4398              	.LASF86:
 4399 0375 4932435F 		.ascii	"I2C_PECPositionConfig\000"
 4399      50454350 
 4399      6F736974 
 4399      696F6E43 
 4399      6F6E6669 
 4400              	.LASF110:
 4401 038b 666C6167 		.ascii	"flagpos\000"
 4401      706F7300 
 4402              	.LASF55:
 4403 0393 4932435F 		.ascii	"I2C_Init\000"
 4403      496E6974 
 4403      00
 4404              	.LASF82:
 4405 039c 4932435F 		.ascii	"I2C_ARPCmd\000"
 4405      41525043 
 4405      6D6400
 4406              	.LASF49:
 4407 03a7 4932435F 		.ascii	"I2C_DutyCycle\000"
 4407      44757479 
 4407      4379636C 
 4407      6500
 4408              	.LASF107:
 4409 03b5 69326372 		.ascii	"i2creg\000"
 4409      656700
 4410              	.LASF85:
 4411 03bc 4932435F 		.ascii	"I2C_TransmitPEC\000"
 4411      5472616E 
 4411      736D6974 
 4411      50454300 
 4412              	.LASF81:
 4413 03cc 4932435F 		.ascii	"I2C_SMBusAlert\000"
 4413      534D4275 
 4413      73416C65 
 4413      727400
 4414              	.LASF69:
 4415 03db 41646472 		.ascii	"Address\000"
 4415      65737300 
 4416              	.LASF56:
 4417 03e3 49324378 		.ascii	"I2Cx\000"
 4417      00
 4418              	.LASF70:
 4419 03e8 4932435F 		.ascii	"I2C_Direction\000"
 4419      44697265 
 4419      6374696F 
 4419      6E00
ARM GAS  C:\Users\jsyoon\AppData\Local\Temp\ccYheA2D.s 			page 82


 4420              	.LASF79:
 4421 03f6 4932435F 		.ascii	"I2C_NACKPosition\000"
 4421      4E41434B 
 4421      506F7369 
 4421      74696F6E 
 4421      00
 4422              	.LASF18:
 4423 0407 52455345 		.ascii	"RESET\000"
 4423      5400
 4424              	.LASF103:
 4425 040d 4932435F 		.ascii	"I2C_GetLastEvent\000"
 4425      4765744C 
 4425      61737445 
 4425      76656E74 
 4425      00
 4426              	.LASF17:
 4427 041e 73697A65 		.ascii	"sizetype\000"
 4427      74797065 
 4427      00
 4428              	.LASF105:
 4429 0427 4932435F 		.ascii	"I2C_FLAG\000"
 4429      464C4147 
 4429      00
 4430              	.LASF54:
 4431 0430 4932435F 		.ascii	"I2C_DeInit\000"
 4431      4465496E 
 4431      697400
 4432              	.LASF74:
 4433 043b 4932435F 		.ascii	"I2C_GeneralCallCmd\000"
 4433      47656E65 
 4433      72616C43 
 4433      616C6C43 
 4433      6D6400
 4434              	.LASF84:
 4435 044e 44617461 		.ascii	"Data\000"
 4435      00
 4436              	.LASF23:
 4437 0453 46756E63 		.ascii	"FunctionalState\000"
 4437      74696F6E 
 4437      616C5374 
 4437      61746500 
 4438              	.LASF97:
 4439 0463 4932435F 		.ascii	"I2C_CheckEvent\000"
 4439      43686563 
 4439      6B457665 
 4439      6E7400
 4440              	.LASF91:
 4441 0472 4932435F 		.ascii	"I2C_DMACmd\000"
 4441      444D4143 
 4441      6D6400
 4442              	.LASF53:
 4443 047d 4932435F 		.ascii	"I2C_InitTypeDef\000"
 4443      496E6974 
 4443      54797065 
 4443      44656600 
 4444              	.LASF96:
 4445 048d 4932435F 		.ascii	"I2C_IT\000"
ARM GAS  C:\Users\jsyoon\AppData\Local\Temp\ccYheA2D.s 			page 83


 4445      495400
 4446              	.LASF61:
 4447 0494 70636C6B 		.ascii	"pclk1\000"
 4447      3100
 4448              	.LASF64:
 4449 049a 4932435F 		.ascii	"I2C_Cmd\000"
 4449      436D6400 
 4450              	.LASF27:
 4451 04a2 52455345 		.ascii	"RESERVED0\000"
 4451      52564544 
 4451      3000
 4452              	.LASF28:
 4453 04ac 52455345 		.ascii	"RESERVED1\000"
 4453      52564544 
 4453      3100
 4454              	.LASF30:
 4455 04b6 52455345 		.ascii	"RESERVED2\000"
 4455      52564544 
 4455      3200
 4456              	.LASF32:
 4457 04c0 52455345 		.ascii	"RESERVED3\000"
 4457      52564544 
 4457      3300
 4458              	.LASF33:
 4459 04ca 52455345 		.ascii	"RESERVED4\000"
 4459      52564544 
 4459      3400
 4460              	.LASF34:
 4461 04d4 52455345 		.ascii	"RESERVED5\000"
 4461      52564544 
 4461      3500
 4462              	.LASF35:
 4463 04de 52455345 		.ascii	"RESERVED6\000"
 4463      52564544 
 4463      3600
 4464              	.LASF36:
 4465 04e8 52455345 		.ascii	"RESERVED7\000"
 4465      52564544 
 4465      3700
 4466              	.LASF38:
 4467 04f2 52455345 		.ascii	"RESERVED8\000"
 4467      52564544 
 4467      3800
 4468              	.LASF40:
 4469 04fc 52455345 		.ascii	"RESERVED9\000"
 4469      52564544 
 4469      3900
 4470              	.LASF50:
 4471 0506 4932435F 		.ascii	"I2C_OwnAddress1\000"
 4471      4F776E41 
 4471      64647265 
 4471      73733100 
 4472              	.LASF62:
 4473 0516 7263635F 		.ascii	"rcc_clocks\000"
 4473      636C6F63 
 4473      6B7300
 4474              	.LASF15:
ARM GAS  C:\Users\jsyoon\AppData\Local\Temp\ccYheA2D.s 			page 84


 4475 0521 696E7433 		.ascii	"int32_t\000"
 4475      325F7400 
 4476              	.LASF3:
 4477 0529 756E7369 		.ascii	"unsigned char\000"
 4477      676E6564 
 4477      20636861 
 4477      7200
 4478              	.LASF51:
 4479 0537 4932435F 		.ascii	"I2C_Ack\000"
 4479      41636B00 
 4480              	.LASF4:
 4481 053f 73686F72 		.ascii	"short int\000"
 4481      7420696E 
 4481      7400
 4482              	.LASF98:
 4483 0549 4932435F 		.ascii	"I2C_EVENT\000"
 4483      4556454E 
 4483      5400
 4484              	.LASF42:
 4485 0553 53595343 		.ascii	"SYSCLK_Frequency\000"
 4485      4C4B5F46 
 4485      72657175 
 4485      656E6379 
 4485      00
 4486              	.LASF89:
 4487 0564 4932435F 		.ascii	"I2C_ReceiveData\000"
 4487      52656365 
 4487      69766544 
 4487      61746100 
 4488              	.LASF109:
 4489 0574 4932435F 		.ascii	"I2C_ClearFlag\000"
 4489      436C6561 
 4489      72466C61 
 4489      6700
 4490              	.LASF52:
 4491 0582 4932435F 		.ascii	"I2C_AcknowledgedAddress\000"
 4491      41636B6E 
 4491      6F776C65 
 4491      64676564 
 4491      41646472 
 4492              	.LASF93:
 4493 059a 4932435F 		.ascii	"I2C_ReadRegister\000"
 4493      52656164 
 4493      52656769 
 4493      73746572 
 4493      00
 4494              	.LASF16:
 4495 05ab 75696E74 		.ascii	"uint32_t\000"
 4495      33325F74 
 4495      00
 4496              	.LASF44:
 4497 05b4 50434C4B 		.ascii	"PCLK1_Frequency\000"
 4497      315F4672 
 4497      65717565 
 4497      6E637900 
 4498              	.LASF77:
 4499 05c4 4932435F 		.ascii	"I2C_FastModeDutyCycleConfig\000"
ARM GAS  C:\Users\jsyoon\AppData\Local\Temp\ccYheA2D.s 			page 85


 4499      46617374 
 4499      4D6F6465 
 4499      44757479 
 4499      4379636C 
 4500              	.LASF115:
 4501 05e0 5243435F 		.ascii	"RCC_GetClocksFreq\000"
 4501      47657443 
 4501      6C6F636B 
 4501      73467265 
 4501      7100
 4502              	.LASF117:
 4503 05f2 43686962 		.ascii	"ChibiOS_2.6.6/ext/stdperiph_stm32f4/src/stm32f4xx_i"
 4503      694F535F 
 4503      322E362E 
 4503      362F6578 
 4503      742F7374 
 4504 0625 32632E63 		.ascii	"2c.c\000"
 4504      00
 4505              	.LASF73:
 4506 062a 4932435F 		.ascii	"I2C_DualAddressCmd\000"
 4506      4475616C 
 4506      41646472 
 4506      65737343 
 4506      6D6400
 4507              	.LASF6:
 4508 063d 5F5F7569 		.ascii	"__uint16_t\000"
 4508      6E743136 
 4508      5F7400
 4509              	.LASF100:
 4510 0648 666C6167 		.ascii	"flag1\000"
 4510      3100
 4511              	.LASF101:
 4512 064e 666C6167 		.ascii	"flag2\000"
 4512      3200
 4513              	.LASF112:
 4514 0654 656E6162 		.ascii	"enablestatus\000"
 4514      6C657374 
 4514      61747573 
 4514      00
 4515              	.LASF8:
 4516 0661 5F5F696E 		.ascii	"__int32_t\000"
 4516      7433325F 
 4516      7400
 4517              	.LASF71:
 4518 066b 4932435F 		.ascii	"I2C_AcknowledgeConfig\000"
 4518      41636B6E 
 4518      6F776C65 
 4518      64676543 
 4518      6F6E6669 
 4519              	.LASF7:
 4520 0681 73686F72 		.ascii	"short unsigned int\000"
 4520      7420756E 
 4520      7369676E 
 4520      65642069 
 4520      6E7400
 4521              	.LASF87:
 4522 0694 4932435F 		.ascii	"I2C_PECPosition\000"
ARM GAS  C:\Users\jsyoon\AppData\Local\Temp\ccYheA2D.s 			page 86


 4522      50454350 
 4522      6F736974 
 4522      696F6E00 
 4523              	.LASF104:
 4524 06a4 4932435F 		.ascii	"I2C_GetFlagStatus\000"
 4524      47657446 
 4524      6C616753 
 4524      74617475 
 4524      7300
 4525              	.LASF99:
 4526 06b6 6C617374 		.ascii	"lastevent\000"
 4526      6576656E 
 4526      7400
 4527              	.LASF102:
 4528 06c0 73746174 		.ascii	"status\000"
 4528      757300
 4529              	.LASF75:
 4530 06c7 4932435F 		.ascii	"I2C_SoftwareResetCmd\000"
 4530      536F6674 
 4530      77617265 
 4530      52657365 
 4530      74436D64 
 4531              	.LASF13:
 4532 06dc 75696E74 		.ascii	"uint8_t\000"
 4532      385F7400 
 4533              	.LASF68:
 4534 06e4 4932435F 		.ascii	"I2C_Send7bitAddress\000"
 4534      53656E64 
 4534      37626974 
 4534      41646472 
 4534      65737300 
 4535              	.LASF25:
 4536 06f8 53554343 		.ascii	"SUCCESS\000"
 4536      45535300 
 4537              	.LASF108:
 4538 0700 69326378 		.ascii	"i2cxbase\000"
 4538      62617365 
 4538      00
 4539              	.LASF31:
 4540 0709 4F415232 		.ascii	"OAR2\000"
 4540      00
 4541              	.LASF67:
 4542 070e 4932435F 		.ascii	"I2C_GenerateSTOP\000"
 4542      47656E65 
 4542      72617465 
 4542      53544F50 
 4542      00
 4543              	.LASF46:
 4544 071f 5243435F 		.ascii	"RCC_ClocksTypeDef\000"
 4544      436C6F63 
 4544      6B735479 
 4544      70654465 
 4544      6600
 4545              	.LASF111:
 4546 0731 4932435F 		.ascii	"I2C_GetITStatus\000"
 4546      47657449 
 4546      54537461 
ARM GAS  C:\Users\jsyoon\AppData\Local\Temp\ccYheA2D.s 			page 87


 4546      74757300 
 4547              	.LASF9:
 4548 0741 6C6F6E67 		.ascii	"long int\000"
 4548      20696E74 
 4548      00
 4549              	.LASF41:
 4550 074a 4932435F 		.ascii	"I2C_TypeDef\000"
 4550      54797065 
 4550      44656600 
 4551              	.LASF58:
 4552 0756 746D7072 		.ascii	"tmpreg\000"
 4552      656700
 4553              	.LASF60:
 4554 075d 72657375 		.ascii	"result\000"
 4554      6C7400
 4555              		.ident	"GCC: (GNU Tools for ARM Embedded Processors) 4.8.4 20140526 (release) [ARM/embedded-4_8-br
ARM GAS  C:\Users\jsyoon\AppData\Local\Temp\ccYheA2D.s 			page 88


DEFINED SYMBOLS
                            *ABS*:00000000 stm32f4xx_i2c.c
C:\Users\jsyoon\AppData\Local\Temp\ccYheA2D.s:21     .text.I2C_DeInit:00000000 $t
C:\Users\jsyoon\AppData\Local\Temp\ccYheA2D.s:27     .text.I2C_DeInit:00000000 I2C_DeInit
C:\Users\jsyoon\AppData\Local\Temp\ccYheA2D.s:100    .text.I2C_DeInit:00000060 $d
C:\Users\jsyoon\AppData\Local\Temp\ccYheA2D.s:107    .text.I2C_Init:00000000 $t
C:\Users\jsyoon\AppData\Local\Temp\ccYheA2D.s:113    .text.I2C_Init:00000000 I2C_Init
C:\Users\jsyoon\AppData\Local\Temp\ccYheA2D.s:292    .text.I2C_Init:000000d4 $d
C:\Users\jsyoon\AppData\Local\Temp\ccYheA2D.s:299    .text.I2C_StructInit:00000000 $t
C:\Users\jsyoon\AppData\Local\Temp\ccYheA2D.s:305    .text.I2C_StructInit:00000000 I2C_StructInit
C:\Users\jsyoon\AppData\Local\Temp\ccYheA2D.s:344    .text.I2C_Cmd:00000000 $t
C:\Users\jsyoon\AppData\Local\Temp\ccYheA2D.s:350    .text.I2C_Cmd:00000000 I2C_Cmd
C:\Users\jsyoon\AppData\Local\Temp\ccYheA2D.s:378    .text.I2C_GenerateSTART:00000000 $t
C:\Users\jsyoon\AppData\Local\Temp\ccYheA2D.s:384    .text.I2C_GenerateSTART:00000000 I2C_GenerateSTART
C:\Users\jsyoon\AppData\Local\Temp\ccYheA2D.s:412    .text.I2C_GenerateSTOP:00000000 $t
C:\Users\jsyoon\AppData\Local\Temp\ccYheA2D.s:418    .text.I2C_GenerateSTOP:00000000 I2C_GenerateSTOP
C:\Users\jsyoon\AppData\Local\Temp\ccYheA2D.s:446    .text.I2C_Send7bitAddress:00000000 $t
C:\Users\jsyoon\AppData\Local\Temp\ccYheA2D.s:452    .text.I2C_Send7bitAddress:00000000 I2C_Send7bitAddress
C:\Users\jsyoon\AppData\Local\Temp\ccYheA2D.s:479    .text.I2C_AcknowledgeConfig:00000000 $t
C:\Users\jsyoon\AppData\Local\Temp\ccYheA2D.s:485    .text.I2C_AcknowledgeConfig:00000000 I2C_AcknowledgeConfig
C:\Users\jsyoon\AppData\Local\Temp\ccYheA2D.s:513    .text.I2C_OwnAddress2Config:00000000 $t
C:\Users\jsyoon\AppData\Local\Temp\ccYheA2D.s:519    .text.I2C_OwnAddress2Config:00000000 I2C_OwnAddress2Config
C:\Users\jsyoon\AppData\Local\Temp\ccYheA2D.s:547    .text.I2C_DualAddressCmd:00000000 $t
C:\Users\jsyoon\AppData\Local\Temp\ccYheA2D.s:553    .text.I2C_DualAddressCmd:00000000 I2C_DualAddressCmd
C:\Users\jsyoon\AppData\Local\Temp\ccYheA2D.s:581    .text.I2C_GeneralCallCmd:00000000 $t
C:\Users\jsyoon\AppData\Local\Temp\ccYheA2D.s:587    .text.I2C_GeneralCallCmd:00000000 I2C_GeneralCallCmd
C:\Users\jsyoon\AppData\Local\Temp\ccYheA2D.s:615    .text.I2C_SoftwareResetCmd:00000000 $t
C:\Users\jsyoon\AppData\Local\Temp\ccYheA2D.s:621    .text.I2C_SoftwareResetCmd:00000000 I2C_SoftwareResetCmd
C:\Users\jsyoon\AppData\Local\Temp\ccYheA2D.s:648    .text.I2C_StretchClockCmd:00000000 $t
C:\Users\jsyoon\AppData\Local\Temp\ccYheA2D.s:654    .text.I2C_StretchClockCmd:00000000 I2C_StretchClockCmd
C:\Users\jsyoon\AppData\Local\Temp\ccYheA2D.s:682    .text.I2C_FastModeDutyCycleConfig:00000000 $t
C:\Users\jsyoon\AppData\Local\Temp\ccYheA2D.s:688    .text.I2C_FastModeDutyCycleConfig:00000000 I2C_FastModeDutyCycleConfig
C:\Users\jsyoon\AppData\Local\Temp\ccYheA2D.s:718    .text.I2C_NACKPositionConfig:00000000 $t
C:\Users\jsyoon\AppData\Local\Temp\ccYheA2D.s:724    .text.I2C_NACKPositionConfig:00000000 I2C_NACKPositionConfig
C:\Users\jsyoon\AppData\Local\Temp\ccYheA2D.s:754    .text.I2C_SMBusAlertConfig:00000000 $t
C:\Users\jsyoon\AppData\Local\Temp\ccYheA2D.s:760    .text.I2C_SMBusAlertConfig:00000000 I2C_SMBusAlertConfig
C:\Users\jsyoon\AppData\Local\Temp\ccYheA2D.s:790    .text.I2C_ARPCmd:00000000 $t
C:\Users\jsyoon\AppData\Local\Temp\ccYheA2D.s:796    .text.I2C_ARPCmd:00000000 I2C_ARPCmd
C:\Users\jsyoon\AppData\Local\Temp\ccYheA2D.s:824    .text.I2C_SendData:00000000 $t
C:\Users\jsyoon\AppData\Local\Temp\ccYheA2D.s:830    .text.I2C_SendData:00000000 I2C_SendData
C:\Users\jsyoon\AppData\Local\Temp\ccYheA2D.s:845    .text.I2C_ReceiveData:00000000 $t
C:\Users\jsyoon\AppData\Local\Temp\ccYheA2D.s:851    .text.I2C_ReceiveData:00000000 I2C_ReceiveData
C:\Users\jsyoon\AppData\Local\Temp\ccYheA2D.s:869    .text.I2C_TransmitPEC:00000000 $t
C:\Users\jsyoon\AppData\Local\Temp\ccYheA2D.s:875    .text.I2C_TransmitPEC:00000000 I2C_TransmitPEC
C:\Users\jsyoon\AppData\Local\Temp\ccYheA2D.s:903    .text.I2C_PECPositionConfig:00000000 $t
C:\Users\jsyoon\AppData\Local\Temp\ccYheA2D.s:909    .text.I2C_PECPositionConfig:00000000 I2C_PECPositionConfig
C:\Users\jsyoon\AppData\Local\Temp\ccYheA2D.s:939    .text.I2C_CalculatePEC:00000000 $t
C:\Users\jsyoon\AppData\Local\Temp\ccYheA2D.s:945    .text.I2C_CalculatePEC:00000000 I2C_CalculatePEC
C:\Users\jsyoon\AppData\Local\Temp\ccYheA2D.s:973    .text.I2C_GetPEC:00000000 $t
C:\Users\jsyoon\AppData\Local\Temp\ccYheA2D.s:979    .text.I2C_GetPEC:00000000 I2C_GetPEC
C:\Users\jsyoon\AppData\Local\Temp\ccYheA2D.s:997    .text.I2C_DMACmd:00000000 $t
C:\Users\jsyoon\AppData\Local\Temp\ccYheA2D.s:1003   .text.I2C_DMACmd:00000000 I2C_DMACmd
C:\Users\jsyoon\AppData\Local\Temp\ccYheA2D.s:1031   .text.I2C_DMALastTransferCmd:00000000 $t
C:\Users\jsyoon\AppData\Local\Temp\ccYheA2D.s:1037   .text.I2C_DMALastTransferCmd:00000000 I2C_DMALastTransferCmd
C:\Users\jsyoon\AppData\Local\Temp\ccYheA2D.s:1065   .text.I2C_ReadRegister:00000000 $t
C:\Users\jsyoon\AppData\Local\Temp\ccYheA2D.s:1071   .text.I2C_ReadRegister:00000000 I2C_ReadRegister
C:\Users\jsyoon\AppData\Local\Temp\ccYheA2D.s:1104   .text.I2C_ITConfig:00000000 $t
ARM GAS  C:\Users\jsyoon\AppData\Local\Temp\ccYheA2D.s 			page 89


C:\Users\jsyoon\AppData\Local\Temp\ccYheA2D.s:1110   .text.I2C_ITConfig:00000000 I2C_ITConfig
C:\Users\jsyoon\AppData\Local\Temp\ccYheA2D.s:1139   .text.I2C_CheckEvent:00000000 $t
C:\Users\jsyoon\AppData\Local\Temp\ccYheA2D.s:1145   .text.I2C_CheckEvent:00000000 I2C_CheckEvent
C:\Users\jsyoon\AppData\Local\Temp\ccYheA2D.s:1176   .text.I2C_GetLastEvent:00000000 $t
C:\Users\jsyoon\AppData\Local\Temp\ccYheA2D.s:1182   .text.I2C_GetLastEvent:00000000 I2C_GetLastEvent
C:\Users\jsyoon\AppData\Local\Temp\ccYheA2D.s:1207   .text.I2C_GetFlagStatus:00000000 $t
C:\Users\jsyoon\AppData\Local\Temp\ccYheA2D.s:1213   .text.I2C_GetFlagStatus:00000000 I2C_GetFlagStatus
C:\Users\jsyoon\AppData\Local\Temp\ccYheA2D.s:1274   .text.I2C_ClearFlag:00000000 $t
C:\Users\jsyoon\AppData\Local\Temp\ccYheA2D.s:1280   .text.I2C_ClearFlag:00000000 I2C_ClearFlag
C:\Users\jsyoon\AppData\Local\Temp\ccYheA2D.s:1299   .text.I2C_GetITStatus:00000000 $t
C:\Users\jsyoon\AppData\Local\Temp\ccYheA2D.s:1305   .text.I2C_GetITStatus:00000000 I2C_GetITStatus
C:\Users\jsyoon\AppData\Local\Temp\ccYheA2D.s:1343   .text.I2C_ClearITPendingBit:00000000 $t
C:\Users\jsyoon\AppData\Local\Temp\ccYheA2D.s:1349   .text.I2C_ClearITPendingBit:00000000 I2C_ClearITPendingBit
                     .debug_frame:00000010 $d
C:\Users\jsyoon\AppData\Local\Temp\ccYheA2D.s:106    .text.I2C_DeInit:0000006c $t

UNDEFINED SYMBOLS
RCC_APB1PeriphResetCmd
RCC_GetClocksFreq
