ARM GAS  C:\Users\jsyoon\AppData\Local\Temp\cc0LyeEE.s 			page 1


   1              		.syntax unified
   2              		.cpu cortex-m4
   3              		.eabi_attribute 27, 3
   4              		.eabi_attribute 28, 1
   5              		.fpu fpv4-sp-d16
   6              		.eabi_attribute 20, 1
   7              		.eabi_attribute 21, 1
   8              		.eabi_attribute 23, 3
   9              		.eabi_attribute 24, 1
  10              		.eabi_attribute 25, 1
  11              		.eabi_attribute 26, 1
  12              		.eabi_attribute 30, 2
  13              		.eabi_attribute 34, 1
  14              		.eabi_attribute 18, 4
  15              		.thumb
  16              		.file	"stm32_dma.c"
  17              		.text
  18              	.Ltext0:
  19              		.cfi_sections	.debug_frame
  20              		.section	.text.Vector6C,"ax",%progbits
  21              		.align	2
  22              		.p2align 4,,15
  23              		.global	Vector6C
  24              		.thumb
  25              		.thumb_func
  26              		.type	Vector6C, %function
  27              	Vector6C:
  28              	.LFB118:
  29              		.file 1 "ChibiOS_2.6.6/os/hal/platforms/STM32F4xx/stm32_dma.c"
  30              		.loc 1 128 0
  31              		.cfi_startproc
  32              		@ args = 0, pretend = 0, frame = 0
  33              		@ frame_needed = 0, uses_anonymous_args = 0
  34 0000 08B5     		push	{r3, lr}
  35              		.cfi_def_cfa_offset 8
  36              		.cfi_offset 3, -8
  37              		.cfi_offset 14, -4
  38              		.loc 1 133 0
  39 0002 074B     		ldr	r3, .L7
  40              		.loc 1 135 0
  41 0004 074A     		ldr	r2, .L7+4
  42              		.loc 1 133 0
  43 0006 1968     		ldr	r1, [r3]
  44 0008 01F03D01 		and	r1, r1, #61
  45              	.LVL0:
  46              		.loc 1 134 0
  47 000c 9960     		str	r1, [r3, #8]
  48              		.loc 1 135 0
  49 000e 1368     		ldr	r3, [r2]
  50 0010 0BB1     		cbz	r3, .L2
  51              		.loc 1 136 0
  52 0012 5068     		ldr	r0, [r2, #4]
  53 0014 9847     		blx	r3
  54              	.LVL1:
  55              	.L2:
  56              		.loc 1 139 0
  57 0016 BDE80840 		pop	{r3, lr}
ARM GAS  C:\Users\jsyoon\AppData\Local\Temp\cc0LyeEE.s 			page 2


  58              		.loc 1 138 0
  59 001a FFF7FEBF 		b	_port_irq_epilogue
  60              	.LVL2:
  61              	.L8:
  62 001e 00BF     		.align	2
  63              	.L7:
  64 0020 00600240 		.word	1073897472
  65 0024 00000000 		.word	.LANCHOR0
  66              		.cfi_endproc
  67              	.LFE118:
  68              		.size	Vector6C, .-Vector6C
  69 0028 AFF30080 		.section	.text.Vector70,"ax",%progbits
  69      AFF30080 
  70              		.align	2
  71              		.p2align 4,,15
  72              		.global	Vector70
  73              		.thumb
  74              		.thumb_func
  75              		.type	Vector70, %function
  76              	Vector70:
  77              	.LFB119:
  78              		.loc 1 146 0
  79              		.cfi_startproc
  80              		@ args = 0, pretend = 0, frame = 0
  81              		@ frame_needed = 0, uses_anonymous_args = 0
  82              		.loc 1 151 0
  83 0000 084B     		ldr	r3, .L14
  84              		.loc 1 153 0
  85 0002 0948     		ldr	r0, .L14+4
  86              		.loc 1 151 0
  87 0004 1968     		ldr	r1, [r3]
  88              		.loc 1 153 0
  89 0006 8268     		ldr	r2, [r0, #8]
  90              		.loc 1 151 0
  91 0008 8909     		lsrs	r1, r1, #6
  92 000a 01F03D01 		and	r1, r1, #61
  93              	.LVL3:
  94              		.loc 1 146 0
  95 000e 10B5     		push	{r4, lr}
  96              		.cfi_def_cfa_offset 8
  97              		.cfi_offset 4, -8
  98              		.cfi_offset 14, -4
  99              		.loc 1 152 0
 100 0010 8C01     		lsls	r4, r1, #6
 101 0012 9C60     		str	r4, [r3, #8]
 102              		.loc 1 153 0
 103 0014 0AB1     		cbz	r2, .L10
 104              		.loc 1 154 0
 105 0016 C068     		ldr	r0, [r0, #12]
 106 0018 9047     		blx	r2
 107              	.LVL4:
 108              	.L10:
 109              		.loc 1 157 0
 110 001a BDE81040 		pop	{r4, lr}
 111              		.loc 1 156 0
 112 001e FFF7FEBF 		b	_port_irq_epilogue
 113              	.LVL5:
ARM GAS  C:\Users\jsyoon\AppData\Local\Temp\cc0LyeEE.s 			page 3


 114              	.L15:
 115 0022 00BF     		.align	2
 116              	.L14:
 117 0024 00600240 		.word	1073897472
 118 0028 00000000 		.word	.LANCHOR0
 119              		.cfi_endproc
 120              	.LFE119:
 121              		.size	Vector70, .-Vector70
 122 002c AFF30080 		.section	.text.Vector74,"ax",%progbits
 123              		.align	2
 124              		.p2align 4,,15
 125              		.global	Vector74
 126              		.thumb
 127              		.thumb_func
 128              		.type	Vector74, %function
 129              	Vector74:
 130              	.LFB120:
 131              		.loc 1 164 0
 132              		.cfi_startproc
 133              		@ args = 0, pretend = 0, frame = 0
 134              		@ frame_needed = 0, uses_anonymous_args = 0
 135              		.loc 1 169 0
 136 0000 084B     		ldr	r3, .L21
 137              		.loc 1 171 0
 138 0002 0948     		ldr	r0, .L21+4
 139              		.loc 1 169 0
 140 0004 1968     		ldr	r1, [r3]
 141              		.loc 1 171 0
 142 0006 0269     		ldr	r2, [r0, #16]
 143              		.loc 1 169 0
 144 0008 090C     		lsrs	r1, r1, #16
 145 000a 01F03D01 		and	r1, r1, #61
 146              	.LVL6:
 147              		.loc 1 164 0
 148 000e 10B5     		push	{r4, lr}
 149              		.cfi_def_cfa_offset 8
 150              		.cfi_offset 4, -8
 151              		.cfi_offset 14, -4
 152              		.loc 1 170 0
 153 0010 0C04     		lsls	r4, r1, #16
 154 0012 9C60     		str	r4, [r3, #8]
 155              		.loc 1 171 0
 156 0014 0AB1     		cbz	r2, .L17
 157              		.loc 1 172 0
 158 0016 4069     		ldr	r0, [r0, #20]
 159 0018 9047     		blx	r2
 160              	.LVL7:
 161              	.L17:
 162              		.loc 1 175 0
 163 001a BDE81040 		pop	{r4, lr}
 164              		.loc 1 174 0
 165 001e FFF7FEBF 		b	_port_irq_epilogue
 166              	.LVL8:
 167              	.L22:
 168 0022 00BF     		.align	2
 169              	.L21:
 170 0024 00600240 		.word	1073897472
ARM GAS  C:\Users\jsyoon\AppData\Local\Temp\cc0LyeEE.s 			page 4


 171 0028 00000000 		.word	.LANCHOR0
 172              		.cfi_endproc
 173              	.LFE120:
 174              		.size	Vector74, .-Vector74
 175 002c AFF30080 		.section	.text.Vector78,"ax",%progbits
 176              		.align	2
 177              		.p2align 4,,15
 178              		.global	Vector78
 179              		.thumb
 180              		.thumb_func
 181              		.type	Vector78, %function
 182              	Vector78:
 183              	.LFB121:
 184              		.loc 1 182 0
 185              		.cfi_startproc
 186              		@ args = 0, pretend = 0, frame = 0
 187              		@ frame_needed = 0, uses_anonymous_args = 0
 188              		.loc 1 187 0
 189 0000 084B     		ldr	r3, .L28
 190              		.loc 1 189 0
 191 0002 0948     		ldr	r0, .L28+4
 192              		.loc 1 187 0
 193 0004 1968     		ldr	r1, [r3]
 194              		.loc 1 189 0
 195 0006 8269     		ldr	r2, [r0, #24]
 196              		.loc 1 187 0
 197 0008 890D     		lsrs	r1, r1, #22
 198 000a 01F03D01 		and	r1, r1, #61
 199              	.LVL9:
 200              		.loc 1 182 0
 201 000e 10B5     		push	{r4, lr}
 202              		.cfi_def_cfa_offset 8
 203              		.cfi_offset 4, -8
 204              		.cfi_offset 14, -4
 205              		.loc 1 188 0
 206 0010 8C05     		lsls	r4, r1, #22
 207 0012 9C60     		str	r4, [r3, #8]
 208              		.loc 1 189 0
 209 0014 0AB1     		cbz	r2, .L24
 210              		.loc 1 190 0
 211 0016 C069     		ldr	r0, [r0, #28]
 212 0018 9047     		blx	r2
 213              	.LVL10:
 214              	.L24:
 215              		.loc 1 193 0
 216 001a BDE81040 		pop	{r4, lr}
 217              		.loc 1 192 0
 218 001e FFF7FEBF 		b	_port_irq_epilogue
 219              	.LVL11:
 220              	.L29:
 221 0022 00BF     		.align	2
 222              	.L28:
 223 0024 00600240 		.word	1073897472
 224 0028 00000000 		.word	.LANCHOR0
 225              		.cfi_endproc
 226              	.LFE121:
 227              		.size	Vector78, .-Vector78
ARM GAS  C:\Users\jsyoon\AppData\Local\Temp\cc0LyeEE.s 			page 5


 228 002c AFF30080 		.section	.text.Vector7C,"ax",%progbits
 229              		.align	2
 230              		.p2align 4,,15
 231              		.global	Vector7C
 232              		.thumb
 233              		.thumb_func
 234              		.type	Vector7C, %function
 235              	Vector7C:
 236              	.LFB122:
 237              		.loc 1 200 0
 238              		.cfi_startproc
 239              		@ args = 0, pretend = 0, frame = 0
 240              		@ frame_needed = 0, uses_anonymous_args = 0
 241 0000 08B5     		push	{r3, lr}
 242              		.cfi_def_cfa_offset 8
 243              		.cfi_offset 3, -8
 244              		.cfi_offset 14, -4
 245              		.loc 1 205 0
 246 0002 074B     		ldr	r3, .L35
 247              		.loc 1 207 0
 248 0004 0748     		ldr	r0, .L35+4
 249              		.loc 1 205 0
 250 0006 5968     		ldr	r1, [r3, #4]
 251              		.loc 1 207 0
 252 0008 026A     		ldr	r2, [r0, #32]
 253              		.loc 1 205 0
 254 000a 01F03D01 		and	r1, r1, #61
 255              	.LVL12:
 256              		.loc 1 206 0
 257 000e D960     		str	r1, [r3, #12]
 258              		.loc 1 207 0
 259 0010 0AB1     		cbz	r2, .L31
 260              		.loc 1 208 0
 261 0012 406A     		ldr	r0, [r0, #36]
 262 0014 9047     		blx	r2
 263              	.LVL13:
 264              	.L31:
 265              		.loc 1 211 0
 266 0016 BDE80840 		pop	{r3, lr}
 267              		.loc 1 210 0
 268 001a FFF7FEBF 		b	_port_irq_epilogue
 269              	.LVL14:
 270              	.L36:
 271 001e 00BF     		.align	2
 272              	.L35:
 273 0020 00600240 		.word	1073897472
 274 0024 00000000 		.word	.LANCHOR0
 275              		.cfi_endproc
 276              	.LFE122:
 277              		.size	Vector7C, .-Vector7C
 278 0028 AFF30080 		.section	.text.Vector80,"ax",%progbits
 278      AFF30080 
 279              		.align	2
 280              		.p2align 4,,15
 281              		.global	Vector80
 282              		.thumb
 283              		.thumb_func
ARM GAS  C:\Users\jsyoon\AppData\Local\Temp\cc0LyeEE.s 			page 6


 284              		.type	Vector80, %function
 285              	Vector80:
 286              	.LFB123:
 287              		.loc 1 218 0
 288              		.cfi_startproc
 289              		@ args = 0, pretend = 0, frame = 0
 290              		@ frame_needed = 0, uses_anonymous_args = 0
 291              		.loc 1 223 0
 292 0000 084B     		ldr	r3, .L42
 293              		.loc 1 225 0
 294 0002 0948     		ldr	r0, .L42+4
 295              		.loc 1 223 0
 296 0004 5968     		ldr	r1, [r3, #4]
 297              		.loc 1 225 0
 298 0006 826A     		ldr	r2, [r0, #40]
 299              		.loc 1 223 0
 300 0008 8909     		lsrs	r1, r1, #6
 301 000a 01F03D01 		and	r1, r1, #61
 302              	.LVL15:
 303              		.loc 1 218 0
 304 000e 10B5     		push	{r4, lr}
 305              		.cfi_def_cfa_offset 8
 306              		.cfi_offset 4, -8
 307              		.cfi_offset 14, -4
 308              		.loc 1 224 0
 309 0010 8C01     		lsls	r4, r1, #6
 310 0012 DC60     		str	r4, [r3, #12]
 311              		.loc 1 225 0
 312 0014 0AB1     		cbz	r2, .L38
 313              		.loc 1 226 0
 314 0016 C06A     		ldr	r0, [r0, #44]
 315 0018 9047     		blx	r2
 316              	.LVL16:
 317              	.L38:
 318              		.loc 1 229 0
 319 001a BDE81040 		pop	{r4, lr}
 320              		.loc 1 228 0
 321 001e FFF7FEBF 		b	_port_irq_epilogue
 322              	.LVL17:
 323              	.L43:
 324 0022 00BF     		.align	2
 325              	.L42:
 326 0024 00600240 		.word	1073897472
 327 0028 00000000 		.word	.LANCHOR0
 328              		.cfi_endproc
 329              	.LFE123:
 330              		.size	Vector80, .-Vector80
 331 002c AFF30080 		.section	.text.Vector84,"ax",%progbits
 332              		.align	2
 333              		.p2align 4,,15
 334              		.global	Vector84
 335              		.thumb
 336              		.thumb_func
 337              		.type	Vector84, %function
 338              	Vector84:
 339              	.LFB124:
 340              		.loc 1 236 0
ARM GAS  C:\Users\jsyoon\AppData\Local\Temp\cc0LyeEE.s 			page 7


 341              		.cfi_startproc
 342              		@ args = 0, pretend = 0, frame = 0
 343              		@ frame_needed = 0, uses_anonymous_args = 0
 344              		.loc 1 241 0
 345 0000 084B     		ldr	r3, .L49
 346              		.loc 1 243 0
 347 0002 0948     		ldr	r0, .L49+4
 348              		.loc 1 241 0
 349 0004 5968     		ldr	r1, [r3, #4]
 350              		.loc 1 243 0
 351 0006 026B     		ldr	r2, [r0, #48]
 352              		.loc 1 241 0
 353 0008 090C     		lsrs	r1, r1, #16
 354 000a 01F03D01 		and	r1, r1, #61
 355              	.LVL18:
 356              		.loc 1 236 0
 357 000e 10B5     		push	{r4, lr}
 358              		.cfi_def_cfa_offset 8
 359              		.cfi_offset 4, -8
 360              		.cfi_offset 14, -4
 361              		.loc 1 242 0
 362 0010 0C04     		lsls	r4, r1, #16
 363 0012 DC60     		str	r4, [r3, #12]
 364              		.loc 1 243 0
 365 0014 0AB1     		cbz	r2, .L45
 366              		.loc 1 244 0
 367 0016 406B     		ldr	r0, [r0, #52]
 368 0018 9047     		blx	r2
 369              	.LVL19:
 370              	.L45:
 371              		.loc 1 247 0
 372 001a BDE81040 		pop	{r4, lr}
 373              		.loc 1 246 0
 374 001e FFF7FEBF 		b	_port_irq_epilogue
 375              	.LVL20:
 376              	.L50:
 377 0022 00BF     		.align	2
 378              	.L49:
 379 0024 00600240 		.word	1073897472
 380 0028 00000000 		.word	.LANCHOR0
 381              		.cfi_endproc
 382              	.LFE124:
 383              		.size	Vector84, .-Vector84
 384 002c AFF30080 		.section	.text.VectorFC,"ax",%progbits
 385              		.align	2
 386              		.p2align 4,,15
 387              		.global	VectorFC
 388              		.thumb
 389              		.thumb_func
 390              		.type	VectorFC, %function
 391              	VectorFC:
 392              	.LFB125:
 393              		.loc 1 254 0
 394              		.cfi_startproc
 395              		@ args = 0, pretend = 0, frame = 0
 396              		@ frame_needed = 0, uses_anonymous_args = 0
 397              		.loc 1 259 0
ARM GAS  C:\Users\jsyoon\AppData\Local\Temp\cc0LyeEE.s 			page 8


 398 0000 084B     		ldr	r3, .L56
 399              		.loc 1 261 0
 400 0002 0948     		ldr	r0, .L56+4
 401              		.loc 1 259 0
 402 0004 5968     		ldr	r1, [r3, #4]
 403              		.loc 1 261 0
 404 0006 826B     		ldr	r2, [r0, #56]
 405              		.loc 1 259 0
 406 0008 890D     		lsrs	r1, r1, #22
 407 000a 01F03D01 		and	r1, r1, #61
 408              	.LVL21:
 409              		.loc 1 254 0
 410 000e 10B5     		push	{r4, lr}
 411              		.cfi_def_cfa_offset 8
 412              		.cfi_offset 4, -8
 413              		.cfi_offset 14, -4
 414              		.loc 1 260 0
 415 0010 8C05     		lsls	r4, r1, #22
 416 0012 DC60     		str	r4, [r3, #12]
 417              		.loc 1 261 0
 418 0014 0AB1     		cbz	r2, .L52
 419              		.loc 1 262 0
 420 0016 C06B     		ldr	r0, [r0, #60]
 421 0018 9047     		blx	r2
 422              	.LVL22:
 423              	.L52:
 424              		.loc 1 265 0
 425 001a BDE81040 		pop	{r4, lr}
 426              		.loc 1 264 0
 427 001e FFF7FEBF 		b	_port_irq_epilogue
 428              	.LVL23:
 429              	.L57:
 430 0022 00BF     		.align	2
 431              	.L56:
 432 0024 00600240 		.word	1073897472
 433 0028 00000000 		.word	.LANCHOR0
 434              		.cfi_endproc
 435              	.LFE125:
 436              		.size	VectorFC, .-VectorFC
 437 002c AFF30080 		.section	.text.Vector120,"ax",%progbits
 438              		.align	2
 439              		.p2align 4,,15
 440              		.global	Vector120
 441              		.thumb
 442              		.thumb_func
 443              		.type	Vector120, %function
 444              	Vector120:
 445              	.LFB126:
 446              		.loc 1 272 0
 447              		.cfi_startproc
 448              		@ args = 0, pretend = 0, frame = 0
 449              		@ frame_needed = 0, uses_anonymous_args = 0
 450 0000 08B5     		push	{r3, lr}
 451              		.cfi_def_cfa_offset 8
 452              		.cfi_offset 3, -8
 453              		.cfi_offset 14, -4
 454              		.loc 1 277 0
ARM GAS  C:\Users\jsyoon\AppData\Local\Temp\cc0LyeEE.s 			page 9


 455 0002 074B     		ldr	r3, .L63
 456              		.loc 1 279 0
 457 0004 0748     		ldr	r0, .L63+4
 458              		.loc 1 277 0
 459 0006 1968     		ldr	r1, [r3]
 460              		.loc 1 279 0
 461 0008 026C     		ldr	r2, [r0, #64]
 462              		.loc 1 277 0
 463 000a 01F03D01 		and	r1, r1, #61
 464              	.LVL24:
 465              		.loc 1 278 0
 466 000e 9960     		str	r1, [r3, #8]
 467              		.loc 1 279 0
 468 0010 0AB1     		cbz	r2, .L59
 469              		.loc 1 280 0
 470 0012 406C     		ldr	r0, [r0, #68]
 471 0014 9047     		blx	r2
 472              	.LVL25:
 473              	.L59:
 474              		.loc 1 283 0
 475 0016 BDE80840 		pop	{r3, lr}
 476              		.loc 1 282 0
 477 001a FFF7FEBF 		b	_port_irq_epilogue
 478              	.LVL26:
 479              	.L64:
 480 001e 00BF     		.align	2
 481              	.L63:
 482 0020 00640240 		.word	1073898496
 483 0024 00000000 		.word	.LANCHOR0
 484              		.cfi_endproc
 485              	.LFE126:
 486              		.size	Vector120, .-Vector120
 487 0028 AFF30080 		.section	.text.Vector124,"ax",%progbits
 487      AFF30080 
 488              		.align	2
 489              		.p2align 4,,15
 490              		.global	Vector124
 491              		.thumb
 492              		.thumb_func
 493              		.type	Vector124, %function
 494              	Vector124:
 495              	.LFB127:
 496              		.loc 1 290 0
 497              		.cfi_startproc
 498              		@ args = 0, pretend = 0, frame = 0
 499              		@ frame_needed = 0, uses_anonymous_args = 0
 500              		.loc 1 295 0
 501 0000 084B     		ldr	r3, .L70
 502              		.loc 1 297 0
 503 0002 0948     		ldr	r0, .L70+4
 504              		.loc 1 295 0
 505 0004 1968     		ldr	r1, [r3]
 506              		.loc 1 297 0
 507 0006 826C     		ldr	r2, [r0, #72]
 508              		.loc 1 295 0
 509 0008 8909     		lsrs	r1, r1, #6
 510 000a 01F03D01 		and	r1, r1, #61
ARM GAS  C:\Users\jsyoon\AppData\Local\Temp\cc0LyeEE.s 			page 10


 511              	.LVL27:
 512              		.loc 1 290 0
 513 000e 10B5     		push	{r4, lr}
 514              		.cfi_def_cfa_offset 8
 515              		.cfi_offset 4, -8
 516              		.cfi_offset 14, -4
 517              		.loc 1 296 0
 518 0010 8C01     		lsls	r4, r1, #6
 519 0012 9C60     		str	r4, [r3, #8]
 520              		.loc 1 297 0
 521 0014 0AB1     		cbz	r2, .L66
 522              		.loc 1 298 0
 523 0016 C06C     		ldr	r0, [r0, #76]
 524 0018 9047     		blx	r2
 525              	.LVL28:
 526              	.L66:
 527              		.loc 1 301 0
 528 001a BDE81040 		pop	{r4, lr}
 529              		.loc 1 300 0
 530 001e FFF7FEBF 		b	_port_irq_epilogue
 531              	.LVL29:
 532              	.L71:
 533 0022 00BF     		.align	2
 534              	.L70:
 535 0024 00640240 		.word	1073898496
 536 0028 00000000 		.word	.LANCHOR0
 537              		.cfi_endproc
 538              	.LFE127:
 539              		.size	Vector124, .-Vector124
 540 002c AFF30080 		.section	.text.Vector128,"ax",%progbits
 541              		.align	2
 542              		.p2align 4,,15
 543              		.global	Vector128
 544              		.thumb
 545              		.thumb_func
 546              		.type	Vector128, %function
 547              	Vector128:
 548              	.LFB128:
 549              		.loc 1 308 0
 550              		.cfi_startproc
 551              		@ args = 0, pretend = 0, frame = 0
 552              		@ frame_needed = 0, uses_anonymous_args = 0
 553              		.loc 1 313 0
 554 0000 084B     		ldr	r3, .L77
 555              		.loc 1 315 0
 556 0002 0948     		ldr	r0, .L77+4
 557              		.loc 1 313 0
 558 0004 1968     		ldr	r1, [r3]
 559              		.loc 1 315 0
 560 0006 026D     		ldr	r2, [r0, #80]
 561              		.loc 1 313 0
 562 0008 090C     		lsrs	r1, r1, #16
 563 000a 01F03D01 		and	r1, r1, #61
 564              	.LVL30:
 565              		.loc 1 308 0
 566 000e 10B5     		push	{r4, lr}
 567              		.cfi_def_cfa_offset 8
ARM GAS  C:\Users\jsyoon\AppData\Local\Temp\cc0LyeEE.s 			page 11


 568              		.cfi_offset 4, -8
 569              		.cfi_offset 14, -4
 570              		.loc 1 314 0
 571 0010 0C04     		lsls	r4, r1, #16
 572 0012 9C60     		str	r4, [r3, #8]
 573              		.loc 1 315 0
 574 0014 0AB1     		cbz	r2, .L73
 575              		.loc 1 316 0
 576 0016 406D     		ldr	r0, [r0, #84]
 577 0018 9047     		blx	r2
 578              	.LVL31:
 579              	.L73:
 580              		.loc 1 319 0
 581 001a BDE81040 		pop	{r4, lr}
 582              		.loc 1 318 0
 583 001e FFF7FEBF 		b	_port_irq_epilogue
 584              	.LVL32:
 585              	.L78:
 586 0022 00BF     		.align	2
 587              	.L77:
 588 0024 00640240 		.word	1073898496
 589 0028 00000000 		.word	.LANCHOR0
 590              		.cfi_endproc
 591              	.LFE128:
 592              		.size	Vector128, .-Vector128
 593 002c AFF30080 		.section	.text.Vector12C,"ax",%progbits
 594              		.align	2
 595              		.p2align 4,,15
 596              		.global	Vector12C
 597              		.thumb
 598              		.thumb_func
 599              		.type	Vector12C, %function
 600              	Vector12C:
 601              	.LFB129:
 602              		.loc 1 326 0
 603              		.cfi_startproc
 604              		@ args = 0, pretend = 0, frame = 0
 605              		@ frame_needed = 0, uses_anonymous_args = 0
 606              		.loc 1 331 0
 607 0000 084B     		ldr	r3, .L84
 608              		.loc 1 333 0
 609 0002 0948     		ldr	r0, .L84+4
 610              		.loc 1 331 0
 611 0004 1968     		ldr	r1, [r3]
 612              		.loc 1 333 0
 613 0006 826D     		ldr	r2, [r0, #88]
 614              		.loc 1 331 0
 615 0008 890D     		lsrs	r1, r1, #22
 616 000a 01F03D01 		and	r1, r1, #61
 617              	.LVL33:
 618              		.loc 1 326 0
 619 000e 10B5     		push	{r4, lr}
 620              		.cfi_def_cfa_offset 8
 621              		.cfi_offset 4, -8
 622              		.cfi_offset 14, -4
 623              		.loc 1 332 0
 624 0010 8C05     		lsls	r4, r1, #22
ARM GAS  C:\Users\jsyoon\AppData\Local\Temp\cc0LyeEE.s 			page 12


 625 0012 9C60     		str	r4, [r3, #8]
 626              		.loc 1 333 0
 627 0014 0AB1     		cbz	r2, .L80
 628              		.loc 1 334 0
 629 0016 C06D     		ldr	r0, [r0, #92]
 630 0018 9047     		blx	r2
 631              	.LVL34:
 632              	.L80:
 633              		.loc 1 337 0
 634 001a BDE81040 		pop	{r4, lr}
 635              		.loc 1 336 0
 636 001e FFF7FEBF 		b	_port_irq_epilogue
 637              	.LVL35:
 638              	.L85:
 639 0022 00BF     		.align	2
 640              	.L84:
 641 0024 00640240 		.word	1073898496
 642 0028 00000000 		.word	.LANCHOR0
 643              		.cfi_endproc
 644              	.LFE129:
 645              		.size	Vector12C, .-Vector12C
 646 002c AFF30080 		.section	.text.Vector130,"ax",%progbits
 647              		.align	2
 648              		.p2align 4,,15
 649              		.global	Vector130
 650              		.thumb
 651              		.thumb_func
 652              		.type	Vector130, %function
 653              	Vector130:
 654              	.LFB130:
 655              		.loc 1 344 0
 656              		.cfi_startproc
 657              		@ args = 0, pretend = 0, frame = 0
 658              		@ frame_needed = 0, uses_anonymous_args = 0
 659 0000 08B5     		push	{r3, lr}
 660              		.cfi_def_cfa_offset 8
 661              		.cfi_offset 3, -8
 662              		.cfi_offset 14, -4
 663              		.loc 1 349 0
 664 0002 074B     		ldr	r3, .L91
 665              		.loc 1 351 0
 666 0004 0748     		ldr	r0, .L91+4
 667              		.loc 1 349 0
 668 0006 5968     		ldr	r1, [r3, #4]
 669              		.loc 1 351 0
 670 0008 026E     		ldr	r2, [r0, #96]
 671              		.loc 1 349 0
 672 000a 01F03D01 		and	r1, r1, #61
 673              	.LVL36:
 674              		.loc 1 350 0
 675 000e D960     		str	r1, [r3, #12]
 676              		.loc 1 351 0
 677 0010 0AB1     		cbz	r2, .L87
 678              		.loc 1 352 0
 679 0012 406E     		ldr	r0, [r0, #100]
 680 0014 9047     		blx	r2
 681              	.LVL37:
ARM GAS  C:\Users\jsyoon\AppData\Local\Temp\cc0LyeEE.s 			page 13


 682              	.L87:
 683              		.loc 1 355 0
 684 0016 BDE80840 		pop	{r3, lr}
 685              		.loc 1 354 0
 686 001a FFF7FEBF 		b	_port_irq_epilogue
 687              	.LVL38:
 688              	.L92:
 689 001e 00BF     		.align	2
 690              	.L91:
 691 0020 00640240 		.word	1073898496
 692 0024 00000000 		.word	.LANCHOR0
 693              		.cfi_endproc
 694              	.LFE130:
 695              		.size	Vector130, .-Vector130
 696 0028 AFF30080 		.section	.text.Vector150,"ax",%progbits
 696      AFF30080 
 697              		.align	2
 698              		.p2align 4,,15
 699              		.global	Vector150
 700              		.thumb
 701              		.thumb_func
 702              		.type	Vector150, %function
 703              	Vector150:
 704              	.LFB131:
 705              		.loc 1 362 0
 706              		.cfi_startproc
 707              		@ args = 0, pretend = 0, frame = 0
 708              		@ frame_needed = 0, uses_anonymous_args = 0
 709              		.loc 1 367 0
 710 0000 084B     		ldr	r3, .L98
 711              		.loc 1 369 0
 712 0002 0948     		ldr	r0, .L98+4
 713              		.loc 1 367 0
 714 0004 5968     		ldr	r1, [r3, #4]
 715              		.loc 1 369 0
 716 0006 826E     		ldr	r2, [r0, #104]
 717              		.loc 1 367 0
 718 0008 8909     		lsrs	r1, r1, #6
 719 000a 01F03D01 		and	r1, r1, #61
 720              	.LVL39:
 721              		.loc 1 362 0
 722 000e 10B5     		push	{r4, lr}
 723              		.cfi_def_cfa_offset 8
 724              		.cfi_offset 4, -8
 725              		.cfi_offset 14, -4
 726              		.loc 1 368 0
 727 0010 8C01     		lsls	r4, r1, #6
 728 0012 DC60     		str	r4, [r3, #12]
 729              		.loc 1 369 0
 730 0014 0AB1     		cbz	r2, .L94
 731              		.loc 1 370 0
 732 0016 C06E     		ldr	r0, [r0, #108]
 733 0018 9047     		blx	r2
 734              	.LVL40:
 735              	.L94:
 736              		.loc 1 373 0
 737 001a BDE81040 		pop	{r4, lr}
ARM GAS  C:\Users\jsyoon\AppData\Local\Temp\cc0LyeEE.s 			page 14


 738              		.loc 1 372 0
 739 001e FFF7FEBF 		b	_port_irq_epilogue
 740              	.LVL41:
 741              	.L99:
 742 0022 00BF     		.align	2
 743              	.L98:
 744 0024 00640240 		.word	1073898496
 745 0028 00000000 		.word	.LANCHOR0
 746              		.cfi_endproc
 747              	.LFE131:
 748              		.size	Vector150, .-Vector150
 749 002c AFF30080 		.section	.text.Vector154,"ax",%progbits
 750              		.align	2
 751              		.p2align 4,,15
 752              		.global	Vector154
 753              		.thumb
 754              		.thumb_func
 755              		.type	Vector154, %function
 756              	Vector154:
 757              	.LFB132:
 758              		.loc 1 380 0
 759              		.cfi_startproc
 760              		@ args = 0, pretend = 0, frame = 0
 761              		@ frame_needed = 0, uses_anonymous_args = 0
 762              		.loc 1 385 0
 763 0000 084B     		ldr	r3, .L105
 764              		.loc 1 387 0
 765 0002 0948     		ldr	r0, .L105+4
 766              		.loc 1 385 0
 767 0004 5968     		ldr	r1, [r3, #4]
 768              		.loc 1 387 0
 769 0006 026F     		ldr	r2, [r0, #112]
 770              		.loc 1 385 0
 771 0008 090C     		lsrs	r1, r1, #16
 772 000a 01F03D01 		and	r1, r1, #61
 773              	.LVL42:
 774              		.loc 1 380 0
 775 000e 10B5     		push	{r4, lr}
 776              		.cfi_def_cfa_offset 8
 777              		.cfi_offset 4, -8
 778              		.cfi_offset 14, -4
 779              		.loc 1 386 0
 780 0010 0C04     		lsls	r4, r1, #16
 781 0012 DC60     		str	r4, [r3, #12]
 782              		.loc 1 387 0
 783 0014 0AB1     		cbz	r2, .L101
 784              		.loc 1 388 0
 785 0016 406F     		ldr	r0, [r0, #116]
 786 0018 9047     		blx	r2
 787              	.LVL43:
 788              	.L101:
 789              		.loc 1 391 0
 790 001a BDE81040 		pop	{r4, lr}
 791              		.loc 1 390 0
 792 001e FFF7FEBF 		b	_port_irq_epilogue
 793              	.LVL44:
 794              	.L106:
ARM GAS  C:\Users\jsyoon\AppData\Local\Temp\cc0LyeEE.s 			page 15


 795 0022 00BF     		.align	2
 796              	.L105:
 797 0024 00640240 		.word	1073898496
 798 0028 00000000 		.word	.LANCHOR0
 799              		.cfi_endproc
 800              	.LFE132:
 801              		.size	Vector154, .-Vector154
 802 002c AFF30080 		.section	.text.Vector158,"ax",%progbits
 803              		.align	2
 804              		.p2align 4,,15
 805              		.global	Vector158
 806              		.thumb
 807              		.thumb_func
 808              		.type	Vector158, %function
 809              	Vector158:
 810              	.LFB133:
 811              		.loc 1 398 0
 812              		.cfi_startproc
 813              		@ args = 0, pretend = 0, frame = 0
 814              		@ frame_needed = 0, uses_anonymous_args = 0
 815              		.loc 1 403 0
 816 0000 084B     		ldr	r3, .L112
 817              		.loc 1 405 0
 818 0002 0948     		ldr	r0, .L112+4
 819              		.loc 1 403 0
 820 0004 5968     		ldr	r1, [r3, #4]
 821              		.loc 1 405 0
 822 0006 826F     		ldr	r2, [r0, #120]
 823              		.loc 1 403 0
 824 0008 890D     		lsrs	r1, r1, #22
 825 000a 01F03D01 		and	r1, r1, #61
 826              	.LVL45:
 827              		.loc 1 398 0
 828 000e 10B5     		push	{r4, lr}
 829              		.cfi_def_cfa_offset 8
 830              		.cfi_offset 4, -8
 831              		.cfi_offset 14, -4
 832              		.loc 1 404 0
 833 0010 8C05     		lsls	r4, r1, #22
 834 0012 DC60     		str	r4, [r3, #12]
 835              		.loc 1 405 0
 836 0014 0AB1     		cbz	r2, .L108
 837              		.loc 1 406 0
 838 0016 C06F     		ldr	r0, [r0, #124]
 839 0018 9047     		blx	r2
 840              	.LVL46:
 841              	.L108:
 842              		.loc 1 409 0
 843 001a BDE81040 		pop	{r4, lr}
 844              		.loc 1 408 0
 845 001e FFF7FEBF 		b	_port_irq_epilogue
 846              	.LVL47:
 847              	.L113:
 848 0022 00BF     		.align	2
 849              	.L112:
 850 0024 00640240 		.word	1073898496
 851 0028 00000000 		.word	.LANCHOR0
ARM GAS  C:\Users\jsyoon\AppData\Local\Temp\cc0LyeEE.s 			page 16


 852              		.cfi_endproc
 853              	.LFE133:
 854              		.size	Vector158, .-Vector158
 855 002c AFF30080 		.section	.text.dmaInit,"ax",%progbits
 856              		.align	2
 857              		.p2align 4,,15
 858              		.global	dmaInit
 859              		.thumb
 860              		.thumb_func
 861              		.type	dmaInit, %function
 862              	dmaInit:
 863              	.LFB134:
 864              		.loc 1 420 0
 865              		.cfi_startproc
 866              		@ args = 0, pretend = 0, frame = 0
 867              		@ frame_needed = 0, uses_anonymous_args = 0
 868              		@ link register save eliminated.
 869              		.loc 1 423 0
 870 0000 0C4B     		ldr	r3, .L118
 871              		.loc 1 420 0
 872 0002 30B4     		push	{r4, r5}
 873              		.cfi_def_cfa_offset 8
 874              		.cfi_offset 4, -8
 875              		.cfi_offset 5, -4
 876              		.loc 1 423 0
 877 0004 0022     		movs	r2, #0
 878 0006 0C4D     		ldr	r5, .L118+4
 879 0008 0C4C     		ldr	r4, .L118+8
 880 000a 1A60     		str	r2, [r3]
 881              	.LVL48:
 882              		.loc 1 425 0
 883 000c 1146     		mov	r1, r2
 884              		.loc 1 423 0
 885 000e 1346     		mov	r3, r2
 886              	.LVL49:
 887              	.L116:
 888              		.loc 1 425 0 discriminator 2
 889 0010 E858     		ldr	r0, [r5, r3]
 890 0012 0C33     		adds	r3, r3, #12
 891              		.loc 1 424 0 discriminator 2
 892 0014 C02B     		cmp	r3, #192
 893              		.loc 1 425 0 discriminator 2
 894 0016 0160     		str	r1, [r0]
 895              		.loc 1 426 0 discriminator 2
 896 0018 A150     		str	r1, [r4, r2]
 897 001a 02F10802 		add	r2, r2, #8
 898              		.loc 1 424 0 discriminator 2
 899 001e F7D1     		bne	.L116
 900              		.loc 1 428 0
 901 0020 0749     		ldr	r1, .L118+12
 902              		.loc 1 430 0
 903 0022 084A     		ldr	r2, .L118+16
 904              		.loc 1 428 0
 905 0024 4FF0FF33 		mov	r3, #-1
 906 0028 8B60     		str	r3, [r1, #8]
 907              		.loc 1 432 0
 908 002a 30BC     		pop	{r4, r5}
ARM GAS  C:\Users\jsyoon\AppData\Local\Temp\cc0LyeEE.s 			page 17


 909              		.loc 1 429 0
 910 002c CB60     		str	r3, [r1, #12]
 911              		.loc 1 430 0
 912 002e 9360     		str	r3, [r2, #8]
 913              		.loc 1 431 0
 914 0030 D360     		str	r3, [r2, #12]
 915              		.loc 1 432 0
 916 0032 7047     		bx	lr
 917              	.L119:
 918              		.align	2
 919              	.L118:
 920 0034 00000000 		.word	.LANCHOR1
 921 0038 00000000 		.word	.LANCHOR2
 922 003c 00000000 		.word	.LANCHOR0
 923 0040 00600240 		.word	1073897472
 924 0044 00640240 		.word	1073898496
 925              		.cfi_endproc
 926              	.LFE134:
 927              		.size	dmaInit, .-dmaInit
 928 0048 AFF30080 		.section	.text.dmaStreamAllocate,"ax",%progbits
 928      AFF30080 
 929              		.align	2
 930              		.p2align 4,,15
 931              		.global	dmaStreamAllocate
 932              		.thumb
 933              		.thumb_func
 934              		.type	dmaStreamAllocate, %function
 935              	dmaStreamAllocate:
 936              	.LFB135:
 937              		.loc 1 461 0
 938              		.cfi_startproc
 939              		@ args = 0, pretend = 0, frame = 0
 940              		@ frame_needed = 0, uses_anonymous_args = 0
 941              	.LVL50:
 942 0000 2DE9F041 		push	{r4, r5, r6, r7, r8, lr}
 943              		.cfi_def_cfa_offset 24
 944              		.cfi_offset 4, -24
 945              		.cfi_offset 5, -20
 946              		.cfi_offset 6, -16
 947              		.cfi_offset 7, -12
 948              		.cfi_offset 8, -8
 949              		.cfi_offset 14, -4
 950              		.loc 1 466 0
 951 0004 214E     		ldr	r6, .L135
 952 0006 447A     		ldrb	r4, [r0, #9]	@ zero_extendqisi2
 953 0008 3768     		ldr	r7, [r6]
 954 000a 0125     		movs	r5, #1
 955 000c 05FA04FC 		lsl	ip, r5, r4
 956 0010 1CEA070F 		tst	ip, r7
 957 0014 33D1     		bne	.L126
 958              		.loc 1 470 0
 959 0016 1E4D     		ldr	r5, .L135+4
 960              		.loc 1 472 0
 961 0018 4CEA0707 		orr	r7, ip, r7
 962              		.loc 1 471 0
 963 001c 05EBC408 		add	r8, r5, r4, lsl #3
 964              		.loc 1 475 0
ARM GAS  C:\Users\jsyoon\AppData\Local\Temp\cc0LyeEE.s 			page 18


 965 0020 17F0FF0F 		tst	r7, #255
 966              		.loc 1 470 0
 967 0024 45F83420 		str	r2, [r5, r4, lsl #3]
 968              		.loc 1 472 0
 969 0028 3760     		str	r7, [r6]
 970              		.loc 1 471 0
 971 002a C8F80430 		str	r3, [r8, #4]
 972              		.loc 1 475 0
 973 002e 04D0     		beq	.L122
 974              		.loc 1 476 0
 975 0030 184B     		ldr	r3, .L135+8
 976              	.LVL51:
 977 0032 1C6B     		ldr	r4, [r3, #48]
 978 0034 44F40014 		orr	r4, r4, #2097152
 979 0038 1C63     		str	r4, [r3, #48]
 980              	.L122:
 981              		.loc 1 477 0
 982 003a 17F47F4F 		tst	r7, #65280
 983 003e 18D1     		bne	.L134
 984              	.L123:
 985              		.loc 1 481 0
 986 0040 0468     		ldr	r4, [r0]
 987 0042 2368     		ldr	r3, [r4]
 988 0044 23F01F03 		bic	r3, r3, #31
 989 0048 2360     		str	r3, [r4]
 990              	.L125:
 991              		.loc 1 481 0 is_stmt 0 discriminator 1
 992 004a 2368     		ldr	r3, [r4]
 993 004c 13F00105 		ands	r5, r3, #1
 994 0050 FBD1     		bne	.L125
 995              		.loc 1 481 0 discriminator 2
 996 0052 067A     		ldrb	r6, [r0, #8]	@ zero_extendqisi2
 997 0054 4368     		ldr	r3, [r0, #4]
 998 0056 3D27     		movs	r7, #61
 999 0058 B740     		lsls	r7, r7, r6
 1000              		.loc 1 483 0 is_stmt 1 discriminator 2
 1001 005a 2126     		movs	r6, #33
 1002              		.loc 1 481 0 discriminator 2
 1003 005c 1F60     		str	r7, [r3]
 1004              		.loc 1 482 0 discriminator 2
 1005 005e 2560     		str	r5, [r4]
 1006              		.loc 1 483 0 discriminator 2
 1007 0060 6661     		str	r6, [r4, #20]
 1008              		.loc 1 486 0 discriminator 2
 1009 0062 7AB1     		cbz	r2, .L127
 1010              		.loc 1 487 0
 1011 0064 807A     		ldrb	r0, [r0, #10]	@ zero_extendqisi2
 1012              	.LVL52:
 1013 0066 0901     		lsls	r1, r1, #4
 1014              	.LVL53:
 1015 0068 FFF7FEFF 		bl	nvicEnableVector
 1016              	.LVL54:
 1017              		.loc 1 489 0
 1018 006c 2846     		mov	r0, r5
 1019 006e BDE8F081 		pop	{r4, r5, r6, r7, r8, pc}
 1020              	.LVL55:
 1021              	.L134:
ARM GAS  C:\Users\jsyoon\AppData\Local\Temp\cc0LyeEE.s 			page 19


 1022              		.loc 1 478 0
 1023 0072 084B     		ldr	r3, .L135+8
 1024 0074 1C6B     		ldr	r4, [r3, #48]
 1025 0076 44F48004 		orr	r4, r4, #4194304
 1026 007a 1C63     		str	r4, [r3, #48]
 1027 007c E0E7     		b	.L123
 1028              	.LVL56:
 1029              	.L126:
 1030              		.loc 1 467 0
 1031 007e 2846     		mov	r0, r5
 1032              	.LVL57:
 1033 0080 BDE8F081 		pop	{r4, r5, r6, r7, r8, pc}
 1034              	.LVL58:
 1035              	.L127:
 1036              		.loc 1 489 0
 1037 0084 1046     		mov	r0, r2
 1038              	.LVL59:
 1039              		.loc 1 490 0
 1040 0086 BDE8F081 		pop	{r4, r5, r6, r7, r8, pc}
 1041              	.LVL60:
 1042              	.L136:
 1043 008a 00BF     		.align	2
 1044              	.L135:
 1045 008c 00000000 		.word	.LANCHOR1
 1046 0090 00000000 		.word	.LANCHOR0
 1047 0094 00380240 		.word	1073887232
 1048              		.cfi_endproc
 1049              	.LFE135:
 1050              		.size	dmaStreamAllocate, .-dmaStreamAllocate
 1051 0098 AFF30080 		.section	.text.dmaStreamRelease,"ax",%progbits
 1051      AFF30080 
 1052              		.align	2
 1053              		.p2align 4,,15
 1054              		.global	dmaStreamRelease
 1055              		.thumb
 1056              		.thumb_func
 1057              		.type	dmaStreamRelease, %function
 1058              	dmaStreamRelease:
 1059              	.LFB136:
 1060              		.loc 1 505 0
 1061              		.cfi_startproc
 1062              		@ args = 0, pretend = 0, frame = 0
 1063              		@ frame_needed = 0, uses_anonymous_args = 0
 1064              	.LVL61:
 1065 0000 10B5     		push	{r4, lr}
 1066              		.cfi_def_cfa_offset 8
 1067              		.cfi_offset 4, -8
 1068              		.cfi_offset 14, -4
 1069              		.loc 1 505 0
 1070 0002 0446     		mov	r4, r0
 1071              		.loc 1 514 0
 1072 0004 807A     		ldrb	r0, [r0, #10]	@ zero_extendqisi2
 1073              	.LVL62:
 1074 0006 FFF7FEFF 		bl	nvicDisableVector
 1075              	.LVL63:
 1076              		.loc 1 517 0
 1077 000a 0D4A     		ldr	r2, .L140
ARM GAS  C:\Users\jsyoon\AppData\Local\Temp\cc0LyeEE.s 			page 20


 1078 000c 637A     		ldrb	r3, [r4, #9]	@ zero_extendqisi2
 1079 000e 1168     		ldr	r1, [r2]
 1080 0010 0120     		movs	r0, #1
 1081 0012 00FA03F3 		lsl	r3, r0, r3
 1082 0016 21EA0303 		bic	r3, r1, r3
 1083              		.loc 1 520 0
 1084 001a 13F0FF0F 		tst	r3, #255
 1085              		.loc 1 517 0
 1086 001e 1360     		str	r3, [r2]
 1087              		.loc 1 520 0
 1088 0020 04D1     		bne	.L138
 1089              		.loc 1 521 0
 1090 0022 084A     		ldr	r2, .L140+4
 1091 0024 116B     		ldr	r1, [r2, #48]
 1092 0026 21F40011 		bic	r1, r1, #2097152
 1093 002a 1163     		str	r1, [r2, #48]
 1094              	.L138:
 1095              		.loc 1 522 0
 1096 002c 13F47F4F 		tst	r3, #65280
 1097 0030 04D1     		bne	.L137
 1098              		.loc 1 523 0
 1099 0032 044B     		ldr	r3, .L140+4
 1100 0034 1A6B     		ldr	r2, [r3, #48]
 1101 0036 22F48002 		bic	r2, r2, #4194304
 1102 003a 1A63     		str	r2, [r3, #48]
 1103              	.L137:
 1104 003c 10BD     		pop	{r4, pc}
 1105              	.LVL64:
 1106              	.L141:
 1107 003e 00BF     		.align	2
 1108              	.L140:
 1109 0040 00000000 		.word	.LANCHOR1
 1110 0044 00380240 		.word	1073887232
 1111              		.cfi_endproc
 1112              	.LFE136:
 1113              		.size	dmaStreamRelease, .-dmaStreamRelease
 1114              		.global	_stm32_dma_streams
 1115 0048 AFF30080 		.section	.bss.dma_isr_redir,"aw",%nobits
 1115      AFF30080 
 1116              		.align	2
 1117              		.set	.LANCHOR0,. + 0
 1118              		.type	dma_isr_redir, %object
 1119              		.size	dma_isr_redir, 128
 1120              	dma_isr_redir:
 1121 0000 00000000 		.space	128
 1121      00000000 
 1121      00000000 
 1121      00000000 
 1121      00000000 
 1122              		.section	.rodata._stm32_dma_streams,"a",%progbits
 1123              		.align	2
 1124              		.set	.LANCHOR2,. + 0
 1125              		.type	_stm32_dma_streams, %object
 1126              		.size	_stm32_dma_streams, 192
 1127              	_stm32_dma_streams:
 1128 0000 10600240 		.word	1073897488
 1129 0004 08600240 		.word	1073897480
ARM GAS  C:\Users\jsyoon\AppData\Local\Temp\cc0LyeEE.s 			page 21


 1130 0008 00       		.byte	0
 1131 0009 00       		.byte	0
 1132 000a 0B       		.byte	11
 1133 000b 00       		.space	1
 1134 000c 28600240 		.word	1073897512
 1135 0010 08600240 		.word	1073897480
 1136 0014 06       		.byte	6
 1137 0015 01       		.byte	1
 1138 0016 0C       		.byte	12
 1139 0017 00       		.space	1
 1140 0018 40600240 		.word	1073897536
 1141 001c 08600240 		.word	1073897480
 1142 0020 10       		.byte	16
 1143 0021 02       		.byte	2
 1144 0022 0D       		.byte	13
 1145 0023 00       		.space	1
 1146 0024 58600240 		.word	1073897560
 1147 0028 08600240 		.word	1073897480
 1148 002c 16       		.byte	22
 1149 002d 03       		.byte	3
 1150 002e 0E       		.byte	14
 1151 002f 00       		.space	1
 1152 0030 70600240 		.word	1073897584
 1153 0034 0C600240 		.word	1073897484
 1154 0038 00       		.byte	0
 1155 0039 04       		.byte	4
 1156 003a 0F       		.byte	15
 1157 003b 00       		.space	1
 1158 003c 88600240 		.word	1073897608
 1159 0040 0C600240 		.word	1073897484
 1160 0044 06       		.byte	6
 1161 0045 05       		.byte	5
 1162 0046 10       		.byte	16
 1163 0047 00       		.space	1
 1164 0048 A0600240 		.word	1073897632
 1165 004c 0C600240 		.word	1073897484
 1166 0050 10       		.byte	16
 1167 0051 06       		.byte	6
 1168 0052 11       		.byte	17
 1169 0053 00       		.space	1
 1170 0054 B8600240 		.word	1073897656
 1171 0058 0C600240 		.word	1073897484
 1172 005c 16       		.byte	22
 1173 005d 07       		.byte	7
 1174 005e 2F       		.byte	47
 1175 005f 00       		.space	1
 1176 0060 10640240 		.word	1073898512
 1177 0064 08640240 		.word	1073898504
 1178 0068 00       		.byte	0
 1179 0069 08       		.byte	8
 1180 006a 38       		.byte	56
 1181 006b 00       		.space	1
 1182 006c 28640240 		.word	1073898536
 1183 0070 08640240 		.word	1073898504
 1184 0074 06       		.byte	6
 1185 0075 09       		.byte	9
 1186 0076 39       		.byte	57
ARM GAS  C:\Users\jsyoon\AppData\Local\Temp\cc0LyeEE.s 			page 22


 1187 0077 00       		.space	1
 1188 0078 40640240 		.word	1073898560
 1189 007c 08640240 		.word	1073898504
 1190 0080 10       		.byte	16
 1191 0081 0A       		.byte	10
 1192 0082 3A       		.byte	58
 1193 0083 00       		.space	1
 1194 0084 58640240 		.word	1073898584
 1195 0088 08640240 		.word	1073898504
 1196 008c 16       		.byte	22
 1197 008d 0B       		.byte	11
 1198 008e 3B       		.byte	59
 1199 008f 00       		.space	1
 1200 0090 70640240 		.word	1073898608
 1201 0094 0C640240 		.word	1073898508
 1202 0098 00       		.byte	0
 1203 0099 0C       		.byte	12
 1204 009a 3C       		.byte	60
 1205 009b 00       		.space	1
 1206 009c 88640240 		.word	1073898632
 1207 00a0 0C640240 		.word	1073898508
 1208 00a4 06       		.byte	6
 1209 00a5 0D       		.byte	13
 1210 00a6 44       		.byte	68
 1211 00a7 00       		.space	1
 1212 00a8 A0640240 		.word	1073898656
 1213 00ac 0C640240 		.word	1073898508
 1214 00b0 10       		.byte	16
 1215 00b1 0E       		.byte	14
 1216 00b2 45       		.byte	69
 1217 00b3 00       		.space	1
 1218 00b4 B8640240 		.word	1073898680
 1219 00b8 0C640240 		.word	1073898508
 1220 00bc 16       		.byte	22
 1221 00bd 0F       		.byte	15
 1222 00be 46       		.byte	70
 1223 00bf 00       		.space	1
 1224              		.section	.bss.dma_streams_mask,"aw",%nobits
 1225              		.align	2
 1226              		.set	.LANCHOR1,. + 0
 1227              		.type	dma_streams_mask, %object
 1228              		.size	dma_streams_mask, 4
 1229              	dma_streams_mask:
 1230 0000 00000000 		.space	4
 1231              		.text
 1232              	.Letext0:
 1233              		.file 2 "c:\\crosstools\\gcc-arm-embedded\\4.8_2014q2\\arm-none-eabi\\include\\machine\\_default_t
 1234              		.file 3 "c:\\crosstools\\gcc-arm-embedded\\4.8_2014q2\\arm-none-eabi\\include\\stdint.h"
 1235              		.file 4 "ChibiOS_2.6.6/os/ports/GCC/ARMCMx/chtypes.h"
 1236              		.file 5 "ChibiOS_2.6.6/os/hal/platforms/STM32F4xx/stm32f4xx.h"
 1237              		.file 6 "ChibiOS_2.6.6/os/hal/platforms/STM32F4xx/stm32_dma.h"
 1238              		.file 7 "ChibiOS_2.6.6/os/ports/common/ARMCMx/CMSIS/include/core_cm4.h"
 1239              		.file 8 "ChibiOS_2.6.6/os/ports/GCC/ARMCMx/chcore_v7m.h"
 1240              		.file 9 "ChibiOS_2.6.6/os/ports/common/ARMCMx/nvic.h"
 1241              		.section	.debug_info,"",%progbits
 1242              	.Ldebug_info0:
 1243 0000 7B0A0000 		.4byte	0xa7b
ARM GAS  C:\Users\jsyoon\AppData\Local\Temp\cc0LyeEE.s 			page 23


 1244 0004 0400     		.2byte	0x4
 1245 0006 00000000 		.4byte	.Ldebug_abbrev0
 1246 000a 04       		.byte	0x4
 1247 000b 01       		.uleb128 0x1
 1248 000c E8010000 		.4byte	.LASF185
 1249 0010 01       		.byte	0x1
 1250 0011 D4070000 		.4byte	.LASF186
 1251 0015 87010000 		.4byte	.LASF187
 1252 0019 00000000 		.4byte	.Ldebug_ranges0+0
 1253 001d 00000000 		.4byte	0
 1254 0021 00000000 		.4byte	.Ldebug_line0
 1255 0025 02       		.uleb128 0x2
 1256 0026 04       		.byte	0x4
 1257 0027 05       		.byte	0x5
 1258 0028 696E7400 		.ascii	"int\000"
 1259 002c 03       		.uleb128 0x3
 1260 002d 04       		.byte	0x4
 1261 002e 07       		.byte	0x7
 1262 002f 05040000 		.4byte	.LASF0
 1263 0033 03       		.uleb128 0x3
 1264 0034 01       		.byte	0x1
 1265 0035 06       		.byte	0x6
 1266 0036 49010000 		.4byte	.LASF1
 1267 003a 04       		.uleb128 0x4
 1268 003b 70000000 		.4byte	.LASF5
 1269 003f 02       		.byte	0x2
 1270 0040 1C       		.byte	0x1c
 1271 0041 45000000 		.4byte	0x45
 1272 0045 03       		.uleb128 0x3
 1273 0046 01       		.byte	0x1
 1274 0047 08       		.byte	0x8
 1275 0048 0A070000 		.4byte	.LASF2
 1276 004c 03       		.uleb128 0x3
 1277 004d 02       		.byte	0x2
 1278 004e 05       		.byte	0x5
 1279 004f 55050000 		.4byte	.LASF3
 1280 0053 03       		.uleb128 0x3
 1281 0054 02       		.byte	0x2
 1282 0055 07       		.byte	0x7
 1283 0056 B5040000 		.4byte	.LASF4
 1284 005a 04       		.uleb128 0x4
 1285 005b C1080000 		.4byte	.LASF6
 1286 005f 02       		.byte	0x2
 1287 0060 37       		.byte	0x37
 1288 0061 65000000 		.4byte	0x65
 1289 0065 03       		.uleb128 0x3
 1290 0066 04       		.byte	0x4
 1291 0067 05       		.byte	0x5
 1292 0068 B7010000 		.4byte	.LASF7
 1293 006c 04       		.uleb128 0x4
 1294 006d AF030000 		.4byte	.LASF8
 1295 0071 02       		.byte	0x2
 1296 0072 38       		.byte	0x38
 1297 0073 77000000 		.4byte	0x77
 1298 0077 03       		.uleb128 0x3
 1299 0078 04       		.byte	0x4
 1300 0079 07       		.byte	0x7
ARM GAS  C:\Users\jsyoon\AppData\Local\Temp\cc0LyeEE.s 			page 24


 1301 007a 70040000 		.4byte	.LASF9
 1302 007e 03       		.uleb128 0x3
 1303 007f 08       		.byte	0x8
 1304 0080 05       		.byte	0x5
 1305 0081 0C030000 		.4byte	.LASF10
 1306 0085 03       		.uleb128 0x3
 1307 0086 08       		.byte	0x8
 1308 0087 07       		.byte	0x7
 1309 0088 28030000 		.4byte	.LASF11
 1310 008c 04       		.uleb128 0x4
 1311 008d 7B090000 		.4byte	.LASF12
 1312 0091 03       		.byte	0x3
 1313 0092 2A       		.byte	0x2a
 1314 0093 3A000000 		.4byte	0x3a
 1315 0097 04       		.uleb128 0x4
 1316 0098 02070000 		.4byte	.LASF13
 1317 009c 03       		.byte	0x3
 1318 009d 41       		.byte	0x41
 1319 009e 5A000000 		.4byte	0x5a
 1320 00a2 04       		.uleb128 0x4
 1321 00a3 36090000 		.4byte	.LASF14
 1322 00a7 03       		.byte	0x3
 1323 00a8 42       		.byte	0x42
 1324 00a9 6C000000 		.4byte	0x6c
 1325 00ad 04       		.uleb128 0x4
 1326 00ae 6C010000 		.4byte	.LASF15
 1327 00b2 04       		.byte	0x4
 1328 00b3 2B       		.byte	0x2b
 1329 00b4 B8000000 		.4byte	0xb8
 1330 00b8 03       		.uleb128 0x3
 1331 00b9 01       		.byte	0x1
 1332 00ba 02       		.byte	0x2
 1333 00bb FC060000 		.4byte	.LASF16
 1334 00bf 05       		.uleb128 0x5
 1335 00c0 04       		.byte	0x4
 1336 00c1 06       		.uleb128 0x6
 1337 00c2 A2000000 		.4byte	0xa2
 1338 00c6 03       		.uleb128 0x3
 1339 00c7 04       		.byte	0x4
 1340 00c8 07       		.byte	0x7
 1341 00c9 A2050000 		.4byte	.LASF17
 1342 00cd 03       		.uleb128 0x3
 1343 00ce 01       		.byte	0x1
 1344 00cf 08       		.byte	0x8
 1345 00d0 68080000 		.4byte	.LASF18
 1346 00d4 07       		.uleb128 0x7
 1347 00d5 8D050000 		.4byte	.LASF188
 1348 00d9 01       		.byte	0x1
 1349 00da 05       		.byte	0x5
 1350 00db AA       		.byte	0xaa
 1351 00dc 0F030000 		.4byte	0x30f
 1352 00e0 08       		.uleb128 0x8
 1353 00e1 AD080000 		.4byte	.LASF19
 1354 00e5 72       		.sleb128 -14
 1355 00e6 08       		.uleb128 0x8
 1356 00e7 52060000 		.4byte	.LASF20
 1357 00eb 74       		.sleb128 -12
ARM GAS  C:\Users\jsyoon\AppData\Local\Temp\cc0LyeEE.s 			page 25


 1358 00ec 08       		.uleb128 0x8
 1359 00ed 57030000 		.4byte	.LASF21
 1360 00f1 75       		.sleb128 -11
 1361 00f2 08       		.uleb128 0x8
 1362 00f3 1B080000 		.4byte	.LASF22
 1363 00f7 76       		.sleb128 -10
 1364 00f8 08       		.uleb128 0x8
 1365 00f9 A9040000 		.4byte	.LASF23
 1366 00fd 7B       		.sleb128 -5
 1367 00fe 08       		.uleb128 0x8
 1368 00ff B3090000 		.4byte	.LASF24
 1369 0103 7C       		.sleb128 -4
 1370 0104 08       		.uleb128 0x8
 1371 0105 90030000 		.4byte	.LASF25
 1372 0109 7E       		.sleb128 -2
 1373 010a 08       		.uleb128 0x8
 1374 010b 73050000 		.4byte	.LASF26
 1375 010f 7F       		.sleb128 -1
 1376 0110 08       		.uleb128 0x8
 1377 0111 04010000 		.4byte	.LASF27
 1378 0115 00       		.sleb128 0
 1379 0116 08       		.uleb128 0x8
 1380 0117 28000000 		.4byte	.LASF28
 1381 011b 01       		.sleb128 1
 1382 011c 08       		.uleb128 0x8
 1383 011d EB080000 		.4byte	.LASF29
 1384 0121 02       		.sleb128 2
 1385 0122 08       		.uleb128 0x8
 1386 0123 70070000 		.4byte	.LASF30
 1387 0127 03       		.sleb128 3
 1388 0128 08       		.uleb128 0x8
 1389 0129 BB070000 		.4byte	.LASF31
 1390 012d 04       		.sleb128 4
 1391 012e 08       		.uleb128 0x8
 1392 012f 89090000 		.4byte	.LASF32
 1393 0133 05       		.sleb128 5
 1394 0134 08       		.uleb128 0x8
 1395 0135 58090000 		.4byte	.LASF33
 1396 0139 06       		.sleb128 6
 1397 013a 08       		.uleb128 0x8
 1398 013b 5A0A0000 		.4byte	.LASF34
 1399 013f 07       		.sleb128 7
 1400 0140 08       		.uleb128 0x8
 1401 0141 EF000000 		.4byte	.LASF35
 1402 0145 08       		.sleb128 8
 1403 0146 08       		.uleb128 0x8
 1404 0147 F4050000 		.4byte	.LASF36
 1405 014b 09       		.sleb128 9
 1406 014c 08       		.uleb128 0x8
 1407 014d 57070000 		.4byte	.LASF37
 1408 0151 0A       		.sleb128 10
 1409 0152 08       		.uleb128 0x8
 1410 0153 650A0000 		.4byte	.LASF38
 1411 0157 0B       		.sleb128 11
 1412 0158 08       		.uleb128 0x8
 1413 0159 1F050000 		.4byte	.LASF39
 1414 015d 0C       		.sleb128 12
ARM GAS  C:\Users\jsyoon\AppData\Local\Temp\cc0LyeEE.s 			page 26


 1415 015e 08       		.uleb128 0x8
 1416 015f 09060000 		.4byte	.LASF40
 1417 0163 0D       		.sleb128 13
 1418 0164 08       		.uleb128 0x8
 1419 0165 1C040000 		.4byte	.LASF41
 1420 0169 0E       		.sleb128 14
 1421 016a 08       		.uleb128 0x8
 1422 016b 9D000000 		.4byte	.LASF42
 1423 016f 0F       		.sleb128 15
 1424 0170 08       		.uleb128 0x8
 1425 0171 C9010000 		.4byte	.LASF43
 1426 0175 10       		.sleb128 16
 1427 0176 08       		.uleb128 0x8
 1428 0177 2E040000 		.4byte	.LASF44
 1429 017b 11       		.sleb128 17
 1430 017c 08       		.uleb128 0x8
 1431 017d E6090000 		.4byte	.LASF45
 1432 0181 12       		.sleb128 18
 1433 0182 08       		.uleb128 0x8
 1434 0183 E5040000 		.4byte	.LASF46
 1435 0187 13       		.sleb128 19
 1436 0188 08       		.uleb128 0x8
 1437 0189 1A000000 		.4byte	.LASF47
 1438 018d 14       		.sleb128 20
 1439 018e 08       		.uleb128 0x8
 1440 018f 3B010000 		.4byte	.LASF48
 1441 0193 15       		.sleb128 21
 1442 0194 08       		.uleb128 0x8
 1443 0195 110A0000 		.4byte	.LASF49
 1444 0199 16       		.sleb128 22
 1445 019a 08       		.uleb128 0x8
 1446 019b DB010000 		.4byte	.LASF50
 1447 019f 17       		.sleb128 23
 1448 01a0 08       		.uleb128 0x8
 1449 01a1 24070000 		.4byte	.LASF51
 1450 01a5 18       		.sleb128 24
 1451 01a6 08       		.uleb128 0x8
 1452 01a7 44070000 		.4byte	.LASF52
 1453 01ab 19       		.sleb128 25
 1454 01ac 08       		.uleb128 0x8
 1455 01ad 3F030000 		.4byte	.LASF53
 1456 01b1 1A       		.sleb128 26
 1457 01b2 08       		.uleb128 0x8
 1458 01b3 80050000 		.4byte	.LASF54
 1459 01b7 1B       		.sleb128 27
 1460 01b8 08       		.uleb128 0x8
 1461 01b9 4E090000 		.4byte	.LASF55
 1462 01bd 1C       		.sleb128 28
 1463 01be 08       		.uleb128 0x8
 1464 01bf 500A0000 		.4byte	.LASF56
 1465 01c3 1D       		.sleb128 29
 1466 01c4 08       		.uleb128 0x8
 1467 01c5 E5000000 		.4byte	.LASF57
 1468 01c9 1E       		.sleb128 30
 1469 01ca 08       		.uleb128 0x8
 1470 01cb 63000000 		.4byte	.LASF58
 1471 01cf 1F       		.sleb128 31
ARM GAS  C:\Users\jsyoon\AppData\Local\Temp\cc0LyeEE.s 			page 27


 1472 01d0 08       		.uleb128 0x8
 1473 01d1 D9090000 		.4byte	.LASF59
 1474 01d5 20       		.sleb128 32
 1475 01d6 08       		.uleb128 0x8
 1476 01d7 73010000 		.4byte	.LASF60
 1477 01db 21       		.sleb128 33
 1478 01dc 08       		.uleb128 0x8
 1479 01dd D8000000 		.4byte	.LASF61
 1480 01e1 22       		.sleb128 34
 1481 01e2 08       		.uleb128 0x8
 1482 01e3 15050000 		.4byte	.LASF62
 1483 01e7 23       		.sleb128 35
 1484 01e8 08       		.uleb128 0x8
 1485 01e9 FF050000 		.4byte	.LASF63
 1486 01ed 24       		.sleb128 36
 1487 01ee 08       		.uleb128 0x8
 1488 01ef 90060000 		.4byte	.LASF64
 1489 01f3 25       		.sleb128 37
 1490 01f4 08       		.uleb128 0x8
 1491 01f5 18070000 		.4byte	.LASF65
 1492 01f9 26       		.sleb128 38
 1493 01fa 08       		.uleb128 0x8
 1494 01fb 3A050000 		.4byte	.LASF66
 1495 01ff 27       		.sleb128 39
 1496 0200 08       		.uleb128 0x8
 1497 0201 FB040000 		.4byte	.LASF67
 1498 0205 28       		.sleb128 40
 1499 0206 08       		.uleb128 0x8
 1500 0207 AF000000 		.4byte	.LASF68
 1501 020b 29       		.sleb128 41
 1502 020c 08       		.uleb128 0x8
 1503 020d C4030000 		.4byte	.LASF69
 1504 0211 2A       		.sleb128 42
 1505 0212 08       		.uleb128 0x8
 1506 0213 5F050000 		.4byte	.LASF70
 1507 0217 2B       		.sleb128 43
 1508 0218 08       		.uleb128 0x8
 1509 0219 9C030000 		.4byte	.LASF71
 1510 021d 2C       		.sleb128 44
 1511 021e 08       		.uleb128 0x8
 1512 021f 93070000 		.4byte	.LASF72
 1513 0223 2D       		.sleb128 45
 1514 0224 08       		.uleb128 0x8
 1515 0225 B4050000 		.4byte	.LASF73
 1516 0229 2E       		.sleb128 46
 1517 022a 08       		.uleb128 0x8
 1518 022b 56080000 		.4byte	.LASF74
 1519 022f 2F       		.sleb128 47
 1520 0230 08       		.uleb128 0x8
 1521 0231 F2060000 		.4byte	.LASF75
 1522 0235 30       		.sleb128 48
 1523 0236 08       		.uleb128 0x8
 1524 0237 0E010000 		.4byte	.LASF76
 1525 023b 31       		.sleb128 49
 1526 023c 08       		.uleb128 0x8
 1527 023d EA050000 		.4byte	.LASF77
 1528 0241 32       		.sleb128 50
ARM GAS  C:\Users\jsyoon\AppData\Local\Temp\cc0LyeEE.s 			page 28


 1529 0242 08       		.uleb128 0x8
 1530 0243 C3060000 		.4byte	.LASF78
 1531 0247 33       		.sleb128 51
 1532 0248 08       		.uleb128 0x8
 1533 0249 7B030000 		.4byte	.LASF79
 1534 024d 34       		.sleb128 52
 1535 024e 08       		.uleb128 0x8
 1536 024f 88070000 		.4byte	.LASF80
 1537 0253 35       		.sleb128 53
 1538 0254 08       		.uleb128 0x8
 1539 0255 65030000 		.4byte	.LASF81
 1540 0259 36       		.sleb128 54
 1541 025a 08       		.uleb128 0x8
 1542 025b 92050000 		.4byte	.LASF82
 1543 025f 37       		.sleb128 55
 1544 0260 08       		.uleb128 0x8
 1545 0261 16090000 		.4byte	.LASF83
 1546 0265 38       		.sleb128 56
 1547 0266 08       		.uleb128 0x8
 1548 0267 EF090000 		.4byte	.LASF84
 1549 026b 39       		.sleb128 57
 1550 026c 08       		.uleb128 0x8
 1551 026d C8040000 		.4byte	.LASF85
 1552 0271 3A       		.sleb128 58
 1553 0272 08       		.uleb128 0x8
 1554 0273 C1050000 		.4byte	.LASF86
 1555 0277 3B       		.sleb128 59
 1556 0278 08       		.uleb128 0x8
 1557 0279 E0060000 		.4byte	.LASF87
 1558 027d 3C       		.sleb128 60
 1559 027e 08       		.uleb128 0x8
 1560 027f AB050000 		.4byte	.LASF88
 1561 0283 3D       		.sleb128 61
 1562 0284 08       		.uleb128 0x8
 1563 0285 1A030000 		.4byte	.LASF89
 1564 0289 3E       		.sleb128 62
 1565 028a 08       		.uleb128 0x8
 1566 028b 1B060000 		.4byte	.LASF90
 1567 028f 3F       		.sleb128 63
 1568 0290 08       		.uleb128 0x8
 1569 0291 31000000 		.4byte	.LASF91
 1570 0295 C000     		.sleb128 64
 1571 0297 08       		.uleb128 0x8
 1572 0298 55010000 		.4byte	.LASF92
 1573 029c C100     		.sleb128 65
 1574 029e 08       		.uleb128 0x8
 1575 029f 310A0000 		.4byte	.LASF93
 1576 02a3 C200     		.sleb128 66
 1577 02a5 08       		.uleb128 0x8
 1578 02a6 28060000 		.4byte	.LASF94
 1579 02aa C300     		.sleb128 67
 1580 02ac 08       		.uleb128 0x8
 1581 02ad 7A000000 		.4byte	.LASF95
 1582 02b1 C400     		.sleb128 68
 1583 02b3 08       		.uleb128 0x8
 1584 02b4 44000000 		.4byte	.LASF96
 1585 02b8 C500     		.sleb128 69
ARM GAS  C:\Users\jsyoon\AppData\Local\Temp\cc0LyeEE.s 			page 29


 1586 02ba 08       		.uleb128 0x8
 1587 02bb D5030000 		.4byte	.LASF97
 1588 02bf C600     		.sleb128 70
 1589 02c1 08       		.uleb128 0x8
 1590 02c2 D8050000 		.4byte	.LASF98
 1591 02c6 C700     		.sleb128 71
 1592 02c8 08       		.uleb128 0x8
 1593 02c9 63040000 		.4byte	.LASF99
 1594 02cd C800     		.sleb128 72
 1595 02cf 08       		.uleb128 0x8
 1596 02d0 56000000 		.4byte	.LASF100
 1597 02d4 C900     		.sleb128 73
 1598 02d6 08       		.uleb128 0x8
 1599 02d7 95040000 		.4byte	.LASF101
 1600 02db CA00     		.sleb128 74
 1601 02dd 08       		.uleb128 0x8
 1602 02de 9A080000 		.4byte	.LASF102
 1603 02e2 CB00     		.sleb128 75
 1604 02e4 08       		.uleb128 0x8
 1605 02e5 3F0A0000 		.4byte	.LASF103
 1606 02e9 CC00     		.sleb128 76
 1607 02eb 08       		.uleb128 0x8
 1608 02ec 46060000 		.4byte	.LASF104
 1609 02f0 CD00     		.sleb128 77
 1610 02f2 08       		.uleb128 0x8
 1611 02f3 FB030000 		.4byte	.LASF105
 1612 02f7 CE00     		.sleb128 78
 1613 02f9 08       		.uleb128 0x8
 1614 02fa 87080000 		.4byte	.LASF106
 1615 02fe CF00     		.sleb128 79
 1616 0300 08       		.uleb128 0x8
 1617 0301 62070000 		.4byte	.LASF107
 1618 0305 D000     		.sleb128 80
 1619 0307 08       		.uleb128 0x8
 1620 0308 AA090000 		.4byte	.LASF108
 1621 030c D100     		.sleb128 81
 1622 030e 00       		.byte	0
 1623 030f 09       		.uleb128 0x9
 1624 0310 A2000000 		.4byte	0xa2
 1625 0314 1F030000 		.4byte	0x31f
 1626 0318 0A       		.uleb128 0xa
 1627 0319 C6000000 		.4byte	0xc6
 1628 031d 01       		.byte	0x1
 1629 031e 00       		.byte	0
 1630 031f 06       		.uleb128 0x6
 1631 0320 97000000 		.4byte	0x97
 1632 0324 0B       		.uleb128 0xb
 1633 0325 18       		.byte	0x18
 1634 0326 05       		.byte	0x5
 1635 0327 B102     		.2byte	0x2b1
 1636 0329 7B030000 		.4byte	0x37b
 1637 032d 0C       		.uleb128 0xc
 1638 032e 435200   		.ascii	"CR\000"
 1639 0331 05       		.byte	0x5
 1640 0332 B302     		.2byte	0x2b3
 1641 0334 C1000000 		.4byte	0xc1
 1642 0338 00       		.byte	0
ARM GAS  C:\Users\jsyoon\AppData\Local\Temp\cc0LyeEE.s 			page 30


 1643 0339 0D       		.uleb128 0xd
 1644 033a CB080000 		.4byte	.LASF109
 1645 033e 05       		.byte	0x5
 1646 033f B402     		.2byte	0x2b4
 1647 0341 C1000000 		.4byte	0xc1
 1648 0345 04       		.byte	0x4
 1649 0346 0C       		.uleb128 0xc
 1650 0347 50415200 		.ascii	"PAR\000"
 1651 034b 05       		.byte	0x5
 1652 034c B502     		.2byte	0x2b5
 1653 034e C1000000 		.4byte	0xc1
 1654 0352 08       		.byte	0x8
 1655 0353 0D       		.uleb128 0xd
 1656 0354 3F000000 		.4byte	.LASF110
 1657 0358 05       		.byte	0x5
 1658 0359 B602     		.2byte	0x2b6
 1659 035b C1000000 		.4byte	0xc1
 1660 035f 0C       		.byte	0xc
 1661 0360 0D       		.uleb128 0xd
 1662 0361 28090000 		.4byte	.LASF111
 1663 0365 05       		.byte	0x5
 1664 0366 B702     		.2byte	0x2b7
 1665 0368 C1000000 		.4byte	0xc1
 1666 036c 10       		.byte	0x10
 1667 036d 0C       		.uleb128 0xc
 1668 036e 46435200 		.ascii	"FCR\000"
 1669 0372 05       		.byte	0x5
 1670 0373 B802     		.2byte	0x2b8
 1671 0375 C1000000 		.4byte	0xc1
 1672 0379 14       		.byte	0x14
 1673 037a 00       		.byte	0
 1674 037b 0E       		.uleb128 0xe
 1675 037c D0080000 		.4byte	.LASF112
 1676 0380 05       		.byte	0x5
 1677 0381 B902     		.2byte	0x2b9
 1678 0383 24030000 		.4byte	0x324
 1679 0387 0B       		.uleb128 0xb
 1680 0388 10       		.byte	0x10
 1681 0389 05       		.byte	0x5
 1682 038a BB02     		.2byte	0x2bb
 1683 038c C5030000 		.4byte	0x3c5
 1684 0390 0D       		.uleb128 0xd
 1685 0391 D3050000 		.4byte	.LASF113
 1686 0395 05       		.byte	0x5
 1687 0396 BD02     		.2byte	0x2bd
 1688 0398 C1000000 		.4byte	0xc1
 1689 039c 00       		.byte	0
 1690 039d 0D       		.uleb128 0xd
 1691 039e 46050000 		.4byte	.LASF114
 1692 03a2 05       		.byte	0x5
 1693 03a3 BE02     		.2byte	0x2be
 1694 03a5 C1000000 		.4byte	0xc1
 1695 03a9 04       		.byte	0x4
 1696 03aa 0D       		.uleb128 0xd
 1697 03ab 9C050000 		.4byte	.LASF115
 1698 03af 05       		.byte	0x5
 1699 03b0 BF02     		.2byte	0x2bf
ARM GAS  C:\Users\jsyoon\AppData\Local\Temp\cc0LyeEE.s 			page 31


 1700 03b2 C1000000 		.4byte	0xc1
 1701 03b6 08       		.byte	0x8
 1702 03b7 0D       		.uleb128 0xd
 1703 03b8 0B0A0000 		.4byte	.LASF116
 1704 03bc 05       		.byte	0x5
 1705 03bd C002     		.2byte	0x2c0
 1706 03bf C1000000 		.4byte	0xc1
 1707 03c3 0C       		.byte	0xc
 1708 03c4 00       		.byte	0
 1709 03c5 0E       		.uleb128 0xe
 1710 03c6 EF030000 		.4byte	.LASF117
 1711 03ca 05       		.byte	0x5
 1712 03cb C102     		.2byte	0x2c1
 1713 03cd 87030000 		.4byte	0x387
 1714 03d1 0B       		.uleb128 0xb
 1715 03d2 90       		.byte	0x90
 1716 03d3 05       		.byte	0x5
 1717 03d4 5804     		.2byte	0x458
 1718 03d6 7A050000 		.4byte	0x57a
 1719 03da 0C       		.uleb128 0xc
 1720 03db 435200   		.ascii	"CR\000"
 1721 03de 05       		.byte	0x5
 1722 03df 5A04     		.2byte	0x45a
 1723 03e1 C1000000 		.4byte	0xc1
 1724 03e5 00       		.byte	0
 1725 03e6 0D       		.uleb128 0xd
 1726 03e7 73030000 		.4byte	.LASF118
 1727 03eb 05       		.byte	0x5
 1728 03ec 5B04     		.2byte	0x45b
 1729 03ee C1000000 		.4byte	0xc1
 1730 03f2 04       		.byte	0x4
 1731 03f3 0D       		.uleb128 0xd
 1732 03f4 FF000000 		.4byte	.LASF119
 1733 03f8 05       		.byte	0x5
 1734 03f9 5C04     		.2byte	0x45c
 1735 03fb C1000000 		.4byte	0xc1
 1736 03ff 08       		.byte	0x8
 1737 0400 0C       		.uleb128 0xc
 1738 0401 43495200 		.ascii	"CIR\000"
 1739 0405 05       		.byte	0x5
 1740 0406 5D04     		.2byte	0x45d
 1741 0408 C1000000 		.4byte	0xc1
 1742 040c 0C       		.byte	0xc
 1743 040d 0D       		.uleb128 0xd
 1744 040e 63010000 		.4byte	.LASF120
 1745 0412 05       		.byte	0x5
 1746 0413 5E04     		.2byte	0x45e
 1747 0415 C1000000 		.4byte	0xc1
 1748 0419 10       		.byte	0x10
 1749 041a 0D       		.uleb128 0xd
 1750 041b 91080000 		.4byte	.LASF121
 1751 041f 05       		.byte	0x5
 1752 0420 5F04     		.2byte	0x45f
 1753 0422 C1000000 		.4byte	0xc1
 1754 0426 14       		.byte	0x14
 1755 0427 0D       		.uleb128 0xd
 1756 0428 F2040000 		.4byte	.LASF122
ARM GAS  C:\Users\jsyoon\AppData\Local\Temp\cc0LyeEE.s 			page 32


 1757 042c 05       		.byte	0x5
 1758 042d 6004     		.2byte	0x460
 1759 042f C1000000 		.4byte	0xc1
 1760 0433 18       		.byte	0x18
 1761 0434 0D       		.uleb128 0xd
 1762 0435 68060000 		.4byte	.LASF123
 1763 0439 05       		.byte	0x5
 1764 043a 6104     		.2byte	0x461
 1765 043c A2000000 		.4byte	0xa2
 1766 0440 1C       		.byte	0x1c
 1767 0441 0D       		.uleb128 0xd
 1768 0442 3D060000 		.4byte	.LASF124
 1769 0446 05       		.byte	0x5
 1770 0447 6204     		.2byte	0x462
 1771 0449 C1000000 		.4byte	0xc1
 1772 044d 20       		.byte	0x20
 1773 044e 0D       		.uleb128 0xd
 1774 044f C0010000 		.4byte	.LASF125
 1775 0453 05       		.byte	0x5
 1776 0454 6304     		.2byte	0x463
 1777 0456 C1000000 		.4byte	0xc1
 1778 045a 24       		.byte	0x24
 1779 045b 0D       		.uleb128 0xd
 1780 045c 72060000 		.4byte	.LASF126
 1781 0460 05       		.byte	0x5
 1782 0461 6404     		.2byte	0x464
 1783 0463 0F030000 		.4byte	0x30f
 1784 0467 28       		.byte	0x28
 1785 0468 0D       		.uleb128 0xd
 1786 0469 E7030000 		.4byte	.LASF127
 1787 046d 05       		.byte	0x5
 1788 046e 6504     		.2byte	0x465
 1789 0470 C1000000 		.4byte	0xc1
 1790 0474 30       		.byte	0x30
 1791 0475 0D       		.uleb128 0xd
 1792 0476 E3080000 		.4byte	.LASF128
 1793 047a 05       		.byte	0x5
 1794 047b 6604     		.2byte	0x466
 1795 047d C1000000 		.4byte	0xc1
 1796 0481 34       		.byte	0x34
 1797 0482 0D       		.uleb128 0xd
 1798 0483 B3070000 		.4byte	.LASF129
 1799 0487 05       		.byte	0x5
 1800 0488 6704     		.2byte	0x467
 1801 048a C1000000 		.4byte	0xc1
 1802 048e 38       		.byte	0x38
 1803 048f 0D       		.uleb128 0xd
 1804 0490 7C060000 		.4byte	.LASF130
 1805 0494 05       		.byte	0x5
 1806 0495 6804     		.2byte	0x468
 1807 0497 A2000000 		.4byte	0xa2
 1808 049b 3C       		.byte	0x3c
 1809 049c 0D       		.uleb128 0xd
 1810 049d 34080000 		.4byte	.LASF131
 1811 04a1 05       		.byte	0x5
 1812 04a2 6904     		.2byte	0x469
 1813 04a4 C1000000 		.4byte	0xc1
ARM GAS  C:\Users\jsyoon\AppData\Local\Temp\cc0LyeEE.s 			page 33


 1814 04a8 40       		.byte	0x40
 1815 04a9 0D       		.uleb128 0xd
 1816 04aa AB070000 		.4byte	.LASF132
 1817 04ae 05       		.byte	0x5
 1818 04af 6A04     		.2byte	0x46a
 1819 04b1 C1000000 		.4byte	0xc1
 1820 04b5 44       		.byte	0x44
 1821 04b6 0D       		.uleb128 0xd
 1822 04b7 86060000 		.4byte	.LASF133
 1823 04bb 05       		.byte	0x5
 1824 04bc 6B04     		.2byte	0x46b
 1825 04be 0F030000 		.4byte	0x30f
 1826 04c2 48       		.byte	0x48
 1827 04c3 0D       		.uleb128 0xd
 1828 04c4 18010000 		.4byte	.LASF134
 1829 04c8 05       		.byte	0x5
 1830 04c9 6C04     		.2byte	0x46c
 1831 04cb C1000000 		.4byte	0xc1
 1832 04cf 50       		.byte	0x50
 1833 04d0 0D       		.uleb128 0xd
 1834 04d1 CD060000 		.4byte	.LASF135
 1835 04d5 05       		.byte	0x5
 1836 04d6 6D04     		.2byte	0x46d
 1837 04d8 C1000000 		.4byte	0xc1
 1838 04dc 54       		.byte	0x54
 1839 04dd 0D       		.uleb128 0xd
 1840 04de 7E070000 		.4byte	.LASF136
 1841 04e2 05       		.byte	0x5
 1842 04e3 6E04     		.2byte	0x46e
 1843 04e5 C1000000 		.4byte	0xc1
 1844 04e9 58       		.byte	0x58
 1845 04ea 0D       		.uleb128 0xd
 1846 04eb 0C090000 		.4byte	.LASF137
 1847 04ef 05       		.byte	0x5
 1848 04f0 6F04     		.2byte	0x46f
 1849 04f2 A2000000 		.4byte	0xa2
 1850 04f6 5C       		.byte	0x5c
 1851 04f7 0D       		.uleb128 0xd
 1852 04f8 10000000 		.4byte	.LASF138
 1853 04fc 05       		.byte	0x5
 1854 04fd 7004     		.2byte	0x470
 1855 04ff C1000000 		.4byte	0xc1
 1856 0503 60       		.byte	0x60
 1857 0504 0D       		.uleb128 0xd
 1858 0505 4B050000 		.4byte	.LASF139
 1859 0509 05       		.byte	0x5
 1860 050a 7104     		.2byte	0x471
 1861 050c C1000000 		.4byte	0xc1
 1862 0510 64       		.byte	0x64
 1863 0511 0D       		.uleb128 0xd
 1864 0512 9C060000 		.4byte	.LASF140
 1865 0516 05       		.byte	0x5
 1866 0517 7204     		.2byte	0x472
 1867 0519 0F030000 		.4byte	0x30f
 1868 051d 68       		.byte	0x68
 1869 051e 0D       		.uleb128 0xd
 1870 051f 63090000 		.4byte	.LASF141
ARM GAS  C:\Users\jsyoon\AppData\Local\Temp\cc0LyeEE.s 			page 34


 1871 0523 05       		.byte	0x5
 1872 0524 7304     		.2byte	0x473
 1873 0526 C1000000 		.4byte	0xc1
 1874 052a 70       		.byte	0x70
 1875 052b 0C       		.uleb128 0xc
 1876 052c 43535200 		.ascii	"CSR\000"
 1877 0530 05       		.byte	0x5
 1878 0531 7404     		.2byte	0x474
 1879 0533 C1000000 		.4byte	0xc1
 1880 0537 74       		.byte	0x74
 1881 0538 0D       		.uleb128 0xd
 1882 0539 A6060000 		.4byte	.LASF142
 1883 053d 05       		.byte	0x5
 1884 053e 7504     		.2byte	0x475
 1885 0540 0F030000 		.4byte	0x30f
 1886 0544 78       		.byte	0x78
 1887 0545 0D       		.uleb128 0xd
 1888 0546 3F090000 		.4byte	.LASF143
 1889 054a 05       		.byte	0x5
 1890 054b 7604     		.2byte	0x476
 1891 054d C1000000 		.4byte	0xc1
 1892 0551 80       		.byte	0x80
 1893 0552 0D       		.uleb128 0xd
 1894 0553 DA040000 		.4byte	.LASF144
 1895 0557 05       		.byte	0x5
 1896 0558 7704     		.2byte	0x477
 1897 055a C1000000 		.4byte	0xc1
 1898 055e 84       		.byte	0x84
 1899 055f 0D       		.uleb128 0xd
 1900 0560 0A050000 		.4byte	.LASF145
 1901 0564 05       		.byte	0x5
 1902 0565 7804     		.2byte	0x478
 1903 0567 C1000000 		.4byte	0xc1
 1904 056b 88       		.byte	0x88
 1905 056c 0D       		.uleb128 0xd
 1906 056d 33010000 		.4byte	.LASF146
 1907 0571 05       		.byte	0x5
 1908 0572 7904     		.2byte	0x479
 1909 0574 C1000000 		.4byte	0xc1
 1910 0578 8C       		.byte	0x8c
 1911 0579 00       		.byte	0
 1912 057a 0E       		.uleb128 0xe
 1913 057b 82040000 		.4byte	.LASF147
 1914 057f 05       		.byte	0x5
 1915 0580 7B04     		.2byte	0x47b
 1916 0582 D1030000 		.4byte	0x3d1
 1917 0586 0F       		.uleb128 0xf
 1918 0587 0C       		.byte	0xc
 1919 0588 06       		.byte	0x6
 1920 0589 DA       		.byte	0xda
 1921 058a CB050000 		.4byte	0x5cb
 1922 058e 10       		.uleb128 0x10
 1923 058f 96000000 		.4byte	.LASF148
 1924 0593 06       		.byte	0x6
 1925 0594 DB       		.byte	0xdb
 1926 0595 CB050000 		.4byte	0x5cb
 1927 0599 00       		.byte	0
ARM GAS  C:\Users\jsyoon\AppData\Local\Temp\cc0LyeEE.s 			page 35


 1928 059a 10       		.uleb128 0x10
 1929 059b C6070000 		.4byte	.LASF149
 1930 059f 06       		.byte	0x6
 1931 05a0 DC       		.byte	0xdc
 1932 05a1 D1050000 		.4byte	0x5d1
 1933 05a5 04       		.byte	0x4
 1934 05a6 10       		.uleb128 0x10
 1935 05a7 8E040000 		.4byte	.LASF150
 1936 05ab 06       		.byte	0x6
 1937 05ac DD       		.byte	0xdd
 1938 05ad 8C000000 		.4byte	0x8c
 1939 05b1 08       		.byte	0x8
 1940 05b2 10       		.uleb128 0x10
 1941 05b3 BA030000 		.4byte	.LASF151
 1942 05b7 06       		.byte	0x6
 1943 05b8 DF       		.byte	0xdf
 1944 05b9 8C000000 		.4byte	0x8c
 1945 05bd 09       		.byte	0x9
 1946 05be 10       		.uleb128 0x10
 1947 05bf BE000000 		.4byte	.LASF152
 1948 05c3 06       		.byte	0x6
 1949 05c4 E0       		.byte	0xe0
 1950 05c5 8C000000 		.4byte	0x8c
 1951 05c9 0A       		.byte	0xa
 1952 05ca 00       		.byte	0
 1953 05cb 11       		.uleb128 0x11
 1954 05cc 04       		.byte	0x4
 1955 05cd 7B030000 		.4byte	0x37b
 1956 05d1 11       		.uleb128 0x11
 1957 05d2 04       		.byte	0x4
 1958 05d3 C1000000 		.4byte	0xc1
 1959 05d7 04       		.uleb128 0x4
 1960 05d8 B0060000 		.4byte	.LASF153
 1961 05dc 06       		.byte	0x6
 1962 05dd E1       		.byte	0xe1
 1963 05de 86050000 		.4byte	0x586
 1964 05e2 04       		.uleb128 0x4
 1965 05e3 54040000 		.4byte	.LASF154
 1966 05e7 06       		.byte	0x6
 1967 05e8 EA       		.byte	0xea
 1968 05e9 ED050000 		.4byte	0x5ed
 1969 05ed 11       		.uleb128 0x11
 1970 05ee 04       		.byte	0x4
 1971 05ef F3050000 		.4byte	0x5f3
 1972 05f3 12       		.uleb128 0x12
 1973 05f4 03060000 		.4byte	0x603
 1974 05f8 13       		.uleb128 0x13
 1975 05f9 BF000000 		.4byte	0xbf
 1976 05fd 13       		.uleb128 0x13
 1977 05fe A2000000 		.4byte	0xa2
 1978 0602 00       		.byte	0
 1979 0603 11       		.uleb128 0x11
 1980 0604 04       		.byte	0x4
 1981 0605 09060000 		.4byte	0x609
 1982 0609 14       		.uleb128 0x14
 1983 060a D7050000 		.4byte	0x5d7
 1984 060e 0F       		.uleb128 0xf
ARM GAS  C:\Users\jsyoon\AppData\Local\Temp\cc0LyeEE.s 			page 36


 1985 060f 08       		.byte	0x8
 1986 0610 01       		.byte	0x1
 1987 0611 64       		.byte	0x64
 1988 0612 2F060000 		.4byte	0x62f
 1989 0616 10       		.uleb128 0x10
 1990 0617 34060000 		.4byte	.LASF155
 1991 061b 01       		.byte	0x1
 1992 061c 65       		.byte	0x65
 1993 061d E2050000 		.4byte	0x5e2
 1994 0621 00       		.byte	0
 1995 0622 10       		.uleb128 0x10
 1996 0623 86030000 		.4byte	.LASF156
 1997 0627 01       		.byte	0x1
 1998 0628 66       		.byte	0x66
 1999 0629 BF000000 		.4byte	0xbf
 2000 062d 04       		.byte	0x4
 2001 062e 00       		.byte	0
 2002 062f 04       		.uleb128 0x4
 2003 0630 00000000 		.4byte	.LASF157
 2004 0634 01       		.byte	0x1
 2005 0635 67       		.byte	0x67
 2006 0636 0E060000 		.4byte	0x60e
 2007 063a 15       		.uleb128 0x15
 2008 063b D7060000 		.4byte	.LASF158
 2009 063f 01       		.byte	0x1
 2010 0640 80       		.byte	0x80
 2011 0641 00000000 		.4byte	.LFB118
 2012 0645 28000000 		.4byte	.LFE118-.LFB118
 2013 0649 01       		.uleb128 0x1
 2014 064a 9C       		.byte	0x9c
 2015 064b 68060000 		.4byte	0x668
 2016 064f 16       		.uleb128 0x16
 2017 0650 83090000 		.4byte	.LASF160
 2018 0654 01       		.byte	0x1
 2019 0655 81       		.byte	0x81
 2020 0656 A2000000 		.4byte	0xa2
 2021 065a 00000000 		.4byte	.LLST0
 2022 065e 17       		.uleb128 0x17
 2023 065f 1E000000 		.4byte	.LVL2
 2024 0663 510A0000 		.4byte	0xa51
 2025 0667 00       		.byte	0
 2026 0668 15       		.uleb128 0x15
 2027 0669 CB070000 		.4byte	.LASF159
 2028 066d 01       		.byte	0x1
 2029 066e 92       		.byte	0x92
 2030 066f 00000000 		.4byte	.LFB119
 2031 0673 2C000000 		.4byte	.LFE119-.LFB119
 2032 0677 01       		.uleb128 0x1
 2033 0678 9C       		.byte	0x9c
 2034 0679 96060000 		.4byte	0x696
 2035 067d 16       		.uleb128 0x16
 2036 067e 83090000 		.4byte	.LASF160
 2037 0682 01       		.byte	0x1
 2038 0683 93       		.byte	0x93
 2039 0684 A2000000 		.4byte	0xa2
 2040 0688 13000000 		.4byte	.LLST1
 2041 068c 17       		.uleb128 0x17
ARM GAS  C:\Users\jsyoon\AppData\Local\Temp\cc0LyeEE.s 			page 37


 2042 068d 22000000 		.4byte	.LVL5
 2043 0691 510A0000 		.4byte	0xa51
 2044 0695 00       		.byte	0
 2045 0696 15       		.uleb128 0x15
 2046 0697 09080000 		.4byte	.LASF161
 2047 069b 01       		.byte	0x1
 2048 069c A4       		.byte	0xa4
 2049 069d 00000000 		.4byte	.LFB120
 2050 06a1 2C000000 		.4byte	.LFE120-.LFB120
 2051 06a5 01       		.uleb128 0x1
 2052 06a6 9C       		.byte	0x9c
 2053 06a7 C4060000 		.4byte	0x6c4
 2054 06ab 16       		.uleb128 0x16
 2055 06ac 83090000 		.4byte	.LASF160
 2056 06b0 01       		.byte	0x1
 2057 06b1 A5       		.byte	0xa5
 2058 06b2 A2000000 		.4byte	0xa2
 2059 06b6 26000000 		.4byte	.LLST2
 2060 06ba 17       		.uleb128 0x17
 2061 06bb 22000000 		.4byte	.LVL8
 2062 06bf 510A0000 		.4byte	0xa51
 2063 06c3 00       		.byte	0
 2064 06c4 15       		.uleb128 0x15
 2065 06c5 2B080000 		.4byte	.LASF162
 2066 06c9 01       		.byte	0x1
 2067 06ca B6       		.byte	0xb6
 2068 06cb 00000000 		.4byte	.LFB121
 2069 06cf 2C000000 		.4byte	.LFE121-.LFB121
 2070 06d3 01       		.uleb128 0x1
 2071 06d4 9C       		.byte	0x9c
 2072 06d5 F2060000 		.4byte	0x6f2
 2073 06d9 16       		.uleb128 0x16
 2074 06da 83090000 		.4byte	.LASF160
 2075 06de 01       		.byte	0x1
 2076 06df B7       		.byte	0xb7
 2077 06e0 A2000000 		.4byte	0xa2
 2078 06e4 39000000 		.4byte	.LLST3
 2079 06e8 17       		.uleb128 0x17
 2080 06e9 22000000 		.4byte	.LVL11
 2081 06ed 510A0000 		.4byte	0xa51
 2082 06f1 00       		.byte	0
 2083 06f2 15       		.uleb128 0x15
 2084 06f3 7E080000 		.4byte	.LASF163
 2085 06f7 01       		.byte	0x1
 2086 06f8 C8       		.byte	0xc8
 2087 06f9 00000000 		.4byte	.LFB122
 2088 06fd 28000000 		.4byte	.LFE122-.LFB122
 2089 0701 01       		.uleb128 0x1
 2090 0702 9C       		.byte	0x9c
 2091 0703 20070000 		.4byte	0x720
 2092 0707 16       		.uleb128 0x16
 2093 0708 83090000 		.4byte	.LASF160
 2094 070c 01       		.byte	0x1
 2095 070d C9       		.byte	0xc9
 2096 070e A2000000 		.4byte	0xa2
 2097 0712 4C000000 		.4byte	.LLST4
 2098 0716 17       		.uleb128 0x17
ARM GAS  C:\Users\jsyoon\AppData\Local\Temp\cc0LyeEE.s 			page 38


 2099 0717 1E000000 		.4byte	.LVL14
 2100 071b 510A0000 		.4byte	0xa51
 2101 071f 00       		.byte	0
 2102 0720 15       		.uleb128 0x15
 2103 0721 2D090000 		.4byte	.LASF164
 2104 0725 01       		.byte	0x1
 2105 0726 DA       		.byte	0xda
 2106 0727 00000000 		.4byte	.LFB123
 2107 072b 2C000000 		.4byte	.LFE123-.LFB123
 2108 072f 01       		.uleb128 0x1
 2109 0730 9C       		.byte	0x9c
 2110 0731 4E070000 		.4byte	0x74e
 2111 0735 16       		.uleb128 0x16
 2112 0736 83090000 		.4byte	.LASF160
 2113 073a 01       		.byte	0x1
 2114 073b DB       		.byte	0xdb
 2115 073c A2000000 		.4byte	0xa2
 2116 0740 5F000000 		.4byte	.LLST5
 2117 0744 17       		.uleb128 0x17
 2118 0745 22000000 		.4byte	.LVL17
 2119 0749 510A0000 		.4byte	0xa51
 2120 074d 00       		.byte	0
 2121 074e 15       		.uleb128 0x15
 2122 074f 45090000 		.4byte	.LASF165
 2123 0753 01       		.byte	0x1
 2124 0754 EC       		.byte	0xec
 2125 0755 00000000 		.4byte	.LFB124
 2126 0759 2C000000 		.4byte	.LFE124-.LFB124
 2127 075d 01       		.uleb128 0x1
 2128 075e 9C       		.byte	0x9c
 2129 075f 7C070000 		.4byte	0x77c
 2130 0763 16       		.uleb128 0x16
 2131 0764 83090000 		.4byte	.LASF160
 2132 0768 01       		.byte	0x1
 2133 0769 ED       		.byte	0xed
 2134 076a A2000000 		.4byte	0xa2
 2135 076e 72000000 		.4byte	.LLST6
 2136 0772 17       		.uleb128 0x17
 2137 0773 22000000 		.4byte	.LVL20
 2138 0777 510A0000 		.4byte	0xa51
 2139 077b 00       		.byte	0
 2140 077c 15       		.uleb128 0x15
 2141 077d 12080000 		.4byte	.LASF166
 2142 0781 01       		.byte	0x1
 2143 0782 FE       		.byte	0xfe
 2144 0783 00000000 		.4byte	.LFB125
 2145 0787 2C000000 		.4byte	.LFE125-.LFB125
 2146 078b 01       		.uleb128 0x1
 2147 078c 9C       		.byte	0x9c
 2148 078d AA070000 		.4byte	0x7aa
 2149 0791 16       		.uleb128 0x16
 2150 0792 83090000 		.4byte	.LASF160
 2151 0796 01       		.byte	0x1
 2152 0797 FF       		.byte	0xff
 2153 0798 A2000000 		.4byte	0xa2
 2154 079c 85000000 		.4byte	.LLST7
 2155 07a0 17       		.uleb128 0x17
ARM GAS  C:\Users\jsyoon\AppData\Local\Temp\cc0LyeEE.s 			page 39


 2156 07a1 22000000 		.4byte	.LVL23
 2157 07a5 510A0000 		.4byte	0xa51
 2158 07a9 00       		.byte	0
 2159 07aa 18       		.uleb128 0x18
 2160 07ab A0090000 		.4byte	.LASF167
 2161 07af 01       		.byte	0x1
 2162 07b0 1001     		.2byte	0x110
 2163 07b2 00000000 		.4byte	.LFB126
 2164 07b6 28000000 		.4byte	.LFE126-.LFB126
 2165 07ba 01       		.uleb128 0x1
 2166 07bb 9C       		.byte	0x9c
 2167 07bc DA070000 		.4byte	0x7da
 2168 07c0 19       		.uleb128 0x19
 2169 07c1 83090000 		.4byte	.LASF160
 2170 07c5 01       		.byte	0x1
 2171 07c6 1101     		.2byte	0x111
 2172 07c8 A2000000 		.4byte	0xa2
 2173 07cc 98000000 		.4byte	.LLST8
 2174 07d0 17       		.uleb128 0x17
 2175 07d1 1E000000 		.4byte	.LVL26
 2176 07d5 510A0000 		.4byte	0xa51
 2177 07d9 00       		.byte	0
 2178 07da 18       		.uleb128 0x18
 2179 07db C5090000 		.4byte	.LASF168
 2180 07df 01       		.byte	0x1
 2181 07e0 2201     		.2byte	0x122
 2182 07e2 00000000 		.4byte	.LFB127
 2183 07e6 2C000000 		.4byte	.LFE127-.LFB127
 2184 07ea 01       		.uleb128 0x1
 2185 07eb 9C       		.byte	0x9c
 2186 07ec 0A080000 		.4byte	0x80a
 2187 07f0 19       		.uleb128 0x19
 2188 07f1 83090000 		.4byte	.LASF160
 2189 07f5 01       		.byte	0x1
 2190 07f6 2301     		.2byte	0x123
 2191 07f8 A2000000 		.4byte	0xa2
 2192 07fc AB000000 		.4byte	.LLST9
 2193 0800 17       		.uleb128 0x17
 2194 0801 22000000 		.4byte	.LVL29
 2195 0805 510A0000 		.4byte	0xa51
 2196 0809 00       		.byte	0
 2197 080a 18       		.uleb128 0x18
 2198 080b CF090000 		.4byte	.LASF169
 2199 080f 01       		.byte	0x1
 2200 0810 3401     		.2byte	0x134
 2201 0812 00000000 		.4byte	.LFB128
 2202 0816 2C000000 		.4byte	.LFE128-.LFB128
 2203 081a 01       		.uleb128 0x1
 2204 081b 9C       		.byte	0x9c
 2205 081c 3A080000 		.4byte	0x83a
 2206 0820 19       		.uleb128 0x19
 2207 0821 83090000 		.4byte	.LASF160
 2208 0825 01       		.byte	0x1
 2209 0826 3501     		.2byte	0x135
 2210 0828 A2000000 		.4byte	0xa2
 2211 082c BE000000 		.4byte	.LLST10
 2212 0830 17       		.uleb128 0x17
ARM GAS  C:\Users\jsyoon\AppData\Local\Temp\cc0LyeEE.s 			page 40


 2213 0831 22000000 		.4byte	.LVL32
 2214 0835 510A0000 		.4byte	0xa51
 2215 0839 00       		.byte	0
 2216 083a 18       		.uleb128 0x18
 2217 083b 010A0000 		.4byte	.LASF170
 2218 083f 01       		.byte	0x1
 2219 0840 4601     		.2byte	0x146
 2220 0842 00000000 		.4byte	.LFB129
 2221 0846 2C000000 		.4byte	.LFE129-.LFB129
 2222 084a 01       		.uleb128 0x1
 2223 084b 9C       		.byte	0x9c
 2224 084c 6A080000 		.4byte	0x86a
 2225 0850 19       		.uleb128 0x19
 2226 0851 83090000 		.4byte	.LASF160
 2227 0855 01       		.byte	0x1
 2228 0856 4701     		.2byte	0x147
 2229 0858 A2000000 		.4byte	0xa2
 2230 085c D1000000 		.4byte	.LLST11
 2231 0860 17       		.uleb128 0x17
 2232 0861 22000000 		.4byte	.LVL35
 2233 0865 510A0000 		.4byte	0xa51
 2234 0869 00       		.byte	0
 2235 086a 18       		.uleb128 0x18
 2236 086b 8C000000 		.4byte	.LASF171
 2237 086f 01       		.byte	0x1
 2238 0870 5801     		.2byte	0x158
 2239 0872 00000000 		.4byte	.LFB130
 2240 0876 28000000 		.4byte	.LFE130-.LFB130
 2241 087a 01       		.uleb128 0x1
 2242 087b 9C       		.byte	0x9c
 2243 087c 9A080000 		.4byte	0x89a
 2244 0880 19       		.uleb128 0x19
 2245 0881 83090000 		.4byte	.LASF160
 2246 0885 01       		.byte	0x1
 2247 0886 5901     		.2byte	0x159
 2248 0888 A2000000 		.4byte	0xa2
 2249 088c E4000000 		.4byte	.LLST12
 2250 0890 17       		.uleb128 0x17
 2251 0891 1E000000 		.4byte	.LVL38
 2252 0895 510A0000 		.4byte	0xa51
 2253 0899 00       		.byte	0
 2254 089a 18       		.uleb128 0x18
 2255 089b 12040000 		.4byte	.LASF172
 2256 089f 01       		.byte	0x1
 2257 08a0 6A01     		.2byte	0x16a
 2258 08a2 00000000 		.4byte	.LFB131
 2259 08a6 2C000000 		.4byte	.LFE131-.LFB131
 2260 08aa 01       		.uleb128 0x1
 2261 08ab 9C       		.byte	0x9c
 2262 08ac CA080000 		.4byte	0x8ca
 2263 08b0 19       		.uleb128 0x19
 2264 08b1 83090000 		.4byte	.LASF160
 2265 08b5 01       		.byte	0x1
 2266 08b6 6B01     		.2byte	0x16b
 2267 08b8 A2000000 		.4byte	0xa2
 2268 08bc F7000000 		.4byte	.LLST13
 2269 08c0 17       		.uleb128 0x17
ARM GAS  C:\Users\jsyoon\AppData\Local\Temp\cc0LyeEE.s 			page 41


 2270 08c1 22000000 		.4byte	.LVL41
 2271 08c5 510A0000 		.4byte	0xa51
 2272 08c9 00       		.byte	0
 2273 08ca 18       		.uleb128 0x18
 2274 08cb 40040000 		.4byte	.LASF173
 2275 08cf 01       		.byte	0x1
 2276 08d0 7C01     		.2byte	0x17c
 2277 08d2 00000000 		.4byte	.LFB132
 2278 08d6 2C000000 		.4byte	.LFE132-.LFB132
 2279 08da 01       		.uleb128 0x1
 2280 08db 9C       		.byte	0x9c
 2281 08dc FA080000 		.4byte	0x8fa
 2282 08e0 19       		.uleb128 0x19
 2283 08e1 83090000 		.4byte	.LASF160
 2284 08e5 01       		.byte	0x1
 2285 08e6 7D01     		.2byte	0x17d
 2286 08e8 A2000000 		.4byte	0xa2
 2287 08ec 0A010000 		.4byte	.LLST14
 2288 08f0 17       		.uleb128 0x17
 2289 08f1 22000000 		.4byte	.LVL44
 2290 08f5 510A0000 		.4byte	0xa51
 2291 08f9 00       		.byte	0
 2292 08fa 18       		.uleb128 0x18
 2293 08fb 4A040000 		.4byte	.LASF174
 2294 08ff 01       		.byte	0x1
 2295 0900 8E01     		.2byte	0x18e
 2296 0902 00000000 		.4byte	.LFB133
 2297 0906 2C000000 		.4byte	.LFE133-.LFB133
 2298 090a 01       		.uleb128 0x1
 2299 090b 9C       		.byte	0x9c
 2300 090c 2A090000 		.4byte	0x92a
 2301 0910 19       		.uleb128 0x19
 2302 0911 83090000 		.4byte	.LASF160
 2303 0915 01       		.byte	0x1
 2304 0916 8F01     		.2byte	0x18f
 2305 0918 A2000000 		.4byte	0xa2
 2306 091c 1D010000 		.4byte	.LLST15
 2307 0920 17       		.uleb128 0x17
 2308 0921 22000000 		.4byte	.LVL47
 2309 0925 510A0000 		.4byte	0xa51
 2310 0929 00       		.byte	0
 2311 092a 1A       		.uleb128 0x1a
 2312 092b 4E080000 		.4byte	.LASF175
 2313 092f 01       		.byte	0x1
 2314 0930 A401     		.2byte	0x1a4
 2315 0932 00000000 		.4byte	.LFB134
 2316 0936 48000000 		.4byte	.LFE134-.LFB134
 2317 093a 01       		.uleb128 0x1
 2318 093b 9C       		.byte	0x9c
 2319 093c 4F090000 		.4byte	0x94f
 2320 0940 1B       		.uleb128 0x1b
 2321 0941 6900     		.ascii	"i\000"
 2322 0943 01       		.byte	0x1
 2323 0944 A501     		.2byte	0x1a5
 2324 0946 25000000 		.4byte	0x25
 2325 094a 30010000 		.4byte	.LLST16
 2326 094e 00       		.byte	0
ARM GAS  C:\Users\jsyoon\AppData\Local\Temp\cc0LyeEE.s 			page 42


 2327 094f 1C       		.uleb128 0x1c
 2328 0950 1F0A0000 		.4byte	.LASF189
 2329 0954 01       		.byte	0x1
 2330 0955 CA01     		.2byte	0x1ca
 2331 0957 AD000000 		.4byte	0xad
 2332 095b 00000000 		.4byte	.LFB135
 2333 095f 98000000 		.4byte	.LFE135-.LFB135
 2334 0963 01       		.uleb128 0x1
 2335 0964 9C       		.byte	0x9c
 2336 0965 BD090000 		.4byte	0x9bd
 2337 0969 1D       		.uleb128 0x1d
 2338 096a 80010000 		.4byte	.LASF176
 2339 096e 01       		.byte	0x1
 2340 096f CA01     		.2byte	0x1ca
 2341 0971 03060000 		.4byte	0x603
 2342 0975 44010000 		.4byte	.LLST17
 2343 0979 1D       		.uleb128 0x1d
 2344 097a 31050000 		.4byte	.LASF177
 2345 097e 01       		.byte	0x1
 2346 097f CB01     		.2byte	0x1cb
 2347 0981 A2000000 		.4byte	0xa2
 2348 0985 97010000 		.4byte	.LLST18
 2349 0989 1D       		.uleb128 0x1d
 2350 098a FA000000 		.4byte	.LASF178
 2351 098e 01       		.byte	0x1
 2352 098f CC01     		.2byte	0x1cc
 2353 0991 E2050000 		.4byte	0x5e2
 2354 0995 C3010000 		.4byte	.LLST19
 2355 0999 1D       		.uleb128 0x1d
 2356 099a E4050000 		.4byte	.LASF179
 2357 099e 01       		.byte	0x1
 2358 099f CD01     		.2byte	0x1cd
 2359 09a1 BF000000 		.4byte	0xbf
 2360 09a5 EF010000 		.4byte	.LLST20
 2361 09a9 1E       		.uleb128 0x1e
 2362 09aa 6C000000 		.4byte	.LVL54
 2363 09ae 590A0000 		.4byte	0xa59
 2364 09b2 1F       		.uleb128 0x1f
 2365 09b3 01       		.uleb128 0x1
 2366 09b4 51       		.byte	0x51
 2367 09b5 05       		.uleb128 0x5
 2368 09b6 F3       		.byte	0xf3
 2369 09b7 01       		.uleb128 0x1
 2370 09b8 51       		.byte	0x51
 2371 09b9 34       		.byte	0x34
 2372 09ba 24       		.byte	0x24
 2373 09bb 00       		.byte	0
 2374 09bc 00       		.byte	0
 2375 09bd 1A       		.uleb128 0x1a
 2376 09be 6D080000 		.4byte	.LASF180
 2377 09c2 01       		.byte	0x1
 2378 09c3 F901     		.2byte	0x1f9
 2379 09c5 00000000 		.4byte	.LFB136
 2380 09c9 48000000 		.4byte	.LFE136-.LFB136
 2381 09cd 01       		.uleb128 0x1
 2382 09ce 9C       		.byte	0x9c
 2383 09cf ED090000 		.4byte	0x9ed
ARM GAS  C:\Users\jsyoon\AppData\Local\Temp\cc0LyeEE.s 			page 43


 2384 09d3 1D       		.uleb128 0x1d
 2385 09d4 80010000 		.4byte	.LASF176
 2386 09d8 01       		.byte	0x1
 2387 09d9 F901     		.2byte	0x1f9
 2388 09db 03060000 		.4byte	0x603
 2389 09df 4D020000 		.4byte	.LLST21
 2390 09e3 20       		.uleb128 0x20
 2391 09e4 0A000000 		.4byte	.LVL63
 2392 09e8 700A0000 		.4byte	0xa70
 2393 09ec 00       		.byte	0
 2394 09ed 21       		.uleb128 0x21
 2395 09ee FB080000 		.4byte	.LASF181
 2396 09f2 01       		.byte	0x1
 2397 09f3 6C       		.byte	0x6c
 2398 09f4 A2000000 		.4byte	0xa2
 2399 09f8 05       		.uleb128 0x5
 2400 09f9 03       		.byte	0x3
 2401 09fa 00000000 		.4byte	dma_streams_mask
 2402 09fe 09       		.uleb128 0x9
 2403 09ff 2F060000 		.4byte	0x62f
 2404 0a03 0E0A0000 		.4byte	0xa0e
 2405 0a07 0A       		.uleb128 0xa
 2406 0a08 C6000000 		.4byte	0xc6
 2407 0a0c 0F       		.byte	0xf
 2408 0a0d 00       		.byte	0
 2409 0a0e 21       		.uleb128 0x21
 2410 0a0f 92090000 		.4byte	.LASF182
 2411 0a13 01       		.byte	0x1
 2412 0a14 71       		.byte	0x71
 2413 0a15 FE090000 		.4byte	0x9fe
 2414 0a19 05       		.uleb128 0x5
 2415 0a1a 03       		.byte	0x3
 2416 0a1b 00000000 		.4byte	dma_isr_redir
 2417 0a1f 22       		.uleb128 0x22
 2418 0a20 37070000 		.4byte	.LASF183
 2419 0a24 07       		.byte	0x7
 2420 0a25 9806     		.2byte	0x698
 2421 0a27 1F030000 		.4byte	0x31f
 2422 0a2b 09       		.uleb128 0x9
 2423 0a2c D7050000 		.4byte	0x5d7
 2424 0a30 3B0A0000 		.4byte	0xa3b
 2425 0a34 0A       		.uleb128 0xa
 2426 0a35 C6000000 		.4byte	0xc6
 2427 0a39 0F       		.byte	0xf
 2428 0a3a 00       		.byte	0
 2429 0a3b 23       		.uleb128 0x23
 2430 0a3c C5000000 		.4byte	.LASF184
 2431 0a40 01       		.byte	0x1
 2432 0a41 4A       		.byte	0x4a
 2433 0a42 4C0A0000 		.4byte	0xa4c
 2434 0a46 05       		.uleb128 0x5
 2435 0a47 03       		.byte	0x3
 2436 0a48 00000000 		.4byte	_stm32_dma_streams
 2437 0a4c 14       		.uleb128 0x14
 2438 0a4d 2B0A0000 		.4byte	0xa2b
 2439 0a51 24       		.uleb128 0x24
 2440 0a52 68090000 		.4byte	.LASF190
ARM GAS  C:\Users\jsyoon\AppData\Local\Temp\cc0LyeEE.s 			page 44


 2441 0a56 08       		.byte	0x8
 2442 0a57 0302     		.2byte	0x203
 2443 0a59 25       		.uleb128 0x25
 2444 0a5a 22010000 		.4byte	.LASF191
 2445 0a5e 09       		.byte	0x9
 2446 0a5f 2301     		.2byte	0x123
 2447 0a61 700A0000 		.4byte	0xa70
 2448 0a65 13       		.uleb128 0x13
 2449 0a66 A2000000 		.4byte	0xa2
 2450 0a6a 13       		.uleb128 0x13
 2451 0a6b A2000000 		.4byte	0xa2
 2452 0a6f 00       		.byte	0
 2453 0a70 26       		.uleb128 0x26
 2454 0a71 3C080000 		.4byte	.LASF192
 2455 0a75 09       		.byte	0x9
 2456 0a76 2401     		.2byte	0x124
 2457 0a78 13       		.uleb128 0x13
 2458 0a79 A2000000 		.4byte	0xa2
 2459 0a7d 00       		.byte	0
 2460 0a7e 00       		.byte	0
 2461              		.section	.debug_abbrev,"",%progbits
 2462              	.Ldebug_abbrev0:
 2463 0000 01       		.uleb128 0x1
 2464 0001 11       		.uleb128 0x11
 2465 0002 01       		.byte	0x1
 2466 0003 25       		.uleb128 0x25
 2467 0004 0E       		.uleb128 0xe
 2468 0005 13       		.uleb128 0x13
 2469 0006 0B       		.uleb128 0xb
 2470 0007 03       		.uleb128 0x3
 2471 0008 0E       		.uleb128 0xe
 2472 0009 1B       		.uleb128 0x1b
 2473 000a 0E       		.uleb128 0xe
 2474 000b 55       		.uleb128 0x55
 2475 000c 17       		.uleb128 0x17
 2476 000d 11       		.uleb128 0x11
 2477 000e 01       		.uleb128 0x1
 2478 000f 10       		.uleb128 0x10
 2479 0010 17       		.uleb128 0x17
 2480 0011 00       		.byte	0
 2481 0012 00       		.byte	0
 2482 0013 02       		.uleb128 0x2
 2483 0014 24       		.uleb128 0x24
 2484 0015 00       		.byte	0
 2485 0016 0B       		.uleb128 0xb
 2486 0017 0B       		.uleb128 0xb
 2487 0018 3E       		.uleb128 0x3e
 2488 0019 0B       		.uleb128 0xb
 2489 001a 03       		.uleb128 0x3
 2490 001b 08       		.uleb128 0x8
 2491 001c 00       		.byte	0
 2492 001d 00       		.byte	0
 2493 001e 03       		.uleb128 0x3
 2494 001f 24       		.uleb128 0x24
 2495 0020 00       		.byte	0
 2496 0021 0B       		.uleb128 0xb
 2497 0022 0B       		.uleb128 0xb
ARM GAS  C:\Users\jsyoon\AppData\Local\Temp\cc0LyeEE.s 			page 45


 2498 0023 3E       		.uleb128 0x3e
 2499 0024 0B       		.uleb128 0xb
 2500 0025 03       		.uleb128 0x3
 2501 0026 0E       		.uleb128 0xe
 2502 0027 00       		.byte	0
 2503 0028 00       		.byte	0
 2504 0029 04       		.uleb128 0x4
 2505 002a 16       		.uleb128 0x16
 2506 002b 00       		.byte	0
 2507 002c 03       		.uleb128 0x3
 2508 002d 0E       		.uleb128 0xe
 2509 002e 3A       		.uleb128 0x3a
 2510 002f 0B       		.uleb128 0xb
 2511 0030 3B       		.uleb128 0x3b
 2512 0031 0B       		.uleb128 0xb
 2513 0032 49       		.uleb128 0x49
 2514 0033 13       		.uleb128 0x13
 2515 0034 00       		.byte	0
 2516 0035 00       		.byte	0
 2517 0036 05       		.uleb128 0x5
 2518 0037 0F       		.uleb128 0xf
 2519 0038 00       		.byte	0
 2520 0039 0B       		.uleb128 0xb
 2521 003a 0B       		.uleb128 0xb
 2522 003b 00       		.byte	0
 2523 003c 00       		.byte	0
 2524 003d 06       		.uleb128 0x6
 2525 003e 35       		.uleb128 0x35
 2526 003f 00       		.byte	0
 2527 0040 49       		.uleb128 0x49
 2528 0041 13       		.uleb128 0x13
 2529 0042 00       		.byte	0
 2530 0043 00       		.byte	0
 2531 0044 07       		.uleb128 0x7
 2532 0045 04       		.uleb128 0x4
 2533 0046 01       		.byte	0x1
 2534 0047 03       		.uleb128 0x3
 2535 0048 0E       		.uleb128 0xe
 2536 0049 0B       		.uleb128 0xb
 2537 004a 0B       		.uleb128 0xb
 2538 004b 3A       		.uleb128 0x3a
 2539 004c 0B       		.uleb128 0xb
 2540 004d 3B       		.uleb128 0x3b
 2541 004e 0B       		.uleb128 0xb
 2542 004f 01       		.uleb128 0x1
 2543 0050 13       		.uleb128 0x13
 2544 0051 00       		.byte	0
 2545 0052 00       		.byte	0
 2546 0053 08       		.uleb128 0x8
 2547 0054 28       		.uleb128 0x28
 2548 0055 00       		.byte	0
 2549 0056 03       		.uleb128 0x3
 2550 0057 0E       		.uleb128 0xe
 2551 0058 1C       		.uleb128 0x1c
 2552 0059 0D       		.uleb128 0xd
 2553 005a 00       		.byte	0
 2554 005b 00       		.byte	0
ARM GAS  C:\Users\jsyoon\AppData\Local\Temp\cc0LyeEE.s 			page 46


 2555 005c 09       		.uleb128 0x9
 2556 005d 01       		.uleb128 0x1
 2557 005e 01       		.byte	0x1
 2558 005f 49       		.uleb128 0x49
 2559 0060 13       		.uleb128 0x13
 2560 0061 01       		.uleb128 0x1
 2561 0062 13       		.uleb128 0x13
 2562 0063 00       		.byte	0
 2563 0064 00       		.byte	0
 2564 0065 0A       		.uleb128 0xa
 2565 0066 21       		.uleb128 0x21
 2566 0067 00       		.byte	0
 2567 0068 49       		.uleb128 0x49
 2568 0069 13       		.uleb128 0x13
 2569 006a 2F       		.uleb128 0x2f
 2570 006b 0B       		.uleb128 0xb
 2571 006c 00       		.byte	0
 2572 006d 00       		.byte	0
 2573 006e 0B       		.uleb128 0xb
 2574 006f 13       		.uleb128 0x13
 2575 0070 01       		.byte	0x1
 2576 0071 0B       		.uleb128 0xb
 2577 0072 0B       		.uleb128 0xb
 2578 0073 3A       		.uleb128 0x3a
 2579 0074 0B       		.uleb128 0xb
 2580 0075 3B       		.uleb128 0x3b
 2581 0076 05       		.uleb128 0x5
 2582 0077 01       		.uleb128 0x1
 2583 0078 13       		.uleb128 0x13
 2584 0079 00       		.byte	0
 2585 007a 00       		.byte	0
 2586 007b 0C       		.uleb128 0xc
 2587 007c 0D       		.uleb128 0xd
 2588 007d 00       		.byte	0
 2589 007e 03       		.uleb128 0x3
 2590 007f 08       		.uleb128 0x8
 2591 0080 3A       		.uleb128 0x3a
 2592 0081 0B       		.uleb128 0xb
 2593 0082 3B       		.uleb128 0x3b
 2594 0083 05       		.uleb128 0x5
 2595 0084 49       		.uleb128 0x49
 2596 0085 13       		.uleb128 0x13
 2597 0086 38       		.uleb128 0x38
 2598 0087 0B       		.uleb128 0xb
 2599 0088 00       		.byte	0
 2600 0089 00       		.byte	0
 2601 008a 0D       		.uleb128 0xd
 2602 008b 0D       		.uleb128 0xd
 2603 008c 00       		.byte	0
 2604 008d 03       		.uleb128 0x3
 2605 008e 0E       		.uleb128 0xe
 2606 008f 3A       		.uleb128 0x3a
 2607 0090 0B       		.uleb128 0xb
 2608 0091 3B       		.uleb128 0x3b
 2609 0092 05       		.uleb128 0x5
 2610 0093 49       		.uleb128 0x49
 2611 0094 13       		.uleb128 0x13
ARM GAS  C:\Users\jsyoon\AppData\Local\Temp\cc0LyeEE.s 			page 47


 2612 0095 38       		.uleb128 0x38
 2613 0096 0B       		.uleb128 0xb
 2614 0097 00       		.byte	0
 2615 0098 00       		.byte	0
 2616 0099 0E       		.uleb128 0xe
 2617 009a 16       		.uleb128 0x16
 2618 009b 00       		.byte	0
 2619 009c 03       		.uleb128 0x3
 2620 009d 0E       		.uleb128 0xe
 2621 009e 3A       		.uleb128 0x3a
 2622 009f 0B       		.uleb128 0xb
 2623 00a0 3B       		.uleb128 0x3b
 2624 00a1 05       		.uleb128 0x5
 2625 00a2 49       		.uleb128 0x49
 2626 00a3 13       		.uleb128 0x13
 2627 00a4 00       		.byte	0
 2628 00a5 00       		.byte	0
 2629 00a6 0F       		.uleb128 0xf
 2630 00a7 13       		.uleb128 0x13
 2631 00a8 01       		.byte	0x1
 2632 00a9 0B       		.uleb128 0xb
 2633 00aa 0B       		.uleb128 0xb
 2634 00ab 3A       		.uleb128 0x3a
 2635 00ac 0B       		.uleb128 0xb
 2636 00ad 3B       		.uleb128 0x3b
 2637 00ae 0B       		.uleb128 0xb
 2638 00af 01       		.uleb128 0x1
 2639 00b0 13       		.uleb128 0x13
 2640 00b1 00       		.byte	0
 2641 00b2 00       		.byte	0
 2642 00b3 10       		.uleb128 0x10
 2643 00b4 0D       		.uleb128 0xd
 2644 00b5 00       		.byte	0
 2645 00b6 03       		.uleb128 0x3
 2646 00b7 0E       		.uleb128 0xe
 2647 00b8 3A       		.uleb128 0x3a
 2648 00b9 0B       		.uleb128 0xb
 2649 00ba 3B       		.uleb128 0x3b
 2650 00bb 0B       		.uleb128 0xb
 2651 00bc 49       		.uleb128 0x49
 2652 00bd 13       		.uleb128 0x13
 2653 00be 38       		.uleb128 0x38
 2654 00bf 0B       		.uleb128 0xb
 2655 00c0 00       		.byte	0
 2656 00c1 00       		.byte	0
 2657 00c2 11       		.uleb128 0x11
 2658 00c3 0F       		.uleb128 0xf
 2659 00c4 00       		.byte	0
 2660 00c5 0B       		.uleb128 0xb
 2661 00c6 0B       		.uleb128 0xb
 2662 00c7 49       		.uleb128 0x49
 2663 00c8 13       		.uleb128 0x13
 2664 00c9 00       		.byte	0
 2665 00ca 00       		.byte	0
 2666 00cb 12       		.uleb128 0x12
 2667 00cc 15       		.uleb128 0x15
 2668 00cd 01       		.byte	0x1
ARM GAS  C:\Users\jsyoon\AppData\Local\Temp\cc0LyeEE.s 			page 48


 2669 00ce 27       		.uleb128 0x27
 2670 00cf 19       		.uleb128 0x19
 2671 00d0 01       		.uleb128 0x1
 2672 00d1 13       		.uleb128 0x13
 2673 00d2 00       		.byte	0
 2674 00d3 00       		.byte	0
 2675 00d4 13       		.uleb128 0x13
 2676 00d5 05       		.uleb128 0x5
 2677 00d6 00       		.byte	0
 2678 00d7 49       		.uleb128 0x49
 2679 00d8 13       		.uleb128 0x13
 2680 00d9 00       		.byte	0
 2681 00da 00       		.byte	0
 2682 00db 14       		.uleb128 0x14
 2683 00dc 26       		.uleb128 0x26
 2684 00dd 00       		.byte	0
 2685 00de 49       		.uleb128 0x49
 2686 00df 13       		.uleb128 0x13
 2687 00e0 00       		.byte	0
 2688 00e1 00       		.byte	0
 2689 00e2 15       		.uleb128 0x15
 2690 00e3 2E       		.uleb128 0x2e
 2691 00e4 01       		.byte	0x1
 2692 00e5 3F       		.uleb128 0x3f
 2693 00e6 19       		.uleb128 0x19
 2694 00e7 03       		.uleb128 0x3
 2695 00e8 0E       		.uleb128 0xe
 2696 00e9 3A       		.uleb128 0x3a
 2697 00ea 0B       		.uleb128 0xb
 2698 00eb 3B       		.uleb128 0x3b
 2699 00ec 0B       		.uleb128 0xb
 2700 00ed 27       		.uleb128 0x27
 2701 00ee 19       		.uleb128 0x19
 2702 00ef 11       		.uleb128 0x11
 2703 00f0 01       		.uleb128 0x1
 2704 00f1 12       		.uleb128 0x12
 2705 00f2 06       		.uleb128 0x6
 2706 00f3 40       		.uleb128 0x40
 2707 00f4 18       		.uleb128 0x18
 2708 00f5 9642     		.uleb128 0x2116
 2709 00f7 19       		.uleb128 0x19
 2710 00f8 01       		.uleb128 0x1
 2711 00f9 13       		.uleb128 0x13
 2712 00fa 00       		.byte	0
 2713 00fb 00       		.byte	0
 2714 00fc 16       		.uleb128 0x16
 2715 00fd 34       		.uleb128 0x34
 2716 00fe 00       		.byte	0
 2717 00ff 03       		.uleb128 0x3
 2718 0100 0E       		.uleb128 0xe
 2719 0101 3A       		.uleb128 0x3a
 2720 0102 0B       		.uleb128 0xb
 2721 0103 3B       		.uleb128 0x3b
 2722 0104 0B       		.uleb128 0xb
 2723 0105 49       		.uleb128 0x49
 2724 0106 13       		.uleb128 0x13
 2725 0107 02       		.uleb128 0x2
ARM GAS  C:\Users\jsyoon\AppData\Local\Temp\cc0LyeEE.s 			page 49


 2726 0108 17       		.uleb128 0x17
 2727 0109 00       		.byte	0
 2728 010a 00       		.byte	0
 2729 010b 17       		.uleb128 0x17
 2730 010c 898201   		.uleb128 0x4109
 2731 010f 00       		.byte	0
 2732 0110 11       		.uleb128 0x11
 2733 0111 01       		.uleb128 0x1
 2734 0112 9542     		.uleb128 0x2115
 2735 0114 19       		.uleb128 0x19
 2736 0115 31       		.uleb128 0x31
 2737 0116 13       		.uleb128 0x13
 2738 0117 00       		.byte	0
 2739 0118 00       		.byte	0
 2740 0119 18       		.uleb128 0x18
 2741 011a 2E       		.uleb128 0x2e
 2742 011b 01       		.byte	0x1
 2743 011c 3F       		.uleb128 0x3f
 2744 011d 19       		.uleb128 0x19
 2745 011e 03       		.uleb128 0x3
 2746 011f 0E       		.uleb128 0xe
 2747 0120 3A       		.uleb128 0x3a
 2748 0121 0B       		.uleb128 0xb
 2749 0122 3B       		.uleb128 0x3b
 2750 0123 05       		.uleb128 0x5
 2751 0124 27       		.uleb128 0x27
 2752 0125 19       		.uleb128 0x19
 2753 0126 11       		.uleb128 0x11
 2754 0127 01       		.uleb128 0x1
 2755 0128 12       		.uleb128 0x12
 2756 0129 06       		.uleb128 0x6
 2757 012a 40       		.uleb128 0x40
 2758 012b 18       		.uleb128 0x18
 2759 012c 9642     		.uleb128 0x2116
 2760 012e 19       		.uleb128 0x19
 2761 012f 01       		.uleb128 0x1
 2762 0130 13       		.uleb128 0x13
 2763 0131 00       		.byte	0
 2764 0132 00       		.byte	0
 2765 0133 19       		.uleb128 0x19
 2766 0134 34       		.uleb128 0x34
 2767 0135 00       		.byte	0
 2768 0136 03       		.uleb128 0x3
 2769 0137 0E       		.uleb128 0xe
 2770 0138 3A       		.uleb128 0x3a
 2771 0139 0B       		.uleb128 0xb
 2772 013a 3B       		.uleb128 0x3b
 2773 013b 05       		.uleb128 0x5
 2774 013c 49       		.uleb128 0x49
 2775 013d 13       		.uleb128 0x13
 2776 013e 02       		.uleb128 0x2
 2777 013f 17       		.uleb128 0x17
 2778 0140 00       		.byte	0
 2779 0141 00       		.byte	0
 2780 0142 1A       		.uleb128 0x1a
 2781 0143 2E       		.uleb128 0x2e
 2782 0144 01       		.byte	0x1
ARM GAS  C:\Users\jsyoon\AppData\Local\Temp\cc0LyeEE.s 			page 50


 2783 0145 3F       		.uleb128 0x3f
 2784 0146 19       		.uleb128 0x19
 2785 0147 03       		.uleb128 0x3
 2786 0148 0E       		.uleb128 0xe
 2787 0149 3A       		.uleb128 0x3a
 2788 014a 0B       		.uleb128 0xb
 2789 014b 3B       		.uleb128 0x3b
 2790 014c 05       		.uleb128 0x5
 2791 014d 27       		.uleb128 0x27
 2792 014e 19       		.uleb128 0x19
 2793 014f 11       		.uleb128 0x11
 2794 0150 01       		.uleb128 0x1
 2795 0151 12       		.uleb128 0x12
 2796 0152 06       		.uleb128 0x6
 2797 0153 40       		.uleb128 0x40
 2798 0154 18       		.uleb128 0x18
 2799 0155 9742     		.uleb128 0x2117
 2800 0157 19       		.uleb128 0x19
 2801 0158 01       		.uleb128 0x1
 2802 0159 13       		.uleb128 0x13
 2803 015a 00       		.byte	0
 2804 015b 00       		.byte	0
 2805 015c 1B       		.uleb128 0x1b
 2806 015d 34       		.uleb128 0x34
 2807 015e 00       		.byte	0
 2808 015f 03       		.uleb128 0x3
 2809 0160 08       		.uleb128 0x8
 2810 0161 3A       		.uleb128 0x3a
 2811 0162 0B       		.uleb128 0xb
 2812 0163 3B       		.uleb128 0x3b
 2813 0164 05       		.uleb128 0x5
 2814 0165 49       		.uleb128 0x49
 2815 0166 13       		.uleb128 0x13
 2816 0167 02       		.uleb128 0x2
 2817 0168 17       		.uleb128 0x17
 2818 0169 00       		.byte	0
 2819 016a 00       		.byte	0
 2820 016b 1C       		.uleb128 0x1c
 2821 016c 2E       		.uleb128 0x2e
 2822 016d 01       		.byte	0x1
 2823 016e 3F       		.uleb128 0x3f
 2824 016f 19       		.uleb128 0x19
 2825 0170 03       		.uleb128 0x3
 2826 0171 0E       		.uleb128 0xe
 2827 0172 3A       		.uleb128 0x3a
 2828 0173 0B       		.uleb128 0xb
 2829 0174 3B       		.uleb128 0x3b
 2830 0175 05       		.uleb128 0x5
 2831 0176 27       		.uleb128 0x27
 2832 0177 19       		.uleb128 0x19
 2833 0178 49       		.uleb128 0x49
 2834 0179 13       		.uleb128 0x13
 2835 017a 11       		.uleb128 0x11
 2836 017b 01       		.uleb128 0x1
 2837 017c 12       		.uleb128 0x12
 2838 017d 06       		.uleb128 0x6
 2839 017e 40       		.uleb128 0x40
ARM GAS  C:\Users\jsyoon\AppData\Local\Temp\cc0LyeEE.s 			page 51


 2840 017f 18       		.uleb128 0x18
 2841 0180 9742     		.uleb128 0x2117
 2842 0182 19       		.uleb128 0x19
 2843 0183 01       		.uleb128 0x1
 2844 0184 13       		.uleb128 0x13
 2845 0185 00       		.byte	0
 2846 0186 00       		.byte	0
 2847 0187 1D       		.uleb128 0x1d
 2848 0188 05       		.uleb128 0x5
 2849 0189 00       		.byte	0
 2850 018a 03       		.uleb128 0x3
 2851 018b 0E       		.uleb128 0xe
 2852 018c 3A       		.uleb128 0x3a
 2853 018d 0B       		.uleb128 0xb
 2854 018e 3B       		.uleb128 0x3b
 2855 018f 05       		.uleb128 0x5
 2856 0190 49       		.uleb128 0x49
 2857 0191 13       		.uleb128 0x13
 2858 0192 02       		.uleb128 0x2
 2859 0193 17       		.uleb128 0x17
 2860 0194 00       		.byte	0
 2861 0195 00       		.byte	0
 2862 0196 1E       		.uleb128 0x1e
 2863 0197 898201   		.uleb128 0x4109
 2864 019a 01       		.byte	0x1
 2865 019b 11       		.uleb128 0x11
 2866 019c 01       		.uleb128 0x1
 2867 019d 31       		.uleb128 0x31
 2868 019e 13       		.uleb128 0x13
 2869 019f 00       		.byte	0
 2870 01a0 00       		.byte	0
 2871 01a1 1F       		.uleb128 0x1f
 2872 01a2 8A8201   		.uleb128 0x410a
 2873 01a5 00       		.byte	0
 2874 01a6 02       		.uleb128 0x2
 2875 01a7 18       		.uleb128 0x18
 2876 01a8 9142     		.uleb128 0x2111
 2877 01aa 18       		.uleb128 0x18
 2878 01ab 00       		.byte	0
 2879 01ac 00       		.byte	0
 2880 01ad 20       		.uleb128 0x20
 2881 01ae 898201   		.uleb128 0x4109
 2882 01b1 00       		.byte	0
 2883 01b2 11       		.uleb128 0x11
 2884 01b3 01       		.uleb128 0x1
 2885 01b4 31       		.uleb128 0x31
 2886 01b5 13       		.uleb128 0x13
 2887 01b6 00       		.byte	0
 2888 01b7 00       		.byte	0
 2889 01b8 21       		.uleb128 0x21
 2890 01b9 34       		.uleb128 0x34
 2891 01ba 00       		.byte	0
 2892 01bb 03       		.uleb128 0x3
 2893 01bc 0E       		.uleb128 0xe
 2894 01bd 3A       		.uleb128 0x3a
 2895 01be 0B       		.uleb128 0xb
 2896 01bf 3B       		.uleb128 0x3b
ARM GAS  C:\Users\jsyoon\AppData\Local\Temp\cc0LyeEE.s 			page 52


 2897 01c0 0B       		.uleb128 0xb
 2898 01c1 49       		.uleb128 0x49
 2899 01c2 13       		.uleb128 0x13
 2900 01c3 02       		.uleb128 0x2
 2901 01c4 18       		.uleb128 0x18
 2902 01c5 00       		.byte	0
 2903 01c6 00       		.byte	0
 2904 01c7 22       		.uleb128 0x22
 2905 01c8 34       		.uleb128 0x34
 2906 01c9 00       		.byte	0
 2907 01ca 03       		.uleb128 0x3
 2908 01cb 0E       		.uleb128 0xe
 2909 01cc 3A       		.uleb128 0x3a
 2910 01cd 0B       		.uleb128 0xb
 2911 01ce 3B       		.uleb128 0x3b
 2912 01cf 05       		.uleb128 0x5
 2913 01d0 49       		.uleb128 0x49
 2914 01d1 13       		.uleb128 0x13
 2915 01d2 3F       		.uleb128 0x3f
 2916 01d3 19       		.uleb128 0x19
 2917 01d4 3C       		.uleb128 0x3c
 2918 01d5 19       		.uleb128 0x19
 2919 01d6 00       		.byte	0
 2920 01d7 00       		.byte	0
 2921 01d8 23       		.uleb128 0x23
 2922 01d9 34       		.uleb128 0x34
 2923 01da 00       		.byte	0
 2924 01db 03       		.uleb128 0x3
 2925 01dc 0E       		.uleb128 0xe
 2926 01dd 3A       		.uleb128 0x3a
 2927 01de 0B       		.uleb128 0xb
 2928 01df 3B       		.uleb128 0x3b
 2929 01e0 0B       		.uleb128 0xb
 2930 01e1 49       		.uleb128 0x49
 2931 01e2 13       		.uleb128 0x13
 2932 01e3 3F       		.uleb128 0x3f
 2933 01e4 19       		.uleb128 0x19
 2934 01e5 02       		.uleb128 0x2
 2935 01e6 18       		.uleb128 0x18
 2936 01e7 00       		.byte	0
 2937 01e8 00       		.byte	0
 2938 01e9 24       		.uleb128 0x24
 2939 01ea 2E       		.uleb128 0x2e
 2940 01eb 00       		.byte	0
 2941 01ec 3F       		.uleb128 0x3f
 2942 01ed 19       		.uleb128 0x19
 2943 01ee 03       		.uleb128 0x3
 2944 01ef 0E       		.uleb128 0xe
 2945 01f0 3A       		.uleb128 0x3a
 2946 01f1 0B       		.uleb128 0xb
 2947 01f2 3B       		.uleb128 0x3b
 2948 01f3 05       		.uleb128 0x5
 2949 01f4 27       		.uleb128 0x27
 2950 01f5 19       		.uleb128 0x19
 2951 01f6 3C       		.uleb128 0x3c
 2952 01f7 19       		.uleb128 0x19
 2953 01f8 00       		.byte	0
ARM GAS  C:\Users\jsyoon\AppData\Local\Temp\cc0LyeEE.s 			page 53


 2954 01f9 00       		.byte	0
 2955 01fa 25       		.uleb128 0x25
 2956 01fb 2E       		.uleb128 0x2e
 2957 01fc 01       		.byte	0x1
 2958 01fd 3F       		.uleb128 0x3f
 2959 01fe 19       		.uleb128 0x19
 2960 01ff 03       		.uleb128 0x3
 2961 0200 0E       		.uleb128 0xe
 2962 0201 3A       		.uleb128 0x3a
 2963 0202 0B       		.uleb128 0xb
 2964 0203 3B       		.uleb128 0x3b
 2965 0204 05       		.uleb128 0x5
 2966 0205 27       		.uleb128 0x27
 2967 0206 19       		.uleb128 0x19
 2968 0207 3C       		.uleb128 0x3c
 2969 0208 19       		.uleb128 0x19
 2970 0209 01       		.uleb128 0x1
 2971 020a 13       		.uleb128 0x13
 2972 020b 00       		.byte	0
 2973 020c 00       		.byte	0
 2974 020d 26       		.uleb128 0x26
 2975 020e 2E       		.uleb128 0x2e
 2976 020f 01       		.byte	0x1
 2977 0210 3F       		.uleb128 0x3f
 2978 0211 19       		.uleb128 0x19
 2979 0212 03       		.uleb128 0x3
 2980 0213 0E       		.uleb128 0xe
 2981 0214 3A       		.uleb128 0x3a
 2982 0215 0B       		.uleb128 0xb
 2983 0216 3B       		.uleb128 0x3b
 2984 0217 05       		.uleb128 0x5
 2985 0218 27       		.uleb128 0x27
 2986 0219 19       		.uleb128 0x19
 2987 021a 3C       		.uleb128 0x3c
 2988 021b 19       		.uleb128 0x19
 2989 021c 00       		.byte	0
 2990 021d 00       		.byte	0
 2991 021e 00       		.byte	0
 2992              		.section	.debug_loc,"",%progbits
 2993              	.Ldebug_loc0:
 2994              	.LLST0:
 2995 0000 0C000000 		.4byte	.LVL0
 2996 0004 15000000 		.4byte	.LVL1-1
 2997 0008 0100     		.2byte	0x1
 2998 000a 51       		.byte	0x51
 2999 000b 00000000 		.4byte	0
 3000 000f 00000000 		.4byte	0
 3001              	.LLST1:
 3002 0013 0E000000 		.4byte	.LVL3
 3003 0017 19000000 		.4byte	.LVL4-1
 3004 001b 0100     		.2byte	0x1
 3005 001d 51       		.byte	0x51
 3006 001e 00000000 		.4byte	0
 3007 0022 00000000 		.4byte	0
 3008              	.LLST2:
 3009 0026 0E000000 		.4byte	.LVL6
 3010 002a 19000000 		.4byte	.LVL7-1
ARM GAS  C:\Users\jsyoon\AppData\Local\Temp\cc0LyeEE.s 			page 54


 3011 002e 0100     		.2byte	0x1
 3012 0030 51       		.byte	0x51
 3013 0031 00000000 		.4byte	0
 3014 0035 00000000 		.4byte	0
 3015              	.LLST3:
 3016 0039 0E000000 		.4byte	.LVL9
 3017 003d 19000000 		.4byte	.LVL10-1
 3018 0041 0100     		.2byte	0x1
 3019 0043 51       		.byte	0x51
 3020 0044 00000000 		.4byte	0
 3021 0048 00000000 		.4byte	0
 3022              	.LLST4:
 3023 004c 0E000000 		.4byte	.LVL12
 3024 0050 15000000 		.4byte	.LVL13-1
 3025 0054 0100     		.2byte	0x1
 3026 0056 51       		.byte	0x51
 3027 0057 00000000 		.4byte	0
 3028 005b 00000000 		.4byte	0
 3029              	.LLST5:
 3030 005f 0E000000 		.4byte	.LVL15
 3031 0063 19000000 		.4byte	.LVL16-1
 3032 0067 0100     		.2byte	0x1
 3033 0069 51       		.byte	0x51
 3034 006a 00000000 		.4byte	0
 3035 006e 00000000 		.4byte	0
 3036              	.LLST6:
 3037 0072 0E000000 		.4byte	.LVL18
 3038 0076 19000000 		.4byte	.LVL19-1
 3039 007a 0100     		.2byte	0x1
 3040 007c 51       		.byte	0x51
 3041 007d 00000000 		.4byte	0
 3042 0081 00000000 		.4byte	0
 3043              	.LLST7:
 3044 0085 0E000000 		.4byte	.LVL21
 3045 0089 19000000 		.4byte	.LVL22-1
 3046 008d 0100     		.2byte	0x1
 3047 008f 51       		.byte	0x51
 3048 0090 00000000 		.4byte	0
 3049 0094 00000000 		.4byte	0
 3050              	.LLST8:
 3051 0098 0E000000 		.4byte	.LVL24
 3052 009c 15000000 		.4byte	.LVL25-1
 3053 00a0 0100     		.2byte	0x1
 3054 00a2 51       		.byte	0x51
 3055 00a3 00000000 		.4byte	0
 3056 00a7 00000000 		.4byte	0
 3057              	.LLST9:
 3058 00ab 0E000000 		.4byte	.LVL27
 3059 00af 19000000 		.4byte	.LVL28-1
 3060 00b3 0100     		.2byte	0x1
 3061 00b5 51       		.byte	0x51
 3062 00b6 00000000 		.4byte	0
 3063 00ba 00000000 		.4byte	0
 3064              	.LLST10:
 3065 00be 0E000000 		.4byte	.LVL30
 3066 00c2 19000000 		.4byte	.LVL31-1
 3067 00c6 0100     		.2byte	0x1
ARM GAS  C:\Users\jsyoon\AppData\Local\Temp\cc0LyeEE.s 			page 55


 3068 00c8 51       		.byte	0x51
 3069 00c9 00000000 		.4byte	0
 3070 00cd 00000000 		.4byte	0
 3071              	.LLST11:
 3072 00d1 0E000000 		.4byte	.LVL33
 3073 00d5 19000000 		.4byte	.LVL34-1
 3074 00d9 0100     		.2byte	0x1
 3075 00db 51       		.byte	0x51
 3076 00dc 00000000 		.4byte	0
 3077 00e0 00000000 		.4byte	0
 3078              	.LLST12:
 3079 00e4 0E000000 		.4byte	.LVL36
 3080 00e8 15000000 		.4byte	.LVL37-1
 3081 00ec 0100     		.2byte	0x1
 3082 00ee 51       		.byte	0x51
 3083 00ef 00000000 		.4byte	0
 3084 00f3 00000000 		.4byte	0
 3085              	.LLST13:
 3086 00f7 0E000000 		.4byte	.LVL39
 3087 00fb 19000000 		.4byte	.LVL40-1
 3088 00ff 0100     		.2byte	0x1
 3089 0101 51       		.byte	0x51
 3090 0102 00000000 		.4byte	0
 3091 0106 00000000 		.4byte	0
 3092              	.LLST14:
 3093 010a 0E000000 		.4byte	.LVL42
 3094 010e 19000000 		.4byte	.LVL43-1
 3095 0112 0100     		.2byte	0x1
 3096 0114 51       		.byte	0x51
 3097 0115 00000000 		.4byte	0
 3098 0119 00000000 		.4byte	0
 3099              	.LLST15:
 3100 011d 0E000000 		.4byte	.LVL45
 3101 0121 19000000 		.4byte	.LVL46-1
 3102 0125 0100     		.2byte	0x1
 3103 0127 51       		.byte	0x51
 3104 0128 00000000 		.4byte	0
 3105 012c 00000000 		.4byte	0
 3106              	.LLST16:
 3107 0130 0C000000 		.4byte	.LVL48
 3108 0134 10000000 		.4byte	.LVL49
 3109 0138 0200     		.2byte	0x2
 3110 013a 30       		.byte	0x30
 3111 013b 9F       		.byte	0x9f
 3112 013c 00000000 		.4byte	0
 3113 0140 00000000 		.4byte	0
 3114              	.LLST17:
 3115 0144 00000000 		.4byte	.LVL50
 3116 0148 66000000 		.4byte	.LVL52
 3117 014c 0100     		.2byte	0x1
 3118 014e 50       		.byte	0x50
 3119 014f 66000000 		.4byte	.LVL52
 3120 0153 72000000 		.4byte	.LVL55
 3121 0157 0400     		.2byte	0x4
 3122 0159 F3       		.byte	0xf3
 3123 015a 01       		.uleb128 0x1
 3124 015b 50       		.byte	0x50
ARM GAS  C:\Users\jsyoon\AppData\Local\Temp\cc0LyeEE.s 			page 56


 3125 015c 9F       		.byte	0x9f
 3126 015d 72000000 		.4byte	.LVL55
 3127 0161 80000000 		.4byte	.LVL57
 3128 0165 0100     		.2byte	0x1
 3129 0167 50       		.byte	0x50
 3130 0168 80000000 		.4byte	.LVL57
 3131 016c 84000000 		.4byte	.LVL58
 3132 0170 0400     		.2byte	0x4
 3133 0172 F3       		.byte	0xf3
 3134 0173 01       		.uleb128 0x1
 3135 0174 50       		.byte	0x50
 3136 0175 9F       		.byte	0x9f
 3137 0176 84000000 		.4byte	.LVL58
 3138 017a 86000000 		.4byte	.LVL59
 3139 017e 0100     		.2byte	0x1
 3140 0180 50       		.byte	0x50
 3141 0181 86000000 		.4byte	.LVL59
 3142 0185 98000000 		.4byte	.LFE135
 3143 0189 0400     		.2byte	0x4
 3144 018b F3       		.byte	0xf3
 3145 018c 01       		.uleb128 0x1
 3146 018d 50       		.byte	0x50
 3147 018e 9F       		.byte	0x9f
 3148 018f 00000000 		.4byte	0
 3149 0193 00000000 		.4byte	0
 3150              	.LLST18:
 3151 0197 00000000 		.4byte	.LVL50
 3152 019b 68000000 		.4byte	.LVL53
 3153 019f 0100     		.2byte	0x1
 3154 01a1 51       		.byte	0x51
 3155 01a2 68000000 		.4byte	.LVL53
 3156 01a6 72000000 		.4byte	.LVL55
 3157 01aa 0400     		.2byte	0x4
 3158 01ac F3       		.byte	0xf3
 3159 01ad 01       		.uleb128 0x1
 3160 01ae 51       		.byte	0x51
 3161 01af 9F       		.byte	0x9f
 3162 01b0 72000000 		.4byte	.LVL55
 3163 01b4 98000000 		.4byte	.LFE135
 3164 01b8 0100     		.2byte	0x1
 3165 01ba 51       		.byte	0x51
 3166 01bb 00000000 		.4byte	0
 3167 01bf 00000000 		.4byte	0
 3168              	.LLST19:
 3169 01c3 00000000 		.4byte	.LVL50
 3170 01c7 6B000000 		.4byte	.LVL54-1
 3171 01cb 0100     		.2byte	0x1
 3172 01cd 52       		.byte	0x52
 3173 01ce 6B000000 		.4byte	.LVL54-1
 3174 01d2 72000000 		.4byte	.LVL55
 3175 01d6 0400     		.2byte	0x4
 3176 01d8 F3       		.byte	0xf3
 3177 01d9 01       		.uleb128 0x1
 3178 01da 52       		.byte	0x52
 3179 01db 9F       		.byte	0x9f
 3180 01dc 72000000 		.4byte	.LVL55
 3181 01e0 98000000 		.4byte	.LFE135
ARM GAS  C:\Users\jsyoon\AppData\Local\Temp\cc0LyeEE.s 			page 57


 3182 01e4 0100     		.2byte	0x1
 3183 01e6 52       		.byte	0x52
 3184 01e7 00000000 		.4byte	0
 3185 01eb 00000000 		.4byte	0
 3186              	.LLST20:
 3187 01ef 00000000 		.4byte	.LVL50
 3188 01f3 32000000 		.4byte	.LVL51
 3189 01f7 0100     		.2byte	0x1
 3190 01f9 53       		.byte	0x53
 3191 01fa 32000000 		.4byte	.LVL51
 3192 01fe 6B000000 		.4byte	.LVL54-1
 3193 0202 0200     		.2byte	0x2
 3194 0204 78       		.byte	0x78
 3195 0205 04       		.sleb128 4
 3196 0206 6B000000 		.4byte	.LVL54-1
 3197 020a 72000000 		.4byte	.LVL55
 3198 020e 0400     		.2byte	0x4
 3199 0210 F3       		.byte	0xf3
 3200 0211 01       		.uleb128 0x1
 3201 0212 53       		.byte	0x53
 3202 0213 9F       		.byte	0x9f
 3203 0214 72000000 		.4byte	.LVL55
 3204 0218 7E000000 		.4byte	.LVL56
 3205 021c 0200     		.2byte	0x2
 3206 021e 78       		.byte	0x78
 3207 021f 04       		.sleb128 4
 3208 0220 7E000000 		.4byte	.LVL56
 3209 0224 84000000 		.4byte	.LVL58
 3210 0228 0100     		.2byte	0x1
 3211 022a 53       		.byte	0x53
 3212 022b 84000000 		.4byte	.LVL58
 3213 022f 8A000000 		.4byte	.LVL60
 3214 0233 0200     		.2byte	0x2
 3215 0235 78       		.byte	0x78
 3216 0236 04       		.sleb128 4
 3217 0237 8A000000 		.4byte	.LVL60
 3218 023b 98000000 		.4byte	.LFE135
 3219 023f 0400     		.2byte	0x4
 3220 0241 F3       		.byte	0xf3
 3221 0242 01       		.uleb128 0x1
 3222 0243 53       		.byte	0x53
 3223 0244 9F       		.byte	0x9f
 3224 0245 00000000 		.4byte	0
 3225 0249 00000000 		.4byte	0
 3226              	.LLST21:
 3227 024d 00000000 		.4byte	.LVL61
 3228 0251 06000000 		.4byte	.LVL62
 3229 0255 0100     		.2byte	0x1
 3230 0257 50       		.byte	0x50
 3231 0258 06000000 		.4byte	.LVL62
 3232 025c 3E000000 		.4byte	.LVL64
 3233 0260 0100     		.2byte	0x1
 3234 0262 54       		.byte	0x54
 3235 0263 3E000000 		.4byte	.LVL64
 3236 0267 48000000 		.4byte	.LFE136
 3237 026b 0400     		.2byte	0x4
 3238 026d F3       		.byte	0xf3
ARM GAS  C:\Users\jsyoon\AppData\Local\Temp\cc0LyeEE.s 			page 58


 3239 026e 01       		.uleb128 0x1
 3240 026f 50       		.byte	0x50
 3241 0270 9F       		.byte	0x9f
 3242 0271 00000000 		.4byte	0
 3243 0275 00000000 		.4byte	0
 3244              		.section	.debug_aranges,"",%progbits
 3245 0000 AC000000 		.4byte	0xac
 3246 0004 0200     		.2byte	0x2
 3247 0006 00000000 		.4byte	.Ldebug_info0
 3248 000a 04       		.byte	0x4
 3249 000b 00       		.byte	0
 3250 000c 0000     		.2byte	0
 3251 000e 0000     		.2byte	0
 3252 0010 00000000 		.4byte	.LFB118
 3253 0014 28000000 		.4byte	.LFE118-.LFB118
 3254 0018 00000000 		.4byte	.LFB119
 3255 001c 2C000000 		.4byte	.LFE119-.LFB119
 3256 0020 00000000 		.4byte	.LFB120
 3257 0024 2C000000 		.4byte	.LFE120-.LFB120
 3258 0028 00000000 		.4byte	.LFB121
 3259 002c 2C000000 		.4byte	.LFE121-.LFB121
 3260 0030 00000000 		.4byte	.LFB122
 3261 0034 28000000 		.4byte	.LFE122-.LFB122
 3262 0038 00000000 		.4byte	.LFB123
 3263 003c 2C000000 		.4byte	.LFE123-.LFB123
 3264 0040 00000000 		.4byte	.LFB124
 3265 0044 2C000000 		.4byte	.LFE124-.LFB124
 3266 0048 00000000 		.4byte	.LFB125
 3267 004c 2C000000 		.4byte	.LFE125-.LFB125
 3268 0050 00000000 		.4byte	.LFB126
 3269 0054 28000000 		.4byte	.LFE126-.LFB126
 3270 0058 00000000 		.4byte	.LFB127
 3271 005c 2C000000 		.4byte	.LFE127-.LFB127
 3272 0060 00000000 		.4byte	.LFB128
 3273 0064 2C000000 		.4byte	.LFE128-.LFB128
 3274 0068 00000000 		.4byte	.LFB129
 3275 006c 2C000000 		.4byte	.LFE129-.LFB129
 3276 0070 00000000 		.4byte	.LFB130
 3277 0074 28000000 		.4byte	.LFE130-.LFB130
 3278 0078 00000000 		.4byte	.LFB131
 3279 007c 2C000000 		.4byte	.LFE131-.LFB131
 3280 0080 00000000 		.4byte	.LFB132
 3281 0084 2C000000 		.4byte	.LFE132-.LFB132
 3282 0088 00000000 		.4byte	.LFB133
 3283 008c 2C000000 		.4byte	.LFE133-.LFB133
 3284 0090 00000000 		.4byte	.LFB134
 3285 0094 48000000 		.4byte	.LFE134-.LFB134
 3286 0098 00000000 		.4byte	.LFB135
 3287 009c 98000000 		.4byte	.LFE135-.LFB135
 3288 00a0 00000000 		.4byte	.LFB136
 3289 00a4 48000000 		.4byte	.LFE136-.LFB136
 3290 00a8 00000000 		.4byte	0
 3291 00ac 00000000 		.4byte	0
 3292              		.section	.debug_ranges,"",%progbits
 3293              	.Ldebug_ranges0:
 3294 0000 00000000 		.4byte	.LFB118
 3295 0004 28000000 		.4byte	.LFE118
ARM GAS  C:\Users\jsyoon\AppData\Local\Temp\cc0LyeEE.s 			page 59


 3296 0008 00000000 		.4byte	.LFB119
 3297 000c 2C000000 		.4byte	.LFE119
 3298 0010 00000000 		.4byte	.LFB120
 3299 0014 2C000000 		.4byte	.LFE120
 3300 0018 00000000 		.4byte	.LFB121
 3301 001c 2C000000 		.4byte	.LFE121
 3302 0020 00000000 		.4byte	.LFB122
 3303 0024 28000000 		.4byte	.LFE122
 3304 0028 00000000 		.4byte	.LFB123
 3305 002c 2C000000 		.4byte	.LFE123
 3306 0030 00000000 		.4byte	.LFB124
 3307 0034 2C000000 		.4byte	.LFE124
 3308 0038 00000000 		.4byte	.LFB125
 3309 003c 2C000000 		.4byte	.LFE125
 3310 0040 00000000 		.4byte	.LFB126
 3311 0044 28000000 		.4byte	.LFE126
 3312 0048 00000000 		.4byte	.LFB127
 3313 004c 2C000000 		.4byte	.LFE127
 3314 0050 00000000 		.4byte	.LFB128
 3315 0054 2C000000 		.4byte	.LFE128
 3316 0058 00000000 		.4byte	.LFB129
 3317 005c 2C000000 		.4byte	.LFE129
 3318 0060 00000000 		.4byte	.LFB130
 3319 0064 28000000 		.4byte	.LFE130
 3320 0068 00000000 		.4byte	.LFB131
 3321 006c 2C000000 		.4byte	.LFE131
 3322 0070 00000000 		.4byte	.LFB132
 3323 0074 2C000000 		.4byte	.LFE132
 3324 0078 00000000 		.4byte	.LFB133
 3325 007c 2C000000 		.4byte	.LFE133
 3326 0080 00000000 		.4byte	.LFB134
 3327 0084 48000000 		.4byte	.LFE134
 3328 0088 00000000 		.4byte	.LFB135
 3329 008c 98000000 		.4byte	.LFE135
 3330 0090 00000000 		.4byte	.LFB136
 3331 0094 48000000 		.4byte	.LFE136
 3332 0098 00000000 		.4byte	0
 3333 009c 00000000 		.4byte	0
 3334              		.section	.debug_line,"",%progbits
 3335              	.Ldebug_line0:
 3336 0000 0E040000 		.section	.debug_str,"MS",%progbits,1
 3336      0200C001 
 3336      00000201 
 3336      FB0E0D00 
 3336      01010101 
 3337              	.LASF157:
 3338 0000 646D615F 		.ascii	"dma_isr_redir_t\000"
 3338      6973725F 
 3338      72656469 
 3338      725F7400 
 3339              	.LASF138:
 3340 0010 41504231 		.ascii	"APB1LPENR\000"
 3340      4C50454E 
 3340      5200
 3341              	.LASF47:
 3342 001a 43414E31 		.ascii	"CAN1_RX0_IRQn\000"
 3342      5F525830 
ARM GAS  C:\Users\jsyoon\AppData\Local\Temp\cc0LyeEE.s 			page 60


 3342      5F495251 
 3342      6E00
 3343              	.LASF28:
 3344 0028 5056445F 		.ascii	"PVD_IRQn\000"
 3344      4952516E 
 3344      00
 3345              	.LASF91:
 3346 0031 43414E32 		.ascii	"CAN2_RX0_IRQn\000"
 3346      5F525830 
 3346      5F495251 
 3346      6E00
 3347              	.LASF110:
 3348 003f 4D304152 		.ascii	"M0AR\000"
 3348      00
 3349              	.LASF96:
 3350 0044 444D4132 		.ascii	"DMA2_Stream6_IRQn\000"
 3350      5F537472 
 3350      65616D36 
 3350      5F495251 
 3350      6E00
 3351              	.LASF100:
 3352 0056 49324333 		.ascii	"I2C3_ER_IRQn\000"
 3352      5F45525F 
 3352      4952516E 
 3352      00
 3353              	.LASF58:
 3354 0063 49324331 		.ascii	"I2C1_EV_IRQn\000"
 3354      5F45565F 
 3354      4952516E 
 3354      00
 3355              	.LASF5:
 3356 0070 5F5F7569 		.ascii	"__uint8_t\000"
 3356      6E74385F 
 3356      7400
 3357              	.LASF95:
 3358 007a 444D4132 		.ascii	"DMA2_Stream5_IRQn\000"
 3358      5F537472 
 3358      65616D35 
 3358      5F495251 
 3358      6E00
 3359              	.LASF171:
 3360 008c 56656374 		.ascii	"Vector130\000"
 3360      6F723133 
 3360      3000
 3361              	.LASF148:
 3362 0096 73747265 		.ascii	"stream\000"
 3362      616D00
 3363              	.LASF42:
 3364 009d 444D4131 		.ascii	"DMA1_Stream4_IRQn\000"
 3364      5F537472 
 3364      65616D34 
 3364      5F495251 
 3364      6E00
 3365              	.LASF68:
 3366 00af 5254435F 		.ascii	"RTC_Alarm_IRQn\000"
 3366      416C6172 
 3366      6D5F4952 
ARM GAS  C:\Users\jsyoon\AppData\Local\Temp\cc0LyeEE.s 			page 61


 3366      516E00
 3367              	.LASF152:
 3368 00be 76656374 		.ascii	"vector\000"
 3368      6F7200
 3369              	.LASF184:
 3370 00c5 5F73746D 		.ascii	"_stm32_dma_streams\000"
 3370      33325F64 
 3370      6D615F73 
 3370      74726561 
 3370      6D7300
 3371              	.LASF61:
 3372 00d8 49324332 		.ascii	"I2C2_ER_IRQn\000"
 3372      5F45525F 
 3372      4952516E 
 3372      00
 3373              	.LASF57:
 3374 00e5 54494D34 		.ascii	"TIM4_IRQn\000"
 3374      5F495251 
 3374      6E00
 3375              	.LASF35:
 3376 00ef 45585449 		.ascii	"EXTI2_IRQn\000"
 3376      325F4952 
 3376      516E00
 3377              	.LASF178:
 3378 00fa 66756E63 		.ascii	"func\000"
 3378      00
 3379              	.LASF119:
 3380 00ff 43464752 		.ascii	"CFGR\000"
 3380      00
 3381              	.LASF27:
 3382 0104 57574447 		.ascii	"WWDG_IRQn\000"
 3382      5F495251 
 3382      6E00
 3383              	.LASF76:
 3384 010e 5344494F 		.ascii	"SDIO_IRQn\000"
 3384      5F495251 
 3384      6E00
 3385              	.LASF134:
 3386 0118 41484231 		.ascii	"AHB1LPENR\000"
 3386      4C50454E 
 3386      5200
 3387              	.LASF191:
 3388 0122 6E766963 		.ascii	"nvicEnableVector\000"
 3388      456E6162 
 3388      6C655665 
 3388      63746F72 
 3388      00
 3389              	.LASF146:
 3390 0133 44434B43 		.ascii	"DCKCFGR\000"
 3390      46475200 
 3391              	.LASF48:
 3392 013b 43414E31 		.ascii	"CAN1_RX1_IRQn\000"
 3392      5F525831 
 3392      5F495251 
 3392      6E00
 3393              	.LASF1:
 3394 0149 7369676E 		.ascii	"signed char\000"
ARM GAS  C:\Users\jsyoon\AppData\Local\Temp\cc0LyeEE.s 			page 62


 3394      65642063 
 3394      68617200 
 3395              	.LASF92:
 3396 0155 43414E32 		.ascii	"CAN2_RX1_IRQn\000"
 3396      5F525831 
 3396      5F495251 
 3396      6E00
 3397              	.LASF120:
 3398 0163 41484231 		.ascii	"AHB1RSTR\000"
 3398      52535452 
 3398      00
 3399              	.LASF15:
 3400 016c 626F6F6C 		.ascii	"bool_t\000"
 3400      5F7400
 3401              	.LASF60:
 3402 0173 49324332 		.ascii	"I2C2_EV_IRQn\000"
 3402      5F45565F 
 3402      4952516E 
 3402      00
 3403              	.LASF176:
 3404 0180 646D6173 		.ascii	"dmastp\000"
 3404      747000
 3405              	.LASF187:
 3406 0187 453A5C4D 		.ascii	"E:\\Maker\\BLDC\\test_eval\\try2\\OROCA-BLDC_R15080"
 3406      616B6572 
 3406      5C424C44 
 3406      435C7465 
 3406      73745F65 
 3407 01b5 3700     		.ascii	"7\000"
 3408              	.LASF7:
 3409 01b7 6C6F6E67 		.ascii	"long int\000"
 3409      20696E74 
 3409      00
 3410              	.LASF125:
 3411 01c0 41504232 		.ascii	"APB2RSTR\000"
 3411      52535452 
 3411      00
 3412              	.LASF43:
 3413 01c9 444D4131 		.ascii	"DMA1_Stream5_IRQn\000"
 3413      5F537472 
 3413      65616D35 
 3413      5F495251 
 3413      6E00
 3414              	.LASF50:
 3415 01db 45585449 		.ascii	"EXTI9_5_IRQn\000"
 3415      395F355F 
 3415      4952516E 
 3415      00
 3416              	.LASF185:
 3417 01e8 474E5520 		.ascii	"GNU C 4.8.4 20140526 (release) [ARM/embedded-4_8-br"
 3417      4320342E 
 3417      382E3420 
 3417      32303134 
 3417      30353236 
 3418 021b 616E6368 		.ascii	"anch revision 211358] -mcpu=cortex-m4 -mfloat-abi=h"
 3418      20726576 
 3418      6973696F 
ARM GAS  C:\Users\jsyoon\AppData\Local\Temp\cc0LyeEE.s 			page 63


 3418      6E203231 
 3418      31333538 
 3419 024e 61726420 		.ascii	"ard -mfpu=fpv4-sp-d16 -mno-thumb-interwork -mthumb "
 3419      2D6D6670 
 3419      753D6670 
 3419      76342D73 
 3419      702D6431 
 3420 0281 2D676764 		.ascii	"-ggdb -O2 -std=gnu99 -fomit-frame-pointer -falign-f"
 3420      62202D4F 
 3420      32202D73 
 3420      74643D67 
 3420      6E753939 
 3421 02b4 756E6374 		.ascii	"unctions=16 -ffunction-sections -fdata-sections -fn"
 3421      696F6E73 
 3421      3D313620 
 3421      2D666675 
 3421      6E637469 
 3422 02e7 6F2D636F 		.ascii	"o-common -fsingle-precision-constant\000"
 3422      6D6D6F6E 
 3422      202D6673 
 3422      696E676C 
 3422      652D7072 
 3423              	.LASF10:
 3424 030c 6C6F6E67 		.ascii	"long long int\000"
 3424      206C6F6E 
 3424      6720696E 
 3424      7400
 3425              	.LASF89:
 3426 031a 4554485F 		.ascii	"ETH_WKUP_IRQn\000"
 3426      574B5550 
 3426      5F495251 
 3426      6E00
 3427              	.LASF11:
 3428 0328 6C6F6E67 		.ascii	"long long unsigned int\000"
 3428      206C6F6E 
 3428      6720756E 
 3428      7369676E 
 3428      65642069 
 3429              	.LASF53:
 3430 033f 54494D31 		.ascii	"TIM1_TRG_COM_TIM11_IRQn\000"
 3430      5F545247 
 3430      5F434F4D 
 3430      5F54494D 
 3430      31315F49 
 3431              	.LASF21:
 3432 0357 42757346 		.ascii	"BusFault_IRQn\000"
 3432      61756C74 
 3432      5F495251 
 3432      6E00
 3433              	.LASF81:
 3434 0365 54494D36 		.ascii	"TIM6_DAC_IRQn\000"
 3434      5F444143 
 3434      5F495251 
 3434      6E00
 3435              	.LASF118:
 3436 0373 504C4C43 		.ascii	"PLLCFGR\000"
 3436      46475200 
ARM GAS  C:\Users\jsyoon\AppData\Local\Temp\cc0LyeEE.s 			page 64


 3437              	.LASF79:
 3438 037b 55415254 		.ascii	"UART4_IRQn\000"
 3438      345F4952 
 3438      516E00
 3439              	.LASF156:
 3440 0386 646D615F 		.ascii	"dma_param\000"
 3440      70617261 
 3440      6D00
 3441              	.LASF25:
 3442 0390 50656E64 		.ascii	"PendSV_IRQn\000"
 3442      53565F49 
 3442      52516E00 
 3443              	.LASF71:
 3444 039c 54494D38 		.ascii	"TIM8_UP_TIM13_IRQn\000"
 3444      5F55505F 
 3444      54494D31 
 3444      335F4952 
 3444      516E00
 3445              	.LASF8:
 3446 03af 5F5F7569 		.ascii	"__uint32_t\000"
 3446      6E743332 
 3446      5F7400
 3447              	.LASF151:
 3448 03ba 73656C66 		.ascii	"selfindex\000"
 3448      696E6465 
 3448      7800
 3449              	.LASF69:
 3450 03c4 4F54475F 		.ascii	"OTG_FS_WKUP_IRQn\000"
 3450      46535F57 
 3450      4B55505F 
 3450      4952516E 
 3450      00
 3451              	.LASF97:
 3452 03d5 444D4132 		.ascii	"DMA2_Stream7_IRQn\000"
 3452      5F537472 
 3452      65616D37 
 3452      5F495251 
 3452      6E00
 3453              	.LASF127:
 3454 03e7 41484231 		.ascii	"AHB1ENR\000"
 3454      454E5200 
 3455              	.LASF117:
 3456 03ef 444D415F 		.ascii	"DMA_TypeDef\000"
 3456      54797065 
 3456      44656600 
 3457              	.LASF105:
 3458 03fb 44434D49 		.ascii	"DCMI_IRQn\000"
 3458      5F495251 
 3458      6E00
 3459              	.LASF0:
 3460 0405 756E7369 		.ascii	"unsigned int\000"
 3460      676E6564 
 3460      20696E74 
 3460      00
 3461              	.LASF172:
 3462 0412 56656374 		.ascii	"Vector150\000"
 3462      6F723135 
ARM GAS  C:\Users\jsyoon\AppData\Local\Temp\cc0LyeEE.s 			page 65


 3462      3000
 3463              	.LASF41:
 3464 041c 444D4131 		.ascii	"DMA1_Stream3_IRQn\000"
 3464      5F537472 
 3464      65616D33 
 3464      5F495251 
 3464      6E00
 3465              	.LASF44:
 3466 042e 444D4131 		.ascii	"DMA1_Stream6_IRQn\000"
 3466      5F537472 
 3466      65616D36 
 3466      5F495251 
 3466      6E00
 3467              	.LASF173:
 3468 0440 56656374 		.ascii	"Vector154\000"
 3468      6F723135 
 3468      3400
 3469              	.LASF174:
 3470 044a 56656374 		.ascii	"Vector158\000"
 3470      6F723135 
 3470      3800
 3471              	.LASF154:
 3472 0454 73746D33 		.ascii	"stm32_dmaisr_t\000"
 3472      325F646D 
 3472      61697372 
 3472      5F7400
 3473              	.LASF99:
 3474 0463 49324333 		.ascii	"I2C3_EV_IRQn\000"
 3474      5F45565F 
 3474      4952516E 
 3474      00
 3475              	.LASF9:
 3476 0470 6C6F6E67 		.ascii	"long unsigned int\000"
 3476      20756E73 
 3476      69676E65 
 3476      6420696E 
 3476      7400
 3477              	.LASF147:
 3478 0482 5243435F 		.ascii	"RCC_TypeDef\000"
 3478      54797065 
 3478      44656600 
 3479              	.LASF150:
 3480 048e 69736869 		.ascii	"ishift\000"
 3480      667400
 3481              	.LASF101:
 3482 0495 4F54475F 		.ascii	"OTG_HS_EP1_OUT_IRQn\000"
 3482      48535F45 
 3482      50315F4F 
 3482      55545F49 
 3482      52516E00 
 3483              	.LASF23:
 3484 04a9 53564361 		.ascii	"SVCall_IRQn\000"
 3484      6C6C5F49 
 3484      52516E00 
 3485              	.LASF4:
 3486 04b5 73686F72 		.ascii	"short unsigned int\000"
 3486      7420756E 
ARM GAS  C:\Users\jsyoon\AppData\Local\Temp\cc0LyeEE.s 			page 66


 3486      7369676E 
 3486      65642069 
 3486      6E7400
 3487              	.LASF85:
 3488 04c8 444D4132 		.ascii	"DMA2_Stream2_IRQn\000"
 3488      5F537472 
 3488      65616D32 
 3488      5F495251 
 3488      6E00
 3489              	.LASF144:
 3490 04da 504C4C49 		.ascii	"PLLI2SCFGR\000"
 3490      32534346 
 3490      475200
 3491              	.LASF46:
 3492 04e5 43414E31 		.ascii	"CAN1_TX_IRQn\000"
 3492      5F54585F 
 3492      4952516E 
 3492      00
 3493              	.LASF122:
 3494 04f2 41484233 		.ascii	"AHB3RSTR\000"
 3494      52535452 
 3494      00
 3495              	.LASF67:
 3496 04fb 45585449 		.ascii	"EXTI15_10_IRQn\000"
 3496      31355F31 
 3496      305F4952 
 3496      516E00
 3497              	.LASF145:
 3498 050a 504C4C53 		.ascii	"PLLSAICFGR\000"
 3498      41494346 
 3498      475200
 3499              	.LASF62:
 3500 0515 53504931 		.ascii	"SPI1_IRQn\000"
 3500      5F495251 
 3500      6E00
 3501              	.LASF39:
 3502 051f 444D4131 		.ascii	"DMA1_Stream1_IRQn\000"
 3502      5F537472 
 3502      65616D31 
 3502      5F495251 
 3502      6E00
 3503              	.LASF177:
 3504 0531 7072696F 		.ascii	"priority\000"
 3504      72697479 
 3504      00
 3505              	.LASF66:
 3506 053a 55534152 		.ascii	"USART3_IRQn\000"
 3506      54335F49 
 3506      52516E00 
 3507              	.LASF114:
 3508 0546 48495352 		.ascii	"HISR\000"
 3508      00
 3509              	.LASF139:
 3510 054b 41504232 		.ascii	"APB2LPENR\000"
 3510      4C50454E 
 3510      5200
 3511              	.LASF3:
ARM GAS  C:\Users\jsyoon\AppData\Local\Temp\cc0LyeEE.s 			page 67


 3512 0555 73686F72 		.ascii	"short int\000"
 3512      7420696E 
 3512      7400
 3513              	.LASF70:
 3514 055f 54494D38 		.ascii	"TIM8_BRK_TIM12_IRQn\000"
 3514      5F42524B 
 3514      5F54494D 
 3514      31325F49 
 3514      52516E00 
 3515              	.LASF26:
 3516 0573 53797354 		.ascii	"SysTick_IRQn\000"
 3516      69636B5F 
 3516      4952516E 
 3516      00
 3517              	.LASF54:
 3518 0580 54494D31 		.ascii	"TIM1_CC_IRQn\000"
 3518      5F43435F 
 3518      4952516E 
 3518      00
 3519              	.LASF188:
 3520 058d 4952516E 		.ascii	"IRQn\000"
 3520      00
 3521              	.LASF82:
 3522 0592 54494D37 		.ascii	"TIM7_IRQn\000"
 3522      5F495251 
 3522      6E00
 3523              	.LASF115:
 3524 059c 4C494643 		.ascii	"LIFCR\000"
 3524      5200
 3525              	.LASF17:
 3526 05a2 73697A65 		.ascii	"sizetype\000"
 3526      74797065 
 3526      00
 3527              	.LASF88:
 3528 05ab 4554485F 		.ascii	"ETH_IRQn\000"
 3528      4952516E 
 3528      00
 3529              	.LASF73:
 3530 05b4 54494D38 		.ascii	"TIM8_CC_IRQn\000"
 3530      5F43435F 
 3530      4952516E 
 3530      00
 3531              	.LASF86:
 3532 05c1 444D4132 		.ascii	"DMA2_Stream3_IRQn\000"
 3532      5F537472 
 3532      65616D33 
 3532      5F495251 
 3532      6E00
 3533              	.LASF113:
 3534 05d3 4C495352 		.ascii	"LISR\000"
 3534      00
 3535              	.LASF98:
 3536 05d8 55534152 		.ascii	"USART6_IRQn\000"
 3536      54365F49 
 3536      52516E00 
 3537              	.LASF179:
 3538 05e4 70617261 		.ascii	"param\000"
ARM GAS  C:\Users\jsyoon\AppData\Local\Temp\cc0LyeEE.s 			page 68


 3538      6D00
 3539              	.LASF77:
 3540 05ea 54494D35 		.ascii	"TIM5_IRQn\000"
 3540      5F495251 
 3540      6E00
 3541              	.LASF36:
 3542 05f4 45585449 		.ascii	"EXTI3_IRQn\000"
 3542      335F4952 
 3542      516E00
 3543              	.LASF63:
 3544 05ff 53504932 		.ascii	"SPI2_IRQn\000"
 3544      5F495251 
 3544      6E00
 3545              	.LASF40:
 3546 0609 444D4131 		.ascii	"DMA1_Stream2_IRQn\000"
 3546      5F537472 
 3546      65616D32 
 3546      5F495251 
 3546      6E00
 3547              	.LASF90:
 3548 061b 43414E32 		.ascii	"CAN2_TX_IRQn\000"
 3548      5F54585F 
 3548      4952516E 
 3548      00
 3549              	.LASF94:
 3550 0628 4F54475F 		.ascii	"OTG_FS_IRQn\000"
 3550      46535F49 
 3550      52516E00 
 3551              	.LASF155:
 3552 0634 646D615F 		.ascii	"dma_func\000"
 3552      66756E63 
 3552      00
 3553              	.LASF124:
 3554 063d 41504231 		.ascii	"APB1RSTR\000"
 3554      52535452 
 3554      00
 3555              	.LASF104:
 3556 0646 4F54475F 		.ascii	"OTG_HS_IRQn\000"
 3556      48535F49 
 3556      52516E00 
 3557              	.LASF20:
 3558 0652 4D656D6F 		.ascii	"MemoryManagement_IRQn\000"
 3558      72794D61 
 3558      6E616765 
 3558      6D656E74 
 3558      5F495251 
 3559              	.LASF123:
 3560 0668 52455345 		.ascii	"RESERVED0\000"
 3560      52564544 
 3560      3000
 3561              	.LASF126:
 3562 0672 52455345 		.ascii	"RESERVED1\000"
 3562      52564544 
 3562      3100
 3563              	.LASF130:
 3564 067c 52455345 		.ascii	"RESERVED2\000"
 3564      52564544 
ARM GAS  C:\Users\jsyoon\AppData\Local\Temp\cc0LyeEE.s 			page 69


 3564      3200
 3565              	.LASF133:
 3566 0686 52455345 		.ascii	"RESERVED3\000"
 3566      52564544 
 3566      3300
 3567              	.LASF64:
 3568 0690 55534152 		.ascii	"USART1_IRQn\000"
 3568      54315F49 
 3568      52516E00 
 3569              	.LASF140:
 3570 069c 52455345 		.ascii	"RESERVED5\000"
 3570      52564544 
 3570      3500
 3571              	.LASF142:
 3572 06a6 52455345 		.ascii	"RESERVED6\000"
 3572      52564544 
 3572      3600
 3573              	.LASF153:
 3574 06b0 73746D33 		.ascii	"stm32_dma_stream_t\000"
 3574      325F646D 
 3574      615F7374 
 3574      7265616D 
 3574      5F7400
 3575              	.LASF78:
 3576 06c3 53504933 		.ascii	"SPI3_IRQn\000"
 3576      5F495251 
 3576      6E00
 3577              	.LASF135:
 3578 06cd 41484232 		.ascii	"AHB2LPENR\000"
 3578      4C50454E 
 3578      5200
 3579              	.LASF158:
 3580 06d7 56656374 		.ascii	"Vector6C\000"
 3580      6F723643 
 3580      00
 3581              	.LASF87:
 3582 06e0 444D4132 		.ascii	"DMA2_Stream4_IRQn\000"
 3582      5F537472 
 3582      65616D34 
 3582      5F495251 
 3582      6E00
 3583              	.LASF75:
 3584 06f2 46534D43 		.ascii	"FSMC_IRQn\000"
 3584      5F495251 
 3584      6E00
 3585              	.LASF16:
 3586 06fc 5F426F6F 		.ascii	"_Bool\000"
 3586      6C00
 3587              	.LASF13:
 3588 0702 696E7433 		.ascii	"int32_t\000"
 3588      325F7400 
 3589              	.LASF2:
 3590 070a 756E7369 		.ascii	"unsigned char\000"
 3590      676E6564 
 3590      20636861 
 3590      7200
 3591              	.LASF65:
ARM GAS  C:\Users\jsyoon\AppData\Local\Temp\cc0LyeEE.s 			page 70


 3592 0718 55534152 		.ascii	"USART2_IRQn\000"
 3592      54325F49 
 3592      52516E00 
 3593              	.LASF51:
 3594 0724 54494D31 		.ascii	"TIM1_BRK_TIM9_IRQn\000"
 3594      5F42524B 
 3594      5F54494D 
 3594      395F4952 
 3594      516E00
 3595              	.LASF183:
 3596 0737 49544D5F 		.ascii	"ITM_RxBuffer\000"
 3596      52784275 
 3596      66666572 
 3596      00
 3597              	.LASF52:
 3598 0744 54494D31 		.ascii	"TIM1_UP_TIM10_IRQn\000"
 3598      5F55505F 
 3598      54494D31 
 3598      305F4952 
 3598      516E00
 3599              	.LASF37:
 3600 0757 45585449 		.ascii	"EXTI4_IRQn\000"
 3600      345F4952 
 3600      516E00
 3601              	.LASF107:
 3602 0762 48415348 		.ascii	"HASH_RNG_IRQn\000"
 3602      5F524E47 
 3602      5F495251 
 3602      6E00
 3603              	.LASF30:
 3604 0770 5254435F 		.ascii	"RTC_WKUP_IRQn\000"
 3604      574B5550 
 3604      5F495251 
 3604      6E00
 3605              	.LASF136:
 3606 077e 41484233 		.ascii	"AHB3LPENR\000"
 3606      4C50454E 
 3606      5200
 3607              	.LASF80:
 3608 0788 55415254 		.ascii	"UART5_IRQn\000"
 3608      355F4952 
 3608      516E00
 3609              	.LASF72:
 3610 0793 54494D38 		.ascii	"TIM8_TRG_COM_TIM14_IRQn\000"
 3610      5F545247 
 3610      5F434F4D 
 3610      5F54494D 
 3610      31345F49 
 3611              	.LASF132:
 3612 07ab 41504232 		.ascii	"APB2ENR\000"
 3612      454E5200 
 3613              	.LASF129:
 3614 07b3 41484233 		.ascii	"AHB3ENR\000"
 3614      454E5200 
 3615              	.LASF31:
 3616 07bb 464C4153 		.ascii	"FLASH_IRQn\000"
 3616      485F4952 
ARM GAS  C:\Users\jsyoon\AppData\Local\Temp\cc0LyeEE.s 			page 71


 3616      516E00
 3617              	.LASF149:
 3618 07c6 69666372 		.ascii	"ifcr\000"
 3618      00
 3619              	.LASF159:
 3620 07cb 56656374 		.ascii	"Vector70\000"
 3620      6F723730 
 3620      00
 3621              	.LASF186:
 3622 07d4 43686962 		.ascii	"ChibiOS_2.6.6/os/hal/platforms/STM32F4xx/stm32_dma."
 3622      694F535F 
 3622      322E362E 
 3622      362F6F73 
 3622      2F68616C 
 3623 0807 6300     		.ascii	"c\000"
 3624              	.LASF161:
 3625 0809 56656374 		.ascii	"Vector74\000"
 3625      6F723734 
 3625      00
 3626              	.LASF166:
 3627 0812 56656374 		.ascii	"VectorFC\000"
 3627      6F724643 
 3627      00
 3628              	.LASF22:
 3629 081b 55736167 		.ascii	"UsageFault_IRQn\000"
 3629      65466175 
 3629      6C745F49 
 3629      52516E00 
 3630              	.LASF162:
 3631 082b 56656374 		.ascii	"Vector78\000"
 3631      6F723738 
 3631      00
 3632              	.LASF131:
 3633 0834 41504231 		.ascii	"APB1ENR\000"
 3633      454E5200 
 3634              	.LASF192:
 3635 083c 6E766963 		.ascii	"nvicDisableVector\000"
 3635      44697361 
 3635      626C6556 
 3635      6563746F 
 3635      7200
 3636              	.LASF175:
 3637 084e 646D6149 		.ascii	"dmaInit\000"
 3637      6E697400 
 3638              	.LASF74:
 3639 0856 444D4131 		.ascii	"DMA1_Stream7_IRQn\000"
 3639      5F537472 
 3639      65616D37 
 3639      5F495251 
 3639      6E00
 3640              	.LASF18:
 3641 0868 63686172 		.ascii	"char\000"
 3641      00
 3642              	.LASF180:
 3643 086d 646D6153 		.ascii	"dmaStreamRelease\000"
 3643      74726561 
 3643      6D52656C 
ARM GAS  C:\Users\jsyoon\AppData\Local\Temp\cc0LyeEE.s 			page 72


 3643      65617365 
 3643      00
 3644              	.LASF163:
 3645 087e 56656374 		.ascii	"Vector7C\000"
 3645      6F723743 
 3645      00
 3646              	.LASF106:
 3647 0887 43525950 		.ascii	"CRYP_IRQn\000"
 3647      5F495251 
 3647      6E00
 3648              	.LASF121:
 3649 0891 41484232 		.ascii	"AHB2RSTR\000"
 3649      52535452 
 3649      00
 3650              	.LASF102:
 3651 089a 4F54475F 		.ascii	"OTG_HS_EP1_IN_IRQn\000"
 3651      48535F45 
 3651      50315F49 
 3651      4E5F4952 
 3651      516E00
 3652              	.LASF19:
 3653 08ad 4E6F6E4D 		.ascii	"NonMaskableInt_IRQn\000"
 3653      61736B61 
 3653      626C6549 
 3653      6E745F49 
 3653      52516E00 
 3654              	.LASF6:
 3655 08c1 5F5F696E 		.ascii	"__int32_t\000"
 3655      7433325F 
 3655      7400
 3656              	.LASF109:
 3657 08cb 4E445452 		.ascii	"NDTR\000"
 3657      00
 3658              	.LASF112:
 3659 08d0 444D415F 		.ascii	"DMA_Stream_TypeDef\000"
 3659      53747265 
 3659      616D5F54 
 3659      79706544 
 3659      656600
 3660              	.LASF128:
 3661 08e3 41484232 		.ascii	"AHB2ENR\000"
 3661      454E5200 
 3662              	.LASF29:
 3663 08eb 54414D50 		.ascii	"TAMP_STAMP_IRQn\000"
 3663      5F535441 
 3663      4D505F49 
 3663      52516E00 
 3664              	.LASF181:
 3665 08fb 646D615F 		.ascii	"dma_streams_mask\000"
 3665      73747265 
 3665      616D735F 
 3665      6D61736B 
 3665      00
 3666              	.LASF137:
 3667 090c 52455345 		.ascii	"RESERVED4\000"
 3667      52564544 
 3667      3400
ARM GAS  C:\Users\jsyoon\AppData\Local\Temp\cc0LyeEE.s 			page 73


 3668              	.LASF83:
 3669 0916 444D4132 		.ascii	"DMA2_Stream0_IRQn\000"
 3669      5F537472 
 3669      65616D30 
 3669      5F495251 
 3669      6E00
 3670              	.LASF111:
 3671 0928 4D314152 		.ascii	"M1AR\000"
 3671      00
 3672              	.LASF164:
 3673 092d 56656374 		.ascii	"Vector80\000"
 3673      6F723830 
 3673      00
 3674              	.LASF14:
 3675 0936 75696E74 		.ascii	"uint32_t\000"
 3675      33325F74 
 3675      00
 3676              	.LASF143:
 3677 093f 53534347 		.ascii	"SSCGR\000"
 3677      5200
 3678              	.LASF165:
 3679 0945 56656374 		.ascii	"Vector84\000"
 3679      6F723834 
 3679      00
 3680              	.LASF55:
 3681 094e 54494D32 		.ascii	"TIM2_IRQn\000"
 3681      5F495251 
 3681      6E00
 3682              	.LASF33:
 3683 0958 45585449 		.ascii	"EXTI0_IRQn\000"
 3683      305F4952 
 3683      516E00
 3684              	.LASF141:
 3685 0963 42444352 		.ascii	"BDCR\000"
 3685      00
 3686              	.LASF190:
 3687 0968 5F706F72 		.ascii	"_port_irq_epilogue\000"
 3687      745F6972 
 3687      715F6570 
 3687      696C6F67 
 3687      756500
 3688              	.LASF12:
 3689 097b 75696E74 		.ascii	"uint8_t\000"
 3689      385F7400 
 3690              	.LASF160:
 3691 0983 666C6167 		.ascii	"flags\000"
 3691      7300
 3692              	.LASF32:
 3693 0989 5243435F 		.ascii	"RCC_IRQn\000"
 3693      4952516E 
 3693      00
 3694              	.LASF182:
 3695 0992 646D615F 		.ascii	"dma_isr_redir\000"
 3695      6973725F 
 3695      72656469 
 3695      7200
 3696              	.LASF167:
ARM GAS  C:\Users\jsyoon\AppData\Local\Temp\cc0LyeEE.s 			page 74


 3697 09a0 56656374 		.ascii	"Vector120\000"
 3697      6F723132 
 3697      3000
 3698              	.LASF108:
 3699 09aa 4650555F 		.ascii	"FPU_IRQn\000"
 3699      4952516E 
 3699      00
 3700              	.LASF24:
 3701 09b3 44656275 		.ascii	"DebugMonitor_IRQn\000"
 3701      674D6F6E 
 3701      69746F72 
 3701      5F495251 
 3701      6E00
 3702              	.LASF168:
 3703 09c5 56656374 		.ascii	"Vector124\000"
 3703      6F723132 
 3703      3400
 3704              	.LASF169:
 3705 09cf 56656374 		.ascii	"Vector128\000"
 3705      6F723132 
 3705      3800
 3706              	.LASF59:
 3707 09d9 49324331 		.ascii	"I2C1_ER_IRQn\000"
 3707      5F45525F 
 3707      4952516E 
 3707      00
 3708              	.LASF45:
 3709 09e6 4144435F 		.ascii	"ADC_IRQn\000"
 3709      4952516E 
 3709      00
 3710              	.LASF84:
 3711 09ef 444D4132 		.ascii	"DMA2_Stream1_IRQn\000"
 3711      5F537472 
 3711      65616D31 
 3711      5F495251 
 3711      6E00
 3712              	.LASF170:
 3713 0a01 56656374 		.ascii	"Vector12C\000"
 3713      6F723132 
 3713      4300
 3714              	.LASF116:
 3715 0a0b 48494643 		.ascii	"HIFCR\000"
 3715      5200
 3716              	.LASF49:
 3717 0a11 43414E31 		.ascii	"CAN1_SCE_IRQn\000"
 3717      5F534345 
 3717      5F495251 
 3717      6E00
 3718              	.LASF189:
 3719 0a1f 646D6153 		.ascii	"dmaStreamAllocate\000"
 3719      74726561 
 3719      6D416C6C 
 3719      6F636174 
 3719      6500
 3720              	.LASF93:
 3721 0a31 43414E32 		.ascii	"CAN2_SCE_IRQn\000"
 3721      5F534345 
ARM GAS  C:\Users\jsyoon\AppData\Local\Temp\cc0LyeEE.s 			page 75


 3721      5F495251 
 3721      6E00
 3722              	.LASF103:
 3723 0a3f 4F54475F 		.ascii	"OTG_HS_WKUP_IRQn\000"
 3723      48535F57 
 3723      4B55505F 
 3723      4952516E 
 3723      00
 3724              	.LASF56:
 3725 0a50 54494D33 		.ascii	"TIM3_IRQn\000"
 3725      5F495251 
 3725      6E00
 3726              	.LASF34:
 3727 0a5a 45585449 		.ascii	"EXTI1_IRQn\000"
 3727      315F4952 
 3727      516E00
 3728              	.LASF38:
 3729 0a65 444D4131 		.ascii	"DMA1_Stream0_IRQn\000"
 3729      5F537472 
 3729      65616D30 
 3729      5F495251 
 3729      6E00
 3730              		.ident	"GCC: (GNU Tools for ARM Embedded Processors) 4.8.4 20140526 (release) [ARM/embedded-4_8-br
ARM GAS  C:\Users\jsyoon\AppData\Local\Temp\cc0LyeEE.s 			page 76


DEFINED SYMBOLS
                            *ABS*:00000000 stm32_dma.c
C:\Users\jsyoon\AppData\Local\Temp\cc0LyeEE.s:21     .text.Vector6C:00000000 $t
C:\Users\jsyoon\AppData\Local\Temp\cc0LyeEE.s:27     .text.Vector6C:00000000 Vector6C
C:\Users\jsyoon\AppData\Local\Temp\cc0LyeEE.s:64     .text.Vector6C:00000020 $d
C:\Users\jsyoon\AppData\Local\Temp\cc0LyeEE.s:70     .text.Vector70:00000000 $t
C:\Users\jsyoon\AppData\Local\Temp\cc0LyeEE.s:76     .text.Vector70:00000000 Vector70
C:\Users\jsyoon\AppData\Local\Temp\cc0LyeEE.s:117    .text.Vector70:00000024 $d
C:\Users\jsyoon\AppData\Local\Temp\cc0LyeEE.s:123    .text.Vector74:00000000 $t
C:\Users\jsyoon\AppData\Local\Temp\cc0LyeEE.s:129    .text.Vector74:00000000 Vector74
C:\Users\jsyoon\AppData\Local\Temp\cc0LyeEE.s:170    .text.Vector74:00000024 $d
C:\Users\jsyoon\AppData\Local\Temp\cc0LyeEE.s:176    .text.Vector78:00000000 $t
C:\Users\jsyoon\AppData\Local\Temp\cc0LyeEE.s:182    .text.Vector78:00000000 Vector78
C:\Users\jsyoon\AppData\Local\Temp\cc0LyeEE.s:223    .text.Vector78:00000024 $d
C:\Users\jsyoon\AppData\Local\Temp\cc0LyeEE.s:229    .text.Vector7C:00000000 $t
C:\Users\jsyoon\AppData\Local\Temp\cc0LyeEE.s:235    .text.Vector7C:00000000 Vector7C
C:\Users\jsyoon\AppData\Local\Temp\cc0LyeEE.s:273    .text.Vector7C:00000020 $d
C:\Users\jsyoon\AppData\Local\Temp\cc0LyeEE.s:279    .text.Vector80:00000000 $t
C:\Users\jsyoon\AppData\Local\Temp\cc0LyeEE.s:285    .text.Vector80:00000000 Vector80
C:\Users\jsyoon\AppData\Local\Temp\cc0LyeEE.s:326    .text.Vector80:00000024 $d
C:\Users\jsyoon\AppData\Local\Temp\cc0LyeEE.s:332    .text.Vector84:00000000 $t
C:\Users\jsyoon\AppData\Local\Temp\cc0LyeEE.s:338    .text.Vector84:00000000 Vector84
C:\Users\jsyoon\AppData\Local\Temp\cc0LyeEE.s:379    .text.Vector84:00000024 $d
C:\Users\jsyoon\AppData\Local\Temp\cc0LyeEE.s:385    .text.VectorFC:00000000 $t
C:\Users\jsyoon\AppData\Local\Temp\cc0LyeEE.s:391    .text.VectorFC:00000000 VectorFC
C:\Users\jsyoon\AppData\Local\Temp\cc0LyeEE.s:432    .text.VectorFC:00000024 $d
C:\Users\jsyoon\AppData\Local\Temp\cc0LyeEE.s:438    .text.Vector120:00000000 $t
C:\Users\jsyoon\AppData\Local\Temp\cc0LyeEE.s:444    .text.Vector120:00000000 Vector120
C:\Users\jsyoon\AppData\Local\Temp\cc0LyeEE.s:482    .text.Vector120:00000020 $d
C:\Users\jsyoon\AppData\Local\Temp\cc0LyeEE.s:488    .text.Vector124:00000000 $t
C:\Users\jsyoon\AppData\Local\Temp\cc0LyeEE.s:494    .text.Vector124:00000000 Vector124
C:\Users\jsyoon\AppData\Local\Temp\cc0LyeEE.s:535    .text.Vector124:00000024 $d
C:\Users\jsyoon\AppData\Local\Temp\cc0LyeEE.s:541    .text.Vector128:00000000 $t
C:\Users\jsyoon\AppData\Local\Temp\cc0LyeEE.s:547    .text.Vector128:00000000 Vector128
C:\Users\jsyoon\AppData\Local\Temp\cc0LyeEE.s:588    .text.Vector128:00000024 $d
C:\Users\jsyoon\AppData\Local\Temp\cc0LyeEE.s:594    .text.Vector12C:00000000 $t
C:\Users\jsyoon\AppData\Local\Temp\cc0LyeEE.s:600    .text.Vector12C:00000000 Vector12C
C:\Users\jsyoon\AppData\Local\Temp\cc0LyeEE.s:641    .text.Vector12C:00000024 $d
C:\Users\jsyoon\AppData\Local\Temp\cc0LyeEE.s:647    .text.Vector130:00000000 $t
C:\Users\jsyoon\AppData\Local\Temp\cc0LyeEE.s:653    .text.Vector130:00000000 Vector130
C:\Users\jsyoon\AppData\Local\Temp\cc0LyeEE.s:691    .text.Vector130:00000020 $d
C:\Users\jsyoon\AppData\Local\Temp\cc0LyeEE.s:697    .text.Vector150:00000000 $t
C:\Users\jsyoon\AppData\Local\Temp\cc0LyeEE.s:703    .text.Vector150:00000000 Vector150
C:\Users\jsyoon\AppData\Local\Temp\cc0LyeEE.s:744    .text.Vector150:00000024 $d
C:\Users\jsyoon\AppData\Local\Temp\cc0LyeEE.s:750    .text.Vector154:00000000 $t
C:\Users\jsyoon\AppData\Local\Temp\cc0LyeEE.s:756    .text.Vector154:00000000 Vector154
C:\Users\jsyoon\AppData\Local\Temp\cc0LyeEE.s:797    .text.Vector154:00000024 $d
C:\Users\jsyoon\AppData\Local\Temp\cc0LyeEE.s:803    .text.Vector158:00000000 $t
C:\Users\jsyoon\AppData\Local\Temp\cc0LyeEE.s:809    .text.Vector158:00000000 Vector158
C:\Users\jsyoon\AppData\Local\Temp\cc0LyeEE.s:850    .text.Vector158:00000024 $d
C:\Users\jsyoon\AppData\Local\Temp\cc0LyeEE.s:856    .text.dmaInit:00000000 $t
C:\Users\jsyoon\AppData\Local\Temp\cc0LyeEE.s:862    .text.dmaInit:00000000 dmaInit
C:\Users\jsyoon\AppData\Local\Temp\cc0LyeEE.s:920    .text.dmaInit:00000034 $d
C:\Users\jsyoon\AppData\Local\Temp\cc0LyeEE.s:929    .text.dmaStreamAllocate:00000000 $t
C:\Users\jsyoon\AppData\Local\Temp\cc0LyeEE.s:935    .text.dmaStreamAllocate:00000000 dmaStreamAllocate
C:\Users\jsyoon\AppData\Local\Temp\cc0LyeEE.s:1045   .text.dmaStreamAllocate:0000008c $d
C:\Users\jsyoon\AppData\Local\Temp\cc0LyeEE.s:1052   .text.dmaStreamRelease:00000000 $t
ARM GAS  C:\Users\jsyoon\AppData\Local\Temp\cc0LyeEE.s 			page 77


C:\Users\jsyoon\AppData\Local\Temp\cc0LyeEE.s:1058   .text.dmaStreamRelease:00000000 dmaStreamRelease
C:\Users\jsyoon\AppData\Local\Temp\cc0LyeEE.s:1109   .text.dmaStreamRelease:00000040 $d
C:\Users\jsyoon\AppData\Local\Temp\cc0LyeEE.s:1127   .rodata._stm32_dma_streams:00000000 _stm32_dma_streams
C:\Users\jsyoon\AppData\Local\Temp\cc0LyeEE.s:1116   .bss.dma_isr_redir:00000000 $d
C:\Users\jsyoon\AppData\Local\Temp\cc0LyeEE.s:1120   .bss.dma_isr_redir:00000000 dma_isr_redir
C:\Users\jsyoon\AppData\Local\Temp\cc0LyeEE.s:1123   .rodata._stm32_dma_streams:00000000 $d
C:\Users\jsyoon\AppData\Local\Temp\cc0LyeEE.s:1225   .bss.dma_streams_mask:00000000 $d
C:\Users\jsyoon\AppData\Local\Temp\cc0LyeEE.s:1229   .bss.dma_streams_mask:00000000 dma_streams_mask
                     .debug_frame:00000010 $d
C:\Users\jsyoon\AppData\Local\Temp\cc0LyeEE.s:69     .text.Vector6C:00000028 $t
C:\Users\jsyoon\AppData\Local\Temp\cc0LyeEE.s:122    .text.Vector70:0000002c $t
C:\Users\jsyoon\AppData\Local\Temp\cc0LyeEE.s:175    .text.Vector74:0000002c $t
C:\Users\jsyoon\AppData\Local\Temp\cc0LyeEE.s:228    .text.Vector78:0000002c $t
C:\Users\jsyoon\AppData\Local\Temp\cc0LyeEE.s:278    .text.Vector7C:00000028 $t
C:\Users\jsyoon\AppData\Local\Temp\cc0LyeEE.s:331    .text.Vector80:0000002c $t
C:\Users\jsyoon\AppData\Local\Temp\cc0LyeEE.s:384    .text.Vector84:0000002c $t
C:\Users\jsyoon\AppData\Local\Temp\cc0LyeEE.s:437    .text.VectorFC:0000002c $t
C:\Users\jsyoon\AppData\Local\Temp\cc0LyeEE.s:487    .text.Vector120:00000028 $t
C:\Users\jsyoon\AppData\Local\Temp\cc0LyeEE.s:540    .text.Vector124:0000002c $t
C:\Users\jsyoon\AppData\Local\Temp\cc0LyeEE.s:593    .text.Vector128:0000002c $t
C:\Users\jsyoon\AppData\Local\Temp\cc0LyeEE.s:646    .text.Vector12C:0000002c $t
C:\Users\jsyoon\AppData\Local\Temp\cc0LyeEE.s:696    .text.Vector130:00000028 $t
C:\Users\jsyoon\AppData\Local\Temp\cc0LyeEE.s:749    .text.Vector150:0000002c $t
C:\Users\jsyoon\AppData\Local\Temp\cc0LyeEE.s:802    .text.Vector154:0000002c $t
C:\Users\jsyoon\AppData\Local\Temp\cc0LyeEE.s:855    .text.Vector158:0000002c $t
C:\Users\jsyoon\AppData\Local\Temp\cc0LyeEE.s:928    .text.dmaInit:00000048 $t
C:\Users\jsyoon\AppData\Local\Temp\cc0LyeEE.s:1051   .text.dmaStreamAllocate:00000098 $t
C:\Users\jsyoon\AppData\Local\Temp\cc0LyeEE.s:1115   .text.dmaStreamRelease:00000048 $t

UNDEFINED SYMBOLS
_port_irq_epilogue
nvicEnableVector
nvicDisableVector
