ARM GAS  C:\Users\jsyoon\AppData\Local\Temp\cch2rfk4.s 			page 1


   1              		.syntax unified
   2              		.cpu cortex-m4
   3              		.eabi_attribute 27, 3
   4              		.eabi_attribute 28, 1
   5              		.fpu fpv4-sp-d16
   6              		.eabi_attribute 20, 1
   7              		.eabi_attribute 21, 1
   8              		.eabi_attribute 23, 3
   9              		.eabi_attribute 24, 1
  10              		.eabi_attribute 25, 1
  11              		.eabi_attribute 26, 1
  12              		.eabi_attribute 30, 2
  13              		.eabi_attribute 34, 1
  14              		.eabi_attribute 18, 4
  15              		.thumb
  16              		.file	"stm32f4xx_spi.c"
  17              		.text
  18              	.Ltext0:
  19              		.cfi_sections	.debug_frame
  20              		.section	.text.SPI_I2S_DeInit,"ax",%progbits
  21              		.align	2
  22              		.p2align 4,,15
  23              		.global	SPI_I2S_DeInit
  24              		.thumb
  25              		.thumb_func
  26              		.type	SPI_I2S_DeInit, %function
  27              	SPI_I2S_DeInit:
  28              	.LFB111:
  29              		.file 1 "ChibiOS_2.6.6/ext/stdperiph_stm32f4/src/stm32f4xx_spi.c"
  30              		.loc 1 225 0
  31              		.cfi_startproc
  32              		@ args = 0, pretend = 0, frame = 0
  33              		@ frame_needed = 0, uses_anonymous_args = 0
  34              	.LVL0:
  35 0000 08B5     		push	{r3, lr}
  36              		.cfi_def_cfa_offset 8
  37              		.cfi_offset 3, -8
  38              		.cfi_offset 14, -4
  39              		.loc 1 229 0
  40 0002 174B     		ldr	r3, .L9
  41 0004 9842     		cmp	r0, r3
  42 0006 12D0     		beq	.L6
  43              		.loc 1 236 0
  44 0008 164B     		ldr	r3, .L9+4
  45 000a 9842     		cmp	r0, r3
  46 000c 1BD0     		beq	.L7
  47              		.loc 1 245 0
  48 000e 164B     		ldr	r3, .L9+8
  49 0010 9842     		cmp	r0, r3
  50 0012 00D0     		beq	.L8
  51 0014 08BD     		pop	{r3, pc}
  52              	.L8:
  53              		.loc 1 248 0
  54 0016 4FF40040 		mov	r0, #32768
  55              	.LVL1:
  56 001a 0121     		movs	r1, #1
  57 001c FFF7FEFF 		bl	RCC_APB1PeriphResetCmd
ARM GAS  C:\Users\jsyoon\AppData\Local\Temp\cch2rfk4.s 			page 2


  58              	.LVL2:
  59              		.loc 1 250 0
  60 0020 4FF40040 		mov	r0, #32768
  61 0024 0021     		movs	r1, #0
  62              		.loc 1 253 0
  63 0026 BDE80840 		pop	{r3, lr}
  64              		.loc 1 250 0
  65 002a FFF7FEBF 		b	RCC_APB1PeriphResetCmd
  66              	.LVL3:
  67              	.L6:
  68              		.loc 1 232 0
  69 002e 4FF48050 		mov	r0, #4096
  70              	.LVL4:
  71 0032 0121     		movs	r1, #1
  72 0034 FFF7FEFF 		bl	RCC_APB2PeriphResetCmd
  73              	.LVL5:
  74              		.loc 1 234 0
  75 0038 4FF48050 		mov	r0, #4096
  76 003c 0021     		movs	r1, #0
  77              		.loc 1 253 0
  78 003e BDE80840 		pop	{r3, lr}
  79              		.loc 1 234 0
  80 0042 FFF7FEBF 		b	RCC_APB2PeriphResetCmd
  81              	.LVL6:
  82              	.L7:
  83              		.loc 1 239 0
  84 0046 4FF48040 		mov	r0, #16384
  85              	.LVL7:
  86 004a 0121     		movs	r1, #1
  87 004c FFF7FEFF 		bl	RCC_APB1PeriphResetCmd
  88              	.LVL8:
  89              		.loc 1 241 0
  90 0050 4FF48040 		mov	r0, #16384
  91 0054 0021     		movs	r1, #0
  92              		.loc 1 253 0
  93 0056 BDE80840 		pop	{r3, lr}
  94              		.loc 1 241 0
  95 005a FFF7FEBF 		b	RCC_APB1PeriphResetCmd
  96              	.LVL9:
  97              	.L10:
  98 005e 00BF     		.align	2
  99              	.L9:
 100 0060 00300140 		.word	1073819648
 101 0064 00380040 		.word	1073756160
 102 0068 003C0040 		.word	1073757184
 103              		.cfi_endproc
 104              	.LFE111:
 105              		.size	SPI_I2S_DeInit, .-SPI_I2S_DeInit
 106 006c AFF30080 		.section	.text.SPI_Init,"ax",%progbits
 107              		.align	2
 108              		.p2align 4,,15
 109              		.global	SPI_Init
 110              		.thumb
 111              		.thumb_func
 112              		.type	SPI_Init, %function
 113              	SPI_Init:
 114              	.LFB112:
ARM GAS  C:\Users\jsyoon\AppData\Local\Temp\cch2rfk4.s 			page 3


 115              		.loc 1 264 0
 116              		.cfi_startproc
 117              		@ args = 0, pretend = 0, frame = 0
 118              		@ frame_needed = 0, uses_anonymous_args = 0
 119              		@ link register save eliminated.
 120              	.LVL10:
 121 0000 2DE9F007 		push	{r4, r5, r6, r7, r8, r9, r10}
 122              		.cfi_def_cfa_offset 28
 123              		.cfi_offset 4, -28
 124              		.cfi_offset 5, -24
 125              		.cfi_offset 6, -20
 126              		.cfi_offset 7, -16
 127              		.cfi_offset 8, -12
 128              		.cfi_offset 9, -8
 129              		.cfi_offset 10, -4
 130              		.loc 1 294 0
 131 0004 B1F802A0 		ldrh	r10, [r1, #2]
 132 0008 B1F80090 		ldrh	r9, [r1]
 133 000c B1F80480 		ldrh	r8, [r1, #4]
 134 0010 0F89     		ldrh	r7, [r1, #8]
 135 0012 4E89     		ldrh	r6, [r1, #10]
 136 0014 8D89     		ldrh	r5, [r1, #12]
 137 0016 CC89     		ldrh	r4, [r1, #14]
 138 0018 B1F806C0 		ldrh	ip, [r1, #6]
 139              		.loc 1 305 0
 140 001c 0A8A     		ldrh	r2, [r1, #16]
 141              		.loc 1 283 0
 142 001e 0388     		ldrh	r3, [r0]
 143              	.LVL11:
 144              		.loc 1 294 0
 145 0020 4AEA0901 		orr	r1, r10, r9
 146              	.LVL12:
 147 0024 41EA0801 		orr	r1, r1, r8
 148 0028 41EA0C01 		orr	r1, r1, ip
 149 002c 3943     		orrs	r1, r1, r7
 150 002e 3143     		orrs	r1, r1, r6
 151 0030 2943     		orrs	r1, r1, r5
 152 0032 2143     		orrs	r1, r1, r4
 153              		.loc 1 285 0
 154 0034 03F44153 		and	r3, r3, #12352
 155              	.LVL13:
 156              		.loc 1 294 0
 157 0038 0B43     		orrs	r3, r3, r1
 158              	.LVL14:
 159 003a 9BB2     		uxth	r3, r3
 160              	.LVL15:
 161              		.loc 1 299 0
 162 003c 0380     		strh	r3, [r0]	@ movhi
 163              		.loc 1 302 0
 164 003e 838B     		ldrh	r3, [r0, #28]
 165              	.LVL16:
 166 0040 23F40063 		bic	r3, r3, #2048
 167 0044 1B04     		lsls	r3, r3, #16
 168 0046 1B0C     		lsrs	r3, r3, #16
 169 0048 8383     		strh	r3, [r0, #28]	@ movhi
 170              		.loc 1 306 0
 171 004a BDE8F007 		pop	{r4, r5, r6, r7, r8, r9, r10}
ARM GAS  C:\Users\jsyoon\AppData\Local\Temp\cch2rfk4.s 			page 4


 172              		.loc 1 305 0
 173 004e 0282     		strh	r2, [r0, #16]	@ movhi
 174              		.loc 1 306 0
 175 0050 7047     		bx	lr
 176              		.cfi_endproc
 177              	.LFE112:
 178              		.size	SPI_Init, .-SPI_Init
 179 0052 00BFAFF3 		.section	.text.I2S_Init,"ax",%progbits
 179      0080AFF3 
 179      0080AFF3 
 179      0080
 180              		.align	2
 181              		.p2align 4,,15
 182              		.global	I2S_Init
 183              		.thumb
 184              		.thumb_func
 185              		.type	I2S_Init, %function
 186              	I2S_Init:
 187              	.LFB113:
 188              		.loc 1 328 0
 189              		.cfi_startproc
 190              		@ args = 0, pretend = 0, frame = 0
 191              		@ frame_needed = 0, uses_anonymous_args = 0
 192              		@ link register save eliminated.
 193              	.LVL17:
 194              		.loc 1 346 0
 195 0000 838B     		ldrh	r3, [r0, #28]
 196              		.loc 1 353 0
 197 0002 8A68     		ldr	r2, [r1, #8]
 198              		.loc 1 346 0
 199 0004 23F47B63 		bic	r3, r3, #4016
 200 0008 23F00F03 		bic	r3, r3, #15
 201 000c 1B04     		lsls	r3, r3, #16
 202              		.loc 1 328 0
 203 000e 2DE9F003 		push	{r4, r5, r6, r7, r8, r9}
 204              		.cfi_def_cfa_offset 24
 205              		.cfi_offset 4, -24
 206              		.cfi_offset 5, -20
 207              		.cfi_offset 6, -16
 208              		.cfi_offset 7, -12
 209              		.cfi_offset 8, -8
 210              		.cfi_offset 9, -4
 211              		.loc 1 346 0
 212 0012 1B0C     		lsrs	r3, r3, #16
 213              		.loc 1 347 0
 214 0014 0224     		movs	r4, #2
 215              		.loc 1 346 0
 216 0016 8383     		strh	r3, [r0, #28]	@ movhi
 217              		.loc 1 347 0
 218 0018 0484     		strh	r4, [r0, #32]	@ movhi
 219              		.loc 1 350 0
 220 001a B0F81CC0 		ldrh	ip, [r0, #28]
 221              		.loc 1 353 0
 222 001e A242     		cmp	r2, r4
 223              		.loc 1 350 0
 224 0020 1FFA8CFC 		uxth	ip, ip
 225              	.LVL18:
ARM GAS  C:\Users\jsyoon\AppData\Local\Temp\cch2rfk4.s 			page 5


 226              		.loc 1 353 0
 227 0024 52D0     		beq	.L26
 228              		.loc 1 389 0
 229 0026 2B4B     		ldr	r3, .L28
 230              		.loc 1 362 0
 231 0028 8C88     		ldrh	r4, [r1, #4]
 232              		.loc 1 389 0
 233 002a 9D68     		ldr	r5, [r3, #8]
 234              		.loc 1 370 0
 235 002c 002C     		cmp	r4, #0
 236 002e 0CBF     		ite	eq
 237 0030 4FF00108 		moveq	r8, #1
 238 0034 4FF00208 		movne	r8, #2
 239              	.LVL19:
 240              		.loc 1 389 0
 241 0038 2D02     		lsls	r5, r5, #8
 242 003a 42D4     		bmi	.L27
 243              	.L16:
 244              		.loc 1 395 0
 245 003c 254B     		ldr	r3, .L28
 246              		.loc 1 406 0
 247 003e DFF89C90 		ldr	r9, .L28+8
 248              		.loc 1 395 0
 249 0042 D3F88450 		ldr	r5, [r3, #132]
 250              	.LVL20:
 251              		.loc 1 399 0
 252 0046 D3F88460 		ldr	r6, [r3, #132]
 253              	.LVL21:
 254              		.loc 1 403 0
 255 004a 5F68     		ldr	r7, [r3, #4]
 256              	.LVL22:
 257              		.loc 1 410 0
 258 004c CB88     		ldrh	r3, [r1, #6]
 259              		.loc 1 403 0
 260 004e 07F03F07 		and	r7, r7, #63
 261              	.LVL23:
 262              		.loc 1 395 0
 263 0052 C5F38815 		ubfx	r5, r5, #6, #9
 264              	.LVL24:
 265              		.loc 1 406 0
 266 0056 B9FBF7F7 		udiv	r7, r9, r7
 267              	.LVL25:
 268              		.loc 1 410 0
 269 005a B3F5007F 		cmp	r3, #512
 270              		.loc 1 399 0
 271 005e C6F30276 		ubfx	r6, r6, #28, #3
 272              	.LVL26:
 273              		.loc 1 406 0
 274 0062 05FB07F5 		mul	r5, r5, r7
 275 0066 B5FBF6F5 		udiv	r5, r5, r6
 276              	.LVL27:
 277              		.loc 1 418 0
 278 006a 16BF     		itet	ne
 279 006c 4FEA4818 		lslne	r8, r8, #5
 280              	.LVL28:
 281              		.loc 1 413 0
 282 0070 2D0A     		lsreq	r5, r5, #8
ARM GAS  C:\Users\jsyoon\AppData\Local\Temp\cch2rfk4.s 			page 6


 283              	.LVL29:
 284              		.loc 1 418 0
 285 0072 B5FBF8F5 		udivne	r5, r5, r8
 286 0076 05EB8505 		add	r5, r5, r5, lsl #2
 287 007a 6D00     		lsls	r5, r5, #1
 288 007c B5FBF2F2 		udiv	r2, r5, r2
 289 0080 0532     		adds	r2, r2, #5
 290              		.loc 1 422 0
 291 0082 154D     		ldr	r5, .L28+4
 292              		.loc 1 418 0
 293 0084 92B2     		uxth	r2, r2
 294              	.LVL30:
 295              		.loc 1 422 0
 296 0086 A5FB0262 		umull	r6, r2, r5, r2
 297              	.LVL31:
 298 008a D208     		lsrs	r2, r2, #3
 299              	.LVL32:
 300              		.loc 1 428 0
 301 008c 5508     		lsrs	r5, r2, #1
 302              		.loc 1 435 0
 303 008e AE1E     		subs	r6, r5, #2
 304              		.loc 1 428 0
 305 0090 02F00102 		and	r2, r2, #1
 306              	.LVL33:
 307              		.loc 1 435 0
 308 0094 FD2E     		cmp	r6, #253
 309 0096 94BF     		ite	ls
 310 0098 45EA0222 		orrls	r2, r5, r2, lsl #8
 311              	.LVL34:
 312 009c 0222     		movhi	r2, #2
 313              	.LVL35:
 314              	.L19:
 315              		.loc 1 447 0
 316 009e 0F88     		ldrh	r7, [r1]
 317              		.loc 1 446 0
 318 00a0 4E88     		ldrh	r6, [r1, #2]
 319 00a2 8D89     		ldrh	r5, [r1, #12]
 320              		.loc 1 447 0
 321 00a4 4CEA0701 		orr	r1, ip, r7
 322              	.LVL36:
 323 00a8 41F40061 		orr	r1, r1, #2048
 324              		.loc 1 446 0
 325 00ac 3143     		orrs	r1, r1, r6
 326 00ae 2943     		orrs	r1, r1, r5
 327              		.loc 1 443 0
 328 00b0 1343     		orrs	r3, r3, r2
 329              		.loc 1 446 0
 330 00b2 89B2     		uxth	r1, r1
 331 00b4 0C43     		orrs	r4, r4, r1
 332              	.LVL37:
 333              		.loc 1 443 0
 334 00b6 9BB2     		uxth	r3, r3
 335 00b8 0384     		strh	r3, [r0, #32]	@ movhi
 336              		.loc 1 451 0
 337 00ba 8483     		strh	r4, [r0, #28]	@ movhi
 338              		.loc 1 452 0
 339 00bc BDE8F003 		pop	{r4, r5, r6, r7, r8, r9}
ARM GAS  C:\Users\jsyoon\AppData\Local\Temp\cch2rfk4.s 			page 7


 340              	.LVL38:
 341 00c0 7047     		bx	lr
 342              	.LVL39:
 343              	.L27:
 344              		.loc 1 391 0
 345 00c2 9D68     		ldr	r5, [r3, #8]
 346 00c4 25F40005 		bic	r5, r5, #8388608
 347 00c8 9D60     		str	r5, [r3, #8]
 348 00ca B7E7     		b	.L16
 349              	.LVL40:
 350              	.L26:
 351 00cc 8C88     		ldrh	r4, [r1, #4]
 352 00ce CB88     		ldrh	r3, [r1, #6]
 353 00d0 E5E7     		b	.L19
 354              	.L29:
 355 00d2 00BF     		.align	2
 356              	.L28:
 357 00d4 00380240 		.word	1073887232
 358 00d8 CDCCCCCC 		.word	-858993459
 359 00dc 00127A00 		.word	8000000
 360              		.cfi_endproc
 361              	.LFE113:
 362              		.size	I2S_Init, .-I2S_Init
 363              		.section	.text.SPI_StructInit,"ax",%progbits
 364              		.align	2
 365              		.p2align 4,,15
 366              		.global	SPI_StructInit
 367              		.thumb
 368              		.thumb_func
 369              		.type	SPI_StructInit, %function
 370              	SPI_StructInit:
 371              	.LFB114:
 372              		.loc 1 460 0
 373              		.cfi_startproc
 374              		@ args = 0, pretend = 0, frame = 0
 375              		@ frame_needed = 0, uses_anonymous_args = 0
 376              		@ link register save eliminated.
 377              	.LVL41:
 378              		.loc 1 463 0
 379 0000 0023     		movs	r3, #0
 380              		.loc 1 479 0
 381 0002 0722     		movs	r2, #7
 382 0004 0282     		strh	r2, [r0, #16]	@ movhi
 383              		.loc 1 463 0
 384 0006 0380     		strh	r3, [r0]	@ movhi
 385              		.loc 1 465 0
 386 0008 4380     		strh	r3, [r0, #2]	@ movhi
 387              		.loc 1 467 0
 388 000a 8380     		strh	r3, [r0, #4]	@ movhi
 389              		.loc 1 469 0
 390 000c C380     		strh	r3, [r0, #6]	@ movhi
 391              		.loc 1 471 0
 392 000e 0381     		strh	r3, [r0, #8]	@ movhi
 393              		.loc 1 473 0
 394 0010 4381     		strh	r3, [r0, #10]	@ movhi
 395              		.loc 1 475 0
 396 0012 8381     		strh	r3, [r0, #12]	@ movhi
ARM GAS  C:\Users\jsyoon\AppData\Local\Temp\cch2rfk4.s 			page 8


 397              		.loc 1 477 0
 398 0014 C381     		strh	r3, [r0, #14]	@ movhi
 399 0016 7047     		bx	lr
 400              		.cfi_endproc
 401              	.LFE114:
 402              		.size	SPI_StructInit, .-SPI_StructInit
 403              		.section	.text.I2S_StructInit,"ax",%progbits
 404              		.align	2
 405              		.p2align 4,,15
 406              		.global	I2S_StructInit
 407              		.thumb
 408              		.thumb_func
 409              		.type	I2S_StructInit, %function
 410              	I2S_StructInit:
 411              	.LFB115:
 412              		.loc 1 488 0
 413              		.cfi_startproc
 414              		@ args = 0, pretend = 0, frame = 0
 415              		@ frame_needed = 0, uses_anonymous_args = 0
 416              		@ link register save eliminated.
 417              	.LVL42:
 418              		.loc 1 491 0
 419 0000 0023     		movs	r3, #0
 420              		.loc 1 503 0
 421 0002 0222     		movs	r2, #2
 422 0004 8260     		str	r2, [r0, #8]
 423              		.loc 1 491 0
 424 0006 0380     		strh	r3, [r0]	@ movhi
 425              		.loc 1 494 0
 426 0008 4380     		strh	r3, [r0, #2]	@ movhi
 427              		.loc 1 497 0
 428 000a 8380     		strh	r3, [r0, #4]	@ movhi
 429              		.loc 1 500 0
 430 000c C380     		strh	r3, [r0, #6]	@ movhi
 431              		.loc 1 506 0
 432 000e 8381     		strh	r3, [r0, #12]	@ movhi
 433 0010 7047     		bx	lr
 434              		.cfi_endproc
 435              	.LFE115:
 436              		.size	I2S_StructInit, .-I2S_StructInit
 437 0012 00BFAFF3 		.section	.text.SPI_Cmd,"ax",%progbits
 437      0080AFF3 
 437      0080AFF3 
 437      0080
 438              		.align	2
 439              		.p2align 4,,15
 440              		.global	SPI_Cmd
 441              		.thumb
 442              		.thumb_func
 443              		.type	SPI_Cmd, %function
 444              	SPI_Cmd:
 445              	.LFB116:
 446              		.loc 1 517 0
 447              		.cfi_startproc
 448              		@ args = 0, pretend = 0, frame = 0
 449              		@ frame_needed = 0, uses_anonymous_args = 0
 450              		@ link register save eliminated.
ARM GAS  C:\Users\jsyoon\AppData\Local\Temp\cch2rfk4.s 			page 9


 451              	.LVL43:
 452              		.loc 1 524 0
 453 0000 0388     		ldrh	r3, [r0]
 454              		.loc 1 521 0
 455 0002 29B9     		cbnz	r1, .L35
 456              		.loc 1 529 0
 457 0004 23F04003 		bic	r3, r3, #64
 458 0008 1B04     		lsls	r3, r3, #16
 459 000a 1B0C     		lsrs	r3, r3, #16
 460 000c 0380     		strh	r3, [r0]	@ movhi
 461 000e 7047     		bx	lr
 462              	.L35:
 463              		.loc 1 524 0
 464 0010 9BB2     		uxth	r3, r3
 465 0012 43F04003 		orr	r3, r3, #64
 466 0016 0380     		strh	r3, [r0]	@ movhi
 467 0018 7047     		bx	lr
 468              		.cfi_endproc
 469              	.LFE116:
 470              		.size	SPI_Cmd, .-SPI_Cmd
 471 001a 00BFAFF3 		.section	.text.I2S_Cmd,"ax",%progbits
 471      0080
 472              		.align	2
 473              		.p2align 4,,15
 474              		.global	I2S_Cmd
 475              		.thumb
 476              		.thumb_func
 477              		.type	I2S_Cmd, %function
 478              	I2S_Cmd:
 479              	.LFB117:
 480              		.loc 1 542 0
 481              		.cfi_startproc
 482              		@ args = 0, pretend = 0, frame = 0
 483              		@ frame_needed = 0, uses_anonymous_args = 0
 484              		@ link register save eliminated.
 485              	.LVL44:
 486              		.loc 1 550 0
 487 0000 838B     		ldrh	r3, [r0, #28]
 488              		.loc 1 547 0
 489 0002 29B9     		cbnz	r1, .L39
 490              		.loc 1 555 0
 491 0004 23F48063 		bic	r3, r3, #1024
 492 0008 1B04     		lsls	r3, r3, #16
 493 000a 1B0C     		lsrs	r3, r3, #16
 494 000c 8383     		strh	r3, [r0, #28]	@ movhi
 495 000e 7047     		bx	lr
 496              	.L39:
 497              		.loc 1 550 0
 498 0010 9BB2     		uxth	r3, r3
 499 0012 43F48063 		orr	r3, r3, #1024
 500 0016 8383     		strh	r3, [r0, #28]	@ movhi
 501 0018 7047     		bx	lr
 502              		.cfi_endproc
 503              	.LFE117:
 504              		.size	I2S_Cmd, .-I2S_Cmd
 505 001a 00BFAFF3 		.section	.text.SPI_DataSizeConfig,"ax",%progbits
 505      0080
ARM GAS  C:\Users\jsyoon\AppData\Local\Temp\cch2rfk4.s 			page 10


 506              		.align	2
 507              		.p2align 4,,15
 508              		.global	SPI_DataSizeConfig
 509              		.thumb
 510              		.thumb_func
 511              		.type	SPI_DataSizeConfig, %function
 512              	SPI_DataSizeConfig:
 513              	.LFB118:
 514              		.loc 1 569 0
 515              		.cfi_startproc
 516              		@ args = 0, pretend = 0, frame = 0
 517              		@ frame_needed = 0, uses_anonymous_args = 0
 518              		@ link register save eliminated.
 519              	.LVL45:
 520              		.loc 1 574 0
 521 0000 0388     		ldrh	r3, [r0]
 522 0002 23F40063 		bic	r3, r3, #2048
 523 0006 1B04     		lsls	r3, r3, #16
 524 0008 1B0C     		lsrs	r3, r3, #16
 525 000a 0380     		strh	r3, [r0]	@ movhi
 526              		.loc 1 576 0
 527 000c 0388     		ldrh	r3, [r0]
 528 000e 9BB2     		uxth	r3, r3
 529 0010 1943     		orrs	r1, r1, r3
 530              	.LVL46:
 531 0012 0180     		strh	r1, [r0]	@ movhi
 532 0014 7047     		bx	lr
 533              		.cfi_endproc
 534              	.LFE118:
 535              		.size	SPI_DataSizeConfig, .-SPI_DataSizeConfig
 536 0016 00BFAFF3 		.section	.text.SPI_BiDirectionalLineConfig,"ax",%progbits
 536      0080AFF3 
 536      0080
 537              		.align	2
 538              		.p2align 4,,15
 539              		.global	SPI_BiDirectionalLineConfig
 540              		.thumb
 541              		.thumb_func
 542              		.type	SPI_BiDirectionalLineConfig, %function
 543              	SPI_BiDirectionalLineConfig:
 544              	.LFB119:
 545              		.loc 1 589 0
 546              		.cfi_startproc
 547              		@ args = 0, pretend = 0, frame = 0
 548              		@ frame_needed = 0, uses_anonymous_args = 0
 549              		@ link register save eliminated.
 550              	.LVL47:
 551              		.loc 1 593 0
 552 0000 B1F5804F 		cmp	r1, #16384
 553              		.loc 1 596 0
 554 0004 0388     		ldrh	r3, [r0]
 555              		.loc 1 593 0
 556 0006 05D0     		beq	.L44
 557              		.loc 1 601 0
 558 0008 23F48043 		bic	r3, r3, #16384
 559 000c 1B04     		lsls	r3, r3, #16
 560 000e 1B0C     		lsrs	r3, r3, #16
ARM GAS  C:\Users\jsyoon\AppData\Local\Temp\cch2rfk4.s 			page 11


 561 0010 0380     		strh	r3, [r0]	@ movhi
 562 0012 7047     		bx	lr
 563              	.L44:
 564              		.loc 1 596 0
 565 0014 9BB2     		uxth	r3, r3
 566 0016 43F48043 		orr	r3, r3, #16384
 567 001a 0380     		strh	r3, [r0]	@ movhi
 568 001c 7047     		bx	lr
 569              		.cfi_endproc
 570              	.LFE119:
 571              		.size	SPI_BiDirectionalLineConfig, .-SPI_BiDirectionalLineConfig
 572 001e 00BF     		.section	.text.SPI_NSSInternalSoftwareConfig,"ax",%progbits
 573              		.align	2
 574              		.p2align 4,,15
 575              		.global	SPI_NSSInternalSoftwareConfig
 576              		.thumb
 577              		.thumb_func
 578              		.type	SPI_NSSInternalSoftwareConfig, %function
 579              	SPI_NSSInternalSoftwareConfig:
 580              	.LFB120:
 581              		.loc 1 615 0
 582              		.cfi_startproc
 583              		@ args = 0, pretend = 0, frame = 0
 584              		@ frame_needed = 0, uses_anonymous_args = 0
 585              		@ link register save eliminated.
 586              	.LVL48:
 587              		.loc 1 619 0
 588 0000 4FF6FF63 		movw	r3, #65279
 589 0004 9942     		cmp	r1, r3
 590              		.loc 1 622 0
 591 0006 0388     		ldrh	r3, [r0]
 592              		.loc 1 619 0
 593 0008 04D0     		beq	.L46
 594              		.loc 1 622 0
 595 000a 9BB2     		uxth	r3, r3
 596 000c 43F48073 		orr	r3, r3, #256
 597 0010 0380     		strh	r3, [r0]	@ movhi
 598 0012 7047     		bx	lr
 599              	.L46:
 600              		.loc 1 627 0
 601 0014 23F48073 		bic	r3, r3, #256
 602 0018 1B04     		lsls	r3, r3, #16
 603 001a 1B0C     		lsrs	r3, r3, #16
 604 001c 0380     		strh	r3, [r0]	@ movhi
 605 001e 7047     		bx	lr
 606              		.cfi_endproc
 607              	.LFE120:
 608              		.size	SPI_NSSInternalSoftwareConfig, .-SPI_NSSInternalSoftwareConfig
 609              		.section	.text.SPI_SSOutputCmd,"ax",%progbits
 610              		.align	2
 611              		.p2align 4,,15
 612              		.global	SPI_SSOutputCmd
 613              		.thumb
 614              		.thumb_func
 615              		.type	SPI_SSOutputCmd, %function
 616              	SPI_SSOutputCmd:
 617              	.LFB121:
ARM GAS  C:\Users\jsyoon\AppData\Local\Temp\cch2rfk4.s 			page 12


 618              		.loc 1 639 0
 619              		.cfi_startproc
 620              		@ args = 0, pretend = 0, frame = 0
 621              		@ frame_needed = 0, uses_anonymous_args = 0
 622              		@ link register save eliminated.
 623              	.LVL49:
 624              		.loc 1 646 0
 625 0000 8388     		ldrh	r3, [r0, #4]
 626              		.loc 1 643 0
 627 0002 29B9     		cbnz	r1, .L51
 628              		.loc 1 651 0
 629 0004 23F00403 		bic	r3, r3, #4
 630 0008 1B04     		lsls	r3, r3, #16
 631 000a 1B0C     		lsrs	r3, r3, #16
 632 000c 8380     		strh	r3, [r0, #4]	@ movhi
 633 000e 7047     		bx	lr
 634              	.L51:
 635              		.loc 1 646 0
 636 0010 9BB2     		uxth	r3, r3
 637 0012 43F00403 		orr	r3, r3, #4
 638 0016 8380     		strh	r3, [r0, #4]	@ movhi
 639 0018 7047     		bx	lr
 640              		.cfi_endproc
 641              	.LFE121:
 642              		.size	SPI_SSOutputCmd, .-SPI_SSOutputCmd
 643 001a 00BFAFF3 		.section	.text.SPI_TIModeCmd,"ax",%progbits
 643      0080
 644              		.align	2
 645              		.p2align 4,,15
 646              		.global	SPI_TIModeCmd
 647              		.thumb
 648              		.thumb_func
 649              		.type	SPI_TIModeCmd, %function
 650              	SPI_TIModeCmd:
 651              	.LFB122:
 652              		.loc 1 670 0
 653              		.cfi_startproc
 654              		@ args = 0, pretend = 0, frame = 0
 655              		@ frame_needed = 0, uses_anonymous_args = 0
 656              		@ link register save eliminated.
 657              	.LVL50:
 658              		.loc 1 678 0
 659 0000 8388     		ldrh	r3, [r0, #4]
 660              		.loc 1 675 0
 661 0002 29B9     		cbnz	r1, .L55
 662              		.loc 1 683 0
 663 0004 23F01003 		bic	r3, r3, #16
 664 0008 1B04     		lsls	r3, r3, #16
 665 000a 1B0C     		lsrs	r3, r3, #16
 666 000c 8380     		strh	r3, [r0, #4]	@ movhi
 667 000e 7047     		bx	lr
 668              	.L55:
 669              		.loc 1 678 0
 670 0010 9BB2     		uxth	r3, r3
 671 0012 43F01003 		orr	r3, r3, #16
 672 0016 8380     		strh	r3, [r0, #4]	@ movhi
 673 0018 7047     		bx	lr
ARM GAS  C:\Users\jsyoon\AppData\Local\Temp\cch2rfk4.s 			page 13


 674              		.cfi_endproc
 675              	.LFE122:
 676              		.size	SPI_TIModeCmd, .-SPI_TIModeCmd
 677 001a 00BFAFF3 		.section	.text.I2S_FullDuplexConfig,"ax",%progbits
 677      0080
 678              		.align	2
 679              		.p2align 4,,15
 680              		.global	I2S_FullDuplexConfig
 681              		.thumb
 682              		.thumb_func
 683              		.type	I2S_FullDuplexConfig, %function
 684              	I2S_FullDuplexConfig:
 685              	.LFB123:
 686              		.loc 1 707 0
 687              		.cfi_startproc
 688              		@ args = 0, pretend = 0, frame = 0
 689              		@ frame_needed = 0, uses_anonymous_args = 0
 690              		@ link register save eliminated.
 691              	.LVL51:
 692              		.loc 1 719 0
 693 0000 838B     		ldrh	r3, [r0, #28]
 694 0002 23F47B63 		bic	r3, r3, #4016
 695 0006 23F00F03 		bic	r3, r3, #15
 696 000a 1B04     		lsls	r3, r3, #16
 697              		.loc 1 720 0
 698 000c 0222     		movs	r2, #2
 699              		.loc 1 719 0
 700 000e 1B0C     		lsrs	r3, r3, #16
 701 0010 8383     		strh	r3, [r0, #28]	@ movhi
 702              		.loc 1 720 0
 703 0012 0284     		strh	r2, [r0, #32]	@ movhi
 704              		.loc 1 723 0
 705 0014 838B     		ldrh	r3, [r0, #28]
 706              		.loc 1 726 0
 707 0016 0A88     		ldrh	r2, [r1]
 708              		.loc 1 707 0
 709 0018 30B4     		push	{r4, r5}
 710              		.cfi_def_cfa_offset 8
 711              		.cfi_offset 4, -8
 712              		.cfi_offset 5, -4
 713              		.loc 1 741 0
 714 001a 4D88     		ldrh	r5, [r1, #2]
 715              		.loc 1 740 0
 716 001c 8C88     		ldrh	r4, [r1, #4]
 717 001e 8989     		ldrh	r1, [r1, #12]
 718              	.LVL52:
 719              		.loc 1 723 0
 720 0020 9BB2     		uxth	r3, r3
 721              	.LVL53:
 722              		.loc 1 741 0
 723 0022 2B43     		orrs	r3, r3, r5
 724              	.LVL54:
 725 0024 43F40063 		orr	r3, r3, #2048
 726              		.loc 1 726 0
 727 0028 22F40072 		bic	r2, r2, #512
 728              		.loc 1 740 0
 729 002c 2343     		orrs	r3, r3, r4
ARM GAS  C:\Users\jsyoon\AppData\Local\Temp\cch2rfk4.s 			page 14


 730              		.loc 1 726 0
 731 002e 92B2     		uxth	r2, r2
 732              		.loc 1 740 0
 733 0030 0B43     		orrs	r3, r3, r1
 734              		.loc 1 726 0
 735 0032 002A     		cmp	r2, #0
 736              		.loc 1 740 0
 737 0034 9BB2     		uxth	r3, r3
 738              		.loc 1 728 0
 739 0036 14BF     		ite	ne
 740 0038 0022     		movne	r2, #0
 741 003a 4FF48072 		moveq	r2, #256
 742              	.LVL55:
 743              		.loc 1 740 0
 744 003e 1343     		orrs	r3, r3, r2
 745              	.LVL56:
 746              		.loc 1 745 0
 747 0040 8383     		strh	r3, [r0, #28]	@ movhi
 748              		.loc 1 746 0
 749 0042 30BC     		pop	{r4, r5}
 750 0044 7047     		bx	lr
 751              		.cfi_endproc
 752              	.LFE123:
 753              		.size	I2S_FullDuplexConfig, .-I2S_FullDuplexConfig
 754 0046 00BFAFF3 		.section	.text.SPI_I2S_ReceiveData,"ax",%progbits
 754      0080AFF3 
 754      0080
 755              		.align	2
 756              		.p2align 4,,15
 757              		.global	SPI_I2S_ReceiveData
 758              		.thumb
 759              		.thumb_func
 760              		.type	SPI_I2S_ReceiveData, %function
 761              	SPI_I2S_ReceiveData:
 762              	.LFB124:
 763              		.loc 1 782 0
 764              		.cfi_startproc
 765              		@ args = 0, pretend = 0, frame = 0
 766              		@ frame_needed = 0, uses_anonymous_args = 0
 767              		@ link register save eliminated.
 768              	.LVL57:
 769              		.loc 1 787 0
 770 0000 8089     		ldrh	r0, [r0, #12]
 771              	.LVL58:
 772              		.loc 1 788 0
 773 0002 80B2     		uxth	r0, r0
 774 0004 7047     		bx	lr
 775              		.cfi_endproc
 776              	.LFE124:
 777              		.size	SPI_I2S_ReceiveData, .-SPI_I2S_ReceiveData
 778 0006 00BFAFF3 		.section	.text.SPI_I2S_SendData,"ax",%progbits
 778      0080AFF3 
 778      0080
 779              		.align	2
 780              		.p2align 4,,15
 781              		.global	SPI_I2S_SendData
 782              		.thumb
ARM GAS  C:\Users\jsyoon\AppData\Local\Temp\cch2rfk4.s 			page 15


 783              		.thumb_func
 784              		.type	SPI_I2S_SendData, %function
 785              	SPI_I2S_SendData:
 786              	.LFB125:
 787              		.loc 1 798 0
 788              		.cfi_startproc
 789              		@ args = 0, pretend = 0, frame = 0
 790              		@ frame_needed = 0, uses_anonymous_args = 0
 791              		@ link register save eliminated.
 792              	.LVL59:
 793              		.loc 1 803 0
 794 0000 8181     		strh	r1, [r0, #12]	@ movhi
 795 0002 7047     		bx	lr
 796              		.cfi_endproc
 797              	.LFE125:
 798              		.size	SPI_I2S_SendData, .-SPI_I2S_SendData
 799 0004 AFF30080 		.section	.text.SPI_CalculateCRC,"ax",%progbits
 799      AFF30080 
 799      AFF30080 
 800              		.align	2
 801              		.p2align 4,,15
 802              		.global	SPI_CalculateCRC
 803              		.thumb
 804              		.thumb_func
 805              		.type	SPI_CalculateCRC, %function
 806              	SPI_CalculateCRC:
 807              	.LFB126:
 808              		.loc 1 887 0
 809              		.cfi_startproc
 810              		@ args = 0, pretend = 0, frame = 0
 811              		@ frame_needed = 0, uses_anonymous_args = 0
 812              		@ link register save eliminated.
 813              	.LVL60:
 814              		.loc 1 894 0
 815 0000 0388     		ldrh	r3, [r0]
 816              		.loc 1 891 0
 817 0002 29B9     		cbnz	r1, .L64
 818              		.loc 1 899 0
 819 0004 23F40053 		bic	r3, r3, #8192
 820 0008 1B04     		lsls	r3, r3, #16
 821 000a 1B0C     		lsrs	r3, r3, #16
 822 000c 0380     		strh	r3, [r0]	@ movhi
 823 000e 7047     		bx	lr
 824              	.L64:
 825              		.loc 1 894 0
 826 0010 9BB2     		uxth	r3, r3
 827 0012 43F40053 		orr	r3, r3, #8192
 828 0016 0380     		strh	r3, [r0]	@ movhi
 829 0018 7047     		bx	lr
 830              		.cfi_endproc
 831              	.LFE126:
 832              		.size	SPI_CalculateCRC, .-SPI_CalculateCRC
 833 001a 00BFAFF3 		.section	.text.SPI_TransmitCRC,"ax",%progbits
 833      0080
 834              		.align	2
 835              		.p2align 4,,15
 836              		.global	SPI_TransmitCRC
ARM GAS  C:\Users\jsyoon\AppData\Local\Temp\cch2rfk4.s 			page 16


 837              		.thumb
 838              		.thumb_func
 839              		.type	SPI_TransmitCRC, %function
 840              	SPI_TransmitCRC:
 841              	.LFB127:
 842              		.loc 1 909 0
 843              		.cfi_startproc
 844              		@ args = 0, pretend = 0, frame = 0
 845              		@ frame_needed = 0, uses_anonymous_args = 0
 846              		@ link register save eliminated.
 847              	.LVL61:
 848              		.loc 1 914 0
 849 0000 0388     		ldrh	r3, [r0]
 850 0002 9BB2     		uxth	r3, r3
 851 0004 43F48053 		orr	r3, r3, #4096
 852 0008 0380     		strh	r3, [r0]	@ movhi
 853 000a 7047     		bx	lr
 854              		.cfi_endproc
 855              	.LFE127:
 856              		.size	SPI_TransmitCRC, .-SPI_TransmitCRC
 857              		.section	.text.SPI_GetCRC,"ax",%progbits
 858              		.align	2
 859              		.p2align 4,,15
 860              		.global	SPI_GetCRC
 861              		.thumb
 862              		.thumb_func
 863              		.type	SPI_GetCRC, %function
 864              	SPI_GetCRC:
 865              	.LFB128:
 866              		.loc 1 927 0
 867              		.cfi_startproc
 868              		@ args = 0, pretend = 0, frame = 0
 869              		@ frame_needed = 0, uses_anonymous_args = 0
 870              		@ link register save eliminated.
 871              	.LVL62:
 872              		.loc 1 932 0
 873 0000 0129     		cmp	r1, #1
 874              		.loc 1 935 0
 875 0002 14BF     		ite	ne
 876 0004 008B     		ldrhne	r0, [r0, #24]
 877              	.LVL63:
 878              		.loc 1 940 0
 879 0006 808A     		ldrheq	r0, [r0, #20]
 880 0008 80B2     		uxth	r0, r0
 881              	.LVL64:
 882              		.loc 1 944 0
 883 000a 7047     		bx	lr
 884              		.cfi_endproc
 885              	.LFE128:
 886              		.size	SPI_GetCRC, .-SPI_GetCRC
 887 000c AFF30080 		.section	.text.SPI_GetCRCPolynomial,"ax",%progbits
 888              		.align	2
 889              		.p2align 4,,15
 890              		.global	SPI_GetCRCPolynomial
 891              		.thumb
 892              		.thumb_func
 893              		.type	SPI_GetCRCPolynomial, %function
ARM GAS  C:\Users\jsyoon\AppData\Local\Temp\cch2rfk4.s 			page 17


 894              	SPI_GetCRCPolynomial:
 895              	.LFB129:
 896              		.loc 1 952 0
 897              		.cfi_startproc
 898              		@ args = 0, pretend = 0, frame = 0
 899              		@ frame_needed = 0, uses_anonymous_args = 0
 900              		@ link register save eliminated.
 901              	.LVL65:
 902              		.loc 1 957 0
 903 0000 008A     		ldrh	r0, [r0, #16]
 904              	.LVL66:
 905              		.loc 1 958 0
 906 0002 80B2     		uxth	r0, r0
 907 0004 7047     		bx	lr
 908              		.cfi_endproc
 909              	.LFE129:
 910              		.size	SPI_GetCRCPolynomial, .-SPI_GetCRCPolynomial
 911 0006 00BFAFF3 		.section	.text.SPI_I2S_DMACmd,"ax",%progbits
 911      0080AFF3 
 911      0080
 912              		.align	2
 913              		.p2align 4,,15
 914              		.global	SPI_I2S_DMACmd
 915              		.thumb
 916              		.thumb_func
 917              		.type	SPI_I2S_DMACmd, %function
 918              	SPI_I2S_DMACmd:
 919              	.LFB130:
 920              		.loc 1 989 0
 921              		.cfi_startproc
 922              		@ args = 0, pretend = 0, frame = 0
 923              		@ frame_needed = 0, uses_anonymous_args = 0
 924              		@ link register save eliminated.
 925              	.LVL67:
 926              		.loc 1 998 0
 927 0000 8388     		ldrh	r3, [r0, #4]
 928 0002 9BB2     		uxth	r3, r3
 929              		.loc 1 995 0
 930 0004 1AB9     		cbnz	r2, .L73
 931              		.loc 1 1003 0
 932 0006 23EA0101 		bic	r1, r3, r1
 933              	.LVL68:
 934 000a 8180     		strh	r1, [r0, #4]	@ movhi
 935 000c 7047     		bx	lr
 936              	.LVL69:
 937              	.L73:
 938              		.loc 1 998 0
 939 000e 1943     		orrs	r1, r1, r3
 940              	.LVL70:
 941 0010 8180     		strh	r1, [r0, #4]	@ movhi
 942 0012 7047     		bx	lr
 943              		.cfi_endproc
 944              	.LFE130:
 945              		.size	SPI_I2S_DMACmd, .-SPI_I2S_DMACmd
 946 0014 AFF30080 		.section	.text.SPI_I2S_ITConfig,"ax",%progbits
 946      AFF30080 
 946      AFF30080 
ARM GAS  C:\Users\jsyoon\AppData\Local\Temp\cch2rfk4.s 			page 18


 947              		.align	2
 948              		.p2align 4,,15
 949              		.global	SPI_I2S_ITConfig
 950              		.thumb
 951              		.thumb_func
 952              		.type	SPI_I2S_ITConfig, %function
 953              	SPI_I2S_ITConfig:
 954              	.LFB131:
 955              		.loc 1 1098 0
 956              		.cfi_startproc
 957              		@ args = 0, pretend = 0, frame = 0
 958              		@ frame_needed = 0, uses_anonymous_args = 0
 959              		@ link register save eliminated.
 960              	.LVL71:
 961              		.loc 1 1110 0
 962 0000 0123     		movs	r3, #1
 963 0002 0909     		lsrs	r1, r1, #4
 964              	.LVL72:
 965 0004 03FA01F1 		lsl	r1, r3, r1
 966              		.loc 1 1115 0
 967 0008 8388     		ldrh	r3, [r0, #4]
 968              		.loc 1 1110 0
 969 000a 89B2     		uxth	r1, r1
 970              	.LVL73:
 971              		.loc 1 1115 0
 972 000c 9BB2     		uxth	r3, r3
 973              		.loc 1 1112 0
 974 000e 1AB9     		cbnz	r2, .L77
 975              		.loc 1 1120 0
 976 0010 23EA0101 		bic	r1, r3, r1
 977              	.LVL74:
 978 0014 8180     		strh	r1, [r0, #4]	@ movhi
 979 0016 7047     		bx	lr
 980              	.LVL75:
 981              	.L77:
 982              		.loc 1 1115 0
 983 0018 1943     		orrs	r1, r1, r3
 984              	.LVL76:
 985 001a 8180     		strh	r1, [r0, #4]	@ movhi
 986 001c 7047     		bx	lr
 987              		.cfi_endproc
 988              	.LFE131:
 989              		.size	SPI_I2S_ITConfig, .-SPI_I2S_ITConfig
 990 001e 00BF     		.section	.text.SPI_I2S_GetFlagStatus,"ax",%progbits
 991              		.align	2
 992              		.p2align 4,,15
 993              		.global	SPI_I2S_GetFlagStatus
 994              		.thumb
 995              		.thumb_func
 996              		.type	SPI_I2S_GetFlagStatus, %function
 997              	SPI_I2S_GetFlagStatus:
 998              	.LFB132:
 999              		.loc 1 1142 0
 1000              		.cfi_startproc
 1001              		@ args = 0, pretend = 0, frame = 0
 1002              		@ frame_needed = 0, uses_anonymous_args = 0
 1003              		@ link register save eliminated.
ARM GAS  C:\Users\jsyoon\AppData\Local\Temp\cch2rfk4.s 			page 19


 1004              	.LVL77:
 1005              		.loc 1 1149 0
 1006 0000 0389     		ldrh	r3, [r0, #8]
 1007              	.LVL78:
 1008 0002 1942     		tst	r1, r3
 1009              		.loc 1 1161 0
 1010 0004 0CBF     		ite	eq
 1011 0006 0020     		moveq	r0, #0
 1012 0008 0120     		movne	r0, #1
 1013              	.LVL79:
 1014 000a 7047     		bx	lr
 1015              		.cfi_endproc
 1016              	.LFE132:
 1017              		.size	SPI_I2S_GetFlagStatus, .-SPI_I2S_GetFlagStatus
 1018 000c AFF30080 		.section	.text.SPI_I2S_ClearFlag,"ax",%progbits
 1019              		.align	2
 1020              		.p2align 4,,15
 1021              		.global	SPI_I2S_ClearFlag
 1022              		.thumb
 1023              		.thumb_func
 1024              		.type	SPI_I2S_ClearFlag, %function
 1025              	SPI_I2S_ClearFlag:
 1026              	.LFB133:
 1027              		.loc 1 1183 0
 1028              		.cfi_startproc
 1029              		@ args = 0, pretend = 0, frame = 0
 1030              		@ frame_needed = 0, uses_anonymous_args = 0
 1031              		@ link register save eliminated.
 1032              	.LVL80:
 1033              		.loc 1 1189 0
 1034 0000 C943     		mvns	r1, r1
 1035              	.LVL81:
 1036 0002 89B2     		uxth	r1, r1
 1037 0004 0181     		strh	r1, [r0, #8]	@ movhi
 1038 0006 7047     		bx	lr
 1039              		.cfi_endproc
 1040              	.LFE133:
 1041              		.size	SPI_I2S_ClearFlag, .-SPI_I2S_ClearFlag
 1042 0008 AFF30080 		.section	.text.SPI_I2S_GetITStatus,"ax",%progbits
 1042      AFF30080 
 1043              		.align	2
 1044              		.p2align 4,,15
 1045              		.global	SPI_I2S_GetITStatus
 1046              		.thumb
 1047              		.thumb_func
 1048              		.type	SPI_I2S_GetITStatus, %function
 1049              	SPI_I2S_GetITStatus:
 1050              	.LFB134:
 1051              		.loc 1 1208 0
 1052              		.cfi_startproc
 1053              		@ args = 0, pretend = 0, frame = 0
 1054              		@ frame_needed = 0, uses_anonymous_args = 0
 1055              		@ link register save eliminated.
 1056              	.LVL82:
 1057 0000 10B4     		push	{r4}
 1058              		.cfi_def_cfa_offset 4
 1059              		.cfi_offset 4, -4
ARM GAS  C:\Users\jsyoon\AppData\Local\Temp\cch2rfk4.s 			page 20


 1060              		.loc 1 1226 0
 1061 0002 8488     		ldrh	r4, [r0, #4]
 1062              		.loc 1 1229 0
 1063 0004 0089     		ldrh	r0, [r0, #8]
 1064              	.LVL83:
 1065              		.loc 1 1217 0
 1066 0006 01F00F03 		and	r3, r1, #15
 1067 000a 0122     		movs	r2, #1
 1068              		.loc 1 1229 0
 1069 000c 80B2     		uxth	r0, r0
 1070              		.loc 1 1217 0
 1071 000e 02FA03F3 		lsl	r3, r2, r3
 1072              		.loc 1 1229 0
 1073 0012 1840     		ands	r0, r0, r3
 1074              		.loc 1 1226 0
 1075 0014 A4B2     		uxth	r4, r4
 1076              	.LVL84:
 1077              		.loc 1 1229 0
 1078 0016 05D0     		beq	.L81
 1079              		.loc 1 1223 0 discriminator 1
 1080 0018 0909     		lsrs	r1, r1, #4
 1081              	.LVL85:
 1082 001a 8A40     		lsls	r2, r2, r1
 1083              		.loc 1 1229 0 discriminator 1
 1084 001c 1442     		tst	r4, r2
 1085              		.loc 1 1232 0 discriminator 1
 1086 001e 0CBF     		ite	eq
 1087 0020 0020     		moveq	r0, #0
 1088 0022 0120     		movne	r0, #1
 1089              	.L81:
 1090              	.LVL86:
 1091              		.loc 1 1241 0
 1092 0024 5DF8044B 		ldr	r4, [sp], #4
 1093 0028 7047     		bx	lr
 1094              		.cfi_endproc
 1095              	.LFE134:
 1096              		.size	SPI_I2S_GetITStatus, .-SPI_I2S_GetITStatus
 1097 002a 00BFAFF3 		.section	.text.SPI_I2S_ClearITPendingBit,"ax",%progbits
 1097      0080
 1098              		.align	2
 1099              		.p2align 4,,15
 1100              		.global	SPI_I2S_ClearITPendingBit
 1101              		.thumb
 1102              		.thumb_func
 1103              		.type	SPI_I2S_ClearITPendingBit, %function
 1104              	SPI_I2S_ClearITPendingBit:
 1105              	.LFB135:
 1106              		.loc 1 1263 0
 1107              		.cfi_startproc
 1108              		@ args = 0, pretend = 0, frame = 0
 1109              		@ frame_needed = 0, uses_anonymous_args = 0
 1110              		@ link register save eliminated.
 1111              	.LVL87:
 1112              		.loc 1 1270 0
 1113 0000 01F00F01 		and	r1, r1, #15
 1114              	.LVL88:
 1115 0004 0123     		movs	r3, #1
ARM GAS  C:\Users\jsyoon\AppData\Local\Temp\cch2rfk4.s 			page 21


 1116 0006 03FA01F1 		lsl	r1, r3, r1
 1117              		.loc 1 1273 0
 1118 000a C943     		mvns	r1, r1
 1119 000c 89B2     		uxth	r1, r1
 1120 000e 0181     		strh	r1, [r0, #8]	@ movhi
 1121 0010 7047     		bx	lr
 1122              		.cfi_endproc
 1123              	.LFE135:
 1124              		.size	SPI_I2S_ClearITPendingBit, .-SPI_I2S_ClearITPendingBit
 1125 0012 00BFAFF3 		.text
 1125      0080AFF3 
 1125      0080AFF3 
 1125      0080
 1126              	.Letext0:
 1127              		.file 2 "c:\\crosstools\\gcc-arm-embedded\\4.8_2014q2\\arm-none-eabi\\include\\machine\\_default_t
 1128              		.file 3 "c:\\crosstools\\gcc-arm-embedded\\4.8_2014q2\\arm-none-eabi\\include\\stdint.h"
 1129              		.file 4 "ChibiOS_2.6.6/os/hal/platforms/STM32F4xx/stm32f4xx.h"
 1130              		.file 5 "ChibiOS_2.6.6/ext/stdperiph_stm32f4/inc/stm32f4xx_spi.h"
 1131              		.file 6 "ChibiOS_2.6.6/os/ports/common/ARMCMx/CMSIS/include/core_cm4.h"
 1132              		.file 7 "ChibiOS_2.6.6/ext/stdperiph_stm32f4/inc/stm32f4xx_rcc.h"
 1133              		.section	.debug_info,"",%progbits
 1134              	.Ldebug_info0:
 1135 0000 E00B0000 		.4byte	0xbe0
 1136 0004 0400     		.2byte	0x4
 1137 0006 00000000 		.4byte	.Ldebug_abbrev0
 1138 000a 04       		.byte	0x4
 1139 000b 01       		.uleb128 0x1
 1140 000c EA010000 		.4byte	.LASF128
 1141 0010 01       		.byte	0x1
 1142 0011 89040000 		.4byte	.LASF129
 1143 0015 25000000 		.4byte	.LASF130
 1144 0019 00000000 		.4byte	.Ldebug_ranges0+0
 1145 001d 00000000 		.4byte	0
 1146 0021 00000000 		.4byte	.Ldebug_line0
 1147 0025 02       		.uleb128 0x2
 1148 0026 01       		.byte	0x1
 1149 0027 06       		.byte	0x6
 1150 0028 5D010000 		.4byte	.LASF0
 1151 002c 03       		.uleb128 0x3
 1152 002d 68000000 		.4byte	.LASF3
 1153 0031 02       		.byte	0x2
 1154 0032 1C       		.byte	0x1c
 1155 0033 37000000 		.4byte	0x37
 1156 0037 02       		.uleb128 0x2
 1157 0038 01       		.byte	0x1
 1158 0039 08       		.byte	0x8
 1159 003a F8050000 		.4byte	.LASF1
 1160 003e 02       		.uleb128 0x2
 1161 003f 02       		.byte	0x2
 1162 0040 05       		.byte	0x5
 1163 0041 0E060000 		.4byte	.LASF2
 1164 0045 03       		.uleb128 0x3
 1165 0046 93060000 		.4byte	.LASF4
 1166 004a 02       		.byte	0x2
 1167 004b 26       		.byte	0x26
 1168 004c 50000000 		.4byte	0x50
 1169 0050 02       		.uleb128 0x2
ARM GAS  C:\Users\jsyoon\AppData\Local\Temp\cch2rfk4.s 			page 22


 1170 0051 02       		.byte	0x2
 1171 0052 07       		.byte	0x7
 1172 0053 00040000 		.4byte	.LASF5
 1173 0057 03       		.uleb128 0x3
 1174 0058 C5060000 		.4byte	.LASF6
 1175 005c 02       		.byte	0x2
 1176 005d 37       		.byte	0x37
 1177 005e 62000000 		.4byte	0x62
 1178 0062 02       		.uleb128 0x2
 1179 0063 04       		.byte	0x4
 1180 0064 05       		.byte	0x5
 1181 0065 C9010000 		.4byte	.LASF7
 1182 0069 03       		.uleb128 0x3
 1183 006a 6F030000 		.4byte	.LASF8
 1184 006e 02       		.byte	0x2
 1185 006f 38       		.byte	0x38
 1186 0070 74000000 		.4byte	0x74
 1187 0074 02       		.uleb128 0x2
 1188 0075 04       		.byte	0x4
 1189 0076 07       		.byte	0x7
 1190 0077 B6030000 		.4byte	.LASF9
 1191 007b 02       		.uleb128 0x2
 1192 007c 08       		.byte	0x8
 1193 007d 05       		.byte	0x5
 1194 007e 4F010000 		.4byte	.LASF10
 1195 0082 02       		.uleb128 0x2
 1196 0083 08       		.byte	0x8
 1197 0084 07       		.byte	0x7
 1198 0085 A5000000 		.4byte	.LASF11
 1199 0089 04       		.uleb128 0x4
 1200 008a 04       		.byte	0x4
 1201 008b 05       		.byte	0x5
 1202 008c 696E7400 		.ascii	"int\000"
 1203 0090 02       		.uleb128 0x2
 1204 0091 04       		.byte	0x4
 1205 0092 07       		.byte	0x7
 1206 0093 95030000 		.4byte	.LASF12
 1207 0097 03       		.uleb128 0x3
 1208 0098 38070000 		.4byte	.LASF13
 1209 009c 03       		.byte	0x3
 1210 009d 2A       		.byte	0x2a
 1211 009e 2C000000 		.4byte	0x2c
 1212 00a2 03       		.uleb128 0x3
 1213 00a3 2B030000 		.4byte	.LASF14
 1214 00a7 03       		.byte	0x3
 1215 00a8 36       		.byte	0x36
 1216 00a9 45000000 		.4byte	0x45
 1217 00ad 03       		.uleb128 0x3
 1218 00ae F0050000 		.4byte	.LASF15
 1219 00b2 03       		.byte	0x3
 1220 00b3 41       		.byte	0x41
 1221 00b4 57000000 		.4byte	0x57
 1222 00b8 03       		.uleb128 0x3
 1223 00b9 67060000 		.4byte	.LASF16
 1224 00bd 03       		.byte	0x3
 1225 00be 42       		.byte	0x42
 1226 00bf 69000000 		.4byte	0x69
ARM GAS  C:\Users\jsyoon\AppData\Local\Temp\cch2rfk4.s 			page 23


 1227 00c3 02       		.uleb128 0x2
 1228 00c4 04       		.byte	0x4
 1229 00c5 07       		.byte	0x7
 1230 00c6 F9040000 		.4byte	.LASF17
 1231 00ca 05       		.uleb128 0x5
 1232 00cb B8000000 		.4byte	0xb8
 1233 00cf 06       		.uleb128 0x6
 1234 00d0 B8000000 		.4byte	0xb8
 1235 00d4 DF000000 		.4byte	0xdf
 1236 00d8 07       		.uleb128 0x7
 1237 00d9 C3000000 		.4byte	0xc3
 1238 00dd 01       		.byte	0x1
 1239 00de 00       		.byte	0
 1240 00df 05       		.uleb128 0x5
 1241 00e0 A2000000 		.4byte	0xa2
 1242 00e4 05       		.uleb128 0x5
 1243 00e5 AD000000 		.4byte	0xad
 1244 00e9 08       		.uleb128 0x8
 1245 00ea 01       		.byte	0x1
 1246 00eb 04       		.byte	0x4
 1247 00ec F701     		.2byte	0x1f7
 1248 00ee FF000000 		.4byte	0xff
 1249 00f2 09       		.uleb128 0x9
 1250 00f3 D0040000 		.4byte	.LASF18
 1251 00f7 00       		.sleb128 0
 1252 00f8 0A       		.uleb128 0xa
 1253 00f9 53455400 		.ascii	"SET\000"
 1254 00fd 01       		.sleb128 1
 1255 00fe 00       		.byte	0
 1256 00ff 0B       		.uleb128 0xb
 1257 0100 1A000000 		.4byte	.LASF19
 1258 0104 04       		.byte	0x4
 1259 0105 F701     		.2byte	0x1f7
 1260 0107 E9000000 		.4byte	0xe9
 1261 010b 0B       		.uleb128 0xb
 1262 010c 8C030000 		.4byte	.LASF20
 1263 0110 04       		.byte	0x4
 1264 0111 F701     		.2byte	0x1f7
 1265 0113 E9000000 		.4byte	0xe9
 1266 0117 08       		.uleb128 0x8
 1267 0118 01       		.byte	0x1
 1268 0119 04       		.byte	0x4
 1269 011a F901     		.2byte	0x1f9
 1270 011c 2D010000 		.4byte	0x12d
 1271 0120 09       		.uleb128 0x9
 1272 0121 9D000000 		.4byte	.LASF21
 1273 0125 00       		.sleb128 0
 1274 0126 09       		.uleb128 0x9
 1275 0127 24030000 		.4byte	.LASF22
 1276 012b 01       		.sleb128 1
 1277 012c 00       		.byte	0
 1278 012d 0B       		.uleb128 0xb
 1279 012e 25050000 		.4byte	.LASF23
 1280 0132 04       		.byte	0x4
 1281 0133 F901     		.2byte	0x1f9
 1282 0135 17010000 		.4byte	0x117
 1283 0139 0C       		.uleb128 0xc
ARM GAS  C:\Users\jsyoon\AppData\Local\Temp\cch2rfk4.s 			page 24


 1284 013a 90       		.byte	0x90
 1285 013b 04       		.byte	0x4
 1286 013c 5804     		.2byte	0x458
 1287 013e E2020000 		.4byte	0x2e2
 1288 0142 0D       		.uleb128 0xd
 1289 0143 435200   		.ascii	"CR\000"
 1290 0146 04       		.byte	0x4
 1291 0147 5A04     		.2byte	0x45a
 1292 0149 CA000000 		.4byte	0xca
 1293 014d 00       		.byte	0
 1294 014e 0E       		.uleb128 0xe
 1295 014f 4C030000 		.4byte	.LASF24
 1296 0153 04       		.byte	0x4
 1297 0154 5B04     		.2byte	0x45b
 1298 0156 CA000000 		.4byte	0xca
 1299 015a 04       		.byte	0x4
 1300 015b 0E       		.uleb128 0xe
 1301 015c 61070000 		.4byte	.LASF25
 1302 0160 04       		.byte	0x4
 1303 0161 5C04     		.2byte	0x45c
 1304 0163 CA000000 		.4byte	0xca
 1305 0167 08       		.byte	0x8
 1306 0168 0D       		.uleb128 0xd
 1307 0169 43495200 		.ascii	"CIR\000"
 1308 016d 04       		.byte	0x4
 1309 016e 5D04     		.2byte	0x45d
 1310 0170 CA000000 		.4byte	0xca
 1311 0174 0C       		.byte	0xc
 1312 0175 0E       		.uleb128 0xe
 1313 0176 69010000 		.4byte	.LASF26
 1314 017a 04       		.byte	0x4
 1315 017b 5E04     		.2byte	0x45e
 1316 017d CA000000 		.4byte	0xca
 1317 0181 10       		.byte	0x10
 1318 0182 0E       		.uleb128 0xe
 1319 0183 9E060000 		.4byte	.LASF27
 1320 0187 04       		.byte	0x4
 1321 0188 5F04     		.2byte	0x45f
 1322 018a CA000000 		.4byte	0xca
 1323 018e 14       		.byte	0x14
 1324 018f 0E       		.uleb128 0xe
 1325 0190 29040000 		.4byte	.LASF28
 1326 0194 04       		.byte	0x4
 1327 0195 6004     		.2byte	0x460
 1328 0197 CA000000 		.4byte	0xca
 1329 019b 18       		.byte	0x18
 1330 019c 0E       		.uleb128 0xe
 1331 019d 8D050000 		.4byte	.LASF29
 1332 01a1 04       		.byte	0x4
 1333 01a2 6104     		.2byte	0x461
 1334 01a4 B8000000 		.4byte	0xb8
 1335 01a8 1C       		.byte	0x1c
 1336 01a9 0E       		.uleb128 0xe
 1337 01aa 22070000 		.4byte	.LASF30
 1338 01ae 04       		.byte	0x4
 1339 01af 6204     		.2byte	0x462
 1340 01b1 CA000000 		.4byte	0xca
ARM GAS  C:\Users\jsyoon\AppData\Local\Temp\cch2rfk4.s 			page 25


 1341 01b5 20       		.byte	0x20
 1342 01b6 0E       		.uleb128 0xe
 1343 01b7 E1010000 		.4byte	.LASF31
 1344 01bb 04       		.byte	0x4
 1345 01bc 6304     		.2byte	0x463
 1346 01be CA000000 		.4byte	0xca
 1347 01c2 24       		.byte	0x24
 1348 01c3 0E       		.uleb128 0xe
 1349 01c4 97050000 		.4byte	.LASF32
 1350 01c8 04       		.byte	0x4
 1351 01c9 6404     		.2byte	0x464
 1352 01cb CF000000 		.4byte	0xcf
 1353 01cf 28       		.byte	0x28
 1354 01d0 0E       		.uleb128 0xe
 1355 01d1 4C070000 		.4byte	.LASF33
 1356 01d5 04       		.byte	0x4
 1357 01d6 6504     		.2byte	0x465
 1358 01d8 CA000000 		.4byte	0xca
 1359 01dc 30       		.byte	0x30
 1360 01dd 0E       		.uleb128 0xe
 1361 01de E7060000 		.4byte	.LASF34
 1362 01e2 04       		.byte	0x4
 1363 01e3 6604     		.2byte	0x466
 1364 01e5 CA000000 		.4byte	0xca
 1365 01e9 34       		.byte	0x34
 1366 01ea 0E       		.uleb128 0xe
 1367 01eb 02050000 		.4byte	.LASF35
 1368 01ef 04       		.byte	0x4
 1369 01f0 6704     		.2byte	0x467
 1370 01f2 CA000000 		.4byte	0xca
 1371 01f6 38       		.byte	0x38
 1372 01f7 0E       		.uleb128 0xe
 1373 01f8 A1050000 		.4byte	.LASF36
 1374 01fc 04       		.byte	0x4
 1375 01fd 6804     		.2byte	0x468
 1376 01ff B8000000 		.4byte	0xb8
 1377 0203 3C       		.byte	0x3c
 1378 0204 0E       		.uleb128 0xe
 1379 0205 DA060000 		.4byte	.LASF37
 1380 0209 04       		.byte	0x4
 1381 020a 6904     		.2byte	0x469
 1382 020c CA000000 		.4byte	0xca
 1383 0210 40       		.byte	0x40
 1384 0211 0E       		.uleb128 0xe
 1385 0212 38060000 		.4byte	.LASF38
 1386 0216 04       		.byte	0x4
 1387 0217 6A04     		.2byte	0x46a
 1388 0219 CA000000 		.4byte	0xca
 1389 021d 44       		.byte	0x44
 1390 021e 0E       		.uleb128 0xe
 1391 021f AB050000 		.4byte	.LASF39
 1392 0223 04       		.byte	0x4
 1393 0224 6B04     		.2byte	0x46b
 1394 0226 CF000000 		.4byte	0xcf
 1395 022a 48       		.byte	0x48
 1396 022b 0E       		.uleb128 0xe
 1397 022c 28010000 		.4byte	.LASF40
ARM GAS  C:\Users\jsyoon\AppData\Local\Temp\cch2rfk4.s 			page 26


 1398 0230 04       		.byte	0x4
 1399 0231 6C04     		.2byte	0x46c
 1400 0233 CA000000 		.4byte	0xca
 1401 0237 50       		.byte	0x50
 1402 0238 0E       		.uleb128 0xe
 1403 0239 1B050000 		.4byte	.LASF41
 1404 023d 04       		.byte	0x4
 1405 023e 6D04     		.2byte	0x46d
 1406 0240 CA000000 		.4byte	0xca
 1407 0244 54       		.byte	0x54
 1408 0245 0E       		.uleb128 0xe
 1409 0246 18060000 		.4byte	.LASF42
 1410 024a 04       		.byte	0x4
 1411 024b 6E04     		.2byte	0x46e
 1412 024d CA000000 		.4byte	0xca
 1413 0251 58       		.byte	0x58
 1414 0252 0E       		.uleb128 0xe
 1415 0253 B5050000 		.4byte	.LASF43
 1416 0257 04       		.byte	0x4
 1417 0258 6F04     		.2byte	0x46f
 1418 025a B8000000 		.4byte	0xb8
 1419 025e 5C       		.byte	0x5c
 1420 025f 0E       		.uleb128 0xe
 1421 0260 09000000 		.4byte	.LASF44
 1422 0264 04       		.byte	0x4
 1423 0265 7004     		.2byte	0x470
 1424 0267 CA000000 		.4byte	0xca
 1425 026b 60       		.byte	0x60
 1426 026c 0E       		.uleb128 0xe
 1427 026d 70040000 		.4byte	.LASF45
 1428 0271 04       		.byte	0x4
 1429 0272 7104     		.2byte	0x471
 1430 0274 CA000000 		.4byte	0xca
 1431 0278 64       		.byte	0x64
 1432 0279 0E       		.uleb128 0xe
 1433 027a BF050000 		.4byte	.LASF46
 1434 027e 04       		.byte	0x4
 1435 027f 7204     		.2byte	0x472
 1436 0281 CF000000 		.4byte	0xcf
 1437 0285 68       		.byte	0x68
 1438 0286 0E       		.uleb128 0xe
 1439 0287 E2060000 		.4byte	.LASF47
 1440 028b 04       		.byte	0x4
 1441 028c 7304     		.2byte	0x473
 1442 028e CA000000 		.4byte	0xca
 1443 0292 70       		.byte	0x70
 1444 0293 0D       		.uleb128 0xd
 1445 0294 43535200 		.ascii	"CSR\000"
 1446 0298 04       		.byte	0x4
 1447 0299 7404     		.2byte	0x474
 1448 029b CA000000 		.4byte	0xca
 1449 029f 74       		.byte	0x74
 1450 02a0 0E       		.uleb128 0xe
 1451 02a1 C9050000 		.4byte	.LASF48
 1452 02a5 04       		.byte	0x4
 1453 02a6 7504     		.2byte	0x475
 1454 02a8 CF000000 		.4byte	0xcf
ARM GAS  C:\Users\jsyoon\AppData\Local\Temp\cch2rfk4.s 			page 27


 1455 02ac 78       		.byte	0x78
 1456 02ad 0E       		.uleb128 0xe
 1457 02ae 1C070000 		.4byte	.LASF49
 1458 02b2 04       		.byte	0x4
 1459 02b3 7604     		.2byte	0x476
 1460 02b5 CA000000 		.4byte	0xca
 1461 02b9 80       		.byte	0x80
 1462 02ba 0E       		.uleb128 0xe
 1463 02bb 13040000 		.4byte	.LASF50
 1464 02bf 04       		.byte	0x4
 1465 02c0 7704     		.2byte	0x477
 1466 02c2 CA000000 		.4byte	0xca
 1467 02c6 84       		.byte	0x84
 1468 02c7 0E       		.uleb128 0xe
 1469 02c8 74050000 		.4byte	.LASF51
 1470 02cc 04       		.byte	0x4
 1471 02cd 7804     		.2byte	0x478
 1472 02cf CA000000 		.4byte	0xca
 1473 02d3 88       		.byte	0x88
 1474 02d4 0E       		.uleb128 0xe
 1475 02d5 47010000 		.4byte	.LASF52
 1476 02d9 04       		.byte	0x4
 1477 02da 7904     		.2byte	0x479
 1478 02dc CA000000 		.4byte	0xca
 1479 02e0 8C       		.byte	0x8c
 1480 02e1 00       		.byte	0
 1481 02e2 0B       		.uleb128 0xb
 1482 02e3 D8030000 		.4byte	.LASF53
 1483 02e7 04       		.byte	0x4
 1484 02e8 7B04     		.2byte	0x47b
 1485 02ea 39010000 		.4byte	0x139
 1486 02ee 0C       		.uleb128 0xc
 1487 02ef 24       		.byte	0x24
 1488 02f0 04       		.byte	0x4
 1489 02f1 E304     		.2byte	0x4e3
 1490 02f3 E0030000 		.4byte	0x3e0
 1491 02f7 0D       		.uleb128 0xd
 1492 02f8 43523100 		.ascii	"CR1\000"
 1493 02fc 04       		.byte	0x4
 1494 02fd E504     		.2byte	0x4e5
 1495 02ff DF000000 		.4byte	0xdf
 1496 0303 00       		.byte	0
 1497 0304 0E       		.uleb128 0xe
 1498 0305 8D050000 		.4byte	.LASF29
 1499 0309 04       		.byte	0x4
 1500 030a E604     		.2byte	0x4e6
 1501 030c A2000000 		.4byte	0xa2
 1502 0310 02       		.byte	0x2
 1503 0311 0D       		.uleb128 0xd
 1504 0312 43523200 		.ascii	"CR2\000"
 1505 0316 04       		.byte	0x4
 1506 0317 E704     		.2byte	0x4e7
 1507 0319 DF000000 		.4byte	0xdf
 1508 031d 04       		.byte	0x4
 1509 031e 0E       		.uleb128 0xe
 1510 031f 97050000 		.4byte	.LASF32
 1511 0323 04       		.byte	0x4
ARM GAS  C:\Users\jsyoon\AppData\Local\Temp\cch2rfk4.s 			page 28


 1512 0324 E804     		.2byte	0x4e8
 1513 0326 A2000000 		.4byte	0xa2
 1514 032a 06       		.byte	0x6
 1515 032b 0D       		.uleb128 0xd
 1516 032c 535200   		.ascii	"SR\000"
 1517 032f 04       		.byte	0x4
 1518 0330 E904     		.2byte	0x4e9
 1519 0332 DF000000 		.4byte	0xdf
 1520 0336 08       		.byte	0x8
 1521 0337 0E       		.uleb128 0xe
 1522 0338 A1050000 		.4byte	.LASF36
 1523 033c 04       		.byte	0x4
 1524 033d EA04     		.2byte	0x4ea
 1525 033f A2000000 		.4byte	0xa2
 1526 0343 0A       		.byte	0xa
 1527 0344 0D       		.uleb128 0xd
 1528 0345 445200   		.ascii	"DR\000"
 1529 0348 04       		.byte	0x4
 1530 0349 EB04     		.2byte	0x4eb
 1531 034b DF000000 		.4byte	0xdf
 1532 034f 0C       		.byte	0xc
 1533 0350 0E       		.uleb128 0xe
 1534 0351 AB050000 		.4byte	.LASF39
 1535 0355 04       		.byte	0x4
 1536 0356 EC04     		.2byte	0x4ec
 1537 0358 A2000000 		.4byte	0xa2
 1538 035c 0E       		.byte	0xe
 1539 035d 0E       		.uleb128 0xe
 1540 035e BC000000 		.4byte	.LASF54
 1541 0362 04       		.byte	0x4
 1542 0363 ED04     		.2byte	0x4ed
 1543 0365 DF000000 		.4byte	0xdf
 1544 0369 10       		.byte	0x10
 1545 036a 0E       		.uleb128 0xe
 1546 036b B5050000 		.4byte	.LASF43
 1547 036f 04       		.byte	0x4
 1548 0370 EE04     		.2byte	0x4ee
 1549 0372 A2000000 		.4byte	0xa2
 1550 0376 12       		.byte	0x12
 1551 0377 0E       		.uleb128 0xe
 1552 0378 13000000 		.4byte	.LASF55
 1553 037c 04       		.byte	0x4
 1554 037d EF04     		.2byte	0x4ef
 1555 037f DF000000 		.4byte	0xdf
 1556 0383 14       		.byte	0x14
 1557 0384 0E       		.uleb128 0xe
 1558 0385 BF050000 		.4byte	.LASF46
 1559 0389 04       		.byte	0x4
 1560 038a F004     		.2byte	0x4f0
 1561 038c A2000000 		.4byte	0xa2
 1562 0390 16       		.byte	0x16
 1563 0391 0E       		.uleb128 0xe
 1564 0392 5A030000 		.4byte	.LASF56
 1565 0396 04       		.byte	0x4
 1566 0397 F104     		.2byte	0x4f1
 1567 0399 DF000000 		.4byte	0xdf
 1568 039d 18       		.byte	0x18
ARM GAS  C:\Users\jsyoon\AppData\Local\Temp\cch2rfk4.s 			page 29


 1569 039e 0E       		.uleb128 0xe
 1570 039f C9050000 		.4byte	.LASF48
 1571 03a3 04       		.byte	0x4
 1572 03a4 F204     		.2byte	0x4f2
 1573 03a6 A2000000 		.4byte	0xa2
 1574 03aa 1A       		.byte	0x1a
 1575 03ab 0E       		.uleb128 0xe
 1576 03ac 72010000 		.4byte	.LASF57
 1577 03b0 04       		.byte	0x4
 1578 03b1 F304     		.2byte	0x4f3
 1579 03b3 DF000000 		.4byte	0xdf
 1580 03b7 1C       		.byte	0x1c
 1581 03b8 0E       		.uleb128 0xe
 1582 03b9 D3050000 		.4byte	.LASF58
 1583 03bd 04       		.byte	0x4
 1584 03be F404     		.2byte	0x4f4
 1585 03c0 A2000000 		.4byte	0xa2
 1586 03c4 1E       		.byte	0x1e
 1587 03c5 0E       		.uleb128 0xe
 1588 03c6 F3040000 		.4byte	.LASF59
 1589 03ca 04       		.byte	0x4
 1590 03cb F504     		.2byte	0x4f5
 1591 03cd DF000000 		.4byte	0xdf
 1592 03d1 20       		.byte	0x20
 1593 03d2 0E       		.uleb128 0xe
 1594 03d3 DD050000 		.4byte	.LASF60
 1595 03d7 04       		.byte	0x4
 1596 03d8 F604     		.2byte	0x4f6
 1597 03da A2000000 		.4byte	0xa2
 1598 03de 22       		.byte	0x22
 1599 03df 00       		.byte	0
 1600 03e0 0B       		.uleb128 0xb
 1601 03e1 5B060000 		.4byte	.LASF61
 1602 03e5 04       		.byte	0x4
 1603 03e6 F704     		.2byte	0x4f7
 1604 03e8 EE020000 		.4byte	0x2ee
 1605 03ec 0F       		.uleb128 0xf
 1606 03ed 12       		.byte	0x12
 1607 03ee 05       		.byte	0x5
 1608 03ef 36       		.byte	0x36
 1609 03f0 61040000 		.4byte	0x461
 1610 03f4 10       		.uleb128 0x10
 1611 03f5 61030000 		.4byte	.LASF62
 1612 03f9 05       		.byte	0x5
 1613 03fa 38       		.byte	0x38
 1614 03fb A2000000 		.4byte	0xa2
 1615 03ff 00       		.byte	0
 1616 0400 10       		.uleb128 0x10
 1617 0401 70060000 		.4byte	.LASF63
 1618 0405 05       		.byte	0x5
 1619 0406 3B       		.byte	0x3b
 1620 0407 A2000000 		.4byte	0xa2
 1621 040b 02       		.byte	0x2
 1622 040c 10       		.uleb128 0x10
 1623 040d 2B070000 		.4byte	.LASF64
 1624 0411 05       		.byte	0x5
 1625 0412 3E       		.byte	0x3e
ARM GAS  C:\Users\jsyoon\AppData\Local\Temp\cch2rfk4.s 			page 30


 1626 0413 A2000000 		.4byte	0xa2
 1627 0417 04       		.byte	0x4
 1628 0418 10       		.uleb128 0x10
 1629 0419 E7050000 		.4byte	.LASF65
 1630 041d 05       		.byte	0x5
 1631 041e 41       		.byte	0x41
 1632 041f A2000000 		.4byte	0xa2
 1633 0423 06       		.byte	0x6
 1634 0424 10       		.uleb128 0x10
 1635 0425 2F060000 		.4byte	.LASF66
 1636 0429 05       		.byte	0x5
 1637 042a 44       		.byte	0x44
 1638 042b A2000000 		.4byte	0xa2
 1639 042f 08       		.byte	0x8
 1640 0430 10       		.uleb128 0x10
 1641 0431 8B060000 		.4byte	.LASF67
 1642 0435 05       		.byte	0x5
 1643 0436 47       		.byte	0x47
 1644 0437 A2000000 		.4byte	0xa2
 1645 043b 0A       		.byte	0xa
 1646 043c 10       		.uleb128 0x10
 1647 043d 45060000 		.4byte	.LASF68
 1648 0441 05       		.byte	0x5
 1649 0442 4B       		.byte	0x4b
 1650 0443 A2000000 		.4byte	0xa2
 1651 0447 0C       		.byte	0xc
 1652 0448 10       		.uleb128 0x10
 1653 0449 22060000 		.4byte	.LASF69
 1654 044d 05       		.byte	0x5
 1655 044e 51       		.byte	0x51
 1656 044f A2000000 		.4byte	0xa2
 1657 0453 0E       		.byte	0xe
 1658 0454 10       		.uleb128 0x10
 1659 0455 45040000 		.4byte	.LASF70
 1660 0459 05       		.byte	0x5
 1661 045a 54       		.byte	0x54
 1662 045b A2000000 		.4byte	0xa2
 1663 045f 10       		.byte	0x10
 1664 0460 00       		.byte	0
 1665 0461 03       		.uleb128 0x3
 1666 0462 60040000 		.4byte	.LASF71
 1667 0466 05       		.byte	0x5
 1668 0467 55       		.byte	0x55
 1669 0468 EC030000 		.4byte	0x3ec
 1670 046c 0F       		.uleb128 0xf
 1671 046d 10       		.byte	0x10
 1672 046e 05       		.byte	0x5
 1673 046f 5B       		.byte	0x5b
 1674 0470 BD040000 		.4byte	0x4bd
 1675 0474 10       		.uleb128 0x10
 1676 0475 12050000 		.4byte	.LASF72
 1677 0479 05       		.byte	0x5
 1678 047a 5E       		.byte	0x5e
 1679 047b A2000000 		.4byte	0xa2
 1680 047f 00       		.byte	0
 1681 0480 10       		.uleb128 0x10
 1682 0481 FF000000 		.4byte	.LASF73
ARM GAS  C:\Users\jsyoon\AppData\Local\Temp\cch2rfk4.s 			page 31


 1683 0485 05       		.byte	0x5
 1684 0486 61       		.byte	0x61
 1685 0487 A2000000 		.4byte	0xa2
 1686 048b 02       		.byte	0x2
 1687 048c 10       		.uleb128 0x10
 1688 048d E4040000 		.4byte	.LASF74
 1689 0491 05       		.byte	0x5
 1690 0492 64       		.byte	0x64
 1691 0493 A2000000 		.4byte	0xa2
 1692 0497 04       		.byte	0x4
 1693 0498 10       		.uleb128 0x10
 1694 0499 E4030000 		.4byte	.LASF75
 1695 049d 05       		.byte	0x5
 1696 049e 67       		.byte	0x67
 1697 049f A2000000 		.4byte	0xa2
 1698 04a3 06       		.byte	0x6
 1699 04a4 10       		.uleb128 0x10
 1700 04a5 7F050000 		.4byte	.LASF76
 1701 04a9 05       		.byte	0x5
 1702 04aa 6A       		.byte	0x6a
 1703 04ab B8000000 		.4byte	0xb8
 1704 04af 08       		.byte	0x8
 1705 04b0 10       		.uleb128 0x10
 1706 04b1 57040000 		.4byte	.LASF77
 1707 04b5 05       		.byte	0x5
 1708 04b6 6D       		.byte	0x6d
 1709 04b7 A2000000 		.4byte	0xa2
 1710 04bb 0C       		.byte	0xc
 1711 04bc 00       		.byte	0
 1712 04bd 03       		.uleb128 0x3
 1713 04be D3000000 		.4byte	.LASF78
 1714 04c2 05       		.byte	0x5
 1715 04c3 6F       		.byte	0x6f
 1716 04c4 6C040000 		.4byte	0x46c
 1717 04c8 11       		.uleb128 0x11
 1718 04c9 F0000000 		.4byte	.LASF79
 1719 04cd 01       		.byte	0x1
 1720 04ce E0       		.byte	0xe0
 1721 04cf 00000000 		.4byte	.LFB111
 1722 04d3 6C000000 		.4byte	.LFE111-.LFB111
 1723 04d7 01       		.uleb128 0x1
 1724 04d8 9C       		.byte	0x9c
 1725 04d9 85050000 		.4byte	0x585
 1726 04dd 12       		.uleb128 0x12
 1727 04de 40060000 		.4byte	.LASF81
 1728 04e2 01       		.byte	0x1
 1729 04e3 E0       		.byte	0xe0
 1730 04e4 85050000 		.4byte	0x585
 1731 04e8 00000000 		.4byte	.LLST0
 1732 04ec 13       		.uleb128 0x13
 1733 04ed 20000000 		.4byte	.LVL2
 1734 04f1 B90B0000 		.4byte	0xbb9
 1735 04f5 06050000 		.4byte	0x506
 1736 04f9 14       		.uleb128 0x14
 1737 04fa 01       		.uleb128 0x1
 1738 04fb 51       		.byte	0x51
 1739 04fc 01       		.uleb128 0x1
ARM GAS  C:\Users\jsyoon\AppData\Local\Temp\cch2rfk4.s 			page 32


 1740 04fd 31       		.byte	0x31
 1741 04fe 14       		.uleb128 0x14
 1742 04ff 01       		.uleb128 0x1
 1743 0500 50       		.byte	0x50
 1744 0501 03       		.uleb128 0x3
 1745 0502 0A       		.byte	0xa
 1746 0503 0080     		.2byte	0x8000
 1747 0505 00       		.byte	0
 1748 0506 15       		.uleb128 0x15
 1749 0507 2E000000 		.4byte	.LVL3
 1750 050b B90B0000 		.4byte	0xbb9
 1751 050f 20050000 		.4byte	0x520
 1752 0513 14       		.uleb128 0x14
 1753 0514 01       		.uleb128 0x1
 1754 0515 51       		.byte	0x51
 1755 0516 01       		.uleb128 0x1
 1756 0517 30       		.byte	0x30
 1757 0518 14       		.uleb128 0x14
 1758 0519 01       		.uleb128 0x1
 1759 051a 50       		.byte	0x50
 1760 051b 03       		.uleb128 0x3
 1761 051c 0A       		.byte	0xa
 1762 051d 0080     		.2byte	0x8000
 1763 051f 00       		.byte	0
 1764 0520 13       		.uleb128 0x13
 1765 0521 38000000 		.4byte	.LVL5
 1766 0525 D00B0000 		.4byte	0xbd0
 1767 0529 3A050000 		.4byte	0x53a
 1768 052d 14       		.uleb128 0x14
 1769 052e 01       		.uleb128 0x1
 1770 052f 51       		.byte	0x51
 1771 0530 01       		.uleb128 0x1
 1772 0531 31       		.byte	0x31
 1773 0532 14       		.uleb128 0x14
 1774 0533 01       		.uleb128 0x1
 1775 0534 50       		.byte	0x50
 1776 0535 03       		.uleb128 0x3
 1777 0536 0A       		.byte	0xa
 1778 0537 0010     		.2byte	0x1000
 1779 0539 00       		.byte	0
 1780 053a 15       		.uleb128 0x15
 1781 053b 46000000 		.4byte	.LVL6
 1782 053f D00B0000 		.4byte	0xbd0
 1783 0543 54050000 		.4byte	0x554
 1784 0547 14       		.uleb128 0x14
 1785 0548 01       		.uleb128 0x1
 1786 0549 51       		.byte	0x51
 1787 054a 01       		.uleb128 0x1
 1788 054b 30       		.byte	0x30
 1789 054c 14       		.uleb128 0x14
 1790 054d 01       		.uleb128 0x1
 1791 054e 50       		.byte	0x50
 1792 054f 03       		.uleb128 0x3
 1793 0550 0A       		.byte	0xa
 1794 0551 0010     		.2byte	0x1000
 1795 0553 00       		.byte	0
 1796 0554 13       		.uleb128 0x13
ARM GAS  C:\Users\jsyoon\AppData\Local\Temp\cch2rfk4.s 			page 33


 1797 0555 50000000 		.4byte	.LVL8
 1798 0559 B90B0000 		.4byte	0xbb9
 1799 055d 6E050000 		.4byte	0x56e
 1800 0561 14       		.uleb128 0x14
 1801 0562 01       		.uleb128 0x1
 1802 0563 51       		.byte	0x51
 1803 0564 01       		.uleb128 0x1
 1804 0565 31       		.byte	0x31
 1805 0566 14       		.uleb128 0x14
 1806 0567 01       		.uleb128 0x1
 1807 0568 50       		.byte	0x50
 1808 0569 03       		.uleb128 0x3
 1809 056a 0A       		.byte	0xa
 1810 056b 0040     		.2byte	0x4000
 1811 056d 00       		.byte	0
 1812 056e 16       		.uleb128 0x16
 1813 056f 5E000000 		.4byte	.LVL9
 1814 0573 B90B0000 		.4byte	0xbb9
 1815 0577 14       		.uleb128 0x14
 1816 0578 01       		.uleb128 0x1
 1817 0579 51       		.byte	0x51
 1818 057a 01       		.uleb128 0x1
 1819 057b 30       		.byte	0x30
 1820 057c 14       		.uleb128 0x14
 1821 057d 01       		.uleb128 0x1
 1822 057e 50       		.byte	0x50
 1823 057f 03       		.uleb128 0x3
 1824 0580 0A       		.byte	0xa
 1825 0581 0040     		.2byte	0x4000
 1826 0583 00       		.byte	0
 1827 0584 00       		.byte	0
 1828 0585 17       		.uleb128 0x17
 1829 0586 04       		.byte	0x4
 1830 0587 E0030000 		.4byte	0x3e0
 1831 058b 18       		.uleb128 0x18
 1832 058c 5F000000 		.4byte	.LASF80
 1833 0590 01       		.byte	0x1
 1834 0591 0701     		.2byte	0x107
 1835 0593 00000000 		.4byte	.LFB112
 1836 0597 52000000 		.4byte	.LFE112-.LFB112
 1837 059b 01       		.uleb128 0x1
 1838 059c 9C       		.byte	0x9c
 1839 059d D0050000 		.4byte	0x5d0
 1840 05a1 19       		.uleb128 0x19
 1841 05a2 40060000 		.4byte	.LASF81
 1842 05a6 01       		.byte	0x1
 1843 05a7 0701     		.2byte	0x107
 1844 05a9 85050000 		.4byte	0x585
 1845 05ad 01       		.uleb128 0x1
 1846 05ae 50       		.byte	0x50
 1847 05af 1A       		.uleb128 0x1a
 1848 05b0 C1040000 		.4byte	.LASF82
 1849 05b4 01       		.byte	0x1
 1850 05b5 0701     		.2byte	0x107
 1851 05b7 D0050000 		.4byte	0x5d0
 1852 05bb 53000000 		.4byte	.LLST1
 1853 05bf 1B       		.uleb128 0x1b
ARM GAS  C:\Users\jsyoon\AppData\Local\Temp\cch2rfk4.s 			page 34


 1854 05c0 90010000 		.4byte	.LASF85
 1855 05c4 01       		.byte	0x1
 1856 05c5 0901     		.2byte	0x109
 1857 05c7 A2000000 		.4byte	0xa2
 1858 05cb 74000000 		.4byte	.LLST2
 1859 05cf 00       		.byte	0
 1860 05d0 17       		.uleb128 0x17
 1861 05d1 04       		.byte	0x4
 1862 05d2 61040000 		.4byte	0x461
 1863 05d6 18       		.uleb128 0x18
 1864 05d7 FE060000 		.4byte	.LASF83
 1865 05db 01       		.byte	0x1
 1866 05dc 4701     		.2byte	0x147
 1867 05de 00000000 		.4byte	.LFB113
 1868 05e2 E0000000 		.4byte	.LFE113-.LFB113
 1869 05e6 01       		.uleb128 0x1
 1870 05e7 9C       		.byte	0x9c
 1871 05e8 9B060000 		.4byte	0x69b
 1872 05ec 19       		.uleb128 0x19
 1873 05ed 40060000 		.4byte	.LASF81
 1874 05f1 01       		.byte	0x1
 1875 05f2 4701     		.2byte	0x147
 1876 05f4 85050000 		.4byte	0x585
 1877 05f8 01       		.uleb128 0x1
 1878 05f9 50       		.byte	0x50
 1879 05fa 1A       		.uleb128 0x1a
 1880 05fb 8E000000 		.4byte	.LASF84
 1881 05ff 01       		.byte	0x1
 1882 0600 4701     		.2byte	0x147
 1883 0602 9B060000 		.4byte	0x69b
 1884 0606 9E000000 		.4byte	.LLST3
 1885 060a 1B       		.uleb128 0x1b
 1886 060b 90010000 		.4byte	.LASF85
 1887 060f 01       		.byte	0x1
 1888 0610 4901     		.2byte	0x149
 1889 0612 A2000000 		.4byte	0xa2
 1890 0616 CA000000 		.4byte	.LLST4
 1891 061a 1B       		.uleb128 0x1b
 1892 061b 6D050000 		.4byte	.LASF86
 1893 061f 01       		.byte	0x1
 1894 0620 4901     		.2byte	0x149
 1895 0622 A2000000 		.4byte	0xa2
 1896 0626 FF000000 		.4byte	.LLST5
 1897 062a 1B       		.uleb128 0x1b
 1898 062b 45070000 		.4byte	.LASF87
 1899 062f 01       		.byte	0x1
 1900 0630 4901     		.2byte	0x149
 1901 0632 A2000000 		.4byte	0xa2
 1902 0636 2A010000 		.4byte	.LLST6
 1903 063a 1B       		.uleb128 0x1b
 1904 063b 54070000 		.4byte	.LASF88
 1905 063f 01       		.byte	0x1
 1906 0640 4901     		.2byte	0x149
 1907 0642 A2000000 		.4byte	0xa2
 1908 0646 68010000 		.4byte	.LLST7
 1909 064a 1C       		.uleb128 0x1c
 1910 064b 746D7000 		.ascii	"tmp\000"
ARM GAS  C:\Users\jsyoon\AppData\Local\Temp\cch2rfk4.s 			page 35


 1911 064f 01       		.byte	0x1
 1912 0650 4A01     		.2byte	0x14a
 1913 0652 B8000000 		.4byte	0xb8
 1914 0656 B4010000 		.4byte	.LLST8
 1915 065a 1B       		.uleb128 0x1b
 1916 065b 8B070000 		.4byte	.LASF89
 1917 065f 01       		.byte	0x1
 1918 0660 4A01     		.2byte	0x14a
 1919 0662 B8000000 		.4byte	0xb8
 1920 0666 EA010000 		.4byte	.LLST9
 1921 066a 1B       		.uleb128 0x1b
 1922 066b 55000000 		.4byte	.LASF90
 1923 066f 01       		.byte	0x1
 1924 0670 4C01     		.2byte	0x14c
 1925 0672 B8000000 		.4byte	0xb8
 1926 0676 15020000 		.4byte	.LLST10
 1927 067a 1B       		.uleb128 0x1b
 1928 067b 5A000000 		.4byte	.LASF91
 1929 067f 01       		.byte	0x1
 1930 0680 4C01     		.2byte	0x14c
 1931 0682 B8000000 		.4byte	0xb8
 1932 0686 50020000 		.4byte	.LLST11
 1933 068a 1B       		.uleb128 0x1b
 1934 068b 72000000 		.4byte	.LASF92
 1935 068f 01       		.byte	0x1
 1936 0690 4C01     		.2byte	0x14c
 1937 0692 B8000000 		.4byte	0xb8
 1938 0696 83020000 		.4byte	.LLST12
 1939 069a 00       		.byte	0
 1940 069b 17       		.uleb128 0x17
 1941 069c 04       		.byte	0x4
 1942 069d BD040000 		.4byte	0x4bd
 1943 06a1 18       		.uleb128 0x18
 1944 06a2 D2010000 		.4byte	.LASF93
 1945 06a6 01       		.byte	0x1
 1946 06a7 CB01     		.2byte	0x1cb
 1947 06a9 00000000 		.4byte	.LFB114
 1948 06ad 18000000 		.4byte	.LFE114-.LFB114
 1949 06b1 01       		.uleb128 0x1
 1950 06b2 9C       		.byte	0x9c
 1951 06b3 C6060000 		.4byte	0x6c6
 1952 06b7 19       		.uleb128 0x19
 1953 06b8 C1040000 		.4byte	.LASF82
 1954 06bc 01       		.byte	0x1
 1955 06bd CB01     		.2byte	0x1cb
 1956 06bf D0050000 		.4byte	0x5d0
 1957 06c3 01       		.uleb128 0x1
 1958 06c4 50       		.byte	0x50
 1959 06c5 00       		.byte	0
 1960 06c6 18       		.uleb128 0x18
 1961 06c7 EF060000 		.4byte	.LASF94
 1962 06cb 01       		.byte	0x1
 1963 06cc E701     		.2byte	0x1e7
 1964 06ce 00000000 		.4byte	.LFB115
 1965 06d2 12000000 		.4byte	.LFE115-.LFB115
 1966 06d6 01       		.uleb128 0x1
 1967 06d7 9C       		.byte	0x9c
ARM GAS  C:\Users\jsyoon\AppData\Local\Temp\cch2rfk4.s 			page 36


 1968 06d8 EB060000 		.4byte	0x6eb
 1969 06dc 19       		.uleb128 0x19
 1970 06dd 8E000000 		.4byte	.LASF84
 1971 06e1 01       		.byte	0x1
 1972 06e2 E701     		.2byte	0x1e7
 1973 06e4 9B060000 		.4byte	0x69b
 1974 06e8 01       		.uleb128 0x1
 1975 06e9 50       		.byte	0x50
 1976 06ea 00       		.byte	0
 1977 06eb 18       		.uleb128 0x18
 1978 06ec 0A050000 		.4byte	.LASF95
 1979 06f0 01       		.byte	0x1
 1980 06f1 0402     		.2byte	0x204
 1981 06f3 00000000 		.4byte	.LFB116
 1982 06f7 1A000000 		.4byte	.LFE116-.LFB116
 1983 06fb 01       		.uleb128 0x1
 1984 06fc 9C       		.byte	0x9c
 1985 06fd 1E070000 		.4byte	0x71e
 1986 0701 19       		.uleb128 0x19
 1987 0702 40060000 		.4byte	.LASF81
 1988 0706 01       		.byte	0x1
 1989 0707 0402     		.2byte	0x204
 1990 0709 85050000 		.4byte	0x585
 1991 070d 01       		.uleb128 0x1
 1992 070e 50       		.byte	0x50
 1993 070f 19       		.uleb128 0x19
 1994 0710 00000000 		.4byte	.LASF96
 1995 0714 01       		.byte	0x1
 1996 0715 0402     		.2byte	0x204
 1997 0717 2D010000 		.4byte	0x12d
 1998 071b 01       		.uleb128 0x1
 1999 071c 51       		.byte	0x51
 2000 071d 00       		.byte	0
 2001 071e 18       		.uleb128 0x18
 2002 071f 06060000 		.4byte	.LASF97
 2003 0723 01       		.byte	0x1
 2004 0724 1D02     		.2byte	0x21d
 2005 0726 00000000 		.4byte	.LFB117
 2006 072a 1A000000 		.4byte	.LFE117-.LFB117
 2007 072e 01       		.uleb128 0x1
 2008 072f 9C       		.byte	0x9c
 2009 0730 51070000 		.4byte	0x751
 2010 0734 19       		.uleb128 0x19
 2011 0735 40060000 		.4byte	.LASF81
 2012 0739 01       		.byte	0x1
 2013 073a 1D02     		.2byte	0x21d
 2014 073c 85050000 		.4byte	0x585
 2015 0740 01       		.uleb128 0x1
 2016 0741 50       		.byte	0x50
 2017 0742 19       		.uleb128 0x19
 2018 0743 00000000 		.4byte	.LASF96
 2019 0747 01       		.byte	0x1
 2020 0748 1D02     		.2byte	0x21d
 2021 074a 2D010000 		.4byte	0x12d
 2022 074e 01       		.uleb128 0x1
 2023 074f 51       		.byte	0x51
 2024 0750 00       		.byte	0
ARM GAS  C:\Users\jsyoon\AppData\Local\Temp\cch2rfk4.s 			page 37


 2025 0751 18       		.uleb128 0x18
 2026 0752 32040000 		.4byte	.LASF98
 2027 0756 01       		.byte	0x1
 2028 0757 3802     		.2byte	0x238
 2029 0759 00000000 		.4byte	.LFB118
 2030 075d 16000000 		.4byte	.LFE118-.LFB118
 2031 0761 01       		.uleb128 0x1
 2032 0762 9C       		.byte	0x9c
 2033 0763 86070000 		.4byte	0x786
 2034 0767 19       		.uleb128 0x19
 2035 0768 40060000 		.4byte	.LASF81
 2036 076c 01       		.byte	0x1
 2037 076d 3802     		.2byte	0x238
 2038 076f 85050000 		.4byte	0x585
 2039 0773 01       		.uleb128 0x1
 2040 0774 50       		.byte	0x50
 2041 0775 1A       		.uleb128 0x1a
 2042 0776 2B070000 		.4byte	.LASF64
 2043 077a 01       		.byte	0x1
 2044 077b 3802     		.2byte	0x238
 2045 077d A2000000 		.4byte	0xa2
 2046 0781 B6020000 		.4byte	.LLST13
 2047 0785 00       		.byte	0
 2048 0786 18       		.uleb128 0x18
 2049 0787 0C010000 		.4byte	.LASF99
 2050 078b 01       		.byte	0x1
 2051 078c 4C02     		.2byte	0x24c
 2052 078e 00000000 		.4byte	.LFB119
 2053 0792 1E000000 		.4byte	.LFE119-.LFB119
 2054 0796 01       		.uleb128 0x1
 2055 0797 9C       		.byte	0x9c
 2056 0798 B9070000 		.4byte	0x7b9
 2057 079c 19       		.uleb128 0x19
 2058 079d 40060000 		.4byte	.LASF81
 2059 07a1 01       		.byte	0x1
 2060 07a2 4C02     		.2byte	0x24c
 2061 07a4 85050000 		.4byte	0x585
 2062 07a8 01       		.uleb128 0x1
 2063 07a9 50       		.byte	0x50
 2064 07aa 19       		.uleb128 0x19
 2065 07ab 61030000 		.4byte	.LASF62
 2066 07af 01       		.byte	0x1
 2067 07b0 4C02     		.2byte	0x24c
 2068 07b2 A2000000 		.4byte	0xa2
 2069 07b6 01       		.uleb128 0x1
 2070 07b7 51       		.byte	0x51
 2071 07b8 00       		.byte	0
 2072 07b9 18       		.uleb128 0x18
 2073 07ba AB010000 		.4byte	.LASF100
 2074 07be 01       		.byte	0x1
 2075 07bf 6602     		.2byte	0x266
 2076 07c1 00000000 		.4byte	.LFB120
 2077 07c5 20000000 		.4byte	.LFE120-.LFB120
 2078 07c9 01       		.uleb128 0x1
 2079 07ca 9C       		.byte	0x9c
 2080 07cb EC070000 		.4byte	0x7ec
 2081 07cf 19       		.uleb128 0x19
ARM GAS  C:\Users\jsyoon\AppData\Local\Temp\cch2rfk4.s 			page 38


 2082 07d0 40060000 		.4byte	.LASF81
 2083 07d4 01       		.byte	0x1
 2084 07d5 6602     		.2byte	0x266
 2085 07d7 85050000 		.4byte	0x585
 2086 07db 01       		.uleb128 0x1
 2087 07dc 50       		.byte	0x50
 2088 07dd 19       		.uleb128 0x19
 2089 07de A2030000 		.4byte	.LASF101
 2090 07e2 01       		.byte	0x1
 2091 07e3 6602     		.2byte	0x266
 2092 07e5 A2000000 		.4byte	0xa2
 2093 07e9 01       		.uleb128 0x1
 2094 07ea 51       		.byte	0x51
 2095 07eb 00       		.byte	0
 2096 07ec 18       		.uleb128 0x18
 2097 07ed 34030000 		.4byte	.LASF102
 2098 07f1 01       		.byte	0x1
 2099 07f2 7E02     		.2byte	0x27e
 2100 07f4 00000000 		.4byte	.LFB121
 2101 07f8 1A000000 		.4byte	.LFE121-.LFB121
 2102 07fc 01       		.uleb128 0x1
 2103 07fd 9C       		.byte	0x9c
 2104 07fe 1F080000 		.4byte	0x81f
 2105 0802 19       		.uleb128 0x19
 2106 0803 40060000 		.4byte	.LASF81
 2107 0807 01       		.byte	0x1
 2108 0808 7E02     		.2byte	0x27e
 2109 080a 85050000 		.4byte	0x585
 2110 080e 01       		.uleb128 0x1
 2111 080f 50       		.byte	0x50
 2112 0810 19       		.uleb128 0x19
 2113 0811 00000000 		.4byte	.LASF96
 2114 0815 01       		.byte	0x1
 2115 0816 7E02     		.2byte	0x27e
 2116 0818 2D010000 		.4byte	0x12d
 2117 081c 01       		.uleb128 0x1
 2118 081d 51       		.byte	0x51
 2119 081e 00       		.byte	0
 2120 081f 18       		.uleb128 0x18
 2121 0820 D6040000 		.4byte	.LASF103
 2122 0824 01       		.byte	0x1
 2123 0825 9D02     		.2byte	0x29d
 2124 0827 00000000 		.4byte	.LFB122
 2125 082b 1A000000 		.4byte	.LFE122-.LFB122
 2126 082f 01       		.uleb128 0x1
 2127 0830 9C       		.byte	0x9c
 2128 0831 52080000 		.4byte	0x852
 2129 0835 19       		.uleb128 0x19
 2130 0836 40060000 		.4byte	.LASF81
 2131 083a 01       		.byte	0x1
 2132 083b 9D02     		.2byte	0x29d
 2133 083d 85050000 		.4byte	0x585
 2134 0841 01       		.uleb128 0x1
 2135 0842 50       		.byte	0x50
 2136 0843 19       		.uleb128 0x19
 2137 0844 00000000 		.4byte	.LASF96
 2138 0848 01       		.byte	0x1
ARM GAS  C:\Users\jsyoon\AppData\Local\Temp\cch2rfk4.s 			page 39


 2139 0849 9D02     		.2byte	0x29d
 2140 084b 2D010000 		.4byte	0x12d
 2141 084f 01       		.uleb128 0x1
 2142 0850 51       		.byte	0x51
 2143 0851 00       		.byte	0
 2144 0852 18       		.uleb128 0x18
 2145 0853 07070000 		.4byte	.LASF104
 2146 0857 01       		.byte	0x1
 2147 0858 C202     		.2byte	0x2c2
 2148 085a 00000000 		.4byte	.LFB123
 2149 085e 46000000 		.4byte	.LFE123-.LFB123
 2150 0862 01       		.uleb128 0x1
 2151 0863 9C       		.byte	0x9c
 2152 0864 A7080000 		.4byte	0x8a7
 2153 0868 19       		.uleb128 0x19
 2154 0869 44030000 		.4byte	.LASF105
 2155 086d 01       		.byte	0x1
 2156 086e C202     		.2byte	0x2c2
 2157 0870 85050000 		.4byte	0x585
 2158 0874 01       		.uleb128 0x1
 2159 0875 50       		.byte	0x50
 2160 0876 1A       		.uleb128 0x1a
 2161 0877 8E000000 		.4byte	.LASF84
 2162 087b 01       		.byte	0x1
 2163 087c C202     		.2byte	0x2c2
 2164 087e 9B060000 		.4byte	0x69b
 2165 0882 D7020000 		.4byte	.LLST14
 2166 0886 1B       		.uleb128 0x1b
 2167 0887 90010000 		.4byte	.LASF85
 2168 088b 01       		.byte	0x1
 2169 088c C402     		.2byte	0x2c4
 2170 088e A2000000 		.4byte	0xa2
 2171 0892 F8020000 		.4byte	.LLST15
 2172 0896 1C       		.uleb128 0x1c
 2173 0897 746D7000 		.ascii	"tmp\000"
 2174 089b 01       		.byte	0x1
 2175 089c C402     		.2byte	0x2c4
 2176 089e A2000000 		.4byte	0xa2
 2177 08a2 22030000 		.4byte	.LLST16
 2178 08a6 00       		.byte	0
 2179 08a7 1D       		.uleb128 0x1d
 2180 08a8 77070000 		.4byte	.LASF110
 2181 08ac 01       		.byte	0x1
 2182 08ad 0D03     		.2byte	0x30d
 2183 08af A2000000 		.4byte	0xa2
 2184 08b3 00000000 		.4byte	.LFB124
 2185 08b7 06000000 		.4byte	.LFE124-.LFB124
 2186 08bb 01       		.uleb128 0x1
 2187 08bc 9C       		.byte	0x9c
 2188 08bd D2080000 		.4byte	0x8d2
 2189 08c1 1A       		.uleb128 0x1a
 2190 08c2 40060000 		.4byte	.LASF81
 2191 08c6 01       		.byte	0x1
 2192 08c7 0D03     		.2byte	0x30d
 2193 08c9 85050000 		.4byte	0x585
 2194 08cd 41030000 		.4byte	.LLST17
 2195 08d1 00       		.byte	0
ARM GAS  C:\Users\jsyoon\AppData\Local\Temp\cch2rfk4.s 			page 40


 2196 08d2 18       		.uleb128 0x18
 2197 08d3 66070000 		.4byte	.LASF106
 2198 08d7 01       		.byte	0x1
 2199 08d8 1D03     		.2byte	0x31d
 2200 08da 00000000 		.4byte	.LFB125
 2201 08de 04000000 		.4byte	.LFE125-.LFB125
 2202 08e2 01       		.uleb128 0x1
 2203 08e3 9C       		.byte	0x9c
 2204 08e4 05090000 		.4byte	0x905
 2205 08e8 19       		.uleb128 0x19
 2206 08e9 40060000 		.4byte	.LASF81
 2207 08ed 01       		.byte	0x1
 2208 08ee 1D03     		.2byte	0x31d
 2209 08f0 85050000 		.4byte	0x585
 2210 08f4 01       		.uleb128 0x1
 2211 08f5 50       		.byte	0x50
 2212 08f6 19       		.uleb128 0x19
 2213 08f7 40070000 		.4byte	.LASF107
 2214 08fb 01       		.byte	0x1
 2215 08fc 1D03     		.2byte	0x31d
 2216 08fe A2000000 		.4byte	0xa2
 2217 0902 01       		.uleb128 0x1
 2218 0903 51       		.byte	0x51
 2219 0904 00       		.byte	0
 2220 0905 18       		.uleb128 0x18
 2221 0906 B4060000 		.4byte	.LASF108
 2222 090a 01       		.byte	0x1
 2223 090b 7603     		.2byte	0x376
 2224 090d 00000000 		.4byte	.LFB126
 2225 0911 1A000000 		.4byte	.LFE126-.LFB126
 2226 0915 01       		.uleb128 0x1
 2227 0916 9C       		.byte	0x9c
 2228 0917 38090000 		.4byte	0x938
 2229 091b 19       		.uleb128 0x19
 2230 091c 40060000 		.4byte	.LASF81
 2231 0920 01       		.byte	0x1
 2232 0921 7603     		.2byte	0x376
 2233 0923 85050000 		.4byte	0x585
 2234 0927 01       		.uleb128 0x1
 2235 0928 50       		.byte	0x50
 2236 0929 19       		.uleb128 0x19
 2237 092a 00000000 		.4byte	.LASF96
 2238 092e 01       		.byte	0x1
 2239 092f 7603     		.2byte	0x376
 2240 0931 2D010000 		.4byte	0x12d
 2241 0935 01       		.uleb128 0x1
 2242 0936 51       		.byte	0x51
 2243 0937 00       		.byte	0
 2244 0938 18       		.uleb128 0x18
 2245 0939 C8030000 		.4byte	.LASF109
 2246 093d 01       		.byte	0x1
 2247 093e 8C03     		.2byte	0x38c
 2248 0940 00000000 		.4byte	.LFB127
 2249 0944 0C000000 		.4byte	.LFE127-.LFB127
 2250 0948 01       		.uleb128 0x1
 2251 0949 9C       		.byte	0x9c
 2252 094a 5D090000 		.4byte	0x95d
ARM GAS  C:\Users\jsyoon\AppData\Local\Temp\cch2rfk4.s 			page 41


 2253 094e 19       		.uleb128 0x19
 2254 094f 40060000 		.4byte	.LASF81
 2255 0953 01       		.byte	0x1
 2256 0954 8C03     		.2byte	0x38c
 2257 0956 85050000 		.4byte	0x585
 2258 095a 01       		.uleb128 0x1
 2259 095b 50       		.byte	0x50
 2260 095c 00       		.byte	0
 2261 095d 1D       		.uleb128 0x1d
 2262 095e CF060000 		.4byte	.LASF111
 2263 0962 01       		.byte	0x1
 2264 0963 9E03     		.2byte	0x39e
 2265 0965 A2000000 		.4byte	0xa2
 2266 0969 00000000 		.4byte	.LFB128
 2267 096d 0C000000 		.4byte	.LFE128-.LFB128
 2268 0971 01       		.uleb128 0x1
 2269 0972 9C       		.byte	0x9c
 2270 0973 A6090000 		.4byte	0x9a6
 2271 0977 1A       		.uleb128 0x1a
 2272 0978 40060000 		.4byte	.LASF81
 2273 097c 01       		.byte	0x1
 2274 097d 9E03     		.2byte	0x39e
 2275 097f 85050000 		.4byte	0x585
 2276 0983 62030000 		.4byte	.LLST18
 2277 0987 19       		.uleb128 0x19
 2278 0988 7A030000 		.4byte	.LASF112
 2279 098c 01       		.byte	0x1
 2280 098d 9E03     		.2byte	0x39e
 2281 098f 97000000 		.4byte	0x97
 2282 0993 01       		.uleb128 0x1
 2283 0994 51       		.byte	0x51
 2284 0995 1B       		.uleb128 0x1b
 2285 0996 7A010000 		.4byte	.LASF113
 2286 099a 01       		.byte	0x1
 2287 099b A003     		.2byte	0x3a0
 2288 099d A2000000 		.4byte	0xa2
 2289 09a1 83030000 		.4byte	.LLST19
 2290 09a5 00       		.byte	0
 2291 09a6 1D       		.uleb128 0x1d
 2292 09a7 32010000 		.4byte	.LASF114
 2293 09ab 01       		.byte	0x1
 2294 09ac B703     		.2byte	0x3b7
 2295 09ae A2000000 		.4byte	0xa2
 2296 09b2 00000000 		.4byte	.LFB129
 2297 09b6 06000000 		.4byte	.LFE129-.LFB129
 2298 09ba 01       		.uleb128 0x1
 2299 09bb 9C       		.byte	0x9c
 2300 09bc D1090000 		.4byte	0x9d1
 2301 09c0 1A       		.uleb128 0x1a
 2302 09c1 40060000 		.4byte	.LASF81
 2303 09c5 01       		.byte	0x1
 2304 09c6 B703     		.2byte	0x3b7
 2305 09c8 85050000 		.4byte	0x585
 2306 09cc A2030000 		.4byte	.LLST20
 2307 09d0 00       		.byte	0
 2308 09d1 18       		.uleb128 0x18
 2309 09d2 81010000 		.4byte	.LASF115
ARM GAS  C:\Users\jsyoon\AppData\Local\Temp\cch2rfk4.s 			page 42


 2310 09d6 01       		.byte	0x1
 2311 09d7 DC03     		.2byte	0x3dc
 2312 09d9 00000000 		.4byte	.LFB130
 2313 09dd 14000000 		.4byte	.LFE130-.LFB130
 2314 09e1 01       		.uleb128 0x1
 2315 09e2 9C       		.byte	0x9c
 2316 09e3 140A0000 		.4byte	0xa14
 2317 09e7 19       		.uleb128 0x19
 2318 09e8 40060000 		.4byte	.LASF81
 2319 09ec 01       		.byte	0x1
 2320 09ed DC03     		.2byte	0x3dc
 2321 09ef 85050000 		.4byte	0x585
 2322 09f3 01       		.uleb128 0x1
 2323 09f4 50       		.byte	0x50
 2324 09f5 1A       		.uleb128 0x1a
 2325 09f6 7A040000 		.4byte	.LASF116
 2326 09fa 01       		.byte	0x1
 2327 09fb DC03     		.2byte	0x3dc
 2328 09fd A2000000 		.4byte	0xa2
 2329 0a01 C3030000 		.4byte	.LLST21
 2330 0a05 19       		.uleb128 0x19
 2331 0a06 00000000 		.4byte	.LASF96
 2332 0a0a 01       		.byte	0x1
 2333 0a0b DC03     		.2byte	0x3dc
 2334 0a0d 2D010000 		.4byte	0x12d
 2335 0a11 01       		.uleb128 0x1
 2336 0a12 52       		.byte	0x52
 2337 0a13 00       		.byte	0
 2338 0a14 18       		.uleb128 0x18
 2339 0a15 C2000000 		.4byte	.LASF117
 2340 0a19 01       		.byte	0x1
 2341 0a1a 4904     		.2byte	0x449
 2342 0a1c 00000000 		.4byte	.LFB131
 2343 0a20 1E000000 		.4byte	.LFE131-.LFB131
 2344 0a24 01       		.uleb128 0x1
 2345 0a25 9C       		.byte	0x9c
 2346 0a26 770A0000 		.4byte	0xa77
 2347 0a2a 19       		.uleb128 0x19
 2348 0a2b 40060000 		.4byte	.LASF81
 2349 0a2f 01       		.byte	0x1
 2350 0a30 4904     		.2byte	0x449
 2351 0a32 85050000 		.4byte	0x585
 2352 0a36 01       		.uleb128 0x1
 2353 0a37 50       		.byte	0x50
 2354 0a38 1A       		.uleb128 0x1a
 2355 0a39 1E040000 		.4byte	.LASF118
 2356 0a3d 01       		.byte	0x1
 2357 0a3e 4904     		.2byte	0x449
 2358 0a40 97000000 		.4byte	0x97
 2359 0a44 FD030000 		.4byte	.LLST22
 2360 0a48 19       		.uleb128 0x19
 2361 0a49 00000000 		.4byte	.LASF96
 2362 0a4d 01       		.byte	0x1
 2363 0a4e 4904     		.2byte	0x449
 2364 0a50 2D010000 		.4byte	0x12d
 2365 0a54 01       		.uleb128 0x1
 2366 0a55 52       		.byte	0x52
ARM GAS  C:\Users\jsyoon\AppData\Local\Temp\cch2rfk4.s 			page 43


 2367 0a56 1B       		.uleb128 0x1b
 2368 0a57 54030000 		.4byte	.LASF119
 2369 0a5b 01       		.byte	0x1
 2370 0a5c 4B04     		.2byte	0x44b
 2371 0a5e A2000000 		.4byte	0xa2
 2372 0a62 1E040000 		.4byte	.LLST23
 2373 0a66 1B       		.uleb128 0x1b
 2374 0a67 4C050000 		.4byte	.LASF120
 2375 0a6b 01       		.byte	0x1
 2376 0a6c 4B04     		.2byte	0x44b
 2377 0a6e A2000000 		.4byte	0xa2
 2378 0a72 4B040000 		.4byte	.LLST24
 2379 0a76 00       		.byte	0
 2380 0a77 1D       		.uleb128 0x1d
 2381 0a78 0E030000 		.4byte	.LASF121
 2382 0a7c 01       		.byte	0x1
 2383 0a7d 7504     		.2byte	0x475
 2384 0a7f FF000000 		.4byte	0xff
 2385 0a83 00000000 		.4byte	.LFB132
 2386 0a87 0C000000 		.4byte	.LFE132-.LFB132
 2387 0a8b 01       		.uleb128 0x1
 2388 0a8c 9C       		.byte	0x9c
 2389 0a8d C00A0000 		.4byte	0xac0
 2390 0a91 1A       		.uleb128 0x1a
 2391 0a92 40060000 		.4byte	.LASF81
 2392 0a96 01       		.byte	0x1
 2393 0a97 7504     		.2byte	0x475
 2394 0a99 85050000 		.4byte	0x585
 2395 0a9d 75040000 		.4byte	.LLST25
 2396 0aa1 19       		.uleb128 0x19
 2397 0aa2 F3030000 		.4byte	.LASF122
 2398 0aa6 01       		.byte	0x1
 2399 0aa7 7504     		.2byte	0x475
 2400 0aa9 A2000000 		.4byte	0xa2
 2401 0aad 01       		.uleb128 0x1
 2402 0aae 51       		.byte	0x51
 2403 0aaf 1B       		.uleb128 0x1b
 2404 0ab0 82030000 		.4byte	.LASF123
 2405 0ab4 01       		.byte	0x1
 2406 0ab5 7704     		.2byte	0x477
 2407 0ab7 FF000000 		.4byte	0xff
 2408 0abb 96040000 		.4byte	.LLST26
 2409 0abf 00       		.byte	0
 2410 0ac0 18       		.uleb128 0x18
 2411 0ac1 79060000 		.4byte	.LASF124
 2412 0ac5 01       		.byte	0x1
 2413 0ac6 9E04     		.2byte	0x49e
 2414 0ac8 00000000 		.4byte	.LFB133
 2415 0acc 08000000 		.4byte	.LFE133-.LFB133
 2416 0ad0 01       		.uleb128 0x1
 2417 0ad1 9C       		.byte	0x9c
 2418 0ad2 F50A0000 		.4byte	0xaf5
 2419 0ad6 19       		.uleb128 0x19
 2420 0ad7 40060000 		.4byte	.LASF81
 2421 0adb 01       		.byte	0x1
 2422 0adc 9E04     		.2byte	0x49e
 2423 0ade 85050000 		.4byte	0x585
ARM GAS  C:\Users\jsyoon\AppData\Local\Temp\cch2rfk4.s 			page 44


 2424 0ae2 01       		.uleb128 0x1
 2425 0ae3 50       		.byte	0x50
 2426 0ae4 1A       		.uleb128 0x1a
 2427 0ae5 F3030000 		.4byte	.LASF122
 2428 0ae9 01       		.byte	0x1
 2429 0aea 9E04     		.2byte	0x49e
 2430 0aec A2000000 		.4byte	0xa2
 2431 0af0 BE040000 		.4byte	.LLST27
 2432 0af4 00       		.byte	0
 2433 0af5 1D       		.uleb128 0x1d
 2434 0af6 97010000 		.4byte	.LASF125
 2435 0afa 01       		.byte	0x1
 2436 0afb B704     		.2byte	0x4b7
 2437 0afd 0B010000 		.4byte	0x10b
 2438 0b01 00000000 		.4byte	.LFB134
 2439 0b05 2A000000 		.4byte	.LFE134-.LFB134
 2440 0b09 01       		.uleb128 0x1
 2441 0b0a 9C       		.byte	0x9c
 2442 0b0b 6C0B0000 		.4byte	0xb6c
 2443 0b0f 1A       		.uleb128 0x1a
 2444 0b10 40060000 		.4byte	.LASF81
 2445 0b14 01       		.byte	0x1
 2446 0b15 B704     		.2byte	0x4b7
 2447 0b17 85050000 		.4byte	0x585
 2448 0b1b DF040000 		.4byte	.LLST28
 2449 0b1f 1A       		.uleb128 0x1a
 2450 0b20 1E040000 		.4byte	.LASF118
 2451 0b24 01       		.byte	0x1
 2452 0b25 B704     		.2byte	0x4b7
 2453 0b27 97000000 		.4byte	0x97
 2454 0b2b 00050000 		.4byte	.LLST29
 2455 0b2f 1B       		.uleb128 0x1b
 2456 0b30 82030000 		.4byte	.LASF123
 2457 0b34 01       		.byte	0x1
 2458 0b35 B904     		.2byte	0x4b9
 2459 0b37 0B010000 		.4byte	0x10b
 2460 0b3b 21050000 		.4byte	.LLST30
 2461 0b3f 1E       		.uleb128 0x1e
 2462 0b40 54030000 		.4byte	.LASF119
 2463 0b44 01       		.byte	0x1
 2464 0b45 BA04     		.2byte	0x4ba
 2465 0b47 A2000000 		.4byte	0xa2
 2466 0b4b 1B       		.uleb128 0x1b
 2467 0b4c 4C050000 		.4byte	.LASF120
 2468 0b50 01       		.byte	0x1
 2469 0b51 BA04     		.2byte	0x4ba
 2470 0b53 A2000000 		.4byte	0xa2
 2471 0b57 40050000 		.4byte	.LLST31
 2472 0b5b 1B       		.uleb128 0x1b
 2473 0b5c A7060000 		.4byte	.LASF126
 2474 0b60 01       		.byte	0x1
 2475 0b61 BA04     		.2byte	0x4ba
 2476 0b63 A2000000 		.4byte	0xa2
 2477 0b67 5C050000 		.4byte	.LLST32
 2478 0b6b 00       		.byte	0
 2479 0b6c 18       		.uleb128 0x18
 2480 0b6d 53050000 		.4byte	.LASF127
ARM GAS  C:\Users\jsyoon\AppData\Local\Temp\cch2rfk4.s 			page 45


 2481 0b71 01       		.byte	0x1
 2482 0b72 EE04     		.2byte	0x4ee
 2483 0b74 00000000 		.4byte	.LFB135
 2484 0b78 12000000 		.4byte	.LFE135-.LFB135
 2485 0b7c 01       		.uleb128 0x1
 2486 0b7d 9C       		.byte	0x9c
 2487 0b7e AD0B0000 		.4byte	0xbad
 2488 0b82 19       		.uleb128 0x19
 2489 0b83 40060000 		.4byte	.LASF81
 2490 0b87 01       		.byte	0x1
 2491 0b88 EE04     		.2byte	0x4ee
 2492 0b8a 85050000 		.4byte	0x585
 2493 0b8e 01       		.uleb128 0x1
 2494 0b8f 50       		.byte	0x50
 2495 0b90 1A       		.uleb128 0x1a
 2496 0b91 1E040000 		.4byte	.LASF118
 2497 0b95 01       		.byte	0x1
 2498 0b96 EE04     		.2byte	0x4ee
 2499 0b98 97000000 		.4byte	0x97
 2500 0b9c 87050000 		.4byte	.LLST33
 2501 0ba0 1E       		.uleb128 0x1e
 2502 0ba1 54030000 		.4byte	.LASF119
 2503 0ba5 01       		.byte	0x1
 2504 0ba6 F004     		.2byte	0x4f0
 2505 0ba8 A2000000 		.4byte	0xa2
 2506 0bac 00       		.byte	0
 2507 0bad 1F       		.uleb128 0x1f
 2508 0bae E3000000 		.4byte	.LASF131
 2509 0bb2 06       		.byte	0x6
 2510 0bb3 9806     		.2byte	0x698
 2511 0bb5 E4000000 		.4byte	0xe4
 2512 0bb9 20       		.uleb128 0x20
 2513 0bba 77000000 		.4byte	.LASF132
 2514 0bbe 07       		.byte	0x7
 2515 0bbf E601     		.2byte	0x1e6
 2516 0bc1 D00B0000 		.4byte	0xbd0
 2517 0bc5 21       		.uleb128 0x21
 2518 0bc6 B8000000 		.4byte	0xb8
 2519 0bca 21       		.uleb128 0x21
 2520 0bcb 2D010000 		.4byte	0x12d
 2521 0bcf 00       		.byte	0
 2522 0bd0 22       		.uleb128 0x22
 2523 0bd1 35050000 		.4byte	.LASF133
 2524 0bd5 07       		.byte	0x7
 2525 0bd6 E701     		.2byte	0x1e7
 2526 0bd8 21       		.uleb128 0x21
 2527 0bd9 B8000000 		.4byte	0xb8
 2528 0bdd 21       		.uleb128 0x21
 2529 0bde 2D010000 		.4byte	0x12d
 2530 0be2 00       		.byte	0
 2531 0be3 00       		.byte	0
 2532              		.section	.debug_abbrev,"",%progbits
 2533              	.Ldebug_abbrev0:
 2534 0000 01       		.uleb128 0x1
 2535 0001 11       		.uleb128 0x11
 2536 0002 01       		.byte	0x1
 2537 0003 25       		.uleb128 0x25
ARM GAS  C:\Users\jsyoon\AppData\Local\Temp\cch2rfk4.s 			page 46


 2538 0004 0E       		.uleb128 0xe
 2539 0005 13       		.uleb128 0x13
 2540 0006 0B       		.uleb128 0xb
 2541 0007 03       		.uleb128 0x3
 2542 0008 0E       		.uleb128 0xe
 2543 0009 1B       		.uleb128 0x1b
 2544 000a 0E       		.uleb128 0xe
 2545 000b 55       		.uleb128 0x55
 2546 000c 17       		.uleb128 0x17
 2547 000d 11       		.uleb128 0x11
 2548 000e 01       		.uleb128 0x1
 2549 000f 10       		.uleb128 0x10
 2550 0010 17       		.uleb128 0x17
 2551 0011 00       		.byte	0
 2552 0012 00       		.byte	0
 2553 0013 02       		.uleb128 0x2
 2554 0014 24       		.uleb128 0x24
 2555 0015 00       		.byte	0
 2556 0016 0B       		.uleb128 0xb
 2557 0017 0B       		.uleb128 0xb
 2558 0018 3E       		.uleb128 0x3e
 2559 0019 0B       		.uleb128 0xb
 2560 001a 03       		.uleb128 0x3
 2561 001b 0E       		.uleb128 0xe
 2562 001c 00       		.byte	0
 2563 001d 00       		.byte	0
 2564 001e 03       		.uleb128 0x3
 2565 001f 16       		.uleb128 0x16
 2566 0020 00       		.byte	0
 2567 0021 03       		.uleb128 0x3
 2568 0022 0E       		.uleb128 0xe
 2569 0023 3A       		.uleb128 0x3a
 2570 0024 0B       		.uleb128 0xb
 2571 0025 3B       		.uleb128 0x3b
 2572 0026 0B       		.uleb128 0xb
 2573 0027 49       		.uleb128 0x49
 2574 0028 13       		.uleb128 0x13
 2575 0029 00       		.byte	0
 2576 002a 00       		.byte	0
 2577 002b 04       		.uleb128 0x4
 2578 002c 24       		.uleb128 0x24
 2579 002d 00       		.byte	0
 2580 002e 0B       		.uleb128 0xb
 2581 002f 0B       		.uleb128 0xb
 2582 0030 3E       		.uleb128 0x3e
 2583 0031 0B       		.uleb128 0xb
 2584 0032 03       		.uleb128 0x3
 2585 0033 08       		.uleb128 0x8
 2586 0034 00       		.byte	0
 2587 0035 00       		.byte	0
 2588 0036 05       		.uleb128 0x5
 2589 0037 35       		.uleb128 0x35
 2590 0038 00       		.byte	0
 2591 0039 49       		.uleb128 0x49
 2592 003a 13       		.uleb128 0x13
 2593 003b 00       		.byte	0
 2594 003c 00       		.byte	0
ARM GAS  C:\Users\jsyoon\AppData\Local\Temp\cch2rfk4.s 			page 47


 2595 003d 06       		.uleb128 0x6
 2596 003e 01       		.uleb128 0x1
 2597 003f 01       		.byte	0x1
 2598 0040 49       		.uleb128 0x49
 2599 0041 13       		.uleb128 0x13
 2600 0042 01       		.uleb128 0x1
 2601 0043 13       		.uleb128 0x13
 2602 0044 00       		.byte	0
 2603 0045 00       		.byte	0
 2604 0046 07       		.uleb128 0x7
 2605 0047 21       		.uleb128 0x21
 2606 0048 00       		.byte	0
 2607 0049 49       		.uleb128 0x49
 2608 004a 13       		.uleb128 0x13
 2609 004b 2F       		.uleb128 0x2f
 2610 004c 0B       		.uleb128 0xb
 2611 004d 00       		.byte	0
 2612 004e 00       		.byte	0
 2613 004f 08       		.uleb128 0x8
 2614 0050 04       		.uleb128 0x4
 2615 0051 01       		.byte	0x1
 2616 0052 0B       		.uleb128 0xb
 2617 0053 0B       		.uleb128 0xb
 2618 0054 3A       		.uleb128 0x3a
 2619 0055 0B       		.uleb128 0xb
 2620 0056 3B       		.uleb128 0x3b
 2621 0057 05       		.uleb128 0x5
 2622 0058 01       		.uleb128 0x1
 2623 0059 13       		.uleb128 0x13
 2624 005a 00       		.byte	0
 2625 005b 00       		.byte	0
 2626 005c 09       		.uleb128 0x9
 2627 005d 28       		.uleb128 0x28
 2628 005e 00       		.byte	0
 2629 005f 03       		.uleb128 0x3
 2630 0060 0E       		.uleb128 0xe
 2631 0061 1C       		.uleb128 0x1c
 2632 0062 0D       		.uleb128 0xd
 2633 0063 00       		.byte	0
 2634 0064 00       		.byte	0
 2635 0065 0A       		.uleb128 0xa
 2636 0066 28       		.uleb128 0x28
 2637 0067 00       		.byte	0
 2638 0068 03       		.uleb128 0x3
 2639 0069 08       		.uleb128 0x8
 2640 006a 1C       		.uleb128 0x1c
 2641 006b 0D       		.uleb128 0xd
 2642 006c 00       		.byte	0
 2643 006d 00       		.byte	0
 2644 006e 0B       		.uleb128 0xb
 2645 006f 16       		.uleb128 0x16
 2646 0070 00       		.byte	0
 2647 0071 03       		.uleb128 0x3
 2648 0072 0E       		.uleb128 0xe
 2649 0073 3A       		.uleb128 0x3a
 2650 0074 0B       		.uleb128 0xb
 2651 0075 3B       		.uleb128 0x3b
ARM GAS  C:\Users\jsyoon\AppData\Local\Temp\cch2rfk4.s 			page 48


 2652 0076 05       		.uleb128 0x5
 2653 0077 49       		.uleb128 0x49
 2654 0078 13       		.uleb128 0x13
 2655 0079 00       		.byte	0
 2656 007a 00       		.byte	0
 2657 007b 0C       		.uleb128 0xc
 2658 007c 13       		.uleb128 0x13
 2659 007d 01       		.byte	0x1
 2660 007e 0B       		.uleb128 0xb
 2661 007f 0B       		.uleb128 0xb
 2662 0080 3A       		.uleb128 0x3a
 2663 0081 0B       		.uleb128 0xb
 2664 0082 3B       		.uleb128 0x3b
 2665 0083 05       		.uleb128 0x5
 2666 0084 01       		.uleb128 0x1
 2667 0085 13       		.uleb128 0x13
 2668 0086 00       		.byte	0
 2669 0087 00       		.byte	0
 2670 0088 0D       		.uleb128 0xd
 2671 0089 0D       		.uleb128 0xd
 2672 008a 00       		.byte	0
 2673 008b 03       		.uleb128 0x3
 2674 008c 08       		.uleb128 0x8
 2675 008d 3A       		.uleb128 0x3a
 2676 008e 0B       		.uleb128 0xb
 2677 008f 3B       		.uleb128 0x3b
 2678 0090 05       		.uleb128 0x5
 2679 0091 49       		.uleb128 0x49
 2680 0092 13       		.uleb128 0x13
 2681 0093 38       		.uleb128 0x38
 2682 0094 0B       		.uleb128 0xb
 2683 0095 00       		.byte	0
 2684 0096 00       		.byte	0
 2685 0097 0E       		.uleb128 0xe
 2686 0098 0D       		.uleb128 0xd
 2687 0099 00       		.byte	0
 2688 009a 03       		.uleb128 0x3
 2689 009b 0E       		.uleb128 0xe
 2690 009c 3A       		.uleb128 0x3a
 2691 009d 0B       		.uleb128 0xb
 2692 009e 3B       		.uleb128 0x3b
 2693 009f 05       		.uleb128 0x5
 2694 00a0 49       		.uleb128 0x49
 2695 00a1 13       		.uleb128 0x13
 2696 00a2 38       		.uleb128 0x38
 2697 00a3 0B       		.uleb128 0xb
 2698 00a4 00       		.byte	0
 2699 00a5 00       		.byte	0
 2700 00a6 0F       		.uleb128 0xf
 2701 00a7 13       		.uleb128 0x13
 2702 00a8 01       		.byte	0x1
 2703 00a9 0B       		.uleb128 0xb
 2704 00aa 0B       		.uleb128 0xb
 2705 00ab 3A       		.uleb128 0x3a
 2706 00ac 0B       		.uleb128 0xb
 2707 00ad 3B       		.uleb128 0x3b
 2708 00ae 0B       		.uleb128 0xb
ARM GAS  C:\Users\jsyoon\AppData\Local\Temp\cch2rfk4.s 			page 49


 2709 00af 01       		.uleb128 0x1
 2710 00b0 13       		.uleb128 0x13
 2711 00b1 00       		.byte	0
 2712 00b2 00       		.byte	0
 2713 00b3 10       		.uleb128 0x10
 2714 00b4 0D       		.uleb128 0xd
 2715 00b5 00       		.byte	0
 2716 00b6 03       		.uleb128 0x3
 2717 00b7 0E       		.uleb128 0xe
 2718 00b8 3A       		.uleb128 0x3a
 2719 00b9 0B       		.uleb128 0xb
 2720 00ba 3B       		.uleb128 0x3b
 2721 00bb 0B       		.uleb128 0xb
 2722 00bc 49       		.uleb128 0x49
 2723 00bd 13       		.uleb128 0x13
 2724 00be 38       		.uleb128 0x38
 2725 00bf 0B       		.uleb128 0xb
 2726 00c0 00       		.byte	0
 2727 00c1 00       		.byte	0
 2728 00c2 11       		.uleb128 0x11
 2729 00c3 2E       		.uleb128 0x2e
 2730 00c4 01       		.byte	0x1
 2731 00c5 3F       		.uleb128 0x3f
 2732 00c6 19       		.uleb128 0x19
 2733 00c7 03       		.uleb128 0x3
 2734 00c8 0E       		.uleb128 0xe
 2735 00c9 3A       		.uleb128 0x3a
 2736 00ca 0B       		.uleb128 0xb
 2737 00cb 3B       		.uleb128 0x3b
 2738 00cc 0B       		.uleb128 0xb
 2739 00cd 27       		.uleb128 0x27
 2740 00ce 19       		.uleb128 0x19
 2741 00cf 11       		.uleb128 0x11
 2742 00d0 01       		.uleb128 0x1
 2743 00d1 12       		.uleb128 0x12
 2744 00d2 06       		.uleb128 0x6
 2745 00d3 40       		.uleb128 0x40
 2746 00d4 18       		.uleb128 0x18
 2747 00d5 9742     		.uleb128 0x2117
 2748 00d7 19       		.uleb128 0x19
 2749 00d8 01       		.uleb128 0x1
 2750 00d9 13       		.uleb128 0x13
 2751 00da 00       		.byte	0
 2752 00db 00       		.byte	0
 2753 00dc 12       		.uleb128 0x12
 2754 00dd 05       		.uleb128 0x5
 2755 00de 00       		.byte	0
 2756 00df 03       		.uleb128 0x3
 2757 00e0 0E       		.uleb128 0xe
 2758 00e1 3A       		.uleb128 0x3a
 2759 00e2 0B       		.uleb128 0xb
 2760 00e3 3B       		.uleb128 0x3b
 2761 00e4 0B       		.uleb128 0xb
 2762 00e5 49       		.uleb128 0x49
 2763 00e6 13       		.uleb128 0x13
 2764 00e7 02       		.uleb128 0x2
 2765 00e8 17       		.uleb128 0x17
ARM GAS  C:\Users\jsyoon\AppData\Local\Temp\cch2rfk4.s 			page 50


 2766 00e9 00       		.byte	0
 2767 00ea 00       		.byte	0
 2768 00eb 13       		.uleb128 0x13
 2769 00ec 898201   		.uleb128 0x4109
 2770 00ef 01       		.byte	0x1
 2771 00f0 11       		.uleb128 0x11
 2772 00f1 01       		.uleb128 0x1
 2773 00f2 31       		.uleb128 0x31
 2774 00f3 13       		.uleb128 0x13
 2775 00f4 01       		.uleb128 0x1
 2776 00f5 13       		.uleb128 0x13
 2777 00f6 00       		.byte	0
 2778 00f7 00       		.byte	0
 2779 00f8 14       		.uleb128 0x14
 2780 00f9 8A8201   		.uleb128 0x410a
 2781 00fc 00       		.byte	0
 2782 00fd 02       		.uleb128 0x2
 2783 00fe 18       		.uleb128 0x18
 2784 00ff 9142     		.uleb128 0x2111
 2785 0101 18       		.uleb128 0x18
 2786 0102 00       		.byte	0
 2787 0103 00       		.byte	0
 2788 0104 15       		.uleb128 0x15
 2789 0105 898201   		.uleb128 0x4109
 2790 0108 01       		.byte	0x1
 2791 0109 11       		.uleb128 0x11
 2792 010a 01       		.uleb128 0x1
 2793 010b 9542     		.uleb128 0x2115
 2794 010d 19       		.uleb128 0x19
 2795 010e 31       		.uleb128 0x31
 2796 010f 13       		.uleb128 0x13
 2797 0110 01       		.uleb128 0x1
 2798 0111 13       		.uleb128 0x13
 2799 0112 00       		.byte	0
 2800 0113 00       		.byte	0
 2801 0114 16       		.uleb128 0x16
 2802 0115 898201   		.uleb128 0x4109
 2803 0118 01       		.byte	0x1
 2804 0119 11       		.uleb128 0x11
 2805 011a 01       		.uleb128 0x1
 2806 011b 9542     		.uleb128 0x2115
 2807 011d 19       		.uleb128 0x19
 2808 011e 31       		.uleb128 0x31
 2809 011f 13       		.uleb128 0x13
 2810 0120 00       		.byte	0
 2811 0121 00       		.byte	0
 2812 0122 17       		.uleb128 0x17
 2813 0123 0F       		.uleb128 0xf
 2814 0124 00       		.byte	0
 2815 0125 0B       		.uleb128 0xb
 2816 0126 0B       		.uleb128 0xb
 2817 0127 49       		.uleb128 0x49
 2818 0128 13       		.uleb128 0x13
 2819 0129 00       		.byte	0
 2820 012a 00       		.byte	0
 2821 012b 18       		.uleb128 0x18
 2822 012c 2E       		.uleb128 0x2e
ARM GAS  C:\Users\jsyoon\AppData\Local\Temp\cch2rfk4.s 			page 51


 2823 012d 01       		.byte	0x1
 2824 012e 3F       		.uleb128 0x3f
 2825 012f 19       		.uleb128 0x19
 2826 0130 03       		.uleb128 0x3
 2827 0131 0E       		.uleb128 0xe
 2828 0132 3A       		.uleb128 0x3a
 2829 0133 0B       		.uleb128 0xb
 2830 0134 3B       		.uleb128 0x3b
 2831 0135 05       		.uleb128 0x5
 2832 0136 27       		.uleb128 0x27
 2833 0137 19       		.uleb128 0x19
 2834 0138 11       		.uleb128 0x11
 2835 0139 01       		.uleb128 0x1
 2836 013a 12       		.uleb128 0x12
 2837 013b 06       		.uleb128 0x6
 2838 013c 40       		.uleb128 0x40
 2839 013d 18       		.uleb128 0x18
 2840 013e 9742     		.uleb128 0x2117
 2841 0140 19       		.uleb128 0x19
 2842 0141 01       		.uleb128 0x1
 2843 0142 13       		.uleb128 0x13
 2844 0143 00       		.byte	0
 2845 0144 00       		.byte	0
 2846 0145 19       		.uleb128 0x19
 2847 0146 05       		.uleb128 0x5
 2848 0147 00       		.byte	0
 2849 0148 03       		.uleb128 0x3
 2850 0149 0E       		.uleb128 0xe
 2851 014a 3A       		.uleb128 0x3a
 2852 014b 0B       		.uleb128 0xb
 2853 014c 3B       		.uleb128 0x3b
 2854 014d 05       		.uleb128 0x5
 2855 014e 49       		.uleb128 0x49
 2856 014f 13       		.uleb128 0x13
 2857 0150 02       		.uleb128 0x2
 2858 0151 18       		.uleb128 0x18
 2859 0152 00       		.byte	0
 2860 0153 00       		.byte	0
 2861 0154 1A       		.uleb128 0x1a
 2862 0155 05       		.uleb128 0x5
 2863 0156 00       		.byte	0
 2864 0157 03       		.uleb128 0x3
 2865 0158 0E       		.uleb128 0xe
 2866 0159 3A       		.uleb128 0x3a
 2867 015a 0B       		.uleb128 0xb
 2868 015b 3B       		.uleb128 0x3b
 2869 015c 05       		.uleb128 0x5
 2870 015d 49       		.uleb128 0x49
 2871 015e 13       		.uleb128 0x13
 2872 015f 02       		.uleb128 0x2
 2873 0160 17       		.uleb128 0x17
 2874 0161 00       		.byte	0
 2875 0162 00       		.byte	0
 2876 0163 1B       		.uleb128 0x1b
 2877 0164 34       		.uleb128 0x34
 2878 0165 00       		.byte	0
 2879 0166 03       		.uleb128 0x3
ARM GAS  C:\Users\jsyoon\AppData\Local\Temp\cch2rfk4.s 			page 52


 2880 0167 0E       		.uleb128 0xe
 2881 0168 3A       		.uleb128 0x3a
 2882 0169 0B       		.uleb128 0xb
 2883 016a 3B       		.uleb128 0x3b
 2884 016b 05       		.uleb128 0x5
 2885 016c 49       		.uleb128 0x49
 2886 016d 13       		.uleb128 0x13
 2887 016e 02       		.uleb128 0x2
 2888 016f 17       		.uleb128 0x17
 2889 0170 00       		.byte	0
 2890 0171 00       		.byte	0
 2891 0172 1C       		.uleb128 0x1c
 2892 0173 34       		.uleb128 0x34
 2893 0174 00       		.byte	0
 2894 0175 03       		.uleb128 0x3
 2895 0176 08       		.uleb128 0x8
 2896 0177 3A       		.uleb128 0x3a
 2897 0178 0B       		.uleb128 0xb
 2898 0179 3B       		.uleb128 0x3b
 2899 017a 05       		.uleb128 0x5
 2900 017b 49       		.uleb128 0x49
 2901 017c 13       		.uleb128 0x13
 2902 017d 02       		.uleb128 0x2
 2903 017e 17       		.uleb128 0x17
 2904 017f 00       		.byte	0
 2905 0180 00       		.byte	0
 2906 0181 1D       		.uleb128 0x1d
 2907 0182 2E       		.uleb128 0x2e
 2908 0183 01       		.byte	0x1
 2909 0184 3F       		.uleb128 0x3f
 2910 0185 19       		.uleb128 0x19
 2911 0186 03       		.uleb128 0x3
 2912 0187 0E       		.uleb128 0xe
 2913 0188 3A       		.uleb128 0x3a
 2914 0189 0B       		.uleb128 0xb
 2915 018a 3B       		.uleb128 0x3b
 2916 018b 05       		.uleb128 0x5
 2917 018c 27       		.uleb128 0x27
 2918 018d 19       		.uleb128 0x19
 2919 018e 49       		.uleb128 0x49
 2920 018f 13       		.uleb128 0x13
 2921 0190 11       		.uleb128 0x11
 2922 0191 01       		.uleb128 0x1
 2923 0192 12       		.uleb128 0x12
 2924 0193 06       		.uleb128 0x6
 2925 0194 40       		.uleb128 0x40
 2926 0195 18       		.uleb128 0x18
 2927 0196 9742     		.uleb128 0x2117
 2928 0198 19       		.uleb128 0x19
 2929 0199 01       		.uleb128 0x1
 2930 019a 13       		.uleb128 0x13
 2931 019b 00       		.byte	0
 2932 019c 00       		.byte	0
 2933 019d 1E       		.uleb128 0x1e
 2934 019e 34       		.uleb128 0x34
 2935 019f 00       		.byte	0
 2936 01a0 03       		.uleb128 0x3
ARM GAS  C:\Users\jsyoon\AppData\Local\Temp\cch2rfk4.s 			page 53


 2937 01a1 0E       		.uleb128 0xe
 2938 01a2 3A       		.uleb128 0x3a
 2939 01a3 0B       		.uleb128 0xb
 2940 01a4 3B       		.uleb128 0x3b
 2941 01a5 05       		.uleb128 0x5
 2942 01a6 49       		.uleb128 0x49
 2943 01a7 13       		.uleb128 0x13
 2944 01a8 00       		.byte	0
 2945 01a9 00       		.byte	0
 2946 01aa 1F       		.uleb128 0x1f
 2947 01ab 34       		.uleb128 0x34
 2948 01ac 00       		.byte	0
 2949 01ad 03       		.uleb128 0x3
 2950 01ae 0E       		.uleb128 0xe
 2951 01af 3A       		.uleb128 0x3a
 2952 01b0 0B       		.uleb128 0xb
 2953 01b1 3B       		.uleb128 0x3b
 2954 01b2 05       		.uleb128 0x5
 2955 01b3 49       		.uleb128 0x49
 2956 01b4 13       		.uleb128 0x13
 2957 01b5 3F       		.uleb128 0x3f
 2958 01b6 19       		.uleb128 0x19
 2959 01b7 3C       		.uleb128 0x3c
 2960 01b8 19       		.uleb128 0x19
 2961 01b9 00       		.byte	0
 2962 01ba 00       		.byte	0
 2963 01bb 20       		.uleb128 0x20
 2964 01bc 2E       		.uleb128 0x2e
 2965 01bd 01       		.byte	0x1
 2966 01be 3F       		.uleb128 0x3f
 2967 01bf 19       		.uleb128 0x19
 2968 01c0 03       		.uleb128 0x3
 2969 01c1 0E       		.uleb128 0xe
 2970 01c2 3A       		.uleb128 0x3a
 2971 01c3 0B       		.uleb128 0xb
 2972 01c4 3B       		.uleb128 0x3b
 2973 01c5 05       		.uleb128 0x5
 2974 01c6 27       		.uleb128 0x27
 2975 01c7 19       		.uleb128 0x19
 2976 01c8 3C       		.uleb128 0x3c
 2977 01c9 19       		.uleb128 0x19
 2978 01ca 01       		.uleb128 0x1
 2979 01cb 13       		.uleb128 0x13
 2980 01cc 00       		.byte	0
 2981 01cd 00       		.byte	0
 2982 01ce 21       		.uleb128 0x21
 2983 01cf 05       		.uleb128 0x5
 2984 01d0 00       		.byte	0
 2985 01d1 49       		.uleb128 0x49
 2986 01d2 13       		.uleb128 0x13
 2987 01d3 00       		.byte	0
 2988 01d4 00       		.byte	0
 2989 01d5 22       		.uleb128 0x22
 2990 01d6 2E       		.uleb128 0x2e
 2991 01d7 01       		.byte	0x1
 2992 01d8 3F       		.uleb128 0x3f
 2993 01d9 19       		.uleb128 0x19
ARM GAS  C:\Users\jsyoon\AppData\Local\Temp\cch2rfk4.s 			page 54


 2994 01da 03       		.uleb128 0x3
 2995 01db 0E       		.uleb128 0xe
 2996 01dc 3A       		.uleb128 0x3a
 2997 01dd 0B       		.uleb128 0xb
 2998 01de 3B       		.uleb128 0x3b
 2999 01df 05       		.uleb128 0x5
 3000 01e0 27       		.uleb128 0x27
 3001 01e1 19       		.uleb128 0x19
 3002 01e2 3C       		.uleb128 0x3c
 3003 01e3 19       		.uleb128 0x19
 3004 01e4 00       		.byte	0
 3005 01e5 00       		.byte	0
 3006 01e6 00       		.byte	0
 3007              		.section	.debug_loc,"",%progbits
 3008              	.Ldebug_loc0:
 3009              	.LLST0:
 3010 0000 00000000 		.4byte	.LVL0
 3011 0004 1A000000 		.4byte	.LVL1
 3012 0008 0100     		.2byte	0x1
 3013 000a 50       		.byte	0x50
 3014 000b 1A000000 		.4byte	.LVL1
 3015 000f 2E000000 		.4byte	.LVL3
 3016 0013 0400     		.2byte	0x4
 3017 0015 F3       		.byte	0xf3
 3018 0016 01       		.uleb128 0x1
 3019 0017 50       		.byte	0x50
 3020 0018 9F       		.byte	0x9f
 3021 0019 2E000000 		.4byte	.LVL3
 3022 001d 32000000 		.4byte	.LVL4
 3023 0021 0100     		.2byte	0x1
 3024 0023 50       		.byte	0x50
 3025 0024 32000000 		.4byte	.LVL4
 3026 0028 46000000 		.4byte	.LVL6
 3027 002c 0400     		.2byte	0x4
 3028 002e F3       		.byte	0xf3
 3029 002f 01       		.uleb128 0x1
 3030 0030 50       		.byte	0x50
 3031 0031 9F       		.byte	0x9f
 3032 0032 46000000 		.4byte	.LVL6
 3033 0036 4A000000 		.4byte	.LVL7
 3034 003a 0100     		.2byte	0x1
 3035 003c 50       		.byte	0x50
 3036 003d 4A000000 		.4byte	.LVL7
 3037 0041 6C000000 		.4byte	.LFE111
 3038 0045 0400     		.2byte	0x4
 3039 0047 F3       		.byte	0xf3
 3040 0048 01       		.uleb128 0x1
 3041 0049 50       		.byte	0x50
 3042 004a 9F       		.byte	0x9f
 3043 004b 00000000 		.4byte	0
 3044 004f 00000000 		.4byte	0
 3045              	.LLST1:
 3046 0053 00000000 		.4byte	.LVL10
 3047 0057 24000000 		.4byte	.LVL12
 3048 005b 0100     		.2byte	0x1
 3049 005d 51       		.byte	0x51
 3050 005e 24000000 		.4byte	.LVL12
ARM GAS  C:\Users\jsyoon\AppData\Local\Temp\cch2rfk4.s 			page 55


 3051 0062 52000000 		.4byte	.LFE112
 3052 0066 0400     		.2byte	0x4
 3053 0068 F3       		.byte	0xf3
 3054 0069 01       		.uleb128 0x1
 3055 006a 51       		.byte	0x51
 3056 006b 9F       		.byte	0x9f
 3057 006c 00000000 		.4byte	0
 3058 0070 00000000 		.4byte	0
 3059              	.LLST2:
 3060 0074 00000000 		.4byte	.LVL10
 3061 0078 20000000 		.4byte	.LVL11
 3062 007c 0200     		.2byte	0x2
 3063 007e 30       		.byte	0x30
 3064 007f 9F       		.byte	0x9f
 3065 0080 20000000 		.4byte	.LVL11
 3066 0084 3A000000 		.4byte	.LVL14
 3067 0088 0100     		.2byte	0x1
 3068 008a 53       		.byte	0x53
 3069 008b 3C000000 		.4byte	.LVL15
 3070 008f 40000000 		.4byte	.LVL16
 3071 0093 0100     		.2byte	0x1
 3072 0095 53       		.byte	0x53
 3073 0096 00000000 		.4byte	0
 3074 009a 00000000 		.4byte	0
 3075              	.LLST3:
 3076 009e 00000000 		.4byte	.LVL17
 3077 00a2 A8000000 		.4byte	.LVL36
 3078 00a6 0100     		.2byte	0x1
 3079 00a8 51       		.byte	0x51
 3080 00a9 A8000000 		.4byte	.LVL36
 3081 00ad C2000000 		.4byte	.LVL39
 3082 00b1 0400     		.2byte	0x4
 3083 00b3 F3       		.byte	0xf3
 3084 00b4 01       		.uleb128 0x1
 3085 00b5 51       		.byte	0x51
 3086 00b6 9F       		.byte	0x9f
 3087 00b7 C2000000 		.4byte	.LVL39
 3088 00bb E0000000 		.4byte	.LFE113
 3089 00bf 0100     		.2byte	0x1
 3090 00c1 51       		.byte	0x51
 3091 00c2 00000000 		.4byte	0
 3092 00c6 00000000 		.4byte	0
 3093              	.LLST4:
 3094 00ca 00000000 		.4byte	.LVL17
 3095 00ce 24000000 		.4byte	.LVL18
 3096 00d2 0200     		.2byte	0x2
 3097 00d4 30       		.byte	0x30
 3098 00d5 9F       		.byte	0x9f
 3099 00d6 24000000 		.4byte	.LVL18
 3100 00da B6000000 		.4byte	.LVL37
 3101 00de 0100     		.2byte	0x1
 3102 00e0 5C       		.byte	0x5c
 3103 00e1 B6000000 		.4byte	.LVL37
 3104 00e5 C0000000 		.4byte	.LVL38
 3105 00e9 0100     		.2byte	0x1
 3106 00eb 54       		.byte	0x54
 3107 00ec C2000000 		.4byte	.LVL39
ARM GAS  C:\Users\jsyoon\AppData\Local\Temp\cch2rfk4.s 			page 56


 3108 00f0 E0000000 		.4byte	.LFE113
 3109 00f4 0100     		.2byte	0x1
 3110 00f6 5C       		.byte	0x5c
 3111 00f7 00000000 		.4byte	0
 3112 00fb 00000000 		.4byte	0
 3113              	.LLST5:
 3114 00ff 00000000 		.4byte	.LVL17
 3115 0103 94000000 		.4byte	.LVL33
 3116 0107 0200     		.2byte	0x2
 3117 0109 32       		.byte	0x32
 3118 010a 9F       		.byte	0x9f
 3119 010b 94000000 		.4byte	.LVL33
 3120 010f 9C000000 		.4byte	.LVL34
 3121 0113 0100     		.2byte	0x1
 3122 0115 55       		.byte	0x55
 3123 0116 C2000000 		.4byte	.LVL39
 3124 011a E0000000 		.4byte	.LFE113
 3125 011e 0200     		.2byte	0x2
 3126 0120 32       		.byte	0x32
 3127 0121 9F       		.byte	0x9f
 3128 0122 00000000 		.4byte	0
 3129 0126 00000000 		.4byte	0
 3130              	.LLST6:
 3131 012a 00000000 		.4byte	.LVL17
 3132 012e 8C000000 		.4byte	.LVL32
 3133 0132 0200     		.2byte	0x2
 3134 0134 30       		.byte	0x30
 3135 0135 9F       		.byte	0x9f
 3136 0136 8C000000 		.4byte	.LVL32
 3137 013a 94000000 		.4byte	.LVL33
 3138 013e 0500     		.2byte	0x5
 3139 0140 72       		.byte	0x72
 3140 0141 00       		.sleb128 0
 3141 0142 31       		.byte	0x31
 3142 0143 1A       		.byte	0x1a
 3143 0144 9F       		.byte	0x9f
 3144 0145 94000000 		.4byte	.LVL33
 3145 0149 9C000000 		.4byte	.LVL34
 3146 014d 0500     		.2byte	0x5
 3147 014f 72       		.byte	0x72
 3148 0150 00       		.sleb128 0
 3149 0151 38       		.byte	0x38
 3150 0152 24       		.byte	0x24
 3151 0153 9F       		.byte	0x9f
 3152 0154 C2000000 		.4byte	.LVL39
 3153 0158 E0000000 		.4byte	.LFE113
 3154 015c 0200     		.2byte	0x2
 3155 015e 30       		.byte	0x30
 3156 015f 9F       		.byte	0x9f
 3157 0160 00000000 		.4byte	0
 3158 0164 00000000 		.4byte	0
 3159              	.LLST7:
 3160 0168 00000000 		.4byte	.LVL17
 3161 016c 38000000 		.4byte	.LVL19
 3162 0170 0200     		.2byte	0x2
 3163 0172 31       		.byte	0x31
 3164 0173 9F       		.byte	0x9f
ARM GAS  C:\Users\jsyoon\AppData\Local\Temp\cch2rfk4.s 			page 57


 3165 0174 38000000 		.4byte	.LVL19
 3166 0178 70000000 		.4byte	.LVL28
 3167 017c 0100     		.2byte	0x1
 3168 017e 58       		.byte	0x58
 3169 017f 70000000 		.4byte	.LVL28
 3170 0183 9E000000 		.4byte	.LVL35
 3171 0187 0C00     		.2byte	0xc
 3172 0189 31       		.byte	0x31
 3173 018a 32       		.byte	0x32
 3174 018b 74       		.byte	0x74
 3175 018c 00       		.sleb128 0
 3176 018d 30       		.byte	0x30
 3177 018e 29       		.byte	0x29
 3178 018f 28       		.byte	0x28
 3179 0190 0100     		.2byte	0x1
 3180 0192 16       		.byte	0x16
 3181 0193 13       		.byte	0x13
 3182 0194 9F       		.byte	0x9f
 3183 0195 C2000000 		.4byte	.LVL39
 3184 0199 CC000000 		.4byte	.LVL40
 3185 019d 0100     		.2byte	0x1
 3186 019f 58       		.byte	0x58
 3187 01a0 CC000000 		.4byte	.LVL40
 3188 01a4 E0000000 		.4byte	.LFE113
 3189 01a8 0200     		.2byte	0x2
 3190 01aa 31       		.byte	0x31
 3191 01ab 9F       		.byte	0x9f
 3192 01ac 00000000 		.4byte	0
 3193 01b0 00000000 		.4byte	0
 3194              	.LLST8:
 3195 01b4 00000000 		.4byte	.LVL17
 3196 01b8 86000000 		.4byte	.LVL30
 3197 01bc 0200     		.2byte	0x2
 3198 01be 30       		.byte	0x30
 3199 01bf 9F       		.byte	0x9f
 3200 01c0 86000000 		.4byte	.LVL30
 3201 01c4 8A000000 		.4byte	.LVL31
 3202 01c8 0100     		.2byte	0x1
 3203 01ca 52       		.byte	0x52
 3204 01cb 8C000000 		.4byte	.LVL32
 3205 01cf 94000000 		.4byte	.LVL33
 3206 01d3 0100     		.2byte	0x1
 3207 01d5 52       		.byte	0x52
 3208 01d6 C2000000 		.4byte	.LVL39
 3209 01da E0000000 		.4byte	.LFE113
 3210 01de 0200     		.2byte	0x2
 3211 01e0 30       		.byte	0x30
 3212 01e1 9F       		.byte	0x9f
 3213 01e2 00000000 		.4byte	0
 3214 01e6 00000000 		.4byte	0
 3215              	.LLST9:
 3216 01ea 00000000 		.4byte	.LVL17
 3217 01ee 6A000000 		.4byte	.LVL27
 3218 01f2 0200     		.2byte	0x2
 3219 01f4 30       		.byte	0x30
 3220 01f5 9F       		.byte	0x9f
 3221 01f6 6A000000 		.4byte	.LVL27
ARM GAS  C:\Users\jsyoon\AppData\Local\Temp\cch2rfk4.s 			page 58


 3222 01fa 72000000 		.4byte	.LVL29
 3223 01fe 0100     		.2byte	0x1
 3224 0200 55       		.byte	0x55
 3225 0201 C2000000 		.4byte	.LVL39
 3226 0205 E0000000 		.4byte	.LFE113
 3227 0209 0200     		.2byte	0x2
 3228 020b 30       		.byte	0x30
 3229 020c 9F       		.byte	0x9f
 3230 020d 00000000 		.4byte	0
 3231 0211 00000000 		.4byte	0
 3232              	.LLST10:
 3233 0215 00000000 		.4byte	.LVL17
 3234 0219 4C000000 		.4byte	.LVL22
 3235 021d 0200     		.2byte	0x2
 3236 021f 30       		.byte	0x30
 3237 0220 9F       		.byte	0x9f
 3238 0221 4C000000 		.4byte	.LVL22
 3239 0225 52000000 		.4byte	.LVL23
 3240 0229 0600     		.2byte	0x6
 3241 022b 77       		.byte	0x77
 3242 022c 00       		.sleb128 0
 3243 022d 08       		.byte	0x8
 3244 022e 3F       		.byte	0x3f
 3245 022f 1A       		.byte	0x1a
 3246 0230 9F       		.byte	0x9f
 3247 0231 52000000 		.4byte	.LVL23
 3248 0235 5A000000 		.4byte	.LVL25
 3249 0239 0100     		.2byte	0x1
 3250 023b 57       		.byte	0x57
 3251 023c C2000000 		.4byte	.LVL39
 3252 0240 E0000000 		.4byte	.LFE113
 3253 0244 0200     		.2byte	0x2
 3254 0246 30       		.byte	0x30
 3255 0247 9F       		.byte	0x9f
 3256 0248 00000000 		.4byte	0
 3257 024c 00000000 		.4byte	0
 3258              	.LLST11:
 3259 0250 00000000 		.4byte	.LVL17
 3260 0254 46000000 		.4byte	.LVL20
 3261 0258 0200     		.2byte	0x2
 3262 025a 30       		.byte	0x30
 3263 025b 9F       		.byte	0x9f
 3264 025c 46000000 		.4byte	.LVL20
 3265 0260 56000000 		.4byte	.LVL24
 3266 0264 0900     		.2byte	0x9
 3267 0266 75       		.byte	0x75
 3268 0267 00       		.sleb128 0
 3269 0268 0A       		.byte	0xa
 3270 0269 C07F     		.2byte	0x7fc0
 3271 026b 1A       		.byte	0x1a
 3272 026c 36       		.byte	0x36
 3273 026d 25       		.byte	0x25
 3274 026e 9F       		.byte	0x9f
 3275 026f C2000000 		.4byte	.LVL39
 3276 0273 E0000000 		.4byte	.LFE113
 3277 0277 0200     		.2byte	0x2
 3278 0279 30       		.byte	0x30
ARM GAS  C:\Users\jsyoon\AppData\Local\Temp\cch2rfk4.s 			page 59


 3279 027a 9F       		.byte	0x9f
 3280 027b 00000000 		.4byte	0
 3281 027f 00000000 		.4byte	0
 3282              	.LLST12:
 3283 0283 00000000 		.4byte	.LVL17
 3284 0287 4A000000 		.4byte	.LVL21
 3285 028b 0200     		.2byte	0x2
 3286 028d 30       		.byte	0x30
 3287 028e 9F       		.byte	0x9f
 3288 028f 4A000000 		.4byte	.LVL21
 3289 0293 62000000 		.4byte	.LVL26
 3290 0297 0900     		.2byte	0x9
 3291 0299 76       		.byte	0x76
 3292 029a 00       		.sleb128 0
 3293 029b 4C       		.byte	0x4c
 3294 029c 4A       		.byte	0x4a
 3295 029d 24       		.byte	0x24
 3296 029e 1A       		.byte	0x1a
 3297 029f 4C       		.byte	0x4c
 3298 02a0 25       		.byte	0x25
 3299 02a1 9F       		.byte	0x9f
 3300 02a2 C2000000 		.4byte	.LVL39
 3301 02a6 E0000000 		.4byte	.LFE113
 3302 02aa 0200     		.2byte	0x2
 3303 02ac 30       		.byte	0x30
 3304 02ad 9F       		.byte	0x9f
 3305 02ae 00000000 		.4byte	0
 3306 02b2 00000000 		.4byte	0
 3307              	.LLST13:
 3308 02b6 00000000 		.4byte	.LVL45
 3309 02ba 12000000 		.4byte	.LVL46
 3310 02be 0100     		.2byte	0x1
 3311 02c0 51       		.byte	0x51
 3312 02c1 12000000 		.4byte	.LVL46
 3313 02c5 16000000 		.4byte	.LFE118
 3314 02c9 0400     		.2byte	0x4
 3315 02cb F3       		.byte	0xf3
 3316 02cc 01       		.uleb128 0x1
 3317 02cd 51       		.byte	0x51
 3318 02ce 9F       		.byte	0x9f
 3319 02cf 00000000 		.4byte	0
 3320 02d3 00000000 		.4byte	0
 3321              	.LLST14:
 3322 02d7 00000000 		.4byte	.LVL51
 3323 02db 20000000 		.4byte	.LVL52
 3324 02df 0100     		.2byte	0x1
 3325 02e1 51       		.byte	0x51
 3326 02e2 20000000 		.4byte	.LVL52
 3327 02e6 46000000 		.4byte	.LFE123
 3328 02ea 0400     		.2byte	0x4
 3329 02ec F3       		.byte	0xf3
 3330 02ed 01       		.uleb128 0x1
 3331 02ee 51       		.byte	0x51
 3332 02ef 9F       		.byte	0x9f
 3333 02f0 00000000 		.4byte	0
 3334 02f4 00000000 		.4byte	0
 3335              	.LLST15:
ARM GAS  C:\Users\jsyoon\AppData\Local\Temp\cch2rfk4.s 			page 60


 3336 02f8 00000000 		.4byte	.LVL51
 3337 02fc 22000000 		.4byte	.LVL53
 3338 0300 0200     		.2byte	0x2
 3339 0302 30       		.byte	0x30
 3340 0303 9F       		.byte	0x9f
 3341 0304 22000000 		.4byte	.LVL53
 3342 0308 24000000 		.4byte	.LVL54
 3343 030c 0100     		.2byte	0x1
 3344 030e 53       		.byte	0x53
 3345 030f 40000000 		.4byte	.LVL56
 3346 0313 46000000 		.4byte	.LFE123
 3347 0317 0100     		.2byte	0x1
 3348 0319 53       		.byte	0x53
 3349 031a 00000000 		.4byte	0
 3350 031e 00000000 		.4byte	0
 3351              	.LLST16:
 3352 0322 00000000 		.4byte	.LVL51
 3353 0326 3E000000 		.4byte	.LVL55
 3354 032a 0200     		.2byte	0x2
 3355 032c 30       		.byte	0x30
 3356 032d 9F       		.byte	0x9f
 3357 032e 3E000000 		.4byte	.LVL55
 3358 0332 46000000 		.4byte	.LFE123
 3359 0336 0100     		.2byte	0x1
 3360 0338 52       		.byte	0x52
 3361 0339 00000000 		.4byte	0
 3362 033d 00000000 		.4byte	0
 3363              	.LLST17:
 3364 0341 00000000 		.4byte	.LVL57
 3365 0345 02000000 		.4byte	.LVL58
 3366 0349 0100     		.2byte	0x1
 3367 034b 50       		.byte	0x50
 3368 034c 02000000 		.4byte	.LVL58
 3369 0350 06000000 		.4byte	.LFE124
 3370 0354 0400     		.2byte	0x4
 3371 0356 F3       		.byte	0xf3
 3372 0357 01       		.uleb128 0x1
 3373 0358 50       		.byte	0x50
 3374 0359 9F       		.byte	0x9f
 3375 035a 00000000 		.4byte	0
 3376 035e 00000000 		.4byte	0
 3377              	.LLST18:
 3378 0362 00000000 		.4byte	.LVL62
 3379 0366 06000000 		.4byte	.LVL63
 3380 036a 0100     		.2byte	0x1
 3381 036c 50       		.byte	0x50
 3382 036d 06000000 		.4byte	.LVL63
 3383 0371 0C000000 		.4byte	.LFE128
 3384 0375 0400     		.2byte	0x4
 3385 0377 F3       		.byte	0xf3
 3386 0378 01       		.uleb128 0x1
 3387 0379 50       		.byte	0x50
 3388 037a 9F       		.byte	0x9f
 3389 037b 00000000 		.4byte	0
 3390 037f 00000000 		.4byte	0
 3391              	.LLST19:
 3392 0383 00000000 		.4byte	.LVL62
ARM GAS  C:\Users\jsyoon\AppData\Local\Temp\cch2rfk4.s 			page 61


 3393 0387 0A000000 		.4byte	.LVL64
 3394 038b 0200     		.2byte	0x2
 3395 038d 30       		.byte	0x30
 3396 038e 9F       		.byte	0x9f
 3397 038f 0A000000 		.4byte	.LVL64
 3398 0393 0C000000 		.4byte	.LFE128
 3399 0397 0100     		.2byte	0x1
 3400 0399 50       		.byte	0x50
 3401 039a 00000000 		.4byte	0
 3402 039e 00000000 		.4byte	0
 3403              	.LLST20:
 3404 03a2 00000000 		.4byte	.LVL65
 3405 03a6 02000000 		.4byte	.LVL66
 3406 03aa 0100     		.2byte	0x1
 3407 03ac 50       		.byte	0x50
 3408 03ad 02000000 		.4byte	.LVL66
 3409 03b1 06000000 		.4byte	.LFE129
 3410 03b5 0400     		.2byte	0x4
 3411 03b7 F3       		.byte	0xf3
 3412 03b8 01       		.uleb128 0x1
 3413 03b9 50       		.byte	0x50
 3414 03ba 9F       		.byte	0x9f
 3415 03bb 00000000 		.4byte	0
 3416 03bf 00000000 		.4byte	0
 3417              	.LLST21:
 3418 03c3 00000000 		.4byte	.LVL67
 3419 03c7 0A000000 		.4byte	.LVL68
 3420 03cb 0100     		.2byte	0x1
 3421 03cd 51       		.byte	0x51
 3422 03ce 0A000000 		.4byte	.LVL68
 3423 03d2 0E000000 		.4byte	.LVL69
 3424 03d6 0400     		.2byte	0x4
 3425 03d8 F3       		.byte	0xf3
 3426 03d9 01       		.uleb128 0x1
 3427 03da 51       		.byte	0x51
 3428 03db 9F       		.byte	0x9f
 3429 03dc 0E000000 		.4byte	.LVL69
 3430 03e0 10000000 		.4byte	.LVL70
 3431 03e4 0100     		.2byte	0x1
 3432 03e6 51       		.byte	0x51
 3433 03e7 10000000 		.4byte	.LVL70
 3434 03eb 14000000 		.4byte	.LFE130
 3435 03ef 0400     		.2byte	0x4
 3436 03f1 F3       		.byte	0xf3
 3437 03f2 01       		.uleb128 0x1
 3438 03f3 51       		.byte	0x51
 3439 03f4 9F       		.byte	0x9f
 3440 03f5 00000000 		.4byte	0
 3441 03f9 00000000 		.4byte	0
 3442              	.LLST22:
 3443 03fd 00000000 		.4byte	.LVL71
 3444 0401 04000000 		.4byte	.LVL72
 3445 0405 0100     		.2byte	0x1
 3446 0407 51       		.byte	0x51
 3447 0408 04000000 		.4byte	.LVL72
 3448 040c 1E000000 		.4byte	.LFE131
 3449 0410 0400     		.2byte	0x4
ARM GAS  C:\Users\jsyoon\AppData\Local\Temp\cch2rfk4.s 			page 62


 3450 0412 F3       		.byte	0xf3
 3451 0413 01       		.uleb128 0x1
 3452 0414 51       		.byte	0x51
 3453 0415 9F       		.byte	0x9f
 3454 0416 00000000 		.4byte	0
 3455 041a 00000000 		.4byte	0
 3456              	.LLST23:
 3457 041e 00000000 		.4byte	.LVL71
 3458 0422 04000000 		.4byte	.LVL72
 3459 0426 0800     		.2byte	0x8
 3460 0428 71       		.byte	0x71
 3461 0429 00       		.sleb128 0
 3462 042a 34       		.byte	0x34
 3463 042b 25       		.byte	0x25
 3464 042c 08       		.byte	0x8
 3465 042d FF       		.byte	0xff
 3466 042e 1A       		.byte	0x1a
 3467 042f 9F       		.byte	0x9f
 3468 0430 04000000 		.4byte	.LVL72
 3469 0434 1E000000 		.4byte	.LFE131
 3470 0438 0900     		.2byte	0x9
 3471 043a F3       		.byte	0xf3
 3472 043b 01       		.uleb128 0x1
 3473 043c 51       		.byte	0x51
 3474 043d 34       		.byte	0x34
 3475 043e 25       		.byte	0x25
 3476 043f 08       		.byte	0x8
 3477 0440 FF       		.byte	0xff
 3478 0441 1A       		.byte	0x1a
 3479 0442 9F       		.byte	0x9f
 3480 0443 00000000 		.4byte	0
 3481 0447 00000000 		.4byte	0
 3482              	.LLST24:
 3483 044b 00000000 		.4byte	.LVL71
 3484 044f 0C000000 		.4byte	.LVL73
 3485 0453 0200     		.2byte	0x2
 3486 0455 30       		.byte	0x30
 3487 0456 9F       		.byte	0x9f
 3488 0457 0C000000 		.4byte	.LVL73
 3489 045b 14000000 		.4byte	.LVL74
 3490 045f 0100     		.2byte	0x1
 3491 0461 51       		.byte	0x51
 3492 0462 18000000 		.4byte	.LVL75
 3493 0466 1A000000 		.4byte	.LVL76
 3494 046a 0100     		.2byte	0x1
 3495 046c 51       		.byte	0x51
 3496 046d 00000000 		.4byte	0
 3497 0471 00000000 		.4byte	0
 3498              	.LLST25:
 3499 0475 00000000 		.4byte	.LVL77
 3500 0479 0A000000 		.4byte	.LVL79
 3501 047d 0100     		.2byte	0x1
 3502 047f 50       		.byte	0x50
 3503 0480 0A000000 		.4byte	.LVL79
 3504 0484 0C000000 		.4byte	.LFE132
 3505 0488 0400     		.2byte	0x4
 3506 048a F3       		.byte	0xf3
ARM GAS  C:\Users\jsyoon\AppData\Local\Temp\cch2rfk4.s 			page 63


 3507 048b 01       		.uleb128 0x1
 3508 048c 50       		.byte	0x50
 3509 048d 9F       		.byte	0x9f
 3510 048e 00000000 		.4byte	0
 3511 0492 00000000 		.4byte	0
 3512              	.LLST26:
 3513 0496 00000000 		.4byte	.LVL77
 3514 049a 02000000 		.4byte	.LVL78
 3515 049e 0200     		.2byte	0x2
 3516 04a0 30       		.byte	0x30
 3517 04a1 9F       		.byte	0x9f
 3518 04a2 02000000 		.4byte	.LVL78
 3519 04a6 0C000000 		.4byte	.LFE132
 3520 04aa 0A00     		.2byte	0xa
 3521 04ac 71       		.byte	0x71
 3522 04ad 00       		.sleb128 0
 3523 04ae 73       		.byte	0x73
 3524 04af 00       		.sleb128 0
 3525 04b0 1A       		.byte	0x1a
 3526 04b1 40       		.byte	0x40
 3527 04b2 24       		.byte	0x24
 3528 04b3 30       		.byte	0x30
 3529 04b4 2E       		.byte	0x2e
 3530 04b5 9F       		.byte	0x9f
 3531 04b6 00000000 		.4byte	0
 3532 04ba 00000000 		.4byte	0
 3533              	.LLST27:
 3534 04be 00000000 		.4byte	.LVL80
 3535 04c2 02000000 		.4byte	.LVL81
 3536 04c6 0100     		.2byte	0x1
 3537 04c8 51       		.byte	0x51
 3538 04c9 02000000 		.4byte	.LVL81
 3539 04cd 08000000 		.4byte	.LFE133
 3540 04d1 0400     		.2byte	0x4
 3541 04d3 F3       		.byte	0xf3
 3542 04d4 01       		.uleb128 0x1
 3543 04d5 51       		.byte	0x51
 3544 04d6 9F       		.byte	0x9f
 3545 04d7 00000000 		.4byte	0
 3546 04db 00000000 		.4byte	0
 3547              	.LLST28:
 3548 04df 00000000 		.4byte	.LVL82
 3549 04e3 06000000 		.4byte	.LVL83
 3550 04e7 0100     		.2byte	0x1
 3551 04e9 50       		.byte	0x50
 3552 04ea 06000000 		.4byte	.LVL83
 3553 04ee 2A000000 		.4byte	.LFE134
 3554 04f2 0400     		.2byte	0x4
 3555 04f4 F3       		.byte	0xf3
 3556 04f5 01       		.uleb128 0x1
 3557 04f6 50       		.byte	0x50
 3558 04f7 9F       		.byte	0x9f
 3559 04f8 00000000 		.4byte	0
 3560 04fc 00000000 		.4byte	0
 3561              	.LLST29:
 3562 0500 00000000 		.4byte	.LVL82
 3563 0504 1A000000 		.4byte	.LVL85
ARM GAS  C:\Users\jsyoon\AppData\Local\Temp\cch2rfk4.s 			page 64


 3564 0508 0100     		.2byte	0x1
 3565 050a 51       		.byte	0x51
 3566 050b 1A000000 		.4byte	.LVL85
 3567 050f 2A000000 		.4byte	.LFE134
 3568 0513 0400     		.2byte	0x4
 3569 0515 F3       		.byte	0xf3
 3570 0516 01       		.uleb128 0x1
 3571 0517 51       		.byte	0x51
 3572 0518 9F       		.byte	0x9f
 3573 0519 00000000 		.4byte	0
 3574 051d 00000000 		.4byte	0
 3575              	.LLST30:
 3576 0521 00000000 		.4byte	.LVL82
 3577 0525 24000000 		.4byte	.LVL86
 3578 0529 0200     		.2byte	0x2
 3579 052b 30       		.byte	0x30
 3580 052c 9F       		.byte	0x9f
 3581 052d 24000000 		.4byte	.LVL86
 3582 0531 2A000000 		.4byte	.LFE134
 3583 0535 0100     		.2byte	0x1
 3584 0537 50       		.byte	0x50
 3585 0538 00000000 		.4byte	0
 3586 053c 00000000 		.4byte	0
 3587              	.LLST31:
 3588 0540 00000000 		.4byte	.LVL82
 3589 0544 1A000000 		.4byte	.LVL85
 3590 0548 0A00     		.2byte	0xa
 3591 054a 31       		.byte	0x31
 3592 054b 71       		.byte	0x71
 3593 054c 00       		.sleb128 0
 3594 054d 34       		.byte	0x34
 3595 054e 25       		.byte	0x25
 3596 054f 08       		.byte	0x8
 3597 0550 FF       		.byte	0xff
 3598 0551 1A       		.byte	0x1a
 3599 0552 24       		.byte	0x24
 3600 0553 9F       		.byte	0x9f
 3601 0554 00000000 		.4byte	0
 3602 0558 00000000 		.4byte	0
 3603              	.LLST32:
 3604 055c 00000000 		.4byte	.LVL82
 3605 0560 16000000 		.4byte	.LVL84
 3606 0564 0200     		.2byte	0x2
 3607 0566 30       		.byte	0x30
 3608 0567 9F       		.byte	0x9f
 3609 0568 16000000 		.4byte	.LVL84
 3610 056c 1A000000 		.4byte	.LVL85
 3611 0570 0D00     		.2byte	0xd
 3612 0572 31       		.byte	0x31
 3613 0573 71       		.byte	0x71
 3614 0574 00       		.sleb128 0
 3615 0575 34       		.byte	0x34
 3616 0576 25       		.byte	0x25
 3617 0577 08       		.byte	0x8
 3618 0578 FF       		.byte	0xff
 3619 0579 1A       		.byte	0x1a
 3620 057a 24       		.byte	0x24
ARM GAS  C:\Users\jsyoon\AppData\Local\Temp\cch2rfk4.s 			page 65


 3621 057b 74       		.byte	0x74
 3622 057c 00       		.sleb128 0
 3623 057d 1A       		.byte	0x1a
 3624 057e 9F       		.byte	0x9f
 3625 057f 00000000 		.4byte	0
 3626 0583 00000000 		.4byte	0
 3627              	.LLST33:
 3628 0587 00000000 		.4byte	.LVL87
 3629 058b 04000000 		.4byte	.LVL88
 3630 058f 0100     		.2byte	0x1
 3631 0591 51       		.byte	0x51
 3632 0592 04000000 		.4byte	.LVL88
 3633 0596 12000000 		.4byte	.LFE135
 3634 059a 0400     		.2byte	0x4
 3635 059c F3       		.byte	0xf3
 3636 059d 01       		.uleb128 0x1
 3637 059e 51       		.byte	0x51
 3638 059f 9F       		.byte	0x9f
 3639 05a0 00000000 		.4byte	0
 3640 05a4 00000000 		.4byte	0
 3641              		.section	.debug_aranges,"",%progbits
 3642 0000 DC000000 		.4byte	0xdc
 3643 0004 0200     		.2byte	0x2
 3644 0006 00000000 		.4byte	.Ldebug_info0
 3645 000a 04       		.byte	0x4
 3646 000b 00       		.byte	0
 3647 000c 0000     		.2byte	0
 3648 000e 0000     		.2byte	0
 3649 0010 00000000 		.4byte	.LFB111
 3650 0014 6C000000 		.4byte	.LFE111-.LFB111
 3651 0018 00000000 		.4byte	.LFB112
 3652 001c 52000000 		.4byte	.LFE112-.LFB112
 3653 0020 00000000 		.4byte	.LFB113
 3654 0024 E0000000 		.4byte	.LFE113-.LFB113
 3655 0028 00000000 		.4byte	.LFB114
 3656 002c 18000000 		.4byte	.LFE114-.LFB114
 3657 0030 00000000 		.4byte	.LFB115
 3658 0034 12000000 		.4byte	.LFE115-.LFB115
 3659 0038 00000000 		.4byte	.LFB116
 3660 003c 1A000000 		.4byte	.LFE116-.LFB116
 3661 0040 00000000 		.4byte	.LFB117
 3662 0044 1A000000 		.4byte	.LFE117-.LFB117
 3663 0048 00000000 		.4byte	.LFB118
 3664 004c 16000000 		.4byte	.LFE118-.LFB118
 3665 0050 00000000 		.4byte	.LFB119
 3666 0054 1E000000 		.4byte	.LFE119-.LFB119
 3667 0058 00000000 		.4byte	.LFB120
 3668 005c 20000000 		.4byte	.LFE120-.LFB120
 3669 0060 00000000 		.4byte	.LFB121
 3670 0064 1A000000 		.4byte	.LFE121-.LFB121
 3671 0068 00000000 		.4byte	.LFB122
 3672 006c 1A000000 		.4byte	.LFE122-.LFB122
 3673 0070 00000000 		.4byte	.LFB123
 3674 0074 46000000 		.4byte	.LFE123-.LFB123
 3675 0078 00000000 		.4byte	.LFB124
 3676 007c 06000000 		.4byte	.LFE124-.LFB124
 3677 0080 00000000 		.4byte	.LFB125
ARM GAS  C:\Users\jsyoon\AppData\Local\Temp\cch2rfk4.s 			page 66


 3678 0084 04000000 		.4byte	.LFE125-.LFB125
 3679 0088 00000000 		.4byte	.LFB126
 3680 008c 1A000000 		.4byte	.LFE126-.LFB126
 3681 0090 00000000 		.4byte	.LFB127
 3682 0094 0C000000 		.4byte	.LFE127-.LFB127
 3683 0098 00000000 		.4byte	.LFB128
 3684 009c 0C000000 		.4byte	.LFE128-.LFB128
 3685 00a0 00000000 		.4byte	.LFB129
 3686 00a4 06000000 		.4byte	.LFE129-.LFB129
 3687 00a8 00000000 		.4byte	.LFB130
 3688 00ac 14000000 		.4byte	.LFE130-.LFB130
 3689 00b0 00000000 		.4byte	.LFB131
 3690 00b4 1E000000 		.4byte	.LFE131-.LFB131
 3691 00b8 00000000 		.4byte	.LFB132
 3692 00bc 0C000000 		.4byte	.LFE132-.LFB132
 3693 00c0 00000000 		.4byte	.LFB133
 3694 00c4 08000000 		.4byte	.LFE133-.LFB133
 3695 00c8 00000000 		.4byte	.LFB134
 3696 00cc 2A000000 		.4byte	.LFE134-.LFB134
 3697 00d0 00000000 		.4byte	.LFB135
 3698 00d4 12000000 		.4byte	.LFE135-.LFB135
 3699 00d8 00000000 		.4byte	0
 3700 00dc 00000000 		.4byte	0
 3701              		.section	.debug_ranges,"",%progbits
 3702              	.Ldebug_ranges0:
 3703 0000 00000000 		.4byte	.LFB111
 3704 0004 6C000000 		.4byte	.LFE111
 3705 0008 00000000 		.4byte	.LFB112
 3706 000c 52000000 		.4byte	.LFE112
 3707 0010 00000000 		.4byte	.LFB113
 3708 0014 E0000000 		.4byte	.LFE113
 3709 0018 00000000 		.4byte	.LFB114
 3710 001c 18000000 		.4byte	.LFE114
 3711 0020 00000000 		.4byte	.LFB115
 3712 0024 12000000 		.4byte	.LFE115
 3713 0028 00000000 		.4byte	.LFB116
 3714 002c 1A000000 		.4byte	.LFE116
 3715 0030 00000000 		.4byte	.LFB117
 3716 0034 1A000000 		.4byte	.LFE117
 3717 0038 00000000 		.4byte	.LFB118
 3718 003c 16000000 		.4byte	.LFE118
 3719 0040 00000000 		.4byte	.LFB119
 3720 0044 1E000000 		.4byte	.LFE119
 3721 0048 00000000 		.4byte	.LFB120
 3722 004c 20000000 		.4byte	.LFE120
 3723 0050 00000000 		.4byte	.LFB121
 3724 0054 1A000000 		.4byte	.LFE121
 3725 0058 00000000 		.4byte	.LFB122
 3726 005c 1A000000 		.4byte	.LFE122
 3727 0060 00000000 		.4byte	.LFB123
 3728 0064 46000000 		.4byte	.LFE123
 3729 0068 00000000 		.4byte	.LFB124
 3730 006c 06000000 		.4byte	.LFE124
 3731 0070 00000000 		.4byte	.LFB125
 3732 0074 04000000 		.4byte	.LFE125
 3733 0078 00000000 		.4byte	.LFB126
 3734 007c 1A000000 		.4byte	.LFE126
ARM GAS  C:\Users\jsyoon\AppData\Local\Temp\cch2rfk4.s 			page 67


 3735 0080 00000000 		.4byte	.LFB127
 3736 0084 0C000000 		.4byte	.LFE127
 3737 0088 00000000 		.4byte	.LFB128
 3738 008c 0C000000 		.4byte	.LFE128
 3739 0090 00000000 		.4byte	.LFB129
 3740 0094 06000000 		.4byte	.LFE129
 3741 0098 00000000 		.4byte	.LFB130
 3742 009c 14000000 		.4byte	.LFE130
 3743 00a0 00000000 		.4byte	.LFB131
 3744 00a4 1E000000 		.4byte	.LFE131
 3745 00a8 00000000 		.4byte	.LFB132
 3746 00ac 0C000000 		.4byte	.LFE132
 3747 00b0 00000000 		.4byte	.LFB133
 3748 00b4 08000000 		.4byte	.LFE133
 3749 00b8 00000000 		.4byte	.LFB134
 3750 00bc 2A000000 		.4byte	.LFE134
 3751 00c0 00000000 		.4byte	.LFB135
 3752 00c4 12000000 		.4byte	.LFE135
 3753 00c8 00000000 		.4byte	0
 3754 00cc 00000000 		.4byte	0
 3755              		.section	.debug_line,"",%progbits
 3756              	.Ldebug_line0:
 3757 0000 8A040000 		.section	.debug_str,"MS",%progbits,1
 3757      0200BD01 
 3757      00000201 
 3757      FB0E0D00 
 3757      01010101 
 3758              	.LASF96:
 3759 0000 4E657753 		.ascii	"NewState\000"
 3759      74617465 
 3759      00
 3760              	.LASF44:
 3761 0009 41504231 		.ascii	"APB1LPENR\000"
 3761      4C50454E 
 3761      5200
 3762              	.LASF55:
 3763 0013 52584352 		.ascii	"RXCRCR\000"
 3763      435200
 3764              	.LASF19:
 3765 001a 466C6167 		.ascii	"FlagStatus\000"
 3765      53746174 
 3765      757300
 3766              	.LASF130:
 3767 0025 453A5C4D 		.ascii	"E:\\Maker\\BLDC\\test_eval\\try2\\OROCA-BLDC_R15080"
 3767      616B6572 
 3767      5C424C44 
 3767      435C7465 
 3767      73745F65 
 3768 0053 3700     		.ascii	"7\000"
 3769              	.LASF90:
 3770 0055 706C6C6D 		.ascii	"pllm\000"
 3770      00
 3771              	.LASF91:
 3772 005a 706C6C6E 		.ascii	"plln\000"
 3772      00
 3773              	.LASF80:
 3774 005f 5350495F 		.ascii	"SPI_Init\000"
ARM GAS  C:\Users\jsyoon\AppData\Local\Temp\cch2rfk4.s 			page 68


 3774      496E6974 
 3774      00
 3775              	.LASF3:
 3776 0068 5F5F7569 		.ascii	"__uint8_t\000"
 3776      6E74385F 
 3776      7400
 3777              	.LASF92:
 3778 0072 706C6C72 		.ascii	"pllr\000"
 3778      00
 3779              	.LASF132:
 3780 0077 5243435F 		.ascii	"RCC_APB1PeriphResetCmd\000"
 3780      41504231 
 3780      50657269 
 3780      70685265 
 3780      73657443 
 3781              	.LASF84:
 3782 008e 4932535F 		.ascii	"I2S_InitStruct\000"
 3782      496E6974 
 3782      53747275 
 3782      637400
 3783              	.LASF21:
 3784 009d 44495341 		.ascii	"DISABLE\000"
 3784      424C4500 
 3785              	.LASF11:
 3786 00a5 6C6F6E67 		.ascii	"long long unsigned int\000"
 3786      206C6F6E 
 3786      6720756E 
 3786      7369676E 
 3786      65642069 
 3787              	.LASF54:
 3788 00bc 43524350 		.ascii	"CRCPR\000"
 3788      5200
 3789              	.LASF117:
 3790 00c2 5350495F 		.ascii	"SPI_I2S_ITConfig\000"
 3790      4932535F 
 3790      4954436F 
 3790      6E666967 
 3790      00
 3791              	.LASF78:
 3792 00d3 4932535F 		.ascii	"I2S_InitTypeDef\000"
 3792      496E6974 
 3792      54797065 
 3792      44656600 
 3793              	.LASF131:
 3794 00e3 49544D5F 		.ascii	"ITM_RxBuffer\000"
 3794      52784275 
 3794      66666572 
 3794      00
 3795              	.LASF79:
 3796 00f0 5350495F 		.ascii	"SPI_I2S_DeInit\000"
 3796      4932535F 
 3796      4465496E 
 3796      697400
 3797              	.LASF73:
 3798 00ff 4932535F 		.ascii	"I2S_Standard\000"
 3798      5374616E 
 3798      64617264 
ARM GAS  C:\Users\jsyoon\AppData\Local\Temp\cch2rfk4.s 			page 69


 3798      00
 3799              	.LASF99:
 3800 010c 5350495F 		.ascii	"SPI_BiDirectionalLineConfig\000"
 3800      42694469 
 3800      72656374 
 3800      696F6E61 
 3800      6C4C696E 
 3801              	.LASF40:
 3802 0128 41484231 		.ascii	"AHB1LPENR\000"
 3802      4C50454E 
 3802      5200
 3803              	.LASF114:
 3804 0132 5350495F 		.ascii	"SPI_GetCRCPolynomial\000"
 3804      47657443 
 3804      5243506F 
 3804      6C796E6F 
 3804      6D69616C 
 3805              	.LASF52:
 3806 0147 44434B43 		.ascii	"DCKCFGR\000"
 3806      46475200 
 3807              	.LASF10:
 3808 014f 6C6F6E67 		.ascii	"long long int\000"
 3808      206C6F6E 
 3808      6720696E 
 3808      7400
 3809              	.LASF0:
 3810 015d 7369676E 		.ascii	"signed char\000"
 3810      65642063 
 3810      68617200 
 3811              	.LASF26:
 3812 0169 41484231 		.ascii	"AHB1RSTR\000"
 3812      52535452 
 3812      00
 3813              	.LASF57:
 3814 0172 49325343 		.ascii	"I2SCFGR\000"
 3814      46475200 
 3815              	.LASF113:
 3816 017a 63726372 		.ascii	"crcreg\000"
 3816      656700
 3817              	.LASF115:
 3818 0181 5350495F 		.ascii	"SPI_I2S_DMACmd\000"
 3818      4932535F 
 3818      444D4143 
 3818      6D6400
 3819              	.LASF85:
 3820 0190 746D7072 		.ascii	"tmpreg\000"
 3820      656700
 3821              	.LASF125:
 3822 0197 5350495F 		.ascii	"SPI_I2S_GetITStatus\000"
 3822      4932535F 
 3822      47657449 
 3822      54537461 
 3822      74757300 
 3823              	.LASF100:
 3824 01ab 5350495F 		.ascii	"SPI_NSSInternalSoftwareConfig\000"
 3824      4E535349 
 3824      6E746572 
ARM GAS  C:\Users\jsyoon\AppData\Local\Temp\cch2rfk4.s 			page 70


 3824      6E616C53 
 3824      6F667477 
 3825              	.LASF7:
 3826 01c9 6C6F6E67 		.ascii	"long int\000"
 3826      20696E74 
 3826      00
 3827              	.LASF93:
 3828 01d2 5350495F 		.ascii	"SPI_StructInit\000"
 3828      53747275 
 3828      6374496E 
 3828      697400
 3829              	.LASF31:
 3830 01e1 41504232 		.ascii	"APB2RSTR\000"
 3830      52535452 
 3830      00
 3831              	.LASF128:
 3832 01ea 474E5520 		.ascii	"GNU C 4.8.4 20140526 (release) [ARM/embedded-4_8-br"
 3832      4320342E 
 3832      382E3420 
 3832      32303134 
 3832      30353236 
 3833 021d 616E6368 		.ascii	"anch revision 211358] -mcpu=cortex-m4 -mfloat-abi=h"
 3833      20726576 
 3833      6973696F 
 3833      6E203231 
 3833      31333538 
 3834 0250 61726420 		.ascii	"ard -mfpu=fpv4-sp-d16 -mno-thumb-interwork -mthumb "
 3834      2D6D6670 
 3834      753D6670 
 3834      76342D73 
 3834      702D6431 
 3835 0283 2D676764 		.ascii	"-ggdb -O2 -std=gnu99 -fomit-frame-pointer -falign-f"
 3835      62202D4F 
 3835      32202D73 
 3835      74643D67 
 3835      6E753939 
 3836 02b6 756E6374 		.ascii	"unctions=16 -ffunction-sections -fdata-sections -fn"
 3836      696F6E73 
 3836      3D313620 
 3836      2D666675 
 3836      6E637469 
 3837 02e9 6F2D636F 		.ascii	"o-common -fsingle-precision-constant\000"
 3837      6D6D6F6E 
 3837      202D6673 
 3837      696E676C 
 3837      652D7072 
 3838              	.LASF121:
 3839 030e 5350495F 		.ascii	"SPI_I2S_GetFlagStatus\000"
 3839      4932535F 
 3839      47657446 
 3839      6C616753 
 3839      74617475 
 3840              	.LASF22:
 3841 0324 454E4142 		.ascii	"ENABLE\000"
 3841      4C4500
 3842              	.LASF14:
 3843 032b 75696E74 		.ascii	"uint16_t\000"
ARM GAS  C:\Users\jsyoon\AppData\Local\Temp\cch2rfk4.s 			page 71


 3843      31365F74 
 3843      00
 3844              	.LASF102:
 3845 0334 5350495F 		.ascii	"SPI_SSOutputCmd\000"
 3845      53534F75 
 3845      74707574 
 3845      436D6400 
 3846              	.LASF105:
 3847 0344 49325378 		.ascii	"I2Sxext\000"
 3847      65787400 
 3848              	.LASF24:
 3849 034c 504C4C43 		.ascii	"PLLCFGR\000"
 3849      46475200 
 3850              	.LASF119:
 3851 0354 6974706F 		.ascii	"itpos\000"
 3851      7300
 3852              	.LASF56:
 3853 035a 54584352 		.ascii	"TXCRCR\000"
 3853      435200
 3854              	.LASF62:
 3855 0361 5350495F 		.ascii	"SPI_Direction\000"
 3855      44697265 
 3855      6374696F 
 3855      6E00
 3856              	.LASF8:
 3857 036f 5F5F7569 		.ascii	"__uint32_t\000"
 3857      6E743332 
 3857      5F7400
 3858              	.LASF112:
 3859 037a 5350495F 		.ascii	"SPI_CRC\000"
 3859      43524300 
 3860              	.LASF123:
 3861 0382 62697473 		.ascii	"bitstatus\000"
 3861      74617475 
 3861      7300
 3862              	.LASF20:
 3863 038c 49545374 		.ascii	"ITStatus\000"
 3863      61747573 
 3863      00
 3864              	.LASF12:
 3865 0395 756E7369 		.ascii	"unsigned int\000"
 3865      676E6564 
 3865      20696E74 
 3865      00
 3866              	.LASF101:
 3867 03a2 5350495F 		.ascii	"SPI_NSSInternalSoft\000"
 3867      4E535349 
 3867      6E746572 
 3867      6E616C53 
 3867      6F667400 
 3868              	.LASF9:
 3869 03b6 6C6F6E67 		.ascii	"long unsigned int\000"
 3869      20756E73 
 3869      69676E65 
 3869      6420696E 
 3869      7400
 3870              	.LASF109:
ARM GAS  C:\Users\jsyoon\AppData\Local\Temp\cch2rfk4.s 			page 72


 3871 03c8 5350495F 		.ascii	"SPI_TransmitCRC\000"
 3871      5472616E 
 3871      736D6974 
 3871      43524300 
 3872              	.LASF53:
 3873 03d8 5243435F 		.ascii	"RCC_TypeDef\000"
 3873      54797065 
 3873      44656600 
 3874              	.LASF75:
 3875 03e4 4932535F 		.ascii	"I2S_MCLKOutput\000"
 3875      4D434C4B 
 3875      4F757470 
 3875      757400
 3876              	.LASF122:
 3877 03f3 5350495F 		.ascii	"SPI_I2S_FLAG\000"
 3877      4932535F 
 3877      464C4147 
 3877      00
 3878              	.LASF5:
 3879 0400 73686F72 		.ascii	"short unsigned int\000"
 3879      7420756E 
 3879      7369676E 
 3879      65642069 
 3879      6E7400
 3880              	.LASF50:
 3881 0413 504C4C49 		.ascii	"PLLI2SCFGR\000"
 3881      32534346 
 3881      475200
 3882              	.LASF118:
 3883 041e 5350495F 		.ascii	"SPI_I2S_IT\000"
 3883      4932535F 
 3883      495400
 3884              	.LASF28:
 3885 0429 41484233 		.ascii	"AHB3RSTR\000"
 3885      52535452 
 3885      00
 3886              	.LASF98:
 3887 0432 5350495F 		.ascii	"SPI_DataSizeConfig\000"
 3887      44617461 
 3887      53697A65 
 3887      436F6E66 
 3887      696700
 3888              	.LASF70:
 3889 0445 5350495F 		.ascii	"SPI_CRCPolynomial\000"
 3889      43524350 
 3889      6F6C796E 
 3889      6F6D6961 
 3889      6C00
 3890              	.LASF77:
 3891 0457 4932535F 		.ascii	"I2S_CPOL\000"
 3891      43504F4C 
 3891      00
 3892              	.LASF71:
 3893 0460 5350495F 		.ascii	"SPI_InitTypeDef\000"
 3893      496E6974 
 3893      54797065 
 3893      44656600 
ARM GAS  C:\Users\jsyoon\AppData\Local\Temp\cch2rfk4.s 			page 73


 3894              	.LASF45:
 3895 0470 41504232 		.ascii	"APB2LPENR\000"
 3895      4C50454E 
 3895      5200
 3896              	.LASF116:
 3897 047a 5350495F 		.ascii	"SPI_I2S_DMAReq\000"
 3897      4932535F 
 3897      444D4152 
 3897      657100
 3898              	.LASF129:
 3899 0489 43686962 		.ascii	"ChibiOS_2.6.6/ext/stdperiph_stm32f4/src/stm32f4xx_s"
 3899      694F535F 
 3899      322E362E 
 3899      362F6578 
 3899      742F7374 
 3900 04bc 70692E63 		.ascii	"pi.c\000"
 3900      00
 3901              	.LASF82:
 3902 04c1 5350495F 		.ascii	"SPI_InitStruct\000"
 3902      496E6974 
 3902      53747275 
 3902      637400
 3903              	.LASF18:
 3904 04d0 52455345 		.ascii	"RESET\000"
 3904      5400
 3905              	.LASF103:
 3906 04d6 5350495F 		.ascii	"SPI_TIModeCmd\000"
 3906      54494D6F 
 3906      6465436D 
 3906      6400
 3907              	.LASF74:
 3908 04e4 4932535F 		.ascii	"I2S_DataFormat\000"
 3908      44617461 
 3908      466F726D 
 3908      617400
 3909              	.LASF59:
 3910 04f3 49325350 		.ascii	"I2SPR\000"
 3910      5200
 3911              	.LASF17:
 3912 04f9 73697A65 		.ascii	"sizetype\000"
 3912      74797065 
 3912      00
 3913              	.LASF35:
 3914 0502 41484233 		.ascii	"AHB3ENR\000"
 3914      454E5200 
 3915              	.LASF95:
 3916 050a 5350495F 		.ascii	"SPI_Cmd\000"
 3916      436D6400 
 3917              	.LASF72:
 3918 0512 4932535F 		.ascii	"I2S_Mode\000"
 3918      4D6F6465 
 3918      00
 3919              	.LASF41:
 3920 051b 41484232 		.ascii	"AHB2LPENR\000"
 3920      4C50454E 
 3920      5200
 3921              	.LASF23:
ARM GAS  C:\Users\jsyoon\AppData\Local\Temp\cch2rfk4.s 			page 74


 3922 0525 46756E63 		.ascii	"FunctionalState\000"
 3922      74696F6E 
 3922      616C5374 
 3922      61746500 
 3923              	.LASF133:
 3924 0535 5243435F 		.ascii	"RCC_APB2PeriphResetCmd\000"
 3924      41504232 
 3924      50657269 
 3924      70685265 
 3924      73657443 
 3925              	.LASF120:
 3926 054c 69746D61 		.ascii	"itmask\000"
 3926      736B00
 3927              	.LASF127:
 3928 0553 5350495F 		.ascii	"SPI_I2S_ClearITPendingBit\000"
 3928      4932535F 
 3928      436C6561 
 3928      72495450 
 3928      656E6469 
 3929              	.LASF86:
 3930 056d 69327364 		.ascii	"i2sdiv\000"
 3930      697600
 3931              	.LASF51:
 3932 0574 504C4C53 		.ascii	"PLLSAICFGR\000"
 3932      41494346 
 3932      475200
 3933              	.LASF76:
 3934 057f 4932535F 		.ascii	"I2S_AudioFreq\000"
 3934      41756469 
 3934      6F467265 
 3934      7100
 3935              	.LASF29:
 3936 058d 52455345 		.ascii	"RESERVED0\000"
 3936      52564544 
 3936      3000
 3937              	.LASF32:
 3938 0597 52455345 		.ascii	"RESERVED1\000"
 3938      52564544 
 3938      3100
 3939              	.LASF36:
 3940 05a1 52455345 		.ascii	"RESERVED2\000"
 3940      52564544 
 3940      3200
 3941              	.LASF39:
 3942 05ab 52455345 		.ascii	"RESERVED3\000"
 3942      52564544 
 3942      3300
 3943              	.LASF43:
 3944 05b5 52455345 		.ascii	"RESERVED4\000"
 3944      52564544 
 3944      3400
 3945              	.LASF46:
 3946 05bf 52455345 		.ascii	"RESERVED5\000"
 3946      52564544 
 3946      3500
 3947              	.LASF48:
 3948 05c9 52455345 		.ascii	"RESERVED6\000"
ARM GAS  C:\Users\jsyoon\AppData\Local\Temp\cch2rfk4.s 			page 75


 3948      52564544 
 3948      3600
 3949              	.LASF58:
 3950 05d3 52455345 		.ascii	"RESERVED7\000"
 3950      52564544 
 3950      3700
 3951              	.LASF60:
 3952 05dd 52455345 		.ascii	"RESERVED8\000"
 3952      52564544 
 3952      3800
 3953              	.LASF65:
 3954 05e7 5350495F 		.ascii	"SPI_CPOL\000"
 3954      43504F4C 
 3954      00
 3955              	.LASF15:
 3956 05f0 696E7433 		.ascii	"int32_t\000"
 3956      325F7400 
 3957              	.LASF1:
 3958 05f8 756E7369 		.ascii	"unsigned char\000"
 3958      676E6564 
 3958      20636861 
 3958      7200
 3959              	.LASF97:
 3960 0606 4932535F 		.ascii	"I2S_Cmd\000"
 3960      436D6400 
 3961              	.LASF2:
 3962 060e 73686F72 		.ascii	"short int\000"
 3962      7420696E 
 3962      7400
 3963              	.LASF42:
 3964 0618 41484233 		.ascii	"AHB3LPENR\000"
 3964      4C50454E 
 3964      5200
 3965              	.LASF69:
 3966 0622 5350495F 		.ascii	"SPI_FirstBit\000"
 3966      46697273 
 3966      74426974 
 3966      00
 3967              	.LASF66:
 3968 062f 5350495F 		.ascii	"SPI_CPHA\000"
 3968      43504841 
 3968      00
 3969              	.LASF38:
 3970 0638 41504232 		.ascii	"APB2ENR\000"
 3970      454E5200 
 3971              	.LASF81:
 3972 0640 53504978 		.ascii	"SPIx\000"
 3972      00
 3973              	.LASF68:
 3974 0645 5350495F 		.ascii	"SPI_BaudRatePrescaler\000"
 3974      42617564 
 3974      52617465 
 3974      50726573 
 3974      63616C65 
 3975              	.LASF61:
 3976 065b 5350495F 		.ascii	"SPI_TypeDef\000"
 3976      54797065 
ARM GAS  C:\Users\jsyoon\AppData\Local\Temp\cch2rfk4.s 			page 76


 3976      44656600 
 3977              	.LASF16:
 3978 0667 75696E74 		.ascii	"uint32_t\000"
 3978      33325F74 
 3978      00
 3979              	.LASF63:
 3980 0670 5350495F 		.ascii	"SPI_Mode\000"
 3980      4D6F6465 
 3980      00
 3981              	.LASF124:
 3982 0679 5350495F 		.ascii	"SPI_I2S_ClearFlag\000"
 3982      4932535F 
 3982      436C6561 
 3982      72466C61 
 3982      6700
 3983              	.LASF67:
 3984 068b 5350495F 		.ascii	"SPI_NSS\000"
 3984      4E535300 
 3985              	.LASF4:
 3986 0693 5F5F7569 		.ascii	"__uint16_t\000"
 3986      6E743136 
 3986      5F7400
 3987              	.LASF27:
 3988 069e 41484232 		.ascii	"AHB2RSTR\000"
 3988      52535452 
 3988      00
 3989              	.LASF126:
 3990 06a7 656E6162 		.ascii	"enablestatus\000"
 3990      6C657374 
 3990      61747573 
 3990      00
 3991              	.LASF108:
 3992 06b4 5350495F 		.ascii	"SPI_CalculateCRC\000"
 3992      43616C63 
 3992      756C6174 
 3992      65435243 
 3992      00
 3993              	.LASF6:
 3994 06c5 5F5F696E 		.ascii	"__int32_t\000"
 3994      7433325F 
 3994      7400
 3995              	.LASF111:
 3996 06cf 5350495F 		.ascii	"SPI_GetCRC\000"
 3996      47657443 
 3996      524300
 3997              	.LASF37:
 3998 06da 41504231 		.ascii	"APB1ENR\000"
 3998      454E5200 
 3999              	.LASF47:
 4000 06e2 42444352 		.ascii	"BDCR\000"
 4000      00
 4001              	.LASF34:
 4002 06e7 41484232 		.ascii	"AHB2ENR\000"
 4002      454E5200 
 4003              	.LASF94:
 4004 06ef 4932535F 		.ascii	"I2S_StructInit\000"
 4004      53747275 
ARM GAS  C:\Users\jsyoon\AppData\Local\Temp\cch2rfk4.s 			page 77


 4004      6374496E 
 4004      697400
 4005              	.LASF83:
 4006 06fe 4932535F 		.ascii	"I2S_Init\000"
 4006      496E6974 
 4006      00
 4007              	.LASF104:
 4008 0707 4932535F 		.ascii	"I2S_FullDuplexConfig\000"
 4008      46756C6C 
 4008      4475706C 
 4008      6578436F 
 4008      6E666967 
 4009              	.LASF49:
 4010 071c 53534347 		.ascii	"SSCGR\000"
 4010      5200
 4011              	.LASF30:
 4012 0722 41504231 		.ascii	"APB1RSTR\000"
 4012      52535452 
 4012      00
 4013              	.LASF64:
 4014 072b 5350495F 		.ascii	"SPI_DataSize\000"
 4014      44617461 
 4014      53697A65 
 4014      00
 4015              	.LASF13:
 4016 0738 75696E74 		.ascii	"uint8_t\000"
 4016      385F7400 
 4017              	.LASF107:
 4018 0740 44617461 		.ascii	"Data\000"
 4018      00
 4019              	.LASF87:
 4020 0745 6932736F 		.ascii	"i2sodd\000"
 4020      646400
 4021              	.LASF33:
 4022 074c 41484231 		.ascii	"AHB1ENR\000"
 4022      454E5200 
 4023              	.LASF88:
 4024 0754 7061636B 		.ascii	"packetlength\000"
 4024      65746C65 
 4024      6E677468 
 4024      00
 4025              	.LASF25:
 4026 0761 43464752 		.ascii	"CFGR\000"
 4026      00
 4027              	.LASF106:
 4028 0766 5350495F 		.ascii	"SPI_I2S_SendData\000"
 4028      4932535F 
 4028      53656E64 
 4028      44617461 
 4028      00
 4029              	.LASF110:
 4030 0777 5350495F 		.ascii	"SPI_I2S_ReceiveData\000"
 4030      4932535F 
 4030      52656365 
 4030      69766544 
 4030      61746100 
 4031              	.LASF89:
ARM GAS  C:\Users\jsyoon\AppData\Local\Temp\cch2rfk4.s 			page 78


 4032 078b 69327363 		.ascii	"i2sclk\000"
 4032      6C6B00
 4033              		.ident	"GCC: (GNU Tools for ARM Embedded Processors) 4.8.4 20140526 (release) [ARM/embedded-4_8-br
ARM GAS  C:\Users\jsyoon\AppData\Local\Temp\cch2rfk4.s 			page 79


DEFINED SYMBOLS
                            *ABS*:00000000 stm32f4xx_spi.c
C:\Users\jsyoon\AppData\Local\Temp\cch2rfk4.s:21     .text.SPI_I2S_DeInit:00000000 $t
C:\Users\jsyoon\AppData\Local\Temp\cch2rfk4.s:27     .text.SPI_I2S_DeInit:00000000 SPI_I2S_DeInit
C:\Users\jsyoon\AppData\Local\Temp\cch2rfk4.s:100    .text.SPI_I2S_DeInit:00000060 $d
C:\Users\jsyoon\AppData\Local\Temp\cch2rfk4.s:107    .text.SPI_Init:00000000 $t
C:\Users\jsyoon\AppData\Local\Temp\cch2rfk4.s:113    .text.SPI_Init:00000000 SPI_Init
C:\Users\jsyoon\AppData\Local\Temp\cch2rfk4.s:180    .text.I2S_Init:00000000 $t
C:\Users\jsyoon\AppData\Local\Temp\cch2rfk4.s:186    .text.I2S_Init:00000000 I2S_Init
C:\Users\jsyoon\AppData\Local\Temp\cch2rfk4.s:357    .text.I2S_Init:000000d4 $d
C:\Users\jsyoon\AppData\Local\Temp\cch2rfk4.s:364    .text.SPI_StructInit:00000000 $t
C:\Users\jsyoon\AppData\Local\Temp\cch2rfk4.s:370    .text.SPI_StructInit:00000000 SPI_StructInit
C:\Users\jsyoon\AppData\Local\Temp\cch2rfk4.s:404    .text.I2S_StructInit:00000000 $t
C:\Users\jsyoon\AppData\Local\Temp\cch2rfk4.s:410    .text.I2S_StructInit:00000000 I2S_StructInit
C:\Users\jsyoon\AppData\Local\Temp\cch2rfk4.s:438    .text.SPI_Cmd:00000000 $t
C:\Users\jsyoon\AppData\Local\Temp\cch2rfk4.s:444    .text.SPI_Cmd:00000000 SPI_Cmd
C:\Users\jsyoon\AppData\Local\Temp\cch2rfk4.s:472    .text.I2S_Cmd:00000000 $t
C:\Users\jsyoon\AppData\Local\Temp\cch2rfk4.s:478    .text.I2S_Cmd:00000000 I2S_Cmd
C:\Users\jsyoon\AppData\Local\Temp\cch2rfk4.s:506    .text.SPI_DataSizeConfig:00000000 $t
C:\Users\jsyoon\AppData\Local\Temp\cch2rfk4.s:512    .text.SPI_DataSizeConfig:00000000 SPI_DataSizeConfig
C:\Users\jsyoon\AppData\Local\Temp\cch2rfk4.s:537    .text.SPI_BiDirectionalLineConfig:00000000 $t
C:\Users\jsyoon\AppData\Local\Temp\cch2rfk4.s:543    .text.SPI_BiDirectionalLineConfig:00000000 SPI_BiDirectionalLineConfig
C:\Users\jsyoon\AppData\Local\Temp\cch2rfk4.s:573    .text.SPI_NSSInternalSoftwareConfig:00000000 $t
C:\Users\jsyoon\AppData\Local\Temp\cch2rfk4.s:579    .text.SPI_NSSInternalSoftwareConfig:00000000 SPI_NSSInternalSoftwareConfig
C:\Users\jsyoon\AppData\Local\Temp\cch2rfk4.s:610    .text.SPI_SSOutputCmd:00000000 $t
C:\Users\jsyoon\AppData\Local\Temp\cch2rfk4.s:616    .text.SPI_SSOutputCmd:00000000 SPI_SSOutputCmd
C:\Users\jsyoon\AppData\Local\Temp\cch2rfk4.s:644    .text.SPI_TIModeCmd:00000000 $t
C:\Users\jsyoon\AppData\Local\Temp\cch2rfk4.s:650    .text.SPI_TIModeCmd:00000000 SPI_TIModeCmd
C:\Users\jsyoon\AppData\Local\Temp\cch2rfk4.s:678    .text.I2S_FullDuplexConfig:00000000 $t
C:\Users\jsyoon\AppData\Local\Temp\cch2rfk4.s:684    .text.I2S_FullDuplexConfig:00000000 I2S_FullDuplexConfig
C:\Users\jsyoon\AppData\Local\Temp\cch2rfk4.s:755    .text.SPI_I2S_ReceiveData:00000000 $t
C:\Users\jsyoon\AppData\Local\Temp\cch2rfk4.s:761    .text.SPI_I2S_ReceiveData:00000000 SPI_I2S_ReceiveData
C:\Users\jsyoon\AppData\Local\Temp\cch2rfk4.s:779    .text.SPI_I2S_SendData:00000000 $t
C:\Users\jsyoon\AppData\Local\Temp\cch2rfk4.s:785    .text.SPI_I2S_SendData:00000000 SPI_I2S_SendData
C:\Users\jsyoon\AppData\Local\Temp\cch2rfk4.s:800    .text.SPI_CalculateCRC:00000000 $t
C:\Users\jsyoon\AppData\Local\Temp\cch2rfk4.s:806    .text.SPI_CalculateCRC:00000000 SPI_CalculateCRC
C:\Users\jsyoon\AppData\Local\Temp\cch2rfk4.s:834    .text.SPI_TransmitCRC:00000000 $t
C:\Users\jsyoon\AppData\Local\Temp\cch2rfk4.s:840    .text.SPI_TransmitCRC:00000000 SPI_TransmitCRC
C:\Users\jsyoon\AppData\Local\Temp\cch2rfk4.s:858    .text.SPI_GetCRC:00000000 $t
C:\Users\jsyoon\AppData\Local\Temp\cch2rfk4.s:864    .text.SPI_GetCRC:00000000 SPI_GetCRC
C:\Users\jsyoon\AppData\Local\Temp\cch2rfk4.s:888    .text.SPI_GetCRCPolynomial:00000000 $t
C:\Users\jsyoon\AppData\Local\Temp\cch2rfk4.s:894    .text.SPI_GetCRCPolynomial:00000000 SPI_GetCRCPolynomial
C:\Users\jsyoon\AppData\Local\Temp\cch2rfk4.s:912    .text.SPI_I2S_DMACmd:00000000 $t
C:\Users\jsyoon\AppData\Local\Temp\cch2rfk4.s:918    .text.SPI_I2S_DMACmd:00000000 SPI_I2S_DMACmd
C:\Users\jsyoon\AppData\Local\Temp\cch2rfk4.s:947    .text.SPI_I2S_ITConfig:00000000 $t
C:\Users\jsyoon\AppData\Local\Temp\cch2rfk4.s:953    .text.SPI_I2S_ITConfig:00000000 SPI_I2S_ITConfig
C:\Users\jsyoon\AppData\Local\Temp\cch2rfk4.s:991    .text.SPI_I2S_GetFlagStatus:00000000 $t
C:\Users\jsyoon\AppData\Local\Temp\cch2rfk4.s:997    .text.SPI_I2S_GetFlagStatus:00000000 SPI_I2S_GetFlagStatus
C:\Users\jsyoon\AppData\Local\Temp\cch2rfk4.s:1019   .text.SPI_I2S_ClearFlag:00000000 $t
C:\Users\jsyoon\AppData\Local\Temp\cch2rfk4.s:1025   .text.SPI_I2S_ClearFlag:00000000 SPI_I2S_ClearFlag
C:\Users\jsyoon\AppData\Local\Temp\cch2rfk4.s:1043   .text.SPI_I2S_GetITStatus:00000000 $t
C:\Users\jsyoon\AppData\Local\Temp\cch2rfk4.s:1049   .text.SPI_I2S_GetITStatus:00000000 SPI_I2S_GetITStatus
C:\Users\jsyoon\AppData\Local\Temp\cch2rfk4.s:1098   .text.SPI_I2S_ClearITPendingBit:00000000 $t
C:\Users\jsyoon\AppData\Local\Temp\cch2rfk4.s:1104   .text.SPI_I2S_ClearITPendingBit:00000000 SPI_I2S_ClearITPendingBit
                     .debug_frame:00000010 $d
C:\Users\jsyoon\AppData\Local\Temp\cch2rfk4.s:106    .text.SPI_I2S_DeInit:0000006c $t

ARM GAS  C:\Users\jsyoon\AppData\Local\Temp\cch2rfk4.s 			page 80


UNDEFINED SYMBOLS
RCC_APB1PeriphResetCmd
RCC_APB2PeriphResetCmd
