ARM GAS  C:\Users\jsyoon\AppData\Local\Temp\cciBRxxg.s 			page 1


   1              		.syntax unified
   2              		.cpu cortex-m4
   3              		.eabi_attribute 27, 3
   4              		.eabi_attribute 28, 1
   5              		.fpu fpv4-sp-d16
   6              		.eabi_attribute 20, 1
   7              		.eabi_attribute 21, 1
   8              		.eabi_attribute 23, 3
   9              		.eabi_attribute 24, 1
  10              		.eabi_attribute 25, 1
  11              		.eabi_attribute 26, 1
  12              		.eabi_attribute 30, 2
  13              		.eabi_attribute 34, 1
  14              		.eabi_attribute 18, 4
  15              		.thumb
  16              		.file	"stm32f4xx_sdio.c"
  17              		.text
  18              	.Ltext0:
  19              		.cfi_sections	.debug_frame
  20              		.section	.text.SDIO_DeInit,"ax",%progbits
  21              		.align	2
  22              		.p2align 4,,15
  23              		.global	SDIO_DeInit
  24              		.thumb
  25              		.thumb_func
  26              		.type	SDIO_DeInit, %function
  27              	SDIO_DeInit:
  28              	.LFB111:
  29              		.file 1 "ChibiOS_2.6.6/ext/stdperiph_stm32f4/src/stm32f4xx_sdio.c"
  30              		.loc 1 266 0
  31              		.cfi_startproc
  32              		@ args = 0, pretend = 0, frame = 0
  33              		@ frame_needed = 0, uses_anonymous_args = 0
  34 0000 08B5     		push	{r3, lr}
  35              		.cfi_def_cfa_offset 8
  36              		.cfi_offset 3, -8
  37              		.cfi_offset 14, -4
  38              		.loc 1 267 0
  39 0002 4FF40060 		mov	r0, #2048
  40 0006 0121     		movs	r1, #1
  41 0008 FFF7FEFF 		bl	RCC_APB2PeriphResetCmd
  42              	.LVL0:
  43              		.loc 1 268 0
  44 000c 4FF40060 		mov	r0, #2048
  45 0010 0021     		movs	r1, #0
  46              		.loc 1 269 0
  47 0012 BDE80840 		pop	{r3, lr}
  48              		.loc 1 268 0
  49 0016 FFF7FEBF 		b	RCC_APB2PeriphResetCmd
  50              	.LVL1:
  51              		.cfi_endproc
  52              	.LFE111:
  53              		.size	SDIO_DeInit, .-SDIO_DeInit
  54 001a 00BFAFF3 		.section	.text.SDIO_Init,"ax",%progbits
  54      0080
  55              		.align	2
  56              		.p2align 4,,15
ARM GAS  C:\Users\jsyoon\AppData\Local\Temp\cciBRxxg.s 			page 2


  57              		.global	SDIO_Init
  58              		.thumb
  59              		.thumb_func
  60              		.type	SDIO_Init, %function
  61              	SDIO_Init:
  62              	.LFB112:
  63              		.loc 1 279 0
  64              		.cfi_startproc
  65              		@ args = 0, pretend = 0, frame = 0
  66              		@ frame_needed = 0, uses_anonymous_args = 0
  67              		@ link register save eliminated.
  68              	.LVL2:
  69 0000 F0B4     		push	{r4, r5, r6, r7}
  70              		.cfi_def_cfa_offset 16
  71              		.cfi_offset 4, -16
  72              		.cfi_offset 5, -12
  73              		.cfi_offset 6, -8
  74              		.cfi_offset 7, -4
  75              		.loc 1 291 0
  76 0002 0B4A     		ldr	r2, .L3
  77              		.loc 1 302 0
  78 0004 8768     		ldr	r7, [r0, #8]
  79 0006 D0F804C0 		ldr	ip, [r0, #4]
  80 000a C668     		ldr	r6, [r0, #12]
  81              		.loc 1 303 0
  82 000c 0568     		ldr	r5, [r0]
  83 000e 0469     		ldr	r4, [r0, #16]
  84              		.loc 1 302 0
  85 0010 017D     		ldrb	r1, [r0, #20]	@ zero_extendqisi2
  86              		.loc 1 291 0
  87 0012 5368     		ldr	r3, [r2, #4]
  88              	.LVL3:
  89              		.loc 1 302 0
  90 0014 4CEA0700 		orr	r0, ip, r7
  91              	.LVL4:
  92 0018 3043     		orrs	r0, r0, r6
  93              		.loc 1 303 0
  94 001a 2843     		orrs	r0, r0, r5
  95              		.loc 1 294 0
  96 001c 23F4FD43 		bic	r3, r3, #32384
  97              	.LVL5:
  98              		.loc 1 303 0
  99 0020 2043     		orrs	r0, r0, r4
 100              		.loc 1 294 0
 101 0022 23F07F03 		bic	r3, r3, #127
 102              		.loc 1 304 0
 103 0026 0343     		orrs	r3, r3, r0
 104              		.loc 1 302 0
 105 0028 0B43     		orrs	r3, r3, r1
 106              	.LVL6:
 107              		.loc 1 307 0
 108 002a 5360     		str	r3, [r2, #4]
 109              		.loc 1 308 0
 110 002c F0BC     		pop	{r4, r5, r6, r7}
 111 002e 7047     		bx	lr
 112              	.L4:
 113              		.align	2
ARM GAS  C:\Users\jsyoon\AppData\Local\Temp\cciBRxxg.s 			page 3


 114              	.L3:
 115 0030 002C0140 		.word	1073818624
 116              		.cfi_endproc
 117              	.LFE112:
 118              		.size	SDIO_Init, .-SDIO_Init
 119 0034 AFF30080 		.section	.text.SDIO_StructInit,"ax",%progbits
 119      AFF30080 
 119      AFF30080 
 120              		.align	2
 121              		.p2align 4,,15
 122              		.global	SDIO_StructInit
 123              		.thumb
 124              		.thumb_func
 125              		.type	SDIO_StructInit, %function
 126              	SDIO_StructInit:
 127              	.LFB113:
 128              		.loc 1 317 0
 129              		.cfi_startproc
 130              		@ args = 0, pretend = 0, frame = 0
 131              		@ frame_needed = 0, uses_anonymous_args = 0
 132              		@ link register save eliminated.
 133              	.LVL7:
 134              		.loc 1 319 0
 135 0000 0023     		movs	r3, #0
 136 0002 0375     		strb	r3, [r0, #20]
 137              		.loc 1 320 0
 138 0004 0360     		str	r3, [r0]
 139              		.loc 1 321 0
 140 0006 4360     		str	r3, [r0, #4]
 141              		.loc 1 322 0
 142 0008 8360     		str	r3, [r0, #8]
 143              		.loc 1 323 0
 144 000a C360     		str	r3, [r0, #12]
 145              		.loc 1 324 0
 146 000c 0361     		str	r3, [r0, #16]
 147 000e 7047     		bx	lr
 148              		.cfi_endproc
 149              	.LFE113:
 150              		.size	SDIO_StructInit, .-SDIO_StructInit
 151              		.section	.text.SDIO_ClockCmd,"ax",%progbits
 152              		.align	2
 153              		.p2align 4,,15
 154              		.global	SDIO_ClockCmd
 155              		.thumb
 156              		.thumb_func
 157              		.type	SDIO_ClockCmd, %function
 158              	SDIO_ClockCmd:
 159              	.LFB114:
 160              		.loc 1 334 0
 161              		.cfi_startproc
 162              		@ args = 0, pretend = 0, frame = 0
 163              		@ frame_needed = 0, uses_anonymous_args = 0
 164              		@ link register save eliminated.
 165              	.LVL8:
 166              		.loc 1 338 0
 167 0000 014B     		ldr	r3, .L7
 168 0002 1860     		str	r0, [r3]
ARM GAS  C:\Users\jsyoon\AppData\Local\Temp\cciBRxxg.s 			page 4


 169 0004 7047     		bx	lr
 170              	.L8:
 171 0006 00BF     		.align	2
 172              	.L7:
 173 0008 A0802542 		.word	1109754016
 174              		.cfi_endproc
 175              	.LFE114:
 176              		.size	SDIO_ClockCmd, .-SDIO_ClockCmd
 177 000c AFF30080 		.section	.text.SDIO_SetPowerState,"ax",%progbits
 178              		.align	2
 179              		.p2align 4,,15
 180              		.global	SDIO_SetPowerState
 181              		.thumb
 182              		.thumb_func
 183              		.type	SDIO_SetPowerState, %function
 184              	SDIO_SetPowerState:
 185              	.LFB115:
 186              		.loc 1 350 0
 187              		.cfi_startproc
 188              		@ args = 0, pretend = 0, frame = 0
 189              		@ frame_needed = 0, uses_anonymous_args = 0
 190              		@ link register save eliminated.
 191              	.LVL9:
 192              		.loc 1 354 0
 193 0000 014B     		ldr	r3, .L10
 194 0002 1860     		str	r0, [r3]
 195 0004 7047     		bx	lr
 196              	.L11:
 197 0006 00BF     		.align	2
 198              	.L10:
 199 0008 002C0140 		.word	1073818624
 200              		.cfi_endproc
 201              	.LFE115:
 202              		.size	SDIO_SetPowerState, .-SDIO_SetPowerState
 203 000c AFF30080 		.section	.text.SDIO_GetPowerState,"ax",%progbits
 204              		.align	2
 205              		.p2align 4,,15
 206              		.global	SDIO_GetPowerState
 207              		.thumb
 208              		.thumb_func
 209              		.type	SDIO_GetPowerState, %function
 210              	SDIO_GetPowerState:
 211              	.LFB116:
 212              		.loc 1 367 0
 213              		.cfi_startproc
 214              		@ args = 0, pretend = 0, frame = 0
 215              		@ frame_needed = 0, uses_anonymous_args = 0
 216              		@ link register save eliminated.
 217              		.loc 1 368 0
 218 0000 024B     		ldr	r3, .L13
 219 0002 1868     		ldr	r0, [r3]
 220              		.loc 1 369 0
 221 0004 00F00300 		and	r0, r0, #3
 222 0008 7047     		bx	lr
 223              	.L14:
 224 000a 00BF     		.align	2
 225              	.L13:
ARM GAS  C:\Users\jsyoon\AppData\Local\Temp\cciBRxxg.s 			page 5


 226 000c 002C0140 		.word	1073818624
 227              		.cfi_endproc
 228              	.LFE116:
 229              		.size	SDIO_GetPowerState, .-SDIO_GetPowerState
 230              		.section	.text.SDIO_SendCommand,"ax",%progbits
 231              		.align	2
 232              		.p2align 4,,15
 233              		.global	SDIO_SendCommand
 234              		.thumb
 235              		.thumb_func
 236              		.type	SDIO_SendCommand, %function
 237              	SDIO_SendCommand:
 238              	.LFB117:
 239              		.loc 1 399 0
 240              		.cfi_startproc
 241              		@ args = 0, pretend = 0, frame = 0
 242              		@ frame_needed = 0, uses_anonymous_args = 0
 243              		@ link register save eliminated.
 244              	.LVL10:
 245              		.loc 1 410 0
 246 0000 094B     		ldr	r3, .L16
 247 0002 0268     		ldr	r2, [r0]
 248              		.loc 1 399 0
 249 0004 30B4     		push	{r4, r5}
 250              		.cfi_def_cfa_offset 8
 251              		.cfi_offset 4, -8
 252              		.cfi_offset 5, -4
 253              		.loc 1 410 0
 254 0006 9A60     		str	r2, [r3, #8]
 255              		.loc 1 421 0
 256 0008 8568     		ldr	r5, [r0, #8]
 257 000a 4168     		ldr	r1, [r0, #4]
 258              		.loc 1 422 0
 259 000c C468     		ldr	r4, [r0, #12]
 260              		.loc 1 414 0
 261 000e DA68     		ldr	r2, [r3, #12]
 262              	.LVL11:
 263              		.loc 1 422 0
 264 0010 0069     		ldr	r0, [r0, #16]
 265              	.LVL12:
 266              		.loc 1 421 0
 267 0012 2943     		orrs	r1, r1, r5
 268              		.loc 1 422 0
 269 0014 2143     		orrs	r1, r1, r4
 270              		.loc 1 416 0
 271 0016 22F4FF62 		bic	r2, r2, #2040
 272              	.LVL13:
 273              		.loc 1 422 0
 274 001a 0143     		orrs	r1, r1, r0
 275              		.loc 1 416 0
 276 001c 22F00702 		bic	r2, r2, #7
 277              	.LVL14:
 278              		.loc 1 421 0
 279 0020 0A43     		orrs	r2, r2, r1
 280              	.LVL15:
 281              		.loc 1 425 0
 282 0022 DA60     		str	r2, [r3, #12]
ARM GAS  C:\Users\jsyoon\AppData\Local\Temp\cciBRxxg.s 			page 6


 283              		.loc 1 426 0
 284 0024 30BC     		pop	{r4, r5}
 285 0026 7047     		bx	lr
 286              	.L17:
 287              		.align	2
 288              	.L16:
 289 0028 002C0140 		.word	1073818624
 290              		.cfi_endproc
 291              	.LFE117:
 292              		.size	SDIO_SendCommand, .-SDIO_SendCommand
 293 002c AFF30080 		.section	.text.SDIO_CmdStructInit,"ax",%progbits
 294              		.align	2
 295              		.p2align 4,,15
 296              		.global	SDIO_CmdStructInit
 297              		.thumb
 298              		.thumb_func
 299              		.type	SDIO_CmdStructInit, %function
 300              	SDIO_CmdStructInit:
 301              	.LFB118:
 302              		.loc 1 435 0
 303              		.cfi_startproc
 304              		@ args = 0, pretend = 0, frame = 0
 305              		@ frame_needed = 0, uses_anonymous_args = 0
 306              		@ link register save eliminated.
 307              	.LVL16:
 308              		.loc 1 437 0
 309 0000 0023     		movs	r3, #0
 310 0002 0360     		str	r3, [r0]
 311              		.loc 1 438 0
 312 0004 4360     		str	r3, [r0, #4]
 313              		.loc 1 439 0
 314 0006 8360     		str	r3, [r0, #8]
 315              		.loc 1 440 0
 316 0008 C360     		str	r3, [r0, #12]
 317              		.loc 1 441 0
 318 000a 0361     		str	r3, [r0, #16]
 319 000c 7047     		bx	lr
 320              		.cfi_endproc
 321              	.LFE118:
 322              		.size	SDIO_CmdStructInit, .-SDIO_CmdStructInit
 323 000e 00BF     		.section	.text.SDIO_GetCommandResponse,"ax",%progbits
 324              		.align	2
 325              		.p2align 4,,15
 326              		.global	SDIO_GetCommandResponse
 327              		.thumb
 328              		.thumb_func
 329              		.type	SDIO_GetCommandResponse, %function
 330              	SDIO_GetCommandResponse:
 331              	.LFB119:
 332              		.loc 1 450 0
 333              		.cfi_startproc
 334              		@ args = 0, pretend = 0, frame = 0
 335              		@ frame_needed = 0, uses_anonymous_args = 0
 336              		@ link register save eliminated.
 337              		.loc 1 451 0
 338 0000 014B     		ldr	r3, .L20
 339 0002 1869     		ldr	r0, [r3, #16]
ARM GAS  C:\Users\jsyoon\AppData\Local\Temp\cciBRxxg.s 			page 7


 340              		.loc 1 452 0
 341 0004 C0B2     		uxtb	r0, r0
 342 0006 7047     		bx	lr
 343              	.L21:
 344              		.align	2
 345              	.L20:
 346 0008 002C0140 		.word	1073818624
 347              		.cfi_endproc
 348              	.LFE119:
 349              		.size	SDIO_GetCommandResponse, .-SDIO_GetCommandResponse
 350 000c AFF30080 		.section	.text.SDIO_GetResponse,"ax",%progbits
 351              		.align	2
 352              		.p2align 4,,15
 353              		.global	SDIO_GetResponse
 354              		.thumb
 355              		.thumb_func
 356              		.type	SDIO_GetResponse, %function
 357              	SDIO_GetResponse:
 358              	.LFB120:
 359              		.loc 1 465 0
 360              		.cfi_startproc
 361              		@ args = 0, pretend = 0, frame = 8
 362              		@ frame_needed = 0, uses_anonymous_args = 0
 363              		@ link register save eliminated.
 364              	.LVL17:
 365              		.loc 1 471 0
 366 0000 044B     		ldr	r3, .L23
 367              		.loc 1 465 0
 368 0002 82B0     		sub	sp, sp, #8
 369              		.cfi_def_cfa_offset 8
 370              		.loc 1 471 0
 371 0004 0344     		add	r3, r3, r0
 372              		.loc 1 466 0
 373 0006 0022     		movs	r2, #0
 374 0008 0192     		str	r2, [sp, #4]
 375              		.loc 1 471 0
 376 000a 0193     		str	r3, [sp, #4]
 377              		.loc 1 473 0
 378 000c 019B     		ldr	r3, [sp, #4]
 379 000e 1868     		ldr	r0, [r3]
 380              	.LVL18:
 381              		.loc 1 474 0
 382 0010 02B0     		add	sp, sp, #8
 383              		@ sp needed
 384 0012 7047     		bx	lr
 385              	.L24:
 386              		.align	2
 387              	.L23:
 388 0014 142C0140 		.word	1073818644
 389              		.cfi_endproc
 390              	.LFE120:
 391              		.size	SDIO_GetResponse, .-SDIO_GetResponse
 392 0018 AFF30080 		.section	.text.SDIO_DataConfig,"ax",%progbits
 392      AFF30080 
 393              		.align	2
 394              		.p2align 4,,15
 395              		.global	SDIO_DataConfig
ARM GAS  C:\Users\jsyoon\AppData\Local\Temp\cciBRxxg.s 			page 8


 396              		.thumb
 397              		.thumb_func
 398              		.type	SDIO_DataConfig, %function
 399              	SDIO_DataConfig:
 400              	.LFB121:
 401              		.loc 1 503 0
 402              		.cfi_startproc
 403              		@ args = 0, pretend = 0, frame = 0
 404              		@ frame_needed = 0, uses_anonymous_args = 0
 405              		@ link register save eliminated.
 406              	.LVL19:
 407              		.loc 1 515 0
 408 0000 094B     		ldr	r3, .L26
 409 0002 0268     		ldr	r2, [r0]
 410              		.loc 1 503 0
 411 0004 30B4     		push	{r4, r5}
 412              		.cfi_def_cfa_offset 8
 413              		.cfi_offset 4, -8
 414              		.cfi_offset 5, -4
 415              		.loc 1 515 0
 416 0006 5A62     		str	r2, [r3, #36]
 417              		.loc 1 519 0
 418 0008 4268     		ldr	r2, [r0, #4]
 419 000a 9A62     		str	r2, [r3, #40]
 420              		.loc 1 530 0
 421 000c C568     		ldr	r5, [r0, #12]
 422 000e 8268     		ldr	r2, [r0, #8]
 423              		.loc 1 531 0
 424 0010 0469     		ldr	r4, [r0, #16]
 425              		.loc 1 523 0
 426 0012 D96A     		ldr	r1, [r3, #44]
 427              	.LVL20:
 428              		.loc 1 531 0
 429 0014 4069     		ldr	r0, [r0, #20]
 430              	.LVL21:
 431              		.loc 1 530 0
 432 0016 2A43     		orrs	r2, r2, r5
 433              		.loc 1 531 0
 434 0018 2243     		orrs	r2, r2, r4
 435 001a 0243     		orrs	r2, r2, r0
 436              		.loc 1 525 0
 437 001c 21F0F701 		bic	r1, r1, #247
 438              	.LVL22:
 439              		.loc 1 530 0
 440 0020 0A43     		orrs	r2, r2, r1
 441              	.LVL23:
 442              		.loc 1 534 0
 443 0022 DA62     		str	r2, [r3, #44]
 444              		.loc 1 535 0
 445 0024 30BC     		pop	{r4, r5}
 446 0026 7047     		bx	lr
 447              	.L27:
 448              		.align	2
 449              	.L26:
 450 0028 002C0140 		.word	1073818624
 451              		.cfi_endproc
 452              	.LFE121:
ARM GAS  C:\Users\jsyoon\AppData\Local\Temp\cciBRxxg.s 			page 9


 453              		.size	SDIO_DataConfig, .-SDIO_DataConfig
 454 002c AFF30080 		.section	.text.SDIO_DataStructInit,"ax",%progbits
 455              		.align	2
 456              		.p2align 4,,15
 457              		.global	SDIO_DataStructInit
 458              		.thumb
 459              		.thumb_func
 460              		.type	SDIO_DataStructInit, %function
 461              	SDIO_DataStructInit:
 462              	.LFB122:
 463              		.loc 1 544 0
 464              		.cfi_startproc
 465              		@ args = 0, pretend = 0, frame = 0
 466              		@ frame_needed = 0, uses_anonymous_args = 0
 467              		@ link register save eliminated.
 468              	.LVL24:
 469              		.loc 1 547 0
 470 0000 0023     		movs	r3, #0
 471 0002 4FF0FF32 		mov	r2, #-1
 472 0006 80E80C00 		stmia	r0, {r2, r3}
 473              		.loc 1 548 0
 474 000a 8360     		str	r3, [r0, #8]
 475              		.loc 1 549 0
 476 000c C360     		str	r3, [r0, #12]
 477              		.loc 1 550 0
 478 000e 0361     		str	r3, [r0, #16]
 479              		.loc 1 551 0
 480 0010 4361     		str	r3, [r0, #20]
 481 0012 7047     		bx	lr
 482              		.cfi_endproc
 483              	.LFE122:
 484              		.size	SDIO_DataStructInit, .-SDIO_DataStructInit
 485 0014 AFF30080 		.section	.text.SDIO_GetDataCounter,"ax",%progbits
 485      AFF30080 
 485      AFF30080 
 486              		.align	2
 487              		.p2align 4,,15
 488              		.global	SDIO_GetDataCounter
 489              		.thumb
 490              		.thumb_func
 491              		.type	SDIO_GetDataCounter, %function
 492              	SDIO_GetDataCounter:
 493              	.LFB123:
 494              		.loc 1 560 0
 495              		.cfi_startproc
 496              		@ args = 0, pretend = 0, frame = 0
 497              		@ frame_needed = 0, uses_anonymous_args = 0
 498              		@ link register save eliminated.
 499              		.loc 1 561 0
 500 0000 014B     		ldr	r3, .L30
 501 0002 186B     		ldr	r0, [r3, #48]
 502              		.loc 1 562 0
 503 0004 7047     		bx	lr
 504              	.L31:
 505 0006 00BF     		.align	2
 506              	.L30:
 507 0008 002C0140 		.word	1073818624
ARM GAS  C:\Users\jsyoon\AppData\Local\Temp\cciBRxxg.s 			page 10


 508              		.cfi_endproc
 509              	.LFE123:
 510              		.size	SDIO_GetDataCounter, .-SDIO_GetDataCounter
 511 000c AFF30080 		.section	.text.SDIO_ReadData,"ax",%progbits
 512              		.align	2
 513              		.p2align 4,,15
 514              		.global	SDIO_ReadData
 515              		.thumb
 516              		.thumb_func
 517              		.type	SDIO_ReadData, %function
 518              	SDIO_ReadData:
 519              	.LFB124:
 520              		.loc 1 570 0
 521              		.cfi_startproc
 522              		@ args = 0, pretend = 0, frame = 0
 523              		@ frame_needed = 0, uses_anonymous_args = 0
 524              		@ link register save eliminated.
 525              		.loc 1 571 0
 526 0000 014B     		ldr	r3, .L33
 527 0002 D3F88000 		ldr	r0, [r3, #128]
 528              		.loc 1 572 0
 529 0006 7047     		bx	lr
 530              	.L34:
 531              		.align	2
 532              	.L33:
 533 0008 002C0140 		.word	1073818624
 534              		.cfi_endproc
 535              	.LFE124:
 536              		.size	SDIO_ReadData, .-SDIO_ReadData
 537 000c AFF30080 		.section	.text.SDIO_WriteData,"ax",%progbits
 538              		.align	2
 539              		.p2align 4,,15
 540              		.global	SDIO_WriteData
 541              		.thumb
 542              		.thumb_func
 543              		.type	SDIO_WriteData, %function
 544              	SDIO_WriteData:
 545              	.LFB125:
 546              		.loc 1 580 0
 547              		.cfi_startproc
 548              		@ args = 0, pretend = 0, frame = 0
 549              		@ frame_needed = 0, uses_anonymous_args = 0
 550              		@ link register save eliminated.
 551              	.LVL25:
 552              		.loc 1 581 0
 553 0000 014B     		ldr	r3, .L36
 554 0002 C3F88000 		str	r0, [r3, #128]
 555 0006 7047     		bx	lr
 556              	.L37:
 557              		.align	2
 558              	.L36:
 559 0008 002C0140 		.word	1073818624
 560              		.cfi_endproc
 561              	.LFE125:
 562              		.size	SDIO_WriteData, .-SDIO_WriteData
 563 000c AFF30080 		.section	.text.SDIO_GetFIFOCount,"ax",%progbits
 564              		.align	2
ARM GAS  C:\Users\jsyoon\AppData\Local\Temp\cciBRxxg.s 			page 11


 565              		.p2align 4,,15
 566              		.global	SDIO_GetFIFOCount
 567              		.thumb
 568              		.thumb_func
 569              		.type	SDIO_GetFIFOCount, %function
 570              	SDIO_GetFIFOCount:
 571              	.LFB126:
 572              		.loc 1 590 0
 573              		.cfi_startproc
 574              		@ args = 0, pretend = 0, frame = 0
 575              		@ frame_needed = 0, uses_anonymous_args = 0
 576              		@ link register save eliminated.
 577              		.loc 1 591 0
 578 0000 014B     		ldr	r3, .L39
 579 0002 986C     		ldr	r0, [r3, #72]
 580              		.loc 1 592 0
 581 0004 7047     		bx	lr
 582              	.L40:
 583 0006 00BF     		.align	2
 584              	.L39:
 585 0008 002C0140 		.word	1073818624
 586              		.cfi_endproc
 587              	.LFE126:
 588              		.size	SDIO_GetFIFOCount, .-SDIO_GetFIFOCount
 589 000c AFF30080 		.section	.text.SDIO_StartSDIOReadWait,"ax",%progbits
 590              		.align	2
 591              		.p2align 4,,15
 592              		.global	SDIO_StartSDIOReadWait
 593              		.thumb
 594              		.thumb_func
 595              		.type	SDIO_StartSDIOReadWait, %function
 596              	SDIO_StartSDIOReadWait:
 597              	.LFB127:
 598              		.loc 1 619 0
 599              		.cfi_startproc
 600              		@ args = 0, pretend = 0, frame = 0
 601              		@ frame_needed = 0, uses_anonymous_args = 0
 602              		@ link register save eliminated.
 603              	.LVL26:
 604              		.loc 1 623 0
 605 0000 014B     		ldr	r3, .L42
 606 0002 1860     		str	r0, [r3]
 607 0004 7047     		bx	lr
 608              	.L43:
 609 0006 00BF     		.align	2
 610              	.L42:
 611 0008 A0852542 		.word	1109755296
 612              		.cfi_endproc
 613              	.LFE127:
 614              		.size	SDIO_StartSDIOReadWait, .-SDIO_StartSDIOReadWait
 615 000c AFF30080 		.section	.text.SDIO_StopSDIOReadWait,"ax",%progbits
 616              		.align	2
 617              		.p2align 4,,15
 618              		.global	SDIO_StopSDIOReadWait
 619              		.thumb
 620              		.thumb_func
 621              		.type	SDIO_StopSDIOReadWait, %function
ARM GAS  C:\Users\jsyoon\AppData\Local\Temp\cciBRxxg.s 			page 12


 622              	SDIO_StopSDIOReadWait:
 623              	.LFB128:
 624              		.loc 1 633 0
 625              		.cfi_startproc
 626              		@ args = 0, pretend = 0, frame = 0
 627              		@ frame_needed = 0, uses_anonymous_args = 0
 628              		@ link register save eliminated.
 629              	.LVL27:
 630              		.loc 1 637 0
 631 0000 014B     		ldr	r3, .L45
 632 0002 1860     		str	r0, [r3]
 633 0004 7047     		bx	lr
 634              	.L46:
 635 0006 00BF     		.align	2
 636              	.L45:
 637 0008 A4852542 		.word	1109755300
 638              		.cfi_endproc
 639              	.LFE128:
 640              		.size	SDIO_StopSDIOReadWait, .-SDIO_StopSDIOReadWait
 641 000c AFF30080 		.section	.text.SDIO_SetSDIOReadWaitMode,"ax",%progbits
 642              		.align	2
 643              		.p2align 4,,15
 644              		.global	SDIO_SetSDIOReadWaitMode
 645              		.thumb
 646              		.thumb_func
 647              		.type	SDIO_SetSDIOReadWaitMode, %function
 648              	SDIO_SetSDIOReadWaitMode:
 649              	.LFB129:
 650              		.loc 1 649 0
 651              		.cfi_startproc
 652              		@ args = 0, pretend = 0, frame = 0
 653              		@ frame_needed = 0, uses_anonymous_args = 0
 654              		@ link register save eliminated.
 655              	.LVL28:
 656              		.loc 1 653 0
 657 0000 014B     		ldr	r3, .L48
 658 0002 1860     		str	r0, [r3]
 659 0004 7047     		bx	lr
 660              	.L49:
 661 0006 00BF     		.align	2
 662              	.L48:
 663 0008 A8852542 		.word	1109755304
 664              		.cfi_endproc
 665              	.LFE129:
 666              		.size	SDIO_SetSDIOReadWaitMode, .-SDIO_SetSDIOReadWaitMode
 667 000c AFF30080 		.section	.text.SDIO_SetSDIOOperation,"ax",%progbits
 668              		.align	2
 669              		.p2align 4,,15
 670              		.global	SDIO_SetSDIOOperation
 671              		.thumb
 672              		.thumb_func
 673              		.type	SDIO_SetSDIOOperation, %function
 674              	SDIO_SetSDIOOperation:
 675              	.LFB130:
 676              		.loc 1 663 0
 677              		.cfi_startproc
 678              		@ args = 0, pretend = 0, frame = 0
ARM GAS  C:\Users\jsyoon\AppData\Local\Temp\cciBRxxg.s 			page 13


 679              		@ frame_needed = 0, uses_anonymous_args = 0
 680              		@ link register save eliminated.
 681              	.LVL29:
 682              		.loc 1 667 0
 683 0000 014B     		ldr	r3, .L51
 684 0002 1860     		str	r0, [r3]
 685 0004 7047     		bx	lr
 686              	.L52:
 687 0006 00BF     		.align	2
 688              	.L51:
 689 0008 AC852542 		.word	1109755308
 690              		.cfi_endproc
 691              	.LFE130:
 692              		.size	SDIO_SetSDIOOperation, .-SDIO_SetSDIOOperation
 693 000c AFF30080 		.section	.text.SDIO_SendSDIOSuspendCmd,"ax",%progbits
 694              		.align	2
 695              		.p2align 4,,15
 696              		.global	SDIO_SendSDIOSuspendCmd
 697              		.thumb
 698              		.thumb_func
 699              		.type	SDIO_SendSDIOSuspendCmd, %function
 700              	SDIO_SendSDIOSuspendCmd:
 701              	.LFB131:
 702              		.loc 1 677 0
 703              		.cfi_startproc
 704              		@ args = 0, pretend = 0, frame = 0
 705              		@ frame_needed = 0, uses_anonymous_args = 0
 706              		@ link register save eliminated.
 707              	.LVL30:
 708              		.loc 1 681 0
 709 0000 014B     		ldr	r3, .L54
 710 0002 1860     		str	r0, [r3]
 711 0004 7047     		bx	lr
 712              	.L55:
 713 0006 00BF     		.align	2
 714              	.L54:
 715 0008 AC812542 		.word	1109754284
 716              		.cfi_endproc
 717              	.LFE131:
 718              		.size	SDIO_SendSDIOSuspendCmd, .-SDIO_SendSDIOSuspendCmd
 719 000c AFF30080 		.section	.text.SDIO_CommandCompletionCmd,"ax",%progbits
 720              		.align	2
 721              		.p2align 4,,15
 722              		.global	SDIO_CommandCompletionCmd
 723              		.thumb
 724              		.thumb_func
 725              		.type	SDIO_CommandCompletionCmd, %function
 726              	SDIO_CommandCompletionCmd:
 727              	.LFB132:
 728              		.loc 1 709 0
 729              		.cfi_startproc
 730              		@ args = 0, pretend = 0, frame = 0
 731              		@ frame_needed = 0, uses_anonymous_args = 0
 732              		@ link register save eliminated.
 733              	.LVL31:
 734              		.loc 1 713 0
 735 0000 014B     		ldr	r3, .L57
ARM GAS  C:\Users\jsyoon\AppData\Local\Temp\cciBRxxg.s 			page 14


 736 0002 1860     		str	r0, [r3]
 737 0004 7047     		bx	lr
 738              	.L58:
 739 0006 00BF     		.align	2
 740              	.L57:
 741 0008 B0812542 		.word	1109754288
 742              		.cfi_endproc
 743              	.LFE132:
 744              		.size	SDIO_CommandCompletionCmd, .-SDIO_CommandCompletionCmd
 745 000c AFF30080 		.section	.text.SDIO_CEATAITCmd,"ax",%progbits
 746              		.align	2
 747              		.p2align 4,,15
 748              		.global	SDIO_CEATAITCmd
 749              		.thumb
 750              		.thumb_func
 751              		.type	SDIO_CEATAITCmd, %function
 752              	SDIO_CEATAITCmd:
 753              	.LFB133:
 754              		.loc 1 723 0
 755              		.cfi_startproc
 756              		@ args = 0, pretend = 0, frame = 0
 757              		@ frame_needed = 0, uses_anonymous_args = 0
 758              		@ link register save eliminated.
 759              	.LVL32:
 760              		.loc 1 727 0
 761 0000 00F00100 		and	r0, r0, #1
 762              	.LVL33:
 763 0004 024B     		ldr	r3, .L60
 764 0006 80F00100 		eor	r0, r0, #1
 765 000a 1860     		str	r0, [r3]
 766 000c 7047     		bx	lr
 767              	.L61:
 768 000e 00BF     		.align	2
 769              	.L60:
 770 0010 B4812542 		.word	1109754292
 771              		.cfi_endproc
 772              	.LFE133:
 773              		.size	SDIO_CEATAITCmd, .-SDIO_CEATAITCmd
 774 0014 AFF30080 		.section	.text.SDIO_SendCEATACmd,"ax",%progbits
 774      AFF30080 
 774      AFF30080 
 775              		.align	2
 776              		.p2align 4,,15
 777              		.global	SDIO_SendCEATACmd
 778              		.thumb
 779              		.thumb_func
 780              		.type	SDIO_SendCEATACmd, %function
 781              	SDIO_SendCEATACmd:
 782              	.LFB134:
 783              		.loc 1 737 0
 784              		.cfi_startproc
 785              		@ args = 0, pretend = 0, frame = 0
 786              		@ frame_needed = 0, uses_anonymous_args = 0
 787              		@ link register save eliminated.
 788              	.LVL34:
 789              		.loc 1 741 0
 790 0000 014B     		ldr	r3, .L63
ARM GAS  C:\Users\jsyoon\AppData\Local\Temp\cciBRxxg.s 			page 15


 791 0002 1860     		str	r0, [r3]
 792 0004 7047     		bx	lr
 793              	.L64:
 794 0006 00BF     		.align	2
 795              	.L63:
 796 0008 B8812542 		.word	1109754296
 797              		.cfi_endproc
 798              	.LFE134:
 799              		.size	SDIO_SendCEATACmd, .-SDIO_SendCEATACmd
 800 000c AFF30080 		.section	.text.SDIO_DMACmd,"ax",%progbits
 801              		.align	2
 802              		.p2align 4,,15
 803              		.global	SDIO_DMACmd
 804              		.thumb
 805              		.thumb_func
 806              		.type	SDIO_DMACmd, %function
 807              	SDIO_DMACmd:
 808              	.LFB135:
 809              		.loc 1 769 0
 810              		.cfi_startproc
 811              		@ args = 0, pretend = 0, frame = 0
 812              		@ frame_needed = 0, uses_anonymous_args = 0
 813              		@ link register save eliminated.
 814              	.LVL35:
 815              		.loc 1 773 0
 816 0000 014B     		ldr	r3, .L66
 817 0002 1860     		str	r0, [r3]
 818 0004 7047     		bx	lr
 819              	.L67:
 820 0006 00BF     		.align	2
 821              	.L66:
 822 0008 8C852542 		.word	1109755276
 823              		.cfi_endproc
 824              	.LFE135:
 825              		.size	SDIO_DMACmd, .-SDIO_DMACmd
 826 000c AFF30080 		.section	.text.SDIO_ITConfig,"ax",%progbits
 827              		.align	2
 828              		.p2align 4,,15
 829              		.global	SDIO_ITConfig
 830              		.thumb
 831              		.thumb_func
 832              		.type	SDIO_ITConfig, %function
 833              	SDIO_ITConfig:
 834              	.LFB136:
 835              		.loc 1 827 0
 836              		.cfi_startproc
 837              		@ args = 0, pretend = 0, frame = 0
 838              		@ frame_needed = 0, uses_anonymous_args = 0
 839              		@ link register save eliminated.
 840              	.LVL36:
 841              		.loc 1 835 0
 842 0000 044B     		ldr	r3, .L73
 843 0002 DA6B     		ldr	r2, [r3, #60]
 844              		.loc 1 832 0
 845 0004 19B9     		cbnz	r1, .L72
 846              		.loc 1 840 0
 847 0006 22EA0000 		bic	r0, r2, r0
ARM GAS  C:\Users\jsyoon\AppData\Local\Temp\cciBRxxg.s 			page 16


 848              	.LVL37:
 849 000a D863     		str	r0, [r3, #60]
 850 000c 7047     		bx	lr
 851              	.LVL38:
 852              	.L72:
 853              		.loc 1 835 0
 854 000e 1043     		orrs	r0, r0, r2
 855              	.LVL39:
 856 0010 D863     		str	r0, [r3, #60]
 857 0012 7047     		bx	lr
 858              	.L74:
 859              		.align	2
 860              	.L73:
 861 0014 002C0140 		.word	1073818624
 862              		.cfi_endproc
 863              	.LFE136:
 864              		.size	SDIO_ITConfig, .-SDIO_ITConfig
 865 0018 AFF30080 		.section	.text.SDIO_GetFlagStatus,"ax",%progbits
 865      AFF30080 
 866              		.align	2
 867              		.p2align 4,,15
 868              		.global	SDIO_GetFlagStatus
 869              		.thumb
 870              		.thumb_func
 871              		.type	SDIO_GetFlagStatus, %function
 872              	SDIO_GetFlagStatus:
 873              	.LFB137:
 874              		.loc 1 875 0
 875              		.cfi_startproc
 876              		@ args = 0, pretend = 0, frame = 0
 877              		@ frame_needed = 0, uses_anonymous_args = 0
 878              		@ link register save eliminated.
 879              	.LVL40:
 880              		.loc 1 881 0
 881 0000 034B     		ldr	r3, .L76
 882 0002 5B6B     		ldr	r3, [r3, #52]
 883              	.LVL41:
 884 0004 1842     		tst	r0, r3
 885              		.loc 1 890 0
 886 0006 0CBF     		ite	eq
 887 0008 0020     		moveq	r0, #0
 888 000a 0120     		movne	r0, #1
 889              	.LVL42:
 890 000c 7047     		bx	lr
 891              	.L77:
 892 000e 00BF     		.align	2
 893              	.L76:
 894 0010 002C0140 		.word	1073818624
 895              		.cfi_endproc
 896              	.LFE137:
 897              		.size	SDIO_GetFlagStatus, .-SDIO_GetFlagStatus
 898 0014 AFF30080 		.section	.text.SDIO_ClearFlag,"ax",%progbits
 898      AFF30080 
 898      AFF30080 
 899              		.align	2
 900              		.p2align 4,,15
 901              		.global	SDIO_ClearFlag
ARM GAS  C:\Users\jsyoon\AppData\Local\Temp\cciBRxxg.s 			page 17


 902              		.thumb
 903              		.thumb_func
 904              		.type	SDIO_ClearFlag, %function
 905              	SDIO_ClearFlag:
 906              	.LFB138:
 907              		.loc 1 912 0
 908              		.cfi_startproc
 909              		@ args = 0, pretend = 0, frame = 0
 910              		@ frame_needed = 0, uses_anonymous_args = 0
 911              		@ link register save eliminated.
 912              	.LVL43:
 913              		.loc 1 916 0
 914 0000 014B     		ldr	r3, .L79
 915 0002 9863     		str	r0, [r3, #56]
 916 0004 7047     		bx	lr
 917              	.L80:
 918 0006 00BF     		.align	2
 919              	.L79:
 920 0008 002C0140 		.word	1073818624
 921              		.cfi_endproc
 922              	.LFE138:
 923              		.size	SDIO_ClearFlag, .-SDIO_ClearFlag
 924 000c AFF30080 		.section	.text.SDIO_GetITStatus,"ax",%progbits
 925              		.align	2
 926              		.p2align 4,,15
 927              		.global	SDIO_GetITStatus
 928              		.thumb
 929              		.thumb_func
 930              		.type	SDIO_GetITStatus, %function
 931              	SDIO_GetITStatus:
 932              	.LFB139:
 933              		.loc 1 951 0
 934              		.cfi_startproc
 935              		@ args = 0, pretend = 0, frame = 0
 936              		@ frame_needed = 0, uses_anonymous_args = 0
 937              		@ link register save eliminated.
 938              	.LVL44:
 939              		.loc 1 956 0
 940 0000 034B     		ldr	r3, .L82
 941 0002 5B6B     		ldr	r3, [r3, #52]
 942              	.LVL45:
 943 0004 1842     		tst	r0, r3
 944              		.loc 1 965 0
 945 0006 0CBF     		ite	eq
 946 0008 0020     		moveq	r0, #0
 947 000a 0120     		movne	r0, #1
 948              	.LVL46:
 949 000c 7047     		bx	lr
 950              	.L83:
 951 000e 00BF     		.align	2
 952              	.L82:
 953 0010 002C0140 		.word	1073818624
 954              		.cfi_endproc
 955              	.LFE139:
 956              		.size	SDIO_GetITStatus, .-SDIO_GetITStatus
 957 0014 AFF30080 		.section	.text.SDIO_ClearITPendingBit,"ax",%progbits
 957      AFF30080 
ARM GAS  C:\Users\jsyoon\AppData\Local\Temp\cciBRxxg.s 			page 18


 957      AFF30080 
 958              		.align	2
 959              		.p2align 4,,15
 960              		.global	SDIO_ClearITPendingBit
 961              		.thumb
 962              		.thumb_func
 963              		.type	SDIO_ClearITPendingBit, %function
 964              	SDIO_ClearITPendingBit:
 965              	.LFB140:
 966              		.loc 1 987 0
 967              		.cfi_startproc
 968              		@ args = 0, pretend = 0, frame = 0
 969              		@ frame_needed = 0, uses_anonymous_args = 0
 970              		@ link register save eliminated.
 971              	.LVL47:
 972              		.loc 1 991 0
 973 0000 014B     		ldr	r3, .L85
 974 0002 9863     		str	r0, [r3, #56]
 975 0004 7047     		bx	lr
 976              	.L86:
 977 0006 00BF     		.align	2
 978              	.L85:
 979 0008 002C0140 		.word	1073818624
 980              		.cfi_endproc
 981              	.LFE140:
 982              		.size	SDIO_ClearITPendingBit, .-SDIO_ClearITPendingBit
 983 000c AFF30080 		.text
 984              	.Letext0:
 985              		.file 2 "c:\\crosstools\\gcc-arm-embedded\\4.8_2014q2\\arm-none-eabi\\include\\machine\\_default_t
 986              		.file 3 "c:\\crosstools\\gcc-arm-embedded\\4.8_2014q2\\arm-none-eabi\\include\\stdint.h"
 987              		.file 4 "ChibiOS_2.6.6/os/hal/platforms/STM32F4xx/stm32f4xx.h"
 988              		.file 5 "ChibiOS_2.6.6/ext/stdperiph_stm32f4/inc/stm32f4xx_sdio.h"
 989              		.file 6 "ChibiOS_2.6.6/os/ports/common/ARMCMx/CMSIS/include/core_cm4.h"
 990              		.file 7 "ChibiOS_2.6.6/ext/stdperiph_stm32f4/inc/stm32f4xx_rcc.h"