ARM GAS  C:\Users\jsyoon\AppData\Local\Temp\ccoZvJxM.s 			page 1


   1              		.syntax unified
   2              		.cpu cortex-m4
   3              		.eabi_attribute 27, 3
   4              		.eabi_attribute 28, 1
   5              		.fpu fpv4-sp-d16
   6              		.eabi_attribute 20, 1
   7              		.eabi_attribute 21, 1
   8              		.eabi_attribute 23, 3
   9              		.eabi_attribute 24, 1
  10              		.eabi_attribute 25, 1
  11              		.eabi_attribute 26, 1
  12              		.eabi_attribute 30, 2
  13              		.eabi_attribute 34, 1
  14              		.eabi_attribute 18, 4
  15              		.thumb
  16              		.file	"stm32f4xx_exti.c"
  17              		.text
  18              	.Ltext0:
  19              		.cfi_sections	.debug_frame
  20              		.section	.text.EXTI_DeInit,"ax",%progbits
  21              		.align	2
  22              		.p2align 4,,15
  23              		.global	EXTI_DeInit
  24              		.thumb
  25              		.thumb_func
  26              		.type	EXTI_DeInit, %function
  27              	EXTI_DeInit:
  28              	.LFB111:
  29              		.file 1 "ChibiOS_2.6.6/ext/stdperiph_stm32f4/src/stm32f4xx_exti.c"
  30              		.loc 1 110 0
  31              		.cfi_startproc
  32              		@ args = 0, pretend = 0, frame = 0
  33              		@ frame_needed = 0, uses_anonymous_args = 0
  34              		@ link register save eliminated.
  35              		.loc 1 111 0
  36 0000 044B     		ldr	r3, .L2
  37              		.loc 1 115 0
  38 0002 0549     		ldr	r1, .L2+4
  39              		.loc 1 111 0
  40 0004 0022     		movs	r2, #0
  41 0006 1A60     		str	r2, [r3]
  42              		.loc 1 112 0
  43 0008 5A60     		str	r2, [r3, #4]
  44              		.loc 1 113 0
  45 000a 9A60     		str	r2, [r3, #8]
  46              		.loc 1 114 0
  47 000c DA60     		str	r2, [r3, #12]
  48              		.loc 1 115 0
  49 000e 5961     		str	r1, [r3, #20]
  50 0010 7047     		bx	lr
  51              	.L3:
  52 0012 00BF     		.align	2
  53              	.L2:
  54 0014 003C0140 		.word	1073822720
  55 0018 FFFF7F00 		.word	8388607
  56              		.cfi_endproc
  57              	.LFE111:
ARM GAS  C:\Users\jsyoon\AppData\Local\Temp\ccoZvJxM.s 			page 2


  58              		.size	EXTI_DeInit, .-EXTI_DeInit
  59 001c AFF30080 		.section	.text.EXTI_Init,"ax",%progbits
  60              		.align	2
  61              		.p2align 4,,15
  62              		.global	EXTI_Init
  63              		.thumb
  64              		.thumb_func
  65              		.type	EXTI_Init, %function
  66              	EXTI_Init:
  67              	.LFB112:
  68              		.loc 1 126 0
  69              		.cfi_startproc
  70              		@ args = 0, pretend = 0, frame = 0
  71              		@ frame_needed = 0, uses_anonymous_args = 0
  72              		@ link register save eliminated.
  73              	.LVL0:
  74              		.loc 1 137 0
  75 0000 8379     		ldrb	r3, [r0, #6]	@ zero_extendqisi2
  76              		.loc 1 126 0
  77 0002 70B4     		push	{r4, r5, r6}
  78              		.cfi_def_cfa_offset 12
  79              		.cfi_offset 4, -12
  80              		.cfi_offset 5, -8
  81              		.cfi_offset 6, -4
  82              		.loc 1 137 0
  83 0004 2BB3     		cbz	r3, .L5
  84              		.loc 1 140 0
  85 0006 1D4B     		ldr	r3, .L10
  86 0008 0168     		ldr	r1, [r0]
  87 000a 1E68     		ldr	r6, [r3]
  88              		.loc 1 143 0
  89 000c 0279     		ldrb	r2, [r0, #4]	@ zero_extendqisi2
  90              		.loc 1 152 0
  91 000e 4579     		ldrb	r5, [r0, #5]	@ zero_extendqisi2
  92              		.loc 1 140 0
  93 0010 CC43     		mvns	r4, r1
  94 0012 2640     		ands	r6, r6, r4
  95 0014 1E60     		str	r6, [r3]
  96              		.loc 1 141 0
  97 0016 5E68     		ldr	r6, [r3, #4]
  98              		.loc 1 143 0
  99 0018 02F18042 		add	r2, r2, #1073741824
 100 001c 02F59E32 		add	r2, r2, #80896
 101              		.loc 1 141 0
 102 0020 3440     		ands	r4, r4, r6
 103 0022 5C60     		str	r4, [r3, #4]
 104              	.LVL1:
 105              		.loc 1 145 0
 106 0024 1468     		ldr	r4, [r2]
 107 0026 2143     		orrs	r1, r1, r4
 108 0028 1160     		str	r1, [r2]
 109              	.LVL2:
 110              		.loc 1 148 0
 111 002a 0268     		ldr	r2, [r0]
 112 002c 9868     		ldr	r0, [r3, #8]
 113              	.LVL3:
 114 002e D143     		mvns	r1, r2
ARM GAS  C:\Users\jsyoon\AppData\Local\Temp\ccoZvJxM.s 			page 3


 115 0030 0840     		ands	r0, r0, r1
 116 0032 9860     		str	r0, [r3, #8]
 117              		.loc 1 149 0
 118 0034 D868     		ldr	r0, [r3, #12]
 119              		.loc 1 152 0
 120 0036 102D     		cmp	r5, #16
 121              		.loc 1 149 0
 122 0038 01EA0001 		and	r1, r1, r0
 123 003c D960     		str	r1, [r3, #12]
 124              		.loc 1 152 0
 125 003e 14D0     		beq	.L9
 126              	.LVL4:
 127              		.loc 1 161 0
 128 0040 05F18043 		add	r3, r5, #1073741824
 129 0044 03F59E33 		add	r3, r3, #80896
 130              		.loc 1 173 0
 131 0048 70BC     		pop	{r4, r5, r6}
 132              	.LVL5:
 133              		.loc 1 163 0
 134 004a 1968     		ldr	r1, [r3]
 135 004c 0A43     		orrs	r2, r2, r1
 136 004e 1A60     		str	r2, [r3]
 137              		.loc 1 173 0
 138 0050 7047     		bx	lr
 139              	.LVL6:
 140              	.L5:
 141              		.loc 1 168 0
 142 0052 0379     		ldrb	r3, [r0, #4]	@ zero_extendqisi2
 143              		.loc 1 171 0
 144 0054 0168     		ldr	r1, [r0]
 145              		.loc 1 168 0
 146 0056 03F18043 		add	r3, r3, #1073741824
 147 005a 03F59E33 		add	r3, r3, #80896
 148              		.loc 1 173 0
 149 005e 70BC     		pop	{r4, r5, r6}
 150              		.loc 1 171 0
 151 0060 1A68     		ldr	r2, [r3]
 152 0062 22EA0102 		bic	r2, r2, r1
 153 0066 1A60     		str	r2, [r3]
 154              	.LVL7:
 155              		.loc 1 173 0
 156 0068 7047     		bx	lr
 157              	.LVL8:
 158              	.L9:
 159              		.loc 1 155 0
 160 006a 9968     		ldr	r1, [r3, #8]
 161 006c 1143     		orrs	r1, r1, r2
 162 006e 9960     		str	r1, [r3, #8]
 163              		.loc 1 156 0
 164 0070 D968     		ldr	r1, [r3, #12]
 165 0072 0A43     		orrs	r2, r2, r1
 166 0074 DA60     		str	r2, [r3, #12]
 167              		.loc 1 173 0
 168 0076 70BC     		pop	{r4, r5, r6}
 169 0078 7047     		bx	lr
 170              	.L11:
 171 007a 00BF     		.align	2
ARM GAS  C:\Users\jsyoon\AppData\Local\Temp\ccoZvJxM.s 			page 4


 172              	.L10:
 173 007c 003C0140 		.word	1073822720
 174              		.cfi_endproc
 175              	.LFE112:
 176              		.size	EXTI_Init, .-EXTI_Init
 177              		.section	.text.EXTI_StructInit,"ax",%progbits
 178              		.align	2
 179              		.p2align 4,,15
 180              		.global	EXTI_StructInit
 181              		.thumb
 182              		.thumb_func
 183              		.type	EXTI_StructInit, %function
 184              	EXTI_StructInit:
 185              	.LFB113:
 186              		.loc 1 182 0
 187              		.cfi_startproc
 188              		@ args = 0, pretend = 0, frame = 0
 189              		@ frame_needed = 0, uses_anonymous_args = 0
 190              		@ link register save eliminated.
 191              	.LVL9:
 192              		.loc 1 183 0
 193 0000 0023     		movs	r3, #0
 194              		.loc 1 185 0
 195 0002 0C22     		movs	r2, #12
 196 0004 4271     		strb	r2, [r0, #5]
 197              		.loc 1 183 0
 198 0006 0360     		str	r3, [r0]
 199              		.loc 1 184 0
 200 0008 0371     		strb	r3, [r0, #4]
 201              		.loc 1 186 0
 202 000a 8371     		strb	r3, [r0, #6]
 203 000c 7047     		bx	lr
 204              		.cfi_endproc
 205              	.LFE113:
 206              		.size	EXTI_StructInit, .-EXTI_StructInit
 207 000e 00BF     		.section	.text.EXTI_GenerateSWInterrupt,"ax",%progbits
 208              		.align	2
 209              		.p2align 4,,15
 210              		.global	EXTI_GenerateSWInterrupt
 211              		.thumb
 212              		.thumb_func
 213              		.type	EXTI_GenerateSWInterrupt, %function
 214              	EXTI_GenerateSWInterrupt:
 215              	.LFB114:
 216              		.loc 1 197 0
 217              		.cfi_startproc
 218              		@ args = 0, pretend = 0, frame = 0
 219              		@ frame_needed = 0, uses_anonymous_args = 0
 220              		@ link register save eliminated.
 221              	.LVL10:
 222              		.loc 1 201 0
 223 0000 024B     		ldr	r3, .L14
 224 0002 1A69     		ldr	r2, [r3, #16]
 225 0004 1043     		orrs	r0, r0, r2
 226              	.LVL11:
 227 0006 1861     		str	r0, [r3, #16]
 228 0008 7047     		bx	lr
ARM GAS  C:\Users\jsyoon\AppData\Local\Temp\ccoZvJxM.s 			page 5


 229              	.L15:
 230 000a 00BF     		.align	2
 231              	.L14:
 232 000c 003C0140 		.word	1073822720
 233              		.cfi_endproc
 234              	.LFE114:
 235              		.size	EXTI_GenerateSWInterrupt, .-EXTI_GenerateSWInterrupt
 236              		.section	.text.EXTI_GetFlagStatus,"ax",%progbits
 237              		.align	2
 238              		.p2align 4,,15
 239              		.global	EXTI_GetFlagStatus
 240              		.thumb
 241              		.thumb_func
 242              		.type	EXTI_GetFlagStatus, %function
 243              	EXTI_GetFlagStatus:
 244              	.LFB115:
 245              		.loc 1 227 0
 246              		.cfi_startproc
 247              		@ args = 0, pretend = 0, frame = 0
 248              		@ frame_needed = 0, uses_anonymous_args = 0
 249              		@ link register save eliminated.
 250              	.LVL12:
 251              		.loc 1 232 0
 252 0000 034B     		ldr	r3, .L17
 253 0002 5B69     		ldr	r3, [r3, #20]
 254              	.LVL13:
 255 0004 1842     		tst	r0, r3
 256              		.loc 1 241 0
 257 0006 0CBF     		ite	eq
 258 0008 0020     		moveq	r0, #0
 259 000a 0120     		movne	r0, #1
 260              	.LVL14:
 261 000c 7047     		bx	lr
 262              	.L18:
 263 000e 00BF     		.align	2
 264              	.L17:
 265 0010 003C0140 		.word	1073822720
 266              		.cfi_endproc
 267              	.LFE115:
 268              		.size	EXTI_GetFlagStatus, .-EXTI_GetFlagStatus
 269 0014 AFF30080 		.section	.text.EXTI_ClearFlag,"ax",%progbits
 269      AFF30080 
 269      AFF30080 
 270              		.align	2
 271              		.p2align 4,,15
 272              		.global	EXTI_ClearFlag
 273              		.thumb
 274              		.thumb_func
 275              		.type	EXTI_ClearFlag, %function
 276              	EXTI_ClearFlag:
 277              	.LFB116:
 278              		.loc 1 250 0
 279              		.cfi_startproc
 280              		@ args = 0, pretend = 0, frame = 0
 281              		@ frame_needed = 0, uses_anonymous_args = 0
 282              		@ link register save eliminated.
 283              	.LVL15:
ARM GAS  C:\Users\jsyoon\AppData\Local\Temp\ccoZvJxM.s 			page 6


 284              		.loc 1 254 0
 285 0000 014B     		ldr	r3, .L20
 286 0002 5861     		str	r0, [r3, #20]
 287 0004 7047     		bx	lr
 288              	.L21:
 289 0006 00BF     		.align	2
 290              	.L20:
 291 0008 003C0140 		.word	1073822720
 292              		.cfi_endproc
 293              	.LFE116:
 294              		.size	EXTI_ClearFlag, .-EXTI_ClearFlag
 295 000c AFF30080 		.section	.text.EXTI_GetITStatus,"ax",%progbits
 296              		.align	2
 297              		.p2align 4,,15
 298              		.global	EXTI_GetITStatus
 299              		.thumb
 300              		.thumb_func
 301              		.type	EXTI_GetITStatus, %function
 302              	EXTI_GetITStatus:
 303              	.LFB117:
 304              		.loc 1 264 0
 305              		.cfi_startproc
 306              		@ args = 0, pretend = 0, frame = 0
 307              		@ frame_needed = 0, uses_anonymous_args = 0
 308              		@ link register save eliminated.
 309              	.LVL16:
 310              		.loc 1 270 0
 311 0000 054B     		ldr	r3, .L25
 312 0002 1A68     		ldr	r2, [r3]
 313              		.loc 1 271 0
 314 0004 5B69     		ldr	r3, [r3, #20]
 315              	.LVL17:
 316 0006 0340     		ands	r3, r0, r3
 317 0008 04D0     		beq	.L24
 318              		.loc 1 271 0 is_stmt 0 discriminator 1
 319 000a 1042     		tst	r0, r2
 320              		.loc 1 273 0 is_stmt 1 discriminator 1
 321 000c 0CBF     		ite	eq
 322 000e 0020     		moveq	r0, #0
 323 0010 0120     		movne	r0, #1
 324              	.LVL18:
 325 0012 7047     		bx	lr
 326              	.LVL19:
 327              	.L24:
 328              		.loc 1 277 0
 329 0014 1846     		mov	r0, r3
 330              	.LVL20:
 331              		.loc 1 280 0
 332 0016 7047     		bx	lr
 333              	.L26:
 334              		.align	2
 335              	.L25:
 336 0018 003C0140 		.word	1073822720
 337              		.cfi_endproc
 338              	.LFE117:
 339              		.size	EXTI_GetITStatus, .-EXTI_GetITStatus
 340 001c AFF30080 		.section	.text.EXTI_ClearITPendingBit,"ax",%progbits
ARM GAS  C:\Users\jsyoon\AppData\Local\Temp\ccoZvJxM.s 			page 7


 341              		.align	2
 342              		.p2align 4,,15
 343              		.global	EXTI_ClearITPendingBit
 344              		.thumb
 345              		.thumb_func
 346              		.type	EXTI_ClearITPendingBit, %function
 347              	EXTI_ClearITPendingBit:
 348              	.LFB118:
 349              		.loc 1 289 0
 350              		.cfi_startproc
 351              		@ args = 0, pretend = 0, frame = 0
 352              		@ frame_needed = 0, uses_anonymous_args = 0
 353              		@ link register save eliminated.
 354              	.LVL21:
 355              		.loc 1 293 0
 356 0000 014B     		ldr	r3, .L28
 357 0002 5861     		str	r0, [r3, #20]
 358 0004 7047     		bx	lr
 359              	.L29:
 360 0006 00BF     		.align	2
 361              	.L28:
 362 0008 003C0140 		.word	1073822720
 363              		.cfi_endproc
 364              	.LFE118:
 365              		.size	EXTI_ClearITPendingBit, .-EXTI_ClearITPendingBit
 366 000c AFF30080 		.text
 367              	.Letext0:
 368              		.file 2 "c:\\crosstools\\gcc-arm-embedded\\4.8_2014q2\\arm-none-eabi\\include\\machine\\_default_t
 369              		.file 3 "c:\\crosstools\\gcc-arm-embedded\\4.8_2014q2\\arm-none-eabi\\include\\stdint.h"
 370              		.file 4 "ChibiOS_2.6.6/os/hal/platforms/STM32F4xx/stm32f4xx.h"
 371              		.file 5 "ChibiOS_2.6.6/ext/stdperiph_stm32f4/inc/stm32f4xx_exti.h"
 372              		.file 6 "ChibiOS_2.6.6/os/ports/common/ARMCMx/CMSIS/include/core_cm4.h"