ARM GAS  C:\Users\jsyoon\AppData\Local\Temp\ccDGobdh.s 			page 1


   1              		.syntax unified
   2              		.cpu cortex-m4
   3              		.eabi_attribute 27, 3
   4              		.eabi_attribute 28, 1
   5              		.fpu fpv4-sp-d16
   6              		.eabi_attribute 20, 1
   7              		.eabi_attribute 21, 1
   8              		.eabi_attribute 23, 3
   9              		.eabi_attribute 24, 1
  10              		.eabi_attribute 25, 1
  11              		.eabi_attribute 26, 1
  12              		.eabi_attribute 30, 2
  13              		.eabi_attribute 34, 1
  14              		.eabi_attribute 18, 4
  15              		.thumb
  16              		.file	"stm32f4xx_tim.c"
  17              		.text
  18              	.Ltext0:
  19              		.cfi_sections	.debug_frame
  20              		.section	.text.TIM_DeInit,"ax",%progbits
  21              		.align	2
  22              		.p2align 4,,15
  23              		.global	TIM_DeInit
  24              		.thumb
  25              		.thumb_func
  26              		.type	TIM_DeInit, %function
  27              	TIM_DeInit:
  28              	.LFB111:
  29              		.file 1 "ChibiOS_2.6.6/ext/stdperiph_stm32f4/src/stm32f4xx_tim.c"
  30              		.loc 1 201 0
  31              		.cfi_startproc
  32              		@ args = 0, pretend = 0, frame = 0
  33              		@ frame_needed = 0, uses_anonymous_args = 0
  34              	.LVL0:
  35 0000 08B5     		push	{r3, lr}
  36              		.cfi_def_cfa_offset 8
  37              		.cfi_offset 3, -8
  38              		.cfi_offset 14, -4
  39              		.loc 1 205 0
  40 0002 604B     		ldr	r3, .L31
  41 0004 9842     		cmp	r0, r3
  42 0006 35D0     		beq	.L17
  43              		.loc 1 210 0
  44 0008 B0F1804F 		cmp	r0, #1073741824
  45 000c 3CD0     		beq	.L18
  46              		.loc 1 215 0
  47 000e 5E4B     		ldr	r3, .L31+4
  48 0010 9842     		cmp	r0, r3
  49 0012 43D0     		beq	.L19
  50              		.loc 1 220 0
  51 0014 5D4B     		ldr	r3, .L31+8
  52 0016 9842     		cmp	r0, r3
  53 0018 4AD0     		beq	.L20
  54              		.loc 1 225 0
  55 001a 5D4B     		ldr	r3, .L31+12
  56 001c 9842     		cmp	r0, r3
  57 001e 51D0     		beq	.L21
ARM GAS  C:\Users\jsyoon\AppData\Local\Temp\ccDGobdh.s 			page 2


  58              		.loc 1 230 0
  59 0020 5C4B     		ldr	r3, .L31+16
  60 0022 9842     		cmp	r0, r3
  61 0024 58D0     		beq	.L22
  62              		.loc 1 235 0
  63 0026 5C4B     		ldr	r3, .L31+20
  64 0028 9842     		cmp	r0, r3
  65 002a 5FD0     		beq	.L23
  66              		.loc 1 240 0
  67 002c 5B4B     		ldr	r3, .L31+24
  68 002e 9842     		cmp	r0, r3
  69 0030 66D0     		beq	.L24
  70              		.loc 1 245 0
  71 0032 5B4B     		ldr	r3, .L31+28
  72 0034 9842     		cmp	r0, r3
  73 0036 6DD0     		beq	.L25
  74              		.loc 1 250 0
  75 0038 5A4B     		ldr	r3, .L31+32
  76 003a 9842     		cmp	r0, r3
  77 003c 76D0     		beq	.L26
  78              		.loc 1 255 0
  79 003e 5A4B     		ldr	r3, .L31+36
  80 0040 9842     		cmp	r0, r3
  81 0042 7FD0     		beq	.L27
  82              		.loc 1 260 0
  83 0044 594B     		ldr	r3, .L31+40
  84 0046 9842     		cmp	r0, r3
  85 0048 00F08880 		beq	.L28
  86              		.loc 1 265 0
  87 004c 584B     		ldr	r3, .L31+44
  88 004e 9842     		cmp	r0, r3
  89 0050 00F08E80 		beq	.L29
  90              		.loc 1 272 0
  91 0054 574B     		ldr	r3, .L31+48
  92 0056 9842     		cmp	r0, r3
  93 0058 00D0     		beq	.L30
  94 005a 08BD     		pop	{r3, pc}
  95              	.L30:
  96              		.loc 1 274 0
  97 005c 4FF48070 		mov	r0, #256
  98              	.LVL1:
  99 0060 0121     		movs	r1, #1
 100 0062 FFF7FEFF 		bl	RCC_APB1PeriphResetCmd
 101              	.LVL2:
 102              		.loc 1 275 0
 103 0066 4FF48070 		mov	r0, #256
 104 006a 0021     		movs	r1, #0
 105              		.loc 1 278 0
 106 006c BDE80840 		pop	{r3, lr}
 107              		.loc 1 275 0
 108 0070 FFF7FEBF 		b	RCC_APB1PeriphResetCmd
 109              	.LVL3:
 110              	.L17:
 111              		.loc 1 207 0
 112 0074 0120     		movs	r0, #1
 113              	.LVL4:
 114 0076 0146     		mov	r1, r0
ARM GAS  C:\Users\jsyoon\AppData\Local\Temp\ccDGobdh.s 			page 3


 115 0078 FFF7FEFF 		bl	RCC_APB2PeriphResetCmd
 116              	.LVL5:
 117              		.loc 1 208 0
 118 007c 0120     		movs	r0, #1
 119 007e 0021     		movs	r1, #0
 120              		.loc 1 278 0
 121 0080 BDE80840 		pop	{r3, lr}
 122              		.loc 1 208 0
 123 0084 FFF7FEBF 		b	RCC_APB2PeriphResetCmd
 124              	.LVL6:
 125              	.L18:
 126              		.loc 1 212 0
 127 0088 0120     		movs	r0, #1
 128              	.LVL7:
 129 008a 0146     		mov	r1, r0
 130 008c FFF7FEFF 		bl	RCC_APB1PeriphResetCmd
 131              	.LVL8:
 132              		.loc 1 213 0
 133 0090 0120     		movs	r0, #1
 134 0092 0021     		movs	r1, #0
 135              		.loc 1 278 0
 136 0094 BDE80840 		pop	{r3, lr}
 137              		.loc 1 213 0
 138 0098 FFF7FEBF 		b	RCC_APB1PeriphResetCmd
 139              	.LVL9:
 140              	.L19:
 141              		.loc 1 217 0
 142 009c 0220     		movs	r0, #2
 143              	.LVL10:
 144 009e 0121     		movs	r1, #1
 145 00a0 FFF7FEFF 		bl	RCC_APB1PeriphResetCmd
 146              	.LVL11:
 147              		.loc 1 218 0
 148 00a4 0220     		movs	r0, #2
 149 00a6 0021     		movs	r1, #0
 150              		.loc 1 278 0
 151 00a8 BDE80840 		pop	{r3, lr}
 152              		.loc 1 218 0
 153 00ac FFF7FEBF 		b	RCC_APB1PeriphResetCmd
 154              	.LVL12:
 155              	.L20:
 156              		.loc 1 222 0
 157 00b0 0420     		movs	r0, #4
 158              	.LVL13:
 159 00b2 0121     		movs	r1, #1
 160 00b4 FFF7FEFF 		bl	RCC_APB1PeriphResetCmd
 161              	.LVL14:
 162              		.loc 1 223 0
 163 00b8 0420     		movs	r0, #4
 164 00ba 0021     		movs	r1, #0
 165              		.loc 1 278 0
 166 00bc BDE80840 		pop	{r3, lr}
 167              		.loc 1 223 0
 168 00c0 FFF7FEBF 		b	RCC_APB1PeriphResetCmd
 169              	.LVL15:
 170              	.L21:
 171              		.loc 1 227 0
ARM GAS  C:\Users\jsyoon\AppData\Local\Temp\ccDGobdh.s 			page 4


 172 00c4 0820     		movs	r0, #8
 173              	.LVL16:
 174 00c6 0121     		movs	r1, #1
 175 00c8 FFF7FEFF 		bl	RCC_APB1PeriphResetCmd
 176              	.LVL17:
 177              		.loc 1 228 0
 178 00cc 0820     		movs	r0, #8
 179 00ce 0021     		movs	r1, #0
 180              		.loc 1 278 0
 181 00d0 BDE80840 		pop	{r3, lr}
 182              		.loc 1 228 0
 183 00d4 FFF7FEBF 		b	RCC_APB1PeriphResetCmd
 184              	.LVL18:
 185              	.L22:
 186              		.loc 1 232 0
 187 00d8 1020     		movs	r0, #16
 188              	.LVL19:
 189 00da 0121     		movs	r1, #1
 190 00dc FFF7FEFF 		bl	RCC_APB1PeriphResetCmd
 191              	.LVL20:
 192              		.loc 1 233 0
 193 00e0 1020     		movs	r0, #16
 194 00e2 0021     		movs	r1, #0
 195              		.loc 1 278 0
 196 00e4 BDE80840 		pop	{r3, lr}
 197              		.loc 1 233 0
 198 00e8 FFF7FEBF 		b	RCC_APB1PeriphResetCmd
 199              	.LVL21:
 200              	.L23:
 201              		.loc 1 237 0
 202 00ec 2020     		movs	r0, #32
 203              	.LVL22:
 204 00ee 0121     		movs	r1, #1
 205 00f0 FFF7FEFF 		bl	RCC_APB1PeriphResetCmd
 206              	.LVL23:
 207              		.loc 1 238 0
 208 00f4 2020     		movs	r0, #32
 209 00f6 0021     		movs	r1, #0
 210              		.loc 1 278 0
 211 00f8 BDE80840 		pop	{r3, lr}
 212              		.loc 1 238 0
 213 00fc FFF7FEBF 		b	RCC_APB1PeriphResetCmd
 214              	.LVL24:
 215              	.L24:
 216              		.loc 1 242 0
 217 0100 0220     		movs	r0, #2
 218              	.LVL25:
 219 0102 0121     		movs	r1, #1
 220 0104 FFF7FEFF 		bl	RCC_APB2PeriphResetCmd
 221              	.LVL26:
 222              		.loc 1 243 0
 223 0108 0220     		movs	r0, #2
 224 010a 0021     		movs	r1, #0
 225              		.loc 1 278 0
 226 010c BDE80840 		pop	{r3, lr}
 227              		.loc 1 243 0
 228 0110 FFF7FEBF 		b	RCC_APB2PeriphResetCmd
ARM GAS  C:\Users\jsyoon\AppData\Local\Temp\ccDGobdh.s 			page 5


 229              	.LVL27:
 230              	.L25:
 231              		.loc 1 247 0
 232 0114 4FF48030 		mov	r0, #65536
 233              	.LVL28:
 234 0118 0121     		movs	r1, #1
 235 011a FFF7FEFF 		bl	RCC_APB2PeriphResetCmd
 236              	.LVL29:
 237              		.loc 1 248 0
 238 011e 4FF48030 		mov	r0, #65536
 239 0122 0021     		movs	r1, #0
 240              		.loc 1 278 0
 241 0124 BDE80840 		pop	{r3, lr}
 242              		.loc 1 248 0
 243 0128 FFF7FEBF 		b	RCC_APB2PeriphResetCmd
 244              	.LVL30:
 245              	.L26:
 246              		.loc 1 252 0
 247 012c 4FF40030 		mov	r0, #131072
 248              	.LVL31:
 249 0130 0121     		movs	r1, #1
 250 0132 FFF7FEFF 		bl	RCC_APB2PeriphResetCmd
 251              	.LVL32:
 252              		.loc 1 253 0
 253 0136 4FF40030 		mov	r0, #131072
 254 013a 0021     		movs	r1, #0
 255              		.loc 1 278 0
 256 013c BDE80840 		pop	{r3, lr}
 257              		.loc 1 253 0
 258 0140 FFF7FEBF 		b	RCC_APB2PeriphResetCmd
 259              	.LVL33:
 260              	.L27:
 261              		.loc 1 257 0
 262 0144 4FF48020 		mov	r0, #262144
 263              	.LVL34:
 264 0148 0121     		movs	r1, #1
 265 014a FFF7FEFF 		bl	RCC_APB2PeriphResetCmd
 266              	.LVL35:
 267              		.loc 1 258 0
 268 014e 4FF48020 		mov	r0, #262144
 269 0152 0021     		movs	r1, #0
 270              		.loc 1 278 0
 271 0154 BDE80840 		pop	{r3, lr}
 272              		.loc 1 258 0
 273 0158 FFF7FEBF 		b	RCC_APB2PeriphResetCmd
 274              	.LVL36:
 275              	.L28:
 276              		.loc 1 262 0
 277 015c 4020     		movs	r0, #64
 278              	.LVL37:
 279 015e 0121     		movs	r1, #1
 280 0160 FFF7FEFF 		bl	RCC_APB1PeriphResetCmd
 281              	.LVL38:
 282              		.loc 1 263 0
 283 0164 4020     		movs	r0, #64
 284 0166 0021     		movs	r1, #0
 285              		.loc 1 278 0
ARM GAS  C:\Users\jsyoon\AppData\Local\Temp\ccDGobdh.s 			page 6


 286 0168 BDE80840 		pop	{r3, lr}
 287              		.loc 1 263 0
 288 016c FFF7FEBF 		b	RCC_APB1PeriphResetCmd
 289              	.LVL39:
 290              	.L29:
 291              		.loc 1 267 0
 292 0170 8020     		movs	r0, #128
 293              	.LVL40:
 294 0172 0121     		movs	r1, #1
 295 0174 FFF7FEFF 		bl	RCC_APB1PeriphResetCmd
 296              	.LVL41:
 297              		.loc 1 268 0
 298 0178 8020     		movs	r0, #128
 299 017a 0021     		movs	r1, #0
 300              		.loc 1 278 0
 301 017c BDE80840 		pop	{r3, lr}
 302              		.loc 1 268 0
 303 0180 FFF7FEBF 		b	RCC_APB1PeriphResetCmd
 304              	.LVL42:
 305              	.L32:
 306              		.align	2
 307              	.L31:
 308 0184 00000140 		.word	1073807360
 309 0188 00040040 		.word	1073742848
 310 018c 00080040 		.word	1073743872
 311 0190 000C0040 		.word	1073744896
 312 0194 00100040 		.word	1073745920
 313 0198 00140040 		.word	1073746944
 314 019c 00040140 		.word	1073808384
 315 01a0 00400140 		.word	1073823744
 316 01a4 00440140 		.word	1073824768
 317 01a8 00480140 		.word	1073825792
 318 01ac 00180040 		.word	1073747968
 319 01b0 001C0040 		.word	1073748992
 320 01b4 00200040 		.word	1073750016
 321              		.cfi_endproc
 322              	.LFE111:
 323              		.size	TIM_DeInit, .-TIM_DeInit
 324 01b8 AFF30080 		.section	.text.TIM_TimeBaseInit,"ax",%progbits
 324      AFF30080 
 325              		.align	2
 326              		.p2align 4,,15
 327              		.global	TIM_TimeBaseInit
 328              		.thumb
 329              		.thumb_func
 330              		.type	TIM_TimeBaseInit, %function
 331              	TIM_TimeBaseInit:
 332              	.LFB112:
 333              		.loc 1 289 0
 334              		.cfi_startproc
 335              		@ args = 0, pretend = 0, frame = 0
 336              		@ frame_needed = 0, uses_anonymous_args = 0
 337              		@ link register save eliminated.
 338              	.LVL43:
 339              		.loc 1 299 0
 340 0000 234A     		ldr	r2, .L45
 341              		.loc 1 297 0
ARM GAS  C:\Users\jsyoon\AppData\Local\Temp\ccDGobdh.s 			page 7


 342 0002 0388     		ldrh	r3, [r0]
 343              		.loc 1 299 0
 344 0004 9042     		cmp	r0, r2
 345              		.loc 1 289 0
 346 0006 70B4     		push	{r4, r5, r6}
 347              		.cfi_def_cfa_offset 12
 348              		.cfi_offset 4, -12
 349              		.cfi_offset 5, -8
 350              		.cfi_offset 6, -4
 351              		.loc 1 297 0
 352 0008 9BB2     		uxth	r3, r3
 353              	.LVL44:
 354              		.loc 1 299 0
 355 000a 12D0     		beq	.L34
 356              		.loc 1 299 0 is_stmt 0 discriminator 1
 357 000c 02F58062 		add	r2, r2, #1024
 358 0010 9042     		cmp	r0, r2
 359 0012 0ED0     		beq	.L34
 360 0014 B0F1804F 		cmp	r0, #1073741824
 361 0018 0BD0     		beq	.L34
 362              		.loc 1 300 0 is_stmt 1
 363 001a A2F58032 		sub	r2, r2, #65536
 364 001e 9042     		cmp	r0, r2
 365 0020 07D0     		beq	.L34
 366              		.loc 1 300 0 is_stmt 0 discriminator 1
 367 0022 02F58062 		add	r2, r2, #1024
 368 0026 9042     		cmp	r0, r2
 369 0028 03D0     		beq	.L34
 370              		.loc 1 301 0 is_stmt 1
 371 002a 02F58062 		add	r2, r2, #1024
 372 002e 9042     		cmp	r0, r2
 373 0030 03D1     		bne	.L35
 374              	.L34:
 375              		.loc 1 305 0
 376 0032 4A88     		ldrh	r2, [r1, #2]
 377              		.loc 1 304 0
 378 0034 23F07003 		bic	r3, r3, #112
 379              	.LVL45:
 380              		.loc 1 305 0
 381 0038 1343     		orrs	r3, r3, r2
 382              	.LVL46:
 383              	.L35:
 384              		.loc 1 308 0
 385 003a 164A     		ldr	r2, .L45+4
 386 003c 9042     		cmp	r0, r2
 387 003e 1ED0     		beq	.L37
 388              		.loc 1 308 0 is_stmt 0 discriminator 1
 389 0040 02F58062 		add	r2, r2, #1024
 390 0044 9042     		cmp	r0, r2
 391 0046 1AD0     		beq	.L37
 392              		.loc 1 312 0 is_stmt 1
 393 0048 0E89     		ldrh	r6, [r1, #8]
 394              		.loc 1 318 0
 395 004a 4D68     		ldr	r5, [r1, #4]
 396              		.loc 1 321 0
 397 004c 0C88     		ldrh	r4, [r1]
 398              		.loc 1 311 0
ARM GAS  C:\Users\jsyoon\AppData\Local\Temp\ccDGobdh.s 			page 8


 399 004e 23F44073 		bic	r3, r3, #768
 400              	.LVL47:
 401              		.loc 1 323 0
 402 0052 02F56C42 		add	r2, r2, #60416
 403              		.loc 1 311 0
 404 0056 9BB2     		uxth	r3, r3
 405              	.LVL48:
 406              		.loc 1 312 0
 407 0058 3343     		orrs	r3, r3, r6
 408              	.LVL49:
 409              		.loc 1 323 0
 410 005a 9042     		cmp	r0, r2
 411              		.loc 1 315 0
 412 005c 0380     		strh	r3, [r0]	@ movhi
 413              		.loc 1 318 0
 414 005e C562     		str	r5, [r0, #44]
 415              		.loc 1 321 0
 416 0060 0485     		strh	r4, [r0, #40]	@ movhi
 417              		.loc 1 323 0
 418 0062 06D0     		beq	.L40
 419              	.LVL50:
 420              		.loc 1 323 0 is_stmt 0 discriminator 1
 421 0064 0C4B     		ldr	r3, .L45+8
 422 0066 9842     		cmp	r0, r3
 423 0068 03D0     		beq	.L40
 424              		.loc 1 331 0 is_stmt 1
 425 006a 0123     		movs	r3, #1
 426 006c 8382     		strh	r3, [r0, #20]	@ movhi
 427              		.loc 1 332 0
 428 006e 70BC     		pop	{r4, r5, r6}
 429 0070 7047     		bx	lr
 430              	.L40:
 431              		.loc 1 326 0
 432 0072 8B7A     		ldrb	r3, [r1, #10]	@ zero_extendqisi2
 433 0074 0386     		strh	r3, [r0, #48]	@ movhi
 434              		.loc 1 331 0
 435 0076 0123     		movs	r3, #1
 436 0078 8382     		strh	r3, [r0, #20]	@ movhi
 437              		.loc 1 332 0
 438 007a 70BC     		pop	{r4, r5, r6}
 439 007c 7047     		bx	lr
 440              	.LVL51:
 441              	.L37:
 442              		.loc 1 315 0
 443 007e 0380     		strh	r3, [r0]	@ movhi
 444              		.loc 1 321 0
 445 0080 0B88     		ldrh	r3, [r1]
 446              	.LVL52:
 447              		.loc 1 318 0
 448 0082 4A68     		ldr	r2, [r1, #4]
 449 0084 C262     		str	r2, [r0, #44]
 450              		.loc 1 321 0
 451 0086 0385     		strh	r3, [r0, #40]	@ movhi
 452              		.loc 1 331 0
 453 0088 0123     		movs	r3, #1
 454 008a 8382     		strh	r3, [r0, #20]	@ movhi
 455              		.loc 1 332 0
ARM GAS  C:\Users\jsyoon\AppData\Local\Temp\ccDGobdh.s 			page 9


 456 008c 70BC     		pop	{r4, r5, r6}
 457 008e 7047     		bx	lr
 458              	.L46:
 459              		.align	2
 460              	.L45:
 461 0090 00000140 		.word	1073807360
 462 0094 00100040 		.word	1073745920
 463 0098 00040140 		.word	1073808384
 464              		.cfi_endproc
 465              	.LFE112:
 466              		.size	TIM_TimeBaseInit, .-TIM_TimeBaseInit
 467 009c AFF30080 		.section	.text.TIM_TimeBaseStructInit,"ax",%progbits
 468              		.align	2
 469              		.p2align 4,,15
 470              		.global	TIM_TimeBaseStructInit
 471              		.thumb
 472              		.thumb_func
 473              		.type	TIM_TimeBaseStructInit, %function
 474              	TIM_TimeBaseStructInit:
 475              	.LFB113:
 476              		.loc 1 341 0
 477              		.cfi_startproc
 478              		@ args = 0, pretend = 0, frame = 0
 479              		@ frame_needed = 0, uses_anonymous_args = 0
 480              		@ link register save eliminated.
 481              	.LVL53:
 482              		.loc 1 344 0
 483 0000 0023     		movs	r3, #0
 484              		.loc 1 343 0
 485 0002 4FF0FF32 		mov	r2, #-1
 486 0006 4260     		str	r2, [r0, #4]
 487              		.loc 1 344 0
 488 0008 0380     		strh	r3, [r0]	@ movhi
 489              		.loc 1 345 0
 490 000a 0381     		strh	r3, [r0, #8]	@ movhi
 491              		.loc 1 346 0
 492 000c 4380     		strh	r3, [r0, #2]	@ movhi
 493              		.loc 1 347 0
 494 000e 8372     		strb	r3, [r0, #10]
 495 0010 7047     		bx	lr
 496              		.cfi_endproc
 497              	.LFE113:
 498              		.size	TIM_TimeBaseStructInit, .-TIM_TimeBaseStructInit
 499 0012 00BFAFF3 		.section	.text.TIM_PrescalerConfig,"ax",%progbits
 499      0080AFF3 
 499      0080AFF3 
 499      0080
 500              		.align	2
 501              		.p2align 4,,15
 502              		.global	TIM_PrescalerConfig
 503              		.thumb
 504              		.thumb_func
 505              		.type	TIM_PrescalerConfig, %function
 506              	TIM_PrescalerConfig:
 507              	.LFB114:
 508              		.loc 1 361 0
 509              		.cfi_startproc
ARM GAS  C:\Users\jsyoon\AppData\Local\Temp\ccDGobdh.s 			page 10


 510              		@ args = 0, pretend = 0, frame = 0
 511              		@ frame_needed = 0, uses_anonymous_args = 0
 512              		@ link register save eliminated.
 513              	.LVL54:
 514              		.loc 1 366 0
 515 0000 0185     		strh	r1, [r0, #40]	@ movhi
 516              		.loc 1 368 0
 517 0002 8282     		strh	r2, [r0, #20]	@ movhi
 518 0004 7047     		bx	lr
 519              		.cfi_endproc
 520              	.LFE114:
 521              		.size	TIM_PrescalerConfig, .-TIM_PrescalerConfig
 522              		.section	.text.TIM_CounterModeConfig,"ax",%progbits
 523              		.align	2
 524              		.p2align 4,,15
 525              		.global	TIM_CounterModeConfig
 526              		.thumb
 527              		.thumb_func
 528              		.type	TIM_CounterModeConfig, %function
 529              	TIM_CounterModeConfig:
 530              	.LFB115:
 531              		.loc 1 384 0
 532              		.cfi_startproc
 533              		@ args = 0, pretend = 0, frame = 0
 534              		@ frame_needed = 0, uses_anonymous_args = 0
 535              		@ link register save eliminated.
 536              	.LVL55:
 537              		.loc 1 391 0
 538 0000 0388     		ldrh	r3, [r0]
 539              	.LVL56:
 540              		.loc 1 394 0
 541 0002 23F07003 		bic	r3, r3, #112
 542              	.LVL57:
 543 0006 1B04     		lsls	r3, r3, #16
 544 0008 1B0C     		lsrs	r3, r3, #16
 545              	.LVL58:
 546              		.loc 1 397 0
 547 000a 1943     		orrs	r1, r1, r3
 548              	.LVL59:
 549              		.loc 1 400 0
 550 000c 0180     		strh	r1, [r0]	@ movhi
 551 000e 7047     		bx	lr
 552              		.cfi_endproc
 553              	.LFE115:
 554              		.size	TIM_CounterModeConfig, .-TIM_CounterModeConfig
 555              		.section	.text.TIM_SetCounter,"ax",%progbits
 556              		.align	2
 557              		.p2align 4,,15
 558              		.global	TIM_SetCounter
 559              		.thumb
 560              		.thumb_func
 561              		.type	TIM_SetCounter, %function
 562              	TIM_SetCounter:
 563              	.LFB116:
 564              		.loc 1 410 0
 565              		.cfi_startproc
 566              		@ args = 0, pretend = 0, frame = 0
ARM GAS  C:\Users\jsyoon\AppData\Local\Temp\ccDGobdh.s 			page 11


 567              		@ frame_needed = 0, uses_anonymous_args = 0
 568              		@ link register save eliminated.
 569              	.LVL60:
 570              		.loc 1 415 0
 571 0000 4162     		str	r1, [r0, #36]
 572 0002 7047     		bx	lr
 573              		.cfi_endproc
 574              	.LFE116:
 575              		.size	TIM_SetCounter, .-TIM_SetCounter
 576 0004 AFF30080 		.section	.text.TIM_SetAutoreload,"ax",%progbits
 576      AFF30080 
 576      AFF30080 
 577              		.align	2
 578              		.p2align 4,,15
 579              		.global	TIM_SetAutoreload
 580              		.thumb
 581              		.thumb_func
 582              		.type	TIM_SetAutoreload, %function
 583              	TIM_SetAutoreload:
 584              	.LFB117:
 585              		.loc 1 425 0
 586              		.cfi_startproc
 587              		@ args = 0, pretend = 0, frame = 0
 588              		@ frame_needed = 0, uses_anonymous_args = 0
 589              		@ link register save eliminated.
 590              	.LVL61:
 591              		.loc 1 430 0
 592 0000 C162     		str	r1, [r0, #44]
 593 0002 7047     		bx	lr
 594              		.cfi_endproc
 595              	.LFE117:
 596              		.size	TIM_SetAutoreload, .-TIM_SetAutoreload
 597 0004 AFF30080 		.section	.text.TIM_GetCounter,"ax",%progbits
 597      AFF30080 
 597      AFF30080 
 598              		.align	2
 599              		.p2align 4,,15
 600              		.global	TIM_GetCounter
 601              		.thumb
 602              		.thumb_func
 603              		.type	TIM_GetCounter, %function
 604              	TIM_GetCounter:
 605              	.LFB118:
 606              		.loc 1 439 0
 607              		.cfi_startproc
 608              		@ args = 0, pretend = 0, frame = 0
 609              		@ frame_needed = 0, uses_anonymous_args = 0
 610              		@ link register save eliminated.
 611              	.LVL62:
 612              		.loc 1 444 0
 613 0000 406A     		ldr	r0, [r0, #36]
 614              	.LVL63:
 615              		.loc 1 445 0
 616 0002 7047     		bx	lr
 617              		.cfi_endproc
 618              	.LFE118:
 619              		.size	TIM_GetCounter, .-TIM_GetCounter
ARM GAS  C:\Users\jsyoon\AppData\Local\Temp\ccDGobdh.s 			page 12


 620 0004 AFF30080 		.section	.text.TIM_GetPrescaler,"ax",%progbits
 620      AFF30080 
 620      AFF30080 
 621              		.align	2
 622              		.p2align 4,,15
 623              		.global	TIM_GetPrescaler
 624              		.thumb
 625              		.thumb_func
 626              		.type	TIM_GetPrescaler, %function
 627              	TIM_GetPrescaler:
 628              	.LFB119:
 629              		.loc 1 453 0
 630              		.cfi_startproc
 631              		@ args = 0, pretend = 0, frame = 0
 632              		@ frame_needed = 0, uses_anonymous_args = 0
 633              		@ link register save eliminated.
 634              	.LVL64:
 635              		.loc 1 458 0
 636 0000 008D     		ldrh	r0, [r0, #40]
 637              	.LVL65:
 638              		.loc 1 459 0
 639 0002 80B2     		uxth	r0, r0
 640 0004 7047     		bx	lr
 641              		.cfi_endproc
 642              	.LFE119:
 643              		.size	TIM_GetPrescaler, .-TIM_GetPrescaler
 644 0006 00BFAFF3 		.section	.text.TIM_UpdateDisableConfig,"ax",%progbits
 644      0080AFF3 
 644      0080
 645              		.align	2
 646              		.p2align 4,,15
 647              		.global	TIM_UpdateDisableConfig
 648              		.thumb
 649              		.thumb_func
 650              		.type	TIM_UpdateDisableConfig, %function
 651              	TIM_UpdateDisableConfig:
 652              	.LFB120:
 653              		.loc 1 469 0
 654              		.cfi_startproc
 655              		@ args = 0, pretend = 0, frame = 0
 656              		@ frame_needed = 0, uses_anonymous_args = 0
 657              		@ link register save eliminated.
 658              	.LVL66:
 659              		.loc 1 477 0
 660 0000 0388     		ldrh	r3, [r0]
 661              		.loc 1 474 0
 662 0002 29B9     		cbnz	r1, .L57
 663              		.loc 1 482 0
 664 0004 23F00203 		bic	r3, r3, #2
 665 0008 1B04     		lsls	r3, r3, #16
 666 000a 1B0C     		lsrs	r3, r3, #16
 667 000c 0380     		strh	r3, [r0]	@ movhi
 668 000e 7047     		bx	lr
 669              	.L57:
 670              		.loc 1 477 0
 671 0010 9BB2     		uxth	r3, r3
 672 0012 43F00203 		orr	r3, r3, #2
ARM GAS  C:\Users\jsyoon\AppData\Local\Temp\ccDGobdh.s 			page 13


 673 0016 0380     		strh	r3, [r0]	@ movhi
 674 0018 7047     		bx	lr
 675              		.cfi_endproc
 676              	.LFE120:
 677              		.size	TIM_UpdateDisableConfig, .-TIM_UpdateDisableConfig
 678 001a 00BFAFF3 		.section	.text.TIM_UpdateRequestConfig,"ax",%progbits
 678      0080
 679              		.align	2
 680              		.p2align 4,,15
 681              		.global	TIM_UpdateRequestConfig
 682              		.thumb
 683              		.thumb_func
 684              		.type	TIM_UpdateRequestConfig, %function
 685              	TIM_UpdateRequestConfig:
 686              	.LFB121:
 687              		.loc 1 498 0
 688              		.cfi_startproc
 689              		@ args = 0, pretend = 0, frame = 0
 690              		@ frame_needed = 0, uses_anonymous_args = 0
 691              		@ link register save eliminated.
 692              	.LVL67:
 693              		.loc 1 506 0
 694 0000 0388     		ldrh	r3, [r0]
 695              		.loc 1 503 0
 696 0002 29B9     		cbnz	r1, .L61
 697              		.loc 1 511 0
 698 0004 23F00403 		bic	r3, r3, #4
 699 0008 1B04     		lsls	r3, r3, #16
 700 000a 1B0C     		lsrs	r3, r3, #16
 701 000c 0380     		strh	r3, [r0]	@ movhi
 702 000e 7047     		bx	lr
 703              	.L61:
 704              		.loc 1 506 0
 705 0010 9BB2     		uxth	r3, r3
 706 0012 43F00403 		orr	r3, r3, #4
 707 0016 0380     		strh	r3, [r0]	@ movhi
 708 0018 7047     		bx	lr
 709              		.cfi_endproc
 710              	.LFE121:
 711              		.size	TIM_UpdateRequestConfig, .-TIM_UpdateRequestConfig
 712 001a 00BFAFF3 		.section	.text.TIM_ARRPreloadConfig,"ax",%progbits
 712      0080
 713              		.align	2
 714              		.p2align 4,,15
 715              		.global	TIM_ARRPreloadConfig
 716              		.thumb
 717              		.thumb_func
 718              		.type	TIM_ARRPreloadConfig, %function
 719              	TIM_ARRPreloadConfig:
 720              	.LFB122:
 721              		.loc 1 523 0
 722              		.cfi_startproc
 723              		@ args = 0, pretend = 0, frame = 0
 724              		@ frame_needed = 0, uses_anonymous_args = 0
 725              		@ link register save eliminated.
 726              	.LVL68:
 727              		.loc 1 531 0
ARM GAS  C:\Users\jsyoon\AppData\Local\Temp\ccDGobdh.s 			page 14


 728 0000 0388     		ldrh	r3, [r0]
 729              		.loc 1 528 0
 730 0002 29B9     		cbnz	r1, .L65
 731              		.loc 1 536 0
 732 0004 23F08003 		bic	r3, r3, #128
 733 0008 1B04     		lsls	r3, r3, #16
 734 000a 1B0C     		lsrs	r3, r3, #16
 735 000c 0380     		strh	r3, [r0]	@ movhi
 736 000e 7047     		bx	lr
 737              	.L65:
 738              		.loc 1 531 0
 739 0010 9BB2     		uxth	r3, r3
 740 0012 43F08003 		orr	r3, r3, #128
 741 0016 0380     		strh	r3, [r0]	@ movhi
 742 0018 7047     		bx	lr
 743              		.cfi_endproc
 744              	.LFE122:
 745              		.size	TIM_ARRPreloadConfig, .-TIM_ARRPreloadConfig
 746 001a 00BFAFF3 		.section	.text.TIM_SelectOnePulseMode,"ax",%progbits
 746      0080
 747              		.align	2
 748              		.p2align 4,,15
 749              		.global	TIM_SelectOnePulseMode
 750              		.thumb
 751              		.thumb_func
 752              		.type	TIM_SelectOnePulseMode, %function
 753              	TIM_SelectOnePulseMode:
 754              	.LFB123:
 755              		.loc 1 550 0
 756              		.cfi_startproc
 757              		@ args = 0, pretend = 0, frame = 0
 758              		@ frame_needed = 0, uses_anonymous_args = 0
 759              		@ link register save eliminated.
 760              	.LVL69:
 761              		.loc 1 556 0
 762 0000 0388     		ldrh	r3, [r0]
 763 0002 23F00803 		bic	r3, r3, #8
 764 0006 1B04     		lsls	r3, r3, #16
 765 0008 1B0C     		lsrs	r3, r3, #16
 766 000a 0380     		strh	r3, [r0]	@ movhi
 767              		.loc 1 559 0
 768 000c 0388     		ldrh	r3, [r0]
 769 000e 9BB2     		uxth	r3, r3
 770 0010 1943     		orrs	r1, r1, r3
 771              	.LVL70:
 772 0012 0180     		strh	r1, [r0]	@ movhi
 773 0014 7047     		bx	lr
 774              		.cfi_endproc
 775              	.LFE123:
 776              		.size	TIM_SelectOnePulseMode, .-TIM_SelectOnePulseMode
 777 0016 00BFAFF3 		.section	.text.TIM_SetClockDivision,"ax",%progbits
 777      0080AFF3 
 777      0080
 778              		.align	2
 779              		.p2align 4,,15
 780              		.global	TIM_SetClockDivision
 781              		.thumb
ARM GAS  C:\Users\jsyoon\AppData\Local\Temp\ccDGobdh.s 			page 15


 782              		.thumb_func
 783              		.type	TIM_SetClockDivision, %function
 784              	TIM_SetClockDivision:
 785              	.LFB124:
 786              		.loc 1 573 0
 787              		.cfi_startproc
 788              		@ args = 0, pretend = 0, frame = 0
 789              		@ frame_needed = 0, uses_anonymous_args = 0
 790              		@ link register save eliminated.
 791              	.LVL71:
 792              		.loc 1 579 0
 793 0000 0388     		ldrh	r3, [r0]
 794 0002 23F44073 		bic	r3, r3, #768
 795 0006 1B04     		lsls	r3, r3, #16
 796 0008 1B0C     		lsrs	r3, r3, #16
 797 000a 0380     		strh	r3, [r0]	@ movhi
 798              		.loc 1 582 0
 799 000c 0388     		ldrh	r3, [r0]
 800 000e 9BB2     		uxth	r3, r3
 801 0010 1943     		orrs	r1, r1, r3
 802              	.LVL72:
 803 0012 0180     		strh	r1, [r0]	@ movhi
 804 0014 7047     		bx	lr
 805              		.cfi_endproc
 806              	.LFE124:
 807              		.size	TIM_SetClockDivision, .-TIM_SetClockDivision
 808 0016 00BFAFF3 		.section	.text.TIM_Cmd,"ax",%progbits
 808      0080AFF3 
 808      0080
 809              		.align	2
 810              		.p2align 4,,15
 811              		.global	TIM_Cmd
 812              		.thumb
 813              		.thumb_func
 814              		.type	TIM_Cmd, %function
 815              	TIM_Cmd:
 816              	.LFB125:
 817              		.loc 1 593 0
 818              		.cfi_startproc
 819              		@ args = 0, pretend = 0, frame = 0
 820              		@ frame_needed = 0, uses_anonymous_args = 0
 821              		@ link register save eliminated.
 822              	.LVL73:
 823              		.loc 1 601 0
 824 0000 0388     		ldrh	r3, [r0]
 825              		.loc 1 598 0
 826 0002 29B9     		cbnz	r1, .L71
 827              		.loc 1 606 0
 828 0004 23F00103 		bic	r3, r3, #1
 829 0008 1B04     		lsls	r3, r3, #16
 830 000a 1B0C     		lsrs	r3, r3, #16
 831 000c 0380     		strh	r3, [r0]	@ movhi
 832 000e 7047     		bx	lr
 833              	.L71:
 834              		.loc 1 601 0
 835 0010 9BB2     		uxth	r3, r3
 836 0012 43F00103 		orr	r3, r3, #1
ARM GAS  C:\Users\jsyoon\AppData\Local\Temp\ccDGobdh.s 			page 16


 837 0016 0380     		strh	r3, [r0]	@ movhi
 838 0018 7047     		bx	lr
 839              		.cfi_endproc
 840              	.LFE125:
 841              		.size	TIM_Cmd, .-TIM_Cmd
 842 001a 00BFAFF3 		.section	.text.TIM_OC1Init,"ax",%progbits
 842      0080
 843              		.align	2
 844              		.p2align 4,,15
 845              		.global	TIM_OC1Init
 846              		.thumb
 847              		.thumb_func
 848              		.type	TIM_OC1Init, %function
 849              	TIM_OC1Init:
 850              	.LFB126:
 851              		.loc 1 672 0
 852              		.cfi_startproc
 853              		@ args = 0, pretend = 0, frame = 0
 854              		@ frame_needed = 0, uses_anonymous_args = 0
 855              		@ link register save eliminated.
 856              	.LVL74:
 857 0000 F0B4     		push	{r4, r5, r6, r7}
 858              		.cfi_def_cfa_offset 16
 859              		.cfi_offset 4, -16
 860              		.cfi_offset 5, -12
 861              		.cfi_offset 6, -8
 862              		.cfi_offset 7, -4
 863              		.loc 1 682 0
 864 0002 048C     		ldrh	r4, [r0, #32]
 865              		.loc 1 701 0
 866 0004 B1F802C0 		ldrh	ip, [r1, #2]
 867 0008 8F89     		ldrh	r7, [r1, #12]
 868              		.loc 1 696 0
 869 000a 0E88     		ldrh	r6, [r1]
 870              		.loc 1 706 0
 871 000c 1B4D     		ldr	r5, .L75
 872              		.loc 1 682 0
 873 000e 24F00104 		bic	r4, r4, #1
 874 0012 2404     		lsls	r4, r4, #16
 875 0014 240C     		lsrs	r4, r4, #16
 876 0016 0484     		strh	r4, [r0, #32]	@ movhi
 877              		.loc 1 685 0
 878 0018 028C     		ldrh	r2, [r0, #32]
 879              	.LVL75:
 880              		.loc 1 687 0
 881 001a 8488     		ldrh	r4, [r0, #4]
 882              		.loc 1 690 0
 883 001c 038B     		ldrh	r3, [r0, #24]
 884              		.loc 1 699 0
 885 001e 22F00202 		bic	r2, r2, #2
 886              	.LVL76:
 887              		.loc 1 694 0
 888 0022 23F07303 		bic	r3, r3, #115
 889              		.loc 1 699 0
 890 0026 1204     		lsls	r2, r2, #16
 891              		.loc 1 701 0
 892 0028 4CEA0707 		orr	r7, ip, r7
ARM GAS  C:\Users\jsyoon\AppData\Local\Temp\ccDGobdh.s 			page 17


 893              		.loc 1 694 0
 894 002c 1B04     		lsls	r3, r3, #16
 895              		.loc 1 699 0
 896 002e 120C     		lsrs	r2, r2, #16
 897              		.loc 1 701 0
 898 0030 BFB2     		uxth	r7, r7
 899              		.loc 1 694 0
 900 0032 1B0C     		lsrs	r3, r3, #16
 901              		.loc 1 706 0
 902 0034 A842     		cmp	r0, r5
 903              		.loc 1 704 0
 904 0036 47EA0202 		orr	r2, r7, r2
 905              		.loc 1 687 0
 906 003a A4B2     		uxth	r4, r4
 907              	.LVL77:
 908              		.loc 1 696 0
 909 003c 43EA0603 		orr	r3, r3, r6
 910              	.LVL78:
 911              		.loc 1 706 0
 912 0040 0AD0     		beq	.L73
 913              		.loc 1 706 0 is_stmt 0 discriminator 1
 914 0042 05F58065 		add	r5, r5, #1024
 915 0046 A842     		cmp	r0, r5
 916 0048 06D0     		beq	.L73
 917              	.LVL79:
 918              	.L74:
 919              		.loc 1 737 0 is_stmt 1
 920 004a 8968     		ldr	r1, [r1, #8]
 921              	.LVL80:
 922              		.loc 1 731 0
 923 004c 8480     		strh	r4, [r0, #4]	@ movhi
 924              		.loc 1 734 0
 925 004e 0383     		strh	r3, [r0, #24]	@ movhi
 926              		.loc 1 741 0
 927 0050 F0BC     		pop	{r4, r5, r6, r7}
 928              	.LVL81:
 929              		.loc 1 737 0
 930 0052 4163     		str	r1, [r0, #52]
 931              		.loc 1 740 0
 932 0054 0284     		strh	r2, [r0, #32]	@ movhi
 933              		.loc 1 741 0
 934 0056 7047     		bx	lr
 935              	.LVL82:
 936              	.L73:
 937              		.loc 1 716 0
 938 0058 B1F80EC0 		ldrh	ip, [r1, #14]
 939              		.loc 1 726 0
 940 005c 4F8A     		ldrh	r7, [r1, #18]
 941 005e 0D8A     		ldrh	r5, [r1, #16]
 942              		.loc 1 721 0
 943 0060 8E88     		ldrh	r6, [r1, #4]
 944              		.loc 1 714 0
 945 0062 22F00802 		bic	r2, r2, #8
 946              	.LVL83:
 947              		.loc 1 716 0
 948 0066 42EA0C02 		orr	r2, r2, ip
 949              	.LVL84:
ARM GAS  C:\Users\jsyoon\AppData\Local\Temp\ccDGobdh.s 			page 18


 950              		.loc 1 726 0
 951 006a 3D43     		orrs	r5, r5, r7
 952              		.loc 1 724 0
 953 006c 24F44074 		bic	r4, r4, #768
 954              	.LVL85:
 955              		.loc 1 718 0
 956 0070 22F00402 		bic	r2, r2, #4
 957              	.LVL86:
 958              		.loc 1 726 0
 959 0074 ADB2     		uxth	r5, r5
 960              		.loc 1 721 0
 961 0076 3243     		orrs	r2, r2, r6
 962              	.LVL87:
 963              		.loc 1 728 0
 964 0078 2C43     		orrs	r4, r4, r5
 965              	.LVL88:
 966 007a E6E7     		b	.L74
 967              	.L76:
 968              		.align	2
 969              	.L75:
 970 007c 00000140 		.word	1073807360
 971              		.cfi_endproc
 972              	.LFE126:
 973              		.size	TIM_OC1Init, .-TIM_OC1Init
 974              		.section	.text.TIM_OC2Init,"ax",%progbits
 975              		.align	2
 976              		.p2align 4,,15
 977              		.global	TIM_OC2Init
 978              		.thumb
 979              		.thumb_func
 980              		.type	TIM_OC2Init, %function
 981              	TIM_OC2Init:
 982              	.LFB127:
 983              		.loc 1 753 0
 984              		.cfi_startproc
 985              		@ args = 0, pretend = 0, frame = 0
 986              		@ frame_needed = 0, uses_anonymous_args = 0
 987              		@ link register save eliminated.
 988              	.LVL89:
 989 0000 F0B4     		push	{r4, r5, r6, r7}
 990              		.cfi_def_cfa_offset 16
 991              		.cfi_offset 4, -16
 992              		.cfi_offset 5, -12
 993              		.cfi_offset 6, -8
 994              		.cfi_offset 7, -4
 995              		.loc 1 763 0
 996 0002 048C     		ldrh	r4, [r0, #32]
 997              		.loc 1 783 0
 998 0004 B1F80CC0 		ldrh	ip, [r1, #12]
 999              		.loc 1 786 0
 1000 0008 4F88     		ldrh	r7, [r1, #2]
 1001              		.loc 1 778 0
 1002 000a 0E88     		ldrh	r6, [r1]
 1003              		.loc 1 788 0
 1004 000c 1F4D     		ldr	r5, .L80
 1005              		.loc 1 763 0
 1006 000e 24F01004 		bic	r4, r4, #16
ARM GAS  C:\Users\jsyoon\AppData\Local\Temp\ccDGobdh.s 			page 19


 1007 0012 2404     		lsls	r4, r4, #16
 1008 0014 240C     		lsrs	r4, r4, #16
 1009 0016 0484     		strh	r4, [r0, #32]	@ movhi
 1010              		.loc 1 766 0
 1011 0018 028C     		ldrh	r2, [r0, #32]
 1012              	.LVL90:
 1013              		.loc 1 768 0
 1014 001a 8488     		ldrh	r4, [r0, #4]
 1015              		.loc 1 771 0
 1016 001c 038B     		ldrh	r3, [r0, #24]
 1017              		.loc 1 781 0
 1018 001e 22F02002 		bic	r2, r2, #32
 1019              	.LVL91:
 1020 0022 1204     		lsls	r2, r2, #16
 1021              		.loc 1 775 0
 1022 0024 23F4E643 		bic	r3, r3, #29440
 1023              		.loc 1 781 0
 1024 0028 120C     		lsrs	r2, r2, #16
 1025              		.loc 1 775 0
 1026 002a 1B04     		lsls	r3, r3, #16
 1027              		.loc 1 783 0
 1028 002c 42EA0C12 		orr	r2, r2, ip, lsl #4
 1029              		.loc 1 775 0
 1030 0030 1B0C     		lsrs	r3, r3, #16
 1031              		.loc 1 786 0
 1032 0032 42EA0712 		orr	r2, r2, r7, lsl #4
 1033              		.loc 1 778 0
 1034 0036 43EA0623 		orr	r3, r3, r6, lsl #8
 1035              		.loc 1 788 0
 1036 003a A842     		cmp	r0, r5
 1037              		.loc 1 786 0
 1038 003c 92B2     		uxth	r2, r2
 1039              		.loc 1 768 0
 1040 003e A4B2     		uxth	r4, r4
 1041              	.LVL92:
 1042              		.loc 1 778 0
 1043 0040 9BB2     		uxth	r3, r3
 1044              	.LVL93:
 1045              		.loc 1 788 0
 1046 0042 0AD0     		beq	.L78
 1047              		.loc 1 788 0 is_stmt 0 discriminator 1
 1048 0044 05F58065 		add	r5, r5, #1024
 1049 0048 A842     		cmp	r0, r5
 1050 004a 06D0     		beq	.L78
 1051              	.LVL94:
 1052              	.L79:
 1053              		.loc 1 819 0 is_stmt 1
 1054 004c 8968     		ldr	r1, [r1, #8]
 1055              	.LVL95:
 1056              		.loc 1 813 0
 1057 004e 8480     		strh	r4, [r0, #4]	@ movhi
 1058              		.loc 1 816 0
 1059 0050 0383     		strh	r3, [r0, #24]	@ movhi
 1060              		.loc 1 823 0
 1061 0052 F0BC     		pop	{r4, r5, r6, r7}
 1062              	.LVL96:
 1063              		.loc 1 819 0
ARM GAS  C:\Users\jsyoon\AppData\Local\Temp\ccDGobdh.s 			page 20


 1064 0054 8163     		str	r1, [r0, #56]
 1065              		.loc 1 822 0
 1066 0056 0284     		strh	r2, [r0, #32]	@ movhi
 1067              		.loc 1 823 0
 1068 0058 7047     		bx	lr
 1069              	.LVL97:
 1070              	.L78:
 1071              		.loc 1 798 0
 1072 005a CD89     		ldrh	r5, [r1, #14]
 1073              		.loc 1 808 0
 1074 005c B1F810C0 		ldrh	ip, [r1, #16]
 1075              		.loc 1 803 0
 1076 0060 8F88     		ldrh	r7, [r1, #4]
 1077              		.loc 1 810 0
 1078 0062 4E8A     		ldrh	r6, [r1, #18]
 1079              		.loc 1 796 0
 1080 0064 22F08002 		bic	r2, r2, #128
 1081              	.LVL98:
 1082 0068 92B2     		uxth	r2, r2
 1083              	.LVL99:
 1084              		.loc 1 798 0
 1085 006a 42EA0512 		orr	r2, r2, r5, lsl #4
 1086              	.LVL100:
 1087              		.loc 1 806 0
 1088 006e 24F44064 		bic	r4, r4, #3072
 1089              	.LVL101:
 1090              		.loc 1 800 0
 1091 0072 4FF6BF75 		movw	r5, #65471
 1092 0076 1540     		ands	r5, r5, r2
 1093              	.LVL102:
 1094              		.loc 1 808 0
 1095 0078 44EA8C04 		orr	r4, r4, ip, lsl #2
 1096              		.loc 1 803 0
 1097 007c 45EA0712 		orr	r2, r5, r7, lsl #4
 1098              		.loc 1 810 0
 1099 0080 44EA8604 		orr	r4, r4, r6, lsl #2
 1100              		.loc 1 803 0
 1101 0084 92B2     		uxth	r2, r2
 1102              	.LVL103:
 1103              		.loc 1 810 0
 1104 0086 A4B2     		uxth	r4, r4
 1105              	.LVL104:
 1106 0088 E0E7     		b	.L79
 1107              	.L81:
 1108 008a 00BF     		.align	2
 1109              	.L80:
 1110 008c 00000140 		.word	1073807360
 1111              		.cfi_endproc
 1112              	.LFE127:
 1113              		.size	TIM_OC2Init, .-TIM_OC2Init
 1114              		.section	.text.TIM_OC3Init,"ax",%progbits
 1115              		.align	2
 1116              		.p2align 4,,15
 1117              		.global	TIM_OC3Init
 1118              		.thumb
 1119              		.thumb_func
 1120              		.type	TIM_OC3Init, %function
ARM GAS  C:\Users\jsyoon\AppData\Local\Temp\ccDGobdh.s 			page 21


 1121              	TIM_OC3Init:
 1122              	.LFB128:
 1123              		.loc 1 834 0
 1124              		.cfi_startproc
 1125              		@ args = 0, pretend = 0, frame = 0
 1126              		@ frame_needed = 0, uses_anonymous_args = 0
 1127              		@ link register save eliminated.
 1128              	.LVL105:
 1129 0000 F0B4     		push	{r4, r5, r6, r7}
 1130              		.cfi_def_cfa_offset 16
 1131              		.cfi_offset 4, -16
 1132              		.cfi_offset 5, -12
 1133              		.cfi_offset 6, -8
 1134              		.cfi_offset 7, -4
 1135              		.loc 1 844 0
 1136 0002 048C     		ldrh	r4, [r0, #32]
 1137              		.loc 1 863 0
 1138 0004 B1F80CC0 		ldrh	ip, [r1, #12]
 1139              		.loc 1 866 0
 1140 0008 4F88     		ldrh	r7, [r1, #2]
 1141              		.loc 1 858 0
 1142 000a 0E88     		ldrh	r6, [r1]
 1143              		.loc 1 868 0
 1144 000c 1E4D     		ldr	r5, .L85
 1145              		.loc 1 844 0
 1146 000e 24F48074 		bic	r4, r4, #256
 1147 0012 2404     		lsls	r4, r4, #16
 1148 0014 240C     		lsrs	r4, r4, #16
 1149 0016 0484     		strh	r4, [r0, #32]	@ movhi
 1150              		.loc 1 847 0
 1151 0018 028C     		ldrh	r2, [r0, #32]
 1152              	.LVL106:
 1153              		.loc 1 849 0
 1154 001a 8488     		ldrh	r4, [r0, #4]
 1155              		.loc 1 852 0
 1156 001c 838B     		ldrh	r3, [r0, #28]
 1157              		.loc 1 861 0
 1158 001e 22F40072 		bic	r2, r2, #512
 1159              	.LVL107:
 1160 0022 1204     		lsls	r2, r2, #16
 1161 0024 120C     		lsrs	r2, r2, #16
 1162              		.loc 1 856 0
 1163 0026 23F07303 		bic	r3, r3, #115
 1164              		.loc 1 863 0
 1165 002a 42EA0C22 		orr	r2, r2, ip, lsl #8
 1166              		.loc 1 856 0
 1167 002e 1B04     		lsls	r3, r3, #16
 1168              		.loc 1 866 0
 1169 0030 42EA0722 		orr	r2, r2, r7, lsl #8
 1170              		.loc 1 856 0
 1171 0034 1B0C     		lsrs	r3, r3, #16
 1172              		.loc 1 868 0
 1173 0036 A842     		cmp	r0, r5
 1174              		.loc 1 866 0
 1175 0038 92B2     		uxth	r2, r2
 1176              		.loc 1 849 0
 1177 003a A4B2     		uxth	r4, r4
ARM GAS  C:\Users\jsyoon\AppData\Local\Temp\ccDGobdh.s 			page 22


 1178              	.LVL108:
 1179              		.loc 1 858 0
 1180 003c 43EA0603 		orr	r3, r3, r6
 1181              	.LVL109:
 1182              		.loc 1 868 0
 1183 0040 0AD0     		beq	.L83
 1184              		.loc 1 868 0 is_stmt 0 discriminator 1
 1185 0042 05F58065 		add	r5, r5, #1024
 1186 0046 A842     		cmp	r0, r5
 1187 0048 06D0     		beq	.L83
 1188              	.LVL110:
 1189              	.L84:
 1190              		.loc 1 899 0 is_stmt 1
 1191 004a 8968     		ldr	r1, [r1, #8]
 1192              	.LVL111:
 1193              		.loc 1 893 0
 1194 004c 8480     		strh	r4, [r0, #4]	@ movhi
 1195              		.loc 1 896 0
 1196 004e 8383     		strh	r3, [r0, #28]	@ movhi
 1197              		.loc 1 903 0
 1198 0050 F0BC     		pop	{r4, r5, r6, r7}
 1199              	.LVL112:
 1200              		.loc 1 899 0
 1201 0052 C163     		str	r1, [r0, #60]
 1202              		.loc 1 902 0
 1203 0054 0284     		strh	r2, [r0, #32]	@ movhi
 1204              		.loc 1 903 0
 1205 0056 7047     		bx	lr
 1206              	.LVL113:
 1207              	.L83:
 1208              		.loc 1 878 0
 1209 0058 CD89     		ldrh	r5, [r1, #14]
 1210              		.loc 1 888 0
 1211 005a B1F810C0 		ldrh	ip, [r1, #16]
 1212              		.loc 1 883 0
 1213 005e 8F88     		ldrh	r7, [r1, #4]
 1214              		.loc 1 890 0
 1215 0060 4E8A     		ldrh	r6, [r1, #18]
 1216              		.loc 1 876 0
 1217 0062 22F40062 		bic	r2, r2, #2048
 1218              	.LVL114:
 1219 0066 92B2     		uxth	r2, r2
 1220              	.LVL115:
 1221              		.loc 1 878 0
 1222 0068 42EA0522 		orr	r2, r2, r5, lsl #8
 1223              	.LVL116:
 1224              		.loc 1 886 0
 1225 006c 24F44054 		bic	r4, r4, #12288
 1226              	.LVL117:
 1227              		.loc 1 880 0
 1228 0070 4FF6FF35 		movw	r5, #64511
 1229 0074 1540     		ands	r5, r5, r2
 1230              	.LVL118:
 1231              		.loc 1 888 0
 1232 0076 44EA0C14 		orr	r4, r4, ip, lsl #4
 1233              		.loc 1 883 0
 1234 007a 45EA0722 		orr	r2, r5, r7, lsl #8
ARM GAS  C:\Users\jsyoon\AppData\Local\Temp\ccDGobdh.s 			page 23


 1235              		.loc 1 890 0
 1236 007e 44EA0614 		orr	r4, r4, r6, lsl #4
 1237              		.loc 1 883 0
 1238 0082 92B2     		uxth	r2, r2
 1239              	.LVL119:
 1240              		.loc 1 890 0
 1241 0084 A4B2     		uxth	r4, r4
 1242              	.LVL120:
 1243 0086 E0E7     		b	.L84
 1244              	.L86:
 1245              		.align	2
 1246              	.L85:
 1247 0088 00000140 		.word	1073807360
 1248              		.cfi_endproc
 1249              	.LFE128:
 1250              		.size	TIM_OC3Init, .-TIM_OC3Init
 1251 008c AFF30080 		.section	.text.TIM_OC4Init,"ax",%progbits
 1252              		.align	2
 1253              		.p2align 4,,15
 1254              		.global	TIM_OC4Init
 1255              		.thumb
 1256              		.thumb_func
 1257              		.type	TIM_OC4Init, %function
 1258              	TIM_OC4Init:
 1259              	.LFB129:
 1260              		.loc 1 914 0
 1261              		.cfi_startproc
 1262              		@ args = 0, pretend = 0, frame = 0
 1263              		@ frame_needed = 0, uses_anonymous_args = 0
 1264              		@ link register save eliminated.
 1265              	.LVL121:
 1266 0000 F0B4     		push	{r4, r5, r6, r7}
 1267              		.cfi_def_cfa_offset 16
 1268              		.cfi_offset 4, -16
 1269              		.cfi_offset 5, -12
 1270              		.cfi_offset 6, -8
 1271              		.cfi_offset 7, -4
 1272              		.loc 1 924 0
 1273 0002 048C     		ldrh	r4, [r0, #32]
 1274              		.loc 1 944 0
 1275 0004 B1F80CC0 		ldrh	ip, [r1, #12]
 1276              		.loc 1 947 0
 1277 0008 4F88     		ldrh	r7, [r1, #2]
 1278              		.loc 1 939 0
 1279 000a 0E88     		ldrh	r6, [r1]
 1280              		.loc 1 949 0
 1281 000c 164D     		ldr	r5, .L90
 1282              		.loc 1 924 0
 1283 000e 24F48054 		bic	r4, r4, #4096
 1284 0012 2404     		lsls	r4, r4, #16
 1285 0014 240C     		lsrs	r4, r4, #16
 1286 0016 0484     		strh	r4, [r0, #32]	@ movhi
 1287              		.loc 1 927 0
 1288 0018 028C     		ldrh	r2, [r0, #32]
 1289              	.LVL122:
 1290              		.loc 1 929 0
 1291 001a 8488     		ldrh	r4, [r0, #4]
ARM GAS  C:\Users\jsyoon\AppData\Local\Temp\ccDGobdh.s 			page 24


 1292              		.loc 1 932 0
 1293 001c 838B     		ldrh	r3, [r0, #28]
 1294              		.loc 1 942 0
 1295 001e 22F40052 		bic	r2, r2, #8192
 1296              	.LVL123:
 1297 0022 1204     		lsls	r2, r2, #16
 1298              		.loc 1 936 0
 1299 0024 23F4E643 		bic	r3, r3, #29440
 1300              		.loc 1 942 0
 1301 0028 120C     		lsrs	r2, r2, #16
 1302              		.loc 1 936 0
 1303 002a 1B04     		lsls	r3, r3, #16
 1304              		.loc 1 944 0
 1305 002c 42EA0C32 		orr	r2, r2, ip, lsl #12
 1306              		.loc 1 936 0
 1307 0030 1B0C     		lsrs	r3, r3, #16
 1308              		.loc 1 947 0
 1309 0032 42EA0732 		orr	r2, r2, r7, lsl #12
 1310              		.loc 1 939 0
 1311 0036 43EA0623 		orr	r3, r3, r6, lsl #8
 1312              		.loc 1 949 0
 1313 003a A842     		cmp	r0, r5
 1314              		.loc 1 947 0
 1315 003c 92B2     		uxth	r2, r2
 1316              		.loc 1 929 0
 1317 003e A4B2     		uxth	r4, r4
 1318              	.LVL124:
 1319              		.loc 1 939 0
 1320 0040 9BB2     		uxth	r3, r3
 1321              	.LVL125:
 1322              		.loc 1 949 0
 1323 0042 0AD0     		beq	.L88
 1324              		.loc 1 949 0 is_stmt 0 discriminator 1
 1325 0044 05F58065 		add	r5, r5, #1024
 1326 0048 A842     		cmp	r0, r5
 1327 004a 06D0     		beq	.L88
 1328              	.LVL126:
 1329              	.L89:
 1330              		.loc 1 964 0 is_stmt 1
 1331 004c 8968     		ldr	r1, [r1, #8]
 1332              	.LVL127:
 1333              		.loc 1 958 0
 1334 004e 8480     		strh	r4, [r0, #4]	@ movhi
 1335              		.loc 1 961 0
 1336 0050 8383     		strh	r3, [r0, #28]	@ movhi
 1337              		.loc 1 968 0
 1338 0052 F0BC     		pop	{r4, r5, r6, r7}
 1339              	.LVL128:
 1340              		.loc 1 964 0
 1341 0054 0164     		str	r1, [r0, #64]
 1342              		.loc 1 967 0
 1343 0056 0284     		strh	r2, [r0, #32]	@ movhi
 1344              		.loc 1 968 0
 1345 0058 7047     		bx	lr
 1346              	.LVL129:
 1347              	.L88:
 1348              		.loc 1 955 0
ARM GAS  C:\Users\jsyoon\AppData\Local\Temp\ccDGobdh.s 			page 25


 1349 005a 0D8A     		ldrh	r5, [r1, #16]
 1350              		.loc 1 953 0
 1351 005c 24F48044 		bic	r4, r4, #16384
 1352              	.LVL130:
 1353              		.loc 1 955 0
 1354 0060 44EA8514 		orr	r4, r4, r5, lsl #6
 1355              	.LVL131:
 1356 0064 A4B2     		uxth	r4, r4
 1357              	.LVL132:
 1358 0066 F1E7     		b	.L89
 1359              	.L91:
 1360              		.align	2
 1361              	.L90:
 1362 0068 00000140 		.word	1073807360
 1363              		.cfi_endproc
 1364              	.LFE129:
 1365              		.size	TIM_OC4Init, .-TIM_OC4Init
 1366 006c AFF30080 		.section	.text.TIM_OCStructInit,"ax",%progbits
 1367              		.align	2
 1368              		.p2align 4,,15
 1369              		.global	TIM_OCStructInit
 1370              		.thumb
 1371              		.thumb_func
 1372              		.type	TIM_OCStructInit, %function
 1373              	TIM_OCStructInit:
 1374              	.LFB130:
 1375              		.loc 1 977 0
 1376              		.cfi_startproc
 1377              		@ args = 0, pretend = 0, frame = 0
 1378              		@ frame_needed = 0, uses_anonymous_args = 0
 1379              		@ link register save eliminated.
 1380              	.LVL133:
 1381              		.loc 1 979 0
 1382 0000 0023     		movs	r3, #0
 1383 0002 0380     		strh	r3, [r0]	@ movhi
 1384              		.loc 1 980 0
 1385 0004 4380     		strh	r3, [r0, #2]	@ movhi
 1386              		.loc 1 981 0
 1387 0006 8380     		strh	r3, [r0, #4]	@ movhi
 1388              		.loc 1 982 0
 1389 0008 8360     		str	r3, [r0, #8]
 1390              		.loc 1 983 0
 1391 000a 8381     		strh	r3, [r0, #12]	@ movhi
 1392              		.loc 1 984 0
 1393 000c C381     		strh	r3, [r0, #14]	@ movhi
 1394              		.loc 1 985 0
 1395 000e 0382     		strh	r3, [r0, #16]	@ movhi
 1396              		.loc 1 986 0
 1397 0010 4382     		strh	r3, [r0, #18]	@ movhi
 1398 0012 7047     		bx	lr
 1399              		.cfi_endproc
 1400              	.LFE130:
 1401              		.size	TIM_OCStructInit, .-TIM_OCStructInit
 1402 0014 AFF30080 		.section	.text.TIM_SelectOCxM,"ax",%progbits
 1402      AFF30080 
 1402      AFF30080 
 1403              		.align	2
ARM GAS  C:\Users\jsyoon\AppData\Local\Temp\ccDGobdh.s 			page 26


 1404              		.p2align 4,,15
 1405              		.global	TIM_SelectOCxM
 1406              		.thumb
 1407              		.thumb_func
 1408              		.type	TIM_SelectOCxM, %function
 1409              	TIM_SelectOCxM:
 1410              	.LFB131:
 1411              		.loc 1 1013 0
 1412              		.cfi_startproc
 1413              		@ args = 0, pretend = 0, frame = 0
 1414              		@ frame_needed = 0, uses_anonymous_args = 0
 1415              		@ link register save eliminated.
 1416              	.LVL134:
 1417              		.loc 1 1028 0
 1418 0000 038C     		ldrh	r3, [r0, #32]
 1419              		.loc 1 1013 0
 1420 0002 10B4     		push	{r4}
 1421              		.cfi_def_cfa_offset 4
 1422              		.cfi_offset 4, -4
 1423              		.loc 1 1025 0
 1424 0004 0124     		movs	r4, #1
 1425              		.loc 1 1028 0
 1426 0006 9BB2     		uxth	r3, r3
 1427              		.loc 1 1025 0
 1428 0008 8C40     		lsls	r4, r4, r1
 1429              		.loc 1 1028 0
 1430 000a 23EA0404 		bic	r4, r3, r4
 1431              		.loc 1 1030 0
 1432 000e 21F00803 		bic	r3, r1, #8
 1433              		.loc 1 1028 0
 1434 0012 0484     		strh	r4, [r0, #32]	@ movhi
 1435              		.loc 1 1023 0
 1436 0014 1830     		adds	r0, r0, #24
 1437              	.LVL135:
 1438              		.loc 1 1030 0
 1439 0016 7BB1     		cbz	r3, .L96
 1440              	.LVL136:
 1441              		.loc 1 1042 0
 1442 0018 0439     		subs	r1, r1, #4
 1443              	.LVL137:
 1444 001a C1F34E01 		ubfx	r1, r1, #1, #15
 1445              	.LVL138:
 1446              		.loc 1 1045 0
 1447 001e 48F6FF73 		movw	r3, #36863
 1448 0022 0C58     		ldr	r4, [r1, r0]
 1449 0024 2340     		ands	r3, r3, r4
 1450 0026 0B50     		str	r3, [r1, r0]
 1451              		.loc 1 1048 0
 1452 0028 1202     		lsls	r2, r2, #8
 1453              	.LVL139:
 1454 002a 0B58     		ldr	r3, [r1, r0]
 1455              		.loc 1 1050 0
 1456 002c 5DF8044B 		ldr	r4, [sp], #4
 1457              		.loc 1 1048 0
 1458 0030 92B2     		uxth	r2, r2
 1459 0032 1A43     		orrs	r2, r2, r3
 1460 0034 0A50     		str	r2, [r1, r0]
ARM GAS  C:\Users\jsyoon\AppData\Local\Temp\ccDGobdh.s 			page 27


 1461              		.loc 1 1050 0
 1462 0036 7047     		bx	lr
 1463              	.LVL140:
 1464              	.L96:
 1465              		.loc 1 1032 0
 1466 0038 4908     		lsrs	r1, r1, #1
 1467              	.LVL141:
 1468              		.loc 1 1035 0
 1469 003a 4FF68F73 		movw	r3, #65423
 1470 003e 4458     		ldr	r4, [r0, r1]
 1471 0040 2340     		ands	r3, r3, r4
 1472 0042 4350     		str	r3, [r0, r1]
 1473              		.loc 1 1038 0
 1474 0044 4358     		ldr	r3, [r0, r1]
 1475              		.loc 1 1050 0
 1476 0046 5DF8044B 		ldr	r4, [sp], #4
 1477              		.loc 1 1038 0
 1478 004a 1A43     		orrs	r2, r2, r3
 1479              	.LVL142:
 1480 004c 4250     		str	r2, [r0, r1]
 1481              		.loc 1 1050 0
 1482 004e 7047     		bx	lr
 1483              		.cfi_endproc
 1484              	.LFE131:
 1485              		.size	TIM_SelectOCxM, .-TIM_SelectOCxM
 1486              		.section	.text.TIM_SetCompare1,"ax",%progbits
 1487              		.align	2
 1488              		.p2align 4,,15
 1489              		.global	TIM_SetCompare1
 1490              		.thumb
 1491              		.thumb_func
 1492              		.type	TIM_SetCompare1, %function
 1493              	TIM_SetCompare1:
 1494              	.LFB132:
 1495              		.loc 1 1059 0
 1496              		.cfi_startproc
 1497              		@ args = 0, pretend = 0, frame = 0
 1498              		@ frame_needed = 0, uses_anonymous_args = 0
 1499              		@ link register save eliminated.
 1500              	.LVL143:
 1501              		.loc 1 1064 0
 1502 0000 4163     		str	r1, [r0, #52]
 1503 0002 7047     		bx	lr
 1504              		.cfi_endproc
 1505              	.LFE132:
 1506              		.size	TIM_SetCompare1, .-TIM_SetCompare1
 1507 0004 AFF30080 		.section	.text.TIM_SetCompare2,"ax",%progbits
 1507      AFF30080 
 1507      AFF30080 
 1508              		.align	2
 1509              		.p2align 4,,15
 1510              		.global	TIM_SetCompare2
 1511              		.thumb
 1512              		.thumb_func
 1513              		.type	TIM_SetCompare2, %function
 1514              	TIM_SetCompare2:
 1515              	.LFB133:
ARM GAS  C:\Users\jsyoon\AppData\Local\Temp\ccDGobdh.s 			page 28


 1516              		.loc 1 1075 0
 1517              		.cfi_startproc
 1518              		@ args = 0, pretend = 0, frame = 0
 1519              		@ frame_needed = 0, uses_anonymous_args = 0
 1520              		@ link register save eliminated.
 1521              	.LVL144:
 1522              		.loc 1 1080 0
 1523 0000 8163     		str	r1, [r0, #56]
 1524 0002 7047     		bx	lr
 1525              		.cfi_endproc
 1526              	.LFE133:
 1527              		.size	TIM_SetCompare2, .-TIM_SetCompare2
 1528 0004 AFF30080 		.section	.text.TIM_SetCompare3,"ax",%progbits
 1528      AFF30080 
 1528      AFF30080 
 1529              		.align	2
 1530              		.p2align 4,,15
 1531              		.global	TIM_SetCompare3
 1532              		.thumb
 1533              		.thumb_func
 1534              		.type	TIM_SetCompare3, %function
 1535              	TIM_SetCompare3:
 1536              	.LFB134:
 1537              		.loc 1 1090 0
 1538              		.cfi_startproc
 1539              		@ args = 0, pretend = 0, frame = 0
 1540              		@ frame_needed = 0, uses_anonymous_args = 0
 1541              		@ link register save eliminated.
 1542              	.LVL145:
 1543              		.loc 1 1095 0
 1544 0000 C163     		str	r1, [r0, #60]
 1545 0002 7047     		bx	lr
 1546              		.cfi_endproc
 1547              	.LFE134:
 1548              		.size	TIM_SetCompare3, .-TIM_SetCompare3
 1549 0004 AFF30080 		.section	.text.TIM_SetCompare4,"ax",%progbits
 1549      AFF30080 
 1549      AFF30080 
 1550              		.align	2
 1551              		.p2align 4,,15
 1552              		.global	TIM_SetCompare4
 1553              		.thumb
 1554              		.thumb_func
 1555              		.type	TIM_SetCompare4, %function
 1556              	TIM_SetCompare4:
 1557              	.LFB135:
 1558              		.loc 1 1105 0
 1559              		.cfi_startproc
 1560              		@ args = 0, pretend = 0, frame = 0
 1561              		@ frame_needed = 0, uses_anonymous_args = 0
 1562              		@ link register save eliminated.
 1563              	.LVL146:
 1564              		.loc 1 1110 0
 1565 0000 0164     		str	r1, [r0, #64]
 1566 0002 7047     		bx	lr
 1567              		.cfi_endproc
 1568              	.LFE135:
ARM GAS  C:\Users\jsyoon\AppData\Local\Temp\ccDGobdh.s 			page 29


 1569              		.size	TIM_SetCompare4, .-TIM_SetCompare4
 1570 0004 AFF30080 		.section	.text.TIM_ForcedOC1Config,"ax",%progbits
 1570      AFF30080 
 1570      AFF30080 
 1571              		.align	2
 1572              		.p2align 4,,15
 1573              		.global	TIM_ForcedOC1Config
 1574              		.thumb
 1575              		.thumb_func
 1576              		.type	TIM_ForcedOC1Config, %function
 1577              	TIM_ForcedOC1Config:
 1578              	.LFB136:
 1579              		.loc 1 1123 0
 1580              		.cfi_startproc
 1581              		@ args = 0, pretend = 0, frame = 0
 1582              		@ frame_needed = 0, uses_anonymous_args = 0
 1583              		@ link register save eliminated.
 1584              	.LVL147:
 1585              		.loc 1 1129 0
 1586 0000 038B     		ldrh	r3, [r0, #24]
 1587              	.LVL148:
 1588              		.loc 1 1132 0
 1589 0002 23F07003 		bic	r3, r3, #112
 1590              	.LVL149:
 1591 0006 1B04     		lsls	r3, r3, #16
 1592 0008 1B0C     		lsrs	r3, r3, #16
 1593              	.LVL150:
 1594              		.loc 1 1135 0
 1595 000a 1943     		orrs	r1, r1, r3
 1596              	.LVL151:
 1597              		.loc 1 1138 0
 1598 000c 0183     		strh	r1, [r0, #24]	@ movhi
 1599 000e 7047     		bx	lr
 1600              		.cfi_endproc
 1601              	.LFE136:
 1602              		.size	TIM_ForcedOC1Config, .-TIM_ForcedOC1Config
 1603              		.section	.text.TIM_ForcedOC2Config,"ax",%progbits
 1604              		.align	2
 1605              		.p2align 4,,15
 1606              		.global	TIM_ForcedOC2Config
 1607              		.thumb
 1608              		.thumb_func
 1609              		.type	TIM_ForcedOC2Config, %function
 1610              	TIM_ForcedOC2Config:
 1611              	.LFB137:
 1612              		.loc 1 1152 0
 1613              		.cfi_startproc
 1614              		@ args = 0, pretend = 0, frame = 0
 1615              		@ frame_needed = 0, uses_anonymous_args = 0
 1616              		@ link register save eliminated.
 1617              	.LVL152:
 1618              		.loc 1 1158 0
 1619 0000 038B     		ldrh	r3, [r0, #24]
 1620              	.LVL153:
 1621              		.loc 1 1161 0
 1622 0002 23F4E043 		bic	r3, r3, #28672
 1623              	.LVL154:
ARM GAS  C:\Users\jsyoon\AppData\Local\Temp\ccDGobdh.s 			page 30


 1624 0006 1B04     		lsls	r3, r3, #16
 1625 0008 1B0C     		lsrs	r3, r3, #16
 1626              	.LVL155:
 1627              		.loc 1 1164 0
 1628 000a 43EA0121 		orr	r1, r3, r1, lsl #8
 1629              	.LVL156:
 1630 000e 8BB2     		uxth	r3, r1
 1631              	.LVL157:
 1632              		.loc 1 1167 0
 1633 0010 0383     		strh	r3, [r0, #24]	@ movhi
 1634 0012 7047     		bx	lr
 1635              		.cfi_endproc
 1636              	.LFE137:
 1637              		.size	TIM_ForcedOC2Config, .-TIM_ForcedOC2Config
 1638 0014 AFF30080 		.section	.text.TIM_ForcedOC3Config,"ax",%progbits
 1638      AFF30080 
 1638      AFF30080 
 1639              		.align	2
 1640              		.p2align 4,,15
 1641              		.global	TIM_ForcedOC3Config
 1642              		.thumb
 1643              		.thumb_func
 1644              		.type	TIM_ForcedOC3Config, %function
 1645              	TIM_ForcedOC3Config:
 1646              	.LFB138:
 1647              		.loc 1 1180 0
 1648              		.cfi_startproc
 1649              		@ args = 0, pretend = 0, frame = 0
 1650              		@ frame_needed = 0, uses_anonymous_args = 0
 1651              		@ link register save eliminated.
 1652              	.LVL158:
 1653              		.loc 1 1187 0
 1654 0000 838B     		ldrh	r3, [r0, #28]
 1655              	.LVL159:
 1656              		.loc 1 1190 0
 1657 0002 23F07003 		bic	r3, r3, #112
 1658              	.LVL160:
 1659 0006 1B04     		lsls	r3, r3, #16
 1660 0008 1B0C     		lsrs	r3, r3, #16
 1661              	.LVL161:
 1662              		.loc 1 1193 0
 1663 000a 1943     		orrs	r1, r1, r3
 1664              	.LVL162:
 1665              		.loc 1 1196 0
 1666 000c 8183     		strh	r1, [r0, #28]	@ movhi
 1667 000e 7047     		bx	lr
 1668              		.cfi_endproc
 1669              	.LFE138:
 1670              		.size	TIM_ForcedOC3Config, .-TIM_ForcedOC3Config
 1671              		.section	.text.TIM_ForcedOC4Config,"ax",%progbits
 1672              		.align	2
 1673              		.p2align 4,,15
 1674              		.global	TIM_ForcedOC4Config
 1675              		.thumb
 1676              		.thumb_func
 1677              		.type	TIM_ForcedOC4Config, %function
 1678              	TIM_ForcedOC4Config:
ARM GAS  C:\Users\jsyoon\AppData\Local\Temp\ccDGobdh.s 			page 31


 1679              	.LFB139:
 1680              		.loc 1 1209 0
 1681              		.cfi_startproc
 1682              		@ args = 0, pretend = 0, frame = 0
 1683              		@ frame_needed = 0, uses_anonymous_args = 0
 1684              		@ link register save eliminated.
 1685              	.LVL163:
 1686              		.loc 1 1215 0
 1687 0000 838B     		ldrh	r3, [r0, #28]
 1688              	.LVL164:
 1689              		.loc 1 1218 0
 1690 0002 23F4E043 		bic	r3, r3, #28672
 1691              	.LVL165:
 1692 0006 1B04     		lsls	r3, r3, #16
 1693 0008 1B0C     		lsrs	r3, r3, #16
 1694              	.LVL166:
 1695              		.loc 1 1221 0
 1696 000a 43EA0121 		orr	r1, r3, r1, lsl #8
 1697              	.LVL167:
 1698 000e 8BB2     		uxth	r3, r1
 1699              	.LVL168:
 1700              		.loc 1 1224 0
 1701 0010 8383     		strh	r3, [r0, #28]	@ movhi
 1702 0012 7047     		bx	lr
 1703              		.cfi_endproc
 1704              	.LFE139:
 1705              		.size	TIM_ForcedOC4Config, .-TIM_ForcedOC4Config
 1706 0014 AFF30080 		.section	.text.TIM_OC1PreloadConfig,"ax",%progbits
 1706      AFF30080 
 1706      AFF30080 
 1707              		.align	2
 1708              		.p2align 4,,15
 1709              		.global	TIM_OC1PreloadConfig
 1710              		.thumb
 1711              		.thumb_func
 1712              		.type	TIM_OC1PreloadConfig, %function
 1713              	TIM_OC1PreloadConfig:
 1714              	.LFB140:
 1715              		.loc 1 1237 0
 1716              		.cfi_startproc
 1717              		@ args = 0, pretend = 0, frame = 0
 1718              		@ frame_needed = 0, uses_anonymous_args = 0
 1719              		@ link register save eliminated.
 1720              	.LVL169:
 1721              		.loc 1 1244 0
 1722 0000 038B     		ldrh	r3, [r0, #24]
 1723              	.LVL170:
 1724              		.loc 1 1247 0
 1725 0002 23F00803 		bic	r3, r3, #8
 1726              	.LVL171:
 1727 0006 1B04     		lsls	r3, r3, #16
 1728 0008 1B0C     		lsrs	r3, r3, #16
 1729              	.LVL172:
 1730              		.loc 1 1250 0
 1731 000a 1943     		orrs	r1, r1, r3
 1732              	.LVL173:
 1733              		.loc 1 1253 0
ARM GAS  C:\Users\jsyoon\AppData\Local\Temp\ccDGobdh.s 			page 32


 1734 000c 0183     		strh	r1, [r0, #24]	@ movhi
 1735 000e 7047     		bx	lr
 1736              		.cfi_endproc
 1737              	.LFE140:
 1738              		.size	TIM_OC1PreloadConfig, .-TIM_OC1PreloadConfig
 1739              		.section	.text.TIM_OC2PreloadConfig,"ax",%progbits
 1740              		.align	2
 1741              		.p2align 4,,15
 1742              		.global	TIM_OC2PreloadConfig
 1743              		.thumb
 1744              		.thumb_func
 1745              		.type	TIM_OC2PreloadConfig, %function
 1746              	TIM_OC2PreloadConfig:
 1747              	.LFB141:
 1748              		.loc 1 1267 0
 1749              		.cfi_startproc
 1750              		@ args = 0, pretend = 0, frame = 0
 1751              		@ frame_needed = 0, uses_anonymous_args = 0
 1752              		@ link register save eliminated.
 1753              	.LVL174:
 1754              		.loc 1 1274 0
 1755 0000 038B     		ldrh	r3, [r0, #24]
 1756              	.LVL175:
 1757              		.loc 1 1277 0
 1758 0002 23F40063 		bic	r3, r3, #2048
 1759              	.LVL176:
 1760 0006 1B04     		lsls	r3, r3, #16
 1761 0008 1B0C     		lsrs	r3, r3, #16
 1762              	.LVL177:
 1763              		.loc 1 1280 0
 1764 000a 43EA0121 		orr	r1, r3, r1, lsl #8
 1765              	.LVL178:
 1766 000e 8BB2     		uxth	r3, r1
 1767              	.LVL179:
 1768              		.loc 1 1283 0
 1769 0010 0383     		strh	r3, [r0, #24]	@ movhi
 1770 0012 7047     		bx	lr
 1771              		.cfi_endproc
 1772              	.LFE141:
 1773              		.size	TIM_OC2PreloadConfig, .-TIM_OC2PreloadConfig
 1774 0014 AFF30080 		.section	.text.TIM_OC3PreloadConfig,"ax",%progbits
 1774      AFF30080 
 1774      AFF30080 
 1775              		.align	2
 1776              		.p2align 4,,15
 1777              		.global	TIM_OC3PreloadConfig
 1778              		.thumb
 1779              		.thumb_func
 1780              		.type	TIM_OC3PreloadConfig, %function
 1781              	TIM_OC3PreloadConfig:
 1782              	.LFB142:
 1783              		.loc 1 1296 0
 1784              		.cfi_startproc
 1785              		@ args = 0, pretend = 0, frame = 0
 1786              		@ frame_needed = 0, uses_anonymous_args = 0
 1787              		@ link register save eliminated.
 1788              	.LVL180:
ARM GAS  C:\Users\jsyoon\AppData\Local\Temp\ccDGobdh.s 			page 33


 1789              		.loc 1 1303 0
 1790 0000 838B     		ldrh	r3, [r0, #28]
 1791              	.LVL181:
 1792              		.loc 1 1306 0
 1793 0002 23F00803 		bic	r3, r3, #8
 1794              	.LVL182:
 1795 0006 1B04     		lsls	r3, r3, #16
 1796 0008 1B0C     		lsrs	r3, r3, #16
 1797              	.LVL183:
 1798              		.loc 1 1309 0
 1799 000a 1943     		orrs	r1, r1, r3
 1800              	.LVL184:
 1801              		.loc 1 1312 0
 1802 000c 8183     		strh	r1, [r0, #28]	@ movhi
 1803 000e 7047     		bx	lr
 1804              		.cfi_endproc
 1805              	.LFE142:
 1806              		.size	TIM_OC3PreloadConfig, .-TIM_OC3PreloadConfig
 1807              		.section	.text.TIM_OC4PreloadConfig,"ax",%progbits
 1808              		.align	2
 1809              		.p2align 4,,15
 1810              		.global	TIM_OC4PreloadConfig
 1811              		.thumb
 1812              		.thumb_func
 1813              		.type	TIM_OC4PreloadConfig, %function
 1814              	TIM_OC4PreloadConfig:
 1815              	.LFB143:
 1816              		.loc 1 1325 0
 1817              		.cfi_startproc
 1818              		@ args = 0, pretend = 0, frame = 0
 1819              		@ frame_needed = 0, uses_anonymous_args = 0
 1820              		@ link register save eliminated.
 1821              	.LVL185:
 1822              		.loc 1 1332 0
 1823 0000 838B     		ldrh	r3, [r0, #28]
 1824              	.LVL186:
 1825              		.loc 1 1335 0
 1826 0002 23F40063 		bic	r3, r3, #2048
 1827              	.LVL187:
 1828 0006 1B04     		lsls	r3, r3, #16
 1829 0008 1B0C     		lsrs	r3, r3, #16
 1830              	.LVL188:
 1831              		.loc 1 1338 0
 1832 000a 43EA0121 		orr	r1, r3, r1, lsl #8
 1833              	.LVL189:
 1834 000e 8BB2     		uxth	r3, r1
 1835              	.LVL190:
 1836              		.loc 1 1341 0
 1837 0010 8383     		strh	r3, [r0, #28]	@ movhi
 1838 0012 7047     		bx	lr
 1839              		.cfi_endproc
 1840              	.LFE143:
 1841              		.size	TIM_OC4PreloadConfig, .-TIM_OC4PreloadConfig
 1842 0014 AFF30080 		.section	.text.TIM_OC1FastConfig,"ax",%progbits
 1842      AFF30080 
 1842      AFF30080 
 1843              		.align	2
ARM GAS  C:\Users\jsyoon\AppData\Local\Temp\ccDGobdh.s 			page 34


 1844              		.p2align 4,,15
 1845              		.global	TIM_OC1FastConfig
 1846              		.thumb
 1847              		.thumb_func
 1848              		.type	TIM_OC1FastConfig, %function
 1849              	TIM_OC1FastConfig:
 1850              	.LFB144:
 1851              		.loc 1 1354 0
 1852              		.cfi_startproc
 1853              		@ args = 0, pretend = 0, frame = 0
 1854              		@ frame_needed = 0, uses_anonymous_args = 0
 1855              		@ link register save eliminated.
 1856              	.LVL191:
 1857              		.loc 1 1362 0
 1858 0000 038B     		ldrh	r3, [r0, #24]
 1859              	.LVL192:
 1860              		.loc 1 1365 0
 1861 0002 23F00403 		bic	r3, r3, #4
 1862              	.LVL193:
 1863 0006 1B04     		lsls	r3, r3, #16
 1864 0008 1B0C     		lsrs	r3, r3, #16
 1865              	.LVL194:
 1866              		.loc 1 1368 0
 1867 000a 1943     		orrs	r1, r1, r3
 1868              	.LVL195:
 1869              		.loc 1 1371 0
 1870 000c 0183     		strh	r1, [r0, #24]	@ movhi
 1871 000e 7047     		bx	lr
 1872              		.cfi_endproc
 1873              	.LFE144:
 1874              		.size	TIM_OC1FastConfig, .-TIM_OC1FastConfig
 1875              		.section	.text.TIM_OC2FastConfig,"ax",%progbits
 1876              		.align	2
 1877              		.p2align 4,,15
 1878              		.global	TIM_OC2FastConfig
 1879              		.thumb
 1880              		.thumb_func
 1881              		.type	TIM_OC2FastConfig, %function
 1882              	TIM_OC2FastConfig:
 1883              	.LFB145:
 1884              		.loc 1 1385 0
 1885              		.cfi_startproc
 1886              		@ args = 0, pretend = 0, frame = 0
 1887              		@ frame_needed = 0, uses_anonymous_args = 0
 1888              		@ link register save eliminated.
 1889              	.LVL196:
 1890              		.loc 1 1393 0
 1891 0000 038B     		ldrh	r3, [r0, #24]
 1892              	.LVL197:
 1893              		.loc 1 1396 0
 1894 0002 23F48063 		bic	r3, r3, #1024
 1895              	.LVL198:
 1896 0006 1B04     		lsls	r3, r3, #16
 1897 0008 1B0C     		lsrs	r3, r3, #16
 1898              	.LVL199:
 1899              		.loc 1 1399 0
 1900 000a 43EA0121 		orr	r1, r3, r1, lsl #8
ARM GAS  C:\Users\jsyoon\AppData\Local\Temp\ccDGobdh.s 			page 35


 1901              	.LVL200:
 1902 000e 8BB2     		uxth	r3, r1
 1903              	.LVL201:
 1904              		.loc 1 1402 0
 1905 0010 0383     		strh	r3, [r0, #24]	@ movhi
 1906 0012 7047     		bx	lr
 1907              		.cfi_endproc
 1908              	.LFE145:
 1909              		.size	TIM_OC2FastConfig, .-TIM_OC2FastConfig
 1910 0014 AFF30080 		.section	.text.TIM_OC3FastConfig,"ax",%progbits
 1910      AFF30080 
 1910      AFF30080 
 1911              		.align	2
 1912              		.p2align 4,,15
 1913              		.global	TIM_OC3FastConfig
 1914              		.thumb
 1915              		.thumb_func
 1916              		.type	TIM_OC3FastConfig, %function
 1917              	TIM_OC3FastConfig:
 1918              	.LFB146:
 1919              		.loc 1 1415 0
 1920              		.cfi_startproc
 1921              		@ args = 0, pretend = 0, frame = 0
 1922              		@ frame_needed = 0, uses_anonymous_args = 0
 1923              		@ link register save eliminated.
 1924              	.LVL202:
 1925              		.loc 1 1423 0
 1926 0000 838B     		ldrh	r3, [r0, #28]
 1927              	.LVL203:
 1928              		.loc 1 1426 0
 1929 0002 23F00403 		bic	r3, r3, #4
 1930              	.LVL204:
 1931 0006 1B04     		lsls	r3, r3, #16
 1932 0008 1B0C     		lsrs	r3, r3, #16
 1933              	.LVL205:
 1934              		.loc 1 1429 0
 1935 000a 1943     		orrs	r1, r1, r3
 1936              	.LVL206:
 1937              		.loc 1 1432 0
 1938 000c 8183     		strh	r1, [r0, #28]	@ movhi
 1939 000e 7047     		bx	lr
 1940              		.cfi_endproc
 1941              	.LFE146:
 1942              		.size	TIM_OC3FastConfig, .-TIM_OC3FastConfig
 1943              		.section	.text.TIM_OC4FastConfig,"ax",%progbits
 1944              		.align	2
 1945              		.p2align 4,,15
 1946              		.global	TIM_OC4FastConfig
 1947              		.thumb
 1948              		.thumb_func
 1949              		.type	TIM_OC4FastConfig, %function
 1950              	TIM_OC4FastConfig:
 1951              	.LFB147:
 1952              		.loc 1 1445 0
 1953              		.cfi_startproc
 1954              		@ args = 0, pretend = 0, frame = 0
 1955              		@ frame_needed = 0, uses_anonymous_args = 0
ARM GAS  C:\Users\jsyoon\AppData\Local\Temp\ccDGobdh.s 			page 36


 1956              		@ link register save eliminated.
 1957              	.LVL207:
 1958              		.loc 1 1453 0
 1959 0000 838B     		ldrh	r3, [r0, #28]
 1960              	.LVL208:
 1961              		.loc 1 1456 0
 1962 0002 23F48063 		bic	r3, r3, #1024
 1963              	.LVL209:
 1964 0006 1B04     		lsls	r3, r3, #16
 1965 0008 1B0C     		lsrs	r3, r3, #16
 1966              	.LVL210:
 1967              		.loc 1 1459 0
 1968 000a 43EA0121 		orr	r1, r3, r1, lsl #8
 1969              	.LVL211:
 1970 000e 8BB2     		uxth	r3, r1
 1971              	.LVL212:
 1972              		.loc 1 1462 0
 1973 0010 8383     		strh	r3, [r0, #28]	@ movhi
 1974 0012 7047     		bx	lr
 1975              		.cfi_endproc
 1976              	.LFE147:
 1977              		.size	TIM_OC4FastConfig, .-TIM_OC4FastConfig
 1978 0014 AFF30080 		.section	.text.TIM_ClearOC1Ref,"ax",%progbits
 1978      AFF30080 
 1978      AFF30080 
 1979              		.align	2
 1980              		.p2align 4,,15
 1981              		.global	TIM_ClearOC1Ref
 1982              		.thumb
 1983              		.thumb_func
 1984              		.type	TIM_ClearOC1Ref, %function
 1985              	TIM_ClearOC1Ref:
 1986              	.LFB148:
 1987              		.loc 1 1475 0
 1988              		.cfi_startproc
 1989              		@ args = 0, pretend = 0, frame = 0
 1990              		@ frame_needed = 0, uses_anonymous_args = 0
 1991              		@ link register save eliminated.
 1992              	.LVL213:
 1993              		.loc 1 1482 0
 1994 0000 038B     		ldrh	r3, [r0, #24]
 1995              	.LVL214:
 1996              		.loc 1 1485 0
 1997 0002 23F08003 		bic	r3, r3, #128
 1998              	.LVL215:
 1999 0006 1B04     		lsls	r3, r3, #16
 2000 0008 1B0C     		lsrs	r3, r3, #16
 2001              	.LVL216:
 2002              		.loc 1 1488 0
 2003 000a 1943     		orrs	r1, r1, r3
 2004              	.LVL217:
 2005              		.loc 1 1491 0
 2006 000c 0183     		strh	r1, [r0, #24]	@ movhi
 2007 000e 7047     		bx	lr
 2008              		.cfi_endproc
 2009              	.LFE148:
 2010              		.size	TIM_ClearOC1Ref, .-TIM_ClearOC1Ref
ARM GAS  C:\Users\jsyoon\AppData\Local\Temp\ccDGobdh.s 			page 37


 2011              		.section	.text.TIM_ClearOC2Ref,"ax",%progbits
 2012              		.align	2
 2013              		.p2align 4,,15
 2014              		.global	TIM_ClearOC2Ref
 2015              		.thumb
 2016              		.thumb_func
 2017              		.type	TIM_ClearOC2Ref, %function
 2018              	TIM_ClearOC2Ref:
 2019              	.LFB149:
 2020              		.loc 1 1505 0
 2021              		.cfi_startproc
 2022              		@ args = 0, pretend = 0, frame = 0
 2023              		@ frame_needed = 0, uses_anonymous_args = 0
 2024              		@ link register save eliminated.
 2025              	.LVL218:
 2026              		.loc 1 1512 0
 2027 0000 038B     		ldrh	r3, [r0, #24]
 2028              	.LVL219:
 2029              		.loc 1 1515 0
 2030 0002 C3F30E03 		ubfx	r3, r3, #0, #15
 2031              	.LVL220:
 2032              		.loc 1 1518 0
 2033 0006 43EA0121 		orr	r1, r3, r1, lsl #8
 2034              	.LVL221:
 2035 000a 8BB2     		uxth	r3, r1
 2036              	.LVL222:
 2037              		.loc 1 1521 0
 2038 000c 0383     		strh	r3, [r0, #24]	@ movhi
 2039 000e 7047     		bx	lr
 2040              		.cfi_endproc
 2041              	.LFE149:
 2042              		.size	TIM_ClearOC2Ref, .-TIM_ClearOC2Ref
 2043              		.section	.text.TIM_ClearOC3Ref,"ax",%progbits
 2044              		.align	2
 2045              		.p2align 4,,15
 2046              		.global	TIM_ClearOC3Ref
 2047              		.thumb
 2048              		.thumb_func
 2049              		.type	TIM_ClearOC3Ref, %function
 2050              	TIM_ClearOC3Ref:
 2051              	.LFB150:
 2052              		.loc 1 1534 0
 2053              		.cfi_startproc
 2054              		@ args = 0, pretend = 0, frame = 0
 2055              		@ frame_needed = 0, uses_anonymous_args = 0
 2056              		@ link register save eliminated.
 2057              	.LVL223:
 2058              		.loc 1 1541 0
 2059 0000 838B     		ldrh	r3, [r0, #28]
 2060              	.LVL224:
 2061              		.loc 1 1544 0
 2062 0002 23F08003 		bic	r3, r3, #128
 2063              	.LVL225:
 2064 0006 1B04     		lsls	r3, r3, #16
 2065 0008 1B0C     		lsrs	r3, r3, #16
 2066              	.LVL226:
 2067              		.loc 1 1547 0
ARM GAS  C:\Users\jsyoon\AppData\Local\Temp\ccDGobdh.s 			page 38


 2068 000a 1943     		orrs	r1, r1, r3
 2069              	.LVL227:
 2070              		.loc 1 1550 0
 2071 000c 8183     		strh	r1, [r0, #28]	@ movhi
 2072 000e 7047     		bx	lr
 2073              		.cfi_endproc
 2074              	.LFE150:
 2075              		.size	TIM_ClearOC3Ref, .-TIM_ClearOC3Ref
 2076              		.section	.text.TIM_ClearOC4Ref,"ax",%progbits
 2077              		.align	2
 2078              		.p2align 4,,15
 2079              		.global	TIM_ClearOC4Ref
 2080              		.thumb
 2081              		.thumb_func
 2082              		.type	TIM_ClearOC4Ref, %function
 2083              	TIM_ClearOC4Ref:
 2084              	.LFB151:
 2085              		.loc 1 1563 0
 2086              		.cfi_startproc
 2087              		@ args = 0, pretend = 0, frame = 0
 2088              		@ frame_needed = 0, uses_anonymous_args = 0
 2089              		@ link register save eliminated.
 2090              	.LVL228:
 2091              		.loc 1 1570 0
 2092 0000 838B     		ldrh	r3, [r0, #28]
 2093              	.LVL229:
 2094              		.loc 1 1573 0
 2095 0002 C3F30E03 		ubfx	r3, r3, #0, #15
 2096              	.LVL230:
 2097              		.loc 1 1576 0
 2098 0006 43EA0121 		orr	r1, r3, r1, lsl #8
 2099              	.LVL231:
 2100 000a 8BB2     		uxth	r3, r1
 2101              	.LVL232:
 2102              		.loc 1 1579 0
 2103 000c 8383     		strh	r3, [r0, #28]	@ movhi
 2104 000e 7047     		bx	lr
 2105              		.cfi_endproc
 2106              	.LFE151:
 2107              		.size	TIM_ClearOC4Ref, .-TIM_ClearOC4Ref
 2108              		.section	.text.TIM_OC1PolarityConfig,"ax",%progbits
 2109              		.align	2
 2110              		.p2align 4,,15
 2111              		.global	TIM_OC1PolarityConfig
 2112              		.thumb
 2113              		.thumb_func
 2114              		.type	TIM_OC1PolarityConfig, %function
 2115              	TIM_OC1PolarityConfig:
 2116              	.LFB152:
 2117              		.loc 1 1592 0
 2118              		.cfi_startproc
 2119              		@ args = 0, pretend = 0, frame = 0
 2120              		@ frame_needed = 0, uses_anonymous_args = 0
 2121              		@ link register save eliminated.
 2122              	.LVL233:
 2123              		.loc 1 1599 0
 2124 0000 038C     		ldrh	r3, [r0, #32]
ARM GAS  C:\Users\jsyoon\AppData\Local\Temp\ccDGobdh.s 			page 39


 2125              	.LVL234:
 2126              		.loc 1 1602 0
 2127 0002 23F00203 		bic	r3, r3, #2
 2128              	.LVL235:
 2129 0006 1B04     		lsls	r3, r3, #16
 2130 0008 1B0C     		lsrs	r3, r3, #16
 2131              	.LVL236:
 2132              		.loc 1 1603 0
 2133 000a 1943     		orrs	r1, r1, r3
 2134              	.LVL237:
 2135              		.loc 1 1606 0
 2136 000c 0184     		strh	r1, [r0, #32]	@ movhi
 2137 000e 7047     		bx	lr
 2138              		.cfi_endproc
 2139              	.LFE152:
 2140              		.size	TIM_OC1PolarityConfig, .-TIM_OC1PolarityConfig
 2141              		.section	.text.TIM_OC1NPolarityConfig,"ax",%progbits
 2142              		.align	2
 2143              		.p2align 4,,15
 2144              		.global	TIM_OC1NPolarityConfig
 2145              		.thumb
 2146              		.thumb_func
 2147              		.type	TIM_OC1NPolarityConfig, %function
 2148              	TIM_OC1NPolarityConfig:
 2149              	.LFB153:
 2150              		.loc 1 1619 0
 2151              		.cfi_startproc
 2152              		@ args = 0, pretend = 0, frame = 0
 2153              		@ frame_needed = 0, uses_anonymous_args = 0
 2154              		@ link register save eliminated.
 2155              	.LVL238:
 2156              		.loc 1 1625 0
 2157 0000 038C     		ldrh	r3, [r0, #32]
 2158              	.LVL239:
 2159              		.loc 1 1628 0
 2160 0002 23F00803 		bic	r3, r3, #8
 2161              	.LVL240:
 2162 0006 1B04     		lsls	r3, r3, #16
 2163 0008 1B0C     		lsrs	r3, r3, #16
 2164              	.LVL241:
 2165              		.loc 1 1629 0
 2166 000a 1943     		orrs	r1, r1, r3
 2167              	.LVL242:
 2168              		.loc 1 1632 0
 2169 000c 0184     		strh	r1, [r0, #32]	@ movhi
 2170 000e 7047     		bx	lr
 2171              		.cfi_endproc
 2172              	.LFE153:
 2173              		.size	TIM_OC1NPolarityConfig, .-TIM_OC1NPolarityConfig
 2174              		.section	.text.TIM_OC2PolarityConfig,"ax",%progbits
 2175              		.align	2
 2176              		.p2align 4,,15
 2177              		.global	TIM_OC2PolarityConfig
 2178              		.thumb
 2179              		.thumb_func
 2180              		.type	TIM_OC2PolarityConfig, %function
 2181              	TIM_OC2PolarityConfig:
ARM GAS  C:\Users\jsyoon\AppData\Local\Temp\ccDGobdh.s 			page 40


 2182              	.LFB154:
 2183              		.loc 1 1646 0
 2184              		.cfi_startproc
 2185              		@ args = 0, pretend = 0, frame = 0
 2186              		@ frame_needed = 0, uses_anonymous_args = 0
 2187              		@ link register save eliminated.
 2188              	.LVL243:
 2189              		.loc 1 1653 0
 2190 0000 038C     		ldrh	r3, [r0, #32]
 2191              	.LVL244:
 2192              		.loc 1 1656 0
 2193 0002 23F02003 		bic	r3, r3, #32
 2194              	.LVL245:
 2195 0006 1B04     		lsls	r3, r3, #16
 2196 0008 1B0C     		lsrs	r3, r3, #16
 2197              	.LVL246:
 2198              		.loc 1 1657 0
 2199 000a 43EA0111 		orr	r1, r3, r1, lsl #4
 2200              	.LVL247:
 2201 000e 8BB2     		uxth	r3, r1
 2202              	.LVL248:
 2203              		.loc 1 1660 0
 2204 0010 0384     		strh	r3, [r0, #32]	@ movhi
 2205 0012 7047     		bx	lr
 2206              		.cfi_endproc
 2207              	.LFE154:
 2208              		.size	TIM_OC2PolarityConfig, .-TIM_OC2PolarityConfig
 2209 0014 AFF30080 		.section	.text.TIM_OC2NPolarityConfig,"ax",%progbits
 2209      AFF30080 
 2209      AFF30080 
 2210              		.align	2
 2211              		.p2align 4,,15
 2212              		.global	TIM_OC2NPolarityConfig
 2213              		.thumb
 2214              		.thumb_func
 2215              		.type	TIM_OC2NPolarityConfig, %function
 2216              	TIM_OC2NPolarityConfig:
 2217              	.LFB155:
 2218              		.loc 1 1673 0
 2219              		.cfi_startproc
 2220              		@ args = 0, pretend = 0, frame = 0
 2221              		@ frame_needed = 0, uses_anonymous_args = 0
 2222              		@ link register save eliminated.
 2223              	.LVL249:
 2224              		.loc 1 1680 0
 2225 0000 038C     		ldrh	r3, [r0, #32]
 2226              	.LVL250:
 2227              		.loc 1 1683 0
 2228 0002 23F08003 		bic	r3, r3, #128
 2229              	.LVL251:
 2230 0006 1B04     		lsls	r3, r3, #16
 2231 0008 1B0C     		lsrs	r3, r3, #16
 2232              	.LVL252:
 2233              		.loc 1 1684 0
 2234 000a 43EA0111 		orr	r1, r3, r1, lsl #4
 2235              	.LVL253:
 2236 000e 8BB2     		uxth	r3, r1
ARM GAS  C:\Users\jsyoon\AppData\Local\Temp\ccDGobdh.s 			page 41


 2237              	.LVL254:
 2238              		.loc 1 1687 0
 2239 0010 0384     		strh	r3, [r0, #32]	@ movhi
 2240 0012 7047     		bx	lr
 2241              		.cfi_endproc
 2242              	.LFE155:
 2243              		.size	TIM_OC2NPolarityConfig, .-TIM_OC2NPolarityConfig
 2244 0014 AFF30080 		.section	.text.TIM_OC3PolarityConfig,"ax",%progbits
 2244      AFF30080 
 2244      AFF30080 
 2245              		.align	2
 2246              		.p2align 4,,15
 2247              		.global	TIM_OC3PolarityConfig
 2248              		.thumb
 2249              		.thumb_func
 2250              		.type	TIM_OC3PolarityConfig, %function
 2251              	TIM_OC3PolarityConfig:
 2252              	.LFB156:
 2253              		.loc 1 1700 0
 2254              		.cfi_startproc
 2255              		@ args = 0, pretend = 0, frame = 0
 2256              		@ frame_needed = 0, uses_anonymous_args = 0
 2257              		@ link register save eliminated.
 2258              	.LVL255:
 2259              		.loc 1 1707 0
 2260 0000 038C     		ldrh	r3, [r0, #32]
 2261              	.LVL256:
 2262              		.loc 1 1710 0
 2263 0002 23F40073 		bic	r3, r3, #512
 2264              	.LVL257:
 2265 0006 1B04     		lsls	r3, r3, #16
 2266 0008 1B0C     		lsrs	r3, r3, #16
 2267              	.LVL258:
 2268              		.loc 1 1711 0
 2269 000a 43EA0121 		orr	r1, r3, r1, lsl #8
 2270              	.LVL259:
 2271 000e 8BB2     		uxth	r3, r1
 2272              	.LVL260:
 2273              		.loc 1 1714 0
 2274 0010 0384     		strh	r3, [r0, #32]	@ movhi
 2275 0012 7047     		bx	lr
 2276              		.cfi_endproc
 2277              	.LFE156:
 2278              		.size	TIM_OC3PolarityConfig, .-TIM_OC3PolarityConfig
 2279 0014 AFF30080 		.section	.text.TIM_OC3NPolarityConfig,"ax",%progbits
 2279      AFF30080 
 2279      AFF30080 
 2280              		.align	2
 2281              		.p2align 4,,15
 2282              		.global	TIM_OC3NPolarityConfig
 2283              		.thumb
 2284              		.thumb_func
 2285              		.type	TIM_OC3NPolarityConfig, %function
 2286              	TIM_OC3NPolarityConfig:
 2287              	.LFB157:
 2288              		.loc 1 1727 0
 2289              		.cfi_startproc
ARM GAS  C:\Users\jsyoon\AppData\Local\Temp\ccDGobdh.s 			page 42


 2290              		@ args = 0, pretend = 0, frame = 0
 2291              		@ frame_needed = 0, uses_anonymous_args = 0
 2292              		@ link register save eliminated.
 2293              	.LVL261:
 2294              		.loc 1 1734 0
 2295 0000 038C     		ldrh	r3, [r0, #32]
 2296              	.LVL262:
 2297              		.loc 1 1737 0
 2298 0002 23F40063 		bic	r3, r3, #2048
 2299              	.LVL263:
 2300 0006 1B04     		lsls	r3, r3, #16
 2301 0008 1B0C     		lsrs	r3, r3, #16
 2302              	.LVL264:
 2303              		.loc 1 1738 0
 2304 000a 43EA0121 		orr	r1, r3, r1, lsl #8
 2305              	.LVL265:
 2306 000e 8BB2     		uxth	r3, r1
 2307              	.LVL266:
 2308              		.loc 1 1741 0
 2309 0010 0384     		strh	r3, [r0, #32]	@ movhi
 2310 0012 7047     		bx	lr
 2311              		.cfi_endproc
 2312              	.LFE157:
 2313              		.size	TIM_OC3NPolarityConfig, .-TIM_OC3NPolarityConfig
 2314 0014 AFF30080 		.section	.text.TIM_OC4PolarityConfig,"ax",%progbits
 2314      AFF30080 
 2314      AFF30080 
 2315              		.align	2
 2316              		.p2align 4,,15
 2317              		.global	TIM_OC4PolarityConfig
 2318              		.thumb
 2319              		.thumb_func
 2320              		.type	TIM_OC4PolarityConfig, %function
 2321              	TIM_OC4PolarityConfig:
 2322              	.LFB158:
 2323              		.loc 1 1754 0
 2324              		.cfi_startproc
 2325              		@ args = 0, pretend = 0, frame = 0
 2326              		@ frame_needed = 0, uses_anonymous_args = 0
 2327              		@ link register save eliminated.
 2328              	.LVL267:
 2329              		.loc 1 1761 0
 2330 0000 038C     		ldrh	r3, [r0, #32]
 2331              	.LVL268:
 2332              		.loc 1 1764 0
 2333 0002 23F40053 		bic	r3, r3, #8192
 2334              	.LVL269:
 2335 0006 1B04     		lsls	r3, r3, #16
 2336 0008 1B0C     		lsrs	r3, r3, #16
 2337              	.LVL270:
 2338              		.loc 1 1765 0
 2339 000a 43EA0131 		orr	r1, r3, r1, lsl #12
 2340              	.LVL271:
 2341 000e 8BB2     		uxth	r3, r1
 2342              	.LVL272:
 2343              		.loc 1 1768 0
 2344 0010 0384     		strh	r3, [r0, #32]	@ movhi
ARM GAS  C:\Users\jsyoon\AppData\Local\Temp\ccDGobdh.s 			page 43


 2345 0012 7047     		bx	lr
 2346              		.cfi_endproc
 2347              	.LFE158:
 2348              		.size	TIM_OC4PolarityConfig, .-TIM_OC4PolarityConfig
 2349 0014 AFF30080 		.section	.text.TIM_CCxCmd,"ax",%progbits
 2349      AFF30080 
 2349      AFF30080 
 2350              		.align	2
 2351              		.p2align 4,,15
 2352              		.global	TIM_CCxCmd
 2353              		.thumb
 2354              		.thumb_func
 2355              		.type	TIM_CCxCmd, %function
 2356              	TIM_CCxCmd:
 2357              	.LFB159:
 2358              		.loc 1 1785 0
 2359              		.cfi_startproc
 2360              		@ args = 0, pretend = 0, frame = 0
 2361              		@ frame_needed = 0, uses_anonymous_args = 0
 2362              		@ link register save eliminated.
 2363              	.LVL273:
 2364              		.loc 1 1796 0
 2365 0000 038C     		ldrh	r3, [r0, #32]
 2366              		.loc 1 1785 0
 2367 0002 10B4     		push	{r4}
 2368              		.cfi_def_cfa_offset 4
 2369              		.cfi_offset 4, -4
 2370              		.loc 1 1793 0
 2371 0004 0124     		movs	r4, #1
 2372 0006 8C40     		lsls	r4, r4, r1
 2373              		.loc 1 1796 0
 2374 0008 9BB2     		uxth	r3, r3
 2375 000a 23EA0403 		bic	r3, r3, r4
 2376 000e 0384     		strh	r3, [r0, #32]	@ movhi
 2377              		.loc 1 1799 0
 2378 0010 038C     		ldrh	r3, [r0, #32]
 2379              		.loc 1 1800 0
 2380 0012 5DF8044B 		ldr	r4, [sp], #4
 2381              		.loc 1 1799 0
 2382 0016 8A40     		lsls	r2, r2, r1
 2383              	.LVL274:
 2384 0018 1343     		orrs	r3, r3, r2
 2385 001a 9BB2     		uxth	r3, r3
 2386 001c 0384     		strh	r3, [r0, #32]	@ movhi
 2387              		.loc 1 1800 0
 2388 001e 7047     		bx	lr
 2389              		.cfi_endproc
 2390              	.LFE159:
 2391              		.size	TIM_CCxCmd, .-TIM_CCxCmd
 2392              		.section	.text.TIM_CCxNCmd,"ax",%progbits
 2393              		.align	2
 2394              		.p2align 4,,15
 2395              		.global	TIM_CCxNCmd
 2396              		.thumb
 2397              		.thumb_func
 2398              		.type	TIM_CCxNCmd, %function
 2399              	TIM_CCxNCmd:
ARM GAS  C:\Users\jsyoon\AppData\Local\Temp\ccDGobdh.s 			page 44


 2400              	.LFB160:
 2401              		.loc 1 1815 0
 2402              		.cfi_startproc
 2403              		@ args = 0, pretend = 0, frame = 0
 2404              		@ frame_needed = 0, uses_anonymous_args = 0
 2405              		@ link register save eliminated.
 2406              	.LVL275:
 2407              		.loc 1 1826 0
 2408 0000 038C     		ldrh	r3, [r0, #32]
 2409              		.loc 1 1815 0
 2410 0002 10B4     		push	{r4}
 2411              		.cfi_def_cfa_offset 4
 2412              		.cfi_offset 4, -4
 2413              		.loc 1 1823 0
 2414 0004 0424     		movs	r4, #4
 2415 0006 8C40     		lsls	r4, r4, r1
 2416              		.loc 1 1826 0
 2417 0008 9BB2     		uxth	r3, r3
 2418 000a 23EA0403 		bic	r3, r3, r4
 2419 000e 0384     		strh	r3, [r0, #32]	@ movhi
 2420              		.loc 1 1829 0
 2421 0010 038C     		ldrh	r3, [r0, #32]
 2422              		.loc 1 1830 0
 2423 0012 5DF8044B 		ldr	r4, [sp], #4
 2424              		.loc 1 1829 0
 2425 0016 8A40     		lsls	r2, r2, r1
 2426              	.LVL276:
 2427 0018 1343     		orrs	r3, r3, r2
 2428 001a 9BB2     		uxth	r3, r3
 2429 001c 0384     		strh	r3, [r0, #32]	@ movhi
 2430              		.loc 1 1830 0
 2431 001e 7047     		bx	lr
 2432              		.cfi_endproc
 2433              	.LFE160:
 2434              		.size	TIM_CCxNCmd, .-TIM_CCxNCmd
 2435              		.section	.text.TIM_ICInit,"ax",%progbits
 2436              		.align	2
 2437              		.p2align 4,,15
 2438              		.global	TIM_ICInit
 2439              		.thumb
 2440              		.thumb_func
 2441              		.type	TIM_ICInit, %function
 2442              	TIM_ICInit:
 2443              	.LFB161:
 2444              		.loc 1 1897 0
 2445              		.cfi_startproc
 2446              		@ args = 0, pretend = 0, frame = 0
 2447              		@ frame_needed = 0, uses_anonymous_args = 0
 2448              		@ link register save eliminated.
 2449              	.LVL277:
 2450              		.loc 1 1905 0
 2451 0000 0B88     		ldrh	r3, [r1]
 2452              		.loc 1 1897 0
 2453 0002 F0B4     		push	{r4, r5, r6, r7}
 2454              		.cfi_def_cfa_offset 16
 2455              		.cfi_offset 4, -16
 2456              		.cfi_offset 5, -12
ARM GAS  C:\Users\jsyoon\AppData\Local\Temp\ccDGobdh.s 			page 45


 2457              		.cfi_offset 6, -8
 2458              		.cfi_offset 7, -4
 2459              		.loc 1 1905 0
 2460 0004 002B     		cmp	r3, #0
 2461 0006 32D0     		beq	.L131
 2462              		.loc 1 1914 0
 2463 0008 042B     		cmp	r3, #4
 2464 000a 58D0     		beq	.L132
 2465              		.loc 1 1924 0
 2466 000c 082B     		cmp	r3, #8
 2467              	.LBB46:
 2468              	.LBB47:
 2469              		.loc 1 3286 0
 2470 000e 038C     		ldrh	r3, [r0, #32]
 2471              	.LBE47:
 2472              	.LBE46:
 2473              		.loc 1 1924 0
 2474 0010 00F08380 		beq	.L133
 2475              		.loc 1 1938 0
 2476 0014 4E88     		ldrh	r6, [r1, #2]
 2477 0016 8F88     		ldrh	r7, [r1, #4]
 2478 0018 0D89     		ldrh	r5, [r1, #8]
 2479              	.LVL278:
 2480              		.loc 1 1942 0
 2481 001a CC88     		ldrh	r4, [r1, #6]
 2482              	.LBB50:
 2483              	.LBB51:
 2484              		.loc 1 3327 0
 2485 001c 23F48051 		bic	r1, r3, #4096
 2486              	.LVL279:
 2487 0020 0904     		lsls	r1, r1, #16
 2488 0022 090C     		lsrs	r1, r1, #16
 2489 0024 0184     		strh	r1, [r0, #32]	@ movhi
 2490              		.loc 1 3328 0
 2491 0026 828B     		ldrh	r2, [r0, #28]
 2492              	.LVL280:
 2493              		.loc 1 3329 0
 2494 0028 038C     		ldrh	r3, [r0, #32]
 2495              	.LVL281:
 2496              		.loc 1 3333 0
 2497 002a 22F44072 		bic	r2, r2, #768
 2498              	.LVL282:
 2499              		.loc 1 3338 0
 2500 002e 23F40053 		bic	r3, r3, #8192
 2501              	.LVL283:
 2502              		.loc 1 3333 0
 2503 0032 1205     		lsls	r2, r2, #20
 2504              		.loc 1 3338 0
 2505 0034 5B04     		lsls	r3, r3, #17
 2506              		.loc 1 3333 0
 2507 0036 120D     		lsrs	r2, r2, #20
 2508              	.LVL284:
 2509              		.loc 1 3338 0
 2510 0038 5B0C     		lsrs	r3, r3, #17
 2511              		.loc 1 3334 0
 2512 003a 42EA0722 		orr	r2, r2, r7, lsl #8
 2513              	.LVL285:
ARM GAS  C:\Users\jsyoon\AppData\Local\Temp\ccDGobdh.s 			page 46


 2514              		.loc 1 3339 0
 2515 003e 43EA0633 		orr	r3, r3, r6, lsl #12
 2516              		.loc 1 3335 0
 2517 0042 42EA0532 		orr	r2, r2, r5, lsl #12
 2518              	.LVL286:
 2519              		.loc 1 3339 0
 2520 0046 9BB2     		uxth	r3, r3
 2521 0048 43F48053 		orr	r3, r3, #4096
 2522              		.loc 1 3335 0
 2523 004c 92B2     		uxth	r2, r2
 2524              	.LVL287:
 2525              		.loc 1 3342 0
 2526 004e 8283     		strh	r2, [r0, #28]	@ movhi
 2527              		.loc 1 3343 0
 2528 0050 0384     		strh	r3, [r0, #32]	@ movhi
 2529              	.LBE51:
 2530              	.LBE50:
 2531              	.LBB52:
 2532              	.LBB53:
 2533              		.loc 1 2171 0
 2534 0052 838B     		ldrh	r3, [r0, #28]
 2535              	.LVL288:
 2536 0054 23F44063 		bic	r3, r3, #3072
 2537 0058 1B04     		lsls	r3, r3, #16
 2538 005a 1B0C     		lsrs	r3, r3, #16
 2539 005c 8383     		strh	r3, [r0, #28]	@ movhi
 2540              		.loc 1 2174 0
 2541 005e 838B     		ldrh	r3, [r0, #28]
 2542 0060 9BB2     		uxth	r3, r3
 2543 0062 43EA0423 		orr	r3, r3, r4, lsl #8
 2544 0066 9BB2     		uxth	r3, r3
 2545 0068 8383     		strh	r3, [r0, #28]	@ movhi
 2546              	.LVL289:
 2547              	.L126:
 2548              	.LBE53:
 2549              	.LBE52:
 2550              		.loc 1 1944 0
 2551 006a F0BC     		pop	{r4, r5, r6, r7}
 2552 006c 7047     		bx	lr
 2553              	.LVL290:
 2554              	.L131:
 2555              	.LBB54:
 2556              	.LBB55:
 2557              		.loc 1 3203 0
 2558 006e 028C     		ldrh	r2, [r0, #32]
 2559              	.LBE55:
 2560              	.LBE54:
 2561              		.loc 1 1908 0
 2562 0070 8D88     		ldrh	r5, [r1, #4]
 2563 0072 0E89     		ldrh	r6, [r1, #8]
 2564              	.LVL291:
 2565 0074 4C88     		ldrh	r4, [r1, #2]
 2566              	.LVL292:
 2567              		.loc 1 1912 0
 2568 0076 C988     		ldrh	r1, [r1, #6]
 2569              	.LVL293:
 2570              	.LBB57:
ARM GAS  C:\Users\jsyoon\AppData\Local\Temp\ccDGobdh.s 			page 47


 2571              	.LBB56:
 2572              		.loc 1 3203 0
 2573 0078 22F00102 		bic	r2, r2, #1
 2574 007c 1204     		lsls	r2, r2, #16
 2575 007e 120C     		lsrs	r2, r2, #16
 2576 0080 0284     		strh	r2, [r0, #32]	@ movhi
 2577              		.loc 1 3204 0
 2578 0082 028B     		ldrh	r2, [r0, #24]
 2579              		.loc 1 3205 0
 2580 0084 038C     		ldrh	r3, [r0, #32]
 2581              		.loc 1 3204 0
 2582 0086 92B2     		uxth	r2, r2
 2583              	.LVL294:
 2584              		.loc 1 3208 0
 2585 0088 22F0F302 		bic	r2, r2, #243
 2586              	.LVL295:
 2587              		.loc 1 3212 0
 2588 008c 23F00A03 		bic	r3, r3, #10
 2589              	.LVL296:
 2590              		.loc 1 3209 0
 2591 0090 42EA0612 		orr	r2, r2, r6, lsl #4
 2592              		.loc 1 3212 0
 2593 0094 1B04     		lsls	r3, r3, #16
 2594              		.loc 1 3213 0
 2595 0096 44F00104 		orr	r4, r4, #1
 2596              	.LVL297:
 2597              		.loc 1 3209 0
 2598 009a 92B2     		uxth	r2, r2
 2599              		.loc 1 3212 0
 2600 009c 1B0C     		lsrs	r3, r3, #16
 2601              		.loc 1 3213 0
 2602 009e 2343     		orrs	r3, r3, r4
 2603              		.loc 1 3209 0
 2604 00a0 2A43     		orrs	r2, r2, r5
 2605              	.LVL298:
 2606              		.loc 1 3216 0
 2607 00a2 0283     		strh	r2, [r0, #24]	@ movhi
 2608              		.loc 1 3217 0
 2609 00a4 0384     		strh	r3, [r0, #32]	@ movhi
 2610              	.LBE56:
 2611              	.LBE57:
 2612              	.LBB58:
 2613              	.LBB59:
 2614              		.loc 1 2098 0
 2615 00a6 038B     		ldrh	r3, [r0, #24]
 2616              	.LVL299:
 2617 00a8 23F00C03 		bic	r3, r3, #12
 2618 00ac 1B04     		lsls	r3, r3, #16
 2619 00ae 1B0C     		lsrs	r3, r3, #16
 2620 00b0 0383     		strh	r3, [r0, #24]	@ movhi
 2621              		.loc 1 2101 0
 2622 00b2 038B     		ldrh	r3, [r0, #24]
 2623 00b4 9BB2     		uxth	r3, r3
 2624 00b6 0B43     		orrs	r3, r3, r1
 2625 00b8 0383     		strh	r3, [r0, #24]	@ movhi
 2626              	.LVL300:
 2627              	.LBE59:
ARM GAS  C:\Users\jsyoon\AppData\Local\Temp\ccDGobdh.s 			page 48


 2628              	.LBE58:
 2629              		.loc 1 1944 0
 2630 00ba F0BC     		pop	{r4, r5, r6, r7}
 2631              	.LVL301:
 2632 00bc 7047     		bx	lr
 2633              	.LVL302:
 2634              	.L132:
 2635              	.LBB60:
 2636              	.LBB61:
 2637              		.loc 1 3244 0
 2638 00be 028C     		ldrh	r2, [r0, #32]
 2639              	.LBE61:
 2640              	.LBE60:
 2641              		.loc 1 1918 0
 2642 00c0 4E88     		ldrh	r6, [r1, #2]
 2643 00c2 8C88     		ldrh	r4, [r1, #4]
 2644 00c4 0F89     		ldrh	r7, [r1, #8]
 2645              	.LVL303:
 2646              		.loc 1 1922 0
 2647 00c6 C988     		ldrh	r1, [r1, #6]
 2648              	.LVL304:
 2649              	.LBB63:
 2650              	.LBB62:
 2651              		.loc 1 3244 0
 2652 00c8 22F01002 		bic	r2, r2, #16
 2653 00cc 1204     		lsls	r2, r2, #16
 2654 00ce 120C     		lsrs	r2, r2, #16
 2655 00d0 0284     		strh	r2, [r0, #32]	@ movhi
 2656              		.loc 1 3245 0
 2657 00d2 038B     		ldrh	r3, [r0, #24]
 2658              	.LVL305:
 2659              		.loc 1 3246 0
 2660 00d4 058C     		ldrh	r5, [r0, #32]
 2661              		.loc 1 3250 0
 2662 00d6 23F44073 		bic	r3, r3, #768
 2663              	.LVL306:
 2664 00da 1B05     		lsls	r3, r3, #20
 2665 00dc 1B0D     		lsrs	r3, r3, #20
 2666              		.loc 1 3246 0
 2667 00de ADB2     		uxth	r5, r5
 2668              	.LVL307:
 2669              		.loc 1 3251 0
 2670 00e0 43EA0732 		orr	r2, r3, r7, lsl #12
 2671              		.loc 1 3255 0
 2672 00e4 25F0A005 		bic	r5, r5, #160
 2673              	.LVL308:
 2674              		.loc 1 3256 0
 2675 00e8 45EA0613 		orr	r3, r5, r6, lsl #4
 2676              	.LVL309:
 2677              		.loc 1 3251 0
 2678 00ec 92B2     		uxth	r2, r2
 2679              	.LVL310:
 2680              		.loc 1 3252 0
 2681 00ee 42EA0422 		orr	r2, r2, r4, lsl #8
 2682              	.LVL311:
 2683              		.loc 1 3256 0
 2684 00f2 9BB2     		uxth	r3, r3
ARM GAS  C:\Users\jsyoon\AppData\Local\Temp\ccDGobdh.s 			page 49


 2685 00f4 43F01003 		orr	r3, r3, #16
 2686              		.loc 1 3252 0
 2687 00f8 92B2     		uxth	r2, r2
 2688              	.LVL312:
 2689              		.loc 1 3259 0
 2690 00fa 0283     		strh	r2, [r0, #24]	@ movhi
 2691              		.loc 1 3260 0
 2692 00fc 0384     		strh	r3, [r0, #32]	@ movhi
 2693              	.LBE62:
 2694              	.LBE63:
 2695              	.LBB64:
 2696              	.LBB65:
 2697              		.loc 1 2123 0
 2698 00fe 038B     		ldrh	r3, [r0, #24]
 2699              	.LVL313:
 2700 0100 23F44063 		bic	r3, r3, #3072
 2701 0104 1B04     		lsls	r3, r3, #16
 2702 0106 1B0C     		lsrs	r3, r3, #16
 2703 0108 0383     		strh	r3, [r0, #24]	@ movhi
 2704              		.loc 1 2126 0
 2705 010a 038B     		ldrh	r3, [r0, #24]
 2706 010c 9BB2     		uxth	r3, r3
 2707 010e 43EA0123 		orr	r3, r3, r1, lsl #8
 2708 0112 9BB2     		uxth	r3, r3
 2709 0114 0383     		strh	r3, [r0, #24]	@ movhi
 2710              	.LBE65:
 2711              	.LBE64:
 2712              		.loc 1 1944 0
 2713 0116 F0BC     		pop	{r4, r5, r6, r7}
 2714              	.LVL314:
 2715 0118 7047     		bx	lr
 2716              	.LVL315:
 2717              	.L133:
 2718              	.LBB66:
 2719              	.LBB48:
 2720              		.loc 1 3286 0
 2721 011a 23F48073 		bic	r3, r3, #256
 2722 011e 1B04     		lsls	r3, r3, #16
 2723 0120 1B0C     		lsrs	r3, r3, #16
 2724              	.LBE48:
 2725              	.LBE66:
 2726              		.loc 1 1928 0
 2727 0122 4D88     		ldrh	r5, [r1, #2]
 2728 0124 8C88     		ldrh	r4, [r1, #4]
 2729 0126 0E89     		ldrh	r6, [r1, #8]
 2730              	.LVL316:
 2731              		.loc 1 1932 0
 2732 0128 CA88     		ldrh	r2, [r1, #6]
 2733              	.LBB67:
 2734              	.LBB49:
 2735              		.loc 1 3286 0
 2736 012a 0384     		strh	r3, [r0, #32]	@ movhi
 2737              		.loc 1 3287 0
 2738 012c 818B     		ldrh	r1, [r0, #28]
 2739              	.LVL317:
 2740              		.loc 1 3288 0
 2741 012e 038C     		ldrh	r3, [r0, #32]
ARM GAS  C:\Users\jsyoon\AppData\Local\Temp\ccDGobdh.s 			page 50


 2742              		.loc 1 3287 0
 2743 0130 89B2     		uxth	r1, r1
 2744              	.LVL318:
 2745              		.loc 1 3288 0
 2746 0132 9BB2     		uxth	r3, r3
 2747              	.LVL319:
 2748              		.loc 1 3292 0
 2749 0134 21F0F301 		bic	r1, r1, #243
 2750              	.LVL320:
 2751              		.loc 1 3296 0
 2752 0138 23F42063 		bic	r3, r3, #2560
 2753              	.LVL321:
 2754              		.loc 1 3293 0
 2755 013c 41EA0611 		orr	r1, r1, r6, lsl #4
 2756              		.loc 1 3297 0
 2757 0140 43EA0523 		orr	r3, r3, r5, lsl #8
 2758              		.loc 1 3293 0
 2759 0144 89B2     		uxth	r1, r1
 2760              		.loc 1 3297 0
 2761 0146 9BB2     		uxth	r3, r3
 2762 0148 43F48073 		orr	r3, r3, #256
 2763              		.loc 1 3293 0
 2764 014c 2143     		orrs	r1, r1, r4
 2765              	.LVL322:
 2766              		.loc 1 3300 0
 2767 014e 8183     		strh	r1, [r0, #28]	@ movhi
 2768              		.loc 1 3301 0
 2769 0150 0384     		strh	r3, [r0, #32]	@ movhi
 2770              	.LBE49:
 2771              	.LBE67:
 2772              	.LBB68:
 2773              	.LBB69:
 2774              		.loc 1 2147 0
 2775 0152 838B     		ldrh	r3, [r0, #28]
 2776              	.LVL323:
 2777 0154 23F00C03 		bic	r3, r3, #12
 2778 0158 1B04     		lsls	r3, r3, #16
 2779 015a 1B0C     		lsrs	r3, r3, #16
 2780 015c 8383     		strh	r3, [r0, #28]	@ movhi
 2781              		.loc 1 2150 0
 2782 015e 838B     		ldrh	r3, [r0, #28]
 2783 0160 9BB2     		uxth	r3, r3
 2784 0162 1343     		orrs	r3, r3, r2
 2785 0164 8383     		strh	r3, [r0, #28]	@ movhi
 2786 0166 80E7     		b	.L126
 2787              	.LBE69:
 2788              	.LBE68:
 2789              		.cfi_endproc
 2790              	.LFE161:
 2791              		.size	TIM_ICInit, .-TIM_ICInit
 2792 0168 AFF30080 		.section	.text.TIM_ICStructInit,"ax",%progbits
 2792      AFF30080 
 2793              		.align	2
 2794              		.p2align 4,,15
 2795              		.global	TIM_ICStructInit
 2796              		.thumb
 2797              		.thumb_func
ARM GAS  C:\Users\jsyoon\AppData\Local\Temp\ccDGobdh.s 			page 51


 2798              		.type	TIM_ICStructInit, %function
 2799              	TIM_ICStructInit:
 2800              	.LFB162:
 2801              		.loc 1 1953 0
 2802              		.cfi_startproc
 2803              		@ args = 0, pretend = 0, frame = 0
 2804              		@ frame_needed = 0, uses_anonymous_args = 0
 2805              		@ link register save eliminated.
 2806              	.LVL324:
 2807              		.loc 1 1955 0
 2808 0000 0023     		movs	r3, #0
 2809              		.loc 1 1957 0
 2810 0002 0122     		movs	r2, #1
 2811 0004 8280     		strh	r2, [r0, #4]	@ movhi
 2812              		.loc 1 1955 0
 2813 0006 0380     		strh	r3, [r0]	@ movhi
 2814              		.loc 1 1956 0
 2815 0008 4380     		strh	r3, [r0, #2]	@ movhi
 2816              		.loc 1 1958 0
 2817 000a C380     		strh	r3, [r0, #6]	@ movhi
 2818              		.loc 1 1959 0
 2819 000c 0381     		strh	r3, [r0, #8]	@ movhi
 2820 000e 7047     		bx	lr
 2821              		.cfi_endproc
 2822              	.LFE162:
 2823              		.size	TIM_ICStructInit, .-TIM_ICStructInit
 2824              		.section	.text.TIM_PWMIConfig,"ax",%progbits
 2825              		.align	2
 2826              		.p2align 4,,15
 2827              		.global	TIM_PWMIConfig
 2828              		.thumb
 2829              		.thumb_func
 2830              		.type	TIM_PWMIConfig, %function
 2831              	TIM_PWMIConfig:
 2832              	.LFB163:
 2833              		.loc 1 1972 0
 2834              		.cfi_startproc
 2835              		@ args = 0, pretend = 0, frame = 0
 2836              		@ frame_needed = 0, uses_anonymous_args = 0
 2837              		@ link register save eliminated.
 2838              	.LVL325:
 2839 0000 F0B4     		push	{r4, r5, r6, r7}
 2840              		.cfi_def_cfa_offset 16
 2841              		.cfi_offset 4, -16
 2842              		.cfi_offset 5, -12
 2843              		.cfi_offset 6, -8
 2844              		.cfi_offset 7, -4
 2845              		.loc 1 1980 0
 2846 0002 4D88     		ldrh	r5, [r1, #2]
 2847              		.loc 1 1989 0
 2848 0004 8C88     		ldrh	r4, [r1, #4]
 2849              		.loc 1 1997 0
 2850 0006 0B88     		ldrh	r3, [r1]
 2851              		.loc 1 2000 0
 2852 0008 B1F808C0 		ldrh	ip, [r1, #8]
 2853              	.LBB70:
 2854              	.LBB71:
ARM GAS  C:\Users\jsyoon\AppData\Local\Temp\ccDGobdh.s 			page 52


 2855              		.loc 1 3203 0
 2856 000c 028C     		ldrh	r2, [r0, #32]
 2857              	.LBE71:
 2858              	.LBE70:
 2859              		.loc 1 2003 0
 2860 000e C988     		ldrh	r1, [r1, #6]
 2861              	.LVL326:
 2862              		.loc 1 1980 0
 2863 0010 002D     		cmp	r5, #0
 2864              		.loc 1 1982 0
 2865 0012 14BF     		ite	ne
 2866 0014 0026     		movne	r6, #0
 2867 0016 0226     		moveq	r6, #2
 2868              	.LVL327:
 2869              		.loc 1 1989 0
 2870 0018 012C     		cmp	r4, #1
 2871              		.loc 1 1991 0
 2872 001a 14BF     		ite	ne
 2873 001c 0127     		movne	r7, #1
 2874 001e 0227     		moveq	r7, #2
 2875              	.LVL328:
 2876              		.loc 1 1997 0
 2877 0020 002B     		cmp	r3, #0
 2878 0022 4BD0     		beq	.L142
 2879              	.LBB73:
 2880              	.LBB74:
 2881              		.loc 1 3244 0
 2882 0024 22F01002 		bic	r2, r2, #16
 2883 0028 1204     		lsls	r2, r2, #16
 2884 002a 120C     		lsrs	r2, r2, #16
 2885 002c 0284     		strh	r2, [r0, #32]	@ movhi
 2886              		.loc 1 3245 0
 2887 002e 038B     		ldrh	r3, [r0, #24]
 2888              	.LVL329:
 2889              		.loc 1 3246 0
 2890 0030 028C     		ldrh	r2, [r0, #32]
 2891              		.loc 1 3250 0
 2892 0032 23F44073 		bic	r3, r3, #768
 2893              	.LVL330:
 2894 0036 1B05     		lsls	r3, r3, #20
 2895 0038 1B0D     		lsrs	r3, r3, #20
 2896              		.loc 1 3246 0
 2897 003a 92B2     		uxth	r2, r2
 2898              	.LVL331:
 2899              		.loc 1 3251 0
 2900 003c 43EA0C33 		orr	r3, r3, ip, lsl #12
 2901              	.LVL332:
 2902              		.loc 1 3255 0
 2903 0040 22F0A002 		bic	r2, r2, #160
 2904              	.LVL333:
 2905              		.loc 1 3251 0
 2906 0044 9BB2     		uxth	r3, r3
 2907              	.LVL334:
 2908              		.loc 1 3256 0
 2909 0046 42EA0515 		orr	r5, r2, r5, lsl #4
 2910              	.LVL335:
 2911              		.loc 1 3252 0
ARM GAS  C:\Users\jsyoon\AppData\Local\Temp\ccDGobdh.s 			page 53


 2912 004a 43EA0424 		orr	r4, r3, r4, lsl #8
 2913              	.LVL336:
 2914              		.loc 1 3256 0
 2915 004e ADB2     		uxth	r5, r5
 2916              		.loc 1 3252 0
 2917 0050 A4B2     		uxth	r4, r4
 2918              	.LVL337:
 2919              		.loc 1 3256 0
 2920 0052 45F01005 		orr	r5, r5, #16
 2921              	.LVL338:
 2922              		.loc 1 3259 0
 2923 0056 0483     		strh	r4, [r0, #24]	@ movhi
 2924              		.loc 1 3260 0
 2925 0058 0584     		strh	r5, [r0, #32]	@ movhi
 2926              	.LBE74:
 2927              	.LBE73:
 2928              	.LBB75:
 2929              	.LBB76:
 2930              		.loc 1 2123 0
 2931 005a 038B     		ldrh	r3, [r0, #24]
 2932 005c 23F44063 		bic	r3, r3, #3072
 2933 0060 1B04     		lsls	r3, r3, #16
 2934 0062 1B0C     		lsrs	r3, r3, #16
 2935 0064 0383     		strh	r3, [r0, #24]	@ movhi
 2936              		.loc 1 2126 0
 2937 0066 038B     		ldrh	r3, [r0, #24]
 2938 0068 9BB2     		uxth	r3, r3
 2939 006a 43EA0123 		orr	r3, r3, r1, lsl #8
 2940 006e 9BB2     		uxth	r3, r3
 2941 0070 0383     		strh	r3, [r0, #24]	@ movhi
 2942              	.LVL339:
 2943              	.LBE76:
 2944              	.LBE75:
 2945              	.LBB77:
 2946              	.LBB78:
 2947              		.loc 1 3203 0
 2948 0072 038C     		ldrh	r3, [r0, #32]
 2949 0074 23F00103 		bic	r3, r3, #1
 2950 0078 1B04     		lsls	r3, r3, #16
 2951 007a 1B0C     		lsrs	r3, r3, #16
 2952 007c 0384     		strh	r3, [r0, #32]	@ movhi
 2953              		.loc 1 3204 0
 2954 007e 028B     		ldrh	r2, [r0, #24]
 2955              		.loc 1 3205 0
 2956 0080 038C     		ldrh	r3, [r0, #32]
 2957              		.loc 1 3204 0
 2958 0082 92B2     		uxth	r2, r2
 2959              	.LVL340:
 2960              		.loc 1 3208 0
 2961 0084 22F0F302 		bic	r2, r2, #243
 2962              	.LVL341:
 2963              		.loc 1 3205 0
 2964 0088 9BB2     		uxth	r3, r3
 2965              	.LVL342:
 2966              		.loc 1 3209 0
 2967 008a 42EA0C1C 		orr	ip, r2, ip, lsl #4
 2968              	.LVL343:
ARM GAS  C:\Users\jsyoon\AppData\Local\Temp\ccDGobdh.s 			page 54


 2969              		.loc 1 3212 0
 2970 008e 23F00A03 		bic	r3, r3, #10
 2971              	.LVL344:
 2972              		.loc 1 3213 0
 2973 0092 43F00103 		orr	r3, r3, #1
 2974              		.loc 1 3209 0
 2975 0096 1FFA8CFC 		uxth	ip, ip
 2976              		.loc 1 3213 0
 2977 009a 1E43     		orrs	r6, r6, r3
 2978              	.LVL345:
 2979              		.loc 1 3209 0
 2980 009c 4CEA0707 		orr	r7, ip, r7
 2981              	.LVL346:
 2982              		.loc 1 3216 0
 2983 00a0 0783     		strh	r7, [r0, #24]	@ movhi
 2984              		.loc 1 3217 0
 2985 00a2 0684     		strh	r6, [r0, #32]	@ movhi
 2986              	.LVL347:
 2987              	.LBE78:
 2988              	.LBE77:
 2989              	.LBB79:
 2990              	.LBB80:
 2991              		.loc 1 2098 0
 2992 00a4 038B     		ldrh	r3, [r0, #24]
 2993 00a6 23F00C03 		bic	r3, r3, #12
 2994 00aa 1B04     		lsls	r3, r3, #16
 2995 00ac 1B0C     		lsrs	r3, r3, #16
 2996 00ae 0383     		strh	r3, [r0, #24]	@ movhi
 2997              		.loc 1 2101 0
 2998 00b0 038B     		ldrh	r3, [r0, #24]
 2999 00b2 9BB2     		uxth	r3, r3
 3000 00b4 1943     		orrs	r1, r1, r3
 3001              	.LVL348:
 3002 00b6 0183     		strh	r1, [r0, #24]	@ movhi
 3003              	.LVL349:
 3004              	.LBE80:
 3005              	.LBE79:
 3006              		.loc 1 2021 0
 3007 00b8 F0BC     		pop	{r4, r5, r6, r7}
 3008              	.LVL350:
 3009 00ba 7047     		bx	lr
 3010              	.LVL351:
 3011              	.L142:
 3012              	.LBB81:
 3013              	.LBB72:
 3014              		.loc 1 3203 0
 3015 00bc 22F00102 		bic	r2, r2, #1
 3016 00c0 1204     		lsls	r2, r2, #16
 3017 00c2 120C     		lsrs	r2, r2, #16
 3018 00c4 0284     		strh	r2, [r0, #32]	@ movhi
 3019              		.loc 1 3204 0
 3020 00c6 038B     		ldrh	r3, [r0, #24]
 3021              		.loc 1 3205 0
 3022 00c8 028C     		ldrh	r2, [r0, #32]
 3023              		.loc 1 3204 0
 3024 00ca 9BB2     		uxth	r3, r3
 3025              	.LVL352:
ARM GAS  C:\Users\jsyoon\AppData\Local\Temp\ccDGobdh.s 			page 55


 3026              		.loc 1 3208 0
 3027 00cc 23F0F303 		bic	r3, r3, #243
 3028              	.LVL353:
 3029              		.loc 1 3212 0
 3030 00d0 22F00A02 		bic	r2, r2, #10
 3031              	.LVL354:
 3032              		.loc 1 3209 0
 3033 00d4 43EA0C13 		orr	r3, r3, ip, lsl #4
 3034              		.loc 1 3212 0
 3035 00d8 1204     		lsls	r2, r2, #16
 3036              		.loc 1 3213 0
 3037 00da 45F00105 		orr	r5, r5, #1
 3038              	.LVL355:
 3039              		.loc 1 3209 0
 3040 00de 9BB2     		uxth	r3, r3
 3041              		.loc 1 3212 0
 3042 00e0 120C     		lsrs	r2, r2, #16
 3043              		.loc 1 3209 0
 3044 00e2 1C43     		orrs	r4, r4, r3
 3045              	.LVL356:
 3046              		.loc 1 3213 0
 3047 00e4 2A43     		orrs	r2, r2, r5
 3048              	.LVL357:
 3049              		.loc 1 3216 0
 3050 00e6 0483     		strh	r4, [r0, #24]	@ movhi
 3051              		.loc 1 3217 0
 3052 00e8 0284     		strh	r2, [r0, #32]	@ movhi
 3053              	.LBE72:
 3054              	.LBE81:
 3055              	.LBB82:
 3056              	.LBB83:
 3057              		.loc 1 2098 0
 3058 00ea 028B     		ldrh	r2, [r0, #24]
 3059              	.LVL358:
 3060 00ec 22F00C02 		bic	r2, r2, #12
 3061 00f0 1204     		lsls	r2, r2, #16
 3062 00f2 120C     		lsrs	r2, r2, #16
 3063 00f4 0283     		strh	r2, [r0, #24]	@ movhi
 3064              		.loc 1 2101 0
 3065 00f6 038B     		ldrh	r3, [r0, #24]
 3066 00f8 9BB2     		uxth	r3, r3
 3067 00fa 0B43     		orrs	r3, r3, r1
 3068 00fc 0383     		strh	r3, [r0, #24]	@ movhi
 3069              	.LVL359:
 3070              	.LBE83:
 3071              	.LBE82:
 3072              	.LBB84:
 3073              	.LBB85:
 3074              		.loc 1 3244 0
 3075 00fe 028C     		ldrh	r2, [r0, #32]
 3076 0100 22F01002 		bic	r2, r2, #16
 3077 0104 1204     		lsls	r2, r2, #16
 3078 0106 120C     		lsrs	r2, r2, #16
 3079 0108 0284     		strh	r2, [r0, #32]	@ movhi
 3080              		.loc 1 3245 0
 3081 010a 038B     		ldrh	r3, [r0, #24]
 3082              	.LVL360:
ARM GAS  C:\Users\jsyoon\AppData\Local\Temp\ccDGobdh.s 			page 56


 3083              		.loc 1 3246 0
 3084 010c 028C     		ldrh	r2, [r0, #32]
 3085              		.loc 1 3250 0
 3086 010e 23F44073 		bic	r3, r3, #768
 3087              	.LVL361:
 3088 0112 1B05     		lsls	r3, r3, #20
 3089 0114 1B0D     		lsrs	r3, r3, #20
 3090              		.loc 1 3246 0
 3091 0116 92B2     		uxth	r2, r2
 3092              	.LVL362:
 3093              		.loc 1 3251 0
 3094 0118 43EA0C33 		orr	r3, r3, ip, lsl #12
 3095              	.LVL363:
 3096              		.loc 1 3255 0
 3097 011c 22F0A002 		bic	r2, r2, #160
 3098              	.LVL364:
 3099              		.loc 1 3251 0
 3100 0120 9BB2     		uxth	r3, r3
 3101              	.LVL365:
 3102              		.loc 1 3256 0
 3103 0122 42F01002 		orr	r2, r2, #16
 3104              		.loc 1 3252 0
 3105 0126 43EA0727 		orr	r7, r3, r7, lsl #8
 3106              	.LVL366:
 3107              		.loc 1 3256 0
 3108 012a 42EA0616 		orr	r6, r2, r6, lsl #4
 3109              	.LVL367:
 3110              		.loc 1 3259 0
 3111 012e 0783     		strh	r7, [r0, #24]	@ movhi
 3112              		.loc 1 3260 0
 3113 0130 0684     		strh	r6, [r0, #32]	@ movhi
 3114              	.LVL368:
 3115              	.LBE85:
 3116              	.LBE84:
 3117              	.LBB86:
 3118              	.LBB87:
 3119              		.loc 1 2123 0
 3120 0132 038B     		ldrh	r3, [r0, #24]
 3121 0134 23F44063 		bic	r3, r3, #3072
 3122 0138 1B04     		lsls	r3, r3, #16
 3123 013a 1B0C     		lsrs	r3, r3, #16
 3124 013c 0383     		strh	r3, [r0, #24]	@ movhi
 3125              		.loc 1 2126 0
 3126 013e 038B     		ldrh	r3, [r0, #24]
 3127 0140 9BB2     		uxth	r3, r3
 3128 0142 43EA0121 		orr	r1, r3, r1, lsl #8
 3129              	.LVL369:
 3130 0146 89B2     		uxth	r1, r1
 3131 0148 0183     		strh	r1, [r0, #24]	@ movhi
 3132              	.LVL370:
 3133              	.LBE87:
 3134              	.LBE86:
 3135              		.loc 1 2021 0
 3136 014a F0BC     		pop	{r4, r5, r6, r7}
 3137              	.LVL371:
 3138 014c 7047     		bx	lr
 3139              		.cfi_endproc
ARM GAS  C:\Users\jsyoon\AppData\Local\Temp\ccDGobdh.s 			page 57


 3140              	.LFE163:
 3141              		.size	TIM_PWMIConfig, .-TIM_PWMIConfig
 3142 014e 00BF     		.section	.text.TIM_GetCapture1,"ax",%progbits
 3143              		.align	2
 3144              		.p2align 4,,15
 3145              		.global	TIM_GetCapture1
 3146              		.thumb
 3147              		.thumb_func
 3148              		.type	TIM_GetCapture1, %function
 3149              	TIM_GetCapture1:
 3150              	.LFB164:
 3151              		.loc 1 2029 0
 3152              		.cfi_startproc
 3153              		@ args = 0, pretend = 0, frame = 0
 3154              		@ frame_needed = 0, uses_anonymous_args = 0
 3155              		@ link register save eliminated.
 3156              	.LVL372:
 3157              		.loc 1 2034 0
 3158 0000 406B     		ldr	r0, [r0, #52]
 3159              	.LVL373:
 3160              		.loc 1 2035 0
 3161 0002 7047     		bx	lr
 3162              		.cfi_endproc
 3163              	.LFE164:
 3164              		.size	TIM_GetCapture1, .-TIM_GetCapture1
 3165 0004 AFF30080 		.section	.text.TIM_GetCapture2,"ax",%progbits
 3165      AFF30080 
 3165      AFF30080 
 3166              		.align	2
 3167              		.p2align 4,,15
 3168              		.global	TIM_GetCapture2
 3169              		.thumb
 3170              		.thumb_func
 3171              		.type	TIM_GetCapture2, %function
 3172              	TIM_GetCapture2:
 3173              	.LFB165:
 3174              		.loc 1 2044 0
 3175              		.cfi_startproc
 3176              		@ args = 0, pretend = 0, frame = 0
 3177              		@ frame_needed = 0, uses_anonymous_args = 0
 3178              		@ link register save eliminated.
 3179              	.LVL374:
 3180              		.loc 1 2049 0
 3181 0000 806B     		ldr	r0, [r0, #56]
 3182              	.LVL375:
 3183              		.loc 1 2050 0
 3184 0002 7047     		bx	lr
 3185              		.cfi_endproc
 3186              	.LFE165:
 3187              		.size	TIM_GetCapture2, .-TIM_GetCapture2
 3188 0004 AFF30080 		.section	.text.TIM_GetCapture3,"ax",%progbits
 3188      AFF30080 
 3188      AFF30080 
 3189              		.align	2
 3190              		.p2align 4,,15
 3191              		.global	TIM_GetCapture3
 3192              		.thumb
ARM GAS  C:\Users\jsyoon\AppData\Local\Temp\ccDGobdh.s 			page 58


 3193              		.thumb_func
 3194              		.type	TIM_GetCapture3, %function
 3195              	TIM_GetCapture3:
 3196              	.LFB166:
 3197              		.loc 1 2058 0
 3198              		.cfi_startproc
 3199              		@ args = 0, pretend = 0, frame = 0
 3200              		@ frame_needed = 0, uses_anonymous_args = 0
 3201              		@ link register save eliminated.
 3202              	.LVL376:
 3203              		.loc 1 2063 0
 3204 0000 C06B     		ldr	r0, [r0, #60]
 3205              	.LVL377:
 3206              		.loc 1 2064 0
 3207 0002 7047     		bx	lr
 3208              		.cfi_endproc
 3209              	.LFE166:
 3210              		.size	TIM_GetCapture3, .-TIM_GetCapture3
 3211 0004 AFF30080 		.section	.text.TIM_GetCapture4,"ax",%progbits
 3211      AFF30080 
 3211      AFF30080 
 3212              		.align	2
 3213              		.p2align 4,,15
 3214              		.global	TIM_GetCapture4
 3215              		.thumb
 3216              		.thumb_func
 3217              		.type	TIM_GetCapture4, %function
 3218              	TIM_GetCapture4:
 3219              	.LFB167:
 3220              		.loc 1 2072 0
 3221              		.cfi_startproc
 3222              		@ args = 0, pretend = 0, frame = 0
 3223              		@ frame_needed = 0, uses_anonymous_args = 0
 3224              		@ link register save eliminated.
 3225              	.LVL378:
 3226              		.loc 1 2077 0
 3227 0000 006C     		ldr	r0, [r0, #64]
 3228              	.LVL379:
 3229              		.loc 1 2078 0
 3230 0002 7047     		bx	lr
 3231              		.cfi_endproc
 3232              	.LFE167:
 3233              		.size	TIM_GetCapture4, .-TIM_GetCapture4
 3234 0004 AFF30080 		.section	.text.TIM_SetIC1Prescaler,"ax",%progbits
 3234      AFF30080 
 3234      AFF30080 
 3235              		.align	2
 3236              		.p2align 4,,15
 3237              		.global	TIM_SetIC1Prescaler
 3238              		.thumb
 3239              		.thumb_func
 3240              		.type	TIM_SetIC1Prescaler, %function
 3241              	TIM_SetIC1Prescaler:
 3242              	.LFB168:
 3243              		.loc 1 2092 0
 3244              		.cfi_startproc
 3245              		@ args = 0, pretend = 0, frame = 0
ARM GAS  C:\Users\jsyoon\AppData\Local\Temp\ccDGobdh.s 			page 59


 3246              		@ frame_needed = 0, uses_anonymous_args = 0
 3247              		@ link register save eliminated.
 3248              	.LVL380:
 3249              		.loc 1 2098 0
 3250 0000 038B     		ldrh	r3, [r0, #24]
 3251 0002 23F00C03 		bic	r3, r3, #12
 3252 0006 1B04     		lsls	r3, r3, #16
 3253 0008 1B0C     		lsrs	r3, r3, #16
 3254 000a 0383     		strh	r3, [r0, #24]	@ movhi
 3255              		.loc 1 2101 0
 3256 000c 038B     		ldrh	r3, [r0, #24]
 3257 000e 9BB2     		uxth	r3, r3
 3258 0010 1943     		orrs	r1, r1, r3
 3259              	.LVL381:
 3260 0012 0183     		strh	r1, [r0, #24]	@ movhi
 3261 0014 7047     		bx	lr
 3262              		.cfi_endproc
 3263              	.LFE168:
 3264              		.size	TIM_SetIC1Prescaler, .-TIM_SetIC1Prescaler
 3265 0016 00BFAFF3 		.section	.text.TIM_SetIC2Prescaler,"ax",%progbits
 3265      0080AFF3 
 3265      0080
 3266              		.align	2
 3267              		.p2align 4,,15
 3268              		.global	TIM_SetIC2Prescaler
 3269              		.thumb
 3270              		.thumb_func
 3271              		.type	TIM_SetIC2Prescaler, %function
 3272              	TIM_SetIC2Prescaler:
 3273              	.LFB169:
 3274              		.loc 1 2117 0
 3275              		.cfi_startproc
 3276              		@ args = 0, pretend = 0, frame = 0
 3277              		@ frame_needed = 0, uses_anonymous_args = 0
 3278              		@ link register save eliminated.
 3279              	.LVL382:
 3280              		.loc 1 2123 0
 3281 0000 038B     		ldrh	r3, [r0, #24]
 3282 0002 23F44063 		bic	r3, r3, #3072
 3283 0006 1B04     		lsls	r3, r3, #16
 3284 0008 1B0C     		lsrs	r3, r3, #16
 3285 000a 0383     		strh	r3, [r0, #24]	@ movhi
 3286              		.loc 1 2126 0
 3287 000c 038B     		ldrh	r3, [r0, #24]
 3288 000e 9BB2     		uxth	r3, r3
 3289 0010 43EA0121 		orr	r1, r3, r1, lsl #8
 3290              	.LVL383:
 3291 0014 8BB2     		uxth	r3, r1
 3292 0016 0383     		strh	r3, [r0, #24]	@ movhi
 3293 0018 7047     		bx	lr
 3294              		.cfi_endproc
 3295              	.LFE169:
 3296              		.size	TIM_SetIC2Prescaler, .-TIM_SetIC2Prescaler
 3297 001a 00BFAFF3 		.section	.text.TIM_SetIC3Prescaler,"ax",%progbits
 3297      0080
 3298              		.align	2
 3299              		.p2align 4,,15
ARM GAS  C:\Users\jsyoon\AppData\Local\Temp\ccDGobdh.s 			page 60


 3300              		.global	TIM_SetIC3Prescaler
 3301              		.thumb
 3302              		.thumb_func
 3303              		.type	TIM_SetIC3Prescaler, %function
 3304              	TIM_SetIC3Prescaler:
 3305              	.LFB170:
 3306              		.loc 1 2141 0
 3307              		.cfi_startproc
 3308              		@ args = 0, pretend = 0, frame = 0
 3309              		@ frame_needed = 0, uses_anonymous_args = 0
 3310              		@ link register save eliminated.
 3311              	.LVL384:
 3312              		.loc 1 2147 0
 3313 0000 838B     		ldrh	r3, [r0, #28]
 3314 0002 23F00C03 		bic	r3, r3, #12
 3315 0006 1B04     		lsls	r3, r3, #16
 3316 0008 1B0C     		lsrs	r3, r3, #16
 3317 000a 8383     		strh	r3, [r0, #28]	@ movhi
 3318              		.loc 1 2150 0
 3319 000c 838B     		ldrh	r3, [r0, #28]
 3320 000e 9BB2     		uxth	r3, r3
 3321 0010 1943     		orrs	r1, r1, r3
 3322              	.LVL385:
 3323 0012 8183     		strh	r1, [r0, #28]	@ movhi
 3324 0014 7047     		bx	lr
 3325              		.cfi_endproc
 3326              	.LFE170:
 3327              		.size	TIM_SetIC3Prescaler, .-TIM_SetIC3Prescaler
 3328 0016 00BFAFF3 		.section	.text.TIM_SetIC4Prescaler,"ax",%progbits
 3328      0080AFF3 
 3328      0080
 3329              		.align	2
 3330              		.p2align 4,,15
 3331              		.global	TIM_SetIC4Prescaler
 3332              		.thumb
 3333              		.thumb_func
 3334              		.type	TIM_SetIC4Prescaler, %function
 3335              	TIM_SetIC4Prescaler:
 3336              	.LFB171:
 3337              		.loc 1 2165 0
 3338              		.cfi_startproc
 3339              		@ args = 0, pretend = 0, frame = 0
 3340              		@ frame_needed = 0, uses_anonymous_args = 0
 3341              		@ link register save eliminated.
 3342              	.LVL386:
 3343              		.loc 1 2171 0
 3344 0000 838B     		ldrh	r3, [r0, #28]
 3345 0002 23F44063 		bic	r3, r3, #3072
 3346 0006 1B04     		lsls	r3, r3, #16
 3347 0008 1B0C     		lsrs	r3, r3, #16
 3348 000a 8383     		strh	r3, [r0, #28]	@ movhi
 3349              		.loc 1 2174 0
 3350 000c 838B     		ldrh	r3, [r0, #28]
 3351 000e 9BB2     		uxth	r3, r3
 3352 0010 43EA0121 		orr	r1, r3, r1, lsl #8
 3353              	.LVL387:
 3354 0014 8BB2     		uxth	r3, r1
ARM GAS  C:\Users\jsyoon\AppData\Local\Temp\ccDGobdh.s 			page 61


 3355 0016 8383     		strh	r3, [r0, #28]	@ movhi
 3356 0018 7047     		bx	lr
 3357              		.cfi_endproc
 3358              	.LFE171:
 3359              		.size	TIM_SetIC4Prescaler, .-TIM_SetIC4Prescaler
 3360 001a 00BFAFF3 		.section	.text.TIM_BDTRConfig,"ax",%progbits
 3360      0080
 3361              		.align	2
 3362              		.p2align 4,,15
 3363              		.global	TIM_BDTRConfig
 3364              		.thumb
 3365              		.thumb_func
 3366              		.type	TIM_BDTRConfig, %function
 3367              	TIM_BDTRConfig:
 3368              	.LFB172:
 3369              		.loc 1 2218 0
 3370              		.cfi_startproc
 3371              		@ args = 0, pretend = 0, frame = 0
 3372              		@ frame_needed = 0, uses_anonymous_args = 0
 3373              		@ link register save eliminated.
 3374              	.LVL388:
 3375              		.loc 1 2230 0
 3376 0000 B1F802C0 		ldrh	ip, [r1, #2]
 3377 0004 0B88     		ldrh	r3, [r1]
 3378 0006 8A89     		ldrh	r2, [r1, #12]
 3379              		.loc 1 2218 0
 3380 0008 F0B4     		push	{r4, r5, r6, r7}
 3381              		.cfi_def_cfa_offset 16
 3382              		.cfi_offset 4, -16
 3383              		.cfi_offset 5, -12
 3384              		.cfi_offset 6, -8
 3385              		.cfi_offset 7, -4
 3386              		.loc 1 2230 0
 3387 000a 8F88     		ldrh	r7, [r1, #4]
 3388 000c CE88     		ldrh	r6, [r1, #6]
 3389 000e 0D89     		ldrh	r5, [r1, #8]
 3390 0010 4C89     		ldrh	r4, [r1, #10]
 3391 0012 4CEA0303 		orr	r3, ip, r3
 3392 0016 3B43     		orrs	r3, r3, r7
 3393 0018 3343     		orrs	r3, r3, r6
 3394 001a 2B43     		orrs	r3, r3, r5
 3395 001c 2343     		orrs	r3, r3, r4
 3396 001e 1343     		orrs	r3, r3, r2
 3397 0020 9BB2     		uxth	r3, r3
 3398 0022 A0F84430 		strh	r3, [r0, #68]	@ movhi
 3399              		.loc 1 2234 0
 3400 0026 F0BC     		pop	{r4, r5, r6, r7}
 3401 0028 7047     		bx	lr
 3402              		.cfi_endproc
 3403              	.LFE172:
 3404              		.size	TIM_BDTRConfig, .-TIM_BDTRConfig
 3405 002a 00BFAFF3 		.section	.text.TIM_BDTRStructInit,"ax",%progbits
 3405      0080
 3406              		.align	2
 3407              		.p2align 4,,15
 3408              		.global	TIM_BDTRStructInit
 3409              		.thumb
ARM GAS  C:\Users\jsyoon\AppData\Local\Temp\ccDGobdh.s 			page 62


 3410              		.thumb_func
 3411              		.type	TIM_BDTRStructInit, %function
 3412              	TIM_BDTRStructInit:
 3413              	.LFB173:
 3414              		.loc 1 2243 0
 3415              		.cfi_startproc
 3416              		@ args = 0, pretend = 0, frame = 0
 3417              		@ frame_needed = 0, uses_anonymous_args = 0
 3418              		@ link register save eliminated.
 3419              	.LVL389:
 3420              		.loc 1 2245 0
 3421 0000 0023     		movs	r3, #0
 3422 0002 0380     		strh	r3, [r0]	@ movhi
 3423              		.loc 1 2246 0
 3424 0004 4380     		strh	r3, [r0, #2]	@ movhi
 3425              		.loc 1 2247 0
 3426 0006 8380     		strh	r3, [r0, #4]	@ movhi
 3427              		.loc 1 2248 0
 3428 0008 C380     		strh	r3, [r0, #6]	@ movhi
 3429              		.loc 1 2249 0
 3430 000a 0381     		strh	r3, [r0, #8]	@ movhi
 3431              		.loc 1 2250 0
 3432 000c 4381     		strh	r3, [r0, #10]	@ movhi
 3433              		.loc 1 2251 0
 3434 000e 8381     		strh	r3, [r0, #12]	@ movhi
 3435 0010 7047     		bx	lr
 3436              		.cfi_endproc
 3437              	.LFE173:
 3438              		.size	TIM_BDTRStructInit, .-TIM_BDTRStructInit
 3439 0012 00BFAFF3 		.section	.text.TIM_CtrlPWMOutputs,"ax",%progbits
 3439      0080AFF3 
 3439      0080AFF3 
 3439      0080
 3440              		.align	2
 3441              		.p2align 4,,15
 3442              		.global	TIM_CtrlPWMOutputs
 3443              		.thumb
 3444              		.thumb_func
 3445              		.type	TIM_CtrlPWMOutputs, %function
 3446              	TIM_CtrlPWMOutputs:
 3447              	.LFB174:
 3448              		.loc 1 2262 0
 3449              		.cfi_startproc
 3450              		@ args = 0, pretend = 0, frame = 0
 3451              		@ frame_needed = 0, uses_anonymous_args = 0
 3452              		@ link register save eliminated.
 3453              	.LVL390:
 3454              		.loc 1 2270 0
 3455 0000 B0F84430 		ldrh	r3, [r0, #68]
 3456              		.loc 1 2267 0
 3457 0004 21B9     		cbnz	r1, .L156
 3458              		.loc 1 2275 0
 3459 0006 C3F30E03 		ubfx	r3, r3, #0, #15
 3460 000a A0F84430 		strh	r3, [r0, #68]	@ movhi
 3461 000e 7047     		bx	lr
 3462              	.L156:
 3463              		.loc 1 2270 0
ARM GAS  C:\Users\jsyoon\AppData\Local\Temp\ccDGobdh.s 			page 63


 3464 0010 6FEA4343 		mvn	r3, r3, lsl #17
 3465 0014 6FEA5343 		mvn	r3, r3, lsr #17
 3466 0018 9BB2     		uxth	r3, r3
 3467 001a A0F84430 		strh	r3, [r0, #68]	@ movhi
 3468 001e 7047     		bx	lr
 3469              		.cfi_endproc
 3470              	.LFE174:
 3471              		.size	TIM_CtrlPWMOutputs, .-TIM_CtrlPWMOutputs
 3472              		.section	.text.TIM_SelectCOM,"ax",%progbits
 3473              		.align	2
 3474              		.p2align 4,,15
 3475              		.global	TIM_SelectCOM
 3476              		.thumb
 3477              		.thumb_func
 3478              		.type	TIM_SelectCOM, %function
 3479              	TIM_SelectCOM:
 3480              	.LFB175:
 3481              		.loc 1 2287 0
 3482              		.cfi_startproc
 3483              		@ args = 0, pretend = 0, frame = 0
 3484              		@ frame_needed = 0, uses_anonymous_args = 0
 3485              		@ link register save eliminated.
 3486              	.LVL391:
 3487              		.loc 1 2295 0
 3488 0000 8388     		ldrh	r3, [r0, #4]
 3489              		.loc 1 2292 0
 3490 0002 29B9     		cbnz	r1, .L160
 3491              		.loc 1 2300 0
 3492 0004 23F00403 		bic	r3, r3, #4
 3493 0008 1B04     		lsls	r3, r3, #16
 3494 000a 1B0C     		lsrs	r3, r3, #16
 3495 000c 8380     		strh	r3, [r0, #4]	@ movhi
 3496 000e 7047     		bx	lr
 3497              	.L160:
 3498              		.loc 1 2295 0
 3499 0010 9BB2     		uxth	r3, r3
 3500 0012 43F00403 		orr	r3, r3, #4
 3501 0016 8380     		strh	r3, [r0, #4]	@ movhi
 3502 0018 7047     		bx	lr
 3503              		.cfi_endproc
 3504              	.LFE175:
 3505              		.size	TIM_SelectCOM, .-TIM_SelectCOM
 3506 001a 00BFAFF3 		.section	.text.TIM_CCPreloadControl,"ax",%progbits
 3506      0080
 3507              		.align	2
 3508              		.p2align 4,,15
 3509              		.global	TIM_CCPreloadControl
 3510              		.thumb
 3511              		.thumb_func
 3512              		.type	TIM_CCPreloadControl, %function
 3513              	TIM_CCPreloadControl:
 3514              	.LFB176:
 3515              		.loc 1 2312 0
 3516              		.cfi_startproc
 3517              		@ args = 0, pretend = 0, frame = 0
 3518              		@ frame_needed = 0, uses_anonymous_args = 0
 3519              		@ link register save eliminated.
ARM GAS  C:\Users\jsyoon\AppData\Local\Temp\ccDGobdh.s 			page 64


 3520              	.LVL392:
 3521              		.loc 1 2319 0
 3522 0000 8388     		ldrh	r3, [r0, #4]
 3523              		.loc 1 2316 0
 3524 0002 29B9     		cbnz	r1, .L164
 3525              		.loc 1 2324 0
 3526 0004 23F00103 		bic	r3, r3, #1
 3527 0008 1B04     		lsls	r3, r3, #16
 3528 000a 1B0C     		lsrs	r3, r3, #16
 3529 000c 8380     		strh	r3, [r0, #4]	@ movhi
 3530 000e 7047     		bx	lr
 3531              	.L164:
 3532              		.loc 1 2319 0
 3533 0010 9BB2     		uxth	r3, r3
 3534 0012 43F00103 		orr	r3, r3, #1
 3535 0016 8380     		strh	r3, [r0, #4]	@ movhi
 3536 0018 7047     		bx	lr
 3537              		.cfi_endproc
 3538              	.LFE176:
 3539              		.size	TIM_CCPreloadControl, .-TIM_CCPreloadControl
 3540 001a 00BFAFF3 		.section	.text.TIM_ITConfig,"ax",%progbits
 3540      0080
 3541              		.align	2
 3542              		.p2align 4,,15
 3543              		.global	TIM_ITConfig
 3544              		.thumb
 3545              		.thumb_func
 3546              		.type	TIM_ITConfig, %function
 3547              	TIM_ITConfig:
 3548              	.LFB177:
 3549              		.loc 1 2369 0
 3550              		.cfi_startproc
 3551              		@ args = 0, pretend = 0, frame = 0
 3552              		@ frame_needed = 0, uses_anonymous_args = 0
 3553              		@ link register save eliminated.
 3554              	.LVL393:
 3555              		.loc 1 2378 0
 3556 0000 8389     		ldrh	r3, [r0, #12]
 3557 0002 9BB2     		uxth	r3, r3
 3558              		.loc 1 2375 0
 3559 0004 1AB9     		cbnz	r2, .L168
 3560              		.loc 1 2383 0
 3561 0006 23EA0101 		bic	r1, r3, r1
 3562              	.LVL394:
 3563 000a 8181     		strh	r1, [r0, #12]	@ movhi
 3564 000c 7047     		bx	lr
 3565              	.LVL395:
 3566              	.L168:
 3567              		.loc 1 2378 0
 3568 000e 1943     		orrs	r1, r1, r3
 3569              	.LVL396:
 3570 0010 8181     		strh	r1, [r0, #12]	@ movhi
 3571 0012 7047     		bx	lr
 3572              		.cfi_endproc
 3573              	.LFE177:
 3574              		.size	TIM_ITConfig, .-TIM_ITConfig
 3575 0014 AFF30080 		.section	.text.TIM_GenerateEvent,"ax",%progbits
ARM GAS  C:\Users\jsyoon\AppData\Local\Temp\ccDGobdh.s 			page 65


 3575      AFF30080 
 3575      AFF30080 
 3576              		.align	2
 3577              		.p2align 4,,15
 3578              		.global	TIM_GenerateEvent
 3579              		.thumb
 3580              		.thumb_func
 3581              		.type	TIM_GenerateEvent, %function
 3582              	TIM_GenerateEvent:
 3583              	.LFB178:
 3584              		.loc 1 2407 0
 3585              		.cfi_startproc
 3586              		@ args = 0, pretend = 0, frame = 0
 3587              		@ frame_needed = 0, uses_anonymous_args = 0
 3588              		@ link register save eliminated.
 3589              	.LVL397:
 3590              		.loc 1 2413 0
 3591 0000 8182     		strh	r1, [r0, #20]	@ movhi
 3592 0002 7047     		bx	lr
 3593              		.cfi_endproc
 3594              	.LFE178:
 3595              		.size	TIM_GenerateEvent, .-TIM_GenerateEvent
 3596 0004 AFF30080 		.section	.text.TIM_GetFlagStatus,"ax",%progbits
 3596      AFF30080 
 3596      AFF30080 
 3597              		.align	2
 3598              		.p2align 4,,15
 3599              		.global	TIM_GetFlagStatus
 3600              		.thumb
 3601              		.thumb_func
 3602              		.type	TIM_GetFlagStatus, %function
 3603              	TIM_GetFlagStatus:
 3604              	.LFB179:
 3605              		.loc 1 2440 0
 3606              		.cfi_startproc
 3607              		@ args = 0, pretend = 0, frame = 0
 3608              		@ frame_needed = 0, uses_anonymous_args = 0
 3609              		@ link register save eliminated.
 3610              	.LVL398:
 3611              		.loc 1 2447 0
 3612 0000 038A     		ldrh	r3, [r0, #16]
 3613              	.LVL399:
 3614 0002 1942     		tst	r1, r3
 3615              		.loc 1 2456 0
 3616 0004 0CBF     		ite	eq
 3617 0006 0020     		moveq	r0, #0
 3618 0008 0120     		movne	r0, #1
 3619              	.LVL400:
 3620 000a 7047     		bx	lr
 3621              		.cfi_endproc
 3622              	.LFE179:
 3623              		.size	TIM_GetFlagStatus, .-TIM_GetFlagStatus
 3624 000c AFF30080 		.section	.text.TIM_ClearFlag,"ax",%progbits
 3625              		.align	2
 3626              		.p2align 4,,15
 3627              		.global	TIM_ClearFlag
 3628              		.thumb
ARM GAS  C:\Users\jsyoon\AppData\Local\Temp\ccDGobdh.s 			page 66


 3629              		.thumb_func
 3630              		.type	TIM_ClearFlag, %function
 3631              	TIM_ClearFlag:
 3632              	.LFB180:
 3633              		.loc 1 2482 0
 3634              		.cfi_startproc
 3635              		@ args = 0, pretend = 0, frame = 0
 3636              		@ frame_needed = 0, uses_anonymous_args = 0
 3637              		@ link register save eliminated.
 3638              	.LVL401:
 3639              		.loc 1 2487 0
 3640 0000 C943     		mvns	r1, r1
 3641              	.LVL402:
 3642 0002 89B2     		uxth	r1, r1
 3643 0004 0182     		strh	r1, [r0, #16]	@ movhi
 3644 0006 7047     		bx	lr
 3645              		.cfi_endproc
 3646              	.LFE180:
 3647              		.size	TIM_ClearFlag, .-TIM_ClearFlag
 3648 0008 AFF30080 		.section	.text.TIM_GetITStatus,"ax",%progbits
 3648      AFF30080 
 3649              		.align	2
 3650              		.p2align 4,,15
 3651              		.global	TIM_GetITStatus
 3652              		.thumb
 3653              		.thumb_func
 3654              		.type	TIM_GetITStatus, %function
 3655              	TIM_GetITStatus:
 3656              	.LFB181:
 3657              		.loc 1 2510 0
 3658              		.cfi_startproc
 3659              		@ args = 0, pretend = 0, frame = 0
 3660              		@ frame_needed = 0, uses_anonymous_args = 0
 3661              		@ link register save eliminated.
 3662              	.LVL403:
 3663              		.loc 1 2517 0
 3664 0000 038A     		ldrh	r3, [r0, #16]
 3665              	.LVL404:
 3666              		.loc 1 2519 0
 3667 0002 8289     		ldrh	r2, [r0, #12]
 3668              		.loc 1 2520 0
 3669 0004 11EA0300 		ands	r0, r1, r3
 3670              	.LVL405:
 3671              		.loc 1 2519 0
 3672 0008 92B2     		uxth	r2, r2
 3673              	.LVL406:
 3674              		.loc 1 2520 0
 3675 000a 03D0     		beq	.L173
 3676              		.loc 1 2520 0 is_stmt 0 discriminator 1
 3677 000c 1142     		tst	r1, r2
 3678              		.loc 1 2522 0 is_stmt 1 discriminator 1
 3679 000e 0CBF     		ite	eq
 3680 0010 0020     		moveq	r0, #0
 3681 0012 0120     		movne	r0, #1
 3682              	.L173:
 3683              	.LVL407:
 3684              		.loc 1 2529 0
ARM GAS  C:\Users\jsyoon\AppData\Local\Temp\ccDGobdh.s 			page 67


 3685 0014 7047     		bx	lr
 3686              		.cfi_endproc
 3687              	.LFE181:
 3688              		.size	TIM_GetITStatus, .-TIM_GetITStatus
 3689 0016 00BFAFF3 		.section	.text.TIM_ClearITPendingBit,"ax",%progbits
 3689      0080AFF3 
 3689      0080
 3690              		.align	2
 3691              		.p2align 4,,15
 3692              		.global	TIM_ClearITPendingBit
 3693              		.thumb
 3694              		.thumb_func
 3695              		.type	TIM_ClearITPendingBit, %function
 3696              	TIM_ClearITPendingBit:
 3697              	.LFB182:
 3698              		.loc 1 2551 0
 3699              		.cfi_startproc
 3700              		@ args = 0, pretend = 0, frame = 0
 3701              		@ frame_needed = 0, uses_anonymous_args = 0
 3702              		@ link register save eliminated.
 3703              	.LVL408:
 3704              		.loc 1 2556 0
 3705 0000 C943     		mvns	r1, r1
 3706              	.LVL409:
 3707 0002 89B2     		uxth	r1, r1
 3708 0004 0182     		strh	r1, [r0, #16]	@ movhi
 3709 0006 7047     		bx	lr
 3710              		.cfi_endproc
 3711              	.LFE182:
 3712              		.size	TIM_ClearITPendingBit, .-TIM_ClearITPendingBit
 3713 0008 AFF30080 		.section	.text.TIM_DMAConfig,"ax",%progbits
 3713      AFF30080 
 3714              		.align	2
 3715              		.p2align 4,,15
 3716              		.global	TIM_DMAConfig
 3717              		.thumb
 3718              		.thumb_func
 3719              		.type	TIM_DMAConfig, %function
 3720              	TIM_DMAConfig:
 3721              	.LFB183:
 3722              		.loc 1 2588 0
 3723              		.cfi_startproc
 3724              		@ args = 0, pretend = 0, frame = 0
 3725              		@ frame_needed = 0, uses_anonymous_args = 0
 3726              		@ link register save eliminated.
 3727              	.LVL410:
 3728              		.loc 1 2595 0
 3729 0000 0A43     		orrs	r2, r2, r1
 3730              	.LVL411:
 3731 0002 A0F84820 		strh	r2, [r0, #72]	@ movhi
 3732 0006 7047     		bx	lr
 3733              		.cfi_endproc
 3734              	.LFE183:
 3735              		.size	TIM_DMAConfig, .-TIM_DMAConfig
 3736 0008 AFF30080 		.section	.text.TIM_DMACmd,"ax",%progbits
 3736      AFF30080 
 3737              		.align	2
ARM GAS  C:\Users\jsyoon\AppData\Local\Temp\ccDGobdh.s 			page 68


 3738              		.p2align 4,,15
 3739              		.global	TIM_DMACmd
 3740              		.thumb
 3741              		.thumb_func
 3742              		.type	TIM_DMACmd, %function
 3743              	TIM_DMACmd:
 3744              	.LFB184:
 3745              		.loc 1 2615 0
 3746              		.cfi_startproc
 3747              		@ args = 0, pretend = 0, frame = 0
 3748              		@ frame_needed = 0, uses_anonymous_args = 0
 3749              		@ link register save eliminated.
 3750              	.LVL412:
 3751              		.loc 1 2624 0
 3752 0000 8389     		ldrh	r3, [r0, #12]
 3753 0002 9BB2     		uxth	r3, r3
 3754              		.loc 1 2621 0
 3755 0004 1AB9     		cbnz	r2, .L180
 3756              		.loc 1 2629 0
 3757 0006 23EA0101 		bic	r1, r3, r1
 3758              	.LVL413:
 3759 000a 8181     		strh	r1, [r0, #12]	@ movhi
 3760 000c 7047     		bx	lr
 3761              	.LVL414:
 3762              	.L180:
 3763              		.loc 1 2624 0
 3764 000e 1943     		orrs	r1, r1, r3
 3765              	.LVL415:
 3766 0010 8181     		strh	r1, [r0, #12]	@ movhi
 3767 0012 7047     		bx	lr
 3768              		.cfi_endproc
 3769              	.LFE184:
 3770              		.size	TIM_DMACmd, .-TIM_DMACmd
 3771 0014 AFF30080 		.section	.text.TIM_SelectCCDMA,"ax",%progbits
 3771      AFF30080 
 3771      AFF30080 
 3772              		.align	2
 3773              		.p2align 4,,15
 3774              		.global	TIM_SelectCCDMA
 3775              		.thumb
 3776              		.thumb_func
 3777              		.type	TIM_SelectCCDMA, %function
 3778              	TIM_SelectCCDMA:
 3779              	.LFB185:
 3780              		.loc 1 2641 0
 3781              		.cfi_startproc
 3782              		@ args = 0, pretend = 0, frame = 0
 3783              		@ frame_needed = 0, uses_anonymous_args = 0
 3784              		@ link register save eliminated.
 3785              	.LVL416:
 3786              		.loc 1 2649 0
 3787 0000 8388     		ldrh	r3, [r0, #4]
 3788              		.loc 1 2646 0
 3789 0002 29B9     		cbnz	r1, .L184
 3790              		.loc 1 2654 0
 3791 0004 23F00803 		bic	r3, r3, #8
 3792 0008 1B04     		lsls	r3, r3, #16
ARM GAS  C:\Users\jsyoon\AppData\Local\Temp\ccDGobdh.s 			page 69


 3793 000a 1B0C     		lsrs	r3, r3, #16
 3794 000c 8380     		strh	r3, [r0, #4]	@ movhi
 3795 000e 7047     		bx	lr
 3796              	.L184:
 3797              		.loc 1 2649 0
 3798 0010 9BB2     		uxth	r3, r3
 3799 0012 43F00803 		orr	r3, r3, #8
 3800 0016 8380     		strh	r3, [r0, #4]	@ movhi
 3801 0018 7047     		bx	lr
 3802              		.cfi_endproc
 3803              	.LFE185:
 3804              		.size	TIM_SelectCCDMA, .-TIM_SelectCCDMA
 3805 001a 00BFAFF3 		.section	.text.TIM_InternalClockConfig,"ax",%progbits
 3805      0080
 3806              		.align	2
 3807              		.p2align 4,,15
 3808              		.global	TIM_InternalClockConfig
 3809              		.thumb
 3810              		.thumb_func
 3811              		.type	TIM_InternalClockConfig, %function
 3812              	TIM_InternalClockConfig:
 3813              	.LFB186:
 3814              		.loc 1 2680 0
 3815              		.cfi_startproc
 3816              		@ args = 0, pretend = 0, frame = 0
 3817              		@ frame_needed = 0, uses_anonymous_args = 0
 3818              		@ link register save eliminated.
 3819              	.LVL417:
 3820              		.loc 1 2685 0
 3821 0000 0389     		ldrh	r3, [r0, #8]
 3822 0002 23F00703 		bic	r3, r3, #7
 3823 0006 1B04     		lsls	r3, r3, #16
 3824 0008 1B0C     		lsrs	r3, r3, #16
 3825 000a 0381     		strh	r3, [r0, #8]	@ movhi
 3826 000c 7047     		bx	lr
 3827              		.cfi_endproc
 3828              	.LFE186:
 3829              		.size	TIM_InternalClockConfig, .-TIM_InternalClockConfig
 3830 000e 00BF     		.section	.text.TIM_ITRxExternalClockConfig,"ax",%progbits
 3831              		.align	2
 3832              		.p2align 4,,15
 3833              		.global	TIM_ITRxExternalClockConfig
 3834              		.thumb
 3835              		.thumb_func
 3836              		.type	TIM_ITRxExternalClockConfig, %function
 3837              	TIM_ITRxExternalClockConfig:
 3838              	.LFB187:
 3839              		.loc 1 2701 0
 3840              		.cfi_startproc
 3841              		@ args = 0, pretend = 0, frame = 0
 3842              		@ frame_needed = 0, uses_anonymous_args = 0
 3843              		@ link register save eliminated.
 3844              	.LVL418:
 3845              	.LBB88:
 3846              	.LBB89:
 3847              		.loc 1 2894 0
 3848 0000 0389     		ldrh	r3, [r0, #8]
ARM GAS  C:\Users\jsyoon\AppData\Local\Temp\ccDGobdh.s 			page 70


 3849              	.LVL419:
 3850              		.loc 1 2897 0
 3851 0002 23F07003 		bic	r3, r3, #112
 3852              	.LVL420:
 3853 0006 1B04     		lsls	r3, r3, #16
 3854 0008 1B0C     		lsrs	r3, r3, #16
 3855              	.LVL421:
 3856              		.loc 1 2900 0
 3857 000a 1943     		orrs	r1, r1, r3
 3858              	.LVL422:
 3859              		.loc 1 2903 0
 3860 000c 0181     		strh	r1, [r0, #8]	@ movhi
 3861              	.LBE89:
 3862              	.LBE88:
 3863              		.loc 1 2710 0
 3864 000e 0389     		ldrh	r3, [r0, #8]
 3865 0010 9BB2     		uxth	r3, r3
 3866 0012 43F00703 		orr	r3, r3, #7
 3867 0016 0381     		strh	r3, [r0, #8]	@ movhi
 3868 0018 7047     		bx	lr
 3869              		.cfi_endproc
 3870              	.LFE187:
 3871              		.size	TIM_ITRxExternalClockConfig, .-TIM_ITRxExternalClockConfig
 3872 001a 00BFAFF3 		.section	.text.TIM_TIxExternalClockConfig,"ax",%progbits
 3872      0080
 3873              		.align	2
 3874              		.p2align 4,,15
 3875              		.global	TIM_TIxExternalClockConfig
 3876              		.thumb
 3877              		.thumb_func
 3878              		.type	TIM_TIxExternalClockConfig, %function
 3879              	TIM_TIxExternalClockConfig:
 3880              	.LFB188:
 3881              		.loc 1 2732 0
 3882              		.cfi_startproc
 3883              		@ args = 0, pretend = 0, frame = 0
 3884              		@ frame_needed = 0, uses_anonymous_args = 0
 3885              		@ link register save eliminated.
 3886              	.LVL423:
 3887              		.loc 1 2739 0
 3888 0000 6029     		cmp	r1, #96
 3889              		.loc 1 2732 0
 3890 0002 30B4     		push	{r4, r5}
 3891              		.cfi_def_cfa_offset 8
 3892              		.cfi_offset 4, -8
 3893              		.cfi_offset 5, -4
 3894              	.LBB90:
 3895              	.LBB91:
 3896              		.loc 1 3244 0
 3897 0004 048C     		ldrh	r4, [r0, #32]
 3898              	.LBE91:
 3899              	.LBE90:
 3900              		.loc 1 2739 0
 3901 0006 24D0     		beq	.L190
 3902              	.LVL424:
 3903              	.LBB93:
 3904              	.LBB94:
ARM GAS  C:\Users\jsyoon\AppData\Local\Temp\ccDGobdh.s 			page 71


 3905              		.loc 1 3203 0
 3906 0008 24F00104 		bic	r4, r4, #1
 3907 000c 2404     		lsls	r4, r4, #16
 3908 000e 240C     		lsrs	r4, r4, #16
 3909 0010 0484     		strh	r4, [r0, #32]	@ movhi
 3910              		.loc 1 3204 0
 3911 0012 058B     		ldrh	r5, [r0, #24]
 3912              		.loc 1 3205 0
 3913 0014 048C     		ldrh	r4, [r0, #32]
 3914              		.loc 1 3204 0
 3915 0016 ADB2     		uxth	r5, r5
 3916              	.LVL425:
 3917              		.loc 1 3208 0
 3918 0018 25F0F305 		bic	r5, r5, #243
 3919              	.LVL426:
 3920              		.loc 1 3205 0
 3921 001c A4B2     		uxth	r4, r4
 3922              	.LVL427:
 3923              		.loc 1 3209 0
 3924 001e 45F00105 		orr	r5, r5, #1
 3925              		.loc 1 3212 0
 3926 0022 24F00A04 		bic	r4, r4, #10
 3927              	.LVL428:
 3928              		.loc 1 3209 0
 3929 0026 45EA0313 		orr	r3, r5, r3, lsl #4
 3930              	.LVL429:
 3931              		.loc 1 3213 0
 3932 002a 44F00104 		orr	r4, r4, #1
 3933              		.loc 1 3209 0
 3934 002e 9BB2     		uxth	r3, r3
 3935              	.LVL430:
 3936              		.loc 1 3213 0
 3937 0030 2243     		orrs	r2, r2, r4
 3938              	.LVL431:
 3939              		.loc 1 3216 0
 3940 0032 0383     		strh	r3, [r0, #24]	@ movhi
 3941              		.loc 1 3217 0
 3942 0034 0284     		strh	r2, [r0, #32]	@ movhi
 3943              	.LVL432:
 3944              	.L189:
 3945              	.LBE94:
 3946              	.LBE93:
 3947              	.LBB95:
 3948              	.LBB96:
 3949              		.loc 1 2894 0
 3950 0036 0389     		ldrh	r3, [r0, #8]
 3951              	.LVL433:
 3952              		.loc 1 2897 0
 3953 0038 23F07003 		bic	r3, r3, #112
 3954              	.LVL434:
 3955 003c 1B04     		lsls	r3, r3, #16
 3956 003e 1B0C     		lsrs	r3, r3, #16
 3957              	.LVL435:
 3958              		.loc 1 2900 0
 3959 0040 0B43     		orrs	r3, r3, r1
 3960              	.LVL436:
 3961              		.loc 1 2903 0
ARM GAS  C:\Users\jsyoon\AppData\Local\Temp\ccDGobdh.s 			page 72


 3962 0042 0381     		strh	r3, [r0, #8]	@ movhi
 3963              	.LBE96:
 3964              	.LBE95:
 3965              		.loc 1 2750 0
 3966 0044 0389     		ldrh	r3, [r0, #8]
 3967              	.LVL437:
 3968 0046 9BB2     		uxth	r3, r3
 3969 0048 43F00703 		orr	r3, r3, #7
 3970 004c 0381     		strh	r3, [r0, #8]	@ movhi
 3971              		.loc 1 2751 0
 3972 004e 30BC     		pop	{r4, r5}
 3973 0050 7047     		bx	lr
 3974              	.LVL438:
 3975              	.L190:
 3976              	.LBB97:
 3977              	.LBB92:
 3978              		.loc 1 3244 0
 3979 0052 24F01004 		bic	r4, r4, #16
 3980 0056 2404     		lsls	r4, r4, #16
 3981 0058 240C     		lsrs	r4, r4, #16
 3982 005a 0484     		strh	r4, [r0, #32]	@ movhi
 3983              		.loc 1 3245 0
 3984 005c 048B     		ldrh	r4, [r0, #24]
 3985              	.LVL439:
 3986              		.loc 1 3246 0
 3987 005e 058C     		ldrh	r5, [r0, #32]
 3988              		.loc 1 3250 0
 3989 0060 24F44074 		bic	r4, r4, #768
 3990              	.LVL440:
 3991 0064 2405     		lsls	r4, r4, #20
 3992              		.loc 1 3246 0
 3993 0066 ADB2     		uxth	r5, r5
 3994              	.LVL441:
 3995              		.loc 1 3250 0
 3996 0068 240D     		lsrs	r4, r4, #20
 3997              	.LVL442:
 3998              		.loc 1 3255 0
 3999 006a 25F0A005 		bic	r5, r5, #160
 4000              	.LVL443:
 4001              		.loc 1 3251 0
 4002 006e 44F48074 		orr	r4, r4, #256
 4003              	.LVL444:
 4004              		.loc 1 3256 0
 4005 0072 45F01005 		orr	r5, r5, #16
 4006              		.loc 1 3252 0
 4007 0076 44EA0333 		orr	r3, r4, r3, lsl #12
 4008              	.LVL445:
 4009              		.loc 1 3256 0
 4010 007a 45EA0212 		orr	r2, r5, r2, lsl #4
 4011              	.LVL446:
 4012              		.loc 1 3252 0
 4013 007e 9BB2     		uxth	r3, r3
 4014              	.LVL447:
 4015              		.loc 1 3256 0
 4016 0080 92B2     		uxth	r2, r2
 4017              	.LVL448:
 4018              		.loc 1 3259 0
ARM GAS  C:\Users\jsyoon\AppData\Local\Temp\ccDGobdh.s 			page 73


 4019 0082 0383     		strh	r3, [r0, #24]	@ movhi
 4020              		.loc 1 3260 0
 4021 0084 0284     		strh	r2, [r0, #32]	@ movhi
 4022 0086 D6E7     		b	.L189
 4023              	.LBE92:
 4024              	.LBE97:
 4025              		.cfi_endproc
 4026              	.LFE188:
 4027              		.size	TIM_TIxExternalClockConfig, .-TIM_TIxExternalClockConfig
 4028 0088 AFF30080 		.section	.text.TIM_ETRClockMode1Config,"ax",%progbits
 4028      AFF30080 
 4029              		.align	2
 4030              		.p2align 4,,15
 4031              		.global	TIM_ETRClockMode1Config
 4032              		.thumb
 4033              		.thumb_func
 4034              		.type	TIM_ETRClockMode1Config, %function
 4035              	TIM_ETRClockMode1Config:
 4036              	.LFB189:
 4037              		.loc 1 2772 0
 4038              		.cfi_startproc
 4039              		@ args = 0, pretend = 0, frame = 0
 4040              		@ frame_needed = 0, uses_anonymous_args = 0
 4041              		@ link register save eliminated.
 4042              	.LVL449:
 4043 0000 10B4     		push	{r4}
 4044              		.cfi_def_cfa_offset 4
 4045              		.cfi_offset 4, -4
 4046              	.LBB98:
 4047              	.LBB99:
 4048              		.loc 1 3016 0
 4049 0002 0489     		ldrh	r4, [r0, #8]
 4050              	.LVL450:
 4051              		.loc 1 3022 0
 4052 0004 42EA0323 		orr	r3, r2, r3, lsl #8
 4053              	.LVL451:
 4054              		.loc 1 3019 0
 4055 0008 E4B2     		uxtb	r4, r4
 4056              	.LVL452:
 4057              		.loc 1 3022 0
 4058 000a 2343     		orrs	r3, r3, r4
 4059 000c 9BB2     		uxth	r3, r3
 4060 000e 1943     		orrs	r1, r1, r3
 4061              	.LVL453:
 4062              		.loc 1 3025 0
 4063 0010 0181     		strh	r1, [r0, #8]	@ movhi
 4064              	.LBE99:
 4065              	.LBE98:
 4066              		.loc 1 2784 0
 4067 0012 0389     		ldrh	r3, [r0, #8]
 4068              	.LVL454:
 4069              		.loc 1 2798 0
 4070 0014 5DF8044B 		ldr	r4, [sp], #4
 4071              		.loc 1 2793 0
 4072 0018 23F07703 		bic	r3, r3, #119
 4073              	.LVL455:
 4074 001c 1B04     		lsls	r3, r3, #16
ARM GAS  C:\Users\jsyoon\AppData\Local\Temp\ccDGobdh.s 			page 74


 4075 001e 1B0C     		lsrs	r3, r3, #16
 4076              	.LVL456:
 4077              		.loc 1 2794 0
 4078 0020 43F07703 		orr	r3, r3, #119
 4079              	.LVL457:
 4080              		.loc 1 2797 0
 4081 0024 0381     		strh	r3, [r0, #8]	@ movhi
 4082              		.loc 1 2798 0
 4083 0026 7047     		bx	lr
 4084              		.cfi_endproc
 4085              	.LFE189:
 4086              		.size	TIM_ETRClockMode1Config, .-TIM_ETRClockMode1Config
 4087 0028 AFF30080 		.section	.text.TIM_ETRClockMode2Config,"ax",%progbits
 4087      AFF30080 
 4088              		.align	2
 4089              		.p2align 4,,15
 4090              		.global	TIM_ETRClockMode2Config
 4091              		.thumb
 4092              		.thumb_func
 4093              		.type	TIM_ETRClockMode2Config, %function
 4094              	TIM_ETRClockMode2Config:
 4095              	.LFB190:
 4096              		.loc 1 2819 0
 4097              		.cfi_startproc
 4098              		@ args = 0, pretend = 0, frame = 0
 4099              		@ frame_needed = 0, uses_anonymous_args = 0
 4100              		@ link register save eliminated.
 4101              	.LVL458:
 4102 0000 10B4     		push	{r4}
 4103              		.cfi_def_cfa_offset 4
 4104              		.cfi_offset 4, -4
 4105              	.LBB100:
 4106              	.LBB101:
 4107              		.loc 1 3016 0
 4108 0002 0489     		ldrh	r4, [r0, #8]
 4109              	.LVL459:
 4110              		.loc 1 3022 0
 4111 0004 42EA0323 		orr	r3, r2, r3, lsl #8
 4112              	.LVL460:
 4113              		.loc 1 3019 0
 4114 0008 E4B2     		uxtb	r4, r4
 4115              	.LVL461:
 4116              		.loc 1 3022 0
 4117 000a 2343     		orrs	r3, r3, r4
 4118 000c 9BB2     		uxth	r3, r3
 4119 000e 1943     		orrs	r1, r1, r3
 4120              	.LVL462:
 4121              		.loc 1 3025 0
 4122 0010 0181     		strh	r1, [r0, #8]	@ movhi
 4123              	.LBE101:
 4124              	.LBE100:
 4125              		.loc 1 2830 0
 4126 0012 0389     		ldrh	r3, [r0, #8]
 4127              		.loc 1 2831 0
 4128 0014 5DF8044B 		ldr	r4, [sp], #4
 4129              		.loc 1 2830 0
 4130 0018 9BB2     		uxth	r3, r3
ARM GAS  C:\Users\jsyoon\AppData\Local\Temp\ccDGobdh.s 			page 75


 4131 001a 43F48043 		orr	r3, r3, #16384
 4132 001e 0381     		strh	r3, [r0, #8]	@ movhi
 4133              		.loc 1 2831 0
 4134 0020 7047     		bx	lr
 4135              		.cfi_endproc
 4136              	.LFE190:
 4137              		.size	TIM_ETRClockMode2Config, .-TIM_ETRClockMode2Config
 4138 0022 00BFAFF3 		.section	.text.TIM_SelectInputTrigger,"ax",%progbits
 4138      0080AFF3 
 4138      0080AFF3 
 4138      0080
 4139              		.align	2
 4140              		.p2align 4,,15
 4141              		.global	TIM_SelectInputTrigger
 4142              		.thumb
 4143              		.thumb_func
 4144              		.type	TIM_SelectInputTrigger, %function
 4145              	TIM_SelectInputTrigger:
 4146              	.LFB191:
 4147              		.loc 1 2886 0
 4148              		.cfi_startproc
 4149              		@ args = 0, pretend = 0, frame = 0
 4150              		@ frame_needed = 0, uses_anonymous_args = 0
 4151              		@ link register save eliminated.
 4152              	.LVL463:
 4153              		.loc 1 2894 0
 4154 0000 0389     		ldrh	r3, [r0, #8]
 4155              	.LVL464:
 4156              		.loc 1 2897 0
 4157 0002 23F07003 		bic	r3, r3, #112
 4158              	.LVL465:
 4159 0006 1B04     		lsls	r3, r3, #16
 4160 0008 1B0C     		lsrs	r3, r3, #16
 4161              	.LVL466:
 4162              		.loc 1 2900 0
 4163 000a 1943     		orrs	r1, r1, r3
 4164              	.LVL467:
 4165              		.loc 1 2903 0
 4166 000c 0181     		strh	r1, [r0, #8]	@ movhi
 4167 000e 7047     		bx	lr
 4168              		.cfi_endproc
 4169              	.LFE191:
 4170              		.size	TIM_SelectInputTrigger, .-TIM_SelectInputTrigger
 4171              		.section	.text.TIM_SelectOutputTrigger,"ax",%progbits
 4172              		.align	2
 4173              		.p2align 4,,15
 4174              		.global	TIM_SelectOutputTrigger
 4175              		.thumb
 4176              		.thumb_func
 4177              		.type	TIM_SelectOutputTrigger, %function
 4178              	TIM_SelectOutputTrigger:
 4179              	.LFB192:
 4180              		.loc 1 2929 0
 4181              		.cfi_startproc
 4182              		@ args = 0, pretend = 0, frame = 0
 4183              		@ frame_needed = 0, uses_anonymous_args = 0
 4184              		@ link register save eliminated.
ARM GAS  C:\Users\jsyoon\AppData\Local\Temp\ccDGobdh.s 			page 76


 4185              	.LVL468:
 4186              		.loc 1 2935 0
 4187 0000 8388     		ldrh	r3, [r0, #4]
 4188 0002 23F07003 		bic	r3, r3, #112
 4189 0006 1B04     		lsls	r3, r3, #16
 4190 0008 1B0C     		lsrs	r3, r3, #16
 4191 000a 8380     		strh	r3, [r0, #4]	@ movhi
 4192              		.loc 1 2937 0
 4193 000c 8388     		ldrh	r3, [r0, #4]
 4194 000e 9BB2     		uxth	r3, r3
 4195 0010 1943     		orrs	r1, r1, r3
 4196              	.LVL469:
 4197 0012 8180     		strh	r1, [r0, #4]	@ movhi
 4198 0014 7047     		bx	lr
 4199              		.cfi_endproc
 4200              	.LFE192:
 4201              		.size	TIM_SelectOutputTrigger, .-TIM_SelectOutputTrigger
 4202 0016 00BFAFF3 		.section	.text.TIM_SelectSlaveMode,"ax",%progbits
 4202      0080AFF3 
 4202      0080
 4203              		.align	2
 4204              		.p2align 4,,15
 4205              		.global	TIM_SelectSlaveMode
 4206              		.thumb
 4207              		.thumb_func
 4208              		.type	TIM_SelectSlaveMode, %function
 4209              	TIM_SelectSlaveMode:
 4210              	.LFB193:
 4211              		.loc 1 2953 0
 4212              		.cfi_startproc
 4213              		@ args = 0, pretend = 0, frame = 0
 4214              		@ frame_needed = 0, uses_anonymous_args = 0
 4215              		@ link register save eliminated.
 4216              	.LVL470:
 4217              		.loc 1 2959 0
 4218 0000 0389     		ldrh	r3, [r0, #8]
 4219 0002 23F00703 		bic	r3, r3, #7
 4220 0006 1B04     		lsls	r3, r3, #16
 4221 0008 1B0C     		lsrs	r3, r3, #16
 4222 000a 0381     		strh	r3, [r0, #8]	@ movhi
 4223              		.loc 1 2962 0
 4224 000c 0389     		ldrh	r3, [r0, #8]
 4225 000e 9BB2     		uxth	r3, r3
 4226 0010 1943     		orrs	r1, r1, r3
 4227              	.LVL471:
 4228 0012 0181     		strh	r1, [r0, #8]	@ movhi
 4229 0014 7047     		bx	lr
 4230              		.cfi_endproc
 4231              	.LFE193:
 4232              		.size	TIM_SelectSlaveMode, .-TIM_SelectSlaveMode
 4233 0016 00BFAFF3 		.section	.text.TIM_SelectMasterSlaveMode,"ax",%progbits
 4233      0080AFF3 
 4233      0080
 4234              		.align	2
 4235              		.p2align 4,,15
 4236              		.global	TIM_SelectMasterSlaveMode
 4237              		.thumb
ARM GAS  C:\Users\jsyoon\AppData\Local\Temp\ccDGobdh.s 			page 77


 4238              		.thumb_func
 4239              		.type	TIM_SelectMasterSlaveMode, %function
 4240              	TIM_SelectMasterSlaveMode:
 4241              	.LFB194:
 4242              		.loc 1 2976 0
 4243              		.cfi_startproc
 4244              		@ args = 0, pretend = 0, frame = 0
 4245              		@ frame_needed = 0, uses_anonymous_args = 0
 4246              		@ link register save eliminated.
 4247              	.LVL472:
 4248              		.loc 1 2982 0
 4249 0000 0389     		ldrh	r3, [r0, #8]
 4250 0002 23F08003 		bic	r3, r3, #128
 4251 0006 1B04     		lsls	r3, r3, #16
 4252 0008 1B0C     		lsrs	r3, r3, #16
 4253 000a 0381     		strh	r3, [r0, #8]	@ movhi
 4254              		.loc 1 2985 0
 4255 000c 0389     		ldrh	r3, [r0, #8]
 4256 000e 9BB2     		uxth	r3, r3
 4257 0010 1943     		orrs	r1, r1, r3
 4258              	.LVL473:
 4259 0012 0181     		strh	r1, [r0, #8]	@ movhi
 4260 0014 7047     		bx	lr
 4261              		.cfi_endproc
 4262              	.LFE194:
 4263              		.size	TIM_SelectMasterSlaveMode, .-TIM_SelectMasterSlaveMode
 4264 0016 00BFAFF3 		.section	.text.TIM_ETRConfig,"ax",%progbits
 4264      0080AFF3 
 4264      0080
 4265              		.align	2
 4266              		.p2align 4,,15
 4267              		.global	TIM_ETRConfig
 4268              		.thumb
 4269              		.thumb_func
 4270              		.type	TIM_ETRConfig, %function
 4271              	TIM_ETRConfig:
 4272              	.LFB195:
 4273              		.loc 1 3007 0
 4274              		.cfi_startproc
 4275              		@ args = 0, pretend = 0, frame = 0
 4276              		@ frame_needed = 0, uses_anonymous_args = 0
 4277              		@ link register save eliminated.
 4278              	.LVL474:
 4279 0000 10B4     		push	{r4}
 4280              		.cfi_def_cfa_offset 4
 4281              		.cfi_offset 4, -4
 4282              		.loc 1 3016 0
 4283 0002 0489     		ldrh	r4, [r0, #8]
 4284              	.LVL475:
 4285              		.loc 1 3019 0
 4286 0004 E4B2     		uxtb	r4, r4
 4287              	.LVL476:
 4288              		.loc 1 3022 0
 4289 0006 2143     		orrs	r1, r1, r4
 4290              	.LVL477:
 4291 0008 0A43     		orrs	r2, r2, r1
 4292              	.LVL478:
ARM GAS  C:\Users\jsyoon\AppData\Local\Temp\ccDGobdh.s 			page 78


 4293 000a 42EA0323 		orr	r3, r2, r3, lsl #8
 4294              	.LVL479:
 4295 000e 9CB2     		uxth	r4, r3
 4296              	.LVL480:
 4297              		.loc 1 3025 0
 4298 0010 0481     		strh	r4, [r0, #8]	@ movhi
 4299              		.loc 1 3026 0
 4300 0012 5DF8044B 		ldr	r4, [sp], #4
 4301 0016 7047     		bx	lr
 4302              		.cfi_endproc
 4303              	.LFE195:
 4304              		.size	TIM_ETRConfig, .-TIM_ETRConfig
 4305 0018 AFF30080 		.section	.text.TIM_EncoderInterfaceConfig,"ax",%progbits
 4305      AFF30080 
 4306              		.align	2
 4307              		.p2align 4,,15
 4308              		.global	TIM_EncoderInterfaceConfig
 4309              		.thumb
 4310              		.thumb_func
 4311              		.type	TIM_EncoderInterfaceConfig, %function
 4312              	TIM_EncoderInterfaceConfig:
 4313              	.LFB196:
 4314              		.loc 1 3065 0
 4315              		.cfi_startproc
 4316              		@ args = 0, pretend = 0, frame = 0
 4317              		@ frame_needed = 0, uses_anonymous_args = 0
 4318              		@ link register save eliminated.
 4319              	.LVL481:
 4320 0000 70B4     		push	{r4, r5, r6}
 4321              		.cfi_def_cfa_offset 12
 4322              		.cfi_offset 4, -12
 4323              		.cfi_offset 5, -8
 4324              		.cfi_offset 6, -4
 4325              		.loc 1 3077 0
 4326 0002 0589     		ldrh	r5, [r0, #8]
 4327              	.LVL482:
 4328              		.loc 1 3080 0
 4329 0004 048B     		ldrh	r4, [r0, #24]
 4330              	.LVL483:
 4331              		.loc 1 3083 0
 4332 0006 068C     		ldrh	r6, [r0, #32]
 4333              		.loc 1 3090 0
 4334 0008 24F44074 		bic	r4, r4, #768
 4335              	.LVL484:
 4336 000c 24F00304 		bic	r4, r4, #3
 4337              		.loc 1 3083 0
 4338 0010 B6B2     		uxth	r6, r6
 4339              	.LVL485:
 4340              		.loc 1 3094 0
 4341 0012 26F02206 		bic	r6, r6, #34
 4342              	.LVL486:
 4343              		.loc 1 3086 0
 4344 0016 25F00705 		bic	r5, r5, #7
 4345              	.LVL487:
 4346              		.loc 1 3090 0
 4347 001a 2404     		lsls	r4, r4, #16
 4348              		.loc 1 3095 0
ARM GAS  C:\Users\jsyoon\AppData\Local\Temp\ccDGobdh.s 			page 79


 4349 001c 3243     		orrs	r2, r2, r6
 4350              	.LVL488:
 4351              		.loc 1 3086 0
 4352 001e 2D04     		lsls	r5, r5, #16
 4353              		.loc 1 3090 0
 4354 0020 240C     		lsrs	r4, r4, #16
 4355              		.loc 1 3086 0
 4356 0022 2D0C     		lsrs	r5, r5, #16
 4357              	.LVL489:
 4358              		.loc 1 3091 0
 4359 0024 44F48074 		orr	r4, r4, #256
 4360              		.loc 1 3095 0
 4361 0028 42EA0313 		orr	r3, r2, r3, lsl #4
 4362              	.LVL490:
 4363              		.loc 1 3087 0
 4364 002c 2943     		orrs	r1, r1, r5
 4365              	.LVL491:
 4366              		.loc 1 3091 0
 4367 002e 44F00104 		orr	r4, r4, #1
 4368              	.LVL492:
 4369              		.loc 1 3095 0
 4370 0032 9EB2     		uxth	r6, r3
 4371              	.LVL493:
 4372              		.loc 1 3098 0
 4373 0034 0181     		strh	r1, [r0, #8]	@ movhi
 4374              		.loc 1 3101 0
 4375 0036 0483     		strh	r4, [r0, #24]	@ movhi
 4376              		.loc 1 3104 0
 4377 0038 0684     		strh	r6, [r0, #32]	@ movhi
 4378              		.loc 1 3105 0
 4379 003a 70BC     		pop	{r4, r5, r6}
 4380              	.LVL494:
 4381 003c 7047     		bx	lr
 4382              		.cfi_endproc
 4383              	.LFE196:
 4384              		.size	TIM_EncoderInterfaceConfig, .-TIM_EncoderInterfaceConfig
 4385 003e 00BF     		.section	.text.TIM_SelectHallSensor,"ax",%progbits
 4386              		.align	2
 4387              		.p2align 4,,15
 4388              		.global	TIM_SelectHallSensor
 4389              		.thumb
 4390              		.thumb_func
 4391              		.type	TIM_SelectHallSensor, %function
 4392              	TIM_SelectHallSensor:
 4393              	.LFB197:
 4394              		.loc 1 3116 0
 4395              		.cfi_startproc
 4396              		@ args = 0, pretend = 0, frame = 0
 4397              		@ frame_needed = 0, uses_anonymous_args = 0
 4398              		@ link register save eliminated.
 4399              	.LVL495:
 4400              		.loc 1 3124 0
 4401 0000 8388     		ldrh	r3, [r0, #4]
 4402              		.loc 1 3121 0
 4403 0002 29B9     		cbnz	r1, .L202
 4404              		.loc 1 3129 0
 4405 0004 23F08003 		bic	r3, r3, #128
ARM GAS  C:\Users\jsyoon\AppData\Local\Temp\ccDGobdh.s 			page 80


 4406 0008 1B04     		lsls	r3, r3, #16
 4407 000a 1B0C     		lsrs	r3, r3, #16
 4408 000c 8380     		strh	r3, [r0, #4]	@ movhi
 4409 000e 7047     		bx	lr
 4410              	.L202:
 4411              		.loc 1 3124 0
 4412 0010 9BB2     		uxth	r3, r3
 4413 0012 43F08003 		orr	r3, r3, #128
 4414 0016 8380     		strh	r3, [r0, #4]	@ movhi
 4415 0018 7047     		bx	lr
 4416              		.cfi_endproc
 4417              	.LFE197:
 4418              		.size	TIM_SelectHallSensor, .-TIM_SelectHallSensor
 4419 001a 00BFAFF3 		.section	.text.TIM_RemapConfig,"ax",%progbits
 4419      0080
 4420              		.align	2
 4421              		.p2align 4,,15
 4422              		.global	TIM_RemapConfig
 4423              		.thumb
 4424              		.thumb_func
 4425              		.type	TIM_RemapConfig, %function
 4426              	TIM_RemapConfig:
 4427              	.LFB198:
 4428              		.loc 1 3167 0
 4429              		.cfi_startproc
 4430              		@ args = 0, pretend = 0, frame = 0
 4431              		@ frame_needed = 0, uses_anonymous_args = 0
 4432              		@ link register save eliminated.
 4433              	.LVL496:
 4434              		.loc 1 3173 0
 4435 0000 A0F85010 		strh	r1, [r0, #80]	@ movhi
 4436 0004 7047     		bx	lr
 4437              		.cfi_endproc
 4438              	.LFE198:
 4439              		.size	TIM_RemapConfig, .-TIM_RemapConfig
 4440 0006 00BFAFF3 		.text
 4440      0080AFF3 
 4440      0080
 4441              	.Letext0:
 4442              		.file 2 "c:\\crosstools\\gcc-arm-embedded\\4.8_2014q2\\arm-none-eabi\\include\\machine\\_default_t
 4443              		.file 3 "c:\\crosstools\\gcc-arm-embedded\\4.8_2014q2\\arm-none-eabi\\include\\stdint.h"
 4444              		.file 4 "ChibiOS_2.6.6/os/hal/platforms/STM32F4xx/stm32f4xx.h"
 4445              		.file 5 "ChibiOS_2.6.6/ext/stdperiph_stm32f4/inc/stm32f4xx_tim.h"
 4446              		.file 6 "ChibiOS_2.6.6/ext/stdperiph_stm32f4/inc/stm32f4xx_rcc.h"
 4447              		.file 7 "ChibiOS_2.6.6/os/ports/common/ARMCMx/CMSIS/include/core_cm4.h"