ARM GAS  C:\Users\jsyoon\AppData\Local\Temp\ccAMnLSs.s 			page 1


   1              		.syntax unified
   2              		.cpu cortex-m4
   3              		.eabi_attribute 27, 3
   4              		.eabi_attribute 28, 1
   5              		.fpu fpv4-sp-d16
   6              		.eabi_attribute 20, 1
   7              		.eabi_attribute 21, 1
   8              		.eabi_attribute 23, 3
   9              		.eabi_attribute 24, 1
  10              		.eabi_attribute 25, 1
  11              		.eabi_attribute 26, 1
  12              		.eabi_attribute 30, 2
  13              		.eabi_attribute 34, 1
  14              		.eabi_attribute 18, 4
  15              		.thumb
  16              		.file	"stm32f4xx_crc.c"
  17              		.text
  18              	.Ltext0:
  19              		.cfi_sections	.debug_frame
  20              		.section	.text.CRC_ResetDR,"ax",%progbits
  21              		.align	2
  22              		.p2align 4,,15
  23              		.global	CRC_ResetDR
  24              		.thumb
  25              		.thumb_func
  26              		.type	CRC_ResetDR, %function
  27              	CRC_ResetDR:
  28              	.LFB111:
  29              		.file 1 "ChibiOS_2.6.6/ext/stdperiph_stm32f4/src/stm32f4xx_crc.c"
  30              		.loc 1 57 0
  31              		.cfi_startproc
  32              		@ args = 0, pretend = 0, frame = 0
  33              		@ frame_needed = 0, uses_anonymous_args = 0
  34              		@ link register save eliminated.
  35              		.loc 1 59 0
  36 0000 014B     		ldr	r3, .L2
  37 0002 0122     		movs	r2, #1
  38 0004 9A60     		str	r2, [r3, #8]
  39 0006 7047     		bx	lr
  40              	.L3:
  41              		.align	2
  42              	.L2:
  43 0008 00300240 		.word	1073885184
  44              		.cfi_endproc
  45              	.LFE111:
  46              		.size	CRC_ResetDR, .-CRC_ResetDR
  47 000c AFF30080 		.section	.text.CRC_CalcCRC,"ax",%progbits
  48              		.align	2
  49              		.p2align 4,,15
  50              		.global	CRC_CalcCRC
  51              		.thumb
  52              		.thumb_func
  53              		.type	CRC_CalcCRC, %function
  54              	CRC_CalcCRC:
  55              	.LFB112:
  56              		.loc 1 68 0
  57              		.cfi_startproc
ARM GAS  C:\Users\jsyoon\AppData\Local\Temp\ccAMnLSs.s 			page 2


  58              		@ args = 0, pretend = 0, frame = 0
  59              		@ frame_needed = 0, uses_anonymous_args = 0
  60              		@ link register save eliminated.
  61              	.LVL0:
  62              		.loc 1 69 0
  63 0000 014B     		ldr	r3, .L5
  64 0002 1860     		str	r0, [r3]
  65              		.loc 1 71 0
  66 0004 1868     		ldr	r0, [r3]
  67              	.LVL1:
  68              		.loc 1 72 0
  69 0006 7047     		bx	lr
  70              	.L6:
  71              		.align	2
  72              	.L5:
  73 0008 00300240 		.word	1073885184
  74              		.cfi_endproc
  75              	.LFE112:
  76              		.size	CRC_CalcCRC, .-CRC_CalcCRC
  77 000c AFF30080 		.section	.text.CRC_CalcBlockCRC,"ax",%progbits
  78              		.align	2
  79              		.p2align 4,,15
  80              		.global	CRC_CalcBlockCRC
  81              		.thumb
  82              		.thumb_func
  83              		.type	CRC_CalcBlockCRC, %function
  84              	CRC_CalcBlockCRC:
  85              	.LFB113:
  86              		.loc 1 81 0
  87              		.cfi_startproc
  88              		@ args = 0, pretend = 0, frame = 0
  89              		@ frame_needed = 0, uses_anonymous_args = 0
  90              		@ link register save eliminated.
  91              	.LVL2:
  92              		.loc 1 84 0
  93 0000 39B1     		cbz	r1, .L9
  94              		.loc 1 86 0
  95 0002 054A     		ldr	r2, .L14
  96 0004 00EB8101 		add	r1, r0, r1, lsl #2
  97              	.LVL3:
  98              	.L10:
  99              		.loc 1 86 0 is_stmt 0 discriminator 2
 100 0008 50F8043B 		ldr	r3, [r0], #4
 101 000c 1360     		str	r3, [r2]
 102              		.loc 1 84 0 is_stmt 1 discriminator 2
 103 000e 8842     		cmp	r0, r1
 104 0010 FAD1     		bne	.L10
 105              	.L9:
 106              		.loc 1 88 0
 107 0012 014B     		ldr	r3, .L14
 108 0014 1868     		ldr	r0, [r3]
 109 0016 7047     		bx	lr
 110              	.L15:
 111              		.align	2
 112              	.L14:
 113 0018 00300240 		.word	1073885184
 114              		.cfi_endproc
ARM GAS  C:\Users\jsyoon\AppData\Local\Temp\ccAMnLSs.s 			page 3


 115              	.LFE113:
 116              		.size	CRC_CalcBlockCRC, .-CRC_CalcBlockCRC
 117 001c AFF30080 		.section	.text.CRC_GetCRC,"ax",%progbits
 118              		.align	2
 119              		.p2align 4,,15
 120              		.global	CRC_GetCRC
 121              		.thumb
 122              		.thumb_func
 123              		.type	CRC_GetCRC, %function
 124              	CRC_GetCRC:
 125              	.LFB114:
 126              		.loc 1 97 0
 127              		.cfi_startproc
 128              		@ args = 0, pretend = 0, frame = 0
 129              		@ frame_needed = 0, uses_anonymous_args = 0
 130              		@ link register save eliminated.
 131              		.loc 1 98 0
 132 0000 014B     		ldr	r3, .L17
 133 0002 1868     		ldr	r0, [r3]
 134              		.loc 1 99 0
 135 0004 7047     		bx	lr
 136              	.L18:
 137 0006 00BF     		.align	2
 138              	.L17:
 139 0008 00300240 		.word	1073885184
 140              		.cfi_endproc
 141              	.LFE114:
 142              		.size	CRC_GetCRC, .-CRC_GetCRC
 143 000c AFF30080 		.section	.text.CRC_SetIDRegister,"ax",%progbits
 144              		.align	2
 145              		.p2align 4,,15
 146              		.global	CRC_SetIDRegister
 147              		.thumb
 148              		.thumb_func
 149              		.type	CRC_SetIDRegister, %function
 150              	CRC_SetIDRegister:
 151              	.LFB115:
 152              		.loc 1 107 0
 153              		.cfi_startproc
 154              		@ args = 0, pretend = 0, frame = 0
 155              		@ frame_needed = 0, uses_anonymous_args = 0
 156              		@ link register save eliminated.
 157              	.LVL4:
 158              		.loc 1 108 0
 159 0000 014B     		ldr	r3, .L20
 160 0002 1871     		strb	r0, [r3, #4]
 161 0004 7047     		bx	lr
 162              	.L21:
 163 0006 00BF     		.align	2
 164              	.L20:
 165 0008 00300240 		.word	1073885184
 166              		.cfi_endproc
 167              	.LFE115:
 168              		.size	CRC_SetIDRegister, .-CRC_SetIDRegister
 169 000c AFF30080 		.section	.text.CRC_GetIDRegister,"ax",%progbits
 170              		.align	2
 171              		.p2align 4,,15
ARM GAS  C:\Users\jsyoon\AppData\Local\Temp\ccAMnLSs.s 			page 4


 172              		.global	CRC_GetIDRegister
 173              		.thumb
 174              		.thumb_func
 175              		.type	CRC_GetIDRegister, %function
 176              	CRC_GetIDRegister:
 177              	.LFB116:
 178              		.loc 1 117 0
 179              		.cfi_startproc
 180              		@ args = 0, pretend = 0, frame = 0
 181              		@ frame_needed = 0, uses_anonymous_args = 0
 182              		@ link register save eliminated.
 183              		.loc 1 118 0
 184 0000 014B     		ldr	r3, .L23
 185 0002 1879     		ldrb	r0, [r3, #4]	@ zero_extendqisi2
 186              		.loc 1 119 0
 187 0004 7047     		bx	lr
 188              	.L24:
 189 0006 00BF     		.align	2
 190              	.L23:
 191 0008 00300240 		.word	1073885184
 192              		.cfi_endproc
 193              	.LFE116:
 194              		.size	CRC_GetIDRegister, .-CRC_GetIDRegister
 195 000c AFF30080 		.text
 196              	.Letext0:
 197              		.file 2 "c:\\crosstools\\gcc-arm-embedded\\4.8_2014q2\\arm-none-eabi\\include\\machine\\_default_t
 198              		.file 3 "c:\\crosstools\\gcc-arm-embedded\\4.8_2014q2\\arm-none-eabi\\include\\stdint.h"
 199              		.file 4 "ChibiOS_2.6.6/os/hal/platforms/STM32F4xx/stm32f4xx.h"
 200              		.file 5 "ChibiOS_2.6.6/os/ports/common/ARMCMx/CMSIS/include/core_cm4.h"
 201              		.section	.debug_info,"",%progbits
 202              	.Ldebug_info0:
 203 0000 0B020000 		.4byte	0x20b
 204 0004 0400     		.2byte	0x4
 205 0006 00000000 		.4byte	.Ldebug_abbrev0
 206 000a 04       		.byte	0x4
 207 000b 01       		.uleb128 0x1
 208 000c 53000000 		.4byte	.LASF29
 209 0010 01       		.byte	0x1
 210 0011 1B000000 		.4byte	.LASF30
 211 0015 A9020000 		.4byte	.LASF31
 212 0019 00000000 		.4byte	.Ldebug_ranges0+0
 213 001d 00000000 		.4byte	0
 214 0021 00000000 		.4byte	.Ldebug_line0
 215 0025 02       		.uleb128 0x2
 216 0026 01       		.byte	0x1
 217 0027 06       		.byte	0x6
 218 0028 F4020000 		.4byte	.LASF0
 219 002c 03       		.uleb128 0x3
 220 002d 11000000 		.4byte	.LASF3
 221 0031 02       		.byte	0x2
 222 0032 1C       		.byte	0x1c
 223 0033 37000000 		.4byte	0x37
 224 0037 02       		.uleb128 0x2
 225 0038 01       		.byte	0x1
 226 0039 08       		.byte	0x8
 227 003a A1010000 		.4byte	.LASF1
 228 003e 02       		.uleb128 0x2
ARM GAS  C:\Users\jsyoon\AppData\Local\Temp\ccAMnLSs.s 			page 5


 229 003f 02       		.byte	0x2
 230 0040 05       		.byte	0x5
 231 0041 9F020000 		.4byte	.LASF2
 232 0045 03       		.uleb128 0x3
 233 0046 F8010000 		.4byte	.LASF4
 234 004a 02       		.byte	0x2
 235 004b 26       		.byte	0x26
 236 004c 50000000 		.4byte	0x50
 237 0050 02       		.uleb128 0x2
 238 0051 02       		.byte	0x2
 239 0052 07       		.byte	0x7
 240 0053 C1010000 		.4byte	.LASF5
 241 0057 03       		.uleb128 0x3
 242 0058 77010000 		.4byte	.LASF6
 243 005c 02       		.byte	0x2
 244 005d 37       		.byte	0x37
 245 005e 62000000 		.4byte	0x62
 246 0062 02       		.uleb128 0x2
 247 0063 04       		.byte	0x4
 248 0064 05       		.byte	0x5
 249 0065 EB020000 		.4byte	.LASF7
 250 0069 03       		.uleb128 0x3
 251 006a 08020000 		.4byte	.LASF8
 252 006e 02       		.byte	0x2
 253 006f 38       		.byte	0x38
 254 0070 74000000 		.4byte	0x74
 255 0074 02       		.uleb128 0x2
 256 0075 04       		.byte	0x4
 257 0076 07       		.byte	0x7
 258 0077 AF010000 		.4byte	.LASF9
 259 007b 02       		.uleb128 0x2
 260 007c 08       		.byte	0x8
 261 007d 05       		.byte	0x5
 262 007e 79020000 		.4byte	.LASF10
 263 0082 02       		.uleb128 0x2
 264 0083 08       		.byte	0x8
 265 0084 07       		.byte	0x7
 266 0085 2D020000 		.4byte	.LASF11
 267 0089 04       		.uleb128 0x4
 268 008a 04       		.byte	0x4
 269 008b 05       		.byte	0x5
 270 008c 696E7400 		.ascii	"int\000"
 271 0090 02       		.uleb128 0x2
 272 0091 04       		.byte	0x4
 273 0092 07       		.byte	0x7
 274 0093 20020000 		.4byte	.LASF12
 275 0097 03       		.uleb128 0x3
 276 0098 44020000 		.4byte	.LASF13
 277 009c 03       		.byte	0x3
 278 009d 2A       		.byte	0x2a
 279 009e 2C000000 		.4byte	0x2c
 280 00a2 03       		.uleb128 0x3
 281 00a3 D9020000 		.4byte	.LASF14
 282 00a7 03       		.byte	0x3
 283 00a8 36       		.byte	0x36
 284 00a9 45000000 		.4byte	0x45
 285 00ad 03       		.uleb128 0x3
ARM GAS  C:\Users\jsyoon\AppData\Local\Temp\ccAMnLSs.s 			page 6


 286 00ae 60020000 		.4byte	.LASF15
 287 00b2 03       		.byte	0x3
 288 00b3 41       		.byte	0x41
 289 00b4 57000000 		.4byte	0x57
 290 00b8 03       		.uleb128 0x3
 291 00b9 E2020000 		.4byte	.LASF16
 292 00bd 03       		.byte	0x3
 293 00be 42       		.byte	0x42
 294 00bf 69000000 		.4byte	0x69
 295 00c3 02       		.uleb128 0x2
 296 00c4 04       		.byte	0x4
 297 00c5 07       		.byte	0x7
 298 00c6 68020000 		.4byte	.LASF17
 299 00ca 05       		.uleb128 0x5
 300 00cb B8000000 		.4byte	0xb8
 301 00cf 05       		.uleb128 0x5
 302 00d0 97000000 		.4byte	0x97
 303 00d4 05       		.uleb128 0x5
 304 00d5 AD000000 		.4byte	0xad
 305 00d9 06       		.uleb128 0x6
 306 00da 0C       		.byte	0xc
 307 00db 04       		.byte	0x4
 308 00dc 6F02     		.2byte	0x26f
 309 00de 22010000 		.4byte	0x122
 310 00e2 07       		.uleb128 0x7
 311 00e3 445200   		.ascii	"DR\000"
 312 00e6 04       		.byte	0x4
 313 00e7 7102     		.2byte	0x271
 314 00e9 CA000000 		.4byte	0xca
 315 00ed 00       		.byte	0
 316 00ee 07       		.uleb128 0x7
 317 00ef 49445200 		.ascii	"IDR\000"
 318 00f3 04       		.byte	0x4
 319 00f4 7202     		.2byte	0x272
 320 00f6 CF000000 		.4byte	0xcf
 321 00fa 04       		.byte	0x4
 322 00fb 08       		.uleb128 0x8
 323 00fc 81010000 		.4byte	.LASF18
 324 0100 04       		.byte	0x4
 325 0101 7302     		.2byte	0x273
 326 0103 97000000 		.4byte	0x97
 327 0107 05       		.byte	0x5
 328 0108 08       		.uleb128 0x8
 329 0109 8B010000 		.4byte	.LASF19
 330 010d 04       		.byte	0x4
 331 010e 7402     		.2byte	0x274
 332 0110 A2000000 		.4byte	0xa2
 333 0114 06       		.byte	0x6
 334 0115 07       		.uleb128 0x7
 335 0116 435200   		.ascii	"CR\000"
 336 0119 04       		.byte	0x4
 337 011a 7502     		.2byte	0x275
 338 011c CA000000 		.4byte	0xca
 339 0120 08       		.byte	0x8
 340 0121 00       		.byte	0
 341 0122 09       		.uleb128 0x9
 342 0123 EC010000 		.4byte	.LASF20
ARM GAS  C:\Users\jsyoon\AppData\Local\Temp\ccAMnLSs.s 			page 7


 343 0127 04       		.byte	0x4
 344 0128 7602     		.2byte	0x276
 345 012a D9000000 		.4byte	0xd9
 346 012e 0A       		.uleb128 0xa
 347 012f 54020000 		.4byte	.LASF32
 348 0133 01       		.byte	0x1
 349 0134 38       		.byte	0x38
 350 0135 00000000 		.4byte	.LFB111
 351 0139 0C000000 		.4byte	.LFE111-.LFB111
 352 013d 01       		.uleb128 0x1
 353 013e 9C       		.byte	0x9c
 354 013f 0B       		.uleb128 0xb
 355 0140 95010000 		.4byte	.LASF21
 356 0144 01       		.byte	0x1
 357 0145 43       		.byte	0x43
 358 0146 B8000000 		.4byte	0xb8
 359 014a 00000000 		.4byte	.LFB112
 360 014e 0C000000 		.4byte	.LFE112-.LFB112
 361 0152 01       		.uleb128 0x1
 362 0153 9C       		.byte	0x9c
 363 0154 68010000 		.4byte	0x168
 364 0158 0C       		.uleb128 0xc
 365 0159 03020000 		.4byte	.LASF23
 366 015d 01       		.byte	0x1
 367 015e 43       		.byte	0x43
 368 015f B8000000 		.4byte	0xb8
 369 0163 00000000 		.4byte	.LLST0
 370 0167 00       		.byte	0
 371 0168 0B       		.uleb128 0xb
 372 0169 00000000 		.4byte	.LASF22
 373 016d 01       		.byte	0x1
 374 016e 50       		.byte	0x50
 375 016f B8000000 		.4byte	0xb8
 376 0173 00000000 		.4byte	.LFB113
 377 0177 1C000000 		.4byte	.LFE113-.LFB113
 378 017b 01       		.uleb128 0x1
 379 017c 9C       		.byte	0x9c
 380 017d AF010000 		.4byte	0x1af
 381 0181 0C       		.uleb128 0xc
 382 0182 4C020000 		.4byte	.LASF24
 383 0186 01       		.byte	0x1
 384 0187 50       		.byte	0x50
 385 0188 AF010000 		.4byte	0x1af
 386 018c 1F000000 		.4byte	.LLST1
 387 0190 0C       		.uleb128 0xc
 388 0191 13020000 		.4byte	.LASF25
 389 0195 01       		.byte	0x1
 390 0196 50       		.byte	0x50
 391 0197 B8000000 		.4byte	0xb8
 392 019b 40000000 		.4byte	.LLST2
 393 019f 0D       		.uleb128 0xd
 394 01a0 87020000 		.4byte	.LASF33
 395 01a4 01       		.byte	0x1
 396 01a5 52       		.byte	0x52
 397 01a6 B8000000 		.4byte	0xb8
 398 01aa 61000000 		.4byte	.LLST3
 399 01ae 00       		.byte	0
ARM GAS  C:\Users\jsyoon\AppData\Local\Temp\ccAMnLSs.s 			page 8


 400 01af 0E       		.uleb128 0xe
 401 01b0 04       		.byte	0x4
 402 01b1 B8000000 		.4byte	0xb8
 403 01b5 0F       		.uleb128 0xf
 404 01b6 D4010000 		.4byte	.LASF27
 405 01ba 01       		.byte	0x1
 406 01bb 60       		.byte	0x60
 407 01bc B8000000 		.4byte	0xb8
 408 01c0 00000000 		.4byte	.LFB114
 409 01c4 0C000000 		.4byte	.LFE114-.LFB114
 410 01c8 01       		.uleb128 0x1
 411 01c9 9C       		.byte	0x9c
 412 01ca 10       		.uleb128 0x10
 413 01cb 00030000 		.4byte	.LASF34
 414 01cf 01       		.byte	0x1
 415 01d0 6A       		.byte	0x6a
 416 01d1 00000000 		.4byte	.LFB115
 417 01d5 0C000000 		.4byte	.LFE115-.LFB115
 418 01d9 01       		.uleb128 0x1
 419 01da 9C       		.byte	0x9c
 420 01db ED010000 		.4byte	0x1ed
 421 01df 11       		.uleb128 0x11
 422 01e0 71020000 		.4byte	.LASF26
 423 01e4 01       		.byte	0x1
 424 01e5 6A       		.byte	0x6a
 425 01e6 97000000 		.4byte	0x97
 426 01ea 01       		.uleb128 0x1
 427 01eb 50       		.byte	0x50
 428 01ec 00       		.byte	0
 429 01ed 0F       		.uleb128 0xf
 430 01ee 8D020000 		.4byte	.LASF28
 431 01f2 01       		.byte	0x1
 432 01f3 74       		.byte	0x74
 433 01f4 97000000 		.4byte	0x97
 434 01f8 00000000 		.4byte	.LFB116
 435 01fc 0C000000 		.4byte	.LFE116-.LFB116
 436 0200 01       		.uleb128 0x1
 437 0201 9C       		.byte	0x9c
 438 0202 12       		.uleb128 0x12
 439 0203 DF010000 		.4byte	.LASF35
 440 0207 05       		.byte	0x5
 441 0208 9806     		.2byte	0x698
 442 020a D4000000 		.4byte	0xd4
 443 020e 00       		.byte	0
 444              		.section	.debug_abbrev,"",%progbits
 445              	.Ldebug_abbrev0:
 446 0000 01       		.uleb128 0x1
 447 0001 11       		.uleb128 0x11
 448 0002 01       		.byte	0x1
 449 0003 25       		.uleb128 0x25
 450 0004 0E       		.uleb128 0xe
 451 0005 13       		.uleb128 0x13
 452 0006 0B       		.uleb128 0xb
 453 0007 03       		.uleb128 0x3
 454 0008 0E       		.uleb128 0xe
 455 0009 1B       		.uleb128 0x1b
 456 000a 0E       		.uleb128 0xe
ARM GAS  C:\Users\jsyoon\AppData\Local\Temp\ccAMnLSs.s 			page 9


 457 000b 55       		.uleb128 0x55
 458 000c 17       		.uleb128 0x17
 459 000d 11       		.uleb128 0x11
 460 000e 01       		.uleb128 0x1
 461 000f 10       		.uleb128 0x10
 462 0010 17       		.uleb128 0x17
 463 0011 00       		.byte	0
 464 0012 00       		.byte	0
 465 0013 02       		.uleb128 0x2
 466 0014 24       		.uleb128 0x24
 467 0015 00       		.byte	0
 468 0016 0B       		.uleb128 0xb
 469 0017 0B       		.uleb128 0xb
 470 0018 3E       		.uleb128 0x3e
 471 0019 0B       		.uleb128 0xb
 472 001a 03       		.uleb128 0x3
 473 001b 0E       		.uleb128 0xe
 474 001c 00       		.byte	0
 475 001d 00       		.byte	0
 476 001e 03       		.uleb128 0x3
 477 001f 16       		.uleb128 0x16
 478 0020 00       		.byte	0
 479 0021 03       		.uleb128 0x3
 480 0022 0E       		.uleb128 0xe
 481 0023 3A       		.uleb128 0x3a
 482 0024 0B       		.uleb128 0xb
 483 0025 3B       		.uleb128 0x3b
 484 0026 0B       		.uleb128 0xb
 485 0027 49       		.uleb128 0x49
 486 0028 13       		.uleb128 0x13
 487 0029 00       		.byte	0
 488 002a 00       		.byte	0
 489 002b 04       		.uleb128 0x4
 490 002c 24       		.uleb128 0x24
 491 002d 00       		.byte	0
 492 002e 0B       		.uleb128 0xb
 493 002f 0B       		.uleb128 0xb
 494 0030 3E       		.uleb128 0x3e
 495 0031 0B       		.uleb128 0xb
 496 0032 03       		.uleb128 0x3
 497 0033 08       		.uleb128 0x8
 498 0034 00       		.byte	0
 499 0035 00       		.byte	0
 500 0036 05       		.uleb128 0x5
 501 0037 35       		.uleb128 0x35
 502 0038 00       		.byte	0
 503 0039 49       		.uleb128 0x49
 504 003a 13       		.uleb128 0x13
 505 003b 00       		.byte	0
 506 003c 00       		.byte	0
 507 003d 06       		.uleb128 0x6
 508 003e 13       		.uleb128 0x13
 509 003f 01       		.byte	0x1
 510 0040 0B       		.uleb128 0xb
 511 0041 0B       		.uleb128 0xb
 512 0042 3A       		.uleb128 0x3a
 513 0043 0B       		.uleb128 0xb
ARM GAS  C:\Users\jsyoon\AppData\Local\Temp\ccAMnLSs.s 			page 10


 514 0044 3B       		.uleb128 0x3b
 515 0045 05       		.uleb128 0x5
 516 0046 01       		.uleb128 0x1
 517 0047 13       		.uleb128 0x13
 518 0048 00       		.byte	0
 519 0049 00       		.byte	0
 520 004a 07       		.uleb128 0x7
 521 004b 0D       		.uleb128 0xd
 522 004c 00       		.byte	0
 523 004d 03       		.uleb128 0x3
 524 004e 08       		.uleb128 0x8
 525 004f 3A       		.uleb128 0x3a
 526 0050 0B       		.uleb128 0xb
 527 0051 3B       		.uleb128 0x3b
 528 0052 05       		.uleb128 0x5
 529 0053 49       		.uleb128 0x49
 530 0054 13       		.uleb128 0x13
 531 0055 38       		.uleb128 0x38
 532 0056 0B       		.uleb128 0xb
 533 0057 00       		.byte	0
 534 0058 00       		.byte	0
 535 0059 08       		.uleb128 0x8
 536 005a 0D       		.uleb128 0xd
 537 005b 00       		.byte	0
 538 005c 03       		.uleb128 0x3
 539 005d 0E       		.uleb128 0xe
 540 005e 3A       		.uleb128 0x3a
 541 005f 0B       		.uleb128 0xb
 542 0060 3B       		.uleb128 0x3b
 543 0061 05       		.uleb128 0x5
 544 0062 49       		.uleb128 0x49
 545 0063 13       		.uleb128 0x13
 546 0064 38       		.uleb128 0x38
 547 0065 0B       		.uleb128 0xb
 548 0066 00       		.byte	0
 549 0067 00       		.byte	0
 550 0068 09       		.uleb128 0x9
 551 0069 16       		.uleb128 0x16
 552 006a 00       		.byte	0
 553 006b 03       		.uleb128 0x3
 554 006c 0E       		.uleb128 0xe
 555 006d 3A       		.uleb128 0x3a
 556 006e 0B       		.uleb128 0xb
 557 006f 3B       		.uleb128 0x3b
 558 0070 05       		.uleb128 0x5
 559 0071 49       		.uleb128 0x49
 560 0072 13       		.uleb128 0x13
 561 0073 00       		.byte	0
 562 0074 00       		.byte	0
 563 0075 0A       		.uleb128 0xa
 564 0076 2E       		.uleb128 0x2e
 565 0077 00       		.byte	0
 566 0078 3F       		.uleb128 0x3f
 567 0079 19       		.uleb128 0x19
 568 007a 03       		.uleb128 0x3
 569 007b 0E       		.uleb128 0xe
 570 007c 3A       		.uleb128 0x3a
ARM GAS  C:\Users\jsyoon\AppData\Local\Temp\ccAMnLSs.s 			page 11


 571 007d 0B       		.uleb128 0xb
 572 007e 3B       		.uleb128 0x3b
 573 007f 0B       		.uleb128 0xb
 574 0080 27       		.uleb128 0x27
 575 0081 19       		.uleb128 0x19
 576 0082 11       		.uleb128 0x11
 577 0083 01       		.uleb128 0x1
 578 0084 12       		.uleb128 0x12
 579 0085 06       		.uleb128 0x6
 580 0086 40       		.uleb128 0x40
 581 0087 18       		.uleb128 0x18
 582 0088 9742     		.uleb128 0x2117
 583 008a 19       		.uleb128 0x19
 584 008b 00       		.byte	0
 585 008c 00       		.byte	0
 586 008d 0B       		.uleb128 0xb
 587 008e 2E       		.uleb128 0x2e
 588 008f 01       		.byte	0x1
 589 0090 3F       		.uleb128 0x3f
 590 0091 19       		.uleb128 0x19
 591 0092 03       		.uleb128 0x3
 592 0093 0E       		.uleb128 0xe
 593 0094 3A       		.uleb128 0x3a
 594 0095 0B       		.uleb128 0xb
 595 0096 3B       		.uleb128 0x3b
 596 0097 0B       		.uleb128 0xb
 597 0098 27       		.uleb128 0x27
 598 0099 19       		.uleb128 0x19
 599 009a 49       		.uleb128 0x49
 600 009b 13       		.uleb128 0x13
 601 009c 11       		.uleb128 0x11
 602 009d 01       		.uleb128 0x1
 603 009e 12       		.uleb128 0x12
 604 009f 06       		.uleb128 0x6
 605 00a0 40       		.uleb128 0x40
 606 00a1 18       		.uleb128 0x18
 607 00a2 9742     		.uleb128 0x2117
 608 00a4 19       		.uleb128 0x19
 609 00a5 01       		.uleb128 0x1
 610 00a6 13       		.uleb128 0x13
 611 00a7 00       		.byte	0
 612 00a8 00       		.byte	0
 613 00a9 0C       		.uleb128 0xc
 614 00aa 05       		.uleb128 0x5
 615 00ab 00       		.byte	0
 616 00ac 03       		.uleb128 0x3
 617 00ad 0E       		.uleb128 0xe
 618 00ae 3A       		.uleb128 0x3a
 619 00af 0B       		.uleb128 0xb
 620 00b0 3B       		.uleb128 0x3b
 621 00b1 0B       		.uleb128 0xb
 622 00b2 49       		.uleb128 0x49
 623 00b3 13       		.uleb128 0x13
 624 00b4 02       		.uleb128 0x2
 625 00b5 17       		.uleb128 0x17
 626 00b6 00       		.byte	0
 627 00b7 00       		.byte	0
ARM GAS  C:\Users\jsyoon\AppData\Local\Temp\ccAMnLSs.s 			page 12


 628 00b8 0D       		.uleb128 0xd
 629 00b9 34       		.uleb128 0x34
 630 00ba 00       		.byte	0
 631 00bb 03       		.uleb128 0x3
 632 00bc 0E       		.uleb128 0xe
 633 00bd 3A       		.uleb128 0x3a
 634 00be 0B       		.uleb128 0xb
 635 00bf 3B       		.uleb128 0x3b
 636 00c0 0B       		.uleb128 0xb
 637 00c1 49       		.uleb128 0x49
 638 00c2 13       		.uleb128 0x13
 639 00c3 02       		.uleb128 0x2
 640 00c4 17       		.uleb128 0x17
 641 00c5 00       		.byte	0
 642 00c6 00       		.byte	0
 643 00c7 0E       		.uleb128 0xe
 644 00c8 0F       		.uleb128 0xf
 645 00c9 00       		.byte	0
 646 00ca 0B       		.uleb128 0xb
 647 00cb 0B       		.uleb128 0xb
 648 00cc 49       		.uleb128 0x49
 649 00cd 13       		.uleb128 0x13
 650 00ce 00       		.byte	0
 651 00cf 00       		.byte	0
 652 00d0 0F       		.uleb128 0xf
 653 00d1 2E       		.uleb128 0x2e
 654 00d2 00       		.byte	0
 655 00d3 3F       		.uleb128 0x3f
 656 00d4 19       		.uleb128 0x19
 657 00d5 03       		.uleb128 0x3
 658 00d6 0E       		.uleb128 0xe
 659 00d7 3A       		.uleb128 0x3a
 660 00d8 0B       		.uleb128 0xb
 661 00d9 3B       		.uleb128 0x3b
 662 00da 0B       		.uleb128 0xb
 663 00db 27       		.uleb128 0x27
 664 00dc 19       		.uleb128 0x19
 665 00dd 49       		.uleb128 0x49
 666 00de 13       		.uleb128 0x13
 667 00df 11       		.uleb128 0x11
 668 00e0 01       		.uleb128 0x1
 669 00e1 12       		.uleb128 0x12
 670 00e2 06       		.uleb128 0x6
 671 00e3 40       		.uleb128 0x40
 672 00e4 18       		.uleb128 0x18
 673 00e5 9742     		.uleb128 0x2117
 674 00e7 19       		.uleb128 0x19
 675 00e8 00       		.byte	0
 676 00e9 00       		.byte	0
 677 00ea 10       		.uleb128 0x10
 678 00eb 2E       		.uleb128 0x2e
 679 00ec 01       		.byte	0x1
 680 00ed 3F       		.uleb128 0x3f
 681 00ee 19       		.uleb128 0x19
 682 00ef 03       		.uleb128 0x3
 683 00f0 0E       		.uleb128 0xe
 684 00f1 3A       		.uleb128 0x3a
ARM GAS  C:\Users\jsyoon\AppData\Local\Temp\ccAMnLSs.s 			page 13


 685 00f2 0B       		.uleb128 0xb
 686 00f3 3B       		.uleb128 0x3b
 687 00f4 0B       		.uleb128 0xb
 688 00f5 27       		.uleb128 0x27
 689 00f6 19       		.uleb128 0x19
 690 00f7 11       		.uleb128 0x11
 691 00f8 01       		.uleb128 0x1
 692 00f9 12       		.uleb128 0x12
 693 00fa 06       		.uleb128 0x6
 694 00fb 40       		.uleb128 0x40
 695 00fc 18       		.uleb128 0x18
 696 00fd 9742     		.uleb128 0x2117
 697 00ff 19       		.uleb128 0x19
 698 0100 01       		.uleb128 0x1
 699 0101 13       		.uleb128 0x13
 700 0102 00       		.byte	0
 701 0103 00       		.byte	0
 702 0104 11       		.uleb128 0x11
 703 0105 05       		.uleb128 0x5
 704 0106 00       		.byte	0
 705 0107 03       		.uleb128 0x3
 706 0108 0E       		.uleb128 0xe
 707 0109 3A       		.uleb128 0x3a
 708 010a 0B       		.uleb128 0xb
 709 010b 3B       		.uleb128 0x3b
 710 010c 0B       		.uleb128 0xb
 711 010d 49       		.uleb128 0x49
 712 010e 13       		.uleb128 0x13
 713 010f 02       		.uleb128 0x2
 714 0110 18       		.uleb128 0x18
 715 0111 00       		.byte	0
 716 0112 00       		.byte	0
 717 0113 12       		.uleb128 0x12
 718 0114 34       		.uleb128 0x34
 719 0115 00       		.byte	0
 720 0116 03       		.uleb128 0x3
 721 0117 0E       		.uleb128 0xe
 722 0118 3A       		.uleb128 0x3a
 723 0119 0B       		.uleb128 0xb
 724 011a 3B       		.uleb128 0x3b
 725 011b 05       		.uleb128 0x5
 726 011c 49       		.uleb128 0x49
 727 011d 13       		.uleb128 0x13
 728 011e 3F       		.uleb128 0x3f
 729 011f 19       		.uleb128 0x19
 730 0120 3C       		.uleb128 0x3c
 731 0121 19       		.uleb128 0x19
 732 0122 00       		.byte	0
 733 0123 00       		.byte	0
 734 0124 00       		.byte	0
 735              		.section	.debug_loc,"",%progbits
 736              	.Ldebug_loc0:
 737              	.LLST0:
 738 0000 00000000 		.4byte	.LVL0
 739 0004 06000000 		.4byte	.LVL1
 740 0008 0100     		.2byte	0x1
 741 000a 50       		.byte	0x50
ARM GAS  C:\Users\jsyoon\AppData\Local\Temp\ccAMnLSs.s 			page 14


 742 000b 06000000 		.4byte	.LVL1
 743 000f 0C000000 		.4byte	.LFE112
 744 0013 0200     		.2byte	0x2
 745 0015 73       		.byte	0x73
 746 0016 00       		.sleb128 0
 747 0017 00000000 		.4byte	0
 748 001b 00000000 		.4byte	0
 749              	.LLST1:
 750 001f 00000000 		.4byte	.LVL2
 751 0023 08000000 		.4byte	.LVL3
 752 0027 0100     		.2byte	0x1
 753 0029 50       		.byte	0x50
 754 002a 08000000 		.4byte	.LVL3
 755 002e 1C000000 		.4byte	.LFE113
 756 0032 0400     		.2byte	0x4
 757 0034 F3       		.byte	0xf3
 758 0035 01       		.uleb128 0x1
 759 0036 50       		.byte	0x50
 760 0037 9F       		.byte	0x9f
 761 0038 00000000 		.4byte	0
 762 003c 00000000 		.4byte	0
 763              	.LLST2:
 764 0040 00000000 		.4byte	.LVL2
 765 0044 08000000 		.4byte	.LVL3
 766 0048 0100     		.2byte	0x1
 767 004a 51       		.byte	0x51
 768 004b 08000000 		.4byte	.LVL3
 769 004f 1C000000 		.4byte	.LFE113
 770 0053 0400     		.2byte	0x4
 771 0055 F3       		.byte	0xf3
 772 0056 01       		.uleb128 0x1
 773 0057 51       		.byte	0x51
 774 0058 9F       		.byte	0x9f
 775 0059 00000000 		.4byte	0
 776 005d 00000000 		.4byte	0
 777              	.LLST3:
 778 0061 00000000 		.4byte	.LVL2
 779 0065 08000000 		.4byte	.LVL3
 780 0069 0200     		.2byte	0x2
 781 006b 30       		.byte	0x30
 782 006c 9F       		.byte	0x9f
 783 006d 00000000 		.4byte	0
 784 0071 00000000 		.4byte	0
 785              		.section	.debug_aranges,"",%progbits
 786 0000 44000000 		.4byte	0x44
 787 0004 0200     		.2byte	0x2
 788 0006 00000000 		.4byte	.Ldebug_info0
 789 000a 04       		.byte	0x4
 790 000b 00       		.byte	0
 791 000c 0000     		.2byte	0
 792 000e 0000     		.2byte	0
 793 0010 00000000 		.4byte	.LFB111
 794 0014 0C000000 		.4byte	.LFE111-.LFB111
 795 0018 00000000 		.4byte	.LFB112
 796 001c 0C000000 		.4byte	.LFE112-.LFB112
 797 0020 00000000 		.4byte	.LFB113
 798 0024 1C000000 		.4byte	.LFE113-.LFB113
ARM GAS  C:\Users\jsyoon\AppData\Local\Temp\ccAMnLSs.s 			page 15


 799 0028 00000000 		.4byte	.LFB114
 800 002c 0C000000 		.4byte	.LFE114-.LFB114
 801 0030 00000000 		.4byte	.LFB115
 802 0034 0C000000 		.4byte	.LFE115-.LFB115
 803 0038 00000000 		.4byte	.LFB116
 804 003c 0C000000 		.4byte	.LFE116-.LFB116
 805 0040 00000000 		.4byte	0
 806 0044 00000000 		.4byte	0
 807              		.section	.debug_ranges,"",%progbits
 808              	.Ldebug_ranges0:
 809 0000 00000000 		.4byte	.LFB111
 810 0004 0C000000 		.4byte	.LFE111
 811 0008 00000000 		.4byte	.LFB112
 812 000c 0C000000 		.4byte	.LFE112
 813 0010 00000000 		.4byte	.LFB113
 814 0014 1C000000 		.4byte	.LFE113
 815 0018 00000000 		.4byte	.LFB114
 816 001c 0C000000 		.4byte	.LFE114
 817 0020 00000000 		.4byte	.LFB115
 818 0024 0C000000 		.4byte	.LFE115
 819 0028 00000000 		.4byte	.LFB116
 820 002c 0C000000 		.4byte	.LFE116
 821 0030 00000000 		.4byte	0
 822 0034 00000000 		.4byte	0
 823              		.section	.debug_line,"",%progbits
 824              	.Ldebug_line0:
 825 0000 EC010000 		.section	.debug_str,"MS",%progbits,1
 825      02006F01 
 825      00000201 
 825      FB0E0D00 
 825      01010101 
 826              	.LASF22:
 827 0000 4352435F 		.ascii	"CRC_CalcBlockCRC\000"
 827      43616C63 
 827      426C6F63 
 827      6B435243 
 827      00
 828              	.LASF3:
 829 0011 5F5F7569 		.ascii	"__uint8_t\000"
 829      6E74385F 
 829      7400
 830              	.LASF30:
 831 001b 43686962 		.ascii	"ChibiOS_2.6.6/ext/stdperiph_stm32f4/src/stm32f4xx_c"
 831      694F535F 
 831      322E362E 
 831      362F6578 
 831      742F7374 
 832 004e 72632E63 		.ascii	"rc.c\000"
 832      00
 833              	.LASF29:
 834 0053 474E5520 		.ascii	"GNU C 4.8.4 20140526 (release) [ARM/embedded-4_8-br"
 834      4320342E 
 834      382E3420 
 834      32303134 
 834      30353236 
 835 0086 616E6368 		.ascii	"anch revision 211358] -mcpu=cortex-m4 -mfloat-abi=h"
 835      20726576 
ARM GAS  C:\Users\jsyoon\AppData\Local\Temp\ccAMnLSs.s 			page 16


 835      6973696F 
 835      6E203231 
 835      31333538 
 836 00b9 61726420 		.ascii	"ard -mfpu=fpv4-sp-d16 -mno-thumb-interwork -mthumb "
 836      2D6D6670 
 836      753D6670 
 836      76342D73 
 836      702D6431 
 837 00ec 2D676764 		.ascii	"-ggdb -O2 -std=gnu99 -fomit-frame-pointer -falign-f"
 837      62202D4F 
 837      32202D73 
 837      74643D67 
 837      6E753939 
 838 011f 756E6374 		.ascii	"unctions=16 -ffunction-sections -fdata-sections -fn"
 838      696F6E73 
 838      3D313620 
 838      2D666675 
 838      6E637469 
 839 0152 6F2D636F 		.ascii	"o-common -fsingle-precision-constant\000"
 839      6D6D6F6E 
 839      202D6673 
 839      696E676C 
 839      652D7072 
 840              	.LASF6:
 841 0177 5F5F696E 		.ascii	"__int32_t\000"
 841      7433325F 
 841      7400
 842              	.LASF18:
 843 0181 52455345 		.ascii	"RESERVED0\000"
 843      52564544 
 843      3000
 844              	.LASF19:
 845 018b 52455345 		.ascii	"RESERVED1\000"
 845      52564544 
 845      3100
 846              	.LASF21:
 847 0195 4352435F 		.ascii	"CRC_CalcCRC\000"
 847      43616C63 
 847      43524300 
 848              	.LASF1:
 849 01a1 756E7369 		.ascii	"unsigned char\000"
 849      676E6564 
 849      20636861 
 849      7200
 850              	.LASF9:
 851 01af 6C6F6E67 		.ascii	"long unsigned int\000"
 851      20756E73 
 851      69676E65 
 851      6420696E 
 851      7400
 852              	.LASF5:
 853 01c1 73686F72 		.ascii	"short unsigned int\000"
 853      7420756E 
 853      7369676E 
 853      65642069 
 853      6E7400
 854              	.LASF27:
ARM GAS  C:\Users\jsyoon\AppData\Local\Temp\ccAMnLSs.s 			page 17


 855 01d4 4352435F 		.ascii	"CRC_GetCRC\000"
 855      47657443 
 855      524300
 856              	.LASF35:
 857 01df 49544D5F 		.ascii	"ITM_RxBuffer\000"
 857      52784275 
 857      66666572 
 857      00
 858              	.LASF20:
 859 01ec 4352435F 		.ascii	"CRC_TypeDef\000"
 859      54797065 
 859      44656600 
 860              	.LASF4:
 861 01f8 5F5F7569 		.ascii	"__uint16_t\000"
 861      6E743136 
 861      5F7400
 862              	.LASF23:
 863 0203 44617461 		.ascii	"Data\000"
 863      00
 864              	.LASF8:
 865 0208 5F5F7569 		.ascii	"__uint32_t\000"
 865      6E743332 
 865      5F7400
 866              	.LASF25:
 867 0213 42756666 		.ascii	"BufferLength\000"
 867      65724C65 
 867      6E677468 
 867      00
 868              	.LASF12:
 869 0220 756E7369 		.ascii	"unsigned int\000"
 869      676E6564 
 869      20696E74 
 869      00
 870              	.LASF11:
 871 022d 6C6F6E67 		.ascii	"long long unsigned int\000"
 871      206C6F6E 
 871      6720756E 
 871      7369676E 
 871      65642069 
 872              	.LASF13:
 873 0244 75696E74 		.ascii	"uint8_t\000"
 873      385F7400 
 874              	.LASF24:
 875 024c 70427566 		.ascii	"pBuffer\000"
 875      66657200 
 876              	.LASF32:
 877 0254 4352435F 		.ascii	"CRC_ResetDR\000"
 877      52657365 
 877      74445200 
 878              	.LASF15:
 879 0260 696E7433 		.ascii	"int32_t\000"
 879      325F7400 
 880              	.LASF17:
 881 0268 73697A65 		.ascii	"sizetype\000"
 881      74797065 
 881      00
 882              	.LASF26:
ARM GAS  C:\Users\jsyoon\AppData\Local\Temp\ccAMnLSs.s 			page 18


 883 0271 49445661 		.ascii	"IDValue\000"
 883      6C756500 
 884              	.LASF10:
 885 0279 6C6F6E67 		.ascii	"long long int\000"
 885      206C6F6E 
 885      6720696E 
 885      7400
 886              	.LASF33:
 887 0287 696E6465 		.ascii	"index\000"
 887      7800
 888              	.LASF28:
 889 028d 4352435F 		.ascii	"CRC_GetIDRegister\000"
 889      47657449 
 889      44526567 
 889      69737465 
 889      7200
 890              	.LASF2:
 891 029f 73686F72 		.ascii	"short int\000"
 891      7420696E 
 891      7400
 892              	.LASF31:
 893 02a9 453A5C4D 		.ascii	"E:\\Maker\\BLDC\\test_eval\\try2\\OROCA-BLDC_R15080"
 893      616B6572 
 893      5C424C44 
 893      435C7465 
 893      73745F65 
 894 02d7 3700     		.ascii	"7\000"
 895              	.LASF14:
 896 02d9 75696E74 		.ascii	"uint16_t\000"
 896      31365F74 
 896      00
 897              	.LASF16:
 898 02e2 75696E74 		.ascii	"uint32_t\000"
 898      33325F74 
 898      00
 899              	.LASF7:
 900 02eb 6C6F6E67 		.ascii	"long int\000"
 900      20696E74 
 900      00
 901              	.LASF0:
 902 02f4 7369676E 		.ascii	"signed char\000"
 902      65642063 
 902      68617200 
 903              	.LASF34:
 904 0300 4352435F 		.ascii	"CRC_SetIDRegister\000"
 904      53657449 
 904      44526567 
 904      69737465 
 904      7200
 905              		.ident	"GCC: (GNU Tools for ARM Embedded Processors) 4.8.4 20140526 (release) [ARM/embedded-4_8-br
ARM GAS  C:\Users\jsyoon\AppData\Local\Temp\ccAMnLSs.s 			page 19


DEFINED SYMBOLS
                            *ABS*:00000000 stm32f4xx_crc.c
C:\Users\jsyoon\AppData\Local\Temp\ccAMnLSs.s:21     .text.CRC_ResetDR:00000000 $t
C:\Users\jsyoon\AppData\Local\Temp\ccAMnLSs.s:27     .text.CRC_ResetDR:00000000 CRC_ResetDR
C:\Users\jsyoon\AppData\Local\Temp\ccAMnLSs.s:43     .text.CRC_ResetDR:00000008 $d
C:\Users\jsyoon\AppData\Local\Temp\ccAMnLSs.s:48     .text.CRC_CalcCRC:00000000 $t
C:\Users\jsyoon\AppData\Local\Temp\ccAMnLSs.s:54     .text.CRC_CalcCRC:00000000 CRC_CalcCRC
C:\Users\jsyoon\AppData\Local\Temp\ccAMnLSs.s:73     .text.CRC_CalcCRC:00000008 $d
C:\Users\jsyoon\AppData\Local\Temp\ccAMnLSs.s:78     .text.CRC_CalcBlockCRC:00000000 $t
C:\Users\jsyoon\AppData\Local\Temp\ccAMnLSs.s:84     .text.CRC_CalcBlockCRC:00000000 CRC_CalcBlockCRC
C:\Users\jsyoon\AppData\Local\Temp\ccAMnLSs.s:113    .text.CRC_CalcBlockCRC:00000018 $d
C:\Users\jsyoon\AppData\Local\Temp\ccAMnLSs.s:118    .text.CRC_GetCRC:00000000 $t
C:\Users\jsyoon\AppData\Local\Temp\ccAMnLSs.s:124    .text.CRC_GetCRC:00000000 CRC_GetCRC
C:\Users\jsyoon\AppData\Local\Temp\ccAMnLSs.s:139    .text.CRC_GetCRC:00000008 $d
C:\Users\jsyoon\AppData\Local\Temp\ccAMnLSs.s:144    .text.CRC_SetIDRegister:00000000 $t
C:\Users\jsyoon\AppData\Local\Temp\ccAMnLSs.s:150    .text.CRC_SetIDRegister:00000000 CRC_SetIDRegister
C:\Users\jsyoon\AppData\Local\Temp\ccAMnLSs.s:165    .text.CRC_SetIDRegister:00000008 $d
C:\Users\jsyoon\AppData\Local\Temp\ccAMnLSs.s:170    .text.CRC_GetIDRegister:00000000 $t
C:\Users\jsyoon\AppData\Local\Temp\ccAMnLSs.s:176    .text.CRC_GetIDRegister:00000000 CRC_GetIDRegister
C:\Users\jsyoon\AppData\Local\Temp\ccAMnLSs.s:191    .text.CRC_GetIDRegister:00000008 $d
                     .debug_frame:00000010 $d
C:\Users\jsyoon\AppData\Local\Temp\ccAMnLSs.s:47     .text.CRC_ResetDR:0000000c $t
C:\Users\jsyoon\AppData\Local\Temp\ccAMnLSs.s:77     .text.CRC_CalcCRC:0000000c $t
C:\Users\jsyoon\AppData\Local\Temp\ccAMnLSs.s:117    .text.CRC_CalcBlockCRC:0000001c $t
C:\Users\jsyoon\AppData\Local\Temp\ccAMnLSs.s:143    .text.CRC_GetCRC:0000000c $t
C:\Users\jsyoon\AppData\Local\Temp\ccAMnLSs.s:169    .text.CRC_SetIDRegister:0000000c $t
C:\Users\jsyoon\AppData\Local\Temp\ccAMnLSs.s:195    .text.CRC_GetIDRegister:0000000c $t

NO UNDEFINED SYMBOLS
