ARM GAS  C:\Users\jsyoon\AppData\Local\Temp\ccY935aa.s 			page 1


   1              		.syntax unified
   2              		.cpu cortex-m4
   3              		.eabi_attribute 27, 3
   4              		.eabi_attribute 28, 1
   5              		.fpu fpv4-sp-d16
   6              		.eabi_attribute 20, 1
   7              		.eabi_attribute 21, 1
   8              		.eabi_attribute 23, 3
   9              		.eabi_attribute 24, 1
  10              		.eabi_attribute 25, 1
  11              		.eabi_attribute 26, 1
  12              		.eabi_attribute 30, 2
  13              		.eabi_attribute 34, 1
  14              		.eabi_attribute 18, 4
  15              		.thumb
  16              		.file	"stm32f4xx_rng.c"
  17              		.text
  18              	.Ltext0:
  19              		.cfi_sections	.debug_frame
  20              		.section	.text.RNG_DeInit,"ax",%progbits
  21              		.align	2
  22              		.p2align 4,,15
  23              		.global	RNG_DeInit
  24              		.thumb
  25              		.thumb_func
  26              		.type	RNG_DeInit, %function
  27              	RNG_DeInit:
  28              	.LFB111:
  29              		.file 1 "ChibiOS_2.6.6/ext/stdperiph_stm32f4/src/stm32f4xx_rng.c"
  30              		.loc 1 101 0
  31              		.cfi_startproc
  32              		@ args = 0, pretend = 0, frame = 0
  33              		@ frame_needed = 0, uses_anonymous_args = 0
  34 0000 08B5     		push	{r3, lr}
  35              		.cfi_def_cfa_offset 8
  36              		.cfi_offset 3, -8
  37              		.cfi_offset 14, -4
  38              		.loc 1 103 0
  39 0002 4020     		movs	r0, #64
  40 0004 0121     		movs	r1, #1
  41 0006 FFF7FEFF 		bl	RCC_AHB2PeriphResetCmd
  42              	.LVL0:
  43              		.loc 1 106 0
  44 000a 4020     		movs	r0, #64
  45 000c 0021     		movs	r1, #0
  46              		.loc 1 107 0
  47 000e BDE80840 		pop	{r3, lr}
  48              		.loc 1 106 0
  49 0012 FFF7FEBF 		b	RCC_AHB2PeriphResetCmd
  50              	.LVL1:
  51              		.cfi_endproc
  52              	.LFE111:
  53              		.size	RNG_DeInit, .-RNG_DeInit
  54 0016 00BFAFF3 		.section	.text.RNG_Cmd,"ax",%progbits
  54      0080AFF3 
  54      0080
  55              		.align	2
ARM GAS  C:\Users\jsyoon\AppData\Local\Temp\ccY935aa.s 			page 2


  56              		.p2align 4,,15
  57              		.global	RNG_Cmd
  58              		.thumb
  59              		.thumb_func
  60              		.type	RNG_Cmd, %function
  61              	RNG_Cmd:
  62              	.LFB112:
  63              		.loc 1 116 0
  64              		.cfi_startproc
  65              		@ args = 0, pretend = 0, frame = 0
  66              		@ frame_needed = 0, uses_anonymous_args = 0
  67              		@ link register save eliminated.
  68              	.LVL2:
  69              		.loc 1 123 0
  70 0000 054B     		ldr	r3, .L7
  71 0002 1A68     		ldr	r2, [r3]
  72              		.loc 1 120 0
  73 0004 18B9     		cbnz	r0, .L6
  74              		.loc 1 128 0
  75 0006 22F00402 		bic	r2, r2, #4
  76 000a 1A60     		str	r2, [r3]
  77 000c 7047     		bx	lr
  78              	.L6:
  79              		.loc 1 123 0
  80 000e 42F00402 		orr	r2, r2, #4
  81 0012 1A60     		str	r2, [r3]
  82 0014 7047     		bx	lr
  83              	.L8:
  84 0016 00BF     		.align	2
  85              	.L7:
  86 0018 00080650 		.word	1342572544
  87              		.cfi_endproc
  88              	.LFE112:
  89              		.size	RNG_Cmd, .-RNG_Cmd
  90 001c AFF30080 		.section	.text.RNG_GetRandomNumber,"ax",%progbits
  91              		.align	2
  92              		.p2align 4,,15
  93              		.global	RNG_GetRandomNumber
  94              		.thumb
  95              		.thumb_func
  96              		.type	RNG_GetRandomNumber, %function
  97              	RNG_GetRandomNumber:
  98              	.LFB113:
  99              		.loc 1 178 0
 100              		.cfi_startproc
 101              		@ args = 0, pretend = 0, frame = 0
 102              		@ frame_needed = 0, uses_anonymous_args = 0
 103              		@ link register save eliminated.
 104              		.loc 1 180 0
 105 0000 014B     		ldr	r3, .L10
 106 0002 9868     		ldr	r0, [r3, #8]
 107              		.loc 1 181 0
 108 0004 7047     		bx	lr
 109              	.L11:
 110 0006 00BF     		.align	2
 111              	.L10:
 112 0008 00080650 		.word	1342572544
ARM GAS  C:\Users\jsyoon\AppData\Local\Temp\ccY935aa.s 			page 3


 113              		.cfi_endproc
 114              	.LFE113:
 115              		.size	RNG_GetRandomNumber, .-RNG_GetRandomNumber
 116 000c AFF30080 		.section	.text.RNG_ITConfig,"ax",%progbits
 117              		.align	2
 118              		.p2align 4,,15
 119              		.global	RNG_ITConfig
 120              		.thumb
 121              		.thumb_func
 122              		.type	RNG_ITConfig, %function
 123              	RNG_ITConfig:
 124              	.LFB114:
 125              		.loc 1 275 0
 126              		.cfi_startproc
 127              		@ args = 0, pretend = 0, frame = 0
 128              		@ frame_needed = 0, uses_anonymous_args = 0
 129              		@ link register save eliminated.
 130              	.LVL3:
 131              		.loc 1 282 0
 132 0000 054B     		ldr	r3, .L16
 133 0002 1A68     		ldr	r2, [r3]
 134              		.loc 1 279 0
 135 0004 18B9     		cbnz	r0, .L15
 136              		.loc 1 287 0
 137 0006 22F00802 		bic	r2, r2, #8
 138 000a 1A60     		str	r2, [r3]
 139 000c 7047     		bx	lr
 140              	.L15:
 141              		.loc 1 282 0
 142 000e 42F00802 		orr	r2, r2, #8
 143 0012 1A60     		str	r2, [r3]
 144 0014 7047     		bx	lr
 145              	.L17:
 146 0016 00BF     		.align	2
 147              	.L16:
 148 0018 00080650 		.word	1342572544
 149              		.cfi_endproc
 150              	.LFE114:
 151              		.size	RNG_ITConfig, .-RNG_ITConfig
 152 001c AFF30080 		.section	.text.RNG_GetFlagStatus,"ax",%progbits
 153              		.align	2
 154              		.p2align 4,,15
 155              		.global	RNG_GetFlagStatus
 156              		.thumb
 157              		.thumb_func
 158              		.type	RNG_GetFlagStatus, %function
 159              	RNG_GetFlagStatus:
 160              	.LFB115:
 161              		.loc 1 301 0
 162              		.cfi_startproc
 163              		@ args = 0, pretend = 0, frame = 0
 164              		@ frame_needed = 0, uses_anonymous_args = 0
 165              		@ link register save eliminated.
 166              	.LVL4:
 167              		.loc 1 307 0
 168 0000 034B     		ldr	r3, .L19
 169 0002 5B68     		ldr	r3, [r3, #4]
ARM GAS  C:\Users\jsyoon\AppData\Local\Temp\ccY935aa.s 			page 4


 170              	.LVL5:
 171 0004 1842     		tst	r0, r3
 172              		.loc 1 319 0
 173 0006 0CBF     		ite	eq
 174 0008 0020     		moveq	r0, #0
 175 000a 0120     		movne	r0, #1
 176              	.LVL6:
 177 000c 7047     		bx	lr
 178              	.L20:
 179 000e 00BF     		.align	2
 180              	.L19:
 181 0010 00080650 		.word	1342572544
 182              		.cfi_endproc
 183              	.LFE115:
 184              		.size	RNG_GetFlagStatus, .-RNG_GetFlagStatus
 185 0014 AFF30080 		.section	.text.RNG_ClearFlag,"ax",%progbits
 185      AFF30080 
 185      AFF30080 
 186              		.align	2
 187              		.p2align 4,,15
 188              		.global	RNG_ClearFlag
 189              		.thumb
 190              		.thumb_func
 191              		.type	RNG_ClearFlag, %function
 192              	RNG_ClearFlag:
 193              	.LFB116:
 194              		.loc 1 334 0
 195              		.cfi_startproc
 196              		@ args = 0, pretend = 0, frame = 0
 197              		@ frame_needed = 0, uses_anonymous_args = 0
 198              		@ link register save eliminated.
 199              	.LVL7:
 200              		.loc 1 338 0
 201 0000 024B     		ldr	r3, .L22
 202 0002 6FEA0010 		mvn	r0, r0, lsl #4
 203              	.LVL8:
 204 0006 5860     		str	r0, [r3, #4]
 205 0008 7047     		bx	lr
 206              	.L23:
 207 000a 00BF     		.align	2
 208              	.L22:
 209 000c 00080650 		.word	1342572544
 210              		.cfi_endproc
 211              	.LFE116:
 212              		.size	RNG_ClearFlag, .-RNG_ClearFlag
 213              		.section	.text.RNG_GetITStatus,"ax",%progbits
 214              		.align	2
 215              		.p2align 4,,15
 216              		.global	RNG_GetITStatus
 217              		.thumb
 218              		.thumb_func
 219              		.type	RNG_GetITStatus, %function
 220              	RNG_GetITStatus:
 221              	.LFB117:
 222              		.loc 1 350 0
 223              		.cfi_startproc
 224              		@ args = 0, pretend = 0, frame = 0
ARM GAS  C:\Users\jsyoon\AppData\Local\Temp\ccY935aa.s 			page 5


 225              		@ frame_needed = 0, uses_anonymous_args = 0
 226              		@ link register save eliminated.
 227              	.LVL9:
 228              		.loc 1 356 0
 229 0000 034B     		ldr	r3, .L25
 230 0002 5B68     		ldr	r3, [r3, #4]
 231              	.LVL10:
 232 0004 1842     		tst	r0, r3
 233              		.loc 1 368 0
 234 0006 0CBF     		ite	eq
 235 0008 0020     		moveq	r0, #0
 236 000a 0120     		movne	r0, #1
 237              	.LVL11:
 238 000c 7047     		bx	lr
 239              	.L26:
 240 000e 00BF     		.align	2
 241              	.L25:
 242 0010 00080650 		.word	1342572544
 243              		.cfi_endproc
 244              	.LFE117:
 245              		.size	RNG_GetITStatus, .-RNG_GetITStatus
 246 0014 AFF30080 		.section	.text.RNG_ClearITPendingBit,"ax",%progbits
 246      AFF30080 
 246      AFF30080 
 247              		.align	2
 248              		.p2align 4,,15
 249              		.global	RNG_ClearITPendingBit
 250              		.thumb
 251              		.thumb_func
 252              		.type	RNG_ClearITPendingBit, %function
 253              	RNG_ClearITPendingBit:
 254              	.LFB118:
 255              		.loc 1 380 0
 256              		.cfi_startproc
 257              		@ args = 0, pretend = 0, frame = 0
 258              		@ frame_needed = 0, uses_anonymous_args = 0
 259              		@ link register save eliminated.
 260              	.LVL12:
 261              		.loc 1 385 0
 262 0000 C043     		mvns	r0, r0
 263              	.LVL13:
 264 0002 024B     		ldr	r3, .L28
 265 0004 C0B2     		uxtb	r0, r0
 266 0006 5860     		str	r0, [r3, #4]
 267 0008 7047     		bx	lr
 268              	.L29:
 269 000a 00BF     		.align	2
 270              	.L28:
 271 000c 00080650 		.word	1342572544
 272              		.cfi_endproc
 273              	.LFE118:
 274              		.size	RNG_ClearITPendingBit, .-RNG_ClearITPendingBit
 275              		.text
 276              	.Letext0:
 277              		.file 2 "c:\\crosstools\\gcc-arm-embedded\\4.8_2014q2\\arm-none-eabi\\include\\machine\\_default_t
 278              		.file 3 "c:\\crosstools\\gcc-arm-embedded\\4.8_2014q2\\arm-none-eabi\\include\\stdint.h"
 279              		.file 4 "ChibiOS_2.6.6/os/hal/platforms/STM32F4xx/stm32f4xx.h"
ARM GAS  C:\Users\jsyoon\AppData\Local\Temp\ccY935aa.s 			page 6


 280              		.file 5 "ChibiOS_2.6.6/os/ports/common/ARMCMx/CMSIS/include/core_cm4.h"
 281              		.file 6 "ChibiOS_2.6.6/ext/stdperiph_stm32f4/inc/stm32f4xx_rcc.h"
 282              		.section	.debug_info,"",%progbits
 283              	.Ldebug_info0:
 284 0000 C9020000 		.4byte	0x2c9
 285 0004 0400     		.2byte	0x4
 286 0006 00000000 		.4byte	.Ldebug_abbrev0
 287 000a 04       		.byte	0x4
 288 000b 01       		.uleb128 0x1
 289 000c 13000000 		.4byte	.LASF34
 290 0010 01       		.byte	0x1
 291 0011 4E010000 		.4byte	.LASF35
 292 0015 B0020000 		.4byte	.LASF36
 293 0019 00000000 		.4byte	.Ldebug_ranges0+0
 294 001d 00000000 		.4byte	0
 295 0021 00000000 		.4byte	.Ldebug_line0
 296 0025 02       		.uleb128 0x2
 297 0026 01       		.byte	0x1
 298 0027 06       		.byte	0x6
 299 0028 23030000 		.4byte	.LASF0
 300 002c 03       		.uleb128 0x3
 301 002d 00000000 		.4byte	.LASF4
 302 0031 02       		.byte	0x2
 303 0032 1C       		.byte	0x1c
 304 0033 37000000 		.4byte	0x37
 305 0037 02       		.uleb128 0x2
 306 0038 01       		.byte	0x1
 307 0039 08       		.byte	0x8
 308 003a E0010000 		.4byte	.LASF1
 309 003e 02       		.uleb128 0x2
 310 003f 02       		.byte	0x2
 311 0040 05       		.byte	0x5
 312 0041 E0020000 		.4byte	.LASF2
 313 0045 02       		.uleb128 0x2
 314 0046 02       		.byte	0x2
 315 0047 07       		.byte	0x7
 316 0048 90010000 		.4byte	.LASF3
 317 004c 03       		.uleb128 0x3
 318 004d 86010000 		.4byte	.LASF5
 319 0051 02       		.byte	0x2
 320 0052 37       		.byte	0x37
 321 0053 57000000 		.4byte	0x57
 322 0057 02       		.uleb128 0x2
 323 0058 04       		.byte	0x4
 324 0059 05       		.byte	0x5
 325 005a 1A030000 		.4byte	.LASF6
 326 005e 03       		.uleb128 0x3
 327 005f 45020000 		.4byte	.LASF7
 328 0063 02       		.byte	0x2
 329 0064 38       		.byte	0x38
 330 0065 69000000 		.4byte	0x69
 331 0069 02       		.uleb128 0x2
 332 006a 04       		.byte	0x4
 333 006b 07       		.byte	0x7
 334 006c 0D020000 		.4byte	.LASF8
 335 0070 02       		.uleb128 0x2
 336 0071 08       		.byte	0x8
ARM GAS  C:\Users\jsyoon\AppData\Local\Temp\ccY935aa.s 			page 7


 337 0072 05       		.byte	0x5
 338 0073 A2020000 		.4byte	.LASF9
 339 0077 02       		.uleb128 0x2
 340 0078 08       		.byte	0x8
 341 0079 07       		.byte	0x7
 342 007a 72020000 		.4byte	.LASF10
 343 007e 04       		.uleb128 0x4
 344 007f 04       		.byte	0x4
 345 0080 05       		.byte	0x5
 346 0081 696E7400 		.ascii	"int\000"
 347 0085 02       		.uleb128 0x2
 348 0086 04       		.byte	0x4
 349 0087 07       		.byte	0x7
 350 0088 5C020000 		.4byte	.LASF11
 351 008c 03       		.uleb128 0x3
 352 008d 89020000 		.4byte	.LASF12
 353 0091 03       		.byte	0x3
 354 0092 2A       		.byte	0x2a
 355 0093 2C000000 		.4byte	0x2c
 356 0097 03       		.uleb128 0x3
 357 0098 91020000 		.4byte	.LASF13
 358 009c 03       		.byte	0x3
 359 009d 41       		.byte	0x41
 360 009e 4C000000 		.4byte	0x4c
 361 00a2 03       		.uleb128 0x3
 362 00a3 11030000 		.4byte	.LASF14
 363 00a7 03       		.byte	0x3
 364 00a8 42       		.byte	0x42
 365 00a9 5E000000 		.4byte	0x5e
 366 00ad 02       		.uleb128 0x2
 367 00ae 04       		.byte	0x4
 368 00af 07       		.byte	0x7
 369 00b0 99020000 		.4byte	.LASF15
 370 00b4 05       		.uleb128 0x5
 371 00b5 A2000000 		.4byte	0xa2
 372 00b9 05       		.uleb128 0x5
 373 00ba 97000000 		.4byte	0x97
 374 00be 06       		.uleb128 0x6
 375 00bf 01       		.byte	0x1
 376 00c0 04       		.byte	0x4
 377 00c1 F701     		.2byte	0x1f7
 378 00c3 D4000000 		.4byte	0xd4
 379 00c7 07       		.uleb128 0x7
 380 00c8 2A020000 		.4byte	.LASF16
 381 00cc 00       		.sleb128 0
 382 00cd 08       		.uleb128 0x8
 383 00ce 53455400 		.ascii	"SET\000"
 384 00d2 01       		.sleb128 1
 385 00d3 00       		.byte	0
 386 00d4 09       		.uleb128 0x9
 387 00d5 EE010000 		.4byte	.LASF17
 388 00d9 04       		.byte	0x4
 389 00da F701     		.2byte	0x1f7
 390 00dc BE000000 		.4byte	0xbe
 391 00e0 09       		.uleb128 0x9
 392 00e1 0A000000 		.4byte	.LASF18
 393 00e5 04       		.byte	0x4
ARM GAS  C:\Users\jsyoon\AppData\Local\Temp\ccY935aa.s 			page 8


 394 00e6 F701     		.2byte	0x1f7
 395 00e8 BE000000 		.4byte	0xbe
 396 00ec 06       		.uleb128 0x6
 397 00ed 01       		.byte	0x1
 398 00ee 04       		.byte	0x4
 399 00ef F901     		.2byte	0x1f9
 400 00f1 02010000 		.4byte	0x102
 401 00f5 07       		.uleb128 0x7
 402 00f6 30020000 		.4byte	.LASF19
 403 00fa 00       		.sleb128 0
 404 00fb 07       		.uleb128 0x7
 405 00fc D9010000 		.4byte	.LASF20
 406 0100 01       		.sleb128 1
 407 0101 00       		.byte	0
 408 0102 09       		.uleb128 0x9
 409 0103 A3010000 		.4byte	.LASF21
 410 0107 04       		.byte	0x4
 411 0108 F901     		.2byte	0x1f9
 412 010a EC000000 		.4byte	0xec
 413 010e 0A       		.uleb128 0xa
 414 010f 0C       		.byte	0xc
 415 0110 04       		.byte	0x4
 416 0111 8F05     		.2byte	0x58f
 417 0113 3C010000 		.4byte	0x13c
 418 0117 0B       		.uleb128 0xb
 419 0118 435200   		.ascii	"CR\000"
 420 011b 04       		.byte	0x4
 421 011c 9105     		.2byte	0x591
 422 011e B4000000 		.4byte	0xb4
 423 0122 00       		.byte	0
 424 0123 0B       		.uleb128 0xb
 425 0124 535200   		.ascii	"SR\000"
 426 0127 04       		.byte	0x4
 427 0128 9205     		.2byte	0x592
 428 012a B4000000 		.4byte	0xb4
 429 012e 04       		.byte	0x4
 430 012f 0B       		.uleb128 0xb
 431 0130 445200   		.ascii	"DR\000"
 432 0133 04       		.byte	0x4
 433 0134 9305     		.2byte	0x593
 434 0136 B4000000 		.4byte	0xb4
 435 013a 08       		.byte	0x8
 436 013b 00       		.byte	0
 437 013c 09       		.uleb128 0x9
 438 013d 50020000 		.4byte	.LASF22
 439 0141 04       		.byte	0x4
 440 0142 9405     		.2byte	0x594
 441 0144 0E010000 		.4byte	0x10e
 442 0148 0C       		.uleb128 0xc
 443 0149 1F020000 		.4byte	.LASF23
 444 014d 01       		.byte	0x1
 445 014e 64       		.byte	0x64
 446 014f 00000000 		.4byte	.LFB111
 447 0153 16000000 		.4byte	.LFE111-.LFB111
 448 0157 01       		.uleb128 0x1
 449 0158 9C       		.byte	0x9c
 450 0159 8C010000 		.4byte	0x18c
ARM GAS  C:\Users\jsyoon\AppData\Local\Temp\ccY935aa.s 			page 9


 451 015d 0D       		.uleb128 0xd
 452 015e 0A000000 		.4byte	.LVL0
 453 0162 B9020000 		.4byte	0x2b9
 454 0166 76010000 		.4byte	0x176
 455 016a 0E       		.uleb128 0xe
 456 016b 01       		.uleb128 0x1
 457 016c 51       		.byte	0x51
 458 016d 01       		.uleb128 0x1
 459 016e 31       		.byte	0x31
 460 016f 0E       		.uleb128 0xe
 461 0170 01       		.uleb128 0x1
 462 0171 50       		.byte	0x50
 463 0172 02       		.uleb128 0x2
 464 0173 08       		.byte	0x8
 465 0174 40       		.byte	0x40
 466 0175 00       		.byte	0
 467 0176 0F       		.uleb128 0xf
 468 0177 16000000 		.4byte	.LVL1
 469 017b B9020000 		.4byte	0x2b9
 470 017f 0E       		.uleb128 0xe
 471 0180 01       		.uleb128 0x1
 472 0181 51       		.byte	0x51
 473 0182 01       		.uleb128 0x1
 474 0183 30       		.byte	0x30
 475 0184 0E       		.uleb128 0xe
 476 0185 01       		.uleb128 0x1
 477 0186 50       		.byte	0x50
 478 0187 02       		.uleb128 0x2
 479 0188 08       		.byte	0x8
 480 0189 40       		.byte	0x40
 481 018a 00       		.byte	0
 482 018b 00       		.byte	0
 483 018c 0C       		.uleb128 0xc
 484 018d C0010000 		.4byte	.LASF24
 485 0191 01       		.byte	0x1
 486 0192 73       		.byte	0x73
 487 0193 00000000 		.4byte	.LFB112
 488 0197 1C000000 		.4byte	.LFE112-.LFB112
 489 019b 01       		.uleb128 0x1
 490 019c 9C       		.byte	0x9c
 491 019d AF010000 		.4byte	0x1af
 492 01a1 10       		.uleb128 0x10
 493 01a2 F8020000 		.4byte	.LASF26
 494 01a6 01       		.byte	0x1
 495 01a7 73       		.byte	0x73
 496 01a8 02010000 		.4byte	0x102
 497 01ac 01       		.uleb128 0x1
 498 01ad 50       		.byte	0x50
 499 01ae 00       		.byte	0
 500 01af 11       		.uleb128 0x11
 501 01b0 F9010000 		.4byte	.LASF37
 502 01b4 01       		.byte	0x1
 503 01b5 B1       		.byte	0xb1
 504 01b6 A2000000 		.4byte	0xa2
 505 01ba 00000000 		.4byte	.LFB113
 506 01be 0C000000 		.4byte	.LFE113-.LFB113
 507 01c2 01       		.uleb128 0x1
ARM GAS  C:\Users\jsyoon\AppData\Local\Temp\ccY935aa.s 			page 10


 508 01c3 9C       		.byte	0x9c
 509 01c4 12       		.uleb128 0x12
 510 01c5 B3010000 		.4byte	.LASF25
 511 01c9 01       		.byte	0x1
 512 01ca 1201     		.2byte	0x112
 513 01cc 00000000 		.4byte	.LFB114
 514 01d0 1C000000 		.4byte	.LFE114-.LFB114
 515 01d4 01       		.uleb128 0x1
 516 01d5 9C       		.byte	0x9c
 517 01d6 E9010000 		.4byte	0x1e9
 518 01da 13       		.uleb128 0x13
 519 01db F8020000 		.4byte	.LASF26
 520 01df 01       		.byte	0x1
 521 01e0 1201     		.2byte	0x112
 522 01e2 02010000 		.4byte	0x102
 523 01e6 01       		.uleb128 0x1
 524 01e7 50       		.byte	0x50
 525 01e8 00       		.byte	0
 526 01e9 14       		.uleb128 0x14
 527 01ea 45030000 		.4byte	.LASF29
 528 01ee 01       		.byte	0x1
 529 01ef 2C01     		.2byte	0x12c
 530 01f1 D4000000 		.4byte	0xd4
 531 01f5 00000000 		.4byte	.LFB115
 532 01f9 14000000 		.4byte	.LFE115-.LFB115
 533 01fd 01       		.uleb128 0x1
 534 01fe 9C       		.byte	0x9c
 535 01ff 24020000 		.4byte	0x224
 536 0203 15       		.uleb128 0x15
 537 0204 69020000 		.4byte	.LASF27
 538 0208 01       		.byte	0x1
 539 0209 2C01     		.2byte	0x12c
 540 020b 8C000000 		.4byte	0x8c
 541 020f 00000000 		.4byte	.LLST0
 542 0213 16       		.uleb128 0x16
 543 0214 C8010000 		.4byte	.LASF32
 544 0218 01       		.byte	0x1
 545 0219 2E01     		.2byte	0x12e
 546 021b D4000000 		.4byte	0xd4
 547 021f 21000000 		.4byte	.LLST1
 548 0223 00       		.byte	0
 549 0224 12       		.uleb128 0x12
 550 0225 EA020000 		.4byte	.LASF28
 551 0229 01       		.byte	0x1
 552 022a 4D01     		.2byte	0x14d
 553 022c 00000000 		.4byte	.LFB116
 554 0230 10000000 		.4byte	.LFE116-.LFB116
 555 0234 01       		.uleb128 0x1
 556 0235 9C       		.byte	0x9c
 557 0236 4B020000 		.4byte	0x24b
 558 023a 15       		.uleb128 0x15
 559 023b 69020000 		.4byte	.LASF27
 560 023f 01       		.byte	0x1
 561 0240 4D01     		.2byte	0x14d
 562 0242 8C000000 		.4byte	0x8c
 563 0246 60000000 		.4byte	.LLST2
 564 024a 00       		.byte	0
ARM GAS  C:\Users\jsyoon\AppData\Local\Temp\ccY935aa.s 			page 11


 565 024b 14       		.uleb128 0x14
 566 024c 01030000 		.4byte	.LASF30
 567 0250 01       		.byte	0x1
 568 0251 5D01     		.2byte	0x15d
 569 0253 E0000000 		.4byte	0xe0
 570 0257 00000000 		.4byte	.LFB117
 571 025b 14000000 		.4byte	.LFE117-.LFB117
 572 025f 01       		.uleb128 0x1
 573 0260 9C       		.byte	0x9c
 574 0261 86020000 		.4byte	0x286
 575 0265 15       		.uleb128 0x15
 576 0266 D2010000 		.4byte	.LASF31
 577 026a 01       		.byte	0x1
 578 026b 5D01     		.2byte	0x15d
 579 026d 8C000000 		.4byte	0x8c
 580 0271 81000000 		.4byte	.LLST3
 581 0275 16       		.uleb128 0x16
 582 0276 C8010000 		.4byte	.LASF32
 583 027a 01       		.byte	0x1
 584 027b 5F01     		.2byte	0x15f
 585 027d E0000000 		.4byte	0xe0
 586 0281 A2000000 		.4byte	.LLST4
 587 0285 00       		.byte	0
 588 0286 12       		.uleb128 0x12
 589 0287 2F030000 		.4byte	.LASF33
 590 028b 01       		.byte	0x1
 591 028c 7B01     		.2byte	0x17b
 592 028e 00000000 		.4byte	.LFB118
 593 0292 10000000 		.4byte	.LFE118-.LFB118
 594 0296 01       		.uleb128 0x1
 595 0297 9C       		.byte	0x9c
 596 0298 AD020000 		.4byte	0x2ad
 597 029c 15       		.uleb128 0x15
 598 029d D2010000 		.4byte	.LASF31
 599 02a1 01       		.byte	0x1
 600 02a2 7B01     		.2byte	0x17b
 601 02a4 8C000000 		.4byte	0x8c
 602 02a8 E1000000 		.4byte	.LLST5
 603 02ac 00       		.byte	0
 604 02ad 17       		.uleb128 0x17
 605 02ae 38020000 		.4byte	.LASF38
 606 02b2 05       		.byte	0x5
 607 02b3 9806     		.2byte	0x698
 608 02b5 B9000000 		.4byte	0xb9
 609 02b9 18       		.uleb128 0x18
 610 02ba 37010000 		.4byte	.LASF39
 611 02be 06       		.byte	0x6
 612 02bf E401     		.2byte	0x1e4
 613 02c1 19       		.uleb128 0x19
 614 02c2 A2000000 		.4byte	0xa2
 615 02c6 19       		.uleb128 0x19
 616 02c7 02010000 		.4byte	0x102
 617 02cb 00       		.byte	0
 618 02cc 00       		.byte	0
 619              		.section	.debug_abbrev,"",%progbits
 620              	.Ldebug_abbrev0:
 621 0000 01       		.uleb128 0x1
ARM GAS  C:\Users\jsyoon\AppData\Local\Temp\ccY935aa.s 			page 12


 622 0001 11       		.uleb128 0x11
 623 0002 01       		.byte	0x1
 624 0003 25       		.uleb128 0x25
 625 0004 0E       		.uleb128 0xe
 626 0005 13       		.uleb128 0x13
 627 0006 0B       		.uleb128 0xb
 628 0007 03       		.uleb128 0x3
 629 0008 0E       		.uleb128 0xe
 630 0009 1B       		.uleb128 0x1b
 631 000a 0E       		.uleb128 0xe
 632 000b 55       		.uleb128 0x55
 633 000c 17       		.uleb128 0x17
 634 000d 11       		.uleb128 0x11
 635 000e 01       		.uleb128 0x1
 636 000f 10       		.uleb128 0x10
 637 0010 17       		.uleb128 0x17
 638 0011 00       		.byte	0
 639 0012 00       		.byte	0
 640 0013 02       		.uleb128 0x2
 641 0014 24       		.uleb128 0x24
 642 0015 00       		.byte	0
 643 0016 0B       		.uleb128 0xb
 644 0017 0B       		.uleb128 0xb
 645 0018 3E       		.uleb128 0x3e
 646 0019 0B       		.uleb128 0xb
 647 001a 03       		.uleb128 0x3
 648 001b 0E       		.uleb128 0xe
 649 001c 00       		.byte	0
 650 001d 00       		.byte	0
 651 001e 03       		.uleb128 0x3
 652 001f 16       		.uleb128 0x16
 653 0020 00       		.byte	0
 654 0021 03       		.uleb128 0x3
 655 0022 0E       		.uleb128 0xe
 656 0023 3A       		.uleb128 0x3a
 657 0024 0B       		.uleb128 0xb
 658 0025 3B       		.uleb128 0x3b
 659 0026 0B       		.uleb128 0xb
 660 0027 49       		.uleb128 0x49
 661 0028 13       		.uleb128 0x13
 662 0029 00       		.byte	0
 663 002a 00       		.byte	0
 664 002b 04       		.uleb128 0x4
 665 002c 24       		.uleb128 0x24
 666 002d 00       		.byte	0
 667 002e 0B       		.uleb128 0xb
 668 002f 0B       		.uleb128 0xb
 669 0030 3E       		.uleb128 0x3e
 670 0031 0B       		.uleb128 0xb
 671 0032 03       		.uleb128 0x3
 672 0033 08       		.uleb128 0x8
 673 0034 00       		.byte	0
 674 0035 00       		.byte	0
 675 0036 05       		.uleb128 0x5
 676 0037 35       		.uleb128 0x35
 677 0038 00       		.byte	0
 678 0039 49       		.uleb128 0x49
ARM GAS  C:\Users\jsyoon\AppData\Local\Temp\ccY935aa.s 			page 13


 679 003a 13       		.uleb128 0x13
 680 003b 00       		.byte	0
 681 003c 00       		.byte	0
 682 003d 06       		.uleb128 0x6
 683 003e 04       		.uleb128 0x4
 684 003f 01       		.byte	0x1
 685 0040 0B       		.uleb128 0xb
 686 0041 0B       		.uleb128 0xb
 687 0042 3A       		.uleb128 0x3a
 688 0043 0B       		.uleb128 0xb
 689 0044 3B       		.uleb128 0x3b
 690 0045 05       		.uleb128 0x5
 691 0046 01       		.uleb128 0x1
 692 0047 13       		.uleb128 0x13
 693 0048 00       		.byte	0
 694 0049 00       		.byte	0
 695 004a 07       		.uleb128 0x7
 696 004b 28       		.uleb128 0x28
 697 004c 00       		.byte	0
 698 004d 03       		.uleb128 0x3
 699 004e 0E       		.uleb128 0xe
 700 004f 1C       		.uleb128 0x1c
 701 0050 0D       		.uleb128 0xd
 702 0051 00       		.byte	0
 703 0052 00       		.byte	0
 704 0053 08       		.uleb128 0x8
 705 0054 28       		.uleb128 0x28
 706 0055 00       		.byte	0
 707 0056 03       		.uleb128 0x3
 708 0057 08       		.uleb128 0x8
 709 0058 1C       		.uleb128 0x1c
 710 0059 0D       		.uleb128 0xd
 711 005a 00       		.byte	0
 712 005b 00       		.byte	0
 713 005c 09       		.uleb128 0x9
 714 005d 16       		.uleb128 0x16
 715 005e 00       		.byte	0
 716 005f 03       		.uleb128 0x3
 717 0060 0E       		.uleb128 0xe
 718 0061 3A       		.uleb128 0x3a
 719 0062 0B       		.uleb128 0xb
 720 0063 3B       		.uleb128 0x3b
 721 0064 05       		.uleb128 0x5
 722 0065 49       		.uleb128 0x49
 723 0066 13       		.uleb128 0x13
 724 0067 00       		.byte	0
 725 0068 00       		.byte	0
 726 0069 0A       		.uleb128 0xa
 727 006a 13       		.uleb128 0x13
 728 006b 01       		.byte	0x1
 729 006c 0B       		.uleb128 0xb
 730 006d 0B       		.uleb128 0xb
 731 006e 3A       		.uleb128 0x3a
 732 006f 0B       		.uleb128 0xb
 733 0070 3B       		.uleb128 0x3b
 734 0071 05       		.uleb128 0x5
 735 0072 01       		.uleb128 0x1
ARM GAS  C:\Users\jsyoon\AppData\Local\Temp\ccY935aa.s 			page 14


 736 0073 13       		.uleb128 0x13
 737 0074 00       		.byte	0
 738 0075 00       		.byte	0
 739 0076 0B       		.uleb128 0xb
 740 0077 0D       		.uleb128 0xd
 741 0078 00       		.byte	0
 742 0079 03       		.uleb128 0x3
 743 007a 08       		.uleb128 0x8
 744 007b 3A       		.uleb128 0x3a
 745 007c 0B       		.uleb128 0xb
 746 007d 3B       		.uleb128 0x3b
 747 007e 05       		.uleb128 0x5
 748 007f 49       		.uleb128 0x49
 749 0080 13       		.uleb128 0x13
 750 0081 38       		.uleb128 0x38
 751 0082 0B       		.uleb128 0xb
 752 0083 00       		.byte	0
 753 0084 00       		.byte	0
 754 0085 0C       		.uleb128 0xc
 755 0086 2E       		.uleb128 0x2e
 756 0087 01       		.byte	0x1
 757 0088 3F       		.uleb128 0x3f
 758 0089 19       		.uleb128 0x19
 759 008a 03       		.uleb128 0x3
 760 008b 0E       		.uleb128 0xe
 761 008c 3A       		.uleb128 0x3a
 762 008d 0B       		.uleb128 0xb
 763 008e 3B       		.uleb128 0x3b
 764 008f 0B       		.uleb128 0xb
 765 0090 27       		.uleb128 0x27
 766 0091 19       		.uleb128 0x19
 767 0092 11       		.uleb128 0x11
 768 0093 01       		.uleb128 0x1
 769 0094 12       		.uleb128 0x12
 770 0095 06       		.uleb128 0x6
 771 0096 40       		.uleb128 0x40
 772 0097 18       		.uleb128 0x18
 773 0098 9742     		.uleb128 0x2117
 774 009a 19       		.uleb128 0x19
 775 009b 01       		.uleb128 0x1
 776 009c 13       		.uleb128 0x13
 777 009d 00       		.byte	0
 778 009e 00       		.byte	0
 779 009f 0D       		.uleb128 0xd
 780 00a0 898201   		.uleb128 0x4109
 781 00a3 01       		.byte	0x1
 782 00a4 11       		.uleb128 0x11
 783 00a5 01       		.uleb128 0x1
 784 00a6 31       		.uleb128 0x31
 785 00a7 13       		.uleb128 0x13
 786 00a8 01       		.uleb128 0x1
 787 00a9 13       		.uleb128 0x13
 788 00aa 00       		.byte	0
 789 00ab 00       		.byte	0
 790 00ac 0E       		.uleb128 0xe
 791 00ad 8A8201   		.uleb128 0x410a
 792 00b0 00       		.byte	0
ARM GAS  C:\Users\jsyoon\AppData\Local\Temp\ccY935aa.s 			page 15


 793 00b1 02       		.uleb128 0x2
 794 00b2 18       		.uleb128 0x18
 795 00b3 9142     		.uleb128 0x2111
 796 00b5 18       		.uleb128 0x18
 797 00b6 00       		.byte	0
 798 00b7 00       		.byte	0
 799 00b8 0F       		.uleb128 0xf
 800 00b9 898201   		.uleb128 0x4109
 801 00bc 01       		.byte	0x1
 802 00bd 11       		.uleb128 0x11
 803 00be 01       		.uleb128 0x1
 804 00bf 9542     		.uleb128 0x2115
 805 00c1 19       		.uleb128 0x19
 806 00c2 31       		.uleb128 0x31
 807 00c3 13       		.uleb128 0x13
 808 00c4 00       		.byte	0
 809 00c5 00       		.byte	0
 810 00c6 10       		.uleb128 0x10
 811 00c7 05       		.uleb128 0x5
 812 00c8 00       		.byte	0
 813 00c9 03       		.uleb128 0x3
 814 00ca 0E       		.uleb128 0xe
 815 00cb 3A       		.uleb128 0x3a
 816 00cc 0B       		.uleb128 0xb
 817 00cd 3B       		.uleb128 0x3b
 818 00ce 0B       		.uleb128 0xb
 819 00cf 49       		.uleb128 0x49
 820 00d0 13       		.uleb128 0x13
 821 00d1 02       		.uleb128 0x2
 822 00d2 18       		.uleb128 0x18
 823 00d3 00       		.byte	0
 824 00d4 00       		.byte	0
 825 00d5 11       		.uleb128 0x11
 826 00d6 2E       		.uleb128 0x2e
 827 00d7 00       		.byte	0
 828 00d8 3F       		.uleb128 0x3f
 829 00d9 19       		.uleb128 0x19
 830 00da 03       		.uleb128 0x3
 831 00db 0E       		.uleb128 0xe
 832 00dc 3A       		.uleb128 0x3a
 833 00dd 0B       		.uleb128 0xb
 834 00de 3B       		.uleb128 0x3b
 835 00df 0B       		.uleb128 0xb
 836 00e0 27       		.uleb128 0x27
 837 00e1 19       		.uleb128 0x19
 838 00e2 49       		.uleb128 0x49
 839 00e3 13       		.uleb128 0x13
 840 00e4 11       		.uleb128 0x11
 841 00e5 01       		.uleb128 0x1
 842 00e6 12       		.uleb128 0x12
 843 00e7 06       		.uleb128 0x6
 844 00e8 40       		.uleb128 0x40
 845 00e9 18       		.uleb128 0x18
 846 00ea 9742     		.uleb128 0x2117
 847 00ec 19       		.uleb128 0x19
 848 00ed 00       		.byte	0
 849 00ee 00       		.byte	0
ARM GAS  C:\Users\jsyoon\AppData\Local\Temp\ccY935aa.s 			page 16


 850 00ef 12       		.uleb128 0x12
 851 00f0 2E       		.uleb128 0x2e
 852 00f1 01       		.byte	0x1
 853 00f2 3F       		.uleb128 0x3f
 854 00f3 19       		.uleb128 0x19
 855 00f4 03       		.uleb128 0x3
 856 00f5 0E       		.uleb128 0xe
 857 00f6 3A       		.uleb128 0x3a
 858 00f7 0B       		.uleb128 0xb
 859 00f8 3B       		.uleb128 0x3b
 860 00f9 05       		.uleb128 0x5
 861 00fa 27       		.uleb128 0x27
 862 00fb 19       		.uleb128 0x19
 863 00fc 11       		.uleb128 0x11
 864 00fd 01       		.uleb128 0x1
 865 00fe 12       		.uleb128 0x12
 866 00ff 06       		.uleb128 0x6
 867 0100 40       		.uleb128 0x40
 868 0101 18       		.uleb128 0x18
 869 0102 9742     		.uleb128 0x2117
 870 0104 19       		.uleb128 0x19
 871 0105 01       		.uleb128 0x1
 872 0106 13       		.uleb128 0x13
 873 0107 00       		.byte	0
 874 0108 00       		.byte	0
 875 0109 13       		.uleb128 0x13
 876 010a 05       		.uleb128 0x5
 877 010b 00       		.byte	0
 878 010c 03       		.uleb128 0x3
 879 010d 0E       		.uleb128 0xe
 880 010e 3A       		.uleb128 0x3a
 881 010f 0B       		.uleb128 0xb
 882 0110 3B       		.uleb128 0x3b
 883 0111 05       		.uleb128 0x5
 884 0112 49       		.uleb128 0x49
 885 0113 13       		.uleb128 0x13
 886 0114 02       		.uleb128 0x2
 887 0115 18       		.uleb128 0x18
 888 0116 00       		.byte	0
 889 0117 00       		.byte	0
 890 0118 14       		.uleb128 0x14
 891 0119 2E       		.uleb128 0x2e
 892 011a 01       		.byte	0x1
 893 011b 3F       		.uleb128 0x3f
 894 011c 19       		.uleb128 0x19
 895 011d 03       		.uleb128 0x3
 896 011e 0E       		.uleb128 0xe
 897 011f 3A       		.uleb128 0x3a
 898 0120 0B       		.uleb128 0xb
 899 0121 3B       		.uleb128 0x3b
 900 0122 05       		.uleb128 0x5
 901 0123 27       		.uleb128 0x27
 902 0124 19       		.uleb128 0x19
 903 0125 49       		.uleb128 0x49
 904 0126 13       		.uleb128 0x13
 905 0127 11       		.uleb128 0x11
 906 0128 01       		.uleb128 0x1
ARM GAS  C:\Users\jsyoon\AppData\Local\Temp\ccY935aa.s 			page 17


 907 0129 12       		.uleb128 0x12
 908 012a 06       		.uleb128 0x6
 909 012b 40       		.uleb128 0x40
 910 012c 18       		.uleb128 0x18
 911 012d 9742     		.uleb128 0x2117
 912 012f 19       		.uleb128 0x19
 913 0130 01       		.uleb128 0x1
 914 0131 13       		.uleb128 0x13
 915 0132 00       		.byte	0
 916 0133 00       		.byte	0
 917 0134 15       		.uleb128 0x15
 918 0135 05       		.uleb128 0x5
 919 0136 00       		.byte	0
 920 0137 03       		.uleb128 0x3
 921 0138 0E       		.uleb128 0xe
 922 0139 3A       		.uleb128 0x3a
 923 013a 0B       		.uleb128 0xb
 924 013b 3B       		.uleb128 0x3b
 925 013c 05       		.uleb128 0x5
 926 013d 49       		.uleb128 0x49
 927 013e 13       		.uleb128 0x13
 928 013f 02       		.uleb128 0x2
 929 0140 17       		.uleb128 0x17
 930 0141 00       		.byte	0
 931 0142 00       		.byte	0
 932 0143 16       		.uleb128 0x16
 933 0144 34       		.uleb128 0x34
 934 0145 00       		.byte	0
 935 0146 03       		.uleb128 0x3
 936 0147 0E       		.uleb128 0xe
 937 0148 3A       		.uleb128 0x3a
 938 0149 0B       		.uleb128 0xb
 939 014a 3B       		.uleb128 0x3b
 940 014b 05       		.uleb128 0x5
 941 014c 49       		.uleb128 0x49
 942 014d 13       		.uleb128 0x13
 943 014e 02       		.uleb128 0x2
 944 014f 17       		.uleb128 0x17
 945 0150 00       		.byte	0
 946 0151 00       		.byte	0
 947 0152 17       		.uleb128 0x17
 948 0153 34       		.uleb128 0x34
 949 0154 00       		.byte	0
 950 0155 03       		.uleb128 0x3
 951 0156 0E       		.uleb128 0xe
 952 0157 3A       		.uleb128 0x3a
 953 0158 0B       		.uleb128 0xb
 954 0159 3B       		.uleb128 0x3b
 955 015a 05       		.uleb128 0x5
 956 015b 49       		.uleb128 0x49
 957 015c 13       		.uleb128 0x13
 958 015d 3F       		.uleb128 0x3f
 959 015e 19       		.uleb128 0x19
 960 015f 3C       		.uleb128 0x3c
 961 0160 19       		.uleb128 0x19
 962 0161 00       		.byte	0
 963 0162 00       		.byte	0
ARM GAS  C:\Users\jsyoon\AppData\Local\Temp\ccY935aa.s 			page 18


 964 0163 18       		.uleb128 0x18
 965 0164 2E       		.uleb128 0x2e
 966 0165 01       		.byte	0x1
 967 0166 3F       		.uleb128 0x3f
 968 0167 19       		.uleb128 0x19
 969 0168 03       		.uleb128 0x3
 970 0169 0E       		.uleb128 0xe
 971 016a 3A       		.uleb128 0x3a
 972 016b 0B       		.uleb128 0xb
 973 016c 3B       		.uleb128 0x3b
 974 016d 05       		.uleb128 0x5
 975 016e 27       		.uleb128 0x27
 976 016f 19       		.uleb128 0x19
 977 0170 3C       		.uleb128 0x3c
 978 0171 19       		.uleb128 0x19
 979 0172 00       		.byte	0
 980 0173 00       		.byte	0
 981 0174 19       		.uleb128 0x19
 982 0175 05       		.uleb128 0x5
 983 0176 00       		.byte	0
 984 0177 49       		.uleb128 0x49
 985 0178 13       		.uleb128 0x13
 986 0179 00       		.byte	0
 987 017a 00       		.byte	0
 988 017b 00       		.byte	0
 989              		.section	.debug_loc,"",%progbits
 990              	.Ldebug_loc0:
 991              	.LLST0:
 992 0000 00000000 		.4byte	.LVL4
 993 0004 0C000000 		.4byte	.LVL6
 994 0008 0100     		.2byte	0x1
 995 000a 50       		.byte	0x50
 996 000b 0C000000 		.4byte	.LVL6
 997 000f 14000000 		.4byte	.LFE115
 998 0013 0400     		.2byte	0x4
 999 0015 F3       		.byte	0xf3
 1000 0016 01       		.uleb128 0x1
 1001 0017 50       		.byte	0x50
 1002 0018 9F       		.byte	0x9f
 1003 0019 00000000 		.4byte	0
 1004 001d 00000000 		.4byte	0
 1005              	.LLST1:
 1006 0021 00000000 		.4byte	.LVL4
 1007 0025 04000000 		.4byte	.LVL5
 1008 0029 0200     		.2byte	0x2
 1009 002b 30       		.byte	0x30
 1010 002c 9F       		.byte	0x9f
 1011 002d 04000000 		.4byte	.LVL5
 1012 0031 0C000000 		.4byte	.LVL6
 1013 0035 0B00     		.2byte	0xb
 1014 0037 70       		.byte	0x70
 1015 0038 00       		.sleb128 0
 1016 0039 08       		.byte	0x8
 1017 003a FF       		.byte	0xff
 1018 003b 1A       		.byte	0x1a
 1019 003c 73       		.byte	0x73
 1020 003d 00       		.sleb128 0
ARM GAS  C:\Users\jsyoon\AppData\Local\Temp\ccY935aa.s 			page 19


 1021 003e 1A       		.byte	0x1a
 1022 003f 30       		.byte	0x30
 1023 0040 2E       		.byte	0x2e
 1024 0041 9F       		.byte	0x9f
 1025 0042 0C000000 		.4byte	.LVL6
 1026 0046 14000000 		.4byte	.LFE115
 1027 004a 0C00     		.2byte	0xc
 1028 004c F3       		.byte	0xf3
 1029 004d 01       		.uleb128 0x1
 1030 004e 50       		.byte	0x50
 1031 004f 08       		.byte	0x8
 1032 0050 FF       		.byte	0xff
 1033 0051 1A       		.byte	0x1a
 1034 0052 73       		.byte	0x73
 1035 0053 00       		.sleb128 0
 1036 0054 1A       		.byte	0x1a
 1037 0055 30       		.byte	0x30
 1038 0056 2E       		.byte	0x2e
 1039 0057 9F       		.byte	0x9f
 1040 0058 00000000 		.4byte	0
 1041 005c 00000000 		.4byte	0
 1042              	.LLST2:
 1043 0060 00000000 		.4byte	.LVL7
 1044 0064 06000000 		.4byte	.LVL8
 1045 0068 0100     		.2byte	0x1
 1046 006a 50       		.byte	0x50
 1047 006b 06000000 		.4byte	.LVL8
 1048 006f 10000000 		.4byte	.LFE116
 1049 0073 0400     		.2byte	0x4
 1050 0075 F3       		.byte	0xf3
 1051 0076 01       		.uleb128 0x1
 1052 0077 50       		.byte	0x50
 1053 0078 9F       		.byte	0x9f
 1054 0079 00000000 		.4byte	0
 1055 007d 00000000 		.4byte	0
 1056              	.LLST3:
 1057 0081 00000000 		.4byte	.LVL9
 1058 0085 0C000000 		.4byte	.LVL11
 1059 0089 0100     		.2byte	0x1
 1060 008b 50       		.byte	0x50
 1061 008c 0C000000 		.4byte	.LVL11
 1062 0090 14000000 		.4byte	.LFE117
 1063 0094 0400     		.2byte	0x4
 1064 0096 F3       		.byte	0xf3
 1065 0097 01       		.uleb128 0x1
 1066 0098 50       		.byte	0x50
 1067 0099 9F       		.byte	0x9f
 1068 009a 00000000 		.4byte	0
 1069 009e 00000000 		.4byte	0
 1070              	.LLST4:
 1071 00a2 00000000 		.4byte	.LVL9
 1072 00a6 04000000 		.4byte	.LVL10
 1073 00aa 0200     		.2byte	0x2
 1074 00ac 30       		.byte	0x30
 1075 00ad 9F       		.byte	0x9f
 1076 00ae 04000000 		.4byte	.LVL10
 1077 00b2 0C000000 		.4byte	.LVL11
ARM GAS  C:\Users\jsyoon\AppData\Local\Temp\ccY935aa.s 			page 20


 1078 00b6 0B00     		.2byte	0xb
 1079 00b8 70       		.byte	0x70
 1080 00b9 00       		.sleb128 0
 1081 00ba 08       		.byte	0x8
 1082 00bb FF       		.byte	0xff
 1083 00bc 1A       		.byte	0x1a
 1084 00bd 73       		.byte	0x73
 1085 00be 00       		.sleb128 0
 1086 00bf 1A       		.byte	0x1a
 1087 00c0 30       		.byte	0x30
 1088 00c1 2E       		.byte	0x2e
 1089 00c2 9F       		.byte	0x9f
 1090 00c3 0C000000 		.4byte	.LVL11
 1091 00c7 14000000 		.4byte	.LFE117
 1092 00cb 0C00     		.2byte	0xc
 1093 00cd F3       		.byte	0xf3
 1094 00ce 01       		.uleb128 0x1
 1095 00cf 50       		.byte	0x50
 1096 00d0 08       		.byte	0x8
 1097 00d1 FF       		.byte	0xff
 1098 00d2 1A       		.byte	0x1a
 1099 00d3 73       		.byte	0x73
 1100 00d4 00       		.sleb128 0
 1101 00d5 1A       		.byte	0x1a
 1102 00d6 30       		.byte	0x30
 1103 00d7 2E       		.byte	0x2e
 1104 00d8 9F       		.byte	0x9f
 1105 00d9 00000000 		.4byte	0
 1106 00dd 00000000 		.4byte	0
 1107              	.LLST5:
 1108 00e1 00000000 		.4byte	.LVL12
 1109 00e5 02000000 		.4byte	.LVL13
 1110 00e9 0100     		.2byte	0x1
 1111 00eb 50       		.byte	0x50
 1112 00ec 02000000 		.4byte	.LVL13
 1113 00f0 10000000 		.4byte	.LFE118
 1114 00f4 0400     		.2byte	0x4
 1115 00f6 F3       		.byte	0xf3
 1116 00f7 01       		.uleb128 0x1
 1117 00f8 50       		.byte	0x50
 1118 00f9 9F       		.byte	0x9f
 1119 00fa 00000000 		.4byte	0
 1120 00fe 00000000 		.4byte	0
 1121              		.section	.debug_aranges,"",%progbits
 1122 0000 54000000 		.4byte	0x54
 1123 0004 0200     		.2byte	0x2
 1124 0006 00000000 		.4byte	.Ldebug_info0
 1125 000a 04       		.byte	0x4
 1126 000b 00       		.byte	0
 1127 000c 0000     		.2byte	0
 1128 000e 0000     		.2byte	0
 1129 0010 00000000 		.4byte	.LFB111
 1130 0014 16000000 		.4byte	.LFE111-.LFB111
 1131 0018 00000000 		.4byte	.LFB112
 1132 001c 1C000000 		.4byte	.LFE112-.LFB112
 1133 0020 00000000 		.4byte	.LFB113
 1134 0024 0C000000 		.4byte	.LFE113-.LFB113
ARM GAS  C:\Users\jsyoon\AppData\Local\Temp\ccY935aa.s 			page 21


 1135 0028 00000000 		.4byte	.LFB114
 1136 002c 1C000000 		.4byte	.LFE114-.LFB114
 1137 0030 00000000 		.4byte	.LFB115
 1138 0034 14000000 		.4byte	.LFE115-.LFB115
 1139 0038 00000000 		.4byte	.LFB116
 1140 003c 10000000 		.4byte	.LFE116-.LFB116
 1141 0040 00000000 		.4byte	.LFB117
 1142 0044 14000000 		.4byte	.LFE117-.LFB117
 1143 0048 00000000 		.4byte	.LFB118
 1144 004c 10000000 		.4byte	.LFE118-.LFB118
 1145 0050 00000000 		.4byte	0
 1146 0054 00000000 		.4byte	0
 1147              		.section	.debug_ranges,"",%progbits
 1148              	.Ldebug_ranges0:
 1149 0000 00000000 		.4byte	.LFB111
 1150 0004 16000000 		.4byte	.LFE111
 1151 0008 00000000 		.4byte	.LFB112
 1152 000c 1C000000 		.4byte	.LFE112
 1153 0010 00000000 		.4byte	.LFB113
 1154 0014 0C000000 		.4byte	.LFE113
 1155 0018 00000000 		.4byte	.LFB114
 1156 001c 1C000000 		.4byte	.LFE114
 1157 0020 00000000 		.4byte	.LFB115
 1158 0024 14000000 		.4byte	.LFE115
 1159 0028 00000000 		.4byte	.LFB116
 1160 002c 10000000 		.4byte	.LFE116
 1161 0030 00000000 		.4byte	.LFB117
 1162 0034 14000000 		.4byte	.LFE117
 1163 0038 00000000 		.4byte	.LFB118
 1164 003c 10000000 		.4byte	.LFE118
 1165 0040 00000000 		.4byte	0
 1166 0044 00000000 		.4byte	0
 1167              		.section	.debug_line,"",%progbits
 1168              	.Ldebug_line0:
 1169 0000 48020000 		.section	.debug_str,"MS",%progbits,1
 1169      0200AA01 
 1169      00000201 
 1169      FB0E0D00 
 1169      01010101 
 1170              	.LASF4:
 1171 0000 5F5F7569 		.ascii	"__uint8_t\000"
 1171      6E74385F 
 1171      7400
 1172              	.LASF18:
 1173 000a 49545374 		.ascii	"ITStatus\000"
 1173      61747573 
 1173      00
 1174              	.LASF34:
 1175 0013 474E5520 		.ascii	"GNU C 4.8.4 20140526 (release) [ARM/embedded-4_8-br"
 1175      4320342E 
 1175      382E3420 
 1175      32303134 
 1175      30353236 
 1176 0046 616E6368 		.ascii	"anch revision 211358] -mcpu=cortex-m4 -mfloat-abi=h"
 1176      20726576 
 1176      6973696F 
 1176      6E203231 
ARM GAS  C:\Users\jsyoon\AppData\Local\Temp\ccY935aa.s 			page 22


 1176      31333538 
 1177 0079 61726420 		.ascii	"ard -mfpu=fpv4-sp-d16 -mno-thumb-interwork -mthumb "
 1177      2D6D6670 
 1177      753D6670 
 1177      76342D73 
 1177      702D6431 
 1178 00ac 2D676764 		.ascii	"-ggdb -O2 -std=gnu99 -fomit-frame-pointer -falign-f"
 1178      62202D4F 
 1178      32202D73 
 1178      74643D67 
 1178      6E753939 
 1179 00df 756E6374 		.ascii	"unctions=16 -ffunction-sections -fdata-sections -fn"
 1179      696F6E73 
 1179      3D313620 
 1179      2D666675 
 1179      6E637469 
 1180 0112 6F2D636F 		.ascii	"o-common -fsingle-precision-constant\000"
 1180      6D6D6F6E 
 1180      202D6673 
 1180      696E676C 
 1180      652D7072 
 1181              	.LASF39:
 1182 0137 5243435F 		.ascii	"RCC_AHB2PeriphResetCmd\000"
 1182      41484232 
 1182      50657269 
 1182      70685265 
 1182      73657443 
 1183              	.LASF35:
 1184 014e 43686962 		.ascii	"ChibiOS_2.6.6/ext/stdperiph_stm32f4/src/stm32f4xx_r"
 1184      694F535F 
 1184      322E362E 
 1184      362F6578 
 1184      742F7374 
 1185 0181 6E672E63 		.ascii	"ng.c\000"
 1185      00
 1186              	.LASF5:
 1187 0186 5F5F696E 		.ascii	"__int32_t\000"
 1187      7433325F 
 1187      7400
 1188              	.LASF3:
 1189 0190 73686F72 		.ascii	"short unsigned int\000"
 1189      7420756E 
 1189      7369676E 
 1189      65642069 
 1189      6E7400
 1190              	.LASF21:
 1191 01a3 46756E63 		.ascii	"FunctionalState\000"
 1191      74696F6E 
 1191      616C5374 
 1191      61746500 
 1192              	.LASF25:
 1193 01b3 524E475F 		.ascii	"RNG_ITConfig\000"
 1193      4954436F 
 1193      6E666967 
 1193      00
 1194              	.LASF24:
 1195 01c0 524E475F 		.ascii	"RNG_Cmd\000"
ARM GAS  C:\Users\jsyoon\AppData\Local\Temp\ccY935aa.s 			page 23


 1195      436D6400 
 1196              	.LASF32:
 1197 01c8 62697473 		.ascii	"bitstatus\000"
 1197      74617475 
 1197      7300
 1198              	.LASF31:
 1199 01d2 524E475F 		.ascii	"RNG_IT\000"
 1199      495400
 1200              	.LASF20:
 1201 01d9 454E4142 		.ascii	"ENABLE\000"
 1201      4C4500
 1202              	.LASF1:
 1203 01e0 756E7369 		.ascii	"unsigned char\000"
 1203      676E6564 
 1203      20636861 
 1203      7200
 1204              	.LASF17:
 1205 01ee 466C6167 		.ascii	"FlagStatus\000"
 1205      53746174 
 1205      757300
 1206              	.LASF37:
 1207 01f9 524E475F 		.ascii	"RNG_GetRandomNumber\000"
 1207      47657452 
 1207      616E646F 
 1207      6D4E756D 
 1207      62657200 
 1208              	.LASF8:
 1209 020d 6C6F6E67 		.ascii	"long unsigned int\000"
 1209      20756E73 
 1209      69676E65 
 1209      6420696E 
 1209      7400
 1210              	.LASF23:
 1211 021f 524E475F 		.ascii	"RNG_DeInit\000"
 1211      4465496E 
 1211      697400
 1212              	.LASF16:
 1213 022a 52455345 		.ascii	"RESET\000"
 1213      5400
 1214              	.LASF19:
 1215 0230 44495341 		.ascii	"DISABLE\000"
 1215      424C4500 
 1216              	.LASF38:
 1217 0238 49544D5F 		.ascii	"ITM_RxBuffer\000"
 1217      52784275 
 1217      66666572 
 1217      00
 1218              	.LASF7:
 1219 0245 5F5F7569 		.ascii	"__uint32_t\000"
 1219      6E743332 
 1219      5F7400
 1220              	.LASF22:
 1221 0250 524E475F 		.ascii	"RNG_TypeDef\000"
 1221      54797065 
 1221      44656600 
 1222              	.LASF11:
 1223 025c 756E7369 		.ascii	"unsigned int\000"
ARM GAS  C:\Users\jsyoon\AppData\Local\Temp\ccY935aa.s 			page 24


 1223      676E6564 
 1223      20696E74 
 1223      00
 1224              	.LASF27:
 1225 0269 524E475F 		.ascii	"RNG_FLAG\000"
 1225      464C4147 
 1225      00
 1226              	.LASF10:
 1227 0272 6C6F6E67 		.ascii	"long long unsigned int\000"
 1227      206C6F6E 
 1227      6720756E 
 1227      7369676E 
 1227      65642069 
 1228              	.LASF12:
 1229 0289 75696E74 		.ascii	"uint8_t\000"
 1229      385F7400 
 1230              	.LASF13:
 1231 0291 696E7433 		.ascii	"int32_t\000"
 1231      325F7400 
 1232              	.LASF15:
 1233 0299 73697A65 		.ascii	"sizetype\000"
 1233      74797065 
 1233      00
 1234              	.LASF9:
 1235 02a2 6C6F6E67 		.ascii	"long long int\000"
 1235      206C6F6E 
 1235      6720696E 
 1235      7400
 1236              	.LASF36:
 1237 02b0 453A5C4D 		.ascii	"E:\\Maker\\BLDC\\test_eval\\try2\\OROCA-BLDC_R15080"
 1237      616B6572 
 1237      5C424C44 
 1237      435C7465 
 1237      73745F65 
 1238 02de 3700     		.ascii	"7\000"
 1239              	.LASF2:
 1240 02e0 73686F72 		.ascii	"short int\000"
 1240      7420696E 
 1240      7400
 1241              	.LASF28:
 1242 02ea 524E475F 		.ascii	"RNG_ClearFlag\000"
 1242      436C6561 
 1242      72466C61 
 1242      6700
 1243              	.LASF26:
 1244 02f8 4E657753 		.ascii	"NewState\000"
 1244      74617465 
 1244      00
 1245              	.LASF30:
 1246 0301 524E475F 		.ascii	"RNG_GetITStatus\000"
 1246      47657449 
 1246      54537461 
 1246      74757300 
 1247              	.LASF14:
 1248 0311 75696E74 		.ascii	"uint32_t\000"
 1248      33325F74 
 1248      00
ARM GAS  C:\Users\jsyoon\AppData\Local\Temp\ccY935aa.s 			page 25


 1249              	.LASF6:
 1250 031a 6C6F6E67 		.ascii	"long int\000"
 1250      20696E74 
 1250      00
 1251              	.LASF0:
 1252 0323 7369676E 		.ascii	"signed char\000"
 1252      65642063 
 1252      68617200 
 1253              	.LASF33:
 1254 032f 524E475F 		.ascii	"RNG_ClearITPendingBit\000"
 1254      436C6561 
 1254      72495450 
 1254      656E6469 
 1254      6E674269 
 1255              	.LASF29:
 1256 0345 524E475F 		.ascii	"RNG_GetFlagStatus\000"
 1256      47657446 
 1256      6C616753 
 1256      74617475 
 1256      7300
 1257              		.ident	"GCC: (GNU Tools for ARM Embedded Processors) 4.8.4 20140526 (release) [ARM/embedded-4_8-br
ARM GAS  C:\Users\jsyoon\AppData\Local\Temp\ccY935aa.s 			page 26


DEFINED SYMBOLS
                            *ABS*:00000000 stm32f4xx_rng.c
C:\Users\jsyoon\AppData\Local\Temp\ccY935aa.s:21     .text.RNG_DeInit:00000000 $t
C:\Users\jsyoon\AppData\Local\Temp\ccY935aa.s:27     .text.RNG_DeInit:00000000 RNG_DeInit
C:\Users\jsyoon\AppData\Local\Temp\ccY935aa.s:55     .text.RNG_Cmd:00000000 $t
C:\Users\jsyoon\AppData\Local\Temp\ccY935aa.s:61     .text.RNG_Cmd:00000000 RNG_Cmd
C:\Users\jsyoon\AppData\Local\Temp\ccY935aa.s:86     .text.RNG_Cmd:00000018 $d
C:\Users\jsyoon\AppData\Local\Temp\ccY935aa.s:91     .text.RNG_GetRandomNumber:00000000 $t
C:\Users\jsyoon\AppData\Local\Temp\ccY935aa.s:97     .text.RNG_GetRandomNumber:00000000 RNG_GetRandomNumber
C:\Users\jsyoon\AppData\Local\Temp\ccY935aa.s:112    .text.RNG_GetRandomNumber:00000008 $d
C:\Users\jsyoon\AppData\Local\Temp\ccY935aa.s:117    .text.RNG_ITConfig:00000000 $t
C:\Users\jsyoon\AppData\Local\Temp\ccY935aa.s:123    .text.RNG_ITConfig:00000000 RNG_ITConfig
C:\Users\jsyoon\AppData\Local\Temp\ccY935aa.s:148    .text.RNG_ITConfig:00000018 $d
C:\Users\jsyoon\AppData\Local\Temp\ccY935aa.s:153    .text.RNG_GetFlagStatus:00000000 $t
C:\Users\jsyoon\AppData\Local\Temp\ccY935aa.s:159    .text.RNG_GetFlagStatus:00000000 RNG_GetFlagStatus
C:\Users\jsyoon\AppData\Local\Temp\ccY935aa.s:181    .text.RNG_GetFlagStatus:00000010 $d
C:\Users\jsyoon\AppData\Local\Temp\ccY935aa.s:186    .text.RNG_ClearFlag:00000000 $t
C:\Users\jsyoon\AppData\Local\Temp\ccY935aa.s:192    .text.RNG_ClearFlag:00000000 RNG_ClearFlag
C:\Users\jsyoon\AppData\Local\Temp\ccY935aa.s:209    .text.RNG_ClearFlag:0000000c $d
C:\Users\jsyoon\AppData\Local\Temp\ccY935aa.s:214    .text.RNG_GetITStatus:00000000 $t
C:\Users\jsyoon\AppData\Local\Temp\ccY935aa.s:220    .text.RNG_GetITStatus:00000000 RNG_GetITStatus
C:\Users\jsyoon\AppData\Local\Temp\ccY935aa.s:242    .text.RNG_GetITStatus:00000010 $d
C:\Users\jsyoon\AppData\Local\Temp\ccY935aa.s:247    .text.RNG_ClearITPendingBit:00000000 $t
C:\Users\jsyoon\AppData\Local\Temp\ccY935aa.s:253    .text.RNG_ClearITPendingBit:00000000 RNG_ClearITPendingBit
C:\Users\jsyoon\AppData\Local\Temp\ccY935aa.s:271    .text.RNG_ClearITPendingBit:0000000c $d
                     .debug_frame:00000010 $d
C:\Users\jsyoon\AppData\Local\Temp\ccY935aa.s:90     .text.RNG_Cmd:0000001c $t
C:\Users\jsyoon\AppData\Local\Temp\ccY935aa.s:116    .text.RNG_GetRandomNumber:0000000c $t
C:\Users\jsyoon\AppData\Local\Temp\ccY935aa.s:152    .text.RNG_ITConfig:0000001c $t
C:\Users\jsyoon\AppData\Local\Temp\ccY935aa.s:185    .text.RNG_GetFlagStatus:00000014 $t
C:\Users\jsyoon\AppData\Local\Temp\ccY935aa.s:246    .text.RNG_GetITStatus:00000014 $t

UNDEFINED SYMBOLS
RCC_AHB2PeriphResetCmd
