ARM GAS  C:\Users\jsyoon\AppData\Local\Temp\cc3YNORi.s 			page 1


   1              		.syntax unified
   2              		.cpu cortex-m4
   3              		.eabi_attribute 27, 3
   4              		.eabi_attribute 28, 1
   5              		.fpu fpv4-sp-d16
   6              		.eabi_attribute 20, 1
   7              		.eabi_attribute 21, 1
   8              		.eabi_attribute 23, 3
   9              		.eabi_attribute 24, 1
  10              		.eabi_attribute 25, 1
  11              		.eabi_attribute 26, 1
  12              		.eabi_attribute 30, 2
  13              		.eabi_attribute 34, 1
  14              		.eabi_attribute 18, 4
  15              		.thumb
  16              		.file	"stm32f4xx_dac.c"
  17              		.text
  18              	.Ltext0:
  19              		.cfi_sections	.debug_frame
  20              		.section	.text.DAC_DeInit,"ax",%progbits
  21              		.align	2
  22              		.p2align 4,,15
  23              		.global	DAC_DeInit
  24              		.thumb
  25              		.thumb_func
  26              		.type	DAC_DeInit, %function
  27              	DAC_DeInit:
  28              	.LFB111:
  29              		.file 1 "ChibiOS_2.6.6/ext/stdperiph_stm32f4/src/stm32f4xx_dac.c"
  30              		.loc 1 181 0
  31              		.cfi_startproc
  32              		@ args = 0, pretend = 0, frame = 0
  33              		@ frame_needed = 0, uses_anonymous_args = 0
  34 0000 08B5     		push	{r3, lr}
  35              		.cfi_def_cfa_offset 8
  36              		.cfi_offset 3, -8
  37              		.cfi_offset 14, -4
  38              		.loc 1 183 0
  39 0002 4FF00050 		mov	r0, #536870912
  40 0006 0121     		movs	r1, #1
  41 0008 FFF7FEFF 		bl	RCC_APB1PeriphResetCmd
  42              	.LVL0:
  43              		.loc 1 185 0
  44 000c 4FF00050 		mov	r0, #536870912
  45 0010 0021     		movs	r1, #0
  46              		.loc 1 186 0
  47 0012 BDE80840 		pop	{r3, lr}
  48              		.loc 1 185 0
  49 0016 FFF7FEBF 		b	RCC_APB1PeriphResetCmd
  50              	.LVL1:
  51              		.cfi_endproc
  52              	.LFE111:
  53              		.size	DAC_DeInit, .-DAC_DeInit
  54 001a 00BFAFF3 		.section	.text.DAC_Init,"ax",%progbits
  54      0080
  55              		.align	2
  56              		.p2align 4,,15
ARM GAS  C:\Users\jsyoon\AppData\Local\Temp\cc3YNORi.s 			page 2


  57              		.global	DAC_Init
  58              		.thumb
  59              		.thumb_func
  60              		.type	DAC_Init, %function
  61              	DAC_Init:
  62              	.LFB112:
  63              		.loc 1 200 0
  64              		.cfi_startproc
  65              		@ args = 0, pretend = 0, frame = 0
  66              		@ frame_needed = 0, uses_anonymous_args = 0
  67              		@ link register save eliminated.
  68              	.LVL2:
  69 0000 70B4     		push	{r4, r5, r6}
  70              		.cfi_def_cfa_offset 12
  71              		.cfi_offset 4, -12
  72              		.cfi_offset 5, -8
  73              		.cfi_offset 6, -4
  74              		.loc 1 220 0
  75 0002 91E86000 		ldmia	r1, {r5, r6}
  76 0006 8C68     		ldr	r4, [r1, #8]
  77              		.loc 1 211 0
  78 0008 084B     		ldr	r3, .L3
  79              		.loc 1 220 0
  80 000a C968     		ldr	r1, [r1, #12]
  81              	.LVL3:
  82              		.loc 1 211 0
  83 000c 1A68     		ldr	r2, [r3]
  84              	.LVL4:
  85              		.loc 1 220 0
  86 000e 3543     		orrs	r5, r5, r6
  87 0010 2C43     		orrs	r4, r4, r5
  88              		.loc 1 213 0
  89 0012 40F6FE76 		movw	r6, #4094
  90 0016 8640     		lsls	r6, r6, r0
  91              		.loc 1 220 0
  92 0018 2143     		orrs	r1, r1, r4
  93              		.loc 1 213 0
  94 001a 22EA0602 		bic	r2, r2, r6
  95              	.LVL5:
  96              		.loc 1 224 0
  97 001e 01FA00F0 		lsl	r0, r1, r0
  98              	.LVL6:
  99 0022 0243     		orrs	r2, r2, r0
 100              	.LVL7:
 101              		.loc 1 226 0
 102 0024 1A60     		str	r2, [r3]
 103              	.LVL8:
 104              		.loc 1 227 0
 105 0026 70BC     		pop	{r4, r5, r6}
 106 0028 7047     		bx	lr
 107              	.L4:
 108 002a 00BF     		.align	2
 109              	.L3:
 110 002c 00740040 		.word	1073771520
 111              		.cfi_endproc
 112              	.LFE112:
 113              		.size	DAC_Init, .-DAC_Init
ARM GAS  C:\Users\jsyoon\AppData\Local\Temp\cc3YNORi.s 			page 3


 114              		.section	.text.DAC_StructInit,"ax",%progbits
 115              		.align	2
 116              		.p2align 4,,15
 117              		.global	DAC_StructInit
 118              		.thumb
 119              		.thumb_func
 120              		.type	DAC_StructInit, %function
 121              	DAC_StructInit:
 122              	.LFB113:
 123              		.loc 1 236 0
 124              		.cfi_startproc
 125              		@ args = 0, pretend = 0, frame = 0
 126              		@ frame_needed = 0, uses_anonymous_args = 0
 127              		@ link register save eliminated.
 128              	.LVL9:
 129              		.loc 1 239 0
 130 0000 0023     		movs	r3, #0
 131 0002 0360     		str	r3, [r0]
 132              		.loc 1 241 0
 133 0004 4360     		str	r3, [r0, #4]
 134              		.loc 1 243 0
 135 0006 8360     		str	r3, [r0, #8]
 136              		.loc 1 245 0
 137 0008 C360     		str	r3, [r0, #12]
 138 000a 7047     		bx	lr
 139              		.cfi_endproc
 140              	.LFE113:
 141              		.size	DAC_StructInit, .-DAC_StructInit
 142 000c AFF30080 		.section	.text.DAC_Cmd,"ax",%progbits
 143              		.align	2
 144              		.p2align 4,,15
 145              		.global	DAC_Cmd
 146              		.thumb
 147              		.thumb_func
 148              		.type	DAC_Cmd, %function
 149              	DAC_Cmd:
 150              	.LFB114:
 151              		.loc 1 260 0
 152              		.cfi_startproc
 153              		@ args = 0, pretend = 0, frame = 0
 154              		@ frame_needed = 0, uses_anonymous_args = 0
 155              		@ link register save eliminated.
 156              	.LVL10:
 157              		.loc 1 268 0
 158 0000 084B     		ldr	r3, .L11
 159              		.loc 1 265 0
 160 0002 39B9     		cbnz	r1, .L10
 161              		.loc 1 273 0
 162 0004 1A68     		ldr	r2, [r3]
 163 0006 0121     		movs	r1, #1
 164              	.LVL11:
 165 0008 01FA00F0 		lsl	r0, r1, r0
 166              	.LVL12:
 167 000c 22EA0000 		bic	r0, r2, r0
 168 0010 1860     		str	r0, [r3]
 169 0012 7047     		bx	lr
 170              	.LVL13:
ARM GAS  C:\Users\jsyoon\AppData\Local\Temp\cc3YNORi.s 			page 4


 171              	.L10:
 172              		.loc 1 268 0
 173 0014 1A68     		ldr	r2, [r3]
 174 0016 0121     		movs	r1, #1
 175              	.LVL14:
 176 0018 01FA00F0 		lsl	r0, r1, r0
 177              	.LVL15:
 178 001c 1043     		orrs	r0, r0, r2
 179 001e 1860     		str	r0, [r3]
 180 0020 7047     		bx	lr
 181              	.L12:
 182 0022 00BF     		.align	2
 183              	.L11:
 184 0024 00740040 		.word	1073771520
 185              		.cfi_endproc
 186              	.LFE114:
 187              		.size	DAC_Cmd, .-DAC_Cmd
 188 0028 AFF30080 		.section	.text.DAC_SoftwareTriggerCmd,"ax",%progbits
 188      AFF30080 
 189              		.align	2
 190              		.p2align 4,,15
 191              		.global	DAC_SoftwareTriggerCmd
 192              		.thumb
 193              		.thumb_func
 194              		.type	DAC_SoftwareTriggerCmd, %function
 195              	DAC_SoftwareTriggerCmd:
 196              	.LFB115:
 197              		.loc 1 288 0
 198              		.cfi_startproc
 199              		@ args = 0, pretend = 0, frame = 0
 200              		@ frame_needed = 0, uses_anonymous_args = 0
 201              		@ link register save eliminated.
 202              	.LVL16:
 203              		.loc 1 296 0
 204 0000 084B     		ldr	r3, .L17
 205 0002 0009     		lsrs	r0, r0, #4
 206              	.LVL17:
 207              		.loc 1 293 0
 208 0004 39B9     		cbnz	r1, .L16
 209              		.loc 1 301 0
 210 0006 5A68     		ldr	r2, [r3, #4]
 211 0008 0121     		movs	r1, #1
 212              	.LVL18:
 213 000a 01FA00F0 		lsl	r0, r1, r0
 214 000e 22EA0000 		bic	r0, r2, r0
 215 0012 5860     		str	r0, [r3, #4]
 216 0014 7047     		bx	lr
 217              	.LVL19:
 218              	.L16:
 219              		.loc 1 296 0
 220 0016 5A68     		ldr	r2, [r3, #4]
 221 0018 0121     		movs	r1, #1
 222              	.LVL20:
 223 001a 01FA00F0 		lsl	r0, r1, r0
 224 001e 1043     		orrs	r0, r0, r2
 225 0020 5860     		str	r0, [r3, #4]
 226 0022 7047     		bx	lr
ARM GAS  C:\Users\jsyoon\AppData\Local\Temp\cc3YNORi.s 			page 5


 227              	.L18:
 228              		.align	2
 229              	.L17:
 230 0024 00740040 		.word	1073771520
 231              		.cfi_endproc
 232              	.LFE115:
 233              		.size	DAC_SoftwareTriggerCmd, .-DAC_SoftwareTriggerCmd
 234 0028 AFF30080 		.section	.text.DAC_DualSoftwareTriggerCmd,"ax",%progbits
 234      AFF30080 
 235              		.align	2
 236              		.p2align 4,,15
 237              		.global	DAC_DualSoftwareTriggerCmd
 238              		.thumb
 239              		.thumb_func
 240              		.type	DAC_DualSoftwareTriggerCmd, %function
 241              	DAC_DualSoftwareTriggerCmd:
 242              	.LFB116:
 243              		.loc 1 312 0
 244              		.cfi_startproc
 245              		@ args = 0, pretend = 0, frame = 0
 246              		@ frame_needed = 0, uses_anonymous_args = 0
 247              		@ link register save eliminated.
 248              	.LVL21:
 249              		.loc 1 319 0
 250 0000 054B     		ldr	r3, .L23
 251 0002 5A68     		ldr	r2, [r3, #4]
 252              		.loc 1 316 0
 253 0004 18B9     		cbnz	r0, .L22
 254              		.loc 1 324 0
 255 0006 22F00302 		bic	r2, r2, #3
 256 000a 5A60     		str	r2, [r3, #4]
 257 000c 7047     		bx	lr
 258              	.L22:
 259              		.loc 1 319 0
 260 000e 42F00302 		orr	r2, r2, #3
 261 0012 5A60     		str	r2, [r3, #4]
 262 0014 7047     		bx	lr
 263              	.L24:
 264 0016 00BF     		.align	2
 265              	.L23:
 266 0018 00740040 		.word	1073771520
 267              		.cfi_endproc
 268              	.LFE116:
 269              		.size	DAC_DualSoftwareTriggerCmd, .-DAC_DualSoftwareTriggerCmd
 270 001c AFF30080 		.section	.text.DAC_WaveGenerationCmd,"ax",%progbits
 271              		.align	2
 272              		.p2align 4,,15
 273              		.global	DAC_WaveGenerationCmd
 274              		.thumb
 275              		.thumb_func
 276              		.type	DAC_WaveGenerationCmd, %function
 277              	DAC_WaveGenerationCmd:
 278              	.LFB117:
 279              		.loc 1 343 0
 280              		.cfi_startproc
 281              		@ args = 0, pretend = 0, frame = 0
 282              		@ frame_needed = 0, uses_anonymous_args = 0
ARM GAS  C:\Users\jsyoon\AppData\Local\Temp\cc3YNORi.s 			page 6


 283              		@ link register save eliminated.
 284              	.LVL22:
 285              		.loc 1 352 0
 286 0000 064B     		ldr	r3, .L29
 287              		.loc 1 349 0
 288 0002 2AB9     		cbnz	r2, .L28
 289              		.loc 1 357 0
 290 0004 1A68     		ldr	r2, [r3]
 291              	.LVL23:
 292 0006 8140     		lsls	r1, r1, r0
 293              	.LVL24:
 294 0008 22EA0101 		bic	r1, r2, r1
 295 000c 1960     		str	r1, [r3]
 296 000e 7047     		bx	lr
 297              	.LVL25:
 298              	.L28:
 299              		.loc 1 352 0
 300 0010 1A68     		ldr	r2, [r3]
 301              	.LVL26:
 302 0012 8140     		lsls	r1, r1, r0
 303              	.LVL27:
 304 0014 1143     		orrs	r1, r1, r2
 305 0016 1960     		str	r1, [r3]
 306 0018 7047     		bx	lr
 307              	.L30:
 308 001a 00BF     		.align	2
 309              	.L29:
 310 001c 00740040 		.word	1073771520
 311              		.cfi_endproc
 312              	.LFE117:
 313              		.size	DAC_WaveGenerationCmd, .-DAC_WaveGenerationCmd
 314              		.section	.text.DAC_SetChannel1Data,"ax",%progbits
 315              		.align	2
 316              		.p2align 4,,15
 317              		.global	DAC_SetChannel1Data
 318              		.thumb
 319              		.thumb_func
 320              		.type	DAC_SetChannel1Data, %function
 321              	DAC_SetChannel1Data:
 322              	.LFB118:
 323              		.loc 1 372 0
 324              		.cfi_startproc
 325              		@ args = 0, pretend = 0, frame = 8
 326              		@ frame_needed = 0, uses_anonymous_args = 0
 327              		@ link register save eliminated.
 328              	.LVL28:
 329 0000 82B0     		sub	sp, sp, #8
 330              		.cfi_def_cfa_offset 8
 331              		.loc 1 373 0
 332 0002 0022     		movs	r2, #0
 333              		.loc 1 379 0
 334 0004 054B     		ldr	r3, .L32
 335              		.loc 1 373 0
 336 0006 0192     		str	r2, [sp, #4]
 337              		.loc 1 379 0
 338 0008 0193     		str	r3, [sp, #4]
 339              		.loc 1 380 0
ARM GAS  C:\Users\jsyoon\AppData\Local\Temp\cc3YNORi.s 			page 7


 340 000a 019B     		ldr	r3, [sp, #4]
 341 000c 0833     		adds	r3, r3, #8
 342 000e 1844     		add	r0, r0, r3
 343              	.LVL29:
 344 0010 0190     		str	r0, [sp, #4]
 345              		.loc 1 383 0
 346 0012 019B     		ldr	r3, [sp, #4]
 347 0014 1960     		str	r1, [r3]
 348              		.loc 1 384 0
 349 0016 02B0     		add	sp, sp, #8
 350              		@ sp needed
 351 0018 7047     		bx	lr
 352              	.L33:
 353 001a 00BF     		.align	2
 354              	.L32:
 355 001c 00740040 		.word	1073771520
 356              		.cfi_endproc
 357              	.LFE118:
 358              		.size	DAC_SetChannel1Data, .-DAC_SetChannel1Data
 359              		.section	.text.DAC_SetChannel2Data,"ax",%progbits
 360              		.align	2
 361              		.p2align 4,,15
 362              		.global	DAC_SetChannel2Data
 363              		.thumb
 364              		.thumb_func
 365              		.type	DAC_SetChannel2Data, %function
 366              	DAC_SetChannel2Data:
 367              	.LFB119:
 368              		.loc 1 397 0
 369              		.cfi_startproc
 370              		@ args = 0, pretend = 0, frame = 8
 371              		@ frame_needed = 0, uses_anonymous_args = 0
 372              		@ link register save eliminated.
 373              	.LVL30:
 374 0000 82B0     		sub	sp, sp, #8
 375              		.cfi_def_cfa_offset 8
 376              		.loc 1 398 0
 377 0002 0022     		movs	r2, #0
 378              		.loc 1 404 0
 379 0004 054B     		ldr	r3, .L35
 380              		.loc 1 398 0
 381 0006 0192     		str	r2, [sp, #4]
 382              		.loc 1 404 0
 383 0008 0193     		str	r3, [sp, #4]
 384              		.loc 1 405 0
 385 000a 019B     		ldr	r3, [sp, #4]
 386 000c 1433     		adds	r3, r3, #20
 387 000e 1844     		add	r0, r0, r3
 388              	.LVL31:
 389 0010 0190     		str	r0, [sp, #4]
 390              		.loc 1 408 0
 391 0012 019B     		ldr	r3, [sp, #4]
 392 0014 1960     		str	r1, [r3]
 393              		.loc 1 409 0
 394 0016 02B0     		add	sp, sp, #8
 395              		@ sp needed
 396 0018 7047     		bx	lr
ARM GAS  C:\Users\jsyoon\AppData\Local\Temp\cc3YNORi.s 			page 8


 397              	.L36:
 398 001a 00BF     		.align	2
 399              	.L35:
 400 001c 00740040 		.word	1073771520
 401              		.cfi_endproc
 402              	.LFE119:
 403              		.size	DAC_SetChannel2Data, .-DAC_SetChannel2Data
 404              		.section	.text.DAC_SetDualChannelData,"ax",%progbits
 405              		.align	2
 406              		.p2align 4,,15
 407              		.global	DAC_SetDualChannelData
 408              		.thumb
 409              		.thumb_func
 410              		.type	DAC_SetDualChannelData, %function
 411              	DAC_SetDualChannelData:
 412              	.LFB120:
 413              		.loc 1 425 0
 414              		.cfi_startproc
 415              		@ args = 0, pretend = 0, frame = 0
 416              		@ frame_needed = 0, uses_anonymous_args = 0
 417              		@ link register save eliminated.
 418              	.LVL32:
 419              		.loc 1 434 0
 420 0000 0828     		cmp	r0, #8
 421              		.loc 1 444 0
 422 0002 044B     		ldr	r3, .L40
 423              		.loc 1 436 0
 424 0004 0CBF     		ite	eq
 425 0006 42EA0121 		orreq	r1, r2, r1, lsl #8
 426              	.LVL33:
 427              		.loc 1 440 0
 428 000a 42EA0141 		orrne	r1, r2, r1, lsl #16
 429              	.LVL34:
 430              		.loc 1 447 0
 431 000e C150     		str	r1, [r0, r3]
 432 0010 7047     		bx	lr
 433              	.L41:
 434 0012 00BF     		.align	2
 435              	.L40:
 436 0014 20740040 		.word	1073771552
 437              		.cfi_endproc
 438              	.LFE120:
 439              		.size	DAC_SetDualChannelData, .-DAC_SetDualChannelData
 440 0018 AFF30080 		.section	.text.DAC_GetDataOutputValue,"ax",%progbits
 440      AFF30080 
 441              		.align	2
 442              		.p2align 4,,15
 443              		.global	DAC_GetDataOutputValue
 444              		.thumb
 445              		.thumb_func
 446              		.type	DAC_GetDataOutputValue, %function
 447              	DAC_GetDataOutputValue:
 448              	.LFB121:
 449              		.loc 1 459 0
 450              		.cfi_startproc
 451              		@ args = 0, pretend = 0, frame = 8
 452              		@ frame_needed = 0, uses_anonymous_args = 0
ARM GAS  C:\Users\jsyoon\AppData\Local\Temp\cc3YNORi.s 			page 9


 453              		@ link register save eliminated.
 454              	.LVL35:
 455 0000 82B0     		sub	sp, sp, #8
 456              		.cfi_def_cfa_offset 8
 457              		.loc 1 460 0
 458 0002 0022     		movs	r2, #0
 459              		.loc 1 465 0
 460 0004 064B     		ldr	r3, .L43
 461              		.loc 1 460 0
 462 0006 0192     		str	r2, [sp, #4]
 463              		.loc 1 465 0
 464 0008 0193     		str	r3, [sp, #4]
 465              		.loc 1 466 0
 466 000a 019B     		ldr	r3, [sp, #4]
 467 000c 2C33     		adds	r3, r3, #44
 468 000e 03EB9000 		add	r0, r3, r0, lsr #2
 469              	.LVL36:
 470 0012 0190     		str	r0, [sp, #4]
 471              		.loc 1 469 0
 472 0014 019B     		ldr	r3, [sp, #4]
 473 0016 1868     		ldr	r0, [r3]
 474              		.loc 1 470 0
 475 0018 80B2     		uxth	r0, r0
 476 001a 02B0     		add	sp, sp, #8
 477              		@ sp needed
 478 001c 7047     		bx	lr
 479              	.L44:
 480 001e 00BF     		.align	2
 481              	.L43:
 482 0020 00740040 		.word	1073771520
 483              		.cfi_endproc
 484              	.LFE121:
 485              		.size	DAC_GetDataOutputValue, .-DAC_GetDataOutputValue
 486 0024 AFF30080 		.section	.text.DAC_DMACmd,"ax",%progbits
 486      AFF30080 
 486      AFF30080 
 487              		.align	2
 488              		.p2align 4,,15
 489              		.global	DAC_DMACmd
 490              		.thumb
 491              		.thumb_func
 492              		.type	DAC_DMACmd, %function
 493              	DAC_DMACmd:
 494              	.LFB122:
 495              		.loc 1 504 0
 496              		.cfi_startproc
 497              		@ args = 0, pretend = 0, frame = 0
 498              		@ frame_needed = 0, uses_anonymous_args = 0
 499              		@ link register save eliminated.
 500              	.LVL37:
 501              		.loc 1 512 0
 502 0000 094B     		ldr	r3, .L49
 503              		.loc 1 509 0
 504 0002 41B9     		cbnz	r1, .L48
 505              		.loc 1 517 0
 506 0004 1A68     		ldr	r2, [r3]
 507 0006 4FF48051 		mov	r1, #4096
ARM GAS  C:\Users\jsyoon\AppData\Local\Temp\cc3YNORi.s 			page 10


 508              	.LVL38:
 509 000a 01FA00F0 		lsl	r0, r1, r0
 510              	.LVL39:
 511 000e 22EA0000 		bic	r0, r2, r0
 512 0012 1860     		str	r0, [r3]
 513 0014 7047     		bx	lr
 514              	.LVL40:
 515              	.L48:
 516              		.loc 1 512 0
 517 0016 1A68     		ldr	r2, [r3]
 518 0018 4FF48051 		mov	r1, #4096
 519              	.LVL41:
 520 001c 01FA00F0 		lsl	r0, r1, r0
 521              	.LVL42:
 522 0020 1043     		orrs	r0, r0, r2
 523 0022 1860     		str	r0, [r3]
 524 0024 7047     		bx	lr
 525              	.L50:
 526 0026 00BF     		.align	2
 527              	.L49:
 528 0028 00740040 		.word	1073771520
 529              		.cfi_endproc
 530              	.LFE122:
 531              		.size	DAC_DMACmd, .-DAC_DMACmd
 532 002c AFF30080 		.section	.text.DAC_ITConfig,"ax",%progbits
 533              		.align	2
 534              		.p2align 4,,15
 535              		.global	DAC_ITConfig
 536              		.thumb
 537              		.thumb_func
 538              		.type	DAC_ITConfig, %function
 539              	DAC_ITConfig:
 540              	.LFB123:
 541              		.loc 1 552 0
 542              		.cfi_startproc
 543              		@ args = 0, pretend = 0, frame = 0
 544              		@ frame_needed = 0, uses_anonymous_args = 0
 545              		@ link register save eliminated.
 546              	.LVL43:
 547              		.loc 1 561 0
 548 0000 064B     		ldr	r3, .L55
 549              		.loc 1 558 0
 550 0002 2AB9     		cbnz	r2, .L54
 551              		.loc 1 566 0
 552 0004 1A68     		ldr	r2, [r3]
 553              	.LVL44:
 554 0006 8140     		lsls	r1, r1, r0
 555              	.LVL45:
 556 0008 22EA0101 		bic	r1, r2, r1
 557 000c 1960     		str	r1, [r3]
 558 000e 7047     		bx	lr
 559              	.LVL46:
 560              	.L54:
 561              		.loc 1 561 0
 562 0010 1A68     		ldr	r2, [r3]
 563              	.LVL47:
 564 0012 8140     		lsls	r1, r1, r0
ARM GAS  C:\Users\jsyoon\AppData\Local\Temp\cc3YNORi.s 			page 11


 565              	.LVL48:
 566 0014 1143     		orrs	r1, r1, r2
 567 0016 1960     		str	r1, [r3]
 568 0018 7047     		bx	lr
 569              	.L56:
 570 001a 00BF     		.align	2
 571              	.L55:
 572 001c 00740040 		.word	1073771520
 573              		.cfi_endproc
 574              	.LFE123:
 575              		.size	DAC_ITConfig, .-DAC_ITConfig
 576              		.section	.text.DAC_GetFlagStatus,"ax",%progbits
 577              		.align	2
 578              		.p2align 4,,15
 579              		.global	DAC_GetFlagStatus
 580              		.thumb
 581              		.thumb_func
 582              		.type	DAC_GetFlagStatus, %function
 583              	DAC_GetFlagStatus:
 584              	.LFB124:
 585              		.loc 1 584 0
 586              		.cfi_startproc
 587              		@ args = 0, pretend = 0, frame = 0
 588              		@ frame_needed = 0, uses_anonymous_args = 0
 589              		@ link register save eliminated.
 590              	.LVL49:
 591              		.loc 1 591 0
 592 0000 034B     		ldr	r3, .L58
 593 0002 5B6B     		ldr	r3, [r3, #52]
 594              	.LVL50:
 595 0004 8140     		lsls	r1, r1, r0
 596              	.LVL51:
 597 0006 1942     		tst	r1, r3
 598              		.loc 1 603 0
 599 0008 0CBF     		ite	eq
 600 000a 0020     		moveq	r0, #0
 601 000c 0120     		movne	r0, #1
 602              	.LVL52:
 603 000e 7047     		bx	lr
 604              	.L59:
 605              		.align	2
 606              	.L58:
 607 0010 00740040 		.word	1073771520
 608              		.cfi_endproc
 609              	.LFE124:
 610              		.size	DAC_GetFlagStatus, .-DAC_GetFlagStatus
 611 0014 AFF30080 		.section	.text.DAC_ClearFlag,"ax",%progbits
 611      AFF30080 
 611      AFF30080 
 612              		.align	2
 613              		.p2align 4,,15
 614              		.global	DAC_ClearFlag
 615              		.thumb
 616              		.thumb_func
 617              		.type	DAC_ClearFlag, %function
 618              	DAC_ClearFlag:
 619              	.LFB125:
ARM GAS  C:\Users\jsyoon\AppData\Local\Temp\cc3YNORi.s 			page 12


 620              		.loc 1 619 0
 621              		.cfi_startproc
 622              		@ args = 0, pretend = 0, frame = 0
 623              		@ frame_needed = 0, uses_anonymous_args = 0
 624              		@ link register save eliminated.
 625              	.LVL53:
 626              		.loc 1 625 0
 627 0000 014B     		ldr	r3, .L61
 628 0002 8140     		lsls	r1, r1, r0
 629              	.LVL54:
 630 0004 5963     		str	r1, [r3, #52]
 631 0006 7047     		bx	lr
 632              	.L62:
 633              		.align	2
 634              	.L61:
 635 0008 00740040 		.word	1073771520
 636              		.cfi_endproc
 637              	.LFE125:
 638              		.size	DAC_ClearFlag, .-DAC_ClearFlag
 639 000c AFF30080 		.section	.text.DAC_GetITStatus,"ax",%progbits
 640              		.align	2
 641              		.p2align 4,,15
 642              		.global	DAC_GetITStatus
 643              		.thumb
 644              		.thumb_func
 645              		.type	DAC_GetITStatus, %function
 646              	DAC_GetITStatus:
 647              	.LFB126:
 648              		.loc 1 642 0
 649              		.cfi_startproc
 650              		@ args = 0, pretend = 0, frame = 0
 651              		@ frame_needed = 0, uses_anonymous_args = 0
 652              		@ link register save eliminated.
 653              	.LVL55:
 654              		.loc 1 651 0
 655 0000 054B     		ldr	r3, .L66
 656 0002 1A68     		ldr	r2, [r3]
 657              		.loc 1 654 0
 658 0004 5B6B     		ldr	r3, [r3, #52]
 659              		.loc 1 651 0
 660 0006 8140     		lsls	r1, r1, r0
 661              	.LVL56:
 662              		.loc 1 654 0
 663 0008 11EA0300 		ands	r0, r1, r3
 664              	.LVL57:
 665 000c 03D0     		beq	.L64
 666              		.loc 1 654 0 is_stmt 0 discriminator 1
 667 000e 1142     		tst	r1, r2
 668              		.loc 1 657 0 is_stmt 1 discriminator 1
 669 0010 0CBF     		ite	eq
 670 0012 0020     		moveq	r0, #0
 671 0014 0120     		movne	r0, #1
 672              	.L64:
 673              	.LVL58:
 674              		.loc 1 666 0
 675 0016 7047     		bx	lr
 676              	.L67:
ARM GAS  C:\Users\jsyoon\AppData\Local\Temp\cc3YNORi.s 			page 13


 677              		.align	2
 678              	.L66:
 679 0018 00740040 		.word	1073771520
 680              		.cfi_endproc
 681              	.LFE126:
 682              		.size	DAC_GetITStatus, .-DAC_GetITStatus
 683 001c AFF30080 		.section	.text.DAC_ClearITPendingBit,"ax",%progbits
 684              		.align	2
 685              		.p2align 4,,15
 686              		.global	DAC_ClearITPendingBit
 687              		.thumb
 688              		.thumb_func
 689              		.type	DAC_ClearITPendingBit, %function
 690              	DAC_ClearITPendingBit:
 691              	.LFB127:
 692              		.loc 1 682 0
 693              		.cfi_startproc
 694              		@ args = 0, pretend = 0, frame = 0
 695              		@ frame_needed = 0, uses_anonymous_args = 0
 696              		@ link register save eliminated.
 697              	.LVL59:
 698              		.loc 1 688 0
 699 0000 014B     		ldr	r3, .L69
 700 0002 8140     		lsls	r1, r1, r0
 701              	.LVL60:
 702 0004 5963     		str	r1, [r3, #52]
 703 0006 7047     		bx	lr
 704              	.L70:
 705              		.align	2
 706              	.L69:
 707 0008 00740040 		.word	1073771520
 708              		.cfi_endproc
 709              	.LFE127:
 710              		.size	DAC_ClearITPendingBit, .-DAC_ClearITPendingBit
 711 000c AFF30080 		.text
 712              	.Letext0:
 713              		.file 2 "c:\\crosstools\\gcc-arm-embedded\\4.8_2014q2\\arm-none-eabi\\include\\machine\\_default_t
 714              		.file 3 "c:\\crosstools\\gcc-arm-embedded\\4.8_2014q2\\arm-none-eabi\\include\\stdint.h"
 715              		.file 4 "ChibiOS_2.6.6/os/hal/platforms/STM32F4xx/stm32f4xx.h"
 716              		.file 5 "ChibiOS_2.6.6/ext/stdperiph_stm32f4/inc/stm32f4xx_dac.h"
 717              		.file 6 "ChibiOS_2.6.6/os/ports/common/ARMCMx/CMSIS/include/core_cm4.h"
 718              		.file 7 "ChibiOS_2.6.6/ext/stdperiph_stm32f4/inc/stm32f4xx_rcc.h"
 719              		.section	.debug_info,"",%progbits
 720              	.Ldebug_info0:
 721 0000 98060000 		.4byte	0x698
 722 0004 0400     		.2byte	0x4
 723 0006 00000000 		.4byte	.Ldebug_abbrev0
 724 000a 04       		.byte	0x4
 725 000b 01       		.uleb128 0x1
 726 000c F0000000 		.4byte	.LASF74
 727 0010 01       		.byte	0x1
 728 0011 EB020000 		.4byte	.LASF75
 729 0015 6C000000 		.4byte	.LASF76
 730 0019 00000000 		.4byte	.Ldebug_ranges0+0
 731 001d 00000000 		.4byte	0
 732 0021 00000000 		.4byte	.Ldebug_line0
 733 0025 02       		.uleb128 0x2
ARM GAS  C:\Users\jsyoon\AppData\Local\Temp\cc3YNORi.s 			page 14


 734 0026 01       		.byte	0x1
 735 0027 06       		.byte	0x6
 736 0028 3C030000 		.4byte	.LASF0
 737 002c 03       		.uleb128 0x3
 738 002d A1020000 		.4byte	.LASF3
 739 0031 02       		.byte	0x2
 740 0032 1C       		.byte	0x1c
 741 0033 37000000 		.4byte	0x37
 742 0037 02       		.uleb128 0x2
 743 0038 01       		.byte	0x1
 744 0039 08       		.byte	0x8
 745 003a DD020000 		.4byte	.LASF1
 746 003e 02       		.uleb128 0x2
 747 003f 02       		.byte	0x2
 748 0040 05       		.byte	0x5
 749 0041 E6000000 		.4byte	.LASF2
 750 0045 03       		.uleb128 0x3
 751 0046 DB000000 		.4byte	.LASF4
 752 004a 02       		.byte	0x2
 753 004b 26       		.byte	0x26
 754 004c 50000000 		.4byte	0x50
 755 0050 02       		.uleb128 0x2
 756 0051 02       		.byte	0x2
 757 0052 07       		.byte	0x7
 758 0053 A7030000 		.4byte	.LASF5
 759 0057 03       		.uleb128 0x3
 760 0058 23030000 		.4byte	.LASF6
 761 005c 02       		.byte	0x2
 762 005d 37       		.byte	0x37
 763 005e 62000000 		.4byte	0x62
 764 0062 02       		.uleb128 0x2
 765 0063 04       		.byte	0x4
 766 0064 05       		.byte	0x5
 767 0065 78020000 		.4byte	.LASF7
 768 0069 03       		.uleb128 0x3
 769 006a BF000000 		.4byte	.LASF8
 770 006e 02       		.byte	0x2
 771 006f 38       		.byte	0x38
 772 0070 74000000 		.4byte	0x74
 773 0074 02       		.uleb128 0x2
 774 0075 04       		.byte	0x4
 775 0076 07       		.byte	0x7
 776 0077 4A040000 		.4byte	.LASF9
 777 007b 02       		.uleb128 0x2
 778 007c 08       		.byte	0x8
 779 007d 05       		.byte	0x5
 780 007e 4A020000 		.4byte	.LASF10
 781 0082 02       		.uleb128 0x2
 782 0083 08       		.byte	0x8
 783 0084 07       		.byte	0x7
 784 0085 48030000 		.4byte	.LASF11
 785 0089 04       		.uleb128 0x4
 786 008a 04       		.byte	0x4
 787 008b 05       		.byte	0x5
 788 008c 696E7400 		.ascii	"int\000"
 789 0090 02       		.uleb128 0x2
 790 0091 04       		.byte	0x4
ARM GAS  C:\Users\jsyoon\AppData\Local\Temp\cc3YNORi.s 			page 15


 791 0092 07       		.byte	0x7
 792 0093 E4040000 		.4byte	.LASF12
 793 0097 03       		.uleb128 0x3
 794 0098 B4040000 		.4byte	.LASF13
 795 009c 03       		.byte	0x3
 796 009d 2A       		.byte	0x2a
 797 009e 2C000000 		.4byte	0x2c
 798 00a2 03       		.uleb128 0x3
 799 00a3 74030000 		.4byte	.LASF14
 800 00a7 03       		.byte	0x3
 801 00a8 36       		.byte	0x36
 802 00a9 45000000 		.4byte	0x45
 803 00ad 03       		.uleb128 0x3
 804 00ae FE030000 		.4byte	.LASF15
 805 00b2 03       		.byte	0x3
 806 00b3 41       		.byte	0x41
 807 00b4 57000000 		.4byte	0x57
 808 00b8 03       		.uleb128 0x3
 809 00b9 5F030000 		.4byte	.LASF16
 810 00bd 03       		.byte	0x3
 811 00be 42       		.byte	0x42
 812 00bf 69000000 		.4byte	0x69
 813 00c3 02       		.uleb128 0x2
 814 00c4 04       		.byte	0x4
 815 00c5 07       		.byte	0x7
 816 00c6 63000000 		.4byte	.LASF17
 817 00ca 05       		.uleb128 0x5
 818 00cb B8000000 		.4byte	0xb8
 819 00cf 05       		.uleb128 0x5
 820 00d0 AD000000 		.4byte	0xad
 821 00d4 06       		.uleb128 0x6
 822 00d5 01       		.byte	0x1
 823 00d6 04       		.byte	0x4
 824 00d7 F701     		.2byte	0x1f7
 825 00d9 EA000000 		.4byte	0xea
 826 00dd 07       		.uleb128 0x7
 827 00de AE040000 		.4byte	.LASF18
 828 00e2 00       		.sleb128 0
 829 00e3 08       		.uleb128 0x8
 830 00e4 53455400 		.ascii	"SET\000"
 831 00e8 01       		.sleb128 1
 832 00e9 00       		.byte	0
 833 00ea 09       		.uleb128 0x9
 834 00eb 1F050000 		.4byte	.LASF19
 835 00ef 04       		.byte	0x4
 836 00f0 F701     		.2byte	0x1f7
 837 00f2 D4000000 		.4byte	0xd4
 838 00f6 09       		.uleb128 0x9
 839 00f7 6F020000 		.4byte	.LASF20
 840 00fb 04       		.byte	0x4
 841 00fc F701     		.2byte	0x1f7
 842 00fe D4000000 		.4byte	0xd4
 843 0102 06       		.uleb128 0x6
 844 0103 01       		.byte	0x1
 845 0104 04       		.byte	0x4
 846 0105 F901     		.2byte	0x1f9
 847 0107 18010000 		.4byte	0x118
ARM GAS  C:\Users\jsyoon\AppData\Local\Temp\cc3YNORi.s 			page 16


 848 010b 07       		.uleb128 0x7
 849 010c 27020000 		.4byte	.LASF21
 850 0110 00       		.sleb128 0
 851 0111 07       		.uleb128 0x7
 852 0112 2A050000 		.4byte	.LASF22
 853 0116 01       		.sleb128 1
 854 0117 00       		.byte	0
 855 0118 09       		.uleb128 0x9
 856 0119 5C040000 		.4byte	.LASF23
 857 011d 04       		.byte	0x4
 858 011e F901     		.2byte	0x1f9
 859 0120 02010000 		.4byte	0x102
 860 0124 0A       		.uleb128 0xa
 861 0125 38       		.byte	0x38
 862 0126 04       		.byte	0x4
 863 0127 7C02     		.2byte	0x27c
 864 0129 E2010000 		.4byte	0x1e2
 865 012d 0B       		.uleb128 0xb
 866 012e 435200   		.ascii	"CR\000"
 867 0131 04       		.byte	0x4
 868 0132 7E02     		.2byte	0x27e
 869 0134 CA000000 		.4byte	0xca
 870 0138 00       		.byte	0
 871 0139 0C       		.uleb128 0xc
 872 013a 9F030000 		.4byte	.LASF24
 873 013e 04       		.byte	0x4
 874 013f 7F02     		.2byte	0x27f
 875 0141 CA000000 		.4byte	0xca
 876 0145 04       		.byte	0x4
 877 0146 0C       		.uleb128 0xc
 878 0147 10040000 		.4byte	.LASF25
 879 014b 04       		.byte	0x4
 880 014c 8002     		.2byte	0x280
 881 014e CA000000 		.4byte	0xca
 882 0152 08       		.byte	0x8
 883 0153 0C       		.uleb128 0xc
 884 0154 3D000000 		.4byte	.LASF26
 885 0158 04       		.byte	0x4
 886 0159 8102     		.2byte	0x281
 887 015b CA000000 		.4byte	0xca
 888 015f 0C       		.byte	0xc
 889 0160 0C       		.uleb128 0xc
 890 0161 FE040000 		.4byte	.LASF27
 891 0165 04       		.byte	0x4
 892 0166 8202     		.2byte	0x282
 893 0168 CA000000 		.4byte	0xca
 894 016c 10       		.byte	0x10
 895 016d 0C       		.uleb128 0xc
 896 016e 18040000 		.4byte	.LASF28
 897 0172 04       		.byte	0x4
 898 0173 8302     		.2byte	0x283
 899 0175 CA000000 		.4byte	0xca
 900 0179 14       		.byte	0x14
 901 017a 0C       		.uleb128 0xc
 902 017b 45000000 		.4byte	.LASF29
 903 017f 04       		.byte	0x4
 904 0180 8402     		.2byte	0x284
ARM GAS  C:\Users\jsyoon\AppData\Local\Temp\cc3YNORi.s 			page 17


 905 0182 CA000000 		.4byte	0xca
 906 0186 18       		.byte	0x18
 907 0187 0C       		.uleb128 0xc
 908 0188 05050000 		.4byte	.LASF30
 909 018c 04       		.byte	0x4
 910 018d 8502     		.2byte	0x285
 911 018f CA000000 		.4byte	0xca
 912 0193 1C       		.byte	0x1c
 913 0194 0C       		.uleb128 0xc
 914 0195 42040000 		.4byte	.LASF31
 915 0199 04       		.byte	0x4
 916 019a 8602     		.2byte	0x286
 917 019c CA000000 		.4byte	0xca
 918 01a0 20       		.byte	0x20
 919 01a1 0C       		.uleb128 0xc
 920 01a2 9C000000 		.4byte	.LASF32
 921 01a6 04       		.byte	0x4
 922 01a7 8702     		.2byte	0x287
 923 01a9 CA000000 		.4byte	0xca
 924 01ad 24       		.byte	0x24
 925 01ae 0C       		.uleb128 0xc
 926 01af 1F000000 		.4byte	.LASF33
 927 01b3 04       		.byte	0x4
 928 01b4 8802     		.2byte	0x288
 929 01b6 CA000000 		.4byte	0xca
 930 01ba 28       		.byte	0x28
 931 01bb 0C       		.uleb128 0xc
 932 01bc 14020000 		.4byte	.LASF34
 933 01c0 04       		.byte	0x4
 934 01c1 8902     		.2byte	0x289
 935 01c3 CA000000 		.4byte	0xca
 936 01c7 2C       		.byte	0x2c
 937 01c8 0C       		.uleb128 0xc
 938 01c9 19020000 		.4byte	.LASF35
 939 01cd 04       		.byte	0x4
 940 01ce 8A02     		.2byte	0x28a
 941 01d0 CA000000 		.4byte	0xca
 942 01d4 30       		.byte	0x30
 943 01d5 0B       		.uleb128 0xb
 944 01d6 535200   		.ascii	"SR\000"
 945 01d9 04       		.byte	0x4
 946 01da 8B02     		.2byte	0x28b
 947 01dc CA000000 		.4byte	0xca
 948 01e0 34       		.byte	0x34
 949 01e1 00       		.byte	0
 950 01e2 09       		.uleb128 0x9
 951 01e3 D8040000 		.4byte	.LASF36
 952 01e7 04       		.byte	0x4
 953 01e8 8C02     		.2byte	0x28c
 954 01ea 24010000 		.4byte	0x124
 955 01ee 0D       		.uleb128 0xd
 956 01ef 10       		.byte	0x10
 957 01f0 05       		.byte	0x5
 958 01f1 36       		.byte	0x36
 959 01f2 27020000 		.4byte	0x227
 960 01f6 0E       		.uleb128 0xe
 961 01f7 68030000 		.4byte	.LASF37
ARM GAS  C:\Users\jsyoon\AppData\Local\Temp\cc3YNORi.s 			page 18


 962 01fb 05       		.byte	0x5
 963 01fc 38       		.byte	0x38
 964 01fd B8000000 		.4byte	0xb8
 965 0201 00       		.byte	0
 966 0202 0E       		.uleb128 0xe
 967 0203 0C050000 		.4byte	.LASF38
 968 0207 05       		.byte	0x5
 969 0208 3B       		.byte	0x3b
 970 0209 B8000000 		.4byte	0xb8
 971 020d 04       		.byte	0x4
 972 020e 0E       		.uleb128 0xe
 973 020f DD030000 		.4byte	.LASF39
 974 0213 05       		.byte	0x5
 975 0214 3F       		.byte	0x3f
 976 0215 B8000000 		.4byte	0xb8
 977 0219 08       		.byte	0x8
 978 021a 0E       		.uleb128 0xe
 979 021b CA000000 		.4byte	.LASF40
 980 021f 05       		.byte	0x5
 981 0220 43       		.byte	0x43
 982 0221 B8000000 		.4byte	0xb8
 983 0225 0C       		.byte	0xc
 984 0226 00       		.byte	0
 985 0227 03       		.uleb128 0x3
 986 0228 27040000 		.4byte	.LASF41
 987 022c 05       		.byte	0x5
 988 022d 45       		.byte	0x45
 989 022e EE010000 		.4byte	0x1ee
 990 0232 0F       		.uleb128 0xf
 991 0233 94030000 		.4byte	.LASF42
 992 0237 01       		.byte	0x1
 993 0238 B4       		.byte	0xb4
 994 0239 00000000 		.4byte	.LFB111
 995 023d 1A000000 		.4byte	.LFE111-.LFB111
 996 0241 01       		.uleb128 0x1
 997 0242 9C       		.byte	0x9c
 998 0243 78020000 		.4byte	0x278
 999 0247 10       		.uleb128 0x10
 1000 0248 0C000000 		.4byte	.LVL0
 1001 024c 88060000 		.4byte	0x688
 1002 0250 61020000 		.4byte	0x261
 1003 0254 11       		.uleb128 0x11
 1004 0255 01       		.uleb128 0x1
 1005 0256 51       		.byte	0x51
 1006 0257 01       		.uleb128 0x1
 1007 0258 31       		.byte	0x31
 1008 0259 11       		.uleb128 0x11
 1009 025a 01       		.uleb128 0x1
 1010 025b 50       		.byte	0x50
 1011 025c 03       		.uleb128 0x3
 1012 025d 40       		.byte	0x40
 1013 025e 49       		.byte	0x49
 1014 025f 24       		.byte	0x24
 1015 0260 00       		.byte	0
 1016 0261 12       		.uleb128 0x12
 1017 0262 1A000000 		.4byte	.LVL1
 1018 0266 88060000 		.4byte	0x688
ARM GAS  C:\Users\jsyoon\AppData\Local\Temp\cc3YNORi.s 			page 19


 1019 026a 11       		.uleb128 0x11
 1020 026b 01       		.uleb128 0x1
 1021 026c 51       		.byte	0x51
 1022 026d 01       		.uleb128 0x1
 1023 026e 30       		.byte	0x30
 1024 026f 11       		.uleb128 0x11
 1025 0270 01       		.uleb128 0x1
 1026 0271 50       		.byte	0x50
 1027 0272 03       		.uleb128 0x3
 1028 0273 40       		.byte	0x40
 1029 0274 49       		.byte	0x49
 1030 0275 24       		.byte	0x24
 1031 0276 00       		.byte	0
 1032 0277 00       		.byte	0
 1033 0278 0F       		.uleb128 0xf
 1034 0279 BC040000 		.4byte	.LASF43
 1035 027d 01       		.byte	0x1
 1036 027e C7       		.byte	0xc7
 1037 027f 00000000 		.4byte	.LFB112
 1038 0283 30000000 		.4byte	.LFE112-.LFB112
 1039 0287 01       		.uleb128 0x1
 1040 0288 9C       		.byte	0x9c
 1041 0289 CA020000 		.4byte	0x2ca
 1042 028d 13       		.uleb128 0x13
 1043 028e 88030000 		.4byte	.LASF44
 1044 0292 01       		.byte	0x1
 1045 0293 C7       		.byte	0xc7
 1046 0294 B8000000 		.4byte	0xb8
 1047 0298 00000000 		.4byte	.LLST0
 1048 029c 13       		.uleb128 0x13
 1049 029d CE020000 		.4byte	.LASF45
 1050 02a1 01       		.byte	0x1
 1051 02a2 C7       		.byte	0xc7
 1052 02a3 CA020000 		.4byte	0x2ca
 1053 02a7 21000000 		.4byte	.LLST1
 1054 02ab 14       		.uleb128 0x14
 1055 02ac 00000000 		.4byte	.LASF46
 1056 02b0 01       		.byte	0x1
 1057 02b1 C9       		.byte	0xc9
 1058 02b2 B8000000 		.4byte	0xb8
 1059 02b6 42000000 		.4byte	.LLST2
 1060 02ba 14       		.uleb128 0x14
 1061 02bb D5030000 		.4byte	.LASF47
 1062 02bf 01       		.byte	0x1
 1063 02c0 C9       		.byte	0xc9
 1064 02c1 B8000000 		.4byte	0xb8
 1065 02c5 61000000 		.4byte	.LLST3
 1066 02c9 00       		.byte	0
 1067 02ca 15       		.uleb128 0x15
 1068 02cb 04       		.byte	0x4
 1069 02cc 27020000 		.4byte	0x227
 1070 02d0 0F       		.uleb128 0xf
 1071 02d1 2D030000 		.4byte	.LASF48
 1072 02d5 01       		.byte	0x1
 1073 02d6 EB       		.byte	0xeb
 1074 02d7 00000000 		.4byte	.LFB113
 1075 02db 0C000000 		.4byte	.LFE113-.LFB113
ARM GAS  C:\Users\jsyoon\AppData\Local\Temp\cc3YNORi.s 			page 20


 1076 02df 01       		.uleb128 0x1
 1077 02e0 9C       		.byte	0x9c
 1078 02e1 F3020000 		.4byte	0x2f3
 1079 02e5 16       		.uleb128 0x16
 1080 02e6 CE020000 		.4byte	.LASF45
 1081 02ea 01       		.byte	0x1
 1082 02eb EB       		.byte	0xeb
 1083 02ec CA020000 		.4byte	0x2ca
 1084 02f0 01       		.uleb128 0x1
 1085 02f1 50       		.byte	0x50
 1086 02f2 00       		.byte	0
 1087 02f3 17       		.uleb128 0x17
 1088 02f4 90040000 		.4byte	.LASF49
 1089 02f8 01       		.byte	0x1
 1090 02f9 0301     		.2byte	0x103
 1091 02fb 00000000 		.4byte	.LFB114
 1092 02ff 28000000 		.4byte	.LFE114-.LFB114
 1093 0303 01       		.uleb128 0x1
 1094 0304 9C       		.byte	0x9c
 1095 0305 2A030000 		.4byte	0x32a
 1096 0309 18       		.uleb128 0x18
 1097 030a 88030000 		.4byte	.LASF44
 1098 030e 01       		.byte	0x1
 1099 030f 0301     		.2byte	0x103
 1100 0311 B8000000 		.4byte	0xb8
 1101 0315 99000000 		.4byte	.LLST4
 1102 0319 18       		.uleb128 0x18
 1103 031a 1E020000 		.4byte	.LASF50
 1104 031e 01       		.byte	0x1
 1105 031f 0301     		.2byte	0x103
 1106 0321 18010000 		.4byte	0x118
 1107 0325 D3000000 		.4byte	.LLST5
 1108 0329 00       		.byte	0
 1109 032a 17       		.uleb128 0x17
 1110 032b 26000000 		.4byte	.LASF51
 1111 032f 01       		.byte	0x1
 1112 0330 1F01     		.2byte	0x11f
 1113 0332 00000000 		.4byte	.LFB115
 1114 0336 28000000 		.4byte	.LFE115-.LFB115
 1115 033a 01       		.uleb128 0x1
 1116 033b 9C       		.byte	0x9c
 1117 033c 61030000 		.4byte	0x361
 1118 0340 18       		.uleb128 0x18
 1119 0341 88030000 		.4byte	.LASF44
 1120 0345 01       		.byte	0x1
 1121 0346 1F01     		.2byte	0x11f
 1122 0348 B8000000 		.4byte	0xb8
 1123 034c 0D010000 		.4byte	.LLST6
 1124 0350 18       		.uleb128 0x18
 1125 0351 1E020000 		.4byte	.LASF50
 1126 0355 01       		.byte	0x1
 1127 0356 1F01     		.2byte	0x11f
 1128 0358 18010000 		.4byte	0x118
 1129 035c 2E010000 		.4byte	.LLST7
 1130 0360 00       		.byte	0
 1131 0361 17       		.uleb128 0x17
 1132 0362 BA030000 		.4byte	.LASF52
ARM GAS  C:\Users\jsyoon\AppData\Local\Temp\cc3YNORi.s 			page 21


 1133 0366 01       		.byte	0x1
 1134 0367 3701     		.2byte	0x137
 1135 0369 00000000 		.4byte	.LFB116
 1136 036d 1C000000 		.4byte	.LFE116-.LFB116
 1137 0371 01       		.uleb128 0x1
 1138 0372 9C       		.byte	0x9c
 1139 0373 86030000 		.4byte	0x386
 1140 0377 19       		.uleb128 0x19
 1141 0378 1E020000 		.4byte	.LASF50
 1142 037c 01       		.byte	0x1
 1143 037d 3701     		.2byte	0x137
 1144 037f 18010000 		.4byte	0x118
 1145 0383 01       		.uleb128 0x1
 1146 0384 50       		.byte	0x50
 1147 0385 00       		.byte	0
 1148 0386 17       		.uleb128 0x17
 1149 0387 4D000000 		.4byte	.LASF53
 1150 038b 01       		.byte	0x1
 1151 038c 5601     		.2byte	0x156
 1152 038e 00000000 		.4byte	.LFB117
 1153 0392 20000000 		.4byte	.LFE117-.LFB117
 1154 0396 01       		.uleb128 0x1
 1155 0397 9C       		.byte	0x9c
 1156 0398 CB030000 		.4byte	0x3cb
 1157 039c 19       		.uleb128 0x19
 1158 039d 88030000 		.4byte	.LASF44
 1159 03a1 01       		.byte	0x1
 1160 03a2 5601     		.2byte	0x156
 1161 03a4 B8000000 		.4byte	0xb8
 1162 03a8 01       		.uleb128 0x1
 1163 03a9 50       		.byte	0x50
 1164 03aa 18       		.uleb128 0x18
 1165 03ab 98020000 		.4byte	.LASF54
 1166 03af 01       		.byte	0x1
 1167 03b0 5601     		.2byte	0x156
 1168 03b2 B8000000 		.4byte	0xb8
 1169 03b6 68010000 		.4byte	.LLST8
 1170 03ba 18       		.uleb128 0x18
 1171 03bb 1E020000 		.4byte	.LASF50
 1172 03bf 01       		.byte	0x1
 1173 03c0 5601     		.2byte	0x156
 1174 03c2 18010000 		.4byte	0x118
 1175 03c6 A2010000 		.4byte	.LLST9
 1176 03ca 00       		.byte	0
 1177 03cb 17       		.uleb128 0x17
 1178 03cc B0020000 		.4byte	.LASF55
 1179 03d0 01       		.byte	0x1
 1180 03d1 7301     		.2byte	0x173
 1181 03d3 00000000 		.4byte	.LFB118
 1182 03d7 20000000 		.4byte	.LFE118-.LFB118
 1183 03db 01       		.uleb128 0x1
 1184 03dc 9C       		.byte	0x9c
 1185 03dd 0F040000 		.4byte	0x40f
 1186 03e1 18       		.uleb128 0x18
 1187 03e2 06040000 		.4byte	.LASF56
 1188 03e6 01       		.byte	0x1
 1189 03e7 7301     		.2byte	0x173
ARM GAS  C:\Users\jsyoon\AppData\Local\Temp\cc3YNORi.s 			page 22


 1190 03e9 B8000000 		.4byte	0xb8
 1191 03ed DC010000 		.4byte	.LLST10
 1192 03f1 19       		.uleb128 0x19
 1193 03f2 AB020000 		.4byte	.LASF57
 1194 03f6 01       		.byte	0x1
 1195 03f7 7301     		.2byte	0x173
 1196 03f9 A2000000 		.4byte	0xa2
 1197 03fd 01       		.uleb128 0x1
 1198 03fe 51       		.byte	0x51
 1199 03ff 1A       		.uleb128 0x1a
 1200 0400 746D7000 		.ascii	"tmp\000"
 1201 0404 01       		.byte	0x1
 1202 0405 7501     		.2byte	0x175
 1203 0407 CA000000 		.4byte	0xca
 1204 040b 02       		.uleb128 0x2
 1205 040c 91       		.byte	0x91
 1206 040d 7C       		.sleb128 -4
 1207 040e 00       		.byte	0
 1208 040f 17       		.uleb128 0x17
 1209 0410 7C040000 		.4byte	.LASF58
 1210 0414 01       		.byte	0x1
 1211 0415 8C01     		.2byte	0x18c
 1212 0417 00000000 		.4byte	.LFB119
 1213 041b 20000000 		.4byte	.LFE119-.LFB119
 1214 041f 01       		.uleb128 0x1
 1215 0420 9C       		.byte	0x9c
 1216 0421 53040000 		.4byte	0x453
 1217 0425 18       		.uleb128 0x18
 1218 0426 06040000 		.4byte	.LASF56
 1219 042a 01       		.byte	0x1
 1220 042b 8C01     		.2byte	0x18c
 1221 042d B8000000 		.4byte	0xb8
 1222 0431 FD010000 		.4byte	.LLST11
 1223 0435 19       		.uleb128 0x19
 1224 0436 AB020000 		.4byte	.LASF57
 1225 043a 01       		.byte	0x1
 1226 043b 8C01     		.2byte	0x18c
 1227 043d A2000000 		.4byte	0xa2
 1228 0441 01       		.uleb128 0x1
 1229 0442 51       		.byte	0x51
 1230 0443 1A       		.uleb128 0x1a
 1231 0444 746D7000 		.ascii	"tmp\000"
 1232 0448 01       		.byte	0x1
 1233 0449 8E01     		.2byte	0x18e
 1234 044b CA000000 		.4byte	0xca
 1235 044f 02       		.uleb128 0x2
 1236 0450 91       		.byte	0x91
 1237 0451 7C       		.sleb128 -4
 1238 0452 00       		.byte	0
 1239 0453 17       		.uleb128 0x17
 1240 0454 81020000 		.4byte	.LASF59
 1241 0458 01       		.byte	0x1
 1242 0459 A801     		.2byte	0x1a8
 1243 045b 00000000 		.4byte	.LFB120
 1244 045f 18000000 		.4byte	.LFE120-.LFB120
 1245 0463 01       		.uleb128 0x1
 1246 0464 9C       		.byte	0x9c
ARM GAS  C:\Users\jsyoon\AppData\Local\Temp\cc3YNORi.s 			page 23


 1247 0465 B6040000 		.4byte	0x4b6
 1248 0469 19       		.uleb128 0x19
 1249 046a 06040000 		.4byte	.LASF56
 1250 046e 01       		.byte	0x1
 1251 046f A801     		.2byte	0x1a8
 1252 0471 B8000000 		.4byte	0xb8
 1253 0475 01       		.uleb128 0x1
 1254 0476 50       		.byte	0x50
 1255 0477 18       		.uleb128 0x18
 1256 0478 37040000 		.4byte	.LASF60
 1257 047c 01       		.byte	0x1
 1258 047d A801     		.2byte	0x1a8
 1259 047f A2000000 		.4byte	0xa2
 1260 0483 1E020000 		.4byte	.LLST12
 1261 0487 19       		.uleb128 0x19
 1262 0488 C5040000 		.4byte	.LASF61
 1263 048c 01       		.byte	0x1
 1264 048d A801     		.2byte	0x1a8
 1265 048f A2000000 		.4byte	0xa2
 1266 0493 01       		.uleb128 0x1
 1267 0494 52       		.byte	0x52
 1268 0495 1B       		.uleb128 0x1b
 1269 0496 3D040000 		.4byte	.LASF62
 1270 049a 01       		.byte	0x1
 1271 049b AA01     		.2byte	0x1aa
 1272 049d B8000000 		.4byte	0xb8
 1273 04a1 3F020000 		.4byte	.LLST13
 1274 04a5 1C       		.uleb128 0x1c
 1275 04a6 746D7000 		.ascii	"tmp\000"
 1276 04aa 01       		.byte	0x1
 1277 04ab AA01     		.2byte	0x1aa
 1278 04ad B8000000 		.4byte	0xb8
 1279 04b1 5E020000 		.4byte	.LLST14
 1280 04b5 00       		.byte	0
 1281 04b6 1D       		.uleb128 0x1d
 1282 04b7 08000000 		.4byte	.LASF66
 1283 04bb 01       		.byte	0x1
 1284 04bc CA01     		.2byte	0x1ca
 1285 04be A2000000 		.4byte	0xa2
 1286 04c2 00000000 		.4byte	.LFB121
 1287 04c6 24000000 		.4byte	.LFE121-.LFB121
 1288 04ca 01       		.uleb128 0x1
 1289 04cb 9C       		.byte	0x9c
 1290 04cc F0040000 		.4byte	0x4f0
 1291 04d0 18       		.uleb128 0x18
 1292 04d1 88030000 		.4byte	.LASF44
 1293 04d5 01       		.byte	0x1
 1294 04d6 CA01     		.2byte	0x1ca
 1295 04d8 B8000000 		.4byte	0xb8
 1296 04dc 83020000 		.4byte	.LLST15
 1297 04e0 1A       		.uleb128 0x1a
 1298 04e1 746D7000 		.ascii	"tmp\000"
 1299 04e5 01       		.byte	0x1
 1300 04e6 CC01     		.2byte	0x1cc
 1301 04e8 CA000000 		.4byte	0xca
 1302 04ec 02       		.uleb128 0x2
 1303 04ed 91       		.byte	0x91
ARM GAS  C:\Users\jsyoon\AppData\Local\Temp\cc3YNORi.s 			page 24


 1304 04ee 7C       		.sleb128 -4
 1305 04ef 00       		.byte	0
 1306 04f0 17       		.uleb128 0x17
 1307 04f1 7D030000 		.4byte	.LASF63
 1308 04f5 01       		.byte	0x1
 1309 04f6 F701     		.2byte	0x1f7
 1310 04f8 00000000 		.4byte	.LFB122
 1311 04fc 2C000000 		.4byte	.LFE122-.LFB122
 1312 0500 01       		.uleb128 0x1
 1313 0501 9C       		.byte	0x9c
 1314 0502 27050000 		.4byte	0x527
 1315 0506 18       		.uleb128 0x18
 1316 0507 88030000 		.4byte	.LASF44
 1317 050b 01       		.byte	0x1
 1318 050c F701     		.2byte	0x1f7
 1319 050e B8000000 		.4byte	0xb8
 1320 0512 A4020000 		.4byte	.LLST16
 1321 0516 18       		.uleb128 0x18
 1322 0517 1E020000 		.4byte	.LASF50
 1323 051b 01       		.byte	0x1
 1324 051c F701     		.2byte	0x1f7
 1325 051e 18010000 		.4byte	0x118
 1326 0522 DE020000 		.4byte	.LLST17
 1327 0526 00       		.byte	0
 1328 0527 17       		.uleb128 0x17
 1329 0528 F1040000 		.4byte	.LASF64
 1330 052c 01       		.byte	0x1
 1331 052d 2702     		.2byte	0x227
 1332 052f 00000000 		.4byte	.LFB123
 1333 0533 20000000 		.4byte	.LFE123-.LFB123
 1334 0537 01       		.uleb128 0x1
 1335 0538 9C       		.byte	0x9c
 1336 0539 6C050000 		.4byte	0x56c
 1337 053d 19       		.uleb128 0x19
 1338 053e 88030000 		.4byte	.LASF44
 1339 0542 01       		.byte	0x1
 1340 0543 2702     		.2byte	0x227
 1341 0545 B8000000 		.4byte	0xb8
 1342 0549 01       		.uleb128 0x1
 1343 054a 50       		.byte	0x50
 1344 054b 18       		.uleb128 0x18
 1345 054c 20040000 		.4byte	.LASF65
 1346 0550 01       		.byte	0x1
 1347 0551 2702     		.2byte	0x227
 1348 0553 B8000000 		.4byte	0xb8
 1349 0557 18030000 		.4byte	.LLST18
 1350 055b 18       		.uleb128 0x18
 1351 055c 1E020000 		.4byte	.LASF50
 1352 0560 01       		.byte	0x1
 1353 0561 2702     		.2byte	0x227
 1354 0563 18010000 		.4byte	0x118
 1355 0567 52030000 		.4byte	.LLST19
 1356 056b 00       		.byte	0
 1357 056c 1D       		.uleb128 0x1d
 1358 056d AD000000 		.4byte	.LASF67
 1359 0571 01       		.byte	0x1
 1360 0572 4702     		.2byte	0x247
ARM GAS  C:\Users\jsyoon\AppData\Local\Temp\cc3YNORi.s 			page 25


 1361 0574 EA000000 		.4byte	0xea
 1362 0578 00000000 		.4byte	.LFB124
 1363 057c 14000000 		.4byte	.LFE124-.LFB124
 1364 0580 01       		.uleb128 0x1
 1365 0581 9C       		.byte	0x9c
 1366 0582 B7050000 		.4byte	0x5b7
 1367 0586 18       		.uleb128 0x18
 1368 0587 88030000 		.4byte	.LASF44
 1369 058b 01       		.byte	0x1
 1370 058c 4702     		.2byte	0x247
 1371 058e B8000000 		.4byte	0xb8
 1372 0592 8C030000 		.4byte	.LLST20
 1373 0596 18       		.uleb128 0x18
 1374 0597 A4000000 		.4byte	.LASF68
 1375 059b 01       		.byte	0x1
 1376 059c 4702     		.2byte	0x247
 1377 059e B8000000 		.4byte	0xb8
 1378 05a2 AD030000 		.4byte	.LLST21
 1379 05a6 1B       		.uleb128 0x1b
 1380 05a7 C4020000 		.4byte	.LASF69
 1381 05ab 01       		.byte	0x1
 1382 05ac 4902     		.2byte	0x249
 1383 05ae EA000000 		.4byte	0xea
 1384 05b2 CE030000 		.4byte	.LLST22
 1385 05b6 00       		.byte	0
 1386 05b7 17       		.uleb128 0x17
 1387 05b8 2F020000 		.4byte	.LASF70
 1388 05bc 01       		.byte	0x1
 1389 05bd 6A02     		.2byte	0x26a
 1390 05bf 00000000 		.4byte	.LFB125
 1391 05c3 0C000000 		.4byte	.LFE125-.LFB125
 1392 05c7 01       		.uleb128 0x1
 1393 05c8 9C       		.byte	0x9c
 1394 05c9 EC050000 		.4byte	0x5ec
 1395 05cd 19       		.uleb128 0x19
 1396 05ce 88030000 		.4byte	.LASF44
 1397 05d2 01       		.byte	0x1
 1398 05d3 6A02     		.2byte	0x26a
 1399 05d5 B8000000 		.4byte	0xb8
 1400 05d9 01       		.uleb128 0x1
 1401 05da 50       		.byte	0x50
 1402 05db 18       		.uleb128 0x18
 1403 05dc A4000000 		.4byte	.LASF68
 1404 05e0 01       		.byte	0x1
 1405 05e1 6A02     		.2byte	0x26a
 1406 05e3 B8000000 		.4byte	0xb8
 1407 05e7 24040000 		.4byte	.LLST23
 1408 05eb 00       		.byte	0
 1409 05ec 1D       		.uleb128 0x1d
 1410 05ed 6C040000 		.4byte	.LASF71
 1411 05f1 01       		.byte	0x1
 1412 05f2 8102     		.2byte	0x281
 1413 05f4 F6000000 		.4byte	0xf6
 1414 05f8 00000000 		.4byte	.LFB126
 1415 05fc 1C000000 		.4byte	.LFE126-.LFB126
 1416 0600 01       		.uleb128 0x1
 1417 0601 9C       		.byte	0x9c
ARM GAS  C:\Users\jsyoon\AppData\Local\Temp\cc3YNORi.s 			page 26


 1418 0602 47060000 		.4byte	0x647
 1419 0606 18       		.uleb128 0x18
 1420 0607 88030000 		.4byte	.LASF44
 1421 060b 01       		.byte	0x1
 1422 060c 8102     		.2byte	0x281
 1423 060e B8000000 		.4byte	0xb8
 1424 0612 45040000 		.4byte	.LLST24
 1425 0616 18       		.uleb128 0x18
 1426 0617 20040000 		.4byte	.LASF65
 1427 061b 01       		.byte	0x1
 1428 061c 8102     		.2byte	0x281
 1429 061e B8000000 		.4byte	0xb8
 1430 0622 66040000 		.4byte	.LLST25
 1431 0626 1B       		.uleb128 0x1b
 1432 0627 C4020000 		.4byte	.LASF69
 1433 062b 01       		.byte	0x1
 1434 062c 8302     		.2byte	0x283
 1435 062e F6000000 		.4byte	0xf6
 1436 0632 87040000 		.4byte	.LLST26
 1437 0636 1B       		.uleb128 0x1b
 1438 0637 3D020000 		.4byte	.LASF72
 1439 063b 01       		.byte	0x1
 1440 063c 8402     		.2byte	0x284
 1441 063e B8000000 		.4byte	0xb8
 1442 0642 A6040000 		.4byte	.LLST27
 1443 0646 00       		.byte	0
 1444 0647 17       		.uleb128 0x17
 1445 0648 98040000 		.4byte	.LASF73
 1446 064c 01       		.byte	0x1
 1447 064d A902     		.2byte	0x2a9
 1448 064f 00000000 		.4byte	.LFB127
 1449 0653 0C000000 		.4byte	.LFE127-.LFB127
 1450 0657 01       		.uleb128 0x1
 1451 0658 9C       		.byte	0x9c
 1452 0659 7C060000 		.4byte	0x67c
 1453 065d 19       		.uleb128 0x19
 1454 065e 88030000 		.4byte	.LASF44
 1455 0662 01       		.byte	0x1
 1456 0663 A902     		.2byte	0x2a9
 1457 0665 B8000000 		.4byte	0xb8
 1458 0669 01       		.uleb128 0x1
 1459 066a 50       		.byte	0x50
 1460 066b 18       		.uleb128 0x18
 1461 066c 20040000 		.4byte	.LASF65
 1462 0670 01       		.byte	0x1
 1463 0671 A902     		.2byte	0x2a9
 1464 0673 B8000000 		.4byte	0xb8
 1465 0677 CA040000 		.4byte	.LLST28
 1466 067b 00       		.byte	0
 1467 067c 1E       		.uleb128 0x1e
 1468 067d CB040000 		.4byte	.LASF77
 1469 0681 06       		.byte	0x6
 1470 0682 9806     		.2byte	0x698
 1471 0684 CF000000 		.4byte	0xcf
 1472 0688 1F       		.uleb128 0x1f
 1473 0689 58020000 		.4byte	.LASF78
 1474 068d 07       		.byte	0x7
ARM GAS  C:\Users\jsyoon\AppData\Local\Temp\cc3YNORi.s 			page 27


 1475 068e E601     		.2byte	0x1e6
 1476 0690 20       		.uleb128 0x20
 1477 0691 B8000000 		.4byte	0xb8
 1478 0695 20       		.uleb128 0x20
 1479 0696 18010000 		.4byte	0x118
 1480 069a 00       		.byte	0
 1481 069b 00       		.byte	0
 1482              		.section	.debug_abbrev,"",%progbits
 1483              	.Ldebug_abbrev0:
 1484 0000 01       		.uleb128 0x1
 1485 0001 11       		.uleb128 0x11
 1486 0002 01       		.byte	0x1
 1487 0003 25       		.uleb128 0x25
 1488 0004 0E       		.uleb128 0xe
 1489 0005 13       		.uleb128 0x13
 1490 0006 0B       		.uleb128 0xb
 1491 0007 03       		.uleb128 0x3
 1492 0008 0E       		.uleb128 0xe
 1493 0009 1B       		.uleb128 0x1b
 1494 000a 0E       		.uleb128 0xe
 1495 000b 55       		.uleb128 0x55
 1496 000c 17       		.uleb128 0x17
 1497 000d 11       		.uleb128 0x11
 1498 000e 01       		.uleb128 0x1
 1499 000f 10       		.uleb128 0x10
 1500 0010 17       		.uleb128 0x17
 1501 0011 00       		.byte	0
 1502 0012 00       		.byte	0
 1503 0013 02       		.uleb128 0x2
 1504 0014 24       		.uleb128 0x24
 1505 0015 00       		.byte	0
 1506 0016 0B       		.uleb128 0xb
 1507 0017 0B       		.uleb128 0xb
 1508 0018 3E       		.uleb128 0x3e
 1509 0019 0B       		.uleb128 0xb
 1510 001a 03       		.uleb128 0x3
 1511 001b 0E       		.uleb128 0xe
 1512 001c 00       		.byte	0
 1513 001d 00       		.byte	0
 1514 001e 03       		.uleb128 0x3
 1515 001f 16       		.uleb128 0x16
 1516 0020 00       		.byte	0
 1517 0021 03       		.uleb128 0x3
 1518 0022 0E       		.uleb128 0xe
 1519 0023 3A       		.uleb128 0x3a
 1520 0024 0B       		.uleb128 0xb
 1521 0025 3B       		.uleb128 0x3b
 1522 0026 0B       		.uleb128 0xb
 1523 0027 49       		.uleb128 0x49
 1524 0028 13       		.uleb128 0x13
 1525 0029 00       		.byte	0
 1526 002a 00       		.byte	0
 1527 002b 04       		.uleb128 0x4
 1528 002c 24       		.uleb128 0x24
 1529 002d 00       		.byte	0
 1530 002e 0B       		.uleb128 0xb
 1531 002f 0B       		.uleb128 0xb
ARM GAS  C:\Users\jsyoon\AppData\Local\Temp\cc3YNORi.s 			page 28


 1532 0030 3E       		.uleb128 0x3e
 1533 0031 0B       		.uleb128 0xb
 1534 0032 03       		.uleb128 0x3
 1535 0033 08       		.uleb128 0x8
 1536 0034 00       		.byte	0
 1537 0035 00       		.byte	0
 1538 0036 05       		.uleb128 0x5
 1539 0037 35       		.uleb128 0x35
 1540 0038 00       		.byte	0
 1541 0039 49       		.uleb128 0x49
 1542 003a 13       		.uleb128 0x13
 1543 003b 00       		.byte	0
 1544 003c 00       		.byte	0
 1545 003d 06       		.uleb128 0x6
 1546 003e 04       		.uleb128 0x4
 1547 003f 01       		.byte	0x1
 1548 0040 0B       		.uleb128 0xb
 1549 0041 0B       		.uleb128 0xb
 1550 0042 3A       		.uleb128 0x3a
 1551 0043 0B       		.uleb128 0xb
 1552 0044 3B       		.uleb128 0x3b
 1553 0045 05       		.uleb128 0x5
 1554 0046 01       		.uleb128 0x1
 1555 0047 13       		.uleb128 0x13
 1556 0048 00       		.byte	0
 1557 0049 00       		.byte	0
 1558 004a 07       		.uleb128 0x7
 1559 004b 28       		.uleb128 0x28
 1560 004c 00       		.byte	0
 1561 004d 03       		.uleb128 0x3
 1562 004e 0E       		.uleb128 0xe
 1563 004f 1C       		.uleb128 0x1c
 1564 0050 0D       		.uleb128 0xd
 1565 0051 00       		.byte	0
 1566 0052 00       		.byte	0
 1567 0053 08       		.uleb128 0x8
 1568 0054 28       		.uleb128 0x28
 1569 0055 00       		.byte	0
 1570 0056 03       		.uleb128 0x3
 1571 0057 08       		.uleb128 0x8
 1572 0058 1C       		.uleb128 0x1c
 1573 0059 0D       		.uleb128 0xd
 1574 005a 00       		.byte	0
 1575 005b 00       		.byte	0
 1576 005c 09       		.uleb128 0x9
 1577 005d 16       		.uleb128 0x16
 1578 005e 00       		.byte	0
 1579 005f 03       		.uleb128 0x3
 1580 0060 0E       		.uleb128 0xe
 1581 0061 3A       		.uleb128 0x3a
 1582 0062 0B       		.uleb128 0xb
 1583 0063 3B       		.uleb128 0x3b
 1584 0064 05       		.uleb128 0x5
 1585 0065 49       		.uleb128 0x49
 1586 0066 13       		.uleb128 0x13
 1587 0067 00       		.byte	0
 1588 0068 00       		.byte	0
ARM GAS  C:\Users\jsyoon\AppData\Local\Temp\cc3YNORi.s 			page 29


 1589 0069 0A       		.uleb128 0xa
 1590 006a 13       		.uleb128 0x13
 1591 006b 01       		.byte	0x1
 1592 006c 0B       		.uleb128 0xb
 1593 006d 0B       		.uleb128 0xb
 1594 006e 3A       		.uleb128 0x3a
 1595 006f 0B       		.uleb128 0xb
 1596 0070 3B       		.uleb128 0x3b
 1597 0071 05       		.uleb128 0x5
 1598 0072 01       		.uleb128 0x1
 1599 0073 13       		.uleb128 0x13
 1600 0074 00       		.byte	0
 1601 0075 00       		.byte	0
 1602 0076 0B       		.uleb128 0xb
 1603 0077 0D       		.uleb128 0xd
 1604 0078 00       		.byte	0
 1605 0079 03       		.uleb128 0x3
 1606 007a 08       		.uleb128 0x8
 1607 007b 3A       		.uleb128 0x3a
 1608 007c 0B       		.uleb128 0xb
 1609 007d 3B       		.uleb128 0x3b
 1610 007e 05       		.uleb128 0x5
 1611 007f 49       		.uleb128 0x49
 1612 0080 13       		.uleb128 0x13
 1613 0081 38       		.uleb128 0x38
 1614 0082 0B       		.uleb128 0xb
 1615 0083 00       		.byte	0
 1616 0084 00       		.byte	0
 1617 0085 0C       		.uleb128 0xc
 1618 0086 0D       		.uleb128 0xd
 1619 0087 00       		.byte	0
 1620 0088 03       		.uleb128 0x3
 1621 0089 0E       		.uleb128 0xe
 1622 008a 3A       		.uleb128 0x3a
 1623 008b 0B       		.uleb128 0xb
 1624 008c 3B       		.uleb128 0x3b
 1625 008d 05       		.uleb128 0x5
 1626 008e 49       		.uleb128 0x49
 1627 008f 13       		.uleb128 0x13
 1628 0090 38       		.uleb128 0x38
 1629 0091 0B       		.uleb128 0xb
 1630 0092 00       		.byte	0
 1631 0093 00       		.byte	0
 1632 0094 0D       		.uleb128 0xd
 1633 0095 13       		.uleb128 0x13
 1634 0096 01       		.byte	0x1
 1635 0097 0B       		.uleb128 0xb
 1636 0098 0B       		.uleb128 0xb
 1637 0099 3A       		.uleb128 0x3a
 1638 009a 0B       		.uleb128 0xb
 1639 009b 3B       		.uleb128 0x3b
 1640 009c 0B       		.uleb128 0xb
 1641 009d 01       		.uleb128 0x1
 1642 009e 13       		.uleb128 0x13
 1643 009f 00       		.byte	0
 1644 00a0 00       		.byte	0
 1645 00a1 0E       		.uleb128 0xe
ARM GAS  C:\Users\jsyoon\AppData\Local\Temp\cc3YNORi.s 			page 30


 1646 00a2 0D       		.uleb128 0xd
 1647 00a3 00       		.byte	0
 1648 00a4 03       		.uleb128 0x3
 1649 00a5 0E       		.uleb128 0xe
 1650 00a6 3A       		.uleb128 0x3a
 1651 00a7 0B       		.uleb128 0xb
 1652 00a8 3B       		.uleb128 0x3b
 1653 00a9 0B       		.uleb128 0xb
 1654 00aa 49       		.uleb128 0x49
 1655 00ab 13       		.uleb128 0x13
 1656 00ac 38       		.uleb128 0x38
 1657 00ad 0B       		.uleb128 0xb
 1658 00ae 00       		.byte	0
 1659 00af 00       		.byte	0
 1660 00b0 0F       		.uleb128 0xf
 1661 00b1 2E       		.uleb128 0x2e
 1662 00b2 01       		.byte	0x1
 1663 00b3 3F       		.uleb128 0x3f
 1664 00b4 19       		.uleb128 0x19
 1665 00b5 03       		.uleb128 0x3
 1666 00b6 0E       		.uleb128 0xe
 1667 00b7 3A       		.uleb128 0x3a
 1668 00b8 0B       		.uleb128 0xb
 1669 00b9 3B       		.uleb128 0x3b
 1670 00ba 0B       		.uleb128 0xb
 1671 00bb 27       		.uleb128 0x27
 1672 00bc 19       		.uleb128 0x19
 1673 00bd 11       		.uleb128 0x11
 1674 00be 01       		.uleb128 0x1
 1675 00bf 12       		.uleb128 0x12
 1676 00c0 06       		.uleb128 0x6
 1677 00c1 40       		.uleb128 0x40
 1678 00c2 18       		.uleb128 0x18
 1679 00c3 9742     		.uleb128 0x2117
 1680 00c5 19       		.uleb128 0x19
 1681 00c6 01       		.uleb128 0x1
 1682 00c7 13       		.uleb128 0x13
 1683 00c8 00       		.byte	0
 1684 00c9 00       		.byte	0
 1685 00ca 10       		.uleb128 0x10
 1686 00cb 898201   		.uleb128 0x4109
 1687 00ce 01       		.byte	0x1
 1688 00cf 11       		.uleb128 0x11
 1689 00d0 01       		.uleb128 0x1
 1690 00d1 31       		.uleb128 0x31
 1691 00d2 13       		.uleb128 0x13
 1692 00d3 01       		.uleb128 0x1
 1693 00d4 13       		.uleb128 0x13
 1694 00d5 00       		.byte	0
 1695 00d6 00       		.byte	0
 1696 00d7 11       		.uleb128 0x11
 1697 00d8 8A8201   		.uleb128 0x410a
 1698 00db 00       		.byte	0
 1699 00dc 02       		.uleb128 0x2
 1700 00dd 18       		.uleb128 0x18
 1701 00de 9142     		.uleb128 0x2111
 1702 00e0 18       		.uleb128 0x18
ARM GAS  C:\Users\jsyoon\AppData\Local\Temp\cc3YNORi.s 			page 31


 1703 00e1 00       		.byte	0
 1704 00e2 00       		.byte	0
 1705 00e3 12       		.uleb128 0x12
 1706 00e4 898201   		.uleb128 0x4109
 1707 00e7 01       		.byte	0x1
 1708 00e8 11       		.uleb128 0x11
 1709 00e9 01       		.uleb128 0x1
 1710 00ea 9542     		.uleb128 0x2115
 1711 00ec 19       		.uleb128 0x19
 1712 00ed 31       		.uleb128 0x31
 1713 00ee 13       		.uleb128 0x13
 1714 00ef 00       		.byte	0
 1715 00f0 00       		.byte	0
 1716 00f1 13       		.uleb128 0x13
 1717 00f2 05       		.uleb128 0x5
 1718 00f3 00       		.byte	0
 1719 00f4 03       		.uleb128 0x3
 1720 00f5 0E       		.uleb128 0xe
 1721 00f6 3A       		.uleb128 0x3a
 1722 00f7 0B       		.uleb128 0xb
 1723 00f8 3B       		.uleb128 0x3b
 1724 00f9 0B       		.uleb128 0xb
 1725 00fa 49       		.uleb128 0x49
 1726 00fb 13       		.uleb128 0x13
 1727 00fc 02       		.uleb128 0x2
 1728 00fd 17       		.uleb128 0x17
 1729 00fe 00       		.byte	0
 1730 00ff 00       		.byte	0
 1731 0100 14       		.uleb128 0x14
 1732 0101 34       		.uleb128 0x34
 1733 0102 00       		.byte	0
 1734 0103 03       		.uleb128 0x3
 1735 0104 0E       		.uleb128 0xe
 1736 0105 3A       		.uleb128 0x3a
 1737 0106 0B       		.uleb128 0xb
 1738 0107 3B       		.uleb128 0x3b
 1739 0108 0B       		.uleb128 0xb
 1740 0109 49       		.uleb128 0x49
 1741 010a 13       		.uleb128 0x13
 1742 010b 02       		.uleb128 0x2
 1743 010c 17       		.uleb128 0x17
 1744 010d 00       		.byte	0
 1745 010e 00       		.byte	0
 1746 010f 15       		.uleb128 0x15
 1747 0110 0F       		.uleb128 0xf
 1748 0111 00       		.byte	0
 1749 0112 0B       		.uleb128 0xb
 1750 0113 0B       		.uleb128 0xb
 1751 0114 49       		.uleb128 0x49
 1752 0115 13       		.uleb128 0x13
 1753 0116 00       		.byte	0
 1754 0117 00       		.byte	0
 1755 0118 16       		.uleb128 0x16
 1756 0119 05       		.uleb128 0x5
 1757 011a 00       		.byte	0
 1758 011b 03       		.uleb128 0x3
 1759 011c 0E       		.uleb128 0xe
ARM GAS  C:\Users\jsyoon\AppData\Local\Temp\cc3YNORi.s 			page 32


 1760 011d 3A       		.uleb128 0x3a
 1761 011e 0B       		.uleb128 0xb
 1762 011f 3B       		.uleb128 0x3b
 1763 0120 0B       		.uleb128 0xb
 1764 0121 49       		.uleb128 0x49
 1765 0122 13       		.uleb128 0x13
 1766 0123 02       		.uleb128 0x2
 1767 0124 18       		.uleb128 0x18
 1768 0125 00       		.byte	0
 1769 0126 00       		.byte	0
 1770 0127 17       		.uleb128 0x17
 1771 0128 2E       		.uleb128 0x2e
 1772 0129 01       		.byte	0x1
 1773 012a 3F       		.uleb128 0x3f
 1774 012b 19       		.uleb128 0x19
 1775 012c 03       		.uleb128 0x3
 1776 012d 0E       		.uleb128 0xe
 1777 012e 3A       		.uleb128 0x3a
 1778 012f 0B       		.uleb128 0xb
 1779 0130 3B       		.uleb128 0x3b
 1780 0131 05       		.uleb128 0x5
 1781 0132 27       		.uleb128 0x27
 1782 0133 19       		.uleb128 0x19
 1783 0134 11       		.uleb128 0x11
 1784 0135 01       		.uleb128 0x1
 1785 0136 12       		.uleb128 0x12
 1786 0137 06       		.uleb128 0x6
 1787 0138 40       		.uleb128 0x40
 1788 0139 18       		.uleb128 0x18
 1789 013a 9742     		.uleb128 0x2117
 1790 013c 19       		.uleb128 0x19
 1791 013d 01       		.uleb128 0x1
 1792 013e 13       		.uleb128 0x13
 1793 013f 00       		.byte	0
 1794 0140 00       		.byte	0
 1795 0141 18       		.uleb128 0x18
 1796 0142 05       		.uleb128 0x5
 1797 0143 00       		.byte	0
 1798 0144 03       		.uleb128 0x3
 1799 0145 0E       		.uleb128 0xe
 1800 0146 3A       		.uleb128 0x3a
 1801 0147 0B       		.uleb128 0xb
 1802 0148 3B       		.uleb128 0x3b
 1803 0149 05       		.uleb128 0x5
 1804 014a 49       		.uleb128 0x49
 1805 014b 13       		.uleb128 0x13
 1806 014c 02       		.uleb128 0x2
 1807 014d 17       		.uleb128 0x17
 1808 014e 00       		.byte	0
 1809 014f 00       		.byte	0
 1810 0150 19       		.uleb128 0x19
 1811 0151 05       		.uleb128 0x5
 1812 0152 00       		.byte	0
 1813 0153 03       		.uleb128 0x3
 1814 0154 0E       		.uleb128 0xe
 1815 0155 3A       		.uleb128 0x3a
 1816 0156 0B       		.uleb128 0xb
ARM GAS  C:\Users\jsyoon\AppData\Local\Temp\cc3YNORi.s 			page 33


 1817 0157 3B       		.uleb128 0x3b
 1818 0158 05       		.uleb128 0x5
 1819 0159 49       		.uleb128 0x49
 1820 015a 13       		.uleb128 0x13
 1821 015b 02       		.uleb128 0x2
 1822 015c 18       		.uleb128 0x18
 1823 015d 00       		.byte	0
 1824 015e 00       		.byte	0
 1825 015f 1A       		.uleb128 0x1a
 1826 0160 34       		.uleb128 0x34
 1827 0161 00       		.byte	0
 1828 0162 03       		.uleb128 0x3
 1829 0163 08       		.uleb128 0x8
 1830 0164 3A       		.uleb128 0x3a
 1831 0165 0B       		.uleb128 0xb
 1832 0166 3B       		.uleb128 0x3b
 1833 0167 05       		.uleb128 0x5
 1834 0168 49       		.uleb128 0x49
 1835 0169 13       		.uleb128 0x13
 1836 016a 02       		.uleb128 0x2
 1837 016b 18       		.uleb128 0x18
 1838 016c 00       		.byte	0
 1839 016d 00       		.byte	0
 1840 016e 1B       		.uleb128 0x1b
 1841 016f 34       		.uleb128 0x34
 1842 0170 00       		.byte	0
 1843 0171 03       		.uleb128 0x3
 1844 0172 0E       		.uleb128 0xe
 1845 0173 3A       		.uleb128 0x3a
 1846 0174 0B       		.uleb128 0xb
 1847 0175 3B       		.uleb128 0x3b
 1848 0176 05       		.uleb128 0x5
 1849 0177 49       		.uleb128 0x49
 1850 0178 13       		.uleb128 0x13
 1851 0179 02       		.uleb128 0x2
 1852 017a 17       		.uleb128 0x17
 1853 017b 00       		.byte	0
 1854 017c 00       		.byte	0
 1855 017d 1C       		.uleb128 0x1c
 1856 017e 34       		.uleb128 0x34
 1857 017f 00       		.byte	0
 1858 0180 03       		.uleb128 0x3
 1859 0181 08       		.uleb128 0x8
 1860 0182 3A       		.uleb128 0x3a
 1861 0183 0B       		.uleb128 0xb
 1862 0184 3B       		.uleb128 0x3b
 1863 0185 05       		.uleb128 0x5
 1864 0186 49       		.uleb128 0x49
 1865 0187 13       		.uleb128 0x13
 1866 0188 02       		.uleb128 0x2
 1867 0189 17       		.uleb128 0x17
 1868 018a 00       		.byte	0
 1869 018b 00       		.byte	0
 1870 018c 1D       		.uleb128 0x1d
 1871 018d 2E       		.uleb128 0x2e
 1872 018e 01       		.byte	0x1
 1873 018f 3F       		.uleb128 0x3f
ARM GAS  C:\Users\jsyoon\AppData\Local\Temp\cc3YNORi.s 			page 34


 1874 0190 19       		.uleb128 0x19
 1875 0191 03       		.uleb128 0x3
 1876 0192 0E       		.uleb128 0xe
 1877 0193 3A       		.uleb128 0x3a
 1878 0194 0B       		.uleb128 0xb
 1879 0195 3B       		.uleb128 0x3b
 1880 0196 05       		.uleb128 0x5
 1881 0197 27       		.uleb128 0x27
 1882 0198 19       		.uleb128 0x19
 1883 0199 49       		.uleb128 0x49
 1884 019a 13       		.uleb128 0x13
 1885 019b 11       		.uleb128 0x11
 1886 019c 01       		.uleb128 0x1
 1887 019d 12       		.uleb128 0x12
 1888 019e 06       		.uleb128 0x6
 1889 019f 40       		.uleb128 0x40
 1890 01a0 18       		.uleb128 0x18
 1891 01a1 9742     		.uleb128 0x2117
 1892 01a3 19       		.uleb128 0x19
 1893 01a4 01       		.uleb128 0x1
 1894 01a5 13       		.uleb128 0x13
 1895 01a6 00       		.byte	0
 1896 01a7 00       		.byte	0
 1897 01a8 1E       		.uleb128 0x1e
 1898 01a9 34       		.uleb128 0x34
 1899 01aa 00       		.byte	0
 1900 01ab 03       		.uleb128 0x3
 1901 01ac 0E       		.uleb128 0xe
 1902 01ad 3A       		.uleb128 0x3a
 1903 01ae 0B       		.uleb128 0xb
 1904 01af 3B       		.uleb128 0x3b
 1905 01b0 05       		.uleb128 0x5
 1906 01b1 49       		.uleb128 0x49
 1907 01b2 13       		.uleb128 0x13
 1908 01b3 3F       		.uleb128 0x3f
 1909 01b4 19       		.uleb128 0x19
 1910 01b5 3C       		.uleb128 0x3c
 1911 01b6 19       		.uleb128 0x19
 1912 01b7 00       		.byte	0
 1913 01b8 00       		.byte	0
 1914 01b9 1F       		.uleb128 0x1f
 1915 01ba 2E       		.uleb128 0x2e
 1916 01bb 01       		.byte	0x1
 1917 01bc 3F       		.uleb128 0x3f
 1918 01bd 19       		.uleb128 0x19
 1919 01be 03       		.uleb128 0x3
 1920 01bf 0E       		.uleb128 0xe
 1921 01c0 3A       		.uleb128 0x3a
 1922 01c1 0B       		.uleb128 0xb
 1923 01c2 3B       		.uleb128 0x3b
 1924 01c3 05       		.uleb128 0x5
 1925 01c4 27       		.uleb128 0x27
 1926 01c5 19       		.uleb128 0x19
 1927 01c6 3C       		.uleb128 0x3c
 1928 01c7 19       		.uleb128 0x19
 1929 01c8 00       		.byte	0
 1930 01c9 00       		.byte	0
ARM GAS  C:\Users\jsyoon\AppData\Local\Temp\cc3YNORi.s 			page 35


 1931 01ca 20       		.uleb128 0x20
 1932 01cb 05       		.uleb128 0x5
 1933 01cc 00       		.byte	0
 1934 01cd 49       		.uleb128 0x49
 1935 01ce 13       		.uleb128 0x13
 1936 01cf 00       		.byte	0
 1937 01d0 00       		.byte	0
 1938 01d1 00       		.byte	0
 1939              		.section	.debug_loc,"",%progbits
 1940              	.Ldebug_loc0:
 1941              	.LLST0:
 1942 0000 00000000 		.4byte	.LVL2
 1943 0004 22000000 		.4byte	.LVL6
 1944 0008 0100     		.2byte	0x1
 1945 000a 50       		.byte	0x50
 1946 000b 22000000 		.4byte	.LVL6
 1947 000f 30000000 		.4byte	.LFE112
 1948 0013 0400     		.2byte	0x4
 1949 0015 F3       		.byte	0xf3
 1950 0016 01       		.uleb128 0x1
 1951 0017 50       		.byte	0x50
 1952 0018 9F       		.byte	0x9f
 1953 0019 00000000 		.4byte	0
 1954 001d 00000000 		.4byte	0
 1955              	.LLST1:
 1956 0021 00000000 		.4byte	.LVL2
 1957 0025 0C000000 		.4byte	.LVL3
 1958 0029 0100     		.2byte	0x1
 1959 002b 51       		.byte	0x51
 1960 002c 0C000000 		.4byte	.LVL3
 1961 0030 30000000 		.4byte	.LFE112
 1962 0034 0400     		.2byte	0x4
 1963 0036 F3       		.byte	0xf3
 1964 0037 01       		.uleb128 0x1
 1965 0038 51       		.byte	0x51
 1966 0039 9F       		.byte	0x9f
 1967 003a 00000000 		.4byte	0
 1968 003e 00000000 		.4byte	0
 1969              	.LLST2:
 1970 0042 00000000 		.4byte	.LVL2
 1971 0046 0E000000 		.4byte	.LVL4
 1972 004a 0200     		.2byte	0x2
 1973 004c 30       		.byte	0x30
 1974 004d 9F       		.byte	0x9f
 1975 004e 0E000000 		.4byte	.LVL4
 1976 0052 30000000 		.4byte	.LFE112
 1977 0056 0100     		.2byte	0x1
 1978 0058 52       		.byte	0x52
 1979 0059 00000000 		.4byte	0
 1980 005d 00000000 		.4byte	0
 1981              	.LLST3:
 1982 0061 00000000 		.4byte	.LVL2
 1983 0065 1E000000 		.4byte	.LVL5
 1984 0069 0200     		.2byte	0x2
 1985 006b 30       		.byte	0x30
 1986 006c 9F       		.byte	0x9f
 1987 006d 1E000000 		.4byte	.LVL5
ARM GAS  C:\Users\jsyoon\AppData\Local\Temp\cc3YNORi.s 			page 36


 1988 0071 26000000 		.4byte	.LVL8
 1989 0075 1A00     		.2byte	0x1a
 1990 0077 F3       		.byte	0xf3
 1991 0078 01       		.uleb128 0x1
 1992 0079 51       		.byte	0x51
 1993 007a 23       		.byte	0x23
 1994 007b 04       		.uleb128 0x4
 1995 007c 06       		.byte	0x6
 1996 007d F3       		.byte	0xf3
 1997 007e 01       		.uleb128 0x1
 1998 007f 51       		.byte	0x51
 1999 0080 06       		.byte	0x6
 2000 0081 21       		.byte	0x21
 2001 0082 F3       		.byte	0xf3
 2002 0083 01       		.uleb128 0x1
 2003 0084 51       		.byte	0x51
 2004 0085 23       		.byte	0x23
 2005 0086 08       		.uleb128 0x8
 2006 0087 06       		.byte	0x6
 2007 0088 21       		.byte	0x21
 2008 0089 F3       		.byte	0xf3
 2009 008a 01       		.uleb128 0x1
 2010 008b 51       		.byte	0x51
 2011 008c 23       		.byte	0x23
 2012 008d 0C       		.uleb128 0xc
 2013 008e 06       		.byte	0x6
 2014 008f 21       		.byte	0x21
 2015 0090 9F       		.byte	0x9f
 2016 0091 00000000 		.4byte	0
 2017 0095 00000000 		.4byte	0
 2018              	.LLST4:
 2019 0099 00000000 		.4byte	.LVL10
 2020 009d 0C000000 		.4byte	.LVL12
 2021 00a1 0100     		.2byte	0x1
 2022 00a3 50       		.byte	0x50
 2023 00a4 0C000000 		.4byte	.LVL12
 2024 00a8 14000000 		.4byte	.LVL13
 2025 00ac 0400     		.2byte	0x4
 2026 00ae F3       		.byte	0xf3
 2027 00af 01       		.uleb128 0x1
 2028 00b0 50       		.byte	0x50
 2029 00b1 9F       		.byte	0x9f
 2030 00b2 14000000 		.4byte	.LVL13
 2031 00b6 1C000000 		.4byte	.LVL15
 2032 00ba 0100     		.2byte	0x1
 2033 00bc 50       		.byte	0x50
 2034 00bd 1C000000 		.4byte	.LVL15
 2035 00c1 28000000 		.4byte	.LFE114
 2036 00c5 0400     		.2byte	0x4
 2037 00c7 F3       		.byte	0xf3
 2038 00c8 01       		.uleb128 0x1
 2039 00c9 50       		.byte	0x50
 2040 00ca 9F       		.byte	0x9f
 2041 00cb 00000000 		.4byte	0
 2042 00cf 00000000 		.4byte	0
 2043              	.LLST5:
 2044 00d3 00000000 		.4byte	.LVL10
ARM GAS  C:\Users\jsyoon\AppData\Local\Temp\cc3YNORi.s 			page 37


 2045 00d7 08000000 		.4byte	.LVL11
 2046 00db 0100     		.2byte	0x1
 2047 00dd 51       		.byte	0x51
 2048 00de 08000000 		.4byte	.LVL11
 2049 00e2 14000000 		.4byte	.LVL13
 2050 00e6 0400     		.2byte	0x4
 2051 00e8 F3       		.byte	0xf3
 2052 00e9 01       		.uleb128 0x1
 2053 00ea 51       		.byte	0x51
 2054 00eb 9F       		.byte	0x9f
 2055 00ec 14000000 		.4byte	.LVL13
 2056 00f0 18000000 		.4byte	.LVL14
 2057 00f4 0100     		.2byte	0x1
 2058 00f6 51       		.byte	0x51
 2059 00f7 18000000 		.4byte	.LVL14
 2060 00fb 28000000 		.4byte	.LFE114
 2061 00ff 0400     		.2byte	0x4
 2062 0101 F3       		.byte	0xf3
 2063 0102 01       		.uleb128 0x1
 2064 0103 51       		.byte	0x51
 2065 0104 9F       		.byte	0x9f
 2066 0105 00000000 		.4byte	0
 2067 0109 00000000 		.4byte	0
 2068              	.LLST6:
 2069 010d 00000000 		.4byte	.LVL16
 2070 0111 04000000 		.4byte	.LVL17
 2071 0115 0100     		.2byte	0x1
 2072 0117 50       		.byte	0x50
 2073 0118 04000000 		.4byte	.LVL17
 2074 011c 28000000 		.4byte	.LFE115
 2075 0120 0400     		.2byte	0x4
 2076 0122 F3       		.byte	0xf3
 2077 0123 01       		.uleb128 0x1
 2078 0124 50       		.byte	0x50
 2079 0125 9F       		.byte	0x9f
 2080 0126 00000000 		.4byte	0
 2081 012a 00000000 		.4byte	0
 2082              	.LLST7:
 2083 012e 00000000 		.4byte	.LVL16
 2084 0132 0A000000 		.4byte	.LVL18
 2085 0136 0100     		.2byte	0x1
 2086 0138 51       		.byte	0x51
 2087 0139 0A000000 		.4byte	.LVL18
 2088 013d 16000000 		.4byte	.LVL19
 2089 0141 0400     		.2byte	0x4
 2090 0143 F3       		.byte	0xf3
 2091 0144 01       		.uleb128 0x1
 2092 0145 51       		.byte	0x51
 2093 0146 9F       		.byte	0x9f
 2094 0147 16000000 		.4byte	.LVL19
 2095 014b 1A000000 		.4byte	.LVL20
 2096 014f 0100     		.2byte	0x1
 2097 0151 51       		.byte	0x51
 2098 0152 1A000000 		.4byte	.LVL20
 2099 0156 28000000 		.4byte	.LFE115
 2100 015a 0400     		.2byte	0x4
 2101 015c F3       		.byte	0xf3
ARM GAS  C:\Users\jsyoon\AppData\Local\Temp\cc3YNORi.s 			page 38


 2102 015d 01       		.uleb128 0x1
 2103 015e 51       		.byte	0x51
 2104 015f 9F       		.byte	0x9f
 2105 0160 00000000 		.4byte	0
 2106 0164 00000000 		.4byte	0
 2107              	.LLST8:
 2108 0168 00000000 		.4byte	.LVL22
 2109 016c 08000000 		.4byte	.LVL24
 2110 0170 0100     		.2byte	0x1
 2111 0172 51       		.byte	0x51
 2112 0173 08000000 		.4byte	.LVL24
 2113 0177 10000000 		.4byte	.LVL25
 2114 017b 0400     		.2byte	0x4
 2115 017d F3       		.byte	0xf3
 2116 017e 01       		.uleb128 0x1
 2117 017f 51       		.byte	0x51
 2118 0180 9F       		.byte	0x9f
 2119 0181 10000000 		.4byte	.LVL25
 2120 0185 14000000 		.4byte	.LVL27
 2121 0189 0100     		.2byte	0x1
 2122 018b 51       		.byte	0x51
 2123 018c 14000000 		.4byte	.LVL27
 2124 0190 20000000 		.4byte	.LFE117
 2125 0194 0400     		.2byte	0x4
 2126 0196 F3       		.byte	0xf3
 2127 0197 01       		.uleb128 0x1
 2128 0198 51       		.byte	0x51
 2129 0199 9F       		.byte	0x9f
 2130 019a 00000000 		.4byte	0
 2131 019e 00000000 		.4byte	0
 2132              	.LLST9:
 2133 01a2 00000000 		.4byte	.LVL22
 2134 01a6 06000000 		.4byte	.LVL23
 2135 01aa 0100     		.2byte	0x1
 2136 01ac 52       		.byte	0x52
 2137 01ad 06000000 		.4byte	.LVL23
 2138 01b1 10000000 		.4byte	.LVL25
 2139 01b5 0400     		.2byte	0x4
 2140 01b7 F3       		.byte	0xf3
 2141 01b8 01       		.uleb128 0x1
 2142 01b9 52       		.byte	0x52
 2143 01ba 9F       		.byte	0x9f
 2144 01bb 10000000 		.4byte	.LVL25
 2145 01bf 12000000 		.4byte	.LVL26
 2146 01c3 0100     		.2byte	0x1
 2147 01c5 52       		.byte	0x52
 2148 01c6 12000000 		.4byte	.LVL26
 2149 01ca 20000000 		.4byte	.LFE117
 2150 01ce 0400     		.2byte	0x4
 2151 01d0 F3       		.byte	0xf3
 2152 01d1 01       		.uleb128 0x1
 2153 01d2 52       		.byte	0x52
 2154 01d3 9F       		.byte	0x9f
 2155 01d4 00000000 		.4byte	0
 2156 01d8 00000000 		.4byte	0
 2157              	.LLST10:
 2158 01dc 00000000 		.4byte	.LVL28
ARM GAS  C:\Users\jsyoon\AppData\Local\Temp\cc3YNORi.s 			page 39


 2159 01e0 10000000 		.4byte	.LVL29
 2160 01e4 0100     		.2byte	0x1
 2161 01e6 50       		.byte	0x50
 2162 01e7 10000000 		.4byte	.LVL29
 2163 01eb 20000000 		.4byte	.LFE118
 2164 01ef 0400     		.2byte	0x4
 2165 01f1 F3       		.byte	0xf3
 2166 01f2 01       		.uleb128 0x1
 2167 01f3 50       		.byte	0x50
 2168 01f4 9F       		.byte	0x9f
 2169 01f5 00000000 		.4byte	0
 2170 01f9 00000000 		.4byte	0
 2171              	.LLST11:
 2172 01fd 00000000 		.4byte	.LVL30
 2173 0201 10000000 		.4byte	.LVL31
 2174 0205 0100     		.2byte	0x1
 2175 0207 50       		.byte	0x50
 2176 0208 10000000 		.4byte	.LVL31
 2177 020c 20000000 		.4byte	.LFE119
 2178 0210 0400     		.2byte	0x4
 2179 0212 F3       		.byte	0xf3
 2180 0213 01       		.uleb128 0x1
 2181 0214 50       		.byte	0x50
 2182 0215 9F       		.byte	0x9f
 2183 0216 00000000 		.4byte	0
 2184 021a 00000000 		.4byte	0
 2185              	.LLST12:
 2186 021e 00000000 		.4byte	.LVL32
 2187 0222 0A000000 		.4byte	.LVL33
 2188 0226 0100     		.2byte	0x1
 2189 0228 51       		.byte	0x51
 2190 0229 0A000000 		.4byte	.LVL33
 2191 022d 18000000 		.4byte	.LFE120
 2192 0231 0400     		.2byte	0x4
 2193 0233 F3       		.byte	0xf3
 2194 0234 01       		.uleb128 0x1
 2195 0235 51       		.byte	0x51
 2196 0236 9F       		.byte	0x9f
 2197 0237 00000000 		.4byte	0
 2198 023b 00000000 		.4byte	0
 2199              	.LLST13:
 2200 023f 00000000 		.4byte	.LVL32
 2201 0243 0A000000 		.4byte	.LVL33
 2202 0247 0200     		.2byte	0x2
 2203 0249 30       		.byte	0x30
 2204 024a 9F       		.byte	0x9f
 2205 024b 0A000000 		.4byte	.LVL33
 2206 024f 18000000 		.4byte	.LFE120
 2207 0253 0100     		.2byte	0x1
 2208 0255 51       		.byte	0x51
 2209 0256 00000000 		.4byte	0
 2210 025a 00000000 		.4byte	0
 2211              	.LLST14:
 2212 025e 00000000 		.4byte	.LVL32
 2213 0262 0E000000 		.4byte	.LVL34
 2214 0266 0200     		.2byte	0x2
 2215 0268 30       		.byte	0x30
ARM GAS  C:\Users\jsyoon\AppData\Local\Temp\cc3YNORi.s 			page 40


 2216 0269 9F       		.byte	0x9f
 2217 026a 0E000000 		.4byte	.LVL34
 2218 026e 18000000 		.4byte	.LFE120
 2219 0272 0700     		.2byte	0x7
 2220 0274 70       		.byte	0x70
 2221 0275 A0E88180 		.sleb128 1073771552
 2221      04
 2222 027a 9F       		.byte	0x9f
 2223 027b 00000000 		.4byte	0
 2224 027f 00000000 		.4byte	0
 2225              	.LLST15:
 2226 0283 00000000 		.4byte	.LVL35
 2227 0287 12000000 		.4byte	.LVL36
 2228 028b 0100     		.2byte	0x1
 2229 028d 50       		.byte	0x50
 2230 028e 12000000 		.4byte	.LVL36
 2231 0292 24000000 		.4byte	.LFE121
 2232 0296 0400     		.2byte	0x4
 2233 0298 F3       		.byte	0xf3
 2234 0299 01       		.uleb128 0x1
 2235 029a 50       		.byte	0x50
 2236 029b 9F       		.byte	0x9f
 2237 029c 00000000 		.4byte	0
 2238 02a0 00000000 		.4byte	0
 2239              	.LLST16:
 2240 02a4 00000000 		.4byte	.LVL37
 2241 02a8 0E000000 		.4byte	.LVL39
 2242 02ac 0100     		.2byte	0x1
 2243 02ae 50       		.byte	0x50
 2244 02af 0E000000 		.4byte	.LVL39
 2245 02b3 16000000 		.4byte	.LVL40
 2246 02b7 0400     		.2byte	0x4
 2247 02b9 F3       		.byte	0xf3
 2248 02ba 01       		.uleb128 0x1
 2249 02bb 50       		.byte	0x50
 2250 02bc 9F       		.byte	0x9f
 2251 02bd 16000000 		.4byte	.LVL40
 2252 02c1 20000000 		.4byte	.LVL42
 2253 02c5 0100     		.2byte	0x1
 2254 02c7 50       		.byte	0x50
 2255 02c8 20000000 		.4byte	.LVL42
 2256 02cc 2C000000 		.4byte	.LFE122
 2257 02d0 0400     		.2byte	0x4
 2258 02d2 F3       		.byte	0xf3
 2259 02d3 01       		.uleb128 0x1
 2260 02d4 50       		.byte	0x50
 2261 02d5 9F       		.byte	0x9f
 2262 02d6 00000000 		.4byte	0
 2263 02da 00000000 		.4byte	0
 2264              	.LLST17:
 2265 02de 00000000 		.4byte	.LVL37
 2266 02e2 0A000000 		.4byte	.LVL38
 2267 02e6 0100     		.2byte	0x1
 2268 02e8 51       		.byte	0x51
 2269 02e9 0A000000 		.4byte	.LVL38
 2270 02ed 16000000 		.4byte	.LVL40
 2271 02f1 0400     		.2byte	0x4
ARM GAS  C:\Users\jsyoon\AppData\Local\Temp\cc3YNORi.s 			page 41


 2272 02f3 F3       		.byte	0xf3
 2273 02f4 01       		.uleb128 0x1
 2274 02f5 51       		.byte	0x51
 2275 02f6 9F       		.byte	0x9f
 2276 02f7 16000000 		.4byte	.LVL40
 2277 02fb 1C000000 		.4byte	.LVL41
 2278 02ff 0100     		.2byte	0x1
 2279 0301 51       		.byte	0x51
 2280 0302 1C000000 		.4byte	.LVL41
 2281 0306 2C000000 		.4byte	.LFE122
 2282 030a 0400     		.2byte	0x4
 2283 030c F3       		.byte	0xf3
 2284 030d 01       		.uleb128 0x1
 2285 030e 51       		.byte	0x51
 2286 030f 9F       		.byte	0x9f
 2287 0310 00000000 		.4byte	0
 2288 0314 00000000 		.4byte	0
 2289              	.LLST18:
 2290 0318 00000000 		.4byte	.LVL43
 2291 031c 08000000 		.4byte	.LVL45
 2292 0320 0100     		.2byte	0x1
 2293 0322 51       		.byte	0x51
 2294 0323 08000000 		.4byte	.LVL45
 2295 0327 10000000 		.4byte	.LVL46
 2296 032b 0400     		.2byte	0x4
 2297 032d F3       		.byte	0xf3
 2298 032e 01       		.uleb128 0x1
 2299 032f 51       		.byte	0x51
 2300 0330 9F       		.byte	0x9f
 2301 0331 10000000 		.4byte	.LVL46
 2302 0335 14000000 		.4byte	.LVL48
 2303 0339 0100     		.2byte	0x1
 2304 033b 51       		.byte	0x51
 2305 033c 14000000 		.4byte	.LVL48
 2306 0340 20000000 		.4byte	.LFE123
 2307 0344 0400     		.2byte	0x4
 2308 0346 F3       		.byte	0xf3
 2309 0347 01       		.uleb128 0x1
 2310 0348 51       		.byte	0x51
 2311 0349 9F       		.byte	0x9f
 2312 034a 00000000 		.4byte	0
 2313 034e 00000000 		.4byte	0
 2314              	.LLST19:
 2315 0352 00000000 		.4byte	.LVL43
 2316 0356 06000000 		.4byte	.LVL44
 2317 035a 0100     		.2byte	0x1
 2318 035c 52       		.byte	0x52
 2319 035d 06000000 		.4byte	.LVL44
 2320 0361 10000000 		.4byte	.LVL46
 2321 0365 0400     		.2byte	0x4
 2322 0367 F3       		.byte	0xf3
 2323 0368 01       		.uleb128 0x1
 2324 0369 52       		.byte	0x52
 2325 036a 9F       		.byte	0x9f
 2326 036b 10000000 		.4byte	.LVL46
 2327 036f 12000000 		.4byte	.LVL47
 2328 0373 0100     		.2byte	0x1
ARM GAS  C:\Users\jsyoon\AppData\Local\Temp\cc3YNORi.s 			page 42


 2329 0375 52       		.byte	0x52
 2330 0376 12000000 		.4byte	.LVL47
 2331 037a 20000000 		.4byte	.LFE123
 2332 037e 0400     		.2byte	0x4
 2333 0380 F3       		.byte	0xf3
 2334 0381 01       		.uleb128 0x1
 2335 0382 52       		.byte	0x52
 2336 0383 9F       		.byte	0x9f
 2337 0384 00000000 		.4byte	0
 2338 0388 00000000 		.4byte	0
 2339              	.LLST20:
 2340 038c 00000000 		.4byte	.LVL49
 2341 0390 0E000000 		.4byte	.LVL52
 2342 0394 0100     		.2byte	0x1
 2343 0396 50       		.byte	0x50
 2344 0397 0E000000 		.4byte	.LVL52
 2345 039b 14000000 		.4byte	.LFE124
 2346 039f 0400     		.2byte	0x4
 2347 03a1 F3       		.byte	0xf3
 2348 03a2 01       		.uleb128 0x1
 2349 03a3 50       		.byte	0x50
 2350 03a4 9F       		.byte	0x9f
 2351 03a5 00000000 		.4byte	0
 2352 03a9 00000000 		.4byte	0
 2353              	.LLST21:
 2354 03ad 00000000 		.4byte	.LVL49
 2355 03b1 06000000 		.4byte	.LVL51
 2356 03b5 0100     		.2byte	0x1
 2357 03b7 51       		.byte	0x51
 2358 03b8 06000000 		.4byte	.LVL51
 2359 03bc 14000000 		.4byte	.LFE124
 2360 03c0 0400     		.2byte	0x4
 2361 03c2 F3       		.byte	0xf3
 2362 03c3 01       		.uleb128 0x1
 2363 03c4 51       		.byte	0x51
 2364 03c5 9F       		.byte	0x9f
 2365 03c6 00000000 		.4byte	0
 2366 03ca 00000000 		.4byte	0
 2367              	.LLST22:
 2368 03ce 00000000 		.4byte	.LVL49
 2369 03d2 04000000 		.4byte	.LVL50
 2370 03d6 0200     		.2byte	0x2
 2371 03d8 30       		.byte	0x30
 2372 03d9 9F       		.byte	0x9f
 2373 03da 04000000 		.4byte	.LVL50
 2374 03de 06000000 		.4byte	.LVL51
 2375 03e2 0B00     		.2byte	0xb
 2376 03e4 71       		.byte	0x71
 2377 03e5 00       		.sleb128 0
 2378 03e6 70       		.byte	0x70
 2379 03e7 00       		.sleb128 0
 2380 03e8 24       		.byte	0x24
 2381 03e9 73       		.byte	0x73
 2382 03ea 00       		.sleb128 0
 2383 03eb 1A       		.byte	0x1a
 2384 03ec 30       		.byte	0x30
 2385 03ed 2E       		.byte	0x2e
ARM GAS  C:\Users\jsyoon\AppData\Local\Temp\cc3YNORi.s 			page 43


 2386 03ee 9F       		.byte	0x9f
 2387 03ef 06000000 		.4byte	.LVL51
 2388 03f3 0E000000 		.4byte	.LVL52
 2389 03f7 0C00     		.2byte	0xc
 2390 03f9 F3       		.byte	0xf3
 2391 03fa 01       		.uleb128 0x1
 2392 03fb 51       		.byte	0x51
 2393 03fc 70       		.byte	0x70
 2394 03fd 00       		.sleb128 0
 2395 03fe 24       		.byte	0x24
 2396 03ff 73       		.byte	0x73
 2397 0400 00       		.sleb128 0
 2398 0401 1A       		.byte	0x1a
 2399 0402 30       		.byte	0x30
 2400 0403 2E       		.byte	0x2e
 2401 0404 9F       		.byte	0x9f
 2402 0405 0E000000 		.4byte	.LVL52
 2403 0409 14000000 		.4byte	.LFE124
 2404 040d 0D00     		.2byte	0xd
 2405 040f F3       		.byte	0xf3
 2406 0410 01       		.uleb128 0x1
 2407 0411 51       		.byte	0x51
 2408 0412 F3       		.byte	0xf3
 2409 0413 01       		.uleb128 0x1
 2410 0414 50       		.byte	0x50
 2411 0415 24       		.byte	0x24
 2412 0416 73       		.byte	0x73
 2413 0417 00       		.sleb128 0
 2414 0418 1A       		.byte	0x1a
 2415 0419 30       		.byte	0x30
 2416 041a 2E       		.byte	0x2e
 2417 041b 9F       		.byte	0x9f
 2418 041c 00000000 		.4byte	0
 2419 0420 00000000 		.4byte	0
 2420              	.LLST23:
 2421 0424 00000000 		.4byte	.LVL53
 2422 0428 04000000 		.4byte	.LVL54
 2423 042c 0100     		.2byte	0x1
 2424 042e 51       		.byte	0x51
 2425 042f 04000000 		.4byte	.LVL54
 2426 0433 0C000000 		.4byte	.LFE125
 2427 0437 0400     		.2byte	0x4
 2428 0439 F3       		.byte	0xf3
 2429 043a 01       		.uleb128 0x1
 2430 043b 51       		.byte	0x51
 2431 043c 9F       		.byte	0x9f
 2432 043d 00000000 		.4byte	0
 2433 0441 00000000 		.4byte	0
 2434              	.LLST24:
 2435 0445 00000000 		.4byte	.LVL55
 2436 0449 0C000000 		.4byte	.LVL57
 2437 044d 0100     		.2byte	0x1
 2438 044f 50       		.byte	0x50
 2439 0450 0C000000 		.4byte	.LVL57
 2440 0454 1C000000 		.4byte	.LFE126
 2441 0458 0400     		.2byte	0x4
 2442 045a F3       		.byte	0xf3
ARM GAS  C:\Users\jsyoon\AppData\Local\Temp\cc3YNORi.s 			page 44


 2443 045b 01       		.uleb128 0x1
 2444 045c 50       		.byte	0x50
 2445 045d 9F       		.byte	0x9f
 2446 045e 00000000 		.4byte	0
 2447 0462 00000000 		.4byte	0
 2448              	.LLST25:
 2449 0466 00000000 		.4byte	.LVL55
 2450 046a 08000000 		.4byte	.LVL56
 2451 046e 0100     		.2byte	0x1
 2452 0470 51       		.byte	0x51
 2453 0471 08000000 		.4byte	.LVL56
 2454 0475 1C000000 		.4byte	.LFE126
 2455 0479 0400     		.2byte	0x4
 2456 047b F3       		.byte	0xf3
 2457 047c 01       		.uleb128 0x1
 2458 047d 51       		.byte	0x51
 2459 047e 9F       		.byte	0x9f
 2460 047f 00000000 		.4byte	0
 2461 0483 00000000 		.4byte	0
 2462              	.LLST26:
 2463 0487 00000000 		.4byte	.LVL55
 2464 048b 16000000 		.4byte	.LVL58
 2465 048f 0200     		.2byte	0x2
 2466 0491 30       		.byte	0x30
 2467 0492 9F       		.byte	0x9f
 2468 0493 16000000 		.4byte	.LVL58
 2469 0497 1C000000 		.4byte	.LFE126
 2470 049b 0100     		.2byte	0x1
 2471 049d 50       		.byte	0x50
 2472 049e 00000000 		.4byte	0
 2473 04a2 00000000 		.4byte	0
 2474              	.LLST27:
 2475 04a6 00000000 		.4byte	.LVL55
 2476 04aa 08000000 		.4byte	.LVL56
 2477 04ae 0200     		.2byte	0x2
 2478 04b0 30       		.byte	0x30
 2479 04b1 9F       		.byte	0x9f
 2480 04b2 08000000 		.4byte	.LVL56
 2481 04b6 1C000000 		.4byte	.LFE126
 2482 04ba 0600     		.2byte	0x6
 2483 04bc 71       		.byte	0x71
 2484 04bd 00       		.sleb128 0
 2485 04be 72       		.byte	0x72
 2486 04bf 00       		.sleb128 0
 2487 04c0 1A       		.byte	0x1a
 2488 04c1 9F       		.byte	0x9f
 2489 04c2 00000000 		.4byte	0
 2490 04c6 00000000 		.4byte	0
 2491              	.LLST28:
 2492 04ca 00000000 		.4byte	.LVL59
 2493 04ce 04000000 		.4byte	.LVL60
 2494 04d2 0100     		.2byte	0x1
 2495 04d4 51       		.byte	0x51
 2496 04d5 04000000 		.4byte	.LVL60
 2497 04d9 0C000000 		.4byte	.LFE127
 2498 04dd 0400     		.2byte	0x4
 2499 04df F3       		.byte	0xf3
ARM GAS  C:\Users\jsyoon\AppData\Local\Temp\cc3YNORi.s 			page 45


 2500 04e0 01       		.uleb128 0x1
 2501 04e1 51       		.byte	0x51
 2502 04e2 9F       		.byte	0x9f
 2503 04e3 00000000 		.4byte	0
 2504 04e7 00000000 		.4byte	0
 2505              		.section	.debug_aranges,"",%progbits
 2506 0000 9C000000 		.4byte	0x9c
 2507 0004 0200     		.2byte	0x2
 2508 0006 00000000 		.4byte	.Ldebug_info0
 2509 000a 04       		.byte	0x4
 2510 000b 00       		.byte	0
 2511 000c 0000     		.2byte	0
 2512 000e 0000     		.2byte	0
 2513 0010 00000000 		.4byte	.LFB111
 2514 0014 1A000000 		.4byte	.LFE111-.LFB111
 2515 0018 00000000 		.4byte	.LFB112
 2516 001c 30000000 		.4byte	.LFE112-.LFB112
 2517 0020 00000000 		.4byte	.LFB113
 2518 0024 0C000000 		.4byte	.LFE113-.LFB113
 2519 0028 00000000 		.4byte	.LFB114
 2520 002c 28000000 		.4byte	.LFE114-.LFB114
 2521 0030 00000000 		.4byte	.LFB115
 2522 0034 28000000 		.4byte	.LFE115-.LFB115
 2523 0038 00000000 		.4byte	.LFB116
 2524 003c 1C000000 		.4byte	.LFE116-.LFB116
 2525 0040 00000000 		.4byte	.LFB117
 2526 0044 20000000 		.4byte	.LFE117-.LFB117
 2527 0048 00000000 		.4byte	.LFB118
 2528 004c 20000000 		.4byte	.LFE118-.LFB118
 2529 0050 00000000 		.4byte	.LFB119
 2530 0054 20000000 		.4byte	.LFE119-.LFB119
 2531 0058 00000000 		.4byte	.LFB120
 2532 005c 18000000 		.4byte	.LFE120-.LFB120
 2533 0060 00000000 		.4byte	.LFB121
 2534 0064 24000000 		.4byte	.LFE121-.LFB121
 2535 0068 00000000 		.4byte	.LFB122
 2536 006c 2C000000 		.4byte	.LFE122-.LFB122
 2537 0070 00000000 		.4byte	.LFB123
 2538 0074 20000000 		.4byte	.LFE123-.LFB123
 2539 0078 00000000 		.4byte	.LFB124
 2540 007c 14000000 		.4byte	.LFE124-.LFB124
 2541 0080 00000000 		.4byte	.LFB125
 2542 0084 0C000000 		.4byte	.LFE125-.LFB125
 2543 0088 00000000 		.4byte	.LFB126
 2544 008c 1C000000 		.4byte	.LFE126-.LFB126
 2545 0090 00000000 		.4byte	.LFB127
 2546 0094 0C000000 		.4byte	.LFE127-.LFB127
 2547 0098 00000000 		.4byte	0
 2548 009c 00000000 		.4byte	0
 2549              		.section	.debug_ranges,"",%progbits
 2550              	.Ldebug_ranges0:
 2551 0000 00000000 		.4byte	.LFB111
 2552 0004 1A000000 		.4byte	.LFE111
 2553 0008 00000000 		.4byte	.LFB112
 2554 000c 30000000 		.4byte	.LFE112
 2555 0010 00000000 		.4byte	.LFB113
 2556 0014 0C000000 		.4byte	.LFE113
ARM GAS  C:\Users\jsyoon\AppData\Local\Temp\cc3YNORi.s 			page 46


 2557 0018 00000000 		.4byte	.LFB114
 2558 001c 28000000 		.4byte	.LFE114
 2559 0020 00000000 		.4byte	.LFB115
 2560 0024 28000000 		.4byte	.LFE115
 2561 0028 00000000 		.4byte	.LFB116
 2562 002c 1C000000 		.4byte	.LFE116
 2563 0030 00000000 		.4byte	.LFB117
 2564 0034 20000000 		.4byte	.LFE117
 2565 0038 00000000 		.4byte	.LFB118
 2566 003c 20000000 		.4byte	.LFE118
 2567 0040 00000000 		.4byte	.LFB119
 2568 0044 20000000 		.4byte	.LFE119
 2569 0048 00000000 		.4byte	.LFB120
 2570 004c 18000000 		.4byte	.LFE120
 2571 0050 00000000 		.4byte	.LFB121
 2572 0054 24000000 		.4byte	.LFE121
 2573 0058 00000000 		.4byte	.LFB122
 2574 005c 2C000000 		.4byte	.LFE122
 2575 0060 00000000 		.4byte	.LFB123
 2576 0064 20000000 		.4byte	.LFE123
 2577 0068 00000000 		.4byte	.LFB124
 2578 006c 14000000 		.4byte	.LFE124
 2579 0070 00000000 		.4byte	.LFB125
 2580 0074 0C000000 		.4byte	.LFE125
 2581 0078 00000000 		.4byte	.LFB126
 2582 007c 1C000000 		.4byte	.LFE126
 2583 0080 00000000 		.4byte	.LFB127
 2584 0084 0C000000 		.4byte	.LFE127
 2585 0088 00000000 		.4byte	0
 2586 008c 00000000 		.4byte	0
 2587              		.section	.debug_line,"",%progbits
 2588              	.Ldebug_line0:
 2589 0000 51030000 		.section	.debug_str,"MS",%progbits,1
 2589      0200BD01 
 2589      00000201 
 2589      FB0E0D00 
 2589      01010101 
 2590              	.LASF46:
 2591 0000 746D7072 		.ascii	"tmpreg1\000"
 2591      65673100 
 2592              	.LASF66:
 2593 0008 4441435F 		.ascii	"DAC_GetDataOutputValue\000"
 2593      47657444 
 2593      6174614F 
 2593      75747075 
 2593      7456616C 
 2594              	.LASF33:
 2595 001f 44485238 		.ascii	"DHR8RD\000"
 2595      524400
 2596              	.LASF51:
 2597 0026 4441435F 		.ascii	"DAC_SoftwareTriggerCmd\000"
 2597      536F6674 
 2597      77617265 
 2597      54726967 
 2597      67657243 
 2598              	.LASF26:
 2599 003d 44485231 		.ascii	"DHR12L1\000"
ARM GAS  C:\Users\jsyoon\AppData\Local\Temp\cc3YNORi.s 			page 47


 2599      324C3100 
 2600              	.LASF29:
 2601 0045 44485231 		.ascii	"DHR12L2\000"
 2601      324C3200 
 2602              	.LASF53:
 2603 004d 4441435F 		.ascii	"DAC_WaveGenerationCmd\000"
 2603      57617665 
 2603      47656E65 
 2603      72617469 
 2603      6F6E436D 
 2604              	.LASF17:
 2605 0063 73697A65 		.ascii	"sizetype\000"
 2605      74797065 
 2605      00
 2606              	.LASF76:
 2607 006c 453A5C4D 		.ascii	"E:\\Maker\\BLDC\\test_eval\\try2\\OROCA-BLDC_R15080"
 2607      616B6572 
 2607      5C424C44 
 2607      435C7465 
 2607      73745F65 
 2608 009a 3700     		.ascii	"7\000"
 2609              	.LASF32:
 2610 009c 44485231 		.ascii	"DHR12LD\000"
 2610      324C4400 
 2611              	.LASF68:
 2612 00a4 4441435F 		.ascii	"DAC_FLAG\000"
 2612      464C4147 
 2612      00
 2613              	.LASF67:
 2614 00ad 4441435F 		.ascii	"DAC_GetFlagStatus\000"
 2614      47657446 
 2614      6C616753 
 2614      74617475 
 2614      7300
 2615              	.LASF8:
 2616 00bf 5F5F7569 		.ascii	"__uint32_t\000"
 2616      6E743332 
 2616      5F7400
 2617              	.LASF40:
 2618 00ca 4441435F 		.ascii	"DAC_OutputBuffer\000"
 2618      4F757470 
 2618      75744275 
 2618      66666572 
 2618      00
 2619              	.LASF4:
 2620 00db 5F5F7569 		.ascii	"__uint16_t\000"
 2620      6E743136 
 2620      5F7400
 2621              	.LASF2:
 2622 00e6 73686F72 		.ascii	"short int\000"
 2622      7420696E 
 2622      7400
 2623              	.LASF74:
 2624 00f0 474E5520 		.ascii	"GNU C 4.8.4 20140526 (release) [ARM/embedded-4_8-br"
 2624      4320342E 
 2624      382E3420 
 2624      32303134 
ARM GAS  C:\Users\jsyoon\AppData\Local\Temp\cc3YNORi.s 			page 48


 2624      30353236 
 2625 0123 616E6368 		.ascii	"anch revision 211358] -mcpu=cortex-m4 -mfloat-abi=h"
 2625      20726576 
 2625      6973696F 
 2625      6E203231 
 2625      31333538 
 2626 0156 61726420 		.ascii	"ard -mfpu=fpv4-sp-d16 -mno-thumb-interwork -mthumb "
 2626      2D6D6670 
 2626      753D6670 
 2626      76342D73 
 2626      702D6431 
 2627 0189 2D676764 		.ascii	"-ggdb -O2 -std=gnu99 -fomit-frame-pointer -falign-f"
 2627      62202D4F 
 2627      32202D73 
 2627      74643D67 
 2627      6E753939 
 2628 01bc 756E6374 		.ascii	"unctions=16 -ffunction-sections -fdata-sections -fn"
 2628      696F6E73 
 2628      3D313620 
 2628      2D666675 
 2628      6E637469 
 2629 01ef 6F2D636F 		.ascii	"o-common -fsingle-precision-constant\000"
 2629      6D6D6F6E 
 2629      202D6673 
 2629      696E676C 
 2629      652D7072 
 2630              	.LASF34:
 2631 0214 444F5231 		.ascii	"DOR1\000"
 2631      00
 2632              	.LASF35:
 2633 0219 444F5232 		.ascii	"DOR2\000"
 2633      00
 2634              	.LASF50:
 2635 021e 4E657753 		.ascii	"NewState\000"
 2635      74617465 
 2635      00
 2636              	.LASF21:
 2637 0227 44495341 		.ascii	"DISABLE\000"
 2637      424C4500 
 2638              	.LASF70:
 2639 022f 4441435F 		.ascii	"DAC_ClearFlag\000"
 2639      436C6561 
 2639      72466C61 
 2639      6700
 2640              	.LASF72:
 2641 023d 656E6162 		.ascii	"enablestatus\000"
 2641      6C657374 
 2641      61747573 
 2641      00
 2642              	.LASF10:
 2643 024a 6C6F6E67 		.ascii	"long long int\000"
 2643      206C6F6E 
 2643      6720696E 
 2643      7400
 2644              	.LASF78:
 2645 0258 5243435F 		.ascii	"RCC_APB1PeriphResetCmd\000"
 2645      41504231 
ARM GAS  C:\Users\jsyoon\AppData\Local\Temp\cc3YNORi.s 			page 49


 2645      50657269 
 2645      70685265 
 2645      73657443 
 2646              	.LASF20:
 2647 026f 49545374 		.ascii	"ITStatus\000"
 2647      61747573 
 2647      00
 2648              	.LASF7:
 2649 0278 6C6F6E67 		.ascii	"long int\000"
 2649      20696E74 
 2649      00
 2650              	.LASF59:
 2651 0281 4441435F 		.ascii	"DAC_SetDualChannelData\000"
 2651      53657444 
 2651      75616C43 
 2651      68616E6E 
 2651      656C4461 
 2652              	.LASF54:
 2653 0298 4441435F 		.ascii	"DAC_Wave\000"
 2653      57617665 
 2653      00
 2654              	.LASF3:
 2655 02a1 5F5F7569 		.ascii	"__uint8_t\000"
 2655      6E74385F 
 2655      7400
 2656              	.LASF57:
 2657 02ab 44617461 		.ascii	"Data\000"
 2657      00
 2658              	.LASF55:
 2659 02b0 4441435F 		.ascii	"DAC_SetChannel1Data\000"
 2659      53657443 
 2659      68616E6E 
 2659      656C3144 
 2659      61746100 
 2660              	.LASF69:
 2661 02c4 62697473 		.ascii	"bitstatus\000"
 2661      74617475 
 2661      7300
 2662              	.LASF45:
 2663 02ce 4441435F 		.ascii	"DAC_InitStruct\000"
 2663      496E6974 
 2663      53747275 
 2663      637400
 2664              	.LASF1:
 2665 02dd 756E7369 		.ascii	"unsigned char\000"
 2665      676E6564 
 2665      20636861 
 2665      7200
 2666              	.LASF75:
 2667 02eb 43686962 		.ascii	"ChibiOS_2.6.6/ext/stdperiph_stm32f4/src/stm32f4xx_d"
 2667      694F535F 
 2667      322E362E 
 2667      362F6578 
 2667      742F7374 
 2668 031e 61632E63 		.ascii	"ac.c\000"
 2668      00
 2669              	.LASF6:
ARM GAS  C:\Users\jsyoon\AppData\Local\Temp\cc3YNORi.s 			page 50


 2670 0323 5F5F696E 		.ascii	"__int32_t\000"
 2670      7433325F 
 2670      7400
 2671              	.LASF48:
 2672 032d 4441435F 		.ascii	"DAC_StructInit\000"
 2672      53747275 
 2672      6374496E 
 2672      697400
 2673              	.LASF0:
 2674 033c 7369676E 		.ascii	"signed char\000"
 2674      65642063 
 2674      68617200 
 2675              	.LASF11:
 2676 0348 6C6F6E67 		.ascii	"long long unsigned int\000"
 2676      206C6F6E 
 2676      6720756E 
 2676      7369676E 
 2676      65642069 
 2677              	.LASF16:
 2678 035f 75696E74 		.ascii	"uint32_t\000"
 2678      33325F74 
 2678      00
 2679              	.LASF37:
 2680 0368 4441435F 		.ascii	"DAC_Trigger\000"
 2680      54726967 
 2680      67657200 
 2681              	.LASF14:
 2682 0374 75696E74 		.ascii	"uint16_t\000"
 2682      31365F74 
 2682      00
 2683              	.LASF63:
 2684 037d 4441435F 		.ascii	"DAC_DMACmd\000"
 2684      444D4143 
 2684      6D6400
 2685              	.LASF44:
 2686 0388 4441435F 		.ascii	"DAC_Channel\000"
 2686      4368616E 
 2686      6E656C00 
 2687              	.LASF42:
 2688 0394 4441435F 		.ascii	"DAC_DeInit\000"
 2688      4465496E 
 2688      697400
 2689              	.LASF24:
 2690 039f 53575452 		.ascii	"SWTRIGR\000"
 2690      49475200 
 2691              	.LASF5:
 2692 03a7 73686F72 		.ascii	"short unsigned int\000"
 2692      7420756E 
 2692      7369676E 
 2692      65642069 
 2692      6E7400
 2693              	.LASF52:
 2694 03ba 4441435F 		.ascii	"DAC_DualSoftwareTriggerCmd\000"
 2694      4475616C 
 2694      536F6674 
 2694      77617265 
 2694      54726967 
ARM GAS  C:\Users\jsyoon\AppData\Local\Temp\cc3YNORi.s 			page 51


 2695              	.LASF47:
 2696 03d5 746D7072 		.ascii	"tmpreg2\000"
 2696      65673200 
 2697              	.LASF39:
 2698 03dd 4441435F 		.ascii	"DAC_LFSRUnmask_TriangleAmplitude\000"
 2698      4C465352 
 2698      556E6D61 
 2698      736B5F54 
 2698      7269616E 
 2699              	.LASF15:
 2700 03fe 696E7433 		.ascii	"int32_t\000"
 2700      325F7400 
 2701              	.LASF56:
 2702 0406 4441435F 		.ascii	"DAC_Align\000"
 2702      416C6967 
 2702      6E00
 2703              	.LASF25:
 2704 0410 44485231 		.ascii	"DHR12R1\000"
 2704      32523100 
 2705              	.LASF28:
 2706 0418 44485231 		.ascii	"DHR12R2\000"
 2706      32523200 
 2707              	.LASF65:
 2708 0420 4441435F 		.ascii	"DAC_IT\000"
 2708      495400
 2709              	.LASF41:
 2710 0427 4441435F 		.ascii	"DAC_InitTypeDef\000"
 2710      496E6974 
 2710      54797065 
 2710      44656600 
 2711              	.LASF60:
 2712 0437 44617461 		.ascii	"Data2\000"
 2712      3200
 2713              	.LASF62:
 2714 043d 64617461 		.ascii	"data\000"
 2714      00
 2715              	.LASF31:
 2716 0442 44485231 		.ascii	"DHR12RD\000"
 2716      32524400 
 2717              	.LASF9:
 2718 044a 6C6F6E67 		.ascii	"long unsigned int\000"
 2718      20756E73 
 2718      69676E65 
 2718      6420696E 
 2718      7400
 2719              	.LASF23:
 2720 045c 46756E63 		.ascii	"FunctionalState\000"
 2720      74696F6E 
 2720      616C5374 
 2720      61746500 
 2721              	.LASF71:
 2722 046c 4441435F 		.ascii	"DAC_GetITStatus\000"
 2722      47657449 
 2722      54537461 
 2722      74757300 
 2723              	.LASF58:
 2724 047c 4441435F 		.ascii	"DAC_SetChannel2Data\000"
ARM GAS  C:\Users\jsyoon\AppData\Local\Temp\cc3YNORi.s 			page 52


 2724      53657443 
 2724      68616E6E 
 2724      656C3244 
 2724      61746100 
 2725              	.LASF49:
 2726 0490 4441435F 		.ascii	"DAC_Cmd\000"
 2726      436D6400 
 2727              	.LASF73:
 2728 0498 4441435F 		.ascii	"DAC_ClearITPendingBit\000"
 2728      436C6561 
 2728      72495450 
 2728      656E6469 
 2728      6E674269 
 2729              	.LASF18:
 2730 04ae 52455345 		.ascii	"RESET\000"
 2730      5400
 2731              	.LASF13:
 2732 04b4 75696E74 		.ascii	"uint8_t\000"
 2732      385F7400 
 2733              	.LASF43:
 2734 04bc 4441435F 		.ascii	"DAC_Init\000"
 2734      496E6974 
 2734      00
 2735              	.LASF61:
 2736 04c5 44617461 		.ascii	"Data1\000"
 2736      3100
 2737              	.LASF77:
 2738 04cb 49544D5F 		.ascii	"ITM_RxBuffer\000"
 2738      52784275 
 2738      66666572 
 2738      00
 2739              	.LASF36:
 2740 04d8 4441435F 		.ascii	"DAC_TypeDef\000"
 2740      54797065 
 2740      44656600 
 2741              	.LASF12:
 2742 04e4 756E7369 		.ascii	"unsigned int\000"
 2742      676E6564 
 2742      20696E74 
 2742      00
 2743              	.LASF64:
 2744 04f1 4441435F 		.ascii	"DAC_ITConfig\000"
 2744      4954436F 
 2744      6E666967 
 2744      00
 2745              	.LASF27:
 2746 04fe 44485238 		.ascii	"DHR8R1\000"
 2746      523100
 2747              	.LASF30:
 2748 0505 44485238 		.ascii	"DHR8R2\000"
 2748      523200
 2749              	.LASF38:
 2750 050c 4441435F 		.ascii	"DAC_WaveGeneration\000"
 2750      57617665 
 2750      47656E65 
 2750      72617469 
 2750      6F6E00
ARM GAS  C:\Users\jsyoon\AppData\Local\Temp\cc3YNORi.s 			page 53


 2751              	.LASF19:
 2752 051f 466C6167 		.ascii	"FlagStatus\000"
 2752      53746174 
 2752      757300
 2753              	.LASF22:
 2754 052a 454E4142 		.ascii	"ENABLE\000"
 2754      4C4500
 2755              		.ident	"GCC: (GNU Tools for ARM Embedded Processors) 4.8.4 20140526 (release) [ARM/embedded-4_8-br
ARM GAS  C:\Users\jsyoon\AppData\Local\Temp\cc3YNORi.s 			page 54


DEFINED SYMBOLS
                            *ABS*:00000000 stm32f4xx_dac.c
C:\Users\jsyoon\AppData\Local\Temp\cc3YNORi.s:21     .text.DAC_DeInit:00000000 $t
C:\Users\jsyoon\AppData\Local\Temp\cc3YNORi.s:27     .text.DAC_DeInit:00000000 DAC_DeInit
C:\Users\jsyoon\AppData\Local\Temp\cc3YNORi.s:55     .text.DAC_Init:00000000 $t
C:\Users\jsyoon\AppData\Local\Temp\cc3YNORi.s:61     .text.DAC_Init:00000000 DAC_Init
C:\Users\jsyoon\AppData\Local\Temp\cc3YNORi.s:110    .text.DAC_Init:0000002c $d
C:\Users\jsyoon\AppData\Local\Temp\cc3YNORi.s:115    .text.DAC_StructInit:00000000 $t
C:\Users\jsyoon\AppData\Local\Temp\cc3YNORi.s:121    .text.DAC_StructInit:00000000 DAC_StructInit
C:\Users\jsyoon\AppData\Local\Temp\cc3YNORi.s:143    .text.DAC_Cmd:00000000 $t
C:\Users\jsyoon\AppData\Local\Temp\cc3YNORi.s:149    .text.DAC_Cmd:00000000 DAC_Cmd
C:\Users\jsyoon\AppData\Local\Temp\cc3YNORi.s:184    .text.DAC_Cmd:00000024 $d
C:\Users\jsyoon\AppData\Local\Temp\cc3YNORi.s:189    .text.DAC_SoftwareTriggerCmd:00000000 $t
C:\Users\jsyoon\AppData\Local\Temp\cc3YNORi.s:195    .text.DAC_SoftwareTriggerCmd:00000000 DAC_SoftwareTriggerCmd
C:\Users\jsyoon\AppData\Local\Temp\cc3YNORi.s:230    .text.DAC_SoftwareTriggerCmd:00000024 $d
C:\Users\jsyoon\AppData\Local\Temp\cc3YNORi.s:235    .text.DAC_DualSoftwareTriggerCmd:00000000 $t
C:\Users\jsyoon\AppData\Local\Temp\cc3YNORi.s:241    .text.DAC_DualSoftwareTriggerCmd:00000000 DAC_DualSoftwareTriggerCmd
C:\Users\jsyoon\AppData\Local\Temp\cc3YNORi.s:266    .text.DAC_DualSoftwareTriggerCmd:00000018 $d
C:\Users\jsyoon\AppData\Local\Temp\cc3YNORi.s:271    .text.DAC_WaveGenerationCmd:00000000 $t
C:\Users\jsyoon\AppData\Local\Temp\cc3YNORi.s:277    .text.DAC_WaveGenerationCmd:00000000 DAC_WaveGenerationCmd
C:\Users\jsyoon\AppData\Local\Temp\cc3YNORi.s:310    .text.DAC_WaveGenerationCmd:0000001c $d
C:\Users\jsyoon\AppData\Local\Temp\cc3YNORi.s:315    .text.DAC_SetChannel1Data:00000000 $t
C:\Users\jsyoon\AppData\Local\Temp\cc3YNORi.s:321    .text.DAC_SetChannel1Data:00000000 DAC_SetChannel1Data
C:\Users\jsyoon\AppData\Local\Temp\cc3YNORi.s:355    .text.DAC_SetChannel1Data:0000001c $d
C:\Users\jsyoon\AppData\Local\Temp\cc3YNORi.s:360    .text.DAC_SetChannel2Data:00000000 $t
C:\Users\jsyoon\AppData\Local\Temp\cc3YNORi.s:366    .text.DAC_SetChannel2Data:00000000 DAC_SetChannel2Data
C:\Users\jsyoon\AppData\Local\Temp\cc3YNORi.s:400    .text.DAC_SetChannel2Data:0000001c $d
C:\Users\jsyoon\AppData\Local\Temp\cc3YNORi.s:405    .text.DAC_SetDualChannelData:00000000 $t
C:\Users\jsyoon\AppData\Local\Temp\cc3YNORi.s:411    .text.DAC_SetDualChannelData:00000000 DAC_SetDualChannelData
C:\Users\jsyoon\AppData\Local\Temp\cc3YNORi.s:436    .text.DAC_SetDualChannelData:00000014 $d
C:\Users\jsyoon\AppData\Local\Temp\cc3YNORi.s:441    .text.DAC_GetDataOutputValue:00000000 $t
C:\Users\jsyoon\AppData\Local\Temp\cc3YNORi.s:447    .text.DAC_GetDataOutputValue:00000000 DAC_GetDataOutputValue
C:\Users\jsyoon\AppData\Local\Temp\cc3YNORi.s:482    .text.DAC_GetDataOutputValue:00000020 $d
C:\Users\jsyoon\AppData\Local\Temp\cc3YNORi.s:487    .text.DAC_DMACmd:00000000 $t
C:\Users\jsyoon\AppData\Local\Temp\cc3YNORi.s:493    .text.DAC_DMACmd:00000000 DAC_DMACmd
C:\Users\jsyoon\AppData\Local\Temp\cc3YNORi.s:528    .text.DAC_DMACmd:00000028 $d
C:\Users\jsyoon\AppData\Local\Temp\cc3YNORi.s:533    .text.DAC_ITConfig:00000000 $t
C:\Users\jsyoon\AppData\Local\Temp\cc3YNORi.s:539    .text.DAC_ITConfig:00000000 DAC_ITConfig
C:\Users\jsyoon\AppData\Local\Temp\cc3YNORi.s:572    .text.DAC_ITConfig:0000001c $d
C:\Users\jsyoon\AppData\Local\Temp\cc3YNORi.s:577    .text.DAC_GetFlagStatus:00000000 $t
C:\Users\jsyoon\AppData\Local\Temp\cc3YNORi.s:583    .text.DAC_GetFlagStatus:00000000 DAC_GetFlagStatus
C:\Users\jsyoon\AppData\Local\Temp\cc3YNORi.s:607    .text.DAC_GetFlagStatus:00000010 $d
C:\Users\jsyoon\AppData\Local\Temp\cc3YNORi.s:612    .text.DAC_ClearFlag:00000000 $t
C:\Users\jsyoon\AppData\Local\Temp\cc3YNORi.s:618    .text.DAC_ClearFlag:00000000 DAC_ClearFlag
C:\Users\jsyoon\AppData\Local\Temp\cc3YNORi.s:635    .text.DAC_ClearFlag:00000008 $d
C:\Users\jsyoon\AppData\Local\Temp\cc3YNORi.s:640    .text.DAC_GetITStatus:00000000 $t
C:\Users\jsyoon\AppData\Local\Temp\cc3YNORi.s:646    .text.DAC_GetITStatus:00000000 DAC_GetITStatus
C:\Users\jsyoon\AppData\Local\Temp\cc3YNORi.s:679    .text.DAC_GetITStatus:00000018 $d
C:\Users\jsyoon\AppData\Local\Temp\cc3YNORi.s:684    .text.DAC_ClearITPendingBit:00000000 $t
C:\Users\jsyoon\AppData\Local\Temp\cc3YNORi.s:690    .text.DAC_ClearITPendingBit:00000000 DAC_ClearITPendingBit
C:\Users\jsyoon\AppData\Local\Temp\cc3YNORi.s:707    .text.DAC_ClearITPendingBit:00000008 $d
                     .debug_frame:00000010 $d
C:\Users\jsyoon\AppData\Local\Temp\cc3YNORi.s:188    .text.DAC_Cmd:00000028 $t
C:\Users\jsyoon\AppData\Local\Temp\cc3YNORi.s:234    .text.DAC_SoftwareTriggerCmd:00000028 $t
C:\Users\jsyoon\AppData\Local\Temp\cc3YNORi.s:270    .text.DAC_DualSoftwareTriggerCmd:0000001c $t
C:\Users\jsyoon\AppData\Local\Temp\cc3YNORi.s:440    .text.DAC_SetDualChannelData:00000018 $t
C:\Users\jsyoon\AppData\Local\Temp\cc3YNORi.s:486    .text.DAC_GetDataOutputValue:00000024 $t
ARM GAS  C:\Users\jsyoon\AppData\Local\Temp\cc3YNORi.s 			page 55


C:\Users\jsyoon\AppData\Local\Temp\cc3YNORi.s:532    .text.DAC_DMACmd:0000002c $t
C:\Users\jsyoon\AppData\Local\Temp\cc3YNORi.s:611    .text.DAC_GetFlagStatus:00000014 $t
C:\Users\jsyoon\AppData\Local\Temp\cc3YNORi.s:639    .text.DAC_ClearFlag:0000000c $t
C:\Users\jsyoon\AppData\Local\Temp\cc3YNORi.s:683    .text.DAC_GetITStatus:0000001c $t
C:\Users\jsyoon\AppData\Local\Temp\cc3YNORi.s:711    .text.DAC_ClearITPendingBit:0000000c $t

UNDEFINED SYMBOLS
RCC_APB1PeriphResetCmd
