ARM GAS  C:\Users\jsyoon\AppData\Local\Temp\ccktiqkb.s 			page 1


   1              		.syntax unified
   2              		.cpu cortex-m4
   3              		.eabi_attribute 27, 3
   4              		.eabi_attribute 28, 1
   5              		.fpu fpv4-sp-d16
   6              		.eabi_attribute 20, 1
   7              		.eabi_attribute 21, 1
   8              		.eabi_attribute 23, 3
   9              		.eabi_attribute 24, 1
  10              		.eabi_attribute 25, 1
  11              		.eabi_attribute 26, 1
  12              		.eabi_attribute 30, 2
  13              		.eabi_attribute 34, 1
  14              		.eabi_attribute 18, 4
  15              		.thumb
  16              		.file	"stm32f4xx_wwdg.c"
  17              		.text
  18              	.Ltext0:
  19              		.cfi_sections	.debug_frame
  20              		.section	.text.WWDG_DeInit,"ax",%progbits
  21              		.align	2
  22              		.p2align 4,,15
  23              		.global	WWDG_DeInit
  24              		.thumb
  25              		.thumb_func
  26              		.type	WWDG_DeInit, %function
  27              	WWDG_DeInit:
  28              	.LFB111:
  29              		.file 1 "ChibiOS_2.6.6/ext/stdperiph_stm32f4/src/stm32f4xx_wwdg.c"
  30              		.loc 1 141 0
  31              		.cfi_startproc
  32              		@ args = 0, pretend = 0, frame = 0
  33              		@ frame_needed = 0, uses_anonymous_args = 0
  34 0000 08B5     		push	{r3, lr}
  35              		.cfi_def_cfa_offset 8
  36              		.cfi_offset 3, -8
  37              		.cfi_offset 14, -4
  38              		.loc 1 142 0
  39 0002 4FF40060 		mov	r0, #2048
  40 0006 0121     		movs	r1, #1
  41 0008 FFF7FEFF 		bl	RCC_APB1PeriphResetCmd
  42              	.LVL0:
  43              		.loc 1 143 0
  44 000c 4FF40060 		mov	r0, #2048
  45 0010 0021     		movs	r1, #0
  46              		.loc 1 144 0
  47 0012 BDE80840 		pop	{r3, lr}
  48              		.loc 1 143 0
  49 0016 FFF7FEBF 		b	RCC_APB1PeriphResetCmd
  50              	.LVL1:
  51              		.cfi_endproc
  52              	.LFE111:
  53              		.size	WWDG_DeInit, .-WWDG_DeInit
  54 001a 00BFAFF3 		.section	.text.WWDG_SetPrescaler,"ax",%progbits
  54      0080
  55              		.align	2
  56              		.p2align 4,,15
ARM GAS  C:\Users\jsyoon\AppData\Local\Temp\ccktiqkb.s 			page 2


  57              		.global	WWDG_SetPrescaler
  58              		.thumb
  59              		.thumb_func
  60              		.type	WWDG_SetPrescaler, %function
  61              	WWDG_SetPrescaler:
  62              	.LFB112:
  63              		.loc 1 157 0
  64              		.cfi_startproc
  65              		@ args = 0, pretend = 0, frame = 0
  66              		@ frame_needed = 0, uses_anonymous_args = 0
  67              		@ link register save eliminated.
  68              	.LVL2:
  69              		.loc 1 162 0
  70 0000 034B     		ldr	r3, .L3
  71 0002 5A68     		ldr	r2, [r3, #4]
  72 0004 22F4C072 		bic	r2, r2, #384
  73              	.LVL3:
  74              		.loc 1 164 0
  75 0008 1043     		orrs	r0, r0, r2
  76              	.LVL4:
  77              		.loc 1 166 0
  78 000a 5860     		str	r0, [r3, #4]
  79 000c 7047     		bx	lr
  80              	.L4:
  81 000e 00BF     		.align	2
  82              	.L3:
  83 0010 002C0040 		.word	1073753088
  84              		.cfi_endproc
  85              	.LFE112:
  86              		.size	WWDG_SetPrescaler, .-WWDG_SetPrescaler
  87 0014 AFF30080 		.section	.text.WWDG_SetWindowValue,"ax",%progbits
  87      AFF30080 
  87      AFF30080 
  88              		.align	2
  89              		.p2align 4,,15
  90              		.global	WWDG_SetWindowValue
  91              		.thumb
  92              		.thumb_func
  93              		.type	WWDG_SetWindowValue, %function
  94              	WWDG_SetWindowValue:
  95              	.LFB113:
  96              		.loc 1 176 0
  97              		.cfi_startproc
  98              		@ args = 0, pretend = 0, frame = 8
  99              		@ frame_needed = 0, uses_anonymous_args = 0
 100              		@ link register save eliminated.
 101              	.LVL5:
 102 0000 82B0     		sub	sp, sp, #8
 103              		.cfi_def_cfa_offset 8
 104              		.loc 1 183 0
 105 0002 084B     		ldr	r3, .L6
 106              		.loc 1 177 0
 107 0004 0022     		movs	r2, #0
 108 0006 0192     		str	r2, [sp, #4]
 109              		.loc 1 183 0
 110 0008 5A68     		ldr	r2, [r3, #4]
 111 000a 22F07F02 		bic	r2, r2, #127
ARM GAS  C:\Users\jsyoon\AppData\Local\Temp\ccktiqkb.s 			page 3


 112 000e 0192     		str	r2, [sp, #4]
 113              		.loc 1 186 0
 114 0010 019A     		ldr	r2, [sp, #4]
 115 0012 00F07F00 		and	r0, r0, #127
 116              	.LVL6:
 117 0016 0243     		orrs	r2, r2, r0
 118 0018 0192     		str	r2, [sp, #4]
 119              		.loc 1 189 0
 120 001a 019A     		ldr	r2, [sp, #4]
 121 001c 5A60     		str	r2, [r3, #4]
 122              		.loc 1 190 0
 123 001e 02B0     		add	sp, sp, #8
 124              		@ sp needed
 125 0020 7047     		bx	lr
 126              	.L7:
 127 0022 00BF     		.align	2
 128              	.L6:
 129 0024 002C0040 		.word	1073753088
 130              		.cfi_endproc
 131              	.LFE113:
 132              		.size	WWDG_SetWindowValue, .-WWDG_SetWindowValue
 133 0028 AFF30080 		.section	.text.WWDG_EnableIT,"ax",%progbits
 133      AFF30080 
 134              		.align	2
 135              		.p2align 4,,15
 136              		.global	WWDG_EnableIT
 137              		.thumb
 138              		.thumb_func
 139              		.type	WWDG_EnableIT, %function
 140              	WWDG_EnableIT:
 141              	.LFB114:
 142              		.loc 1 199 0
 143              		.cfi_startproc
 144              		@ args = 0, pretend = 0, frame = 0
 145              		@ frame_needed = 0, uses_anonymous_args = 0
 146              		@ link register save eliminated.
 147              		.loc 1 200 0
 148 0000 014B     		ldr	r3, .L9
 149 0002 0122     		movs	r2, #1
 150 0004 1A60     		str	r2, [r3]
 151 0006 7047     		bx	lr
 152              	.L10:
 153              		.align	2
 154              	.L9:
 155 0008 A4800542 		.word	1107656868
 156              		.cfi_endproc
 157              	.LFE114:
 158              		.size	WWDG_EnableIT, .-WWDG_EnableIT
 159 000c AFF30080 		.section	.text.WWDG_SetCounter,"ax",%progbits
 160              		.align	2
 161              		.p2align 4,,15
 162              		.global	WWDG_SetCounter
 163              		.thumb
 164              		.thumb_func
 165              		.type	WWDG_SetCounter, %function
 166              	WWDG_SetCounter:
 167              	.LFB115:
ARM GAS  C:\Users\jsyoon\AppData\Local\Temp\ccktiqkb.s 			page 4


 168              		.loc 1 211 0
 169              		.cfi_startproc
 170              		@ args = 0, pretend = 0, frame = 0
 171              		@ frame_needed = 0, uses_anonymous_args = 0
 172              		@ link register save eliminated.
 173              	.LVL7:
 174              		.loc 1 216 0
 175 0000 024B     		ldr	r3, .L12
 176 0002 00F07F00 		and	r0, r0, #127
 177              	.LVL8:
 178 0006 1860     		str	r0, [r3]
 179 0008 7047     		bx	lr
 180              	.L13:
 181 000a 00BF     		.align	2
 182              	.L12:
 183 000c 002C0040 		.word	1073753088
 184              		.cfi_endproc
 185              	.LFE115:
 186              		.size	WWDG_SetCounter, .-WWDG_SetCounter
 187              		.section	.text.WWDG_Enable,"ax",%progbits
 188              		.align	2
 189              		.p2align 4,,15
 190              		.global	WWDG_Enable
 191              		.thumb
 192              		.thumb_func
 193              		.type	WWDG_Enable, %function
 194              	WWDG_Enable:
 195              	.LFB116:
 196              		.loc 1 242 0
 197              		.cfi_startproc
 198              		@ args = 0, pretend = 0, frame = 0
 199              		@ frame_needed = 0, uses_anonymous_args = 0
 200              		@ link register save eliminated.
 201              	.LVL9:
 202              		.loc 1 245 0
 203 0000 024B     		ldr	r3, .L15
 204 0002 40F08000 		orr	r0, r0, #128
 205              	.LVL10:
 206 0006 1860     		str	r0, [r3]
 207 0008 7047     		bx	lr
 208              	.L16:
 209 000a 00BF     		.align	2
 210              	.L15:
 211 000c 002C0040 		.word	1073753088
 212              		.cfi_endproc
 213              	.LFE116:
 214              		.size	WWDG_Enable, .-WWDG_Enable
 215              		.section	.text.WWDG_GetFlagStatus,"ax",%progbits
 216              		.align	2
 217              		.p2align 4,,15
 218              		.global	WWDG_GetFlagStatus
 219              		.thumb
 220              		.thumb_func
 221              		.type	WWDG_GetFlagStatus, %function
 222              	WWDG_GetFlagStatus:
 223              	.LFB117:
 224              		.loc 1 269 0
ARM GAS  C:\Users\jsyoon\AppData\Local\Temp\ccktiqkb.s 			page 5


 225              		.cfi_startproc
 226              		@ args = 0, pretend = 0, frame = 0
 227              		@ frame_needed = 0, uses_anonymous_args = 0
 228              		@ link register save eliminated.
 229              	.LVL11:
 230              		.loc 1 272 0
 231 0000 024B     		ldr	r3, .L18
 232 0002 9868     		ldr	r0, [r3, #8]
 233              	.LVL12:
 234              		.loc 1 281 0
 235 0004 0030     		adds	r0, r0, #0
 236 0006 18BF     		it	ne
 237 0008 0120     		movne	r0, #1
 238              	.LVL13:
 239 000a 7047     		bx	lr
 240              	.L19:
 241              		.align	2
 242              	.L18:
 243 000c 002C0040 		.word	1073753088
 244              		.cfi_endproc
 245              	.LFE117:
 246              		.size	WWDG_GetFlagStatus, .-WWDG_GetFlagStatus
 247              		.section	.text.WWDG_ClearFlag,"ax",%progbits
 248              		.align	2
 249              		.p2align 4,,15
 250              		.global	WWDG_ClearFlag
 251              		.thumb
 252              		.thumb_func
 253              		.type	WWDG_ClearFlag, %function
 254              	WWDG_ClearFlag:
 255              	.LFB118:
 256              		.loc 1 289 0
 257              		.cfi_startproc
 258              		@ args = 0, pretend = 0, frame = 0
 259              		@ frame_needed = 0, uses_anonymous_args = 0
 260              		@ link register save eliminated.
 261              		.loc 1 290 0
 262 0000 014B     		ldr	r3, .L21
 263 0002 0022     		movs	r2, #0
 264 0004 9A60     		str	r2, [r3, #8]
 265 0006 7047     		bx	lr
 266              	.L22:
 267              		.align	2
 268              	.L21:
 269 0008 002C0040 		.word	1073753088
 270              		.cfi_endproc
 271              	.LFE118:
 272              		.size	WWDG_ClearFlag, .-WWDG_ClearFlag
 273 000c AFF30080 		.text
 274              	.Letext0:
 275              		.file 2 "c:\\crosstools\\gcc-arm-embedded\\4.8_2014q2\\arm-none-eabi\\include\\machine\\_default_t
 276              		.file 3 "c:\\crosstools\\gcc-arm-embedded\\4.8_2014q2\\arm-none-eabi\\include\\stdint.h"
 277              		.file 4 "ChibiOS_2.6.6/os/hal/platforms/STM32F4xx/stm32f4xx.h"
 278              		.file 5 "ChibiOS_2.6.6/os/ports/common/ARMCMx/CMSIS/include/core_cm4.h"
 279              		.file 6 "ChibiOS_2.6.6/ext/stdperiph_stm32f4/inc/stm32f4xx_rcc.h"
 280              		.section	.debug_info,"",%progbits
 281              	.Ldebug_info0:
ARM GAS  C:\Users\jsyoon\AppData\Local\Temp\ccktiqkb.s 			page 6


 282 0000 9E020000 		.4byte	0x29e
 283 0004 0400     		.2byte	0x4
 284 0006 00000000 		.4byte	.Ldebug_abbrev0
 285 000a 04       		.byte	0x4
 286 000b 01       		.uleb128 0x1
 287 000c 51000000 		.4byte	.LASF34
 288 0010 01       		.byte	0x1
 289 0011 0E000000 		.4byte	.LASF35
 290 0015 D1020000 		.4byte	.LASF36
 291 0019 00000000 		.4byte	.Ldebug_ranges0+0
 292 001d 00000000 		.4byte	0
 293 0021 00000000 		.4byte	.Ldebug_line0
 294 0025 02       		.uleb128 0x2
 295 0026 01       		.byte	0x1
 296 0027 06       		.byte	0x6
 297 0028 59030000 		.4byte	.LASF0
 298 002c 03       		.uleb128 0x3
 299 002d 47000000 		.4byte	.LASF4
 300 0031 02       		.byte	0x2
 301 0032 1C       		.byte	0x1c
 302 0033 37000000 		.4byte	0x37
 303 0037 02       		.uleb128 0x2
 304 0038 01       		.byte	0x1
 305 0039 08       		.byte	0x8
 306 003a DD010000 		.4byte	.LASF1
 307 003e 02       		.uleb128 0x2
 308 003f 02       		.byte	0x2
 309 0040 05       		.byte	0x5
 310 0041 01030000 		.4byte	.LASF2
 311 0045 02       		.uleb128 0x2
 312 0046 02       		.byte	0x2
 313 0047 07       		.byte	0x7
 314 0048 8D010000 		.4byte	.LASF3
 315 004c 03       		.uleb128 0x3
 316 004d 83010000 		.4byte	.LASF5
 317 0051 02       		.byte	0x2
 318 0052 37       		.byte	0x37
 319 0053 57000000 		.4byte	0x57
 320 0057 02       		.uleb128 0x2
 321 0058 04       		.byte	0x4
 322 0059 05       		.byte	0x5
 323 005a 50030000 		.4byte	.LASF6
 324 005e 03       		.uleb128 0x3
 325 005f 2B020000 		.4byte	.LASF7
 326 0063 02       		.byte	0x2
 327 0064 38       		.byte	0x38
 328 0065 69000000 		.4byte	0x69
 329 0069 02       		.uleb128 0x2
 330 006a 04       		.byte	0x4
 331 006b 07       		.byte	0x7
 332 006c 02020000 		.4byte	.LASF8
 333 0070 02       		.uleb128 0x2
 334 0071 08       		.byte	0x8
 335 0072 05       		.byte	0x5
 336 0073 00000000 		.4byte	.LASF9
 337 0077 02       		.uleb128 0x2
 338 0078 08       		.byte	0x8
ARM GAS  C:\Users\jsyoon\AppData\Local\Temp\ccktiqkb.s 			page 7


 339 0079 07       		.byte	0x7
 340 007a 74020000 		.4byte	.LASF10
 341 007e 04       		.uleb128 0x4
 342 007f 04       		.byte	0x4
 343 0080 05       		.byte	0x5
 344 0081 696E7400 		.ascii	"int\000"
 345 0085 02       		.uleb128 0x2
 346 0086 04       		.byte	0x4
 347 0087 07       		.byte	0x7
 348 0088 67020000 		.4byte	.LASF11
 349 008c 03       		.uleb128 0x3
 350 008d A0010000 		.4byte	.LASF12
 351 0091 03       		.byte	0x3
 352 0092 2A       		.byte	0x2a
 353 0093 2C000000 		.4byte	0x2c
 354 0097 03       		.uleb128 0x3
 355 0098 B0020000 		.4byte	.LASF13
 356 009c 03       		.byte	0x3
 357 009d 41       		.byte	0x41
 358 009e 4C000000 		.4byte	0x4c
 359 00a2 03       		.uleb128 0x3
 360 00a3 1A020000 		.4byte	.LASF14
 361 00a7 03       		.byte	0x3
 362 00a8 42       		.byte	0x42
 363 00a9 5E000000 		.4byte	0x5e
 364 00ad 02       		.uleb128 0x2
 365 00ae 04       		.byte	0x4
 366 00af 07       		.byte	0x7
 367 00b0 B8020000 		.4byte	.LASF15
 368 00b4 05       		.uleb128 0x5
 369 00b5 A2000000 		.4byte	0xa2
 370 00b9 05       		.uleb128 0x5
 371 00ba 97000000 		.4byte	0x97
 372 00be 06       		.uleb128 0x6
 373 00bf 01       		.byte	0x1
 374 00c0 04       		.byte	0x4
 375 00c1 F701     		.2byte	0x1f7
 376 00c3 D4000000 		.4byte	0xd4
 377 00c7 07       		.uleb128 0x7
 378 00c8 14020000 		.4byte	.LASF16
 379 00cc 00       		.sleb128 0
 380 00cd 08       		.uleb128 0x8
 381 00ce 53455400 		.ascii	"SET\000"
 382 00d2 01       		.sleb128 1
 383 00d3 00       		.byte	0
 384 00d4 09       		.uleb128 0x9
 385 00d5 BF010000 		.4byte	.LASF17
 386 00d9 04       		.byte	0x4
 387 00da F701     		.2byte	0x1f7
 388 00dc BE000000 		.4byte	0xbe
 389 00e0 06       		.uleb128 0x6
 390 00e1 01       		.byte	0x1
 391 00e2 04       		.byte	0x4
 392 00e3 F901     		.2byte	0x1f9
 393 00e5 F6000000 		.4byte	0xf6
 394 00e9 07       		.uleb128 0x7
 395 00ea 23020000 		.4byte	.LASF18
ARM GAS  C:\Users\jsyoon\AppData\Local\Temp\ccktiqkb.s 			page 8


 396 00ee 00       		.sleb128 0
 397 00ef 07       		.uleb128 0x7
 398 00f0 D6010000 		.4byte	.LASF19
 399 00f4 01       		.sleb128 1
 400 00f5 00       		.byte	0
 401 00f6 09       		.uleb128 0x9
 402 00f7 36020000 		.4byte	.LASF20
 403 00fb 04       		.byte	0x4
 404 00fc F901     		.2byte	0x1f9
 405 00fe E0000000 		.4byte	0xe0
 406 0102 0A       		.uleb128 0xa
 407 0103 0C       		.byte	0xc
 408 0104 04       		.byte	0x4
 409 0105 3F05     		.2byte	0x53f
 410 0107 31010000 		.4byte	0x131
 411 010b 0B       		.uleb128 0xb
 412 010c 435200   		.ascii	"CR\000"
 413 010f 04       		.byte	0x4
 414 0110 4105     		.2byte	0x541
 415 0112 B4000000 		.4byte	0xb4
 416 0116 00       		.byte	0
 417 0117 0B       		.uleb128 0xb
 418 0118 43465200 		.ascii	"CFR\000"
 419 011c 04       		.byte	0x4
 420 011d 4205     		.2byte	0x542
 421 011f B4000000 		.4byte	0xb4
 422 0123 04       		.byte	0x4
 423 0124 0B       		.uleb128 0xb
 424 0125 535200   		.ascii	"SR\000"
 425 0128 04       		.byte	0x4
 426 0129 4305     		.2byte	0x543
 427 012b B4000000 		.4byte	0xb4
 428 012f 08       		.byte	0x8
 429 0130 00       		.byte	0
 430 0131 09       		.uleb128 0x9
 431 0132 A8010000 		.4byte	.LASF21
 432 0136 04       		.byte	0x4
 433 0137 4405     		.2byte	0x544
 434 0139 02010000 		.4byte	0x102
 435 013d 0C       		.uleb128 0xc
 436 013e 35030000 		.4byte	.LASF22
 437 0142 01       		.byte	0x1
 438 0143 8C       		.byte	0x8c
 439 0144 00000000 		.4byte	.LFB111
 440 0148 1A000000 		.4byte	.LFE111-.LFB111
 441 014c 01       		.uleb128 0x1
 442 014d 9C       		.byte	0x9c
 443 014e 83010000 		.4byte	0x183
 444 0152 0D       		.uleb128 0xd
 445 0153 0C000000 		.4byte	.LVL0
 446 0157 8E020000 		.4byte	0x28e
 447 015b 6C010000 		.4byte	0x16c
 448 015f 0E       		.uleb128 0xe
 449 0160 01       		.uleb128 0x1
 450 0161 51       		.byte	0x51
 451 0162 01       		.uleb128 0x1
 452 0163 31       		.byte	0x31
ARM GAS  C:\Users\jsyoon\AppData\Local\Temp\ccktiqkb.s 			page 9


 453 0164 0E       		.uleb128 0xe
 454 0165 01       		.uleb128 0x1
 455 0166 50       		.byte	0x50
 456 0167 03       		.uleb128 0x3
 457 0168 0A       		.byte	0xa
 458 0169 0008     		.2byte	0x800
 459 016b 00       		.byte	0
 460 016c 0F       		.uleb128 0xf
 461 016d 1A000000 		.4byte	.LVL1
 462 0171 8E020000 		.4byte	0x28e
 463 0175 0E       		.uleb128 0xe
 464 0176 01       		.uleb128 0x1
 465 0177 51       		.byte	0x51
 466 0178 01       		.uleb128 0x1
 467 0179 30       		.byte	0x30
 468 017a 0E       		.uleb128 0xe
 469 017b 01       		.uleb128 0x1
 470 017c 50       		.byte	0x50
 471 017d 03       		.uleb128 0x3
 472 017e 0A       		.byte	0xa
 473 017f 0008     		.2byte	0x800
 474 0181 00       		.byte	0
 475 0182 00       		.byte	0
 476 0183 0C       		.uleb128 0xc
 477 0184 9E020000 		.4byte	.LASF23
 478 0188 01       		.byte	0x1
 479 0189 9C       		.byte	0x9c
 480 018a 00000000 		.4byte	.LFB112
 481 018e 14000000 		.4byte	.LFE112-.LFB112
 482 0192 01       		.uleb128 0x1
 483 0193 9C       		.byte	0x9c
 484 0194 B7010000 		.4byte	0x1b7
 485 0198 10       		.uleb128 0x10
 486 0199 41030000 		.4byte	.LASF25
 487 019d 01       		.byte	0x1
 488 019e 9C       		.byte	0x9c
 489 019f A2000000 		.4byte	0xa2
 490 01a3 00000000 		.4byte	.LLST0
 491 01a7 11       		.uleb128 0x11
 492 01a8 0B030000 		.4byte	.LASF27
 493 01ac 01       		.byte	0x1
 494 01ad 9E       		.byte	0x9e
 495 01ae A2000000 		.4byte	0xa2
 496 01b2 21000000 		.4byte	.LLST1
 497 01b6 00       		.byte	0
 498 01b7 0C       		.uleb128 0xc
 499 01b8 21030000 		.4byte	.LASF24
 500 01bc 01       		.byte	0x1
 501 01bd AF       		.byte	0xaf
 502 01be 00000000 		.4byte	.LFB113
 503 01c2 28000000 		.4byte	.LFE113-.LFB113
 504 01c6 01       		.uleb128 0x1
 505 01c7 9C       		.byte	0x9c
 506 01c8 EA010000 		.4byte	0x1ea
 507 01cc 10       		.uleb128 0x10
 508 01cd 46020000 		.4byte	.LASF26
 509 01d1 01       		.byte	0x1
ARM GAS  C:\Users\jsyoon\AppData\Local\Temp\ccktiqkb.s 			page 10


 510 01d2 AF       		.byte	0xaf
 511 01d3 8C000000 		.4byte	0x8c
 512 01d7 4B000000 		.4byte	.LLST2
 513 01db 12       		.uleb128 0x12
 514 01dc 0B030000 		.4byte	.LASF27
 515 01e0 01       		.byte	0x1
 516 01e1 B1       		.byte	0xb1
 517 01e2 B4000000 		.4byte	0xb4
 518 01e6 02       		.uleb128 0x2
 519 01e7 91       		.byte	0x91
 520 01e8 7C       		.sleb128 -4
 521 01e9 00       		.byte	0
 522 01ea 13       		.uleb128 0x13
 523 01eb 75010000 		.4byte	.LASF32
 524 01ef 01       		.byte	0x1
 525 01f0 C6       		.byte	0xc6
 526 01f1 00000000 		.4byte	.LFB114
 527 01f5 0C000000 		.4byte	.LFE114-.LFB114
 528 01f9 01       		.uleb128 0x1
 529 01fa 9C       		.byte	0x9c
 530 01fb 0C       		.uleb128 0xc
 531 01fc C1020000 		.4byte	.LASF28
 532 0200 01       		.byte	0x1
 533 0201 D2       		.byte	0xd2
 534 0202 00000000 		.4byte	.LFB115
 535 0206 10000000 		.4byte	.LFE115-.LFB115
 536 020a 01       		.uleb128 0x1
 537 020b 9C       		.byte	0x9c
 538 020c 20020000 		.4byte	0x220
 539 0210 10       		.uleb128 0x10
 540 0211 52020000 		.4byte	.LASF29
 541 0215 01       		.byte	0x1
 542 0216 D2       		.byte	0xd2
 543 0217 8C000000 		.4byte	0x8c
 544 021b 6C000000 		.4byte	.LLST3
 545 021f 00       		.byte	0
 546 0220 0C       		.uleb128 0xc
 547 0221 CA010000 		.4byte	.LASF30
 548 0225 01       		.byte	0x1
 549 0226 F1       		.byte	0xf1
 550 0227 00000000 		.4byte	.LFB116
 551 022b 10000000 		.4byte	.LFE116-.LFB116
 552 022f 01       		.uleb128 0x1
 553 0230 9C       		.byte	0x9c
 554 0231 45020000 		.4byte	0x245
 555 0235 10       		.uleb128 0x10
 556 0236 52020000 		.4byte	.LASF29
 557 023a 01       		.byte	0x1
 558 023b F1       		.byte	0xf1
 559 023c 8C000000 		.4byte	0x8c
 560 0240 8D000000 		.4byte	.LLST4
 561 0244 00       		.byte	0
 562 0245 14       		.uleb128 0x14
 563 0246 8B020000 		.4byte	.LASF37
 564 024a 01       		.byte	0x1
 565 024b 0C01     		.2byte	0x10c
 566 024d D4000000 		.4byte	0xd4
ARM GAS  C:\Users\jsyoon\AppData\Local\Temp\ccktiqkb.s 			page 11


 567 0251 00000000 		.4byte	.LFB117
 568 0255 10000000 		.4byte	.LFE117-.LFB117
 569 0259 01       		.uleb128 0x1
 570 025a 9C       		.byte	0x9c
 571 025b 70020000 		.4byte	0x270
 572 025f 15       		.uleb128 0x15
 573 0260 B5010000 		.4byte	.LASF31
 574 0264 01       		.byte	0x1
 575 0265 0E01     		.2byte	0x10e
 576 0267 D4000000 		.4byte	0xd4
 577 026b AE000000 		.4byte	.LLST5
 578 026f 00       		.byte	0
 579 0270 16       		.uleb128 0x16
 580 0271 12030000 		.4byte	.LASF33
 581 0275 01       		.byte	0x1
 582 0276 2001     		.2byte	0x120
 583 0278 00000000 		.4byte	.LFB118
 584 027c 0C000000 		.4byte	.LFE118-.LFB118
 585 0280 01       		.uleb128 0x1
 586 0281 9C       		.byte	0x9c
 587 0282 17       		.uleb128 0x17
 588 0283 5A020000 		.4byte	.LASF38
 589 0287 05       		.byte	0x5
 590 0288 9806     		.2byte	0x698
 591 028a B9000000 		.4byte	0xb9
 592 028e 18       		.uleb128 0x18
 593 028f EB010000 		.4byte	.LASF39
 594 0293 06       		.byte	0x6
 595 0294 E601     		.2byte	0x1e6
 596 0296 19       		.uleb128 0x19
 597 0297 A2000000 		.4byte	0xa2
 598 029b 19       		.uleb128 0x19
 599 029c F6000000 		.4byte	0xf6
 600 02a0 00       		.byte	0
 601 02a1 00       		.byte	0
 602              		.section	.debug_abbrev,"",%progbits
 603              	.Ldebug_abbrev0:
 604 0000 01       		.uleb128 0x1
 605 0001 11       		.uleb128 0x11
 606 0002 01       		.byte	0x1
 607 0003 25       		.uleb128 0x25
 608 0004 0E       		.uleb128 0xe
 609 0005 13       		.uleb128 0x13
 610 0006 0B       		.uleb128 0xb
 611 0007 03       		.uleb128 0x3
 612 0008 0E       		.uleb128 0xe
 613 0009 1B       		.uleb128 0x1b
 614 000a 0E       		.uleb128 0xe
 615 000b 55       		.uleb128 0x55
 616 000c 17       		.uleb128 0x17
 617 000d 11       		.uleb128 0x11
 618 000e 01       		.uleb128 0x1
 619 000f 10       		.uleb128 0x10
 620 0010 17       		.uleb128 0x17
 621 0011 00       		.byte	0
 622 0012 00       		.byte	0
 623 0013 02       		.uleb128 0x2
ARM GAS  C:\Users\jsyoon\AppData\Local\Temp\ccktiqkb.s 			page 12


 624 0014 24       		.uleb128 0x24
 625 0015 00       		.byte	0
 626 0016 0B       		.uleb128 0xb
 627 0017 0B       		.uleb128 0xb
 628 0018 3E       		.uleb128 0x3e
 629 0019 0B       		.uleb128 0xb
 630 001a 03       		.uleb128 0x3
 631 001b 0E       		.uleb128 0xe
 632 001c 00       		.byte	0
 633 001d 00       		.byte	0
 634 001e 03       		.uleb128 0x3
 635 001f 16       		.uleb128 0x16
 636 0020 00       		.byte	0
 637 0021 03       		.uleb128 0x3
 638 0022 0E       		.uleb128 0xe
 639 0023 3A       		.uleb128 0x3a
 640 0024 0B       		.uleb128 0xb
 641 0025 3B       		.uleb128 0x3b
 642 0026 0B       		.uleb128 0xb
 643 0027 49       		.uleb128 0x49
 644 0028 13       		.uleb128 0x13
 645 0029 00       		.byte	0
 646 002a 00       		.byte	0
 647 002b 04       		.uleb128 0x4
 648 002c 24       		.uleb128 0x24
 649 002d 00       		.byte	0
 650 002e 0B       		.uleb128 0xb
 651 002f 0B       		.uleb128 0xb
 652 0030 3E       		.uleb128 0x3e
 653 0031 0B       		.uleb128 0xb
 654 0032 03       		.uleb128 0x3
 655 0033 08       		.uleb128 0x8
 656 0034 00       		.byte	0
 657 0035 00       		.byte	0
 658 0036 05       		.uleb128 0x5
 659 0037 35       		.uleb128 0x35
 660 0038 00       		.byte	0
 661 0039 49       		.uleb128 0x49
 662 003a 13       		.uleb128 0x13
 663 003b 00       		.byte	0
 664 003c 00       		.byte	0
 665 003d 06       		.uleb128 0x6
 666 003e 04       		.uleb128 0x4
 667 003f 01       		.byte	0x1
 668 0040 0B       		.uleb128 0xb
 669 0041 0B       		.uleb128 0xb
 670 0042 3A       		.uleb128 0x3a
 671 0043 0B       		.uleb128 0xb
 672 0044 3B       		.uleb128 0x3b
 673 0045 05       		.uleb128 0x5
 674 0046 01       		.uleb128 0x1
 675 0047 13       		.uleb128 0x13
 676 0048 00       		.byte	0
 677 0049 00       		.byte	0
 678 004a 07       		.uleb128 0x7
 679 004b 28       		.uleb128 0x28
 680 004c 00       		.byte	0
ARM GAS  C:\Users\jsyoon\AppData\Local\Temp\ccktiqkb.s 			page 13


 681 004d 03       		.uleb128 0x3
 682 004e 0E       		.uleb128 0xe
 683 004f 1C       		.uleb128 0x1c
 684 0050 0D       		.uleb128 0xd
 685 0051 00       		.byte	0
 686 0052 00       		.byte	0
 687 0053 08       		.uleb128 0x8
 688 0054 28       		.uleb128 0x28
 689 0055 00       		.byte	0
 690 0056 03       		.uleb128 0x3
 691 0057 08       		.uleb128 0x8
 692 0058 1C       		.uleb128 0x1c
 693 0059 0D       		.uleb128 0xd
 694 005a 00       		.byte	0
 695 005b 00       		.byte	0
 696 005c 09       		.uleb128 0x9
 697 005d 16       		.uleb128 0x16
 698 005e 00       		.byte	0
 699 005f 03       		.uleb128 0x3
 700 0060 0E       		.uleb128 0xe
 701 0061 3A       		.uleb128 0x3a
 702 0062 0B       		.uleb128 0xb
 703 0063 3B       		.uleb128 0x3b
 704 0064 05       		.uleb128 0x5
 705 0065 49       		.uleb128 0x49
 706 0066 13       		.uleb128 0x13
 707 0067 00       		.byte	0
 708 0068 00       		.byte	0
 709 0069 0A       		.uleb128 0xa
 710 006a 13       		.uleb128 0x13
 711 006b 01       		.byte	0x1
 712 006c 0B       		.uleb128 0xb
 713 006d 0B       		.uleb128 0xb
 714 006e 3A       		.uleb128 0x3a
 715 006f 0B       		.uleb128 0xb
 716 0070 3B       		.uleb128 0x3b
 717 0071 05       		.uleb128 0x5
 718 0072 01       		.uleb128 0x1
 719 0073 13       		.uleb128 0x13
 720 0074 00       		.byte	0
 721 0075 00       		.byte	0
 722 0076 0B       		.uleb128 0xb
 723 0077 0D       		.uleb128 0xd
 724 0078 00       		.byte	0
 725 0079 03       		.uleb128 0x3
 726 007a 08       		.uleb128 0x8
 727 007b 3A       		.uleb128 0x3a
 728 007c 0B       		.uleb128 0xb
 729 007d 3B       		.uleb128 0x3b
 730 007e 05       		.uleb128 0x5
 731 007f 49       		.uleb128 0x49
 732 0080 13       		.uleb128 0x13
 733 0081 38       		.uleb128 0x38
 734 0082 0B       		.uleb128 0xb
 735 0083 00       		.byte	0
 736 0084 00       		.byte	0
 737 0085 0C       		.uleb128 0xc
ARM GAS  C:\Users\jsyoon\AppData\Local\Temp\ccktiqkb.s 			page 14


 738 0086 2E       		.uleb128 0x2e
 739 0087 01       		.byte	0x1
 740 0088 3F       		.uleb128 0x3f
 741 0089 19       		.uleb128 0x19
 742 008a 03       		.uleb128 0x3
 743 008b 0E       		.uleb128 0xe
 744 008c 3A       		.uleb128 0x3a
 745 008d 0B       		.uleb128 0xb
 746 008e 3B       		.uleb128 0x3b
 747 008f 0B       		.uleb128 0xb
 748 0090 27       		.uleb128 0x27
 749 0091 19       		.uleb128 0x19
 750 0092 11       		.uleb128 0x11
 751 0093 01       		.uleb128 0x1
 752 0094 12       		.uleb128 0x12
 753 0095 06       		.uleb128 0x6
 754 0096 40       		.uleb128 0x40
 755 0097 18       		.uleb128 0x18
 756 0098 9742     		.uleb128 0x2117
 757 009a 19       		.uleb128 0x19
 758 009b 01       		.uleb128 0x1
 759 009c 13       		.uleb128 0x13
 760 009d 00       		.byte	0
 761 009e 00       		.byte	0
 762 009f 0D       		.uleb128 0xd
 763 00a0 898201   		.uleb128 0x4109
 764 00a3 01       		.byte	0x1
 765 00a4 11       		.uleb128 0x11
 766 00a5 01       		.uleb128 0x1
 767 00a6 31       		.uleb128 0x31
 768 00a7 13       		.uleb128 0x13
 769 00a8 01       		.uleb128 0x1
 770 00a9 13       		.uleb128 0x13
 771 00aa 00       		.byte	0
 772 00ab 00       		.byte	0
 773 00ac 0E       		.uleb128 0xe
 774 00ad 8A8201   		.uleb128 0x410a
 775 00b0 00       		.byte	0
 776 00b1 02       		.uleb128 0x2
 777 00b2 18       		.uleb128 0x18
 778 00b3 9142     		.uleb128 0x2111
 779 00b5 18       		.uleb128 0x18
 780 00b6 00       		.byte	0
 781 00b7 00       		.byte	0
 782 00b8 0F       		.uleb128 0xf
 783 00b9 898201   		.uleb128 0x4109
 784 00bc 01       		.byte	0x1
 785 00bd 11       		.uleb128 0x11
 786 00be 01       		.uleb128 0x1
 787 00bf 9542     		.uleb128 0x2115
 788 00c1 19       		.uleb128 0x19
 789 00c2 31       		.uleb128 0x31
 790 00c3 13       		.uleb128 0x13
 791 00c4 00       		.byte	0
 792 00c5 00       		.byte	0
 793 00c6 10       		.uleb128 0x10
 794 00c7 05       		.uleb128 0x5
ARM GAS  C:\Users\jsyoon\AppData\Local\Temp\ccktiqkb.s 			page 15


 795 00c8 00       		.byte	0
 796 00c9 03       		.uleb128 0x3
 797 00ca 0E       		.uleb128 0xe
 798 00cb 3A       		.uleb128 0x3a
 799 00cc 0B       		.uleb128 0xb
 800 00cd 3B       		.uleb128 0x3b
 801 00ce 0B       		.uleb128 0xb
 802 00cf 49       		.uleb128 0x49
 803 00d0 13       		.uleb128 0x13
 804 00d1 02       		.uleb128 0x2
 805 00d2 17       		.uleb128 0x17
 806 00d3 00       		.byte	0
 807 00d4 00       		.byte	0
 808 00d5 11       		.uleb128 0x11
 809 00d6 34       		.uleb128 0x34
 810 00d7 00       		.byte	0
 811 00d8 03       		.uleb128 0x3
 812 00d9 0E       		.uleb128 0xe
 813 00da 3A       		.uleb128 0x3a
 814 00db 0B       		.uleb128 0xb
 815 00dc 3B       		.uleb128 0x3b
 816 00dd 0B       		.uleb128 0xb
 817 00de 49       		.uleb128 0x49
 818 00df 13       		.uleb128 0x13
 819 00e0 02       		.uleb128 0x2
 820 00e1 17       		.uleb128 0x17
 821 00e2 00       		.byte	0
 822 00e3 00       		.byte	0
 823 00e4 12       		.uleb128 0x12
 824 00e5 34       		.uleb128 0x34
 825 00e6 00       		.byte	0
 826 00e7 03       		.uleb128 0x3
 827 00e8 0E       		.uleb128 0xe
 828 00e9 3A       		.uleb128 0x3a
 829 00ea 0B       		.uleb128 0xb
 830 00eb 3B       		.uleb128 0x3b
 831 00ec 0B       		.uleb128 0xb
 832 00ed 49       		.uleb128 0x49
 833 00ee 13       		.uleb128 0x13
 834 00ef 02       		.uleb128 0x2
 835 00f0 18       		.uleb128 0x18
 836 00f1 00       		.byte	0
 837 00f2 00       		.byte	0
 838 00f3 13       		.uleb128 0x13
 839 00f4 2E       		.uleb128 0x2e
 840 00f5 00       		.byte	0
 841 00f6 3F       		.uleb128 0x3f
 842 00f7 19       		.uleb128 0x19
 843 00f8 03       		.uleb128 0x3
 844 00f9 0E       		.uleb128 0xe
 845 00fa 3A       		.uleb128 0x3a
 846 00fb 0B       		.uleb128 0xb
 847 00fc 3B       		.uleb128 0x3b
 848 00fd 0B       		.uleb128 0xb
 849 00fe 27       		.uleb128 0x27
 850 00ff 19       		.uleb128 0x19
 851 0100 11       		.uleb128 0x11
ARM GAS  C:\Users\jsyoon\AppData\Local\Temp\ccktiqkb.s 			page 16


 852 0101 01       		.uleb128 0x1
 853 0102 12       		.uleb128 0x12
 854 0103 06       		.uleb128 0x6
 855 0104 40       		.uleb128 0x40
 856 0105 18       		.uleb128 0x18
 857 0106 9742     		.uleb128 0x2117
 858 0108 19       		.uleb128 0x19
 859 0109 00       		.byte	0
 860 010a 00       		.byte	0
 861 010b 14       		.uleb128 0x14
 862 010c 2E       		.uleb128 0x2e
 863 010d 01       		.byte	0x1
 864 010e 3F       		.uleb128 0x3f
 865 010f 19       		.uleb128 0x19
 866 0110 03       		.uleb128 0x3
 867 0111 0E       		.uleb128 0xe
 868 0112 3A       		.uleb128 0x3a
 869 0113 0B       		.uleb128 0xb
 870 0114 3B       		.uleb128 0x3b
 871 0115 05       		.uleb128 0x5
 872 0116 27       		.uleb128 0x27
 873 0117 19       		.uleb128 0x19
 874 0118 49       		.uleb128 0x49
 875 0119 13       		.uleb128 0x13
 876 011a 11       		.uleb128 0x11
 877 011b 01       		.uleb128 0x1
 878 011c 12       		.uleb128 0x12
 879 011d 06       		.uleb128 0x6
 880 011e 40       		.uleb128 0x40
 881 011f 18       		.uleb128 0x18
 882 0120 9742     		.uleb128 0x2117
 883 0122 19       		.uleb128 0x19
 884 0123 01       		.uleb128 0x1
 885 0124 13       		.uleb128 0x13
 886 0125 00       		.byte	0
 887 0126 00       		.byte	0
 888 0127 15       		.uleb128 0x15
 889 0128 34       		.uleb128 0x34
 890 0129 00       		.byte	0
 891 012a 03       		.uleb128 0x3
 892 012b 0E       		.uleb128 0xe
 893 012c 3A       		.uleb128 0x3a
 894 012d 0B       		.uleb128 0xb
 895 012e 3B       		.uleb128 0x3b
 896 012f 05       		.uleb128 0x5
 897 0130 49       		.uleb128 0x49
 898 0131 13       		.uleb128 0x13
 899 0132 02       		.uleb128 0x2
 900 0133 17       		.uleb128 0x17
 901 0134 00       		.byte	0
 902 0135 00       		.byte	0
 903 0136 16       		.uleb128 0x16
 904 0137 2E       		.uleb128 0x2e
 905 0138 00       		.byte	0
 906 0139 3F       		.uleb128 0x3f
 907 013a 19       		.uleb128 0x19
 908 013b 03       		.uleb128 0x3
ARM GAS  C:\Users\jsyoon\AppData\Local\Temp\ccktiqkb.s 			page 17


 909 013c 0E       		.uleb128 0xe
 910 013d 3A       		.uleb128 0x3a
 911 013e 0B       		.uleb128 0xb
 912 013f 3B       		.uleb128 0x3b
 913 0140 05       		.uleb128 0x5
 914 0141 27       		.uleb128 0x27
 915 0142 19       		.uleb128 0x19
 916 0143 11       		.uleb128 0x11
 917 0144 01       		.uleb128 0x1
 918 0145 12       		.uleb128 0x12
 919 0146 06       		.uleb128 0x6
 920 0147 40       		.uleb128 0x40
 921 0148 18       		.uleb128 0x18
 922 0149 9742     		.uleb128 0x2117
 923 014b 19       		.uleb128 0x19
 924 014c 00       		.byte	0
 925 014d 00       		.byte	0
 926 014e 17       		.uleb128 0x17
 927 014f 34       		.uleb128 0x34
 928 0150 00       		.byte	0
 929 0151 03       		.uleb128 0x3
 930 0152 0E       		.uleb128 0xe
 931 0153 3A       		.uleb128 0x3a
 932 0154 0B       		.uleb128 0xb
 933 0155 3B       		.uleb128 0x3b
 934 0156 05       		.uleb128 0x5
 935 0157 49       		.uleb128 0x49
 936 0158 13       		.uleb128 0x13
 937 0159 3F       		.uleb128 0x3f
 938 015a 19       		.uleb128 0x19
 939 015b 3C       		.uleb128 0x3c
 940 015c 19       		.uleb128 0x19
 941 015d 00       		.byte	0
 942 015e 00       		.byte	0
 943 015f 18       		.uleb128 0x18
 944 0160 2E       		.uleb128 0x2e
 945 0161 01       		.byte	0x1
 946 0162 3F       		.uleb128 0x3f
 947 0163 19       		.uleb128 0x19
 948 0164 03       		.uleb128 0x3
 949 0165 0E       		.uleb128 0xe
 950 0166 3A       		.uleb128 0x3a
 951 0167 0B       		.uleb128 0xb
 952 0168 3B       		.uleb128 0x3b
 953 0169 05       		.uleb128 0x5
 954 016a 27       		.uleb128 0x27
 955 016b 19       		.uleb128 0x19
 956 016c 3C       		.uleb128 0x3c
 957 016d 19       		.uleb128 0x19
 958 016e 00       		.byte	0
 959 016f 00       		.byte	0
 960 0170 19       		.uleb128 0x19
 961 0171 05       		.uleb128 0x5
 962 0172 00       		.byte	0
 963 0173 49       		.uleb128 0x49
 964 0174 13       		.uleb128 0x13
 965 0175 00       		.byte	0
ARM GAS  C:\Users\jsyoon\AppData\Local\Temp\ccktiqkb.s 			page 18


 966 0176 00       		.byte	0
 967 0177 00       		.byte	0
 968              		.section	.debug_loc,"",%progbits
 969              	.Ldebug_loc0:
 970              	.LLST0:
 971 0000 00000000 		.4byte	.LVL2
 972 0004 0A000000 		.4byte	.LVL4
 973 0008 0100     		.2byte	0x1
 974 000a 50       		.byte	0x50
 975 000b 0A000000 		.4byte	.LVL4
 976 000f 14000000 		.4byte	.LFE112
 977 0013 0400     		.2byte	0x4
 978 0015 F3       		.byte	0xf3
 979 0016 01       		.uleb128 0x1
 980 0017 50       		.byte	0x50
 981 0018 9F       		.byte	0x9f
 982 0019 00000000 		.4byte	0
 983 001d 00000000 		.4byte	0
 984              	.LLST1:
 985 0021 00000000 		.4byte	.LVL2
 986 0025 08000000 		.4byte	.LVL3
 987 0029 0200     		.2byte	0x2
 988 002b 30       		.byte	0x30
 989 002c 9F       		.byte	0x9f
 990 002d 08000000 		.4byte	.LVL3
 991 0031 0A000000 		.4byte	.LVL4
 992 0035 0100     		.2byte	0x1
 993 0037 52       		.byte	0x52
 994 0038 0A000000 		.4byte	.LVL4
 995 003c 14000000 		.4byte	.LFE112
 996 0040 0100     		.2byte	0x1
 997 0042 50       		.byte	0x50
 998 0043 00000000 		.4byte	0
 999 0047 00000000 		.4byte	0
 1000              	.LLST2:
 1001 004b 00000000 		.4byte	.LVL5
 1002 004f 16000000 		.4byte	.LVL6
 1003 0053 0100     		.2byte	0x1
 1004 0055 50       		.byte	0x50
 1005 0056 16000000 		.4byte	.LVL6
 1006 005a 28000000 		.4byte	.LFE113
 1007 005e 0400     		.2byte	0x4
 1008 0060 F3       		.byte	0xf3
 1009 0061 01       		.uleb128 0x1
 1010 0062 50       		.byte	0x50
 1011 0063 9F       		.byte	0x9f
 1012 0064 00000000 		.4byte	0
 1013 0068 00000000 		.4byte	0
 1014              	.LLST3:
 1015 006c 00000000 		.4byte	.LVL7
 1016 0070 06000000 		.4byte	.LVL8
 1017 0074 0100     		.2byte	0x1
 1018 0076 50       		.byte	0x50
 1019 0077 06000000 		.4byte	.LVL8
 1020 007b 10000000 		.4byte	.LFE115
 1021 007f 0400     		.2byte	0x4
 1022 0081 F3       		.byte	0xf3
ARM GAS  C:\Users\jsyoon\AppData\Local\Temp\ccktiqkb.s 			page 19


 1023 0082 01       		.uleb128 0x1
 1024 0083 50       		.byte	0x50
 1025 0084 9F       		.byte	0x9f
 1026 0085 00000000 		.4byte	0
 1027 0089 00000000 		.4byte	0
 1028              	.LLST4:
 1029 008d 00000000 		.4byte	.LVL9
 1030 0091 06000000 		.4byte	.LVL10
 1031 0095 0100     		.2byte	0x1
 1032 0097 50       		.byte	0x50
 1033 0098 06000000 		.4byte	.LVL10
 1034 009c 10000000 		.4byte	.LFE116
 1035 00a0 0400     		.2byte	0x4
 1036 00a2 F3       		.byte	0xf3
 1037 00a3 01       		.uleb128 0x1
 1038 00a4 50       		.byte	0x50
 1039 00a5 9F       		.byte	0x9f
 1040 00a6 00000000 		.4byte	0
 1041 00aa 00000000 		.4byte	0
 1042              	.LLST5:
 1043 00ae 00000000 		.4byte	.LVL11
 1044 00b2 04000000 		.4byte	.LVL12
 1045 00b6 0200     		.2byte	0x2
 1046 00b8 30       		.byte	0x30
 1047 00b9 9F       		.byte	0x9f
 1048 00ba 04000000 		.4byte	.LVL12
 1049 00be 0A000000 		.4byte	.LVL13
 1050 00c2 0500     		.2byte	0x5
 1051 00c4 70       		.byte	0x70
 1052 00c5 00       		.sleb128 0
 1053 00c6 30       		.byte	0x30
 1054 00c7 2E       		.byte	0x2e
 1055 00c8 9F       		.byte	0x9f
 1056 00c9 00000000 		.4byte	0
 1057 00cd 00000000 		.4byte	0
 1058              		.section	.debug_aranges,"",%progbits
 1059 0000 54000000 		.4byte	0x54
 1060 0004 0200     		.2byte	0x2
 1061 0006 00000000 		.4byte	.Ldebug_info0
 1062 000a 04       		.byte	0x4
 1063 000b 00       		.byte	0
 1064 000c 0000     		.2byte	0
 1065 000e 0000     		.2byte	0
 1066 0010 00000000 		.4byte	.LFB111
 1067 0014 1A000000 		.4byte	.LFE111-.LFB111
 1068 0018 00000000 		.4byte	.LFB112
 1069 001c 14000000 		.4byte	.LFE112-.LFB112
 1070 0020 00000000 		.4byte	.LFB113
 1071 0024 28000000 		.4byte	.LFE113-.LFB113
 1072 0028 00000000 		.4byte	.LFB114
 1073 002c 0C000000 		.4byte	.LFE114-.LFB114
 1074 0030 00000000 		.4byte	.LFB115
 1075 0034 10000000 		.4byte	.LFE115-.LFB115
 1076 0038 00000000 		.4byte	.LFB116
 1077 003c 10000000 		.4byte	.LFE116-.LFB116
 1078 0040 00000000 		.4byte	.LFB117
 1079 0044 10000000 		.4byte	.LFE117-.LFB117
ARM GAS  C:\Users\jsyoon\AppData\Local\Temp\ccktiqkb.s 			page 20


 1080 0048 00000000 		.4byte	.LFB118
 1081 004c 0C000000 		.4byte	.LFE118-.LFB118
 1082 0050 00000000 		.4byte	0
 1083 0054 00000000 		.4byte	0
 1084              		.section	.debug_ranges,"",%progbits
 1085              	.Ldebug_ranges0:
 1086 0000 00000000 		.4byte	.LFB111
 1087 0004 1A000000 		.4byte	.LFE111
 1088 0008 00000000 		.4byte	.LFB112
 1089 000c 14000000 		.4byte	.LFE112
 1090 0010 00000000 		.4byte	.LFB113
 1091 0014 28000000 		.4byte	.LFE113
 1092 0018 00000000 		.4byte	.LFB114
 1093 001c 0C000000 		.4byte	.LFE114
 1094 0020 00000000 		.4byte	.LFB115
 1095 0024 10000000 		.4byte	.LFE115
 1096 0028 00000000 		.4byte	.LFB116
 1097 002c 10000000 		.4byte	.LFE116
 1098 0030 00000000 		.4byte	.LFB117
 1099 0034 10000000 		.4byte	.LFE117
 1100 0038 00000000 		.4byte	.LFB118
 1101 003c 0C000000 		.4byte	.LFE118
 1102 0040 00000000 		.4byte	0
 1103 0044 00000000 		.4byte	0
 1104              		.section	.debug_line,"",%progbits
 1105              	.Ldebug_line0:
 1106 0000 48020000 		.section	.debug_str,"MS",%progbits,1
 1106      0200AB01 
 1106      00000201 
 1106      FB0E0D00 
 1106      01010101 
 1107              	.LASF9:
 1108 0000 6C6F6E67 		.ascii	"long long int\000"
 1108      206C6F6E 
 1108      6720696E 
 1108      7400
 1109              	.LASF35:
 1110 000e 43686962 		.ascii	"ChibiOS_2.6.6/ext/stdperiph_stm32f4/src/stm32f4xx_w"
 1110      694F535F 
 1110      322E362E 
 1110      362F6578 
 1110      742F7374 
 1111 0041 7764672E 		.ascii	"wdg.c\000"
 1111      6300
 1112              	.LASF4:
 1113 0047 5F5F7569 		.ascii	"__uint8_t\000"
 1113      6E74385F 
 1113      7400
 1114              	.LASF34:
 1115 0051 474E5520 		.ascii	"GNU C 4.8.4 20140526 (release) [ARM/embedded-4_8-br"
 1115      4320342E 
 1115      382E3420 
 1115      32303134 
 1115      30353236 
 1116 0084 616E6368 		.ascii	"anch revision 211358] -mcpu=cortex-m4 -mfloat-abi=h"
 1116      20726576 
 1116      6973696F 
ARM GAS  C:\Users\jsyoon\AppData\Local\Temp\ccktiqkb.s 			page 21


 1116      6E203231 
 1116      31333538 
 1117 00b7 61726420 		.ascii	"ard -mfpu=fpv4-sp-d16 -mno-thumb-interwork -mthumb "
 1117      2D6D6670 
 1117      753D6670 
 1117      76342D73 
 1117      702D6431 
 1118 00ea 2D676764 		.ascii	"-ggdb -O2 -std=gnu99 -fomit-frame-pointer -falign-f"
 1118      62202D4F 
 1118      32202D73 
 1118      74643D67 
 1118      6E753939 
 1119 011d 756E6374 		.ascii	"unctions=16 -ffunction-sections -fdata-sections -fn"
 1119      696F6E73 
 1119      3D313620 
 1119      2D666675 
 1119      6E637469 
 1120 0150 6F2D636F 		.ascii	"o-common -fsingle-precision-constant\000"
 1120      6D6D6F6E 
 1120      202D6673 
 1120      696E676C 
 1120      652D7072 
 1121              	.LASF32:
 1122 0175 57574447 		.ascii	"WWDG_EnableIT\000"
 1122      5F456E61 
 1122      626C6549 
 1122      5400
 1123              	.LASF5:
 1124 0183 5F5F696E 		.ascii	"__int32_t\000"
 1124      7433325F 
 1124      7400
 1125              	.LASF3:
 1126 018d 73686F72 		.ascii	"short unsigned int\000"
 1126      7420756E 
 1126      7369676E 
 1126      65642069 
 1126      6E7400
 1127              	.LASF12:
 1128 01a0 75696E74 		.ascii	"uint8_t\000"
 1128      385F7400 
 1129              	.LASF21:
 1130 01a8 57574447 		.ascii	"WWDG_TypeDef\000"
 1130      5F547970 
 1130      65446566 
 1130      00
 1131              	.LASF31:
 1132 01b5 62697473 		.ascii	"bitstatus\000"
 1132      74617475 
 1132      7300
 1133              	.LASF17:
 1134 01bf 466C6167 		.ascii	"FlagStatus\000"
 1134      53746174 
 1134      757300
 1135              	.LASF30:
 1136 01ca 57574447 		.ascii	"WWDG_Enable\000"
 1136      5F456E61 
 1136      626C6500 
ARM GAS  C:\Users\jsyoon\AppData\Local\Temp\ccktiqkb.s 			page 22


 1137              	.LASF19:
 1138 01d6 454E4142 		.ascii	"ENABLE\000"
 1138      4C4500
 1139              	.LASF1:
 1140 01dd 756E7369 		.ascii	"unsigned char\000"
 1140      676E6564 
 1140      20636861 
 1140      7200
 1141              	.LASF39:
 1142 01eb 5243435F 		.ascii	"RCC_APB1PeriphResetCmd\000"
 1142      41504231 
 1142      50657269 
 1142      70685265 
 1142      73657443 
 1143              	.LASF8:
 1144 0202 6C6F6E67 		.ascii	"long unsigned int\000"
 1144      20756E73 
 1144      69676E65 
 1144      6420696E 
 1144      7400
 1145              	.LASF16:
 1146 0214 52455345 		.ascii	"RESET\000"
 1146      5400
 1147              	.LASF14:
 1148 021a 75696E74 		.ascii	"uint32_t\000"
 1148      33325F74 
 1148      00
 1149              	.LASF18:
 1150 0223 44495341 		.ascii	"DISABLE\000"
 1150      424C4500 
 1151              	.LASF7:
 1152 022b 5F5F7569 		.ascii	"__uint32_t\000"
 1152      6E743332 
 1152      5F7400
 1153              	.LASF20:
 1154 0236 46756E63 		.ascii	"FunctionalState\000"
 1154      74696F6E 
 1154      616C5374 
 1154      61746500 
 1155              	.LASF26:
 1156 0246 57696E64 		.ascii	"WindowValue\000"
 1156      6F775661 
 1156      6C756500 
 1157              	.LASF29:
 1158 0252 436F756E 		.ascii	"Counter\000"
 1158      74657200 
 1159              	.LASF38:
 1160 025a 49544D5F 		.ascii	"ITM_RxBuffer\000"
 1160      52784275 
 1160      66666572 
 1160      00
 1161              	.LASF11:
 1162 0267 756E7369 		.ascii	"unsigned int\000"
 1162      676E6564 
 1162      20696E74 
 1162      00
 1163              	.LASF10:
ARM GAS  C:\Users\jsyoon\AppData\Local\Temp\ccktiqkb.s 			page 23


 1164 0274 6C6F6E67 		.ascii	"long long unsigned int\000"
 1164      206C6F6E 
 1164      6720756E 
 1164      7369676E 
 1164      65642069 
 1165              	.LASF37:
 1166 028b 57574447 		.ascii	"WWDG_GetFlagStatus\000"
 1166      5F476574 
 1166      466C6167 
 1166      53746174 
 1166      757300
 1167              	.LASF23:
 1168 029e 57574447 		.ascii	"WWDG_SetPrescaler\000"
 1168      5F536574 
 1168      50726573 
 1168      63616C65 
 1168      7200
 1169              	.LASF13:
 1170 02b0 696E7433 		.ascii	"int32_t\000"
 1170      325F7400 
 1171              	.LASF15:
 1172 02b8 73697A65 		.ascii	"sizetype\000"
 1172      74797065 
 1172      00
 1173              	.LASF28:
 1174 02c1 57574447 		.ascii	"WWDG_SetCounter\000"
 1174      5F536574 
 1174      436F756E 
 1174      74657200 
 1175              	.LASF36:
 1176 02d1 453A5C4D 		.ascii	"E:\\Maker\\BLDC\\test_eval\\try2\\OROCA-BLDC_R15080"
 1176      616B6572 
 1176      5C424C44 
 1176      435C7465 
 1176      73745F65 
 1177 02ff 3700     		.ascii	"7\000"
 1178              	.LASF2:
 1179 0301 73686F72 		.ascii	"short int\000"
 1179      7420696E 
 1179      7400
 1180              	.LASF27:
 1181 030b 746D7072 		.ascii	"tmpreg\000"
 1181      656700
 1182              	.LASF33:
 1183 0312 57574447 		.ascii	"WWDG_ClearFlag\000"
 1183      5F436C65 
 1183      6172466C 
 1183      616700
 1184              	.LASF24:
 1185 0321 57574447 		.ascii	"WWDG_SetWindowValue\000"
 1185      5F536574 
 1185      57696E64 
 1185      6F775661 
 1185      6C756500 
 1186              	.LASF22:
 1187 0335 57574447 		.ascii	"WWDG_DeInit\000"
 1187      5F446549 
ARM GAS  C:\Users\jsyoon\AppData\Local\Temp\ccktiqkb.s 			page 24


 1187      6E697400 
 1188              	.LASF25:
 1189 0341 57574447 		.ascii	"WWDG_Prescaler\000"
 1189      5F507265 
 1189      7363616C 
 1189      657200
 1190              	.LASF6:
 1191 0350 6C6F6E67 		.ascii	"long int\000"
 1191      20696E74 
 1191      00
 1192              	.LASF0:
 1193 0359 7369676E 		.ascii	"signed char\000"
 1193      65642063 
 1193      68617200 
 1194              		.ident	"GCC: (GNU Tools for ARM Embedded Processors) 4.8.4 20140526 (release) [ARM/embedded-4_8-br
ARM GAS  C:\Users\jsyoon\AppData\Local\Temp\ccktiqkb.s 			page 25


DEFINED SYMBOLS
                            *ABS*:00000000 stm32f4xx_wwdg.c
C:\Users\jsyoon\AppData\Local\Temp\ccktiqkb.s:21     .text.WWDG_DeInit:00000000 $t
C:\Users\jsyoon\AppData\Local\Temp\ccktiqkb.s:27     .text.WWDG_DeInit:00000000 WWDG_DeInit
C:\Users\jsyoon\AppData\Local\Temp\ccktiqkb.s:55     .text.WWDG_SetPrescaler:00000000 $t
C:\Users\jsyoon\AppData\Local\Temp\ccktiqkb.s:61     .text.WWDG_SetPrescaler:00000000 WWDG_SetPrescaler
C:\Users\jsyoon\AppData\Local\Temp\ccktiqkb.s:83     .text.WWDG_SetPrescaler:00000010 $d
C:\Users\jsyoon\AppData\Local\Temp\ccktiqkb.s:88     .text.WWDG_SetWindowValue:00000000 $t
C:\Users\jsyoon\AppData\Local\Temp\ccktiqkb.s:94     .text.WWDG_SetWindowValue:00000000 WWDG_SetWindowValue
C:\Users\jsyoon\AppData\Local\Temp\ccktiqkb.s:129    .text.WWDG_SetWindowValue:00000024 $d
C:\Users\jsyoon\AppData\Local\Temp\ccktiqkb.s:134    .text.WWDG_EnableIT:00000000 $t
C:\Users\jsyoon\AppData\Local\Temp\ccktiqkb.s:140    .text.WWDG_EnableIT:00000000 WWDG_EnableIT
C:\Users\jsyoon\AppData\Local\Temp\ccktiqkb.s:155    .text.WWDG_EnableIT:00000008 $d
C:\Users\jsyoon\AppData\Local\Temp\ccktiqkb.s:160    .text.WWDG_SetCounter:00000000 $t
C:\Users\jsyoon\AppData\Local\Temp\ccktiqkb.s:166    .text.WWDG_SetCounter:00000000 WWDG_SetCounter
C:\Users\jsyoon\AppData\Local\Temp\ccktiqkb.s:183    .text.WWDG_SetCounter:0000000c $d
C:\Users\jsyoon\AppData\Local\Temp\ccktiqkb.s:188    .text.WWDG_Enable:00000000 $t
C:\Users\jsyoon\AppData\Local\Temp\ccktiqkb.s:194    .text.WWDG_Enable:00000000 WWDG_Enable
C:\Users\jsyoon\AppData\Local\Temp\ccktiqkb.s:211    .text.WWDG_Enable:0000000c $d
C:\Users\jsyoon\AppData\Local\Temp\ccktiqkb.s:216    .text.WWDG_GetFlagStatus:00000000 $t
C:\Users\jsyoon\AppData\Local\Temp\ccktiqkb.s:222    .text.WWDG_GetFlagStatus:00000000 WWDG_GetFlagStatus
C:\Users\jsyoon\AppData\Local\Temp\ccktiqkb.s:243    .text.WWDG_GetFlagStatus:0000000c $d
C:\Users\jsyoon\AppData\Local\Temp\ccktiqkb.s:248    .text.WWDG_ClearFlag:00000000 $t
C:\Users\jsyoon\AppData\Local\Temp\ccktiqkb.s:254    .text.WWDG_ClearFlag:00000000 WWDG_ClearFlag
C:\Users\jsyoon\AppData\Local\Temp\ccktiqkb.s:269    .text.WWDG_ClearFlag:00000008 $d
                     .debug_frame:00000010 $d
C:\Users\jsyoon\AppData\Local\Temp\ccktiqkb.s:87     .text.WWDG_SetPrescaler:00000014 $t
C:\Users\jsyoon\AppData\Local\Temp\ccktiqkb.s:133    .text.WWDG_SetWindowValue:00000028 $t
C:\Users\jsyoon\AppData\Local\Temp\ccktiqkb.s:159    .text.WWDG_EnableIT:0000000c $t
C:\Users\jsyoon\AppData\Local\Temp\ccktiqkb.s:273    .text.WWDG_ClearFlag:0000000c $t

UNDEFINED SYMBOLS
RCC_APB1PeriphResetCmd
