ARM GAS  C:\Users\jsyoon\AppData\Local\Temp\cch2rfk4.s 			page 1


   1              		.syntax unified
   2              		.cpu cortex-m4
   3              		.eabi_attribute 27, 3
   4              		.eabi_attribute 28, 1
   5              		.fpu fpv4-sp-d16
   6              		.eabi_attribute 20, 1
   7              		.eabi_attribute 21, 1
   8              		.eabi_attribute 23, 3
   9              		.eabi_attribute 24, 1
  10              		.eabi_attribute 25, 1
  11              		.eabi_attribute 26, 1
  12              		.eabi_attribute 30, 2
  13              		.eabi_attribute 34, 1
  14              		.eabi_attribute 18, 4
  15              		.thumb
  16              		.file	"stm32f4xx_spi.c"
  17              		.text
  18              	.Ltext0:
  19              		.cfi_sections	.debug_frame
  20              		.section	.text.SPI_I2S_DeInit,"ax",%progbits
  21              		.align	2
  22              		.p2align 4,,15
  23              		.global	SPI_I2S_DeInit
  24              		.thumb
  25              		.thumb_func
  26              		.type	SPI_I2S_DeInit, %function
  27              	SPI_I2S_DeInit:
  28              	.LFB111:
  29              		.file 1 "ChibiOS_2.6.6/ext/stdperiph_stm32f4/src/stm32f4xx_spi.c"
  30              		.loc 1 225 0
  31              		.cfi_startproc
  32              		@ args = 0, pretend = 0, frame = 0
  33              		@ frame_needed = 0, uses_anonymous_args = 0
  34              	.LVL0:
  35 0000 08B5     		push	{r3, lr}
  36              		.cfi_def_cfa_offset 8
  37              		.cfi_offset 3, -8
  38              		.cfi_offset 14, -4
  39              		.loc 1 229 0
  40 0002 174B     		ldr	r3, .L9
  41 0004 9842     		cmp	r0, r3
  42 0006 12D0     		beq	.L6
  43              		.loc 1 236 0
  44 0008 164B     		ldr	r3, .L9+4
  45 000a 9842     		cmp	r0, r3
  46 000c 1BD0     		beq	.L7
  47              		.loc 1 245 0
  48 000e 164B     		ldr	r3, .L9+8
  49 0010 9842     		cmp	r0, r3
  50 0012 00D0     		beq	.L8
  51 0014 08BD     		pop	{r3, pc}
  52              	.L8:
  53              		.loc 1 248 0
  54 0016 4FF40040 		mov	r0, #32768
  55              	.LVL1:
  56 001a 0121     		movs	r1, #1
  57 001c FFF7FEFF 		bl	RCC_APB1PeriphResetCmd
ARM GAS  C:\Users\jsyoon\AppData\Local\Temp\cch2rfk4.s 			page 2


  58              	.LVL2:
  59              		.loc 1 250 0
  60 0020 4FF40040 		mov	r0, #32768
  61 0024 0021     		movs	r1, #0
  62              		.loc 1 253 0
  63 0026 BDE80840 		pop	{r3, lr}
  64              		.loc 1 250 0
  65 002a FFF7FEBF 		b	RCC_APB1PeriphResetCmd
  66              	.LVL3:
  67              	.L6:
  68              		.loc 1 232 0
  69 002e 4FF48050 		mov	r0, #4096
  70              	.LVL4:
  71 0032 0121     		movs	r1, #1
  72 0034 FFF7FEFF 		bl	RCC_APB2PeriphResetCmd
  73              	.LVL5:
  74              		.loc 1 234 0
  75 0038 4FF48050 		mov	r0, #4096
  76 003c 0021     		movs	r1, #0
  77              		.loc 1 253 0
  78 003e BDE80840 		pop	{r3, lr}
  79              		.loc 1 234 0
  80 0042 FFF7FEBF 		b	RCC_APB2PeriphResetCmd
  81              	.LVL6:
  82              	.L7:
  83              		.loc 1 239 0
  84 0046 4FF48040 		mov	r0, #16384
  85              	.LVL7:
  86 004a 0121     		movs	r1, #1
  87 004c FFF7FEFF 		bl	RCC_APB1PeriphResetCmd
  88              	.LVL8:
  89              		.loc 1 241 0
  90 0050 4FF48040 		mov	r0, #16384
  91 0054 0021     		movs	r1, #0
  92              		.loc 1 253 0
  93 0056 BDE80840 		pop	{r3, lr}
  94              		.loc 1 241 0
  95 005a FFF7FEBF 		b	RCC_APB1PeriphResetCmd
  96              	.LVL9:
  97              	.L10:
  98 005e 00BF     		.align	2
  99              	.L9:
 100 0060 00300140 		.word	1073819648
 101 0064 00380040 		.word	1073756160
 102 0068 003C0040 		.word	1073757184
 103              		.cfi_endproc
 104              	.LFE111:
 105              		.size	SPI_I2S_DeInit, .-SPI_I2S_DeInit
 106 006c AFF30080 		.section	.text.SPI_Init,"ax",%progbits
 107              		.align	2
 108              		.p2align 4,,15
 109              		.global	SPI_Init
 110              		.thumb
 111              		.thumb_func
 112              		.type	SPI_Init, %function
 113              	SPI_Init:
 114              	.LFB112:
ARM GAS  C:\Users\jsyoon\AppData\Local\Temp\cch2rfk4.s 			page 3


 115              		.loc 1 264 0
 116              		.cfi_startproc
 117              		@ args = 0, pretend = 0, frame = 0
 118              		@ frame_needed = 0, uses_anonymous_args = 0
 119              		@ link register save eliminated.
 120              	.LVL10:
 121 0000 2DE9F007 		push	{r4, r5, r6, r7, r8, r9, r10}
 122              		.cfi_def_cfa_offset 28
 123              		.cfi_offset 4, -28
 124              		.cfi_offset 5, -24
 125              		.cfi_offset 6, -20
 126              		.cfi_offset 7, -16
 127              		.cfi_offset 8, -12
 128              		.cfi_offset 9, -8
 129              		.cfi_offset 10, -4
 130              		.loc 1 294 0
 131 0004 B1F802A0 		ldrh	r10, [r1, #2]
 132 0008 B1F80090 		ldrh	r9, [r1]
 133 000c B1F80480 		ldrh	r8, [r1, #4]
 134 0010 0F89     		ldrh	r7, [r1, #8]
 135 0012 4E89     		ldrh	r6, [r1, #10]
 136 0014 8D89     		ldrh	r5, [r1, #12]
 137 0016 CC89     		ldrh	r4, [r1, #14]
 138 0018 B1F806C0 		ldrh	ip, [r1, #6]
 139              		.loc 1 305 0
 140 001c 0A8A     		ldrh	r2, [r1, #16]
 141              		.loc 1 283 0
 142 001e 0388     		ldrh	r3, [r0]
 143              	.LVL11:
 144              		.loc 1 294 0
 145 0020 4AEA0901 		orr	r1, r10, r9
 146              	.LVL12:
 147 0024 41EA0801 		orr	r1, r1, r8
 148 0028 41EA0C01 		orr	r1, r1, ip
 149 002c 3943     		orrs	r1, r1, r7
 150 002e 3143     		orrs	r1, r1, r6
 151 0030 2943     		orrs	r1, r1, r5
 152 0032 2143     		orrs	r1, r1, r4
 153              		.loc 1 285 0
 154 0034 03F44153 		and	r3, r3, #12352
 155              	.LVL13:
 156              		.loc 1 294 0
 157 0038 0B43     		orrs	r3, r3, r1
 158              	.LVL14:
 159 003a 9BB2     		uxth	r3, r3
 160              	.LVL15:
 161              		.loc 1 299 0
 162 003c 0380     		strh	r3, [r0]	@ movhi
 163              		.loc 1 302 0
 164 003e 838B     		ldrh	r3, [r0, #28]
 165              	.LVL16:
 166 0040 23F40063 		bic	r3, r3, #2048
 167 0044 1B04     		lsls	r3, r3, #16
 168 0046 1B0C     		lsrs	r3, r3, #16
 169 0048 8383     		strh	r3, [r0, #28]	@ movhi
 170              		.loc 1 306 0
 171 004a BDE8F007 		pop	{r4, r5, r6, r7, r8, r9, r10}
ARM GAS  C:\Users\jsyoon\AppData\Local\Temp\cch2rfk4.s 			page 4


 172              		.loc 1 305 0
 173 004e 0282     		strh	r2, [r0, #16]	@ movhi
 174              		.loc 1 306 0
 175 0050 7047     		bx	lr
 176              		.cfi_endproc
 177              	.LFE112:
 178              		.size	SPI_Init, .-SPI_Init
 179 0052 00BFAFF3 		.section	.text.I2S_Init,"ax",%progbits
 179      0080AFF3 
 179      0080AFF3 
 179      0080
 180              		.align	2
 181              		.p2align 4,,15
 182              		.global	I2S_Init
 183              		.thumb
 184              		.thumb_func
 185              		.type	I2S_Init, %function
 186              	I2S_Init:
 187              	.LFB113:
 188              		.loc 1 328 0
 189              		.cfi_startproc
 190              		@ args = 0, pretend = 0, frame = 0
 191              		@ frame_needed = 0, uses_anonymous_args = 0
 192              		@ link register save eliminated.
 193              	.LVL17:
 194              		.loc 1 346 0
 195 0000 838B     		ldrh	r3, [r0, #28]
 196              		.loc 1 353 0
 197 0002 8A68     		ldr	r2, [r1, #8]
 198              		.loc 1 346 0
 199 0004 23F47B63 		bic	r3, r3, #4016
 200 0008 23F00F03 		bic	r3, r3, #15
 201 000c 1B04     		lsls	r3, r3, #16
 202              		.loc 1 328 0
 203 000e 2DE9F003 		push	{r4, r5, r6, r7, r8, r9}
 204              		.cfi_def_cfa_offset 24
 205              		.cfi_offset 4, -24
 206              		.cfi_offset 5, -20
 207              		.cfi_offset 6, -16
 208              		.cfi_offset 7, -12
 209              		.cfi_offset 8, -8
 210              		.cfi_offset 9, -4
 211              		.loc 1 346 0
 212 0012 1B0C     		lsrs	r3, r3, #16
 213              		.loc 1 347 0
 214 0014 0224     		movs	r4, #2
 215              		.loc 1 346 0
 216 0016 8383     		strh	r3, [r0, #28]	@ movhi
 217              		.loc 1 347 0
 218 0018 0484     		strh	r4, [r0, #32]	@ movhi
 219              		.loc 1 350 0
 220 001a B0F81CC0 		ldrh	ip, [r0, #28]
 221              		.loc 1 353 0
 222 001e A242     		cmp	r2, r4
 223              		.loc 1 350 0
 224 0020 1FFA8CFC 		uxth	ip, ip
 225              	.LVL18:
ARM GAS  C:\Users\jsyoon\AppData\Local\Temp\cch2rfk4.s 			page 5


 226              		.loc 1 353 0
 227 0024 52D0     		beq	.L26
 228              		.loc 1 389 0
 229 0026 2B4B     		ldr	r3, .L28
 230              		.loc 1 362 0
 231 0028 8C88     		ldrh	r4, [r1, #4]
 232              		.loc 1 389 0
 233 002a 9D68     		ldr	r5, [r3, #8]
 234              		.loc 1 370 0
 235 002c 002C     		cmp	r4, #0
 236 002e 0CBF     		ite	eq
 237 0030 4FF00108 		moveq	r8, #1
 238 0034 4FF00208 		movne	r8, #2
 239              	.LVL19:
 240              		.loc 1 389 0
 241 0038 2D02     		lsls	r5, r5, #8
 242 003a 42D4     		bmi	.L27
 243              	.L16:
 244              		.loc 1 395 0
 245 003c 254B     		ldr	r3, .L28
 246              		.loc 1 406 0
 247 003e DFF89C90 		ldr	r9, .L28+8
 248              		.loc 1 395 0
 249 0042 D3F88450 		ldr	r5, [r3, #132]
 250              	.LVL20:
 251              		.loc 1 399 0
 252 0046 D3F88460 		ldr	r6, [r3, #132]
 253              	.LVL21:
 254              		.loc 1 403 0
 255 004a 5F68     		ldr	r7, [r3, #4]
 256              	.LVL22:
 257              		.loc 1 410 0
 258 004c CB88     		ldrh	r3, [r1, #6]
 259              		.loc 1 403 0
 260 004e 07F03F07 		and	r7, r7, #63
 261              	.LVL23:
 262              		.loc 1 395 0
 263 0052 C5F38815 		ubfx	r5, r5, #6, #9
 264              	.LVL24:
 265              		.loc 1 406 0
 266 0056 B9FBF7F7 		udiv	r7, r9, r7
 267              	.LVL25:
 268              		.loc 1 410 0
 269 005a B3F5007F 		cmp	r3, #512
 270              		.loc 1 399 0
 271 005e C6F30276 		ubfx	r6, r6, #28, #3
 272              	.LVL26:
 273              		.loc 1 406 0
 274 0062 05FB07F5 		mul	r5, r5, r7
 275 0066 B5FBF6F5 		udiv	r5, r5, r6
 276              	.LVL27:
 277              		.loc 1 418 0
 278 006a 16BF     		itet	ne
 279 006c 4FEA4818 		lslne	r8, r8, #5
 280              	.LVL28:
 281              		.loc 1 413 0
 282 0070 2D0A     		lsreq	r5, r5, #8
ARM GAS  C:\Users\jsyoon\AppData\Local\Temp\cch2rfk4.s 			page 6


 283              	.LVL29:
 284              		.loc 1 418 0
 285 0072 B5FBF8F5 		udivne	r5, r5, r8
 286 0076 05EB8505 		add	r5, r5, r5, lsl #2
 287 007a 6D00     		lsls	r5, r5, #1
 288 007c B5FBF2F2 		udiv	r2, r5, r2
 289 0080 0532     		adds	r2, r2, #5
 290              		.loc 1 422 0
 291 0082 154D     		ldr	r5, .L28+4
 292              		.loc 1 418 0
 293 0084 92B2     		uxth	r2, r2
 294              	.LVL30:
 295              		.loc 1 422 0
 296 0086 A5FB0262 		umull	r6, r2, r5, r2
 297              	.LVL31:
 298 008a D208     		lsrs	r2, r2, #3
 299              	.LVL32:
 300              		.loc 1 428 0
 301 008c 5508     		lsrs	r5, r2, #1
 302              		.loc 1 435 0
 303 008e AE1E     		subs	r6, r5, #2
 304              		.loc 1 428 0
 305 0090 02F00102 		and	r2, r2, #1
 306              	.LVL33:
 307              		.loc 1 435 0
 308 0094 FD2E     		cmp	r6, #253
 309 0096 94BF     		ite	ls
 310 0098 45EA0222 		orrls	r2, r5, r2, lsl #8
 311              	.LVL34:
 312 009c 0222     		movhi	r2, #2
 313              	.LVL35:
 314              	.L19:
 315              		.loc 1 447 0
 316 009e 0F88     		ldrh	r7, [r1]
 317              		.loc 1 446 0
 318 00a0 4E88     		ldrh	r6, [r1, #2]
 319 00a2 8D89     		ldrh	r5, [r1, #12]
 320              		.loc 1 447 0
 321 00a4 4CEA0701 		orr	r1, ip, r7
 322              	.LVL36:
 323 00a8 41F40061 		orr	r1, r1, #2048
 324              		.loc 1 446 0
 325 00ac 3143     		orrs	r1, r1, r6
 326 00ae 2943     		orrs	r1, r1, r5
 327              		.loc 1 443 0
 328 00b0 1343     		orrs	r3, r3, r2
 329              		.loc 1 446 0
 330 00b2 89B2     		uxth	r1, r1
 331 00b4 0C43     		orrs	r4, r4, r1
 332              	.LVL37:
 333              		.loc 1 443 0
 334 00b6 9BB2     		uxth	r3, r3
 335 00b8 0384     		strh	r3, [r0, #32]	@ movhi
 336              		.loc 1 451 0
 337 00ba 8483     		strh	r4, [r0, #28]	@ movhi
 338              		.loc 1 452 0
 339 00bc BDE8F003 		pop	{r4, r5, r6, r7, r8, r9}
ARM GAS  C:\Users\jsyoon\AppData\Local\Temp\cch2rfk4.s 			page 7


 340              	.LVL38:
 341 00c0 7047     		bx	lr
 342              	.LVL39:
 343              	.L27:
 344              		.loc 1 391 0
 345 00c2 9D68     		ldr	r5, [r3, #8]
 346 00c4 25F40005 		bic	r5, r5, #8388608
 347 00c8 9D60     		str	r5, [r3, #8]
 348 00ca B7E7     		b	.L16
 349              	.LVL40:
 350              	.L26:
 351 00cc 8C88     		ldrh	r4, [r1, #4]
 352 00ce CB88     		ldrh	r3, [r1, #6]
 353 00d0 E5E7     		b	.L19
 354              	.L29:
 355 00d2 00BF     		.align	2
 356              	.L28:
 357 00d4 00380240 		.word	1073887232
 358 00d8 CDCCCCCC 		.word	-858993459
 359 00dc 00127A00 		.word	8000000
 360              		.cfi_endproc
 361              	.LFE113:
 362              		.size	I2S_Init, .-I2S_Init
 363              		.section	.text.SPI_StructInit,"ax",%progbits
 364              		.align	2
 365              		.p2align 4,,15
 366              		.global	SPI_StructInit
 367              		.thumb
 368              		.thumb_func
 369              		.type	SPI_StructInit, %function
 370              	SPI_StructInit:
 371              	.LFB114:
 372              		.loc 1 460 0
 373              		.cfi_startproc
 374              		@ args = 0, pretend = 0, frame = 0
 375              		@ frame_needed = 0, uses_anonymous_args = 0
 376              		@ link register save eliminated.
 377              	.LVL41:
 378              		.loc 1 463 0
 379 0000 0023     		movs	r3, #0
 380              		.loc 1 479 0
 381 0002 0722     		movs	r2, #7
 382 0004 0282     		strh	r2, [r0, #16]	@ movhi
 383              		.loc 1 463 0
 384 0006 0380     		strh	r3, [r0]	@ movhi
 385              		.loc 1 465 0
 386 0008 4380     		strh	r3, [r0, #2]	@ movhi
 387              		.loc 1 467 0
 388 000a 8380     		strh	r3, [r0, #4]	@ movhi
 389              		.loc 1 469 0
 390 000c C380     		strh	r3, [r0, #6]	@ movhi
 391              		.loc 1 471 0
 392 000e 0381     		strh	r3, [r0, #8]	@ movhi
 393              		.loc 1 473 0
 394 0010 4381     		strh	r3, [r0, #10]	@ movhi
 395              		.loc 1 475 0
 396 0012 8381     		strh	r3, [r0, #12]	@ movhi
ARM GAS  C:\Users\jsyoon\AppData\Local\Temp\cch2rfk4.s 			page 8


 397              		.loc 1 477 0
 398 0014 C381     		strh	r3, [r0, #14]	@ movhi
 399 0016 7047     		bx	lr
 400              		.cfi_endproc
 401              	.LFE114:
 402              		.size	SPI_StructInit, .-SPI_StructInit
 403              		.section	.text.I2S_StructInit,"ax",%progbits
 404              		.align	2
 405              		.p2align 4,,15
 406              		.global	I2S_StructInit
 407              		.thumb
 408              		.thumb_func
 409              		.type	I2S_StructInit, %function
 410              	I2S_StructInit:
 411              	.LFB115:
 412              		.loc 1 488 0
 413              		.cfi_startproc
 414              		@ args = 0, pretend = 0, frame = 0
 415              		@ frame_needed = 0, uses_anonymous_args = 0
 416              		@ link register save eliminated.
 417              	.LVL42:
 418              		.loc 1 491 0
 419 0000 0023     		movs	r3, #0
 420              		.loc 1 503 0
 421 0002 0222     		movs	r2, #2
 422 0004 8260     		str	r2, [r0, #8]
 423              		.loc 1 491 0
 424 0006 0380     		strh	r3, [r0]	@ movhi
 425              		.loc 1 494 0
 426 0008 4380     		strh	r3, [r0, #2]	@ movhi
 427              		.loc 1 497 0
 428 000a 8380     		strh	r3, [r0, #4]	@ movhi
 429              		.loc 1 500 0
 430 000c C380     		strh	r3, [r0, #6]	@ movhi
 431              		.loc 1 506 0
 432 000e 8381     		strh	r3, [r0, #12]	@ movhi
 433 0010 7047     		bx	lr
 434              		.cfi_endproc
 435              	.LFE115:
 436              		.size	I2S_StructInit, .-I2S_StructInit
 437 0012 00BFAFF3 		.section	.text.SPI_Cmd,"ax",%progbits
 437      0080AFF3 
 437      0080AFF3 
 437      0080
 438              		.align	2
 439              		.p2align 4,,15
 440              		.global	SPI_Cmd
 441              		.thumb
 442              		.thumb_func
 443              		.type	SPI_Cmd, %function
 444              	SPI_Cmd:
 445              	.LFB116:
 446              		.loc 1 517 0
 447              		.cfi_startproc
 448              		@ args = 0, pretend = 0, frame = 0
 449              		@ frame_needed = 0, uses_anonymous_args = 0
 450              		@ link register save eliminated.
ARM GAS  C:\Users\jsyoon\AppData\Local\Temp\cch2rfk4.s 			page 9


 451              	.LVL43:
 452              		.loc 1 524 0
 453 0000 0388     		ldrh	r3, [r0]
 454              		.loc 1 521 0
 455 0002 29B9     		cbnz	r1, .L35
 456              		.loc 1 529 0
 457 0004 23F04003 		bic	r3, r3, #64
 458 0008 1B04     		lsls	r3, r3, #16
 459 000a 1B0C     		lsrs	r3, r3, #16
 460 000c 0380     		strh	r3, [r0]	@ movhi
 461 000e 7047     		bx	lr
 462              	.L35:
 463              		.loc 1 524 0
 464 0010 9BB2     		uxth	r3, r3
 465 0012 43F04003 		orr	r3, r3, #64
 466 0016 0380     		strh	r3, [r0]	@ movhi
 467 0018 7047     		bx	lr
 468              		.cfi_endproc
 469              	.LFE116:
 470              		.size	SPI_Cmd, .-SPI_Cmd
 471 001a 00BFAFF3 		.section	.text.I2S_Cmd,"ax",%progbits
 471      0080
 472              		.align	2
 473              		.p2align 4,,15
 474              		.global	I2S_Cmd
 475              		.thumb
 476              		.thumb_func
 477              		.type	I2S_Cmd, %function
 478              	I2S_Cmd:
 479              	.LFB117:
 480              		.loc 1 542 0
 481              		.cfi_startproc
 482              		@ args = 0, pretend = 0, frame = 0
 483              		@ frame_needed = 0, uses_anonymous_args = 0
 484              		@ link register save eliminated.
 485              	.LVL44:
 486              		.loc 1 550 0
 487 0000 838B     		ldrh	r3, [r0, #28]
 488              		.loc 1 547 0
 489 0002 29B9     		cbnz	r1, .L39
 490              		.loc 1 555 0
 491 0004 23F48063 		bic	r3, r3, #1024
 492 0008 1B04     		lsls	r3, r3, #16
 493 000a 1B0C     		lsrs	r3, r3, #16
 494 000c 8383     		strh	r3, [r0, #28]	@ movhi
 495 000e 7047     		bx	lr
 496              	.L39:
 497              		.loc 1 550 0
 498 0010 9BB2     		uxth	r3, r3
 499 0012 43F48063 		orr	r3, r3, #1024
 500 0016 8383     		strh	r3, [r0, #28]	@ movhi
 501 0018 7047     		bx	lr
 502              		.cfi_endproc
 503              	.LFE117:
 504              		.size	I2S_Cmd, .-I2S_Cmd
 505 001a 00BFAFF3 		.section	.text.SPI_DataSizeConfig,"ax",%progbits
 505      0080
ARM GAS  C:\Users\jsyoon\AppData\Local\Temp\cch2rfk4.s 			page 10


 506              		.align	2
 507              		.p2align 4,,15
 508              		.global	SPI_DataSizeConfig
 509              		.thumb
 510              		.thumb_func
 511              		.type	SPI_DataSizeConfig, %function
 512              	SPI_DataSizeConfig:
 513              	.LFB118:
 514              		.loc 1 569 0
 515              		.cfi_startproc
 516              		@ args = 0, pretend = 0, frame = 0
 517              		@ frame_needed = 0, uses_anonymous_args = 0
 518              		@ link register save eliminated.
 519              	.LVL45:
 520              		.loc 1 574 0
 521 0000 0388     		ldrh	r3, [r0]
 522 0002 23F40063 		bic	r3, r3, #2048
 523 0006 1B04     		lsls	r3, r3, #16
 524 0008 1B0C     		lsrs	r3, r3, #16
 525 000a 0380     		strh	r3, [r0]	@ movhi
 526              		.loc 1 576 0
 527 000c 0388     		ldrh	r3, [r0]
 528 000e 9BB2     		uxth	r3, r3
 529 0010 1943     		orrs	r1, r1, r3
 530              	.LVL46:
 531 0012 0180     		strh	r1, [r0]	@ movhi
 532 0014 7047     		bx	lr
 533              		.cfi_endproc
 534              	.LFE118:
 535              		.size	SPI_DataSizeConfig, .-SPI_DataSizeConfig
 536 0016 00BFAFF3 		.section	.text.SPI_BiDirectionalLineConfig,"ax",%progbits
 536      0080AFF3 
 536      0080
 537              		.align	2
 538              		.p2align 4,,15
 539              		.global	SPI_BiDirectionalLineConfig
 540              		.thumb
 541              		.thumb_func
 542              		.type	SPI_BiDirectionalLineConfig, %function
 543              	SPI_BiDirectionalLineConfig:
 544              	.LFB119:
 545              		.loc 1 589 0
 546              		.cfi_startproc
 547              		@ args = 0, pretend = 0, frame = 0
 548              		@ frame_needed = 0, uses_anonymous_args = 0
 549              		@ link register save eliminated.
 550              	.LVL47:
 551              		.loc 1 593 0
 552 0000 B1F5804F 		cmp	r1, #16384
 553              		.loc 1 596 0
 554 0004 0388     		ldrh	r3, [r0]
 555              		.loc 1 593 0
 556 0006 05D0     		beq	.L44
 557              		.loc 1 601 0
 558 0008 23F48043 		bic	r3, r3, #16384
 559 000c 1B04     		lsls	r3, r3, #16
 560 000e 1B0C     		lsrs	r3, r3, #16
ARM GAS  C:\Users\jsyoon\AppData\Local\Temp\cch2rfk4.s 			page 11


 561 0010 0380     		strh	r3, [r0]	@ movhi
 562 0012 7047     		bx	lr
 563              	.L44:
 564              		.loc 1 596 0
 565 0014 9BB2     		uxth	r3, r3
 566 0016 43F48043 		orr	r3, r3, #16384
 567 001a 0380     		strh	r3, [r0]	@ movhi
 568 001c 7047     		bx	lr
 569              		.cfi_endproc
 570              	.LFE119:
 571              		.size	SPI_BiDirectionalLineConfig, .-SPI_BiDirectionalLineConfig
 572 001e 00BF     		.section	.text.SPI_NSSInternalSoftwareConfig,"ax",%progbits
 573              		.align	2
 574              		.p2align 4,,15
 575              		.global	SPI_NSSInternalSoftwareConfig
 576              		.thumb
 577              		.thumb_func
 578              		.type	SPI_NSSInternalSoftwareConfig, %function
 579              	SPI_NSSInternalSoftwareConfig:
 580              	.LFB120:
 581              		.loc 1 615 0
 582              		.cfi_startproc
 583              		@ args = 0, pretend = 0, frame = 0
 584              		@ frame_needed = 0, uses_anonymous_args = 0
 585              		@ link register save eliminated.
 586              	.LVL48:
 587              		.loc 1 619 0
 588 0000 4FF6FF63 		movw	r3, #65279
 589 0004 9942     		cmp	r1, r3
 590              		.loc 1 622 0
 591 0006 0388     		ldrh	r3, [r0]
 592              		.loc 1 619 0
 593 0008 04D0     		beq	.L46
 594              		.loc 1 622 0
 595 000a 9BB2     		uxth	r3, r3
 596 000c 43F48073 		orr	r3, r3, #256
 597 0010 0380     		strh	r3, [r0]	@ movhi
 598 0012 7047     		bx	lr
 599              	.L46:
 600              		.loc 1 627 0
 601 0014 23F48073 		bic	r3, r3, #256
 602 0018 1B04     		lsls	r3, r3, #16
 603 001a 1B0C     		lsrs	r3, r3, #16
 604 001c 0380     		strh	r3, [r0]	@ movhi
 605 001e 7047     		bx	lr
 606              		.cfi_endproc
 607              	.LFE120:
 608              		.size	SPI_NSSInternalSoftwareConfig, .-SPI_NSSInternalSoftwareConfig
 609              		.section	.text.SPI_SSOutputCmd,"ax",%progbits
 610              		.align	2
 611              		.p2align 4,,15
 612              		.global	SPI_SSOutputCmd
 613              		.thumb
 614              		.thumb_func
 615              		.type	SPI_SSOutputCmd, %function
 616              	SPI_SSOutputCmd:
 617              	.LFB121:
ARM GAS  C:\Users\jsyoon\AppData\Local\Temp\cch2rfk4.s 			page 12


 618              		.loc 1 639 0
 619              		.cfi_startproc
 620              		@ args = 0, pretend = 0, frame = 0
 621              		@ frame_needed = 0, uses_anonymous_args = 0
 622              		@ link register save eliminated.
 623              	.LVL49:
 624              		.loc 1 646 0
 625 0000 8388     		ldrh	r3, [r0, #4]
 626              		.loc 1 643 0
 627 0002 29B9     		cbnz	r1, .L51
 628              		.loc 1 651 0
 629 0004 23F00403 		bic	r3, r3, #4
 630 0008 1B04     		lsls	r3, r3, #16
 631 000a 1B0C     		lsrs	r3, r3, #16
 632 000c 8380     		strh	r3, [r0, #4]	@ movhi
 633 000e 7047     		bx	lr
 634              	.L51:
 635              		.loc 1 646 0
 636 0010 9BB2     		uxth	r3, r3
 637 0012 43F00403 		orr	r3, r3, #4
 638 0016 8380     		strh	r3, [r0, #4]	@ movhi
 639 0018 7047     		bx	lr
 640              		.cfi_endproc
 641              	.LFE121:
 642              		.size	SPI_SSOutputCmd, .-SPI_SSOutputCmd
 643 001a 00BFAFF3 		.section	.text.SPI_TIModeCmd,"ax",%progbits
 643      0080
 644              		.align	2
 645              		.p2align 4,,15
 646              		.global	SPI_TIModeCmd
 647              		.thumb
 648              		.thumb_func
 649              		.type	SPI_TIModeCmd, %function
 650              	SPI_TIModeCmd:
 651              	.LFB122:
 652              		.loc 1 670 0
 653              		.cfi_startproc
 654              		@ args = 0, pretend = 0, frame = 0
 655              		@ frame_needed = 0, uses_anonymous_args = 0
 656              		@ link register save eliminated.
 657              	.LVL50:
 658              		.loc 1 678 0
 659 0000 8388     		ldrh	r3, [r0, #4]
 660              		.loc 1 675 0
 661 0002 29B9     		cbnz	r1, .L55
 662              		.loc 1 683 0
 663 0004 23F01003 		bic	r3, r3, #16
 664 0008 1B04     		lsls	r3, r3, #16
 665 000a 1B0C     		lsrs	r3, r3, #16
 666 000c 8380     		strh	r3, [r0, #4]	@ movhi
 667 000e 7047     		bx	lr
 668              	.L55:
 669              		.loc 1 678 0
 670 0010 9BB2     		uxth	r3, r3
 671 0012 43F01003 		orr	r3, r3, #16
 672 0016 8380     		strh	r3, [r0, #4]	@ movhi
 673 0018 7047     		bx	lr
ARM GAS  C:\Users\jsyoon\AppData\Local\Temp\cch2rfk4.s 			page 13


 674              		.cfi_endproc
 675              	.LFE122:
 676              		.size	SPI_TIModeCmd, .-SPI_TIModeCmd
 677 001a 00BFAFF3 		.section	.text.I2S_FullDuplexConfig,"ax",%progbits
 677      0080
 678              		.align	2
 679              		.p2align 4,,15
 680              		.global	I2S_FullDuplexConfig
 681              		.thumb
 682              		.thumb_func
 683              		.type	I2S_FullDuplexConfig, %function
 684              	I2S_FullDuplexConfig:
 685              	.LFB123:
 686              		.loc 1 707 0
 687              		.cfi_startproc
 688              		@ args = 0, pretend = 0, frame = 0
 689              		@ frame_needed = 0, uses_anonymous_args = 0
 690              		@ link register save eliminated.
 691              	.LVL51:
 692              		.loc 1 719 0
 693 0000 838B     		ldrh	r3, [r0, #28]
 694 0002 23F47B63 		bic	r3, r3, #4016
 695 0006 23F00F03 		bic	r3, r3, #15
 696 000a 1B04     		lsls	r3, r3, #16
 697              		.loc 1 720 0
 698 000c 0222     		movs	r2, #2
 699              		.loc 1 719 0
 700 000e 1B0C     		lsrs	r3, r3, #16
 701 0010 8383     		strh	r3, [r0, #28]	@ movhi
 702              		.loc 1 720 0
 703 0012 0284     		strh	r2, [r0, #32]	@ movhi
 704              		.loc 1 723 0
 705 0014 838B     		ldrh	r3, [r0, #28]
 706              		.loc 1 726 0
 707 0016 0A88     		ldrh	r2, [r1]
 708              		.loc 1 707 0
 709 0018 30B4     		push	{r4, r5}
 710              		.cfi_def_cfa_offset 8
 711              		.cfi_offset 4, -8
 712              		.cfi_offset 5, -4
 713              		.loc 1 741 0
 714 001a 4D88     		ldrh	r5, [r1, #2]
 715              		.loc 1 740 0
 716 001c 8C88     		ldrh	r4, [r1, #4]
 717 001e 8989     		ldrh	r1, [r1, #12]
 718              	.LVL52:
 719              		.loc 1 723 0
 720 0020 9BB2     		uxth	r3, r3
 721              	.LVL53:
 722              		.loc 1 741 0
 723 0022 2B43     		orrs	r3, r3, r5
 724              	.LVL54:
 725 0024 43F40063 		orr	r3, r3, #2048
 726              		.loc 1 726 0
 727 0028 22F40072 		bic	r2, r2, #512
 728              		.loc 1 740 0
 729 002c 2343     		orrs	r3, r3, r4
ARM GAS  C:\Users\jsyoon\AppData\Local\Temp\cch2rfk4.s 			page 14


 730              		.loc 1 726 0
 731 002e 92B2     		uxth	r2, r2
 732              		.loc 1 740 0
 733 0030 0B43     		orrs	r3, r3, r1
 734              		.loc 1 726 0
 735 0032 002A     		cmp	r2, #0
 736              		.loc 1 740 0
 737 0034 9BB2     		uxth	r3, r3
 738              		.loc 1 728 0
 739 0036 14BF     		ite	ne
 740 0038 0022     		movne	r2, #0
 741 003a 4FF48072 		moveq	r2, #256
 742              	.LVL55:
 743              		.loc 1 740 0
 744 003e 1343     		orrs	r3, r3, r2
 745              	.LVL56:
 746              		.loc 1 745 0
 747 0040 8383     		strh	r3, [r0, #28]	@ movhi
 748              		.loc 1 746 0
 749 0042 30BC     		pop	{r4, r5}
 750 0044 7047     		bx	lr
 751              		.cfi_endproc
 752              	.LFE123:
 753              		.size	I2S_FullDuplexConfig, .-I2S_FullDuplexConfig
 754 0046 00BFAFF3 		.section	.text.SPI_I2S_ReceiveData,"ax",%progbits
 754      0080AFF3 
 754      0080
 755              		.align	2
 756              		.p2align 4,,15
 757              		.global	SPI_I2S_ReceiveData
 758              		.thumb
 759              		.thumb_func
 760              		.type	SPI_I2S_ReceiveData, %function
 761              	SPI_I2S_ReceiveData:
 762              	.LFB124:
 763              		.loc 1 782 0
 764              		.cfi_startproc
 765              		@ args = 0, pretend = 0, frame = 0
 766              		@ frame_needed = 0, uses_anonymous_args = 0
 767              		@ link register save eliminated.
 768              	.LVL57:
 769              		.loc 1 787 0
 770 0000 8089     		ldrh	r0, [r0, #12]
 771              	.LVL58:
 772              		.loc 1 788 0
 773 0002 80B2     		uxth	r0, r0
 774 0004 7047     		bx	lr
 775              		.cfi_endproc
 776              	.LFE124:
 777              		.size	SPI_I2S_ReceiveData, .-SPI_I2S_ReceiveData
 778 0006 00BFAFF3 		.section	.text.SPI_I2S_SendData,"ax",%progbits
 778      0080AFF3 
 778      0080
 779              		.align	2
 780              		.p2align 4,,15
 781              		.global	SPI_I2S_SendData
 782              		.thumb
ARM GAS  C:\Users\jsyoon\AppData\Local\Temp\cch2rfk4.s 			page 15


 783              		.thumb_func
 784              		.type	SPI_I2S_SendData, %function
 785              	SPI_I2S_SendData:
 786              	.LFB125:
 787              		.loc 1 798 0
 788              		.cfi_startproc
 789              		@ args = 0, pretend = 0, frame = 0
 790              		@ frame_needed = 0, uses_anonymous_args = 0
 791              		@ link register save eliminated.
 792              	.LVL59:
 793              		.loc 1 803 0
 794 0000 8181     		strh	r1, [r0, #12]	@ movhi
 795 0002 7047     		bx	lr
 796              		.cfi_endproc
 797              	.LFE125:
 798              		.size	SPI_I2S_SendData, .-SPI_I2S_SendData
 799 0004 AFF30080 		.section	.text.SPI_CalculateCRC,"ax",%progbits
 799      AFF30080 
 799      AFF30080 
 800              		.align	2
 801              		.p2align 4,,15
 802              		.global	SPI_CalculateCRC
 803              		.thumb
 804              		.thumb_func
 805              		.type	SPI_CalculateCRC, %function
 806              	SPI_CalculateCRC:
 807              	.LFB126:
 808              		.loc 1 887 0
 809              		.cfi_startproc
 810              		@ args = 0, pretend = 0, frame = 0
 811              		@ frame_needed = 0, uses_anonymous_args = 0
 812              		@ link register save eliminated.
 813              	.LVL60:
 814              		.loc 1 894 0
 815 0000 0388     		ldrh	r3, [r0]
 816              		.loc 1 891 0
 817 0002 29B9     		cbnz	r1, .L64
 818              		.loc 1 899 0
 819 0004 23F40053 		bic	r3, r3, #8192
 820 0008 1B04     		lsls	r3, r3, #16
 821 000a 1B0C     		lsrs	r3, r3, #16
 822 000c 0380     		strh	r3, [r0]	@ movhi
 823 000e 7047     		bx	lr
 824              	.L64:
 825              		.loc 1 894 0
 826 0010 9BB2     		uxth	r3, r3
 827 0012 43F40053 		orr	r3, r3, #8192
 828 0016 0380     		strh	r3, [r0]	@ movhi
 829 0018 7047     		bx	lr
 830              		.cfi_endproc
 831              	.LFE126:
 832              		.size	SPI_CalculateCRC, .-SPI_CalculateCRC
 833 001a 00BFAFF3 		.section	.text.SPI_TransmitCRC,"ax",%progbits
 833      0080
 834              		.align	2
 835              		.p2align 4,,15
 836              		.global	SPI_TransmitCRC
ARM GAS  C:\Users\jsyoon\AppData\Local\Temp\cch2rfk4.s 			page 16


 837              		.thumb
 838              		.thumb_func
 839              		.type	SPI_TransmitCRC, %function
 840              	SPI_TransmitCRC:
 841              	.LFB127:
 842              		.loc 1 909 0
 843              		.cfi_startproc
 844              		@ args = 0, pretend = 0, frame = 0
 845              		@ frame_needed = 0, uses_anonymous_args = 0
 846              		@ link register save eliminated.
 847              	.LVL61:
 848              		.loc 1 914 0
 849 0000 0388     		ldrh	r3, [r0]
 850 0002 9BB2     		uxth	r3, r3
 851 0004 43F48053 		orr	r3, r3, #4096
 852 0008 0380     		strh	r3, [r0]	@ movhi
 853 000a 7047     		bx	lr
 854              		.cfi_endproc
 855              	.LFE127:
 856              		.size	SPI_TransmitCRC, .-SPI_TransmitCRC
 857              		.section	.text.SPI_GetCRC,"ax",%progbits
 858              		.align	2
 859              		.p2align 4,,15
 860              		.global	SPI_GetCRC
 861              		.thumb
 862              		.thumb_func
 863              		.type	SPI_GetCRC, %function
 864              	SPI_GetCRC:
 865              	.LFB128:
 866              		.loc 1 927 0
 867              		.cfi_startproc
 868              		@ args = 0, pretend = 0, frame = 0
 869              		@ frame_needed = 0, uses_anonymous_args = 0
 870              		@ link register save eliminated.
 871              	.LVL62:
 872              		.loc 1 932 0
 873 0000 0129     		cmp	r1, #1
 874              		.loc 1 935 0
 875 0002 14BF     		ite	ne
 876 0004 008B     		ldrhne	r0, [r0, #24]
 877              	.LVL63:
 878              		.loc 1 940 0
 879 0006 808A     		ldrheq	r0, [r0, #20]
 880 0008 80B2     		uxth	r0, r0
 881              	.LVL64:
 882              		.loc 1 944 0
 883 000a 7047     		bx	lr
 884              		.cfi_endproc
 885              	.LFE128:
 886              		.size	SPI_GetCRC, .-SPI_GetCRC
 887 000c AFF30080 		.section	.text.SPI_GetCRCPolynomial,"ax",%progbits
 888              		.align	2
 889              		.p2align 4,,15
 890              		.global	SPI_GetCRCPolynomial
 891              		.thumb
 892              		.thumb_func
 893              		.type	SPI_GetCRCPolynomial, %function
ARM GAS  C:\Users\jsyoon\AppData\Local\Temp\cch2rfk4.s 			page 17


 894              	SPI_GetCRCPolynomial:
 895              	.LFB129:
 896              		.loc 1 952 0
 897              		.cfi_startproc
 898              		@ args = 0, pretend = 0, frame = 0
 899              		@ frame_needed = 0, uses_anonymous_args = 0
 900              		@ link register save eliminated.
 901              	.LVL65:
 902              		.loc 1 957 0
 903 0000 008A     		ldrh	r0, [r0, #16]
 904              	.LVL66:
 905              		.loc 1 958 0
 906 0002 80B2     		uxth	r0, r0
 907 0004 7047     		bx	lr
 908              		.cfi_endproc
 909              	.LFE129:
 910              		.size	SPI_GetCRCPolynomial, .-SPI_GetCRCPolynomial
 911 0006 00BFAFF3 		.section	.text.SPI_I2S_DMACmd,"ax",%progbits
 911      0080AFF3 
 911      0080
 912              		.align	2
 913              		.p2align 4,,15
 914              		.global	SPI_I2S_DMACmd
 915              		.thumb
 916              		.thumb_func
 917              		.type	SPI_I2S_DMACmd, %function
 918              	SPI_I2S_DMACmd:
 919              	.LFB130:
 920              		.loc 1 989 0
 921              		.cfi_startproc
 922              		@ args = 0, pretend = 0, frame = 0
 923              		@ frame_needed = 0, uses_anonymous_args = 0
 924              		@ link register save eliminated.
 925              	.LVL67:
 926              		.loc 1 998 0
 927 0000 8388     		ldrh	r3, [r0, #4]
 928 0002 9BB2     		uxth	r3, r3
 929              		.loc 1 995 0
 930 0004 1AB9     		cbnz	r2, .L73
 931              		.loc 1 1003 0
 932 0006 23EA0101 		bic	r1, r3, r1
 933              	.LVL68:
 934 000a 8180     		strh	r1, [r0, #4]	@ movhi
 935 000c 7047     		bx	lr
 936              	.LVL69:
 937              	.L73:
 938              		.loc 1 998 0
 939 000e 1943     		orrs	r1, r1, r3
 940              	.LVL70:
 941 0010 8180     		strh	r1, [r0, #4]	@ movhi
 942 0012 7047     		bx	lr
 943              		.cfi_endproc
 944              	.LFE130:
 945              		.size	SPI_I2S_DMACmd, .-SPI_I2S_DMACmd
 946 0014 AFF30080 		.section	.text.SPI_I2S_ITConfig,"ax",%progbits
 946      AFF30080 
 946      AFF30080 
ARM GAS  C:\Users\jsyoon\AppData\Local\Temp\cch2rfk4.s 			page 18


 947              		.align	2
 948              		.p2align 4,,15
 949              		.global	SPI_I2S_ITConfig
 950              		.thumb
 951              		.thumb_func
 952              		.type	SPI_I2S_ITConfig, %function
 953              	SPI_I2S_ITConfig:
 954              	.LFB131:
 955              		.loc 1 1098 0
 956              		.cfi_startproc
 957              		@ args = 0, pretend = 0, frame = 0
 958              		@ frame_needed = 0, uses_anonymous_args = 0
 959              		@ link register save eliminated.
 960              	.LVL71:
 961              		.loc 1 1110 0
 962 0000 0123     		movs	r3, #1
 963 0002 0909     		lsrs	r1, r1, #4
 964              	.LVL72:
 965 0004 03FA01F1 		lsl	r1, r3, r1
 966              		.loc 1 1115 0
 967 0008 8388     		ldrh	r3, [r0, #4]
 968              		.loc 1 1110 0
 969 000a 89B2     		uxth	r1, r1
 970              	.LVL73:
 971              		.loc 1 1115 0
 972 000c 9BB2     		uxth	r3, r3
 973              		.loc 1 1112 0
 974 000e 1AB9     		cbnz	r2, .L77
 975              		.loc 1 1120 0
 976 0010 23EA0101 		bic	r1, r3, r1
 977              	.LVL74:
 978 0014 8180     		strh	r1, [r0, #4]	@ movhi
 979 0016 7047     		bx	lr
 980              	.LVL75:
 981              	.L77:
 982              		.loc 1 1115 0
 983 0018 1943     		orrs	r1, r1, r3
 984              	.LVL76:
 985 001a 8180     		strh	r1, [r0, #4]	@ movhi
 986 001c 7047     		bx	lr
 987              		.cfi_endproc
 988              	.LFE131:
 989              		.size	SPI_I2S_ITConfig, .-SPI_I2S_ITConfig
 990 001e 00BF     		.section	.text.SPI_I2S_GetFlagStatus,"ax",%progbits
 991              		.align	2
 992              		.p2align 4,,15
 993              		.global	SPI_I2S_GetFlagStatus
 994              		.thumb
 995              		.thumb_func
 996              		.type	SPI_I2S_GetFlagStatus, %function
 997              	SPI_I2S_GetFlagStatus:
 998              	.LFB132:
 999              		.loc 1 1142 0
 1000              		.cfi_startproc
 1001              		@ args = 0, pretend = 0, frame = 0
 1002              		@ frame_needed = 0, uses_anonymous_args = 0
 1003              		@ link register save eliminated.
ARM GAS  C:\Users\jsyoon\AppData\Local\Temp\cch2rfk4.s 			page 19


 1004              	.LVL77:
 1005              		.loc 1 1149 0
 1006 0000 0389     		ldrh	r3, [r0, #8]
 1007              	.LVL78:
 1008 0002 1942     		tst	r1, r3
 1009              		.loc 1 1161 0
 1010 0004 0CBF     		ite	eq
 1011 0006 0020     		moveq	r0, #0
 1012 0008 0120     		movne	r0, #1
 1013              	.LVL79:
 1014 000a 7047     		bx	lr
 1015              		.cfi_endproc
 1016              	.LFE132:
 1017              		.size	SPI_I2S_GetFlagStatus, .-SPI_I2S_GetFlagStatus
 1018 000c AFF30080 		.section	.text.SPI_I2S_ClearFlag,"ax",%progbits
 1019              		.align	2
 1020              		.p2align 4,,15
 1021              		.global	SPI_I2S_ClearFlag
 1022              		.thumb
 1023              		.thumb_func
 1024              		.type	SPI_I2S_ClearFlag, %function
 1025              	SPI_I2S_ClearFlag:
 1026              	.LFB133:
 1027              		.loc 1 1183 0
 1028              		.cfi_startproc
 1029              		@ args = 0, pretend = 0, frame = 0
 1030              		@ frame_needed = 0, uses_anonymous_args = 0
 1031              		@ link register save eliminated.
 1032              	.LVL80:
 1033              		.loc 1 1189 0
 1034 0000 C943     		mvns	r1, r1
 1035              	.LVL81:
 1036 0002 89B2     		uxth	r1, r1
 1037 0004 0181     		strh	r1, [r0, #8]	@ movhi
 1038 0006 7047     		bx	lr
 1039              		.cfi_endproc
 1040              	.LFE133:
 1041              		.size	SPI_I2S_ClearFlag, .-SPI_I2S_ClearFlag
 1042 0008 AFF30080 		.section	.text.SPI_I2S_GetITStatus,"ax",%progbits
 1042      AFF30080 
 1043              		.align	2
 1044              		.p2align 4,,15
 1045              		.global	SPI_I2S_GetITStatus
 1046              		.thumb
 1047              		.thumb_func
 1048              		.type	SPI_I2S_GetITStatus, %function
 1049              	SPI_I2S_GetITStatus:
 1050              	.LFB134:
 1051              		.loc 1 1208 0
 1052              		.cfi_startproc
 1053              		@ args = 0, pretend = 0, frame = 0
 1054              		@ frame_needed = 0, uses_anonymous_args = 0
 1055              		@ link register save eliminated.
 1056              	.LVL82:
 1057 0000 10B4     		push	{r4}
 1058              		.cfi_def_cfa_offset 4
 1059              		.cfi_offset 4, -4
ARM GAS  C:\Users\jsyoon\AppData\Local\Temp\cch2rfk4.s 			page 20


 1060              		.loc 1 1226 0
 1061 0002 8488     		ldrh	r4, [r0, #4]
 1062              		.loc 1 1229 0
 1063 0004 0089     		ldrh	r0, [r0, #8]
 1064              	.LVL83:
 1065              		.loc 1 1217 0
 1066 0006 01F00F03 		and	r3, r1, #15
 1067 000a 0122     		movs	r2, #1
 1068              		.loc 1 1229 0
 1069 000c 80B2     		uxth	r0, r0
 1070              		.loc 1 1217 0
 1071 000e 02FA03F3 		lsl	r3, r2, r3
 1072              		.loc 1 1229 0
 1073 0012 1840     		ands	r0, r0, r3
 1074              		.loc 1 1226 0
 1075 0014 A4B2     		uxth	r4, r4
 1076              	.LVL84:
 1077              		.loc 1 1229 0
 1078 0016 05D0     		beq	.L81
 1079              		.loc 1 1223 0 discriminator 1
 1080 0018 0909     		lsrs	r1, r1, #4
 1081              	.LVL85:
 1082 001a 8A40     		lsls	r2, r2, r1
 1083              		.loc 1 1229 0 discriminator 1
 1084 001c 1442     		tst	r4, r2
 1085              		.loc 1 1232 0 discriminator 1
 1086 001e 0CBF     		ite	eq
 1087 0020 0020     		moveq	r0, #0
 1088 0022 0120     		movne	r0, #1
 1089              	.L81:
 1090              	.LVL86:
 1091              		.loc 1 1241 0
 1092 0024 5DF8044B 		ldr	r4, [sp], #4
 1093 0028 7047     		bx	lr
 1094              		.cfi_endproc
 1095              	.LFE134:
 1096              		.size	SPI_I2S_GetITStatus, .-SPI_I2S_GetITStatus
 1097 002a 00BFAFF3 		.section	.text.SPI_I2S_ClearITPendingBit,"ax",%progbits
 1097      0080
 1098              		.align	2
 1099              		.p2align 4,,15
 1100              		.global	SPI_I2S_ClearITPendingBit
 1101              		.thumb
 1102              		.thumb_func
 1103              		.type	SPI_I2S_ClearITPendingBit, %function
 1104              	SPI_I2S_ClearITPendingBit:
 1105              	.LFB135:
 1106              		.loc 1 1263 0
 1107              		.cfi_startproc
 1108              		@ args = 0, pretend = 0, frame = 0
 1109              		@ frame_needed = 0, uses_anonymous_args = 0
 1110              		@ link register save eliminated.
 1111              	.LVL87:
 1112              		.loc 1 1270 0
 1113 0000 01F00F01 		and	r1, r1, #15
 1114              	.LVL88:
 1115 0004 0123     		movs	r3, #1
ARM GAS  C:\Users\jsyoon\AppData\Local\Temp\cch2rfk4.s 			page 21


 1116 0006 03FA01F1 		lsl	r1, r3, r1
 1117              		.loc 1 1273 0
 1118 000a C943     		mvns	r1, r1
 1119 000c 89B2     		uxth	r1, r1
 1120 000e 0181     		strh	r1, [r0, #8]	@ movhi
 1121 0010 7047     		bx	lr
 1122              		.cfi_endproc
 1123              	.LFE135:
 1124              		.size	SPI_I2S_ClearITPendingBit, .-SPI_I2S_ClearITPendingBit
 1125 0012 00BFAFF3 		.text
 1125      0080AFF3 
 1125      0080AFF3 
 1125      0080
 1126              	.Letext0:
 1127              		.file 2 "c:\\crosstools\\gcc-arm-embedded\\4.8_2014q2\\arm-none-eabi\\include\\machine\\_default_t
 1128              		.file 3 "c:\\crosstools\\gcc-arm-embedded\\4.8_2014q2\\arm-none-eabi\\include\\stdint.h"
 1129              		.file 4 "ChibiOS_2.6.6/os/hal/platforms/STM32F4xx/stm32f4xx.h"
 1130              		.file 5 "ChibiOS_2.6.6/ext/stdperiph_stm32f4/inc/stm32f4xx_spi.h"
 1131              		.file 6 "ChibiOS_2.6.6/os/ports/common/ARMCMx/CMSIS/include/core_cm4.h"
 1132              		.file 7 "ChibiOS_2.6.6/ext/stdperiph_stm32f4/inc/stm32f4xx_rcc.h"