ARM GAS  C:\Users\jsyoon\AppData\Local\Temp\cc9IIO7q.s 			page 1


   1              		.syntax unified
   2              		.cpu cortex-m4
   3              		.eabi_attribute 27, 3
   4              		.eabi_attribute 28, 1
   5              		.fpu fpv4-sp-d16
   6              		.eabi_attribute 20, 1
   7              		.eabi_attribute 21, 1
   8              		.eabi_attribute 23, 3
   9              		.eabi_attribute 24, 1
  10              		.eabi_attribute 25, 1
  11              		.eabi_attribute 26, 1
  12              		.eabi_attribute 30, 2
  13              		.eabi_attribute 34, 1
  14              		.eabi_attribute 18, 4
  15              		.thumb
  16              		.file	"stm32f4xx_cryp_des.c"
  17              		.text
  18              	.Ltext0:
  19              		.cfi_sections	.debug_frame
  20              		.section	.text.CRYP_DES_ECB,"ax",%progbits
  21              		.align	2
  22              		.p2align 4,,15
  23              		.global	CRYP_DES_ECB
  24              		.thumb
  25              		.thumb_func
  26              		.type	CRYP_DES_ECB, %function
  27              	CRYP_DES_ECB:
  28              	.LFB111:
  29              		.file 1 "ChibiOS_2.6.6/ext/stdperiph_stm32f4/src/stm32f4xx_cryp_des.c"
  30              		.loc 1 102 0
  31              		.cfi_startproc
  32              		@ args = 4, pretend = 0, frame = 48
  33              		@ frame_needed = 0, uses_anonymous_args = 0
  34              	.LVL0:
  35 0000 2DE9F043 		push	{r4, r5, r6, r7, r8, r9, lr}
  36              		.cfi_def_cfa_offset 28
  37              		.cfi_offset 4, -28
  38              		.cfi_offset 5, -24
  39              		.cfi_offset 6, -20
  40              		.cfi_offset 7, -16
  41              		.cfi_offset 8, -12
  42              		.cfi_offset 9, -8
  43              		.cfi_offset 14, -4
  44 0004 8DB0     		sub	sp, sp, #52
  45              		.cfi_def_cfa_offset 80
  46              		.loc 1 102 0
  47 0006 8146     		mov	r9, r0
  48              		.loc 1 105 0
  49 0008 0027     		movs	r7, #0
  50              		.loc 1 114 0
  51 000a 04A8     		add	r0, sp, #16
  52              	.LVL1:
  53              		.loc 1 102 0
  54 000c 0E46     		mov	r6, r1
  55 000e 9846     		mov	r8, r3
  56 0010 1446     		mov	r4, r2
  57              		.loc 1 105 0
ARM GAS  C:\Users\jsyoon\AppData\Local\Temp\cc9IIO7q.s 			page 2


  58 0012 0197     		str	r7, [sp, #4]
  59              	.LVL2:
  60              		.loc 1 102 0
  61 0014 149D     		ldr	r5, [sp, #80]
  62              	.LVL3:
  63              		.loc 1 114 0
  64 0016 FFF7FEFF 		bl	CRYP_KeyStructInit
  65              	.LVL4:
  66              		.loc 1 117 0
  67 001a B9F1010F 		cmp	r9, #1
  68              		.loc 1 123 0
  69 001e 1CBF     		itt	ne
  70 0020 0423     		movne	r3, #4
  71 0022 ADF80830 		strhne	r3, [sp, #8]	@ movhi
  72              		.loc 1 126 0
  73 0026 4FF01002 		mov	r2, #16
  74              		.loc 1 127 0
  75 002a 4FF08003 		mov	r3, #128
  76              		.loc 1 128 0
  77 002e 02A8     		add	r0, sp, #8
  78              		.loc 1 119 0
  79 0030 08BF     		it	eq
  80 0032 ADF80870 		strheq	r7, [sp, #8]	@ movhi
  81              		.loc 1 127 0
  82 0036 ADF80C30 		strh	r3, [sp, #12]	@ movhi
  83              		.loc 1 126 0
  84 003a ADF80A20 		strh	r2, [sp, #10]	@ movhi
  85              		.loc 1 128 0
  86 003e FFF7FEFF 		bl	CRYP_Init
  87              	.LVL5:
  88              	.LBB14:
  89              	.LBB15:
  90              		.file 2 "ChibiOS_2.6.6/os/ports/common/ARMCMx/CMSIS/include/core_cmInstr.h"
  91              		.loc 2 369 0
  92 0042 3368     		ldr	r3, [r6]
  93              	@ 369 "ChibiOS_2.6.6/os/ports/common/ARMCMx/CMSIS/include/core_cmInstr.h" 1
  94 0044 1BBA     		rev r3, r3
  95              	@ 0 "" 2
  96              	.LVL6:
  97              		.thumb
  98              	.LBE15:
  99              	.LBE14:
 100              		.loc 1 131 0
 101 0046 0693     		str	r3, [sp, #24]
 102              	.LVL7:
 103              	.LBB16:
 104              	.LBB17:
 105              		.loc 2 369 0
 106 0048 7368     		ldr	r3, [r6, #4]
 107              	.LVL8:
 108              	@ 369 "ChibiOS_2.6.6/os/ports/common/ARMCMx/CMSIS/include/core_cmInstr.h" 1
 109 004a 1BBA     		rev r3, r3
 110              	@ 0 "" 2
 111              	.LVL9:
 112              		.thumb
 113              	.LBE17:
 114              	.LBE16:
ARM GAS  C:\Users\jsyoon\AppData\Local\Temp\cc9IIO7q.s 			page 3


 115              		.loc 1 134 0
 116 004c 04A8     		add	r0, sp, #16
 117              		.loc 1 133 0
 118 004e 0793     		str	r3, [sp, #28]
 119              		.loc 1 134 0
 120 0050 FFF7FEFF 		bl	CRYP_KeyInit
 121              	.LVL10:
 122              		.loc 1 137 0
 123 0054 FFF7FEFF 		bl	CRYP_FIFOFlush
 124              	.LVL11:
 125              		.loc 1 140 0
 126 0058 0120     		movs	r0, #1
 127 005a FFF7FEFF 		bl	CRYP_Cmd
 128              	.LVL12:
 129              		.loc 1 142 0
 130 005e B8F1000F 		cmp	r8, #0
 131 0062 30D0     		beq	.L9
 132 0064 0027     		movs	r7, #0
 133 0066 0834     		adds	r4, r4, #8
 134              	.LVL13:
 135 0068 0835     		adds	r5, r5, #8
 136              	.LVL14:
 137              		.loc 1 152 0
 138 006a 3E46     		mov	r6, r7
 139              	.LVL15:
 140              	.L10:
 141              		.loc 1 146 0
 142 006c 54F8080C 		ldr	r0, [r4, #-8]
 143 0070 FFF7FEFF 		bl	CRYP_DataIn
 144              	.LVL16:
 145              		.loc 1 148 0
 146 0074 54F8040C 		ldr	r0, [r4, #-4]
 147 0078 FFF7FEFF 		bl	CRYP_DataIn
 148              	.LVL17:
 149              		.loc 1 152 0
 150 007c 0196     		str	r6, [sp, #4]
 151 007e 00E0     		b	.L8
 152              	.LVL18:
 153              	.L16:
 154              		.loc 1 157 0 discriminator 1
 155 0080 90B1     		cbz	r0, .L7
 156              	.LVL19:
 157              	.L8:
 158              		.loc 1 155 0 discriminator 1
 159 0082 1020     		movs	r0, #16
 160 0084 FFF7FEFF 		bl	CRYP_GetFlagStatus
 161              	.LVL20:
 162              		.loc 1 156 0 discriminator 1
 163 0088 019A     		ldr	r2, [sp, #4]
 164 008a 0132     		adds	r2, r2, #1
 165 008c 0192     		str	r2, [sp, #4]
 166              		.loc 1 157 0 discriminator 1
 167 008e 019A     		ldr	r2, [sp, #4]
 168 0090 B2F5803F 		cmp	r2, #65536
 169 0094 F4D1     		bne	.L16
 170              		.loc 1 159 0
 171 0096 38B1     		cbz	r0, .L7
ARM GAS  C:\Users\jsyoon\AppData\Local\Temp\cc9IIO7q.s 			page 4


 172              		.loc 1 161 0
 173 0098 0024     		movs	r4, #0
 174              	.LVL21:
 175              	.L5:
 176              		.loc 1 175 0
 177 009a 0020     		movs	r0, #0
 178 009c FFF7FEFF 		bl	CRYP_Cmd
 179              	.LVL22:
 180              		.loc 1 178 0
 181 00a0 2046     		mov	r0, r4
 182 00a2 0DB0     		add	sp, sp, #52
 183              		@ sp needed
 184 00a4 BDE8F083 		pop	{r4, r5, r6, r7, r8, r9, pc}
 185              	.LVL23:
 186              	.L7:
 187              		.loc 1 167 0
 188 00a8 FFF7FEFF 		bl	CRYP_DataOut
 189              	.LVL24:
 190 00ac 45F8080C 		str	r0, [r5, #-8]
 191              	.LVL25:
 192              		.loc 1 169 0
 193 00b0 FFF7FEFF 		bl	CRYP_DataOut
 194              	.LVL26:
 195              		.loc 1 142 0
 196 00b4 0837     		adds	r7, r7, #8
 197              	.LVL27:
 198 00b6 4745     		cmp	r7, r8
 199              		.loc 1 169 0
 200 00b8 45F8040C 		str	r0, [r5, #-4]
 201              	.LVL28:
 202 00bc 04F10804 		add	r4, r4, #8
 203 00c0 05F10805 		add	r5, r5, #8
 204              		.loc 1 142 0
 205 00c4 D2D3     		bcc	.L10
 206              	.LVL29:
 207              	.L9:
 208              		.loc 1 107 0
 209 00c6 0124     		movs	r4, #1
 210 00c8 E7E7     		b	.L5
 211              		.cfi_endproc
 212              	.LFE111:
 213              		.size	CRYP_DES_ECB, .-CRYP_DES_ECB
 214 00ca 00BFAFF3 		.section	.text.CRYP_DES_CBC,"ax",%progbits
 214      0080
 215              		.align	2
 216              		.p2align 4,,15
 217              		.global	CRYP_DES_CBC
 218              		.thumb
 219              		.thumb_func
 220              		.type	CRYP_DES_CBC, %function
 221              	CRYP_DES_CBC:
 222              	.LFB112:
 223              		.loc 1 197 0
 224              		.cfi_startproc
 225              		@ args = 8, pretend = 0, frame = 64
 226              		@ frame_needed = 0, uses_anonymous_args = 0
 227              	.LVL30:
ARM GAS  C:\Users\jsyoon\AppData\Local\Temp\cc9IIO7q.s 			page 5


 228 0000 2DE9F047 		push	{r4, r5, r6, r7, r8, r9, r10, lr}
 229              		.cfi_def_cfa_offset 32
 230              		.cfi_offset 4, -32
 231              		.cfi_offset 5, -28
 232              		.cfi_offset 6, -24
 233              		.cfi_offset 7, -20
 234              		.cfi_offset 8, -16
 235              		.cfi_offset 9, -12
 236              		.cfi_offset 10, -8
 237              		.cfi_offset 14, -4
 238 0004 90B0     		sub	sp, sp, #64
 239              		.cfi_def_cfa_offset 96
 240              		.loc 1 197 0
 241 0006 8246     		mov	r10, r0
 242              		.loc 1 201 0
 243 0008 0024     		movs	r4, #0
 244              		.loc 1 211 0
 245 000a 08A8     		add	r0, sp, #32
 246              	.LVL31:
 247              		.loc 1 197 0
 248 000c 0E46     		mov	r6, r1
 249 000e 9946     		mov	r9, r3
 250 0010 1746     		mov	r7, r2
 251              		.loc 1 201 0
 252 0012 0194     		str	r4, [sp, #4]
 253              		.loc 1 197 0
 254 0014 DDF86080 		ldr	r8, [sp, #96]
 255              	.LVL32:
 256 0018 199D     		ldr	r5, [sp, #100]
 257              	.LVL33:
 258              		.loc 1 211 0
 259 001a FFF7FEFF 		bl	CRYP_KeyStructInit
 260              	.LVL34:
 261              		.loc 1 214 0
 262 001e BAF1010F 		cmp	r10, #1
 263              		.loc 1 220 0
 264 0022 1CBF     		itt	ne
 265 0024 0423     		movne	r3, #4
 266 0026 ADF80830 		strhne	r3, [sp, #8]	@ movhi
 267              		.loc 1 223 0
 268 002a 4FF01802 		mov	r2, #24
 269              		.loc 1 224 0
 270 002e 4FF08003 		mov	r3, #128
 271              		.loc 1 225 0
 272 0032 02A8     		add	r0, sp, #8
 273              		.loc 1 216 0
 274 0034 08BF     		it	eq
 275 0036 ADF80840 		strheq	r4, [sp, #8]	@ movhi
 276              		.loc 1 224 0
 277 003a ADF80C30 		strh	r3, [sp, #12]	@ movhi
 278              		.loc 1 223 0
 279 003e ADF80A20 		strh	r2, [sp, #10]	@ movhi
 280              		.loc 1 225 0
 281 0042 FFF7FEFF 		bl	CRYP_Init
 282              	.LVL35:
 283              	.LBB18:
 284              	.LBB19:
ARM GAS  C:\Users\jsyoon\AppData\Local\Temp\cc9IIO7q.s 			page 6


 285              		.loc 2 369 0
 286 0046 3368     		ldr	r3, [r6]
 287              	@ 369 "ChibiOS_2.6.6/os/ports/common/ARMCMx/CMSIS/include/core_cmInstr.h" 1
 288 0048 1BBA     		rev r3, r3
 289              	@ 0 "" 2
 290              	.LVL36:
 291              		.thumb
 292              	.LBE19:
 293              	.LBE18:
 294              		.loc 1 228 0
 295 004a 0A93     		str	r3, [sp, #40]
 296              	.LVL37:
 297              	.LBB20:
 298              	.LBB21:
 299              		.loc 2 369 0
 300 004c 7368     		ldr	r3, [r6, #4]
 301              	.LVL38:
 302              	@ 369 "ChibiOS_2.6.6/os/ports/common/ARMCMx/CMSIS/include/core_cmInstr.h" 1
 303 004e 1BBA     		rev r3, r3
 304              	@ 0 "" 2
 305              	.LVL39:
 306              		.thumb
 307              	.LBE21:
 308              	.LBE20:
 309              		.loc 1 231 0
 310 0050 08A8     		add	r0, sp, #32
 311              		.loc 1 230 0
 312 0052 0B93     		str	r3, [sp, #44]
 313              		.loc 1 231 0
 314 0054 FFF7FEFF 		bl	CRYP_KeyInit
 315              	.LVL40:
 316              	.LBB22:
 317              	.LBB23:
 318              		.loc 2 369 0
 319 0058 3B68     		ldr	r3, [r7]
 320              	@ 369 "ChibiOS_2.6.6/os/ports/common/ARMCMx/CMSIS/include/core_cmInstr.h" 1
 321 005a 1BBA     		rev r3, r3
 322              	@ 0 "" 2
 323              	.LVL41:
 324              		.thumb
 325              	.LBE23:
 326              	.LBE22:
 327              		.loc 1 234 0
 328 005c 0493     		str	r3, [sp, #16]
 329              	.LVL42:
 330              	.LBB24:
 331              	.LBB25:
 332              		.loc 2 369 0
 333 005e 7B68     		ldr	r3, [r7, #4]
 334              	.LVL43:
 335              	@ 369 "ChibiOS_2.6.6/os/ports/common/ARMCMx/CMSIS/include/core_cmInstr.h" 1
 336 0060 1BBA     		rev r3, r3
 337              	@ 0 "" 2
 338              	.LVL44:
 339              		.thumb
 340              	.LBE25:
 341              	.LBE24:
ARM GAS  C:\Users\jsyoon\AppData\Local\Temp\cc9IIO7q.s 			page 7


 342              		.loc 1 237 0
 343 0062 04A8     		add	r0, sp, #16
 344              	.LVL45:
 345              		.loc 1 236 0
 346 0064 0593     		str	r3, [sp, #20]
 347              		.loc 1 237 0
 348 0066 FFF7FEFF 		bl	CRYP_IVInit
 349              	.LVL46:
 350              		.loc 1 240 0
 351 006a FFF7FEFF 		bl	CRYP_FIFOFlush
 352              	.LVL47:
 353              		.loc 1 243 0
 354 006e 0120     		movs	r0, #1
 355 0070 FFF7FEFF 		bl	CRYP_Cmd
 356              	.LVL48:
 357              		.loc 1 245 0
 358 0074 B8F1000F 		cmp	r8, #0
 359 0078 31D0     		beq	.L25
 360 007a 0027     		movs	r7, #0
 361              	.LVL49:
 362 007c 09F10804 		add	r4, r9, #8
 363 0080 0835     		adds	r5, r5, #8
 364              	.LVL50:
 365              		.loc 1 254 0
 366 0082 3E46     		mov	r6, r7
 367              	.LVL51:
 368              	.L26:
 369              		.loc 1 248 0
 370 0084 54F8080C 		ldr	r0, [r4, #-8]
 371 0088 FFF7FEFF 		bl	CRYP_DataIn
 372              	.LVL52:
 373              		.loc 1 250 0
 374 008c 54F8040C 		ldr	r0, [r4, #-4]
 375 0090 FFF7FEFF 		bl	CRYP_DataIn
 376              	.LVL53:
 377              		.loc 1 254 0
 378 0094 0196     		str	r6, [sp, #4]
 379 0096 00E0     		b	.L24
 380              	.LVL54:
 381              	.L31:
 382              		.loc 1 259 0 discriminator 1
 383 0098 90B1     		cbz	r0, .L23
 384              	.LVL55:
 385              	.L24:
 386              		.loc 1 257 0 discriminator 1
 387 009a 1020     		movs	r0, #16
 388 009c FFF7FEFF 		bl	CRYP_GetFlagStatus
 389              	.LVL56:
 390              		.loc 1 258 0 discriminator 1
 391 00a0 019B     		ldr	r3, [sp, #4]
 392 00a2 0133     		adds	r3, r3, #1
 393 00a4 0193     		str	r3, [sp, #4]
 394              		.loc 1 259 0 discriminator 1
 395 00a6 019B     		ldr	r3, [sp, #4]
 396 00a8 B3F5803F 		cmp	r3, #65536
 397 00ac F4D1     		bne	.L31
 398              		.loc 1 261 0
ARM GAS  C:\Users\jsyoon\AppData\Local\Temp\cc9IIO7q.s 			page 8


 399 00ae 38B1     		cbz	r0, .L23
 400              		.loc 1 263 0
 401 00b0 0024     		movs	r4, #0
 402              	.LVL57:
 403              	.L21:
 404              		.loc 1 276 0
 405 00b2 0020     		movs	r0, #0
 406 00b4 FFF7FEFF 		bl	CRYP_Cmd
 407              	.LVL58:
 408              		.loc 1 279 0
 409 00b8 2046     		mov	r0, r4
 410 00ba 10B0     		add	sp, sp, #64
 411              		@ sp needed
 412 00bc BDE8F087 		pop	{r4, r5, r6, r7, r8, r9, r10, pc}
 413              	.LVL59:
 414              	.L23:
 415              		.loc 1 268 0
 416 00c0 FFF7FEFF 		bl	CRYP_DataOut
 417              	.LVL60:
 418 00c4 45F8080C 		str	r0, [r5, #-8]
 419              	.LVL61:
 420              		.loc 1 270 0
 421 00c8 FFF7FEFF 		bl	CRYP_DataOut
 422              	.LVL62:
 423              		.loc 1 245 0
 424 00cc 0837     		adds	r7, r7, #8
 425              	.LVL63:
 426 00ce 4745     		cmp	r7, r8
 427              		.loc 1 270 0
 428 00d0 45F8040C 		str	r0, [r5, #-4]
 429              	.LVL64:
 430 00d4 04F10804 		add	r4, r4, #8
 431 00d8 05F10805 		add	r5, r5, #8
 432              		.loc 1 245 0
 433 00dc D2D3     		bcc	.L26
 434              	.LVL65:
 435              	.L25:
 436              		.loc 1 203 0
 437 00de 0124     		movs	r4, #1
 438 00e0 E7E7     		b	.L21
 439              		.cfi_endproc
 440              	.LFE112:
 441              		.size	CRYP_DES_CBC, .-CRYP_DES_CBC
 442 00e2 00BFAFF3 		.text
 442      0080AFF3 
 442      0080AFF3 
 442      0080
 443              	.Letext0:
 444              		.file 3 "c:\\crosstools\\gcc-arm-embedded\\4.8_2014q2\\arm-none-eabi\\include\\machine\\_default_t
 445              		.file 4 "c:\\crosstools\\gcc-arm-embedded\\4.8_2014q2\\arm-none-eabi\\include\\stdint.h"
 446              		.file 5 "ChibiOS_2.6.6/os/hal/platforms/STM32F4xx/stm32f4xx.h"
 447              		.file 6 "ChibiOS_2.6.6/ext/stdperiph_stm32f4/inc/stm32f4xx_cryp.h"
 448              		.file 7 "ChibiOS_2.6.6/os/ports/common/ARMCMx/CMSIS/include/core_cm4.h"