ARM GAS  C:\Users\jsyoon\AppData\Local\Temp\ccNKckJg.s 			page 1


   1              		.syntax unified
   2              		.cpu cortex-m4
   3              		.eabi_attribute 27, 3
   4              		.eabi_attribute 28, 1
   5              		.fpu fpv4-sp-d16
   6              		.eabi_attribute 20, 1
   7              		.eabi_attribute 21, 1
   8              		.eabi_attribute 23, 3
   9              		.eabi_attribute 24, 1
  10              		.eabi_attribute 25, 1
  11              		.eabi_attribute 26, 1
  12              		.eabi_attribute 30, 2
  13              		.eabi_attribute 34, 1
  14              		.eabi_attribute 18, 4
  15              		.thumb
  16              		.file	"stm32f4xx_hash_sha1.c"
  17              		.text
  18              	.Ltext0:
  19              		.cfi_sections	.debug_frame
  20              		.section	.text.HASH_SHA1,"ax",%progbits
  21              		.align	2
  22              		.p2align 4,,15
  23              		.global	HASH_SHA1
  24              		.thumb
  25              		.thumb_func
  26              		.type	HASH_SHA1, %function
  27              	HASH_SHA1:
  28              	.LFB111:
  29              		.file 1 "ChibiOS_2.6.6/ext/stdperiph_stm32f4/src/stm32f4xx_hash_sha1.c"
  30              		.loc 1 94 0
  31              		.cfi_startproc
  32              		@ args = 0, pretend = 0, frame = 48
  33              		@ frame_needed = 0, uses_anonymous_args = 0
  34              	.LVL0:
  35 0000 F0B5     		push	{r4, r5, r6, r7, lr}
  36              		.cfi_def_cfa_offset 20
  37              		.cfi_offset 4, -20
  38              		.cfi_offset 5, -16
  39              		.cfi_offset 6, -12
  40              		.cfi_offset 7, -8
  41              		.cfi_offset 14, -4
  42              		.loc 1 106 0
  43 0002 01F00303 		and	r3, r1, #3
  44              		.loc 1 94 0
  45 0006 8DB0     		sub	sp, sp, #52
  46              		.cfi_def_cfa_offset 72
  47              		.loc 1 97 0
  48 0008 0024     		movs	r4, #0
  49              		.loc 1 106 0
  50 000a DB00     		lsls	r3, r3, #3
  51              		.loc 1 94 0
  52 000c 0D46     		mov	r5, r1
  53              		.loc 1 97 0
  54 000e ADF80640 		strh	r4, [sp, #6]	@ movhi
  55              	.LVL1:
  56              		.loc 1 94 0
  57 0012 0646     		mov	r6, r0
ARM GAS  C:\Users\jsyoon\AppData\Local\Temp\ccNKckJg.s 			page 2


  58 0014 1746     		mov	r7, r2
  59              		.loc 1 99 0
  60 0016 0294     		str	r4, [sp, #8]
  61              	.LVL2:
  62              		.loc 1 106 0
  63 0018 ADF80630 		strh	r3, [sp, #6]	@ movhi
  64              		.loc 1 109 0
  65 001c FFF7FEFF 		bl	HASH_DeInit
  66              	.LVL3:
  67              		.loc 1 114 0
  68 0020 2023     		movs	r3, #32
  69              		.loc 1 115 0
  70 0022 03A8     		add	r0, sp, #12
  71              		.loc 1 112 0
  72 0024 0394     		str	r4, [sp, #12]
  73              		.loc 1 113 0
  74 0026 0494     		str	r4, [sp, #16]
  75              		.loc 1 114 0
  76 0028 0593     		str	r3, [sp, #20]
  77              		.loc 1 115 0
  78 002a FFF7FEFF 		bl	HASH_Init
  79              	.LVL4:
  80              		.loc 1 118 0
  81 002e BDF80600 		ldrh	r0, [sp, #6]
  82 0032 80B2     		uxth	r0, r0
  83 0034 FFF7FEFF 		bl	HASH_SetLastWordValidBitsNbr
  84              	.LVL5:
  85              		.loc 1 121 0
  86 0038 2DB1     		cbz	r5, .L4
  87              	.LVL6:
  88              	.L5:
  89              		.loc 1 123 0 discriminator 2
  90 003a 3059     		ldr	r0, [r6, r4]
  91              		.loc 1 121 0 discriminator 2
  92 003c 0434     		adds	r4, r4, #4
  93              	.LVL7:
  94              		.loc 1 123 0 discriminator 2
  95 003e FFF7FEFF 		bl	HASH_DataIn
  96              	.LVL8:
  97              		.loc 1 121 0 discriminator 2
  98 0042 A542     		cmp	r5, r4
  99 0044 F9D8     		bhi	.L5
 100              	.LVL9:
 101              	.L4:
 102              		.loc 1 128 0
 103 0046 FFF7FEFF 		bl	HASH_StartDigest
 104              	.LVL10:
 105 004a 00E0     		b	.L3
 106              	.LVL11:
 107              	.L14:
 108              		.loc 1 135 0 discriminator 1
 109 004c 68B1     		cbz	r0, .L7
 110              	.LVL12:
 111              	.L3:
 112              		.loc 1 133 0 discriminator 1
 113 004e 0820     		movs	r0, #8
 114 0050 FFF7FEFF 		bl	HASH_GetFlagStatus
ARM GAS  C:\Users\jsyoon\AppData\Local\Temp\ccNKckJg.s 			page 3


 115              	.LVL13:
 116              		.loc 1 134 0 discriminator 1
 117 0054 029B     		ldr	r3, [sp, #8]
 118 0056 0133     		adds	r3, r3, #1
 119 0058 0293     		str	r3, [sp, #8]
 120              		.loc 1 135 0 discriminator 1
 121 005a 029B     		ldr	r3, [sp, #8]
 122 005c B3F5803F 		cmp	r3, #65536
 123 0060 F4D1     		bne	.L14
 124              		.loc 1 137 0
 125 0062 10B1     		cbz	r0, .L7
 126              		.loc 1 139 0
 127 0064 0020     		movs	r0, #0
 128              	.LVL14:
 129              		.loc 1 156 0
 130 0066 0DB0     		add	sp, sp, #52
 131              		@ sp needed
 132 0068 F0BD     		pop	{r4, r5, r6, r7, pc}
 133              	.LVL15:
 134              	.L7:
 135              		.loc 1 144 0
 136 006a 07A8     		add	r0, sp, #28
 137              	.LVL16:
 138 006c FFF7FEFF 		bl	HASH_GetDigest
 139              	.LVL17:
 140              	.LBB22:
 141              	.LBB23:
 142              		.file 2 "ChibiOS_2.6.6/os/ports/common/ARMCMx/CMSIS/include/core_cmInstr.h"
 143              		.loc 2 369 0
 144 0070 079B     		ldr	r3, [sp, #28]
 145              	@ 369 "ChibiOS_2.6.6/os/ports/common/ARMCMx/CMSIS/include/core_cmInstr.h" 1
 146 0072 1BBA     		rev r3, r3
 147              	@ 0 "" 2
 148              	.LVL18:
 149              		.thumb
 150              	.LBE23:
 151              	.LBE22:
 152              		.loc 1 145 0
 153 0074 3B60     		str	r3, [r7]
 154              	.LVL19:
 155              	.LBB24:
 156              	.LBB25:
 157              		.loc 2 369 0
 158 0076 089B     		ldr	r3, [sp, #32]
 159              	.LVL20:
 160              	@ 369 "ChibiOS_2.6.6/os/ports/common/ARMCMx/CMSIS/include/core_cmInstr.h" 1
 161 0078 1BBA     		rev r3, r3
 162              	@ 0 "" 2
 163              	.LVL21:
 164              		.thumb
 165              	.LBE25:
 166              	.LBE24:
 167              		.loc 1 147 0
 168 007a 7B60     		str	r3, [r7, #4]
 169              	.LVL22:
 170              	.LBB26:
 171              	.LBB27:
ARM GAS  C:\Users\jsyoon\AppData\Local\Temp\ccNKckJg.s 			page 4


 172              		.loc 2 369 0
 173 007c 099B     		ldr	r3, [sp, #36]
 174              	.LVL23:
 175              	@ 369 "ChibiOS_2.6.6/os/ports/common/ARMCMx/CMSIS/include/core_cmInstr.h" 1
 176 007e 1BBA     		rev r3, r3
 177              	@ 0 "" 2
 178              	.LVL24:
 179              		.thumb
 180              	.LBE27:
 181              	.LBE26:
 182              		.loc 1 149 0
 183 0080 BB60     		str	r3, [r7, #8]
 184              	.LVL25:
 185              	.LBB28:
 186              	.LBB29:
 187              		.loc 2 369 0
 188 0082 0A9B     		ldr	r3, [sp, #40]
 189              	.LVL26:
 190              	@ 369 "ChibiOS_2.6.6/os/ports/common/ARMCMx/CMSIS/include/core_cmInstr.h" 1
 191 0084 1BBA     		rev r3, r3
 192              	@ 0 "" 2
 193              	.LVL27:
 194              		.thumb
 195              	.LBE29:
 196              	.LBE28:
 197              		.loc 1 151 0
 198 0086 FB60     		str	r3, [r7, #12]
 199              	.LVL28:
 200              	.LBB30:
 201              	.LBB31:
 202              		.loc 2 369 0
 203 0088 0B9B     		ldr	r3, [sp, #44]
 204              	.LVL29:
 205              	@ 369 "ChibiOS_2.6.6/os/ports/common/ARMCMx/CMSIS/include/core_cmInstr.h" 1
 206 008a 1BBA     		rev r3, r3
 207              	@ 0 "" 2
 208              	.LVL30:
 209              		.thumb
 210              	.LBE31:
 211              	.LBE30:
 212              		.loc 1 101 0
 213 008c 0120     		movs	r0, #1
 214              		.loc 1 153 0
 215 008e 3B61     		str	r3, [r7, #16]
 216              	.LVL31:
 217              		.loc 1 156 0
 218 0090 0DB0     		add	sp, sp, #52
 219              		@ sp needed
 220 0092 F0BD     		pop	{r4, r5, r6, r7, pc}
 221              		.cfi_endproc
 222              	.LFE111:
 223              		.size	HASH_SHA1, .-HASH_SHA1
 224 0094 AFF30080 		.section	.text.HMAC_SHA1,"ax",%progbits
 224      AFF30080 
 224      AFF30080 
 225              		.align	2
 226              		.p2align 4,,15
ARM GAS  C:\Users\jsyoon\AppData\Local\Temp\ccNKckJg.s 			page 5


 227              		.global	HMAC_SHA1
 228              		.thumb
 229              		.thumb_func
 230              		.type	HMAC_SHA1, %function
 231              	HMAC_SHA1:
 232              	.LFB112:
 233              		.loc 1 171 0
 234              		.cfi_startproc
 235              		@ args = 4, pretend = 0, frame = 48
 236              		@ frame_needed = 0, uses_anonymous_args = 0
 237              	.LVL32:
 238 0000 2DE9F041 		push	{r4, r5, r6, r7, r8, lr}
 239              		.cfi_def_cfa_offset 24
 240              		.cfi_offset 4, -24
 241              		.cfi_offset 5, -20
 242              		.cfi_offset 6, -16
 243              		.cfi_offset 7, -12
 244              		.cfi_offset 8, -8
 245              		.cfi_offset 14, -4
 246 0004 0D46     		mov	r5, r1
 247 0006 8CB0     		sub	sp, sp, #48
 248              		.cfi_def_cfa_offset 72
 249              		.loc 1 185 0
 250 0008 03F00301 		and	r1, r3, #3
 251              	.LVL33:
 252              		.loc 1 171 0
 253 000c 1F46     		mov	r7, r3
 254              		.loc 1 188 0
 255 000e 05F00303 		and	r3, r5, #3
 256              	.LVL34:
 257              		.loc 1 174 0
 258 0012 0024     		movs	r4, #0
 259              		.loc 1 188 0
 260 0014 DB00     		lsls	r3, r3, #3
 261              		.loc 1 185 0
 262 0016 C900     		lsls	r1, r1, #3
 263              		.loc 1 174 0
 264 0018 ADF80440 		strh	r4, [sp, #4]	@ movhi
 265              		.loc 1 171 0
 266 001c 9046     		mov	r8, r2
 267              		.loc 1 175 0
 268 001e ADF80640 		strh	r4, [sp, #6]	@ movhi
 269              	.LVL35:
 270              		.loc 1 171 0
 271 0022 0646     		mov	r6, r0
 272              		.loc 1 177 0
 273 0024 0294     		str	r4, [sp, #8]
 274              	.LVL36:
 275              		.loc 1 185 0
 276 0026 ADF80410 		strh	r1, [sp, #4]	@ movhi
 277              		.loc 1 188 0
 278 002a ADF80630 		strh	r3, [sp, #6]	@ movhi
 279              		.loc 1 191 0
 280 002e FFF7FEFF 		bl	HASH_DeInit
 281              	.LVL37:
 282              		.loc 1 195 0
 283 0032 4022     		movs	r2, #64
ARM GAS  C:\Users\jsyoon\AppData\Local\Temp\ccNKckJg.s 			page 6


 284              		.loc 1 196 0
 285 0034 2023     		movs	r3, #32
 286              		.loc 1 197 0
 287 0036 9542     		cmp	r5, r2
 288              		.loc 1 194 0
 289 0038 0394     		str	r4, [sp, #12]
 290              		.loc 1 195 0
 291 003a 0492     		str	r2, [sp, #16]
 292              		.loc 1 196 0
 293 003c 0593     		str	r3, [sp, #20]
 294              		.loc 1 197 0
 295 003e 24D9     		bls	.L16
 296              		.loc 1 200 0
 297 0040 4FF48033 		mov	r3, #65536
 298              		.loc 1 207 0
 299 0044 03A8     		add	r0, sp, #12
 300              		.loc 1 200 0
 301 0046 0693     		str	r3, [sp, #24]
 302              		.loc 1 207 0
 303 0048 FFF7FEFF 		bl	HASH_Init
 304              	.LVL38:
 305              		.loc 1 210 0
 306 004c BDF80600 		ldrh	r0, [sp, #6]
 307 0050 80B2     		uxth	r0, r0
 308 0052 FFF7FEFF 		bl	HASH_SetLastWordValidBitsNbr
 309              	.LVL39:
 310              	.L17:
 311              		.loc 1 213 0
 312 0056 0024     		movs	r4, #0
 313              	.LVL40:
 314              	.L20:
 315              		.loc 1 215 0 discriminator 2
 316 0058 3059     		ldr	r0, [r6, r4]
 317              		.loc 1 213 0 discriminator 2
 318 005a 0434     		adds	r4, r4, #4
 319              	.LVL41:
 320              		.loc 1 215 0 discriminator 2
 321 005c FFF7FEFF 		bl	HASH_DataIn
 322              	.LVL42:
 323              		.loc 1 213 0 discriminator 2
 324 0060 A542     		cmp	r5, r4
 325 0062 F9D8     		bhi	.L20
 326              	.LVL43:
 327              	.L19:
 328              		.loc 1 220 0
 329 0064 FFF7FEFF 		bl	HASH_StartDigest
 330              	.LVL44:
 331 0068 00E0     		b	.L18
 332              	.LVL45:
 333              	.L49:
 334              		.loc 1 227 0 discriminator 1
 335 006a D0B1     		cbz	r0, .L22
 336              	.LVL46:
 337              	.L18:
 338              		.loc 1 225 0 discriminator 1
 339 006c 0820     		movs	r0, #8
 340 006e FFF7FEFF 		bl	HASH_GetFlagStatus
ARM GAS  C:\Users\jsyoon\AppData\Local\Temp\ccNKckJg.s 			page 7


 341              	.LVL47:
 342              		.loc 1 226 0 discriminator 1
 343 0072 029C     		ldr	r4, [sp, #8]
 344 0074 0134     		adds	r4, r4, #1
 345 0076 0294     		str	r4, [sp, #8]
 346              		.loc 1 227 0 discriminator 1
 347 0078 029C     		ldr	r4, [sp, #8]
 348 007a B4F5803F 		cmp	r4, #65536
 349 007e F4D1     		bne	.L49
 350              		.loc 1 229 0
 351 0080 78B1     		cbz	r0, .L22
 352              	.LVL48:
 353              	.L30:
 354              		.loc 1 231 0
 355 0082 0020     		movs	r0, #0
 356              	.LVL49:
 357              	.L23:
 358              		.loc 1 306 0
 359 0084 0CB0     		add	sp, sp, #48
 360              		@ sp needed
 361 0086 BDE8F081 		pop	{r4, r5, r6, r7, r8, pc}
 362              	.LVL50:
 363              	.L16:
 364              		.loc 1 207 0
 365 008a 03A8     		add	r0, sp, #12
 366              		.loc 1 205 0
 367 008c 0694     		str	r4, [sp, #24]
 368              		.loc 1 207 0
 369 008e FFF7FEFF 		bl	HASH_Init
 370              	.LVL51:
 371              		.loc 1 210 0
 372 0092 BDF80600 		ldrh	r0, [sp, #6]
 373 0096 80B2     		uxth	r0, r0
 374 0098 FFF7FEFF 		bl	HASH_SetLastWordValidBitsNbr
 375              	.LVL52:
 376              		.loc 1 213 0
 377 009c 002D     		cmp	r5, #0
 378 009e DAD1     		bne	.L17
 379 00a0 E0E7     		b	.L19
 380              	.LVL53:
 381              	.L22:
 382              		.loc 1 236 0
 383 00a2 BDF80400 		ldrh	r0, [sp, #4]
 384              	.LVL54:
 385 00a6 80B2     		uxth	r0, r0
 386 00a8 FFF7FEFF 		bl	HASH_SetLastWordValidBitsNbr
 387              	.LVL55:
 388              		.loc 1 239 0
 389 00ac 0024     		movs	r4, #0
 390 00ae 37B1     		cbz	r7, .L26
 391              	.LVL56:
 392              	.L27:
 393              		.loc 1 241 0 discriminator 2
 394 00b0 58F80400 		ldr	r0, [r8, r4]
 395              		.loc 1 239 0 discriminator 2
 396 00b4 0434     		adds	r4, r4, #4
 397              	.LVL57:
ARM GAS  C:\Users\jsyoon\AppData\Local\Temp\ccNKckJg.s 			page 8


 398              		.loc 1 241 0 discriminator 2
 399 00b6 FFF7FEFF 		bl	HASH_DataIn
 400              	.LVL58:
 401              		.loc 1 239 0 discriminator 2
 402 00ba A742     		cmp	r7, r4
 403 00bc F8D8     		bhi	.L27
 404              	.LVL59:
 405              	.L26:
 406              		.loc 1 246 0
 407 00be FFF7FEFF 		bl	HASH_StartDigest
 408              	.LVL60:
 409              		.loc 1 250 0
 410 00c2 0023     		movs	r3, #0
 411 00c4 0293     		str	r3, [sp, #8]
 412 00c6 00E0     		b	.L25
 413              	.LVL61:
 414              	.L50:
 415              		.loc 1 255 0 discriminator 1
 416 00c8 58B1     		cbz	r0, .L29
 417              	.LVL62:
 418              	.L25:
 419              		.loc 1 253 0 discriminator 1
 420 00ca 0820     		movs	r0, #8
 421 00cc FFF7FEFF 		bl	HASH_GetFlagStatus
 422              	.LVL63:
 423              		.loc 1 254 0 discriminator 1
 424 00d0 029B     		ldr	r3, [sp, #8]
 425 00d2 0133     		adds	r3, r3, #1
 426 00d4 0293     		str	r3, [sp, #8]
 427              		.loc 1 255 0 discriminator 1
 428 00d6 029B     		ldr	r3, [sp, #8]
 429 00d8 B3F5803F 		cmp	r3, #65536
 430 00dc F4D1     		bne	.L50
 431              		.loc 1 257 0
 432 00de 0028     		cmp	r0, #0
 433 00e0 CFD1     		bne	.L30
 434              	.L29:
 435              		.loc 1 264 0
 436 00e2 BDF80600 		ldrh	r0, [sp, #6]
 437              	.LVL64:
 438 00e6 80B2     		uxth	r0, r0
 439 00e8 FFF7FEFF 		bl	HASH_SetLastWordValidBitsNbr
 440              	.LVL65:
 441              		.loc 1 268 0
 442 00ec 0024     		movs	r4, #0
 443 00ee 2DB1     		cbz	r5, .L33
 444              	.LVL66:
 445              	.L34:
 446              		.loc 1 270 0 discriminator 2
 447 00f0 3059     		ldr	r0, [r6, r4]
 448              		.loc 1 268 0 discriminator 2
 449 00f2 0434     		adds	r4, r4, #4
 450              	.LVL67:
 451              		.loc 1 270 0 discriminator 2
 452 00f4 FFF7FEFF 		bl	HASH_DataIn
 453              	.LVL68:
 454              		.loc 1 268 0 discriminator 2
ARM GAS  C:\Users\jsyoon\AppData\Local\Temp\ccNKckJg.s 			page 9


 455 00f8 A542     		cmp	r5, r4
 456 00fa F9D8     		bhi	.L34
 457              	.LVL69:
 458              	.L33:
 459              		.loc 1 275 0
 460 00fc FFF7FEFF 		bl	HASH_StartDigest
 461              	.LVL70:
 462              		.loc 1 278 0
 463 0100 0023     		movs	r3, #0
 464 0102 0293     		str	r3, [sp, #8]
 465 0104 00E0     		b	.L32
 466              	.LVL71:
 467              	.L51:
 468              		.loc 1 283 0 discriminator 1
 469 0106 58B1     		cbz	r0, .L36
 470              	.LVL72:
 471              	.L32:
 472              		.loc 1 281 0 discriminator 1
 473 0108 0820     		movs	r0, #8
 474 010a FFF7FEFF 		bl	HASH_GetFlagStatus
 475              	.LVL73:
 476              		.loc 1 282 0 discriminator 1
 477 010e 029B     		ldr	r3, [sp, #8]
 478 0110 0133     		adds	r3, r3, #1
 479 0112 0293     		str	r3, [sp, #8]
 480              		.loc 1 283 0 discriminator 1
 481 0114 029B     		ldr	r3, [sp, #8]
 482 0116 B3F5803F 		cmp	r3, #65536
 483 011a F4D1     		bne	.L51
 484              		.loc 1 285 0
 485 011c 0028     		cmp	r0, #0
 486 011e B0D1     		bne	.L30
 487              	.L36:
 488              		.loc 1 292 0
 489 0120 07A8     		add	r0, sp, #28
 490              	.LVL74:
 491 0122 FFF7FEFF 		bl	HASH_GetDigest
 492              	.LVL75:
 493              	.LBB32:
 494              	.LBB33:
 495              		.loc 2 369 0
 496 0126 079B     		ldr	r3, [sp, #28]
 497              	@ 369 "ChibiOS_2.6.6/os/ports/common/ARMCMx/CMSIS/include/core_cmInstr.h" 1
 498 0128 1BBA     		rev r3, r3
 499              	@ 0 "" 2
 500              	.LVL76:
 501              		.thumb
 502              	.LBE33:
 503              	.LBE32:
 504              		.loc 1 293 0
 505 012a 129A     		ldr	r2, [sp, #72]
 506 012c 1360     		str	r3, [r2]
 507              	.LVL77:
 508              	.LBB34:
 509              	.LBB35:
 510              		.loc 2 369 0
 511 012e 089B     		ldr	r3, [sp, #32]
ARM GAS  C:\Users\jsyoon\AppData\Local\Temp\ccNKckJg.s 			page 10


 512              	.LVL78:
 513              	@ 369 "ChibiOS_2.6.6/os/ports/common/ARMCMx/CMSIS/include/core_cmInstr.h" 1
 514 0130 1BBA     		rev r3, r3
 515              	@ 0 "" 2
 516              	.LVL79:
 517              		.thumb
 518              	.LBE35:
 519              	.LBE34:
 520              		.loc 1 295 0
 521 0132 5360     		str	r3, [r2, #4]
 522              	.LVL80:
 523              	.LBB36:
 524              	.LBB37:
 525              		.loc 2 369 0
 526 0134 099B     		ldr	r3, [sp, #36]
 527              	.LVL81:
 528              	@ 369 "ChibiOS_2.6.6/os/ports/common/ARMCMx/CMSIS/include/core_cmInstr.h" 1
 529 0136 1BBA     		rev r3, r3
 530              	@ 0 "" 2
 531              	.LVL82:
 532              		.thumb
 533              	.LBE37:
 534              	.LBE36:
 535              		.loc 1 297 0
 536 0138 9360     		str	r3, [r2, #8]
 537              	.LVL83:
 538              	.LBB38:
 539              	.LBB39:
 540              		.loc 2 369 0
 541 013a 0A9B     		ldr	r3, [sp, #40]
 542              	.LVL84:
 543              	@ 369 "ChibiOS_2.6.6/os/ports/common/ARMCMx/CMSIS/include/core_cmInstr.h" 1
 544 013c 1BBA     		rev r3, r3
 545              	@ 0 "" 2
 546              	.LVL85:
 547              		.thumb
 548              	.LBE39:
 549              	.LBE38:
 550              		.loc 1 299 0
 551 013e D360     		str	r3, [r2, #12]
 552              	.LVL86:
 553              	.LBB40:
 554              	.LBB41:
 555              		.loc 2 369 0
 556 0140 0B9B     		ldr	r3, [sp, #44]
 557              	.LVL87:
 558              	@ 369 "ChibiOS_2.6.6/os/ports/common/ARMCMx/CMSIS/include/core_cmInstr.h" 1
 559 0142 1BBA     		rev r3, r3
 560              	@ 0 "" 2
 561              	.LVL88:
 562              		.thumb
 563              	.LBE41:
 564              	.LBE40:
 565              		.loc 1 179 0
 566 0144 0120     		movs	r0, #1
 567              		.loc 1 301 0
 568 0146 1361     		str	r3, [r2, #16]
ARM GAS  C:\Users\jsyoon\AppData\Local\Temp\ccNKckJg.s 			page 11


 569 0148 9CE7     		b	.L23
 570              		.cfi_endproc
 571              	.LFE112:
 572              		.size	HMAC_SHA1, .-HMAC_SHA1
 573 014a 00BFAFF3 		.text
 573      0080
 574              	.Letext0:
 575              		.file 3 "c:\\crosstools\\gcc-arm-embedded\\4.8_2014q2\\arm-none-eabi\\include\\machine\\_default_t
 576              		.file 4 "c:\\crosstools\\gcc-arm-embedded\\4.8_2014q2\\arm-none-eabi\\include\\stdint.h"
 577              		.file 5 "ChibiOS_2.6.6/os/hal/platforms/STM32F4xx/stm32f4xx.h"
 578              		.file 6 "ChibiOS_2.6.6/ext/stdperiph_stm32f4/inc/stm32f4xx_hash.h"
 579              		.file 7 "ChibiOS_2.6.6/os/ports/common/ARMCMx/CMSIS/include/core_cm4.h"
 580              		.section	.debug_info,"",%progbits
 581              	.Ldebug_info0:
 582 0000 11070000 		.4byte	0x711
 583 0004 0400     		.2byte	0x4
 584 0006 00000000 		.4byte	.Ldebug_abbrev0
 585 000a 04       		.byte	0x4
 586 000b 01       		.uleb128 0x1
 587 000c D1000000 		.4byte	.LASF52
 588 0010 01       		.byte	0x1
 589 0011 40020000 		.4byte	.LASF53
 590 0015 33000000 		.4byte	.LASF54
 591 0019 00000000 		.4byte	.Ldebug_ranges0+0
 592 001d 00000000 		.4byte	0
 593 0021 00000000 		.4byte	.Ldebug_line0
 594 0025 02       		.uleb128 0x2
 595 0026 01       		.byte	0x1
 596 0027 06       		.byte	0x6
 597 0028 AB020000 		.4byte	.LASF0
 598 002c 03       		.uleb128 0x3
 599 002d 36020000 		.4byte	.LASF3
 600 0031 03       		.byte	0x3
 601 0032 1C       		.byte	0x1c
 602 0033 37000000 		.4byte	0x37
 603 0037 02       		.uleb128 0x2
 604 0038 01       		.byte	0x1
 605 0039 08       		.byte	0x8
 606 003a 89020000 		.4byte	.LASF1
 607 003e 02       		.uleb128 0x2
 608 003f 02       		.byte	0x2
 609 0040 05       		.byte	0x5
 610 0041 79000000 		.4byte	.LASF2
 611 0045 03       		.uleb128 0x3
 612 0046 6E000000 		.4byte	.LASF4
 613 004a 03       		.byte	0x3
 614 004b 26       		.byte	0x26
 615 004c 50000000 		.4byte	0x50
 616 0050 02       		.uleb128 0x2
 617 0051 02       		.byte	0x2
 618 0052 07       		.byte	0x7
 619 0053 25030000 		.4byte	.LASF5
 620 0057 03       		.uleb128 0x3
 621 0058 B5030000 		.4byte	.LASF6
 622 005c 03       		.byte	0x3
 623 005d 37       		.byte	0x37
 624 005e 62000000 		.4byte	0x62
ARM GAS  C:\Users\jsyoon\AppData\Local\Temp\ccNKckJg.s 			page 12


 625 0062 02       		.uleb128 0x2
 626 0063 04       		.byte	0x4
 627 0064 05       		.byte	0x5
 628 0065 F5010000 		.4byte	.LASF7
 629 0069 03       		.uleb128 0x3
 630 006a 63000000 		.4byte	.LASF8
 631 006e 03       		.byte	0x3
 632 006f 38       		.byte	0x38
 633 0070 74000000 		.4byte	0x74
 634 0074 02       		.uleb128 0x2
 635 0075 04       		.byte	0x4
 636 0076 07       		.byte	0x7
 637 0077 8A030000 		.4byte	.LASF9
 638 007b 02       		.uleb128 0x2
 639 007c 08       		.byte	0x8
 640 007d 05       		.byte	0x5
 641 007e B9000000 		.4byte	.LASF10
 642 0082 02       		.uleb128 0x2
 643 0083 08       		.byte	0x8
 644 0084 07       		.byte	0x7
 645 0085 CA020000 		.4byte	.LASF11
 646 0089 04       		.uleb128 0x4
 647 008a 04       		.byte	0x4
 648 008b 05       		.byte	0x5
 649 008c 696E7400 		.ascii	"int\000"
 650 0090 02       		.uleb128 0x2
 651 0091 04       		.byte	0x4
 652 0092 07       		.byte	0x7
 653 0093 EA020000 		.4byte	.LASF12
 654 0097 03       		.uleb128 0x3
 655 0098 98000000 		.4byte	.LASF13
 656 009c 04       		.byte	0x4
 657 009d 2A       		.byte	0x2a
 658 009e 2C000000 		.4byte	0x2c
 659 00a2 03       		.uleb128 0x3
 660 00a3 F7020000 		.4byte	.LASF14
 661 00a7 04       		.byte	0x4
 662 00a8 36       		.byte	0x36
 663 00a9 45000000 		.4byte	0x45
 664 00ad 03       		.uleb128 0x3
 665 00ae 3F030000 		.4byte	.LASF15
 666 00b2 04       		.byte	0x4
 667 00b3 41       		.byte	0x41
 668 00b4 57000000 		.4byte	0x57
 669 00b8 03       		.uleb128 0x3
 670 00b9 E1020000 		.4byte	.LASF16
 671 00bd 04       		.byte	0x4
 672 00be 42       		.byte	0x42
 673 00bf 69000000 		.4byte	0x69
 674 00c3 02       		.uleb128 0x2
 675 00c4 04       		.byte	0x4
 676 00c5 07       		.byte	0x7
 677 00c6 2A000000 		.4byte	.LASF17
 678 00ca 05       		.uleb128 0x5
 679 00cb B8000000 		.4byte	0xb8
 680 00cf 06       		.uleb128 0x6
 681 00d0 B8000000 		.4byte	0xb8
ARM GAS  C:\Users\jsyoon\AppData\Local\Temp\ccNKckJg.s 			page 13


 682 00d4 DF000000 		.4byte	0xdf
 683 00d8 07       		.uleb128 0x7
 684 00d9 C3000000 		.4byte	0xc3
 685 00dd 04       		.byte	0x4
 686 00de 00       		.byte	0
 687 00df 05       		.uleb128 0x5
 688 00e0 A2000000 		.4byte	0xa2
 689 00e4 05       		.uleb128 0x5
 690 00e5 AD000000 		.4byte	0xad
 691 00e9 08       		.uleb128 0x8
 692 00ea 01       		.byte	0x1
 693 00eb 05       		.byte	0x5
 694 00ec F701     		.2byte	0x1f7
 695 00ee FF000000 		.4byte	0xff
 696 00f2 09       		.uleb128 0x9
 697 00f3 BF030000 		.4byte	.LASF18
 698 00f7 00       		.sleb128 0
 699 00f8 0A       		.uleb128 0xa
 700 00f9 53455400 		.ascii	"SET\000"
 701 00fd 01       		.sleb128 1
 702 00fe 00       		.byte	0
 703 00ff 0B       		.uleb128 0xb
 704 0100 05040000 		.4byte	.LASF19
 705 0104 05       		.byte	0x5
 706 0105 F701     		.2byte	0x1f7
 707 0107 E9000000 		.4byte	0xe9
 708 010b 08       		.uleb128 0x8
 709 010c 01       		.byte	0x1
 710 010d 05       		.byte	0x5
 711 010e FC01     		.2byte	0x1fc
 712 0110 21010000 		.4byte	0x121
 713 0114 09       		.uleb128 0x9
 714 0115 7E020000 		.4byte	.LASF20
 715 0119 00       		.sleb128 0
 716 011a 09       		.uleb128 0x9
 717 011b 0A030000 		.4byte	.LASF21
 718 011f 01       		.sleb128 1
 719 0120 00       		.byte	0
 720 0121 0B       		.uleb128 0xb
 721 0122 0F020000 		.4byte	.LASF22
 722 0126 05       		.byte	0x5
 723 0127 FC01     		.2byte	0x1fc
 724 0129 0B010000 		.4byte	0x10b
 725 012d 0C       		.uleb128 0xc
 726 012e 10       		.byte	0x10
 727 012f 06       		.byte	0x6
 728 0130 35       		.byte	0x35
 729 0131 66010000 		.4byte	0x166
 730 0135 0D       		.uleb128 0xd
 731 0136 B7020000 		.4byte	.LASF23
 732 013a 06       		.byte	0x6
 733 013b 37       		.byte	0x37
 734 013c B8000000 		.4byte	0xb8
 735 0140 00       		.byte	0
 736 0141 0D       		.uleb128 0xd
 737 0142 A7030000 		.4byte	.LASF24
 738 0146 06       		.byte	0x6
ARM GAS  C:\Users\jsyoon\AppData\Local\Temp\ccNKckJg.s 			page 14


 739 0147 39       		.byte	0x39
 740 0148 B8000000 		.4byte	0xb8
 741 014c 04       		.byte	0x4
 742 014d 0D       		.uleb128 0xd
 743 014e 5F030000 		.4byte	.LASF25
 744 0152 06       		.byte	0x6
 745 0153 3B       		.byte	0x3b
 746 0154 B8000000 		.4byte	0xb8
 747 0158 08       		.byte	0x8
 748 0159 0D       		.uleb128 0xd
 749 015a FE010000 		.4byte	.LASF26
 750 015e 06       		.byte	0x6
 751 015f 3E       		.byte	0x3e
 752 0160 B8000000 		.4byte	0xb8
 753 0164 0C       		.byte	0xc
 754 0165 00       		.byte	0
 755 0166 03       		.uleb128 0x3
 756 0167 17040000 		.4byte	.LASF27
 757 016b 06       		.byte	0x6
 758 016c 40       		.byte	0x40
 759 016d 2D010000 		.4byte	0x12d
 760 0171 0C       		.uleb128 0xc
 761 0172 14       		.byte	0x14
 762 0173 06       		.byte	0x6
 763 0174 45       		.byte	0x45
 764 0175 86010000 		.4byte	0x186
 765 0179 0D       		.uleb128 0xd
 766 017a 84020000 		.4byte	.LASF28
 767 017e 06       		.byte	0x6
 768 017f 47       		.byte	0x47
 769 0180 CF000000 		.4byte	0xcf
 770 0184 00       		.byte	0
 771 0185 00       		.byte	0
 772 0186 03       		.uleb128 0x3
 773 0187 9C020000 		.4byte	.LASF29
 774 018b 06       		.byte	0x6
 775 018c 49       		.byte	0x49
 776 018d 71010000 		.4byte	0x171
 777 0191 0E       		.uleb128 0xe
 778 0192 AB000000 		.4byte	.LASF55
 779 0196 02       		.byte	0x2
 780 0197 6D01     		.2byte	0x16d
 781 0199 B8000000 		.4byte	0xb8
 782 019d 03       		.byte	0x3
 783 019e BB010000 		.4byte	0x1bb
 784 01a2 0F       		.uleb128 0xf
 785 01a3 83000000 		.4byte	.LASF56
 786 01a7 02       		.byte	0x2
 787 01a8 6D01     		.2byte	0x16d
 788 01aa B8000000 		.4byte	0xb8
 789 01ae 10       		.uleb128 0x10
 790 01af 00000000 		.4byte	.LASF57
 791 01b3 02       		.byte	0x2
 792 01b4 6F01     		.2byte	0x16f
 793 01b6 B8000000 		.4byte	0xb8
 794 01ba 00       		.byte	0
 795 01bb 11       		.uleb128 0x11
ARM GAS  C:\Users\jsyoon\AppData\Local\Temp\ccNKckJg.s 			page 15


 796 01bc C7000000 		.4byte	.LASF41
 797 01c0 01       		.byte	0x1
 798 01c1 5D       		.byte	0x5d
 799 01c2 21010000 		.4byte	0x121
 800 01c6 00000000 		.4byte	.LFB111
 801 01ca 94000000 		.4byte	.LFE111-.LFB111
 802 01ce 01       		.uleb128 0x1
 803 01cf 9C       		.byte	0x9c
 804 01d0 C8030000 		.4byte	0x3c8
 805 01d4 12       		.uleb128 0x12
 806 01d5 E2030000 		.4byte	.LASF30
 807 01d9 01       		.byte	0x1
 808 01da 5D       		.byte	0x5d
 809 01db C8030000 		.4byte	0x3c8
 810 01df 00000000 		.4byte	.LLST0
 811 01e3 12       		.uleb128 0x12
 812 01e4 97020000 		.4byte	.LASF31
 813 01e8 01       		.byte	0x1
 814 01e9 5D       		.byte	0x5d
 815 01ea B8000000 		.4byte	0xb8
 816 01ee 1E000000 		.4byte	.LLST1
 817 01f2 12       		.uleb128 0x12
 818 01f3 23000000 		.4byte	.LASF32
 819 01f7 01       		.byte	0x1
 820 01f8 5D       		.byte	0x5d
 821 01f9 C8030000 		.4byte	0x3c8
 822 01fd 3C000000 		.4byte	.LLST2
 823 0201 13       		.uleb128 0x13
 824 0202 47030000 		.4byte	.LASF33
 825 0206 01       		.byte	0x1
 826 0207 5F       		.byte	0x5f
 827 0208 66010000 		.4byte	0x166
 828 020c 02       		.uleb128 0x2
 829 020d 91       		.byte	0x91
 830 020e 44       		.sleb128 -60
 831 020f 13       		.uleb128 0x13
 832 0210 12030000 		.4byte	.LASF34
 833 0214 01       		.byte	0x1
 834 0215 60       		.byte	0x60
 835 0216 86010000 		.4byte	0x186
 836 021a 02       		.uleb128 0x2
 837 021b 91       		.byte	0x91
 838 021c 54       		.sleb128 -44
 839 021d 13       		.uleb128 0x13
 840 021e E8030000 		.4byte	.LASF35
 841 0222 01       		.byte	0x1
 842 0223 61       		.byte	0x61
 843 0224 DF000000 		.4byte	0xdf
 844 0228 03       		.uleb128 0x3
 845 0229 91       		.byte	0x91
 846 022a BE7F     		.sleb128 -66
 847 022c 14       		.uleb128 0x14
 848 022d 6900     		.ascii	"i\000"
 849 022f 01       		.byte	0x1
 850 0230 62       		.byte	0x62
 851 0231 B8000000 		.4byte	0xb8
 852 0235 5A000000 		.4byte	.LLST3
ARM GAS  C:\Users\jsyoon\AppData\Local\Temp\ccNKckJg.s 			page 16


 853 0239 13       		.uleb128 0x13
 854 023a 07000000 		.4byte	.LASF36
 855 023e 01       		.byte	0x1
 856 023f 63       		.byte	0x63
 857 0240 CA000000 		.4byte	0xca
 858 0244 02       		.uleb128 0x2
 859 0245 91       		.byte	0x91
 860 0246 40       		.sleb128 -64
 861 0247 15       		.uleb128 0x15
 862 0248 9C030000 		.4byte	.LASF37
 863 024c 01       		.byte	0x1
 864 024d 64       		.byte	0x64
 865 024e B8000000 		.4byte	0xb8
 866 0252 91000000 		.4byte	.LLST4
 867 0256 15       		.uleb128 0x15
 868 0257 38030000 		.4byte	.LASF38
 869 025b 01       		.byte	0x1
 870 025c 65       		.byte	0x65
 871 025d 21010000 		.4byte	0x121
 872 0261 C6000000 		.4byte	.LLST5
 873 0265 15       		.uleb128 0x15
 874 0266 0F000000 		.4byte	.LASF39
 875 026a 01       		.byte	0x1
 876 026b 66       		.byte	0x66
 877 026c B8000000 		.4byte	0xb8
 878 0270 FC000000 		.4byte	.LLST6
 879 0274 15       		.uleb128 0x15
 880 0275 A0000000 		.4byte	.LASF40
 881 0279 01       		.byte	0x1
 882 027a 67       		.byte	0x67
 883 027b B8000000 		.4byte	0xb8
 884 027f 3C010000 		.4byte	.LLST7
 885 0283 16       		.uleb128 0x16
 886 0284 91010000 		.4byte	0x191
 887 0288 70000000 		.4byte	.LBB22
 888 028c 04000000 		.4byte	.LBE22-.LBB22
 889 0290 01       		.byte	0x1
 890 0291 91       		.byte	0x91
 891 0292 B2020000 		.4byte	0x2b2
 892 0296 17       		.uleb128 0x17
 893 0297 A2010000 		.4byte	0x1a2
 894 029b 02       		.uleb128 0x2
 895 029c 91       		.byte	0x91
 896 029d 54       		.sleb128 -44
 897 029e 18       		.uleb128 0x18
 898 029f 70000000 		.4byte	.LBB23
 899 02a3 04000000 		.4byte	.LBE23-.LBB23
 900 02a7 19       		.uleb128 0x19
 901 02a8 AE010000 		.4byte	0x1ae
 902 02ac 8E010000 		.4byte	.LLST8
 903 02b0 00       		.byte	0
 904 02b1 00       		.byte	0
 905 02b2 16       		.uleb128 0x16
 906 02b3 91010000 		.4byte	0x191
 907 02b7 76000000 		.4byte	.LBB24
 908 02bb 04000000 		.4byte	.LBE24-.LBB24
 909 02bf 01       		.byte	0x1
ARM GAS  C:\Users\jsyoon\AppData\Local\Temp\ccNKckJg.s 			page 17


 910 02c0 93       		.byte	0x93
 911 02c1 E1020000 		.4byte	0x2e1
 912 02c5 17       		.uleb128 0x17
 913 02c6 A2010000 		.4byte	0x1a2
 914 02ca 02       		.uleb128 0x2
 915 02cb 91       		.byte	0x91
 916 02cc 58       		.sleb128 -40
 917 02cd 18       		.uleb128 0x18
 918 02ce 76000000 		.4byte	.LBB25
 919 02d2 04000000 		.4byte	.LBE25-.LBB25
 920 02d6 19       		.uleb128 0x19
 921 02d7 AE010000 		.4byte	0x1ae
 922 02db AD010000 		.4byte	.LLST9
 923 02df 00       		.byte	0
 924 02e0 00       		.byte	0
 925 02e1 16       		.uleb128 0x16
 926 02e2 91010000 		.4byte	0x191
 927 02e6 7C000000 		.4byte	.LBB26
 928 02ea 04000000 		.4byte	.LBE26-.LBB26
 929 02ee 01       		.byte	0x1
 930 02ef 95       		.byte	0x95
 931 02f0 10030000 		.4byte	0x310
 932 02f4 17       		.uleb128 0x17
 933 02f5 A2010000 		.4byte	0x1a2
 934 02f9 02       		.uleb128 0x2
 935 02fa 91       		.byte	0x91
 936 02fb 5C       		.sleb128 -36
 937 02fc 18       		.uleb128 0x18
 938 02fd 7C000000 		.4byte	.LBB27
 939 0301 04000000 		.4byte	.LBE27-.LBB27
 940 0305 19       		.uleb128 0x19
 941 0306 AE010000 		.4byte	0x1ae
 942 030a CC010000 		.4byte	.LLST10
 943 030e 00       		.byte	0
 944 030f 00       		.byte	0
 945 0310 16       		.uleb128 0x16
 946 0311 91010000 		.4byte	0x191
 947 0315 82000000 		.4byte	.LBB28
 948 0319 04000000 		.4byte	.LBE28-.LBB28
 949 031d 01       		.byte	0x1
 950 031e 97       		.byte	0x97
 951 031f 3F030000 		.4byte	0x33f
 952 0323 17       		.uleb128 0x17
 953 0324 A2010000 		.4byte	0x1a2
 954 0328 02       		.uleb128 0x2
 955 0329 91       		.byte	0x91
 956 032a 60       		.sleb128 -32
 957 032b 18       		.uleb128 0x18
 958 032c 82000000 		.4byte	.LBB29
 959 0330 04000000 		.4byte	.LBE29-.LBB29
 960 0334 19       		.uleb128 0x19
 961 0335 AE010000 		.4byte	0x1ae
 962 0339 EB010000 		.4byte	.LLST11
 963 033d 00       		.byte	0
 964 033e 00       		.byte	0
 965 033f 16       		.uleb128 0x16
 966 0340 91010000 		.4byte	0x191
ARM GAS  C:\Users\jsyoon\AppData\Local\Temp\ccNKckJg.s 			page 18


 967 0344 88000000 		.4byte	.LBB30
 968 0348 04000000 		.4byte	.LBE30-.LBB30
 969 034c 01       		.byte	0x1
 970 034d 99       		.byte	0x99
 971 034e 6C030000 		.4byte	0x36c
 972 0352 17       		.uleb128 0x17
 973 0353 A2010000 		.4byte	0x1a2
 974 0357 02       		.uleb128 0x2
 975 0358 91       		.byte	0x91
 976 0359 64       		.sleb128 -28
 977 035a 18       		.uleb128 0x18
 978 035b 88000000 		.4byte	.LBB31
 979 035f 04000000 		.4byte	.LBE31-.LBB31
 980 0363 1A       		.uleb128 0x1a
 981 0364 AE010000 		.4byte	0x1ae
 982 0368 01       		.uleb128 0x1
 983 0369 53       		.byte	0x53
 984 036a 00       		.byte	0
 985 036b 00       		.byte	0
 986 036c 1B       		.uleb128 0x1b
 987 036d 20000000 		.4byte	.LVL3
 988 0371 A1060000 		.4byte	0x6a1
 989 0375 1C       		.uleb128 0x1c
 990 0376 2E000000 		.4byte	.LVL4
 991 037a A8060000 		.4byte	0x6a8
 992 037e 89030000 		.4byte	0x389
 993 0382 1D       		.uleb128 0x1d
 994 0383 01       		.uleb128 0x1
 995 0384 50       		.byte	0x50
 996 0385 02       		.uleb128 0x2
 997 0386 91       		.byte	0x91
 998 0387 44       		.sleb128 -60
 999 0388 00       		.byte	0
 1000 0389 1B       		.uleb128 0x1b
 1001 038a 38000000 		.4byte	.LVL5
 1002 038e BF060000 		.4byte	0x6bf
 1003 0392 1B       		.uleb128 0x1b
 1004 0393 42000000 		.4byte	.LVL8
 1005 0397 D0060000 		.4byte	0x6d0
 1006 039b 1B       		.uleb128 0x1b
 1007 039c 4A000000 		.4byte	.LVL10
 1008 03a0 E1060000 		.4byte	0x6e1
 1009 03a4 1C       		.uleb128 0x1c
 1010 03a5 54000000 		.4byte	.LVL13
 1011 03a9 E8060000 		.4byte	0x6e8
 1012 03ad B7030000 		.4byte	0x3b7
 1013 03b1 1D       		.uleb128 0x1d
 1014 03b2 01       		.uleb128 0x1
 1015 03b3 50       		.byte	0x50
 1016 03b4 01       		.uleb128 0x1
 1017 03b5 38       		.byte	0x38
 1018 03b6 00       		.byte	0
 1019 03b7 1E       		.uleb128 0x1e
 1020 03b8 70000000 		.4byte	.LVL17
 1021 03bc FD060000 		.4byte	0x6fd
 1022 03c0 1D       		.uleb128 0x1d
 1023 03c1 01       		.uleb128 0x1
ARM GAS  C:\Users\jsyoon\AppData\Local\Temp\ccNKckJg.s 			page 19


 1024 03c2 50       		.byte	0x50
 1025 03c3 02       		.uleb128 0x2
 1026 03c4 91       		.byte	0x91
 1027 03c5 54       		.sleb128 -44
 1028 03c6 00       		.byte	0
 1029 03c7 00       		.byte	0
 1030 03c8 1F       		.uleb128 0x1f
 1031 03c9 04       		.byte	0x4
 1032 03ca 97000000 		.4byte	0x97
 1033 03ce 11       		.uleb128 0x11
 1034 03cf 19000000 		.4byte	.LASF42
 1035 03d3 01       		.byte	0x1
 1036 03d4 A9       		.byte	0xa9
 1037 03d5 21010000 		.4byte	0x121
 1038 03d9 00000000 		.4byte	.LFB112
 1039 03dd 4A010000 		.4byte	.LFE112-.LFB112
 1040 03e1 01       		.uleb128 0x1
 1041 03e2 9C       		.byte	0x9c
 1042 03e3 95060000 		.4byte	0x695
 1043 03e7 20       		.uleb128 0x20
 1044 03e8 4B657900 		.ascii	"Key\000"
 1045 03ec 01       		.byte	0x1
 1046 03ed A9       		.byte	0xa9
 1047 03ee C8030000 		.4byte	0x3c8
 1048 03f2 0A020000 		.4byte	.LLST12
 1049 03f6 12       		.uleb128 0x12
 1050 03f7 10040000 		.4byte	.LASF43
 1051 03fb 01       		.byte	0x1
 1052 03fc A9       		.byte	0xa9
 1053 03fd B8000000 		.4byte	0xb8
 1054 0401 28020000 		.4byte	.LLST13
 1055 0405 12       		.uleb128 0x12
 1056 0406 E2030000 		.4byte	.LASF30
 1057 040a 01       		.byte	0x1
 1058 040b A9       		.byte	0xa9
 1059 040c C8030000 		.4byte	0x3c8
 1060 0410 46020000 		.4byte	.LLST14
 1061 0414 12       		.uleb128 0x12
 1062 0415 97020000 		.4byte	.LASF31
 1063 0419 01       		.byte	0x1
 1064 041a AA       		.byte	0xaa
 1065 041b B8000000 		.4byte	0xb8
 1066 041f 64020000 		.4byte	.LLST15
 1067 0423 12       		.uleb128 0x12
 1068 0424 23000000 		.4byte	.LASF32
 1069 0428 01       		.byte	0x1
 1070 0429 AA       		.byte	0xaa
 1071 042a C8030000 		.4byte	0x3c8
 1072 042e 82020000 		.4byte	.LLST16
 1073 0432 13       		.uleb128 0x13
 1074 0433 47030000 		.4byte	.LASF33
 1075 0437 01       		.byte	0x1
 1076 0438 AC       		.byte	0xac
 1077 0439 66010000 		.4byte	0x166
 1078 043d 02       		.uleb128 0x2
 1079 043e 91       		.byte	0x91
 1080 043f 44       		.sleb128 -60
ARM GAS  C:\Users\jsyoon\AppData\Local\Temp\ccNKckJg.s 			page 20


 1081 0440 13       		.uleb128 0x13
 1082 0441 12030000 		.4byte	.LASF34
 1083 0445 01       		.byte	0x1
 1084 0446 AD       		.byte	0xad
 1085 0447 86010000 		.4byte	0x186
 1086 044b 02       		.uleb128 0x2
 1087 044c 91       		.byte	0x91
 1088 044d 54       		.sleb128 -44
 1089 044e 13       		.uleb128 0x13
 1090 044f E8030000 		.4byte	.LASF35
 1091 0453 01       		.byte	0x1
 1092 0454 AE       		.byte	0xae
 1093 0455 DF000000 		.4byte	0xdf
 1094 0459 03       		.uleb128 0x3
 1095 045a 91       		.byte	0x91
 1096 045b BC7F     		.sleb128 -68
 1097 045d 13       		.uleb128 0x13
 1098 045e 27020000 		.4byte	.LASF44
 1099 0462 01       		.byte	0x1
 1100 0463 AF       		.byte	0xaf
 1101 0464 DF000000 		.4byte	0xdf
 1102 0468 03       		.uleb128 0x3
 1103 0469 91       		.byte	0x91
 1104 046a BE7F     		.sleb128 -66
 1105 046c 14       		.uleb128 0x14
 1106 046d 6900     		.ascii	"i\000"
 1107 046f 01       		.byte	0x1
 1108 0470 B0       		.byte	0xb0
 1109 0471 B8000000 		.4byte	0xb8
 1110 0475 A2020000 		.4byte	.LLST17
 1111 0479 13       		.uleb128 0x13
 1112 047a 07000000 		.4byte	.LASF36
 1113 047e 01       		.byte	0x1
 1114 047f B1       		.byte	0xb1
 1115 0480 CA000000 		.4byte	0xca
 1116 0484 02       		.uleb128 0x2
 1117 0485 91       		.byte	0x91
 1118 0486 40       		.sleb128 -64
 1119 0487 15       		.uleb128 0x15
 1120 0488 9C030000 		.4byte	.LASF37
 1121 048c 01       		.byte	0x1
 1122 048d B2       		.byte	0xb2
 1123 048e B8000000 		.4byte	0xb8
 1124 0492 43030000 		.4byte	.LLST18
 1125 0496 15       		.uleb128 0x15
 1126 0497 38030000 		.4byte	.LASF38
 1127 049b 01       		.byte	0x1
 1128 049c B3       		.byte	0xb3
 1129 049d 21010000 		.4byte	0x121
 1130 04a1 B0030000 		.4byte	.LLST19
 1131 04a5 15       		.uleb128 0x15
 1132 04a6 B1000000 		.4byte	.LASF45
 1133 04aa 01       		.byte	0x1
 1134 04ab B4       		.byte	0xb4
 1135 04ac B8000000 		.4byte	0xb8
 1136 04b0 DB030000 		.4byte	.LLST20
 1137 04b4 15       		.uleb128 0x15
ARM GAS  C:\Users\jsyoon\AppData\Local\Temp\ccNKckJg.s 			page 21


 1138 04b5 0F000000 		.4byte	.LASF39
 1139 04b9 01       		.byte	0x1
 1140 04ba B5       		.byte	0xb5
 1141 04bb B8000000 		.4byte	0xb8
 1142 04bf 53040000 		.4byte	.LLST21
 1143 04c3 15       		.uleb128 0x15
 1144 04c4 A0000000 		.4byte	.LASF40
 1145 04c8 01       		.byte	0x1
 1146 04c9 B6       		.byte	0xb6
 1147 04ca B8000000 		.4byte	0xb8
 1148 04ce 9E040000 		.4byte	.LLST22
 1149 04d2 21       		.uleb128 0x21
 1150 04d3 91010000 		.4byte	0x191
 1151 04d7 26010000 		.4byte	.LBB32
 1152 04db 04000000 		.4byte	.LBE32-.LBB32
 1153 04df 01       		.byte	0x1
 1154 04e0 2501     		.2byte	0x125
 1155 04e2 02050000 		.4byte	0x502
 1156 04e6 17       		.uleb128 0x17
 1157 04e7 A2010000 		.4byte	0x1a2
 1158 04eb 02       		.uleb128 0x2
 1159 04ec 91       		.byte	0x91
 1160 04ed 54       		.sleb128 -44
 1161 04ee 18       		.uleb128 0x18
 1162 04ef 26010000 		.4byte	.LBB33
 1163 04f3 04000000 		.4byte	.LBE33-.LBB33
 1164 04f7 19       		.uleb128 0x19
 1165 04f8 AE010000 		.4byte	0x1ae
 1166 04fc F2040000 		.4byte	.LLST23
 1167 0500 00       		.byte	0
 1168 0501 00       		.byte	0
 1169 0502 21       		.uleb128 0x21
 1170 0503 91010000 		.4byte	0x191
 1171 0507 2E010000 		.4byte	.LBB34
 1172 050b 04000000 		.4byte	.LBE34-.LBB34
 1173 050f 01       		.byte	0x1
 1174 0510 2701     		.2byte	0x127
 1175 0512 32050000 		.4byte	0x532
 1176 0516 17       		.uleb128 0x17
 1177 0517 A2010000 		.4byte	0x1a2
 1178 051b 02       		.uleb128 0x2
 1179 051c 91       		.byte	0x91
 1180 051d 58       		.sleb128 -40
 1181 051e 18       		.uleb128 0x18
 1182 051f 2E010000 		.4byte	.LBB35
 1183 0523 04000000 		.4byte	.LBE35-.LBB35
 1184 0527 19       		.uleb128 0x19
 1185 0528 AE010000 		.4byte	0x1ae
 1186 052c 11050000 		.4byte	.LLST24
 1187 0530 00       		.byte	0
 1188 0531 00       		.byte	0
 1189 0532 21       		.uleb128 0x21
 1190 0533 91010000 		.4byte	0x191
 1191 0537 34010000 		.4byte	.LBB36
 1192 053b 04000000 		.4byte	.LBE36-.LBB36
 1193 053f 01       		.byte	0x1
 1194 0540 2901     		.2byte	0x129
ARM GAS  C:\Users\jsyoon\AppData\Local\Temp\ccNKckJg.s 			page 22


 1195 0542 62050000 		.4byte	0x562
 1196 0546 17       		.uleb128 0x17
 1197 0547 A2010000 		.4byte	0x1a2
 1198 054b 02       		.uleb128 0x2
 1199 054c 91       		.byte	0x91
 1200 054d 5C       		.sleb128 -36
 1201 054e 18       		.uleb128 0x18
 1202 054f 34010000 		.4byte	.LBB37
 1203 0553 04000000 		.4byte	.LBE37-.LBB37
 1204 0557 19       		.uleb128 0x19
 1205 0558 AE010000 		.4byte	0x1ae
 1206 055c 30050000 		.4byte	.LLST25
 1207 0560 00       		.byte	0
 1208 0561 00       		.byte	0
 1209 0562 21       		.uleb128 0x21
 1210 0563 91010000 		.4byte	0x191
 1211 0567 3A010000 		.4byte	.LBB38
 1212 056b 04000000 		.4byte	.LBE38-.LBB38
 1213 056f 01       		.byte	0x1
 1214 0570 2B01     		.2byte	0x12b
 1215 0572 92050000 		.4byte	0x592
 1216 0576 17       		.uleb128 0x17
 1217 0577 A2010000 		.4byte	0x1a2
 1218 057b 02       		.uleb128 0x2
 1219 057c 91       		.byte	0x91
 1220 057d 60       		.sleb128 -32
 1221 057e 18       		.uleb128 0x18
 1222 057f 3A010000 		.4byte	.LBB39
 1223 0583 04000000 		.4byte	.LBE39-.LBB39
 1224 0587 19       		.uleb128 0x19
 1225 0588 AE010000 		.4byte	0x1ae
 1226 058c 4F050000 		.4byte	.LLST26
 1227 0590 00       		.byte	0
 1228 0591 00       		.byte	0
 1229 0592 21       		.uleb128 0x21
 1230 0593 91010000 		.4byte	0x191
 1231 0597 40010000 		.4byte	.LBB40
 1232 059b 04000000 		.4byte	.LBE40-.LBB40
 1233 059f 01       		.byte	0x1
 1234 05a0 2D01     		.2byte	0x12d
 1235 05a2 C0050000 		.4byte	0x5c0
 1236 05a6 17       		.uleb128 0x17
 1237 05a7 A2010000 		.4byte	0x1a2
 1238 05ab 02       		.uleb128 0x2
 1239 05ac 91       		.byte	0x91
 1240 05ad 64       		.sleb128 -28
 1241 05ae 18       		.uleb128 0x18
 1242 05af 40010000 		.4byte	.LBB41
 1243 05b3 04000000 		.4byte	.LBE41-.LBB41
 1244 05b7 1A       		.uleb128 0x1a
 1245 05b8 AE010000 		.4byte	0x1ae
 1246 05bc 01       		.uleb128 0x1
 1247 05bd 53       		.byte	0x53
 1248 05be 00       		.byte	0
 1249 05bf 00       		.byte	0
 1250 05c0 1B       		.uleb128 0x1b
 1251 05c1 32000000 		.4byte	.LVL37
ARM GAS  C:\Users\jsyoon\AppData\Local\Temp\ccNKckJg.s 			page 23


 1252 05c5 A1060000 		.4byte	0x6a1
 1253 05c9 1C       		.uleb128 0x1c
 1254 05ca 4C000000 		.4byte	.LVL38
 1255 05ce A8060000 		.4byte	0x6a8
 1256 05d2 DD050000 		.4byte	0x5dd
 1257 05d6 1D       		.uleb128 0x1d
 1258 05d7 01       		.uleb128 0x1
 1259 05d8 50       		.byte	0x50
 1260 05d9 02       		.uleb128 0x2
 1261 05da 91       		.byte	0x91
 1262 05db 44       		.sleb128 -60
 1263 05dc 00       		.byte	0
 1264 05dd 1B       		.uleb128 0x1b
 1265 05de 56000000 		.4byte	.LVL39
 1266 05e2 BF060000 		.4byte	0x6bf
 1267 05e6 1B       		.uleb128 0x1b
 1268 05e7 60000000 		.4byte	.LVL42
 1269 05eb D0060000 		.4byte	0x6d0
 1270 05ef 1B       		.uleb128 0x1b
 1271 05f0 68000000 		.4byte	.LVL44
 1272 05f4 E1060000 		.4byte	0x6e1
 1273 05f8 1C       		.uleb128 0x1c
 1274 05f9 72000000 		.4byte	.LVL47
 1275 05fd E8060000 		.4byte	0x6e8
 1276 0601 0B060000 		.4byte	0x60b
 1277 0605 1D       		.uleb128 0x1d
 1278 0606 01       		.uleb128 0x1
 1279 0607 50       		.byte	0x50
 1280 0608 01       		.uleb128 0x1
 1281 0609 38       		.byte	0x38
 1282 060a 00       		.byte	0
 1283 060b 1C       		.uleb128 0x1c
 1284 060c 92000000 		.4byte	.LVL51
 1285 0610 A8060000 		.4byte	0x6a8
 1286 0614 1F060000 		.4byte	0x61f
 1287 0618 1D       		.uleb128 0x1d
 1288 0619 01       		.uleb128 0x1
 1289 061a 50       		.byte	0x50
 1290 061b 02       		.uleb128 0x2
 1291 061c 91       		.byte	0x91
 1292 061d 44       		.sleb128 -60
 1293 061e 00       		.byte	0
 1294 061f 1B       		.uleb128 0x1b
 1295 0620 9C000000 		.4byte	.LVL52
 1296 0624 BF060000 		.4byte	0x6bf
 1297 0628 1B       		.uleb128 0x1b
 1298 0629 AC000000 		.4byte	.LVL55
 1299 062d BF060000 		.4byte	0x6bf
 1300 0631 1B       		.uleb128 0x1b
 1301 0632 BA000000 		.4byte	.LVL58
 1302 0636 D0060000 		.4byte	0x6d0
 1303 063a 1B       		.uleb128 0x1b
 1304 063b C2000000 		.4byte	.LVL60
 1305 063f E1060000 		.4byte	0x6e1
 1306 0643 1C       		.uleb128 0x1c
 1307 0644 D0000000 		.4byte	.LVL63
 1308 0648 E8060000 		.4byte	0x6e8
ARM GAS  C:\Users\jsyoon\AppData\Local\Temp\ccNKckJg.s 			page 24


 1309 064c 56060000 		.4byte	0x656
 1310 0650 1D       		.uleb128 0x1d
 1311 0651 01       		.uleb128 0x1
 1312 0652 50       		.byte	0x50
 1313 0653 01       		.uleb128 0x1
 1314 0654 38       		.byte	0x38
 1315 0655 00       		.byte	0
 1316 0656 1B       		.uleb128 0x1b
 1317 0657 EC000000 		.4byte	.LVL65
 1318 065b BF060000 		.4byte	0x6bf
 1319 065f 1B       		.uleb128 0x1b
 1320 0660 F8000000 		.4byte	.LVL68
 1321 0664 D0060000 		.4byte	0x6d0
 1322 0668 1B       		.uleb128 0x1b
 1323 0669 00010000 		.4byte	.LVL70
 1324 066d E1060000 		.4byte	0x6e1
 1325 0671 1C       		.uleb128 0x1c
 1326 0672 0E010000 		.4byte	.LVL73
 1327 0676 E8060000 		.4byte	0x6e8
 1328 067a 84060000 		.4byte	0x684
 1329 067e 1D       		.uleb128 0x1d
 1330 067f 01       		.uleb128 0x1
 1331 0680 50       		.byte	0x50
 1332 0681 01       		.uleb128 0x1
 1333 0682 38       		.byte	0x38
 1334 0683 00       		.byte	0
 1335 0684 1E       		.uleb128 0x1e
 1336 0685 26010000 		.4byte	.LVL75
 1337 0689 FD060000 		.4byte	0x6fd
 1338 068d 1D       		.uleb128 0x1d
 1339 068e 01       		.uleb128 0x1
 1340 068f 50       		.byte	0x50
 1341 0690 02       		.uleb128 0x2
 1342 0691 91       		.byte	0x91
 1343 0692 54       		.sleb128 -44
 1344 0693 00       		.byte	0
 1345 0694 00       		.byte	0
 1346 0695 22       		.uleb128 0x22
 1347 0696 F8030000 		.4byte	.LASF58
 1348 069a 07       		.byte	0x7
 1349 069b 9806     		.2byte	0x698
 1350 069d E4000000 		.4byte	0xe4
 1351 06a1 23       		.uleb128 0x23
 1352 06a2 6D030000 		.4byte	.LASF49
 1353 06a6 06       		.byte	0x6
 1354 06a7 C4       		.byte	0xc4
 1355 06a8 24       		.uleb128 0x24
 1356 06a9 00030000 		.4byte	.LASF46
 1357 06ad 06       		.byte	0x6
 1358 06ae C7       		.byte	0xc7
 1359 06af B9060000 		.4byte	0x6b9
 1360 06b3 25       		.uleb128 0x25
 1361 06b4 B9060000 		.4byte	0x6b9
 1362 06b8 00       		.byte	0
 1363 06b9 1F       		.uleb128 0x1f
 1364 06ba 04       		.byte	0x4
 1365 06bb 66010000 		.4byte	0x166
ARM GAS  C:\Users\jsyoon\AppData\Local\Temp\ccNKckJg.s 			page 25


 1366 06bf 24       		.uleb128 0x24
 1367 06c0 C5030000 		.4byte	.LASF47
 1368 06c4 06       		.byte	0x6
 1369 06c5 CE       		.byte	0xce
 1370 06c6 D0060000 		.4byte	0x6d0
 1371 06ca 25       		.uleb128 0x25
 1372 06cb A2000000 		.4byte	0xa2
 1373 06cf 00       		.byte	0
 1374 06d0 24       		.uleb128 0x24
 1375 06d1 1B020000 		.4byte	.LASF48
 1376 06d5 06       		.byte	0x6
 1377 06d6 CC       		.byte	0xcc
 1378 06d7 E1060000 		.4byte	0x6e1
 1379 06db 25       		.uleb128 0x25
 1380 06dc B8000000 		.4byte	0xb8
 1381 06e0 00       		.byte	0
 1382 06e1 23       		.uleb128 0x23
 1383 06e2 79030000 		.4byte	.LASF50
 1384 06e6 06       		.byte	0x6
 1385 06e7 CF       		.byte	0xcf
 1386 06e8 26       		.uleb128 0x26
 1387 06e9 28040000 		.4byte	.LASF59
 1388 06ed 06       		.byte	0x6
 1389 06ee DB       		.byte	0xdb
 1390 06ef FF000000 		.4byte	0xff
 1391 06f3 FD060000 		.4byte	0x6fd
 1392 06f7 25       		.uleb128 0x25
 1393 06f8 A2000000 		.4byte	0xa2
 1394 06fc 00       		.byte	0
 1395 06fd 24       		.uleb128 0x24
 1396 06fe 89000000 		.4byte	.LASF51
 1397 0702 06       		.byte	0x6
 1398 0703 D0       		.byte	0xd0
 1399 0704 0E070000 		.4byte	0x70e
 1400 0708 25       		.uleb128 0x25
 1401 0709 0E070000 		.4byte	0x70e
 1402 070d 00       		.byte	0
 1403 070e 1F       		.uleb128 0x1f
 1404 070f 04       		.byte	0x4
 1405 0710 86010000 		.4byte	0x186
 1406 0714 00       		.byte	0
 1407              		.section	.debug_abbrev,"",%progbits
 1408              	.Ldebug_abbrev0:
 1409 0000 01       		.uleb128 0x1
 1410 0001 11       		.uleb128 0x11
 1411 0002 01       		.byte	0x1
 1412 0003 25       		.uleb128 0x25
 1413 0004 0E       		.uleb128 0xe
 1414 0005 13       		.uleb128 0x13
 1415 0006 0B       		.uleb128 0xb
 1416 0007 03       		.uleb128 0x3
 1417 0008 0E       		.uleb128 0xe
 1418 0009 1B       		.uleb128 0x1b
 1419 000a 0E       		.uleb128 0xe
 1420 000b 55       		.uleb128 0x55
 1421 000c 17       		.uleb128 0x17
 1422 000d 11       		.uleb128 0x11
ARM GAS  C:\Users\jsyoon\AppData\Local\Temp\ccNKckJg.s 			page 26


 1423 000e 01       		.uleb128 0x1
 1424 000f 10       		.uleb128 0x10
 1425 0010 17       		.uleb128 0x17
 1426 0011 00       		.byte	0
 1427 0012 00       		.byte	0
 1428 0013 02       		.uleb128 0x2
 1429 0014 24       		.uleb128 0x24
 1430 0015 00       		.byte	0
 1431 0016 0B       		.uleb128 0xb
 1432 0017 0B       		.uleb128 0xb
 1433 0018 3E       		.uleb128 0x3e
 1434 0019 0B       		.uleb128 0xb
 1435 001a 03       		.uleb128 0x3
 1436 001b 0E       		.uleb128 0xe
 1437 001c 00       		.byte	0
 1438 001d 00       		.byte	0
 1439 001e 03       		.uleb128 0x3
 1440 001f 16       		.uleb128 0x16
 1441 0020 00       		.byte	0
 1442 0021 03       		.uleb128 0x3
 1443 0022 0E       		.uleb128 0xe
 1444 0023 3A       		.uleb128 0x3a
 1445 0024 0B       		.uleb128 0xb
 1446 0025 3B       		.uleb128 0x3b
 1447 0026 0B       		.uleb128 0xb
 1448 0027 49       		.uleb128 0x49
 1449 0028 13       		.uleb128 0x13
 1450 0029 00       		.byte	0
 1451 002a 00       		.byte	0
 1452 002b 04       		.uleb128 0x4
 1453 002c 24       		.uleb128 0x24
 1454 002d 00       		.byte	0
 1455 002e 0B       		.uleb128 0xb
 1456 002f 0B       		.uleb128 0xb
 1457 0030 3E       		.uleb128 0x3e
 1458 0031 0B       		.uleb128 0xb
 1459 0032 03       		.uleb128 0x3
 1460 0033 08       		.uleb128 0x8
 1461 0034 00       		.byte	0
 1462 0035 00       		.byte	0
 1463 0036 05       		.uleb128 0x5
 1464 0037 35       		.uleb128 0x35
 1465 0038 00       		.byte	0
 1466 0039 49       		.uleb128 0x49
 1467 003a 13       		.uleb128 0x13
 1468 003b 00       		.byte	0
 1469 003c 00       		.byte	0
 1470 003d 06       		.uleb128 0x6
 1471 003e 01       		.uleb128 0x1
 1472 003f 01       		.byte	0x1
 1473 0040 49       		.uleb128 0x49
 1474 0041 13       		.uleb128 0x13
 1475 0042 01       		.uleb128 0x1
 1476 0043 13       		.uleb128 0x13
 1477 0044 00       		.byte	0
 1478 0045 00       		.byte	0
 1479 0046 07       		.uleb128 0x7
ARM GAS  C:\Users\jsyoon\AppData\Local\Temp\ccNKckJg.s 			page 27


 1480 0047 21       		.uleb128 0x21
 1481 0048 00       		.byte	0
 1482 0049 49       		.uleb128 0x49
 1483 004a 13       		.uleb128 0x13
 1484 004b 2F       		.uleb128 0x2f
 1485 004c 0B       		.uleb128 0xb
 1486 004d 00       		.byte	0
 1487 004e 00       		.byte	0
 1488 004f 08       		.uleb128 0x8
 1489 0050 04       		.uleb128 0x4
 1490 0051 01       		.byte	0x1
 1491 0052 0B       		.uleb128 0xb
 1492 0053 0B       		.uleb128 0xb
 1493 0054 3A       		.uleb128 0x3a
 1494 0055 0B       		.uleb128 0xb
 1495 0056 3B       		.uleb128 0x3b
 1496 0057 05       		.uleb128 0x5
 1497 0058 01       		.uleb128 0x1
 1498 0059 13       		.uleb128 0x13
 1499 005a 00       		.byte	0
 1500 005b 00       		.byte	0
 1501 005c 09       		.uleb128 0x9
 1502 005d 28       		.uleb128 0x28
 1503 005e 00       		.byte	0
 1504 005f 03       		.uleb128 0x3
 1505 0060 0E       		.uleb128 0xe
 1506 0061 1C       		.uleb128 0x1c
 1507 0062 0D       		.uleb128 0xd
 1508 0063 00       		.byte	0
 1509 0064 00       		.byte	0
 1510 0065 0A       		.uleb128 0xa
 1511 0066 28       		.uleb128 0x28
 1512 0067 00       		.byte	0
 1513 0068 03       		.uleb128 0x3
 1514 0069 08       		.uleb128 0x8
 1515 006a 1C       		.uleb128 0x1c
 1516 006b 0D       		.uleb128 0xd
 1517 006c 00       		.byte	0
 1518 006d 00       		.byte	0
 1519 006e 0B       		.uleb128 0xb
 1520 006f 16       		.uleb128 0x16
 1521 0070 00       		.byte	0
 1522 0071 03       		.uleb128 0x3
 1523 0072 0E       		.uleb128 0xe
 1524 0073 3A       		.uleb128 0x3a
 1525 0074 0B       		.uleb128 0xb
 1526 0075 3B       		.uleb128 0x3b
 1527 0076 05       		.uleb128 0x5
 1528 0077 49       		.uleb128 0x49
 1529 0078 13       		.uleb128 0x13
 1530 0079 00       		.byte	0
 1531 007a 00       		.byte	0
 1532 007b 0C       		.uleb128 0xc
 1533 007c 13       		.uleb128 0x13
 1534 007d 01       		.byte	0x1
 1535 007e 0B       		.uleb128 0xb
 1536 007f 0B       		.uleb128 0xb
ARM GAS  C:\Users\jsyoon\AppData\Local\Temp\ccNKckJg.s 			page 28


 1537 0080 3A       		.uleb128 0x3a
 1538 0081 0B       		.uleb128 0xb
 1539 0082 3B       		.uleb128 0x3b
 1540 0083 0B       		.uleb128 0xb
 1541 0084 01       		.uleb128 0x1
 1542 0085 13       		.uleb128 0x13
 1543 0086 00       		.byte	0
 1544 0087 00       		.byte	0
 1545 0088 0D       		.uleb128 0xd
 1546 0089 0D       		.uleb128 0xd
 1547 008a 00       		.byte	0
 1548 008b 03       		.uleb128 0x3
 1549 008c 0E       		.uleb128 0xe
 1550 008d 3A       		.uleb128 0x3a
 1551 008e 0B       		.uleb128 0xb
 1552 008f 3B       		.uleb128 0x3b
 1553 0090 0B       		.uleb128 0xb
 1554 0091 49       		.uleb128 0x49
 1555 0092 13       		.uleb128 0x13
 1556 0093 38       		.uleb128 0x38
 1557 0094 0B       		.uleb128 0xb
 1558 0095 00       		.byte	0
 1559 0096 00       		.byte	0
 1560 0097 0E       		.uleb128 0xe
 1561 0098 2E       		.uleb128 0x2e
 1562 0099 01       		.byte	0x1
 1563 009a 03       		.uleb128 0x3
 1564 009b 0E       		.uleb128 0xe
 1565 009c 3A       		.uleb128 0x3a
 1566 009d 0B       		.uleb128 0xb
 1567 009e 3B       		.uleb128 0x3b
 1568 009f 05       		.uleb128 0x5
 1569 00a0 27       		.uleb128 0x27
 1570 00a1 19       		.uleb128 0x19
 1571 00a2 49       		.uleb128 0x49
 1572 00a3 13       		.uleb128 0x13
 1573 00a4 20       		.uleb128 0x20
 1574 00a5 0B       		.uleb128 0xb
 1575 00a6 01       		.uleb128 0x1
 1576 00a7 13       		.uleb128 0x13
 1577 00a8 00       		.byte	0
 1578 00a9 00       		.byte	0
 1579 00aa 0F       		.uleb128 0xf
 1580 00ab 05       		.uleb128 0x5
 1581 00ac 00       		.byte	0
 1582 00ad 03       		.uleb128 0x3
 1583 00ae 0E       		.uleb128 0xe
 1584 00af 3A       		.uleb128 0x3a
 1585 00b0 0B       		.uleb128 0xb
 1586 00b1 3B       		.uleb128 0x3b
 1587 00b2 05       		.uleb128 0x5
 1588 00b3 49       		.uleb128 0x49
 1589 00b4 13       		.uleb128 0x13
 1590 00b5 00       		.byte	0
 1591 00b6 00       		.byte	0
 1592 00b7 10       		.uleb128 0x10
 1593 00b8 34       		.uleb128 0x34
ARM GAS  C:\Users\jsyoon\AppData\Local\Temp\ccNKckJg.s 			page 29


 1594 00b9 00       		.byte	0
 1595 00ba 03       		.uleb128 0x3
 1596 00bb 0E       		.uleb128 0xe
 1597 00bc 3A       		.uleb128 0x3a
 1598 00bd 0B       		.uleb128 0xb
 1599 00be 3B       		.uleb128 0x3b
 1600 00bf 05       		.uleb128 0x5
 1601 00c0 49       		.uleb128 0x49
 1602 00c1 13       		.uleb128 0x13
 1603 00c2 00       		.byte	0
 1604 00c3 00       		.byte	0
 1605 00c4 11       		.uleb128 0x11
 1606 00c5 2E       		.uleb128 0x2e
 1607 00c6 01       		.byte	0x1
 1608 00c7 3F       		.uleb128 0x3f
 1609 00c8 19       		.uleb128 0x19
 1610 00c9 03       		.uleb128 0x3
 1611 00ca 0E       		.uleb128 0xe
 1612 00cb 3A       		.uleb128 0x3a
 1613 00cc 0B       		.uleb128 0xb
 1614 00cd 3B       		.uleb128 0x3b
 1615 00ce 0B       		.uleb128 0xb
 1616 00cf 27       		.uleb128 0x27
 1617 00d0 19       		.uleb128 0x19
 1618 00d1 49       		.uleb128 0x49
 1619 00d2 13       		.uleb128 0x13
 1620 00d3 11       		.uleb128 0x11
 1621 00d4 01       		.uleb128 0x1
 1622 00d5 12       		.uleb128 0x12
 1623 00d6 06       		.uleb128 0x6
 1624 00d7 40       		.uleb128 0x40
 1625 00d8 18       		.uleb128 0x18
 1626 00d9 9742     		.uleb128 0x2117
 1627 00db 19       		.uleb128 0x19
 1628 00dc 01       		.uleb128 0x1
 1629 00dd 13       		.uleb128 0x13
 1630 00de 00       		.byte	0
 1631 00df 00       		.byte	0
 1632 00e0 12       		.uleb128 0x12
 1633 00e1 05       		.uleb128 0x5
 1634 00e2 00       		.byte	0
 1635 00e3 03       		.uleb128 0x3
 1636 00e4 0E       		.uleb128 0xe
 1637 00e5 3A       		.uleb128 0x3a
 1638 00e6 0B       		.uleb128 0xb
 1639 00e7 3B       		.uleb128 0x3b
 1640 00e8 0B       		.uleb128 0xb
 1641 00e9 49       		.uleb128 0x49
 1642 00ea 13       		.uleb128 0x13
 1643 00eb 02       		.uleb128 0x2
 1644 00ec 17       		.uleb128 0x17
 1645 00ed 00       		.byte	0
 1646 00ee 00       		.byte	0
 1647 00ef 13       		.uleb128 0x13
 1648 00f0 34       		.uleb128 0x34
 1649 00f1 00       		.byte	0
 1650 00f2 03       		.uleb128 0x3
ARM GAS  C:\Users\jsyoon\AppData\Local\Temp\ccNKckJg.s 			page 30


 1651 00f3 0E       		.uleb128 0xe
 1652 00f4 3A       		.uleb128 0x3a
 1653 00f5 0B       		.uleb128 0xb
 1654 00f6 3B       		.uleb128 0x3b
 1655 00f7 0B       		.uleb128 0xb
 1656 00f8 49       		.uleb128 0x49
 1657 00f9 13       		.uleb128 0x13
 1658 00fa 02       		.uleb128 0x2
 1659 00fb 18       		.uleb128 0x18
 1660 00fc 00       		.byte	0
 1661 00fd 00       		.byte	0
 1662 00fe 14       		.uleb128 0x14
 1663 00ff 34       		.uleb128 0x34
 1664 0100 00       		.byte	0
 1665 0101 03       		.uleb128 0x3
 1666 0102 08       		.uleb128 0x8
 1667 0103 3A       		.uleb128 0x3a
 1668 0104 0B       		.uleb128 0xb
 1669 0105 3B       		.uleb128 0x3b
 1670 0106 0B       		.uleb128 0xb
 1671 0107 49       		.uleb128 0x49
 1672 0108 13       		.uleb128 0x13
 1673 0109 02       		.uleb128 0x2
 1674 010a 17       		.uleb128 0x17
 1675 010b 00       		.byte	0
 1676 010c 00       		.byte	0
 1677 010d 15       		.uleb128 0x15
 1678 010e 34       		.uleb128 0x34
 1679 010f 00       		.byte	0
 1680 0110 03       		.uleb128 0x3
 1681 0111 0E       		.uleb128 0xe
 1682 0112 3A       		.uleb128 0x3a
 1683 0113 0B       		.uleb128 0xb
 1684 0114 3B       		.uleb128 0x3b
 1685 0115 0B       		.uleb128 0xb
 1686 0116 49       		.uleb128 0x49
 1687 0117 13       		.uleb128 0x13
 1688 0118 02       		.uleb128 0x2
 1689 0119 17       		.uleb128 0x17
 1690 011a 00       		.byte	0
 1691 011b 00       		.byte	0
 1692 011c 16       		.uleb128 0x16
 1693 011d 1D       		.uleb128 0x1d
 1694 011e 01       		.byte	0x1
 1695 011f 31       		.uleb128 0x31
 1696 0120 13       		.uleb128 0x13
 1697 0121 11       		.uleb128 0x11
 1698 0122 01       		.uleb128 0x1
 1699 0123 12       		.uleb128 0x12
 1700 0124 06       		.uleb128 0x6
 1701 0125 58       		.uleb128 0x58
 1702 0126 0B       		.uleb128 0xb
 1703 0127 59       		.uleb128 0x59
 1704 0128 0B       		.uleb128 0xb
 1705 0129 01       		.uleb128 0x1
 1706 012a 13       		.uleb128 0x13
 1707 012b 00       		.byte	0
ARM GAS  C:\Users\jsyoon\AppData\Local\Temp\ccNKckJg.s 			page 31


 1708 012c 00       		.byte	0
 1709 012d 17       		.uleb128 0x17
 1710 012e 05       		.uleb128 0x5
 1711 012f 00       		.byte	0
 1712 0130 31       		.uleb128 0x31
 1713 0131 13       		.uleb128 0x13
 1714 0132 02       		.uleb128 0x2
 1715 0133 18       		.uleb128 0x18
 1716 0134 00       		.byte	0
 1717 0135 00       		.byte	0
 1718 0136 18       		.uleb128 0x18
 1719 0137 0B       		.uleb128 0xb
 1720 0138 01       		.byte	0x1
 1721 0139 11       		.uleb128 0x11
 1722 013a 01       		.uleb128 0x1
 1723 013b 12       		.uleb128 0x12
 1724 013c 06       		.uleb128 0x6
 1725 013d 00       		.byte	0
 1726 013e 00       		.byte	0
 1727 013f 19       		.uleb128 0x19
 1728 0140 34       		.uleb128 0x34
 1729 0141 00       		.byte	0
 1730 0142 31       		.uleb128 0x31
 1731 0143 13       		.uleb128 0x13
 1732 0144 02       		.uleb128 0x2
 1733 0145 17       		.uleb128 0x17
 1734 0146 00       		.byte	0
 1735 0147 00       		.byte	0
 1736 0148 1A       		.uleb128 0x1a
 1737 0149 34       		.uleb128 0x34
 1738 014a 00       		.byte	0
 1739 014b 31       		.uleb128 0x31
 1740 014c 13       		.uleb128 0x13
 1741 014d 02       		.uleb128 0x2
 1742 014e 18       		.uleb128 0x18
 1743 014f 00       		.byte	0
 1744 0150 00       		.byte	0
 1745 0151 1B       		.uleb128 0x1b
 1746 0152 898201   		.uleb128 0x4109
 1747 0155 00       		.byte	0
 1748 0156 11       		.uleb128 0x11
 1749 0157 01       		.uleb128 0x1
 1750 0158 31       		.uleb128 0x31
 1751 0159 13       		.uleb128 0x13
 1752 015a 00       		.byte	0
 1753 015b 00       		.byte	0
 1754 015c 1C       		.uleb128 0x1c
 1755 015d 898201   		.uleb128 0x4109
 1756 0160 01       		.byte	0x1
 1757 0161 11       		.uleb128 0x11
 1758 0162 01       		.uleb128 0x1
 1759 0163 31       		.uleb128 0x31
 1760 0164 13       		.uleb128 0x13
 1761 0165 01       		.uleb128 0x1
 1762 0166 13       		.uleb128 0x13
 1763 0167 00       		.byte	0
 1764 0168 00       		.byte	0
ARM GAS  C:\Users\jsyoon\AppData\Local\Temp\ccNKckJg.s 			page 32


 1765 0169 1D       		.uleb128 0x1d
 1766 016a 8A8201   		.uleb128 0x410a
 1767 016d 00       		.byte	0
 1768 016e 02       		.uleb128 0x2
 1769 016f 18       		.uleb128 0x18
 1770 0170 9142     		.uleb128 0x2111
 1771 0172 18       		.uleb128 0x18
 1772 0173 00       		.byte	0
 1773 0174 00       		.byte	0
 1774 0175 1E       		.uleb128 0x1e
 1775 0176 898201   		.uleb128 0x4109
 1776 0179 01       		.byte	0x1
 1777 017a 11       		.uleb128 0x11
 1778 017b 01       		.uleb128 0x1
 1779 017c 31       		.uleb128 0x31
 1780 017d 13       		.uleb128 0x13
 1781 017e 00       		.byte	0
 1782 017f 00       		.byte	0
 1783 0180 1F       		.uleb128 0x1f
 1784 0181 0F       		.uleb128 0xf
 1785 0182 00       		.byte	0
 1786 0183 0B       		.uleb128 0xb
 1787 0184 0B       		.uleb128 0xb
 1788 0185 49       		.uleb128 0x49
 1789 0186 13       		.uleb128 0x13
 1790 0187 00       		.byte	0
 1791 0188 00       		.byte	0
 1792 0189 20       		.uleb128 0x20
 1793 018a 05       		.uleb128 0x5
 1794 018b 00       		.byte	0
 1795 018c 03       		.uleb128 0x3
 1796 018d 08       		.uleb128 0x8
 1797 018e 3A       		.uleb128 0x3a
 1798 018f 0B       		.uleb128 0xb
 1799 0190 3B       		.uleb128 0x3b
 1800 0191 0B       		.uleb128 0xb
 1801 0192 49       		.uleb128 0x49
 1802 0193 13       		.uleb128 0x13
 1803 0194 02       		.uleb128 0x2
 1804 0195 17       		.uleb128 0x17
 1805 0196 00       		.byte	0
 1806 0197 00       		.byte	0
 1807 0198 21       		.uleb128 0x21
 1808 0199 1D       		.uleb128 0x1d
 1809 019a 01       		.byte	0x1
 1810 019b 31       		.uleb128 0x31
 1811 019c 13       		.uleb128 0x13
 1812 019d 11       		.uleb128 0x11
 1813 019e 01       		.uleb128 0x1
 1814 019f 12       		.uleb128 0x12
 1815 01a0 06       		.uleb128 0x6
 1816 01a1 58       		.uleb128 0x58
 1817 01a2 0B       		.uleb128 0xb
 1818 01a3 59       		.uleb128 0x59
 1819 01a4 05       		.uleb128 0x5
 1820 01a5 01       		.uleb128 0x1
 1821 01a6 13       		.uleb128 0x13
ARM GAS  C:\Users\jsyoon\AppData\Local\Temp\ccNKckJg.s 			page 33


 1822 01a7 00       		.byte	0
 1823 01a8 00       		.byte	0
 1824 01a9 22       		.uleb128 0x22
 1825 01aa 34       		.uleb128 0x34
 1826 01ab 00       		.byte	0
 1827 01ac 03       		.uleb128 0x3
 1828 01ad 0E       		.uleb128 0xe
 1829 01ae 3A       		.uleb128 0x3a
 1830 01af 0B       		.uleb128 0xb
 1831 01b0 3B       		.uleb128 0x3b
 1832 01b1 05       		.uleb128 0x5
 1833 01b2 49       		.uleb128 0x49
 1834 01b3 13       		.uleb128 0x13
 1835 01b4 3F       		.uleb128 0x3f
 1836 01b5 19       		.uleb128 0x19
 1837 01b6 3C       		.uleb128 0x3c
 1838 01b7 19       		.uleb128 0x19
 1839 01b8 00       		.byte	0
 1840 01b9 00       		.byte	0
 1841 01ba 23       		.uleb128 0x23
 1842 01bb 2E       		.uleb128 0x2e
 1843 01bc 00       		.byte	0
 1844 01bd 3F       		.uleb128 0x3f
 1845 01be 19       		.uleb128 0x19
 1846 01bf 03       		.uleb128 0x3
 1847 01c0 0E       		.uleb128 0xe
 1848 01c1 3A       		.uleb128 0x3a
 1849 01c2 0B       		.uleb128 0xb
 1850 01c3 3B       		.uleb128 0x3b
 1851 01c4 0B       		.uleb128 0xb
 1852 01c5 27       		.uleb128 0x27
 1853 01c6 19       		.uleb128 0x19
 1854 01c7 3C       		.uleb128 0x3c
 1855 01c8 19       		.uleb128 0x19
 1856 01c9 00       		.byte	0
 1857 01ca 00       		.byte	0
 1858 01cb 24       		.uleb128 0x24
 1859 01cc 2E       		.uleb128 0x2e
 1860 01cd 01       		.byte	0x1
 1861 01ce 3F       		.uleb128 0x3f
 1862 01cf 19       		.uleb128 0x19
 1863 01d0 03       		.uleb128 0x3
 1864 01d1 0E       		.uleb128 0xe
 1865 01d2 3A       		.uleb128 0x3a
 1866 01d3 0B       		.uleb128 0xb
 1867 01d4 3B       		.uleb128 0x3b
 1868 01d5 0B       		.uleb128 0xb
 1869 01d6 27       		.uleb128 0x27
 1870 01d7 19       		.uleb128 0x19
 1871 01d8 3C       		.uleb128 0x3c
 1872 01d9 19       		.uleb128 0x19
 1873 01da 01       		.uleb128 0x1
 1874 01db 13       		.uleb128 0x13
 1875 01dc 00       		.byte	0
 1876 01dd 00       		.byte	0
 1877 01de 25       		.uleb128 0x25
 1878 01df 05       		.uleb128 0x5
ARM GAS  C:\Users\jsyoon\AppData\Local\Temp\ccNKckJg.s 			page 34


 1879 01e0 00       		.byte	0
 1880 01e1 49       		.uleb128 0x49
 1881 01e2 13       		.uleb128 0x13
 1882 01e3 00       		.byte	0
 1883 01e4 00       		.byte	0
 1884 01e5 26       		.uleb128 0x26
 1885 01e6 2E       		.uleb128 0x2e
 1886 01e7 01       		.byte	0x1
 1887 01e8 3F       		.uleb128 0x3f
 1888 01e9 19       		.uleb128 0x19
 1889 01ea 03       		.uleb128 0x3
 1890 01eb 0E       		.uleb128 0xe
 1891 01ec 3A       		.uleb128 0x3a
 1892 01ed 0B       		.uleb128 0xb
 1893 01ee 3B       		.uleb128 0x3b
 1894 01ef 0B       		.uleb128 0xb
 1895 01f0 27       		.uleb128 0x27
 1896 01f1 19       		.uleb128 0x19
 1897 01f2 49       		.uleb128 0x49
 1898 01f3 13       		.uleb128 0x13
 1899 01f4 3C       		.uleb128 0x3c
 1900 01f5 19       		.uleb128 0x19
 1901 01f6 01       		.uleb128 0x1
 1902 01f7 13       		.uleb128 0x13
 1903 01f8 00       		.byte	0
 1904 01f9 00       		.byte	0
 1905 01fa 00       		.byte	0
 1906              		.section	.debug_loc,"",%progbits
 1907              	.Ldebug_loc0:
 1908              	.LLST0:
 1909 0000 00000000 		.4byte	.LVL0
 1910 0004 1F000000 		.4byte	.LVL3-1
 1911 0008 0100     		.2byte	0x1
 1912 000a 50       		.byte	0x50
 1913 000b 1F000000 		.4byte	.LVL3-1
 1914 000f 94000000 		.4byte	.LFE111
 1915 0013 0100     		.2byte	0x1
 1916 0015 56       		.byte	0x56
 1917 0016 00000000 		.4byte	0
 1918 001a 00000000 		.4byte	0
 1919              	.LLST1:
 1920 001e 00000000 		.4byte	.LVL0
 1921 0022 1F000000 		.4byte	.LVL3-1
 1922 0026 0100     		.2byte	0x1
 1923 0028 51       		.byte	0x51
 1924 0029 1F000000 		.4byte	.LVL3-1
 1925 002d 94000000 		.4byte	.LFE111
 1926 0031 0100     		.2byte	0x1
 1927 0033 55       		.byte	0x55
 1928 0034 00000000 		.4byte	0
 1929 0038 00000000 		.4byte	0
 1930              	.LLST2:
 1931 003c 00000000 		.4byte	.LVL0
 1932 0040 1F000000 		.4byte	.LVL3-1
 1933 0044 0100     		.2byte	0x1
 1934 0046 52       		.byte	0x52
 1935 0047 1F000000 		.4byte	.LVL3-1
ARM GAS  C:\Users\jsyoon\AppData\Local\Temp\ccNKckJg.s 			page 35


 1936 004b 94000000 		.4byte	.LFE111
 1937 004f 0100     		.2byte	0x1
 1938 0051 57       		.byte	0x57
 1939 0052 00000000 		.4byte	0
 1940 0056 00000000 		.4byte	0
 1941              	.LLST3:
 1942 005a 12000000 		.4byte	.LVL1
 1943 005e 3A000000 		.4byte	.LVL6
 1944 0062 0200     		.2byte	0x2
 1945 0064 30       		.byte	0x30
 1946 0065 9F       		.byte	0x9f
 1947 0066 3A000000 		.4byte	.LVL6
 1948 006a 3E000000 		.4byte	.LVL7
 1949 006e 0100     		.2byte	0x1
 1950 0070 54       		.byte	0x54
 1951 0071 3E000000 		.4byte	.LVL7
 1952 0075 42000000 		.4byte	.LVL8
 1953 0079 0300     		.2byte	0x3
 1954 007b 74       		.byte	0x74
 1955 007c 7C       		.sleb128 -4
 1956 007d 9F       		.byte	0x9f
 1957 007e 42000000 		.4byte	.LVL8
 1958 0082 46000000 		.4byte	.LVL9
 1959 0086 0100     		.2byte	0x1
 1960 0088 54       		.byte	0x54
 1961 0089 00000000 		.4byte	0
 1962 008d 00000000 		.4byte	0
 1963              	.LLST4:
 1964 0091 18000000 		.4byte	.LVL2
 1965 0095 4C000000 		.4byte	.LVL11
 1966 0099 0200     		.2byte	0x2
 1967 009b 30       		.byte	0x30
 1968 009c 9F       		.byte	0x9f
 1969 009d 4C000000 		.4byte	.LVL11
 1970 00a1 4E000000 		.4byte	.LVL12
 1971 00a5 0100     		.2byte	0x1
 1972 00a7 50       		.byte	0x50
 1973 00a8 54000000 		.4byte	.LVL13
 1974 00ac 66000000 		.4byte	.LVL14
 1975 00b0 0100     		.2byte	0x1
 1976 00b2 50       		.byte	0x50
 1977 00b3 6A000000 		.4byte	.LVL15
 1978 00b7 6C000000 		.4byte	.LVL16
 1979 00bb 0100     		.2byte	0x1
 1980 00bd 50       		.byte	0x50
 1981 00be 00000000 		.4byte	0
 1982 00c2 00000000 		.4byte	0
 1983              	.LLST5:
 1984 00c6 18000000 		.4byte	.LVL2
 1985 00ca 66000000 		.4byte	.LVL14
 1986 00ce 0200     		.2byte	0x2
 1987 00d0 31       		.byte	0x31
 1988 00d1 9F       		.byte	0x9f
 1989 00d2 66000000 		.4byte	.LVL14
 1990 00d6 6A000000 		.4byte	.LVL15
 1991 00da 0100     		.2byte	0x1
 1992 00dc 50       		.byte	0x50
ARM GAS  C:\Users\jsyoon\AppData\Local\Temp\ccNKckJg.s 			page 36


 1993 00dd 6A000000 		.4byte	.LVL15
 1994 00e1 90000000 		.4byte	.LVL31
 1995 00e5 0200     		.2byte	0x2
 1996 00e7 31       		.byte	0x31
 1997 00e8 9F       		.byte	0x9f
 1998 00e9 90000000 		.4byte	.LVL31
 1999 00ed 94000000 		.4byte	.LFE111
 2000 00f1 0100     		.2byte	0x1
 2001 00f3 50       		.byte	0x50
 2002 00f4 00000000 		.4byte	0
 2003 00f8 00000000 		.4byte	0
 2004              	.LLST6:
 2005 00fc 18000000 		.4byte	.LVL2
 2006 0100 1F000000 		.4byte	.LVL3-1
 2007 0104 0100     		.2byte	0x1
 2008 0106 50       		.byte	0x50
 2009 0107 1F000000 		.4byte	.LVL3-1
 2010 010b 3A000000 		.4byte	.LVL6
 2011 010f 0100     		.2byte	0x1
 2012 0111 56       		.byte	0x56
 2013 0112 3A000000 		.4byte	.LVL6
 2014 0116 3E000000 		.4byte	.LVL7
 2015 011a 0600     		.2byte	0x6
 2016 011c 76       		.byte	0x76
 2017 011d 00       		.sleb128 0
 2018 011e 74       		.byte	0x74
 2019 011f 00       		.sleb128 0
 2020 0120 22       		.byte	0x22
 2021 0121 9F       		.byte	0x9f
 2022 0122 3E000000 		.4byte	.LVL7
 2023 0126 42000000 		.4byte	.LVL8
 2024 012a 0800     		.2byte	0x8
 2025 012c 76       		.byte	0x76
 2026 012d 00       		.sleb128 0
 2027 012e 74       		.byte	0x74
 2028 012f 00       		.sleb128 0
 2029 0130 22       		.byte	0x22
 2030 0131 34       		.byte	0x34
 2031 0132 1C       		.byte	0x1c
 2032 0133 9F       		.byte	0x9f
 2033 0134 00000000 		.4byte	0
 2034 0138 00000000 		.4byte	0
 2035              	.LLST7:
 2036 013c 18000000 		.4byte	.LVL2
 2037 0140 1F000000 		.4byte	.LVL3-1
 2038 0144 0100     		.2byte	0x1
 2039 0146 52       		.byte	0x52
 2040 0147 1F000000 		.4byte	.LVL3-1
 2041 014b 76000000 		.4byte	.LVL19
 2042 014f 0100     		.2byte	0x1
 2043 0151 57       		.byte	0x57
 2044 0152 76000000 		.4byte	.LVL19
 2045 0156 7C000000 		.4byte	.LVL22
 2046 015a 0300     		.2byte	0x3
 2047 015c 77       		.byte	0x77
 2048 015d 04       		.sleb128 4
 2049 015e 9F       		.byte	0x9f
ARM GAS  C:\Users\jsyoon\AppData\Local\Temp\ccNKckJg.s 			page 37


 2050 015f 7C000000 		.4byte	.LVL22
 2051 0163 82000000 		.4byte	.LVL25
 2052 0167 0300     		.2byte	0x3
 2053 0169 77       		.byte	0x77
 2054 016a 08       		.sleb128 8
 2055 016b 9F       		.byte	0x9f
 2056 016c 82000000 		.4byte	.LVL25
 2057 0170 88000000 		.4byte	.LVL28
 2058 0174 0300     		.2byte	0x3
 2059 0176 77       		.byte	0x77
 2060 0177 0C       		.sleb128 12
 2061 0178 9F       		.byte	0x9f
 2062 0179 88000000 		.4byte	.LVL28
 2063 017d 94000000 		.4byte	.LFE111
 2064 0181 0300     		.2byte	0x3
 2065 0183 77       		.byte	0x77
 2066 0184 10       		.sleb128 16
 2067 0185 9F       		.byte	0x9f
 2068 0186 00000000 		.4byte	0
 2069 018a 00000000 		.4byte	0
 2070              	.LLST8:
 2071 018e 74000000 		.4byte	.LVL18
 2072 0192 78000000 		.4byte	.LVL20
 2073 0196 0100     		.2byte	0x1
 2074 0198 53       		.byte	0x53
 2075 0199 78000000 		.4byte	.LVL20
 2076 019d 94000000 		.4byte	.LFE111
 2077 01a1 0200     		.2byte	0x2
 2078 01a3 77       		.byte	0x77
 2079 01a4 00       		.sleb128 0
 2080 01a5 00000000 		.4byte	0
 2081 01a9 00000000 		.4byte	0
 2082              	.LLST9:
 2083 01ad 7A000000 		.4byte	.LVL21
 2084 01b1 7E000000 		.4byte	.LVL23
 2085 01b5 0100     		.2byte	0x1
 2086 01b7 53       		.byte	0x53
 2087 01b8 7E000000 		.4byte	.LVL23
 2088 01bc 94000000 		.4byte	.LFE111
 2089 01c0 0200     		.2byte	0x2
 2090 01c2 77       		.byte	0x77
 2091 01c3 04       		.sleb128 4
 2092 01c4 00000000 		.4byte	0
 2093 01c8 00000000 		.4byte	0
 2094              	.LLST10:
 2095 01cc 80000000 		.4byte	.LVL24
 2096 01d0 84000000 		.4byte	.LVL26
 2097 01d4 0100     		.2byte	0x1
 2098 01d6 53       		.byte	0x53
 2099 01d7 84000000 		.4byte	.LVL26
 2100 01db 94000000 		.4byte	.LFE111
 2101 01df 0200     		.2byte	0x2
 2102 01e1 77       		.byte	0x77
 2103 01e2 08       		.sleb128 8
 2104 01e3 00000000 		.4byte	0
 2105 01e7 00000000 		.4byte	0
 2106              	.LLST11:
ARM GAS  C:\Users\jsyoon\AppData\Local\Temp\ccNKckJg.s 			page 38


 2107 01eb 86000000 		.4byte	.LVL27
 2108 01ef 8A000000 		.4byte	.LVL29
 2109 01f3 0100     		.2byte	0x1
 2110 01f5 53       		.byte	0x53
 2111 01f6 8A000000 		.4byte	.LVL29
 2112 01fa 94000000 		.4byte	.LFE111
 2113 01fe 0200     		.2byte	0x2
 2114 0200 77       		.byte	0x77
 2115 0201 0C       		.sleb128 12
 2116 0202 00000000 		.4byte	0
 2117 0206 00000000 		.4byte	0
 2118              	.LLST12:
 2119 020a 00000000 		.4byte	.LVL32
 2120 020e 31000000 		.4byte	.LVL37-1
 2121 0212 0100     		.2byte	0x1
 2122 0214 50       		.byte	0x50
 2123 0215 31000000 		.4byte	.LVL37-1
 2124 0219 4A010000 		.4byte	.LFE112
 2125 021d 0100     		.2byte	0x1
 2126 021f 56       		.byte	0x56
 2127 0220 00000000 		.4byte	0
 2128 0224 00000000 		.4byte	0
 2129              	.LLST13:
 2130 0228 00000000 		.4byte	.LVL32
 2131 022c 0C000000 		.4byte	.LVL33
 2132 0230 0100     		.2byte	0x1
 2133 0232 51       		.byte	0x51
 2134 0233 0C000000 		.4byte	.LVL33
 2135 0237 4A010000 		.4byte	.LFE112
 2136 023b 0100     		.2byte	0x1
 2137 023d 55       		.byte	0x55
 2138 023e 00000000 		.4byte	0
 2139 0242 00000000 		.4byte	0
 2140              	.LLST14:
 2141 0246 00000000 		.4byte	.LVL32
 2142 024a 31000000 		.4byte	.LVL37-1
 2143 024e 0100     		.2byte	0x1
 2144 0250 52       		.byte	0x52
 2145 0251 31000000 		.4byte	.LVL37-1
 2146 0255 4A010000 		.4byte	.LFE112
 2147 0259 0100     		.2byte	0x1
 2148 025b 58       		.byte	0x58
 2149 025c 00000000 		.4byte	0
 2150 0260 00000000 		.4byte	0
 2151              	.LLST15:
 2152 0264 00000000 		.4byte	.LVL32
 2153 0268 12000000 		.4byte	.LVL34
 2154 026c 0100     		.2byte	0x1
 2155 026e 53       		.byte	0x53
 2156 026f 12000000 		.4byte	.LVL34
 2157 0273 4A010000 		.4byte	.LFE112
 2158 0277 0100     		.2byte	0x1
 2159 0279 57       		.byte	0x57
 2160 027a 00000000 		.4byte	0
 2161 027e 00000000 		.4byte	0
 2162              	.LLST16:
 2163 0282 00000000 		.4byte	.LVL32
ARM GAS  C:\Users\jsyoon\AppData\Local\Temp\ccNKckJg.s 			page 39


 2164 0286 8A000000 		.4byte	.LVL50
 2165 028a 0200     		.2byte	0x2
 2166 028c 91       		.byte	0x91
 2167 028d 00       		.sleb128 0
 2168 028e 8A000000 		.4byte	.LVL50
 2169 0292 4A010000 		.4byte	.LFE112
 2170 0296 0200     		.2byte	0x2
 2171 0298 91       		.byte	0x91
 2172 0299 00       		.sleb128 0
 2173 029a 00000000 		.4byte	0
 2174 029e 00000000 		.4byte	0
 2175              	.LLST17:
 2176 02a2 22000000 		.4byte	.LVL35
 2177 02a6 58000000 		.4byte	.LVL40
 2178 02aa 0200     		.2byte	0x2
 2179 02ac 30       		.byte	0x30
 2180 02ad 9F       		.byte	0x9f
 2181 02ae 58000000 		.4byte	.LVL40
 2182 02b2 5C000000 		.4byte	.LVL41
 2183 02b6 0100     		.2byte	0x1
 2184 02b8 54       		.byte	0x54
 2185 02b9 5C000000 		.4byte	.LVL41
 2186 02bd 60000000 		.4byte	.LVL42
 2187 02c1 0300     		.2byte	0x3
 2188 02c3 74       		.byte	0x74
 2189 02c4 7C       		.sleb128 -4
 2190 02c5 9F       		.byte	0x9f
 2191 02c6 60000000 		.4byte	.LVL42
 2192 02ca 64000000 		.4byte	.LVL43
 2193 02ce 0100     		.2byte	0x1
 2194 02d0 54       		.byte	0x54
 2195 02d1 8A000000 		.4byte	.LVL50
 2196 02d5 A2000000 		.4byte	.LVL53
 2197 02d9 0200     		.2byte	0x2
 2198 02db 30       		.byte	0x30
 2199 02dc 9F       		.byte	0x9f
 2200 02dd AC000000 		.4byte	.LVL55
 2201 02e1 B0000000 		.4byte	.LVL56
 2202 02e5 0200     		.2byte	0x2
 2203 02e7 30       		.byte	0x30
 2204 02e8 9F       		.byte	0x9f
 2205 02e9 B0000000 		.4byte	.LVL56
 2206 02ed B6000000 		.4byte	.LVL57
 2207 02f1 0100     		.2byte	0x1
 2208 02f3 54       		.byte	0x54
 2209 02f4 B6000000 		.4byte	.LVL57
 2210 02f8 BA000000 		.4byte	.LVL58
 2211 02fc 0300     		.2byte	0x3
 2212 02fe 74       		.byte	0x74
 2213 02ff 7C       		.sleb128 -4
 2214 0300 9F       		.byte	0x9f
 2215 0301 BA000000 		.4byte	.LVL58
 2216 0305 BE000000 		.4byte	.LVL59
 2217 0309 0100     		.2byte	0x1
 2218 030b 54       		.byte	0x54
 2219 030c EC000000 		.4byte	.LVL65
 2220 0310 F0000000 		.4byte	.LVL66
ARM GAS  C:\Users\jsyoon\AppData\Local\Temp\ccNKckJg.s 			page 40


 2221 0314 0200     		.2byte	0x2
 2222 0316 30       		.byte	0x30
 2223 0317 9F       		.byte	0x9f
 2224 0318 F0000000 		.4byte	.LVL66
 2225 031c F4000000 		.4byte	.LVL67
 2226 0320 0100     		.2byte	0x1
 2227 0322 54       		.byte	0x54
 2228 0323 F4000000 		.4byte	.LVL67
 2229 0327 F8000000 		.4byte	.LVL68
 2230 032b 0300     		.2byte	0x3
 2231 032d 74       		.byte	0x74
 2232 032e 7C       		.sleb128 -4
 2233 032f 9F       		.byte	0x9f
 2234 0330 F8000000 		.4byte	.LVL68
 2235 0334 FC000000 		.4byte	.LVL69
 2236 0338 0100     		.2byte	0x1
 2237 033a 54       		.byte	0x54
 2238 033b 00000000 		.4byte	0
 2239 033f 00000000 		.4byte	0
 2240              	.LLST18:
 2241 0343 26000000 		.4byte	.LVL36
 2242 0347 6A000000 		.4byte	.LVL45
 2243 034b 0200     		.2byte	0x2
 2244 034d 30       		.byte	0x30
 2245 034e 9F       		.byte	0x9f
 2246 034f 6A000000 		.4byte	.LVL45
 2247 0353 6C000000 		.4byte	.LVL46
 2248 0357 0100     		.2byte	0x1
 2249 0359 50       		.byte	0x50
 2250 035a 72000000 		.4byte	.LVL47
 2251 035e 84000000 		.4byte	.LVL49
 2252 0362 0100     		.2byte	0x1
 2253 0364 50       		.byte	0x50
 2254 0365 8A000000 		.4byte	.LVL50
 2255 0369 A2000000 		.4byte	.LVL53
 2256 036d 0200     		.2byte	0x2
 2257 036f 30       		.byte	0x30
 2258 0370 9F       		.byte	0x9f
 2259 0371 A2000000 		.4byte	.LVL53
 2260 0375 A6000000 		.4byte	.LVL54
 2261 0379 0100     		.2byte	0x1
 2262 037b 50       		.byte	0x50
 2263 037c C8000000 		.4byte	.LVL61
 2264 0380 CA000000 		.4byte	.LVL62
 2265 0384 0100     		.2byte	0x1
 2266 0386 50       		.byte	0x50
 2267 0387 D0000000 		.4byte	.LVL63
 2268 038b E6000000 		.4byte	.LVL64
 2269 038f 0100     		.2byte	0x1
 2270 0391 50       		.byte	0x50
 2271 0392 06010000 		.4byte	.LVL71
 2272 0396 08010000 		.4byte	.LVL72
 2273 039a 0100     		.2byte	0x1
 2274 039c 50       		.byte	0x50
 2275 039d 0E010000 		.4byte	.LVL73
 2276 03a1 22010000 		.4byte	.LVL74
 2277 03a5 0100     		.2byte	0x1
ARM GAS  C:\Users\jsyoon\AppData\Local\Temp\ccNKckJg.s 			page 41


 2278 03a7 50       		.byte	0x50
 2279 03a8 00000000 		.4byte	0
 2280 03ac 00000000 		.4byte	0
 2281              	.LLST19:
 2282 03b0 26000000 		.4byte	.LVL36
 2283 03b4 84000000 		.4byte	.LVL49
 2284 03b8 0200     		.2byte	0x2
 2285 03ba 31       		.byte	0x31
 2286 03bb 9F       		.byte	0x9f
 2287 03bc 84000000 		.4byte	.LVL49
 2288 03c0 8A000000 		.4byte	.LVL50
 2289 03c4 0100     		.2byte	0x1
 2290 03c6 50       		.byte	0x50
 2291 03c7 8A000000 		.4byte	.LVL50
 2292 03cb 4A010000 		.4byte	.LFE112
 2293 03cf 0200     		.2byte	0x2
 2294 03d1 31       		.byte	0x31
 2295 03d2 9F       		.byte	0x9f
 2296 03d3 00000000 		.4byte	0
 2297 03d7 00000000 		.4byte	0
 2298              	.LLST20:
 2299 03db 26000000 		.4byte	.LVL36
 2300 03df 31000000 		.4byte	.LVL37-1
 2301 03e3 0100     		.2byte	0x1
 2302 03e5 50       		.byte	0x50
 2303 03e6 31000000 		.4byte	.LVL37-1
 2304 03ea 58000000 		.4byte	.LVL40
 2305 03ee 0100     		.2byte	0x1
 2306 03f0 56       		.byte	0x56
 2307 03f1 58000000 		.4byte	.LVL40
 2308 03f5 5C000000 		.4byte	.LVL41
 2309 03f9 0600     		.2byte	0x6
 2310 03fb 76       		.byte	0x76
 2311 03fc 00       		.sleb128 0
 2312 03fd 74       		.byte	0x74
 2313 03fe 00       		.sleb128 0
 2314 03ff 22       		.byte	0x22
 2315 0400 9F       		.byte	0x9f
 2316 0401 5C000000 		.4byte	.LVL41
 2317 0405 60000000 		.4byte	.LVL42
 2318 0409 0800     		.2byte	0x8
 2319 040b 76       		.byte	0x76
 2320 040c 00       		.sleb128 0
 2321 040d 74       		.byte	0x74
 2322 040e 00       		.sleb128 0
 2323 040f 22       		.byte	0x22
 2324 0410 34       		.byte	0x34
 2325 0411 1C       		.byte	0x1c
 2326 0412 9F       		.byte	0x9f
 2327 0413 8A000000 		.4byte	.LVL50
 2328 0417 A2000000 		.4byte	.LVL53
 2329 041b 0100     		.2byte	0x1
 2330 041d 56       		.byte	0x56
 2331 041e EC000000 		.4byte	.LVL65
 2332 0422 F0000000 		.4byte	.LVL66
 2333 0426 0100     		.2byte	0x1
 2334 0428 56       		.byte	0x56
ARM GAS  C:\Users\jsyoon\AppData\Local\Temp\ccNKckJg.s 			page 42


 2335 0429 F0000000 		.4byte	.LVL66
 2336 042d F4000000 		.4byte	.LVL67
 2337 0431 0600     		.2byte	0x6
 2338 0433 76       		.byte	0x76
 2339 0434 00       		.sleb128 0
 2340 0435 74       		.byte	0x74
 2341 0436 00       		.sleb128 0
 2342 0437 22       		.byte	0x22
 2343 0438 9F       		.byte	0x9f
 2344 0439 F4000000 		.4byte	.LVL67
 2345 043d F8000000 		.4byte	.LVL68
 2346 0441 0800     		.2byte	0x8
 2347 0443 76       		.byte	0x76
 2348 0444 00       		.sleb128 0
 2349 0445 74       		.byte	0x74
 2350 0446 00       		.sleb128 0
 2351 0447 22       		.byte	0x22
 2352 0448 34       		.byte	0x34
 2353 0449 1C       		.byte	0x1c
 2354 044a 9F       		.byte	0x9f
 2355 044b 00000000 		.4byte	0
 2356 044f 00000000 		.4byte	0
 2357              	.LLST21:
 2358 0453 26000000 		.4byte	.LVL36
 2359 0457 31000000 		.4byte	.LVL37-1
 2360 045b 0100     		.2byte	0x1
 2361 045d 52       		.byte	0x52
 2362 045e 31000000 		.4byte	.LVL37-1
 2363 0462 82000000 		.4byte	.LVL48
 2364 0466 0100     		.2byte	0x1
 2365 0468 58       		.byte	0x58
 2366 0469 8A000000 		.4byte	.LVL50
 2367 046d B0000000 		.4byte	.LVL56
 2368 0471 0100     		.2byte	0x1
 2369 0473 58       		.byte	0x58
 2370 0474 B0000000 		.4byte	.LVL56
 2371 0478 B6000000 		.4byte	.LVL57
 2372 047c 0600     		.2byte	0x6
 2373 047e 78       		.byte	0x78
 2374 047f 00       		.sleb128 0
 2375 0480 74       		.byte	0x74
 2376 0481 00       		.sleb128 0
 2377 0482 22       		.byte	0x22
 2378 0483 9F       		.byte	0x9f
 2379 0484 B6000000 		.4byte	.LVL57
 2380 0488 BA000000 		.4byte	.LVL58
 2381 048c 0800     		.2byte	0x8
 2382 048e 78       		.byte	0x78
 2383 048f 00       		.sleb128 0
 2384 0490 74       		.byte	0x74
 2385 0491 00       		.sleb128 0
 2386 0492 22       		.byte	0x22
 2387 0493 34       		.byte	0x34
 2388 0494 1C       		.byte	0x1c
 2389 0495 9F       		.byte	0x9f
 2390 0496 00000000 		.4byte	0
 2391 049a 00000000 		.4byte	0
ARM GAS  C:\Users\jsyoon\AppData\Local\Temp\ccNKckJg.s 			page 43


 2392              	.LLST22:
 2393 049e 26000000 		.4byte	.LVL36
 2394 04a2 84000000 		.4byte	.LVL49
 2395 04a6 0200     		.2byte	0x2
 2396 04a8 91       		.byte	0x91
 2397 04a9 00       		.sleb128 0
 2398 04aa 8A000000 		.4byte	.LVL50
 2399 04ae 2E010000 		.4byte	.LVL77
 2400 04b2 0200     		.2byte	0x2
 2401 04b4 91       		.byte	0x91
 2402 04b5 00       		.sleb128 0
 2403 04b6 2E010000 		.4byte	.LVL77
 2404 04ba 34010000 		.4byte	.LVL80
 2405 04be 0300     		.2byte	0x3
 2406 04c0 72       		.byte	0x72
 2407 04c1 04       		.sleb128 4
 2408 04c2 9F       		.byte	0x9f
 2409 04c3 34010000 		.4byte	.LVL80
 2410 04c7 3A010000 		.4byte	.LVL83
 2411 04cb 0300     		.2byte	0x3
 2412 04cd 72       		.byte	0x72
 2413 04ce 08       		.sleb128 8
 2414 04cf 9F       		.byte	0x9f
 2415 04d0 3A010000 		.4byte	.LVL83
 2416 04d4 40010000 		.4byte	.LVL86
 2417 04d8 0300     		.2byte	0x3
 2418 04da 72       		.byte	0x72
 2419 04db 0C       		.sleb128 12
 2420 04dc 9F       		.byte	0x9f
 2421 04dd 40010000 		.4byte	.LVL86
 2422 04e1 4A010000 		.4byte	.LFE112
 2423 04e5 0300     		.2byte	0x3
 2424 04e7 72       		.byte	0x72
 2425 04e8 10       		.sleb128 16
 2426 04e9 9F       		.byte	0x9f
 2427 04ea 00000000 		.4byte	0
 2428 04ee 00000000 		.4byte	0
 2429              	.LLST23:
 2430 04f2 2A010000 		.4byte	.LVL76
 2431 04f6 30010000 		.4byte	.LVL78
 2432 04fa 0100     		.2byte	0x1
 2433 04fc 53       		.byte	0x53
 2434 04fd 30010000 		.4byte	.LVL78
 2435 0501 4A010000 		.4byte	.LFE112
 2436 0505 0200     		.2byte	0x2
 2437 0507 72       		.byte	0x72
 2438 0508 00       		.sleb128 0
 2439 0509 00000000 		.4byte	0
 2440 050d 00000000 		.4byte	0
 2441              	.LLST24:
 2442 0511 32010000 		.4byte	.LVL79
 2443 0515 36010000 		.4byte	.LVL81
 2444 0519 0100     		.2byte	0x1
 2445 051b 53       		.byte	0x53
 2446 051c 36010000 		.4byte	.LVL81
 2447 0520 4A010000 		.4byte	.LFE112
 2448 0524 0200     		.2byte	0x2
ARM GAS  C:\Users\jsyoon\AppData\Local\Temp\ccNKckJg.s 			page 44


 2449 0526 72       		.byte	0x72
 2450 0527 04       		.sleb128 4
 2451 0528 00000000 		.4byte	0
 2452 052c 00000000 		.4byte	0
 2453              	.LLST25:
 2454 0530 38010000 		.4byte	.LVL82
 2455 0534 3C010000 		.4byte	.LVL84
 2456 0538 0100     		.2byte	0x1
 2457 053a 53       		.byte	0x53
 2458 053b 3C010000 		.4byte	.LVL84
 2459 053f 4A010000 		.4byte	.LFE112
 2460 0543 0200     		.2byte	0x2
 2461 0545 72       		.byte	0x72
 2462 0546 08       		.sleb128 8
 2463 0547 00000000 		.4byte	0
 2464 054b 00000000 		.4byte	0
 2465              	.LLST26:
 2466 054f 3E010000 		.4byte	.LVL85
 2467 0553 42010000 		.4byte	.LVL87
 2468 0557 0100     		.2byte	0x1
 2469 0559 53       		.byte	0x53
 2470 055a 42010000 		.4byte	.LVL87
 2471 055e 4A010000 		.4byte	.LFE112
 2472 0562 0200     		.2byte	0x2
 2473 0564 72       		.byte	0x72
 2474 0565 0C       		.sleb128 12
 2475 0566 00000000 		.4byte	0
 2476 056a 00000000 		.4byte	0
 2477              		.section	.debug_aranges,"",%progbits
 2478 0000 24000000 		.4byte	0x24
 2479 0004 0200     		.2byte	0x2
 2480 0006 00000000 		.4byte	.Ldebug_info0
 2481 000a 04       		.byte	0x4
 2482 000b 00       		.byte	0
 2483 000c 0000     		.2byte	0
 2484 000e 0000     		.2byte	0
 2485 0010 00000000 		.4byte	.LFB111
 2486 0014 94000000 		.4byte	.LFE111-.LFB111
 2487 0018 00000000 		.4byte	.LFB112
 2488 001c 4A010000 		.4byte	.LFE112-.LFB112
 2489 0020 00000000 		.4byte	0
 2490 0024 00000000 		.4byte	0
 2491              		.section	.debug_ranges,"",%progbits
 2492              	.Ldebug_ranges0:
 2493 0000 00000000 		.4byte	.LFB111
 2494 0004 94000000 		.4byte	.LFE111
 2495 0008 00000000 		.4byte	.LFB112
 2496 000c 4A010000 		.4byte	.LFE112
 2497 0010 00000000 		.4byte	0
 2498 0014 00000000 		.4byte	0
 2499              		.section	.debug_line,"",%progbits
 2500              	.Ldebug_line0:
 2501 0000 71030000 		.section	.debug_str,"MS",%progbits,1
 2501      0200C301 
 2501      00000201 
 2501      FB0E0D00 
 2501      01010101 
ARM GAS  C:\Users\jsyoon\AppData\Local\Temp\ccNKckJg.s 			page 45


 2502              	.LASF57:
 2503 0000 72657375 		.ascii	"result\000"
 2503      6C7400
 2504              	.LASF36:
 2505 0007 636F756E 		.ascii	"counter\000"
 2505      74657200 
 2506              	.LASF39:
 2507 000f 696E7075 		.ascii	"inputaddr\000"
 2507      74616464 
 2507      7200
 2508              	.LASF42:
 2509 0019 484D4143 		.ascii	"HMAC_SHA1\000"
 2509      5F534841 
 2509      3100
 2510              	.LASF32:
 2511 0023 4F757470 		.ascii	"Output\000"
 2511      757400
 2512              	.LASF17:
 2513 002a 73697A65 		.ascii	"sizetype\000"
 2513      74797065 
 2513      00
 2514              	.LASF54:
 2515 0033 453A5C4D 		.ascii	"E:\\Maker\\BLDC\\test_eval\\try2\\OROCA-BLDC_R15080"
 2515      616B6572 
 2515      5C424C44 
 2515      435C7465 
 2515      73745F65 
 2516 0061 3700     		.ascii	"7\000"
 2517              	.LASF8:
 2518 0063 5F5F7569 		.ascii	"__uint32_t\000"
 2518      6E743332 
 2518      5F7400
 2519              	.LASF4:
 2520 006e 5F5F7569 		.ascii	"__uint16_t\000"
 2520      6E743136 
 2520      5F7400
 2521              	.LASF2:
 2522 0079 73686F72 		.ascii	"short int\000"
 2522      7420696E 
 2522      7400
 2523              	.LASF56:
 2524 0083 76616C75 		.ascii	"value\000"
 2524      6500
 2525              	.LASF51:
 2526 0089 48415348 		.ascii	"HASH_GetDigest\000"
 2526      5F476574 
 2526      44696765 
 2526      737400
 2527              	.LASF13:
 2528 0098 75696E74 		.ascii	"uint8_t\000"
 2528      385F7400 
 2529              	.LASF40:
 2530 00a0 6F757470 		.ascii	"outputaddr\000"
 2530      75746164 
 2530      647200
 2531              	.LASF55:
 2532 00ab 5F5F5245 		.ascii	"__REV\000"
ARM GAS  C:\Users\jsyoon\AppData\Local\Temp\ccNKckJg.s 			page 46


 2532      5600
 2533              	.LASF45:
 2534 00b1 6B657961 		.ascii	"keyaddr\000"
 2534      64647200 
 2535              	.LASF10:
 2536 00b9 6C6F6E67 		.ascii	"long long int\000"
 2536      206C6F6E 
 2536      6720696E 
 2536      7400
 2537              	.LASF41:
 2538 00c7 48415348 		.ascii	"HASH_SHA1\000"
 2538      5F534841 
 2538      3100
 2539              	.LASF52:
 2540 00d1 474E5520 		.ascii	"GNU C 4.8.4 20140526 (release) [ARM/embedded-4_8-br"
 2540      4320342E 
 2540      382E3420 
 2540      32303134 
 2540      30353236 
 2541 0104 616E6368 		.ascii	"anch revision 211358] -mcpu=cortex-m4 -mfloat-abi=h"
 2541      20726576 
 2541      6973696F 
 2541      6E203231 
 2541      31333538 
 2542 0137 61726420 		.ascii	"ard -mfpu=fpv4-sp-d16 -mno-thumb-interwork -mthumb "
 2542      2D6D6670 
 2542      753D6670 
 2542      76342D73 
 2542      702D6431 
 2543 016a 2D676764 		.ascii	"-ggdb -O2 -std=gnu99 -fomit-frame-pointer -falign-f"
 2543      62202D4F 
 2543      32202D73 
 2543      74643D67 
 2543      6E753939 
 2544 019d 756E6374 		.ascii	"unctions=16 -ffunction-sections -fdata-sections -fn"
 2544      696F6E73 
 2544      3D313620 
 2544      2D666675 
 2544      6E637469 
 2545 01d0 6F2D636F 		.ascii	"o-common -fsingle-precision-constant\000"
 2545      6D6D6F6E 
 2545      202D6673 
 2545      696E676C 
 2545      652D7072 
 2546              	.LASF7:
 2547 01f5 6C6F6E67 		.ascii	"long int\000"
 2547      20696E74 
 2547      00
 2548              	.LASF26:
 2549 01fe 48415348 		.ascii	"HASH_HMACKeyType\000"
 2549      5F484D41 
 2549      434B6579 
 2549      54797065 
 2549      00
 2550              	.LASF22:
 2551 020f 4572726F 		.ascii	"ErrorStatus\000"
 2551      72537461 
ARM GAS  C:\Users\jsyoon\AppData\Local\Temp\ccNKckJg.s 			page 47


 2551      74757300 
 2552              	.LASF48:
 2553 021b 48415348 		.ascii	"HASH_DataIn\000"
 2553      5F446174 
 2553      61496E00 
 2554              	.LASF44:
 2555 0227 6E627661 		.ascii	"nbvalidbitskey\000"
 2555      6C696462 
 2555      6974736B 
 2555      657900
 2556              	.LASF3:
 2557 0236 5F5F7569 		.ascii	"__uint8_t\000"
 2557      6E74385F 
 2557      7400
 2558              	.LASF53:
 2559 0240 43686962 		.ascii	"ChibiOS_2.6.6/ext/stdperiph_stm32f4/src/stm32f4xx_h"
 2559      694F535F 
 2559      322E362E 
 2559      362F6578 
 2559      742F7374 
 2560 0273 6173685F 		.ascii	"ash_sha1.c\000"
 2560      73686131 
 2560      2E6300
 2561              	.LASF20:
 2562 027e 4552524F 		.ascii	"ERROR\000"
 2562      5200
 2563              	.LASF28:
 2564 0284 44617461 		.ascii	"Data\000"
 2564      00
 2565              	.LASF1:
 2566 0289 756E7369 		.ascii	"unsigned char\000"
 2566      676E6564 
 2566      20636861 
 2566      7200
 2567              	.LASF31:
 2568 0297 496C656E 		.ascii	"Ilen\000"
 2568      00
 2569              	.LASF29:
 2570 029c 48415348 		.ascii	"HASH_MsgDigest\000"
 2570      5F4D7367 
 2570      44696765 
 2570      737400
 2571              	.LASF0:
 2572 02ab 7369676E 		.ascii	"signed char\000"
 2572      65642063 
 2572      68617200 
 2573              	.LASF23:
 2574 02b7 48415348 		.ascii	"HASH_AlgoSelection\000"
 2574      5F416C67 
 2574      6F53656C 
 2574      65637469 
 2574      6F6E00
 2575              	.LASF11:
 2576 02ca 6C6F6E67 		.ascii	"long long unsigned int\000"
 2576      206C6F6E 
 2576      6720756E 
 2576      7369676E 
ARM GAS  C:\Users\jsyoon\AppData\Local\Temp\ccNKckJg.s 			page 48


 2576      65642069 
 2577              	.LASF16:
 2578 02e1 75696E74 		.ascii	"uint32_t\000"
 2578      33325F74 
 2578      00
 2579              	.LASF12:
 2580 02ea 756E7369 		.ascii	"unsigned int\000"
 2580      676E6564 
 2580      20696E74 
 2580      00
 2581              	.LASF14:
 2582 02f7 75696E74 		.ascii	"uint16_t\000"
 2582      31365F74 
 2582      00
 2583              	.LASF46:
 2584 0300 48415348 		.ascii	"HASH_Init\000"
 2584      5F496E69 
 2584      7400
 2585              	.LASF21:
 2586 030a 53554343 		.ascii	"SUCCESS\000"
 2586      45535300 
 2587              	.LASF34:
 2588 0312 53484131 		.ascii	"SHA1_MessageDigest\000"
 2588      5F4D6573 
 2588      73616765 
 2588      44696765 
 2588      737400
 2589              	.LASF5:
 2590 0325 73686F72 		.ascii	"short unsigned int\000"
 2590      7420756E 
 2590      7369676E 
 2590      65642069 
 2590      6E7400
 2591              	.LASF38:
 2592 0338 73746174 		.ascii	"status\000"
 2592      757300
 2593              	.LASF15:
 2594 033f 696E7433 		.ascii	"int32_t\000"
 2594      325F7400 
 2595              	.LASF33:
 2596 0347 53484131 		.ascii	"SHA1_HASH_InitStructure\000"
 2596      5F484153 
 2596      485F496E 
 2596      69745374 
 2596      72756374 
 2597              	.LASF25:
 2598 035f 48415348 		.ascii	"HASH_DataType\000"
 2598      5F446174 
 2598      61547970 
 2598      6500
 2599              	.LASF49:
 2600 036d 48415348 		.ascii	"HASH_DeInit\000"
 2600      5F446549 
 2600      6E697400 
 2601              	.LASF50:
 2602 0379 48415348 		.ascii	"HASH_StartDigest\000"
 2602      5F537461 
ARM GAS  C:\Users\jsyoon\AppData\Local\Temp\ccNKckJg.s 			page 49


 2602      72744469 
 2602      67657374 
 2602      00
 2603              	.LASF9:
 2604 038a 6C6F6E67 		.ascii	"long unsigned int\000"
 2604      20756E73 
 2604      69676E65 
 2604      6420696E 
 2604      7400
 2605              	.LASF37:
 2606 039c 62757379 		.ascii	"busystatus\000"
 2606      73746174 
 2606      757300
 2607              	.LASF24:
 2608 03a7 48415348 		.ascii	"HASH_AlgoMode\000"
 2608      5F416C67 
 2608      6F4D6F64 
 2608      6500
 2609              	.LASF6:
 2610 03b5 5F5F696E 		.ascii	"__int32_t\000"
 2610      7433325F 
 2610      7400
 2611              	.LASF18:
 2612 03bf 52455345 		.ascii	"RESET\000"
 2612      5400
 2613              	.LASF47:
 2614 03c5 48415348 		.ascii	"HASH_SetLastWordValidBitsNbr\000"
 2614      5F536574 
 2614      4C617374 
 2614      576F7264 
 2614      56616C69 
 2615              	.LASF30:
 2616 03e2 496E7075 		.ascii	"Input\000"
 2616      7400
 2617              	.LASF35:
 2618 03e8 6E627661 		.ascii	"nbvalidbitsdata\000"
 2618      6C696462 
 2618      69747364 
 2618      61746100 
 2619              	.LASF58:
 2620 03f8 49544D5F 		.ascii	"ITM_RxBuffer\000"
 2620      52784275 
 2620      66666572 
 2620      00
 2621              	.LASF19:
 2622 0405 466C6167 		.ascii	"FlagStatus\000"
 2622      53746174 
 2622      757300
 2623              	.LASF43:
 2624 0410 4B65796C 		.ascii	"Keylen\000"
 2624      656E00
 2625              	.LASF27:
 2626 0417 48415348 		.ascii	"HASH_InitTypeDef\000"
 2626      5F496E69 
 2626      74547970 
 2626      65446566 
 2626      00
ARM GAS  C:\Users\jsyoon\AppData\Local\Temp\ccNKckJg.s 			page 50


 2627              	.LASF59:
 2628 0428 48415348 		.ascii	"HASH_GetFlagStatus\000"
 2628      5F476574 
 2628      466C6167 
 2628      53746174 
 2628      757300
 2629              		.ident	"GCC: (GNU Tools for ARM Embedded Processors) 4.8.4 20140526 (release) [ARM/embedded-4_8-br
ARM GAS  C:\Users\jsyoon\AppData\Local\Temp\ccNKckJg.s 			page 51


DEFINED SYMBOLS
                            *ABS*:00000000 stm32f4xx_hash_sha1.c
C:\Users\jsyoon\AppData\Local\Temp\ccNKckJg.s:21     .text.HASH_SHA1:00000000 $t
C:\Users\jsyoon\AppData\Local\Temp\ccNKckJg.s:27     .text.HASH_SHA1:00000000 HASH_SHA1
C:\Users\jsyoon\AppData\Local\Temp\ccNKckJg.s:225    .text.HMAC_SHA1:00000000 $t
C:\Users\jsyoon\AppData\Local\Temp\ccNKckJg.s:231    .text.HMAC_SHA1:00000000 HMAC_SHA1
                     .debug_frame:00000010 $d

UNDEFINED SYMBOLS
HASH_DeInit
HASH_Init
HASH_SetLastWordValidBitsNbr
HASH_DataIn
HASH_StartDigest
HASH_GetFlagStatus
HASH_GetDigest
