ARM GAS  C:\Users\jsyoon\AppData\Local\Temp\ccRKgIox.s 			page 1


   1              		.syntax unified
   2              		.cpu cortex-m4
   3              		.eabi_attribute 27, 3
   4              		.eabi_attribute 28, 1
   5              		.fpu fpv4-sp-d16
   6              		.eabi_attribute 20, 1
   7              		.eabi_attribute 21, 1
   8              		.eabi_attribute 23, 3
   9              		.eabi_attribute 24, 1
  10              		.eabi_attribute 25, 1
  11              		.eabi_attribute 26, 1
  12              		.eabi_attribute 30, 2
  13              		.eabi_attribute 34, 1
  14              		.eabi_attribute 18, 4
  15              		.thumb
  16              		.file	"stm32f4xx_dma.c"
  17              		.text
  18              	.Ltext0:
  19              		.cfi_sections	.debug_frame
  20              		.section	.text.DMA_DeInit,"ax",%progbits
  21              		.align	2
  22              		.p2align 4,,15
  23              		.global	DMA_DeInit
  24              		.thumb
  25              		.thumb_func
  26              		.type	DMA_DeInit, %function
  27              	DMA_DeInit:
  28              	.LFB111:
  29              		.file 1 "ChibiOS_2.6.6/ext/stdperiph_stm32f4/src/stm32f4xx_dma.c"
  30              		.loc 1 195 0
  31              		.cfi_startproc
  32              		@ args = 0, pretend = 0, frame = 0
  33              		@ frame_needed = 0, uses_anonymous_args = 0
  34              		@ link register save eliminated.
  35              	.LVL0:
  36 0000 10B4     		push	{r4}
  37              		.cfi_def_cfa_offset 4
  38              		.cfi_offset 4, -4
  39              		.loc 1 221 0
  40 0002 374A     		ldr	r2, .L28
  41              		.loc 1 200 0
  42 0004 0468     		ldr	r4, [r0]
  43              		.loc 1 203 0
  44 0006 0023     		movs	r3, #0
  45              		.loc 1 200 0
  46 0008 24F00104 		bic	r4, r4, #1
  47              		.loc 1 218 0
  48 000c 2121     		movs	r1, #33
  49              		.loc 1 221 0
  50 000e 9042     		cmp	r0, r2
  51              		.loc 1 200 0
  52 0010 0460     		str	r4, [r0]
  53              		.loc 1 203 0
  54 0012 0360     		str	r3, [r0]
  55              		.loc 1 206 0
  56 0014 4360     		str	r3, [r0, #4]
  57              		.loc 1 209 0
ARM GAS  C:\Users\jsyoon\AppData\Local\Temp\ccRKgIox.s 			page 2


  58 0016 8360     		str	r3, [r0, #8]
  59              		.loc 1 212 0
  60 0018 C360     		str	r3, [r0, #12]
  61              		.loc 1 215 0
  62 001a 0361     		str	r3, [r0, #16]
  63              		.loc 1 218 0
  64 001c 4161     		str	r1, [r0, #20]
  65              		.loc 1 221 0
  66 001e 4DD0     		beq	.L26
  67              		.loc 1 226 0
  68 0020 304B     		ldr	r3, .L28+4
  69 0022 9842     		cmp	r0, r3
  70 0024 35D0     		beq	.L18
  71              		.loc 1 231 0
  72 0026 304B     		ldr	r3, .L28+8
  73 0028 9842     		cmp	r0, r3
  74 002a 39D0     		beq	.L19
  75              		.loc 1 236 0
  76 002c 2F4B     		ldr	r3, .L28+12
  77 002e 9842     		cmp	r0, r3
  78 0030 3DD0     		beq	.L20
  79              		.loc 1 241 0
  80 0032 2F4B     		ldr	r3, .L28+16
  81 0034 9842     		cmp	r0, r3
  82 0036 47D0     		beq	.L21
  83              		.loc 1 246 0
  84 0038 2E4B     		ldr	r3, .L28+20
  85 003a 9842     		cmp	r0, r3
  86 003c 48D0     		beq	.L22
  87              		.loc 1 251 0
  88 003e 2E4B     		ldr	r3, .L28+24
  89 0040 9842     		cmp	r0, r3
  90 0042 1DD0     		beq	.L23
  91              		.loc 1 256 0
  92 0044 2D4B     		ldr	r3, .L28+28
  93 0046 9842     		cmp	r0, r3
  94 0048 1ED0     		beq	.L24
  95              		.loc 1 261 0
  96 004a 2D4B     		ldr	r3, .L28+32
  97 004c 9842     		cmp	r0, r3
  98 004e 43D0     		beq	.L27
  99              		.loc 1 266 0
 100 0050 2C4B     		ldr	r3, .L28+36
 101 0052 9842     		cmp	r0, r3
 102 0054 1DD0     		beq	.L18
 103              		.loc 1 271 0
 104 0056 2C4B     		ldr	r3, .L28+40
 105 0058 9842     		cmp	r0, r3
 106 005a 21D0     		beq	.L19
 107              		.loc 1 276 0
 108 005c 2B4B     		ldr	r3, .L28+44
 109 005e 9842     		cmp	r0, r3
 110 0060 25D0     		beq	.L20
 111              		.loc 1 281 0
 112 0062 2B4B     		ldr	r3, .L28+48
 113 0064 9842     		cmp	r0, r3
 114 0066 2FD0     		beq	.L21
ARM GAS  C:\Users\jsyoon\AppData\Local\Temp\ccRKgIox.s 			page 3


 115              		.loc 1 286 0
 116 0068 2A4B     		ldr	r3, .L28+52
 117 006a 9842     		cmp	r0, r3
 118 006c 30D0     		beq	.L22
 119              		.loc 1 291 0
 120 006e 2A4B     		ldr	r3, .L28+56
 121 0070 9842     		cmp	r0, r3
 122 0072 05D0     		beq	.L23
 123              		.loc 1 298 0
 124 0074 294B     		ldr	r3, .L28+60
 125 0076 9842     		cmp	r0, r3
 126 0078 06D0     		beq	.L24
 127              	.L1:
 128              		.loc 1 304 0
 129 007a 5DF8044B 		ldr	r4, [sp], #4
 130 007e 7047     		bx	lr
 131              	.L23:
 132              		.loc 1 294 0
 133 0080 274A     		ldr	r2, .L28+64
 134 0082 43F8942C 		str	r2, [r3, #-148]
 135 0086 F8E7     		b	.L1
 136              	.L24:
 137              		.loc 1 301 0
 138 0088 4FF03D52 		mov	r2, #792723456
 139 008c 43F8AC2C 		str	r2, [r3, #-172]
 140 0090 F3E7     		b	.L1
 141              	.L18:
 142              		.loc 1 269 0
 143 0092 4FF47462 		mov	r2, #3904
 144 0096 43F8202C 		str	r2, [r3, #-32]
 145              		.loc 1 304 0
 146 009a 5DF8044B 		ldr	r4, [sp], #4
 147 009e 7047     		bx	lr
 148              	.L19:
 149              		.loc 1 274 0
 150 00a0 4FF47412 		mov	r2, #3997696
 151 00a4 43F8382C 		str	r2, [r3, #-56]
 152              		.loc 1 304 0
 153 00a8 5DF8044B 		ldr	r4, [sp], #4
 154 00ac 7047     		bx	lr
 155              	.L20:
 156              		.loc 1 279 0
 157 00ae 4FF07462 		mov	r2, #255852544
 158 00b2 43F8502C 		str	r2, [r3, #-80]
 159              		.loc 1 304 0
 160 00b6 5DF8044B 		ldr	r4, [sp], #4
 161 00ba 7047     		bx	lr
 162              	.L26:
 163              		.loc 1 224 0
 164 00bc 194B     		ldr	r3, .L28+68
 165              		.loc 1 304 0
 166 00be 5DF8044B 		ldr	r4, [sp], #4
 167              		.loc 1 224 0
 168 00c2 3D22     		movs	r2, #61
 169 00c4 9A60     		str	r2, [r3, #8]
 170              		.loc 1 304 0
 171 00c6 7047     		bx	lr
ARM GAS  C:\Users\jsyoon\AppData\Local\Temp\ccRKgIox.s 			page 4


 172              	.L21:
 173              		.loc 1 284 0
 174 00c8 174A     		ldr	r2, .L28+72
 175 00ca 43F8642C 		str	r2, [r3, #-100]
 176 00ce D4E7     		b	.L1
 177              	.L22:
 178              		.loc 1 289 0
 179 00d0 164A     		ldr	r2, .L28+76
 180 00d2 43F87C2C 		str	r2, [r3, #-124]
 181 00d6 D0E7     		b	.L1
 182              	.L27:
 183              		.loc 1 264 0
 184 00d8 3D22     		movs	r2, #61
 185 00da 43F8082C 		str	r2, [r3, #-8]
 186 00de CCE7     		b	.L1
 187              	.L29:
 188              		.align	2
 189              	.L28:
 190 00e0 10600240 		.word	1073897488
 191 00e4 28600240 		.word	1073897512
 192 00e8 40600240 		.word	1073897536
 193 00ec 58600240 		.word	1073897560
 194 00f0 70600240 		.word	1073897584
 195 00f4 88600240 		.word	1073897608
 196 00f8 A0600240 		.word	1073897632
 197 00fc B8600240 		.word	1073897656
 198 0100 10640240 		.word	1073898512
 199 0104 28640240 		.word	1073898536
 200 0108 40640240 		.word	1073898560
 201 010c 58640240 		.word	1073898584
 202 0110 70640240 		.word	1073898608
 203 0114 88640240 		.word	1073898632
 204 0118 A0640240 		.word	1073898656
 205 011c B8640240 		.word	1073898680
 206 0120 00003D20 		.word	540868608
 207 0124 00600240 		.word	1073897472
 208 0128 3D000020 		.word	536870973
 209 012c 400F0020 		.word	536874816
 210              		.cfi_endproc
 211              	.LFE111:
 212              		.size	DMA_DeInit, .-DMA_DeInit
 213              		.section	.text.DMA_Init,"ax",%progbits
 214              		.align	2
 215              		.p2align 4,,15
 216              		.global	DMA_Init
 217              		.thumb
 218              		.thumb_func
 219              		.type	DMA_Init, %function
 220              	DMA_Init:
 221              	.LFB112:
 222              		.loc 1 318 0
 223              		.cfi_startproc
 224              		@ args = 0, pretend = 0, frame = 0
 225              		@ frame_needed = 0, uses_anonymous_args = 0
 226              		@ link register save eliminated.
 227              	.LVL1:
 228              		.loc 1 358 0
ARM GAS  C:\Users\jsyoon\AppData\Local\Temp\ccRKgIox.s 			page 5


 229 0000 CA68     		ldr	r2, [r1, #12]
 230 0002 0B68     		ldr	r3, [r1]
 231              		.loc 1 339 0
 232 0004 D0F800C0 		ldr	ip, [r0]
 233              	.LVL2:
 234              		.loc 1 318 0
 235 0008 2DE9F007 		push	{r4, r5, r6, r7, r8, r9, r10}
 236              		.cfi_def_cfa_offset 28
 237              		.cfi_offset 4, -28
 238              		.cfi_offset 5, -24
 239              		.cfi_offset 6, -20
 240              		.cfi_offset 7, -16
 241              		.cfi_offset 8, -12
 242              		.cfi_offset 9, -8
 243              		.cfi_offset 10, -4
 244              		.loc 1 358 0
 245 000c 4F69     		ldr	r7, [r1, #20]
 246              		.loc 1 359 0
 247 000e 8E69     		ldr	r6, [r1, #24]
 248 0010 CD69     		ldr	r5, [r1, #28]
 249              		.loc 1 360 0
 250 0012 0C6A     		ldr	r4, [r1, #32]
 251              		.loc 1 361 0
 252 0014 D1F83490 		ldr	r9, [r1, #52]
 253              		.loc 1 362 0
 254 0018 D1F83880 		ldr	r8, [r1, #56]
 255              		.loc 1 358 0
 256 001c 42EA030A 		orr	r10, r2, r3
 257 0020 4AEA0707 		orr	r7, r10, r7
 258              		.loc 1 359 0
 259 0024 3E43     		orrs	r6, r6, r7
 260              		.loc 1 360 0
 261 0026 4B6A     		ldr	r3, [r1, #36]
 262              		.loc 1 388 0
 263 0028 4F68     		ldr	r7, [r1, #4]
 264              		.loc 1 359 0
 265 002a 3543     		orrs	r5, r5, r6
 266              		.loc 1 360 0
 267 002c 2C43     		orrs	r4, r4, r5
 268 002e 44EA0302 		orr	r2, r4, r3
 269              		.loc 1 361 0
 270 0032 8B6A     		ldr	r3, [r1, #40]
 271              		.loc 1 342 0
 272 0034 0D4E     		ldr	r6, .L31
 273              		.loc 1 377 0
 274 0036 CC6A     		ldr	r4, [r1, #44]
 275              		.loc 1 384 0
 276 0038 0D69     		ldr	r5, [r1, #16]
 277              		.loc 1 361 0
 278 003a 1A43     		orrs	r2, r2, r3
 279 003c 42EA0909 		orr	r9, r2, r9
 280              		.loc 1 362 0
 281 0040 49EA0808 		orr	r8, r9, r8
 282              		.loc 1 342 0
 283 0044 0CEA0606 		and	r6, ip, r6
 284              	.LVL3:
 285              		.loc 1 358 0
ARM GAS  C:\Users\jsyoon\AppData\Local\Temp\ccRKgIox.s 			page 6


 286 0048 48EA0606 		orr	r6, r8, r6
 287              	.LVL4:
 288              		.loc 1 377 0
 289 004c 0B6B     		ldr	r3, [r1, #48]
 290              		.loc 1 392 0
 291 004e 8968     		ldr	r1, [r1, #8]
 292              	.LVL5:
 293              		.loc 1 365 0
 294 0050 0660     		str	r6, [r0]
 295              		.loc 1 369 0
 296 0052 4269     		ldr	r2, [r0, #20]
 297              	.LVL6:
 298              		.loc 1 377 0
 299 0054 2343     		orrs	r3, r3, r4
 300              		.loc 1 372 0
 301 0056 22F00702 		bic	r2, r2, #7
 302              	.LVL7:
 303              		.loc 1 377 0
 304 005a 1343     		orrs	r3, r3, r2
 305              	.LVL8:
 306              		.loc 1 380 0
 307 005c 4361     		str	r3, [r0, #20]
 308              		.loc 1 384 0
 309 005e 4560     		str	r5, [r0, #4]
 310              		.loc 1 388 0
 311 0060 8760     		str	r7, [r0, #8]
 312              		.loc 1 392 0
 313 0062 C160     		str	r1, [r0, #12]
 314              		.loc 1 393 0
 315 0064 BDE8F007 		pop	{r4, r5, r6, r7, r8, r9, r10}
 316 0068 7047     		bx	lr
 317              	.L32:
 318 006a 00BF     		.align	2
 319              	.L31:
 320 006c 3F801CF0 		.word	-266567617
 321              		.cfi_endproc
 322              	.LFE112:
 323              		.size	DMA_Init, .-DMA_Init
 324              		.section	.text.DMA_StructInit,"ax",%progbits
 325              		.align	2
 326              		.p2align 4,,15
 327              		.global	DMA_StructInit
 328              		.thumb
 329              		.thumb_func
 330              		.type	DMA_StructInit, %function
 331              	DMA_StructInit:
 332              	.LFB113:
 333              		.loc 1 402 0
 334              		.cfi_startproc
 335              		@ args = 0, pretend = 0, frame = 0
 336              		@ frame_needed = 0, uses_anonymous_args = 0
 337              		@ link register save eliminated.
 338              	.LVL9:
 339              		.loc 1 405 0
 340 0000 0023     		movs	r3, #0
 341 0002 0360     		str	r3, [r0]
 342              		.loc 1 408 0
ARM GAS  C:\Users\jsyoon\AppData\Local\Temp\ccRKgIox.s 			page 7


 343 0004 4360     		str	r3, [r0, #4]
 344              		.loc 1 411 0
 345 0006 8360     		str	r3, [r0, #8]
 346              		.loc 1 414 0
 347 0008 C360     		str	r3, [r0, #12]
 348              		.loc 1 417 0
 349 000a 0361     		str	r3, [r0, #16]
 350              		.loc 1 420 0
 351 000c 4361     		str	r3, [r0, #20]
 352              		.loc 1 423 0
 353 000e 8361     		str	r3, [r0, #24]
 354              		.loc 1 426 0
 355 0010 C361     		str	r3, [r0, #28]
 356              		.loc 1 429 0
 357 0012 0362     		str	r3, [r0, #32]
 358              		.loc 1 432 0
 359 0014 4362     		str	r3, [r0, #36]
 360              		.loc 1 435 0
 361 0016 8362     		str	r3, [r0, #40]
 362              		.loc 1 438 0
 363 0018 C362     		str	r3, [r0, #44]
 364              		.loc 1 441 0
 365 001a 0363     		str	r3, [r0, #48]
 366              		.loc 1 444 0
 367 001c 4363     		str	r3, [r0, #52]
 368              		.loc 1 447 0
 369 001e 8363     		str	r3, [r0, #56]
 370 0020 7047     		bx	lr
 371              		.cfi_endproc
 372              	.LFE113:
 373              		.size	DMA_StructInit, .-DMA_StructInit
 374 0022 00BFAFF3 		.section	.text.DMA_Cmd,"ax",%progbits
 374      0080AFF3 
 374      0080AFF3 
 374      0080
 375              		.align	2
 376              		.p2align 4,,15
 377              		.global	DMA_Cmd
 378              		.thumb
 379              		.thumb_func
 380              		.type	DMA_Cmd, %function
 381              	DMA_Cmd:
 382              	.LFB114:
 383              		.loc 1 477 0
 384              		.cfi_startproc
 385              		@ args = 0, pretend = 0, frame = 0
 386              		@ frame_needed = 0, uses_anonymous_args = 0
 387              		@ link register save eliminated.
 388              	.LVL10:
 389              		.loc 1 485 0
 390 0000 0368     		ldr	r3, [r0]
 391              		.loc 1 482 0
 392 0002 19B9     		cbnz	r1, .L37
 393              		.loc 1 490 0
 394 0004 23F00103 		bic	r3, r3, #1
 395 0008 0360     		str	r3, [r0]
 396 000a 7047     		bx	lr
ARM GAS  C:\Users\jsyoon\AppData\Local\Temp\ccRKgIox.s 			page 8


 397              	.L37:
 398              		.loc 1 485 0
 399 000c 43F00103 		orr	r3, r3, #1
 400 0010 0360     		str	r3, [r0]
 401 0012 7047     		bx	lr
 402              		.cfi_endproc
 403              	.LFE114:
 404              		.size	DMA_Cmd, .-DMA_Cmd
 405 0014 AFF30080 		.section	.text.DMA_PeriphIncOffsetSizeConfig,"ax",%progbits
 405      AFF30080 
 405      AFF30080 
 406              		.align	2
 407              		.p2align 4,,15
 408              		.global	DMA_PeriphIncOffsetSizeConfig
 409              		.thumb
 410              		.thumb_func
 411              		.type	DMA_PeriphIncOffsetSizeConfig, %function
 412              	DMA_PeriphIncOffsetSizeConfig:
 413              	.LFB115:
 414              		.loc 1 513 0
 415              		.cfi_startproc
 416              		@ args = 0, pretend = 0, frame = 0
 417              		@ frame_needed = 0, uses_anonymous_args = 0
 418              		@ link register save eliminated.
 419              	.LVL11:
 420              		.loc 1 522 0
 421 0000 0368     		ldr	r3, [r0]
 422              		.loc 1 519 0
 423 0002 19B9     		cbnz	r1, .L41
 424              		.loc 1 527 0
 425 0004 23F40043 		bic	r3, r3, #32768
 426 0008 0360     		str	r3, [r0]
 427 000a 7047     		bx	lr
 428              	.L41:
 429              		.loc 1 522 0
 430 000c 43F40043 		orr	r3, r3, #32768
 431 0010 0360     		str	r3, [r0]
 432 0012 7047     		bx	lr
 433              		.cfi_endproc
 434              	.LFE115:
 435              		.size	DMA_PeriphIncOffsetSizeConfig, .-DMA_PeriphIncOffsetSizeConfig
 436 0014 AFF30080 		.section	.text.DMA_FlowControllerConfig,"ax",%progbits
 436      AFF30080 
 436      AFF30080 
 437              		.align	2
 438              		.p2align 4,,15
 439              		.global	DMA_FlowControllerConfig
 440              		.thumb
 441              		.thumb_func
 442              		.type	DMA_FlowControllerConfig, %function
 443              	DMA_FlowControllerConfig:
 444              	.LFB116:
 445              		.loc 1 549 0
 446              		.cfi_startproc
 447              		@ args = 0, pretend = 0, frame = 0
 448              		@ frame_needed = 0, uses_anonymous_args = 0
 449              		@ link register save eliminated.
ARM GAS  C:\Users\jsyoon\AppData\Local\Temp\ccRKgIox.s 			page 9


 450              	.LVL12:
 451              		.loc 1 558 0
 452 0000 0368     		ldr	r3, [r0]
 453              		.loc 1 555 0
 454 0002 19B9     		cbnz	r1, .L45
 455              		.loc 1 563 0
 456 0004 23F02003 		bic	r3, r3, #32
 457 0008 0360     		str	r3, [r0]
 458 000a 7047     		bx	lr
 459              	.L45:
 460              		.loc 1 558 0
 461 000c 43F02003 		orr	r3, r3, #32
 462 0010 0360     		str	r3, [r0]
 463 0012 7047     		bx	lr
 464              		.cfi_endproc
 465              	.LFE116:
 466              		.size	DMA_FlowControllerConfig, .-DMA_FlowControllerConfig
 467 0014 AFF30080 		.section	.text.DMA_SetCurrDataCounter,"ax",%progbits
 467      AFF30080 
 467      AFF30080 
 468              		.align	2
 469              		.p2align 4,,15
 470              		.global	DMA_SetCurrDataCounter
 471              		.thumb
 472              		.thumb_func
 473              		.type	DMA_SetCurrDataCounter, %function
 474              	DMA_SetCurrDataCounter:
 475              	.LFB117:
 476              		.loc 1 633 0
 477              		.cfi_startproc
 478              		@ args = 0, pretend = 0, frame = 0
 479              		@ frame_needed = 0, uses_anonymous_args = 0
 480              		@ link register save eliminated.
 481              	.LVL13:
 482              		.loc 1 638 0
 483 0000 4160     		str	r1, [r0, #4]
 484 0002 7047     		bx	lr
 485              		.cfi_endproc
 486              	.LFE117:
 487              		.size	DMA_SetCurrDataCounter, .-DMA_SetCurrDataCounter
 488 0004 AFF30080 		.section	.text.DMA_GetCurrDataCounter,"ax",%progbits
 488      AFF30080 
 488      AFF30080 
 489              		.align	2
 490              		.p2align 4,,15
 491              		.global	DMA_GetCurrDataCounter
 492              		.thumb
 493              		.thumb_func
 494              		.type	DMA_GetCurrDataCounter, %function
 495              	DMA_GetCurrDataCounter:
 496              	.LFB118:
 497              		.loc 1 648 0
 498              		.cfi_startproc
 499              		@ args = 0, pretend = 0, frame = 0
 500              		@ frame_needed = 0, uses_anonymous_args = 0
 501              		@ link register save eliminated.
 502              	.LVL14:
ARM GAS  C:\Users\jsyoon\AppData\Local\Temp\ccRKgIox.s 			page 10


 503              		.loc 1 653 0
 504 0000 4068     		ldr	r0, [r0, #4]
 505              	.LVL15:
 506              		.loc 1 654 0
 507 0002 80B2     		uxth	r0, r0
 508 0004 7047     		bx	lr
 509              		.cfi_endproc
 510              	.LFE118:
 511              		.size	DMA_GetCurrDataCounter, .-DMA_GetCurrDataCounter
 512 0006 00BFAFF3 		.section	.text.DMA_DoubleBufferModeConfig,"ax",%progbits
 512      0080AFF3 
 512      0080
 513              		.align	2
 514              		.p2align 4,,15
 515              		.global	DMA_DoubleBufferModeConfig
 516              		.thumb
 517              		.thumb_func
 518              		.type	DMA_DoubleBufferModeConfig, %function
 519              	DMA_DoubleBufferModeConfig:
 520              	.LFB119:
 521              		.loc 1 726 0
 522              		.cfi_startproc
 523              		@ args = 0, pretend = 0, frame = 0
 524              		@ frame_needed = 0, uses_anonymous_args = 0
 525              		@ link register save eliminated.
 526              	.LVL16:
 527              		.loc 1 734 0
 528 0000 0368     		ldr	r3, [r0]
 529              		.loc 1 731 0
 530 0002 22B9     		cbnz	r2, .L51
 531              		.loc 1 739 0
 532 0004 23F40023 		bic	r3, r3, #524288
 533 0008 0360     		str	r3, [r0]
 534              		.loc 1 743 0
 535 000a 0161     		str	r1, [r0, #16]
 536 000c 7047     		bx	lr
 537              	.L51:
 538              		.loc 1 734 0
 539 000e 43F40023 		orr	r3, r3, #524288
 540 0012 0360     		str	r3, [r0]
 541              		.loc 1 743 0
 542 0014 0161     		str	r1, [r0, #16]
 543 0016 7047     		bx	lr
 544              		.cfi_endproc
 545              	.LFE119:
 546              		.size	DMA_DoubleBufferModeConfig, .-DMA_DoubleBufferModeConfig
 547 0018 AFF30080 		.section	.text.DMA_DoubleBufferModeCmd,"ax",%progbits
 547      AFF30080 
 548              		.align	2
 549              		.p2align 4,,15
 550              		.global	DMA_DoubleBufferModeCmd
 551              		.thumb
 552              		.thumb_func
 553              		.type	DMA_DoubleBufferModeCmd, %function
 554              	DMA_DoubleBufferModeCmd:
 555              	.LFB120:
 556              		.loc 1 756 0
ARM GAS  C:\Users\jsyoon\AppData\Local\Temp\ccRKgIox.s 			page 11


 557              		.cfi_startproc
 558              		@ args = 0, pretend = 0, frame = 0
 559              		@ frame_needed = 0, uses_anonymous_args = 0
 560              		@ link register save eliminated.
 561              	.LVL17:
 562              		.loc 1 765 0
 563 0000 0368     		ldr	r3, [r0]
 564              		.loc 1 762 0
 565 0002 19B9     		cbnz	r1, .L55
 566              		.loc 1 770 0
 567 0004 23F48023 		bic	r3, r3, #262144
 568 0008 0360     		str	r3, [r0]
 569 000a 7047     		bx	lr
 570              	.L55:
 571              		.loc 1 765 0
 572 000c 43F48023 		orr	r3, r3, #262144
 573 0010 0360     		str	r3, [r0]
 574 0012 7047     		bx	lr
 575              		.cfi_endproc
 576              	.LFE120:
 577              		.size	DMA_DoubleBufferModeCmd, .-DMA_DoubleBufferModeCmd
 578 0014 AFF30080 		.section	.text.DMA_MemoryTargetConfig,"ax",%progbits
 578      AFF30080 
 578      AFF30080 
 579              		.align	2
 580              		.p2align 4,,15
 581              		.global	DMA_MemoryTargetConfig
 582              		.thumb
 583              		.thumb_func
 584              		.type	DMA_MemoryTargetConfig, %function
 585              	DMA_MemoryTargetConfig:
 586              	.LFB121:
 587              		.loc 1 798 0
 588              		.cfi_startproc
 589              		@ args = 0, pretend = 0, frame = 0
 590              		@ frame_needed = 0, uses_anonymous_args = 0
 591              		@ link register save eliminated.
 592              	.LVL18:
 593              		.loc 1 804 0
 594 0000 0AB9     		cbnz	r2, .L59
 595              		.loc 1 812 0
 596 0002 C160     		str	r1, [r0, #12]
 597 0004 7047     		bx	lr
 598              	.L59:
 599              		.loc 1 807 0
 600 0006 0161     		str	r1, [r0, #16]
 601 0008 7047     		bx	lr
 602              		.cfi_endproc
 603              	.LFE121:
 604              		.size	DMA_MemoryTargetConfig, .-DMA_MemoryTargetConfig
 605 000a 00BFAFF3 		.section	.text.DMA_GetCurrentMemoryTarget,"ax",%progbits
 605      0080
 606              		.align	2
 607              		.p2align 4,,15
 608              		.global	DMA_GetCurrentMemoryTarget
 609              		.thumb
 610              		.thumb_func
ARM GAS  C:\Users\jsyoon\AppData\Local\Temp\ccRKgIox.s 			page 12


 611              		.type	DMA_GetCurrentMemoryTarget, %function
 612              	DMA_GetCurrentMemoryTarget:
 613              	.LFB122:
 614              		.loc 1 823 0
 615              		.cfi_startproc
 616              		@ args = 0, pretend = 0, frame = 0
 617              		@ frame_needed = 0, uses_anonymous_args = 0
 618              		@ link register save eliminated.
 619              	.LVL19:
 620              		.loc 1 830 0
 621 0000 0068     		ldr	r0, [r0]
 622              	.LVL20:
 623              		.loc 1 841 0
 624 0002 C0F3C040 		ubfx	r0, r0, #19, #1
 625              	.LVL21:
 626 0006 7047     		bx	lr
 627              		.cfi_endproc
 628              	.LFE122:
 629              		.size	DMA_GetCurrentMemoryTarget, .-DMA_GetCurrentMemoryTarget
 630 0008 AFF30080 		.section	.text.DMA_GetCmdStatus,"ax",%progbits
 630      AFF30080 
 631              		.align	2
 632              		.p2align 4,,15
 633              		.global	DMA_GetCmdStatus
 634              		.thumb
 635              		.thumb_func
 636              		.type	DMA_GetCmdStatus, %function
 637              	DMA_GetCmdStatus:
 638              	.LFB123:
 639              		.loc 1 932 0
 640              		.cfi_startproc
 641              		@ args = 0, pretend = 0, frame = 0
 642              		@ frame_needed = 0, uses_anonymous_args = 0
 643              		@ link register save eliminated.
 644              	.LVL22:
 645              		.loc 1 938 0
 646 0000 0068     		ldr	r0, [r0]
 647              	.LVL23:
 648              		.loc 1 950 0
 649 0002 00F00100 		and	r0, r0, #1
 650              	.LVL24:
 651 0006 7047     		bx	lr
 652              		.cfi_endproc
 653              	.LFE123:
 654              		.size	DMA_GetCmdStatus, .-DMA_GetCmdStatus
 655 0008 AFF30080 		.section	.text.DMA_GetFIFOStatus,"ax",%progbits
 655      AFF30080 
 656              		.align	2
 657              		.p2align 4,,15
 658              		.global	DMA_GetFIFOStatus
 659              		.thumb
 660              		.thumb_func
 661              		.type	DMA_GetFIFOStatus, %function
 662              	DMA_GetFIFOStatus:
 663              	.LFB124:
 664              		.loc 1 966 0
 665              		.cfi_startproc
ARM GAS  C:\Users\jsyoon\AppData\Local\Temp\ccRKgIox.s 			page 13


 666              		@ args = 0, pretend = 0, frame = 0
 667              		@ frame_needed = 0, uses_anonymous_args = 0
 668              		@ link register save eliminated.
 669              	.LVL25:
 670              		.loc 1 973 0
 671 0000 4069     		ldr	r0, [r0, #20]
 672              	.LVL26:
 673              		.loc 1 976 0
 674 0002 00F03800 		and	r0, r0, #56
 675              	.LVL27:
 676 0006 7047     		bx	lr
 677              		.cfi_endproc
 678              	.LFE124:
 679              		.size	DMA_GetFIFOStatus, .-DMA_GetFIFOStatus
 680 0008 AFF30080 		.section	.text.DMA_GetFlagStatus,"ax",%progbits
 680      AFF30080 
 681              		.align	2
 682              		.p2align 4,,15
 683              		.global	DMA_GetFlagStatus
 684              		.thumb
 685              		.thumb_func
 686              		.type	DMA_GetFlagStatus, %function
 687              	DMA_GetFlagStatus:
 688              	.LFB125:
 689              		.loc 1 993 0
 690              		.cfi_startproc
 691              		@ args = 0, pretend = 0, frame = 0
 692              		@ frame_needed = 0, uses_anonymous_args = 0
 693              		@ link register save eliminated.
 694              	.LVL28:
 695              		.loc 1 1006 0
 696 0000 0B4B     		ldr	r3, .L68
 697 0002 0C4A     		ldr	r2, .L68+4
 698              		.loc 1 993 0
 699 0004 10B4     		push	{r4}
 700              		.cfi_def_cfa_offset 4
 701              		.cfi_offset 4, -4
 702              		.loc 1 1003 0
 703 0006 0C4C     		ldr	r4, .L68+8
 704              		.loc 1 1006 0
 705 0008 A042     		cmp	r0, r4
 706 000a 8CBF     		ite	hi
 707 000c 1046     		movhi	r0, r2
 708 000e 1846     		movls	r0, r3
 709              	.LVL29:
 710              		.loc 1 1015 0
 711 0010 8B00     		lsls	r3, r1, #2
 712              		.loc 1 1018 0
 713 0012 4CBF     		ite	mi
 714 0014 4368     		ldrmi	r3, [r0, #4]
 715              	.LVL30:
 716              		.loc 1 1023 0
 717 0016 0368     		ldrpl	r3, [r0]
 718              	.LVL31:
 719              		.loc 1 1043 0
 720 0018 5DF8044B 		ldr	r4, [sp], #4
 721              		.loc 1 1027 0
ARM GAS  C:\Users\jsyoon\AppData\Local\Temp\ccRKgIox.s 			page 14


 722 001c 21F0F021 		bic	r1, r1, #-268374016
 723              	.LVL32:
 724 0020 21F08211 		bic	r1, r1, #8519810
 725              		.loc 1 1030 0
 726 0024 1942     		tst	r1, r3
 727              		.loc 1 1043 0
 728 0026 0CBF     		ite	eq
 729 0028 0020     		moveq	r0, #0
 730 002a 0120     		movne	r0, #1
 731              	.LVL33:
 732 002c 7047     		bx	lr
 733              	.L69:
 734 002e 00BF     		.align	2
 735              	.L68:
 736 0030 00600240 		.word	1073897472
 737 0034 00640240 		.word	1073898496
 738 0038 0F640240 		.word	1073898511
 739              		.cfi_endproc
 740              	.LFE125:
 741              		.size	DMA_GetFlagStatus, .-DMA_GetFlagStatus
 742 003c AFF30080 		.section	.text.DMA_ClearFlag,"ax",%progbits
 743              		.align	2
 744              		.p2align 4,,15
 745              		.global	DMA_ClearFlag
 746              		.thumb
 747              		.thumb_func
 748              		.type	DMA_ClearFlag, %function
 749              	DMA_ClearFlag:
 750              	.LFB126:
 751              		.loc 1 1060 0
 752              		.cfi_startproc
 753              		@ args = 0, pretend = 0, frame = 0
 754              		@ frame_needed = 0, uses_anonymous_args = 0
 755              		@ link register save eliminated.
 756              	.LVL34:
 757 0000 10B4     		push	{r4}
 758              		.cfi_def_cfa_offset 4
 759              		.cfi_offset 4, -4
 760              		.loc 1 1071 0
 761 0002 094A     		ldr	r2, .L75
 762              		.loc 1 1068 0
 763 0004 094C     		ldr	r4, .L75+4
 764              		.loc 1 1071 0
 765 0006 0A4B     		ldr	r3, .L75+8
 766 0008 A042     		cmp	r0, r4
 767 000a 8CBF     		ite	hi
 768 000c 1046     		movhi	r0, r2
 769 000e 1846     		movls	r0, r3
 770              	.LVL35:
 771              		.loc 1 1080 0
 772 0010 11F0005F 		tst	r1, #536870912
 773              		.loc 1 1083 0
 774 0014 21F0F021 		bic	r1, r1, #-268374016
 775              	.LVL36:
 776 0018 21F08211 		bic	r1, r1, #8519810
 777 001c 14BF     		ite	ne
 778 001e C160     		strne	r1, [r0, #12]
ARM GAS  C:\Users\jsyoon\AppData\Local\Temp\ccRKgIox.s 			page 15


 779              		.loc 1 1088 0
 780 0020 8160     		streq	r1, [r0, #8]
 781              		.loc 1 1090 0
 782 0022 5DF8044B 		ldr	r4, [sp], #4
 783 0026 7047     		bx	lr
 784              	.L76:
 785              		.align	2
 786              	.L75:
 787 0028 00640240 		.word	1073898496
 788 002c 0F640240 		.word	1073898511
 789 0030 00600240 		.word	1073897472
 790              		.cfi_endproc
 791              	.LFE126:
 792              		.size	DMA_ClearFlag, .-DMA_ClearFlag
 793 0034 AFF30080 		.section	.text.DMA_ITConfig,"ax",%progbits
 793      AFF30080 
 793      AFF30080 
 794              		.align	2
 795              		.p2align 4,,15
 796              		.global	DMA_ITConfig
 797              		.thumb
 798              		.thumb_func
 799              		.type	DMA_ITConfig, %function
 800              	DMA_ITConfig:
 801              	.LFB127:
 802              		.loc 1 1107 0
 803              		.cfi_startproc
 804              		@ args = 0, pretend = 0, frame = 0
 805              		@ frame_needed = 0, uses_anonymous_args = 0
 806              		@ link register save eliminated.
 807              	.LVL37:
 808              		.loc 1 1114 0
 809 0000 0B06     		lsls	r3, r1, #24
 810 0002 0CD5     		bpl	.L78
 811              		.loc 1 1119 0
 812 0004 4369     		ldr	r3, [r0, #20]
 813              		.loc 1 1116 0
 814 0006 AAB1     		cbz	r2, .L79
 815              		.loc 1 1119 0
 816 0008 43F08003 		orr	r3, r3, #128
 817              		.loc 1 1129 0
 818 000c 8029     		cmp	r1, #128
 819              		.loc 1 1119 0
 820 000e 4361     		str	r3, [r0, #20]
 821              		.loc 1 1129 0
 822 0010 0FD0     		beq	.L77
 823              	.L80:
 824              		.loc 1 1134 0
 825 0012 0368     		ldr	r3, [r0]
 826 0014 01F01E01 		and	r1, r1, #30
 827              	.LVL38:
 828 0018 1943     		orrs	r1, r1, r3
 829 001a 0160     		str	r1, [r0]
 830 001c 7047     		bx	lr
 831              	.LVL39:
 832              	.L78:
 833              		.loc 1 1129 0
ARM GAS  C:\Users\jsyoon\AppData\Local\Temp\ccRKgIox.s 			page 16


 834 001e 8029     		cmp	r1, #128
 835 0020 07D0     		beq	.L77
 836              		.loc 1 1131 0
 837 0022 002A     		cmp	r2, #0
 838 0024 F5D1     		bne	.L80
 839              	.L82:
 840              		.loc 1 1139 0
 841 0026 0368     		ldr	r3, [r0]
 842 0028 01F01E01 		and	r1, r1, #30
 843              	.LVL40:
 844 002c 23EA0101 		bic	r1, r3, r1
 845 0030 0160     		str	r1, [r0]
 846              	.L77:
 847 0032 7047     		bx	lr
 848              	.LVL41:
 849              	.L79:
 850              		.loc 1 1124 0
 851 0034 23F08003 		bic	r3, r3, #128
 852              		.loc 1 1129 0
 853 0038 8029     		cmp	r1, #128
 854              		.loc 1 1124 0
 855 003a 4361     		str	r3, [r0, #20]
 856              		.loc 1 1129 0
 857 003c F3D1     		bne	.L82
 858 003e 7047     		bx	lr
 859              		.cfi_endproc
 860              	.LFE127:
 861              		.size	DMA_ITConfig, .-DMA_ITConfig
 862              		.section	.text.DMA_GetITStatus,"ax",%progbits
 863              		.align	2
 864              		.p2align 4,,15
 865              		.global	DMA_GetITStatus
 866              		.thumb
 867              		.thumb_func
 868              		.type	DMA_GetITStatus, %function
 869              	DMA_GetITStatus:
 870              	.LFB128:
 871              		.loc 1 1159 0
 872              		.cfi_startproc
 873              		@ args = 0, pretend = 0, frame = 0
 874              		@ frame_needed = 0, uses_anonymous_args = 0
 875              		@ link register save eliminated.
 876              	.LVL42:
 877 0000 70B4     		push	{r4, r5, r6}
 878              		.cfi_def_cfa_offset 12
 879              		.cfi_offset 4, -12
 880              		.cfi_offset 5, -8
 881              		.cfi_offset 6, -4
 882              		.loc 1 1172 0
 883 0002 114A     		ldr	r2, .L96
 884              		.loc 1 1169 0
 885 0004 114D     		ldr	r5, .L96+4
 886              		.loc 1 1172 0
 887 0006 124C     		ldr	r4, .L96+8
 888              		.loc 1 1181 0
 889 0008 21F0F023 		bic	r3, r1, #-268374016
 890 000c 23F0C316 		bic	r6, r3, #12779715
ARM GAS  C:\Users\jsyoon\AppData\Local\Temp\ccRKgIox.s 			page 17


 891              		.loc 1 1172 0
 892 0010 A842     		cmp	r0, r5
 893 0012 88BF     		it	hi
 894 0014 2246     		movhi	r2, r4
 895              	.LVL43:
 896              		.loc 1 1181 0
 897 0016 96B1     		cbz	r6, .L89
 898              	.LVL44:
 899              		.loc 1 1187 0
 900 0018 0468     		ldr	r4, [r0]
 901              		.loc 1 1184 0
 902 001a 04F01E04 		and	r4, r4, #30
 903              		.loc 1 1187 0
 904 001e 04EAD124 		and	r4, r4, r1, lsr #11
 905              	.LVL45:
 906              	.L90:
 907              		.loc 1 1196 0
 908 0022 8900     		lsls	r1, r1, #2
 909              	.LVL46:
 910              		.loc 1 1199 0
 911 0024 4CBF     		ite	mi
 912 0026 5268     		ldrmi	r2, [r2, #4]
 913              	.LVL47:
 914              		.loc 1 1204 0
 915 0028 1268     		ldrpl	r2, [r2]
 916              	.LVL48:
 917              		.loc 1 1208 0
 918 002a 23F08213 		bic	r3, r3, #8519810
 919              		.loc 1 1211 0
 920 002e 13EA0200 		ands	r0, r3, r2
 921              	.LVL49:
 922 0032 02D0     		beq	.L93
 923              		.loc 1 1214 0 discriminator 1
 924 0034 201C     		adds	r0, r4, #0
 925 0036 18BF     		it	ne
 926 0038 0120     		movne	r0, #1
 927              	.L93:
 928              	.LVL50:
 929              		.loc 1 1224 0
 930 003a 70BC     		pop	{r4, r5, r6}
 931              	.LVL51:
 932 003c 7047     		bx	lr
 933              	.LVL52:
 934              	.L89:
 935              		.loc 1 1192 0
 936 003e 4469     		ldr	r4, [r0, #20]
 937 0040 04F08004 		and	r4, r4, #128
 938              	.LVL53:
 939 0044 EDE7     		b	.L90
 940              	.L97:
 941 0046 00BF     		.align	2
 942              	.L96:
 943 0048 00600240 		.word	1073897472
 944 004c 0F640240 		.word	1073898511
 945 0050 00640240 		.word	1073898496
 946              		.cfi_endproc
 947              	.LFE128:
ARM GAS  C:\Users\jsyoon\AppData\Local\Temp\ccRKgIox.s 			page 18


 948              		.size	DMA_GetITStatus, .-DMA_GetITStatus
 949 0054 AFF30080 		.section	.text.DMA_ClearITPendingBit,"ax",%progbits
 949      AFF30080 
 949      AFF30080 
 950              		.align	2
 951              		.p2align 4,,15
 952              		.global	DMA_ClearITPendingBit
 953              		.thumb
 954              		.thumb_func
 955              		.type	DMA_ClearITPendingBit, %function
 956              	DMA_ClearITPendingBit:
 957              	.LFB129:
 958              		.loc 1 1241 0
 959              		.cfi_startproc
 960              		@ args = 0, pretend = 0, frame = 0
 961              		@ frame_needed = 0, uses_anonymous_args = 0
 962              		@ link register save eliminated.
 963              	.LVL54:
 964 0000 10B4     		push	{r4}
 965              		.cfi_def_cfa_offset 4
 966              		.cfi_offset 4, -4
 967              		.loc 1 1252 0
 968 0002 094A     		ldr	r2, .L103
 969              		.loc 1 1249 0
 970 0004 094C     		ldr	r4, .L103+4
 971              		.loc 1 1252 0
 972 0006 0A4B     		ldr	r3, .L103+8
 973 0008 A042     		cmp	r0, r4
 974 000a 8CBF     		ite	hi
 975 000c 1046     		movhi	r0, r2
 976 000e 1846     		movls	r0, r3
 977              	.LVL55:
 978              		.loc 1 1261 0
 979 0010 11F0005F 		tst	r1, #536870912
 980              		.loc 1 1264 0
 981 0014 21F0F021 		bic	r1, r1, #-268374016
 982              	.LVL56:
 983 0018 21F08211 		bic	r1, r1, #8519810
 984 001c 14BF     		ite	ne
 985 001e C160     		strne	r1, [r0, #12]
 986              		.loc 1 1269 0
 987 0020 8160     		streq	r1, [r0, #8]
 988              		.loc 1 1271 0
 989 0022 5DF8044B 		ldr	r4, [sp], #4
 990 0026 7047     		bx	lr
 991              	.L104:
 992              		.align	2
 993              	.L103:
 994 0028 00640240 		.word	1073898496
 995 002c 0F640240 		.word	1073898511
 996 0030 00600240 		.word	1073897472
 997              		.cfi_endproc
 998              	.LFE129:
 999              		.size	DMA_ClearITPendingBit, .-DMA_ClearITPendingBit
 1000 0034 AFF30080 		.text
 1000      AFF30080 
 1000      AFF30080 
ARM GAS  C:\Users\jsyoon\AppData\Local\Temp\ccRKgIox.s 			page 19


 1001              	.Letext0:
 1002              		.file 2 "c:\\crosstools\\gcc-arm-embedded\\4.8_2014q2\\arm-none-eabi\\include\\machine\\_default_t
 1003              		.file 3 "c:\\crosstools\\gcc-arm-embedded\\4.8_2014q2\\arm-none-eabi\\include\\stdint.h"
 1004              		.file 4 "ChibiOS_2.6.6/os/hal/platforms/STM32F4xx/stm32f4xx.h"
 1005              		.file 5 "ChibiOS_2.6.6/ext/stdperiph_stm32f4/inc/stm32f4xx_dma.h"
 1006              		.file 6 "ChibiOS_2.6.6/os/ports/common/ARMCMx/CMSIS/include/core_cm4.h"
 1007              		.section	.debug_info,"",%progbits
 1008              	.Ldebug_info0:
 1009 0000 3B070000 		.4byte	0x73b
 1010 0004 0400     		.2byte	0x4
 1011 0006 00000000 		.4byte	.Ldebug_abbrev0
 1012 000a 04       		.byte	0x4
 1013 000b 01       		.uleb128 0x1
 1014 000c 74020000 		.4byte	.LASF83
 1015 0010 01       		.byte	0x1
 1016 0011 48050000 		.4byte	.LASF84
 1017 0015 6C000000 		.4byte	.LASF85
 1018 0019 00000000 		.4byte	.Ldebug_ranges0+0
 1019 001d 00000000 		.4byte	0
 1020 0021 00000000 		.4byte	.Ldebug_line0
 1021 0025 02       		.uleb128 0x2
 1022 0026 01       		.byte	0x1
 1023 0027 06       		.byte	0x6
 1024 0028 98030000 		.4byte	.LASF0
 1025 002c 02       		.uleb128 0x2
 1026 002d 01       		.byte	0x1
 1027 002e 08       		.byte	0x8
 1028 002f 66020000 		.4byte	.LASF1
 1029 0033 02       		.uleb128 0x2
 1030 0034 02       		.byte	0x2
 1031 0035 05       		.byte	0x5
 1032 0036 56010000 		.4byte	.LASF2
 1033 003a 03       		.uleb128 0x3
 1034 003b 59000000 		.4byte	.LASF4
 1035 003f 02       		.byte	0x2
 1036 0040 26       		.byte	0x26
 1037 0041 45000000 		.4byte	0x45
 1038 0045 02       		.uleb128 0x2
 1039 0046 02       		.byte	0x2
 1040 0047 07       		.byte	0x7
 1041 0048 36040000 		.4byte	.LASF3
 1042 004c 03       		.uleb128 0x3
 1043 004d 29050000 		.4byte	.LASF5
 1044 0051 02       		.byte	0x2
 1045 0052 37       		.byte	0x37
 1046 0053 57000000 		.4byte	0x57
 1047 0057 02       		.uleb128 0x2
 1048 0058 04       		.byte	0x4
 1049 0059 05       		.byte	0x5
 1050 005a F2010000 		.4byte	.LASF6
 1051 005e 03       		.uleb128 0x3
 1052 005f BF000000 		.4byte	.LASF7
 1053 0063 02       		.byte	0x2
 1054 0064 38       		.byte	0x38
 1055 0065 69000000 		.4byte	0x69
 1056 0069 02       		.uleb128 0x2
 1057 006a 04       		.byte	0x4
ARM GAS  C:\Users\jsyoon\AppData\Local\Temp\ccRKgIox.s 			page 20


 1058 006b 07       		.byte	0x7
 1059 006c C8040000 		.4byte	.LASF8
 1060 0070 02       		.uleb128 0x2
 1061 0071 08       		.byte	0x8
 1062 0072 05       		.byte	0x5
 1063 0073 81010000 		.4byte	.LASF9
 1064 0077 02       		.uleb128 0x2
 1065 0078 08       		.byte	0x8
 1066 0079 07       		.byte	0x7
 1067 007a BF030000 		.4byte	.LASF10
 1068 007e 04       		.uleb128 0x4
 1069 007f 04       		.byte	0x4
 1070 0080 05       		.byte	0x5
 1071 0081 696E7400 		.ascii	"int\000"
 1072 0085 02       		.uleb128 0x2
 1073 0086 04       		.byte	0x4
 1074 0087 07       		.byte	0x7
 1075 0088 F1030000 		.4byte	.LASF11
 1076 008c 03       		.uleb128 0x3
 1077 008d 0E040000 		.4byte	.LASF12
 1078 0091 03       		.byte	0x3
 1079 0092 36       		.byte	0x36
 1080 0093 3A000000 		.4byte	0x3a
 1081 0097 03       		.uleb128 0x3
 1082 0098 5B040000 		.4byte	.LASF13
 1083 009c 03       		.byte	0x3
 1084 009d 41       		.byte	0x41
 1085 009e 4C000000 		.4byte	0x4c
 1086 00a2 03       		.uleb128 0x3
 1087 00a3 E8030000 		.4byte	.LASF14
 1088 00a7 03       		.byte	0x3
 1089 00a8 42       		.byte	0x42
 1090 00a9 5E000000 		.4byte	0x5e
 1091 00ad 02       		.uleb128 0x2
 1092 00ae 04       		.byte	0x4
 1093 00af 07       		.byte	0x7
 1094 00b0 50000000 		.4byte	.LASF15
 1095 00b4 05       		.uleb128 0x5
 1096 00b5 A2000000 		.4byte	0xa2
 1097 00b9 05       		.uleb128 0x5
 1098 00ba 97000000 		.4byte	0x97
 1099 00be 06       		.uleb128 0x6
 1100 00bf 01       		.byte	0x1
 1101 00c0 04       		.byte	0x4
 1102 00c1 F701     		.2byte	0x1f7
 1103 00c3 D4000000 		.4byte	0xd4
 1104 00c7 07       		.uleb128 0x7
 1105 00c8 42050000 		.4byte	.LASF16
 1106 00cc 00       		.sleb128 0
 1107 00cd 08       		.uleb128 0x8
 1108 00ce 53455400 		.ascii	"SET\000"
 1109 00d2 01       		.sleb128 1
 1110 00d3 00       		.byte	0
 1111 00d4 09       		.uleb128 0x9
 1112 00d5 DD050000 		.4byte	.LASF17
 1113 00d9 04       		.byte	0x4
 1114 00da F701     		.2byte	0x1f7
ARM GAS  C:\Users\jsyoon\AppData\Local\Temp\ccRKgIox.s 			page 21


 1115 00dc BE000000 		.4byte	0xbe
 1116 00e0 09       		.uleb128 0x9
 1117 00e1 D1010000 		.4byte	.LASF18
 1118 00e5 04       		.byte	0x4
 1119 00e6 F701     		.2byte	0x1f7
 1120 00e8 BE000000 		.4byte	0xbe
 1121 00ec 06       		.uleb128 0x6
 1122 00ed 01       		.byte	0x1
 1123 00ee 04       		.byte	0x4
 1124 00ef F901     		.2byte	0x1f9
 1125 00f1 02010000 		.4byte	0x102
 1126 00f5 07       		.uleb128 0x7
 1127 00f6 4E010000 		.4byte	.LASF19
 1128 00fa 00       		.sleb128 0
 1129 00fb 07       		.uleb128 0x7
 1130 00fc E8050000 		.4byte	.LASF20
 1131 0100 01       		.sleb128 1
 1132 0101 00       		.byte	0
 1133 0102 09       		.uleb128 0x9
 1134 0103 DF040000 		.4byte	.LASF21
 1135 0107 04       		.byte	0x4
 1136 0108 F901     		.2byte	0x1f9
 1137 010a EC000000 		.4byte	0xec
 1138 010e 0A       		.uleb128 0xa
 1139 010f 18       		.byte	0x18
 1140 0110 04       		.byte	0x4
 1141 0111 B102     		.2byte	0x2b1
 1142 0113 65010000 		.4byte	0x165
 1143 0117 0B       		.uleb128 0xb
 1144 0118 435200   		.ascii	"CR\000"
 1145 011b 04       		.byte	0x4
 1146 011c B302     		.2byte	0x2b3
 1147 011e B4000000 		.4byte	0xb4
 1148 0122 00       		.byte	0
 1149 0123 0C       		.uleb128 0xc
 1150 0124 DA040000 		.4byte	.LASF22
 1151 0128 04       		.byte	0x4
 1152 0129 B402     		.2byte	0x2b4
 1153 012b B4000000 		.4byte	0xb4
 1154 012f 04       		.byte	0x4
 1155 0130 0B       		.uleb128 0xb
 1156 0131 50415200 		.ascii	"PAR\000"
 1157 0135 04       		.byte	0x4
 1158 0136 B502     		.2byte	0x2b5
 1159 0138 B4000000 		.4byte	0xb4
 1160 013c 08       		.byte	0x8
 1161 013d 0C       		.uleb128 0xc
 1162 013e C3040000 		.4byte	.LASF23
 1163 0142 04       		.byte	0x4
 1164 0143 B602     		.2byte	0x2b6
 1165 0145 B4000000 		.4byte	0xb4
 1166 0149 0C       		.byte	0xc
 1167 014a 0C       		.uleb128 0xc
 1168 014b 49040000 		.4byte	.LASF24
 1169 014f 04       		.byte	0x4
 1170 0150 B702     		.2byte	0x2b7
 1171 0152 B4000000 		.4byte	0xb4
ARM GAS  C:\Users\jsyoon\AppData\Local\Temp\ccRKgIox.s 			page 22


 1172 0156 10       		.byte	0x10
 1173 0157 0B       		.uleb128 0xb
 1174 0158 46435200 		.ascii	"FCR\000"
 1175 015c 04       		.byte	0x4
 1176 015d B802     		.2byte	0x2b8
 1177 015f B4000000 		.4byte	0xb4
 1178 0163 14       		.byte	0x14
 1179 0164 00       		.byte	0
 1180 0165 09       		.uleb128 0x9
 1181 0166 1A000000 		.4byte	.LASF25
 1182 016a 04       		.byte	0x4
 1183 016b B902     		.2byte	0x2b9
 1184 016d 0E010000 		.4byte	0x10e
 1185 0171 0A       		.uleb128 0xa
 1186 0172 10       		.byte	0x10
 1187 0173 04       		.byte	0x4
 1188 0174 BB02     		.2byte	0x2bb
 1189 0176 AF010000 		.4byte	0x1af
 1190 017a 0C       		.uleb128 0xc
 1191 017b 04020000 		.4byte	.LASF26
 1192 017f 04       		.byte	0x4
 1193 0180 BD02     		.2byte	0x2bd
 1194 0182 B4000000 		.4byte	0xb4
 1195 0186 00       		.byte	0
 1196 0187 0C       		.uleb128 0xc
 1197 0188 17040000 		.4byte	.LASF27
 1198 018c 04       		.byte	0x4
 1199 018d BE02     		.2byte	0x2be
 1200 018f B4000000 		.4byte	0xb4
 1201 0193 04       		.byte	0x4
 1202 0194 0C       		.uleb128 0xc
 1203 0195 BD040000 		.4byte	.LASF28
 1204 0199 04       		.byte	0x4
 1205 019a BF02     		.2byte	0x2bf
 1206 019c B4000000 		.4byte	0xb4
 1207 01a0 08       		.byte	0x8
 1208 01a1 0C       		.uleb128 0xc
 1209 01a2 7B010000 		.4byte	.LASF29
 1210 01a6 04       		.byte	0x4
 1211 01a7 C002     		.2byte	0x2c0
 1212 01a9 B4000000 		.4byte	0xb4
 1213 01ad 0C       		.byte	0xc
 1214 01ae 00       		.byte	0
 1215 01af 09       		.uleb128 0x9
 1216 01b0 DC000000 		.4byte	.LASF30
 1217 01b4 04       		.byte	0x4
 1218 01b5 C102     		.2byte	0x2c1
 1219 01b7 71010000 		.4byte	0x171
 1220 01bb 0D       		.uleb128 0xd
 1221 01bc 3C       		.byte	0x3c
 1222 01bd 05       		.byte	0x5
 1223 01be 36       		.byte	0x36
 1224 01bf 78020000 		.4byte	0x278
 1225 01c3 0E       		.uleb128 0xe
 1226 01c4 1D050000 		.4byte	.LASF31
 1227 01c8 05       		.byte	0x5
 1228 01c9 38       		.byte	0x38
ARM GAS  C:\Users\jsyoon\AppData\Local\Temp\ccRKgIox.s 			page 23


 1229 01ca A2000000 		.4byte	0xa2
 1230 01ce 00       		.byte	0
 1231 01cf 0E       		.uleb128 0xe
 1232 01d0 37010000 		.4byte	.LASF32
 1233 01d4 05       		.byte	0x5
 1234 01d5 3B       		.byte	0x3b
 1235 01d6 A2000000 		.4byte	0xa2
 1236 01da 04       		.byte	0x4
 1237 01db 0E       		.uleb128 0xe
 1238 01dc 80050000 		.4byte	.LASF33
 1239 01e0 05       		.byte	0x5
 1240 01e1 3D       		.byte	0x3d
 1241 01e2 A2000000 		.4byte	0xa2
 1242 01e6 08       		.byte	0x8
 1243 01e7 0E       		.uleb128 0xe
 1244 01e8 26010000 		.4byte	.LASF34
 1245 01ec 05       		.byte	0x5
 1246 01ed 41       		.byte	0x41
 1247 01ee A2000000 		.4byte	0xa2
 1248 01f2 0C       		.byte	0xc
 1249 01f3 0E       		.uleb128 0xe
 1250 01f4 94050000 		.4byte	.LASF35
 1251 01f8 05       		.byte	0x5
 1252 01f9 45       		.byte	0x45
 1253 01fa A2000000 		.4byte	0xa2
 1254 01fe 10       		.byte	0x10
 1255 01ff 0E       		.uleb128 0xe
 1256 0200 BF010000 		.4byte	.LASF36
 1257 0204 05       		.byte	0x5
 1258 0205 49       		.byte	0x49
 1259 0206 A2000000 		.4byte	0xa2
 1260 020a 14       		.byte	0x14
 1261 020b 0E       		.uleb128 0xe
 1262 020c 60010000 		.4byte	.LASF37
 1263 0210 05       		.byte	0x5
 1264 0211 4C       		.byte	0x4c
 1265 0212 A2000000 		.4byte	0xa2
 1266 0216 18       		.byte	0x18
 1267 0217 0E       		.uleb128 0xe
 1268 0218 3F020000 		.4byte	.LASF38
 1269 021c 05       		.byte	0x5
 1270 021d 4F       		.byte	0x4f
 1271 021e A2000000 		.4byte	0xa2
 1272 0222 1C       		.byte	0x1c
 1273 0223 0E       		.uleb128 0xe
 1274 0224 F6050000 		.4byte	.LASF39
 1275 0228 05       		.byte	0x5
 1276 0229 52       		.byte	0x52
 1277 022a A2000000 		.4byte	0xa2
 1278 022e 20       		.byte	0x20
 1279 022f 0E       		.uleb128 0xe
 1280 0230 A3050000 		.4byte	.LASF40
 1281 0234 05       		.byte	0x5
 1282 0235 55       		.byte	0x55
 1283 0236 A2000000 		.4byte	0xa2
 1284 023a 24       		.byte	0x24
 1285 023b 0E       		.uleb128 0xe
ARM GAS  C:\Users\jsyoon\AppData\Local\Temp\ccRKgIox.s 			page 24


 1286 023c 33000000 		.4byte	.LASF41
 1287 0240 05       		.byte	0x5
 1288 0241 5A       		.byte	0x5a
 1289 0242 A2000000 		.4byte	0xa2
 1290 0246 28       		.byte	0x28
 1291 0247 0E       		.uleb128 0xe
 1292 0248 FF040000 		.4byte	.LASF42
 1293 024c 05       		.byte	0x5
 1294 024d 5D       		.byte	0x5d
 1295 024e A2000000 		.4byte	0xa2
 1296 0252 2C       		.byte	0x2c
 1297 0253 0E       		.uleb128 0xe
 1298 0254 D6030000 		.4byte	.LASF43
 1299 0258 05       		.byte	0x5
 1300 0259 62       		.byte	0x62
 1301 025a A2000000 		.4byte	0xa2
 1302 025e 30       		.byte	0x30
 1303 025f 0E       		.uleb128 0xe
 1304 0260 40000000 		.4byte	.LASF44
 1305 0264 05       		.byte	0x5
 1306 0265 65       		.byte	0x65
 1307 0266 A2000000 		.4byte	0xa2
 1308 026a 34       		.byte	0x34
 1309 026b 0E       		.uleb128 0xe
 1310 026c AB000000 		.4byte	.LASF45
 1311 0270 05       		.byte	0x5
 1312 0271 6A       		.byte	0x6a
 1313 0272 A2000000 		.4byte	0xa2
 1314 0276 38       		.byte	0x38
 1315 0277 00       		.byte	0
 1316 0278 03       		.uleb128 0x3
 1317 0279 56020000 		.4byte	.LASF46
 1318 027d 05       		.byte	0x5
 1319 027e 6E       		.byte	0x6e
 1320 027f BB010000 		.4byte	0x1bb
 1321 0283 0F       		.uleb128 0xf
 1322 0284 A0040000 		.4byte	.LASF47
 1323 0288 01       		.byte	0x1
 1324 0289 C2       		.byte	0xc2
 1325 028a 00000000 		.4byte	.LFB111
 1326 028e 30010000 		.4byte	.LFE111-.LFB111
 1327 0292 01       		.uleb128 0x1
 1328 0293 9C       		.byte	0x9c
 1329 0294 A6020000 		.4byte	0x2a6
 1330 0298 10       		.uleb128 0x10
 1331 0299 19010000 		.4byte	.LASF49
 1332 029d 01       		.byte	0x1
 1333 029e C2       		.byte	0xc2
 1334 029f A6020000 		.4byte	0x2a6
 1335 02a3 01       		.uleb128 0x1
 1336 02a4 50       		.byte	0x50
 1337 02a5 00       		.byte	0
 1338 02a6 11       		.uleb128 0x11
 1339 02a7 04       		.byte	0x4
 1340 02a8 65010000 		.4byte	0x165
 1341 02ac 12       		.uleb128 0x12
 1342 02ad FB010000 		.4byte	.LASF48
ARM GAS  C:\Users\jsyoon\AppData\Local\Temp\ccRKgIox.s 			page 25


 1343 02b1 01       		.byte	0x1
 1344 02b2 3D01     		.2byte	0x13d
 1345 02b4 00000000 		.4byte	.LFB112
 1346 02b8 70000000 		.4byte	.LFE112-.LFB112
 1347 02bc 01       		.uleb128 0x1
 1348 02bd 9C       		.byte	0x9c
 1349 02be F1020000 		.4byte	0x2f1
 1350 02c2 13       		.uleb128 0x13
 1351 02c3 19010000 		.4byte	.LASF49
 1352 02c7 01       		.byte	0x1
 1353 02c8 3D01     		.2byte	0x13d
 1354 02ca A6020000 		.4byte	0x2a6
 1355 02ce 01       		.uleb128 0x1
 1356 02cf 50       		.byte	0x50
 1357 02d0 14       		.uleb128 0x14
 1358 02d1 1C040000 		.4byte	.LASF50
 1359 02d5 01       		.byte	0x1
 1360 02d6 3D01     		.2byte	0x13d
 1361 02d8 F1020000 		.4byte	0x2f1
 1362 02dc 00000000 		.4byte	.LLST0
 1363 02e0 15       		.uleb128 0x15
 1364 02e1 2E020000 		.4byte	.LASF69
 1365 02e5 01       		.byte	0x1
 1366 02e6 3F01     		.2byte	0x13f
 1367 02e8 A2000000 		.4byte	0xa2
 1368 02ec 21000000 		.4byte	.LLST1
 1369 02f0 00       		.byte	0
 1370 02f1 11       		.uleb128 0x11
 1371 02f2 04       		.byte	0x4
 1372 02f3 78020000 		.4byte	0x278
 1373 02f7 12       		.uleb128 0x12
 1374 02f8 9C000000 		.4byte	.LASF51
 1375 02fc 01       		.byte	0x1
 1376 02fd 9101     		.2byte	0x191
 1377 02ff 00000000 		.4byte	.LFB113
 1378 0303 22000000 		.4byte	.LFE113-.LFB113
 1379 0307 01       		.uleb128 0x1
 1380 0308 9C       		.byte	0x9c
 1381 0309 1C030000 		.4byte	0x31c
 1382 030d 13       		.uleb128 0x13
 1383 030e 1C040000 		.4byte	.LASF50
 1384 0312 01       		.byte	0x1
 1385 0313 9101     		.2byte	0x191
 1386 0315 F1020000 		.4byte	0x2f1
 1387 0319 01       		.uleb128 0x1
 1388 031a 50       		.byte	0x50
 1389 031b 00       		.byte	0
 1390 031c 12       		.uleb128 0x12
 1391 031d 12000000 		.4byte	.LASF52
 1392 0321 01       		.byte	0x1
 1393 0322 DC01     		.2byte	0x1dc
 1394 0324 00000000 		.4byte	.LFB114
 1395 0328 14000000 		.4byte	.LFE114-.LFB114
 1396 032c 01       		.uleb128 0x1
 1397 032d 9C       		.byte	0x9c
 1398 032e 4F030000 		.4byte	0x34f
 1399 0332 13       		.uleb128 0x13
ARM GAS  C:\Users\jsyoon\AppData\Local\Temp\ccRKgIox.s 			page 26


 1400 0333 19010000 		.4byte	.LASF49
 1401 0337 01       		.byte	0x1
 1402 0338 DC01     		.2byte	0x1dc
 1403 033a A6020000 		.4byte	0x2a6
 1404 033e 01       		.uleb128 0x1
 1405 033f 50       		.byte	0x50
 1406 0340 13       		.uleb128 0x13
 1407 0341 2E010000 		.4byte	.LASF53
 1408 0345 01       		.byte	0x1
 1409 0346 DC01     		.2byte	0x1dc
 1410 0348 02010000 		.4byte	0x102
 1411 034c 01       		.uleb128 0x1
 1412 034d 51       		.byte	0x51
 1413 034e 00       		.byte	0
 1414 034f 12       		.uleb128 0x12
 1415 0350 82040000 		.4byte	.LASF54
 1416 0354 01       		.byte	0x1
 1417 0355 0002     		.2byte	0x200
 1418 0357 00000000 		.4byte	.LFB115
 1419 035b 14000000 		.4byte	.LFE115-.LFB115
 1420 035f 01       		.uleb128 0x1
 1421 0360 9C       		.byte	0x9c
 1422 0361 82030000 		.4byte	0x382
 1423 0365 13       		.uleb128 0x13
 1424 0366 19010000 		.4byte	.LASF49
 1425 036a 01       		.byte	0x1
 1426 036b 0002     		.2byte	0x200
 1427 036d A6020000 		.4byte	0x2a6
 1428 0371 01       		.uleb128 0x1
 1429 0372 50       		.byte	0x50
 1430 0373 13       		.uleb128 0x13
 1431 0374 2B040000 		.4byte	.LASF55
 1432 0378 01       		.byte	0x1
 1433 0379 0002     		.2byte	0x200
 1434 037b A2000000 		.4byte	0xa2
 1435 037f 01       		.uleb128 0x1
 1436 0380 51       		.byte	0x51
 1437 0381 00       		.byte	0
 1438 0382 12       		.uleb128 0x12
 1439 0383 8F010000 		.4byte	.LASF56
 1440 0387 01       		.byte	0x1
 1441 0388 2402     		.2byte	0x224
 1442 038a 00000000 		.4byte	.LFB116
 1443 038e 14000000 		.4byte	.LFE116-.LFB116
 1444 0392 01       		.uleb128 0x1
 1445 0393 9C       		.byte	0x9c
 1446 0394 B5030000 		.4byte	0x3b5
 1447 0398 13       		.uleb128 0x13
 1448 0399 19010000 		.4byte	.LASF49
 1449 039d 01       		.byte	0x1
 1450 039e 2402     		.2byte	0x224
 1451 03a0 A6020000 		.4byte	0x2a6
 1452 03a4 01       		.uleb128 0x1
 1453 03a5 50       		.byte	0x50
 1454 03a6 13       		.uleb128 0x13
 1455 03a7 4E040000 		.4byte	.LASF57
 1456 03ab 01       		.byte	0x1
ARM GAS  C:\Users\jsyoon\AppData\Local\Temp\ccRKgIox.s 			page 27


 1457 03ac 2402     		.2byte	0x224
 1458 03ae A2000000 		.4byte	0xa2
 1459 03b2 01       		.uleb128 0x1
 1460 03b3 51       		.byte	0x51
 1461 03b4 00       		.byte	0
 1462 03b5 12       		.uleb128 0x12
 1463 03b6 17020000 		.4byte	.LASF58
 1464 03ba 01       		.byte	0x1
 1465 03bb 7802     		.2byte	0x278
 1466 03bd 00000000 		.4byte	.LFB117
 1467 03c1 04000000 		.4byte	.LFE117-.LFB117
 1468 03c5 01       		.uleb128 0x1
 1469 03c6 9C       		.byte	0x9c
 1470 03c7 E8030000 		.4byte	0x3e8
 1471 03cb 13       		.uleb128 0x13
 1472 03cc 19010000 		.4byte	.LASF49
 1473 03d0 01       		.byte	0x1
 1474 03d1 7802     		.2byte	0x278
 1475 03d3 A6020000 		.4byte	0x2a6
 1476 03d7 01       		.uleb128 0x1
 1477 03d8 50       		.byte	0x50
 1478 03d9 13       		.uleb128 0x13
 1479 03da 64000000 		.4byte	.LASF59
 1480 03de 01       		.byte	0x1
 1481 03df 7802     		.2byte	0x278
 1482 03e1 8C000000 		.4byte	0x8c
 1483 03e5 01       		.uleb128 0x1
 1484 03e6 51       		.byte	0x51
 1485 03e7 00       		.byte	0
 1486 03e8 16       		.uleb128 0x16
 1487 03e9 AC050000 		.4byte	.LASF67
 1488 03ed 01       		.byte	0x1
 1489 03ee 8702     		.2byte	0x287
 1490 03f0 8C000000 		.4byte	0x8c
 1491 03f4 00000000 		.4byte	.LFB118
 1492 03f8 06000000 		.4byte	.LFE118-.LFB118
 1493 03fc 01       		.uleb128 0x1
 1494 03fd 9C       		.byte	0x9c
 1495 03fe 13040000 		.4byte	0x413
 1496 0402 14       		.uleb128 0x14
 1497 0403 19010000 		.4byte	.LASF49
 1498 0407 01       		.byte	0x1
 1499 0408 8702     		.2byte	0x287
 1500 040a A6020000 		.4byte	0x2a6
 1501 040e 61000000 		.4byte	.LLST2
 1502 0412 00       		.byte	0
 1503 0413 12       		.uleb128 0x12
 1504 0414 A4030000 		.4byte	.LASF60
 1505 0418 01       		.byte	0x1
 1506 0419 D402     		.2byte	0x2d4
 1507 041b 00000000 		.4byte	.LFB119
 1508 041f 18000000 		.4byte	.LFE119-.LFB119
 1509 0423 01       		.uleb128 0x1
 1510 0424 9C       		.byte	0x9c
 1511 0425 54040000 		.4byte	0x454
 1512 0429 13       		.uleb128 0x13
 1513 042a 19010000 		.4byte	.LASF49
ARM GAS  C:\Users\jsyoon\AppData\Local\Temp\ccRKgIox.s 			page 28


 1514 042e 01       		.byte	0x1
 1515 042f D402     		.2byte	0x2d4
 1516 0431 A6020000 		.4byte	0x2a6
 1517 0435 01       		.uleb128 0x1
 1518 0436 50       		.byte	0x50
 1519 0437 13       		.uleb128 0x13
 1520 0438 EF040000 		.4byte	.LASF61
 1521 043c 01       		.byte	0x1
 1522 043d D402     		.2byte	0x2d4
 1523 043f A2000000 		.4byte	0xa2
 1524 0443 01       		.uleb128 0x1
 1525 0444 51       		.byte	0x51
 1526 0445 13       		.uleb128 0x13
 1527 0446 00000000 		.4byte	.LASF62
 1528 044a 01       		.byte	0x1
 1529 044b D502     		.2byte	0x2d5
 1530 044d A2000000 		.4byte	0xa2
 1531 0451 01       		.uleb128 0x1
 1532 0452 52       		.byte	0x52
 1533 0453 00       		.byte	0
 1534 0454 12       		.uleb128 0x12
 1535 0455 DA010000 		.4byte	.LASF63
 1536 0459 01       		.byte	0x1
 1537 045a F302     		.2byte	0x2f3
 1538 045c 00000000 		.4byte	.LFB120
 1539 0460 14000000 		.4byte	.LFE120-.LFB120
 1540 0464 01       		.uleb128 0x1
 1541 0465 9C       		.byte	0x9c
 1542 0466 87040000 		.4byte	0x487
 1543 046a 13       		.uleb128 0x13
 1544 046b 19010000 		.4byte	.LASF49
 1545 046f 01       		.byte	0x1
 1546 0470 F302     		.2byte	0x2f3
 1547 0472 A6020000 		.4byte	0x2a6
 1548 0476 01       		.uleb128 0x1
 1549 0477 50       		.byte	0x50
 1550 0478 13       		.uleb128 0x13
 1551 0479 2E010000 		.4byte	.LASF53
 1552 047d 01       		.byte	0x1
 1553 047e F302     		.2byte	0x2f3
 1554 0480 02010000 		.4byte	0x102
 1555 0484 01       		.uleb128 0x1
 1556 0485 51       		.byte	0x51
 1557 0486 00       		.byte	0
 1558 0487 12       		.uleb128 0x12
 1559 0488 A8010000 		.4byte	.LASF64
 1560 048c 01       		.byte	0x1
 1561 048d 1C03     		.2byte	0x31c
 1562 048f 00000000 		.4byte	.LFB121
 1563 0493 0A000000 		.4byte	.LFE121-.LFB121
 1564 0497 01       		.uleb128 0x1
 1565 0498 9C       		.byte	0x9c
 1566 0499 C8040000 		.4byte	0x4c8
 1567 049d 13       		.uleb128 0x13
 1568 049e 19010000 		.4byte	.LASF49
 1569 04a2 01       		.byte	0x1
 1570 04a3 1C03     		.2byte	0x31c
ARM GAS  C:\Users\jsyoon\AppData\Local\Temp\ccRKgIox.s 			page 29


 1571 04a5 A6020000 		.4byte	0x2a6
 1572 04a9 01       		.uleb128 0x1
 1573 04aa 50       		.byte	0x50
 1574 04ab 13       		.uleb128 0x13
 1575 04ac 33050000 		.4byte	.LASF65
 1576 04b0 01       		.byte	0x1
 1577 04b1 1C03     		.2byte	0x31c
 1578 04b3 A2000000 		.4byte	0xa2
 1579 04b7 01       		.uleb128 0x1
 1580 04b8 51       		.byte	0x51
 1581 04b9 13       		.uleb128 0x13
 1582 04ba 03010000 		.4byte	.LASF66
 1583 04be 01       		.byte	0x1
 1584 04bf 1D03     		.2byte	0x31d
 1585 04c1 A2000000 		.4byte	0xa2
 1586 04c5 01       		.uleb128 0x1
 1587 04c6 52       		.byte	0x52
 1588 04c7 00       		.byte	0
 1589 04c8 16       		.uleb128 0x16
 1590 04c9 E8000000 		.4byte	.LASF68
 1591 04cd 01       		.byte	0x1
 1592 04ce 3603     		.2byte	0x336
 1593 04d0 A2000000 		.4byte	0xa2
 1594 04d4 00000000 		.4byte	.LFB122
 1595 04d8 08000000 		.4byte	.LFE122-.LFB122
 1596 04dc 01       		.uleb128 0x1
 1597 04dd 9C       		.byte	0x9c
 1598 04de 03050000 		.4byte	0x503
 1599 04e2 14       		.uleb128 0x14
 1600 04e3 19010000 		.4byte	.LASF49
 1601 04e7 01       		.byte	0x1
 1602 04e8 3603     		.2byte	0x336
 1603 04ea A6020000 		.4byte	0x2a6
 1604 04ee 82000000 		.4byte	.LLST3
 1605 04f2 17       		.uleb128 0x17
 1606 04f3 746D7000 		.ascii	"tmp\000"
 1607 04f7 01       		.byte	0x1
 1608 04f8 3803     		.2byte	0x338
 1609 04fa A2000000 		.4byte	0xa2
 1610 04fe A3000000 		.4byte	.LLST4
 1611 0502 00       		.byte	0
 1612 0503 16       		.uleb128 0x16
 1613 0504 0C050000 		.4byte	.LASF70
 1614 0508 01       		.byte	0x1
 1615 0509 A303     		.2byte	0x3a3
 1616 050b 02010000 		.4byte	0x102
 1617 050f 00000000 		.4byte	.LFB123
 1618 0513 08000000 		.4byte	.LFE123-.LFB123
 1619 0517 01       		.uleb128 0x1
 1620 0518 9C       		.byte	0x9c
 1621 0519 3E050000 		.4byte	0x53e
 1622 051d 14       		.uleb128 0x14
 1623 051e 19010000 		.4byte	.LASF49
 1624 0522 01       		.byte	0x1
 1625 0523 A303     		.2byte	0x3a3
 1626 0525 A6020000 		.4byte	0x2a6
 1627 0529 CD000000 		.4byte	.LLST5
ARM GAS  C:\Users\jsyoon\AppData\Local\Temp\ccRKgIox.s 			page 30


 1628 052d 15       		.uleb128 0x15
 1629 052e 2D000000 		.4byte	.LASF71
 1630 0532 01       		.byte	0x1
 1631 0533 A503     		.2byte	0x3a5
 1632 0535 02010000 		.4byte	0x102
 1633 0539 EE000000 		.4byte	.LLST6
 1634 053d 00       		.byte	0
 1635 053e 16       		.uleb128 0x16
 1636 053f CA000000 		.4byte	.LASF72
 1637 0543 01       		.byte	0x1
 1638 0544 C503     		.2byte	0x3c5
 1639 0546 A2000000 		.4byte	0xa2
 1640 054a 00000000 		.4byte	.LFB124
 1641 054e 08000000 		.4byte	.LFE124-.LFB124
 1642 0552 01       		.uleb128 0x1
 1643 0553 9C       		.byte	0x9c
 1644 0554 79050000 		.4byte	0x579
 1645 0558 14       		.uleb128 0x14
 1646 0559 19010000 		.4byte	.LASF49
 1647 055d 01       		.byte	0x1
 1648 055e C503     		.2byte	0x3c5
 1649 0560 A6020000 		.4byte	0x2a6
 1650 0564 11010000 		.4byte	.LLST7
 1651 0568 15       		.uleb128 0x15
 1652 0569 2E020000 		.4byte	.LASF69
 1653 056d 01       		.byte	0x1
 1654 056e C703     		.2byte	0x3c7
 1655 0570 A2000000 		.4byte	0xa2
 1656 0574 32010000 		.4byte	.LLST8
 1657 0578 00       		.byte	0
 1658 0579 16       		.uleb128 0x16
 1659 057a AB040000 		.4byte	.LASF73
 1660 057e 01       		.byte	0x1
 1661 057f E003     		.2byte	0x3e0
 1662 0581 D4000000 		.4byte	0xd4
 1663 0585 00000000 		.4byte	.LFB125
 1664 0589 3C000000 		.4byte	.LFE125-.LFB125
 1665 058d 01       		.uleb128 0x1
 1666 058e 9C       		.byte	0x9c
 1667 058f E4050000 		.4byte	0x5e4
 1668 0593 14       		.uleb128 0x14
 1669 0594 19010000 		.4byte	.LASF49
 1670 0598 01       		.byte	0x1
 1671 0599 E003     		.2byte	0x3e0
 1672 059b A6020000 		.4byte	0x2a6
 1673 059f 61010000 		.4byte	.LLST9
 1674 05a3 14       		.uleb128 0x14
 1675 05a4 63040000 		.4byte	.LASF74
 1676 05a8 01       		.byte	0x1
 1677 05a9 E003     		.2byte	0x3e0
 1678 05ab A2000000 		.4byte	0xa2
 1679 05af 82010000 		.4byte	.LLST10
 1680 05b3 15       		.uleb128 0x15
 1681 05b4 35020000 		.4byte	.LASF75
 1682 05b8 01       		.byte	0x1
 1683 05b9 E203     		.2byte	0x3e2
 1684 05bb D4000000 		.4byte	0xd4
ARM GAS  C:\Users\jsyoon\AppData\Local\Temp\ccRKgIox.s 			page 31


 1685 05bf A3010000 		.4byte	.LLST11
 1686 05c3 15       		.uleb128 0x15
 1687 05c4 14010000 		.4byte	.LASF76
 1688 05c8 01       		.byte	0x1
 1689 05c9 E303     		.2byte	0x3e3
 1690 05cb E4050000 		.4byte	0x5e4
 1691 05cf E8010000 		.4byte	.LLST12
 1692 05d3 15       		.uleb128 0x15
 1693 05d4 2E020000 		.4byte	.LASF69
 1694 05d8 01       		.byte	0x1
 1695 05d9 E403     		.2byte	0x3e4
 1696 05db A2000000 		.4byte	0xa2
 1697 05df 1F020000 		.4byte	.LLST13
 1698 05e3 00       		.byte	0
 1699 05e4 11       		.uleb128 0x11
 1700 05e5 04       		.byte	0x4
 1701 05e6 AF010000 		.4byte	0x1af
 1702 05ea 12       		.uleb128 0x12
 1703 05eb 09020000 		.4byte	.LASF77
 1704 05ef 01       		.byte	0x1
 1705 05f0 2304     		.2byte	0x423
 1706 05f2 00000000 		.4byte	.LFB126
 1707 05f6 34000000 		.4byte	.LFE126-.LFB126
 1708 05fa 01       		.uleb128 0x1
 1709 05fb 9C       		.byte	0x9c
 1710 05fc 2F060000 		.4byte	0x62f
 1711 0600 14       		.uleb128 0x14
 1712 0601 19010000 		.4byte	.LASF49
 1713 0605 01       		.byte	0x1
 1714 0606 2304     		.2byte	0x423
 1715 0608 A6020000 		.4byte	0x2a6
 1716 060c 51020000 		.4byte	.LLST14
 1717 0610 14       		.uleb128 0x14
 1718 0611 63040000 		.4byte	.LASF74
 1719 0615 01       		.byte	0x1
 1720 0616 2304     		.2byte	0x423
 1721 0618 A2000000 		.4byte	0xa2
 1722 061c 72020000 		.4byte	.LLST15
 1723 0620 18       		.uleb128 0x18
 1724 0621 14010000 		.4byte	.LASF76
 1725 0625 01       		.byte	0x1
 1726 0626 2504     		.2byte	0x425
 1727 0628 E4050000 		.4byte	0x5e4
 1728 062c 01       		.uleb128 0x1
 1729 062d 50       		.byte	0x50
 1730 062e 00       		.byte	0
 1731 062f 12       		.uleb128 0x12
 1732 0630 C3050000 		.4byte	.LASF78
 1733 0634 01       		.byte	0x1
 1734 0635 5204     		.2byte	0x452
 1735 0637 00000000 		.4byte	.LFB127
 1736 063b 40000000 		.4byte	.LFE127-.LFB127
 1737 063f 01       		.uleb128 0x1
 1738 0640 9C       		.byte	0x9c
 1739 0641 72060000 		.4byte	0x672
 1740 0645 13       		.uleb128 0x13
 1741 0646 19010000 		.4byte	.LASF49
ARM GAS  C:\Users\jsyoon\AppData\Local\Temp\ccRKgIox.s 			page 32


 1742 064a 01       		.byte	0x1
 1743 064b 5204     		.2byte	0x452
 1744 064d A6020000 		.4byte	0x2a6
 1745 0651 01       		.uleb128 0x1
 1746 0652 50       		.byte	0x50
 1747 0653 14       		.uleb128 0x14
 1748 0654 EF050000 		.4byte	.LASF79
 1749 0658 01       		.byte	0x1
 1750 0659 5204     		.2byte	0x452
 1751 065b A2000000 		.4byte	0xa2
 1752 065f 93020000 		.4byte	.LLST16
 1753 0663 13       		.uleb128 0x13
 1754 0664 2E010000 		.4byte	.LASF53
 1755 0668 01       		.byte	0x1
 1756 0669 5204     		.2byte	0x452
 1757 066b 02010000 		.4byte	0x102
 1758 066f 01       		.uleb128 0x1
 1759 0670 52       		.byte	0x52
 1760 0671 00       		.byte	0
 1761 0672 16       		.uleb128 0x16
 1762 0673 FE030000 		.4byte	.LASF80
 1763 0677 01       		.byte	0x1
 1764 0678 8604     		.2byte	0x486
 1765 067a E0000000 		.4byte	0xe0
 1766 067e 00000000 		.4byte	.LFB128
 1767 0682 54000000 		.4byte	.LFE128-.LFB128
 1768 0686 01       		.uleb128 0x1
 1769 0687 9C       		.byte	0x9c
 1770 0688 ED060000 		.4byte	0x6ed
 1771 068c 14       		.uleb128 0x14
 1772 068d 19010000 		.4byte	.LASF49
 1773 0691 01       		.byte	0x1
 1774 0692 8604     		.2byte	0x486
 1775 0694 A6020000 		.4byte	0x2a6
 1776 0698 D8020000 		.4byte	.LLST17
 1777 069c 14       		.uleb128 0x14
 1778 069d EF050000 		.4byte	.LASF79
 1779 06a1 01       		.byte	0x1
 1780 06a2 8604     		.2byte	0x486
 1781 06a4 A2000000 		.4byte	0xa2
 1782 06a8 04030000 		.4byte	.LLST18
 1783 06ac 15       		.uleb128 0x15
 1784 06ad 35020000 		.4byte	.LASF75
 1785 06b1 01       		.byte	0x1
 1786 06b2 8804     		.2byte	0x488
 1787 06b4 E0000000 		.4byte	0xe0
 1788 06b8 30030000 		.4byte	.LLST19
 1789 06bc 15       		.uleb128 0x15
 1790 06bd 14010000 		.4byte	.LASF76
 1791 06c1 01       		.byte	0x1
 1792 06c2 8904     		.2byte	0x489
 1793 06c4 E4050000 		.4byte	0x5e4
 1794 06c8 5B030000 		.4byte	.LLST20
 1795 06cc 15       		.uleb128 0x15
 1796 06cd 2E020000 		.4byte	.LASF69
 1797 06d1 01       		.byte	0x1
 1798 06d2 8A04     		.2byte	0x48a
ARM GAS  C:\Users\jsyoon\AppData\Local\Temp\ccRKgIox.s 			page 33


 1799 06d4 A2000000 		.4byte	0xa2
 1800 06d8 EF030000 		.4byte	.LLST21
 1801 06dc 15       		.uleb128 0x15
 1802 06dd 6E010000 		.4byte	.LASF81
 1803 06e1 01       		.byte	0x1
 1804 06e2 8A04     		.2byte	0x48a
 1805 06e4 A2000000 		.4byte	0xa2
 1806 06e8 3E040000 		.4byte	.LLST22
 1807 06ec 00       		.byte	0
 1808 06ed 12       		.uleb128 0x12
 1809 06ee 6C040000 		.4byte	.LASF82
 1810 06f2 01       		.byte	0x1
 1811 06f3 D804     		.2byte	0x4d8
 1812 06f5 00000000 		.4byte	.LFB129
 1813 06f9 34000000 		.4byte	.LFE129-.LFB129
 1814 06fd 01       		.uleb128 0x1
 1815 06fe 9C       		.byte	0x9c
 1816 06ff 32070000 		.4byte	0x732
 1817 0703 14       		.uleb128 0x14
 1818 0704 19010000 		.4byte	.LASF49
 1819 0708 01       		.byte	0x1
 1820 0709 D804     		.2byte	0x4d8
 1821 070b A6020000 		.4byte	0x2a6
 1822 070f 74040000 		.4byte	.LLST23
 1823 0713 14       		.uleb128 0x14
 1824 0714 EF050000 		.4byte	.LASF79
 1825 0718 01       		.byte	0x1
 1826 0719 D804     		.2byte	0x4d8
 1827 071b A2000000 		.4byte	0xa2
 1828 071f 95040000 		.4byte	.LLST24
 1829 0723 18       		.uleb128 0x18
 1830 0724 14010000 		.4byte	.LASF76
 1831 0728 01       		.byte	0x1
 1832 0729 DA04     		.2byte	0x4da
 1833 072b E4050000 		.4byte	0x5e4
 1834 072f 01       		.uleb128 0x1
 1835 0730 50       		.byte	0x50
 1836 0731 00       		.byte	0
 1837 0732 19       		.uleb128 0x19
 1838 0733 D0050000 		.4byte	.LASF86
 1839 0737 06       		.byte	0x6
 1840 0738 9806     		.2byte	0x698
 1841 073a B9000000 		.4byte	0xb9
 1842 073e 00       		.byte	0
 1843              		.section	.debug_abbrev,"",%progbits
 1844              	.Ldebug_abbrev0:
 1845 0000 01       		.uleb128 0x1
 1846 0001 11       		.uleb128 0x11
 1847 0002 01       		.byte	0x1
 1848 0003 25       		.uleb128 0x25
 1849 0004 0E       		.uleb128 0xe
 1850 0005 13       		.uleb128 0x13
 1851 0006 0B       		.uleb128 0xb
 1852 0007 03       		.uleb128 0x3
 1853 0008 0E       		.uleb128 0xe
 1854 0009 1B       		.uleb128 0x1b
 1855 000a 0E       		.uleb128 0xe
ARM GAS  C:\Users\jsyoon\AppData\Local\Temp\ccRKgIox.s 			page 34


 1856 000b 55       		.uleb128 0x55
 1857 000c 17       		.uleb128 0x17
 1858 000d 11       		.uleb128 0x11
 1859 000e 01       		.uleb128 0x1
 1860 000f 10       		.uleb128 0x10
 1861 0010 17       		.uleb128 0x17
 1862 0011 00       		.byte	0
 1863 0012 00       		.byte	0
 1864 0013 02       		.uleb128 0x2
 1865 0014 24       		.uleb128 0x24
 1866 0015 00       		.byte	0
 1867 0016 0B       		.uleb128 0xb
 1868 0017 0B       		.uleb128 0xb
 1869 0018 3E       		.uleb128 0x3e
 1870 0019 0B       		.uleb128 0xb
 1871 001a 03       		.uleb128 0x3
 1872 001b 0E       		.uleb128 0xe
 1873 001c 00       		.byte	0
 1874 001d 00       		.byte	0
 1875 001e 03       		.uleb128 0x3
 1876 001f 16       		.uleb128 0x16
 1877 0020 00       		.byte	0
 1878 0021 03       		.uleb128 0x3
 1879 0022 0E       		.uleb128 0xe
 1880 0023 3A       		.uleb128 0x3a
 1881 0024 0B       		.uleb128 0xb
 1882 0025 3B       		.uleb128 0x3b
 1883 0026 0B       		.uleb128 0xb
 1884 0027 49       		.uleb128 0x49
 1885 0028 13       		.uleb128 0x13
 1886 0029 00       		.byte	0
 1887 002a 00       		.byte	0
 1888 002b 04       		.uleb128 0x4
 1889 002c 24       		.uleb128 0x24
 1890 002d 00       		.byte	0
 1891 002e 0B       		.uleb128 0xb
 1892 002f 0B       		.uleb128 0xb
 1893 0030 3E       		.uleb128 0x3e
 1894 0031 0B       		.uleb128 0xb
 1895 0032 03       		.uleb128 0x3
 1896 0033 08       		.uleb128 0x8
 1897 0034 00       		.byte	0
 1898 0035 00       		.byte	0
 1899 0036 05       		.uleb128 0x5
 1900 0037 35       		.uleb128 0x35
 1901 0038 00       		.byte	0
 1902 0039 49       		.uleb128 0x49
 1903 003a 13       		.uleb128 0x13
 1904 003b 00       		.byte	0
 1905 003c 00       		.byte	0
 1906 003d 06       		.uleb128 0x6
 1907 003e 04       		.uleb128 0x4
 1908 003f 01       		.byte	0x1
 1909 0040 0B       		.uleb128 0xb
 1910 0041 0B       		.uleb128 0xb
 1911 0042 3A       		.uleb128 0x3a
 1912 0043 0B       		.uleb128 0xb
ARM GAS  C:\Users\jsyoon\AppData\Local\Temp\ccRKgIox.s 			page 35


 1913 0044 3B       		.uleb128 0x3b
 1914 0045 05       		.uleb128 0x5
 1915 0046 01       		.uleb128 0x1
 1916 0047 13       		.uleb128 0x13
 1917 0048 00       		.byte	0
 1918 0049 00       		.byte	0
 1919 004a 07       		.uleb128 0x7
 1920 004b 28       		.uleb128 0x28
 1921 004c 00       		.byte	0
 1922 004d 03       		.uleb128 0x3
 1923 004e 0E       		.uleb128 0xe
 1924 004f 1C       		.uleb128 0x1c
 1925 0050 0D       		.uleb128 0xd
 1926 0051 00       		.byte	0
 1927 0052 00       		.byte	0
 1928 0053 08       		.uleb128 0x8
 1929 0054 28       		.uleb128 0x28
 1930 0055 00       		.byte	0
 1931 0056 03       		.uleb128 0x3
 1932 0057 08       		.uleb128 0x8
 1933 0058 1C       		.uleb128 0x1c
 1934 0059 0D       		.uleb128 0xd
 1935 005a 00       		.byte	0
 1936 005b 00       		.byte	0
 1937 005c 09       		.uleb128 0x9
 1938 005d 16       		.uleb128 0x16
 1939 005e 00       		.byte	0
 1940 005f 03       		.uleb128 0x3
 1941 0060 0E       		.uleb128 0xe
 1942 0061 3A       		.uleb128 0x3a
 1943 0062 0B       		.uleb128 0xb
 1944 0063 3B       		.uleb128 0x3b
 1945 0064 05       		.uleb128 0x5
 1946 0065 49       		.uleb128 0x49
 1947 0066 13       		.uleb128 0x13
 1948 0067 00       		.byte	0
 1949 0068 00       		.byte	0
 1950 0069 0A       		.uleb128 0xa
 1951 006a 13       		.uleb128 0x13
 1952 006b 01       		.byte	0x1
 1953 006c 0B       		.uleb128 0xb
 1954 006d 0B       		.uleb128 0xb
 1955 006e 3A       		.uleb128 0x3a
 1956 006f 0B       		.uleb128 0xb
 1957 0070 3B       		.uleb128 0x3b
 1958 0071 05       		.uleb128 0x5
 1959 0072 01       		.uleb128 0x1
 1960 0073 13       		.uleb128 0x13
 1961 0074 00       		.byte	0
 1962 0075 00       		.byte	0
 1963 0076 0B       		.uleb128 0xb
 1964 0077 0D       		.uleb128 0xd
 1965 0078 00       		.byte	0
 1966 0079 03       		.uleb128 0x3
 1967 007a 08       		.uleb128 0x8
 1968 007b 3A       		.uleb128 0x3a
 1969 007c 0B       		.uleb128 0xb
ARM GAS  C:\Users\jsyoon\AppData\Local\Temp\ccRKgIox.s 			page 36


 1970 007d 3B       		.uleb128 0x3b
 1971 007e 05       		.uleb128 0x5
 1972 007f 49       		.uleb128 0x49
 1973 0080 13       		.uleb128 0x13
 1974 0081 38       		.uleb128 0x38
 1975 0082 0B       		.uleb128 0xb
 1976 0083 00       		.byte	0
 1977 0084 00       		.byte	0
 1978 0085 0C       		.uleb128 0xc
 1979 0086 0D       		.uleb128 0xd
 1980 0087 00       		.byte	0
 1981 0088 03       		.uleb128 0x3
 1982 0089 0E       		.uleb128 0xe
 1983 008a 3A       		.uleb128 0x3a
 1984 008b 0B       		.uleb128 0xb
 1985 008c 3B       		.uleb128 0x3b
 1986 008d 05       		.uleb128 0x5
 1987 008e 49       		.uleb128 0x49
 1988 008f 13       		.uleb128 0x13
 1989 0090 38       		.uleb128 0x38
 1990 0091 0B       		.uleb128 0xb
 1991 0092 00       		.byte	0
 1992 0093 00       		.byte	0
 1993 0094 0D       		.uleb128 0xd
 1994 0095 13       		.uleb128 0x13
 1995 0096 01       		.byte	0x1
 1996 0097 0B       		.uleb128 0xb
 1997 0098 0B       		.uleb128 0xb
 1998 0099 3A       		.uleb128 0x3a
 1999 009a 0B       		.uleb128 0xb
 2000 009b 3B       		.uleb128 0x3b
 2001 009c 0B       		.uleb128 0xb
 2002 009d 01       		.uleb128 0x1
 2003 009e 13       		.uleb128 0x13
 2004 009f 00       		.byte	0
 2005 00a0 00       		.byte	0
 2006 00a1 0E       		.uleb128 0xe
 2007 00a2 0D       		.uleb128 0xd
 2008 00a3 00       		.byte	0
 2009 00a4 03       		.uleb128 0x3
 2010 00a5 0E       		.uleb128 0xe
 2011 00a6 3A       		.uleb128 0x3a
 2012 00a7 0B       		.uleb128 0xb
 2013 00a8 3B       		.uleb128 0x3b
 2014 00a9 0B       		.uleb128 0xb
 2015 00aa 49       		.uleb128 0x49
 2016 00ab 13       		.uleb128 0x13
 2017 00ac 38       		.uleb128 0x38
 2018 00ad 0B       		.uleb128 0xb
 2019 00ae 00       		.byte	0
 2020 00af 00       		.byte	0
 2021 00b0 0F       		.uleb128 0xf
 2022 00b1 2E       		.uleb128 0x2e
 2023 00b2 01       		.byte	0x1
 2024 00b3 3F       		.uleb128 0x3f
 2025 00b4 19       		.uleb128 0x19
 2026 00b5 03       		.uleb128 0x3
ARM GAS  C:\Users\jsyoon\AppData\Local\Temp\ccRKgIox.s 			page 37


 2027 00b6 0E       		.uleb128 0xe
 2028 00b7 3A       		.uleb128 0x3a
 2029 00b8 0B       		.uleb128 0xb
 2030 00b9 3B       		.uleb128 0x3b
 2031 00ba 0B       		.uleb128 0xb
 2032 00bb 27       		.uleb128 0x27
 2033 00bc 19       		.uleb128 0x19
 2034 00bd 11       		.uleb128 0x11
 2035 00be 01       		.uleb128 0x1
 2036 00bf 12       		.uleb128 0x12
 2037 00c0 06       		.uleb128 0x6
 2038 00c1 40       		.uleb128 0x40
 2039 00c2 18       		.uleb128 0x18
 2040 00c3 9742     		.uleb128 0x2117
 2041 00c5 19       		.uleb128 0x19
 2042 00c6 01       		.uleb128 0x1
 2043 00c7 13       		.uleb128 0x13
 2044 00c8 00       		.byte	0
 2045 00c9 00       		.byte	0
 2046 00ca 10       		.uleb128 0x10
 2047 00cb 05       		.uleb128 0x5
 2048 00cc 00       		.byte	0
 2049 00cd 03       		.uleb128 0x3
 2050 00ce 0E       		.uleb128 0xe
 2051 00cf 3A       		.uleb128 0x3a
 2052 00d0 0B       		.uleb128 0xb
 2053 00d1 3B       		.uleb128 0x3b
 2054 00d2 0B       		.uleb128 0xb
 2055 00d3 49       		.uleb128 0x49
 2056 00d4 13       		.uleb128 0x13
 2057 00d5 02       		.uleb128 0x2
 2058 00d6 18       		.uleb128 0x18
 2059 00d7 00       		.byte	0
 2060 00d8 00       		.byte	0
 2061 00d9 11       		.uleb128 0x11
 2062 00da 0F       		.uleb128 0xf
 2063 00db 00       		.byte	0
 2064 00dc 0B       		.uleb128 0xb
 2065 00dd 0B       		.uleb128 0xb
 2066 00de 49       		.uleb128 0x49
 2067 00df 13       		.uleb128 0x13
 2068 00e0 00       		.byte	0
 2069 00e1 00       		.byte	0
 2070 00e2 12       		.uleb128 0x12
 2071 00e3 2E       		.uleb128 0x2e
 2072 00e4 01       		.byte	0x1
 2073 00e5 3F       		.uleb128 0x3f
 2074 00e6 19       		.uleb128 0x19
 2075 00e7 03       		.uleb128 0x3
 2076 00e8 0E       		.uleb128 0xe
 2077 00e9 3A       		.uleb128 0x3a
 2078 00ea 0B       		.uleb128 0xb
 2079 00eb 3B       		.uleb128 0x3b
 2080 00ec 05       		.uleb128 0x5
 2081 00ed 27       		.uleb128 0x27
 2082 00ee 19       		.uleb128 0x19
 2083 00ef 11       		.uleb128 0x11
ARM GAS  C:\Users\jsyoon\AppData\Local\Temp\ccRKgIox.s 			page 38


 2084 00f0 01       		.uleb128 0x1
 2085 00f1 12       		.uleb128 0x12
 2086 00f2 06       		.uleb128 0x6
 2087 00f3 40       		.uleb128 0x40
 2088 00f4 18       		.uleb128 0x18
 2089 00f5 9742     		.uleb128 0x2117
 2090 00f7 19       		.uleb128 0x19
 2091 00f8 01       		.uleb128 0x1
 2092 00f9 13       		.uleb128 0x13
 2093 00fa 00       		.byte	0
 2094 00fb 00       		.byte	0
 2095 00fc 13       		.uleb128 0x13
 2096 00fd 05       		.uleb128 0x5
 2097 00fe 00       		.byte	0
 2098 00ff 03       		.uleb128 0x3
 2099 0100 0E       		.uleb128 0xe
 2100 0101 3A       		.uleb128 0x3a
 2101 0102 0B       		.uleb128 0xb
 2102 0103 3B       		.uleb128 0x3b
 2103 0104 05       		.uleb128 0x5
 2104 0105 49       		.uleb128 0x49
 2105 0106 13       		.uleb128 0x13
 2106 0107 02       		.uleb128 0x2
 2107 0108 18       		.uleb128 0x18
 2108 0109 00       		.byte	0
 2109 010a 00       		.byte	0
 2110 010b 14       		.uleb128 0x14
 2111 010c 05       		.uleb128 0x5
 2112 010d 00       		.byte	0
 2113 010e 03       		.uleb128 0x3
 2114 010f 0E       		.uleb128 0xe
 2115 0110 3A       		.uleb128 0x3a
 2116 0111 0B       		.uleb128 0xb
 2117 0112 3B       		.uleb128 0x3b
 2118 0113 05       		.uleb128 0x5
 2119 0114 49       		.uleb128 0x49
 2120 0115 13       		.uleb128 0x13
 2121 0116 02       		.uleb128 0x2
 2122 0117 17       		.uleb128 0x17
 2123 0118 00       		.byte	0
 2124 0119 00       		.byte	0
 2125 011a 15       		.uleb128 0x15
 2126 011b 34       		.uleb128 0x34
 2127 011c 00       		.byte	0
 2128 011d 03       		.uleb128 0x3
 2129 011e 0E       		.uleb128 0xe
 2130 011f 3A       		.uleb128 0x3a
 2131 0120 0B       		.uleb128 0xb
 2132 0121 3B       		.uleb128 0x3b
 2133 0122 05       		.uleb128 0x5
 2134 0123 49       		.uleb128 0x49
 2135 0124 13       		.uleb128 0x13
 2136 0125 02       		.uleb128 0x2
 2137 0126 17       		.uleb128 0x17
 2138 0127 00       		.byte	0
 2139 0128 00       		.byte	0
 2140 0129 16       		.uleb128 0x16
ARM GAS  C:\Users\jsyoon\AppData\Local\Temp\ccRKgIox.s 			page 39


 2141 012a 2E       		.uleb128 0x2e
 2142 012b 01       		.byte	0x1
 2143 012c 3F       		.uleb128 0x3f
 2144 012d 19       		.uleb128 0x19
 2145 012e 03       		.uleb128 0x3
 2146 012f 0E       		.uleb128 0xe
 2147 0130 3A       		.uleb128 0x3a
 2148 0131 0B       		.uleb128 0xb
 2149 0132 3B       		.uleb128 0x3b
 2150 0133 05       		.uleb128 0x5
 2151 0134 27       		.uleb128 0x27
 2152 0135 19       		.uleb128 0x19
 2153 0136 49       		.uleb128 0x49
 2154 0137 13       		.uleb128 0x13
 2155 0138 11       		.uleb128 0x11
 2156 0139 01       		.uleb128 0x1
 2157 013a 12       		.uleb128 0x12
 2158 013b 06       		.uleb128 0x6
 2159 013c 40       		.uleb128 0x40
 2160 013d 18       		.uleb128 0x18
 2161 013e 9742     		.uleb128 0x2117
 2162 0140 19       		.uleb128 0x19
 2163 0141 01       		.uleb128 0x1
 2164 0142 13       		.uleb128 0x13
 2165 0143 00       		.byte	0
 2166 0144 00       		.byte	0
 2167 0145 17       		.uleb128 0x17
 2168 0146 34       		.uleb128 0x34
 2169 0147 00       		.byte	0
 2170 0148 03       		.uleb128 0x3
 2171 0149 08       		.uleb128 0x8
 2172 014a 3A       		.uleb128 0x3a
 2173 014b 0B       		.uleb128 0xb
 2174 014c 3B       		.uleb128 0x3b
 2175 014d 05       		.uleb128 0x5
 2176 014e 49       		.uleb128 0x49
 2177 014f 13       		.uleb128 0x13
 2178 0150 02       		.uleb128 0x2
 2179 0151 17       		.uleb128 0x17
 2180 0152 00       		.byte	0
 2181 0153 00       		.byte	0
 2182 0154 18       		.uleb128 0x18
 2183 0155 34       		.uleb128 0x34
 2184 0156 00       		.byte	0
 2185 0157 03       		.uleb128 0x3
 2186 0158 0E       		.uleb128 0xe
 2187 0159 3A       		.uleb128 0x3a
 2188 015a 0B       		.uleb128 0xb
 2189 015b 3B       		.uleb128 0x3b
 2190 015c 05       		.uleb128 0x5
 2191 015d 49       		.uleb128 0x49
 2192 015e 13       		.uleb128 0x13
 2193 015f 02       		.uleb128 0x2
 2194 0160 18       		.uleb128 0x18
 2195 0161 00       		.byte	0
 2196 0162 00       		.byte	0
 2197 0163 19       		.uleb128 0x19
ARM GAS  C:\Users\jsyoon\AppData\Local\Temp\ccRKgIox.s 			page 40


 2198 0164 34       		.uleb128 0x34
 2199 0165 00       		.byte	0
 2200 0166 03       		.uleb128 0x3
 2201 0167 0E       		.uleb128 0xe
 2202 0168 3A       		.uleb128 0x3a
 2203 0169 0B       		.uleb128 0xb
 2204 016a 3B       		.uleb128 0x3b
 2205 016b 05       		.uleb128 0x5
 2206 016c 49       		.uleb128 0x49
 2207 016d 13       		.uleb128 0x13
 2208 016e 3F       		.uleb128 0x3f
 2209 016f 19       		.uleb128 0x19
 2210 0170 3C       		.uleb128 0x3c
 2211 0171 19       		.uleb128 0x19
 2212 0172 00       		.byte	0
 2213 0173 00       		.byte	0
 2214 0174 00       		.byte	0
 2215              		.section	.debug_loc,"",%progbits
 2216              	.Ldebug_loc0:
 2217              	.LLST0:
 2218 0000 00000000 		.4byte	.LVL1
 2219 0004 50000000 		.4byte	.LVL5
 2220 0008 0100     		.2byte	0x1
 2221 000a 51       		.byte	0x51
 2222 000b 50000000 		.4byte	.LVL5
 2223 000f 70000000 		.4byte	.LFE112
 2224 0013 0400     		.2byte	0x4
 2225 0015 F3       		.byte	0xf3
 2226 0016 01       		.uleb128 0x1
 2227 0017 51       		.byte	0x51
 2228 0018 9F       		.byte	0x9f
 2229 0019 00000000 		.4byte	0
 2230 001d 00000000 		.4byte	0
 2231              	.LLST1:
 2232 0021 00000000 		.4byte	.LVL1
 2233 0025 08000000 		.4byte	.LVL2
 2234 0029 0200     		.2byte	0x2
 2235 002b 30       		.byte	0x30
 2236 002c 9F       		.byte	0x9f
 2237 002d 08000000 		.4byte	.LVL2
 2238 0031 48000000 		.4byte	.LVL3
 2239 0035 0100     		.2byte	0x1
 2240 0037 5C       		.byte	0x5c
 2241 0038 48000000 		.4byte	.LVL3
 2242 003c 54000000 		.4byte	.LVL6
 2243 0040 0100     		.2byte	0x1
 2244 0042 56       		.byte	0x56
 2245 0043 54000000 		.4byte	.LVL6
 2246 0047 5C000000 		.4byte	.LVL8
 2247 004b 0100     		.2byte	0x1
 2248 004d 52       		.byte	0x52
 2249 004e 5C000000 		.4byte	.LVL8
 2250 0052 70000000 		.4byte	.LFE112
 2251 0056 0100     		.2byte	0x1
 2252 0058 53       		.byte	0x53
 2253 0059 00000000 		.4byte	0
 2254 005d 00000000 		.4byte	0
ARM GAS  C:\Users\jsyoon\AppData\Local\Temp\ccRKgIox.s 			page 41


 2255              	.LLST2:
 2256 0061 00000000 		.4byte	.LVL14
 2257 0065 02000000 		.4byte	.LVL15
 2258 0069 0100     		.2byte	0x1
 2259 006b 50       		.byte	0x50
 2260 006c 02000000 		.4byte	.LVL15
 2261 0070 06000000 		.4byte	.LFE118
 2262 0074 0400     		.2byte	0x4
 2263 0076 F3       		.byte	0xf3
 2264 0077 01       		.uleb128 0x1
 2265 0078 50       		.byte	0x50
 2266 0079 9F       		.byte	0x9f
 2267 007a 00000000 		.4byte	0
 2268 007e 00000000 		.4byte	0
 2269              	.LLST3:
 2270 0082 00000000 		.4byte	.LVL19
 2271 0086 02000000 		.4byte	.LVL20
 2272 008a 0100     		.2byte	0x1
 2273 008c 50       		.byte	0x50
 2274 008d 02000000 		.4byte	.LVL20
 2275 0091 08000000 		.4byte	.LFE122
 2276 0095 0400     		.2byte	0x4
 2277 0097 F3       		.byte	0xf3
 2278 0098 01       		.uleb128 0x1
 2279 0099 50       		.byte	0x50
 2280 009a 9F       		.byte	0x9f
 2281 009b 00000000 		.4byte	0
 2282 009f 00000000 		.4byte	0
 2283              	.LLST4:
 2284 00a3 00000000 		.4byte	.LVL19
 2285 00a7 02000000 		.4byte	.LVL20
 2286 00ab 0200     		.2byte	0x2
 2287 00ad 30       		.byte	0x30
 2288 00ae 9F       		.byte	0x9f
 2289 00af 02000000 		.4byte	.LVL20
 2290 00b3 06000000 		.4byte	.LVL21
 2291 00b7 0C00     		.2byte	0xc
 2292 00b9 70       		.byte	0x70
 2293 00ba 00       		.sleb128 0
 2294 00bb 40       		.byte	0x40
 2295 00bc 3F       		.byte	0x3f
 2296 00bd 24       		.byte	0x24
 2297 00be 1A       		.byte	0x1a
 2298 00bf 30       		.byte	0x30
 2299 00c0 2E       		.byte	0x2e
 2300 00c1 08       		.byte	0x8
 2301 00c2 FF       		.byte	0xff
 2302 00c3 1A       		.byte	0x1a
 2303 00c4 9F       		.byte	0x9f
 2304 00c5 00000000 		.4byte	0
 2305 00c9 00000000 		.4byte	0
 2306              	.LLST5:
 2307 00cd 00000000 		.4byte	.LVL22
 2308 00d1 02000000 		.4byte	.LVL23
 2309 00d5 0100     		.2byte	0x1
 2310 00d7 50       		.byte	0x50
 2311 00d8 02000000 		.4byte	.LVL23
ARM GAS  C:\Users\jsyoon\AppData\Local\Temp\ccRKgIox.s 			page 42


 2312 00dc 08000000 		.4byte	.LFE123
 2313 00e0 0400     		.2byte	0x4
 2314 00e2 F3       		.byte	0xf3
 2315 00e3 01       		.uleb128 0x1
 2316 00e4 50       		.byte	0x50
 2317 00e5 9F       		.byte	0x9f
 2318 00e6 00000000 		.4byte	0
 2319 00ea 00000000 		.4byte	0
 2320              	.LLST6:
 2321 00ee 00000000 		.4byte	.LVL22
 2322 00f2 02000000 		.4byte	.LVL23
 2323 00f6 0200     		.2byte	0x2
 2324 00f8 30       		.byte	0x30
 2325 00f9 9F       		.byte	0x9f
 2326 00fa 02000000 		.4byte	.LVL23
 2327 00fe 06000000 		.4byte	.LVL24
 2328 0102 0500     		.2byte	0x5
 2329 0104 70       		.byte	0x70
 2330 0105 00       		.sleb128 0
 2331 0106 31       		.byte	0x31
 2332 0107 1A       		.byte	0x1a
 2333 0108 9F       		.byte	0x9f
 2334 0109 00000000 		.4byte	0
 2335 010d 00000000 		.4byte	0
 2336              	.LLST7:
 2337 0111 00000000 		.4byte	.LVL25
 2338 0115 02000000 		.4byte	.LVL26
 2339 0119 0100     		.2byte	0x1
 2340 011b 50       		.byte	0x50
 2341 011c 02000000 		.4byte	.LVL26
 2342 0120 08000000 		.4byte	.LFE124
 2343 0124 0400     		.2byte	0x4
 2344 0126 F3       		.byte	0xf3
 2345 0127 01       		.uleb128 0x1
 2346 0128 50       		.byte	0x50
 2347 0129 9F       		.byte	0x9f
 2348 012a 00000000 		.4byte	0
 2349 012e 00000000 		.4byte	0
 2350              	.LLST8:
 2351 0132 00000000 		.4byte	.LVL25
 2352 0136 02000000 		.4byte	.LVL26
 2353 013a 0200     		.2byte	0x2
 2354 013c 30       		.byte	0x30
 2355 013d 9F       		.byte	0x9f
 2356 013e 02000000 		.4byte	.LVL26
 2357 0142 06000000 		.4byte	.LVL27
 2358 0146 0600     		.2byte	0x6
 2359 0148 70       		.byte	0x70
 2360 0149 00       		.sleb128 0
 2361 014a 08       		.byte	0x8
 2362 014b 38       		.byte	0x38
 2363 014c 1A       		.byte	0x1a
 2364 014d 9F       		.byte	0x9f
 2365 014e 06000000 		.4byte	.LVL27
 2366 0152 08000000 		.4byte	.LFE124
 2367 0156 0100     		.2byte	0x1
 2368 0158 50       		.byte	0x50
ARM GAS  C:\Users\jsyoon\AppData\Local\Temp\ccRKgIox.s 			page 43


 2369 0159 00000000 		.4byte	0
 2370 015d 00000000 		.4byte	0
 2371              	.LLST9:
 2372 0161 00000000 		.4byte	.LVL28
 2373 0165 10000000 		.4byte	.LVL29
 2374 0169 0100     		.2byte	0x1
 2375 016b 50       		.byte	0x50
 2376 016c 10000000 		.4byte	.LVL29
 2377 0170 3C000000 		.4byte	.LFE125
 2378 0174 0400     		.2byte	0x4
 2379 0176 F3       		.byte	0xf3
 2380 0177 01       		.uleb128 0x1
 2381 0178 50       		.byte	0x50
 2382 0179 9F       		.byte	0x9f
 2383 017a 00000000 		.4byte	0
 2384 017e 00000000 		.4byte	0
 2385              	.LLST10:
 2386 0182 00000000 		.4byte	.LVL28
 2387 0186 20000000 		.4byte	.LVL32
 2388 018a 0100     		.2byte	0x1
 2389 018c 51       		.byte	0x51
 2390 018d 20000000 		.4byte	.LVL32
 2391 0191 3C000000 		.4byte	.LFE125
 2392 0195 0400     		.2byte	0x4
 2393 0197 F3       		.byte	0xf3
 2394 0198 01       		.uleb128 0x1
 2395 0199 51       		.byte	0x51
 2396 019a 9F       		.byte	0x9f
 2397 019b 00000000 		.4byte	0
 2398 019f 00000000 		.4byte	0
 2399              	.LLST11:
 2400 01a3 00000000 		.4byte	.LVL28
 2401 01a7 18000000 		.4byte	.LVL31
 2402 01ab 0200     		.2byte	0x2
 2403 01ad 30       		.byte	0x30
 2404 01ae 9F       		.byte	0x9f
 2405 01af 18000000 		.4byte	.LVL31
 2406 01b3 20000000 		.4byte	.LVL32
 2407 01b7 0E00     		.2byte	0xe
 2408 01b9 71       		.byte	0x71
 2409 01ba 00       		.sleb128 0
 2410 01bb 73       		.byte	0x73
 2411 01bc 00       		.sleb128 0
 2412 01bd 1A       		.byte	0x1a
 2413 01be 0C       		.byte	0xc
 2414 01bf 7D0F7D0F 		.4byte	0xf7d0f7d
 2415 01c3 1A       		.byte	0x1a
 2416 01c4 30       		.byte	0x30
 2417 01c5 2E       		.byte	0x2e
 2418 01c6 9F       		.byte	0x9f
 2419 01c7 20000000 		.4byte	.LVL32
 2420 01cb 3C000000 		.4byte	.LFE125
 2421 01cf 0F00     		.2byte	0xf
 2422 01d1 F3       		.byte	0xf3
 2423 01d2 01       		.uleb128 0x1
 2424 01d3 51       		.byte	0x51
 2425 01d4 73       		.byte	0x73
ARM GAS  C:\Users\jsyoon\AppData\Local\Temp\ccRKgIox.s 			page 44


 2426 01d5 00       		.sleb128 0
 2427 01d6 1A       		.byte	0x1a
 2428 01d7 0C       		.byte	0xc
 2429 01d8 7D0F7D0F 		.4byte	0xf7d0f7d
 2430 01dc 1A       		.byte	0x1a
 2431 01dd 30       		.byte	0x30
 2432 01de 2E       		.byte	0x2e
 2433 01df 9F       		.byte	0x9f
 2434 01e0 00000000 		.4byte	0
 2435 01e4 00000000 		.4byte	0
 2436              	.LLST12:
 2437 01e8 10000000 		.4byte	.LVL29
 2438 01ec 2C000000 		.4byte	.LVL33
 2439 01f0 0100     		.2byte	0x1
 2440 01f2 50       		.byte	0x50
 2441 01f3 2C000000 		.4byte	.LVL33
 2442 01f7 3C000000 		.4byte	.LFE125
 2443 01fb 1A00     		.2byte	0x1a
 2444 01fd 72       		.byte	0x72
 2445 01fe 00       		.sleb128 0
 2446 01ff 0C       		.byte	0xc
 2447 0200 00600240 		.4byte	0x40026000
 2448 0204 F3       		.byte	0xf3
 2449 0205 01       		.uleb128 0x1
 2450 0206 50       		.byte	0x50
 2451 0207 40       		.byte	0x40
 2452 0208 4B       		.byte	0x4b
 2453 0209 24       		.byte	0x24
 2454 020a 22       		.byte	0x22
 2455 020b 0C       		.byte	0xc
 2456 020c 0F6402C0 		.4byte	0xc002640f
 2457 0210 2B       		.byte	0x2b
 2458 0211 28       		.byte	0x28
 2459 0212 0100     		.2byte	0x1
 2460 0214 16       		.byte	0x16
 2461 0215 13       		.byte	0x13
 2462 0216 9F       		.byte	0x9f
 2463 0217 00000000 		.4byte	0
 2464 021b 00000000 		.4byte	0
 2465              	.LLST13:
 2466 021f 00000000 		.4byte	.LVL28
 2467 0223 16000000 		.4byte	.LVL30
 2468 0227 0200     		.2byte	0x2
 2469 0229 30       		.byte	0x30
 2470 022a 9F       		.byte	0x9f
 2471 022b 16000000 		.4byte	.LVL30
 2472 022f 18000000 		.4byte	.LVL31
 2473 0233 0100     		.2byte	0x1
 2474 0235 53       		.byte	0x53
 2475 0236 18000000 		.4byte	.LVL31
 2476 023a 3C000000 		.4byte	.LFE125
 2477 023e 0900     		.2byte	0x9
 2478 0240 73       		.byte	0x73
 2479 0241 00       		.sleb128 0
 2480 0242 0C       		.byte	0xc
 2481 0243 7D0F7D0F 		.4byte	0xf7d0f7d
 2482 0247 1A       		.byte	0x1a
ARM GAS  C:\Users\jsyoon\AppData\Local\Temp\ccRKgIox.s 			page 45


 2483 0248 9F       		.byte	0x9f
 2484 0249 00000000 		.4byte	0
 2485 024d 00000000 		.4byte	0
 2486              	.LLST14:
 2487 0251 00000000 		.4byte	.LVL34
 2488 0255 10000000 		.4byte	.LVL35
 2489 0259 0100     		.2byte	0x1
 2490 025b 50       		.byte	0x50
 2491 025c 10000000 		.4byte	.LVL35
 2492 0260 34000000 		.4byte	.LFE126
 2493 0264 0400     		.2byte	0x4
 2494 0266 F3       		.byte	0xf3
 2495 0267 01       		.uleb128 0x1
 2496 0268 50       		.byte	0x50
 2497 0269 9F       		.byte	0x9f
 2498 026a 00000000 		.4byte	0
 2499 026e 00000000 		.4byte	0
 2500              	.LLST15:
 2501 0272 00000000 		.4byte	.LVL34
 2502 0276 18000000 		.4byte	.LVL36
 2503 027a 0100     		.2byte	0x1
 2504 027c 51       		.byte	0x51
 2505 027d 18000000 		.4byte	.LVL36
 2506 0281 34000000 		.4byte	.LFE126
 2507 0285 0400     		.2byte	0x4
 2508 0287 F3       		.byte	0xf3
 2509 0288 01       		.uleb128 0x1
 2510 0289 51       		.byte	0x51
 2511 028a 9F       		.byte	0x9f
 2512 028b 00000000 		.4byte	0
 2513 028f 00000000 		.4byte	0
 2514              	.LLST16:
 2515 0293 00000000 		.4byte	.LVL37
 2516 0297 18000000 		.4byte	.LVL38
 2517 029b 0100     		.2byte	0x1
 2518 029d 51       		.byte	0x51
 2519 029e 18000000 		.4byte	.LVL38
 2520 02a2 1E000000 		.4byte	.LVL39
 2521 02a6 0400     		.2byte	0x4
 2522 02a8 F3       		.byte	0xf3
 2523 02a9 01       		.uleb128 0x1
 2524 02aa 51       		.byte	0x51
 2525 02ab 9F       		.byte	0x9f
 2526 02ac 1E000000 		.4byte	.LVL39
 2527 02b0 2C000000 		.4byte	.LVL40
 2528 02b4 0100     		.2byte	0x1
 2529 02b6 51       		.byte	0x51
 2530 02b7 2C000000 		.4byte	.LVL40
 2531 02bb 34000000 		.4byte	.LVL41
 2532 02bf 0400     		.2byte	0x4
 2533 02c1 F3       		.byte	0xf3
 2534 02c2 01       		.uleb128 0x1
 2535 02c3 51       		.byte	0x51
 2536 02c4 9F       		.byte	0x9f
 2537 02c5 34000000 		.4byte	.LVL41
 2538 02c9 40000000 		.4byte	.LFE127
 2539 02cd 0100     		.2byte	0x1
ARM GAS  C:\Users\jsyoon\AppData\Local\Temp\ccRKgIox.s 			page 46


 2540 02cf 51       		.byte	0x51
 2541 02d0 00000000 		.4byte	0
 2542 02d4 00000000 		.4byte	0
 2543              	.LLST17:
 2544 02d8 00000000 		.4byte	.LVL42
 2545 02dc 32000000 		.4byte	.LVL49
 2546 02e0 0100     		.2byte	0x1
 2547 02e2 50       		.byte	0x50
 2548 02e3 32000000 		.4byte	.LVL49
 2549 02e7 3E000000 		.4byte	.LVL52
 2550 02eb 0400     		.2byte	0x4
 2551 02ed F3       		.byte	0xf3
 2552 02ee 01       		.uleb128 0x1
 2553 02ef 50       		.byte	0x50
 2554 02f0 9F       		.byte	0x9f
 2555 02f1 3E000000 		.4byte	.LVL52
 2556 02f5 54000000 		.4byte	.LFE128
 2557 02f9 0100     		.2byte	0x1
 2558 02fb 50       		.byte	0x50
 2559 02fc 00000000 		.4byte	0
 2560 0300 00000000 		.4byte	0
 2561              	.LLST18:
 2562 0304 00000000 		.4byte	.LVL42
 2563 0308 24000000 		.4byte	.LVL46
 2564 030c 0100     		.2byte	0x1
 2565 030e 51       		.byte	0x51
 2566 030f 24000000 		.4byte	.LVL46
 2567 0313 3E000000 		.4byte	.LVL52
 2568 0317 0400     		.2byte	0x4
 2569 0319 F3       		.byte	0xf3
 2570 031a 01       		.uleb128 0x1
 2571 031b 51       		.byte	0x51
 2572 031c 9F       		.byte	0x9f
 2573 031d 3E000000 		.4byte	.LVL52
 2574 0321 54000000 		.4byte	.LFE128
 2575 0325 0100     		.2byte	0x1
 2576 0327 51       		.byte	0x51
 2577 0328 00000000 		.4byte	0
 2578 032c 00000000 		.4byte	0
 2579              	.LLST19:
 2580 0330 00000000 		.4byte	.LVL42
 2581 0334 3A000000 		.4byte	.LVL50
 2582 0338 0200     		.2byte	0x2
 2583 033a 30       		.byte	0x30
 2584 033b 9F       		.byte	0x9f
 2585 033c 3A000000 		.4byte	.LVL50
 2586 0340 3E000000 		.4byte	.LVL52
 2587 0344 0100     		.2byte	0x1
 2588 0346 50       		.byte	0x50
 2589 0347 3E000000 		.4byte	.LVL52
 2590 034b 54000000 		.4byte	.LFE128
 2591 034f 0200     		.2byte	0x2
 2592 0351 30       		.byte	0x30
 2593 0352 9F       		.byte	0x9f
 2594 0353 00000000 		.4byte	0
 2595 0357 00000000 		.4byte	0
 2596              	.LLST20:
ARM GAS  C:\Users\jsyoon\AppData\Local\Temp\ccRKgIox.s 			page 47


 2597 035b 16000000 		.4byte	.LVL43
 2598 035f 28000000 		.4byte	.LVL47
 2599 0363 0100     		.2byte	0x1
 2600 0365 52       		.byte	0x52
 2601 0366 28000000 		.4byte	.LVL47
 2602 036a 32000000 		.4byte	.LVL49
 2603 036e 1D00     		.2byte	0x1d
 2604 0370 0C       		.byte	0xc
 2605 0371 00640240 		.4byte	0x40026400
 2606 0375 0C       		.byte	0xc
 2607 0376 00600240 		.4byte	0x40026000
 2608 037a 70       		.byte	0x70
 2609 037b 00       		.sleb128 0
 2610 037c 40       		.byte	0x40
 2611 037d 4B       		.byte	0x4b
 2612 037e 24       		.byte	0x24
 2613 037f 22       		.byte	0x22
 2614 0380 75       		.byte	0x75
 2615 0381 00       		.sleb128 0
 2616 0382 40       		.byte	0x40
 2617 0383 4B       		.byte	0x4b
 2618 0384 24       		.byte	0x24
 2619 0385 22       		.byte	0x22
 2620 0386 2B       		.byte	0x2b
 2621 0387 28       		.byte	0x28
 2622 0388 0100     		.2byte	0x1
 2623 038a 16       		.byte	0x16
 2624 038b 13       		.byte	0x13
 2625 038c 9F       		.byte	0x9f
 2626 038d 32000000 		.4byte	.LVL49
 2627 0391 3C000000 		.4byte	.LVL51
 2628 0395 1E00     		.2byte	0x1e
 2629 0397 0C       		.byte	0xc
 2630 0398 00640240 		.4byte	0x40026400
 2631 039c 0C       		.byte	0xc
 2632 039d 00600240 		.4byte	0x40026000
 2633 03a1 F3       		.byte	0xf3
 2634 03a2 01       		.uleb128 0x1
 2635 03a3 50       		.byte	0x50
 2636 03a4 40       		.byte	0x40
 2637 03a5 4B       		.byte	0x4b
 2638 03a6 24       		.byte	0x24
 2639 03a7 22       		.byte	0x22
 2640 03a8 75       		.byte	0x75
 2641 03a9 00       		.sleb128 0
 2642 03aa 40       		.byte	0x40
 2643 03ab 4B       		.byte	0x4b
 2644 03ac 24       		.byte	0x24
 2645 03ad 22       		.byte	0x22
 2646 03ae 2B       		.byte	0x2b
 2647 03af 28       		.byte	0x28
 2648 03b0 0100     		.2byte	0x1
 2649 03b2 16       		.byte	0x16
 2650 03b3 13       		.byte	0x13
 2651 03b4 9F       		.byte	0x9f
 2652 03b5 3C000000 		.4byte	.LVL51
 2653 03b9 3E000000 		.4byte	.LVL52
ARM GAS  C:\Users\jsyoon\AppData\Local\Temp\ccRKgIox.s 			page 48


 2654 03bd 1D00     		.2byte	0x1d
 2655 03bf 0C       		.byte	0xc
 2656 03c0 00640240 		.4byte	0x40026400
 2657 03c4 0C       		.byte	0xc
 2658 03c5 00600240 		.4byte	0x40026000
 2659 03c9 F3       		.byte	0xf3
 2660 03ca 01       		.uleb128 0x1
 2661 03cb 50       		.byte	0x50
 2662 03cc 40       		.byte	0x40
 2663 03cd 4B       		.byte	0x4b
 2664 03ce 24       		.byte	0x24
 2665 03cf 22       		.byte	0x22
 2666 03d0 0C       		.byte	0xc
 2667 03d1 0F6402C0 		.4byte	0xc002640f
 2668 03d5 2B       		.byte	0x2b
 2669 03d6 28       		.byte	0x28
 2670 03d7 0100     		.2byte	0x1
 2671 03d9 16       		.byte	0x16
 2672 03da 13       		.byte	0x13
 2673 03db 9F       		.byte	0x9f
 2674 03dc 3E000000 		.4byte	.LVL52
 2675 03e0 54000000 		.4byte	.LFE128
 2676 03e4 0100     		.2byte	0x1
 2677 03e6 52       		.byte	0x52
 2678 03e7 00000000 		.4byte	0
 2679 03eb 00000000 		.4byte	0
 2680              	.LLST21:
 2681 03ef 00000000 		.4byte	.LVL42
 2682 03f3 18000000 		.4byte	.LVL44
 2683 03f7 0200     		.2byte	0x2
 2684 03f9 30       		.byte	0x30
 2685 03fa 9F       		.byte	0x9f
 2686 03fb 18000000 		.4byte	.LVL44
 2687 03ff 22000000 		.4byte	.LVL45
 2688 0403 0700     		.2byte	0x7
 2689 0405 71       		.byte	0x71
 2690 0406 00       		.sleb128 0
 2691 0407 3B       		.byte	0x3b
 2692 0408 25       		.byte	0x25
 2693 0409 4E       		.byte	0x4e
 2694 040a 1A       		.byte	0x1a
 2695 040b 9F       		.byte	0x9f
 2696 040c 28000000 		.4byte	.LVL47
 2697 0410 2A000000 		.4byte	.LVL48
 2698 0414 0100     		.2byte	0x1
 2699 0416 52       		.byte	0x52
 2700 0417 2A000000 		.4byte	.LVL48
 2701 041b 3E000000 		.4byte	.LVL52
 2702 041f 0900     		.2byte	0x9
 2703 0421 72       		.byte	0x72
 2704 0422 00       		.sleb128 0
 2705 0423 0C       		.byte	0xc
 2706 0424 7D0F7D0F 		.4byte	0xf7d0f7d
 2707 0428 1A       		.byte	0x1a
 2708 0429 9F       		.byte	0x9f
 2709 042a 3E000000 		.4byte	.LVL52
 2710 042e 54000000 		.4byte	.LFE128
ARM GAS  C:\Users\jsyoon\AppData\Local\Temp\ccRKgIox.s 			page 49


 2711 0432 0200     		.2byte	0x2
 2712 0434 30       		.byte	0x30
 2713 0435 9F       		.byte	0x9f
 2714 0436 00000000 		.4byte	0
 2715 043a 00000000 		.4byte	0
 2716              	.LLST22:
 2717 043e 00000000 		.4byte	.LVL42
 2718 0442 22000000 		.4byte	.LVL45
 2719 0446 0200     		.2byte	0x2
 2720 0448 30       		.byte	0x30
 2721 0449 9F       		.byte	0x9f
 2722 044a 22000000 		.4byte	.LVL45
 2723 044e 3C000000 		.4byte	.LVL51
 2724 0452 0100     		.2byte	0x1
 2725 0454 54       		.byte	0x54
 2726 0455 3E000000 		.4byte	.LVL52
 2727 0459 44000000 		.4byte	.LVL53
 2728 045d 0200     		.2byte	0x2
 2729 045f 30       		.byte	0x30
 2730 0460 9F       		.byte	0x9f
 2731 0461 44000000 		.4byte	.LVL53
 2732 0465 54000000 		.4byte	.LFE128
 2733 0469 0100     		.2byte	0x1
 2734 046b 54       		.byte	0x54
 2735 046c 00000000 		.4byte	0
 2736 0470 00000000 		.4byte	0
 2737              	.LLST23:
 2738 0474 00000000 		.4byte	.LVL54
 2739 0478 10000000 		.4byte	.LVL55
 2740 047c 0100     		.2byte	0x1
 2741 047e 50       		.byte	0x50
 2742 047f 10000000 		.4byte	.LVL55
 2743 0483 34000000 		.4byte	.LFE129
 2744 0487 0400     		.2byte	0x4
 2745 0489 F3       		.byte	0xf3
 2746 048a 01       		.uleb128 0x1
 2747 048b 50       		.byte	0x50
 2748 048c 9F       		.byte	0x9f
 2749 048d 00000000 		.4byte	0
 2750 0491 00000000 		.4byte	0
 2751              	.LLST24:
 2752 0495 00000000 		.4byte	.LVL54
 2753 0499 18000000 		.4byte	.LVL56
 2754 049d 0100     		.2byte	0x1
 2755 049f 51       		.byte	0x51
 2756 04a0 18000000 		.4byte	.LVL56
 2757 04a4 34000000 		.4byte	.LFE129
 2758 04a8 0400     		.2byte	0x4
 2759 04aa F3       		.byte	0xf3
 2760 04ab 01       		.uleb128 0x1
 2761 04ac 51       		.byte	0x51
 2762 04ad 9F       		.byte	0x9f
 2763 04ae 00000000 		.4byte	0
 2764 04b2 00000000 		.4byte	0
 2765              		.section	.debug_aranges,"",%progbits
 2766 0000 AC000000 		.4byte	0xac
 2767 0004 0200     		.2byte	0x2
ARM GAS  C:\Users\jsyoon\AppData\Local\Temp\ccRKgIox.s 			page 50


 2768 0006 00000000 		.4byte	.Ldebug_info0
 2769 000a 04       		.byte	0x4
 2770 000b 00       		.byte	0
 2771 000c 0000     		.2byte	0
 2772 000e 0000     		.2byte	0
 2773 0010 00000000 		.4byte	.LFB111
 2774 0014 30010000 		.4byte	.LFE111-.LFB111
 2775 0018 00000000 		.4byte	.LFB112
 2776 001c 70000000 		.4byte	.LFE112-.LFB112
 2777 0020 00000000 		.4byte	.LFB113
 2778 0024 22000000 		.4byte	.LFE113-.LFB113
 2779 0028 00000000 		.4byte	.LFB114
 2780 002c 14000000 		.4byte	.LFE114-.LFB114
 2781 0030 00000000 		.4byte	.LFB115
 2782 0034 14000000 		.4byte	.LFE115-.LFB115
 2783 0038 00000000 		.4byte	.LFB116
 2784 003c 14000000 		.4byte	.LFE116-.LFB116
 2785 0040 00000000 		.4byte	.LFB117
 2786 0044 04000000 		.4byte	.LFE117-.LFB117
 2787 0048 00000000 		.4byte	.LFB118
 2788 004c 06000000 		.4byte	.LFE118-.LFB118
 2789 0050 00000000 		.4byte	.LFB119
 2790 0054 18000000 		.4byte	.LFE119-.LFB119
 2791 0058 00000000 		.4byte	.LFB120
 2792 005c 14000000 		.4byte	.LFE120-.LFB120
 2793 0060 00000000 		.4byte	.LFB121
 2794 0064 0A000000 		.4byte	.LFE121-.LFB121
 2795 0068 00000000 		.4byte	.LFB122
 2796 006c 08000000 		.4byte	.LFE122-.LFB122
 2797 0070 00000000 		.4byte	.LFB123
 2798 0074 08000000 		.4byte	.LFE123-.LFB123
 2799 0078 00000000 		.4byte	.LFB124
 2800 007c 08000000 		.4byte	.LFE124-.LFB124
 2801 0080 00000000 		.4byte	.LFB125
 2802 0084 3C000000 		.4byte	.LFE125-.LFB125
 2803 0088 00000000 		.4byte	.LFB126
 2804 008c 34000000 		.4byte	.LFE126-.LFB126
 2805 0090 00000000 		.4byte	.LFB127
 2806 0094 40000000 		.4byte	.LFE127-.LFB127
 2807 0098 00000000 		.4byte	.LFB128
 2808 009c 54000000 		.4byte	.LFE128-.LFB128
 2809 00a0 00000000 		.4byte	.LFB129
 2810 00a4 34000000 		.4byte	.LFE129-.LFB129
 2811 00a8 00000000 		.4byte	0
 2812 00ac 00000000 		.4byte	0
 2813              		.section	.debug_ranges,"",%progbits
 2814              	.Ldebug_ranges0:
 2815 0000 00000000 		.4byte	.LFB111
 2816 0004 30010000 		.4byte	.LFE111
 2817 0008 00000000 		.4byte	.LFB112
 2818 000c 70000000 		.4byte	.LFE112
 2819 0010 00000000 		.4byte	.LFB113
 2820 0014 22000000 		.4byte	.LFE113
 2821 0018 00000000 		.4byte	.LFB114
 2822 001c 14000000 		.4byte	.LFE114
 2823 0020 00000000 		.4byte	.LFB115
 2824 0024 14000000 		.4byte	.LFE115
ARM GAS  C:\Users\jsyoon\AppData\Local\Temp\ccRKgIox.s 			page 51


 2825 0028 00000000 		.4byte	.LFB116
 2826 002c 14000000 		.4byte	.LFE116
 2827 0030 00000000 		.4byte	.LFB117
 2828 0034 04000000 		.4byte	.LFE117
 2829 0038 00000000 		.4byte	.LFB118
 2830 003c 06000000 		.4byte	.LFE118
 2831 0040 00000000 		.4byte	.LFB119
 2832 0044 18000000 		.4byte	.LFE119
 2833 0048 00000000 		.4byte	.LFB120
 2834 004c 14000000 		.4byte	.LFE120
 2835 0050 00000000 		.4byte	.LFB121
 2836 0054 0A000000 		.4byte	.LFE121
 2837 0058 00000000 		.4byte	.LFB122
 2838 005c 08000000 		.4byte	.LFE122
 2839 0060 00000000 		.4byte	.LFB123
 2840 0064 08000000 		.4byte	.LFE123
 2841 0068 00000000 		.4byte	.LFB124
 2842 006c 08000000 		.4byte	.LFE124
 2843 0070 00000000 		.4byte	.LFB125
 2844 0074 3C000000 		.4byte	.LFE125
 2845 0078 00000000 		.4byte	.LFB126
 2846 007c 34000000 		.4byte	.LFE126
 2847 0080 00000000 		.4byte	.LFB127
 2848 0084 40000000 		.4byte	.LFE127
 2849 0088 00000000 		.4byte	.LFB128
 2850 008c 54000000 		.4byte	.LFE128
 2851 0090 00000000 		.4byte	.LFB129
 2852 0094 34000000 		.4byte	.LFE129
 2853 0098 00000000 		.4byte	0
 2854 009c 00000000 		.4byte	0
 2855              		.section	.debug_line,"",%progbits
 2856              	.Ldebug_line0:
 2857 0000 19040000 		.section	.debug_str,"MS",%progbits,1
 2857      0200AA01 
 2857      00000201 
 2857      FB0E0D00 
 2857      01010101 
 2858              	.LASF62:
 2859 0000 444D415F 		.ascii	"DMA_CurrentMemory\000"
 2859      43757272 
 2859      656E744D 
 2859      656D6F72 
 2859      7900
 2860              	.LASF52:
 2861 0012 444D415F 		.ascii	"DMA_Cmd\000"
 2861      436D6400 
 2862              	.LASF25:
 2863 001a 444D415F 		.ascii	"DMA_Stream_TypeDef\000"
 2863      53747265 
 2863      616D5F54 
 2863      79706544 
 2863      656600
 2864              	.LASF71:
 2865 002d 73746174 		.ascii	"state\000"
 2865      6500
 2866              	.LASF41:
 2867 0033 444D415F 		.ascii	"DMA_Priority\000"
ARM GAS  C:\Users\jsyoon\AppData\Local\Temp\ccRKgIox.s 			page 52


 2867      5072696F 
 2867      72697479 
 2867      00
 2868              	.LASF44:
 2869 0040 444D415F 		.ascii	"DMA_MemoryBurst\000"
 2869      4D656D6F 
 2869      72794275 
 2869      72737400 
 2870              	.LASF15:
 2871 0050 73697A65 		.ascii	"sizetype\000"
 2871      74797065 
 2871      00
 2872              	.LASF4:
 2873 0059 5F5F7569 		.ascii	"__uint16_t\000"
 2873      6E743136 
 2873      5F7400
 2874              	.LASF59:
 2875 0064 436F756E 		.ascii	"Counter\000"
 2875      74657200 
 2876              	.LASF85:
 2877 006c 453A5C4D 		.ascii	"E:\\Maker\\BLDC\\test_eval\\try2\\OROCA-BLDC_R15080"
 2877      616B6572 
 2877      5C424C44 
 2877      435C7465 
 2877      73745F65 
 2878 009a 3700     		.ascii	"7\000"
 2879              	.LASF51:
 2880 009c 444D415F 		.ascii	"DMA_StructInit\000"
 2880      53747275 
 2880      6374496E 
 2880      697400
 2881              	.LASF45:
 2882 00ab 444D415F 		.ascii	"DMA_PeripheralBurst\000"
 2882      50657269 
 2882      70686572 
 2882      616C4275 
 2882      72737400 
 2883              	.LASF7:
 2884 00bf 5F5F7569 		.ascii	"__uint32_t\000"
 2884      6E743332 
 2884      5F7400
 2885              	.LASF72:
 2886 00ca 444D415F 		.ascii	"DMA_GetFIFOStatus\000"
 2886      47657446 
 2886      49464F53 
 2886      74617475 
 2886      7300
 2887              	.LASF30:
 2888 00dc 444D415F 		.ascii	"DMA_TypeDef\000"
 2888      54797065 
 2888      44656600 
 2889              	.LASF68:
 2890 00e8 444D415F 		.ascii	"DMA_GetCurrentMemoryTarget\000"
 2890      47657443 
 2890      75727265 
 2890      6E744D65 
 2890      6D6F7279 
ARM GAS  C:\Users\jsyoon\AppData\Local\Temp\ccRKgIox.s 			page 53


 2891              	.LASF66:
 2892 0103 444D415F 		.ascii	"DMA_MemoryTarget\000"
 2892      4D656D6F 
 2892      72795461 
 2892      72676574 
 2892      00
 2893              	.LASF76:
 2894 0114 444D4179 		.ascii	"DMAy\000"
 2894      00
 2895              	.LASF49:
 2896 0119 444D4179 		.ascii	"DMAy_Streamx\000"
 2896      5F537472 
 2896      65616D78 
 2896      00
 2897              	.LASF34:
 2898 0126 444D415F 		.ascii	"DMA_DIR\000"
 2898      44495200 
 2899              	.LASF53:
 2900 012e 4E657753 		.ascii	"NewState\000"
 2900      74617465 
 2900      00
 2901              	.LASF32:
 2902 0137 444D415F 		.ascii	"DMA_PeripheralBaseAddr\000"
 2902      50657269 
 2902      70686572 
 2902      616C4261 
 2902      73654164 
 2903              	.LASF19:
 2904 014e 44495341 		.ascii	"DISABLE\000"
 2904      424C4500 
 2905              	.LASF2:
 2906 0156 73686F72 		.ascii	"short int\000"
 2906      7420696E 
 2906      7400
 2907              	.LASF37:
 2908 0160 444D415F 		.ascii	"DMA_MemoryInc\000"
 2908      4D656D6F 
 2908      7279496E 
 2908      6300
 2909              	.LASF81:
 2910 016e 656E6162 		.ascii	"enablestatus\000"
 2910      6C657374 
 2910      61747573 
 2910      00
 2911              	.LASF29:
 2912 017b 48494643 		.ascii	"HIFCR\000"
 2912      5200
 2913              	.LASF9:
 2914 0181 6C6F6E67 		.ascii	"long long int\000"
 2914      206C6F6E 
 2914      6720696E 
 2914      7400
 2915              	.LASF56:
 2916 018f 444D415F 		.ascii	"DMA_FlowControllerConfig\000"
 2916      466C6F77 
 2916      436F6E74 
 2916      726F6C6C 
ARM GAS  C:\Users\jsyoon\AppData\Local\Temp\ccRKgIox.s 			page 54


 2916      6572436F 
 2917              	.LASF64:
 2918 01a8 444D415F 		.ascii	"DMA_MemoryTargetConfig\000"
 2918      4D656D6F 
 2918      72795461 
 2918      72676574 
 2918      436F6E66 
 2919              	.LASF36:
 2920 01bf 444D415F 		.ascii	"DMA_PeripheralInc\000"
 2920      50657269 
 2920      70686572 
 2920      616C496E 
 2920      6300
 2921              	.LASF18:
 2922 01d1 49545374 		.ascii	"ITStatus\000"
 2922      61747573 
 2922      00
 2923              	.LASF63:
 2924 01da 444D415F 		.ascii	"DMA_DoubleBufferModeCmd\000"
 2924      446F7562 
 2924      6C654275 
 2924      66666572 
 2924      4D6F6465 
 2925              	.LASF6:
 2926 01f2 6C6F6E67 		.ascii	"long int\000"
 2926      20696E74 
 2926      00
 2927              	.LASF48:
 2928 01fb 444D415F 		.ascii	"DMA_Init\000"
 2928      496E6974 
 2928      00
 2929              	.LASF26:
 2930 0204 4C495352 		.ascii	"LISR\000"
 2930      00
 2931              	.LASF77:
 2932 0209 444D415F 		.ascii	"DMA_ClearFlag\000"
 2932      436C6561 
 2932      72466C61 
 2932      6700
 2933              	.LASF58:
 2934 0217 444D415F 		.ascii	"DMA_SetCurrDataCounter\000"
 2934      53657443 
 2934      75727244 
 2934      61746143 
 2934      6F756E74 
 2935              	.LASF69:
 2936 022e 746D7072 		.ascii	"tmpreg\000"
 2936      656700
 2937              	.LASF75:
 2938 0235 62697473 		.ascii	"bitstatus\000"
 2938      74617475 
 2938      7300
 2939              	.LASF38:
 2940 023f 444D415F 		.ascii	"DMA_PeripheralDataSize\000"
 2940      50657269 
 2940      70686572 
 2940      616C4461 
ARM GAS  C:\Users\jsyoon\AppData\Local\Temp\ccRKgIox.s 			page 55


 2940      74615369 
 2941              	.LASF46:
 2942 0256 444D415F 		.ascii	"DMA_InitTypeDef\000"
 2942      496E6974 
 2942      54797065 
 2942      44656600 
 2943              	.LASF1:
 2944 0266 756E7369 		.ascii	"unsigned char\000"
 2944      676E6564 
 2944      20636861 
 2944      7200
 2945              	.LASF83:
 2946 0274 474E5520 		.ascii	"GNU C 4.8.4 20140526 (release) [ARM/embedded-4_8-br"
 2946      4320342E 
 2946      382E3420 
 2946      32303134 
 2946      30353236 
 2947 02a7 616E6368 		.ascii	"anch revision 211358] -mcpu=cortex-m4 -mfloat-abi=h"
 2947      20726576 
 2947      6973696F 
 2947      6E203231 
 2947      31333538 
 2948 02da 61726420 		.ascii	"ard -mfpu=fpv4-sp-d16 -mno-thumb-interwork -mthumb "
 2948      2D6D6670 
 2948      753D6670 
 2948      76342D73 
 2948      702D6431 
 2949 030d 2D676764 		.ascii	"-ggdb -O2 -std=gnu99 -fomit-frame-pointer -falign-f"
 2949      62202D4F 
 2949      32202D73 
 2949      74643D67 
 2949      6E753939 
 2950 0340 756E6374 		.ascii	"unctions=16 -ffunction-sections -fdata-sections -fn"
 2950      696F6E73 
 2950      3D313620 
 2950      2D666675 
 2950      6E637469 
 2951 0373 6F2D636F 		.ascii	"o-common -fsingle-precision-constant\000"
 2951      6D6D6F6E 
 2951      202D6673 
 2951      696E676C 
 2951      652D7072 
 2952              	.LASF0:
 2953 0398 7369676E 		.ascii	"signed char\000"
 2953      65642063 
 2953      68617200 
 2954              	.LASF60:
 2955 03a4 444D415F 		.ascii	"DMA_DoubleBufferModeConfig\000"
 2955      446F7562 
 2955      6C654275 
 2955      66666572 
 2955      4D6F6465 
 2956              	.LASF10:
 2957 03bf 6C6F6E67 		.ascii	"long long unsigned int\000"
 2957      206C6F6E 
 2957      6720756E 
 2957      7369676E 
ARM GAS  C:\Users\jsyoon\AppData\Local\Temp\ccRKgIox.s 			page 56


 2957      65642069 
 2958              	.LASF43:
 2959 03d6 444D415F 		.ascii	"DMA_FIFOThreshold\000"
 2959      4649464F 
 2959      54687265 
 2959      73686F6C 
 2959      6400
 2960              	.LASF14:
 2961 03e8 75696E74 		.ascii	"uint32_t\000"
 2961      33325F74 
 2961      00
 2962              	.LASF11:
 2963 03f1 756E7369 		.ascii	"unsigned int\000"
 2963      676E6564 
 2963      20696E74 
 2963      00
 2964              	.LASF80:
 2965 03fe 444D415F 		.ascii	"DMA_GetITStatus\000"
 2965      47657449 
 2965      54537461 
 2965      74757300 
 2966              	.LASF12:
 2967 040e 75696E74 		.ascii	"uint16_t\000"
 2967      31365F74 
 2967      00
 2968              	.LASF27:
 2969 0417 48495352 		.ascii	"HISR\000"
 2969      00
 2970              	.LASF50:
 2971 041c 444D415F 		.ascii	"DMA_InitStruct\000"
 2971      496E6974 
 2971      53747275 
 2971      637400
 2972              	.LASF55:
 2973 042b 444D415F 		.ascii	"DMA_Pincos\000"
 2973      50696E63 
 2973      6F7300
 2974              	.LASF3:
 2975 0436 73686F72 		.ascii	"short unsigned int\000"
 2975      7420756E 
 2975      7369676E 
 2975      65642069 
 2975      6E7400
 2976              	.LASF24:
 2977 0449 4D314152 		.ascii	"M1AR\000"
 2977      00
 2978              	.LASF57:
 2979 044e 444D415F 		.ascii	"DMA_FlowCtrl\000"
 2979      466C6F77 
 2979      4374726C 
 2979      00
 2980              	.LASF13:
 2981 045b 696E7433 		.ascii	"int32_t\000"
 2981      325F7400 
 2982              	.LASF74:
 2983 0463 444D415F 		.ascii	"DMA_FLAG\000"
 2983      464C4147 
ARM GAS  C:\Users\jsyoon\AppData\Local\Temp\ccRKgIox.s 			page 57


 2983      00
 2984              	.LASF82:
 2985 046c 444D415F 		.ascii	"DMA_ClearITPendingBit\000"
 2985      436C6561 
 2985      72495450 
 2985      656E6469 
 2985      6E674269 
 2986              	.LASF54:
 2987 0482 444D415F 		.ascii	"DMA_PeriphIncOffsetSizeConfig\000"
 2987      50657269 
 2987      7068496E 
 2987      634F6666 
 2987      73657453 
 2988              	.LASF47:
 2989 04a0 444D415F 		.ascii	"DMA_DeInit\000"
 2989      4465496E 
 2989      697400
 2990              	.LASF73:
 2991 04ab 444D415F 		.ascii	"DMA_GetFlagStatus\000"
 2991      47657446 
 2991      6C616753 
 2991      74617475 
 2991      7300
 2992              	.LASF28:
 2993 04bd 4C494643 		.ascii	"LIFCR\000"
 2993      5200
 2994              	.LASF23:
 2995 04c3 4D304152 		.ascii	"M0AR\000"
 2995      00
 2996              	.LASF8:
 2997 04c8 6C6F6E67 		.ascii	"long unsigned int\000"
 2997      20756E73 
 2997      69676E65 
 2997      6420696E 
 2997      7400
 2998              	.LASF22:
 2999 04da 4E445452 		.ascii	"NDTR\000"
 2999      00
 3000              	.LASF21:
 3001 04df 46756E63 		.ascii	"FunctionalState\000"
 3001      74696F6E 
 3001      616C5374 
 3001      61746500 
 3002              	.LASF61:
 3003 04ef 4D656D6F 		.ascii	"Memory1BaseAddr\000"
 3003      72793142 
 3003      61736541 
 3003      64647200 
 3004              	.LASF42:
 3005 04ff 444D415F 		.ascii	"DMA_FIFOMode\000"
 3005      4649464F 
 3005      4D6F6465 
 3005      00
 3006              	.LASF70:
 3007 050c 444D415F 		.ascii	"DMA_GetCmdStatus\000"
 3007      47657443 
 3007      6D645374 
ARM GAS  C:\Users\jsyoon\AppData\Local\Temp\ccRKgIox.s 			page 58


 3007      61747573 
 3007      00
 3008              	.LASF31:
 3009 051d 444D415F 		.ascii	"DMA_Channel\000"
 3009      4368616E 
 3009      6E656C00 
 3010              	.LASF5:
 3011 0529 5F5F696E 		.ascii	"__int32_t\000"
 3011      7433325F 
 3011      7400
 3012              	.LASF65:
 3013 0533 4D656D6F 		.ascii	"MemoryBaseAddr\000"
 3013      72794261 
 3013      73654164 
 3013      647200
 3014              	.LASF16:
 3015 0542 52455345 		.ascii	"RESET\000"
 3015      5400
 3016              	.LASF84:
 3017 0548 43686962 		.ascii	"ChibiOS_2.6.6/ext/stdperiph_stm32f4/src/stm32f4xx_d"
 3017      694F535F 
 3017      322E362E 
 3017      362F6578 
 3017      742F7374 
 3018 057b 6D612E63 		.ascii	"ma.c\000"
 3018      00
 3019              	.LASF33:
 3020 0580 444D415F 		.ascii	"DMA_Memory0BaseAddr\000"
 3020      4D656D6F 
 3020      72793042 
 3020      61736541 
 3020      64647200 
 3021              	.LASF35:
 3022 0594 444D415F 		.ascii	"DMA_BufferSize\000"
 3022      42756666 
 3022      65725369 
 3022      7A6500
 3023              	.LASF40:
 3024 05a3 444D415F 		.ascii	"DMA_Mode\000"
 3024      4D6F6465 
 3024      00
 3025              	.LASF67:
 3026 05ac 444D415F 		.ascii	"DMA_GetCurrDataCounter\000"
 3026      47657443 
 3026      75727244 
 3026      61746143 
 3026      6F756E74 
 3027              	.LASF78:
 3028 05c3 444D415F 		.ascii	"DMA_ITConfig\000"
 3028      4954436F 
 3028      6E666967 
 3028      00
 3029              	.LASF86:
 3030 05d0 49544D5F 		.ascii	"ITM_RxBuffer\000"
 3030      52784275 
 3030      66666572 
 3030      00
ARM GAS  C:\Users\jsyoon\AppData\Local\Temp\ccRKgIox.s 			page 59


 3031              	.LASF17:
 3032 05dd 466C6167 		.ascii	"FlagStatus\000"
 3032      53746174 
 3032      757300
 3033              	.LASF20:
 3034 05e8 454E4142 		.ascii	"ENABLE\000"
 3034      4C4500
 3035              	.LASF79:
 3036 05ef 444D415F 		.ascii	"DMA_IT\000"
 3036      495400
 3037              	.LASF39:
 3038 05f6 444D415F 		.ascii	"DMA_MemoryDataSize\000"
 3038      4D656D6F 
 3038      72794461 
 3038      74615369 
 3038      7A6500
 3039              		.ident	"GCC: (GNU Tools for ARM Embedded Processors) 4.8.4 20140526 (release) [ARM/embedded-4_8-br
ARM GAS  C:\Users\jsyoon\AppData\Local\Temp\ccRKgIox.s 			page 60


DEFINED SYMBOLS
                            *ABS*:00000000 stm32f4xx_dma.c
C:\Users\jsyoon\AppData\Local\Temp\ccRKgIox.s:21     .text.DMA_DeInit:00000000 $t
C:\Users\jsyoon\AppData\Local\Temp\ccRKgIox.s:27     .text.DMA_DeInit:00000000 DMA_DeInit
C:\Users\jsyoon\AppData\Local\Temp\ccRKgIox.s:190    .text.DMA_DeInit:000000e0 $d
C:\Users\jsyoon\AppData\Local\Temp\ccRKgIox.s:214    .text.DMA_Init:00000000 $t
C:\Users\jsyoon\AppData\Local\Temp\ccRKgIox.s:220    .text.DMA_Init:00000000 DMA_Init
C:\Users\jsyoon\AppData\Local\Temp\ccRKgIox.s:320    .text.DMA_Init:0000006c $d
C:\Users\jsyoon\AppData\Local\Temp\ccRKgIox.s:325    .text.DMA_StructInit:00000000 $t
C:\Users\jsyoon\AppData\Local\Temp\ccRKgIox.s:331    .text.DMA_StructInit:00000000 DMA_StructInit
C:\Users\jsyoon\AppData\Local\Temp\ccRKgIox.s:375    .text.DMA_Cmd:00000000 $t
C:\Users\jsyoon\AppData\Local\Temp\ccRKgIox.s:381    .text.DMA_Cmd:00000000 DMA_Cmd
C:\Users\jsyoon\AppData\Local\Temp\ccRKgIox.s:406    .text.DMA_PeriphIncOffsetSizeConfig:00000000 $t
C:\Users\jsyoon\AppData\Local\Temp\ccRKgIox.s:412    .text.DMA_PeriphIncOffsetSizeConfig:00000000 DMA_PeriphIncOffsetSizeConfig
C:\Users\jsyoon\AppData\Local\Temp\ccRKgIox.s:437    .text.DMA_FlowControllerConfig:00000000 $t
C:\Users\jsyoon\AppData\Local\Temp\ccRKgIox.s:443    .text.DMA_FlowControllerConfig:00000000 DMA_FlowControllerConfig
C:\Users\jsyoon\AppData\Local\Temp\ccRKgIox.s:468    .text.DMA_SetCurrDataCounter:00000000 $t
C:\Users\jsyoon\AppData\Local\Temp\ccRKgIox.s:474    .text.DMA_SetCurrDataCounter:00000000 DMA_SetCurrDataCounter
C:\Users\jsyoon\AppData\Local\Temp\ccRKgIox.s:489    .text.DMA_GetCurrDataCounter:00000000 $t
C:\Users\jsyoon\AppData\Local\Temp\ccRKgIox.s:495    .text.DMA_GetCurrDataCounter:00000000 DMA_GetCurrDataCounter
C:\Users\jsyoon\AppData\Local\Temp\ccRKgIox.s:513    .text.DMA_DoubleBufferModeConfig:00000000 $t
C:\Users\jsyoon\AppData\Local\Temp\ccRKgIox.s:519    .text.DMA_DoubleBufferModeConfig:00000000 DMA_DoubleBufferModeConfig
C:\Users\jsyoon\AppData\Local\Temp\ccRKgIox.s:548    .text.DMA_DoubleBufferModeCmd:00000000 $t
C:\Users\jsyoon\AppData\Local\Temp\ccRKgIox.s:554    .text.DMA_DoubleBufferModeCmd:00000000 DMA_DoubleBufferModeCmd
C:\Users\jsyoon\AppData\Local\Temp\ccRKgIox.s:579    .text.DMA_MemoryTargetConfig:00000000 $t
C:\Users\jsyoon\AppData\Local\Temp\ccRKgIox.s:585    .text.DMA_MemoryTargetConfig:00000000 DMA_MemoryTargetConfig
C:\Users\jsyoon\AppData\Local\Temp\ccRKgIox.s:606    .text.DMA_GetCurrentMemoryTarget:00000000 $t
C:\Users\jsyoon\AppData\Local\Temp\ccRKgIox.s:612    .text.DMA_GetCurrentMemoryTarget:00000000 DMA_GetCurrentMemoryTarget
C:\Users\jsyoon\AppData\Local\Temp\ccRKgIox.s:631    .text.DMA_GetCmdStatus:00000000 $t
C:\Users\jsyoon\AppData\Local\Temp\ccRKgIox.s:637    .text.DMA_GetCmdStatus:00000000 DMA_GetCmdStatus
C:\Users\jsyoon\AppData\Local\Temp\ccRKgIox.s:656    .text.DMA_GetFIFOStatus:00000000 $t
C:\Users\jsyoon\AppData\Local\Temp\ccRKgIox.s:662    .text.DMA_GetFIFOStatus:00000000 DMA_GetFIFOStatus
C:\Users\jsyoon\AppData\Local\Temp\ccRKgIox.s:681    .text.DMA_GetFlagStatus:00000000 $t
C:\Users\jsyoon\AppData\Local\Temp\ccRKgIox.s:687    .text.DMA_GetFlagStatus:00000000 DMA_GetFlagStatus
C:\Users\jsyoon\AppData\Local\Temp\ccRKgIox.s:736    .text.DMA_GetFlagStatus:00000030 $d
C:\Users\jsyoon\AppData\Local\Temp\ccRKgIox.s:743    .text.DMA_ClearFlag:00000000 $t
C:\Users\jsyoon\AppData\Local\Temp\ccRKgIox.s:749    .text.DMA_ClearFlag:00000000 DMA_ClearFlag
C:\Users\jsyoon\AppData\Local\Temp\ccRKgIox.s:787    .text.DMA_ClearFlag:00000028 $d
C:\Users\jsyoon\AppData\Local\Temp\ccRKgIox.s:794    .text.DMA_ITConfig:00000000 $t
C:\Users\jsyoon\AppData\Local\Temp\ccRKgIox.s:800    .text.DMA_ITConfig:00000000 DMA_ITConfig
C:\Users\jsyoon\AppData\Local\Temp\ccRKgIox.s:863    .text.DMA_GetITStatus:00000000 $t
C:\Users\jsyoon\AppData\Local\Temp\ccRKgIox.s:869    .text.DMA_GetITStatus:00000000 DMA_GetITStatus
C:\Users\jsyoon\AppData\Local\Temp\ccRKgIox.s:943    .text.DMA_GetITStatus:00000048 $d
C:\Users\jsyoon\AppData\Local\Temp\ccRKgIox.s:950    .text.DMA_ClearITPendingBit:00000000 $t
C:\Users\jsyoon\AppData\Local\Temp\ccRKgIox.s:956    .text.DMA_ClearITPendingBit:00000000 DMA_ClearITPendingBit
C:\Users\jsyoon\AppData\Local\Temp\ccRKgIox.s:994    .text.DMA_ClearITPendingBit:00000028 $d
                     .debug_frame:00000010 $d
C:\Users\jsyoon\AppData\Local\Temp\ccRKgIox.s:742    .text.DMA_GetFlagStatus:0000003c $t
C:\Users\jsyoon\AppData\Local\Temp\ccRKgIox.s:793    .text.DMA_ClearFlag:00000034 $t
C:\Users\jsyoon\AppData\Local\Temp\ccRKgIox.s:949    .text.DMA_GetITStatus:00000054 $t
C:\Users\jsyoon\AppData\Local\Temp\ccRKgIox.s:1000   .text.DMA_ClearITPendingBit:00000034 $t

NO UNDEFINED SYMBOLS
