ARM GAS  C:\Users\jsyoon\AppData\Local\Temp\ccoZvJxM.s 			page 1


   1              		.syntax unified
   2              		.cpu cortex-m4
   3              		.eabi_attribute 27, 3
   4              		.eabi_attribute 28, 1
   5              		.fpu fpv4-sp-d16
   6              		.eabi_attribute 20, 1
   7              		.eabi_attribute 21, 1
   8              		.eabi_attribute 23, 3
   9              		.eabi_attribute 24, 1
  10              		.eabi_attribute 25, 1
  11              		.eabi_attribute 26, 1
  12              		.eabi_attribute 30, 2
  13              		.eabi_attribute 34, 1
  14              		.eabi_attribute 18, 4
  15              		.thumb
  16              		.file	"stm32f4xx_exti.c"
  17              		.text
  18              	.Ltext0:
  19              		.cfi_sections	.debug_frame
  20              		.section	.text.EXTI_DeInit,"ax",%progbits
  21              		.align	2
  22              		.p2align 4,,15
  23              		.global	EXTI_DeInit
  24              		.thumb
  25              		.thumb_func
  26              		.type	EXTI_DeInit, %function
  27              	EXTI_DeInit:
  28              	.LFB111:
  29              		.file 1 "ChibiOS_2.6.6/ext/stdperiph_stm32f4/src/stm32f4xx_exti.c"
  30              		.loc 1 110 0
  31              		.cfi_startproc
  32              		@ args = 0, pretend = 0, frame = 0
  33              		@ frame_needed = 0, uses_anonymous_args = 0
  34              		@ link register save eliminated.
  35              		.loc 1 111 0
  36 0000 044B     		ldr	r3, .L2
  37              		.loc 1 115 0
  38 0002 0549     		ldr	r1, .L2+4
  39              		.loc 1 111 0
  40 0004 0022     		movs	r2, #0
  41 0006 1A60     		str	r2, [r3]
  42              		.loc 1 112 0
  43 0008 5A60     		str	r2, [r3, #4]
  44              		.loc 1 113 0
  45 000a 9A60     		str	r2, [r3, #8]
  46              		.loc 1 114 0
  47 000c DA60     		str	r2, [r3, #12]
  48              		.loc 1 115 0
  49 000e 5961     		str	r1, [r3, #20]
  50 0010 7047     		bx	lr
  51              	.L3:
  52 0012 00BF     		.align	2
  53              	.L2:
  54 0014 003C0140 		.word	1073822720
  55 0018 FFFF7F00 		.word	8388607
  56              		.cfi_endproc
  57              	.LFE111:
ARM GAS  C:\Users\jsyoon\AppData\Local\Temp\ccoZvJxM.s 			page 2


  58              		.size	EXTI_DeInit, .-EXTI_DeInit
  59 001c AFF30080 		.section	.text.EXTI_Init,"ax",%progbits
  60              		.align	2
  61              		.p2align 4,,15
  62              		.global	EXTI_Init
  63              		.thumb
  64              		.thumb_func
  65              		.type	EXTI_Init, %function
  66              	EXTI_Init:
  67              	.LFB112:
  68              		.loc 1 126 0
  69              		.cfi_startproc
  70              		@ args = 0, pretend = 0, frame = 0
  71              		@ frame_needed = 0, uses_anonymous_args = 0
  72              		@ link register save eliminated.
  73              	.LVL0:
  74              		.loc 1 137 0
  75 0000 8379     		ldrb	r3, [r0, #6]	@ zero_extendqisi2
  76              		.loc 1 126 0
  77 0002 70B4     		push	{r4, r5, r6}
  78              		.cfi_def_cfa_offset 12
  79              		.cfi_offset 4, -12
  80              		.cfi_offset 5, -8
  81              		.cfi_offset 6, -4
  82              		.loc 1 137 0
  83 0004 2BB3     		cbz	r3, .L5
  84              		.loc 1 140 0
  85 0006 1D4B     		ldr	r3, .L10
  86 0008 0168     		ldr	r1, [r0]
  87 000a 1E68     		ldr	r6, [r3]
  88              		.loc 1 143 0
  89 000c 0279     		ldrb	r2, [r0, #4]	@ zero_extendqisi2
  90              		.loc 1 152 0
  91 000e 4579     		ldrb	r5, [r0, #5]	@ zero_extendqisi2
  92              		.loc 1 140 0
  93 0010 CC43     		mvns	r4, r1
  94 0012 2640     		ands	r6, r6, r4
  95 0014 1E60     		str	r6, [r3]
  96              		.loc 1 141 0
  97 0016 5E68     		ldr	r6, [r3, #4]
  98              		.loc 1 143 0
  99 0018 02F18042 		add	r2, r2, #1073741824
 100 001c 02F59E32 		add	r2, r2, #80896
 101              		.loc 1 141 0
 102 0020 3440     		ands	r4, r4, r6
 103 0022 5C60     		str	r4, [r3, #4]
 104              	.LVL1:
 105              		.loc 1 145 0
 106 0024 1468     		ldr	r4, [r2]
 107 0026 2143     		orrs	r1, r1, r4
 108 0028 1160     		str	r1, [r2]
 109              	.LVL2:
 110              		.loc 1 148 0
 111 002a 0268     		ldr	r2, [r0]
 112 002c 9868     		ldr	r0, [r3, #8]
 113              	.LVL3:
 114 002e D143     		mvns	r1, r2
ARM GAS  C:\Users\jsyoon\AppData\Local\Temp\ccoZvJxM.s 			page 3


 115 0030 0840     		ands	r0, r0, r1
 116 0032 9860     		str	r0, [r3, #8]
 117              		.loc 1 149 0
 118 0034 D868     		ldr	r0, [r3, #12]
 119              		.loc 1 152 0
 120 0036 102D     		cmp	r5, #16
 121              		.loc 1 149 0
 122 0038 01EA0001 		and	r1, r1, r0
 123 003c D960     		str	r1, [r3, #12]
 124              		.loc 1 152 0
 125 003e 14D0     		beq	.L9
 126              	.LVL4:
 127              		.loc 1 161 0
 128 0040 05F18043 		add	r3, r5, #1073741824
 129 0044 03F59E33 		add	r3, r3, #80896
 130              		.loc 1 173 0
 131 0048 70BC     		pop	{r4, r5, r6}
 132              	.LVL5:
 133              		.loc 1 163 0
 134 004a 1968     		ldr	r1, [r3]
 135 004c 0A43     		orrs	r2, r2, r1
 136 004e 1A60     		str	r2, [r3]
 137              		.loc 1 173 0
 138 0050 7047     		bx	lr
 139              	.LVL6:
 140              	.L5:
 141              		.loc 1 168 0
 142 0052 0379     		ldrb	r3, [r0, #4]	@ zero_extendqisi2
 143              		.loc 1 171 0
 144 0054 0168     		ldr	r1, [r0]
 145              		.loc 1 168 0
 146 0056 03F18043 		add	r3, r3, #1073741824
 147 005a 03F59E33 		add	r3, r3, #80896
 148              		.loc 1 173 0
 149 005e 70BC     		pop	{r4, r5, r6}
 150              		.loc 1 171 0
 151 0060 1A68     		ldr	r2, [r3]
 152 0062 22EA0102 		bic	r2, r2, r1
 153 0066 1A60     		str	r2, [r3]
 154              	.LVL7:
 155              		.loc 1 173 0
 156 0068 7047     		bx	lr
 157              	.LVL8:
 158              	.L9:
 159              		.loc 1 155 0
 160 006a 9968     		ldr	r1, [r3, #8]
 161 006c 1143     		orrs	r1, r1, r2
 162 006e 9960     		str	r1, [r3, #8]
 163              		.loc 1 156 0
 164 0070 D968     		ldr	r1, [r3, #12]
 165 0072 0A43     		orrs	r2, r2, r1
 166 0074 DA60     		str	r2, [r3, #12]
 167              		.loc 1 173 0
 168 0076 70BC     		pop	{r4, r5, r6}
 169 0078 7047     		bx	lr
 170              	.L11:
 171 007a 00BF     		.align	2
ARM GAS  C:\Users\jsyoon\AppData\Local\Temp\ccoZvJxM.s 			page 4


 172              	.L10:
 173 007c 003C0140 		.word	1073822720
 174              		.cfi_endproc
 175              	.LFE112:
 176              		.size	EXTI_Init, .-EXTI_Init
 177              		.section	.text.EXTI_StructInit,"ax",%progbits
 178              		.align	2
 179              		.p2align 4,,15
 180              		.global	EXTI_StructInit
 181              		.thumb
 182              		.thumb_func
 183              		.type	EXTI_StructInit, %function
 184              	EXTI_StructInit:
 185              	.LFB113:
 186              		.loc 1 182 0
 187              		.cfi_startproc
 188              		@ args = 0, pretend = 0, frame = 0
 189              		@ frame_needed = 0, uses_anonymous_args = 0
 190              		@ link register save eliminated.
 191              	.LVL9:
 192              		.loc 1 183 0
 193 0000 0023     		movs	r3, #0
 194              		.loc 1 185 0
 195 0002 0C22     		movs	r2, #12
 196 0004 4271     		strb	r2, [r0, #5]
 197              		.loc 1 183 0
 198 0006 0360     		str	r3, [r0]
 199              		.loc 1 184 0
 200 0008 0371     		strb	r3, [r0, #4]
 201              		.loc 1 186 0
 202 000a 8371     		strb	r3, [r0, #6]
 203 000c 7047     		bx	lr
 204              		.cfi_endproc
 205              	.LFE113:
 206              		.size	EXTI_StructInit, .-EXTI_StructInit
 207 000e 00BF     		.section	.text.EXTI_GenerateSWInterrupt,"ax",%progbits
 208              		.align	2
 209              		.p2align 4,,15
 210              		.global	EXTI_GenerateSWInterrupt
 211              		.thumb
 212              		.thumb_func
 213              		.type	EXTI_GenerateSWInterrupt, %function
 214              	EXTI_GenerateSWInterrupt:
 215              	.LFB114:
 216              		.loc 1 197 0
 217              		.cfi_startproc
 218              		@ args = 0, pretend = 0, frame = 0
 219              		@ frame_needed = 0, uses_anonymous_args = 0
 220              		@ link register save eliminated.
 221              	.LVL10:
 222              		.loc 1 201 0
 223 0000 024B     		ldr	r3, .L14
 224 0002 1A69     		ldr	r2, [r3, #16]
 225 0004 1043     		orrs	r0, r0, r2
 226              	.LVL11:
 227 0006 1861     		str	r0, [r3, #16]
 228 0008 7047     		bx	lr
ARM GAS  C:\Users\jsyoon\AppData\Local\Temp\ccoZvJxM.s 			page 5


 229              	.L15:
 230 000a 00BF     		.align	2
 231              	.L14:
 232 000c 003C0140 		.word	1073822720
 233              		.cfi_endproc
 234              	.LFE114:
 235              		.size	EXTI_GenerateSWInterrupt, .-EXTI_GenerateSWInterrupt
 236              		.section	.text.EXTI_GetFlagStatus,"ax",%progbits
 237              		.align	2
 238              		.p2align 4,,15
 239              		.global	EXTI_GetFlagStatus
 240              		.thumb
 241              		.thumb_func
 242              		.type	EXTI_GetFlagStatus, %function
 243              	EXTI_GetFlagStatus:
 244              	.LFB115:
 245              		.loc 1 227 0
 246              		.cfi_startproc
 247              		@ args = 0, pretend = 0, frame = 0
 248              		@ frame_needed = 0, uses_anonymous_args = 0
 249              		@ link register save eliminated.
 250              	.LVL12:
 251              		.loc 1 232 0
 252 0000 034B     		ldr	r3, .L17
 253 0002 5B69     		ldr	r3, [r3, #20]
 254              	.LVL13:
 255 0004 1842     		tst	r0, r3
 256              		.loc 1 241 0
 257 0006 0CBF     		ite	eq
 258 0008 0020     		moveq	r0, #0
 259 000a 0120     		movne	r0, #1
 260              	.LVL14:
 261 000c 7047     		bx	lr
 262              	.L18:
 263 000e 00BF     		.align	2
 264              	.L17:
 265 0010 003C0140 		.word	1073822720
 266              		.cfi_endproc
 267              	.LFE115:
 268              		.size	EXTI_GetFlagStatus, .-EXTI_GetFlagStatus
 269 0014 AFF30080 		.section	.text.EXTI_ClearFlag,"ax",%progbits
 269      AFF30080 
 269      AFF30080 
 270              		.align	2
 271              		.p2align 4,,15
 272              		.global	EXTI_ClearFlag
 273              		.thumb
 274              		.thumb_func
 275              		.type	EXTI_ClearFlag, %function
 276              	EXTI_ClearFlag:
 277              	.LFB116:
 278              		.loc 1 250 0
 279              		.cfi_startproc
 280              		@ args = 0, pretend = 0, frame = 0
 281              		@ frame_needed = 0, uses_anonymous_args = 0
 282              		@ link register save eliminated.
 283              	.LVL15:
ARM GAS  C:\Users\jsyoon\AppData\Local\Temp\ccoZvJxM.s 			page 6


 284              		.loc 1 254 0
 285 0000 014B     		ldr	r3, .L20
 286 0002 5861     		str	r0, [r3, #20]
 287 0004 7047     		bx	lr
 288              	.L21:
 289 0006 00BF     		.align	2
 290              	.L20:
 291 0008 003C0140 		.word	1073822720
 292              		.cfi_endproc
 293              	.LFE116:
 294              		.size	EXTI_ClearFlag, .-EXTI_ClearFlag
 295 000c AFF30080 		.section	.text.EXTI_GetITStatus,"ax",%progbits
 296              		.align	2
 297              		.p2align 4,,15
 298              		.global	EXTI_GetITStatus
 299              		.thumb
 300              		.thumb_func
 301              		.type	EXTI_GetITStatus, %function
 302              	EXTI_GetITStatus:
 303              	.LFB117:
 304              		.loc 1 264 0
 305              		.cfi_startproc
 306              		@ args = 0, pretend = 0, frame = 0
 307              		@ frame_needed = 0, uses_anonymous_args = 0
 308              		@ link register save eliminated.
 309              	.LVL16:
 310              		.loc 1 270 0
 311 0000 054B     		ldr	r3, .L25
 312 0002 1A68     		ldr	r2, [r3]
 313              		.loc 1 271 0
 314 0004 5B69     		ldr	r3, [r3, #20]
 315              	.LVL17:
 316 0006 0340     		ands	r3, r0, r3
 317 0008 04D0     		beq	.L24
 318              		.loc 1 271 0 is_stmt 0 discriminator 1
 319 000a 1042     		tst	r0, r2
 320              		.loc 1 273 0 is_stmt 1 discriminator 1
 321 000c 0CBF     		ite	eq
 322 000e 0020     		moveq	r0, #0
 323 0010 0120     		movne	r0, #1
 324              	.LVL18:
 325 0012 7047     		bx	lr
 326              	.LVL19:
 327              	.L24:
 328              		.loc 1 277 0
 329 0014 1846     		mov	r0, r3
 330              	.LVL20:
 331              		.loc 1 280 0
 332 0016 7047     		bx	lr
 333              	.L26:
 334              		.align	2
 335              	.L25:
 336 0018 003C0140 		.word	1073822720
 337              		.cfi_endproc
 338              	.LFE117:
 339              		.size	EXTI_GetITStatus, .-EXTI_GetITStatus
 340 001c AFF30080 		.section	.text.EXTI_ClearITPendingBit,"ax",%progbits
ARM GAS  C:\Users\jsyoon\AppData\Local\Temp\ccoZvJxM.s 			page 7


 341              		.align	2
 342              		.p2align 4,,15
 343              		.global	EXTI_ClearITPendingBit
 344              		.thumb
 345              		.thumb_func
 346              		.type	EXTI_ClearITPendingBit, %function
 347              	EXTI_ClearITPendingBit:
 348              	.LFB118:
 349              		.loc 1 289 0
 350              		.cfi_startproc
 351              		@ args = 0, pretend = 0, frame = 0
 352              		@ frame_needed = 0, uses_anonymous_args = 0
 353              		@ link register save eliminated.
 354              	.LVL21:
 355              		.loc 1 293 0
 356 0000 014B     		ldr	r3, .L28
 357 0002 5861     		str	r0, [r3, #20]
 358 0004 7047     		bx	lr
 359              	.L29:
 360 0006 00BF     		.align	2
 361              	.L28:
 362 0008 003C0140 		.word	1073822720
 363              		.cfi_endproc
 364              	.LFE118:
 365              		.size	EXTI_ClearITPendingBit, .-EXTI_ClearITPendingBit
 366 000c AFF30080 		.text
 367              	.Letext0:
 368              		.file 2 "c:\\crosstools\\gcc-arm-embedded\\4.8_2014q2\\arm-none-eabi\\include\\machine\\_default_t
 369              		.file 3 "c:\\crosstools\\gcc-arm-embedded\\4.8_2014q2\\arm-none-eabi\\include\\stdint.h"
 370              		.file 4 "ChibiOS_2.6.6/os/hal/platforms/STM32F4xx/stm32f4xx.h"
 371              		.file 5 "ChibiOS_2.6.6/ext/stdperiph_stm32f4/inc/stm32f4xx_exti.h"
 372              		.file 6 "ChibiOS_2.6.6/os/ports/common/ARMCMx/CMSIS/include/core_cm4.h"
 373              		.section	.debug_info,"",%progbits
 374              	.Ldebug_info0:
 375 0000 4C030000 		.4byte	0x34c
 376 0004 0400     		.2byte	0x4
 377 0006 00000000 		.4byte	.Ldebug_abbrev0
 378 000a 04       		.byte	0x4
 379 000b 01       		.uleb128 0x1
 380 000c 1D000000 		.4byte	.LASF46
 381 0010 01       		.byte	0x1
 382 0011 01030000 		.4byte	.LASF47
 383 0015 69030000 		.4byte	.LASF48
 384 0019 00000000 		.4byte	.Ldebug_ranges0+0
 385 001d 00000000 		.4byte	0
 386 0021 00000000 		.4byte	.Ldebug_line0
 387 0025 02       		.uleb128 0x2
 388 0026 01       		.byte	0x1
 389 0027 06       		.byte	0x6
 390 0028 EE030000 		.4byte	.LASF0
 391 002c 02       		.uleb128 0x2
 392 002d 01       		.byte	0x1
 393 002e 08       		.byte	0x8
 394 002f 04020000 		.4byte	.LASF1
 395 0033 02       		.uleb128 0x2
 396 0034 02       		.byte	0x2
 397 0035 05       		.byte	0x5
ARM GAS  C:\Users\jsyoon\AppData\Local\Temp\ccoZvJxM.s 			page 8


 398 0036 C1030000 		.4byte	.LASF2
 399 003a 02       		.uleb128 0x2
 400 003b 02       		.byte	0x2
 401 003c 07       		.byte	0x7
 402 003d 82010000 		.4byte	.LASF3
 403 0041 03       		.uleb128 0x3
 404 0042 68010000 		.4byte	.LASF5
 405 0046 02       		.byte	0x2
 406 0047 37       		.byte	0x37
 407 0048 4C000000 		.4byte	0x4c
 408 004c 02       		.uleb128 0x2
 409 004d 04       		.byte	0x4
 410 004e 05       		.byte	0x5
 411 004f E5030000 		.4byte	.LASF4
 412 0053 03       		.uleb128 0x3
 413 0054 85020000 		.4byte	.LASF6
 414 0058 02       		.byte	0x2
 415 0059 38       		.byte	0x38
 416 005a 5E000000 		.4byte	0x5e
 417 005e 02       		.uleb128 0x2
 418 005f 04       		.byte	0x4
 419 0060 07       		.byte	0x7
 420 0061 2C020000 		.4byte	.LASF7
 421 0065 02       		.uleb128 0x2
 422 0066 08       		.byte	0x8
 423 0067 05       		.byte	0x5
 424 0068 5B030000 		.4byte	.LASF8
 425 006c 02       		.uleb128 0x2
 426 006d 08       		.byte	0x8
 427 006e 07       		.byte	0x7
 428 006f EA020000 		.4byte	.LASF9
 429 0073 04       		.uleb128 0x4
 430 0074 04       		.byte	0x4
 431 0075 05       		.byte	0x5
 432 0076 696E7400 		.ascii	"int\000"
 433 007a 02       		.uleb128 0x2
 434 007b 04       		.byte	0x4
 435 007c 07       		.byte	0x7
 436 007d C0020000 		.4byte	.LASF10
 437 0081 03       		.uleb128 0x3
 438 0082 4A030000 		.4byte	.LASF11
 439 0086 03       		.byte	0x3
 440 0087 41       		.byte	0x41
 441 0088 41000000 		.4byte	0x41
 442 008c 03       		.uleb128 0x3
 443 008d 7C020000 		.4byte	.LASF12
 444 0091 03       		.byte	0x3
 445 0092 42       		.byte	0x42
 446 0093 53000000 		.4byte	0x53
 447 0097 02       		.uleb128 0x2
 448 0098 04       		.byte	0x4
 449 0099 07       		.byte	0x7
 450 009a 52030000 		.4byte	.LASF13
 451 009e 05       		.uleb128 0x5
 452 009f 8C000000 		.4byte	0x8c
 453 00a3 05       		.uleb128 0x5
 454 00a4 81000000 		.4byte	0x81
ARM GAS  C:\Users\jsyoon\AppData\Local\Temp\ccoZvJxM.s 			page 9


 455 00a8 06       		.uleb128 0x6
 456 00a9 01       		.byte	0x1
 457 00aa 04       		.byte	0x4
 458 00ab F701     		.2byte	0x1f7
 459 00ad BE000000 		.4byte	0xbe
 460 00b1 07       		.uleb128 0x7
 461 00b2 3E020000 		.4byte	.LASF14
 462 00b6 00       		.sleb128 0
 463 00b7 08       		.uleb128 0x8
 464 00b8 53455400 		.ascii	"SET\000"
 465 00bc 01       		.sleb128 1
 466 00bd 00       		.byte	0
 467 00be 09       		.uleb128 0x9
 468 00bf 12020000 		.4byte	.LASF15
 469 00c3 04       		.byte	0x4
 470 00c4 F701     		.2byte	0x1f7
 471 00c6 A8000000 		.4byte	0xa8
 472 00ca 09       		.uleb128 0x9
 473 00cb 14000000 		.4byte	.LASF16
 474 00cf 04       		.byte	0x4
 475 00d0 F701     		.2byte	0x1f7
 476 00d2 A8000000 		.4byte	0xa8
 477 00d6 06       		.uleb128 0x6
 478 00d7 01       		.byte	0x1
 479 00d8 04       		.byte	0x4
 480 00d9 F901     		.2byte	0x1f9
 481 00db EC000000 		.4byte	0xec
 482 00df 07       		.uleb128 0x7
 483 00e0 62020000 		.4byte	.LASF17
 484 00e4 00       		.sleb128 0
 485 00e5 07       		.uleb128 0x7
 486 00e6 E9010000 		.4byte	.LASF18
 487 00ea 01       		.sleb128 1
 488 00eb 00       		.byte	0
 489 00ec 09       		.uleb128 0x9
 490 00ed 95010000 		.4byte	.LASF19
 491 00f1 04       		.byte	0x4
 492 00f2 F901     		.2byte	0x1f9
 493 00f4 D6000000 		.4byte	0xd6
 494 00f8 0A       		.uleb128 0xa
 495 00f9 18       		.byte	0x18
 496 00fa 04       		.byte	0x4
 497 00fb 3003     		.2byte	0x330
 498 00fd 4F010000 		.4byte	0x14f
 499 0101 0B       		.uleb128 0xb
 500 0102 494D5200 		.ascii	"IMR\000"
 501 0106 04       		.byte	0x4
 502 0107 3203     		.2byte	0x332
 503 0109 9E000000 		.4byte	0x9e
 504 010d 00       		.byte	0
 505 010e 0B       		.uleb128 0xb
 506 010f 454D5200 		.ascii	"EMR\000"
 507 0113 04       		.byte	0x4
 508 0114 3303     		.2byte	0x333
 509 0116 9E000000 		.4byte	0x9e
 510 011a 04       		.byte	0x4
 511 011b 0C       		.uleb128 0xc
ARM GAS  C:\Users\jsyoon\AppData\Local\Temp\ccoZvJxM.s 			page 10


 512 011c 77020000 		.4byte	.LASF20
 513 0120 04       		.byte	0x4
 514 0121 3403     		.2byte	0x334
 515 0123 9E000000 		.4byte	0x9e
 516 0127 08       		.byte	0x8
 517 0128 0C       		.uleb128 0xc
 518 0129 E0030000 		.4byte	.LASF21
 519 012d 04       		.byte	0x4
 520 012e 3503     		.2byte	0x335
 521 0130 9E000000 		.4byte	0x9e
 522 0134 0C       		.byte	0xc
 523 0135 0C       		.uleb128 0xc
 524 0136 0E040000 		.4byte	.LASF22
 525 013a 04       		.byte	0x4
 526 013b 3603     		.2byte	0x336
 527 013d 9E000000 		.4byte	0x9e
 528 0141 10       		.byte	0x10
 529 0142 0B       		.uleb128 0xb
 530 0143 505200   		.ascii	"PR\000"
 531 0146 04       		.byte	0x4
 532 0147 3703     		.2byte	0x337
 533 0149 9E000000 		.4byte	0x9e
 534 014d 14       		.byte	0x14
 535 014e 00       		.byte	0
 536 014f 09       		.uleb128 0x9
 537 0150 55020000 		.4byte	.LASF23
 538 0154 04       		.byte	0x4
 539 0155 3803     		.2byte	0x338
 540 0157 F8000000 		.4byte	0xf8
 541 015b 0D       		.uleb128 0xd
 542 015c 01       		.byte	0x1
 543 015d 05       		.byte	0x5
 544 015e 37       		.byte	0x37
 545 015f 70010000 		.4byte	0x170
 546 0163 07       		.uleb128 0x7
 547 0164 F0010000 		.4byte	.LASF24
 548 0168 00       		.sleb128 0
 549 0169 07       		.uleb128 0x7
 550 016a 72010000 		.4byte	.LASF25
 551 016e 04       		.sleb128 4
 552 016f 00       		.byte	0
 553 0170 03       		.uleb128 0x3
 554 0171 44020000 		.4byte	.LASF26
 555 0175 05       		.byte	0x5
 556 0176 3A       		.byte	0x3a
 557 0177 5B010000 		.4byte	0x15b
 558 017b 0D       		.uleb128 0xd
 559 017c 01       		.byte	0x1
 560 017d 05       		.byte	0x5
 561 017e 43       		.byte	0x43
 562 017f 96010000 		.4byte	0x196
 563 0183 07       		.uleb128 0x7
 564 0184 90020000 		.4byte	.LASF27
 565 0188 08       		.sleb128 8
 566 0189 07       		.uleb128 0x7
 567 018a CB030000 		.4byte	.LASF28
 568 018e 0C       		.sleb128 12
ARM GAS  C:\Users\jsyoon\AppData\Local\Temp\ccoZvJxM.s 			page 11


 569 018f 07       		.uleb128 0x7
 570 0190 A4020000 		.4byte	.LASF29
 571 0194 10       		.sleb128 16
 572 0195 00       		.byte	0
 573 0196 03       		.uleb128 0x3
 574 0197 FA030000 		.4byte	.LASF30
 575 019b 05       		.byte	0x5
 576 019c 47       		.byte	0x47
 577 019d 7B010000 		.4byte	0x17b
 578 01a1 0E       		.uleb128 0xe
 579 01a2 08       		.byte	0x8
 580 01a3 05       		.byte	0x5
 581 01a4 50       		.byte	0x50
 582 01a5 DA010000 		.4byte	0x1da
 583 01a9 0F       		.uleb128 0xf
 584 01aa 00000000 		.4byte	.LASF31
 585 01ae 05       		.byte	0x5
 586 01af 52       		.byte	0x52
 587 01b0 8C000000 		.4byte	0x8c
 588 01b4 00       		.byte	0
 589 01b5 0F       		.uleb128 0xf
 590 01b6 0A000000 		.4byte	.LASF32
 591 01ba 05       		.byte	0x5
 592 01bb 55       		.byte	0x55
 593 01bc 70010000 		.4byte	0x170
 594 01c0 04       		.byte	0x4
 595 01c1 0F       		.uleb128 0xf
 596 01c2 5B010000 		.4byte	.LASF33
 597 01c6 05       		.byte	0x5
 598 01c7 58       		.byte	0x58
 599 01c8 96010000 		.4byte	0x196
 600 01cc 05       		.byte	0x5
 601 01cd 0F       		.uleb128 0xf
 602 01ce 4E010000 		.4byte	.LASF34
 603 01d2 05       		.byte	0x5
 604 01d3 5B       		.byte	0x5b
 605 01d4 EC000000 		.4byte	0xec
 606 01d8 06       		.byte	0x6
 607 01d9 00       		.byte	0
 608 01da 03       		.uleb128 0x3
 609 01db C8010000 		.4byte	.LASF35
 610 01df 05       		.byte	0x5
 611 01e0 5D       		.byte	0x5d
 612 01e1 A1010000 		.4byte	0x1a1
 613 01e5 10       		.uleb128 0x10
 614 01e6 14040000 		.4byte	.LASF49
 615 01ea 01       		.byte	0x1
 616 01eb 6D       		.byte	0x6d
 617 01ec 00000000 		.4byte	.LFB111
 618 01f0 1C000000 		.4byte	.LFE111-.LFB111
 619 01f4 01       		.uleb128 0x1
 620 01f5 9C       		.byte	0x9c
 621 01f6 11       		.uleb128 0x11
 622 01f7 CD020000 		.4byte	.LASF36
 623 01fb 01       		.byte	0x1
 624 01fc 7D       		.byte	0x7d
 625 01fd 00000000 		.4byte	.LFB112
ARM GAS  C:\Users\jsyoon\AppData\Local\Temp\ccoZvJxM.s 			page 12


 626 0201 80000000 		.4byte	.LFE112-.LFB112
 627 0205 01       		.uleb128 0x1
 628 0206 9C       		.byte	0x9c
 629 0207 2A020000 		.4byte	0x22a
 630 020b 12       		.uleb128 0x12
 631 020c D9010000 		.4byte	.LASF38
 632 0210 01       		.byte	0x1
 633 0211 7D       		.byte	0x7d
 634 0212 2A020000 		.4byte	0x22a
 635 0216 00000000 		.4byte	.LLST0
 636 021a 13       		.uleb128 0x13
 637 021b 746D7000 		.ascii	"tmp\000"
 638 021f 01       		.byte	0x1
 639 0220 7F       		.byte	0x7f
 640 0221 8C000000 		.4byte	0x8c
 641 0225 3A000000 		.4byte	.LLST1
 642 0229 00       		.byte	0
 643 022a 14       		.uleb128 0x14
 644 022b 04       		.byte	0x4
 645 022c DA010000 		.4byte	0x1da
 646 0230 11       		.uleb128 0x11
 647 0231 3A030000 		.4byte	.LASF37
 648 0235 01       		.byte	0x1
 649 0236 B5       		.byte	0xb5
 650 0237 00000000 		.4byte	.LFB113
 651 023b 0E000000 		.4byte	.LFE113-.LFB113
 652 023f 01       		.uleb128 0x1
 653 0240 9C       		.byte	0x9c
 654 0241 53020000 		.4byte	0x253
 655 0245 15       		.uleb128 0x15
 656 0246 D9010000 		.4byte	.LASF38
 657 024a 01       		.byte	0x1
 658 024b B5       		.byte	0xb5
 659 024c 2A020000 		.4byte	0x22a
 660 0250 01       		.uleb128 0x1
 661 0251 50       		.byte	0x50
 662 0252 00       		.byte	0
 663 0253 11       		.uleb128 0x11
 664 0254 AF010000 		.4byte	.LASF39
 665 0258 01       		.byte	0x1
 666 0259 C4       		.byte	0xc4
 667 025a 00000000 		.4byte	.LFB114
 668 025e 10000000 		.4byte	.LFE114-.LFB114
 669 0262 01       		.uleb128 0x1
 670 0263 9C       		.byte	0x9c
 671 0264 78020000 		.4byte	0x278
 672 0268 12       		.uleb128 0x12
 673 0269 00000000 		.4byte	.LASF31
 674 026d 01       		.byte	0x1
 675 026e C4       		.byte	0xc4
 676 026f 8C000000 		.4byte	0x8c
 677 0273 CC000000 		.4byte	.LLST2
 678 0277 00       		.byte	0
 679 0278 16       		.uleb128 0x16
 680 0279 D7020000 		.4byte	.LASF42
 681 027d 01       		.byte	0x1
 682 027e E2       		.byte	0xe2
ARM GAS  C:\Users\jsyoon\AppData\Local\Temp\ccoZvJxM.s 			page 13


 683 027f BE000000 		.4byte	0xbe
 684 0283 00000000 		.4byte	.LFB115
 685 0287 14000000 		.4byte	.LFE115-.LFB115
 686 028b 01       		.uleb128 0x1
 687 028c 9C       		.byte	0x9c
 688 028d B0020000 		.4byte	0x2b0
 689 0291 12       		.uleb128 0x12
 690 0292 00000000 		.4byte	.LASF31
 691 0296 01       		.byte	0x1
 692 0297 E2       		.byte	0xe2
 693 0298 8C000000 		.4byte	0x8c
 694 029c ED000000 		.4byte	.LLST3
 695 02a0 17       		.uleb128 0x17
 696 02a1 A5010000 		.4byte	.LASF40
 697 02a5 01       		.byte	0x1
 698 02a6 E4       		.byte	0xe4
 699 02a7 BE000000 		.4byte	0xbe
 700 02ab 0E010000 		.4byte	.LLST4
 701 02af 00       		.byte	0
 702 02b0 11       		.uleb128 0x11
 703 02b1 1D020000 		.4byte	.LASF41
 704 02b5 01       		.byte	0x1
 705 02b6 F9       		.byte	0xf9
 706 02b7 00000000 		.4byte	.LFB116
 707 02bb 0C000000 		.4byte	.LFE116-.LFB116
 708 02bf 01       		.uleb128 0x1
 709 02c0 9C       		.byte	0x9c
 710 02c1 D3020000 		.4byte	0x2d3
 711 02c5 15       		.uleb128 0x15
 712 02c6 00000000 		.4byte	.LASF31
 713 02ca 01       		.byte	0x1
 714 02cb F9       		.byte	0xf9
 715 02cc 8C000000 		.4byte	0x8c
 716 02d0 01       		.uleb128 0x1
 717 02d1 50       		.byte	0x50
 718 02d2 00       		.byte	0
 719 02d3 18       		.uleb128 0x18
 720 02d4 99030000 		.4byte	.LASF43
 721 02d8 01       		.byte	0x1
 722 02d9 0701     		.2byte	0x107
 723 02db CA000000 		.4byte	0xca
 724 02df 00000000 		.4byte	.LFB117
 725 02e3 1C000000 		.4byte	.LFE117-.LFB117
 726 02e7 01       		.uleb128 0x1
 727 02e8 9C       		.byte	0x9c
 728 02e9 1E030000 		.4byte	0x31e
 729 02ed 19       		.uleb128 0x19
 730 02ee 00000000 		.4byte	.LASF31
 731 02f2 01       		.byte	0x1
 732 02f3 0701     		.2byte	0x107
 733 02f5 8C000000 		.4byte	0x8c
 734 02f9 47010000 		.4byte	.LLST5
 735 02fd 1A       		.uleb128 0x1a
 736 02fe A5010000 		.4byte	.LASF40
 737 0302 01       		.byte	0x1
 738 0303 0901     		.2byte	0x109
 739 0305 CA000000 		.4byte	0xca
ARM GAS  C:\Users\jsyoon\AppData\Local\Temp\ccoZvJxM.s 			page 14


 740 0309 81010000 		.4byte	.LLST6
 741 030d 1A       		.uleb128 0x1a
 742 030e 41010000 		.4byte	.LASF44
 743 0312 01       		.byte	0x1
 744 0313 0A01     		.2byte	0x10a
 745 0315 8C000000 		.4byte	0x8c
 746 0319 A0010000 		.4byte	.LLST7
 747 031d 00       		.byte	0
 748 031e 1B       		.uleb128 0x1b
 749 031f AA030000 		.4byte	.LASF45
 750 0323 01       		.byte	0x1
 751 0324 2001     		.2byte	0x120
 752 0326 00000000 		.4byte	.LFB118
 753 032a 0C000000 		.4byte	.LFE118-.LFB118
 754 032e 01       		.uleb128 0x1
 755 032f 9C       		.byte	0x9c
 756 0330 43030000 		.4byte	0x343
 757 0334 1C       		.uleb128 0x1c
 758 0335 00000000 		.4byte	.LASF31
 759 0339 01       		.byte	0x1
 760 033a 2001     		.2byte	0x120
 761 033c 8C000000 		.4byte	0x8c
 762 0340 01       		.uleb128 0x1
 763 0341 50       		.byte	0x50
 764 0342 00       		.byte	0
 765 0343 1D       		.uleb128 0x1d
 766 0344 6A020000 		.4byte	.LASF50
 767 0348 06       		.byte	0x6
 768 0349 9806     		.2byte	0x698
 769 034b A3000000 		.4byte	0xa3
 770 034f 00       		.byte	0
 771              		.section	.debug_abbrev,"",%progbits
 772              	.Ldebug_abbrev0:
 773 0000 01       		.uleb128 0x1
 774 0001 11       		.uleb128 0x11
 775 0002 01       		.byte	0x1
 776 0003 25       		.uleb128 0x25
 777 0004 0E       		.uleb128 0xe
 778 0005 13       		.uleb128 0x13
 779 0006 0B       		.uleb128 0xb
 780 0007 03       		.uleb128 0x3
 781 0008 0E       		.uleb128 0xe
 782 0009 1B       		.uleb128 0x1b
 783 000a 0E       		.uleb128 0xe
 784 000b 55       		.uleb128 0x55
 785 000c 17       		.uleb128 0x17
 786 000d 11       		.uleb128 0x11
 787 000e 01       		.uleb128 0x1
 788 000f 10       		.uleb128 0x10
 789 0010 17       		.uleb128 0x17
 790 0011 00       		.byte	0
 791 0012 00       		.byte	0
 792 0013 02       		.uleb128 0x2
 793 0014 24       		.uleb128 0x24
 794 0015 00       		.byte	0
 795 0016 0B       		.uleb128 0xb
 796 0017 0B       		.uleb128 0xb
ARM GAS  C:\Users\jsyoon\AppData\Local\Temp\ccoZvJxM.s 			page 15


 797 0018 3E       		.uleb128 0x3e
 798 0019 0B       		.uleb128 0xb
 799 001a 03       		.uleb128 0x3
 800 001b 0E       		.uleb128 0xe
 801 001c 00       		.byte	0
 802 001d 00       		.byte	0
 803 001e 03       		.uleb128 0x3
 804 001f 16       		.uleb128 0x16
 805 0020 00       		.byte	0
 806 0021 03       		.uleb128 0x3
 807 0022 0E       		.uleb128 0xe
 808 0023 3A       		.uleb128 0x3a
 809 0024 0B       		.uleb128 0xb
 810 0025 3B       		.uleb128 0x3b
 811 0026 0B       		.uleb128 0xb
 812 0027 49       		.uleb128 0x49
 813 0028 13       		.uleb128 0x13
 814 0029 00       		.byte	0
 815 002a 00       		.byte	0
 816 002b 04       		.uleb128 0x4
 817 002c 24       		.uleb128 0x24
 818 002d 00       		.byte	0
 819 002e 0B       		.uleb128 0xb
 820 002f 0B       		.uleb128 0xb
 821 0030 3E       		.uleb128 0x3e
 822 0031 0B       		.uleb128 0xb
 823 0032 03       		.uleb128 0x3
 824 0033 08       		.uleb128 0x8
 825 0034 00       		.byte	0
 826 0035 00       		.byte	0
 827 0036 05       		.uleb128 0x5
 828 0037 35       		.uleb128 0x35
 829 0038 00       		.byte	0
 830 0039 49       		.uleb128 0x49
 831 003a 13       		.uleb128 0x13
 832 003b 00       		.byte	0
 833 003c 00       		.byte	0
 834 003d 06       		.uleb128 0x6
 835 003e 04       		.uleb128 0x4
 836 003f 01       		.byte	0x1
 837 0040 0B       		.uleb128 0xb
 838 0041 0B       		.uleb128 0xb
 839 0042 3A       		.uleb128 0x3a
 840 0043 0B       		.uleb128 0xb
 841 0044 3B       		.uleb128 0x3b
 842 0045 05       		.uleb128 0x5
 843 0046 01       		.uleb128 0x1
 844 0047 13       		.uleb128 0x13
 845 0048 00       		.byte	0
 846 0049 00       		.byte	0
 847 004a 07       		.uleb128 0x7
 848 004b 28       		.uleb128 0x28
 849 004c 00       		.byte	0
 850 004d 03       		.uleb128 0x3
 851 004e 0E       		.uleb128 0xe
 852 004f 1C       		.uleb128 0x1c
 853 0050 0D       		.uleb128 0xd
ARM GAS  C:\Users\jsyoon\AppData\Local\Temp\ccoZvJxM.s 			page 16


 854 0051 00       		.byte	0
 855 0052 00       		.byte	0
 856 0053 08       		.uleb128 0x8
 857 0054 28       		.uleb128 0x28
 858 0055 00       		.byte	0
 859 0056 03       		.uleb128 0x3
 860 0057 08       		.uleb128 0x8
 861 0058 1C       		.uleb128 0x1c
 862 0059 0D       		.uleb128 0xd
 863 005a 00       		.byte	0
 864 005b 00       		.byte	0
 865 005c 09       		.uleb128 0x9
 866 005d 16       		.uleb128 0x16
 867 005e 00       		.byte	0
 868 005f 03       		.uleb128 0x3
 869 0060 0E       		.uleb128 0xe
 870 0061 3A       		.uleb128 0x3a
 871 0062 0B       		.uleb128 0xb
 872 0063 3B       		.uleb128 0x3b
 873 0064 05       		.uleb128 0x5
 874 0065 49       		.uleb128 0x49
 875 0066 13       		.uleb128 0x13
 876 0067 00       		.byte	0
 877 0068 00       		.byte	0
 878 0069 0A       		.uleb128 0xa
 879 006a 13       		.uleb128 0x13
 880 006b 01       		.byte	0x1
 881 006c 0B       		.uleb128 0xb
 882 006d 0B       		.uleb128 0xb
 883 006e 3A       		.uleb128 0x3a
 884 006f 0B       		.uleb128 0xb
 885 0070 3B       		.uleb128 0x3b
 886 0071 05       		.uleb128 0x5
 887 0072 01       		.uleb128 0x1
 888 0073 13       		.uleb128 0x13
 889 0074 00       		.byte	0
 890 0075 00       		.byte	0
 891 0076 0B       		.uleb128 0xb
 892 0077 0D       		.uleb128 0xd
 893 0078 00       		.byte	0
 894 0079 03       		.uleb128 0x3
 895 007a 08       		.uleb128 0x8
 896 007b 3A       		.uleb128 0x3a
 897 007c 0B       		.uleb128 0xb
 898 007d 3B       		.uleb128 0x3b
 899 007e 05       		.uleb128 0x5
 900 007f 49       		.uleb128 0x49
 901 0080 13       		.uleb128 0x13
 902 0081 38       		.uleb128 0x38
 903 0082 0B       		.uleb128 0xb
 904 0083 00       		.byte	0
 905 0084 00       		.byte	0
 906 0085 0C       		.uleb128 0xc
 907 0086 0D       		.uleb128 0xd
 908 0087 00       		.byte	0
 909 0088 03       		.uleb128 0x3
 910 0089 0E       		.uleb128 0xe
ARM GAS  C:\Users\jsyoon\AppData\Local\Temp\ccoZvJxM.s 			page 17


 911 008a 3A       		.uleb128 0x3a
 912 008b 0B       		.uleb128 0xb
 913 008c 3B       		.uleb128 0x3b
 914 008d 05       		.uleb128 0x5
 915 008e 49       		.uleb128 0x49
 916 008f 13       		.uleb128 0x13
 917 0090 38       		.uleb128 0x38
 918 0091 0B       		.uleb128 0xb
 919 0092 00       		.byte	0
 920 0093 00       		.byte	0
 921 0094 0D       		.uleb128 0xd
 922 0095 04       		.uleb128 0x4
 923 0096 01       		.byte	0x1
 924 0097 0B       		.uleb128 0xb
 925 0098 0B       		.uleb128 0xb
 926 0099 3A       		.uleb128 0x3a
 927 009a 0B       		.uleb128 0xb
 928 009b 3B       		.uleb128 0x3b
 929 009c 0B       		.uleb128 0xb
 930 009d 01       		.uleb128 0x1
 931 009e 13       		.uleb128 0x13
 932 009f 00       		.byte	0
 933 00a0 00       		.byte	0
 934 00a1 0E       		.uleb128 0xe
 935 00a2 13       		.uleb128 0x13
 936 00a3 01       		.byte	0x1
 937 00a4 0B       		.uleb128 0xb
 938 00a5 0B       		.uleb128 0xb
 939 00a6 3A       		.uleb128 0x3a
 940 00a7 0B       		.uleb128 0xb
 941 00a8 3B       		.uleb128 0x3b
 942 00a9 0B       		.uleb128 0xb
 943 00aa 01       		.uleb128 0x1
 944 00ab 13       		.uleb128 0x13
 945 00ac 00       		.byte	0
 946 00ad 00       		.byte	0
 947 00ae 0F       		.uleb128 0xf
 948 00af 0D       		.uleb128 0xd
 949 00b0 00       		.byte	0
 950 00b1 03       		.uleb128 0x3
 951 00b2 0E       		.uleb128 0xe
 952 00b3 3A       		.uleb128 0x3a
 953 00b4 0B       		.uleb128 0xb
 954 00b5 3B       		.uleb128 0x3b
 955 00b6 0B       		.uleb128 0xb
 956 00b7 49       		.uleb128 0x49
 957 00b8 13       		.uleb128 0x13
 958 00b9 38       		.uleb128 0x38
 959 00ba 0B       		.uleb128 0xb
 960 00bb 00       		.byte	0
 961 00bc 00       		.byte	0
 962 00bd 10       		.uleb128 0x10
 963 00be 2E       		.uleb128 0x2e
 964 00bf 00       		.byte	0
 965 00c0 3F       		.uleb128 0x3f
 966 00c1 19       		.uleb128 0x19
 967 00c2 03       		.uleb128 0x3
ARM GAS  C:\Users\jsyoon\AppData\Local\Temp\ccoZvJxM.s 			page 18


 968 00c3 0E       		.uleb128 0xe
 969 00c4 3A       		.uleb128 0x3a
 970 00c5 0B       		.uleb128 0xb
 971 00c6 3B       		.uleb128 0x3b
 972 00c7 0B       		.uleb128 0xb
 973 00c8 27       		.uleb128 0x27
 974 00c9 19       		.uleb128 0x19
 975 00ca 11       		.uleb128 0x11
 976 00cb 01       		.uleb128 0x1
 977 00cc 12       		.uleb128 0x12
 978 00cd 06       		.uleb128 0x6
 979 00ce 40       		.uleb128 0x40
 980 00cf 18       		.uleb128 0x18
 981 00d0 9742     		.uleb128 0x2117
 982 00d2 19       		.uleb128 0x19
 983 00d3 00       		.byte	0
 984 00d4 00       		.byte	0
 985 00d5 11       		.uleb128 0x11
 986 00d6 2E       		.uleb128 0x2e
 987 00d7 01       		.byte	0x1
 988 00d8 3F       		.uleb128 0x3f
 989 00d9 19       		.uleb128 0x19
 990 00da 03       		.uleb128 0x3
 991 00db 0E       		.uleb128 0xe
 992 00dc 3A       		.uleb128 0x3a
 993 00dd 0B       		.uleb128 0xb
 994 00de 3B       		.uleb128 0x3b
 995 00df 0B       		.uleb128 0xb
 996 00e0 27       		.uleb128 0x27
 997 00e1 19       		.uleb128 0x19
 998 00e2 11       		.uleb128 0x11
 999 00e3 01       		.uleb128 0x1
 1000 00e4 12       		.uleb128 0x12
 1001 00e5 06       		.uleb128 0x6
 1002 00e6 40       		.uleb128 0x40
 1003 00e7 18       		.uleb128 0x18
 1004 00e8 9742     		.uleb128 0x2117
 1005 00ea 19       		.uleb128 0x19
 1006 00eb 01       		.uleb128 0x1
 1007 00ec 13       		.uleb128 0x13
 1008 00ed 00       		.byte	0
 1009 00ee 00       		.byte	0
 1010 00ef 12       		.uleb128 0x12
 1011 00f0 05       		.uleb128 0x5
 1012 00f1 00       		.byte	0
 1013 00f2 03       		.uleb128 0x3
 1014 00f3 0E       		.uleb128 0xe
 1015 00f4 3A       		.uleb128 0x3a
 1016 00f5 0B       		.uleb128 0xb
 1017 00f6 3B       		.uleb128 0x3b
 1018 00f7 0B       		.uleb128 0xb
 1019 00f8 49       		.uleb128 0x49
 1020 00f9 13       		.uleb128 0x13
 1021 00fa 02       		.uleb128 0x2
 1022 00fb 17       		.uleb128 0x17
 1023 00fc 00       		.byte	0
 1024 00fd 00       		.byte	0
ARM GAS  C:\Users\jsyoon\AppData\Local\Temp\ccoZvJxM.s 			page 19


 1025 00fe 13       		.uleb128 0x13
 1026 00ff 34       		.uleb128 0x34
 1027 0100 00       		.byte	0
 1028 0101 03       		.uleb128 0x3
 1029 0102 08       		.uleb128 0x8
 1030 0103 3A       		.uleb128 0x3a
 1031 0104 0B       		.uleb128 0xb
 1032 0105 3B       		.uleb128 0x3b
 1033 0106 0B       		.uleb128 0xb
 1034 0107 49       		.uleb128 0x49
 1035 0108 13       		.uleb128 0x13
 1036 0109 02       		.uleb128 0x2
 1037 010a 17       		.uleb128 0x17
 1038 010b 00       		.byte	0
 1039 010c 00       		.byte	0
 1040 010d 14       		.uleb128 0x14
 1041 010e 0F       		.uleb128 0xf
 1042 010f 00       		.byte	0
 1043 0110 0B       		.uleb128 0xb
 1044 0111 0B       		.uleb128 0xb
 1045 0112 49       		.uleb128 0x49
 1046 0113 13       		.uleb128 0x13
 1047 0114 00       		.byte	0
 1048 0115 00       		.byte	0
 1049 0116 15       		.uleb128 0x15
 1050 0117 05       		.uleb128 0x5
 1051 0118 00       		.byte	0
 1052 0119 03       		.uleb128 0x3
 1053 011a 0E       		.uleb128 0xe
 1054 011b 3A       		.uleb128 0x3a
 1055 011c 0B       		.uleb128 0xb
 1056 011d 3B       		.uleb128 0x3b
 1057 011e 0B       		.uleb128 0xb
 1058 011f 49       		.uleb128 0x49
 1059 0120 13       		.uleb128 0x13
 1060 0121 02       		.uleb128 0x2
 1061 0122 18       		.uleb128 0x18
 1062 0123 00       		.byte	0
 1063 0124 00       		.byte	0
 1064 0125 16       		.uleb128 0x16
 1065 0126 2E       		.uleb128 0x2e
 1066 0127 01       		.byte	0x1
 1067 0128 3F       		.uleb128 0x3f
 1068 0129 19       		.uleb128 0x19
 1069 012a 03       		.uleb128 0x3
 1070 012b 0E       		.uleb128 0xe
 1071 012c 3A       		.uleb128 0x3a
 1072 012d 0B       		.uleb128 0xb
 1073 012e 3B       		.uleb128 0x3b
 1074 012f 0B       		.uleb128 0xb
 1075 0130 27       		.uleb128 0x27
 1076 0131 19       		.uleb128 0x19
 1077 0132 49       		.uleb128 0x49
 1078 0133 13       		.uleb128 0x13
 1079 0134 11       		.uleb128 0x11
 1080 0135 01       		.uleb128 0x1
 1081 0136 12       		.uleb128 0x12
ARM GAS  C:\Users\jsyoon\AppData\Local\Temp\ccoZvJxM.s 			page 20


 1082 0137 06       		.uleb128 0x6
 1083 0138 40       		.uleb128 0x40
 1084 0139 18       		.uleb128 0x18
 1085 013a 9742     		.uleb128 0x2117
 1086 013c 19       		.uleb128 0x19
 1087 013d 01       		.uleb128 0x1
 1088 013e 13       		.uleb128 0x13
 1089 013f 00       		.byte	0
 1090 0140 00       		.byte	0
 1091 0141 17       		.uleb128 0x17
 1092 0142 34       		.uleb128 0x34
 1093 0143 00       		.byte	0
 1094 0144 03       		.uleb128 0x3
 1095 0145 0E       		.uleb128 0xe
 1096 0146 3A       		.uleb128 0x3a
 1097 0147 0B       		.uleb128 0xb
 1098 0148 3B       		.uleb128 0x3b
 1099 0149 0B       		.uleb128 0xb
 1100 014a 49       		.uleb128 0x49
 1101 014b 13       		.uleb128 0x13
 1102 014c 02       		.uleb128 0x2
 1103 014d 17       		.uleb128 0x17
 1104 014e 00       		.byte	0
 1105 014f 00       		.byte	0
 1106 0150 18       		.uleb128 0x18
 1107 0151 2E       		.uleb128 0x2e
 1108 0152 01       		.byte	0x1
 1109 0153 3F       		.uleb128 0x3f
 1110 0154 19       		.uleb128 0x19
 1111 0155 03       		.uleb128 0x3
 1112 0156 0E       		.uleb128 0xe
 1113 0157 3A       		.uleb128 0x3a
 1114 0158 0B       		.uleb128 0xb
 1115 0159 3B       		.uleb128 0x3b
 1116 015a 05       		.uleb128 0x5
 1117 015b 27       		.uleb128 0x27
 1118 015c 19       		.uleb128 0x19
 1119 015d 49       		.uleb128 0x49
 1120 015e 13       		.uleb128 0x13
 1121 015f 11       		.uleb128 0x11
 1122 0160 01       		.uleb128 0x1
 1123 0161 12       		.uleb128 0x12
 1124 0162 06       		.uleb128 0x6
 1125 0163 40       		.uleb128 0x40
 1126 0164 18       		.uleb128 0x18
 1127 0165 9742     		.uleb128 0x2117
 1128 0167 19       		.uleb128 0x19
 1129 0168 01       		.uleb128 0x1
 1130 0169 13       		.uleb128 0x13
 1131 016a 00       		.byte	0
 1132 016b 00       		.byte	0
 1133 016c 19       		.uleb128 0x19
 1134 016d 05       		.uleb128 0x5
 1135 016e 00       		.byte	0
 1136 016f 03       		.uleb128 0x3
 1137 0170 0E       		.uleb128 0xe
 1138 0171 3A       		.uleb128 0x3a
ARM GAS  C:\Users\jsyoon\AppData\Local\Temp\ccoZvJxM.s 			page 21


 1139 0172 0B       		.uleb128 0xb
 1140 0173 3B       		.uleb128 0x3b
 1141 0174 05       		.uleb128 0x5
 1142 0175 49       		.uleb128 0x49
 1143 0176 13       		.uleb128 0x13
 1144 0177 02       		.uleb128 0x2
 1145 0178 17       		.uleb128 0x17
 1146 0179 00       		.byte	0
 1147 017a 00       		.byte	0
 1148 017b 1A       		.uleb128 0x1a
 1149 017c 34       		.uleb128 0x34
 1150 017d 00       		.byte	0
 1151 017e 03       		.uleb128 0x3
 1152 017f 0E       		.uleb128 0xe
 1153 0180 3A       		.uleb128 0x3a
 1154 0181 0B       		.uleb128 0xb
 1155 0182 3B       		.uleb128 0x3b
 1156 0183 05       		.uleb128 0x5
 1157 0184 49       		.uleb128 0x49
 1158 0185 13       		.uleb128 0x13
 1159 0186 02       		.uleb128 0x2
 1160 0187 17       		.uleb128 0x17
 1161 0188 00       		.byte	0
 1162 0189 00       		.byte	0
 1163 018a 1B       		.uleb128 0x1b
 1164 018b 2E       		.uleb128 0x2e
 1165 018c 01       		.byte	0x1
 1166 018d 3F       		.uleb128 0x3f
 1167 018e 19       		.uleb128 0x19
 1168 018f 03       		.uleb128 0x3
 1169 0190 0E       		.uleb128 0xe
 1170 0191 3A       		.uleb128 0x3a
 1171 0192 0B       		.uleb128 0xb
 1172 0193 3B       		.uleb128 0x3b
 1173 0194 05       		.uleb128 0x5
 1174 0195 27       		.uleb128 0x27
 1175 0196 19       		.uleb128 0x19
 1176 0197 11       		.uleb128 0x11
 1177 0198 01       		.uleb128 0x1
 1178 0199 12       		.uleb128 0x12
 1179 019a 06       		.uleb128 0x6
 1180 019b 40       		.uleb128 0x40
 1181 019c 18       		.uleb128 0x18
 1182 019d 9742     		.uleb128 0x2117
 1183 019f 19       		.uleb128 0x19
 1184 01a0 01       		.uleb128 0x1
 1185 01a1 13       		.uleb128 0x13
 1186 01a2 00       		.byte	0
 1187 01a3 00       		.byte	0
 1188 01a4 1C       		.uleb128 0x1c
 1189 01a5 05       		.uleb128 0x5
 1190 01a6 00       		.byte	0
 1191 01a7 03       		.uleb128 0x3
 1192 01a8 0E       		.uleb128 0xe
 1193 01a9 3A       		.uleb128 0x3a
 1194 01aa 0B       		.uleb128 0xb
 1195 01ab 3B       		.uleb128 0x3b
ARM GAS  C:\Users\jsyoon\AppData\Local\Temp\ccoZvJxM.s 			page 22


 1196 01ac 05       		.uleb128 0x5
 1197 01ad 49       		.uleb128 0x49
 1198 01ae 13       		.uleb128 0x13
 1199 01af 02       		.uleb128 0x2
 1200 01b0 18       		.uleb128 0x18
 1201 01b1 00       		.byte	0
 1202 01b2 00       		.byte	0
 1203 01b3 1D       		.uleb128 0x1d
 1204 01b4 34       		.uleb128 0x34
 1205 01b5 00       		.byte	0
 1206 01b6 03       		.uleb128 0x3
 1207 01b7 0E       		.uleb128 0xe
 1208 01b8 3A       		.uleb128 0x3a
 1209 01b9 0B       		.uleb128 0xb
 1210 01ba 3B       		.uleb128 0x3b
 1211 01bb 05       		.uleb128 0x5
 1212 01bc 49       		.uleb128 0x49
 1213 01bd 13       		.uleb128 0x13
 1214 01be 3F       		.uleb128 0x3f
 1215 01bf 19       		.uleb128 0x19
 1216 01c0 3C       		.uleb128 0x3c
 1217 01c1 19       		.uleb128 0x19
 1218 01c2 00       		.byte	0
 1219 01c3 00       		.byte	0
 1220 01c4 00       		.byte	0
 1221              		.section	.debug_loc,"",%progbits
 1222              	.Ldebug_loc0:
 1223              	.LLST0:
 1224 0000 00000000 		.4byte	.LVL0
 1225 0004 2E000000 		.4byte	.LVL3
 1226 0008 0100     		.2byte	0x1
 1227 000a 50       		.byte	0x50
 1228 000b 2E000000 		.4byte	.LVL3
 1229 000f 52000000 		.4byte	.LVL6
 1230 0013 0400     		.2byte	0x4
 1231 0015 F3       		.byte	0xf3
 1232 0016 01       		.uleb128 0x1
 1233 0017 50       		.byte	0x50
 1234 0018 9F       		.byte	0x9f
 1235 0019 52000000 		.4byte	.LVL6
 1236 001d 6A000000 		.4byte	.LVL8
 1237 0021 0100     		.2byte	0x1
 1238 0023 50       		.byte	0x50
 1239 0024 6A000000 		.4byte	.LVL8
 1240 0028 80000000 		.4byte	.LFE112
 1241 002c 0400     		.2byte	0x4
 1242 002e F3       		.byte	0xf3
 1243 002f 01       		.uleb128 0x1
 1244 0030 50       		.byte	0x50
 1245 0031 9F       		.byte	0x9f
 1246 0032 00000000 		.4byte	0
 1247 0036 00000000 		.4byte	0
 1248              	.LLST1:
 1249 003a 00000000 		.4byte	.LVL0
 1250 003e 24000000 		.4byte	.LVL1
 1251 0042 0600     		.2byte	0x6
 1252 0044 0C       		.byte	0xc
ARM GAS  C:\Users\jsyoon\AppData\Local\Temp\ccoZvJxM.s 			page 23


 1253 0045 003C0140 		.4byte	0x40013c00
 1254 0049 9F       		.byte	0x9f
 1255 004a 24000000 		.4byte	.LVL1
 1256 004e 2A000000 		.4byte	.LVL2
 1257 0052 0E00     		.2byte	0xe
 1258 0054 70       		.byte	0x70
 1259 0055 04       		.sleb128 4
 1260 0056 94       		.byte	0x94
 1261 0057 01       		.byte	0x1
 1262 0058 08       		.byte	0x8
 1263 0059 FF       		.byte	0xff
 1264 005a 1A       		.byte	0x1a
 1265 005b 23       		.byte	0x23
 1266 005c 80F88480 		.uleb128 0x40013c00
 1266      04
 1267 0061 9F       		.byte	0x9f
 1268 0062 40000000 		.4byte	.LVL4
 1269 0066 4A000000 		.4byte	.LVL5
 1270 006a 0C00     		.2byte	0xc
 1271 006c 75       		.byte	0x75
 1272 006d 00       		.sleb128 0
 1273 006e 08       		.byte	0x8
 1274 006f FF       		.byte	0xff
 1275 0070 1A       		.byte	0x1a
 1276 0071 23       		.byte	0x23
 1277 0072 80F88480 		.uleb128 0x40013c00
 1277      04
 1278 0077 9F       		.byte	0x9f
 1279 0078 4A000000 		.4byte	.LVL5
 1280 007c 52000000 		.4byte	.LVL6
 1281 0080 1000     		.2byte	0x10
 1282 0082 73       		.byte	0x73
 1283 0083 8088FBFF 		.sleb128 -1073822720
 1283      7B
 1284 0088 08       		.byte	0x8
 1285 0089 FF       		.byte	0xff
 1286 008a 1A       		.byte	0x1a
 1287 008b 23       		.byte	0x23
 1288 008c 80F88480 		.uleb128 0x40013c00
 1288      04
 1289 0091 9F       		.byte	0x9f
 1290 0092 52000000 		.4byte	.LVL6
 1291 0096 68000000 		.4byte	.LVL7
 1292 009a 0E00     		.2byte	0xe
 1293 009c 70       		.byte	0x70
 1294 009d 04       		.sleb128 4
 1295 009e 94       		.byte	0x94
 1296 009f 01       		.byte	0x1
 1297 00a0 08       		.byte	0x8
 1298 00a1 FF       		.byte	0xff
 1299 00a2 1A       		.byte	0x1a
 1300 00a3 23       		.byte	0x23
 1301 00a4 80F88480 		.uleb128 0x40013c00
 1301      04
 1302 00a9 9F       		.byte	0x9f
 1303 00aa 68000000 		.4byte	.LVL7
 1304 00ae 6A000000 		.4byte	.LVL8
ARM GAS  C:\Users\jsyoon\AppData\Local\Temp\ccoZvJxM.s 			page 24


 1305 00b2 1000     		.2byte	0x10
 1306 00b4 73       		.byte	0x73
 1307 00b5 8088FBFF 		.sleb128 -1073822720
 1307      7B
 1308 00ba 08       		.byte	0x8
 1309 00bb FF       		.byte	0xff
 1310 00bc 1A       		.byte	0x1a
 1311 00bd 23       		.byte	0x23
 1312 00be 80F88480 		.uleb128 0x40013c00
 1312      04
 1313 00c3 9F       		.byte	0x9f
 1314 00c4 00000000 		.4byte	0
 1315 00c8 00000000 		.4byte	0
 1316              	.LLST2:
 1317 00cc 00000000 		.4byte	.LVL10
 1318 00d0 06000000 		.4byte	.LVL11
 1319 00d4 0100     		.2byte	0x1
 1320 00d6 50       		.byte	0x50
 1321 00d7 06000000 		.4byte	.LVL11
 1322 00db 10000000 		.4byte	.LFE114
 1323 00df 0400     		.2byte	0x4
 1324 00e1 F3       		.byte	0xf3
 1325 00e2 01       		.uleb128 0x1
 1326 00e3 50       		.byte	0x50
 1327 00e4 9F       		.byte	0x9f
 1328 00e5 00000000 		.4byte	0
 1329 00e9 00000000 		.4byte	0
 1330              	.LLST3:
 1331 00ed 00000000 		.4byte	.LVL12
 1332 00f1 0C000000 		.4byte	.LVL14
 1333 00f5 0100     		.2byte	0x1
 1334 00f7 50       		.byte	0x50
 1335 00f8 0C000000 		.4byte	.LVL14
 1336 00fc 14000000 		.4byte	.LFE115
 1337 0100 0400     		.2byte	0x4
 1338 0102 F3       		.byte	0xf3
 1339 0103 01       		.uleb128 0x1
 1340 0104 50       		.byte	0x50
 1341 0105 9F       		.byte	0x9f
 1342 0106 00000000 		.4byte	0
 1343 010a 00000000 		.4byte	0
 1344              	.LLST4:
 1345 010e 00000000 		.4byte	.LVL12
 1346 0112 04000000 		.4byte	.LVL13
 1347 0116 0200     		.2byte	0x2
 1348 0118 30       		.byte	0x30
 1349 0119 9F       		.byte	0x9f
 1350 011a 04000000 		.4byte	.LVL13
 1351 011e 0C000000 		.4byte	.LVL14
 1352 0122 0800     		.2byte	0x8
 1353 0124 70       		.byte	0x70
 1354 0125 00       		.sleb128 0
 1355 0126 73       		.byte	0x73
 1356 0127 00       		.sleb128 0
 1357 0128 1A       		.byte	0x1a
 1358 0129 30       		.byte	0x30
 1359 012a 2E       		.byte	0x2e
ARM GAS  C:\Users\jsyoon\AppData\Local\Temp\ccoZvJxM.s 			page 25


 1360 012b 9F       		.byte	0x9f
 1361 012c 0C000000 		.4byte	.LVL14
 1362 0130 14000000 		.4byte	.LFE115
 1363 0134 0900     		.2byte	0x9
 1364 0136 F3       		.byte	0xf3
 1365 0137 01       		.uleb128 0x1
 1366 0138 50       		.byte	0x50
 1367 0139 73       		.byte	0x73
 1368 013a 00       		.sleb128 0
 1369 013b 1A       		.byte	0x1a
 1370 013c 30       		.byte	0x30
 1371 013d 2E       		.byte	0x2e
 1372 013e 9F       		.byte	0x9f
 1373 013f 00000000 		.4byte	0
 1374 0143 00000000 		.4byte	0
 1375              	.LLST5:
 1376 0147 00000000 		.4byte	.LVL16
 1377 014b 12000000 		.4byte	.LVL18
 1378 014f 0100     		.2byte	0x1
 1379 0151 50       		.byte	0x50
 1380 0152 12000000 		.4byte	.LVL18
 1381 0156 14000000 		.4byte	.LVL19
 1382 015a 0400     		.2byte	0x4
 1383 015c F3       		.byte	0xf3
 1384 015d 01       		.uleb128 0x1
 1385 015e 50       		.byte	0x50
 1386 015f 9F       		.byte	0x9f
 1387 0160 14000000 		.4byte	.LVL19
 1388 0164 16000000 		.4byte	.LVL20
 1389 0168 0100     		.2byte	0x1
 1390 016a 50       		.byte	0x50
 1391 016b 16000000 		.4byte	.LVL20
 1392 016f 1C000000 		.4byte	.LFE117
 1393 0173 0400     		.2byte	0x4
 1394 0175 F3       		.byte	0xf3
 1395 0176 01       		.uleb128 0x1
 1396 0177 50       		.byte	0x50
 1397 0178 9F       		.byte	0x9f
 1398 0179 00000000 		.4byte	0
 1399 017d 00000000 		.4byte	0
 1400              	.LLST6:
 1401 0181 00000000 		.4byte	.LVL16
 1402 0185 16000000 		.4byte	.LVL20
 1403 0189 0200     		.2byte	0x2
 1404 018b 30       		.byte	0x30
 1405 018c 9F       		.byte	0x9f
 1406 018d 16000000 		.4byte	.LVL20
 1407 0191 1C000000 		.4byte	.LFE117
 1408 0195 0100     		.2byte	0x1
 1409 0197 50       		.byte	0x50
 1410 0198 00000000 		.4byte	0
 1411 019c 00000000 		.4byte	0
 1412              	.LLST7:
 1413 01a0 00000000 		.4byte	.LVL16
 1414 01a4 06000000 		.4byte	.LVL17
 1415 01a8 0200     		.2byte	0x2
 1416 01aa 30       		.byte	0x30
ARM GAS  C:\Users\jsyoon\AppData\Local\Temp\ccoZvJxM.s 			page 26


 1417 01ab 9F       		.byte	0x9f
 1418 01ac 06000000 		.4byte	.LVL17
 1419 01b0 12000000 		.4byte	.LVL18
 1420 01b4 0600     		.2byte	0x6
 1421 01b6 70       		.byte	0x70
 1422 01b7 00       		.sleb128 0
 1423 01b8 72       		.byte	0x72
 1424 01b9 00       		.sleb128 0
 1425 01ba 1A       		.byte	0x1a
 1426 01bb 9F       		.byte	0x9f
 1427 01bc 12000000 		.4byte	.LVL18
 1428 01c0 14000000 		.4byte	.LVL19
 1429 01c4 0700     		.2byte	0x7
 1430 01c6 F3       		.byte	0xf3
 1431 01c7 01       		.uleb128 0x1
 1432 01c8 50       		.byte	0x50
 1433 01c9 72       		.byte	0x72
 1434 01ca 00       		.sleb128 0
 1435 01cb 1A       		.byte	0x1a
 1436 01cc 9F       		.byte	0x9f
 1437 01cd 14000000 		.4byte	.LVL19
 1438 01d1 16000000 		.4byte	.LVL20
 1439 01d5 0600     		.2byte	0x6
 1440 01d7 70       		.byte	0x70
 1441 01d8 00       		.sleb128 0
 1442 01d9 72       		.byte	0x72
 1443 01da 00       		.sleb128 0
 1444 01db 1A       		.byte	0x1a
 1445 01dc 9F       		.byte	0x9f
 1446 01dd 16000000 		.4byte	.LVL20
 1447 01e1 1C000000 		.4byte	.LFE117
 1448 01e5 0700     		.2byte	0x7
 1449 01e7 F3       		.byte	0xf3
 1450 01e8 01       		.uleb128 0x1
 1451 01e9 50       		.byte	0x50
 1452 01ea 72       		.byte	0x72
 1453 01eb 00       		.sleb128 0
 1454 01ec 1A       		.byte	0x1a
 1455 01ed 9F       		.byte	0x9f
 1456 01ee 00000000 		.4byte	0
 1457 01f2 00000000 		.4byte	0
 1458              		.section	.debug_aranges,"",%progbits
 1459 0000 54000000 		.4byte	0x54
 1460 0004 0200     		.2byte	0x2
 1461 0006 00000000 		.4byte	.Ldebug_info0
 1462 000a 04       		.byte	0x4
 1463 000b 00       		.byte	0
 1464 000c 0000     		.2byte	0
 1465 000e 0000     		.2byte	0
 1466 0010 00000000 		.4byte	.LFB111
 1467 0014 1C000000 		.4byte	.LFE111-.LFB111
 1468 0018 00000000 		.4byte	.LFB112
 1469 001c 80000000 		.4byte	.LFE112-.LFB112
 1470 0020 00000000 		.4byte	.LFB113
 1471 0024 0E000000 		.4byte	.LFE113-.LFB113
 1472 0028 00000000 		.4byte	.LFB114
 1473 002c 10000000 		.4byte	.LFE114-.LFB114
ARM GAS  C:\Users\jsyoon\AppData\Local\Temp\ccoZvJxM.s 			page 27


 1474 0030 00000000 		.4byte	.LFB115
 1475 0034 14000000 		.4byte	.LFE115-.LFB115
 1476 0038 00000000 		.4byte	.LFB116
 1477 003c 0C000000 		.4byte	.LFE116-.LFB116
 1478 0040 00000000 		.4byte	.LFB117
 1479 0044 1C000000 		.4byte	.LFE117-.LFB117
 1480 0048 00000000 		.4byte	.LFB118
 1481 004c 0C000000 		.4byte	.LFE118-.LFB118
 1482 0050 00000000 		.4byte	0
 1483 0054 00000000 		.4byte	0
 1484              		.section	.debug_ranges,"",%progbits
 1485              	.Ldebug_ranges0:
 1486 0000 00000000 		.4byte	.LFB111
 1487 0004 1C000000 		.4byte	.LFE111
 1488 0008 00000000 		.4byte	.LFB112
 1489 000c 80000000 		.4byte	.LFE112
 1490 0010 00000000 		.4byte	.LFB113
 1491 0014 0E000000 		.4byte	.LFE113
 1492 0018 00000000 		.4byte	.LFB114
 1493 001c 10000000 		.4byte	.LFE114
 1494 0020 00000000 		.4byte	.LFB115
 1495 0024 14000000 		.4byte	.LFE115
 1496 0028 00000000 		.4byte	.LFB116
 1497 002c 0C000000 		.4byte	.LFE116
 1498 0030 00000000 		.4byte	.LFB117
 1499 0034 1C000000 		.4byte	.LFE117
 1500 0038 00000000 		.4byte	.LFB118
 1501 003c 0C000000 		.4byte	.LFE118
 1502 0040 00000000 		.4byte	0
 1503 0044 00000000 		.4byte	0
 1504              		.section	.debug_line,"",%progbits
 1505              	.Ldebug_line0:
 1506 0000 88020000 		.section	.debug_str,"MS",%progbits,1
 1506      0200AC01 
 1506      00000201 
 1506      FB0E0D00 
 1506      01010101 
 1507              	.LASF31:
 1508 0000 45585449 		.ascii	"EXTI_Line\000"
 1508      5F4C696E 
 1508      6500
 1509              	.LASF32:
 1510 000a 45585449 		.ascii	"EXTI_Mode\000"
 1510      5F4D6F64 
 1510      6500
 1511              	.LASF16:
 1512 0014 49545374 		.ascii	"ITStatus\000"
 1512      61747573 
 1512      00
 1513              	.LASF46:
 1514 001d 474E5520 		.ascii	"GNU C 4.8.4 20140526 (release) [ARM/embedded-4_8-br"
 1514      4320342E 
 1514      382E3420 
 1514      32303134 
 1514      30353236 
 1515 0050 616E6368 		.ascii	"anch revision 211358] -mcpu=cortex-m4 -mfloat-abi=h"
 1515      20726576 
ARM GAS  C:\Users\jsyoon\AppData\Local\Temp\ccoZvJxM.s 			page 28


 1515      6973696F 
 1515      6E203231 
 1515      31333538 
 1516 0083 61726420 		.ascii	"ard -mfpu=fpv4-sp-d16 -mno-thumb-interwork -mthumb "
 1516      2D6D6670 
 1516      753D6670 
 1516      76342D73 
 1516      702D6431 
 1517 00b6 2D676764 		.ascii	"-ggdb -O2 -std=gnu99 -fomit-frame-pointer -falign-f"
 1517      62202D4F 
 1517      32202D73 
 1517      74643D67 
 1517      6E753939 
 1518 00e9 756E6374 		.ascii	"unctions=16 -ffunction-sections -fdata-sections -fn"
 1518      696F6E73 
 1518      3D313620 
 1518      2D666675 
 1518      6E637469 
 1519 011c 6F2D636F 		.ascii	"o-common -fsingle-precision-constant\000"
 1519      6D6D6F6E 
 1519      202D6673 
 1519      696E676C 
 1519      652D7072 
 1520              	.LASF44:
 1521 0141 656E6162 		.ascii	"enablestatus\000"
 1521      6C657374 
 1521      61747573 
 1521      00
 1522              	.LASF34:
 1523 014e 45585449 		.ascii	"EXTI_LineCmd\000"
 1523      5F4C696E 
 1523      65436D64 
 1523      00
 1524              	.LASF33:
 1525 015b 45585449 		.ascii	"EXTI_Trigger\000"
 1525      5F547269 
 1525      67676572 
 1525      00
 1526              	.LASF5:
 1527 0168 5F5F696E 		.ascii	"__int32_t\000"
 1527      7433325F 
 1527      7400
 1528              	.LASF25:
 1529 0172 45585449 		.ascii	"EXTI_Mode_Event\000"
 1529      5F4D6F64 
 1529      655F4576 
 1529      656E7400 
 1530              	.LASF3:
 1531 0182 73686F72 		.ascii	"short unsigned int\000"
 1531      7420756E 
 1531      7369676E 
 1531      65642069 
 1531      6E7400
 1532              	.LASF19:
 1533 0195 46756E63 		.ascii	"FunctionalState\000"
 1533      74696F6E 
 1533      616C5374 
ARM GAS  C:\Users\jsyoon\AppData\Local\Temp\ccoZvJxM.s 			page 29


 1533      61746500 
 1534              	.LASF40:
 1535 01a5 62697473 		.ascii	"bitstatus\000"
 1535      74617475 
 1535      7300
 1536              	.LASF39:
 1537 01af 45585449 		.ascii	"EXTI_GenerateSWInterrupt\000"
 1537      5F47656E 
 1537      65726174 
 1537      65535749 
 1537      6E746572 
 1538              	.LASF35:
 1539 01c8 45585449 		.ascii	"EXTI_InitTypeDef\000"
 1539      5F496E69 
 1539      74547970 
 1539      65446566 
 1539      00
 1540              	.LASF38:
 1541 01d9 45585449 		.ascii	"EXTI_InitStruct\000"
 1541      5F496E69 
 1541      74537472 
 1541      75637400 
 1542              	.LASF18:
 1543 01e9 454E4142 		.ascii	"ENABLE\000"
 1543      4C4500
 1544              	.LASF24:
 1545 01f0 45585449 		.ascii	"EXTI_Mode_Interrupt\000"
 1545      5F4D6F64 
 1545      655F496E 
 1545      74657272 
 1545      75707400 
 1546              	.LASF1:
 1547 0204 756E7369 		.ascii	"unsigned char\000"
 1547      676E6564 
 1547      20636861 
 1547      7200
 1548              	.LASF15:
 1549 0212 466C6167 		.ascii	"FlagStatus\000"
 1549      53746174 
 1549      757300
 1550              	.LASF41:
 1551 021d 45585449 		.ascii	"EXTI_ClearFlag\000"
 1551      5F436C65 
 1551      6172466C 
 1551      616700
 1552              	.LASF7:
 1553 022c 6C6F6E67 		.ascii	"long unsigned int\000"
 1553      20756E73 
 1553      69676E65 
 1553      6420696E 
 1553      7400
 1554              	.LASF14:
 1555 023e 52455345 		.ascii	"RESET\000"
 1555      5400
 1556              	.LASF26:
 1557 0244 45585449 		.ascii	"EXTIMode_TypeDef\000"
 1557      4D6F6465 
ARM GAS  C:\Users\jsyoon\AppData\Local\Temp\ccoZvJxM.s 			page 30


 1557      5F547970 
 1557      65446566 
 1557      00
 1558              	.LASF23:
 1559 0255 45585449 		.ascii	"EXTI_TypeDef\000"
 1559      5F547970 
 1559      65446566 
 1559      00
 1560              	.LASF17:
 1561 0262 44495341 		.ascii	"DISABLE\000"
 1561      424C4500 
 1562              	.LASF50:
 1563 026a 49544D5F 		.ascii	"ITM_RxBuffer\000"
 1563      52784275 
 1563      66666572 
 1563      00
 1564              	.LASF20:
 1565 0277 52545352 		.ascii	"RTSR\000"
 1565      00
 1566              	.LASF12:
 1567 027c 75696E74 		.ascii	"uint32_t\000"
 1567      33325F74 
 1567      00
 1568              	.LASF6:
 1569 0285 5F5F7569 		.ascii	"__uint32_t\000"
 1569      6E743332 
 1569      5F7400
 1570              	.LASF27:
 1571 0290 45585449 		.ascii	"EXTI_Trigger_Rising\000"
 1571      5F547269 
 1571      67676572 
 1571      5F526973 
 1571      696E6700 
 1572              	.LASF29:
 1573 02a4 45585449 		.ascii	"EXTI_Trigger_Rising_Falling\000"
 1573      5F547269 
 1573      67676572 
 1573      5F526973 
 1573      696E675F 
 1574              	.LASF10:
 1575 02c0 756E7369 		.ascii	"unsigned int\000"
 1575      676E6564 
 1575      20696E74 
 1575      00
 1576              	.LASF36:
 1577 02cd 45585449 		.ascii	"EXTI_Init\000"
 1577      5F496E69 
 1577      7400
 1578              	.LASF42:
 1579 02d7 45585449 		.ascii	"EXTI_GetFlagStatus\000"
 1579      5F476574 
 1579      466C6167 
 1579      53746174 
 1579      757300
 1580              	.LASF9:
 1581 02ea 6C6F6E67 		.ascii	"long long unsigned int\000"
 1581      206C6F6E 
ARM GAS  C:\Users\jsyoon\AppData\Local\Temp\ccoZvJxM.s 			page 31


 1581      6720756E 
 1581      7369676E 
 1581      65642069 
 1582              	.LASF47:
 1583 0301 43686962 		.ascii	"ChibiOS_2.6.6/ext/stdperiph_stm32f4/src/stm32f4xx_e"
 1583      694F535F 
 1583      322E362E 
 1583      362F6578 
 1583      742F7374 
 1584 0334 7874692E 		.ascii	"xti.c\000"
 1584      6300
 1585              	.LASF37:
 1586 033a 45585449 		.ascii	"EXTI_StructInit\000"
 1586      5F537472 
 1586      75637449 
 1586      6E697400 
 1587              	.LASF11:
 1588 034a 696E7433 		.ascii	"int32_t\000"
 1588      325F7400 
 1589              	.LASF13:
 1590 0352 73697A65 		.ascii	"sizetype\000"
 1590      74797065 
 1590      00
 1591              	.LASF8:
 1592 035b 6C6F6E67 		.ascii	"long long int\000"
 1592      206C6F6E 
 1592      6720696E 
 1592      7400
 1593              	.LASF48:
 1594 0369 453A5C4D 		.ascii	"E:\\Maker\\BLDC\\test_eval\\try2\\OROCA-BLDC_R15080"
 1594      616B6572 
 1594      5C424C44 
 1594      435C7465 
 1594      73745F65 
 1595 0397 3700     		.ascii	"7\000"
 1596              	.LASF43:
 1597 0399 45585449 		.ascii	"EXTI_GetITStatus\000"
 1597      5F476574 
 1597      49545374 
 1597      61747573 
 1597      00
 1598              	.LASF45:
 1599 03aa 45585449 		.ascii	"EXTI_ClearITPendingBit\000"
 1599      5F436C65 
 1599      61724954 
 1599      50656E64 
 1599      696E6742 
 1600              	.LASF2:
 1601 03c1 73686F72 		.ascii	"short int\000"
 1601      7420696E 
 1601      7400
 1602              	.LASF28:
 1603 03cb 45585449 		.ascii	"EXTI_Trigger_Falling\000"
 1603      5F547269 
 1603      67676572 
 1603      5F46616C 
 1603      6C696E67 
ARM GAS  C:\Users\jsyoon\AppData\Local\Temp\ccoZvJxM.s 			page 32


 1604              	.LASF21:
 1605 03e0 46545352 		.ascii	"FTSR\000"
 1605      00
 1606              	.LASF4:
 1607 03e5 6C6F6E67 		.ascii	"long int\000"
 1607      20696E74 
 1607      00
 1608              	.LASF0:
 1609 03ee 7369676E 		.ascii	"signed char\000"
 1609      65642063 
 1609      68617200 
 1610              	.LASF30:
 1611 03fa 45585449 		.ascii	"EXTITrigger_TypeDef\000"
 1611      54726967 
 1611      6765725F 
 1611      54797065 
 1611      44656600 
 1612              	.LASF22:
 1613 040e 53574945 		.ascii	"SWIER\000"
 1613      5200
 1614              	.LASF49:
 1615 0414 45585449 		.ascii	"EXTI_DeInit\000"
 1615      5F446549 
 1615      6E697400 
 1616              		.ident	"GCC: (GNU Tools for ARM Embedded Processors) 4.8.4 20140526 (release) [ARM/embedded-4_8-br
ARM GAS  C:\Users\jsyoon\AppData\Local\Temp\ccoZvJxM.s 			page 33


DEFINED SYMBOLS
                            *ABS*:00000000 stm32f4xx_exti.c
C:\Users\jsyoon\AppData\Local\Temp\ccoZvJxM.s:21     .text.EXTI_DeInit:00000000 $t
C:\Users\jsyoon\AppData\Local\Temp\ccoZvJxM.s:27     .text.EXTI_DeInit:00000000 EXTI_DeInit
C:\Users\jsyoon\AppData\Local\Temp\ccoZvJxM.s:54     .text.EXTI_DeInit:00000014 $d
C:\Users\jsyoon\AppData\Local\Temp\ccoZvJxM.s:60     .text.EXTI_Init:00000000 $t
C:\Users\jsyoon\AppData\Local\Temp\ccoZvJxM.s:66     .text.EXTI_Init:00000000 EXTI_Init
C:\Users\jsyoon\AppData\Local\Temp\ccoZvJxM.s:173    .text.EXTI_Init:0000007c $d
C:\Users\jsyoon\AppData\Local\Temp\ccoZvJxM.s:178    .text.EXTI_StructInit:00000000 $t
C:\Users\jsyoon\AppData\Local\Temp\ccoZvJxM.s:184    .text.EXTI_StructInit:00000000 EXTI_StructInit
C:\Users\jsyoon\AppData\Local\Temp\ccoZvJxM.s:208    .text.EXTI_GenerateSWInterrupt:00000000 $t
C:\Users\jsyoon\AppData\Local\Temp\ccoZvJxM.s:214    .text.EXTI_GenerateSWInterrupt:00000000 EXTI_GenerateSWInterrupt
C:\Users\jsyoon\AppData\Local\Temp\ccoZvJxM.s:232    .text.EXTI_GenerateSWInterrupt:0000000c $d
C:\Users\jsyoon\AppData\Local\Temp\ccoZvJxM.s:237    .text.EXTI_GetFlagStatus:00000000 $t
C:\Users\jsyoon\AppData\Local\Temp\ccoZvJxM.s:243    .text.EXTI_GetFlagStatus:00000000 EXTI_GetFlagStatus
C:\Users\jsyoon\AppData\Local\Temp\ccoZvJxM.s:265    .text.EXTI_GetFlagStatus:00000010 $d
C:\Users\jsyoon\AppData\Local\Temp\ccoZvJxM.s:270    .text.EXTI_ClearFlag:00000000 $t
C:\Users\jsyoon\AppData\Local\Temp\ccoZvJxM.s:276    .text.EXTI_ClearFlag:00000000 EXTI_ClearFlag
C:\Users\jsyoon\AppData\Local\Temp\ccoZvJxM.s:291    .text.EXTI_ClearFlag:00000008 $d
C:\Users\jsyoon\AppData\Local\Temp\ccoZvJxM.s:296    .text.EXTI_GetITStatus:00000000 $t
C:\Users\jsyoon\AppData\Local\Temp\ccoZvJxM.s:302    .text.EXTI_GetITStatus:00000000 EXTI_GetITStatus
C:\Users\jsyoon\AppData\Local\Temp\ccoZvJxM.s:336    .text.EXTI_GetITStatus:00000018 $d
C:\Users\jsyoon\AppData\Local\Temp\ccoZvJxM.s:341    .text.EXTI_ClearITPendingBit:00000000 $t
C:\Users\jsyoon\AppData\Local\Temp\ccoZvJxM.s:347    .text.EXTI_ClearITPendingBit:00000000 EXTI_ClearITPendingBit
C:\Users\jsyoon\AppData\Local\Temp\ccoZvJxM.s:362    .text.EXTI_ClearITPendingBit:00000008 $d
                     .debug_frame:00000010 $d
C:\Users\jsyoon\AppData\Local\Temp\ccoZvJxM.s:59     .text.EXTI_DeInit:0000001c $t
C:\Users\jsyoon\AppData\Local\Temp\ccoZvJxM.s:269    .text.EXTI_GetFlagStatus:00000014 $t
C:\Users\jsyoon\AppData\Local\Temp\ccoZvJxM.s:295    .text.EXTI_ClearFlag:0000000c $t
C:\Users\jsyoon\AppData\Local\Temp\ccoZvJxM.s:340    .text.EXTI_GetITStatus:0000001c $t
C:\Users\jsyoon\AppData\Local\Temp\ccoZvJxM.s:366    .text.EXTI_ClearITPendingBit:0000000c $t

NO UNDEFINED SYMBOLS
