ARM GAS  C:\Users\jsyoon\AppData\Local\Temp\ccMFir12.s 			page 1


   1              		.syntax unified
   2              		.cpu cortex-m4
   3              		.eabi_attribute 27, 3
   4              		.eabi_attribute 28, 1
   5              		.fpu fpv4-sp-d16
   6              		.eabi_attribute 20, 1
   7              		.eabi_attribute 21, 1
   8              		.eabi_attribute 23, 3
   9              		.eabi_attribute 24, 1
  10              		.eabi_attribute 25, 1
  11              		.eabi_attribute 26, 1
  12              		.eabi_attribute 30, 2
  13              		.eabi_attribute 34, 1
  14              		.eabi_attribute 18, 4
  15              		.thumb
  16              		.file	"terminal.c"
  17              		.text
  18              	.Ltext0:
  19              		.cfi_sections	.debug_frame
  20              		.global	__aeabi_f2d
  21              		.section	.text.terminal_process_string,"ax",%progbits
  22              		.align	2
  23              		.p2align 4,,15
  24              		.global	terminal_process_string
  25              		.thumb
  26              		.thumb_func
  27              		.type	terminal_process_string, %function
  28              	terminal_process_string:
  29              	.LFB118:
  30              		.file 1 "terminal.c"
  31              		.loc 1 42 0
  32              		.cfi_startproc
  33              		@ args = 0, pretend = 0, frame = 304
  34              		@ frame_needed = 0, uses_anonymous_args = 0
  35              	.LVL0:
  36 0000 2DE9F041 		push	{r4, r5, r6, r7, r8, lr}
  37              		.cfi_def_cfa_offset 24
  38              		.cfi_offset 4, -24
  39              		.cfi_offset 5, -20
  40              		.cfi_offset 6, -16
  41              		.cfi_offset 7, -12
  42              		.cfi_offset 8, -8
  43              		.cfi_offset 14, -4
  44 0004 2DED028B 		fstmfdd	sp!, {d8}
  45              		.cfi_def_cfa_offset 32
  46              		.cfi_offset 80, -32
  47              		.loc 1 47 0
  48 0008 9B49     		ldr	r1, .L80
  49              		.loc 1 42 0
  50 000a D0B0     		sub	sp, sp, #320
  51              		.cfi_def_cfa_offset 352
  52              		.loc 1 47 0
  53 000c FFF7FEFF 		bl	strtok
  54              	.LVL1:
  55              		.loc 1 48 0
  56 0010 0346     		mov	r3, r0
  57 0012 0028     		cmp	r0, #0
ARM GAS  C:\Users\jsyoon\AppData\Local\Temp\ccMFir12.s 			page 2


  58 0014 51D0     		beq	.L66
  59 0016 0FAC     		add	r4, sp, #60
  60              		.loc 1 44 0
  61 0018 0025     		movs	r5, #0
  62 001a 01E0     		b	.L5
  63              	.LVL2:
  64              	.L67:
  65              		.loc 1 48 0 discriminator 2
  66 001c 402D     		cmp	r5, #64
  67 001e 09D0     		beq	.L4
  68              	.LVL3:
  69              	.L5:
  70              		.loc 1 49 0
  71 0020 44F8043F 		str	r3, [r4, #4]!
  72              		.loc 1 50 0
  73 0024 0020     		movs	r0, #0
  74 0026 9449     		ldr	r1, .L80
  75 0028 FFF7FEFF 		bl	strtok
  76              	.LVL4:
  77              		.loc 1 49 0
  78 002c 0135     		adds	r5, r5, #1
  79              	.LVL5:
  80              		.loc 1 48 0
  81 002e 0346     		mov	r3, r0
  82 0030 0028     		cmp	r0, #0
  83 0032 F3D1     		bne	.L67
  84              	.L4:
  85              		.loc 1 58 0
  86 0034 109E     		ldr	r6, [sp, #64]
  87 0036 9149     		ldr	r1, .L80+4
  88 0038 3046     		mov	r0, r6
  89              	.LVL6:
  90 003a FFF7FEFF 		bl	strcmp
  91              	.LVL7:
  92 003e 0028     		cmp	r0, #0
  93 0040 33D0     		beq	.L68
  94              		.loc 1 60 0
  95 0042 3046     		mov	r0, r6
  96 0044 8E49     		ldr	r1, .L80+8
  97 0046 FFF7FEFF 		bl	strcmp
  98              	.LVL8:
  99 004a 0028     		cmp	r0, #0
 100 004c 3DD0     		beq	.L69
 101              		.loc 1 63 0
 102 004e 3046     		mov	r0, r6
 103 0050 8C49     		ldr	r1, .L80+12
 104 0052 FFF7FEFF 		bl	strcmp
 105              	.LVL9:
 106 0056 18B3     		cbz	r0, .L1
 107              		.loc 1 67 0
 108 0058 3046     		mov	r0, r6
 109 005a 8B49     		ldr	r1, .L80+16
 110 005c FFF7FEFF 		bl	strcmp
 111              	.LVL10:
 112 0060 F0B1     		cbz	r0, .L1
 113              		.loc 1 69 0
 114 0062 3046     		mov	r0, r6
ARM GAS  C:\Users\jsyoon\AppData\Local\Temp\ccMFir12.s 			page 3


 115 0064 8949     		ldr	r1, .L80+20
 116 0066 FFF7FEFF 		bl	strcmp
 117              	.LVL11:
 118 006a 0028     		cmp	r0, #0
 119 006c 3ED0     		beq	.L70
 120              		.loc 1 75 0
 121 006e 3046     		mov	r0, r6
 122 0070 8749     		ldr	r1, .L80+24
 123 0072 FFF7FEFF 		bl	strcmp
 124              	.LVL12:
 125 0076 0028     		cmp	r0, #0
 126 0078 4BD0     		beq	.L71
 127              		.loc 1 89 0
 128 007a 3046     		mov	r0, r6
 129 007c 8549     		ldr	r1, .L80+28
 130 007e FFF7FEFF 		bl	strcmp
 131              	.LVL13:
 132 0082 50B3     		cbz	r0, .L72
 133              		.loc 1 91 0
 134 0084 3046     		mov	r0, r6
 135 0086 8449     		ldr	r1, .L80+32
 136 0088 FFF7FEFF 		bl	strcmp
 137              	.LVL14:
 138 008c 0028     		cmp	r0, #0
 139 008e 65D1     		bne	.L16
 140              		.loc 1 92 0
 141 0090 824D     		ldr	r5, .L80+36
 142              	.LVL15:
 143 0092 2B68     		ldr	r3, [r5]
 144 0094 002B     		cmp	r3, #0
 145 0096 40F08980 		bne	.L17
 146              		.loc 1 93 0
 147 009a 8148     		ldr	r0, .L80+40
 148 009c FFF7FEFF 		bl	commands_printf
 149              	.LVL16:
 150              	.L1:
 151              		.loc 1 265 0
 152 00a0 50B0     		add	sp, sp, #320
 153              		@ sp needed
 154 00a2 BDEC028B 		fldmfdd	sp!, {d8}
 155 00a6 BDE8F081 		pop	{r4, r5, r6, r7, r8, pc}
 156              	.LVL17:
 157              	.L68:
 158              		.loc 1 59 0
 159 00aa 7E48     		ldr	r0, .L80+44
 160 00ac FFF7FEFF 		bl	commands_printf
 161              	.LVL18:
 162              		.loc 1 265 0
 163 00b0 50B0     		add	sp, sp, #320
 164              		@ sp needed
 165 00b2 BDEC028B 		fldmfdd	sp!, {d8}
 166 00b6 BDE8F081 		pop	{r4, r5, r6, r7, r8, pc}
 167              	.LVL19:
 168              	.L66:
 169              		.loc 1 54 0
 170 00ba 7B48     		ldr	r0, .L80+48
 171              	.LVL20:
ARM GAS  C:\Users\jsyoon\AppData\Local\Temp\ccMFir12.s 			page 4


 172 00bc FFF7FEFF 		bl	commands_printf
 173              	.LVL21:
 174              		.loc 1 265 0
 175 00c0 50B0     		add	sp, sp, #320
 176              		@ sp needed
 177 00c2 BDEC028B 		fldmfdd	sp!, {d8}
 178 00c6 BDE8F081 		pop	{r4, r5, r6, r7, r8, pc}
 179              	.LVL22:
 180              	.L69:
 181              		.loc 1 62 0
 182 00ca 7848     		ldr	r0, .L80+52
 183 00cc FFF7FEFF 		bl	commands_printf
 184              	.LVL23:
 185              		.loc 1 265 0
 186 00d0 50B0     		add	sp, sp, #320
 187              		@ sp needed
 188 00d2 BDEC028B 		fldmfdd	sp!, {d8}
 189 00d6 BDE8F081 		pop	{r4, r5, r6, r7, r8, pc}
 190              	.LVL24:
 191              	.L72:
 192              		.loc 1 90 0
 193 00da FFF7FEFF 		bl	mcpwm_get_fault
 194              	.LVL25:
 195 00de FFF7FEFF 		bl	mcpwm_fault_to_string
 196              	.LVL26:
 197 00e2 0146     		mov	r1, r0
 198 00e4 7248     		ldr	r0, .L80+56
 199 00e6 FFF7FEFF 		bl	commands_printf
 200              	.LVL27:
 201 00ea D9E7     		b	.L1
 202              	.L70:
 203              	.LBB2:
 204              		.loc 1 71 0
 205 00ec 09A9     		add	r1, sp, #36
 206 00ee FFF7FEFF 		bl	chHeapStatus
 207              	.LVL28:
 208 00f2 0446     		mov	r4, r0
 209              	.LVL29:
 210              		.loc 1 72 0
 211 00f4 FFF7FEFF 		bl	chCoreStatus
 212              	.LVL30:
 213 00f8 0146     		mov	r1, r0
 214 00fa 6E48     		ldr	r0, .L80+60
 215 00fc FFF7FEFF 		bl	commands_printf
 216              	.LVL31:
 217              		.loc 1 73 0
 218 0100 2146     		mov	r1, r4
 219 0102 6D48     		ldr	r0, .L80+64
 220 0104 FFF7FEFF 		bl	commands_printf
 221              	.LVL32:
 222              		.loc 1 74 0
 223 0108 0999     		ldr	r1, [sp, #36]
 224 010a 6C48     		ldr	r0, .L80+68
 225 010c FFF7FEFF 		bl	commands_printf
 226              	.LVL33:
 227              	.LBE2:
 228 0110 C6E7     		b	.L1
ARM GAS  C:\Users\jsyoon\AppData\Local\Temp\ccMFir12.s 			page 5


 229              	.LVL34:
 230              	.L71:
 231              	.LBB3:
 232              		.loc 1 78 0
 233 0112 6B48     		ldr	r0, .L80+72
 234 0114 6B4E     		ldr	r6, .L80+76
 235 0116 FFF7FEFF 		bl	commands_printf
 236              	.LVL35:
 237              		.loc 1 79 0
 238 011a 6B48     		ldr	r0, .L80+80
 239 011c FFF7FEFF 		bl	commands_printf
 240              	.LVL36:
 241              		.loc 1 80 0
 242 0120 FFF7FEFF 		bl	chRegFirstThread
 243              	.LVL37:
 244 0124 0446     		mov	r4, r0
 245              	.LVL38:
 246              	.L14:
 247              		.loc 1 84 0 discriminator 1
 248 0126 A17F     		ldrb	r1, [r4, #30]	@ zero_extendqisi2
 249              		.loc 1 82 0 discriminator 1
 250 0128 E268     		ldr	r2, [r4, #12]
 251 012a A368     		ldr	r3, [r4, #8]
 252 012c 256A     		ldr	r5, [r4, #32]
 253 012e 6748     		ldr	r0, .L80+84
 254              	.LVL39:
 255              		.loc 1 84 0 discriminator 1
 256 0130 0139     		subs	r1, r1, #1
 257              		.loc 1 82 0 discriminator 1
 258 0132 0091     		str	r1, [sp]
 259 0134 217F     		ldrb	r1, [r4, #28]	@ zero_extendqisi2
 260 0136 56F82110 		ldr	r1, [r6, r1, lsl #2]
 261 013a 0191     		str	r1, [sp, #4]
 262 013c A169     		ldr	r1, [r4, #24]
 263 013e 0291     		str	r1, [sp, #8]
 264 0140 0395     		str	r5, [sp, #12]
 265 0142 2146     		mov	r1, r4
 266 0144 FFF7FEFF 		bl	commands_printf
 267              	.LVL40:
 268              		.loc 1 86 0 discriminator 1
 269 0148 2046     		mov	r0, r4
 270 014a FFF7FEFF 		bl	chRegNextThread
 271              	.LVL41:
 272              		.loc 1 87 0 discriminator 1
 273 014e 0446     		mov	r4, r0
 274 0150 0028     		cmp	r0, #0
 275 0152 E8D1     		bne	.L14
 276              		.loc 1 88 0
 277 0154 5E48     		ldr	r0, .L80+88
 278              	.LVL42:
 279 0156 FFF7FEFF 		bl	commands_printf
 280              	.LVL43:
 281              	.LBE3:
 282 015a A1E7     		b	.L1
 283              	.LVL44:
 284              	.L16:
 285              		.loc 1 110 0
ARM GAS  C:\Users\jsyoon\AppData\Local\Temp\ccMFir12.s 			page 6


 286 015c 3046     		mov	r0, r6
 287 015e 5D49     		ldr	r1, .L80+92
 288 0160 FFF7FEFF 		bl	strcmp
 289              	.LVL45:
 290 0164 0028     		cmp	r0, #0
 291 0166 7AD0     		beq	.L73
 292              		.loc 1 112 0
 293 0168 3046     		mov	r0, r6
 294 016a 5B49     		ldr	r1, .L80+96
 295 016c FFF7FEFF 		bl	strcmp
 296              	.LVL46:
 297 0170 0028     		cmp	r0, #0
 298 0172 95D0     		beq	.L1
 299              		.loc 1 114 0
 300 0174 3046     		mov	r0, r6
 301 0176 5949     		ldr	r1, .L80+100
 302 0178 FFF7FEFF 		bl	strcmp
 303              	.LVL47:
 304 017c 0028     		cmp	r0, #0
 305 017e 00F0D180 		beq	.L74
 306              		.loc 1 131 0
 307 0182 3046     		mov	r0, r6
 308 0184 5649     		ldr	r1, .L80+104
 309 0186 FFF7FEFF 		bl	strcmp
 310              	.LVL48:
 311 018a 0028     		cmp	r0, #0
 312 018c 00F02F81 		beq	.L75
 313              		.loc 1 133 0
 314 0190 3046     		mov	r0, r6
 315 0192 5449     		ldr	r1, .L80+108
 316 0194 FFF7FEFF 		bl	strcmp
 317              	.LVL49:
 318 0198 0028     		cmp	r0, #0
 319 019a 40F0EE80 		bne	.L22
 320              		.loc 1 135 0
 321 019e 042D     		cmp	r5, #4
 322 01a0 00F03D81 		beq	.L76
 323              	.L23:
 324              		.loc 1 161 0
 325 01a4 5048     		ldr	r0, .L80+112
 326 01a6 FFF7FEFF 		bl	commands_printf
 327              	.LVL50:
 328 01aa 79E7     		b	.L1
 329              	.LVL51:
 330              	.L17:
 331              		.loc 1 95 0
 332 01ac 4F48     		ldr	r0, .L80+116
 333 01ae FFF7FEFF 		bl	commands_printf
 334              	.LVL52:
 335              	.LBB4:
 336              		.loc 1 96 0
 337 01b2 2B68     		ldr	r3, [r5]
 338 01b4 002B     		cmp	r3, #0
 339 01b6 7FF773AF 		ble	.L1
 340 01ba 4D4E     		ldr	r6, .L80+120
 341 01bc 0024     		movs	r4, #0
 342              	.LVL53:
ARM GAS  C:\Users\jsyoon\AppData\Local\Temp\ccMFir12.s 			page 7


 343              	.L18:
 344              		.loc 1 97 0 discriminator 2
 345 01be 2C23     		movs	r3, #44
 346 01c0 03FB04F3 		mul	r3, r3, r4
 347 01c4 F718     		adds	r7, r6, r3
 348 01c6 F05C     		ldrb	r0, [r6, r3]	@ zero_extendqisi2
 349 01c8 FFF7FEFF 		bl	mcpwm_fault_to_string
 350              	.LVL54:
 351 01cc 0146     		mov	r1, r0
 352 01ce 4948     		ldr	r0, .L80+124
 353 01d0 FFF7FEFF 		bl	commands_printf
 354              	.LVL55:
 355              		.loc 1 98 0 discriminator 2
 356 01d4 7868     		ldr	r0, [r7, #4]	@ float
 357 01d6 FFF7FEFF 		bl	__aeabi_f2d
 358              	.LVL56:
 359 01da 0246     		mov	r2, r0
 360 01dc 0B46     		mov	r3, r1
 361 01de 4648     		ldr	r0, .L80+128
 362 01e0 FFF7FEFF 		bl	commands_printf
 363              	.LVL57:
 364              		.loc 1 99 0 discriminator 2
 365 01e4 B868     		ldr	r0, [r7, #8]	@ float
 366 01e6 FFF7FEFF 		bl	__aeabi_f2d
 367              	.LVL58:
 368 01ea 0246     		mov	r2, r0
 369 01ec 0B46     		mov	r3, r1
 370 01ee 4348     		ldr	r0, .L80+132
 371 01f0 FFF7FEFF 		bl	commands_printf
 372              	.LVL59:
 373              		.loc 1 100 0 discriminator 2
 374 01f4 F868     		ldr	r0, [r7, #12]	@ float
 375 01f6 FFF7FEFF 		bl	__aeabi_f2d
 376              	.LVL60:
 377 01fa 0246     		mov	r2, r0
 378 01fc 0B46     		mov	r3, r1
 379 01fe 4048     		ldr	r0, .L80+136
 380 0200 FFF7FEFF 		bl	commands_printf
 381              	.LVL61:
 382              		.loc 1 101 0 discriminator 2
 383 0204 3869     		ldr	r0, [r7, #16]	@ float
 384 0206 FFF7FEFF 		bl	__aeabi_f2d
 385              	.LVL62:
 386 020a 0246     		mov	r2, r0
 387 020c 0B46     		mov	r3, r1
 388 020e 3D48     		ldr	r0, .L80+140
 389 0210 FFF7FEFF 		bl	commands_printf
 390              	.LVL63:
 391              		.loc 1 102 0 discriminator 2
 392 0214 7869     		ldr	r0, [r7, #20]	@ float
 393 0216 FFF7FEFF 		bl	__aeabi_f2d
 394              	.LVL64:
 395 021a 0246     		mov	r2, r0
 396 021c 0B46     		mov	r3, r1
 397 021e 3A48     		ldr	r0, .L80+144
 398 0220 FFF7FEFF 		bl	commands_printf
 399              	.LVL65:
ARM GAS  C:\Users\jsyoon\AppData\Local\Temp\ccMFir12.s 			page 8


 400              		.loc 1 103 0 discriminator 2
 401 0224 B969     		ldr	r1, [r7, #24]
 402 0226 3948     		ldr	r0, .L80+148
 403 0228 FFF7FEFF 		bl	commands_printf
 404              	.LVL66:
 405              		.loc 1 104 0 discriminator 2
 406 022c F969     		ldr	r1, [r7, #28]
 407 022e 3848     		ldr	r0, .L80+152
 408 0230 FFF7FEFF 		bl	commands_printf
 409              	.LVL67:
 410              		.loc 1 105 0 discriminator 2
 411 0234 396A     		ldr	r1, [r7, #32]
 412 0236 3748     		ldr	r0, .L80+156
 413 0238 FFF7FEFF 		bl	commands_printf
 414              	.LVL68:
 415              		.loc 1 106 0 discriminator 2
 416 023c 796A     		ldr	r1, [r7, #36]
 417 023e 3648     		ldr	r0, .L80+160
 418 0240 FFF7FEFF 		bl	commands_printf
 419              	.LVL69:
 420              		.loc 1 107 0 discriminator 2
 421 0244 B86A     		ldr	r0, [r7, #40]	@ float
 422 0246 FFF7FEFF 		bl	__aeabi_f2d
 423              	.LVL70:
 424 024a 0246     		mov	r2, r0
 425 024c 0B46     		mov	r3, r1
 426 024e 3348     		ldr	r0, .L80+164
 427 0250 FFF7FEFF 		bl	commands_printf
 428              	.LVL71:
 429              		.loc 1 96 0 discriminator 2
 430 0254 2B68     		ldr	r3, [r5]
 431 0256 0134     		adds	r4, r4, #1
 432              	.LVL72:
 433 0258 A342     		cmp	r3, r4
 434 025a B0DC     		bgt	.L18
 435 025c 20E7     		b	.L1
 436              	.LVL73:
 437              	.L73:
 438              	.LBE4:
 439              		.loc 1 111 0
 440 025e FFF7FEFF 		bl	mcpwm_get_rpm
 441              	.LVL74:
 442 0262 10EE100A 		fmrs	r0, s0
 443 0266 FFF7FEFF 		bl	__aeabi_f2d
 444              	.LVL75:
 445 026a 0246     		mov	r2, r0
 446 026c 0B46     		mov	r3, r1
 447 026e 2C48     		ldr	r0, .L80+168
 448 0270 FFF7FEFF 		bl	commands_printf
 449              	.LVL76:
 450 0274 14E7     		b	.L1
 451              	.L81:
 452 0276 00BF     		.align	2
 453              	.L80:
 454 0278 00000000 		.word	.LC0
 455 027c 1C000000 		.word	.LC2
 456 0280 2C000000 		.word	.LC4
ARM GAS  C:\Users\jsyoon\AppData\Local\Temp\ccMFir12.s 			page 9


 457 0284 44000000 		.word	.LC6
 458 0288 58000000 		.word	.LC7
 459 028c 5C000000 		.word	.LC8
 460 0290 B4000000 		.word	.LC12
 461 0294 64010000 		.word	.LC17
 462 0298 70010000 		.word	.LC19
 463 029c 00000000 		.word	.LANCHOR1
 464 02a0 78010000 		.word	.LC20
 465 02a4 24000000 		.word	.LC3
 466 02a8 04000000 		.word	.LC1
 467 02ac 34000000 		.word	.LC5
 468 02b0 6C010000 		.word	.LC18
 469 02b4 60000000 		.word	.LC9
 470 02b8 7C000000 		.word	.LC10
 471 02bc 94000000 		.word	.LC11
 472 02c0 BC000000 		.word	.LC13
 473 02c4 00000000 		.word	.LANCHOR0
 474 02c8 FC000000 		.word	.LC14
 475 02cc 3C010000 		.word	.LC15
 476 02d0 60010000 		.word	.LC16
 477 02d4 DC020000 		.word	.LC33
 478 02d8 FC020000 		.word	.LC35
 479 02dc 04030000 		.word	.LC36
 480 02e0 84030000 		.word	.LC44
 481 02e4 A4030000 		.word	.LC46
 482 02e8 40040000 		.word	.LC52
 483 02ec 9C010000 		.word	.LC21
 484 02f0 00000000 		.word	.LANCHOR2
 485 02f4 D0010000 		.word	.LC22
 486 02f8 E8010000 		.word	.LC23
 487 02fc 00020000 		.word	.LC24
 488 0300 18020000 		.word	.LC25
 489 0304 30020000 		.word	.LC26
 490 0308 48020000 		.word	.LC27
 491 030c 60020000 		.word	.LC28
 492 0310 78020000 		.word	.LC29
 493 0314 90020000 		.word	.LC30
 494 0318 A8020000 		.word	.LC31
 495 031c C0020000 		.word	.LC32
 496 0320 E0020000 		.word	.LC34
 497              	.L74:
 498              	.LBB5:
 499              		.loc 1 115 0
 500              	@ 115 "terminal.c" 1
 501 0324 72B6     		cpsid   i
 502              	@ 0 "" 2
 503              		.loc 1 116 0
 504              		.thumb
 505 0326 8E4B     		ldr	r3, .L82
 506              		.loc 1 117 0
 507 0328 8E4A     		ldr	r2, .L82+4
 508              		.loc 1 116 0
 509 032a 596A     		ldr	r1, [r3, #36]
 510 032c 0891     		str	r1, [sp, #32]
 511              		.loc 1 117 0
 512 032e 516A     		ldr	r1, [r2, #36]
 513 0330 0991     		str	r1, [sp, #36]
ARM GAS  C:\Users\jsyoon\AppData\Local\Temp\ccMFir12.s 			page 10


 514              		.loc 1 118 0
 515              	@ 118 "terminal.c" 1
 516 0332 62B6     		cpsie   i
 517              	@ 0 "" 2
 518              		.loc 1 124 0
 519              		.thumb
 520 0334 8C48     		ldr	r0, .L82+8
 521              		.loc 1 119 0
 522 0336 D3F83480 		ldr	r8, [r3, #52]
 523              	.LVL77:
 524              		.loc 1 120 0
 525 033a DF6A     		ldr	r7, [r3, #44]
 526              	.LVL78:
 527              		.loc 1 121 0
 528 033c 566B     		ldr	r6, [r2, #52]
 529              	.LVL79:
 530              		.loc 1 122 0
 531 033e 1D6C     		ldr	r5, [r3, #64]
 532              	.LVL80:
 533              		.loc 1 123 0
 534 0340 946B     		ldr	r4, [r2, #56]
 535              	.LVL81:
 536              		.loc 1 124 0
 537 0342 0899     		ldr	r1, [sp, #32]
 538 0344 FFF7FEFF 		bl	commands_printf
 539              	.LVL82:
 540              		.loc 1 125 0
 541 0348 0999     		ldr	r1, [sp, #36]
 542 034a 8848     		ldr	r0, .L82+12
 543 034c FFF7FEFF 		bl	commands_printf
 544              	.LVL83:
 545              		.loc 1 126 0
 546 0350 4146     		mov	r1, r8
 547 0352 8748     		ldr	r0, .L82+16
 548 0354 FFF7FEFF 		bl	commands_printf
 549              	.LVL84:
 550              		.loc 1 127 0
 551 0358 3946     		mov	r1, r7
 552 035a 8648     		ldr	r0, .L82+20
 553 035c FFF7FEFF 		bl	commands_printf
 554              	.LVL85:
 555              		.loc 1 128 0
 556 0360 3146     		mov	r1, r6
 557 0362 8548     		ldr	r0, .L82+24
 558 0364 FFF7FEFF 		bl	commands_printf
 559              	.LVL86:
 560              		.loc 1 129 0
 561 0368 2946     		mov	r1, r5
 562 036a 8448     		ldr	r0, .L82+28
 563 036c FFF7FEFF 		bl	commands_printf
 564              	.LVL87:
 565              		.loc 1 130 0
 566 0370 2146     		mov	r1, r4
 567 0372 8348     		ldr	r0, .L82+32
 568 0374 FFF7FEFF 		bl	commands_printf
 569              	.LVL88:
 570              	.LBE5:
ARM GAS  C:\Users\jsyoon\AppData\Local\Temp\ccMFir12.s 			page 11


 571 0378 92E6     		b	.L1
 572              	.LVL89:
 573              	.L22:
 574              		.loc 1 163 0
 575 037a 3046     		mov	r0, r6
 576 037c 8149     		ldr	r1, .L82+36
 577 037e FFF7FEFF 		bl	strcmp
 578              	.LVL90:
 579 0382 0028     		cmp	r0, #0
 580 0384 00F0C681 		beq	.L77
 581              		.loc 1 168 0
 582 0388 3046     		mov	r0, r6
 583 038a 7F49     		ldr	r1, .L82+40
 584 038c FFF7FEFF 		bl	strcmp
 585              	.LVL91:
 586 0390 0446     		mov	r4, r0
 587 0392 0028     		cmp	r0, #0
 588 0394 00F08B80 		beq	.L78
 589              		.loc 1 185 0
 590 0398 3046     		mov	r0, r6
 591 039a 7C49     		ldr	r1, .L82+44
 592 039c FFF7FEFF 		bl	strcmp
 593              	.LVL92:
 594 03a0 0028     		cmp	r0, #0
 595 03a2 40F02181 		bne	.L39
 596              		.loc 1 186 0
 597 03a6 042D     		cmp	r5, #4
 598 03a8 7FF4FCAE 		bne	.L23
 599              	.LBB6:
 600              		.loc 1 187 0
 601 03ac 4FF0FF33 		mov	r3, #-1
 602              		.loc 1 190 0
 603 03b0 07AA     		add	r2, sp, #28
 604 03b2 7749     		ldr	r1, .L82+48
 605 03b4 1198     		ldr	r0, [sp, #68]
 606              		.loc 1 187 0
 607 03b6 0793     		str	r3, [sp, #28]
 608              		.loc 1 188 0
 609 03b8 0893     		str	r3, [sp, #32]
 610              		.loc 1 189 0
 611 03ba 0993     		str	r3, [sp, #36]
 612              		.loc 1 190 0
 613 03bc FFF7FEFF 		bl	sscanf
 614              	.LVL93:
 615              		.loc 1 191 0
 616 03c0 08AA     		add	r2, sp, #32
 617 03c2 7349     		ldr	r1, .L82+48
 618 03c4 1298     		ldr	r0, [sp, #72]
 619 03c6 FFF7FEFF 		bl	sscanf
 620              	.LVL94:
 621              		.loc 1 192 0
 622 03ca 7149     		ldr	r1, .L82+48
 623 03cc 1398     		ldr	r0, [sp, #76]
 624 03ce 09AA     		add	r2, sp, #36
 625 03d0 FFF7FEFF 		bl	sscanf
 626              	.LVL95:
 627              		.loc 1 194 0
ARM GAS  C:\Users\jsyoon\AppData\Local\Temp\ccMFir12.s 			page 12


 628 03d4 0799     		ldr	r1, [sp, #28]
 629 03d6 0029     		cmp	r1, #0
 630 03d8 65DB     		blt	.L40
 631              		.loc 1 194 0 is_stmt 0 discriminator 1
 632 03da 089A     		ldr	r2, [sp, #32]
 633 03dc 002A     		cmp	r2, #0
 634 03de 62DB     		blt	.L40
 635 03e0 099B     		ldr	r3, [sp, #36]
 636 03e2 002B     		cmp	r3, #0
 637 03e4 5FDB     		blt	.L40
 638              		.loc 1 196 0 is_stmt 1
 639 03e6 6B48     		ldr	r0, .L82+52
 640 03e8 FFF7FEFF 		bl	commands_printf
 641              	.LVL96:
 642 03ec 58E6     		b	.L1
 643              	.L75:
 644              	.LBE6:
 645              		.loc 1 132 0
 646 03ee 6A4B     		ldr	r3, .L82+56
 647 03f0 DFED6A6A 		flds	s13, .L82+60
 648 03f4 1B8A     		ldrh	r3, [r3, #16]
 649 03f6 DFED6A7A 		flds	s15, .L82+64
 650 03fa 07EE103A 		fmsr	s14, r3	@ int
 651 03fe B8EE477A 		fuitos	s14, s14
 652 0402 27EE267A 		fmuls	s14, s14, s13
 653 0406 67EE277A 		fmuls	s15, s14, s15
 654 040a 17EE900A 		fmrs	r0, s15
 655 040e FFF7FEFF 		bl	__aeabi_f2d
 656              	.LVL97:
 657 0412 0246     		mov	r2, r0
 658 0414 0B46     		mov	r3, r1
 659 0416 6348     		ldr	r0, .L82+68
 660 0418 FFF7FEFF 		bl	commands_printf
 661              	.LVL98:
 662 041c 40E6     		b	.L1
 663              	.L76:
 664              	.LBB7:
 665              		.loc 1 136 0
 666 041e 624B     		ldr	r3, .L82+72
 667              		.loc 1 139 0
 668 0420 6249     		ldr	r1, .L82+76
 669 0422 1198     		ldr	r0, [sp, #68]
 670              		.loc 1 136 0
 671 0424 0593     		str	r3, [sp, #20]	@ float
 672              		.loc 1 139 0
 673 0426 05AA     		add	r2, sp, #20
 674              		.loc 1 137 0
 675 0428 0693     		str	r3, [sp, #24]	@ float
 676              		.loc 1 138 0
 677 042a 0793     		str	r3, [sp, #28]	@ float
 678              		.loc 1 139 0
 679 042c FFF7FEFF 		bl	sscanf
 680              	.LVL99:
 681              		.loc 1 140 0
 682 0430 06AA     		add	r2, sp, #24
 683 0432 5E49     		ldr	r1, .L82+76
 684 0434 1298     		ldr	r0, [sp, #72]
ARM GAS  C:\Users\jsyoon\AppData\Local\Temp\ccMFir12.s 			page 13


 685 0436 FFF7FEFF 		bl	sscanf
 686              	.LVL100:
 687              		.loc 1 141 0
 688 043a 5C49     		ldr	r1, .L82+76
 689 043c 1398     		ldr	r0, [sp, #76]
 690 043e 07AA     		add	r2, sp, #28
 691 0440 FFF7FEFF 		bl	sscanf
 692              	.LVL101:
 693              		.loc 1 143 0
 694 0444 FFF7FEFF 		bl	mcpwm_get_configuration
 695              	.LVL102:
 696              		.loc 1 145 0
 697 0448 9DED050A 		flds	s0, [sp, #20]
 698 044c B5EEC00A 		fcmpezs	s0
 699 0450 F1EE10FA 		fmstat
 700 0454 27DD     		ble	.L40
 701              		.loc 1 145 0 is_stmt 0 discriminator 1
 702 0456 D0ED017A 		flds	s15, [r0, #4]
 703 045a B4EEE70A 		fcmpes	s0, s15
 704 045e F1EE10FA 		fmstat
 705 0462 20D5     		bpl	.L40
 706              		.loc 1 146 0 is_stmt 1 discriminator 1
 707 0464 DDED060A 		flds	s1, [sp, #24]
 708              		.loc 1 145 0 discriminator 1
 709 0468 F2EE047A 		fconsts	s15, #36
 710 046c F4EEE70A 		fcmpes	s1, s15
 711 0470 F1EE10FA 		fmstat
 712 0474 17DD     		ble	.L40
 713              		.loc 1 146 0
 714 0476 DFED4E7A 		flds	s15, .L82+80
 715 047a F4EEE70A 		fcmpes	s1, s15
 716 047e F1EE10FA 		fmstat
 717 0482 10D5     		bpl	.L40
 718              		.loc 1 147 0 discriminator 1
 719 0484 9DED071A 		flds	s2, [sp, #28]
 720              		.loc 1 146 0 discriminator 1
 721 0488 DFED4A7A 		flds	s15, .L82+84
 722 048c B4EEE71A 		fcmpes	s2, s15
 723 0490 F1EE10FA 		fmstat
 724 0494 07DD     		ble	.L40
 725              		.loc 1 147 0
 726 0496 DFED487A 		flds	s15, .L82+88
 727 049a B4EEE71A 		fcmpes	s2, s15
 728 049e F1EE10FA 		fmstat
 729 04a2 00F11881 		bmi	.L79
 730              	.LVL103:
 731              	.L40:
 732              	.LBE7:
 733              	.LBB10:
 734              		.loc 1 199 0
 735 04a6 4548     		ldr	r0, .L82+92
 736 04a8 FFF7FEFF 		bl	commands_printf
 737              	.LVL104:
 738 04ac F8E5     		b	.L1
 739              	.L78:
 740              	.LBE10:
 741              		.loc 1 169 0
ARM GAS  C:\Users\jsyoon\AppData\Local\Temp\ccMFir12.s 			page 14


 742 04ae 4448     		ldr	r0, .L82+96
 743              	.LBB11:
 744              	.LBB12:
 745              		.loc 1 173 0
 746 04b0 444D     		ldr	r5, .L82+100
 747              	.LVL105:
 748 04b2 9FED458A 		flds	s16, .L82+104
 749              		.loc 1 176 0
 750 04b6 DFED458A 		flds	s17, .L82+108
 751              	.LBE12:
 752              	.LBE11:
 753              		.loc 1 169 0
 754 04ba FFF7FEFF 		bl	commands_printf
 755              	.LVL106:
 756 04be 02E0     		b	.L38
 757              	.LVL107:
 758              	.L36:
 759              	.LBB15:
 760              		.loc 1 170 0
 761 04c0 0A2C     		cmp	r4, #10
 762 04c2 3FF4EDAD 		beq	.L1
 763              	.LVL108:
 764              	.L38:
 765              	.LBB13:
 766              		.loc 1 171 0
 767 04c6 2046     		mov	r0, r4
 768 04c8 FFF7FEFF 		bl	comm_can_get_status_msg_index
 769              	.LVL109:
 770              		.loc 1 173 0
 771 04cc 0168     		ldr	r1, [r0]
 772 04ce 0029     		cmp	r1, #0
 773              		.loc 1 171 0
 774 04d0 0646     		mov	r6, r0
 775              	.LVL110:
 776              		.loc 1 173 0
 777 04d2 F7EE007A 		fconsts	s15, #112
 778              	.LBE13:
 779              		.loc 1 170 0
 780 04d6 04F10104 		add	r4, r4, #1
 781              	.LVL111:
 782              	.LBB14:
 783              		.loc 1 173 0
 784 04da F1DB     		blt	.L36
 785              		.loc 1 173 0 is_stmt 0 discriminator 1
 786 04dc EA68     		ldr	r2, [r5, #12]
 787 04de 4368     		ldr	r3, [r0, #4]
 788 04e0 D31A     		subs	r3, r2, r3
 789 04e2 07EE103A 		fmsr	s14, r3	@ int
 790 04e6 B8EE477A 		fuitos	s14, s14
 791 04ea 87EE087A 		fdivs	s14, s14, s16
 792 04ee B4EEE77A 		fcmpes	s14, s15
 793 04f2 F1EE10FA 		fmstat
 794 04f6 E3D5     		bpl	.L36
 795              		.loc 1 174 0 is_stmt 1
 796 04f8 3548     		ldr	r0, .L82+112
 797              	.LVL112:
 798 04fa FFF7FEFF 		bl	commands_printf
ARM GAS  C:\Users\jsyoon\AppData\Local\Temp\ccMFir12.s 			page 15


 799              	.LVL113:
 800              		.loc 1 175 0
 801 04fe 7168     		ldr	r1, [r6, #4]
 802 0500 3448     		ldr	r0, .L82+116
 803 0502 FFF7FEFF 		bl	commands_printf
 804              	.LVL114:
 805              		.loc 1 176 0
 806 0506 EA68     		ldr	r2, [r5, #12]
 807 0508 7368     		ldr	r3, [r6, #4]
 808 050a D31A     		subs	r3, r2, r3
 809 050c 07EE903A 		fmsr	s15, r3	@ int
 810 0510 F8EE677A 		fuitos	s15, s15
 811 0514 C7EE887A 		fdivs	s15, s15, s16
 812 0518 67EEA87A 		fmuls	s15, s15, s17
 813 051c 17EE900A 		fmrs	r0, s15
 814 0520 FFF7FEFF 		bl	__aeabi_f2d
 815              	.LVL115:
 816 0524 0246     		mov	r2, r0
 817 0526 0B46     		mov	r3, r1
 818 0528 2B48     		ldr	r0, .L82+120
 819 052a FFF7FEFF 		bl	commands_printf
 820              	.LVL116:
 821              		.loc 1 177 0
 822 052e B068     		ldr	r0, [r6, #8]	@ float
 823 0530 FFF7FEFF 		bl	__aeabi_f2d
 824              	.LVL117:
 825 0534 0246     		mov	r2, r0
 826 0536 0B46     		mov	r3, r1
 827 0538 2848     		ldr	r0, .L82+124
 828 053a FFF7FEFF 		bl	commands_printf
 829              	.LVL118:
 830              		.loc 1 178 0
 831 053e F068     		ldr	r0, [r6, #12]	@ float
 832 0540 FFF7FEFF 		bl	__aeabi_f2d
 833              	.LVL119:
 834 0544 0246     		mov	r2, r0
 835 0546 0B46     		mov	r3, r1
 836 0548 2548     		ldr	r0, .L82+128
 837 054a FFF7FEFF 		bl	commands_printf
 838              	.LVL120:
 839              		.loc 1 179 0
 840 054e 3069     		ldr	r0, [r6, #16]	@ float
 841 0550 FFF7FEFF 		bl	__aeabi_f2d
 842              	.LVL121:
 843 0554 0246     		mov	r2, r0
 844 0556 0B46     		mov	r3, r1
 845 0558 2248     		ldr	r0, .L82+132
 846 055a FFF7FEFF 		bl	commands_printf
 847              	.LVL122:
 848 055e AFE7     		b	.L36
 849              	.L83:
 850              		.align	2
 851              	.L82:
 852 0560 00000140 		.word	1073807360
 853 0564 00040140 		.word	1073808384
 854 0568 08030000 		.word	.LC37
 855 056c 18030000 		.word	.LC38
ARM GAS  C:\Users\jsyoon\AppData\Local\Temp\ccMFir12.s 			page 16


 856 0570 28030000 		.word	.LC39
 857 0574 38030000 		.word	.LC40
 858 0578 40030000 		.word	.LC41
 859 057c 54030000 		.word	.LC42
 860 0580 6C030000 		.word	.LC43
 861 0584 68040000 		.word	.LC53
 862 0588 C4040000 		.word	.LC57
 863 058c A0050000 		.word	.LC65
 864 0590 B0050000 		.word	.LC66
 865 0594 B4050000 		.word	.LC67
 866 0598 00000000 		.word	ADC_Value
 867 059c 6740533A 		.word	978534503
 868 05a0 74D19541 		.word	1100337524
 869 05a4 8C030000 		.word	.LC45
 870 05a8 000080BF 		.word	-1082130432
 871 05ac B4030000 		.word	.LC47
 872 05b0 00803B45 		.word	1161527296
 873 05b4 0AD7A33C 		.word	1017370378
 874 05b8 CDCC4C3F 		.word	1061997773
 875 05bc 28040000 		.word	.LC51
 876 05c0 D0040000 		.word	.LC58
 877 05c4 00000000 		.word	vtlist
 878 05c8 00401C46 		.word	1176256512
 879 05cc 00007A44 		.word	1148846080
 880 05d0 00050000 		.word	.LC59
 881 05d4 18050000 		.word	.LC60
 882 05d8 30050000 		.word	.LC61
 883 05dc 4C050000 		.word	.LC62
 884 05e0 68050000 		.word	.LC63
 885 05e4 84050000 		.word	.LC64
 886              	.LVL123:
 887              	.L39:
 888              	.LBE14:
 889              	.LBE15:
 890              		.loc 1 207 0
 891 05e8 3046     		mov	r0, r6
 892 05ea 5849     		ldr	r1, .L84
 893 05ec FFF7FEFF 		bl	strcmp
 894              	.LVL124:
 895 05f0 0028     		cmp	r0, #0
 896 05f2 40F08680 		bne	.L42
 897              		.loc 1 208 0
 898 05f6 5648     		ldr	r0, .L84+4
 899 05f8 FFF7FEFF 		bl	commands_printf
 900              	.LVL125:
 901              		.loc 1 209 0
 902 05fc 5348     		ldr	r0, .L84
 903 05fe FFF7FEFF 		bl	commands_printf
 904              	.LVL126:
 905              		.loc 1 210 0
 906 0602 5448     		ldr	r0, .L84+8
 907 0604 FFF7FEFF 		bl	commands_printf
 908              	.LVL127:
 909              		.loc 1 212 0
 910 0608 5348     		ldr	r0, .L84+12
 911 060a FFF7FEFF 		bl	commands_printf
 912              	.LVL128:
ARM GAS  C:\Users\jsyoon\AppData\Local\Temp\ccMFir12.s 			page 17


 913              		.loc 1 213 0
 914 060e 5348     		ldr	r0, .L84+16
 915 0610 FFF7FEFF 		bl	commands_printf
 916              	.LVL129:
 917              		.loc 1 215 0
 918 0614 5248     		ldr	r0, .L84+20
 919 0616 FFF7FEFF 		bl	commands_printf
 920              	.LVL130:
 921              		.loc 1 216 0
 922 061a 5248     		ldr	r0, .L84+24
 923 061c FFF7FEFF 		bl	commands_printf
 924              	.LVL131:
 925              		.loc 1 218 0
 926 0620 5148     		ldr	r0, .L84+28
 927 0622 FFF7FEFF 		bl	commands_printf
 928              	.LVL132:
 929              		.loc 1 219 0
 930 0626 5148     		ldr	r0, .L84+32
 931 0628 FFF7FEFF 		bl	commands_printf
 932              	.LVL133:
 933              		.loc 1 221 0
 934 062c 5048     		ldr	r0, .L84+36
 935 062e FFF7FEFF 		bl	commands_printf
 936              	.LVL134:
 937              		.loc 1 222 0
 938 0632 5048     		ldr	r0, .L84+40
 939 0634 FFF7FEFF 		bl	commands_printf
 940              	.LVL135:
 941              		.loc 1 224 0
 942 0638 4F48     		ldr	r0, .L84+44
 943 063a FFF7FEFF 		bl	commands_printf
 944              	.LVL136:
 945              		.loc 1 225 0
 946 063e 4F48     		ldr	r0, .L84+48
 947 0640 FFF7FEFF 		bl	commands_printf
 948              	.LVL137:
 949              		.loc 1 227 0
 950 0644 4E48     		ldr	r0, .L84+52
 951 0646 FFF7FEFF 		bl	commands_printf
 952              	.LVL138:
 953              		.loc 1 228 0
 954 064a 4E48     		ldr	r0, .L84+56
 955 064c FFF7FEFF 		bl	commands_printf
 956              	.LVL139:
 957              		.loc 1 230 0
 958 0650 4D48     		ldr	r0, .L84+60
 959 0652 FFF7FEFF 		bl	commands_printf
 960              	.LVL140:
 961              		.loc 1 231 0
 962 0656 4D48     		ldr	r0, .L84+64
 963 0658 FFF7FEFF 		bl	commands_printf
 964              	.LVL141:
 965              		.loc 1 233 0
 966 065c 4C48     		ldr	r0, .L84+68
 967 065e FFF7FEFF 		bl	commands_printf
 968              	.LVL142:
 969              		.loc 1 234 0
ARM GAS  C:\Users\jsyoon\AppData\Local\Temp\ccMFir12.s 			page 18


 970 0662 4C48     		ldr	r0, .L84+72
 971 0664 FFF7FEFF 		bl	commands_printf
 972              	.LVL143:
 973              		.loc 1 236 0
 974 0668 4B48     		ldr	r0, .L84+76
 975 066a FFF7FEFF 		bl	commands_printf
 976              	.LVL144:
 977              		.loc 1 237 0
 978 066e 4B48     		ldr	r0, .L84+80
 979 0670 FFF7FEFF 		bl	commands_printf
 980              	.LVL145:
 981              		.loc 1 239 0
 982 0674 4A48     		ldr	r0, .L84+84
 983 0676 FFF7FEFF 		bl	commands_printf
 984              	.LVL146:
 985              		.loc 1 240 0
 986 067a 4A48     		ldr	r0, .L84+88
 987 067c FFF7FEFF 		bl	commands_printf
 988              	.LVL147:
 989              		.loc 1 242 0
 990 0680 4948     		ldr	r0, .L84+92
 991 0682 FFF7FEFF 		bl	commands_printf
 992              	.LVL148:
 993              		.loc 1 243 0
 994 0686 4948     		ldr	r0, .L84+96
 995 0688 FFF7FEFF 		bl	commands_printf
 996              	.LVL149:
 997              		.loc 1 245 0
 998 068c 4848     		ldr	r0, .L84+100
 999 068e FFF7FEFF 		bl	commands_printf
 1000              	.LVL150:
 1001              		.loc 1 246 0
 1002 0692 4848     		ldr	r0, .L84+104
 1003 0694 FFF7FEFF 		bl	commands_printf
 1004              	.LVL151:
 1005              		.loc 1 248 0
 1006 0698 4748     		ldr	r0, .L84+108
 1007 069a FFF7FEFF 		bl	commands_printf
 1008              	.LVL152:
 1009              		.loc 1 249 0
 1010 069e 4748     		ldr	r0, .L84+112
 1011 06a0 FFF7FEFF 		bl	commands_printf
 1012              	.LVL153:
 1013              		.loc 1 251 0
 1014 06a4 4648     		ldr	r0, .L84+116
 1015 06a6 FFF7FEFF 		bl	commands_printf
 1016              	.LVL154:
 1017              		.loc 1 252 0
 1018 06aa 4648     		ldr	r0, .L84+120
 1019 06ac FFF7FEFF 		bl	commands_printf
 1020              	.LVL155:
 1021              		.loc 1 253 0
 1022 06b0 4548     		ldr	r0, .L84+124
 1023 06b2 FFF7FEFF 		bl	commands_printf
 1024              	.LVL156:
 1025              		.loc 1 254 0
 1026 06b6 4548     		ldr	r0, .L84+128
ARM GAS  C:\Users\jsyoon\AppData\Local\Temp\ccMFir12.s 			page 19


 1027 06b8 FFF7FEFF 		bl	commands_printf
 1028              	.LVL157:
 1029              		.loc 1 256 0
 1030 06bc 4448     		ldr	r0, .L84+132
 1031 06be FFF7FEFF 		bl	commands_printf
 1032              	.LVL158:
 1033              		.loc 1 257 0
 1034 06c2 4448     		ldr	r0, .L84+136
 1035 06c4 FFF7FEFF 		bl	commands_printf
 1036              	.LVL159:
 1037              		.loc 1 259 0
 1038 06c8 4348     		ldr	r0, .L84+140
 1039 06ca FFF7FEFF 		bl	commands_printf
 1040              	.LVL160:
 1041              		.loc 1 260 0
 1042 06ce 4348     		ldr	r0, .L84+144
 1043 06d0 FFF7FEFF 		bl	commands_printf
 1044              	.LVL161:
 1045 06d4 E4E4     		b	.L1
 1046              	.LVL162:
 1047              	.L79:
 1048              	.LBB16:
 1049              	.LBB8:
 1050              		.loc 1 151 0
 1051 06d6 08A8     		add	r0, sp, #32
 1052              	.LVL163:
 1053 06d8 09A9     		add	r1, sp, #36
 1054 06da FFF7FEFF 		bl	conf_general_detect_motor_param
 1055              	.LVL164:
 1056 06de A8B1     		cbz	r0, .L31
 1057              		.loc 1 152 0
 1058 06e0 0898     		ldr	r0, [sp, #32]	@ float
 1059 06e2 FFF7FEFF 		bl	__aeabi_f2d
 1060              	.LVL165:
 1061 06e6 0246     		mov	r2, r0
 1062 06e8 0B46     		mov	r3, r1
 1063 06ea 3D48     		ldr	r0, .L84+148
 1064 06ec FFF7FEFF 		bl	commands_printf
 1065              	.LVL166:
 1066              		.loc 1 153 0
 1067 06f0 0998     		ldr	r0, [sp, #36]	@ float
 1068 06f2 FFF7FEFF 		bl	__aeabi_f2d
 1069              	.LVL167:
 1070 06f6 0246     		mov	r2, r0
 1071 06f8 0B46     		mov	r3, r1
 1072 06fa 3A48     		ldr	r0, .L84+152
 1073 06fc FFF7FEFF 		bl	commands_printf
 1074              	.LVL168:
 1075 0700 CEE4     		b	.L1
 1076              	.L42:
 1077              	.LBE8:
 1078              	.LBE16:
 1079              		.loc 1 262 0
 1080 0702 3146     		mov	r1, r6
 1081 0704 3848     		ldr	r0, .L84+156
 1082 0706 FFF7FEFF 		bl	commands_printf
 1083              	.LVL169:
ARM GAS  C:\Users\jsyoon\AppData\Local\Temp\ccMFir12.s 			page 20


 1084 070a C9E4     		b	.L1
 1085              	.L31:
 1086              	.LBB17:
 1087              	.LBB9:
 1088              		.loc 1 155 0
 1089 070c 3748     		ldr	r0, .L84+160
 1090 070e FFF7FEFF 		bl	commands_printf
 1091              	.LVL170:
 1092              	.LBE9:
 1093              		.loc 1 147 0
 1094 0712 C5E4     		b	.L1
 1095              	.L77:
 1096              	.LBE17:
 1097              	.LBB18:
 1098              		.loc 1 164 0
 1099 0714 09A8     		add	r0, sp, #36
 1100 0716 FFF7FEFF 		bl	mcpwm_get_rpm_dep
 1101              	.LVL171:
 1102              		.loc 1 165 0
 1103 071a 0998     		ldr	r0, [sp, #36]	@ float
 1104 071c FFF7FEFF 		bl	__aeabi_f2d
 1105              	.LVL172:
 1106 0720 0246     		mov	r2, r0
 1107 0722 0B46     		mov	r3, r1
 1108 0724 3248     		ldr	r0, .L84+164
 1109 0726 FFF7FEFF 		bl	commands_printf
 1110              	.LVL173:
 1111              		.loc 1 166 0
 1112 072a 0A98     		ldr	r0, [sp, #40]	@ float
 1113 072c FFF7FEFF 		bl	__aeabi_f2d
 1114              	.LVL174:
 1115 0730 0246     		mov	r2, r0
 1116 0732 0B46     		mov	r3, r1
 1117 0734 2F48     		ldr	r0, .L84+168
 1118 0736 FFF7FEFF 		bl	commands_printf
 1119              	.LVL175:
 1120              		.loc 1 167 0
 1121 073a 0B98     		ldr	r0, [sp, #44]	@ float
 1122 073c FFF7FEFF 		bl	__aeabi_f2d
 1123              	.LVL176:
 1124 0740 0246     		mov	r2, r0
 1125 0742 0B46     		mov	r3, r1
 1126 0744 2C48     		ldr	r0, .L84+172
 1127 0746 FFF7FEFF 		bl	commands_printf
 1128              	.LVL177:
 1129              	.LBE18:
 1130 074a A9E4     		b	.L1
 1131              	.L85:
 1132              		.align	2
 1133              	.L84:
 1134 074c E4050000 		.word	.LC68
 1135 0750 EC050000 		.word	.LC69
 1136 0754 00060000 		.word	.LC70
 1137 0758 1C000000 		.word	.LC2
 1138 075c 14060000 		.word	.LC71
 1139 0760 2C000000 		.word	.LC4
 1140 0764 40060000 		.word	.LC72
ARM GAS  C:\Users\jsyoon\AppData\Local\Temp\ccMFir12.s 			page 21


 1141 0768 44000000 		.word	.LC6
 1142 076c 54060000 		.word	.LC73
 1143 0770 58000000 		.word	.LC7
 1144 0774 84060000 		.word	.LC74
 1145 0778 5C000000 		.word	.LC8
 1146 077c A8060000 		.word	.LC75
 1147 0780 B4000000 		.word	.LC12
 1148 0784 BC060000 		.word	.LC76
 1149 0788 64010000 		.word	.LC17
 1150 078c D0060000 		.word	.LC77
 1151 0790 70010000 		.word	.LC19
 1152 0794 F0060000 		.word	.LC78
 1153 0798 DC020000 		.word	.LC33
 1154 079c 34070000 		.word	.LC79
 1155 07a0 FC020000 		.word	.LC35
 1156 07a4 58070000 		.word	.LC80
 1157 07a8 04030000 		.word	.LC36
 1158 07ac 74070000 		.word	.LC81
 1159 07b0 94070000 		.word	.LC82
 1160 07b4 C0070000 		.word	.LC83
 1161 07b8 84030000 		.word	.LC44
 1162 07bc E8070000 		.word	.LC84
 1163 07c0 04080000 		.word	.LC85
 1164 07c4 30080000 		.word	.LC86
 1165 07c8 74080000 		.word	.LC87
 1166 07cc B0080000 		.word	.LC88
 1167 07d0 68040000 		.word	.LC53
 1168 07d4 D8080000 		.word	.LC89
 1169 07d8 C4040000 		.word	.LC57
 1170 07dc F8080000 		.word	.LC90
 1171 07e0 B8030000 		.word	.LC48
 1172 07e4 D8030000 		.word	.LC49
 1173 07e8 34090000 		.word	.LC91
 1174 07ec F0030000 		.word	.LC50
 1175 07f0 70040000 		.word	.LC54
 1176 07f4 88040000 		.word	.LC55
 1177 07f8 A8040000 		.word	.LC56
 1178              		.cfi_endproc
 1179              	.LFE118:
 1180              		.size	terminal_process_string, .-terminal_process_string
 1181 07fc AFF30080 		.section	.text.terminal_add_fault_data,"ax",%progbits
 1182              		.align	2
 1183              		.p2align 4,,15
 1184              		.global	terminal_add_fault_data
 1185              		.thumb
 1186              		.thumb_func
 1187              		.type	terminal_add_fault_data, %function
 1188              	terminal_add_fault_data:
 1189              	.LFB119:
 1190              		.loc 1 267 0
 1191              		.cfi_startproc
 1192              		@ args = 0, pretend = 0, frame = 0
 1193              		@ frame_needed = 0, uses_anonymous_args = 0
 1194              		@ link register save eliminated.
 1195              	.LVL178:
 1196 0000 2DE9F001 		push	{r4, r5, r6, r7, r8}
 1197              		.cfi_def_cfa_offset 20
ARM GAS  C:\Users\jsyoon\AppData\Local\Temp\ccMFir12.s 			page 22


 1198              		.cfi_offset 4, -20
 1199              		.cfi_offset 5, -16
 1200              		.cfi_offset 6, -12
 1201              		.cfi_offset 7, -8
 1202              		.cfi_offset 8, -4
 1203              		.loc 1 268 0
 1204 0004 0546     		mov	r5, r0
 1205 0006 0D4E     		ldr	r6, .L88
 1206 0008 0D4C     		ldr	r4, .L88+4
 1207 000a 3768     		ldr	r7, [r6]
 1208 000c 0FCD     		ldmia	r5!, {r0, r1, r2, r3}
 1209              	.LVL179:
 1210 000e 4FF02C08 		mov	r8, #44
 1211 0012 07F1010C 		add	ip, r7, #1
 1212 0016 08FB0744 		mla	r4, r8, r7, r4
 1213 001a C6F800C0 		str	ip, [r6]
 1214 001e 0FC4     		stmia	r4!, {r0, r1, r2, r3}
 1215 0020 0FCD     		ldmia	r5!, {r0, r1, r2, r3}
 1216              	.LVL180:
 1217 0022 0FC4     		stmia	r4!, {r0, r1, r2, r3}
 1218 0024 95E80700 		ldmia	r5, {r0, r1, r2}
 1219 0028 84E80700 		stmia	r4, {r0, r1, r2}
 1220              		.loc 1 269 0
 1221 002c 3368     		ldr	r3, [r6]
 1222 002e 1D2B     		cmp	r3, #29
 1223              		.loc 1 270 0
 1224 0030 C4BF     		itt	gt
 1225 0032 0023     		movgt	r3, #0
 1226 0034 3360     		strgt	r3, [r6]
 1227              		.loc 1 272 0
 1228 0036 BDE8F001 		pop	{r4, r5, r6, r7, r8}
 1229              	.LVL181:
 1230 003a 7047     		bx	lr
 1231              	.L89:
 1232              		.align	2
 1233              	.L88:
 1234 003c 00000000 		.word	.LANCHOR1
 1235 0040 00000000 		.word	.LANCHOR2
 1236              		.cfi_endproc
 1237              	.LFE119:
 1238              		.size	terminal_add_fault_data, .-terminal_add_fault_data
 1239 0044 AFF30080 		.section	.bss.fault_vec_write,"aw",%nobits
 1239      AFF30080 
 1239      AFF30080 
 1240              		.align	2
 1241              		.set	.LANCHOR1,. + 0
 1242              		.type	fault_vec_write, %object
 1243              		.size	fault_vec_write, 4
 1244              	fault_vec_write:
 1245 0000 00000000 		.space	4
 1246              		.section	.rodata.states.10562,"a",%progbits
 1247              		.align	2
 1248              		.set	.LANCHOR0,. + 0
 1249              		.type	states.10562, %object
 1250              		.size	states.10562, 60
 1251              	states.10562:
 1252 0000 74090000 		.word	.LC92
ARM GAS  C:\Users\jsyoon\AppData\Local\Temp\ccMFir12.s 			page 23


 1253 0004 7C090000 		.word	.LC93
 1254 0008 84090000 		.word	.LC94
 1255 000c 90090000 		.word	.LC95
 1256 0010 98090000 		.word	.LC96
 1257 0014 A0090000 		.word	.LC97
 1258 0018 A8090000 		.word	.LC98
 1259 001c B4090000 		.word	.LC99
 1260 0020 BC090000 		.word	.LC100
 1261 0024 C4090000 		.word	.LC101
 1262 0028 D0090000 		.word	.LC102
 1263 002c D8090000 		.word	.LC103
 1264 0030 E0090000 		.word	.LC104
 1265 0034 E8090000 		.word	.LC105
 1266 0038 F0090000 		.word	.LC106
 1267              		.section	.rodata.str1.4,"aMS",%progbits,1
 1268              		.align	2
 1269              	.LC0:
 1270 0000 2000     		.ascii	" \000"
 1271 0002 0000     		.space	2
 1272              	.LC1:
 1273 0004 4E6F2063 		.ascii	"No command received\012\000"
 1273      6F6D6D61 
 1273      6E642072 
 1273      65636569 
 1273      7665640A 
 1274 0019 000000   		.space	3
 1275              	.LC2:
 1276 001c 70696E67 		.ascii	"ping\000"
 1276      00
 1277 0021 000000   		.space	3
 1278              	.LC3:
 1279 0024 706F6E67 		.ascii	"pong\012\000"
 1279      0A00
 1280 002a 0000     		.space	2
 1281              	.LC4:
 1282 002c 73746F70 		.ascii	"stop\000"
 1282      00
 1283 0031 000000   		.space	3
 1284              	.LC5:
 1285 0034 4D6F746F 		.ascii	"Motor stopped\012\000"
 1285      72207374 
 1285      6F707065 
 1285      640A00
 1286 0043 00       		.space	1
 1287              	.LC6:
 1288 0044 6C617374 		.ascii	"last_adc_duration\000"
 1288      5F616463 
 1288      5F647572 
 1288      6174696F 
 1288      6E00
 1289 0056 0000     		.space	2
 1290              	.LC7:
 1291 0058 6B7600   		.ascii	"kv\000"
 1292 005b 00       		.space	1
 1293              	.LC8:
 1294 005c 6D656D00 		.ascii	"mem\000"
 1295              	.LC9:
ARM GAS  C:\Users\jsyoon\AppData\Local\Temp\ccMFir12.s 			page 24


 1296 0060 636F7265 		.ascii	"core free memory : %u bytes\000"
 1296      20667265 
 1296      65206D65 
 1296      6D6F7279 
 1296      203A2025 
 1297              	.LC10:
 1298 007c 68656170 		.ascii	"heap fragments   : %u\000"
 1298      20667261 
 1298      676D656E 
 1298      74732020 
 1298      203A2025 
 1299 0092 0000     		.space	2
 1300              	.LC11:
 1301 0094 68656170 		.ascii	"heap free total  : %u bytes\012\000"
 1301      20667265 
 1301      6520746F 
 1301      74616C20 
 1301      203A2025 
 1302 00b1 000000   		.space	3
 1303              	.LC12:
 1304 00b4 74687265 		.ascii	"threads\000"
 1304      61647300 
 1305              	.LC13:
 1306 00bc 20202020 		.ascii	"    addr    stack prio refs     state           nam"
 1306      61646472 
 1306      20202020 
 1306      73746163 
 1306      6B207072 
 1307 00ef 65207469 		.ascii	"e time    \000"
 1307      6D652020 
 1307      202000
 1308 00fa 0000     		.space	2
 1309              	.LC14:
 1310 00fc 2D2D2D2D 		.ascii	"---------------------------------------------------"
 1310      2D2D2D2D 
 1310      2D2D2D2D 
 1310      2D2D2D2D 
 1310      2D2D2D2D 
 1311 012f 2D2D2D2D 		.ascii	"----------\000"
 1311      2D2D2D2D 
 1311      2D2D00
 1312 013a 0000     		.space	2
 1313              	.LC15:
 1314 013c 252E386C 		.ascii	"%.8lx %.8lx %4lu %4lu %9s %14s %lu\000"
 1314      7820252E 
 1314      386C7820 
 1314      25346C75 
 1314      2025346C 
 1315 015f 00       		.space	1
 1316              	.LC16:
 1317 0160 00       		.ascii	"\000"
 1318 0161 000000   		.space	3
 1319              	.LC17:
 1320 0164 6661756C 		.ascii	"fault\000"
 1320      7400
 1321 016a 0000     		.space	2
 1322              	.LC18:
ARM GAS  C:\Users\jsyoon\AppData\Local\Temp\ccMFir12.s 			page 25


 1323 016c 25730A00 		.ascii	"%s\012\000"
 1324              	.LC19:
 1325 0170 6661756C 		.ascii	"faults\000"
 1325      747300
 1326 0177 00       		.space	1
 1327              	.LC20:
 1328 0178 4E6F2066 		.ascii	"No faults registered since startup\012\000"
 1328      61756C74 
 1328      73207265 
 1328      67697374 
 1328      65726564 
 1329              	.LC21:
 1330 019c 54686520 		.ascii	"The following faults were registered since start:\012"
 1330      666F6C6C 
 1330      6F77696E 
 1330      67206661 
 1330      756C7473 
 1331 01ce 00       		.ascii	"\000"
 1332 01cf 00       		.space	1
 1333              	.LC22:
 1334 01d0 4661756C 		.ascii	"Fault            : %s\000"
 1334      74202020 
 1334      20202020 
 1334      20202020 
 1334      203A2025 
 1335 01e6 0000     		.space	2
 1336              	.LC23:
 1337 01e8 43757272 		.ascii	"Current          : %.1f\000"
 1337      656E7420 
 1337      20202020 
 1337      20202020 
 1337      203A2025 
 1338              	.LC24:
 1339 0200 43757272 		.ascii	"Current filtered : %.1f\000"
 1339      656E7420 
 1339      66696C74 
 1339      65726564 
 1339      203A2025 
 1340              	.LC25:
 1341 0218 566F6C74 		.ascii	"Voltage          : %.2f\000"
 1341      61676520 
 1341      20202020 
 1341      20202020 
 1341      203A2025 
 1342              	.LC26:
 1343 0230 44757479 		.ascii	"Duty             : %.2f\000"
 1343      20202020 
 1343      20202020 
 1343      20202020 
 1343      203A2025 
 1344              	.LC27:
 1345 0248 52504D20 		.ascii	"RPM              : %.1f\000"
 1345      20202020 
 1345      20202020 
 1345      20202020 
 1345      203A2025 
 1346              	.LC28:
ARM GAS  C:\Users\jsyoon\AppData\Local\Temp\ccMFir12.s 			page 26


 1347 0260 54616368 		.ascii	"Tacho            : %d\000"
 1347      6F202020 
 1347      20202020 
 1347      20202020 
 1347      203A2025 
 1348 0276 0000     		.space	2
 1349              	.LC29:
 1350 0278 54494D20 		.ascii	"TIM PWM CNT      : %d\000"
 1350      50574D20 
 1350      434E5420 
 1350      20202020 
 1350      203A2025 
 1351 028e 0000     		.space	2
 1352              	.LC30:
 1353 0290 54494D20 		.ascii	"TIM Samp CNT     : %d\000"
 1353      53616D70 
 1353      20434E54 
 1353      20202020 
 1353      203A2025 
 1354 02a6 0000     		.space	2
 1355              	.LC31:
 1356 02a8 436F6D6D 		.ascii	"Comm step        : %d\000"
 1356      20737465 
 1356      70202020 
 1356      20202020 
 1356      203A2025 
 1357 02be 0000     		.space	2
 1358              	.LC32:
 1359 02c0 54656D70 		.ascii	"Temperature      : %.2f\012\000"
 1359      65726174 
 1359      75726520 
 1359      20202020 
 1359      203A2025 
 1360 02d9 000000   		.space	3
 1361              	.LC33:
 1362 02dc 72706D00 		.ascii	"rpm\000"
 1363              	.LC34:
 1364 02e0 456C6563 		.ascii	"Electrical RPM: %.2f rpm\012\000"
 1364      74726963 
 1364      616C2052 
 1364      504D3A20 
 1364      252E3266 
 1365 02fa 0000     		.space	2
 1366              	.LC35:
 1367 02fc 74616368 		.ascii	"tacho\000"
 1367      6F00
 1368 0302 0000     		.space	2
 1369              	.LC36:
 1370 0304 74696D00 		.ascii	"tim\000"
 1371              	.LC37:
 1372 0308 54696D31 		.ascii	"Tim1 CNT: %i\000"
 1372      20434E54 
 1372      3A202569 
 1372      00
 1373 0315 000000   		.space	3
 1374              	.LC38:
 1375 0318 54696D38 		.ascii	"Tim8 CNT: %u\000"
ARM GAS  C:\Users\jsyoon\AppData\Local\Temp\ccMFir12.s 			page 27


 1375      20434E54 
 1375      3A202575 
 1375      00
 1376 0325 000000   		.space	3
 1377              	.LC39:
 1378 0328 44757479 		.ascii	"Duty cycle: %u\000"
 1378      20637963 
 1378      6C653A20 
 1378      257500
 1379 0337 00       		.space	1
 1380              	.LC40:
 1381 0338 546F703A 		.ascii	"Top: %u\000"
 1381      20257500 
 1382              	.LC41:
 1383 0340 566F6C74 		.ascii	"Voltage sample: %u\000"
 1383      61676520 
 1383      73616D70 
 1383      6C653A20 
 1383      257500
 1384 0353 00       		.space	1
 1385              	.LC42:
 1386 0354 43757272 		.ascii	"Current 1 sample: %u\000"
 1386      656E7420 
 1386      31207361 
 1386      6D706C65 
 1386      3A202575 
 1387 0369 000000   		.space	3
 1388              	.LC43:
 1389 036c 43757272 		.ascii	"Current 2 sample: %u\012\000"
 1389      656E7420 
 1389      32207361 
 1389      6D706C65 
 1389      3A202575 
 1390 0382 0000     		.space	2
 1391              	.LC44:
 1392 0384 766F6C74 		.ascii	"volt\000"
 1392      00
 1393 0389 000000   		.space	3
 1394              	.LC45:
 1395 038c 496E7075 		.ascii	"Input voltage: %.2f\012\000"
 1395      7420766F 
 1395      6C746167 
 1395      653A2025 
 1395      2E32660A 
 1396 03a1 000000   		.space	3
 1397              	.LC46:
 1398 03a4 70617261 		.ascii	"param_detect\000"
 1398      6D5F6465 
 1398      74656374 
 1398      00
 1399 03b1 000000   		.space	3
 1400              	.LC47:
 1401 03b4 256600   		.ascii	"%f\000"
 1402 03b7 00       		.space	1
 1403              	.LC48:
 1404 03b8 4379636C 		.ascii	"Cycle integrator limit: %.2f\000"
 1404      6520696E 
ARM GAS  C:\Users\jsyoon\AppData\Local\Temp\ccMFir12.s 			page 28


 1404      74656772 
 1404      61746F72 
 1404      206C696D 
 1405 03d5 000000   		.space	3
 1406              	.LC49:
 1407 03d8 436F7570 		.ascii	"Coupling factor: %.2f\012\000"
 1407      6C696E67 
 1407      20666163 
 1407      746F723A 
 1407      20252E32 
 1408 03ef 00       		.space	1
 1409              	.LC50:
 1410 03f0 44657465 		.ascii	"Detection failed. Try again with different paramete"
 1410      6374696F 
 1410      6E206661 
 1410      696C6564 
 1410      2E205472 
 1411 0423 72732E0A 		.ascii	"rs.\012\000"
 1411      00
 1412              	.LC51:
 1413 0428 496E7661 		.ascii	"Invalid argument(s).\012\000"
 1413      6C696420 
 1413      61726775 
 1413      6D656E74 
 1413      2873292E 
 1414 043e 0000     		.space	2
 1415              	.LC52:
 1416 0440 54686973 		.ascii	"This command requires three arguments.\012\000"
 1416      20636F6D 
 1416      6D616E64 
 1416      20726571 
 1416      75697265 
 1417              	.LC53:
 1418 0468 72706D5F 		.ascii	"rpm_dep\000"
 1418      64657000 
 1419              	.LC54:
 1420 0470 4379636C 		.ascii	"Cycle int limit: %.2f\000"
 1420      6520696E 
 1420      74206C69 
 1420      6D69743A 
 1420      20252E32 
 1421 0486 0000     		.space	2
 1422              	.LC55:
 1423 0488 4379636C 		.ascii	"Cycle int limit running: %.2f\000"
 1423      6520696E 
 1423      74206C69 
 1423      6D697420 
 1423      72756E6E 
 1424 04a6 0000     		.space	2
 1425              	.LC56:
 1426 04a8 4379636C 		.ascii	"Cycle int limit max: %.2f\012\000"
 1426      6520696E 
 1426      74206C69 
 1426      6D697420 
 1426      6D61783A 
 1427 04c3 00       		.space	1
 1428              	.LC57:
ARM GAS  C:\Users\jsyoon\AppData\Local\Temp\ccMFir12.s 			page 29


 1429 04c4 63616E5F 		.ascii	"can_devs\000"
 1429      64657673 
 1429      00
 1430 04cd 000000   		.space	3
 1431              	.LC58:
 1432 04d0 43414E20 		.ascii	"CAN devices seen on the bus the past second:\012\000"
 1432      64657669 
 1432      63657320 
 1432      7365656E 
 1432      206F6E20 
 1433 04fe 0000     		.space	2
 1434              	.LC59:
 1435 0500 49442020 		.ascii	"ID                 : %i\000"
 1435      20202020 
 1435      20202020 
 1435      20202020 
 1435      2020203A 
 1436              	.LC60:
 1437 0518 52582054 		.ascii	"RX Time            : %i\000"
 1437      696D6520 
 1437      20202020 
 1437      20202020 
 1437      2020203A 
 1438              	.LC61:
 1439 0530 41676520 		.ascii	"Age (milliseconds) : %.2f\000"
 1439      286D696C 
 1439      6C697365 
 1439      636F6E64 
 1439      7329203A 
 1440 054a 0000     		.space	2
 1441              	.LC62:
 1442 054c 52504D20 		.ascii	"RPM                : %.2f\000"
 1442      20202020 
 1442      20202020 
 1442      20202020 
 1442      2020203A 
 1443 0566 0000     		.space	2
 1444              	.LC63:
 1445 0568 43757272 		.ascii	"Current            : %.2f\000"
 1445      656E7420 
 1445      20202020 
 1445      20202020 
 1445      2020203A 
 1446 0582 0000     		.space	2
 1447              	.LC64:
 1448 0584 44757479 		.ascii	"Duty               : %.2f\012\000"
 1448      20202020 
 1448      20202020 
 1448      20202020 
 1448      2020203A 
 1449 059f 00       		.space	1
 1450              	.LC65:
 1451 05a0 7365745F 		.ascii	"set_hall_table\000"
 1451      68616C6C 
 1451      5F746162 
 1451      6C6500
 1452 05af 00       		.space	1
ARM GAS  C:\Users\jsyoon\AppData\Local\Temp\ccMFir12.s 			page 30


 1453              	.LC66:
 1454 05b0 256900   		.ascii	"%i\000"
 1455 05b3 00       		.space	1
 1456              	.LC67:
 1457 05b4 4E657720 		.ascii	"New hall sensor dir: %i fwd_add %i rev_add %i\012\000"
 1457      68616C6C 
 1457      2073656E 
 1457      736F7220 
 1457      6469723A 
 1458 05e3 00       		.space	1
 1459              	.LC68:
 1460 05e4 68656C70 		.ascii	"help\000"
 1460      00
 1461 05e9 000000   		.space	3
 1462              	.LC69:
 1463 05ec 56616C69 		.ascii	"Valid commands are:\000"
 1463      6420636F 
 1463      6D6D616E 
 1463      64732061 
 1463      72653A00 
 1464              	.LC70:
 1465 0600 20205368 		.ascii	"  Show this help\000"
 1465      6F772074 
 1465      68697320 
 1465      68656C70 
 1465      00
 1466 0611 000000   		.space	3
 1467              	.LC71:
 1468 0614 20205072 		.ascii	"  Print pong here to see if the reply works\000"
 1468      696E7420 
 1468      706F6E67 
 1468      20686572 
 1468      6520746F 
 1469              	.LC72:
 1470 0640 20205374 		.ascii	"  Stop the motor\000"
 1470      6F702074 
 1470      6865206D 
 1470      6F746F72 
 1470      00
 1471 0651 000000   		.space	3
 1472              	.LC73:
 1473 0654 20205468 		.ascii	"  The time the latest ADC interrupt consumed\000"
 1473      65207469 
 1473      6D652074 
 1473      6865206C 
 1473      61746573 
 1474 0681 000000   		.space	3
 1475              	.LC74:
 1476 0684 20205468 		.ascii	"  The calculated kv of the motor\000"
 1476      65206361 
 1476      6C63756C 
 1476      61746564 
 1476      206B7620 
 1477 06a5 000000   		.space	3
 1478              	.LC75:
 1479 06a8 20205368 		.ascii	"  Show memory usage\000"
 1479      6F77206D 
ARM GAS  C:\Users\jsyoon\AppData\Local\Temp\ccMFir12.s 			page 31


 1479      656D6F72 
 1479      79207573 
 1479      61676500 
 1480              	.LC76:
 1481 06bc 20204C69 		.ascii	"  List all threads\000"
 1481      73742061 
 1481      6C6C2074 
 1481      68726561 
 1481      647300
 1482 06cf 00       		.space	1
 1483              	.LC77:
 1484 06d0 20205072 		.ascii	"  Prints the current fault code\000"
 1484      696E7473 
 1484      20746865 
 1484      20637572 
 1484      72656E74 
 1485              	.LC78:
 1486 06f0 20205072 		.ascii	"  Prints all stored fault codes and conditions when"
 1486      696E7473 
 1486      20616C6C 
 1486      2073746F 
 1486      72656420 
 1487 0723 20746865 		.ascii	" they arrived\000"
 1487      79206172 
 1487      72697665 
 1487      6400
 1488 0731 000000   		.space	3
 1489              	.LC79:
 1490 0734 20205072 		.ascii	"  Prints the current electrical RPM\000"
 1490      696E7473 
 1490      20746865 
 1490      20637572 
 1490      72656E74 
 1491              	.LC80:
 1492 0758 20205072 		.ascii	"  Prints tachometer value\000"
 1492      696E7473 
 1492      20746163 
 1492      686F6D65 
 1492      74657220 
 1493 0772 0000     		.space	2
 1494              	.LC81:
 1495 0774 20205072 		.ascii	"  Prints tim1 and tim8 settings\000"
 1495      696E7473 
 1495      2074696D 
 1495      3120616E 
 1495      64207469 
 1496              	.LC82:
 1497 0794 7365745F 		.ascii	"set_hall_table [dir] [fwd_add] [rev_add]\000"
 1497      68616C6C 
 1497      5F746162 
 1497      6C65205B 
 1497      6469725D 
 1498 07bd 000000   		.space	3
 1499              	.LC83:
 1500 07c0 20205570 		.ascii	"  Update the hall sensor lookup table\000"
 1500      64617465 
 1500      20746865 
ARM GAS  C:\Users\jsyoon\AppData\Local\Temp\ccMFir12.s 			page 32


 1500      2068616C 
 1500      6C207365 
 1501 07e6 0000     		.space	2
 1502              	.LC84:
 1503 07e8 20205072 		.ascii	"  Prints different voltages\000"
 1503      696E7473 
 1503      20646966 
 1503      66657265 
 1503      6E742076 
 1504              	.LC85:
 1505 0804 70617261 		.ascii	"param_detect [current] [min_rpm] [low_duty]\000"
 1505      6D5F6465 
 1505      74656374 
 1505      205B6375 
 1505      7272656E 
 1506              	.LC86:
 1507 0830 20205370 		.ascii	"  Spin up the motor in COMM_MODE_DELAY and compute "
 1507      696E2075 
 1507      70207468 
 1507      65206D6F 
 1507      746F7220 
 1508 0863 69747320 		.ascii	"its parameters.\000"
 1508      70617261 
 1508      6D657465 
 1508      72732E00 
 1509 0873 00       		.space	1
 1510              	.LC87:
 1511 0874 20205468 		.ascii	"  This test should be performed without load on the"
 1511      69732074 
 1511      65737420 
 1511      73686F75 
 1511      6C642062 
 1512 08a7 206D6F74 		.ascii	" motor.\000"
 1512      6F722E00 
 1513 08af 00       		.space	1
 1514              	.LC88:
 1515 08b0 20204578 		.ascii	"  Example: param_detect 5.0 600 0.06\000"
 1515      616D706C 
 1515      653A2070 
 1515      6172616D 
 1515      5F646574 
 1516 08d5 000000   		.space	3
 1517              	.LC89:
 1518 08d8 20205072 		.ascii	"  Prints some rpm-dep values\000"
 1518      696E7473 
 1518      20736F6D 
 1518      65207270 
 1518      6D2D6465 
 1519 08f5 000000   		.space	3
 1520              	.LC90:
 1521 08f8 20205072 		.ascii	"  Prints all CAN devices seen on the bus the past s"
 1521      696E7473 
 1521      20616C6C 
 1521      2043414E 
 1521      20646576 
 1522 092b 65636F6E 		.ascii	"econd\012\000"
 1522      640A00
ARM GAS  C:\Users\jsyoon\AppData\Local\Temp\ccMFir12.s 			page 33


 1523 0932 0000     		.space	2
 1524              	.LC91:
 1525 0934 496E7661 		.ascii	"Invalid command: %s\012type help to list all availa"
 1525      6C696420 
 1525      636F6D6D 
 1525      616E643A 
 1525      2025730A 
 1526 0964 626C6520 		.ascii	"ble commands\012\000"
 1526      636F6D6D 
 1526      616E6473 
 1526      0A00
 1527 0972 0000     		.space	2
 1528              	.LC92:
 1529 0974 52454144 		.ascii	"READY\000"
 1529      5900
 1530 097a 0000     		.space	2
 1531              	.LC93:
 1532 097c 43555252 		.ascii	"CURRENT\000"
 1532      454E5400 
 1533              	.LC94:
 1534 0984 53555350 		.ascii	"SUSPENDED\000"
 1534      454E4445 
 1534      4400
 1535 098e 0000     		.space	2
 1536              	.LC95:
 1537 0990 57545345 		.ascii	"WTSEM\000"
 1537      4D00
 1538 0996 0000     		.space	2
 1539              	.LC96:
 1540 0998 57544D54 		.ascii	"WTMTX\000"
 1540      5800
 1541 099e 0000     		.space	2
 1542              	.LC97:
 1543 09a0 5754434F 		.ascii	"WTCOND\000"
 1543      4E4400
 1544 09a7 00       		.space	1
 1545              	.LC98:
 1546 09a8 534C4545 		.ascii	"SLEEPING\000"
 1546      50494E47 
 1546      00
 1547 09b1 000000   		.space	3
 1548              	.LC99:
 1549 09b4 57544558 		.ascii	"WTEXIT\000"
 1549      495400
 1550 09bb 00       		.space	1
 1551              	.LC100:
 1552 09bc 57544F52 		.ascii	"WTOREVT\000"
 1552      45565400 
 1553              	.LC101:
 1554 09c4 5754414E 		.ascii	"WTANDEVT\000"
 1554      44455654 
 1554      00
 1555 09cd 000000   		.space	3
 1556              	.LC102:
 1557 09d0 534E444D 		.ascii	"SNDMSGQ\000"
 1557      53475100 
 1558              	.LC103:
ARM GAS  C:\Users\jsyoon\AppData\Local\Temp\ccMFir12.s 			page 34


 1559 09d8 534E444D 		.ascii	"SNDMSG\000"
 1559      534700
 1560 09df 00       		.space	1
 1561              	.LC104:
 1562 09e0 57544D53 		.ascii	"WTMSG\000"
 1562      4700
 1563 09e6 0000     		.space	2
 1564              	.LC105:
 1565 09e8 57545155 		.ascii	"WTQUEUE\000"
 1565      45554500 
 1566              	.LC106:
 1567 09f0 46494E41 		.ascii	"FINAL\000"
 1567      4C00
 1568 09f6 0000     		.section	.bss.fault_vec,"aw",%nobits
 1569              		.align	2
 1570              		.set	.LANCHOR2,. + 0
 1571              		.type	fault_vec, %object
 1572              		.size	fault_vec, 1320
 1573              	fault_vec:
 1574 0000 00000000 		.space	1320
 1574      00000000 
 1574      00000000 
 1574      00000000 
 1574      00000000 
 1575              		.text
 1576              	.Letext0:
 1577              		.file 2 "c:\\crosstools\\gcc-arm-embedded\\4.8_2014q2\\lib\\gcc\\arm-none-eabi\\4.8.4\\include\\st
 1578              		.file 3 "c:\\crosstools\\gcc-arm-embedded\\4.8_2014q2\\arm-none-eabi\\include\\machine\\_default_t
 1579              		.file 4 "c:\\crosstools\\gcc-arm-embedded\\4.8_2014q2\\arm-none-eabi\\include\\stdint.h"
 1580              		.file 5 "ChibiOS_2.6.6/os/ports/GCC/ARMCMx/chtypes.h"
 1581              		.file 6 "ChibiOS_2.6.6/os/kernel/include/chlists.h"
 1582              		.file 7 "ChibiOS_2.6.6/os/kernel/include/chthreads.h"
 1583              		.file 8 "ChibiOS_2.6.6/os/ports/GCC/ARMCMx/chcore_v7m.h"
 1584              		.file 9 "ChibiOS_2.6.6/os/kernel/include/chvt.h"
 1585              		.file 10 "ChibiOS_2.6.6/os/kernel/include/chmtx.h"
 1586              		.file 11 "ChibiOS_2.6.6/os/kernel/include/chmemcore.h"
 1587              		.file 12 "ChibiOS_2.6.6/os/kernel/include/chheap.h"
 1588              		.file 13 "ChibiOS_2.6.6/os/hal/platforms/STM32F4xx/stm32f4xx.h"
 1589              		.file 14 "datatypes.h"
 1590              		.file 15 "ChibiOS_2.6.6/os/ports/common/ARMCMx/CMSIS/include/core_cm4.h"
 1591              		.file 16 "mcpwm.h"
 1592              		.file 17 "ChibiOS_2.6.6/os/kernel/include/chregistry.h"
 1593              		.file 18 "c:\\crosstools\\gcc-arm-embedded\\4.8_2014q2\\arm-none-eabi\\include\\stdio.h"
 1594              		.file 19 "conf_general.h"
 1595              		.file 20 "comm_can.h"
 1596              		.file 21 "c:\\crosstools\\gcc-arm-embedded\\4.8_2014q2\\arm-none-eabi\\include\\string.h"
 1597              		.file 22 "commands.h"