ARM GAS  C:\Users\jsyoon\AppData\Local\Temp\ccsCf8JS.s 			page 1


   1              		.syntax unified
   2              		.cpu cortex-m4
   3              		.eabi_attribute 27, 3
   4              		.eabi_attribute 28, 1
   5              		.fpu fpv4-sp-d16
   6              		.eabi_attribute 20, 1
   7              		.eabi_attribute 21, 1
   8              		.eabi_attribute 23, 3
   9              		.eabi_attribute 24, 1
  10              		.eabi_attribute 25, 1
  11              		.eabi_attribute 26, 1
  12              		.eabi_attribute 30, 2
  13              		.eabi_attribute 34, 1
  14              		.eabi_attribute 18, 4
  15              		.thumb
  16              		.file	"timeout.c"
  17              		.text
  18              	.Ltext0:
  19              		.cfi_sections	.debug_frame
  20              		.section	.text.timeout_thread,"ax",%progbits
  21              		.align	2
  22              		.p2align 4,,15
  23              		.thumb
  24              		.thumb_func
  25              		.type	timeout_thread, %function
  26              	timeout_thread:
  27              	.LFB12:
  28              		.file 1 "timeout.c"
  29              		.loc 1 65 0
  30              		.cfi_startproc
  31              		@ Volatile: function does not return.
  32              		@ args = 0, pretend = 0, frame = 0
  33              		@ frame_needed = 0, uses_anonymous_args = 0
  34              	.LVL0:
  35 0000 08B5     		push	{r3, lr}
  36              		.cfi_def_cfa_offset 8
  37              		.cfi_offset 3, -8
  38              		.cfi_offset 14, -4
  39              		.loc 1 68 0
  40 0002 044B     		ldr	r3, .L4
  41 0004 044A     		ldr	r2, .L4+4
  42 0006 9B69     		ldr	r3, [r3, #24]
  43 0008 9A61     		str	r2, [r3, #24]
  44              	.LVL1:
  45              	.L2:
  46              		.loc 1 79 0 discriminator 1
  47 000a 6420     		movs	r0, #100
  48 000c FFF7FEFF 		bl	chThdSleep
  49              	.LVL2:
  50 0010 FBE7     		b	.L2
  51              	.L5:
  52 0012 00BF     		.align	2
  53              	.L4:
  54 0014 00000000 		.word	rlist
  55 0018 00000000 		.word	.LC0
  56              		.cfi_endproc
  57              	.LFE12:
ARM GAS  C:\Users\jsyoon\AppData\Local\Temp\ccsCf8JS.s 			page 2


  58              		.size	timeout_thread, .-timeout_thread
  59 001c AFF30080 		.section	.text.timeout_init,"ax",%progbits
  60              		.align	2
  61              		.p2align 4,,15
  62              		.global	timeout_init
  63              		.thumb
  64              		.thumb_func
  65              		.type	timeout_init, %function
  66              	timeout_init:
  67              	.LFB7:
  68              		.loc 1 39 0
  69              		.cfi_startproc
  70              		@ args = 0, pretend = 0, frame = 0
  71              		@ frame_needed = 0, uses_anonymous_args = 0
  72 0000 2DE9F041 		push	{r4, r5, r6, r7, r8, lr}
  73              		.cfi_def_cfa_offset 24
  74              		.cfi_offset 4, -24
  75              		.cfi_offset 5, -20
  76              		.cfi_offset 6, -16
  77              		.cfi_offset 7, -12
  78              		.cfi_offset 8, -8
  79              		.cfi_offset 14, -4
  80              		.loc 1 40 0
  81 0004 DFF848E0 		ldr	lr, .L7+20
  82              		.loc 1 41 0
  83 0008 0C4F     		ldr	r7, .L7
  84              		.loc 1 42 0
  85 000a 0D4E     		ldr	r6, .L7+4
  86              		.loc 1 43 0
  87 000c 0D4D     		ldr	r5, .L7+8
  88              		.loc 1 45 0
  89 000e 0E4B     		ldr	r3, .L7+12
  90 0010 0E48     		ldr	r0, .L7+16
  91              		.loc 1 39 0
  92 0012 82B0     		sub	sp, sp, #8
  93              		.cfi_def_cfa_offset 32
  94              		.loc 1 41 0
  95 0014 0024     		movs	r4, #0
  96              		.loc 1 40 0
  97 0016 4FF47A7C 		mov	ip, #1000
  98              		.loc 1 45 0
  99 001a 0094     		str	r4, [sp]
 100              		.loc 1 42 0
 101 001c 4FF00008 		mov	r8, #0
 102              		.loc 1 40 0
 103 0020 CEF800C0 		str	ip, [lr]
 104              		.loc 1 45 0
 105 0024 4FF46671 		mov	r1, #920
 106              		.loc 1 41 0
 107 0028 3C60     		str	r4, [r7]
 108              		.loc 1 45 0
 109 002a 4022     		movs	r2, #64
 110              		.loc 1 42 0
 111 002c C6F80080 		str	r8, [r6]	@ float
 112              		.loc 1 43 0
 113 0030 2C70     		strb	r4, [r5]
 114              		.loc 1 45 0
ARM GAS  C:\Users\jsyoon\AppData\Local\Temp\ccsCf8JS.s 			page 3


 115 0032 FFF7FEFF 		bl	chThdCreateStatic
 116              	.LVL3:
 117              		.loc 1 46 0
 118 0036 02B0     		add	sp, sp, #8
 119              		@ sp needed
 120 0038 BDE8F081 		pop	{r4, r5, r6, r7, r8, pc}
 121              	.L8:
 122              		.align	2
 123              	.L7:
 124 003c 00000000 		.word	.LANCHOR1
 125 0040 00000000 		.word	.LANCHOR2
 126 0044 00000000 		.word	.LANCHOR3
 127 0048 00000000 		.word	timeout_thread
 128 004c 00000000 		.word	.LANCHOR4
 129 0050 00000000 		.word	.LANCHOR0
 130              		.cfi_endproc
 131              	.LFE7:
 132              		.size	timeout_init, .-timeout_init
 133 0054 AFF30080 		.section	.text.timeout_configure,"ax",%progbits
 133      AFF30080 
 133      AFF30080 
 134              		.align	2
 135              		.p2align 4,,15
 136              		.global	timeout_configure
 137              		.thumb
 138              		.thumb_func
 139              		.type	timeout_configure, %function
 140              	timeout_configure:
 141              	.LFB8:
 142              		.loc 1 48 0
 143              		.cfi_startproc
 144              		@ args = 0, pretend = 0, frame = 0
 145              		@ frame_needed = 0, uses_anonymous_args = 0
 146              		@ link register save eliminated.
 147              	.LVL4:
 148              		.loc 1 49 0
 149 0000 024A     		ldr	r2, .L10
 150              		.loc 1 50 0
 151 0002 034B     		ldr	r3, .L10+4
 152              		.loc 1 49 0
 153 0004 1060     		str	r0, [r2]
 154              		.loc 1 50 0
 155 0006 83ED000A 		fsts	s0, [r3]
 156 000a 7047     		bx	lr
 157              	.L11:
 158              		.align	2
 159              	.L10:
 160 000c 00000000 		.word	.LANCHOR0
 161 0010 00000000 		.word	.LANCHOR2
 162              		.cfi_endproc
 163              	.LFE8:
 164              		.size	timeout_configure, .-timeout_configure
 165 0014 AFF30080 		.section	.text.timeout_reset,"ax",%progbits
 165      AFF30080 
 165      AFF30080 
 166              		.align	2
 167              		.p2align 4,,15
ARM GAS  C:\Users\jsyoon\AppData\Local\Temp\ccsCf8JS.s 			page 4


 168              		.global	timeout_reset
 169              		.thumb
 170              		.thumb_func
 171              		.type	timeout_reset, %function
 172              	timeout_reset:
 173              	.LFB9:
 174              		.loc 1 53 0
 175              		.cfi_startproc
 176              		@ args = 0, pretend = 0, frame = 0
 177              		@ frame_needed = 0, uses_anonymous_args = 0
 178              		@ link register save eliminated.
 179              		.loc 1 54 0
 180 0000 024A     		ldr	r2, .L13
 181 0002 034B     		ldr	r3, .L13+4
 182 0004 D268     		ldr	r2, [r2, #12]
 183 0006 1A60     		str	r2, [r3]
 184 0008 7047     		bx	lr
 185              	.L14:
 186 000a 00BF     		.align	2
 187              	.L13:
 188 000c 00000000 		.word	vtlist
 189 0010 00000000 		.word	.LANCHOR1
 190              		.cfi_endproc
 191              	.LFE9:
 192              		.size	timeout_reset, .-timeout_reset
 193 0014 AFF30080 		.section	.text.timeout_has_timeout,"ax",%progbits
 193      AFF30080 
 193      AFF30080 
 194              		.align	2
 195              		.p2align 4,,15
 196              		.global	timeout_has_timeout
 197              		.thumb
 198              		.thumb_func
 199              		.type	timeout_has_timeout, %function
 200              	timeout_has_timeout:
 201              	.LFB10:
 202              		.loc 1 57 0
 203              		.cfi_startproc
 204              		@ args = 0, pretend = 0, frame = 0
 205              		@ frame_needed = 0, uses_anonymous_args = 0
 206              		@ link register save eliminated.
 207              		.loc 1 58 0
 208 0000 014B     		ldr	r3, .L16
 209 0002 1878     		ldrb	r0, [r3]	@ zero_extendqisi2
 210              		.loc 1 59 0
 211 0004 7047     		bx	lr
 212              	.L17:
 213 0006 00BF     		.align	2
 214              	.L16:
 215 0008 00000000 		.word	.LANCHOR3
 216              		.cfi_endproc
 217              	.LFE10:
 218              		.size	timeout_has_timeout, .-timeout_has_timeout
 219 000c AFF30080 		.section	.text.timeout_get_timeout_msec,"ax",%progbits
 220              		.align	2
 221              		.p2align 4,,15
 222              		.global	timeout_get_timeout_msec
ARM GAS  C:\Users\jsyoon\AppData\Local\Temp\ccsCf8JS.s 			page 5


 223              		.thumb
 224              		.thumb_func
 225              		.type	timeout_get_timeout_msec, %function
 226              	timeout_get_timeout_msec:
 227              	.LFB11:
 228              		.loc 1 61 0
 229              		.cfi_startproc
 230              		@ args = 0, pretend = 0, frame = 0
 231              		@ frame_needed = 0, uses_anonymous_args = 0
 232              		@ link register save eliminated.
 233              		.loc 1 62 0
 234 0000 014B     		ldr	r3, .L19
 235 0002 1868     		ldr	r0, [r3]
 236              		.loc 1 63 0
 237 0004 7047     		bx	lr
 238              	.L20:
 239 0006 00BF     		.align	2
 240              	.L19:
 241 0008 00000000 		.word	.LANCHOR0
 242              		.cfi_endproc
 243              	.LFE11:
 244              		.size	timeout_get_timeout_msec, .-timeout_get_timeout_msec
 245 000c AFF30080 		.section	.bss.timeout_thread_wa,"aw",%nobits
 246              		.align	3
 247              		.set	.LANCHOR4,. + 0
 248              		.type	timeout_thread_wa, %object
 249              		.size	timeout_thread_wa, 920
 250              	timeout_thread_wa:
 251 0000 00000000 		.space	920
 251      00000000 
 251      00000000 
 251      00000000 
 251      00000000 
 252              		.section	.bss.last_update_time,"aw",%nobits
 253              		.align	2
 254              		.set	.LANCHOR1,. + 0
 255              		.type	last_update_time, %object
 256              		.size	last_update_time, 4
 257              	last_update_time:
 258 0000 00000000 		.space	4
 259              		.section	.rodata.str1.4,"aMS",%progbits,1
 260              		.align	2
 261              	.LC0:
 262 0000 54696D65 		.ascii	"Timeout\000"
 262      6F757400 
 263              		.section	.bss.timeout_brake_current,"aw",%nobits
 264              		.align	2
 265              		.set	.LANCHOR2,. + 0
 266              		.type	timeout_brake_current, %object
 267              		.size	timeout_brake_current, 4
 268              	timeout_brake_current:
 269 0000 00000000 		.space	4
 270              		.section	.bss.has_timeout,"aw",%nobits
 271              		.set	.LANCHOR3,. + 0
 272              		.type	has_timeout, %object
 273              		.size	has_timeout, 1
 274              	has_timeout:
ARM GAS  C:\Users\jsyoon\AppData\Local\Temp\ccsCf8JS.s 			page 6


 275 0000 00       		.space	1
 276              		.section	.bss.timeout_msec,"aw",%nobits
 277              		.align	2
 278              		.set	.LANCHOR0,. + 0
 279              		.type	timeout_msec, %object
 280              		.size	timeout_msec, 4
 281              	timeout_msec:
 282 0000 00000000 		.space	4
 283              		.text
 284              	.Letext0:
 285              		.file 2 "c:\\crosstools\\gcc-arm-embedded\\4.8_2014q2\\lib\\gcc\\arm-none-eabi\\4.8.4\\include\\st
 286              		.file 3 "c:\\crosstools\\gcc-arm-embedded\\4.8_2014q2\\arm-none-eabi\\include\\machine\\_default_t
 287              		.file 4 "c:\\crosstools\\gcc-arm-embedded\\4.8_2014q2\\arm-none-eabi\\include\\stdint.h"
 288              		.file 5 "ChibiOS_2.6.6/os/ports/GCC/ARMCMx/chtypes.h"
 289              		.file 6 "ChibiOS_2.6.6/os/kernel/include/chlists.h"
 290              		.file 7 "ChibiOS_2.6.6/os/kernel/include/chthreads.h"
 291              		.file 8 "ChibiOS_2.6.6/os/ports/GCC/ARMCMx/chcore_v7m.h"
 292              		.file 9 "ChibiOS_2.6.6/os/kernel/include/chvt.h"
 293              		.file 10 "ChibiOS_2.6.6/os/kernel/include/chschd.h"
 294              		.file 11 "ChibiOS_2.6.6/os/kernel/include/chmtx.h"