ARM GAS  C:\Users\ADMINI~1\AppData\Local\Temp\ccAZ8Fmz.s 			page 1


   1              		.syntax unified
   2              		.cpu cortex-m4
   3              		.eabi_attribute 27, 1
   4              		.eabi_attribute 28, 1
   5              		.fpu fpv4-sp-d16
   6              		.eabi_attribute 20, 1
   7              		.eabi_attribute 21, 1
   8              		.eabi_attribute 23, 3
   9              		.eabi_attribute 24, 1
  10              		.eabi_attribute 25, 1
  11              		.eabi_attribute 26, 1
  12              		.eabi_attribute 30, 2
  13              		.eabi_attribute 34, 1
  14              		.eabi_attribute 18, 4
  15              		.thumb
  16              		.file	"uart_lld.c"
  17              		.text
  18              	.Ltext0:
  19              		.cfi_sections	.debug_frame
  20              		.section	.text.usart_stop,"ax",%progbits
  21              		.align	2
  22              		.p2align 4,,15
  23              		.thumb
  24              		.thumb_func
  25              		.type	usart_stop, %function
  26              	usart_stop:
  27              	.LFB120:
  28              		.file 1 "ChibiOS_2.6.6/os/hal/platforms/STM32/USARTv1/uart_lld.c"
  29              		.loc 1 181 0
  30              		.cfi_startproc
  31              		@ args = 0, pretend = 0, frame = 0
  32              		@ frame_needed = 0, uses_anonymous_args = 0
  33              		@ link register save eliminated.
  34              	.LVL0:
  35 0000 30B4     		push	{r4, r5}
  36              		.cfi_def_cfa_offset 8
  37              		.cfi_offset 4, -8
  38              		.cfi_offset 5, -4
  39              		.loc 1 184 0
  40 0002 0469     		ldr	r4, [r0, #16]
  41 0004 2268     		ldr	r2, [r4]
  42 0006 1368     		ldr	r3, [r2]
  43 0008 23F01F03 		bic	r3, r3, #31
  44 000c 1360     		str	r3, [r2]
  45              	.L2:
  46              		.loc 1 184 0 is_stmt 0 discriminator 2
  47 000e 1368     		ldr	r3, [r2]
  48 0010 DB07     		lsls	r3, r3, #31
  49 0012 FCD4     		bmi	.L2
  50              		.loc 1 184 0 discriminator 3
  51 0014 257A     		ldrb	r5, [r4, #8]	@ zero_extendqisi2
  52              		.loc 1 185 0 is_stmt 1 discriminator 3
  53 0016 4169     		ldr	r1, [r0, #20]
  54              		.loc 1 184 0 discriminator 3
  55 0018 6468     		ldr	r4, [r4, #4]
  56              		.loc 1 185 0 discriminator 3
  57 001a 0A68     		ldr	r2, [r1]
ARM GAS  C:\Users\ADMINI~1\AppData\Local\Temp\ccAZ8Fmz.s 			page 2


  58              		.loc 1 184 0 discriminator 3
  59 001c 3D23     		movs	r3, #61
  60 001e AB40     		lsls	r3, r3, r5
  61 0020 2360     		str	r3, [r4]
  62              		.loc 1 185 0 discriminator 3
  63 0022 1368     		ldr	r3, [r2]
  64 0024 23F01F03 		bic	r3, r3, #31
  65 0028 1360     		str	r3, [r2]
  66              	.L3:
  67              		.loc 1 185 0 is_stmt 0 discriminator 2
  68 002a 1368     		ldr	r3, [r2]
  69 002c 13F00103 		ands	r3, r3, #1
  70 0030 FBD1     		bne	.L3
  71              		.loc 1 185 0 discriminator 3
  72 0032 0C7A     		ldrb	r4, [r1, #8]	@ zero_extendqisi2
  73              		.loc 1 188 0 is_stmt 1 discriminator 3
  74 0034 8268     		ldr	r2, [r0, #8]
  75              		.loc 1 185 0 discriminator 3
  76 0036 4868     		ldr	r0, [r1, #4]
  77              	.LVL1:
  78 0038 3D21     		movs	r1, #61
  79 003a A140     		lsls	r1, r1, r4
  80 003c 0160     		str	r1, [r0]
  81              		.loc 1 191 0 discriminator 3
  82 003e 30BC     		pop	{r4, r5}
  83              		.cfi_restore 5
  84              		.cfi_restore 4
  85              		.cfi_def_cfa_offset 0
  86              		.loc 1 188 0 discriminator 3
  87 0040 9381     		strh	r3, [r2, #12]	@ movhi
  88              		.loc 1 189 0 discriminator 3
  89 0042 1382     		strh	r3, [r2, #16]	@ movhi
  90              		.loc 1 190 0 discriminator 3
  91 0044 9382     		strh	r3, [r2, #20]	@ movhi
  92              		.loc 1 191 0 discriminator 3
  93 0046 7047     		bx	lr
  94              		.cfi_endproc
  95              	.LFE120:
  96              		.size	usart_stop, .-usart_stop
  97              		.section	.text.serve_usart_irq,"ax",%progbits
  98              		.align	2
  99              		.p2align 4,,15
 100              		.thumb
 101              		.thumb_func
 102              		.type	serve_usart_irq, %function
 103              	serve_usart_irq:
 104              	.LFB124:
 105              		.loc 1 312 0
 106              		.cfi_startproc
 107              		@ args = 0, pretend = 0, frame = 0
 108              		@ frame_needed = 0, uses_anonymous_args = 0
 109              	.LVL2:
 110 0000 70B5     		push	{r4, r5, r6, lr}
 111              		.cfi_def_cfa_offset 16
 112              		.cfi_offset 4, -16
 113              		.cfi_offset 5, -12
 114              		.cfi_offset 6, -8
ARM GAS  C:\Users\ADMINI~1\AppData\Local\Temp\ccAZ8Fmz.s 			page 3


 115              		.cfi_offset 14, -4
 116              		.loc 1 314 0
 117 0002 8568     		ldr	r5, [r0, #8]
 118              	.LVL3:
 119              		.loc 1 316 0
 120 0004 2C88     		ldrh	r4, [r5]
 121              		.loc 1 317 0
 122 0006 AA88     		ldrh	r2, [r5, #4]
 123              		.loc 1 318 0
 124 0008 40F20F13 		movw	r3, #271
 125              		.loc 1 316 0
 126 000c A4B2     		uxth	r4, r4
 127              	.LVL4:
 128              		.loc 1 318 0
 129 000e 2340     		ands	r3, r3, r4
 130              		.loc 1 312 0
 131 0010 0646     		mov	r6, r0
 132              		.loc 1 318 0
 133 0012 E3B1     		cbz	r3, .L10
 134              		.loc 1 321 0
 135 0014 4368     		ldr	r3, [r0, #4]
 136 0016 1B69     		ldr	r3, [r3, #16]
 137              		.loc 1 320 0
 138 0018 4FF6FF62 		movw	r2, #65279
 139 001c 2A80     		strh	r2, [r5]	@ movhi
 140              		.loc 1 321 0
 141 001e B3B1     		cbz	r3, .L10
 142              	.LVL5:
 143              	.LBB12:
 144              	.LBB13:
 145              		.loc 1 143 0
 146 0020 14F0080F 		tst	r4, #8
 147 0024 0CBF     		ite	eq
 148 0026 0021     		moveq	r1, #0
 149 0028 1021     		movne	r1, #16
 150              	.LVL6:
 151              		.loc 1 144 0
 152 002a E007     		lsls	r0, r4, #31
 153              	.LVL7:
 154              		.loc 1 145 0
 155 002c 48BF     		it	mi
 156 002e 41F00401 		orrmi	r1, r1, #4
 157              	.LVL8:
 158              		.loc 1 146 0
 159 0032 A207     		lsls	r2, r4, #30
 160              		.loc 1 147 0
 161 0034 48BF     		it	mi
 162 0036 41F00801 		orrmi	r1, r1, #8
 163              	.LVL9:
 164              		.loc 1 148 0
 165 003a 6007     		lsls	r0, r4, #29
 166              		.loc 1 149 0
 167 003c 48BF     		it	mi
 168 003e 41F02001 		orrmi	r1, r1, #32
 169              	.LVL10:
 170              		.loc 1 150 0
 171 0042 E205     		lsls	r2, r4, #23
ARM GAS  C:\Users\ADMINI~1\AppData\Local\Temp\ccAZ8Fmz.s 			page 4


 172              		.loc 1 151 0
 173 0044 48BF     		it	mi
 174 0046 41F04001 		orrmi	r1, r1, #64
 175              	.LVL11:
 176              	.LBE13:
 177              	.LBE12:
 178              		.loc 1 322 0
 179 004a 3046     		mov	r0, r6
 180 004c 9847     		blx	r3
 181              	.LVL12:
 182              	.L10:
 183              		.loc 1 324 0
 184 004e 6306     		lsls	r3, r4, #25
 185 0050 09D5     		bpl	.L8
 186              		.loc 1 328 0
 187 0052 7368     		ldr	r3, [r6, #4]
 188 0054 5B68     		ldr	r3, [r3, #4]
 189              		.loc 1 325 0
 190 0056 4FF6BF72 		movw	r2, #65471
 191 005a 2A80     		strh	r2, [r5]	@ movhi
 192              		.loc 1 328 0
 193 005c 1BB1     		cbz	r3, .L8
 194              		.loc 1 329 0
 195 005e 3046     		mov	r0, r6
 196              		.loc 1 331 0
 197 0060 BDE87040 		pop	{r4, r5, r6, lr}
 198              		.cfi_remember_state
 199              		.cfi_restore 14
 200              		.cfi_restore 6
 201              		.cfi_restore 5
 202              		.cfi_restore 4
 203              		.cfi_def_cfa_offset 0
 204              	.LVL13:
 205              		.loc 1 329 0
 206 0064 1847     		bx	r3	@ indirect register sibling call
 207              	.LVL14:
 208              	.L8:
 209              		.cfi_restore_state
 210 0066 70BD     		pop	{r4, r5, r6, pc}
 211              		.cfi_endproc
 212              	.LFE124:
 213              		.size	serve_usart_irq, .-serve_usart_irq
 214              		.section	.text.uart_lld_serve_tx_end_irq,"ax",%progbits
 215              		.align	2
 216              		.p2align 4,,15
 217              		.thumb
 218              		.thumb_func
 219              		.type	uart_lld_serve_tx_end_irq, %function
 220              	uart_lld_serve_tx_end_irq:
 221              	.LFB123:
 222              		.loc 1 283 0
 223              		.cfi_startproc
 224              		@ args = 0, pretend = 0, frame = 0
 225              		@ frame_needed = 0, uses_anonymous_args = 0
 226              	.LVL15:
 227              		.loc 1 287 0
 228 0000 11F00C0F 		tst	r1, #12
ARM GAS  C:\Users\ADMINI~1\AppData\Local\Temp\ccAZ8Fmz.s 			page 5


 229              		.loc 1 283 0
 230 0004 38B5     		push	{r3, r4, r5, lr}
 231              		.cfi_def_cfa_offset 16
 232              		.cfi_offset 3, -16
 233              		.cfi_offset 4, -12
 234              		.cfi_offset 5, -8
 235              		.cfi_offset 14, -4
 236              		.loc 1 283 0
 237 0006 0446     		mov	r4, r0
 238              		.loc 1 287 0
 239 0008 1BD1     		bne	.L54
 240              	.LVL16:
 241              	.L41:
 242              		.loc 1 294 0
 243 000a 6169     		ldr	r1, [r4, #20]
 244 000c 0A68     		ldr	r2, [r1]
 245 000e 1368     		ldr	r3, [r2]
 246 0010 23F01F03 		bic	r3, r3, #31
 247 0014 1360     		str	r3, [r2]
 248              	.L42:
 249              		.loc 1 294 0 is_stmt 0 discriminator 2
 250 0016 1368     		ldr	r3, [r2]
 251 0018 DB07     		lsls	r3, r3, #31
 252 001a FCD4     		bmi	.L42
 253              		.loc 1 298 0 is_stmt 1 discriminator 3
 254 001c 6368     		ldr	r3, [r4, #4]
 255              		.loc 1 294 0 discriminator 3
 256 001e 0D7A     		ldrb	r5, [r1, #8]	@ zero_extendqisi2
 257 0020 4868     		ldr	r0, [r1, #4]
 258              		.loc 1 298 0 discriminator 3
 259 0022 1A68     		ldr	r2, [r3]
 260              		.loc 1 294 0 discriminator 3
 261 0024 3D23     		movs	r3, #61
 262 0026 AB40     		lsls	r3, r3, r5
 263              		.loc 1 297 0 discriminator 3
 264 0028 0221     		movs	r1, #2
 265              		.loc 1 294 0 discriminator 3
 266 002a 0360     		str	r3, [r0]
 267              		.loc 1 297 0 discriminator 3
 268 002c 6170     		strb	r1, [r4, #1]
 269              		.loc 1 298 0 discriminator 3
 270 002e 2AB1     		cbz	r2, .L45
 271              		.loc 1 299 0
 272 0030 2046     		mov	r0, r4
 273 0032 9047     		blx	r2
 274              	.LVL17:
 275              		.loc 1 303 0
 276 0034 6378     		ldrb	r3, [r4, #1]	@ zero_extendqisi2
 277 0036 022B     		cmp	r3, #2
 278 0038 00D0     		beq	.L45
 279 003a 38BD     		pop	{r3, r4, r5, pc}
 280              	.LVL18:
 281              	.L45:
 282              		.loc 1 304 0
 283 003c 0023     		movs	r3, #0
 284 003e 6370     		strb	r3, [r4, #1]
 285 0040 38BD     		pop	{r3, r4, r5, pc}
ARM GAS  C:\Users\ADMINI~1\AppData\Local\Temp\ccAZ8Fmz.s 			page 6


 286              	.LVL19:
 287              	.L54:
 288              		.loc 1 288 0
 289 0042 FFF7FEFF 		bl	port_halt
 290              	.LVL20:
 291 0046 E0E7     		b	.L41
 292              		.cfi_endproc
 293              	.LFE123:
 294              		.size	uart_lld_serve_tx_end_irq, .-uart_lld_serve_tx_end_irq
 295              		.section	.text.uart_lld_serve_rx_end_irq,"ax",%progbits
 296              		.align	2
 297              		.p2align 4,,15
 298              		.thumb
 299              		.thumb_func
 300              		.type	uart_lld_serve_rx_end_irq, %function
 301              	uart_lld_serve_rx_end_irq:
 302              	.LFB122:
 303              		.loc 1 243 0
 304              		.cfi_startproc
 305              		@ args = 0, pretend = 0, frame = 0
 306              		@ frame_needed = 0, uses_anonymous_args = 0
 307              	.LVL21:
 308              		.loc 1 247 0
 309 0000 11F00C0F 		tst	r1, #12
 310              		.loc 1 243 0
 311 0004 70B5     		push	{r4, r5, r6, lr}
 312              		.cfi_def_cfa_offset 16
 313              		.cfi_offset 4, -16
 314              		.cfi_offset 5, -12
 315              		.cfi_offset 6, -8
 316              		.cfi_offset 14, -4
 317              		.loc 1 243 0
 318 0006 0446     		mov	r4, r0
 319              		.loc 1 247 0
 320 0008 3BD1     		bne	.L71
 321              	.LVL22:
 322              	.L56:
 323              		.loc 1 254 0
 324 000a A378     		ldrb	r3, [r4, #2]	@ zero_extendqisi2
 325 000c 4BB9     		cbnz	r3, .L57
 326              		.loc 1 257 0
 327 000e 6368     		ldr	r3, [r4, #4]
 328 0010 DB68     		ldr	r3, [r3, #12]
 329 0012 002B     		cmp	r3, #0
 330 0014 34D0     		beq	.L55
 331              		.loc 1 258 0
 332 0016 218B     		ldrh	r1, [r4, #24]
 333 0018 2046     		mov	r0, r4
 334 001a 89B2     		uxth	r1, r1
 335              		.loc 1 275 0
 336 001c BDE87040 		pop	{r4, r5, r6, lr}
 337              		.cfi_remember_state
 338              		.cfi_restore 14
 339              		.cfi_restore 6
 340              		.cfi_restore 5
 341              		.cfi_restore 4
 342              		.cfi_def_cfa_offset 0
ARM GAS  C:\Users\ADMINI~1\AppData\Local\Temp\ccAZ8Fmz.s 			page 7


 343              	.LVL23:
 344              		.loc 1 258 0
 345 0020 1847     		bx	r3	@ indirect register sibling call
 346              	.LVL24:
 347              	.L57:
 348              		.cfi_restore_state
 349              	.LBB18:
 350              	.LBB19:
 351              		.loc 1 263 0
 352 0022 2169     		ldr	r1, [r4, #16]
 353 0024 0A68     		ldr	r2, [r1]
 354 0026 1368     		ldr	r3, [r2]
 355 0028 23F01F03 		bic	r3, r3, #31
 356 002c 1360     		str	r3, [r2]
 357              	.L60:
 358 002e 1368     		ldr	r3, [r2]
 359 0030 DB07     		lsls	r3, r3, #31
 360 0032 FCD4     		bmi	.L60
 361              		.loc 1 265 0
 362 0034 6068     		ldr	r0, [r4, #4]
 363              		.loc 1 263 0
 364 0036 0D7A     		ldrb	r5, [r1, #8]	@ zero_extendqisi2
 365 0038 4E68     		ldr	r6, [r1, #4]
 366              		.loc 1 265 0
 367 003a 8168     		ldr	r1, [r0, #8]
 368              		.loc 1 263 0
 369 003c 3D23     		movs	r3, #61
 370 003e AB40     		lsls	r3, r3, r5
 371              		.loc 1 264 0
 372 0040 0225     		movs	r5, #2
 373              		.loc 1 263 0
 374 0042 3360     		str	r3, [r6]
 375              		.loc 1 264 0
 376 0044 A570     		strb	r5, [r4, #2]
 377              		.loc 1 265 0
 378 0046 39B1     		cbz	r1, .L61
 379              		.loc 1 266 0
 380 0048 2046     		mov	r0, r4
 381 004a 8847     		blx	r1
 382              	.LVL25:
 383              		.loc 1 270 0
 384 004c A378     		ldrb	r3, [r4, #2]	@ zero_extendqisi2
 385 004e AB42     		cmp	r3, r5
 386 0050 16D1     		bne	.L55
 387 0052 2369     		ldr	r3, [r4, #16]
 388 0054 6068     		ldr	r0, [r4, #4]
 389 0056 1A68     		ldr	r2, [r3]
 390              	.L61:
 391              	.LBB20:
 392              	.LBB21:
 393              		.loc 1 165 0
 394 0058 C168     		ldr	r1, [r0, #12]
 395              		.loc 1 171 0
 396 005a E368     		ldr	r3, [r4, #12]
 397              		.loc 1 168 0
 398 005c 0029     		cmp	r1, #0
 399 005e 0CBF     		ite	eq
ARM GAS  C:\Users\ADMINI~1\AppData\Local\Temp\ccAZ8Fmz.s 			page 8


 400 0060 4FF48071 		moveq	r1, #256
 401 0064 4FF48871 		movne	r1, #272
 402              		.loc 1 171 0
 403 0068 0B43     		orrs	r3, r3, r1
 404              	.LBE21:
 405              	.LBE20:
 406              		.loc 1 271 0
 407 006a 0025     		movs	r5, #0
 408              	.LBB24:
 409              	.LBB22:
 410              		.loc 1 170 0
 411 006c 0121     		movs	r1, #1
 412              		.loc 1 169 0
 413 006e 04F11800 		add	r0, r4, #24
 414              	.LBE22:
 415              	.LBE24:
 416              		.loc 1 271 0
 417 0072 A570     		strb	r5, [r4, #2]
 418              	.LVL26:
 419              	.LBB25:
 420              	.LBB23:
 421              		.loc 1 169 0
 422 0074 D060     		str	r0, [r2, #12]
 423              		.loc 1 170 0
 424 0076 5160     		str	r1, [r2, #4]
 425              		.loc 1 171 0
 426 0078 1360     		str	r3, [r2]
 427              		.loc 1 172 0
 428 007a 1368     		ldr	r3, [r2]
 429 007c 0B43     		orrs	r3, r3, r1
 430 007e 1360     		str	r3, [r2]
 431              	.LVL27:
 432              	.L55:
 433 0080 70BD     		pop	{r4, r5, r6, pc}
 434              	.LVL28:
 435              	.L71:
 436              	.LBE23:
 437              	.LBE25:
 438              	.LBE19:
 439              	.LBE18:
 440              		.loc 1 248 0
 441 0082 FFF7FEFF 		bl	port_halt
 442              	.LVL29:
 443 0086 C0E7     		b	.L56
 444              		.cfi_endproc
 445              	.LFE122:
 446              		.size	uart_lld_serve_rx_end_irq, .-uart_lld_serve_rx_end_irq
 447              		.section	.text.VectorDC,"ax",%progbits
 448              		.align	2
 449              		.p2align 4,,15
 450              		.global	VectorDC
 451              		.thumb
 452              		.thumb_func
 453              		.type	VectorDC, %function
 454              	VectorDC:
 455              	.LFB125:
 456              		.loc 1 384 0
ARM GAS  C:\Users\ADMINI~1\AppData\Local\Temp\ccAZ8Fmz.s 			page 9


 457              		.cfi_startproc
 458              		@ args = 0, pretend = 0, frame = 0
 459              		@ frame_needed = 0, uses_anonymous_args = 0
 460 0000 08B5     		push	{r3, lr}
 461              		.cfi_def_cfa_offset 8
 462              		.cfi_offset 3, -8
 463              		.cfi_offset 14, -4
 464              		.loc 1 388 0
 465 0002 0348     		ldr	r0, .L74
 466 0004 FFF7FEFF 		bl	serve_usart_irq
 467              	.LVL30:
 468              		.loc 1 391 0
 469 0008 BDE80840 		pop	{r3, lr}
 470              		.cfi_restore 14
 471              		.cfi_restore 3
 472              		.cfi_def_cfa_offset 0
 473              		.loc 1 390 0
 474 000c FFF7FEBF 		b	_port_irq_epilogue
 475              	.LVL31:
 476              	.L75:
 477              		.align	2
 478              	.L74:
 479 0010 00000000 		.word	.LANCHOR0
 480              		.cfi_endproc
 481              	.LFE125:
 482              		.size	VectorDC, .-VectorDC
 483              		.section	.text.Vector15C,"ax",%progbits
 484              		.align	2
 485              		.p2align 4,,15
 486              		.global	Vector15C
 487              		.thumb
 488              		.thumb_func
 489              		.type	Vector15C, %function
 490              	Vector15C:
 491              	.LFB126:
 492              		.loc 1 441 0
 493              		.cfi_startproc
 494              		@ args = 0, pretend = 0, frame = 0
 495              		@ frame_needed = 0, uses_anonymous_args = 0
 496 0000 08B5     		push	{r3, lr}
 497              		.cfi_def_cfa_offset 8
 498              		.cfi_offset 3, -8
 499              		.cfi_offset 14, -4
 500              		.loc 1 445 0
 501 0002 0348     		ldr	r0, .L78
 502 0004 FFF7FEFF 		bl	serve_usart_irq
 503              	.LVL32:
 504              		.loc 1 448 0
 505 0008 BDE80840 		pop	{r3, lr}
 506              		.cfi_restore 14
 507              		.cfi_restore 3
 508              		.cfi_def_cfa_offset 0
 509              		.loc 1 447 0
 510 000c FFF7FEBF 		b	_port_irq_epilogue
 511              	.LVL33:
 512              	.L79:
 513              		.align	2
ARM GAS  C:\Users\ADMINI~1\AppData\Local\Temp\ccAZ8Fmz.s 			page 10


 514              	.L78:
 515 0010 00000000 		.word	.LANCHOR1
 516              		.cfi_endproc
 517              	.LFE126:
 518              		.size	Vector15C, .-Vector15C
 519              		.section	.text.uart_lld_init,"ax",%progbits
 520              		.align	2
 521              		.p2align 4,,15
 522              		.global	uart_lld_init
 523              		.thumb
 524              		.thumb_func
 525              		.type	uart_lld_init, %function
 526              	uart_lld_init:
 527              	.LFB127:
 528              		.loc 1 460 0
 529              		.cfi_startproc
 530              		@ args = 0, pretend = 0, frame = 0
 531              		@ frame_needed = 0, uses_anonymous_args = 0
 532 0000 70B5     		push	{r4, r5, r6, lr}
 533              		.cfi_def_cfa_offset 16
 534              		.cfi_offset 4, -16
 535              		.cfi_offset 5, -12
 536              		.cfi_offset 6, -8
 537              		.cfi_offset 14, -4
 538              		.loc 1 479 0
 539 0002 0C4D     		ldr	r5, .L82
 540              		.loc 1 482 0
 541 0004 0C4C     		ldr	r4, .L82+4
 542              		.loc 1 503 0
 543 0006 0D4E     		ldr	r6, .L82+8
 544              		.loc 1 479 0
 545 0008 2846     		mov	r0, r5
 546 000a FFF7FEFF 		bl	uartObjectInit
 547              	.LVL34:
 548              		.loc 1 480 0
 549 000e 0C4B     		ldr	r3, .L82+12
 550 0010 AB60     		str	r3, [r5, #8]
 551              		.loc 1 481 0
 552 0012 0622     		movs	r2, #6
 553              		.loc 1 483 0
 554 0014 04F11803 		add	r3, r4, #24
 555              		.loc 1 503 0
 556 0018 3046     		mov	r0, r6
 557              		.loc 1 482 0
 558 001a 2C61     		str	r4, [r5, #16]
 559              		.loc 1 483 0
 560 001c 6B61     		str	r3, [r5, #20]
 561              		.loc 1 481 0
 562 001e EA60     		str	r2, [r5, #12]
 563              		.loc 1 503 0
 564 0020 FFF7FEFF 		bl	uartObjectInit
 565              	.LVL35:
 566              		.loc 1 504 0
 567 0024 074B     		ldr	r3, .L82+16
 568 0026 B360     		str	r3, [r6, #8]
 569              		.loc 1 505 0
 570 0028 04F16C03 		add	r3, r4, #108
ARM GAS  C:\Users\ADMINI~1\AppData\Local\Temp\ccAZ8Fmz.s 			page 11


 571              		.loc 1 506 0
 572 002c A834     		adds	r4, r4, #168
 573              		.loc 1 505 0
 574 002e 3361     		str	r3, [r6, #16]
 575              		.loc 1 506 0
 576 0030 7461     		str	r4, [r6, #20]
 577 0032 70BD     		pop	{r4, r5, r6, pc}
 578              	.L83:
 579              		.align	2
 580              	.L82:
 581 0034 00000000 		.word	.LANCHOR0
 582 0038 0C000000 		.word	_stm32_dma_streams+12
 583 003c 00000000 		.word	.LANCHOR1
 584 0040 00480040 		.word	1073760256
 585 0044 00140140 		.word	1073812480
 586              		.cfi_endproc
 587              	.LFE127:
 588              		.size	uart_lld_init, .-uart_lld_init
 589              		.section	.text.uart_lld_start,"ax",%progbits
 590              		.align	2
 591              		.p2align 4,,15
 592              		.global	uart_lld_start
 593              		.thumb
 594              		.thumb_func
 595              		.type	uart_lld_start, %function
 596              	uart_lld_start:
 597              	.LFB128:
 598              		.loc 1 517 0
 599              		.cfi_startproc
 600              		@ args = 0, pretend = 0, frame = 0
 601              		@ frame_needed = 0, uses_anonymous_args = 0
 602              	.LVL36:
 603              		.loc 1 519 0
 604 0000 0378     		ldrb	r3, [r0]	@ zero_extendqisi2
 605 0002 012B     		cmp	r3, #1
 606              		.loc 1 517 0
 607 0004 2DE9F041 		push	{r4, r5, r6, r7, r8, lr}
 608              		.cfi_def_cfa_offset 24
 609              		.cfi_offset 4, -24
 610              		.cfi_offset 5, -20
 611              		.cfi_offset 6, -16
 612              		.cfi_offset 7, -12
 613              		.cfi_offset 8, -8
 614              		.cfi_offset 14, -4
 615              		.loc 1 517 0
 616 0008 0446     		mov	r4, r0
 617              		.loc 1 519 0
 618 000a 48D0     		beq	.L85
 619 000c 8568     		ldr	r5, [r0, #8]
 620              	.LVL37:
 621              	.L86:
 622              		.loc 1 671 0
 623 000e 0023     		movs	r3, #0
 624 0010 A370     		strb	r3, [r4, #2]
 625              		.loc 1 672 0
 626 0012 6370     		strb	r3, [r4, #1]
 627              	.LVL38:
ARM GAS  C:\Users\ADMINI~1\AppData\Local\Temp\ccAZ8Fmz.s 			page 12


 628              	.LBB32:
 629              	.LBB33:
 630              		.loc 1 204 0
 631 0014 2046     		mov	r0, r4
 632 0016 FFF7FEFF 		bl	usart_stop
 633              	.LVL39:
 634              		.loc 1 208 0
 635 001a A368     		ldr	r3, [r4, #8]
 636 001c 4C4A     		ldr	r2, .L101
 637 001e 9342     		cmp	r3, r2
 638 0020 55D0     		beq	.L90
 639 0022 02F58062 		add	r2, r2, #1024
 640 0026 9342     		cmp	r3, r2
 641 0028 51D0     		beq	.L90
 642              		.loc 1 214 0
 643 002a 6368     		ldr	r3, [r4, #4]
 644 002c 494A     		ldr	r2, .L101+4
 645 002e 5969     		ldr	r1, [r3, #20]
 646 0030 B2FBF1F2 		udiv	r2, r2, r1
 647 0034 92B2     		uxth	r2, r2
 648 0036 2A81     		strh	r2, [r5, #8]	@ movhi
 649              	.L92:
 650              	.LBB34:
 651              	.LBB35:
 652              		.loc 1 165 0
 653 0038 D868     		ldr	r0, [r3, #12]
 654              	.LBE35:
 655              	.LBE34:
 656              		.loc 1 226 0
 657 003a D3F80480 		ldr	r8, [r3, #4]
 658              		.loc 1 217 0
 659 003e 2E88     		ldrh	r6, [r5]
 660              		.loc 1 231 0
 661 0040 1F8B     		ldrh	r7, [r3, #24]
 662              		.loc 1 218 0
 663 0042 AE88     		ldrh	r6, [r5, #4]
 664              		.loc 1 223 0
 665 0044 598B     		ldrh	r1, [r3, #26]
 666              		.loc 1 224 0
 667 0046 9A8B     		ldrh	r2, [r3, #28]
 668              	.LBB42:
 669              	.LBB36:
 670              		.loc 1 169 0
 671 0048 2369     		ldr	r3, [r4, #16]
 672              	.LBE36:
 673              	.LBE42:
 674              		.loc 1 229 0
 675 004a 42F24C1C 		movw	ip, #8524
 676 004e 42F20C16 		movw	r6, #8460
 677 0052 B8F1000F 		cmp	r8, #0
 678 0056 18BF     		it	ne
 679 0058 6646     		movne	r6, ip
 680              	.LVL40:
 681              	.LBB43:
 682              	.LBB37:
 683              		.loc 1 165 0
 684 005a 0028     		cmp	r0, #0
ARM GAS  C:\Users\ADMINI~1\AppData\Local\Temp\ccAZ8Fmz.s 			page 13


 685              		.loc 1 171 0
 686 005c E068     		ldr	r0, [r4, #12]
 687              		.loc 1 169 0
 688 005e 1B68     		ldr	r3, [r3]
 689              	.LBE37:
 690              	.LBE43:
 691              		.loc 1 223 0
 692 0060 41F04001 		orr	r1, r1, #64
 693              		.loc 1 224 0
 694 0064 42F0C102 		orr	r2, r2, #193
 695              	.LBB44:
 696              	.LBB38:
 697              		.loc 1 168 0
 698 0068 0CBF     		ite	eq
 699 006a 4FF4807C 		moveq	ip, #256
 700 006e 4FF4887C 		movne	ip, #272
 701              	.LBE38:
 702              	.LBE44:
 703              		.loc 1 224 0
 704 0072 92B2     		uxth	r2, r2
 705              		.loc 1 231 0
 706 0074 3E43     		orrs	r6, r6, r7
 707              	.LVL41:
 708              		.loc 1 223 0
 709 0076 89B2     		uxth	r1, r1
 710              	.LBB45:
 711              	.LBB39:
 712              		.loc 1 170 0
 713 0078 0127     		movs	r7, #1
 714              	.LBE39:
 715              	.LBE45:
 716              		.loc 1 219 0
 717 007a 4FF0000E 		mov	lr, #0
 718              	.LBB46:
 719              	.LBB40:
 720              		.loc 1 171 0
 721 007e 4CEA0000 		orr	r0, ip, r0
 722              		.loc 1 169 0
 723 0082 1834     		adds	r4, r4, #24
 724              	.LVL42:
 725              	.LBE40:
 726              	.LBE46:
 727              		.loc 1 219 0
 728 0084 A5F800E0 		strh	lr, [r5]	@ movhi
 729              		.loc 1 223 0
 730 0088 2982     		strh	r1, [r5, #16]	@ movhi
 731              		.loc 1 224 0
 732 008a AA82     		strh	r2, [r5, #20]	@ movhi
 733              		.loc 1 231 0
 734 008c AE81     		strh	r6, [r5, #12]	@ movhi
 735              	.LVL43:
 736              	.LBB47:
 737              	.LBB41:
 738              		.loc 1 169 0
 739 008e DC60     		str	r4, [r3, #12]
 740              		.loc 1 170 0
 741 0090 5F60     		str	r7, [r3, #4]
ARM GAS  C:\Users\ADMINI~1\AppData\Local\Temp\ccAZ8Fmz.s 			page 14


 742              		.loc 1 171 0
 743 0092 1860     		str	r0, [r3]
 744              		.loc 1 172 0
 745 0094 1A68     		ldr	r2, [r3]
 746 0096 3A43     		orrs	r2, r2, r7
 747 0098 1A60     		str	r2, [r3]
 748 009a BDE8F081 		pop	{r4, r5, r6, r7, r8, pc}
 749              	.LVL44:
 750              	.L85:
 751              	.LBE41:
 752              	.LBE47:
 753              	.LBE33:
 754              	.LBE32:
 755              		.loc 1 563 0
 756 009e 2E4B     		ldr	r3, .L101+8
 757 00a0 9842     		cmp	r0, r3
 758 00a2 3BD0     		beq	.L98
 759              		.loc 1 642 0
 760 00a4 2D4B     		ldr	r3, .L101+12
 761 00a6 9842     		cmp	r0, r3
 762 00a8 1ED0     		beq	.L99
 763              	.LVL45:
 764              	.L88:
 765              		.loc 1 664 0
 766 00aa 6368     		ldr	r3, [r4, #4]
 767 00ac 1B8B     		ldrh	r3, [r3, #24]
 768 00ae 03F4A053 		and	r3, r3, #5120
 769 00b2 B3F5805F 		cmp	r3, #4096
 770 00b6 12D0     		beq	.L100
 771              	.L89:
 772              		.loc 1 666 0
 773 00b8 2269     		ldr	r2, [r4, #16]
 774              		.loc 1 667 0
 775 00ba 6369     		ldr	r3, [r4, #20]
 776              		.loc 1 666 0
 777 00bc A568     		ldr	r5, [r4, #8]
 778 00be 1068     		ldr	r0, [r2]
 779              		.loc 1 667 0
 780 00c0 1968     		ldr	r1, [r3]
 781              		.loc 1 668 0
 782 00c2 0022     		movs	r2, #0
 783              		.loc 1 666 0
 784 00c4 2B1D     		adds	r3, r5, #4
 785 00c6 8360     		str	r3, [r0, #8]
 786              		.loc 1 667 0
 787 00c8 8B60     		str	r3, [r1, #8]
 788              		.loc 1 668 0
 789 00ca 2283     		strh	r2, [r4, #24]	@ movhi
 790 00cc 9FE7     		b	.L86
 791              	.LVL46:
 792              	.L90:
 793              	.LBB49:
 794              	.LBB48:
 795              		.loc 1 212 0
 796 00ce 6368     		ldr	r3, [r4, #4]
 797 00d0 234A     		ldr	r2, .L101+16
 798 00d2 5969     		ldr	r1, [r3, #20]
ARM GAS  C:\Users\ADMINI~1\AppData\Local\Temp\ccAZ8Fmz.s 			page 15


 799 00d4 B2FBF1F2 		udiv	r2, r2, r1
 800 00d8 92B2     		uxth	r2, r2
 801 00da 2A81     		strh	r2, [r5, #8]	@ movhi
 802 00dc ACE7     		b	.L92
 803              	.LVL47:
 804              	.L100:
 805              	.LBE48:
 806              	.LBE49:
 807              		.loc 1 665 0
 808 00de E368     		ldr	r3, [r4, #12]
 809 00e0 43F42053 		orr	r3, r3, #10240
 810 00e4 E360     		str	r3, [r4, #12]
 811 00e6 E7E7     		b	.L89
 812              	.LVL48:
 813              	.L99:
 814              	.LBB50:
 815              		.loc 1 644 0
 816 00e8 1E4A     		ldr	r2, .L101+20
 817 00ea 0069     		ldr	r0, [r0, #16]
 818              	.LVL49:
 819 00ec 0C21     		movs	r1, #12
 820 00ee 2346     		mov	r3, r4
 821 00f0 FFF7FEFF 		bl	dmaStreamAllocate
 822              	.LVL50:
 823              		.loc 1 649 0
 824 00f4 1C4A     		ldr	r2, .L101+24
 825 00f6 6069     		ldr	r0, [r4, #20]
 826 00f8 0C21     		movs	r1, #12
 827 00fa 2346     		mov	r3, r4
 828 00fc FFF7FEFF 		bl	dmaStreamAllocate
 829              	.LVL51:
 830              		.loc 1 654 0
 831 0100 1A4A     		ldr	r2, .L101+28
 832 0102 536C     		ldr	r3, [r2, #68]
 833 0104 43F02003 		orr	r3, r3, #32
 834 0108 5364     		str	r3, [r2, #68]
 835              		.loc 1 655 0
 836 010a 4720     		movs	r0, #71
 837 010c C021     		movs	r1, #192
 838 010e FFF7FEFF 		bl	nvicEnableVector
 839              	.LVL52:
 840              		.loc 1 657 0
 841 0112 E368     		ldr	r3, [r4, #12]
 842 0114 43F02063 		orr	r3, r3, #167772160
 843 0118 E360     		str	r3, [r4, #12]
 844 011a C6E7     		b	.L88
 845              	.LVL53:
 846              	.L98:
 847              	.LBE50:
 848              	.LBB51:
 849              		.loc 1 565 0
 850 011c 114A     		ldr	r2, .L101+20
 851 011e 0069     		ldr	r0, [r0, #16]
 852              	.LVL54:
 853 0120 0C21     		movs	r1, #12
 854 0122 2346     		mov	r3, r4
 855 0124 FFF7FEFF 		bl	dmaStreamAllocate
ARM GAS  C:\Users\ADMINI~1\AppData\Local\Temp\ccAZ8Fmz.s 			page 16


 856              	.LVL55:
 857              		.loc 1 570 0
 858 0128 0F4A     		ldr	r2, .L101+24
 859 012a 6069     		ldr	r0, [r4, #20]
 860 012c 0C21     		movs	r1, #12
 861 012e 2346     		mov	r3, r4
 862 0130 FFF7FEFF 		bl	dmaStreamAllocate
 863              	.LVL56:
 864              		.loc 1 575 0
 865 0134 0D4A     		ldr	r2, .L101+28
 866 0136 136C     		ldr	r3, [r2, #64]
 867 0138 43F48023 		orr	r3, r3, #262144
 868 013c 1364     		str	r3, [r2, #64]
 869              		.loc 1 576 0
 870 013e 2720     		movs	r0, #39
 871 0140 C021     		movs	r1, #192
 872 0142 FFF7FEFF 		bl	nvicEnableVector
 873              	.LVL57:
 874              		.loc 1 578 0
 875 0146 E368     		ldr	r3, [r4, #12]
 876 0148 43F00063 		orr	r3, r3, #134217728
 877 014c E360     		str	r3, [r4, #12]
 878 014e ACE7     		b	.L88
 879              	.L102:
 880              		.align	2
 881              	.L101:
 882 0150 00100140 		.word	1073811456
 883 0154 80DE8002 		.word	42000000
 884 0158 00000000 		.word	.LANCHOR0
 885 015c 00000000 		.word	.LANCHOR1
 886 0160 00BD0105 		.word	84000000
 887 0164 00000000 		.word	uart_lld_serve_rx_end_irq
 888 0168 00000000 		.word	uart_lld_serve_tx_end_irq
 889 016c 00380240 		.word	1073887232
 890              	.LBE51:
 891              		.cfi_endproc
 892              	.LFE128:
 893              		.size	uart_lld_start, .-uart_lld_start
 894              		.section	.text.uart_lld_stop,"ax",%progbits
 895              		.align	2
 896              		.p2align 4,,15
 897              		.global	uart_lld_stop
 898              		.thumb
 899              		.thumb_func
 900              		.type	uart_lld_stop, %function
 901              	uart_lld_stop:
 902              	.LFB129:
 903              		.loc 1 683 0
 904              		.cfi_startproc
 905              		@ args = 0, pretend = 0, frame = 0
 906              		@ frame_needed = 0, uses_anonymous_args = 0
 907              	.LVL58:
 908              		.loc 1 685 0
 909 0000 0278     		ldrb	r2, [r0]	@ zero_extendqisi2
 910 0002 022A     		cmp	r2, #2
 911 0004 00D0     		beq	.L110
 912 0006 7047     		bx	lr
ARM GAS  C:\Users\ADMINI~1\AppData\Local\Temp\ccAZ8Fmz.s 			page 17


 913              	.L110:
 914              		.loc 1 683 0
 915 0008 10B5     		push	{r4, lr}
 916              		.cfi_def_cfa_offset 8
 917              		.cfi_offset 4, -8
 918              		.cfi_offset 14, -4
 919 000a 0446     		mov	r4, r0
 920              		.loc 1 686 0
 921 000c FFF7FEFF 		bl	usart_stop
 922              	.LVL59:
 923              		.loc 1 687 0
 924 0010 2069     		ldr	r0, [r4, #16]
 925 0012 FFF7FEFF 		bl	dmaStreamRelease
 926              	.LVL60:
 927              		.loc 1 688 0
 928 0016 6069     		ldr	r0, [r4, #20]
 929 0018 FFF7FEFF 		bl	dmaStreamRelease
 930              	.LVL61:
 931              		.loc 1 707 0
 932 001c 0C4B     		ldr	r3, .L113
 933 001e 9C42     		cmp	r4, r3
 934 0020 0CD0     		beq	.L111
 935              		.loc 1 731 0
 936 0022 0C4B     		ldr	r3, .L113+4
 937 0024 9C42     		cmp	r4, r3
 938 0026 00D0     		beq	.L112
 939              	.L103:
 940 0028 10BD     		pop	{r4, pc}
 941              	.LVL62:
 942              	.L112:
 943              		.loc 1 732 0
 944 002a 4720     		movs	r0, #71
 945 002c FFF7FEFF 		bl	nvicDisableVector
 946              	.LVL63:
 947              		.loc 1 733 0
 948 0030 094A     		ldr	r2, .L113+8
 949 0032 536C     		ldr	r3, [r2, #68]
 950 0034 23F02003 		bic	r3, r3, #32
 951 0038 5364     		str	r3, [r2, #68]
 952              		.loc 1 734 0
 953 003a F5E7     		b	.L103
 954              	.L111:
 955              		.loc 1 708 0
 956 003c 2720     		movs	r0, #39
 957 003e FFF7FEFF 		bl	nvicDisableVector
 958              	.LVL64:
 959              		.loc 1 709 0
 960 0042 054A     		ldr	r2, .L113+8
 961 0044 136C     		ldr	r3, [r2, #64]
 962 0046 23F48023 		bic	r3, r3, #262144
 963 004a 1364     		str	r3, [r2, #64]
 964              		.loc 1 710 0
 965 004c 10BD     		pop	{r4, pc}
 966              	.LVL65:
 967              	.L114:
 968 004e 00BF     		.align	2
 969              	.L113:
ARM GAS  C:\Users\ADMINI~1\AppData\Local\Temp\ccAZ8Fmz.s 			page 18


 970 0050 00000000 		.word	.LANCHOR0
 971 0054 00000000 		.word	.LANCHOR1
 972 0058 00380240 		.word	1073887232
 973              		.cfi_endproc
 974              	.LFE129:
 975              		.size	uart_lld_stop, .-uart_lld_stop
 976              		.section	.text.uart_lld_start_send,"ax",%progbits
 977              		.align	2
 978              		.p2align 4,,15
 979              		.global	uart_lld_start_send
 980              		.thumb
 981              		.thumb_func
 982              		.type	uart_lld_start_send, %function
 983              	uart_lld_start_send:
 984              	.LFB130:
 985              		.loc 1 751 0
 986              		.cfi_startproc
 987              		@ args = 0, pretend = 0, frame = 0
 988              		@ frame_needed = 0, uses_anonymous_args = 0
 989              		@ link register save eliminated.
 990              	.LVL66:
 991              		.loc 1 754 0
 992 0000 4369     		ldr	r3, [r0, #20]
 993              		.loc 1 756 0
 994 0002 C068     		ldr	r0, [r0, #12]
 995              	.LVL67:
 996              		.loc 1 754 0
 997 0004 1B68     		ldr	r3, [r3]
 998              		.loc 1 756 0
 999 0006 40F48A60 		orr	r0, r0, #1104
 1000              		.loc 1 754 0
 1001 000a DA60     		str	r2, [r3, #12]
 1002              		.loc 1 755 0
 1003 000c 5960     		str	r1, [r3, #4]
 1004              		.loc 1 756 0
 1005 000e 1860     		str	r0, [r3]
 1006              		.loc 1 758 0
 1007 0010 1A68     		ldr	r2, [r3]
 1008              	.LVL68:
 1009 0012 42F00102 		orr	r2, r2, #1
 1010 0016 1A60     		str	r2, [r3]
 1011 0018 7047     		bx	lr
 1012              		.cfi_endproc
 1013              	.LFE130:
 1014              		.size	uart_lld_start_send, .-uart_lld_start_send
 1015 001a 00BF     		.section	.text.uart_lld_stop_send,"ax",%progbits
 1016              		.align	2
 1017              		.p2align 4,,15
 1018              		.global	uart_lld_stop_send
 1019              		.thumb
 1020              		.thumb_func
 1021              		.type	uart_lld_stop_send, %function
 1022              	uart_lld_stop_send:
 1023              	.LFB131:
 1024              		.loc 1 772 0
 1025              		.cfi_startproc
 1026              		@ args = 0, pretend = 0, frame = 0
ARM GAS  C:\Users\ADMINI~1\AppData\Local\Temp\ccAZ8Fmz.s 			page 19


 1027              		@ frame_needed = 0, uses_anonymous_args = 0
 1028              		@ link register save eliminated.
 1029              	.LVL69:
 1030              		.loc 1 774 0
 1031 0000 4169     		ldr	r1, [r0, #20]
 1032 0002 0A68     		ldr	r2, [r1]
 1033 0004 1368     		ldr	r3, [r2]
 1034 0006 23F01F03 		bic	r3, r3, #31
 1035 000a 1360     		str	r3, [r2]
 1036              	.L117:
 1037              		.loc 1 774 0 is_stmt 0 discriminator 2
 1038 000c 1368     		ldr	r3, [r2]
 1039 000e DB07     		lsls	r3, r3, #31
 1040 0010 FCD4     		bmi	.L117
 1041              		.loc 1 774 0 discriminator 3
 1042 0012 087A     		ldrb	r0, [r1, #8]	@ zero_extendqisi2
 1043              	.LVL70:
 1044 0014 4968     		ldr	r1, [r1, #4]
 1045 0016 3D23     		movs	r3, #61
 1046 0018 8340     		lsls	r3, r3, r0
 1047 001a 0B60     		str	r3, [r1]
 1048              		.loc 1 775 0 is_stmt 1 discriminator 3
 1049 001c 5068     		ldr	r0, [r2, #4]
 1050              		.loc 1 776 0 discriminator 3
 1051 001e 7047     		bx	lr
 1052              		.cfi_endproc
 1053              	.LFE131:
 1054              		.size	uart_lld_stop_send, .-uart_lld_stop_send
 1055              		.section	.text.uart_lld_start_receive,"ax",%progbits
 1056              		.align	2
 1057              		.p2align 4,,15
 1058              		.global	uart_lld_start_receive
 1059              		.thumb
 1060              		.thumb_func
 1061              		.type	uart_lld_start_receive, %function
 1062              	uart_lld_start_receive:
 1063              	.LFB132:
 1064              		.loc 1 789 0
 1065              		.cfi_startproc
 1066              		@ args = 0, pretend = 0, frame = 0
 1067              		@ frame_needed = 0, uses_anonymous_args = 0
 1068              		@ link register save eliminated.
 1069              	.LVL71:
 1070 0000 70B4     		push	{r4, r5, r6}
 1071              		.cfi_def_cfa_offset 12
 1072              		.cfi_offset 4, -12
 1073              		.cfi_offset 5, -8
 1074              		.cfi_offset 6, -4
 1075              		.loc 1 792 0
 1076 0002 0569     		ldr	r5, [r0, #16]
 1077 0004 2C68     		ldr	r4, [r5]
 1078 0006 2368     		ldr	r3, [r4]
 1079 0008 23F01F03 		bic	r3, r3, #31
 1080 000c 2360     		str	r3, [r4]
 1081              	.L120:
 1082              		.loc 1 792 0 is_stmt 0 discriminator 2
 1083 000e 2368     		ldr	r3, [r4]
ARM GAS  C:\Users\ADMINI~1\AppData\Local\Temp\ccAZ8Fmz.s 			page 20


 1084 0010 DB07     		lsls	r3, r3, #31
 1085 0012 FCD4     		bmi	.L120
 1086              		.loc 1 792 0 discriminator 3
 1087 0014 2E7A     		ldrb	r6, [r5, #8]	@ zero_extendqisi2
 1088 0016 6D68     		ldr	r5, [r5, #4]
 1089 0018 3D23     		movs	r3, #61
 1090 001a B340     		lsls	r3, r3, r6
 1091 001c 2B60     		str	r3, [r5]
 1092              		.loc 1 797 0 is_stmt 1 discriminator 3
 1093 001e C368     		ldr	r3, [r0, #12]
 1094              		.loc 1 795 0 discriminator 3
 1095 0020 E260     		str	r2, [r4, #12]
 1096              		.loc 1 797 0 discriminator 3
 1097 0022 43F48263 		orr	r3, r3, #1040
 1098              		.loc 1 796 0 discriminator 3
 1099 0026 6160     		str	r1, [r4, #4]
 1100              		.loc 1 797 0 discriminator 3
 1101 0028 2360     		str	r3, [r4]
 1102              		.loc 1 799 0 discriminator 3
 1103 002a 2368     		ldr	r3, [r4]
 1104 002c 43F00103 		orr	r3, r3, #1
 1105 0030 2360     		str	r3, [r4]
 1106              		.loc 1 800 0 discriminator 3
 1107 0032 70BC     		pop	{r4, r5, r6}
 1108              		.cfi_restore 6
 1109              		.cfi_restore 5
 1110              		.cfi_restore 4
 1111              		.cfi_def_cfa_offset 0
 1112 0034 7047     		bx	lr
 1113              		.cfi_endproc
 1114              	.LFE132:
 1115              		.size	uart_lld_start_receive, .-uart_lld_start_receive
 1116 0036 00BF     		.section	.text.uart_lld_stop_receive,"ax",%progbits
 1117              		.align	2
 1118              		.p2align 4,,15
 1119              		.global	uart_lld_stop_receive
 1120              		.thumb
 1121              		.thumb_func
 1122              		.type	uart_lld_stop_receive, %function
 1123              	uart_lld_stop_receive:
 1124              	.LFB133:
 1125              		.loc 1 813 0
 1126              		.cfi_startproc
 1127              		@ args = 0, pretend = 0, frame = 0
 1128              		@ frame_needed = 0, uses_anonymous_args = 0
 1129              		@ link register save eliminated.
 1130              	.LVL72:
 1131 0000 0146     		mov	r1, r0
 1132              		.loc 1 816 0
 1133 0002 0069     		ldr	r0, [r0, #16]
 1134              	.LVL73:
 1135 0004 0268     		ldr	r2, [r0]
 1136 0006 1368     		ldr	r3, [r2]
 1137 0008 23F01F03 		bic	r3, r3, #31
 1138 000c 1360     		str	r3, [r2]
 1139              	.L124:
 1140              		.loc 1 816 0 is_stmt 0 discriminator 2
ARM GAS  C:\Users\ADMINI~1\AppData\Local\Temp\ccAZ8Fmz.s 			page 21


 1141 000e 1368     		ldr	r3, [r2]
 1142 0010 DB07     		lsls	r3, r3, #31
 1143 0012 FCD4     		bmi	.L124
 1144              		.loc 1 813 0 is_stmt 1 discriminator 3
 1145 0014 30B4     		push	{r4, r5}
 1146              		.cfi_def_cfa_offset 8
 1147              		.cfi_offset 4, -8
 1148              		.cfi_offset 5, -4
 1149              	.LBB52:
 1150              	.LBB53:
 1151              		.loc 1 165 0 discriminator 3
 1152 0016 4B68     		ldr	r3, [r1, #4]
 1153              	.LBE53:
 1154              	.LBE52:
 1155              		.loc 1 816 0 discriminator 3
 1156 0018 057A     		ldrb	r5, [r0, #8]	@ zero_extendqisi2
 1157              	.LBB57:
 1158              	.LBB54:
 1159              		.loc 1 165 0 discriminator 3
 1160 001a DC68     		ldr	r4, [r3, #12]
 1161              	.LBE54:
 1162              	.LBE57:
 1163              		.loc 1 816 0 discriminator 3
 1164 001c 4068     		ldr	r0, [r0, #4]
 1165 001e 3D23     		movs	r3, #61
 1166 0020 AB40     		lsls	r3, r3, r5
 1167 0022 0360     		str	r3, [r0]
 1168              	.LBB58:
 1169              	.LBB55:
 1170              		.loc 1 171 0 discriminator 3
 1171 0024 CB68     		ldr	r3, [r1, #12]
 1172              	.LBE55:
 1173              	.LBE58:
 1174              		.loc 1 817 0 discriminator 3
 1175 0026 5068     		ldr	r0, [r2, #4]
 1176              	.LVL74:
 1177              	.LBB59:
 1178              	.LBB56:
 1179              		.loc 1 168 0 discriminator 3
 1180 0028 002C     		cmp	r4, #0
 1181 002a 0CBF     		ite	eq
 1182 002c 4FF48074 		moveq	r4, #256
 1183 0030 4FF48874 		movne	r4, #272
 1184              	.LVL75:
 1185              		.loc 1 171 0 discriminator 3
 1186 0034 2343     		orrs	r3, r3, r4
 1187              		.loc 1 169 0 discriminator 3
 1188 0036 1831     		adds	r1, r1, #24
 1189              	.LVL76:
 1190              		.loc 1 170 0 discriminator 3
 1191 0038 0124     		movs	r4, #1
 1192              	.LVL77:
 1193              		.loc 1 169 0 discriminator 3
 1194 003a D160     		str	r1, [r2, #12]
 1195              		.loc 1 170 0 discriminator 3
 1196 003c 5460     		str	r4, [r2, #4]
 1197              		.loc 1 171 0 discriminator 3
ARM GAS  C:\Users\ADMINI~1\AppData\Local\Temp\ccAZ8Fmz.s 			page 22


 1198 003e 1360     		str	r3, [r2]
 1199              		.loc 1 172 0 discriminator 3
 1200 0040 1368     		ldr	r3, [r2]
 1201 0042 2343     		orrs	r3, r3, r4
 1202 0044 1360     		str	r3, [r2]
 1203              	.LBE56:
 1204              	.LBE59:
 1205              		.loc 1 820 0 discriminator 3
 1206 0046 30BC     		pop	{r4, r5}
 1207              		.cfi_restore 5
 1208              		.cfi_restore 4
 1209              		.cfi_def_cfa_offset 0
 1210 0048 7047     		bx	lr
 1211              		.cfi_endproc
 1212              	.LFE133:
 1213              		.size	uart_lld_stop_receive, .-uart_lld_stop_receive
 1214              		.global	UARTD6
 1215              		.global	UARTD3
 1216 004a 00BF     		.section	.bss.UARTD3,"aw",%nobits
 1217              		.align	2
 1218              		.set	.LANCHOR0,. + 0
 1219              		.type	UARTD3, %object
 1220              		.size	UARTD3, 28
 1221              	UARTD3:
 1222 0000 00000000 		.space	28
 1222      00000000 
 1222      00000000 
 1222      00000000 
 1222      00000000 
 1223              		.section	.bss.UARTD6,"aw",%nobits
 1224              		.align	2
 1225              		.set	.LANCHOR1,. + 0
 1226              		.type	UARTD6, %object
 1227              		.size	UARTD6, 28
 1228              	UARTD6:
 1229 0000 00000000 		.space	28
 1229      00000000 
 1229      00000000 
 1229      00000000 
 1229      00000000 
 1230              		.text
 1231              	.Letext0:
 1232              		.file 2 "c:\\program files\\gnu tools arm embedded\\4.9 2015q2\\lib\\gcc\\arm-none-eabi\\4.9.3\\in
 1233              		.file 3 "c:\\program files\\gnu tools arm embedded\\4.9 2015q2\\arm-none-eabi\\include\\machine\\_
 1234              		.file 4 "c:\\program files\\gnu tools arm embedded\\4.9 2015q2\\arm-none-eabi\\include\\sys\\_stdi
 1235              		.file 5 "ChibiOS_2.6.6/os/ports/GCC/ARMCMx/chtypes.h"
 1236              		.file 6 "ChibiOS_2.6.6/os/hal/platforms/STM32F4xx/stm32f4xx.h"
 1237              		.file 7 "ChibiOS_2.6.6/os/hal/platforms/STM32F4xx/stm32_dma.h"
 1238              		.file 8 "ChibiOS_2.6.6/os/hal/include/uart.h"
 1239              		.file 9 "ChibiOS_2.6.6/os/hal/platforms/STM32/USARTv1/uart_lld.h"
 1240              		.file 10 "ChibiOS_2.6.6/os/ports/common/ARMCMx/CMSIS/include/core_cm4.h"
 1241              		.file 11 "ChibiOS_2.6.6/os/ports/GCC/ARMCMx/chcore_v7m.h"
 1242              		.file 12 "ChibiOS_2.6.6/os/ports/common/ARMCMx/nvic.h"
 1243              		.section	.debug_info,"",%progbits
 1244              	.Ldebug_info0:
 1245 0000 2D0D0000 		.4byte	0xd2d
 1246 0004 0400     		.2byte	0x4
ARM GAS  C:\Users\ADMINI~1\AppData\Local\Temp\ccAZ8Fmz.s 			page 23


 1247 0006 00000000 		.4byte	.Ldebug_abbrev0
 1248 000a 04       		.byte	0x4
 1249 000b 01       		.uleb128 0x1
 1250 000c 07050000 		.4byte	.LASF126
 1251 0010 01       		.byte	0x1
 1252 0011 A2010000 		.4byte	.LASF127
 1253 0015 74060000 		.4byte	.LASF128
 1254 0019 A0000000 		.4byte	.Ldebug_ranges0+0xa0
 1255 001d 00000000 		.4byte	0
 1256 0021 00000000 		.4byte	.Ldebug_line0
 1257 0025 02       		.uleb128 0x2
 1258 0026 04       		.byte	0x4
 1259 0027 05       		.byte	0x5
 1260 0028 696E7400 		.ascii	"int\000"
 1261 002c 03       		.uleb128 0x3
 1262 002d 47000000 		.4byte	.LASF2
 1263 0031 02       		.byte	0x2
 1264 0032 D4       		.byte	0xd4
 1265 0033 37000000 		.4byte	0x37
 1266 0037 04       		.uleb128 0x4
 1267 0038 04       		.byte	0x4
 1268 0039 07       		.byte	0x7
 1269 003a 3A020000 		.4byte	.LASF0
 1270 003e 04       		.uleb128 0x4
 1271 003f 01       		.byte	0x1
 1272 0040 06       		.byte	0x6
 1273 0041 11010000 		.4byte	.LASF1
 1274 0045 03       		.uleb128 0x3
 1275 0046 58000000 		.4byte	.LASF3
 1276 004a 03       		.byte	0x3
 1277 004b 1D       		.byte	0x1d
 1278 004c 50000000 		.4byte	0x50
 1279 0050 04       		.uleb128 0x4
 1280 0051 01       		.byte	0x1
 1281 0052 08       		.byte	0x8
 1282 0053 3E040000 		.4byte	.LASF4
 1283 0057 04       		.uleb128 0x4
 1284 0058 02       		.byte	0x2
 1285 0059 05       		.byte	0x5
 1286 005a 4C040000 		.4byte	.LASF5
 1287 005e 03       		.uleb128 0x3
 1288 005f DC040000 		.4byte	.LASF6
 1289 0063 03       		.byte	0x3
 1290 0064 2B       		.byte	0x2b
 1291 0065 69000000 		.4byte	0x69
 1292 0069 04       		.uleb128 0x4
 1293 006a 02       		.byte	0x2
 1294 006b 07       		.byte	0x7
 1295 006c AB020000 		.4byte	.LASF7
 1296 0070 03       		.uleb128 0x3
 1297 0071 F0040000 		.4byte	.LASF8
 1298 0075 03       		.byte	0x3
 1299 0076 3F       		.byte	0x3f
 1300 0077 7B000000 		.4byte	0x7b
 1301 007b 04       		.uleb128 0x4
 1302 007c 04       		.byte	0x4
 1303 007d 05       		.byte	0x5
ARM GAS  C:\Users\ADMINI~1\AppData\Local\Temp\ccAZ8Fmz.s 			page 24


 1304 007e 59010000 		.4byte	.LASF9
 1305 0082 03       		.uleb128 0x3
 1306 0083 F4010000 		.4byte	.LASF10
 1307 0087 03       		.byte	0x3
 1308 0088 41       		.byte	0x41
 1309 0089 8D000000 		.4byte	0x8d
 1310 008d 04       		.uleb128 0x4
 1311 008e 04       		.byte	0x4
 1312 008f 07       		.byte	0x7
 1313 0090 72020000 		.4byte	.LASF11
 1314 0094 04       		.uleb128 0x4
 1315 0095 08       		.byte	0x8
 1316 0096 05       		.byte	0x5
 1317 0097 03010000 		.4byte	.LASF12
 1318 009b 04       		.uleb128 0x4
 1319 009c 08       		.byte	0x8
 1320 009d 07       		.byte	0x7
 1321 009e 82000000 		.4byte	.LASF13
 1322 00a2 03       		.uleb128 0x3
 1323 00a3 8B060000 		.4byte	.LASF14
 1324 00a7 04       		.byte	0x4
 1325 00a8 14       		.byte	0x14
 1326 00a9 45000000 		.4byte	0x45
 1327 00ad 03       		.uleb128 0x3
 1328 00ae 6B010000 		.4byte	.LASF15
 1329 00b2 04       		.byte	0x4
 1330 00b3 1A       		.byte	0x1a
 1331 00b4 5E000000 		.4byte	0x5e
 1332 00b8 03       		.uleb128 0x3
 1333 00b9 36040000 		.4byte	.LASF16
 1334 00bd 04       		.byte	0x4
 1335 00be 1F       		.byte	0x1f
 1336 00bf 70000000 		.4byte	0x70
 1337 00c3 03       		.uleb128 0x3
 1338 00c4 65060000 		.4byte	.LASF17
 1339 00c8 04       		.byte	0x4
 1340 00c9 20       		.byte	0x20
 1341 00ca 82000000 		.4byte	0x82
 1342 00ce 03       		.uleb128 0x3
 1343 00cf D5000000 		.4byte	.LASF18
 1344 00d3 05       		.byte	0x5
 1345 00d4 2B       		.byte	0x2b
 1346 00d5 D9000000 		.4byte	0xd9
 1347 00d9 04       		.uleb128 0x4
 1348 00da 01       		.byte	0x1
 1349 00db 02       		.byte	0x2
 1350 00dc 30040000 		.4byte	.LASF19
 1351 00e0 05       		.uleb128 0x5
 1352 00e1 04       		.byte	0x4
 1353 00e2 06       		.uleb128 0x6
 1354 00e3 C3000000 		.4byte	0xc3
 1355 00e7 04       		.uleb128 0x4
 1356 00e8 04       		.byte	0x4
 1357 00e9 07       		.byte	0x7
 1358 00ea 41030000 		.4byte	.LASF20
 1359 00ee 04       		.uleb128 0x4
 1360 00ef 01       		.byte	0x1
ARM GAS  C:\Users\ADMINI~1\AppData\Local\Temp\ccAZ8Fmz.s 			page 25


 1361 00f0 08       		.byte	0x8
 1362 00f1 AD040000 		.4byte	.LASF21
 1363 00f5 07       		.uleb128 0x7
 1364 00f6 C3000000 		.4byte	0xc3
 1365 00fa 05010000 		.4byte	0x105
 1366 00fe 08       		.uleb128 0x8
 1367 00ff E7000000 		.4byte	0xe7
 1368 0103 01       		.byte	0x1
 1369 0104 00       		.byte	0
 1370 0105 06       		.uleb128 0x6
 1371 0106 AD000000 		.4byte	0xad
 1372 010a 06       		.uleb128 0x6
 1373 010b B8000000 		.4byte	0xb8
 1374 010f 09       		.uleb128 0x9
 1375 0110 18       		.byte	0x18
 1376 0111 06       		.byte	0x6
 1377 0112 B102     		.2byte	0x2b1
 1378 0114 66010000 		.4byte	0x166
 1379 0118 0A       		.uleb128 0xa
 1380 0119 435200   		.ascii	"CR\000"
 1381 011c 06       		.byte	0x6
 1382 011d B302     		.2byte	0x2b3
 1383 011f E2000000 		.4byte	0xe2
 1384 0123 00       		.byte	0
 1385 0124 0B       		.uleb128 0xb
 1386 0125 2B040000 		.4byte	.LASF22
 1387 0129 06       		.byte	0x6
 1388 012a B402     		.2byte	0x2b4
 1389 012c E2000000 		.4byte	0xe2
 1390 0130 04       		.byte	0x4
 1391 0131 0A       		.uleb128 0xa
 1392 0132 50415200 		.ascii	"PAR\000"
 1393 0136 06       		.byte	0x6
 1394 0137 B502     		.2byte	0x2b5
 1395 0139 E2000000 		.4byte	0xe2
 1396 013d 08       		.byte	0x8
 1397 013e 0B       		.uleb128 0xb
 1398 013f 42000000 		.4byte	.LASF23
 1399 0143 06       		.byte	0x6
 1400 0144 B602     		.2byte	0x2b6
 1401 0146 E2000000 		.4byte	0xe2
 1402 014a 0C       		.byte	0xc
 1403 014b 0B       		.uleb128 0xb
 1404 014c 60060000 		.4byte	.LASF24
 1405 0150 06       		.byte	0x6
 1406 0151 B702     		.2byte	0x2b7
 1407 0153 E2000000 		.4byte	0xe2
 1408 0157 10       		.byte	0x10
 1409 0158 0A       		.uleb128 0xa
 1410 0159 46435200 		.ascii	"FCR\000"
 1411 015d 06       		.byte	0x6
 1412 015e B802     		.2byte	0x2b8
 1413 0160 E2000000 		.4byte	0xe2
 1414 0164 14       		.byte	0x14
 1415 0165 00       		.byte	0
 1416 0166 0C       		.uleb128 0xc
 1417 0167 2B060000 		.4byte	.LASF25
ARM GAS  C:\Users\ADMINI~1\AppData\Local\Temp\ccAZ8Fmz.s 			page 26


 1418 016b 06       		.byte	0x6
 1419 016c B902     		.2byte	0x2b9
 1420 016e 0F010000 		.4byte	0x10f
 1421 0172 09       		.uleb128 0x9
 1422 0173 90       		.byte	0x90
 1423 0174 06       		.byte	0x6
 1424 0175 5804     		.2byte	0x458
 1425 0177 1B030000 		.4byte	0x31b
 1426 017b 0A       		.uleb128 0xa
 1427 017c 435200   		.ascii	"CR\000"
 1428 017f 06       		.byte	0x6
 1429 0180 5A04     		.2byte	0x45a
 1430 0182 E2000000 		.4byte	0xe2
 1431 0186 00       		.byte	0
 1432 0187 0B       		.uleb128 0xb
 1433 0188 8C010000 		.4byte	.LASF26
 1434 018c 06       		.byte	0x6
 1435 018d 5B04     		.2byte	0x45b
 1436 018f E2000000 		.4byte	0xe2
 1437 0193 04       		.byte	0x4
 1438 0194 0B       		.uleb128 0xb
 1439 0195 C5060000 		.4byte	.LASF27
 1440 0199 06       		.byte	0x6
 1441 019a 5C04     		.2byte	0x45c
 1442 019c E2000000 		.4byte	0xe2
 1443 01a0 08       		.byte	0x8
 1444 01a1 0A       		.uleb128 0xa
 1445 01a2 43495200 		.ascii	"CIR\000"
 1446 01a6 06       		.byte	0x6
 1447 01a7 5D04     		.2byte	0x45d
 1448 01a9 E2000000 		.4byte	0xe2
 1449 01ad 0C       		.byte	0xc
 1450 01ae 0B       		.uleb128 0xb
 1451 01af 26010000 		.4byte	.LASF28
 1452 01b3 06       		.byte	0x6
 1453 01b4 5E04     		.2byte	0x45e
 1454 01b6 E2000000 		.4byte	0xe2
 1455 01ba 10       		.byte	0x10
 1456 01bb 0B       		.uleb128 0xb
 1457 01bc E7040000 		.4byte	.LASF29
 1458 01c0 06       		.byte	0x6
 1459 01c1 5F04     		.2byte	0x45f
 1460 01c3 E2000000 		.4byte	0xe2
 1461 01c7 14       		.byte	0x14
 1462 01c8 0B       		.uleb128 0xb
 1463 01c9 DF020000 		.4byte	.LASF30
 1464 01cd 06       		.byte	0x6
 1465 01ce 6004     		.2byte	0x460
 1466 01d0 E2000000 		.4byte	0xe2
 1467 01d4 18       		.byte	0x18
 1468 01d5 0B       		.uleb128 0xb
 1469 01d6 C1030000 		.4byte	.LASF31
 1470 01da 06       		.byte	0x6
 1471 01db 6104     		.2byte	0x461
 1472 01dd C3000000 		.4byte	0xc3
 1473 01e1 1C       		.byte	0x1c
 1474 01e2 0B       		.uleb128 0xb
ARM GAS  C:\Users\ADMINI~1\AppData\Local\Temp\ccAZ8Fmz.s 			page 27


 1475 01e3 A7030000 		.4byte	.LASF32
 1476 01e7 06       		.byte	0x6
 1477 01e8 6204     		.2byte	0x462
 1478 01ea E2000000 		.4byte	0xe2
 1479 01ee 20       		.byte	0x20
 1480 01ef 0B       		.uleb128 0xb
 1481 01f0 62010000 		.4byte	.LASF33
 1482 01f4 06       		.byte	0x6
 1483 01f5 6304     		.2byte	0x463
 1484 01f7 E2000000 		.4byte	0xe2
 1485 01fb 24       		.byte	0x24
 1486 01fc 0B       		.uleb128 0xb
 1487 01fd CB030000 		.4byte	.LASF34
 1488 0201 06       		.byte	0x6
 1489 0202 6404     		.2byte	0x464
 1490 0204 F5000000 		.4byte	0xf5
 1491 0208 28       		.byte	0x28
 1492 0209 0B       		.uleb128 0xb
 1493 020a BD060000 		.4byte	.LASF35
 1494 020e 06       		.byte	0x6
 1495 020f 6504     		.2byte	0x465
 1496 0211 E2000000 		.4byte	0xe2
 1497 0215 30       		.byte	0x30
 1498 0216 0B       		.uleb128 0xb
 1499 0217 3E060000 		.4byte	.LASF36
 1500 021b 06       		.byte	0x6
 1501 021c 6604     		.2byte	0x466
 1502 021e E2000000 		.4byte	0xe2
 1503 0222 34       		.byte	0x34
 1504 0223 0B       		.uleb128 0xb
 1505 0224 85040000 		.4byte	.LASF37
 1506 0228 06       		.byte	0x6
 1507 0229 6704     		.2byte	0x467
 1508 022b E2000000 		.4byte	0xe2
 1509 022f 38       		.byte	0x38
 1510 0230 0B       		.uleb128 0xb
 1511 0231 D5030000 		.4byte	.LASF38
 1512 0235 06       		.byte	0x6
 1513 0236 6804     		.2byte	0x468
 1514 0238 C3000000 		.4byte	0xc3
 1515 023c 3C       		.byte	0x3c
 1516 023d 0B       		.uleb128 0xb
 1517 023e A5040000 		.4byte	.LASF39
 1518 0242 06       		.byte	0x6
 1519 0243 6904     		.2byte	0x469
 1520 0245 E2000000 		.4byte	0xe2
 1521 0249 40       		.byte	0x40
 1522 024a 0B       		.uleb128 0xb
 1523 024b 6C040000 		.4byte	.LASF40
 1524 024f 06       		.byte	0x6
 1525 0250 6A04     		.2byte	0x46a
 1526 0252 E2000000 		.4byte	0xe2
 1527 0256 44       		.byte	0x44
 1528 0257 0B       		.uleb128 0xb
 1529 0258 DF030000 		.4byte	.LASF41
 1530 025c 06       		.byte	0x6
 1531 025d 6B04     		.2byte	0x46b
ARM GAS  C:\Users\ADMINI~1\AppData\Local\Temp\ccAZ8Fmz.s 			page 28


 1532 025f F5000000 		.4byte	0xf5
 1533 0263 48       		.byte	0x48
 1534 0264 0B       		.uleb128 0xb
 1535 0265 93060000 		.4byte	.LASF42
 1536 0269 06       		.byte	0x6
 1537 026a 6C04     		.2byte	0x46c
 1538 026c E2000000 		.4byte	0xe2
 1539 0270 50       		.byte	0x50
 1540 0271 0B       		.uleb128 0xb
 1541 0272 8F030000 		.4byte	.LASF43
 1542 0276 06       		.byte	0x6
 1543 0277 6D04     		.2byte	0x46d
 1544 0279 E2000000 		.4byte	0xe2
 1545 027d 54       		.byte	0x54
 1546 027e 0B       		.uleb128 0xb
 1547 027f 56040000 		.4byte	.LASF44
 1548 0283 06       		.byte	0x6
 1549 0284 6E04     		.2byte	0x46e
 1550 0286 E2000000 		.4byte	0xe2
 1551 028a 58       		.byte	0x58
 1552 028b 0B       		.uleb128 0xb
 1553 028c E9030000 		.4byte	.LASF45
 1554 0290 06       		.byte	0x6
 1555 0291 6F04     		.2byte	0x46f
 1556 0293 C3000000 		.4byte	0xc3
 1557 0297 5C       		.byte	0x5c
 1558 0298 0B       		.uleb128 0xb
 1559 0299 1D000000 		.4byte	.LASF46
 1560 029d 06       		.byte	0x6
 1561 029e 7004     		.2byte	0x470
 1562 02a0 E2000000 		.4byte	0xe2
 1563 02a4 60       		.byte	0x60
 1564 02a5 0B       		.uleb128 0xb
 1565 02a6 09030000 		.4byte	.LASF47
 1566 02aa 06       		.byte	0x6
 1567 02ab 7104     		.2byte	0x471
 1568 02ad E2000000 		.4byte	0xe2
 1569 02b1 64       		.byte	0x64
 1570 02b2 0B       		.uleb128 0xb
 1571 02b3 F3030000 		.4byte	.LASF48
 1572 02b7 06       		.byte	0x6
 1573 02b8 7204     		.2byte	0x472
 1574 02ba F5000000 		.4byte	0xf5
 1575 02be 68       		.byte	0x68
 1576 02bf 0B       		.uleb128 0xb
 1577 02c0 86060000 		.4byte	.LASF49
 1578 02c4 06       		.byte	0x6
 1579 02c5 7304     		.2byte	0x473
 1580 02c7 E2000000 		.4byte	0xe2
 1581 02cb 70       		.byte	0x70
 1582 02cc 0A       		.uleb128 0xa
 1583 02cd 43535200 		.ascii	"CSR\000"
 1584 02d1 06       		.byte	0x6
 1585 02d2 7404     		.2byte	0x474
 1586 02d4 E2000000 		.4byte	0xe2
 1587 02d8 74       		.byte	0x74
 1588 02d9 0B       		.uleb128 0xb
ARM GAS  C:\Users\ADMINI~1\AppData\Local\Temp\ccAZ8Fmz.s 			page 29


 1589 02da FD030000 		.4byte	.LASF50
 1590 02de 06       		.byte	0x6
 1591 02df 7504     		.2byte	0x475
 1592 02e1 F5000000 		.4byte	0xf5
 1593 02e5 78       		.byte	0x78
 1594 02e6 0B       		.uleb128 0xb
 1595 02e7 6E060000 		.4byte	.LASF51
 1596 02eb 06       		.byte	0x6
 1597 02ec 7604     		.2byte	0x476
 1598 02ee E2000000 		.4byte	0xe2
 1599 02f2 80       		.byte	0x80
 1600 02f3 0B       		.uleb128 0xb
 1601 02f4 D4020000 		.4byte	.LASF52
 1602 02f8 06       		.byte	0x6
 1603 02f9 7704     		.2byte	0x477
 1604 02fb E2000000 		.4byte	0xe2
 1605 02ff 84       		.byte	0x84
 1606 0300 0B       		.uleb128 0xb
 1607 0301 B0030000 		.4byte	.LASF53
 1608 0305 06       		.byte	0x6
 1609 0306 7804     		.2byte	0x478
 1610 0308 E2000000 		.4byte	0xe2
 1611 030c 88       		.byte	0x88
 1612 030d 0B       		.uleb128 0xb
 1613 030e 13030000 		.4byte	.LASF54
 1614 0312 06       		.byte	0x6
 1615 0313 7904     		.2byte	0x479
 1616 0315 E2000000 		.4byte	0xe2
 1617 0319 8C       		.byte	0x8c
 1618 031a 00       		.byte	0
 1619 031b 0C       		.uleb128 0xc
 1620 031c 8E020000 		.4byte	.LASF55
 1621 0320 06       		.byte	0x6
 1622 0321 7B04     		.2byte	0x47b
 1623 0323 72010000 		.4byte	0x172
 1624 0327 09       		.uleb128 0x9
 1625 0328 1C       		.byte	0x1c
 1626 0329 06       		.byte	0x6
 1627 032a 2905     		.2byte	0x529
 1628 032c E5030000 		.4byte	0x3e5
 1629 0330 0A       		.uleb128 0xa
 1630 0331 535200   		.ascii	"SR\000"
 1631 0334 06       		.byte	0x6
 1632 0335 2B05     		.2byte	0x52b
 1633 0337 05010000 		.4byte	0x105
 1634 033b 00       		.byte	0
 1635 033c 0B       		.uleb128 0xb
 1636 033d C1030000 		.4byte	.LASF31
 1637 0341 06       		.byte	0x6
 1638 0342 2C05     		.2byte	0x52c
 1639 0344 AD000000 		.4byte	0xad
 1640 0348 02       		.byte	0x2
 1641 0349 0A       		.uleb128 0xa
 1642 034a 445200   		.ascii	"DR\000"
 1643 034d 06       		.byte	0x6
 1644 034e 2D05     		.2byte	0x52d
 1645 0350 05010000 		.4byte	0x105
ARM GAS  C:\Users\ADMINI~1\AppData\Local\Temp\ccAZ8Fmz.s 			page 30


 1646 0354 04       		.byte	0x4
 1647 0355 0B       		.uleb128 0xb
 1648 0356 CB030000 		.4byte	.LASF34
 1649 035a 06       		.byte	0x6
 1650 035b 2E05     		.2byte	0x52e
 1651 035d AD000000 		.4byte	0xad
 1652 0361 06       		.byte	0x6
 1653 0362 0A       		.uleb128 0xa
 1654 0363 42525200 		.ascii	"BRR\000"
 1655 0367 06       		.byte	0x6
 1656 0368 2F05     		.2byte	0x52f
 1657 036a 05010000 		.4byte	0x105
 1658 036e 08       		.byte	0x8
 1659 036f 0B       		.uleb128 0xb
 1660 0370 D5030000 		.4byte	.LASF38
 1661 0374 06       		.byte	0x6
 1662 0375 3005     		.2byte	0x530
 1663 0377 AD000000 		.4byte	0xad
 1664 037b 0A       		.byte	0xa
 1665 037c 0A       		.uleb128 0xa
 1666 037d 43523100 		.ascii	"CR1\000"
 1667 0381 06       		.byte	0x6
 1668 0382 3105     		.2byte	0x531
 1669 0384 05010000 		.4byte	0x105
 1670 0388 0C       		.byte	0xc
 1671 0389 0B       		.uleb128 0xb
 1672 038a DF030000 		.4byte	.LASF41
 1673 038e 06       		.byte	0x6
 1674 038f 3205     		.2byte	0x532
 1675 0391 AD000000 		.4byte	0xad
 1676 0395 0E       		.byte	0xe
 1677 0396 0A       		.uleb128 0xa
 1678 0397 43523200 		.ascii	"CR2\000"
 1679 039b 06       		.byte	0x6
 1680 039c 3305     		.2byte	0x533
 1681 039e 05010000 		.4byte	0x105
 1682 03a2 10       		.byte	0x10
 1683 03a3 0B       		.uleb128 0xb
 1684 03a4 E9030000 		.4byte	.LASF45
 1685 03a8 06       		.byte	0x6
 1686 03a9 3405     		.2byte	0x534
 1687 03ab AD000000 		.4byte	0xad
 1688 03af 12       		.byte	0x12
 1689 03b0 0A       		.uleb128 0xa
 1690 03b1 43523300 		.ascii	"CR3\000"
 1691 03b5 06       		.byte	0x6
 1692 03b6 3505     		.2byte	0x535
 1693 03b8 05010000 		.4byte	0x105
 1694 03bc 14       		.byte	0x14
 1695 03bd 0B       		.uleb128 0xb
 1696 03be F3030000 		.4byte	.LASF48
 1697 03c2 06       		.byte	0x6
 1698 03c3 3605     		.2byte	0x536
 1699 03c5 AD000000 		.4byte	0xad
 1700 03c9 16       		.byte	0x16
 1701 03ca 0B       		.uleb128 0xb
 1702 03cb 2F010000 		.4byte	.LASF56
ARM GAS  C:\Users\ADMINI~1\AppData\Local\Temp\ccAZ8Fmz.s 			page 31


 1703 03cf 06       		.byte	0x6
 1704 03d0 3705     		.2byte	0x537
 1705 03d2 05010000 		.4byte	0x105
 1706 03d6 18       		.byte	0x18
 1707 03d7 0B       		.uleb128 0xb
 1708 03d8 FD030000 		.4byte	.LASF50
 1709 03dc 06       		.byte	0x6
 1710 03dd 3805     		.2byte	0x538
 1711 03df AD000000 		.4byte	0xad
 1712 03e3 1A       		.byte	0x1a
 1713 03e4 00       		.byte	0
 1714 03e5 0C       		.uleb128 0xc
 1715 03e6 FB020000 		.4byte	.LASF57
 1716 03ea 06       		.byte	0x6
 1717 03eb 3905     		.2byte	0x539
 1718 03ed 27030000 		.4byte	0x327
 1719 03f1 0D       		.uleb128 0xd
 1720 03f2 0C       		.byte	0xc
 1721 03f3 07       		.byte	0x7
 1722 03f4 DA       		.byte	0xda
 1723 03f5 36040000 		.4byte	0x436
 1724 03f9 0E       		.uleb128 0xe
 1725 03fa 24040000 		.4byte	.LASF58
 1726 03fe 07       		.byte	0x7
 1727 03ff DB       		.byte	0xdb
 1728 0400 36040000 		.4byte	0x436
 1729 0404 00       		.byte	0
 1730 0405 0E       		.uleb128 0xe
 1731 0406 96040000 		.4byte	.LASF59
 1732 040a 07       		.byte	0x7
 1733 040b DC       		.byte	0xdc
 1734 040c 3C040000 		.4byte	0x43c
 1735 0410 04       		.byte	0x4
 1736 0411 0E       		.uleb128 0xe
 1737 0412 A4020000 		.4byte	.LASF60
 1738 0416 07       		.byte	0x7
 1739 0417 DD       		.byte	0xdd
 1740 0418 A2000000 		.4byte	0xa2
 1741 041c 08       		.byte	0x8
 1742 041d 0E       		.uleb128 0xe
 1743 041e FF010000 		.4byte	.LASF61
 1744 0422 07       		.byte	0x7
 1745 0423 DF       		.byte	0xdf
 1746 0424 A2000000 		.4byte	0xa2
 1747 0428 09       		.byte	0x9
 1748 0429 0E       		.uleb128 0xe
 1749 042a A3000000 		.4byte	.LASF62
 1750 042e 07       		.byte	0x7
 1751 042f E0       		.byte	0xe0
 1752 0430 A2000000 		.4byte	0xa2
 1753 0434 0A       		.byte	0xa
 1754 0435 00       		.byte	0
 1755 0436 0F       		.uleb128 0xf
 1756 0437 04       		.byte	0x4
 1757 0438 66010000 		.4byte	0x166
 1758 043c 0F       		.uleb128 0xf
 1759 043d 04       		.byte	0x4
ARM GAS  C:\Users\ADMINI~1\AppData\Local\Temp\ccAZ8Fmz.s 			page 32


 1760 043e E2000000 		.4byte	0xe2
 1761 0442 03       		.uleb128 0x3
 1762 0443 07040000 		.4byte	.LASF63
 1763 0447 07       		.byte	0x7
 1764 0448 E1       		.byte	0xe1
 1765 0449 F1030000 		.4byte	0x3f1
 1766 044d 03       		.uleb128 0x3
 1767 044e 3C010000 		.4byte	.LASF64
 1768 0452 07       		.byte	0x7
 1769 0453 EA       		.byte	0xea
 1770 0454 58040000 		.4byte	0x458
 1771 0458 0F       		.uleb128 0xf
 1772 0459 04       		.byte	0x4
 1773 045a 5E040000 		.4byte	0x45e
 1774 045e 10       		.uleb128 0x10
 1775 045f 6E040000 		.4byte	0x46e
 1776 0463 11       		.uleb128 0x11
 1777 0464 E0000000 		.4byte	0xe0
 1778 0468 11       		.uleb128 0x11
 1779 0469 C3000000 		.4byte	0xc3
 1780 046d 00       		.byte	0
 1781 046e 0F       		.uleb128 0xf
 1782 046f 04       		.byte	0x4
 1783 0470 74040000 		.4byte	0x474
 1784 0474 12       		.uleb128 0x12
 1785 0475 42040000 		.4byte	0x442
 1786 0479 13       		.uleb128 0x13
 1787 047a 01       		.byte	0x1
 1788 047b 08       		.byte	0x8
 1789 047c 48       		.byte	0x48
 1790 047d 94040000 		.4byte	0x494
 1791 0481 14       		.uleb128 0x14
 1792 0482 BE020000 		.4byte	.LASF65
 1793 0486 00       		.sleb128 0
 1794 0487 14       		.uleb128 0x14
 1795 0488 CA020000 		.4byte	.LASF66
 1796 048c 01       		.sleb128 1
 1797 048d 14       		.uleb128 0x14
 1798 048e 1A020000 		.4byte	.LASF67
 1799 0492 02       		.sleb128 2
 1800 0493 00       		.byte	0
 1801 0494 03       		.uleb128 0x3
 1802 0495 60040000 		.4byte	.LASF68
 1803 0499 08       		.byte	0x8
 1804 049a 4C       		.byte	0x4c
 1805 049b 79040000 		.4byte	0x479
 1806 049f 13       		.uleb128 0x13
 1807 04a0 01       		.byte	0x1
 1808 04a1 08       		.byte	0x8
 1809 04a2 51       		.byte	0x51
 1810 04a3 BA040000 		.4byte	0x4ba
 1811 04a7 14       		.uleb128 0x14
 1812 04a8 FA040000 		.4byte	.LASF69
 1813 04ac 00       		.sleb128 0
 1814 04ad 14       		.uleb128 0x14
 1815 04ae 25020000 		.4byte	.LASF70
 1816 04b2 01       		.sleb128 1
ARM GAS  C:\Users\ADMINI~1\AppData\Local\Temp\ccAZ8Fmz.s 			page 33


 1817 04b3 14       		.uleb128 0x14
 1818 04b4 74040000 		.4byte	.LASF71
 1819 04b8 02       		.sleb128 2
 1820 04b9 00       		.byte	0
 1821 04ba 03       		.uleb128 0x3
 1822 04bb 99030000 		.4byte	.LASF72
 1823 04bf 08       		.byte	0x8
 1824 04c0 55       		.byte	0x55
 1825 04c1 9F040000 		.4byte	0x49f
 1826 04c5 13       		.uleb128 0x13
 1827 04c6 01       		.byte	0x1
 1828 04c7 08       		.byte	0x8
 1829 04c8 5A       		.byte	0x5a
 1830 04c9 E0040000 		.4byte	0x4e0
 1831 04cd 14       		.uleb128 0x14
 1832 04ce CF040000 		.4byte	.LASF73
 1833 04d2 00       		.sleb128 0
 1834 04d3 14       		.uleb128 0x14
 1835 04d4 33000000 		.4byte	.LASF74
 1836 04d8 01       		.sleb128 1
 1837 04d9 14       		.uleb128 0x14
 1838 04da 5B030000 		.4byte	.LASF75
 1839 04de 02       		.sleb128 2
 1840 04df 00       		.byte	0
 1841 04e0 03       		.uleb128 0x3
 1842 04e1 94010000 		.4byte	.LASF76
 1843 04e5 08       		.byte	0x8
 1844 04e6 5E       		.byte	0x5e
 1845 04e7 C5040000 		.4byte	0x4c5
 1846 04eb 0C       		.uleb128 0xc
 1847 04ec 27000000 		.4byte	.LASF77
 1848 04f0 09       		.byte	0x9
 1849 04f1 FE01     		.2byte	0x1fe
 1850 04f3 C3000000 		.4byte	0xc3
 1851 04f7 0C       		.uleb128 0xc
 1852 04f8 E9010000 		.4byte	.LASF78
 1853 04fc 09       		.byte	0x9
 1854 04fd 0302     		.2byte	0x203
 1855 04ff 03050000 		.4byte	0x503
 1856 0503 15       		.uleb128 0x15
 1857 0504 E9010000 		.4byte	.LASF78
 1858 0508 1C       		.byte	0x1c
 1859 0509 09       		.byte	0x9
 1860 050a 4B02     		.2byte	0x24b
 1861 050c 86050000 		.4byte	0x586
 1862 0510 0B       		.uleb128 0xb
 1863 0511 4B010000 		.4byte	.LASF79
 1864 0515 09       		.byte	0x9
 1865 0516 4F02     		.2byte	0x24f
 1866 0518 94040000 		.4byte	0x494
 1867 051c 00       		.byte	0
 1868 051d 0B       		.uleb128 0xb
 1869 051e 51010000 		.4byte	.LASF80
 1870 0522 09       		.byte	0x9
 1871 0523 5302     		.2byte	0x253
 1872 0525 BA040000 		.4byte	0x4ba
 1873 0529 01       		.byte	0x1
ARM GAS  C:\Users\ADMINI~1\AppData\Local\Temp\ccAZ8Fmz.s 			page 34


 1874 052a 0B       		.uleb128 0xb
 1875 052b 34010000 		.4byte	.LASF81
 1876 052f 09       		.byte	0x9
 1877 0530 5702     		.2byte	0x257
 1878 0532 E0040000 		.4byte	0x4e0
 1879 0536 02       		.byte	0x2
 1880 0537 0B       		.uleb128 0xb
 1881 0538 C8040000 		.4byte	.LASF82
 1882 053c 09       		.byte	0x9
 1883 053d 5B02     		.2byte	0x25b
 1884 053f 78060000 		.4byte	0x678
 1885 0543 04       		.byte	0x4
 1886 0544 0B       		.uleb128 0xb
 1887 0545 34020000 		.4byte	.LASF83
 1888 0549 09       		.byte	0x9
 1889 054a 6302     		.2byte	0x263
 1890 054c 83060000 		.4byte	0x683
 1891 0550 08       		.byte	0x8
 1892 0551 0B       		.uleb128 0xb
 1893 0552 AF060000 		.4byte	.LASF84
 1894 0556 09       		.byte	0x9
 1895 0557 6702     		.2byte	0x267
 1896 0559 C3000000 		.4byte	0xc3
 1897 055d 0C       		.byte	0xc
 1898 055e 0B       		.uleb128 0xb
 1899 055f 17000000 		.4byte	.LASF85
 1900 0563 09       		.byte	0x9
 1901 0564 6B02     		.2byte	0x26b
 1902 0566 6E040000 		.4byte	0x46e
 1903 056a 10       		.byte	0x10
 1904 056b 0B       		.uleb128 0xb
 1905 056c BB030000 		.4byte	.LASF86
 1906 0570 09       		.byte	0x9
 1907 0571 6F02     		.2byte	0x26f
 1908 0573 6E040000 		.4byte	0x46e
 1909 0577 14       		.byte	0x14
 1910 0578 0B       		.uleb128 0xb
 1911 0579 71000000 		.4byte	.LASF87
 1912 057d 09       		.byte	0x9
 1913 057e 7302     		.2byte	0x273
 1914 0580 05010000 		.4byte	0x105
 1915 0584 18       		.byte	0x18
 1916 0585 00       		.byte	0
 1917 0586 0C       		.uleb128 0xc
 1918 0587 1D010000 		.4byte	.LASF88
 1919 058b 09       		.byte	0x9
 1920 058c 0A02     		.2byte	0x20a
 1921 058e 92050000 		.4byte	0x592
 1922 0592 0F       		.uleb128 0xf
 1923 0593 04       		.byte	0x4
 1924 0594 98050000 		.4byte	0x598
 1925 0598 10       		.uleb128 0x10
 1926 0599 A3050000 		.4byte	0x5a3
 1927 059d 11       		.uleb128 0x11
 1928 059e A3050000 		.4byte	0x5a3
 1929 05a2 00       		.byte	0
 1930 05a3 0F       		.uleb128 0xf
ARM GAS  C:\Users\ADMINI~1\AppData\Local\Temp\ccAZ8Fmz.s 			page 35


 1931 05a4 04       		.byte	0x4
 1932 05a5 F7040000 		.4byte	0x4f7
 1933 05a9 0C       		.uleb128 0xc
 1934 05aa 99000000 		.4byte	.LASF89
 1935 05ae 09       		.byte	0x9
 1936 05af 1202     		.2byte	0x212
 1937 05b1 B5050000 		.4byte	0x5b5
 1938 05b5 0F       		.uleb128 0xf
 1939 05b6 04       		.byte	0x4
 1940 05b7 BB050000 		.4byte	0x5bb
 1941 05bb 10       		.uleb128 0x10
 1942 05bc CB050000 		.4byte	0x5cb
 1943 05c0 11       		.uleb128 0x11
 1944 05c1 A3050000 		.4byte	0x5a3
 1945 05c5 11       		.uleb128 0x11
 1946 05c6 AD000000 		.4byte	0xad
 1947 05ca 00       		.byte	0
 1948 05cb 0C       		.uleb128 0xc
 1949 05cc 84020000 		.4byte	.LASF90
 1950 05d0 09       		.byte	0x9
 1951 05d1 1A02     		.2byte	0x21a
 1952 05d3 D7050000 		.4byte	0x5d7
 1953 05d7 0F       		.uleb128 0xf
 1954 05d8 04       		.byte	0x4
 1955 05d9 DD050000 		.4byte	0x5dd
 1956 05dd 10       		.uleb128 0x10
 1957 05de ED050000 		.4byte	0x5ed
 1958 05e2 11       		.uleb128 0x11
 1959 05e3 A3050000 		.4byte	0x5a3
 1960 05e7 11       		.uleb128 0x11
 1961 05e8 EB040000 		.4byte	0x4eb
 1962 05ec 00       		.byte	0
 1963 05ed 09       		.uleb128 0x9
 1964 05ee 20       		.byte	0x20
 1965 05ef 09       		.byte	0x9
 1966 05f0 2002     		.2byte	0x220
 1967 05f2 6C060000 		.4byte	0x66c
 1968 05f6 0B       		.uleb128 0xb
 1969 05f7 9B040000 		.4byte	.LASF91
 1970 05fb 09       		.byte	0x9
 1971 05fc 2402     		.2byte	0x224
 1972 05fe 86050000 		.4byte	0x586
 1973 0602 00       		.byte	0
 1974 0603 0B       		.uleb128 0xb
 1975 0604 1A040000 		.4byte	.LASF92
 1976 0608 09       		.byte	0x9
 1977 0609 2802     		.2byte	0x228
 1978 060b 86050000 		.4byte	0x586
 1979 060f 04       		.byte	0x4
 1980 0610 0B       		.uleb128 0xb
 1981 0611 8D040000 		.4byte	.LASF93
 1982 0615 09       		.byte	0x9
 1983 0616 2C02     		.2byte	0x22c
 1984 0618 86050000 		.4byte	0x586
 1985 061c 08       		.byte	0x8
 1986 061d 0B       		.uleb128 0xb
 1987 061e 4E000000 		.4byte	.LASF94
ARM GAS  C:\Users\ADMINI~1\AppData\Local\Temp\ccAZ8Fmz.s 			page 36


 1988 0622 09       		.byte	0x9
 1989 0623 3002     		.2byte	0x230
 1990 0625 A9050000 		.4byte	0x5a9
 1991 0629 0C       		.byte	0xc
 1992 062a 0B       		.uleb128 0xb
 1993 062b 6C030000 		.4byte	.LASF95
 1994 062f 09       		.byte	0x9
 1995 0630 3402     		.2byte	0x234
 1996 0632 CB050000 		.4byte	0x5cb
 1997 0636 10       		.byte	0x10
 1998 0637 0B       		.uleb128 0xb
 1999 0638 B7060000 		.4byte	.LASF96
 2000 063c 09       		.byte	0x9
 2001 063d 3902     		.2byte	0x239
 2002 063f C3000000 		.4byte	0xc3
 2003 0643 14       		.byte	0x14
 2004 0644 0A       		.uleb128 0xa
 2005 0645 63723100 		.ascii	"cr1\000"
 2006 0649 09       		.byte	0x9
 2007 064a 3D02     		.2byte	0x23d
 2008 064c AD000000 		.4byte	0xad
 2009 0650 18       		.byte	0x18
 2010 0651 0A       		.uleb128 0xa
 2011 0652 63723200 		.ascii	"cr2\000"
 2012 0656 09       		.byte	0x9
 2013 0657 4102     		.2byte	0x241
 2014 0659 AD000000 		.4byte	0xad
 2015 065d 1A       		.byte	0x1a
 2016 065e 0A       		.uleb128 0xa
 2017 065f 63723300 		.ascii	"cr3\000"
 2018 0663 09       		.byte	0x9
 2019 0664 4502     		.2byte	0x245
 2020 0666 AD000000 		.4byte	0xad
 2021 066a 1C       		.byte	0x1c
 2022 066b 00       		.byte	0
 2023 066c 0C       		.uleb128 0xc
 2024 066d BD000000 		.4byte	.LASF97
 2025 0671 09       		.byte	0x9
 2026 0672 4602     		.2byte	0x246
 2027 0674 ED050000 		.4byte	0x5ed
 2028 0678 0F       		.uleb128 0xf
 2029 0679 04       		.byte	0x4
 2030 067a 7E060000 		.4byte	0x67e
 2031 067e 12       		.uleb128 0x12
 2032 067f 6C060000 		.4byte	0x66c
 2033 0683 0F       		.uleb128 0xf
 2034 0684 04       		.byte	0x4
 2035 0685 E5030000 		.4byte	0x3e5
 2036 0689 16       		.uleb128 0x16
 2037 068a 09020000 		.4byte	.LASF98
 2038 068e 01       		.byte	0x1
 2039 068f A0       		.byte	0xa0
 2040 0690 01       		.byte	0x1
 2041 0691 AC060000 		.4byte	0x6ac
 2042 0695 17       		.uleb128 0x17
 2043 0696 34030000 		.4byte	.LASF100
 2044 069a 01       		.byte	0x1
ARM GAS  C:\Users\ADMINI~1\AppData\Local\Temp\ccAZ8Fmz.s 			page 37


 2045 069b A0       		.byte	0xa0
 2046 069c A3050000 		.4byte	0x5a3
 2047 06a0 18       		.uleb128 0x18
 2048 06a1 C3040000 		.4byte	.LASF102
 2049 06a5 01       		.byte	0x1
 2050 06a6 A1       		.byte	0xa1
 2051 06a7 C3000000 		.4byte	0xc3
 2052 06ab 00       		.byte	0
 2053 06ac 16       		.uleb128 0x16
 2054 06ad 46060000 		.4byte	.LASF99
 2055 06b1 01       		.byte	0x1
 2056 06b2 F3       		.byte	0xf3
 2057 06b3 01       		.byte	0x1
 2058 06b4 CF060000 		.4byte	0x6cf
 2059 06b8 17       		.uleb128 0x17
 2060 06b9 34030000 		.4byte	.LASF100
 2061 06bd 01       		.byte	0x1
 2062 06be F3       		.byte	0xf3
 2063 06bf A3050000 		.4byte	0x5a3
 2064 06c3 17       		.uleb128 0x17
 2065 06c4 A9060000 		.4byte	.LASF101
 2066 06c8 01       		.byte	0x1
 2067 06c9 F3       		.byte	0xf3
 2068 06ca C3000000 		.4byte	0xc3
 2069 06ce 00       		.byte	0
 2070 06cf 19       		.uleb128 0x19
 2071 06d0 77000000 		.4byte	.LASF103
 2072 06d4 01       		.byte	0x1
 2073 06d5 B5       		.byte	0xb5
 2074 06d6 00000000 		.4byte	.LFB120
 2075 06da 48000000 		.4byte	.LFE120-.LFB120
 2076 06de 01       		.uleb128 0x1
 2077 06df 9C       		.byte	0x9c
 2078 06e0 F4060000 		.4byte	0x6f4
 2079 06e4 1A       		.uleb128 0x1a
 2080 06e5 34030000 		.4byte	.LASF100
 2081 06e9 01       		.byte	0x1
 2082 06ea B5       		.byte	0xb5
 2083 06eb A3050000 		.4byte	0x5a3
 2084 06ef 00000000 		.4byte	.LLST0
 2085 06f3 00       		.byte	0
 2086 06f4 1B       		.uleb128 0x1b
 2087 06f5 4A030000 		.4byte	.LASF129
 2088 06f9 01       		.byte	0x1
 2089 06fa 8B       		.byte	0x8b
 2090 06fb EB040000 		.4byte	0x4eb
 2091 06ff 01       		.byte	0x1
 2092 0700 1A070000 		.4byte	0x71a
 2093 0704 1C       		.uleb128 0x1c
 2094 0705 737200   		.ascii	"sr\000"
 2095 0708 01       		.byte	0x1
 2096 0709 8B       		.byte	0x8b
 2097 070a AD000000 		.4byte	0xad
 2098 070e 1D       		.uleb128 0x1d
 2099 070f 73747300 		.ascii	"sts\000"
 2100 0713 01       		.byte	0x1
 2101 0714 8C       		.byte	0x8c
ARM GAS  C:\Users\ADMINI~1\AppData\Local\Temp\ccAZ8Fmz.s 			page 38


 2102 0715 EB040000 		.4byte	0x4eb
 2103 0719 00       		.byte	0
 2104 071a 1E       		.uleb128 0x1e
 2105 071b 24030000 		.4byte	.LASF104
 2106 071f 01       		.byte	0x1
 2107 0720 3801     		.2byte	0x138
 2108 0722 00000000 		.4byte	.LFB124
 2109 0726 68000000 		.4byte	.LFE124-.LFB124
 2110 072a 01       		.uleb128 0x1
 2111 072b 9C       		.byte	0x9c
 2112 072c AC070000 		.4byte	0x7ac
 2113 0730 1F       		.uleb128 0x1f
 2114 0731 34030000 		.4byte	.LASF100
 2115 0735 01       		.byte	0x1
 2116 0736 3801     		.2byte	0x138
 2117 0738 A3050000 		.4byte	0x5a3
 2118 073c 21000000 		.4byte	.LLST1
 2119 0740 20       		.uleb128 0x20
 2120 0741 737200   		.ascii	"sr\000"
 2121 0744 01       		.byte	0x1
 2122 0745 3901     		.2byte	0x139
 2123 0747 AD000000 		.4byte	0xad
 2124 074b 63000000 		.4byte	.LLST2
 2125 074f 20       		.uleb128 0x20
 2126 0750 7500     		.ascii	"u\000"
 2127 0752 01       		.byte	0x1
 2128 0753 3A01     		.2byte	0x13a
 2129 0755 83060000 		.4byte	0x683
 2130 0759 81000000 		.4byte	.LLST3
 2131 075d 21       		.uleb128 0x21
 2132 075e F4060000 		.4byte	0x6f4
 2133 0762 20000000 		.4byte	.LBB12
 2134 0766 2A000000 		.4byte	.LBE12-.LBB12
 2135 076a 01       		.byte	0x1
 2136 076b 4201     		.2byte	0x142
 2137 076d 8E070000 		.4byte	0x78e
 2138 0771 22       		.uleb128 0x22
 2139 0772 04070000 		.4byte	0x704
 2140 0776 9F000000 		.4byte	.LLST4
 2141 077a 23       		.uleb128 0x23
 2142 077b 20000000 		.4byte	.LBB13
 2143 077f 2A000000 		.4byte	.LBE13-.LBB13
 2144 0783 24       		.uleb128 0x24
 2145 0784 0E070000 		.4byte	0x70e
 2146 0788 B2000000 		.4byte	.LLST5
 2147 078c 00       		.byte	0
 2148 078d 00       		.byte	0
 2149 078e 25       		.uleb128 0x25
 2150 078f 4E000000 		.4byte	.LVL12
 2151 0793 9E070000 		.4byte	0x79e
 2152 0797 26       		.uleb128 0x26
 2153 0798 01       		.uleb128 0x1
 2154 0799 50       		.byte	0x50
 2155 079a 02       		.uleb128 0x2
 2156 079b 76       		.byte	0x76
 2157 079c 00       		.sleb128 0
 2158 079d 00       		.byte	0
ARM GAS  C:\Users\ADMINI~1\AppData\Local\Temp\ccAZ8Fmz.s 			page 39


 2159 079e 27       		.uleb128 0x27
 2160 079f 66000000 		.4byte	.LVL14
 2161 07a3 26       		.uleb128 0x26
 2162 07a4 01       		.uleb128 0x1
 2163 07a5 50       		.byte	0x50
 2164 07a6 03       		.uleb128 0x3
 2165 07a7 F3       		.byte	0xf3
 2166 07a8 01       		.uleb128 0x1
 2167 07a9 50       		.byte	0x50
 2168 07aa 00       		.byte	0
 2169 07ab 00       		.byte	0
 2170 07ac 1E       		.uleb128 0x1e
 2171 07ad 75030000 		.4byte	.LASF105
 2172 07b1 01       		.byte	0x1
 2173 07b2 1B01     		.2byte	0x11b
 2174 07b4 00000000 		.4byte	.LFB123
 2175 07b8 48000000 		.4byte	.LFE123-.LFB123
 2176 07bc 01       		.uleb128 0x1
 2177 07bd 9C       		.byte	0x9c
 2178 07be FC070000 		.4byte	0x7fc
 2179 07c2 1F       		.uleb128 0x1f
 2180 07c3 34030000 		.4byte	.LASF100
 2181 07c7 01       		.byte	0x1
 2182 07c8 1B01     		.2byte	0x11b
 2183 07ca A3050000 		.4byte	0x5a3
 2184 07ce D1000000 		.4byte	.LLST6
 2185 07d2 1F       		.uleb128 0x1f
 2186 07d3 A9060000 		.4byte	.LASF101
 2187 07d7 01       		.byte	0x1
 2188 07d8 1B01     		.2byte	0x11b
 2189 07da C3000000 		.4byte	0xc3
 2190 07de 05010000 		.4byte	.LLST7
 2191 07e2 25       		.uleb128 0x25
 2192 07e3 34000000 		.4byte	.LVL17
 2193 07e7 F2070000 		.4byte	0x7f2
 2194 07eb 26       		.uleb128 0x26
 2195 07ec 01       		.uleb128 0x1
 2196 07ed 50       		.byte	0x50
 2197 07ee 02       		.uleb128 0x2
 2198 07ef 74       		.byte	0x74
 2199 07f0 00       		.sleb128 0
 2200 07f1 00       		.byte	0
 2201 07f2 28       		.uleb128 0x28
 2202 07f3 46000000 		.4byte	.LVL20
 2203 07f7 B30C0000 		.4byte	0xcb3
 2204 07fb 00       		.byte	0
 2205 07fc 29       		.uleb128 0x29
 2206 07fd AC060000 		.4byte	0x6ac
 2207 0801 00000000 		.4byte	.LFB122
 2208 0805 88000000 		.4byte	.LFE122-.LFB122
 2209 0809 01       		.uleb128 0x1
 2210 080a 9C       		.byte	0x9c
 2211 080b 91080000 		.4byte	0x891
 2212 080f 22       		.uleb128 0x22
 2213 0810 B8060000 		.4byte	0x6b8
 2214 0814 3F010000 		.4byte	.LLST8
 2215 0818 22       		.uleb128 0x22
ARM GAS  C:\Users\ADMINI~1\AppData\Local\Temp\ccAZ8Fmz.s 			page 40


 2216 0819 C3060000 		.4byte	0x6c3
 2217 081d 97010000 		.4byte	.LLST9
 2218 0821 2A       		.uleb128 0x2a
 2219 0822 22000000 		.4byte	.LBB18
 2220 0826 60000000 		.4byte	.LBE18-.LBB18
 2221 082a 76080000 		.4byte	0x876
 2222 082e 22       		.uleb128 0x22
 2223 082f C3060000 		.4byte	0x6c3
 2224 0833 D1010000 		.4byte	.LLST10
 2225 0837 22       		.uleb128 0x22
 2226 0838 B8060000 		.4byte	0x6b8
 2227 083c E7010000 		.4byte	.LLST11
 2228 0840 2B       		.uleb128 0x2b
 2229 0841 89060000 		.4byte	0x689
 2230 0845 58000000 		.4byte	.LBB20
 2231 0849 00000000 		.4byte	.Ldebug_ranges0+0
 2232 084d 01       		.byte	0x1
 2233 084e 1001     		.2byte	0x110
 2234 0850 69080000 		.4byte	0x869
 2235 0854 22       		.uleb128 0x22
 2236 0855 95060000 		.4byte	0x695
 2237 0859 FA010000 		.4byte	.LLST12
 2238 085d 2C       		.uleb128 0x2c
 2239 085e 00000000 		.4byte	.Ldebug_ranges0+0
 2240 0862 2D       		.uleb128 0x2d
 2241 0863 A0060000 		.4byte	0x6a0
 2242 0867 00       		.byte	0
 2243 0868 00       		.byte	0
 2244 0869 2E       		.uleb128 0x2e
 2245 086a 4C000000 		.4byte	.LVL25
 2246 086e 26       		.uleb128 0x26
 2247 086f 01       		.uleb128 0x1
 2248 0870 50       		.byte	0x50
 2249 0871 02       		.uleb128 0x2
 2250 0872 74       		.byte	0x74
 2251 0873 00       		.sleb128 0
 2252 0874 00       		.byte	0
 2253 0875 00       		.byte	0
 2254 0876 2F       		.uleb128 0x2f
 2255 0877 22000000 		.4byte	.LVL24
 2256 087b 87080000 		.4byte	0x887
 2257 087f 26       		.uleb128 0x26
 2258 0880 01       		.uleb128 0x1
 2259 0881 50       		.byte	0x50
 2260 0882 03       		.uleb128 0x3
 2261 0883 F3       		.byte	0xf3
 2262 0884 01       		.uleb128 0x1
 2263 0885 50       		.byte	0x50
 2264 0886 00       		.byte	0
 2265 0887 28       		.uleb128 0x28
 2266 0888 86000000 		.4byte	.LVL29
 2267 088c B30C0000 		.4byte	0xcb3
 2268 0890 00       		.byte	0
 2269 0891 30       		.uleb128 0x30
 2270 0892 1B030000 		.4byte	.LASF106
 2271 0896 01       		.byte	0x1
 2272 0897 8001     		.2byte	0x180
ARM GAS  C:\Users\ADMINI~1\AppData\Local\Temp\ccAZ8Fmz.s 			page 41


 2273 0899 00000000 		.4byte	.LFB125
 2274 089d 14000000 		.4byte	.LFE125-.LFB125
 2275 08a1 01       		.uleb128 0x1
 2276 08a2 9C       		.byte	0x9c
 2277 08a3 C8080000 		.4byte	0x8c8
 2278 08a7 31       		.uleb128 0x31
 2279 08a8 08000000 		.4byte	.LVL30
 2280 08ac 1A070000 		.4byte	0x71a
 2281 08b0 BE080000 		.4byte	0x8be
 2282 08b4 26       		.uleb128 0x26
 2283 08b5 01       		.uleb128 0x1
 2284 08b6 50       		.byte	0x50
 2285 08b7 05       		.uleb128 0x5
 2286 08b8 03       		.byte	0x3
 2287 08b9 00000000 		.4byte	.LANCHOR0
 2288 08bd 00       		.byte	0
 2289 08be 32       		.uleb128 0x32
 2290 08bf 10000000 		.4byte	.LVL31
 2291 08c3 BB0C0000 		.4byte	0xcbb
 2292 08c7 00       		.byte	0
 2293 08c8 30       		.uleb128 0x30
 2294 08c9 9A020000 		.4byte	.LASF107
 2295 08cd 01       		.byte	0x1
 2296 08ce B901     		.2byte	0x1b9
 2297 08d0 00000000 		.4byte	.LFB126
 2298 08d4 14000000 		.4byte	.LFE126-.LFB126
 2299 08d8 01       		.uleb128 0x1
 2300 08d9 9C       		.byte	0x9c
 2301 08da FF080000 		.4byte	0x8ff
 2302 08de 31       		.uleb128 0x31
 2303 08df 08000000 		.4byte	.LVL32
 2304 08e3 1A070000 		.4byte	0x71a
 2305 08e7 F5080000 		.4byte	0x8f5
 2306 08eb 26       		.uleb128 0x26
 2307 08ec 01       		.uleb128 0x1
 2308 08ed 50       		.byte	0x50
 2309 08ee 05       		.uleb128 0x5
 2310 08ef 03       		.byte	0x3
 2311 08f0 00000000 		.4byte	.LANCHOR1
 2312 08f4 00       		.byte	0
 2313 08f5 32       		.uleb128 0x32
 2314 08f6 10000000 		.4byte	.LVL33
 2315 08fa BB0C0000 		.4byte	0xcbb
 2316 08fe 00       		.byte	0
 2317 08ff 30       		.uleb128 0x30
 2318 0900 74010000 		.4byte	.LASF108
 2319 0904 01       		.byte	0x1
 2320 0905 CC01     		.2byte	0x1cc
 2321 0907 00000000 		.4byte	.LFB127
 2322 090b 48000000 		.4byte	.LFE127-.LFB127
 2323 090f 01       		.uleb128 0x1
 2324 0910 9C       		.byte	0x9c
 2325 0911 3A090000 		.4byte	0x93a
 2326 0915 31       		.uleb128 0x31
 2327 0916 0E000000 		.4byte	.LVL34
 2328 091a C30C0000 		.4byte	0xcc3
 2329 091e 29090000 		.4byte	0x929
ARM GAS  C:\Users\ADMINI~1\AppData\Local\Temp\ccAZ8Fmz.s 			page 42


 2330 0922 26       		.uleb128 0x26
 2331 0923 01       		.uleb128 0x1
 2332 0924 50       		.byte	0x50
 2333 0925 02       		.uleb128 0x2
 2334 0926 75       		.byte	0x75
 2335 0927 00       		.sleb128 0
 2336 0928 00       		.byte	0
 2337 0929 33       		.uleb128 0x33
 2338 092a 24000000 		.4byte	.LVL35
 2339 092e C30C0000 		.4byte	0xcc3
 2340 0932 26       		.uleb128 0x26
 2341 0933 01       		.uleb128 0x1
 2342 0934 50       		.byte	0x50
 2343 0935 02       		.uleb128 0x2
 2344 0936 76       		.byte	0x76
 2345 0937 00       		.sleb128 0
 2346 0938 00       		.byte	0
 2347 0939 00       		.byte	0
 2348 093a 16       		.uleb128 0x16
 2349 093b 9D060000 		.4byte	.LASF109
 2350 093f 01       		.byte	0x1
 2351 0940 C7       		.byte	0xc7
 2352 0941 01       		.byte	0x1
 2353 0942 66090000 		.4byte	0x966
 2354 0946 17       		.uleb128 0x17
 2355 0947 34030000 		.4byte	.LASF100
 2356 094b 01       		.byte	0x1
 2357 094c C7       		.byte	0xc7
 2358 094d A3050000 		.4byte	0x5a3
 2359 0951 1D       		.uleb128 0x1d
 2360 0952 63723100 		.ascii	"cr1\000"
 2361 0956 01       		.byte	0x1
 2362 0957 C8       		.byte	0xc8
 2363 0958 AD000000 		.4byte	0xad
 2364 095c 1D       		.uleb128 0x1d
 2365 095d 7500     		.ascii	"u\000"
 2366 095f 01       		.byte	0x1
 2367 0960 C9       		.byte	0xc9
 2368 0961 83060000 		.4byte	0x683
 2369 0965 00       		.byte	0
 2370 0966 30       		.uleb128 0x30
 2371 0967 DA010000 		.4byte	.LASF110
 2372 096b 01       		.byte	0x1
 2373 096c 0502     		.2byte	0x205
 2374 096e 00000000 		.4byte	.LFB128
 2375 0972 70010000 		.4byte	.LFE128-.LFB128
 2376 0976 01       		.uleb128 0x1
 2377 0977 9C       		.byte	0x9c
 2378 0978 DF0A0000 		.4byte	0xadf
 2379 097c 1F       		.uleb128 0x1f
 2380 097d 34030000 		.4byte	.LASF100
 2381 0981 01       		.byte	0x1
 2382 0982 0502     		.2byte	0x205
 2383 0984 A3050000 		.4byte	0x5a3
 2384 0988 0D020000 		.4byte	.LLST13
 2385 098c 2B       		.uleb128 0x2b
 2386 098d 3A090000 		.4byte	0x93a
ARM GAS  C:\Users\ADMINI~1\AppData\Local\Temp\ccAZ8Fmz.s 			page 43


 2387 0991 14000000 		.4byte	.LBB32
 2388 0995 20000000 		.4byte	.Ldebug_ranges0+0x20
 2389 0999 01       		.byte	0x1
 2390 099a A102     		.2byte	0x2a1
 2391 099c FE090000 		.4byte	0x9fe
 2392 09a0 22       		.uleb128 0x22
 2393 09a1 46090000 		.4byte	0x946
 2394 09a5 7A020000 		.4byte	.LLST14
 2395 09a9 2C       		.uleb128 0x2c
 2396 09aa 20000000 		.4byte	.Ldebug_ranges0+0x20
 2397 09ae 24       		.uleb128 0x24
 2398 09af 51090000 		.4byte	0x951
 2399 09b3 A5020000 		.4byte	.LLST15
 2400 09b7 24       		.uleb128 0x24
 2401 09b8 5C090000 		.4byte	0x95c
 2402 09bc D2020000 		.4byte	.LLST16
 2403 09c0 34       		.uleb128 0x34
 2404 09c1 89060000 		.4byte	0x689
 2405 09c5 38000000 		.4byte	.LBB34
 2406 09c9 38000000 		.4byte	.Ldebug_ranges0+0x38
 2407 09cd 01       		.byte	0x1
 2408 09ce EA       		.byte	0xea
 2409 09cf EC090000 		.4byte	0x9ec
 2410 09d3 22       		.uleb128 0x22
 2411 09d4 95060000 		.4byte	0x695
 2412 09d8 F0020000 		.4byte	.LLST17
 2413 09dc 2C       		.uleb128 0x2c
 2414 09dd 38000000 		.4byte	.Ldebug_ranges0+0x38
 2415 09e1 24       		.uleb128 0x24
 2416 09e2 A0060000 		.4byte	0x6a0
 2417 09e6 05030000 		.4byte	.LLST18
 2418 09ea 00       		.byte	0
 2419 09eb 00       		.byte	0
 2420 09ec 33       		.uleb128 0x33
 2421 09ed 1A000000 		.4byte	.LVL39
 2422 09f1 CF060000 		.4byte	0x6cf
 2423 09f5 26       		.uleb128 0x26
 2424 09f6 01       		.uleb128 0x1
 2425 09f7 50       		.byte	0x50
 2426 09f8 02       		.uleb128 0x2
 2427 09f9 74       		.byte	0x74
 2428 09fa 00       		.sleb128 0
 2429 09fb 00       		.byte	0
 2430 09fc 00       		.byte	0
 2431 09fd 00       		.byte	0
 2432 09fe 2A       		.uleb128 0x2a
 2433 09ff E8000000 		.4byte	.LBB50
 2434 0a03 34000000 		.4byte	.LBE50-.LBB50
 2435 0a07 700A0000 		.4byte	0xa70
 2436 0a0b 35       		.uleb128 0x35
 2437 0a0c 6200     		.ascii	"b\000"
 2438 0a0e 01       		.byte	0x1
 2439 0a0f 8302     		.2byte	0x283
 2440 0a11 CE000000 		.4byte	0xce
 2441 0a15 31       		.uleb128 0x31
 2442 0a16 F4000000 		.4byte	.LVL50
 2443 0a1a D40C0000 		.4byte	0xcd4
ARM GAS  C:\Users\ADMINI~1\AppData\Local\Temp\ccAZ8Fmz.s 			page 44


 2444 0a1e 370A0000 		.4byte	0xa37
 2445 0a22 26       		.uleb128 0x26
 2446 0a23 01       		.uleb128 0x1
 2447 0a24 53       		.byte	0x53
 2448 0a25 02       		.uleb128 0x2
 2449 0a26 74       		.byte	0x74
 2450 0a27 00       		.sleb128 0
 2451 0a28 26       		.uleb128 0x26
 2452 0a29 01       		.uleb128 0x1
 2453 0a2a 52       		.byte	0x52
 2454 0a2b 05       		.uleb128 0x5
 2455 0a2c 03       		.byte	0x3
 2456 0a2d 00000000 		.4byte	uart_lld_serve_rx_end_irq
 2457 0a31 26       		.uleb128 0x26
 2458 0a32 01       		.uleb128 0x1
 2459 0a33 51       		.byte	0x51
 2460 0a34 01       		.uleb128 0x1
 2461 0a35 3C       		.byte	0x3c
 2462 0a36 00       		.byte	0
 2463 0a37 31       		.uleb128 0x31
 2464 0a38 00010000 		.4byte	.LVL51
 2465 0a3c D40C0000 		.4byte	0xcd4
 2466 0a40 590A0000 		.4byte	0xa59
 2467 0a44 26       		.uleb128 0x26
 2468 0a45 01       		.uleb128 0x1
 2469 0a46 53       		.byte	0x53
 2470 0a47 02       		.uleb128 0x2
 2471 0a48 74       		.byte	0x74
 2472 0a49 00       		.sleb128 0
 2473 0a4a 26       		.uleb128 0x26
 2474 0a4b 01       		.uleb128 0x1
 2475 0a4c 52       		.byte	0x52
 2476 0a4d 05       		.uleb128 0x5
 2477 0a4e 03       		.byte	0x3
 2478 0a4f 00000000 		.4byte	uart_lld_serve_tx_end_irq
 2479 0a53 26       		.uleb128 0x26
 2480 0a54 01       		.uleb128 0x1
 2481 0a55 51       		.byte	0x51
 2482 0a56 01       		.uleb128 0x1
 2483 0a57 3C       		.byte	0x3c
 2484 0a58 00       		.byte	0
 2485 0a59 33       		.uleb128 0x33
 2486 0a5a 12010000 		.4byte	.LVL52
 2487 0a5e F90C0000 		.4byte	0xcf9
 2488 0a62 26       		.uleb128 0x26
 2489 0a63 01       		.uleb128 0x1
 2490 0a64 51       		.byte	0x51
 2491 0a65 02       		.uleb128 0x2
 2492 0a66 08       		.byte	0x8
 2493 0a67 C0       		.byte	0xc0
 2494 0a68 26       		.uleb128 0x26
 2495 0a69 01       		.uleb128 0x1
 2496 0a6a 50       		.byte	0x50
 2497 0a6b 02       		.uleb128 0x2
 2498 0a6c 08       		.byte	0x8
 2499 0a6d 47       		.byte	0x47
 2500 0a6e 00       		.byte	0
ARM GAS  C:\Users\ADMINI~1\AppData\Local\Temp\ccAZ8Fmz.s 			page 45


 2501 0a6f 00       		.byte	0
 2502 0a70 23       		.uleb128 0x23
 2503 0a71 1C010000 		.4byte	.LBB51
 2504 0a75 54000000 		.4byte	.LBE51-.LBB51
 2505 0a79 35       		.uleb128 0x35
 2506 0a7a 6200     		.ascii	"b\000"
 2507 0a7c 01       		.byte	0x1
 2508 0a7d 3402     		.2byte	0x234
 2509 0a7f CE000000 		.4byte	0xce
 2510 0a83 31       		.uleb128 0x31
 2511 0a84 28010000 		.4byte	.LVL55
 2512 0a88 D40C0000 		.4byte	0xcd4
 2513 0a8c A50A0000 		.4byte	0xaa5
 2514 0a90 26       		.uleb128 0x26
 2515 0a91 01       		.uleb128 0x1
 2516 0a92 53       		.byte	0x53
 2517 0a93 02       		.uleb128 0x2
 2518 0a94 74       		.byte	0x74
 2519 0a95 00       		.sleb128 0
 2520 0a96 26       		.uleb128 0x26
 2521 0a97 01       		.uleb128 0x1
 2522 0a98 52       		.byte	0x52
 2523 0a99 05       		.uleb128 0x5
 2524 0a9a 03       		.byte	0x3
 2525 0a9b 00000000 		.4byte	uart_lld_serve_rx_end_irq
 2526 0a9f 26       		.uleb128 0x26
 2527 0aa0 01       		.uleb128 0x1
 2528 0aa1 51       		.byte	0x51
 2529 0aa2 01       		.uleb128 0x1
 2530 0aa3 3C       		.byte	0x3c
 2531 0aa4 00       		.byte	0
 2532 0aa5 31       		.uleb128 0x31
 2533 0aa6 34010000 		.4byte	.LVL56
 2534 0aaa D40C0000 		.4byte	0xcd4
 2535 0aae C70A0000 		.4byte	0xac7
 2536 0ab2 26       		.uleb128 0x26
 2537 0ab3 01       		.uleb128 0x1
 2538 0ab4 53       		.byte	0x53
 2539 0ab5 02       		.uleb128 0x2
 2540 0ab6 74       		.byte	0x74
 2541 0ab7 00       		.sleb128 0
 2542 0ab8 26       		.uleb128 0x26
 2543 0ab9 01       		.uleb128 0x1
 2544 0aba 52       		.byte	0x52
 2545 0abb 05       		.uleb128 0x5
 2546 0abc 03       		.byte	0x3
 2547 0abd 00000000 		.4byte	uart_lld_serve_tx_end_irq
 2548 0ac1 26       		.uleb128 0x26
 2549 0ac2 01       		.uleb128 0x1
 2550 0ac3 51       		.byte	0x51
 2551 0ac4 01       		.uleb128 0x1
 2552 0ac5 3C       		.byte	0x3c
 2553 0ac6 00       		.byte	0
 2554 0ac7 33       		.uleb128 0x33
 2555 0ac8 46010000 		.4byte	.LVL57
 2556 0acc F90C0000 		.4byte	0xcf9
 2557 0ad0 26       		.uleb128 0x26
ARM GAS  C:\Users\ADMINI~1\AppData\Local\Temp\ccAZ8Fmz.s 			page 46


 2558 0ad1 01       		.uleb128 0x1
 2559 0ad2 51       		.byte	0x51
 2560 0ad3 02       		.uleb128 0x2
 2561 0ad4 08       		.byte	0x8
 2562 0ad5 C0       		.byte	0xc0
 2563 0ad6 26       		.uleb128 0x26
 2564 0ad7 01       		.uleb128 0x1
 2565 0ad8 50       		.byte	0x50
 2566 0ad9 02       		.uleb128 0x2
 2567 0ada 08       		.byte	0x8
 2568 0adb 27       		.byte	0x27
 2569 0adc 00       		.byte	0
 2570 0add 00       		.byte	0
 2571 0ade 00       		.byte	0
 2572 0adf 30       		.uleb128 0x30
 2573 0ae0 DE060000 		.4byte	.LASF111
 2574 0ae4 01       		.byte	0x1
 2575 0ae5 AB02     		.2byte	0x2ab
 2576 0ae7 00000000 		.4byte	.LFB129
 2577 0aeb 5C000000 		.4byte	.LFE129-.LFB129
 2578 0aef 01       		.uleb128 0x1
 2579 0af0 9C       		.byte	0x9c
 2580 0af1 500B0000 		.4byte	0xb50
 2581 0af5 1F       		.uleb128 0x1f
 2582 0af6 34030000 		.4byte	.LASF100
 2583 0afa 01       		.byte	0x1
 2584 0afb AB02     		.2byte	0x2ab
 2585 0afd A3050000 		.4byte	0x5a3
 2586 0b01 18030000 		.4byte	.LLST19
 2587 0b05 31       		.uleb128 0x31
 2588 0b06 10000000 		.4byte	.LVL59
 2589 0b0a CF060000 		.4byte	0x6cf
 2590 0b0e 190B0000 		.4byte	0xb19
 2591 0b12 26       		.uleb128 0x26
 2592 0b13 01       		.uleb128 0x1
 2593 0b14 50       		.byte	0x50
 2594 0b15 02       		.uleb128 0x2
 2595 0b16 74       		.byte	0x74
 2596 0b17 00       		.sleb128 0
 2597 0b18 00       		.byte	0
 2598 0b19 28       		.uleb128 0x28
 2599 0b1a 16000000 		.4byte	.LVL60
 2600 0b1e 100D0000 		.4byte	0xd10
 2601 0b22 28       		.uleb128 0x28
 2602 0b23 1C000000 		.4byte	.LVL61
 2603 0b27 100D0000 		.4byte	0xd10
 2604 0b2b 31       		.uleb128 0x31
 2605 0b2c 30000000 		.4byte	.LVL63
 2606 0b30 220D0000 		.4byte	0xd22
 2607 0b34 3F0B0000 		.4byte	0xb3f
 2608 0b38 26       		.uleb128 0x26
 2609 0b39 01       		.uleb128 0x1
 2610 0b3a 50       		.byte	0x50
 2611 0b3b 02       		.uleb128 0x2
 2612 0b3c 08       		.byte	0x8
 2613 0b3d 47       		.byte	0x47
 2614 0b3e 00       		.byte	0
ARM GAS  C:\Users\ADMINI~1\AppData\Local\Temp\ccAZ8Fmz.s 			page 47


 2615 0b3f 33       		.uleb128 0x33
 2616 0b40 42000000 		.4byte	.LVL64
 2617 0b44 220D0000 		.4byte	0xd22
 2618 0b48 26       		.uleb128 0x26
 2619 0b49 01       		.uleb128 0x1
 2620 0b4a 50       		.byte	0x50
 2621 0b4b 02       		.uleb128 0x2
 2622 0b4c 08       		.byte	0x8
 2623 0b4d 27       		.byte	0x27
 2624 0b4e 00       		.byte	0
 2625 0b4f 00       		.byte	0
 2626 0b50 30       		.uleb128 0x30
 2627 0b51 CA060000 		.4byte	.LASF112
 2628 0b55 01       		.byte	0x1
 2629 0b56 EF02     		.2byte	0x2ef
 2630 0b58 00000000 		.4byte	.LFB130
 2631 0b5c 1A000000 		.4byte	.LFE130-.LFB130
 2632 0b60 01       		.uleb128 0x1
 2633 0b61 9C       		.byte	0x9c
 2634 0b62 930B0000 		.4byte	0xb93
 2635 0b66 1F       		.uleb128 0x1f
 2636 0b67 34030000 		.4byte	.LASF100
 2637 0b6b 01       		.byte	0x1
 2638 0b6c EF02     		.2byte	0x2ef
 2639 0b6e A3050000 		.4byte	0x5a3
 2640 0b72 44030000 		.4byte	.LLST20
 2641 0b76 36       		.uleb128 0x36
 2642 0b77 6E00     		.ascii	"n\000"
 2643 0b79 01       		.byte	0x1
 2644 0b7a EF02     		.2byte	0x2ef
 2645 0b7c 2C000000 		.4byte	0x2c
 2646 0b80 01       		.uleb128 0x1
 2647 0b81 51       		.byte	0x51
 2648 0b82 1F       		.uleb128 0x1f
 2649 0b83 47020000 		.4byte	.LASF113
 2650 0b87 01       		.byte	0x1
 2651 0b88 EF02     		.2byte	0x2ef
 2652 0b8a 930B0000 		.4byte	0xb93
 2653 0b8e 65030000 		.4byte	.LLST21
 2654 0b92 00       		.byte	0
 2655 0b93 0F       		.uleb128 0xf
 2656 0b94 04       		.byte	0x4
 2657 0b95 990B0000 		.4byte	0xb99
 2658 0b99 37       		.uleb128 0x37
 2659 0b9a 38       		.uleb128 0x38
 2660 0b9b 5F020000 		.4byte	.LASF115
 2661 0b9f 01       		.byte	0x1
 2662 0ba0 0403     		.2byte	0x304
 2663 0ba2 2C000000 		.4byte	0x2c
 2664 0ba6 00000000 		.4byte	.LFB131
 2665 0baa 20000000 		.4byte	.LFE131-.LFB131
 2666 0bae 01       		.uleb128 0x1
 2667 0baf 9C       		.byte	0x9c
 2668 0bb0 C50B0000 		.4byte	0xbc5
 2669 0bb4 1F       		.uleb128 0x1f
 2670 0bb5 34030000 		.4byte	.LASF100
 2671 0bb9 01       		.byte	0x1
ARM GAS  C:\Users\ADMINI~1\AppData\Local\Temp\ccAZ8Fmz.s 			page 48


 2672 0bba 0403     		.2byte	0x304
 2673 0bbc A3050000 		.4byte	0x5a3
 2674 0bc0 86030000 		.4byte	.LLST22
 2675 0bc4 00       		.byte	0
 2676 0bc5 30       		.uleb128 0x30
 2677 0bc6 00000000 		.4byte	.LASF114
 2678 0bca 01       		.byte	0x1
 2679 0bcb 1503     		.2byte	0x315
 2680 0bcd 00000000 		.4byte	.LFB132
 2681 0bd1 36000000 		.4byte	.LFE132-.LFB132
 2682 0bd5 01       		.uleb128 0x1
 2683 0bd6 9C       		.byte	0x9c
 2684 0bd7 040C0000 		.4byte	0xc04
 2685 0bdb 39       		.uleb128 0x39
 2686 0bdc 34030000 		.4byte	.LASF100
 2687 0be0 01       		.byte	0x1
 2688 0be1 1503     		.2byte	0x315
 2689 0be3 A3050000 		.4byte	0x5a3
 2690 0be7 01       		.uleb128 0x1
 2691 0be8 50       		.byte	0x50
 2692 0be9 36       		.uleb128 0x36
 2693 0bea 6E00     		.ascii	"n\000"
 2694 0bec 01       		.byte	0x1
 2695 0bed 1503     		.2byte	0x315
 2696 0bef 2C000000 		.4byte	0x2c
 2697 0bf3 01       		.uleb128 0x1
 2698 0bf4 51       		.byte	0x51
 2699 0bf5 39       		.uleb128 0x39
 2700 0bf6 71000000 		.4byte	.LASF87
 2701 0bfa 01       		.byte	0x1
 2702 0bfb 1503     		.2byte	0x315
 2703 0bfd E0000000 		.4byte	0xe0
 2704 0c01 01       		.uleb128 0x1
 2705 0c02 52       		.byte	0x52
 2706 0c03 00       		.byte	0
 2707 0c04 38       		.uleb128 0x38
 2708 0c05 ED000000 		.4byte	.LASF116
 2709 0c09 01       		.byte	0x1
 2710 0c0a 2D03     		.2byte	0x32d
 2711 0c0c 2C000000 		.4byte	0x2c
 2712 0c10 00000000 		.4byte	.LFB133
 2713 0c14 4A000000 		.4byte	.LFE133-.LFB133
 2714 0c18 01       		.uleb128 0x1
 2715 0c19 9C       		.byte	0x9c
 2716 0c1a 640C0000 		.4byte	0xc64
 2717 0c1e 1F       		.uleb128 0x1f
 2718 0c1f 34030000 		.4byte	.LASF100
 2719 0c23 01       		.byte	0x1
 2720 0c24 2D03     		.2byte	0x32d
 2721 0c26 A3050000 		.4byte	0x5a3
 2722 0c2a A7030000 		.4byte	.LLST23
 2723 0c2e 3A       		.uleb128 0x3a
 2724 0c2f 6E00     		.ascii	"n\000"
 2725 0c31 01       		.byte	0x1
 2726 0c32 2E03     		.2byte	0x32e
 2727 0c34 2C000000 		.4byte	0x2c
 2728 0c38 01       		.uleb128 0x1
ARM GAS  C:\Users\ADMINI~1\AppData\Local\Temp\ccAZ8Fmz.s 			page 49


 2729 0c39 50       		.byte	0x50
 2730 0c3a 3B       		.uleb128 0x3b
 2731 0c3b 89060000 		.4byte	0x689
 2732 0c3f 16000000 		.4byte	.LBB52
 2733 0c43 78000000 		.4byte	.Ldebug_ranges0+0x78
 2734 0c47 01       		.byte	0x1
 2735 0c48 3203     		.2byte	0x332
 2736 0c4a 22       		.uleb128 0x22
 2737 0c4b 95060000 		.4byte	0x695
 2738 0c4f D2030000 		.4byte	.LLST24
 2739 0c53 2C       		.uleb128 0x2c
 2740 0c54 78000000 		.4byte	.Ldebug_ranges0+0x78
 2741 0c58 24       		.uleb128 0x24
 2742 0c59 A0060000 		.4byte	0x6a0
 2743 0c5d F2030000 		.4byte	.LLST25
 2744 0c61 00       		.byte	0
 2745 0c62 00       		.byte	0
 2746 0c63 00       		.byte	0
 2747 0c64 3C       		.uleb128 0x3c
 2748 0c65 C8000000 		.4byte	.LASF117
 2749 0c69 0A       		.byte	0xa
 2750 0c6a 9806     		.2byte	0x698
 2751 0c6c 0A010000 		.4byte	0x10a
 2752 0c70 07       		.uleb128 0x7
 2753 0c71 42040000 		.4byte	0x442
 2754 0c75 800C0000 		.4byte	0xc80
 2755 0c79 08       		.uleb128 0x8
 2756 0c7a E7000000 		.4byte	0xe7
 2757 0c7e 0F       		.byte	0xf
 2758 0c7f 00       		.byte	0
 2759 0c80 3C       		.uleb128 0x3c
 2760 0c81 AA000000 		.4byte	.LASF118
 2761 0c85 07       		.byte	0x7
 2762 0c86 BB01     		.2byte	0x1bb
 2763 0c88 8C0C0000 		.4byte	0xc8c
 2764 0c8c 12       		.uleb128 0x12
 2765 0c8d 700C0000 		.4byte	0xc70
 2766 0c91 3D       		.uleb128 0x3d
 2767 0c92 FE060000 		.4byte	.LASF119
 2768 0c96 01       		.byte	0x1
 2769 0c97 6A       		.byte	0x6a
 2770 0c98 F7040000 		.4byte	0x4f7
 2771 0c9c 05       		.uleb128 0x5
 2772 0c9d 03       		.byte	0x3
 2773 0c9e 00000000 		.4byte	UARTD3
 2774 0ca2 3D       		.uleb128 0x3d
 2775 0ca3 3A030000 		.4byte	.LASF120
 2776 0ca7 01       		.byte	0x1
 2777 0ca8 79       		.byte	0x79
 2778 0ca9 F7040000 		.4byte	0x4f7
 2779 0cad 05       		.uleb128 0x5
 2780 0cae 03       		.byte	0x3
 2781 0caf 00000000 		.4byte	UARTD6
 2782 0cb3 3E       		.uleb128 0x3e
 2783 0cb4 82010000 		.4byte	.LASF121
 2784 0cb8 0B       		.byte	0xb
 2785 0cb9 0102     		.2byte	0x201
ARM GAS  C:\Users\ADMINI~1\AppData\Local\Temp\ccAZ8Fmz.s 			page 50


 2786 0cbb 3E       		.uleb128 0x3e
 2787 0cbc E8020000 		.4byte	.LASF122
 2788 0cc0 0B       		.byte	0xb
 2789 0cc1 0302     		.2byte	0x203
 2790 0cc3 3F       		.uleb128 0x3f
 2791 0cc4 62000000 		.4byte	.LASF123
 2792 0cc8 08       		.byte	0x8
 2793 0cc9 6E       		.byte	0x6e
 2794 0cca D40C0000 		.4byte	0xcd4
 2795 0cce 11       		.uleb128 0x11
 2796 0ccf A3050000 		.4byte	0x5a3
 2797 0cd3 00       		.byte	0
 2798 0cd4 40       		.uleb128 0x40
 2799 0cd5 EC060000 		.4byte	.LASF130
 2800 0cd9 07       		.byte	0x7
 2801 0cda C201     		.2byte	0x1c2
 2802 0cdc CE000000 		.4byte	0xce
 2803 0ce0 F90C0000 		.4byte	0xcf9
 2804 0ce4 11       		.uleb128 0x11
 2805 0ce5 6E040000 		.4byte	0x46e
 2806 0ce9 11       		.uleb128 0x11
 2807 0cea C3000000 		.4byte	0xc3
 2808 0cee 11       		.uleb128 0x11
 2809 0cef 4D040000 		.4byte	0x44d
 2810 0cf3 11       		.uleb128 0x11
 2811 0cf4 E0000000 		.4byte	0xe0
 2812 0cf8 00       		.byte	0
 2813 0cf9 41       		.uleb128 0x41
 2814 0cfa DC000000 		.4byte	.LASF124
 2815 0cfe 0C       		.byte	0xc
 2816 0cff 2301     		.2byte	0x123
 2817 0d01 100D0000 		.4byte	0xd10
 2818 0d05 11       		.uleb128 0x11
 2819 0d06 C3000000 		.4byte	0xc3
 2820 0d0a 11       		.uleb128 0x11
 2821 0d0b C3000000 		.4byte	0xc3
 2822 0d0f 00       		.byte	0
 2823 0d10 41       		.uleb128 0x41
 2824 0d11 B2040000 		.4byte	.LASF125
 2825 0d15 07       		.byte	0x7
 2826 0d16 C601     		.2byte	0x1c6
 2827 0d18 220D0000 		.4byte	0xd22
 2828 0d1c 11       		.uleb128 0x11
 2829 0d1d 6E040000 		.4byte	0x46e
 2830 0d21 00       		.byte	0
 2831 0d22 42       		.uleb128 0x42
 2832 0d23 4D020000 		.4byte	.LASF131
 2833 0d27 0C       		.byte	0xc
 2834 0d28 2401     		.2byte	0x124
 2835 0d2a 11       		.uleb128 0x11
 2836 0d2b C3000000 		.4byte	0xc3
 2837 0d2f 00       		.byte	0
 2838 0d30 00       		.byte	0
 2839              		.section	.debug_abbrev,"",%progbits
 2840              	.Ldebug_abbrev0:
 2841 0000 01       		.uleb128 0x1
 2842 0001 11       		.uleb128 0x11
ARM GAS  C:\Users\ADMINI~1\AppData\Local\Temp\ccAZ8Fmz.s 			page 51


 2843 0002 01       		.byte	0x1
 2844 0003 25       		.uleb128 0x25
 2845 0004 0E       		.uleb128 0xe
 2846 0005 13       		.uleb128 0x13
 2847 0006 0B       		.uleb128 0xb
 2848 0007 03       		.uleb128 0x3
 2849 0008 0E       		.uleb128 0xe
 2850 0009 1B       		.uleb128 0x1b
 2851 000a 0E       		.uleb128 0xe
 2852 000b 55       		.uleb128 0x55
 2853 000c 17       		.uleb128 0x17
 2854 000d 11       		.uleb128 0x11
 2855 000e 01       		.uleb128 0x1
 2856 000f 10       		.uleb128 0x10
 2857 0010 17       		.uleb128 0x17
 2858 0011 00       		.byte	0
 2859 0012 00       		.byte	0
 2860 0013 02       		.uleb128 0x2
 2861 0014 24       		.uleb128 0x24
 2862 0015 00       		.byte	0
 2863 0016 0B       		.uleb128 0xb
 2864 0017 0B       		.uleb128 0xb
 2865 0018 3E       		.uleb128 0x3e
 2866 0019 0B       		.uleb128 0xb
 2867 001a 03       		.uleb128 0x3
 2868 001b 08       		.uleb128 0x8
 2869 001c 00       		.byte	0
 2870 001d 00       		.byte	0
 2871 001e 03       		.uleb128 0x3
 2872 001f 16       		.uleb128 0x16
 2873 0020 00       		.byte	0
 2874 0021 03       		.uleb128 0x3
 2875 0022 0E       		.uleb128 0xe
 2876 0023 3A       		.uleb128 0x3a
 2877 0024 0B       		.uleb128 0xb
 2878 0025 3B       		.uleb128 0x3b
 2879 0026 0B       		.uleb128 0xb
 2880 0027 49       		.uleb128 0x49
 2881 0028 13       		.uleb128 0x13
 2882 0029 00       		.byte	0
 2883 002a 00       		.byte	0
 2884 002b 04       		.uleb128 0x4
 2885 002c 24       		.uleb128 0x24
 2886 002d 00       		.byte	0
 2887 002e 0B       		.uleb128 0xb
 2888 002f 0B       		.uleb128 0xb
 2889 0030 3E       		.uleb128 0x3e
 2890 0031 0B       		.uleb128 0xb
 2891 0032 03       		.uleb128 0x3
 2892 0033 0E       		.uleb128 0xe
 2893 0034 00       		.byte	0
 2894 0035 00       		.byte	0
 2895 0036 05       		.uleb128 0x5
 2896 0037 0F       		.uleb128 0xf
 2897 0038 00       		.byte	0
 2898 0039 0B       		.uleb128 0xb
 2899 003a 0B       		.uleb128 0xb
ARM GAS  C:\Users\ADMINI~1\AppData\Local\Temp\ccAZ8Fmz.s 			page 52


 2900 003b 00       		.byte	0
 2901 003c 00       		.byte	0
 2902 003d 06       		.uleb128 0x6
 2903 003e 35       		.uleb128 0x35
 2904 003f 00       		.byte	0
 2905 0040 49       		.uleb128 0x49
 2906 0041 13       		.uleb128 0x13
 2907 0042 00       		.byte	0
 2908 0043 00       		.byte	0
 2909 0044 07       		.uleb128 0x7
 2910 0045 01       		.uleb128 0x1
 2911 0046 01       		.byte	0x1
 2912 0047 49       		.uleb128 0x49
 2913 0048 13       		.uleb128 0x13
 2914 0049 01       		.uleb128 0x1
 2915 004a 13       		.uleb128 0x13
 2916 004b 00       		.byte	0
 2917 004c 00       		.byte	0
 2918 004d 08       		.uleb128 0x8
 2919 004e 21       		.uleb128 0x21
 2920 004f 00       		.byte	0
 2921 0050 49       		.uleb128 0x49
 2922 0051 13       		.uleb128 0x13
 2923 0052 2F       		.uleb128 0x2f
 2924 0053 0B       		.uleb128 0xb
 2925 0054 00       		.byte	0
 2926 0055 00       		.byte	0
 2927 0056 09       		.uleb128 0x9
 2928 0057 13       		.uleb128 0x13
 2929 0058 01       		.byte	0x1
 2930 0059 0B       		.uleb128 0xb
 2931 005a 0B       		.uleb128 0xb
 2932 005b 3A       		.uleb128 0x3a
 2933 005c 0B       		.uleb128 0xb
 2934 005d 3B       		.uleb128 0x3b
 2935 005e 05       		.uleb128 0x5
 2936 005f 01       		.uleb128 0x1
 2937 0060 13       		.uleb128 0x13
 2938 0061 00       		.byte	0
 2939 0062 00       		.byte	0
 2940 0063 0A       		.uleb128 0xa
 2941 0064 0D       		.uleb128 0xd
 2942 0065 00       		.byte	0
 2943 0066 03       		.uleb128 0x3
 2944 0067 08       		.uleb128 0x8
 2945 0068 3A       		.uleb128 0x3a
 2946 0069 0B       		.uleb128 0xb
 2947 006a 3B       		.uleb128 0x3b
 2948 006b 05       		.uleb128 0x5
 2949 006c 49       		.uleb128 0x49
 2950 006d 13       		.uleb128 0x13
 2951 006e 38       		.uleb128 0x38
 2952 006f 0B       		.uleb128 0xb
 2953 0070 00       		.byte	0
 2954 0071 00       		.byte	0
 2955 0072 0B       		.uleb128 0xb
 2956 0073 0D       		.uleb128 0xd
ARM GAS  C:\Users\ADMINI~1\AppData\Local\Temp\ccAZ8Fmz.s 			page 53


 2957 0074 00       		.byte	0
 2958 0075 03       		.uleb128 0x3
 2959 0076 0E       		.uleb128 0xe
 2960 0077 3A       		.uleb128 0x3a
 2961 0078 0B       		.uleb128 0xb
 2962 0079 3B       		.uleb128 0x3b
 2963 007a 05       		.uleb128 0x5
 2964 007b 49       		.uleb128 0x49
 2965 007c 13       		.uleb128 0x13
 2966 007d 38       		.uleb128 0x38
 2967 007e 0B       		.uleb128 0xb
 2968 007f 00       		.byte	0
 2969 0080 00       		.byte	0
 2970 0081 0C       		.uleb128 0xc
 2971 0082 16       		.uleb128 0x16
 2972 0083 00       		.byte	0
 2973 0084 03       		.uleb128 0x3
 2974 0085 0E       		.uleb128 0xe
 2975 0086 3A       		.uleb128 0x3a
 2976 0087 0B       		.uleb128 0xb
 2977 0088 3B       		.uleb128 0x3b
 2978 0089 05       		.uleb128 0x5
 2979 008a 49       		.uleb128 0x49
 2980 008b 13       		.uleb128 0x13
 2981 008c 00       		.byte	0
 2982 008d 00       		.byte	0
 2983 008e 0D       		.uleb128 0xd
 2984 008f 13       		.uleb128 0x13
 2985 0090 01       		.byte	0x1
 2986 0091 0B       		.uleb128 0xb
 2987 0092 0B       		.uleb128 0xb
 2988 0093 3A       		.uleb128 0x3a
 2989 0094 0B       		.uleb128 0xb
 2990 0095 3B       		.uleb128 0x3b
 2991 0096 0B       		.uleb128 0xb
 2992 0097 01       		.uleb128 0x1
 2993 0098 13       		.uleb128 0x13
 2994 0099 00       		.byte	0
 2995 009a 00       		.byte	0
 2996 009b 0E       		.uleb128 0xe
 2997 009c 0D       		.uleb128 0xd
 2998 009d 00       		.byte	0
 2999 009e 03       		.uleb128 0x3
 3000 009f 0E       		.uleb128 0xe
 3001 00a0 3A       		.uleb128 0x3a
 3002 00a1 0B       		.uleb128 0xb
 3003 00a2 3B       		.uleb128 0x3b
 3004 00a3 0B       		.uleb128 0xb
 3005 00a4 49       		.uleb128 0x49
 3006 00a5 13       		.uleb128 0x13
 3007 00a6 38       		.uleb128 0x38
 3008 00a7 0B       		.uleb128 0xb
 3009 00a8 00       		.byte	0
 3010 00a9 00       		.byte	0
 3011 00aa 0F       		.uleb128 0xf
 3012 00ab 0F       		.uleb128 0xf
 3013 00ac 00       		.byte	0
ARM GAS  C:\Users\ADMINI~1\AppData\Local\Temp\ccAZ8Fmz.s 			page 54


 3014 00ad 0B       		.uleb128 0xb
 3015 00ae 0B       		.uleb128 0xb
 3016 00af 49       		.uleb128 0x49
 3017 00b0 13       		.uleb128 0x13
 3018 00b1 00       		.byte	0
 3019 00b2 00       		.byte	0
 3020 00b3 10       		.uleb128 0x10
 3021 00b4 15       		.uleb128 0x15
 3022 00b5 01       		.byte	0x1
 3023 00b6 27       		.uleb128 0x27
 3024 00b7 19       		.uleb128 0x19
 3025 00b8 01       		.uleb128 0x1
 3026 00b9 13       		.uleb128 0x13
 3027 00ba 00       		.byte	0
 3028 00bb 00       		.byte	0
 3029 00bc 11       		.uleb128 0x11
 3030 00bd 05       		.uleb128 0x5
 3031 00be 00       		.byte	0
 3032 00bf 49       		.uleb128 0x49
 3033 00c0 13       		.uleb128 0x13
 3034 00c1 00       		.byte	0
 3035 00c2 00       		.byte	0
 3036 00c3 12       		.uleb128 0x12
 3037 00c4 26       		.uleb128 0x26
 3038 00c5 00       		.byte	0
 3039 00c6 49       		.uleb128 0x49
 3040 00c7 13       		.uleb128 0x13
 3041 00c8 00       		.byte	0
 3042 00c9 00       		.byte	0
 3043 00ca 13       		.uleb128 0x13
 3044 00cb 04       		.uleb128 0x4
 3045 00cc 01       		.byte	0x1
 3046 00cd 0B       		.uleb128 0xb
 3047 00ce 0B       		.uleb128 0xb
 3048 00cf 3A       		.uleb128 0x3a
 3049 00d0 0B       		.uleb128 0xb
 3050 00d1 3B       		.uleb128 0x3b
 3051 00d2 0B       		.uleb128 0xb
 3052 00d3 01       		.uleb128 0x1
 3053 00d4 13       		.uleb128 0x13
 3054 00d5 00       		.byte	0
 3055 00d6 00       		.byte	0
 3056 00d7 14       		.uleb128 0x14
 3057 00d8 28       		.uleb128 0x28
 3058 00d9 00       		.byte	0
 3059 00da 03       		.uleb128 0x3
 3060 00db 0E       		.uleb128 0xe
 3061 00dc 1C       		.uleb128 0x1c
 3062 00dd 0D       		.uleb128 0xd
 3063 00de 00       		.byte	0
 3064 00df 00       		.byte	0
 3065 00e0 15       		.uleb128 0x15
 3066 00e1 13       		.uleb128 0x13
 3067 00e2 01       		.byte	0x1
 3068 00e3 03       		.uleb128 0x3
 3069 00e4 0E       		.uleb128 0xe
 3070 00e5 0B       		.uleb128 0xb
ARM GAS  C:\Users\ADMINI~1\AppData\Local\Temp\ccAZ8Fmz.s 			page 55


 3071 00e6 0B       		.uleb128 0xb
 3072 00e7 3A       		.uleb128 0x3a
 3073 00e8 0B       		.uleb128 0xb
 3074 00e9 3B       		.uleb128 0x3b
 3075 00ea 05       		.uleb128 0x5
 3076 00eb 01       		.uleb128 0x1
 3077 00ec 13       		.uleb128 0x13
 3078 00ed 00       		.byte	0
 3079 00ee 00       		.byte	0
 3080 00ef 16       		.uleb128 0x16
 3081 00f0 2E       		.uleb128 0x2e
 3082 00f1 01       		.byte	0x1
 3083 00f2 03       		.uleb128 0x3
 3084 00f3 0E       		.uleb128 0xe
 3085 00f4 3A       		.uleb128 0x3a
 3086 00f5 0B       		.uleb128 0xb
 3087 00f6 3B       		.uleb128 0x3b
 3088 00f7 0B       		.uleb128 0xb
 3089 00f8 27       		.uleb128 0x27
 3090 00f9 19       		.uleb128 0x19
 3091 00fa 20       		.uleb128 0x20
 3092 00fb 0B       		.uleb128 0xb
 3093 00fc 01       		.uleb128 0x1
 3094 00fd 13       		.uleb128 0x13
 3095 00fe 00       		.byte	0
 3096 00ff 00       		.byte	0
 3097 0100 17       		.uleb128 0x17
 3098 0101 05       		.uleb128 0x5
 3099 0102 00       		.byte	0
 3100 0103 03       		.uleb128 0x3
 3101 0104 0E       		.uleb128 0xe
 3102 0105 3A       		.uleb128 0x3a
 3103 0106 0B       		.uleb128 0xb
 3104 0107 3B       		.uleb128 0x3b
 3105 0108 0B       		.uleb128 0xb
 3106 0109 49       		.uleb128 0x49
 3107 010a 13       		.uleb128 0x13
 3108 010b 00       		.byte	0
 3109 010c 00       		.byte	0
 3110 010d 18       		.uleb128 0x18
 3111 010e 34       		.uleb128 0x34
 3112 010f 00       		.byte	0
 3113 0110 03       		.uleb128 0x3
 3114 0111 0E       		.uleb128 0xe
 3115 0112 3A       		.uleb128 0x3a
 3116 0113 0B       		.uleb128 0xb
 3117 0114 3B       		.uleb128 0x3b
 3118 0115 0B       		.uleb128 0xb
 3119 0116 49       		.uleb128 0x49
 3120 0117 13       		.uleb128 0x13
 3121 0118 00       		.byte	0
 3122 0119 00       		.byte	0
 3123 011a 19       		.uleb128 0x19
 3124 011b 2E       		.uleb128 0x2e
 3125 011c 01       		.byte	0x1
 3126 011d 03       		.uleb128 0x3
 3127 011e 0E       		.uleb128 0xe
ARM GAS  C:\Users\ADMINI~1\AppData\Local\Temp\ccAZ8Fmz.s 			page 56


 3128 011f 3A       		.uleb128 0x3a
 3129 0120 0B       		.uleb128 0xb
 3130 0121 3B       		.uleb128 0x3b
 3131 0122 0B       		.uleb128 0xb
 3132 0123 27       		.uleb128 0x27
 3133 0124 19       		.uleb128 0x19
 3134 0125 11       		.uleb128 0x11
 3135 0126 01       		.uleb128 0x1
 3136 0127 12       		.uleb128 0x12
 3137 0128 06       		.uleb128 0x6
 3138 0129 40       		.uleb128 0x40
 3139 012a 18       		.uleb128 0x18
 3140 012b 9742     		.uleb128 0x2117
 3141 012d 19       		.uleb128 0x19
 3142 012e 01       		.uleb128 0x1
 3143 012f 13       		.uleb128 0x13
 3144 0130 00       		.byte	0
 3145 0131 00       		.byte	0
 3146 0132 1A       		.uleb128 0x1a
 3147 0133 05       		.uleb128 0x5
 3148 0134 00       		.byte	0
 3149 0135 03       		.uleb128 0x3
 3150 0136 0E       		.uleb128 0xe
 3151 0137 3A       		.uleb128 0x3a
 3152 0138 0B       		.uleb128 0xb
 3153 0139 3B       		.uleb128 0x3b
 3154 013a 0B       		.uleb128 0xb
 3155 013b 49       		.uleb128 0x49
 3156 013c 13       		.uleb128 0x13
 3157 013d 02       		.uleb128 0x2
 3158 013e 17       		.uleb128 0x17
 3159 013f 00       		.byte	0
 3160 0140 00       		.byte	0
 3161 0141 1B       		.uleb128 0x1b
 3162 0142 2E       		.uleb128 0x2e
 3163 0143 01       		.byte	0x1
 3164 0144 03       		.uleb128 0x3
 3165 0145 0E       		.uleb128 0xe
 3166 0146 3A       		.uleb128 0x3a
 3167 0147 0B       		.uleb128 0xb
 3168 0148 3B       		.uleb128 0x3b
 3169 0149 0B       		.uleb128 0xb
 3170 014a 27       		.uleb128 0x27
 3171 014b 19       		.uleb128 0x19
 3172 014c 49       		.uleb128 0x49
 3173 014d 13       		.uleb128 0x13
 3174 014e 20       		.uleb128 0x20
 3175 014f 0B       		.uleb128 0xb
 3176 0150 01       		.uleb128 0x1
 3177 0151 13       		.uleb128 0x13
 3178 0152 00       		.byte	0
 3179 0153 00       		.byte	0
 3180 0154 1C       		.uleb128 0x1c
 3181 0155 05       		.uleb128 0x5
 3182 0156 00       		.byte	0
 3183 0157 03       		.uleb128 0x3
 3184 0158 08       		.uleb128 0x8
ARM GAS  C:\Users\ADMINI~1\AppData\Local\Temp\ccAZ8Fmz.s 			page 57


 3185 0159 3A       		.uleb128 0x3a
 3186 015a 0B       		.uleb128 0xb
 3187 015b 3B       		.uleb128 0x3b
 3188 015c 0B       		.uleb128 0xb
 3189 015d 49       		.uleb128 0x49
 3190 015e 13       		.uleb128 0x13
 3191 015f 00       		.byte	0
 3192 0160 00       		.byte	0
 3193 0161 1D       		.uleb128 0x1d
 3194 0162 34       		.uleb128 0x34
 3195 0163 00       		.byte	0
 3196 0164 03       		.uleb128 0x3
 3197 0165 08       		.uleb128 0x8
 3198 0166 3A       		.uleb128 0x3a
 3199 0167 0B       		.uleb128 0xb
 3200 0168 3B       		.uleb128 0x3b
 3201 0169 0B       		.uleb128 0xb
 3202 016a 49       		.uleb128 0x49
 3203 016b 13       		.uleb128 0x13
 3204 016c 00       		.byte	0
 3205 016d 00       		.byte	0
 3206 016e 1E       		.uleb128 0x1e
 3207 016f 2E       		.uleb128 0x2e
 3208 0170 01       		.byte	0x1
 3209 0171 03       		.uleb128 0x3
 3210 0172 0E       		.uleb128 0xe
 3211 0173 3A       		.uleb128 0x3a
 3212 0174 0B       		.uleb128 0xb
 3213 0175 3B       		.uleb128 0x3b
 3214 0176 05       		.uleb128 0x5
 3215 0177 27       		.uleb128 0x27
 3216 0178 19       		.uleb128 0x19
 3217 0179 11       		.uleb128 0x11
 3218 017a 01       		.uleb128 0x1
 3219 017b 12       		.uleb128 0x12
 3220 017c 06       		.uleb128 0x6
 3221 017d 40       		.uleb128 0x40
 3222 017e 18       		.uleb128 0x18
 3223 017f 9742     		.uleb128 0x2117
 3224 0181 19       		.uleb128 0x19
 3225 0182 01       		.uleb128 0x1
 3226 0183 13       		.uleb128 0x13
 3227 0184 00       		.byte	0
 3228 0185 00       		.byte	0
 3229 0186 1F       		.uleb128 0x1f
 3230 0187 05       		.uleb128 0x5
 3231 0188 00       		.byte	0
 3232 0189 03       		.uleb128 0x3
 3233 018a 0E       		.uleb128 0xe
 3234 018b 3A       		.uleb128 0x3a
 3235 018c 0B       		.uleb128 0xb
 3236 018d 3B       		.uleb128 0x3b
 3237 018e 05       		.uleb128 0x5
 3238 018f 49       		.uleb128 0x49
 3239 0190 13       		.uleb128 0x13
 3240 0191 02       		.uleb128 0x2
 3241 0192 17       		.uleb128 0x17
ARM GAS  C:\Users\ADMINI~1\AppData\Local\Temp\ccAZ8Fmz.s 			page 58


 3242 0193 00       		.byte	0
 3243 0194 00       		.byte	0
 3244 0195 20       		.uleb128 0x20
 3245 0196 34       		.uleb128 0x34
 3246 0197 00       		.byte	0
 3247 0198 03       		.uleb128 0x3
 3248 0199 08       		.uleb128 0x8
 3249 019a 3A       		.uleb128 0x3a
 3250 019b 0B       		.uleb128 0xb
 3251 019c 3B       		.uleb128 0x3b
 3252 019d 05       		.uleb128 0x5
 3253 019e 49       		.uleb128 0x49
 3254 019f 13       		.uleb128 0x13
 3255 01a0 02       		.uleb128 0x2
 3256 01a1 17       		.uleb128 0x17
 3257 01a2 00       		.byte	0
 3258 01a3 00       		.byte	0
 3259 01a4 21       		.uleb128 0x21
 3260 01a5 1D       		.uleb128 0x1d
 3261 01a6 01       		.byte	0x1
 3262 01a7 31       		.uleb128 0x31
 3263 01a8 13       		.uleb128 0x13
 3264 01a9 11       		.uleb128 0x11
 3265 01aa 01       		.uleb128 0x1
 3266 01ab 12       		.uleb128 0x12
 3267 01ac 06       		.uleb128 0x6
 3268 01ad 58       		.uleb128 0x58
 3269 01ae 0B       		.uleb128 0xb
 3270 01af 59       		.uleb128 0x59
 3271 01b0 05       		.uleb128 0x5
 3272 01b1 01       		.uleb128 0x1
 3273 01b2 13       		.uleb128 0x13
 3274 01b3 00       		.byte	0
 3275 01b4 00       		.byte	0
 3276 01b5 22       		.uleb128 0x22
 3277 01b6 05       		.uleb128 0x5
 3278 01b7 00       		.byte	0
 3279 01b8 31       		.uleb128 0x31
 3280 01b9 13       		.uleb128 0x13
 3281 01ba 02       		.uleb128 0x2
 3282 01bb 17       		.uleb128 0x17
 3283 01bc 00       		.byte	0
 3284 01bd 00       		.byte	0
 3285 01be 23       		.uleb128 0x23
 3286 01bf 0B       		.uleb128 0xb
 3287 01c0 01       		.byte	0x1
 3288 01c1 11       		.uleb128 0x11
 3289 01c2 01       		.uleb128 0x1
 3290 01c3 12       		.uleb128 0x12
 3291 01c4 06       		.uleb128 0x6
 3292 01c5 00       		.byte	0
 3293 01c6 00       		.byte	0
 3294 01c7 24       		.uleb128 0x24
 3295 01c8 34       		.uleb128 0x34
 3296 01c9 00       		.byte	0
 3297 01ca 31       		.uleb128 0x31
 3298 01cb 13       		.uleb128 0x13
ARM GAS  C:\Users\ADMINI~1\AppData\Local\Temp\ccAZ8Fmz.s 			page 59


 3299 01cc 02       		.uleb128 0x2
 3300 01cd 17       		.uleb128 0x17
 3301 01ce 00       		.byte	0
 3302 01cf 00       		.byte	0
 3303 01d0 25       		.uleb128 0x25
 3304 01d1 898201   		.uleb128 0x4109
 3305 01d4 01       		.byte	0x1
 3306 01d5 11       		.uleb128 0x11
 3307 01d6 01       		.uleb128 0x1
 3308 01d7 01       		.uleb128 0x1
 3309 01d8 13       		.uleb128 0x13
 3310 01d9 00       		.byte	0
 3311 01da 00       		.byte	0
 3312 01db 26       		.uleb128 0x26
 3313 01dc 8A8201   		.uleb128 0x410a
 3314 01df 00       		.byte	0
 3315 01e0 02       		.uleb128 0x2
 3316 01e1 18       		.uleb128 0x18
 3317 01e2 9142     		.uleb128 0x2111
 3318 01e4 18       		.uleb128 0x18
 3319 01e5 00       		.byte	0
 3320 01e6 00       		.byte	0
 3321 01e7 27       		.uleb128 0x27
 3322 01e8 898201   		.uleb128 0x4109
 3323 01eb 01       		.byte	0x1
 3324 01ec 11       		.uleb128 0x11
 3325 01ed 01       		.uleb128 0x1
 3326 01ee 9542     		.uleb128 0x2115
 3327 01f0 19       		.uleb128 0x19
 3328 01f1 00       		.byte	0
 3329 01f2 00       		.byte	0
 3330 01f3 28       		.uleb128 0x28
 3331 01f4 898201   		.uleb128 0x4109
 3332 01f7 00       		.byte	0
 3333 01f8 11       		.uleb128 0x11
 3334 01f9 01       		.uleb128 0x1
 3335 01fa 31       		.uleb128 0x31
 3336 01fb 13       		.uleb128 0x13
 3337 01fc 00       		.byte	0
 3338 01fd 00       		.byte	0
 3339 01fe 29       		.uleb128 0x29
 3340 01ff 2E       		.uleb128 0x2e
 3341 0200 01       		.byte	0x1
 3342 0201 31       		.uleb128 0x31
 3343 0202 13       		.uleb128 0x13
 3344 0203 11       		.uleb128 0x11
 3345 0204 01       		.uleb128 0x1
 3346 0205 12       		.uleb128 0x12
 3347 0206 06       		.uleb128 0x6
 3348 0207 40       		.uleb128 0x40
 3349 0208 18       		.uleb128 0x18
 3350 0209 9742     		.uleb128 0x2117
 3351 020b 19       		.uleb128 0x19
 3352 020c 01       		.uleb128 0x1
 3353 020d 13       		.uleb128 0x13
 3354 020e 00       		.byte	0
 3355 020f 00       		.byte	0
ARM GAS  C:\Users\ADMINI~1\AppData\Local\Temp\ccAZ8Fmz.s 			page 60


 3356 0210 2A       		.uleb128 0x2a
 3357 0211 0B       		.uleb128 0xb
 3358 0212 01       		.byte	0x1
 3359 0213 11       		.uleb128 0x11
 3360 0214 01       		.uleb128 0x1
 3361 0215 12       		.uleb128 0x12
 3362 0216 06       		.uleb128 0x6
 3363 0217 01       		.uleb128 0x1
 3364 0218 13       		.uleb128 0x13
 3365 0219 00       		.byte	0
 3366 021a 00       		.byte	0
 3367 021b 2B       		.uleb128 0x2b
 3368 021c 1D       		.uleb128 0x1d
 3369 021d 01       		.byte	0x1
 3370 021e 31       		.uleb128 0x31
 3371 021f 13       		.uleb128 0x13
 3372 0220 52       		.uleb128 0x52
 3373 0221 01       		.uleb128 0x1
 3374 0222 55       		.uleb128 0x55
 3375 0223 17       		.uleb128 0x17
 3376 0224 58       		.uleb128 0x58
 3377 0225 0B       		.uleb128 0xb
 3378 0226 59       		.uleb128 0x59
 3379 0227 05       		.uleb128 0x5
 3380 0228 01       		.uleb128 0x1
 3381 0229 13       		.uleb128 0x13
 3382 022a 00       		.byte	0
 3383 022b 00       		.byte	0
 3384 022c 2C       		.uleb128 0x2c
 3385 022d 0B       		.uleb128 0xb
 3386 022e 01       		.byte	0x1
 3387 022f 55       		.uleb128 0x55
 3388 0230 17       		.uleb128 0x17
 3389 0231 00       		.byte	0
 3390 0232 00       		.byte	0
 3391 0233 2D       		.uleb128 0x2d
 3392 0234 34       		.uleb128 0x34
 3393 0235 00       		.byte	0
 3394 0236 31       		.uleb128 0x31
 3395 0237 13       		.uleb128 0x13
 3396 0238 00       		.byte	0
 3397 0239 00       		.byte	0
 3398 023a 2E       		.uleb128 0x2e
 3399 023b 898201   		.uleb128 0x4109
 3400 023e 01       		.byte	0x1
 3401 023f 11       		.uleb128 0x11
 3402 0240 01       		.uleb128 0x1
 3403 0241 00       		.byte	0
 3404 0242 00       		.byte	0
 3405 0243 2F       		.uleb128 0x2f
 3406 0244 898201   		.uleb128 0x4109
 3407 0247 01       		.byte	0x1
 3408 0248 11       		.uleb128 0x11
 3409 0249 01       		.uleb128 0x1
 3410 024a 9542     		.uleb128 0x2115
 3411 024c 19       		.uleb128 0x19
 3412 024d 01       		.uleb128 0x1
ARM GAS  C:\Users\ADMINI~1\AppData\Local\Temp\ccAZ8Fmz.s 			page 61


 3413 024e 13       		.uleb128 0x13
 3414 024f 00       		.byte	0
 3415 0250 00       		.byte	0
 3416 0251 30       		.uleb128 0x30
 3417 0252 2E       		.uleb128 0x2e
 3418 0253 01       		.byte	0x1
 3419 0254 3F       		.uleb128 0x3f
 3420 0255 19       		.uleb128 0x19
 3421 0256 03       		.uleb128 0x3
 3422 0257 0E       		.uleb128 0xe
 3423 0258 3A       		.uleb128 0x3a
 3424 0259 0B       		.uleb128 0xb
 3425 025a 3B       		.uleb128 0x3b
 3426 025b 05       		.uleb128 0x5
 3427 025c 27       		.uleb128 0x27
 3428 025d 19       		.uleb128 0x19
 3429 025e 11       		.uleb128 0x11
 3430 025f 01       		.uleb128 0x1
 3431 0260 12       		.uleb128 0x12
 3432 0261 06       		.uleb128 0x6
 3433 0262 40       		.uleb128 0x40
 3434 0263 18       		.uleb128 0x18
 3435 0264 9742     		.uleb128 0x2117
 3436 0266 19       		.uleb128 0x19
 3437 0267 01       		.uleb128 0x1
 3438 0268 13       		.uleb128 0x13
 3439 0269 00       		.byte	0
 3440 026a 00       		.byte	0
 3441 026b 31       		.uleb128 0x31
 3442 026c 898201   		.uleb128 0x4109
 3443 026f 01       		.byte	0x1
 3444 0270 11       		.uleb128 0x11
 3445 0271 01       		.uleb128 0x1
 3446 0272 31       		.uleb128 0x31
 3447 0273 13       		.uleb128 0x13
 3448 0274 01       		.uleb128 0x1
 3449 0275 13       		.uleb128 0x13
 3450 0276 00       		.byte	0
 3451 0277 00       		.byte	0
 3452 0278 32       		.uleb128 0x32
 3453 0279 898201   		.uleb128 0x4109
 3454 027c 00       		.byte	0
 3455 027d 11       		.uleb128 0x11
 3456 027e 01       		.uleb128 0x1
 3457 027f 9542     		.uleb128 0x2115
 3458 0281 19       		.uleb128 0x19
 3459 0282 31       		.uleb128 0x31
 3460 0283 13       		.uleb128 0x13
 3461 0284 00       		.byte	0
 3462 0285 00       		.byte	0
 3463 0286 33       		.uleb128 0x33
 3464 0287 898201   		.uleb128 0x4109
 3465 028a 01       		.byte	0x1
 3466 028b 11       		.uleb128 0x11
 3467 028c 01       		.uleb128 0x1
 3468 028d 31       		.uleb128 0x31
 3469 028e 13       		.uleb128 0x13
ARM GAS  C:\Users\ADMINI~1\AppData\Local\Temp\ccAZ8Fmz.s 			page 62


 3470 028f 00       		.byte	0
 3471 0290 00       		.byte	0
 3472 0291 34       		.uleb128 0x34
 3473 0292 1D       		.uleb128 0x1d
 3474 0293 01       		.byte	0x1
 3475 0294 31       		.uleb128 0x31
 3476 0295 13       		.uleb128 0x13
 3477 0296 52       		.uleb128 0x52
 3478 0297 01       		.uleb128 0x1
 3479 0298 55       		.uleb128 0x55
 3480 0299 17       		.uleb128 0x17
 3481 029a 58       		.uleb128 0x58
 3482 029b 0B       		.uleb128 0xb
 3483 029c 59       		.uleb128 0x59
 3484 029d 0B       		.uleb128 0xb
 3485 029e 01       		.uleb128 0x1
 3486 029f 13       		.uleb128 0x13
 3487 02a0 00       		.byte	0
 3488 02a1 00       		.byte	0
 3489 02a2 35       		.uleb128 0x35
 3490 02a3 34       		.uleb128 0x34
 3491 02a4 00       		.byte	0
 3492 02a5 03       		.uleb128 0x3
 3493 02a6 08       		.uleb128 0x8
 3494 02a7 3A       		.uleb128 0x3a
 3495 02a8 0B       		.uleb128 0xb
 3496 02a9 3B       		.uleb128 0x3b
 3497 02aa 05       		.uleb128 0x5
 3498 02ab 49       		.uleb128 0x49
 3499 02ac 13       		.uleb128 0x13
 3500 02ad 00       		.byte	0
 3501 02ae 00       		.byte	0
 3502 02af 36       		.uleb128 0x36
 3503 02b0 05       		.uleb128 0x5
 3504 02b1 00       		.byte	0
 3505 02b2 03       		.uleb128 0x3
 3506 02b3 08       		.uleb128 0x8
 3507 02b4 3A       		.uleb128 0x3a
 3508 02b5 0B       		.uleb128 0xb
 3509 02b6 3B       		.uleb128 0x3b
 3510 02b7 05       		.uleb128 0x5
 3511 02b8 49       		.uleb128 0x49
 3512 02b9 13       		.uleb128 0x13
 3513 02ba 02       		.uleb128 0x2
 3514 02bb 18       		.uleb128 0x18
 3515 02bc 00       		.byte	0
 3516 02bd 00       		.byte	0
 3517 02be 37       		.uleb128 0x37
 3518 02bf 26       		.uleb128 0x26
 3519 02c0 00       		.byte	0
 3520 02c1 00       		.byte	0
 3521 02c2 00       		.byte	0
 3522 02c3 38       		.uleb128 0x38
 3523 02c4 2E       		.uleb128 0x2e
 3524 02c5 01       		.byte	0x1
 3525 02c6 3F       		.uleb128 0x3f
 3526 02c7 19       		.uleb128 0x19
ARM GAS  C:\Users\ADMINI~1\AppData\Local\Temp\ccAZ8Fmz.s 			page 63


 3527 02c8 03       		.uleb128 0x3
 3528 02c9 0E       		.uleb128 0xe
 3529 02ca 3A       		.uleb128 0x3a
 3530 02cb 0B       		.uleb128 0xb
 3531 02cc 3B       		.uleb128 0x3b
 3532 02cd 05       		.uleb128 0x5
 3533 02ce 27       		.uleb128 0x27
 3534 02cf 19       		.uleb128 0x19
 3535 02d0 49       		.uleb128 0x49
 3536 02d1 13       		.uleb128 0x13
 3537 02d2 11       		.uleb128 0x11
 3538 02d3 01       		.uleb128 0x1
 3539 02d4 12       		.uleb128 0x12
 3540 02d5 06       		.uleb128 0x6
 3541 02d6 40       		.uleb128 0x40
 3542 02d7 18       		.uleb128 0x18
 3543 02d8 9742     		.uleb128 0x2117
 3544 02da 19       		.uleb128 0x19
 3545 02db 01       		.uleb128 0x1
 3546 02dc 13       		.uleb128 0x13
 3547 02dd 00       		.byte	0
 3548 02de 00       		.byte	0
 3549 02df 39       		.uleb128 0x39
 3550 02e0 05       		.uleb128 0x5
 3551 02e1 00       		.byte	0
 3552 02e2 03       		.uleb128 0x3
 3553 02e3 0E       		.uleb128 0xe
 3554 02e4 3A       		.uleb128 0x3a
 3555 02e5 0B       		.uleb128 0xb
 3556 02e6 3B       		.uleb128 0x3b
 3557 02e7 05       		.uleb128 0x5
 3558 02e8 49       		.uleb128 0x49
 3559 02e9 13       		.uleb128 0x13
 3560 02ea 02       		.uleb128 0x2
 3561 02eb 18       		.uleb128 0x18
 3562 02ec 00       		.byte	0
 3563 02ed 00       		.byte	0
 3564 02ee 3A       		.uleb128 0x3a
 3565 02ef 34       		.uleb128 0x34
 3566 02f0 00       		.byte	0
 3567 02f1 03       		.uleb128 0x3
 3568 02f2 08       		.uleb128 0x8
 3569 02f3 3A       		.uleb128 0x3a
 3570 02f4 0B       		.uleb128 0xb
 3571 02f5 3B       		.uleb128 0x3b
 3572 02f6 05       		.uleb128 0x5
 3573 02f7 49       		.uleb128 0x49
 3574 02f8 13       		.uleb128 0x13
 3575 02f9 02       		.uleb128 0x2
 3576 02fa 18       		.uleb128 0x18
 3577 02fb 00       		.byte	0
 3578 02fc 00       		.byte	0
 3579 02fd 3B       		.uleb128 0x3b
 3580 02fe 1D       		.uleb128 0x1d
 3581 02ff 01       		.byte	0x1
 3582 0300 31       		.uleb128 0x31
 3583 0301 13       		.uleb128 0x13
ARM GAS  C:\Users\ADMINI~1\AppData\Local\Temp\ccAZ8Fmz.s 			page 64


 3584 0302 52       		.uleb128 0x52
 3585 0303 01       		.uleb128 0x1
 3586 0304 55       		.uleb128 0x55
 3587 0305 17       		.uleb128 0x17
 3588 0306 58       		.uleb128 0x58
 3589 0307 0B       		.uleb128 0xb
 3590 0308 59       		.uleb128 0x59
 3591 0309 05       		.uleb128 0x5
 3592 030a 00       		.byte	0
 3593 030b 00       		.byte	0
 3594 030c 3C       		.uleb128 0x3c
 3595 030d 34       		.uleb128 0x34
 3596 030e 00       		.byte	0
 3597 030f 03       		.uleb128 0x3
 3598 0310 0E       		.uleb128 0xe
 3599 0311 3A       		.uleb128 0x3a
 3600 0312 0B       		.uleb128 0xb
 3601 0313 3B       		.uleb128 0x3b
 3602 0314 05       		.uleb128 0x5
 3603 0315 49       		.uleb128 0x49
 3604 0316 13       		.uleb128 0x13
 3605 0317 3F       		.uleb128 0x3f
 3606 0318 19       		.uleb128 0x19
 3607 0319 3C       		.uleb128 0x3c
 3608 031a 19       		.uleb128 0x19
 3609 031b 00       		.byte	0
 3610 031c 00       		.byte	0
 3611 031d 3D       		.uleb128 0x3d
 3612 031e 34       		.uleb128 0x34
 3613 031f 00       		.byte	0
 3614 0320 03       		.uleb128 0x3
 3615 0321 0E       		.uleb128 0xe
 3616 0322 3A       		.uleb128 0x3a
 3617 0323 0B       		.uleb128 0xb
 3618 0324 3B       		.uleb128 0x3b
 3619 0325 0B       		.uleb128 0xb
 3620 0326 49       		.uleb128 0x49
 3621 0327 13       		.uleb128 0x13
 3622 0328 3F       		.uleb128 0x3f
 3623 0329 19       		.uleb128 0x19
 3624 032a 02       		.uleb128 0x2
 3625 032b 18       		.uleb128 0x18
 3626 032c 00       		.byte	0
 3627 032d 00       		.byte	0
 3628 032e 3E       		.uleb128 0x3e
 3629 032f 2E       		.uleb128 0x2e
 3630 0330 00       		.byte	0
 3631 0331 3F       		.uleb128 0x3f
 3632 0332 19       		.uleb128 0x19
 3633 0333 03       		.uleb128 0x3
 3634 0334 0E       		.uleb128 0xe
 3635 0335 3A       		.uleb128 0x3a
 3636 0336 0B       		.uleb128 0xb
 3637 0337 3B       		.uleb128 0x3b
 3638 0338 05       		.uleb128 0x5
 3639 0339 27       		.uleb128 0x27
 3640 033a 19       		.uleb128 0x19
ARM GAS  C:\Users\ADMINI~1\AppData\Local\Temp\ccAZ8Fmz.s 			page 65


 3641 033b 3C       		.uleb128 0x3c
 3642 033c 19       		.uleb128 0x19
 3643 033d 00       		.byte	0
 3644 033e 00       		.byte	0
 3645 033f 3F       		.uleb128 0x3f
 3646 0340 2E       		.uleb128 0x2e
 3647 0341 01       		.byte	0x1
 3648 0342 3F       		.uleb128 0x3f
 3649 0343 19       		.uleb128 0x19
 3650 0344 03       		.uleb128 0x3
 3651 0345 0E       		.uleb128 0xe
 3652 0346 3A       		.uleb128 0x3a
 3653 0347 0B       		.uleb128 0xb
 3654 0348 3B       		.uleb128 0x3b
 3655 0349 0B       		.uleb128 0xb
 3656 034a 27       		.uleb128 0x27
 3657 034b 19       		.uleb128 0x19
 3658 034c 3C       		.uleb128 0x3c
 3659 034d 19       		.uleb128 0x19
 3660 034e 01       		.uleb128 0x1
 3661 034f 13       		.uleb128 0x13
 3662 0350 00       		.byte	0
 3663 0351 00       		.byte	0
 3664 0352 40       		.uleb128 0x40
 3665 0353 2E       		.uleb128 0x2e
 3666 0354 01       		.byte	0x1
 3667 0355 3F       		.uleb128 0x3f
 3668 0356 19       		.uleb128 0x19
 3669 0357 03       		.uleb128 0x3
 3670 0358 0E       		.uleb128 0xe
 3671 0359 3A       		.uleb128 0x3a
 3672 035a 0B       		.uleb128 0xb
 3673 035b 3B       		.uleb128 0x3b
 3674 035c 05       		.uleb128 0x5
 3675 035d 27       		.uleb128 0x27
 3676 035e 19       		.uleb128 0x19
 3677 035f 49       		.uleb128 0x49
 3678 0360 13       		.uleb128 0x13
 3679 0361 3C       		.uleb128 0x3c
 3680 0362 19       		.uleb128 0x19
 3681 0363 01       		.uleb128 0x1
 3682 0364 13       		.uleb128 0x13
 3683 0365 00       		.byte	0
 3684 0366 00       		.byte	0
 3685 0367 41       		.uleb128 0x41
 3686 0368 2E       		.uleb128 0x2e
 3687 0369 01       		.byte	0x1
 3688 036a 3F       		.uleb128 0x3f
 3689 036b 19       		.uleb128 0x19
 3690 036c 03       		.uleb128 0x3
 3691 036d 0E       		.uleb128 0xe
 3692 036e 3A       		.uleb128 0x3a
 3693 036f 0B       		.uleb128 0xb
 3694 0370 3B       		.uleb128 0x3b
 3695 0371 05       		.uleb128 0x5
 3696 0372 27       		.uleb128 0x27
 3697 0373 19       		.uleb128 0x19
ARM GAS  C:\Users\ADMINI~1\AppData\Local\Temp\ccAZ8Fmz.s 			page 66


 3698 0374 3C       		.uleb128 0x3c
 3699 0375 19       		.uleb128 0x19
 3700 0376 01       		.uleb128 0x1
 3701 0377 13       		.uleb128 0x13
 3702 0378 00       		.byte	0
 3703 0379 00       		.byte	0
 3704 037a 42       		.uleb128 0x42
 3705 037b 2E       		.uleb128 0x2e
 3706 037c 01       		.byte	0x1
 3707 037d 3F       		.uleb128 0x3f
 3708 037e 19       		.uleb128 0x19
 3709 037f 03       		.uleb128 0x3
 3710 0380 0E       		.uleb128 0xe
 3711 0381 3A       		.uleb128 0x3a
 3712 0382 0B       		.uleb128 0xb
 3713 0383 3B       		.uleb128 0x3b
 3714 0384 05       		.uleb128 0x5
 3715 0385 27       		.uleb128 0x27
 3716 0386 19       		.uleb128 0x19
 3717 0387 3C       		.uleb128 0x3c
 3718 0388 19       		.uleb128 0x19
 3719 0389 00       		.byte	0
 3720 038a 00       		.byte	0
 3721 038b 00       		.byte	0
 3722              		.section	.debug_loc,"",%progbits
 3723              	.Ldebug_loc0:
 3724              	.LLST0:
 3725 0000 00000000 		.4byte	.LVL0
 3726 0004 38000000 		.4byte	.LVL1
 3727 0008 0100     		.2byte	0x1
 3728 000a 50       		.byte	0x50
 3729 000b 38000000 		.4byte	.LVL1
 3730 000f 48000000 		.4byte	.LFE120
 3731 0013 0400     		.2byte	0x4
 3732 0015 F3       		.byte	0xf3
 3733 0016 01       		.uleb128 0x1
 3734 0017 50       		.byte	0x50
 3735 0018 9F       		.byte	0x9f
 3736 0019 00000000 		.4byte	0
 3737 001d 00000000 		.4byte	0
 3738              	.LLST1:
 3739 0021 00000000 		.4byte	.LVL2
 3740 0025 2C000000 		.4byte	.LVL7
 3741 0029 0100     		.2byte	0x1
 3742 002b 50       		.byte	0x50
 3743 002c 2C000000 		.4byte	.LVL7
 3744 0030 64000000 		.4byte	.LVL13
 3745 0034 0100     		.2byte	0x1
 3746 0036 56       		.byte	0x56
 3747 0037 64000000 		.4byte	.LVL13
 3748 003b 65000000 		.4byte	.LVL14-1
 3749 003f 0100     		.2byte	0x1
 3750 0041 50       		.byte	0x50
 3751 0042 65000000 		.4byte	.LVL14-1
 3752 0046 66000000 		.4byte	.LVL14
 3753 004a 0400     		.2byte	0x4
 3754 004c F3       		.byte	0xf3
ARM GAS  C:\Users\ADMINI~1\AppData\Local\Temp\ccAZ8Fmz.s 			page 67


 3755 004d 01       		.uleb128 0x1
 3756 004e 50       		.byte	0x50
 3757 004f 9F       		.byte	0x9f
 3758 0050 66000000 		.4byte	.LVL14
 3759 0054 68000000 		.4byte	.LFE124
 3760 0058 0100     		.2byte	0x1
 3761 005a 56       		.byte	0x56
 3762 005b 00000000 		.4byte	0
 3763 005f 00000000 		.4byte	0
 3764              	.LLST2:
 3765 0063 0E000000 		.4byte	.LVL4
 3766 0067 64000000 		.4byte	.LVL13
 3767 006b 0100     		.2byte	0x1
 3768 006d 54       		.byte	0x54
 3769 006e 66000000 		.4byte	.LVL14
 3770 0072 68000000 		.4byte	.LFE124
 3771 0076 0100     		.2byte	0x1
 3772 0078 54       		.byte	0x54
 3773 0079 00000000 		.4byte	0
 3774 007d 00000000 		.4byte	0
 3775              	.LLST3:
 3776 0081 04000000 		.4byte	.LVL3
 3777 0085 64000000 		.4byte	.LVL13
 3778 0089 0100     		.2byte	0x1
 3779 008b 55       		.byte	0x55
 3780 008c 66000000 		.4byte	.LVL14
 3781 0090 68000000 		.4byte	.LFE124
 3782 0094 0100     		.2byte	0x1
 3783 0096 55       		.byte	0x55
 3784 0097 00000000 		.4byte	0
 3785 009b 00000000 		.4byte	0
 3786              	.LLST4:
 3787 009f 20000000 		.4byte	.LVL5
 3788 00a3 4E000000 		.4byte	.LVL12
 3789 00a7 0100     		.2byte	0x1
 3790 00a9 54       		.byte	0x54
 3791 00aa 00000000 		.4byte	0
 3792 00ae 00000000 		.4byte	0
 3793              	.LLST5:
 3794 00b2 20000000 		.4byte	.LVL5
 3795 00b6 2A000000 		.4byte	.LVL6
 3796 00ba 0200     		.2byte	0x2
 3797 00bc 30       		.byte	0x30
 3798 00bd 9F       		.byte	0x9f
 3799 00be 2A000000 		.4byte	.LVL6
 3800 00c2 4D000000 		.4byte	.LVL12-1
 3801 00c6 0100     		.2byte	0x1
 3802 00c8 51       		.byte	0x51
 3803 00c9 00000000 		.4byte	0
 3804 00cd 00000000 		.4byte	0
 3805              	.LLST6:
 3806 00d1 00000000 		.4byte	.LVL15
 3807 00d5 0A000000 		.4byte	.LVL16
 3808 00d9 0100     		.2byte	0x1
 3809 00db 50       		.byte	0x50
 3810 00dc 0A000000 		.4byte	.LVL16
 3811 00e0 42000000 		.4byte	.LVL19
ARM GAS  C:\Users\ADMINI~1\AppData\Local\Temp\ccAZ8Fmz.s 			page 68


 3812 00e4 0100     		.2byte	0x1
 3813 00e6 54       		.byte	0x54
 3814 00e7 42000000 		.4byte	.LVL19
 3815 00eb 45000000 		.4byte	.LVL20-1
 3816 00ef 0100     		.2byte	0x1
 3817 00f1 50       		.byte	0x50
 3818 00f2 45000000 		.4byte	.LVL20-1
 3819 00f6 48000000 		.4byte	.LFE123
 3820 00fa 0100     		.2byte	0x1
 3821 00fc 54       		.byte	0x54
 3822 00fd 00000000 		.4byte	0
 3823 0101 00000000 		.4byte	0
 3824              	.LLST7:
 3825 0105 00000000 		.4byte	.LVL15
 3826 0109 0A000000 		.4byte	.LVL16
 3827 010d 0100     		.2byte	0x1
 3828 010f 51       		.byte	0x51
 3829 0110 0A000000 		.4byte	.LVL16
 3830 0114 42000000 		.4byte	.LVL19
 3831 0118 0400     		.2byte	0x4
 3832 011a F3       		.byte	0xf3
 3833 011b 01       		.uleb128 0x1
 3834 011c 51       		.byte	0x51
 3835 011d 9F       		.byte	0x9f
 3836 011e 42000000 		.4byte	.LVL19
 3837 0122 45000000 		.4byte	.LVL20-1
 3838 0126 0100     		.2byte	0x1
 3839 0128 51       		.byte	0x51
 3840 0129 45000000 		.4byte	.LVL20-1
 3841 012d 48000000 		.4byte	.LFE123
 3842 0131 0400     		.2byte	0x4
 3843 0133 F3       		.byte	0xf3
 3844 0134 01       		.uleb128 0x1
 3845 0135 51       		.byte	0x51
 3846 0136 9F       		.byte	0x9f
 3847 0137 00000000 		.4byte	0
 3848 013b 00000000 		.4byte	0
 3849              	.LLST8:
 3850 013f 00000000 		.4byte	.LVL21
 3851 0143 0A000000 		.4byte	.LVL22
 3852 0147 0100     		.2byte	0x1
 3853 0149 50       		.byte	0x50
 3854 014a 0A000000 		.4byte	.LVL22
 3855 014e 20000000 		.4byte	.LVL23
 3856 0152 0100     		.2byte	0x1
 3857 0154 54       		.byte	0x54
 3858 0155 20000000 		.4byte	.LVL23
 3859 0159 21000000 		.4byte	.LVL24-1
 3860 015d 0100     		.2byte	0x1
 3861 015f 50       		.byte	0x50
 3862 0160 21000000 		.4byte	.LVL24-1
 3863 0164 22000000 		.4byte	.LVL24
 3864 0168 0400     		.2byte	0x4
 3865 016a F3       		.byte	0xf3
 3866 016b 01       		.uleb128 0x1
 3867 016c 50       		.byte	0x50
 3868 016d 9F       		.byte	0x9f
ARM GAS  C:\Users\ADMINI~1\AppData\Local\Temp\ccAZ8Fmz.s 			page 69


 3869 016e 22000000 		.4byte	.LVL24
 3870 0172 82000000 		.4byte	.LVL28
 3871 0176 0100     		.2byte	0x1
 3872 0178 54       		.byte	0x54
 3873 0179 82000000 		.4byte	.LVL28
 3874 017d 85000000 		.4byte	.LVL29-1
 3875 0181 0100     		.2byte	0x1
 3876 0183 50       		.byte	0x50
 3877 0184 85000000 		.4byte	.LVL29-1
 3878 0188 88000000 		.4byte	.LFE122
 3879 018c 0100     		.2byte	0x1
 3880 018e 54       		.byte	0x54
 3881 018f 00000000 		.4byte	0
 3882 0193 00000000 		.4byte	0
 3883              	.LLST9:
 3884 0197 00000000 		.4byte	.LVL21
 3885 019b 0A000000 		.4byte	.LVL22
 3886 019f 0100     		.2byte	0x1
 3887 01a1 51       		.byte	0x51
 3888 01a2 0A000000 		.4byte	.LVL22
 3889 01a6 82000000 		.4byte	.LVL28
 3890 01aa 0400     		.2byte	0x4
 3891 01ac F3       		.byte	0xf3
 3892 01ad 01       		.uleb128 0x1
 3893 01ae 51       		.byte	0x51
 3894 01af 9F       		.byte	0x9f
 3895 01b0 82000000 		.4byte	.LVL28
 3896 01b4 85000000 		.4byte	.LVL29-1
 3897 01b8 0100     		.2byte	0x1
 3898 01ba 51       		.byte	0x51
 3899 01bb 85000000 		.4byte	.LVL29-1
 3900 01bf 88000000 		.4byte	.LFE122
 3901 01c3 0400     		.2byte	0x4
 3902 01c5 F3       		.byte	0xf3
 3903 01c6 01       		.uleb128 0x1
 3904 01c7 51       		.byte	0x51
 3905 01c8 9F       		.byte	0x9f
 3906 01c9 00000000 		.4byte	0
 3907 01cd 00000000 		.4byte	0
 3908              	.LLST10:
 3909 01d1 22000000 		.4byte	.LVL24
 3910 01d5 80000000 		.4byte	.LVL27
 3911 01d9 0400     		.2byte	0x4
 3912 01db F3       		.byte	0xf3
 3913 01dc 01       		.uleb128 0x1
 3914 01dd 51       		.byte	0x51
 3915 01de 9F       		.byte	0x9f
 3916 01df 00000000 		.4byte	0
 3917 01e3 00000000 		.4byte	0
 3918              	.LLST11:
 3919 01e7 22000000 		.4byte	.LVL24
 3920 01eb 80000000 		.4byte	.LVL27
 3921 01ef 0100     		.2byte	0x1
 3922 01f1 54       		.byte	0x54
 3923 01f2 00000000 		.4byte	0
 3924 01f6 00000000 		.4byte	0
 3925              	.LLST12:
ARM GAS  C:\Users\ADMINI~1\AppData\Local\Temp\ccAZ8Fmz.s 			page 70


 3926 01fa 74000000 		.4byte	.LVL26
 3927 01fe 80000000 		.4byte	.LVL27
 3928 0202 0100     		.2byte	0x1
 3929 0204 54       		.byte	0x54
 3930 0205 00000000 		.4byte	0
 3931 0209 00000000 		.4byte	0
 3932              	.LLST13:
 3933 020d 00000000 		.4byte	.LVL36
 3934 0211 0E000000 		.4byte	.LVL37
 3935 0215 0100     		.2byte	0x1
 3936 0217 50       		.byte	0x50
 3937 0218 0E000000 		.4byte	.LVL37
 3938 021c 84000000 		.4byte	.LVL42
 3939 0220 0100     		.2byte	0x1
 3940 0222 54       		.byte	0x54
 3941 0223 84000000 		.4byte	.LVL42
 3942 0227 9E000000 		.4byte	.LVL44
 3943 022b 0300     		.2byte	0x3
 3944 022d 74       		.byte	0x74
 3945 022e 68       		.sleb128 -24
 3946 022f 9F       		.byte	0x9f
 3947 0230 9E000000 		.4byte	.LVL44
 3948 0234 AA000000 		.4byte	.LVL45
 3949 0238 0100     		.2byte	0x1
 3950 023a 50       		.byte	0x50
 3951 023b AA000000 		.4byte	.LVL45
 3952 023f E8000000 		.4byte	.LVL48
 3953 0243 0100     		.2byte	0x1
 3954 0245 54       		.byte	0x54
 3955 0246 E8000000 		.4byte	.LVL48
 3956 024a EC000000 		.4byte	.LVL49
 3957 024e 0100     		.2byte	0x1
 3958 0250 50       		.byte	0x50
 3959 0251 EC000000 		.4byte	.LVL49
 3960 0255 1C010000 		.4byte	.LVL53
 3961 0259 0100     		.2byte	0x1
 3962 025b 54       		.byte	0x54
 3963 025c 1C010000 		.4byte	.LVL53
 3964 0260 20010000 		.4byte	.LVL54
 3965 0264 0100     		.2byte	0x1
 3966 0266 50       		.byte	0x50
 3967 0267 20010000 		.4byte	.LVL54
 3968 026b 70010000 		.4byte	.LFE128
 3969 026f 0100     		.2byte	0x1
 3970 0271 54       		.byte	0x54
 3971 0272 00000000 		.4byte	0
 3972 0276 00000000 		.4byte	0
 3973              	.LLST14:
 3974 027a 14000000 		.4byte	.LVL38
 3975 027e 84000000 		.4byte	.LVL42
 3976 0282 0100     		.2byte	0x1
 3977 0284 54       		.byte	0x54
 3978 0285 84000000 		.4byte	.LVL42
 3979 0289 9E000000 		.4byte	.LVL44
 3980 028d 0300     		.2byte	0x3
 3981 028f 74       		.byte	0x74
 3982 0290 68       		.sleb128 -24
ARM GAS  C:\Users\ADMINI~1\AppData\Local\Temp\ccAZ8Fmz.s 			page 71


 3983 0291 9F       		.byte	0x9f
 3984 0292 CE000000 		.4byte	.LVL46
 3985 0296 DE000000 		.4byte	.LVL47
 3986 029a 0100     		.2byte	0x1
 3987 029c 54       		.byte	0x54
 3988 029d 00000000 		.4byte	0
 3989 02a1 00000000 		.4byte	0
 3990              	.LLST15:
 3991 02a5 5A000000 		.4byte	.LVL40
 3992 02a9 76000000 		.4byte	.LVL41
 3993 02ad 0100     		.2byte	0x1
 3994 02af 56       		.byte	0x56
 3995 02b0 76000000 		.4byte	.LVL41
 3996 02b4 9E000000 		.4byte	.LVL44
 3997 02b8 1000     		.2byte	0x10
 3998 02ba 0A       		.byte	0xa
 3999 02bb 0C21     		.2byte	0x210c
 4000 02bd 0A       		.byte	0xa
 4001 02be 4C21     		.2byte	0x214c
 4002 02c0 78       		.byte	0x78
 4003 02c1 00       		.sleb128 0
 4004 02c2 30       		.byte	0x30
 4005 02c3 29       		.byte	0x29
 4006 02c4 28       		.byte	0x28
 4007 02c5 0100     		.2byte	0x1
 4008 02c7 16       		.byte	0x16
 4009 02c8 13       		.byte	0x13
 4010 02c9 9F       		.byte	0x9f
 4011 02ca 00000000 		.4byte	0
 4012 02ce 00000000 		.4byte	0
 4013              	.LLST16:
 4014 02d2 14000000 		.4byte	.LVL38
 4015 02d6 9E000000 		.4byte	.LVL44
 4016 02da 0100     		.2byte	0x1
 4017 02dc 55       		.byte	0x55
 4018 02dd CE000000 		.4byte	.LVL46
 4019 02e1 DE000000 		.4byte	.LVL47
 4020 02e5 0100     		.2byte	0x1
 4021 02e7 55       		.byte	0x55
 4022 02e8 00000000 		.4byte	0
 4023 02ec 00000000 		.4byte	0
 4024              	.LLST17:
 4025 02f0 8E000000 		.4byte	.LVL43
 4026 02f4 9E000000 		.4byte	.LVL44
 4027 02f8 0300     		.2byte	0x3
 4028 02fa 74       		.byte	0x74
 4029 02fb 68       		.sleb128 -24
 4030 02fc 9F       		.byte	0x9f
 4031 02fd 00000000 		.4byte	0
 4032 0301 00000000 		.4byte	0
 4033              	.LLST18:
 4034 0305 8E000000 		.4byte	.LVL43
 4035 0309 9E000000 		.4byte	.LVL44
 4036 030d 0100     		.2byte	0x1
 4037 030f 5C       		.byte	0x5c
 4038 0310 00000000 		.4byte	0
 4039 0314 00000000 		.4byte	0
ARM GAS  C:\Users\ADMINI~1\AppData\Local\Temp\ccAZ8Fmz.s 			page 72


 4040              	.LLST19:
 4041 0318 00000000 		.4byte	.LVL58
 4042 031c 0F000000 		.4byte	.LVL59-1
 4043 0320 0100     		.2byte	0x1
 4044 0322 50       		.byte	0x50
 4045 0323 0F000000 		.4byte	.LVL59-1
 4046 0327 4E000000 		.4byte	.LVL65
 4047 032b 0100     		.2byte	0x1
 4048 032d 54       		.byte	0x54
 4049 032e 4E000000 		.4byte	.LVL65
 4050 0332 5C000000 		.4byte	.LFE129
 4051 0336 0400     		.2byte	0x4
 4052 0338 F3       		.byte	0xf3
 4053 0339 01       		.uleb128 0x1
 4054 033a 50       		.byte	0x50
 4055 033b 9F       		.byte	0x9f
 4056 033c 00000000 		.4byte	0
 4057 0340 00000000 		.4byte	0
 4058              	.LLST20:
 4059 0344 00000000 		.4byte	.LVL66
 4060 0348 04000000 		.4byte	.LVL67
 4061 034c 0100     		.2byte	0x1
 4062 034e 50       		.byte	0x50
 4063 034f 04000000 		.4byte	.LVL67
 4064 0353 1A000000 		.4byte	.LFE130
 4065 0357 0400     		.2byte	0x4
 4066 0359 F3       		.byte	0xf3
 4067 035a 01       		.uleb128 0x1
 4068 035b 50       		.byte	0x50
 4069 035c 9F       		.byte	0x9f
 4070 035d 00000000 		.4byte	0
 4071 0361 00000000 		.4byte	0
 4072              	.LLST21:
 4073 0365 00000000 		.4byte	.LVL66
 4074 0369 12000000 		.4byte	.LVL68
 4075 036d 0100     		.2byte	0x1
 4076 036f 52       		.byte	0x52
 4077 0370 12000000 		.4byte	.LVL68
 4078 0374 1A000000 		.4byte	.LFE130
 4079 0378 0400     		.2byte	0x4
 4080 037a F3       		.byte	0xf3
 4081 037b 01       		.uleb128 0x1
 4082 037c 52       		.byte	0x52
 4083 037d 9F       		.byte	0x9f
 4084 037e 00000000 		.4byte	0
 4085 0382 00000000 		.4byte	0
 4086              	.LLST22:
 4087 0386 00000000 		.4byte	.LVL69
 4088 038a 14000000 		.4byte	.LVL70
 4089 038e 0100     		.2byte	0x1
 4090 0390 50       		.byte	0x50
 4091 0391 14000000 		.4byte	.LVL70
 4092 0395 20000000 		.4byte	.LFE131
 4093 0399 0400     		.2byte	0x4
 4094 039b F3       		.byte	0xf3
 4095 039c 01       		.uleb128 0x1
 4096 039d 50       		.byte	0x50
ARM GAS  C:\Users\ADMINI~1\AppData\Local\Temp\ccAZ8Fmz.s 			page 73


 4097 039e 9F       		.byte	0x9f
 4098 039f 00000000 		.4byte	0
 4099 03a3 00000000 		.4byte	0
 4100              	.LLST23:
 4101 03a7 00000000 		.4byte	.LVL72
 4102 03ab 04000000 		.4byte	.LVL73
 4103 03af 0100     		.2byte	0x1
 4104 03b1 50       		.byte	0x50
 4105 03b2 04000000 		.4byte	.LVL73
 4106 03b6 38000000 		.4byte	.LVL76
 4107 03ba 0100     		.2byte	0x1
 4108 03bc 51       		.byte	0x51
 4109 03bd 38000000 		.4byte	.LVL76
 4110 03c1 4A000000 		.4byte	.LFE133
 4111 03c5 0300     		.2byte	0x3
 4112 03c7 71       		.byte	0x71
 4113 03c8 68       		.sleb128 -24
 4114 03c9 9F       		.byte	0x9f
 4115 03ca 00000000 		.4byte	0
 4116 03ce 00000000 		.4byte	0
 4117              	.LLST24:
 4118 03d2 28000000 		.4byte	.LVL74
 4119 03d6 38000000 		.4byte	.LVL76
 4120 03da 0100     		.2byte	0x1
 4121 03dc 51       		.byte	0x51
 4122 03dd 38000000 		.4byte	.LVL76
 4123 03e1 4A000000 		.4byte	.LFE133
 4124 03e5 0300     		.2byte	0x3
 4125 03e7 71       		.byte	0x71
 4126 03e8 68       		.sleb128 -24
 4127 03e9 9F       		.byte	0x9f
 4128 03ea 00000000 		.4byte	0
 4129 03ee 00000000 		.4byte	0
 4130              	.LLST25:
 4131 03f2 34000000 		.4byte	.LVL75
 4132 03f6 3A000000 		.4byte	.LVL77
 4133 03fa 0100     		.2byte	0x1
 4134 03fc 54       		.byte	0x54
 4135 03fd 00000000 		.4byte	0
 4136 0401 00000000 		.4byte	0
 4137              		.section	.debug_aranges,"",%progbits
 4138 0000 7C000000 		.4byte	0x7c
 4139 0004 0200     		.2byte	0x2
 4140 0006 00000000 		.4byte	.Ldebug_info0
 4141 000a 04       		.byte	0x4
 4142 000b 00       		.byte	0
 4143 000c 0000     		.2byte	0
 4144 000e 0000     		.2byte	0
 4145 0010 00000000 		.4byte	.LFB120
 4146 0014 48000000 		.4byte	.LFE120-.LFB120
 4147 0018 00000000 		.4byte	.LFB124
 4148 001c 68000000 		.4byte	.LFE124-.LFB124
 4149 0020 00000000 		.4byte	.LFB123
 4150 0024 48000000 		.4byte	.LFE123-.LFB123
 4151 0028 00000000 		.4byte	.LFB122
 4152 002c 88000000 		.4byte	.LFE122-.LFB122
 4153 0030 00000000 		.4byte	.LFB125
ARM GAS  C:\Users\ADMINI~1\AppData\Local\Temp\ccAZ8Fmz.s 			page 74


 4154 0034 14000000 		.4byte	.LFE125-.LFB125
 4155 0038 00000000 		.4byte	.LFB126
 4156 003c 14000000 		.4byte	.LFE126-.LFB126
 4157 0040 00000000 		.4byte	.LFB127
 4158 0044 48000000 		.4byte	.LFE127-.LFB127
 4159 0048 00000000 		.4byte	.LFB128
 4160 004c 70010000 		.4byte	.LFE128-.LFB128
 4161 0050 00000000 		.4byte	.LFB129
 4162 0054 5C000000 		.4byte	.LFE129-.LFB129
 4163 0058 00000000 		.4byte	.LFB130
 4164 005c 1A000000 		.4byte	.LFE130-.LFB130
 4165 0060 00000000 		.4byte	.LFB131
 4166 0064 20000000 		.4byte	.LFE131-.LFB131
 4167 0068 00000000 		.4byte	.LFB132
 4168 006c 36000000 		.4byte	.LFE132-.LFB132
 4169 0070 00000000 		.4byte	.LFB133
 4170 0074 4A000000 		.4byte	.LFE133-.LFB133
 4171 0078 00000000 		.4byte	0
 4172 007c 00000000 		.4byte	0
 4173              		.section	.debug_ranges,"",%progbits
 4174              	.Ldebug_ranges0:
 4175 0000 58000000 		.4byte	.LBB20
 4176 0004 6A000000 		.4byte	.LBE20
 4177 0008 6C000000 		.4byte	.LBB24
 4178 000c 72000000 		.4byte	.LBE24
 4179 0010 74000000 		.4byte	.LBB25
 4180 0014 82000000 		.4byte	.LBE25
 4181 0018 00000000 		.4byte	0
 4182 001c 00000000 		.4byte	0
 4183 0020 14000000 		.4byte	.LBB32
 4184 0024 9E000000 		.4byte	.LBE32
 4185 0028 CE000000 		.4byte	.LBB49
 4186 002c DE000000 		.4byte	.LBE49
 4187 0030 00000000 		.4byte	0
 4188 0034 00000000 		.4byte	0
 4189 0038 38000000 		.4byte	.LBB34
 4190 003c 3A000000 		.4byte	.LBE34
 4191 0040 48000000 		.4byte	.LBB42
 4192 0044 4A000000 		.4byte	.LBE42
 4193 0048 5A000000 		.4byte	.LBB43
 4194 004c 60000000 		.4byte	.LBE43
 4195 0050 68000000 		.4byte	.LBB44
 4196 0054 72000000 		.4byte	.LBE44
 4197 0058 78000000 		.4byte	.LBB45
 4198 005c 7A000000 		.4byte	.LBE45
 4199 0060 7E000000 		.4byte	.LBB46
 4200 0064 84000000 		.4byte	.LBE46
 4201 0068 8E000000 		.4byte	.LBB47
 4202 006c 9E000000 		.4byte	.LBE47
 4203 0070 00000000 		.4byte	0
 4204 0074 00000000 		.4byte	0
 4205 0078 16000000 		.4byte	.LBB52
 4206 007c 18000000 		.4byte	.LBE52
 4207 0080 1A000000 		.4byte	.LBB57
 4208 0084 1C000000 		.4byte	.LBE57
 4209 0088 24000000 		.4byte	.LBB58
 4210 008c 26000000 		.4byte	.LBE58
ARM GAS  C:\Users\ADMINI~1\AppData\Local\Temp\ccAZ8Fmz.s 			page 75


 4211 0090 28000000 		.4byte	.LBB59
 4212 0094 46000000 		.4byte	.LBE59
 4213 0098 00000000 		.4byte	0
 4214 009c 00000000 		.4byte	0
 4215 00a0 00000000 		.4byte	.LFB120
 4216 00a4 48000000 		.4byte	.LFE120
 4217 00a8 00000000 		.4byte	.LFB124
 4218 00ac 68000000 		.4byte	.LFE124
 4219 00b0 00000000 		.4byte	.LFB123
 4220 00b4 48000000 		.4byte	.LFE123
 4221 00b8 00000000 		.4byte	.LFB122
 4222 00bc 88000000 		.4byte	.LFE122
 4223 00c0 00000000 		.4byte	.LFB125
 4224 00c4 14000000 		.4byte	.LFE125
 4225 00c8 00000000 		.4byte	.LFB126
 4226 00cc 14000000 		.4byte	.LFE126
 4227 00d0 00000000 		.4byte	.LFB127
 4228 00d4 48000000 		.4byte	.LFE127
 4229 00d8 00000000 		.4byte	.LFB128
 4230 00dc 70010000 		.4byte	.LFE128
 4231 00e0 00000000 		.4byte	.LFB129
 4232 00e4 5C000000 		.4byte	.LFE129
 4233 00e8 00000000 		.4byte	.LFB130
 4234 00ec 1A000000 		.4byte	.LFE130
 4235 00f0 00000000 		.4byte	.LFB131
 4236 00f4 20000000 		.4byte	.LFE131
 4237 00f8 00000000 		.4byte	.LFB132
 4238 00fc 36000000 		.4byte	.LFE132
 4239 0100 00000000 		.4byte	.LFB133
 4240 0104 4A000000 		.4byte	.LFE133
 4241 0108 00000000 		.4byte	0
 4242 010c 00000000 		.4byte	0
 4243              		.section	.debug_line,"",%progbits
 4244              	.Ldebug_line0:
 4245 0000 C9050000 		.section	.debug_str,"MS",%progbits,1
 4245      02009B02 
 4245      00000201 
 4245      FB0E0D00 
 4245      01010101 
 4246              	.LASF114:
 4247 0000 75617274 		.ascii	"uart_lld_start_receive\000"
 4247      5F6C6C64 
 4247      5F737461 
 4247      72745F72 
 4247      65636569 
 4248              	.LASF85:
 4249 0017 646D6172 		.ascii	"dmarx\000"
 4249      7800
 4250              	.LASF46:
 4251 001d 41504231 		.ascii	"APB1LPENR\000"
 4251      4C50454E 
 4251      5200
 4252              	.LASF77:
 4253 0027 75617274 		.ascii	"uartflags_t\000"
 4253      666C6167 
 4253      735F7400 
 4254              	.LASF74:
ARM GAS  C:\Users\ADMINI~1\AppData\Local\Temp\ccAZ8Fmz.s 			page 76


 4255 0033 55415254 		.ascii	"UART_RX_ACTIVE\000"
 4255      5F52585F 
 4255      41435449 
 4255      564500
 4256              	.LASF23:
 4257 0042 4D304152 		.ascii	"M0AR\000"
 4257      00
 4258              	.LASF2:
 4259 0047 73697A65 		.ascii	"size_t\000"
 4259      5F7400
 4260              	.LASF94:
 4261 004e 72786368 		.ascii	"rxchar_cb\000"
 4261      61725F63 
 4261      6200
 4262              	.LASF3:
 4263 0058 5F5F7569 		.ascii	"__uint8_t\000"
 4263      6E74385F 
 4263      7400
 4264              	.LASF123:
 4265 0062 75617274 		.ascii	"uartObjectInit\000"
 4265      4F626A65 
 4265      6374496E 
 4265      697400
 4266              	.LASF87:
 4267 0071 72786275 		.ascii	"rxbuf\000"
 4267      6600
 4268              	.LASF103:
 4269 0077 75736172 		.ascii	"usart_stop\000"
 4269      745F7374 
 4269      6F7000
 4270              	.LASF13:
 4271 0082 6C6F6E67 		.ascii	"long long unsigned int\000"
 4271      206C6F6E 
 4271      6720756E 
 4271      7369676E 
 4271      65642069 
 4272              	.LASF89:
 4273 0099 75617274 		.ascii	"uartccb_t\000"
 4273      6363625F 
 4273      7400
 4274              	.LASF62:
 4275 00a3 76656374 		.ascii	"vector\000"
 4275      6F7200
 4276              	.LASF118:
 4277 00aa 5F73746D 		.ascii	"_stm32_dma_streams\000"
 4277      33325F64 
 4277      6D615F73 
 4277      74726561 
 4277      6D7300
 4278              	.LASF97:
 4279 00bd 55415254 		.ascii	"UARTConfig\000"
 4279      436F6E66 
 4279      696700
 4280              	.LASF117:
 4281 00c8 49544D5F 		.ascii	"ITM_RxBuffer\000"
 4281      52784275 
 4281      66666572 
ARM GAS  C:\Users\ADMINI~1\AppData\Local\Temp\ccAZ8Fmz.s 			page 77


 4281      00
 4282              	.LASF18:
 4283 00d5 626F6F6C 		.ascii	"bool_t\000"
 4283      5F7400
 4284              	.LASF124:
 4285 00dc 6E766963 		.ascii	"nvicEnableVector\000"
 4285      456E6162 
 4285      6C655665 
 4285      63746F72 
 4285      00
 4286              	.LASF116:
 4287 00ed 75617274 		.ascii	"uart_lld_stop_receive\000"
 4287      5F6C6C64 
 4287      5F73746F 
 4287      705F7265 
 4287      63656976 
 4288              	.LASF12:
 4289 0103 6C6F6E67 		.ascii	"long long int\000"
 4289      206C6F6E 
 4289      6720696E 
 4289      7400
 4290              	.LASF1:
 4291 0111 7369676E 		.ascii	"signed char\000"
 4291      65642063 
 4291      68617200 
 4292              	.LASF88:
 4293 011d 75617274 		.ascii	"uartcb_t\000"
 4293      63625F74 
 4293      00
 4294              	.LASF28:
 4295 0126 41484231 		.ascii	"AHB1RSTR\000"
 4295      52535452 
 4295      00
 4296              	.LASF56:
 4297 012f 47545052 		.ascii	"GTPR\000"
 4297      00
 4298              	.LASF81:
 4299 0134 72787374 		.ascii	"rxstate\000"
 4299      61746500 
 4300              	.LASF64:
 4301 013c 73746D33 		.ascii	"stm32_dmaisr_t\000"
 4301      325F646D 
 4301      61697372 
 4301      5F7400
 4302              	.LASF79:
 4303 014b 73746174 		.ascii	"state\000"
 4303      6500
 4304              	.LASF80:
 4305 0151 74787374 		.ascii	"txstate\000"
 4305      61746500 
 4306              	.LASF9:
 4307 0159 6C6F6E67 		.ascii	"long int\000"
 4307      20696E74 
 4307      00
 4308              	.LASF33:
 4309 0162 41504232 		.ascii	"APB2RSTR\000"
 4309      52535452 
ARM GAS  C:\Users\ADMINI~1\AppData\Local\Temp\ccAZ8Fmz.s 			page 78


 4309      00
 4310              	.LASF15:
 4311 016b 75696E74 		.ascii	"uint16_t\000"
 4311      31365F74 
 4311      00
 4312              	.LASF108:
 4313 0174 75617274 		.ascii	"uart_lld_init\000"
 4313      5F6C6C64 
 4313      5F696E69 
 4313      7400
 4314              	.LASF121:
 4315 0182 706F7274 		.ascii	"port_halt\000"
 4315      5F68616C 
 4315      7400
 4316              	.LASF26:
 4317 018c 504C4C43 		.ascii	"PLLCFGR\000"
 4317      46475200 
 4318              	.LASF76:
 4319 0194 75617274 		.ascii	"uartrxstate_t\000"
 4319      72787374 
 4319      6174655F 
 4319      7400
 4320              	.LASF127:
 4321 01a2 43686962 		.ascii	"ChibiOS_2.6.6/os/hal/platforms/STM32/USARTv1/uart_l"
 4321      694F535F 
 4321      322E362E 
 4321      362F6F73 
 4321      2F68616C 
 4322 01d5 6C642E63 		.ascii	"ld.c\000"
 4322      00
 4323              	.LASF110:
 4324 01da 75617274 		.ascii	"uart_lld_start\000"
 4324      5F6C6C64 
 4324      5F737461 
 4324      727400
 4325              	.LASF78:
 4326 01e9 55415254 		.ascii	"UARTDriver\000"
 4326      44726976 
 4326      657200
 4327              	.LASF10:
 4328 01f4 5F5F7569 		.ascii	"__uint32_t\000"
 4328      6E743332 
 4328      5F7400
 4329              	.LASF61:
 4330 01ff 73656C66 		.ascii	"selfindex\000"
 4330      696E6465 
 4330      7800
 4331              	.LASF98:
 4332 0209 7365745F 		.ascii	"set_rx_idle_loop\000"
 4332      72785F69 
 4332      646C655F 
 4332      6C6F6F70 
 4332      00
 4333              	.LASF67:
 4334 021a 55415254 		.ascii	"UART_READY\000"
 4334      5F524541 
 4334      445900
ARM GAS  C:\Users\ADMINI~1\AppData\Local\Temp\ccAZ8Fmz.s 			page 79


 4335              	.LASF70:
 4336 0225 55415254 		.ascii	"UART_TX_ACTIVE\000"
 4336      5F54585F 
 4336      41435449 
 4336      564500
 4337              	.LASF83:
 4338 0234 75736172 		.ascii	"usart\000"
 4338      7400
 4339              	.LASF0:
 4340 023a 756E7369 		.ascii	"unsigned int\000"
 4340      676E6564 
 4340      20696E74 
 4340      00
 4341              	.LASF113:
 4342 0247 74786275 		.ascii	"txbuf\000"
 4342      6600
 4343              	.LASF131:
 4344 024d 6E766963 		.ascii	"nvicDisableVector\000"
 4344      44697361 
 4344      626C6556 
 4344      6563746F 
 4344      7200
 4345              	.LASF115:
 4346 025f 75617274 		.ascii	"uart_lld_stop_send\000"
 4346      5F6C6C64 
 4346      5F73746F 
 4346      705F7365 
 4346      6E6400
 4347              	.LASF11:
 4348 0272 6C6F6E67 		.ascii	"long unsigned int\000"
 4348      20756E73 
 4348      69676E65 
 4348      6420696E 
 4348      7400
 4349              	.LASF90:
 4350 0284 75617274 		.ascii	"uartecb_t\000"
 4350      6563625F 
 4350      7400
 4351              	.LASF55:
 4352 028e 5243435F 		.ascii	"RCC_TypeDef\000"
 4352      54797065 
 4352      44656600 
 4353              	.LASF107:
 4354 029a 56656374 		.ascii	"Vector15C\000"
 4354      6F723135 
 4354      4300
 4355              	.LASF60:
 4356 02a4 69736869 		.ascii	"ishift\000"
 4356      667400
 4357              	.LASF7:
 4358 02ab 73686F72 		.ascii	"short unsigned int\000"
 4358      7420756E 
 4358      7369676E 
 4358      65642069 
 4358      6E7400
 4359              	.LASF65:
 4360 02be 55415254 		.ascii	"UART_UNINIT\000"
ARM GAS  C:\Users\ADMINI~1\AppData\Local\Temp\ccAZ8Fmz.s 			page 80


 4360      5F554E49 
 4360      4E495400 
 4361              	.LASF66:
 4362 02ca 55415254 		.ascii	"UART_STOP\000"
 4362      5F53544F 
 4362      5000
 4363              	.LASF52:
 4364 02d4 504C4C49 		.ascii	"PLLI2SCFGR\000"
 4364      32534346 
 4364      475200
 4365              	.LASF30:
 4366 02df 41484233 		.ascii	"AHB3RSTR\000"
 4366      52535452 
 4366      00
 4367              	.LASF122:
 4368 02e8 5F706F72 		.ascii	"_port_irq_epilogue\000"
 4368      745F6972 
 4368      715F6570 
 4368      696C6F67 
 4368      756500
 4369              	.LASF57:
 4370 02fb 55534152 		.ascii	"USART_TypeDef\000"
 4370      545F5479 
 4370      70654465 
 4370      6600
 4371              	.LASF47:
 4372 0309 41504232 		.ascii	"APB2LPENR\000"
 4372      4C50454E 
 4372      5200
 4373              	.LASF54:
 4374 0313 44434B43 		.ascii	"DCKCFGR\000"
 4374      46475200 
 4375              	.LASF106:
 4376 031b 56656374 		.ascii	"VectorDC\000"
 4376      6F724443 
 4376      00
 4377              	.LASF104:
 4378 0324 73657276 		.ascii	"serve_usart_irq\000"
 4378      655F7573 
 4378      6172745F 
 4378      69727100 
 4379              	.LASF100:
 4380 0334 75617274 		.ascii	"uartp\000"
 4380      7000
 4381              	.LASF120:
 4382 033a 55415254 		.ascii	"UARTD6\000"
 4382      443600
 4383              	.LASF20:
 4384 0341 73697A65 		.ascii	"sizetype\000"
 4384      74797065 
 4384      00
 4385              	.LASF129:
 4386 034a 7472616E 		.ascii	"translate_errors\000"
 4386      736C6174 
 4386      655F6572 
 4386      726F7273 
 4386      00
ARM GAS  C:\Users\ADMINI~1\AppData\Local\Temp\ccAZ8Fmz.s 			page 81


 4387              	.LASF75:
 4388 035b 55415254 		.ascii	"UART_RX_COMPLETE\000"
 4388      5F52585F 
 4388      434F4D50 
 4388      4C455445 
 4388      00
 4389              	.LASF95:
 4390 036c 72786572 		.ascii	"rxerr_cb\000"
 4390      725F6362 
 4390      00
 4391              	.LASF105:
 4392 0375 75617274 		.ascii	"uart_lld_serve_tx_end_irq\000"
 4392      5F6C6C64 
 4392      5F736572 
 4392      76655F74 
 4392      785F656E 
 4393              	.LASF43:
 4394 038f 41484232 		.ascii	"AHB2LPENR\000"
 4394      4C50454E 
 4394      5200
 4395              	.LASF72:
 4396 0399 75617274 		.ascii	"uarttxstate_t\000"
 4396      74787374 
 4396      6174655F 
 4396      7400
 4397              	.LASF32:
 4398 03a7 41504231 		.ascii	"APB1RSTR\000"
 4398      52535452 
 4398      00
 4399              	.LASF53:
 4400 03b0 504C4C53 		.ascii	"PLLSAICFGR\000"
 4400      41494346 
 4400      475200
 4401              	.LASF86:
 4402 03bb 646D6174 		.ascii	"dmatx\000"
 4402      7800
 4403              	.LASF31:
 4404 03c1 52455345 		.ascii	"RESERVED0\000"
 4404      52564544 
 4404      3000
 4405              	.LASF34:
 4406 03cb 52455345 		.ascii	"RESERVED1\000"
 4406      52564544 
 4406      3100
 4407              	.LASF38:
 4408 03d5 52455345 		.ascii	"RESERVED2\000"
 4408      52564544 
 4408      3200
 4409              	.LASF41:
 4410 03df 52455345 		.ascii	"RESERVED3\000"
 4410      52564544 
 4410      3300
 4411              	.LASF45:
 4412 03e9 52455345 		.ascii	"RESERVED4\000"
 4412      52564544 
 4412      3400
 4413              	.LASF48:
ARM GAS  C:\Users\ADMINI~1\AppData\Local\Temp\ccAZ8Fmz.s 			page 82


 4414 03f3 52455345 		.ascii	"RESERVED5\000"
 4414      52564544 
 4414      3500
 4415              	.LASF50:
 4416 03fd 52455345 		.ascii	"RESERVED6\000"
 4416      52564544 
 4416      3600
 4417              	.LASF63:
 4418 0407 73746D33 		.ascii	"stm32_dma_stream_t\000"
 4418      325F646D 
 4418      615F7374 
 4418      7265616D 
 4418      5F7400
 4419              	.LASF92:
 4420 041a 7478656E 		.ascii	"txend2_cb\000"
 4420      64325F63 
 4420      6200
 4421              	.LASF58:
 4422 0424 73747265 		.ascii	"stream\000"
 4422      616D00
 4423              	.LASF22:
 4424 042b 4E445452 		.ascii	"NDTR\000"
 4424      00
 4425              	.LASF19:
 4426 0430 5F426F6F 		.ascii	"_Bool\000"
 4426      6C00
 4427              	.LASF16:
 4428 0436 696E7433 		.ascii	"int32_t\000"
 4428      325F7400 
 4429              	.LASF4:
 4430 043e 756E7369 		.ascii	"unsigned char\000"
 4430      676E6564 
 4430      20636861 
 4430      7200
 4431              	.LASF5:
 4432 044c 73686F72 		.ascii	"short int\000"
 4432      7420696E 
 4432      7400
 4433              	.LASF44:
 4434 0456 41484233 		.ascii	"AHB3LPENR\000"
 4434      4C50454E 
 4434      5200
 4435              	.LASF68:
 4436 0460 75617274 		.ascii	"uartstate_t\000"
 4436      73746174 
 4436      655F7400 
 4437              	.LASF40:
 4438 046c 41504232 		.ascii	"APB2ENR\000"
 4438      454E5200 
 4439              	.LASF71:
 4440 0474 55415254 		.ascii	"UART_TX_COMPLETE\000"
 4440      5F54585F 
 4440      434F4D50 
 4440      4C455445 
 4440      00
 4441              	.LASF37:
 4442 0485 41484233 		.ascii	"AHB3ENR\000"
ARM GAS  C:\Users\ADMINI~1\AppData\Local\Temp\ccAZ8Fmz.s 			page 83


 4442      454E5200 
 4443              	.LASF93:
 4444 048d 7278656E 		.ascii	"rxend_cb\000"
 4444      645F6362 
 4444      00
 4445              	.LASF59:
 4446 0496 69666372 		.ascii	"ifcr\000"
 4446      00
 4447              	.LASF91:
 4448 049b 7478656E 		.ascii	"txend1_cb\000"
 4448      64315F63 
 4448      6200
 4449              	.LASF39:
 4450 04a5 41504231 		.ascii	"APB1ENR\000"
 4450      454E5200 
 4451              	.LASF21:
 4452 04ad 63686172 		.ascii	"char\000"
 4452      00
 4453              	.LASF125:
 4454 04b2 646D6153 		.ascii	"dmaStreamRelease\000"
 4454      74726561 
 4454      6D52656C 
 4454      65617365 
 4454      00
 4455              	.LASF102:
 4456 04c3 6D6F6465 		.ascii	"mode\000"
 4456      00
 4457              	.LASF82:
 4458 04c8 636F6E66 		.ascii	"config\000"
 4458      696700
 4459              	.LASF73:
 4460 04cf 55415254 		.ascii	"UART_RX_IDLE\000"
 4460      5F52585F 
 4460      49444C45 
 4460      00
 4461              	.LASF6:
 4462 04dc 5F5F7569 		.ascii	"__uint16_t\000"
 4462      6E743136 
 4462      5F7400
 4463              	.LASF29:
 4464 04e7 41484232 		.ascii	"AHB2RSTR\000"
 4464      52535452 
 4464      00
 4465              	.LASF8:
 4466 04f0 5F5F696E 		.ascii	"__int32_t\000"
 4466      7433325F 
 4466      7400
 4467              	.LASF69:
 4468 04fa 55415254 		.ascii	"UART_TX_IDLE\000"
 4468      5F54585F 
 4468      49444C45 
 4468      00
 4469              	.LASF126:
 4470 0507 474E5520 		.ascii	"GNU C 4.9.3 20150529 (release) [ARM/embedded-4_9-br"
 4470      4320342E 
 4470      392E3320 
 4470      32303135 
ARM GAS  C:\Users\ADMINI~1\AppData\Local\Temp\ccAZ8Fmz.s 			page 84


 4470      30353239 
 4471 053a 616E6368 		.ascii	"anch revision 224288] -mcpu=cortex-m4 -mfloat-abi=h"
 4471      20726576 
 4471      6973696F 
 4471      6E203232 
 4471      34323838 
 4472 056d 61726420 		.ascii	"ard -mfpu=fpv4-sp-d16 -mno-thumb-interwork -mthumb "
 4472      2D6D6670 
 4472      753D6670 
 4472      76342D73 
 4472      702D6431 
 4473 05a0 2D676764 		.ascii	"-ggdb -O2 -std=gnu99 -fomit-frame-pointer -falign-f"
 4473      62202D4F 
 4473      32202D73 
 4473      74643D67 
 4473      6E753939 
 4474 05d3 756E6374 		.ascii	"unctions=16 -ffunction-sections -fdata-sections -fn"
 4474      696F6E73 
 4474      3D313620 
 4474      2D666675 
 4474      6E637469 
 4475 0606 6F2D636F 		.ascii	"o-common -fsingle-precision-constant\000"
 4475      6D6D6F6E 
 4475      202D6673 
 4475      696E676C 
 4475      652D7072 
 4476              	.LASF25:
 4477 062b 444D415F 		.ascii	"DMA_Stream_TypeDef\000"
 4477      53747265 
 4477      616D5F54 
 4477      79706544 
 4477      656600
 4478              	.LASF36:
 4479 063e 41484232 		.ascii	"AHB2ENR\000"
 4479      454E5200 
 4480              	.LASF99:
 4481 0646 75617274 		.ascii	"uart_lld_serve_rx_end_irq\000"
 4481      5F6C6C64 
 4481      5F736572 
 4481      76655F72 
 4481      785F656E 
 4482              	.LASF24:
 4483 0660 4D314152 		.ascii	"M1AR\000"
 4483      00
 4484              	.LASF17:
 4485 0665 75696E74 		.ascii	"uint32_t\000"
 4485      33325F74 
 4485      00
 4486              	.LASF51:
 4487 066e 53534347 		.ascii	"SSCGR\000"
 4487      5200
 4488              	.LASF128:
 4489 0674 563A5C6F 		.ascii	"V:\\oroca_bldc_dev\000"
 4489      726F6361 
 4489      5F626C64 
 4489      635F6465 
 4489      7600
ARM GAS  C:\Users\ADMINI~1\AppData\Local\Temp\ccAZ8Fmz.s 			page 85


 4490              	.LASF49:
 4491 0686 42444352 		.ascii	"BDCR\000"
 4491      00
 4492              	.LASF14:
 4493 068b 75696E74 		.ascii	"uint8_t\000"
 4493      385F7400 
 4494              	.LASF42:
 4495 0693 41484231 		.ascii	"AHB1LPENR\000"
 4495      4C50454E 
 4495      5200
 4496              	.LASF109:
 4497 069d 75736172 		.ascii	"usart_start\000"
 4497      745F7374 
 4497      61727400 
 4498              	.LASF101:
 4499 06a9 666C6167 		.ascii	"flags\000"
 4499      7300
 4500              	.LASF84:
 4501 06af 646D616D 		.ascii	"dmamode\000"
 4501      6F646500 
 4502              	.LASF96:
 4503 06b7 73706565 		.ascii	"speed\000"
 4503      6400
 4504              	.LASF35:
 4505 06bd 41484231 		.ascii	"AHB1ENR\000"
 4505      454E5200 
 4506              	.LASF27:
 4507 06c5 43464752 		.ascii	"CFGR\000"
 4507      00
 4508              	.LASF112:
 4509 06ca 75617274 		.ascii	"uart_lld_start_send\000"
 4509      5F6C6C64 
 4509      5F737461 
 4509      72745F73 
 4509      656E6400 
 4510              	.LASF111:
 4511 06de 75617274 		.ascii	"uart_lld_stop\000"
 4511      5F6C6C64 
 4511      5F73746F 
 4511      7000
 4512              	.LASF130:
 4513 06ec 646D6153 		.ascii	"dmaStreamAllocate\000"
 4513      74726561 
 4513      6D416C6C 
 4513      6F636174 
 4513      6500
 4514              	.LASF119:
 4515 06fe 55415254 		.ascii	"UARTD3\000"
 4515      443300
 4516              		.ident	"GCC: (GNU Tools for ARM Embedded Processors) 4.9.3 20150529 (release) [ARM/embedded-4_9-br
ARM GAS  C:\Users\ADMINI~1\AppData\Local\Temp\ccAZ8Fmz.s 			page 86


DEFINED SYMBOLS
                            *ABS*:00000000 uart_lld.c
C:\Users\ADMINI~1\AppData\Local\Temp\ccAZ8Fmz.s:21     .text.usart_stop:00000000 $t
C:\Users\ADMINI~1\AppData\Local\Temp\ccAZ8Fmz.s:26     .text.usart_stop:00000000 usart_stop
C:\Users\ADMINI~1\AppData\Local\Temp\ccAZ8Fmz.s:98     .text.serve_usart_irq:00000000 $t
C:\Users\ADMINI~1\AppData\Local\Temp\ccAZ8Fmz.s:103    .text.serve_usart_irq:00000000 serve_usart_irq
C:\Users\ADMINI~1\AppData\Local\Temp\ccAZ8Fmz.s:215    .text.uart_lld_serve_tx_end_irq:00000000 $t
C:\Users\ADMINI~1\AppData\Local\Temp\ccAZ8Fmz.s:220    .text.uart_lld_serve_tx_end_irq:00000000 uart_lld_serve_tx_end_irq
C:\Users\ADMINI~1\AppData\Local\Temp\ccAZ8Fmz.s:296    .text.uart_lld_serve_rx_end_irq:00000000 $t
C:\Users\ADMINI~1\AppData\Local\Temp\ccAZ8Fmz.s:301    .text.uart_lld_serve_rx_end_irq:00000000 uart_lld_serve_rx_end_irq
C:\Users\ADMINI~1\AppData\Local\Temp\ccAZ8Fmz.s:448    .text.VectorDC:00000000 $t
C:\Users\ADMINI~1\AppData\Local\Temp\ccAZ8Fmz.s:454    .text.VectorDC:00000000 VectorDC
C:\Users\ADMINI~1\AppData\Local\Temp\ccAZ8Fmz.s:479    .text.VectorDC:00000010 $d
C:\Users\ADMINI~1\AppData\Local\Temp\ccAZ8Fmz.s:484    .text.Vector15C:00000000 $t
C:\Users\ADMINI~1\AppData\Local\Temp\ccAZ8Fmz.s:490    .text.Vector15C:00000000 Vector15C
C:\Users\ADMINI~1\AppData\Local\Temp\ccAZ8Fmz.s:515    .text.Vector15C:00000010 $d
C:\Users\ADMINI~1\AppData\Local\Temp\ccAZ8Fmz.s:520    .text.uart_lld_init:00000000 $t
C:\Users\ADMINI~1\AppData\Local\Temp\ccAZ8Fmz.s:526    .text.uart_lld_init:00000000 uart_lld_init
C:\Users\ADMINI~1\AppData\Local\Temp\ccAZ8Fmz.s:581    .text.uart_lld_init:00000034 $d
C:\Users\ADMINI~1\AppData\Local\Temp\ccAZ8Fmz.s:590    .text.uart_lld_start:00000000 $t
C:\Users\ADMINI~1\AppData\Local\Temp\ccAZ8Fmz.s:596    .text.uart_lld_start:00000000 uart_lld_start
C:\Users\ADMINI~1\AppData\Local\Temp\ccAZ8Fmz.s:882    .text.uart_lld_start:00000150 $d
C:\Users\ADMINI~1\AppData\Local\Temp\ccAZ8Fmz.s:895    .text.uart_lld_stop:00000000 $t
C:\Users\ADMINI~1\AppData\Local\Temp\ccAZ8Fmz.s:901    .text.uart_lld_stop:00000000 uart_lld_stop
C:\Users\ADMINI~1\AppData\Local\Temp\ccAZ8Fmz.s:970    .text.uart_lld_stop:00000050 $d
C:\Users\ADMINI~1\AppData\Local\Temp\ccAZ8Fmz.s:977    .text.uart_lld_start_send:00000000 $t
C:\Users\ADMINI~1\AppData\Local\Temp\ccAZ8Fmz.s:983    .text.uart_lld_start_send:00000000 uart_lld_start_send
C:\Users\ADMINI~1\AppData\Local\Temp\ccAZ8Fmz.s:1016   .text.uart_lld_stop_send:00000000 $t
C:\Users\ADMINI~1\AppData\Local\Temp\ccAZ8Fmz.s:1022   .text.uart_lld_stop_send:00000000 uart_lld_stop_send
C:\Users\ADMINI~1\AppData\Local\Temp\ccAZ8Fmz.s:1056   .text.uart_lld_start_receive:00000000 $t
C:\Users\ADMINI~1\AppData\Local\Temp\ccAZ8Fmz.s:1062   .text.uart_lld_start_receive:00000000 uart_lld_start_receive
C:\Users\ADMINI~1\AppData\Local\Temp\ccAZ8Fmz.s:1117   .text.uart_lld_stop_receive:00000000 $t
C:\Users\ADMINI~1\AppData\Local\Temp\ccAZ8Fmz.s:1123   .text.uart_lld_stop_receive:00000000 uart_lld_stop_receive
C:\Users\ADMINI~1\AppData\Local\Temp\ccAZ8Fmz.s:1228   .bss.UARTD6:00000000 UARTD6
C:\Users\ADMINI~1\AppData\Local\Temp\ccAZ8Fmz.s:1221   .bss.UARTD3:00000000 UARTD3
C:\Users\ADMINI~1\AppData\Local\Temp\ccAZ8Fmz.s:1217   .bss.UARTD3:00000000 $d
C:\Users\ADMINI~1\AppData\Local\Temp\ccAZ8Fmz.s:1224   .bss.UARTD6:00000000 $d
                     .debug_frame:00000010 $d

UNDEFINED SYMBOLS
port_halt
_port_irq_epilogue
uartObjectInit
_stm32_dma_streams
dmaStreamAllocate
nvicEnableVector
dmaStreamRelease
nvicDisableVector
