ARM GAS  C:\Users\jsyoon\AppData\Local\Temp\ccFxPA0N.s 			page 1


   1              		.syntax unified
   2              		.cpu cortex-m4
   3              		.eabi_attribute 27, 3
   4              		.eabi_attribute 28, 1
   5              		.fpu fpv4-sp-d16
   6              		.eabi_attribute 20, 1
   7              		.eabi_attribute 21, 1
   8              		.eabi_attribute 23, 3
   9              		.eabi_attribute 24, 1
  10              		.eabi_attribute 25, 1
  11              		.eabi_attribute 26, 1
  12              		.eabi_attribute 30, 2
  13              		.eabi_attribute 34, 1
  14              		.eabi_attribute 18, 4
  15              		.thumb
  16              		.file	"uart.c"
  17              		.text
  18              	.Ltext0:
  19              		.cfi_sections	.debug_frame
  20              		.section	.text.uartInit,"ax",%progbits
  21              		.align	2
  22              		.p2align 4,,15
  23              		.global	uartInit
  24              		.thumb
  25              		.thumb_func
  26              		.type	uartInit, %function
  27              	uartInit:
  28              	.LFB118:
  29              		.file 1 "ChibiOS_2.6.6/os/hal/src/uart.c"
  30              		.loc 1 68 0
  31              		.cfi_startproc
  32              		@ args = 0, pretend = 0, frame = 0
  33              		@ frame_needed = 0, uses_anonymous_args = 0
  34              		@ link register save eliminated.
  35              		.loc 1 70 0
  36 0000 FFF7FEBF 		b	uart_lld_init
  37              	.LVL0:
  38              		.cfi_endproc
  39              	.LFE118:
  40              		.size	uartInit, .-uartInit
  41 0004 AFF30080 		.section	.text.uartObjectInit,"ax",%progbits
  41      AFF30080 
  41      AFF30080 
  42              		.align	2
  43              		.p2align 4,,15
  44              		.global	uartObjectInit
  45              		.thumb
  46              		.thumb_func
  47              		.type	uartObjectInit, %function
  48              	uartObjectInit:
  49              	.LFB119:
  50              		.loc 1 80 0
  51              		.cfi_startproc
  52              		@ args = 0, pretend = 0, frame = 0
  53              		@ frame_needed = 0, uses_anonymous_args = 0
  54              		@ link register save eliminated.
  55              	.LVL1:
ARM GAS  C:\Users\jsyoon\AppData\Local\Temp\ccFxPA0N.s 			page 2


  56              		.loc 1 83 0
  57 0000 0023     		movs	r3, #0
  58              		.loc 1 82 0
  59 0002 0122     		movs	r2, #1
  60 0004 0270     		strb	r2, [r0]
  61              		.loc 1 83 0
  62 0006 4370     		strb	r3, [r0, #1]
  63              		.loc 1 84 0
  64 0008 8370     		strb	r3, [r0, #2]
  65              		.loc 1 85 0
  66 000a 4360     		str	r3, [r0, #4]
  67 000c 7047     		bx	lr
  68              		.cfi_endproc
  69              	.LFE119:
  70              		.size	uartObjectInit, .-uartObjectInit
  71 000e 00BF     		.section	.text.uartStart,"ax",%progbits
  72              		.align	2
  73              		.p2align 4,,15
  74              		.global	uartStart
  75              		.thumb
  76              		.thumb_func
  77              		.type	uartStart, %function
  78              	uartStart:
  79              	.LFB120:
  80              		.loc 1 100 0
  81              		.cfi_startproc
  82              		@ args = 0, pretend = 0, frame = 0
  83              		@ frame_needed = 0, uses_anonymous_args = 0
  84              	.LVL2:
  85 0000 10B5     		push	{r4, lr}
  86              		.cfi_def_cfa_offset 8
  87              		.cfi_offset 4, -8
  88              		.cfi_offset 14, -4
  89              		.loc 1 100 0
  90 0002 0446     		mov	r4, r0
  91              		.loc 1 104 0
  92              	@ 104 "ChibiOS_2.6.6/os/hal/src/uart.c" 1
  93 0004 72B6     		cpsid   i
  94              	@ 0 "" 2
  95              		.loc 1 108 0
  96              		.thumb
  97 0006 4160     		str	r1, [r0, #4]
  98              		.loc 1 109 0
  99 0008 FFF7FEFF 		bl	uart_lld_start
 100              	.LVL3:
 101              		.loc 1 110 0
 102 000c 0223     		movs	r3, #2
 103 000e 2370     		strb	r3, [r4]
 104              		.loc 1 111 0
 105              	@ 111 "ChibiOS_2.6.6/os/hal/src/uart.c" 1
 106 0010 62B6     		cpsie   i
 107              	@ 0 "" 2
 108              		.thumb
 109 0012 10BD     		pop	{r4, pc}
 110              		.cfi_endproc
 111              	.LFE120:
 112              		.size	uartStart, .-uartStart
ARM GAS  C:\Users\jsyoon\AppData\Local\Temp\ccFxPA0N.s 			page 3


 113 0014 AFF30080 		.section	.text.uartStop,"ax",%progbits
 113      AFF30080 
 113      AFF30080 
 114              		.align	2
 115              		.p2align 4,,15
 116              		.global	uartStop
 117              		.thumb
 118              		.thumb_func
 119              		.type	uartStop, %function
 120              	uartStop:
 121              	.LFB121:
 122              		.loc 1 121 0
 123              		.cfi_startproc
 124              		@ args = 0, pretend = 0, frame = 0
 125              		@ frame_needed = 0, uses_anonymous_args = 0
 126              	.LVL4:
 127 0000 10B5     		push	{r4, lr}
 128              		.cfi_def_cfa_offset 8
 129              		.cfi_offset 4, -8
 130              		.cfi_offset 14, -4
 131              		.loc 1 121 0
 132 0002 0446     		mov	r4, r0
 133              		.loc 1 125 0
 134              	@ 125 "ChibiOS_2.6.6/os/hal/src/uart.c" 1
 135 0004 72B6     		cpsid   i
 136              	@ 0 "" 2
 137              		.loc 1 129 0
 138              		.thumb
 139 0006 FFF7FEFF 		bl	uart_lld_stop
 140              	.LVL5:
 141              		.loc 1 131 0
 142 000a 0023     		movs	r3, #0
 143              		.loc 1 130 0
 144 000c 0122     		movs	r2, #1
 145 000e 2270     		strb	r2, [r4]
 146              		.loc 1 131 0
 147 0010 6370     		strb	r3, [r4, #1]
 148              		.loc 1 132 0
 149 0012 A370     		strb	r3, [r4, #2]
 150              		.loc 1 133 0
 151              	@ 133 "ChibiOS_2.6.6/os/hal/src/uart.c" 1
 152 0014 62B6     		cpsie   i
 153              	@ 0 "" 2
 154              		.thumb
 155 0016 10BD     		pop	{r4, pc}
 156              		.cfi_endproc
 157              	.LFE121:
 158              		.size	uartStop, .-uartStop
 159 0018 AFF30080 		.section	.text.uartStartSend,"ax",%progbits
 159      AFF30080 
 160              		.align	2
 161              		.p2align 4,,15
 162              		.global	uartStartSend
 163              		.thumb
 164              		.thumb_func
 165              		.type	uartStartSend, %function
 166              	uartStartSend:
ARM GAS  C:\Users\jsyoon\AppData\Local\Temp\ccFxPA0N.s 			page 4


 167              	.LFB122:
 168              		.loc 1 147 0
 169              		.cfi_startproc
 170              		@ args = 0, pretend = 0, frame = 0
 171              		@ frame_needed = 0, uses_anonymous_args = 0
 172              	.LVL6:
 173 0000 10B5     		push	{r4, lr}
 174              		.cfi_def_cfa_offset 8
 175              		.cfi_offset 4, -8
 176              		.cfi_offset 14, -4
 177              		.loc 1 147 0
 178 0002 0446     		mov	r4, r0
 179              		.loc 1 152 0
 180              	@ 152 "ChibiOS_2.6.6/os/hal/src/uart.c" 1
 181 0004 72B6     		cpsid   i
 182              	@ 0 "" 2
 183              		.loc 1 158 0
 184              		.thumb
 185 0006 FFF7FEFF 		bl	uart_lld_start_send
 186              	.LVL7:
 187              		.loc 1 159 0
 188 000a 0123     		movs	r3, #1
 189 000c 6370     		strb	r3, [r4, #1]
 190              		.loc 1 160 0
 191              	@ 160 "ChibiOS_2.6.6/os/hal/src/uart.c" 1
 192 000e 62B6     		cpsie   i
 193              	@ 0 "" 2
 194              		.thumb
 195 0010 10BD     		pop	{r4, pc}
 196              		.cfi_endproc
 197              	.LFE122:
 198              		.size	uartStartSend, .-uartStartSend
 199 0012 00BFAFF3 		.section	.text.uartStartSendI,"ax",%progbits
 199      0080AFF3 
 199      0080AFF3 
 199      0080
 200              		.align	2
 201              		.p2align 4,,15
 202              		.global	uartStartSendI
 203              		.thumb
 204              		.thumb_func
 205              		.type	uartStartSendI, %function
 206              	uartStartSendI:
 207              	.LFB123:
 208              		.loc 1 175 0
 209              		.cfi_startproc
 210              		@ args = 0, pretend = 0, frame = 0
 211              		@ frame_needed = 0, uses_anonymous_args = 0
 212              	.LVL8:
 213 0000 10B5     		push	{r4, lr}
 214              		.cfi_def_cfa_offset 8
 215              		.cfi_offset 4, -8
 216              		.cfi_offset 14, -4
 217              		.loc 1 175 0
 218 0002 0446     		mov	r4, r0
 219              		.loc 1 185 0
 220 0004 FFF7FEFF 		bl	uart_lld_start_send
ARM GAS  C:\Users\jsyoon\AppData\Local\Temp\ccFxPA0N.s 			page 5


 221              	.LVL9:
 222              		.loc 1 186 0
 223 0008 0123     		movs	r3, #1
 224 000a 6370     		strb	r3, [r4, #1]
 225 000c 10BD     		pop	{r4, pc}
 226              		.cfi_endproc
 227              	.LFE123:
 228              		.size	uartStartSendI, .-uartStartSendI
 229 000e 00BF     		.section	.text.uartStopSend,"ax",%progbits
 230              		.align	2
 231              		.p2align 4,,15
 232              		.global	uartStopSend
 233              		.thumb
 234              		.thumb_func
 235              		.type	uartStopSend, %function
 236              	uartStopSend:
 237              	.LFB124:
 238              		.loc 1 201 0
 239              		.cfi_startproc
 240              		@ args = 0, pretend = 0, frame = 0
 241              		@ frame_needed = 0, uses_anonymous_args = 0
 242              	.LVL10:
 243 0000 10B5     		push	{r4, lr}
 244              		.cfi_def_cfa_offset 8
 245              		.cfi_offset 4, -8
 246              		.cfi_offset 14, -4
 247              		.loc 1 201 0
 248 0002 0446     		mov	r4, r0
 249              		.loc 1 206 0
 250              	@ 206 "ChibiOS_2.6.6/os/hal/src/uart.c" 1
 251 0004 72B6     		cpsid   i
 252              	@ 0 "" 2
 253              		.loc 1 209 0
 254              		.thumb
 255 0006 4378     		ldrb	r3, [r0, #1]	@ zero_extendqisi2
 256 0008 012B     		cmp	r3, #1
 257 000a 02D0     		beq	.L11
 258              		.loc 1 214 0
 259 000c 0020     		movs	r0, #0
 260              	.LVL11:
 261              		.loc 1 215 0
 262              	@ 215 "ChibiOS_2.6.6/os/hal/src/uart.c" 1
 263 000e 62B6     		cpsie   i
 264              	@ 0 "" 2
 265              		.loc 1 217 0
 266              		.thumb
 267 0010 10BD     		pop	{r4, pc}
 268              	.LVL12:
 269              	.L11:
 270              		.loc 1 210 0
 271 0012 FFF7FEFF 		bl	uart_lld_stop_send
 272              	.LVL13:
 273              		.loc 1 211 0
 274 0016 0023     		movs	r3, #0
 275 0018 6370     		strb	r3, [r4, #1]
 276              		.loc 1 215 0
 277              	@ 215 "ChibiOS_2.6.6/os/hal/src/uart.c" 1
ARM GAS  C:\Users\jsyoon\AppData\Local\Temp\ccFxPA0N.s 			page 6


 278 001a 62B6     		cpsie   i
 279              	@ 0 "" 2
 280              		.loc 1 217 0
 281              		.thumb
 282 001c 10BD     		pop	{r4, pc}
 283              		.cfi_endproc
 284              	.LFE124:
 285              		.size	uartStopSend, .-uartStopSend
 286 001e 00BF     		.section	.text.uartStopSendI,"ax",%progbits
 287              		.align	2
 288              		.p2align 4,,15
 289              		.global	uartStopSendI
 290              		.thumb
 291              		.thumb_func
 292              		.type	uartStopSendI, %function
 293              	uartStopSendI:
 294              	.LFB125:
 295              		.loc 1 232 0
 296              		.cfi_startproc
 297              		@ args = 0, pretend = 0, frame = 0
 298              		@ frame_needed = 0, uses_anonymous_args = 0
 299              	.LVL14:
 300              		.loc 1 238 0
 301 0000 4378     		ldrb	r3, [r0, #1]	@ zero_extendqisi2
 302 0002 012B     		cmp	r3, #1
 303              		.loc 1 232 0
 304 0004 10B5     		push	{r4, lr}
 305              		.cfi_def_cfa_offset 8
 306              		.cfi_offset 4, -8
 307              		.cfi_offset 14, -4
 308              		.loc 1 232 0
 309 0006 0446     		mov	r4, r0
 310              		.loc 1 238 0
 311 0008 01D0     		beq	.L15
 312              		.loc 1 243 0
 313 000a 0020     		movs	r0, #0
 314              	.LVL15:
 315              		.loc 1 244 0
 316 000c 10BD     		pop	{r4, pc}
 317              	.LVL16:
 318              	.L15:
 319              	.LBB2:
 320              		.loc 1 239 0
 321 000e FFF7FEFF 		bl	uart_lld_stop_send
 322              	.LVL17:
 323              		.loc 1 240 0
 324 0012 0023     		movs	r3, #0
 325 0014 6370     		strb	r3, [r4, #1]
 326              		.loc 1 241 0
 327 0016 10BD     		pop	{r4, pc}
 328              	.LBE2:
 329              		.cfi_endproc
 330              	.LFE125:
 331              		.size	uartStopSendI, .-uartStopSendI
 332 0018 AFF30080 		.section	.text.uartStartReceive,"ax",%progbits
 332      AFF30080 
 333              		.align	2
ARM GAS  C:\Users\jsyoon\AppData\Local\Temp\ccFxPA0N.s 			page 7


 334              		.p2align 4,,15
 335              		.global	uartStartReceive
 336              		.thumb
 337              		.thumb_func
 338              		.type	uartStartReceive, %function
 339              	uartStartReceive:
 340              	.LFB126:
 341              		.loc 1 257 0
 342              		.cfi_startproc
 343              		@ args = 0, pretend = 0, frame = 0
 344              		@ frame_needed = 0, uses_anonymous_args = 0
 345              	.LVL18:
 346 0000 10B5     		push	{r4, lr}
 347              		.cfi_def_cfa_offset 8
 348              		.cfi_offset 4, -8
 349              		.cfi_offset 14, -4
 350              		.loc 1 257 0
 351 0002 0446     		mov	r4, r0
 352              		.loc 1 262 0
 353              	@ 262 "ChibiOS_2.6.6/os/hal/src/uart.c" 1
 354 0004 72B6     		cpsid   i
 355              	@ 0 "" 2
 356              		.loc 1 268 0
 357              		.thumb
 358 0006 FFF7FEFF 		bl	uart_lld_start_receive
 359              	.LVL19:
 360              		.loc 1 269 0
 361 000a 0123     		movs	r3, #1
 362 000c A370     		strb	r3, [r4, #2]
 363              		.loc 1 270 0
 364              	@ 270 "ChibiOS_2.6.6/os/hal/src/uart.c" 1
 365 000e 62B6     		cpsie   i
 366              	@ 0 "" 2
 367              		.thumb
 368 0010 10BD     		pop	{r4, pc}
 369              		.cfi_endproc
 370              	.LFE126:
 371              		.size	uartStartReceive, .-uartStartReceive
 372 0012 00BFAFF3 		.section	.text.uartStartReceiveI,"ax",%progbits
 372      0080AFF3 
 372      0080AFF3 
 372      0080
 373              		.align	2
 374              		.p2align 4,,15
 375              		.global	uartStartReceiveI
 376              		.thumb
 377              		.thumb_func
 378              		.type	uartStartReceiveI, %function
 379              	uartStartReceiveI:
 380              	.LFB127:
 381              		.loc 1 285 0
 382              		.cfi_startproc
 383              		@ args = 0, pretend = 0, frame = 0
 384              		@ frame_needed = 0, uses_anonymous_args = 0
 385              	.LVL20:
 386 0000 10B5     		push	{r4, lr}
 387              		.cfi_def_cfa_offset 8
ARM GAS  C:\Users\jsyoon\AppData\Local\Temp\ccFxPA0N.s 			page 8


 388              		.cfi_offset 4, -8
 389              		.cfi_offset 14, -4
 390              		.loc 1 285 0
 391 0002 0446     		mov	r4, r0
 392              		.loc 1 295 0
 393 0004 FFF7FEFF 		bl	uart_lld_start_receive
 394              	.LVL21:
 395              		.loc 1 296 0
 396 0008 0123     		movs	r3, #1
 397 000a A370     		strb	r3, [r4, #2]
 398 000c 10BD     		pop	{r4, pc}
 399              		.cfi_endproc
 400              	.LFE127:
 401              		.size	uartStartReceiveI, .-uartStartReceiveI
 402 000e 00BF     		.section	.text.uartStopReceive,"ax",%progbits
 403              		.align	2
 404              		.p2align 4,,15
 405              		.global	uartStopReceive
 406              		.thumb
 407              		.thumb_func
 408              		.type	uartStopReceive, %function
 409              	uartStopReceive:
 410              	.LFB128:
 411              		.loc 1 311 0
 412              		.cfi_startproc
 413              		@ args = 0, pretend = 0, frame = 0
 414              		@ frame_needed = 0, uses_anonymous_args = 0
 415              	.LVL22:
 416 0000 10B5     		push	{r4, lr}
 417              		.cfi_def_cfa_offset 8
 418              		.cfi_offset 4, -8
 419              		.cfi_offset 14, -4
 420              		.loc 1 311 0
 421 0002 0446     		mov	r4, r0
 422              		.loc 1 316 0
 423              	@ 316 "ChibiOS_2.6.6/os/hal/src/uart.c" 1
 424 0004 72B6     		cpsid   i
 425              	@ 0 "" 2
 426              		.loc 1 320 0
 427              		.thumb
 428 0006 8378     		ldrb	r3, [r0, #2]	@ zero_extendqisi2
 429 0008 012B     		cmp	r3, #1
 430 000a 02D0     		beq	.L21
 431              		.loc 1 325 0
 432 000c 0020     		movs	r0, #0
 433              	.LVL23:
 434              		.loc 1 326 0
 435              	@ 326 "ChibiOS_2.6.6/os/hal/src/uart.c" 1
 436 000e 62B6     		cpsie   i
 437              	@ 0 "" 2
 438              		.loc 1 328 0
 439              		.thumb
 440 0010 10BD     		pop	{r4, pc}
 441              	.LVL24:
 442              	.L21:
 443              		.loc 1 321 0
 444 0012 FFF7FEFF 		bl	uart_lld_stop_receive
ARM GAS  C:\Users\jsyoon\AppData\Local\Temp\ccFxPA0N.s 			page 9


 445              	.LVL25:
 446              		.loc 1 322 0
 447 0016 0023     		movs	r3, #0
 448 0018 A370     		strb	r3, [r4, #2]
 449              		.loc 1 326 0
 450              	@ 326 "ChibiOS_2.6.6/os/hal/src/uart.c" 1
 451 001a 62B6     		cpsie   i
 452              	@ 0 "" 2
 453              		.loc 1 328 0
 454              		.thumb
 455 001c 10BD     		pop	{r4, pc}
 456              		.cfi_endproc
 457              	.LFE128:
 458              		.size	uartStopReceive, .-uartStopReceive
 459 001e 00BF     		.section	.text.uartStopReceiveI,"ax",%progbits
 460              		.align	2
 461              		.p2align 4,,15
 462              		.global	uartStopReceiveI
 463              		.thumb
 464              		.thumb_func
 465              		.type	uartStopReceiveI, %function
 466              	uartStopReceiveI:
 467              	.LFB129:
 468              		.loc 1 343 0
 469              		.cfi_startproc
 470              		@ args = 0, pretend = 0, frame = 0
 471              		@ frame_needed = 0, uses_anonymous_args = 0
 472              	.LVL26:
 473              		.loc 1 350 0
 474 0000 8378     		ldrb	r3, [r0, #2]	@ zero_extendqisi2
 475 0002 012B     		cmp	r3, #1
 476              		.loc 1 343 0
 477 0004 10B5     		push	{r4, lr}
 478              		.cfi_def_cfa_offset 8
 479              		.cfi_offset 4, -8
 480              		.cfi_offset 14, -4
 481              		.loc 1 343 0
 482 0006 0446     		mov	r4, r0
 483              		.loc 1 350 0
 484 0008 01D0     		beq	.L25
 485              		.loc 1 355 0
 486 000a 0020     		movs	r0, #0
 487              	.LVL27:
 488              		.loc 1 356 0
 489 000c 10BD     		pop	{r4, pc}
 490              	.LVL28:
 491              	.L25:
 492              	.LBB3:
 493              		.loc 1 351 0
 494 000e FFF7FEFF 		bl	uart_lld_stop_receive
 495              	.LVL29:
 496              		.loc 1 352 0
 497 0012 0023     		movs	r3, #0
 498 0014 A370     		strb	r3, [r4, #2]
 499              		.loc 1 353 0
 500 0016 10BD     		pop	{r4, pc}
 501              	.LBE3:
ARM GAS  C:\Users\jsyoon\AppData\Local\Temp\ccFxPA0N.s 			page 10


 502              		.cfi_endproc
 503              	.LFE129:
 504              		.size	uartStopReceiveI, .-uartStopReceiveI
 505 0018 AFF30080 		.text
 505      AFF30080 
 506              	.Letext0:
 507              		.file 2 "c:\\crosstools\\gcc-arm-embedded\\4.8_2014q2\\lib\\gcc\\arm-none-eabi\\4.8.4\\include\\st
 508              		.file 3 "c:\\crosstools\\gcc-arm-embedded\\4.8_2014q2\\arm-none-eabi\\include\\machine\\_default_t
 509              		.file 4 "c:\\crosstools\\gcc-arm-embedded\\4.8_2014q2\\arm-none-eabi\\include\\stdint.h"
 510              		.file 5 "ChibiOS_2.6.6/os/hal/platforms/STM32F4xx/stm32f4xx.h"
 511              		.file 6 "ChibiOS_2.6.6/os/hal/platforms/STM32F4xx/stm32_dma.h"
 512              		.file 7 "ChibiOS_2.6.6/os/hal/include/uart.h"
 513              		.file 8 "ChibiOS_2.6.6/os/hal/platforms/STM32/USARTv1/uart_lld.h"
 514              		.file 9 "ChibiOS_2.6.6/os/ports/common/ARMCMx/CMSIS/include/core_cm4.h"