ARM GAS  C:\Users\ADMINI~1\AppData\Local\Temp\ccR5lzz6.s 			page 1


   1              		.syntax unified
   2              		.cpu cortex-m4
   3              		.eabi_attribute 27, 1
   4              		.eabi_attribute 28, 1
   5              		.fpu fpv4-sp-d16
   6              		.eabi_attribute 20, 1
   7              		.eabi_attribute 21, 1
   8              		.eabi_attribute 23, 3
   9              		.eabi_attribute 24, 1
  10              		.eabi_attribute 25, 1
  11              		.eabi_attribute 26, 1
  12              		.eabi_attribute 30, 2
  13              		.eabi_attribute 34, 1
  14              		.eabi_attribute 18, 4
  15              		.thumb
  16              		.file	"uart.c"
  17              		.text
  18              	.Ltext0:
  19              		.cfi_sections	.debug_frame
  20              		.section	.text.uartInit,"ax",%progbits
  21              		.align	2
  22              		.p2align 4,,15
  23              		.global	uartInit
  24              		.thumb
  25              		.thumb_func
  26              		.type	uartInit, %function
  27              	uartInit:
  28              	.LFB118:
  29              		.file 1 "ChibiOS_2.6.6/os/hal/src/uart.c"
  30              		.loc 1 68 0
  31              		.cfi_startproc
  32              		@ args = 0, pretend = 0, frame = 0
  33              		@ frame_needed = 0, uses_anonymous_args = 0
  34              		@ link register save eliminated.
  35              		.loc 1 70 0
  36 0000 FFF7FEBF 		b	uart_lld_init
  37              	.LVL0:
  38              		.cfi_endproc
  39              	.LFE118:
  40              		.size	uartInit, .-uartInit
  41              		.section	.text.uartObjectInit,"ax",%progbits
  42              		.align	2
  43              		.p2align 4,,15
  44              		.global	uartObjectInit
  45              		.thumb
  46              		.thumb_func
  47              		.type	uartObjectInit, %function
  48              	uartObjectInit:
  49              	.LFB119:
  50              		.loc 1 80 0
  51              		.cfi_startproc
  52              		@ args = 0, pretend = 0, frame = 0
  53              		@ frame_needed = 0, uses_anonymous_args = 0
  54              		@ link register save eliminated.
  55              	.LVL1:
  56              		.loc 1 83 0
  57 0000 0023     		movs	r3, #0
ARM GAS  C:\Users\ADMINI~1\AppData\Local\Temp\ccR5lzz6.s 			page 2


  58              		.loc 1 82 0
  59 0002 0122     		movs	r2, #1
  60 0004 0270     		strb	r2, [r0]
  61              		.loc 1 83 0
  62 0006 4370     		strb	r3, [r0, #1]
  63              		.loc 1 84 0
  64 0008 8370     		strb	r3, [r0, #2]
  65              		.loc 1 85 0
  66 000a 4360     		str	r3, [r0, #4]
  67 000c 7047     		bx	lr
  68              		.cfi_endproc
  69              	.LFE119:
  70              		.size	uartObjectInit, .-uartObjectInit
  71 000e 00BF     		.section	.text.uartStart,"ax",%progbits
  72              		.align	2
  73              		.p2align 4,,15
  74              		.global	uartStart
  75              		.thumb
  76              		.thumb_func
  77              		.type	uartStart, %function
  78              	uartStart:
  79              	.LFB120:
  80              		.loc 1 100 0
  81              		.cfi_startproc
  82              		@ args = 0, pretend = 0, frame = 0
  83              		@ frame_needed = 0, uses_anonymous_args = 0
  84              	.LVL2:
  85 0000 10B5     		push	{r4, lr}
  86              		.cfi_def_cfa_offset 8
  87              		.cfi_offset 4, -8
  88              		.cfi_offset 14, -4
  89              		.loc 1 100 0
  90 0002 0446     		mov	r4, r0
  91              		.loc 1 104 0
  92              	@ 104 "ChibiOS_2.6.6/os/hal/src/uart.c" 1
  93 0004 72B6     		cpsid   i
  94              	@ 0 "" 2
  95              		.loc 1 108 0
  96              		.thumb
  97 0006 4160     		str	r1, [r0, #4]
  98              		.loc 1 109 0
  99 0008 FFF7FEFF 		bl	uart_lld_start
 100              	.LVL3:
 101              		.loc 1 110 0
 102 000c 0223     		movs	r3, #2
 103 000e 2370     		strb	r3, [r4]
 104              		.loc 1 111 0
 105              	@ 111 "ChibiOS_2.6.6/os/hal/src/uart.c" 1
 106 0010 62B6     		cpsie   i
 107              	@ 0 "" 2
 108              		.thumb
 109 0012 10BD     		pop	{r4, pc}
 110              		.cfi_endproc
 111              	.LFE120:
 112              		.size	uartStart, .-uartStart
 113              		.section	.text.uartStop,"ax",%progbits
 114              		.align	2
ARM GAS  C:\Users\ADMINI~1\AppData\Local\Temp\ccR5lzz6.s 			page 3


 115              		.p2align 4,,15
 116              		.global	uartStop
 117              		.thumb
 118              		.thumb_func
 119              		.type	uartStop, %function
 120              	uartStop:
 121              	.LFB121:
 122              		.loc 1 121 0
 123              		.cfi_startproc
 124              		@ args = 0, pretend = 0, frame = 0
 125              		@ frame_needed = 0, uses_anonymous_args = 0
 126              	.LVL4:
 127 0000 10B5     		push	{r4, lr}
 128              		.cfi_def_cfa_offset 8
 129              		.cfi_offset 4, -8
 130              		.cfi_offset 14, -4
 131              		.loc 1 121 0
 132 0002 0446     		mov	r4, r0
 133              		.loc 1 125 0
 134              	@ 125 "ChibiOS_2.6.6/os/hal/src/uart.c" 1
 135 0004 72B6     		cpsid   i
 136              	@ 0 "" 2
 137              		.loc 1 129 0
 138              		.thumb
 139 0006 FFF7FEFF 		bl	uart_lld_stop
 140              	.LVL5:
 141              		.loc 1 131 0
 142 000a 0023     		movs	r3, #0
 143              		.loc 1 130 0
 144 000c 0122     		movs	r2, #1
 145 000e 2270     		strb	r2, [r4]
 146              		.loc 1 131 0
 147 0010 6370     		strb	r3, [r4, #1]
 148              		.loc 1 132 0
 149 0012 A370     		strb	r3, [r4, #2]
 150              		.loc 1 133 0
 151              	@ 133 "ChibiOS_2.6.6/os/hal/src/uart.c" 1
 152 0014 62B6     		cpsie   i
 153              	@ 0 "" 2
 154              		.thumb
 155 0016 10BD     		pop	{r4, pc}
 156              		.cfi_endproc
 157              	.LFE121:
 158              		.size	uartStop, .-uartStop
 159              		.section	.text.uartStartSend,"ax",%progbits
 160              		.align	2
 161              		.p2align 4,,15
 162              		.global	uartStartSend
 163              		.thumb
 164              		.thumb_func
 165              		.type	uartStartSend, %function
 166              	uartStartSend:
 167              	.LFB122:
 168              		.loc 1 147 0
 169              		.cfi_startproc
 170              		@ args = 0, pretend = 0, frame = 0
 171              		@ frame_needed = 0, uses_anonymous_args = 0
ARM GAS  C:\Users\ADMINI~1\AppData\Local\Temp\ccR5lzz6.s 			page 4


 172              	.LVL6:
 173 0000 10B5     		push	{r4, lr}
 174              		.cfi_def_cfa_offset 8
 175              		.cfi_offset 4, -8
 176              		.cfi_offset 14, -4
 177              		.loc 1 147 0
 178 0002 0446     		mov	r4, r0
 179              		.loc 1 152 0
 180              	@ 152 "ChibiOS_2.6.6/os/hal/src/uart.c" 1
 181 0004 72B6     		cpsid   i
 182              	@ 0 "" 2
 183              		.loc 1 158 0
 184              		.thumb
 185 0006 FFF7FEFF 		bl	uart_lld_start_send
 186              	.LVL7:
 187              		.loc 1 159 0
 188 000a 0123     		movs	r3, #1
 189 000c 6370     		strb	r3, [r4, #1]
 190              		.loc 1 160 0
 191              	@ 160 "ChibiOS_2.6.6/os/hal/src/uart.c" 1
 192 000e 62B6     		cpsie   i
 193              	@ 0 "" 2
 194              		.thumb
 195 0010 10BD     		pop	{r4, pc}
 196              		.cfi_endproc
 197              	.LFE122:
 198              		.size	uartStartSend, .-uartStartSend
 199 0012 00BF     		.section	.text.uartStartSendI,"ax",%progbits
 200              		.align	2
 201              		.p2align 4,,15
 202              		.global	uartStartSendI
 203              		.thumb
 204              		.thumb_func
 205              		.type	uartStartSendI, %function
 206              	uartStartSendI:
 207              	.LFB123:
 208              		.loc 1 175 0
 209              		.cfi_startproc
 210              		@ args = 0, pretend = 0, frame = 0
 211              		@ frame_needed = 0, uses_anonymous_args = 0
 212              	.LVL8:
 213 0000 10B5     		push	{r4, lr}
 214              		.cfi_def_cfa_offset 8
 215              		.cfi_offset 4, -8
 216              		.cfi_offset 14, -4
 217              		.loc 1 175 0
 218 0002 0446     		mov	r4, r0
 219              		.loc 1 185 0
 220 0004 FFF7FEFF 		bl	uart_lld_start_send
 221              	.LVL9:
 222              		.loc 1 186 0
 223 0008 0123     		movs	r3, #1
 224 000a 6370     		strb	r3, [r4, #1]
 225 000c 10BD     		pop	{r4, pc}
 226              		.cfi_endproc
 227              	.LFE123:
 228              		.size	uartStartSendI, .-uartStartSendI
ARM GAS  C:\Users\ADMINI~1\AppData\Local\Temp\ccR5lzz6.s 			page 5


 229 000e 00BF     		.section	.text.uartStopSend,"ax",%progbits
 230              		.align	2
 231              		.p2align 4,,15
 232              		.global	uartStopSend
 233              		.thumb
 234              		.thumb_func
 235              		.type	uartStopSend, %function
 236              	uartStopSend:
 237              	.LFB124:
 238              		.loc 1 201 0
 239              		.cfi_startproc
 240              		@ args = 0, pretend = 0, frame = 0
 241              		@ frame_needed = 0, uses_anonymous_args = 0
 242              	.LVL10:
 243              		.loc 1 206 0
 244              	@ 206 "ChibiOS_2.6.6/os/hal/src/uart.c" 1
 245 0000 72B6     		cpsid   i
 246              	@ 0 "" 2
 247              		.loc 1 209 0
 248              		.thumb
 249 0002 4278     		ldrb	r2, [r0, #1]	@ zero_extendqisi2
 250 0004 012A     		cmp	r2, #1
 251 0006 02D0     		beq	.L17
 252              		.loc 1 214 0
 253 0008 0020     		movs	r0, #0
 254              	.LVL11:
 255              		.loc 1 215 0
 256              	@ 215 "ChibiOS_2.6.6/os/hal/src/uart.c" 1
 257 000a 62B6     		cpsie   i
 258              	@ 0 "" 2
 259              		.loc 1 217 0
 260              		.thumb
 261 000c 7047     		bx	lr
 262              	.LVL12:
 263              	.L17:
 264              		.loc 1 201 0
 265 000e 10B5     		push	{r4, lr}
 266              		.cfi_def_cfa_offset 8
 267              		.cfi_offset 4, -8
 268              		.cfi_offset 14, -4
 269 0010 0446     		mov	r4, r0
 270              		.loc 1 210 0
 271 0012 FFF7FEFF 		bl	uart_lld_stop_send
 272              	.LVL13:
 273              		.loc 1 211 0
 274 0016 0023     		movs	r3, #0
 275 0018 6370     		strb	r3, [r4, #1]
 276              		.loc 1 215 0
 277              	@ 215 "ChibiOS_2.6.6/os/hal/src/uart.c" 1
 278 001a 62B6     		cpsie   i
 279              	@ 0 "" 2
 280              		.loc 1 217 0
 281              		.thumb
 282 001c 10BD     		pop	{r4, pc}
 283              		.cfi_endproc
 284              	.LFE124:
 285              		.size	uartStopSend, .-uartStopSend
ARM GAS  C:\Users\ADMINI~1\AppData\Local\Temp\ccR5lzz6.s 			page 6


 286 001e 00BF     		.section	.text.uartStopSendI,"ax",%progbits
 287              		.align	2
 288              		.p2align 4,,15
 289              		.global	uartStopSendI
 290              		.thumb
 291              		.thumb_func
 292              		.type	uartStopSendI, %function
 293              	uartStopSendI:
 294              	.LFB125:
 295              		.loc 1 232 0
 296              		.cfi_startproc
 297              		@ args = 0, pretend = 0, frame = 0
 298              		@ frame_needed = 0, uses_anonymous_args = 0
 299              	.LVL14:
 300              		.loc 1 238 0
 301 0000 4278     		ldrb	r2, [r0, #1]	@ zero_extendqisi2
 302 0002 012A     		cmp	r2, #1
 303 0004 01D0     		beq	.L23
 304              		.loc 1 243 0
 305 0006 0020     		movs	r0, #0
 306              	.LVL15:
 307 0008 7047     		bx	lr
 308              	.LVL16:
 309              	.L23:
 310              		.loc 1 232 0
 311 000a 10B5     		push	{r4, lr}
 312              		.cfi_def_cfa_offset 8
 313              		.cfi_offset 4, -8
 314              		.cfi_offset 14, -4
 315 000c 0446     		mov	r4, r0
 316              	.LBB2:
 317              		.loc 1 239 0
 318 000e FFF7FEFF 		bl	uart_lld_stop_send
 319              	.LVL17:
 320              		.loc 1 240 0
 321 0012 0023     		movs	r3, #0
 322 0014 6370     		strb	r3, [r4, #1]
 323              		.loc 1 241 0
 324 0016 10BD     		pop	{r4, pc}
 325              	.LBE2:
 326              		.cfi_endproc
 327              	.LFE125:
 328              		.size	uartStopSendI, .-uartStopSendI
 329              		.section	.text.uartStartReceive,"ax",%progbits
 330              		.align	2
 331              		.p2align 4,,15
 332              		.global	uartStartReceive
 333              		.thumb
 334              		.thumb_func
 335              		.type	uartStartReceive, %function
 336              	uartStartReceive:
 337              	.LFB126:
 338              		.loc 1 257 0
 339              		.cfi_startproc
 340              		@ args = 0, pretend = 0, frame = 0
 341              		@ frame_needed = 0, uses_anonymous_args = 0
 342              	.LVL18:
ARM GAS  C:\Users\ADMINI~1\AppData\Local\Temp\ccR5lzz6.s 			page 7


 343 0000 10B5     		push	{r4, lr}
 344              		.cfi_def_cfa_offset 8
 345              		.cfi_offset 4, -8
 346              		.cfi_offset 14, -4
 347              		.loc 1 257 0
 348 0002 0446     		mov	r4, r0
 349              		.loc 1 262 0
 350              	@ 262 "ChibiOS_2.6.6/os/hal/src/uart.c" 1
 351 0004 72B6     		cpsid   i
 352              	@ 0 "" 2
 353              		.loc 1 268 0
 354              		.thumb
 355 0006 FFF7FEFF 		bl	uart_lld_start_receive
 356              	.LVL19:
 357              		.loc 1 269 0
 358 000a 0123     		movs	r3, #1
 359 000c A370     		strb	r3, [r4, #2]
 360              		.loc 1 270 0
 361              	@ 270 "ChibiOS_2.6.6/os/hal/src/uart.c" 1
 362 000e 62B6     		cpsie   i
 363              	@ 0 "" 2
 364              		.thumb
 365 0010 10BD     		pop	{r4, pc}
 366              		.cfi_endproc
 367              	.LFE126:
 368              		.size	uartStartReceive, .-uartStartReceive
 369 0012 00BF     		.section	.text.uartStartReceiveI,"ax",%progbits
 370              		.align	2
 371              		.p2align 4,,15
 372              		.global	uartStartReceiveI
 373              		.thumb
 374              		.thumb_func
 375              		.type	uartStartReceiveI, %function
 376              	uartStartReceiveI:
 377              	.LFB127:
 378              		.loc 1 285 0
 379              		.cfi_startproc
 380              		@ args = 0, pretend = 0, frame = 0
 381              		@ frame_needed = 0, uses_anonymous_args = 0
 382              	.LVL20:
 383 0000 10B5     		push	{r4, lr}
 384              		.cfi_def_cfa_offset 8
 385              		.cfi_offset 4, -8
 386              		.cfi_offset 14, -4
 387              		.loc 1 285 0
 388 0002 0446     		mov	r4, r0
 389              		.loc 1 295 0
 390 0004 FFF7FEFF 		bl	uart_lld_start_receive
 391              	.LVL21:
 392              		.loc 1 296 0
 393 0008 0123     		movs	r3, #1
 394 000a A370     		strb	r3, [r4, #2]
 395 000c 10BD     		pop	{r4, pc}
 396              		.cfi_endproc
 397              	.LFE127:
 398              		.size	uartStartReceiveI, .-uartStartReceiveI
 399 000e 00BF     		.section	.text.uartStopReceive,"ax",%progbits
ARM GAS  C:\Users\ADMINI~1\AppData\Local\Temp\ccR5lzz6.s 			page 8


 400              		.align	2
 401              		.p2align 4,,15
 402              		.global	uartStopReceive
 403              		.thumb
 404              		.thumb_func
 405              		.type	uartStopReceive, %function
 406              	uartStopReceive:
 407              	.LFB128:
 408              		.loc 1 311 0
 409              		.cfi_startproc
 410              		@ args = 0, pretend = 0, frame = 0
 411              		@ frame_needed = 0, uses_anonymous_args = 0
 412              	.LVL22:
 413              		.loc 1 316 0
 414              	@ 316 "ChibiOS_2.6.6/os/hal/src/uart.c" 1
 415 0000 72B6     		cpsid   i
 416              	@ 0 "" 2
 417              		.loc 1 320 0
 418              		.thumb
 419 0002 8278     		ldrb	r2, [r0, #2]	@ zero_extendqisi2
 420 0004 012A     		cmp	r2, #1
 421 0006 02D0     		beq	.L33
 422              		.loc 1 325 0
 423 0008 0020     		movs	r0, #0
 424              	.LVL23:
 425              		.loc 1 326 0
 426              	@ 326 "ChibiOS_2.6.6/os/hal/src/uart.c" 1
 427 000a 62B6     		cpsie   i
 428              	@ 0 "" 2
 429              		.loc 1 328 0
 430              		.thumb
 431 000c 7047     		bx	lr
 432              	.LVL24:
 433              	.L33:
 434              		.loc 1 311 0
 435 000e 10B5     		push	{r4, lr}
 436              		.cfi_def_cfa_offset 8
 437              		.cfi_offset 4, -8
 438              		.cfi_offset 14, -4
 439 0010 0446     		mov	r4, r0
 440              		.loc 1 321 0
 441 0012 FFF7FEFF 		bl	uart_lld_stop_receive
 442              	.LVL25:
 443              		.loc 1 322 0
 444 0016 0023     		movs	r3, #0
 445 0018 A370     		strb	r3, [r4, #2]
 446              		.loc 1 326 0
 447              	@ 326 "ChibiOS_2.6.6/os/hal/src/uart.c" 1
 448 001a 62B6     		cpsie   i
 449              	@ 0 "" 2
 450              		.loc 1 328 0
 451              		.thumb
 452 001c 10BD     		pop	{r4, pc}
 453              		.cfi_endproc
 454              	.LFE128:
 455              		.size	uartStopReceive, .-uartStopReceive
 456 001e 00BF     		.section	.text.uartStopReceiveI,"ax",%progbits
ARM GAS  C:\Users\ADMINI~1\AppData\Local\Temp\ccR5lzz6.s 			page 9


 457              		.align	2
 458              		.p2align 4,,15
 459              		.global	uartStopReceiveI
 460              		.thumb
 461              		.thumb_func
 462              		.type	uartStopReceiveI, %function
 463              	uartStopReceiveI:
 464              	.LFB129:
 465              		.loc 1 343 0
 466              		.cfi_startproc
 467              		@ args = 0, pretend = 0, frame = 0
 468              		@ frame_needed = 0, uses_anonymous_args = 0
 469              	.LVL26:
 470              		.loc 1 350 0
 471 0000 8278     		ldrb	r2, [r0, #2]	@ zero_extendqisi2
 472 0002 012A     		cmp	r2, #1
 473 0004 01D0     		beq	.L39
 474              		.loc 1 355 0
 475 0006 0020     		movs	r0, #0
 476              	.LVL27:
 477 0008 7047     		bx	lr
 478              	.LVL28:
 479              	.L39:
 480              		.loc 1 343 0
 481 000a 10B5     		push	{r4, lr}
 482              		.cfi_def_cfa_offset 8
 483              		.cfi_offset 4, -8
 484              		.cfi_offset 14, -4
 485 000c 0446     		mov	r4, r0
 486              	.LBB3:
 487              		.loc 1 351 0
 488 000e FFF7FEFF 		bl	uart_lld_stop_receive
 489              	.LVL29:
 490              		.loc 1 352 0
 491 0012 0023     		movs	r3, #0
 492 0014 A370     		strb	r3, [r4, #2]
 493              		.loc 1 353 0
 494 0016 10BD     		pop	{r4, pc}
 495              	.LBE3:
 496              		.cfi_endproc
 497              	.LFE129:
 498              		.size	uartStopReceiveI, .-uartStopReceiveI
 499              		.text
 500              	.Letext0:
 501              		.file 2 "c:\\program files\\gnu tools arm embedded\\4.9 2015q2\\lib\\gcc\\arm-none-eabi\\4.9.3\\in
 502              		.file 3 "c:\\program files\\gnu tools arm embedded\\4.9 2015q2\\arm-none-eabi\\include\\machine\\_
 503              		.file 4 "c:\\program files\\gnu tools arm embedded\\4.9 2015q2\\arm-none-eabi\\include\\sys\\_stdi
 504              		.file 5 "ChibiOS_2.6.6/os/hal/platforms/STM32F4xx/stm32f4xx.h"
 505              		.file 6 "ChibiOS_2.6.6/os/hal/platforms/STM32F4xx/stm32_dma.h"
 506              		.file 7 "ChibiOS_2.6.6/os/hal/include/uart.h"
 507              		.file 8 "ChibiOS_2.6.6/os/hal/platforms/STM32/USARTv1/uart_lld.h"
 508              		.file 9 "ChibiOS_2.6.6/os/ports/common/ARMCMx/CMSIS/include/core_cm4.h"
 509              		.section	.debug_info,"",%progbits
 510              	.Ldebug_info0:
 511 0000 A1080000 		.4byte	0x8a1
 512 0004 0400     		.2byte	0x4
 513 0006 00000000 		.4byte	.Ldebug_abbrev0
ARM GAS  C:\Users\ADMINI~1\AppData\Local\Temp\ccR5lzz6.s 			page 10


 514 000a 04       		.byte	0x4
 515 000b 01       		.uleb128 0x1
 516 000c 3B020000 		.4byte	.LASF92
 517 0010 01       		.byte	0x1
 518 0011 14000000 		.4byte	.LASF93
 519 0015 29010000 		.4byte	.LASF94
 520 0019 00000000 		.4byte	.Ldebug_ranges0+0
 521 001d 00000000 		.4byte	0
 522 0021 00000000 		.4byte	.Ldebug_line0
 523 0025 02       		.uleb128 0x2
 524 0026 04       		.byte	0x4
 525 0027 05       		.byte	0x5
 526 0028 696E7400 		.ascii	"int\000"
 527 002c 03       		.uleb128 0x3
 528 002d 8B000000 		.4byte	.LASF2
 529 0031 02       		.byte	0x2
 530 0032 D4       		.byte	0xd4
 531 0033 37000000 		.4byte	0x37
 532 0037 04       		.uleb128 0x4
 533 0038 04       		.byte	0x4
 534 0039 07       		.byte	0x7
 535 003a B0030000 		.4byte	.LASF0
 536 003e 04       		.uleb128 0x4
 537 003f 01       		.byte	0x1
 538 0040 06       		.byte	0x6
 539 0041 8E010000 		.4byte	.LASF1
 540 0045 03       		.uleb128 0x3
 541 0046 F7010000 		.4byte	.LASF3
 542 004a 03       		.byte	0x3
 543 004b 1D       		.byte	0x1d
 544 004c 50000000 		.4byte	0x50
 545 0050 04       		.uleb128 0x4
 546 0051 01       		.byte	0x1
 547 0052 08       		.byte	0x8
 548 0053 5F030000 		.4byte	.LASF4
 549 0057 04       		.uleb128 0x4
 550 0058 02       		.byte	0x2
 551 0059 05       		.byte	0x5
 552 005a F7000000 		.4byte	.LASF5
 553 005e 03       		.uleb128 0x3
 554 005f DE000000 		.4byte	.LASF6
 555 0063 03       		.byte	0x3
 556 0064 2B       		.byte	0x2b
 557 0065 69000000 		.4byte	0x69
 558 0069 04       		.uleb128 0x4
 559 006a 02       		.byte	0x2
 560 006b 07       		.byte	0x7
 561 006c 0D040000 		.4byte	.LASF7
 562 0070 03       		.uleb128 0x3
 563 0071 D5040000 		.4byte	.LASF8
 564 0075 03       		.byte	0x3
 565 0076 3F       		.byte	0x3f
 566 0077 7B000000 		.4byte	0x7b
 567 007b 04       		.uleb128 0x4
 568 007c 04       		.byte	0x4
 569 007d 05       		.byte	0x5
 570 007e 32040000 		.4byte	.LASF9
ARM GAS  C:\Users\ADMINI~1\AppData\Local\Temp\ccR5lzz6.s 			page 11


 571 0082 03       		.uleb128 0x3
 572 0083 B4000000 		.4byte	.LASF10
 573 0087 03       		.byte	0x3
 574 0088 41       		.byte	0x41
 575 0089 8D000000 		.4byte	0x8d
 576 008d 04       		.uleb128 0x4
 577 008e 04       		.byte	0x4
 578 008f 07       		.byte	0x7
 579 0090 A9040000 		.4byte	.LASF11
 580 0094 04       		.uleb128 0x4
 581 0095 08       		.byte	0x8
 582 0096 05       		.byte	0x5
 583 0097 A6000000 		.4byte	.LASF12
 584 009b 04       		.uleb128 0x4
 585 009c 08       		.byte	0x8
 586 009d 07       		.byte	0x7
 587 009e 7E030000 		.4byte	.LASF13
 588 00a2 03       		.uleb128 0x3
 589 00a3 52010000 		.4byte	.LASF14
 590 00a7 04       		.byte	0x4
 591 00a8 14       		.byte	0x14
 592 00a9 45000000 		.4byte	0x45
 593 00ad 03       		.uleb128 0x3
 594 00ae BD030000 		.4byte	.LASF15
 595 00b2 04       		.byte	0x4
 596 00b3 1A       		.byte	0x1a
 597 00b4 5E000000 		.4byte	0x5e
 598 00b8 03       		.uleb128 0x3
 599 00b9 3B040000 		.4byte	.LASF16
 600 00bd 04       		.byte	0x4
 601 00be 1F       		.byte	0x1f
 602 00bf 70000000 		.4byte	0x70
 603 00c3 03       		.uleb128 0x3
 604 00c4 9D030000 		.4byte	.LASF17
 605 00c8 04       		.byte	0x4
 606 00c9 20       		.byte	0x20
 607 00ca 82000000 		.4byte	0x82
 608 00ce 04       		.uleb128 0x4
 609 00cf 01       		.byte	0x1
 610 00d0 02       		.byte	0x2
 611 00d1 51040000 		.4byte	.LASF18
 612 00d5 05       		.uleb128 0x5
 613 00d6 04       		.byte	0x4
 614 00d7 06       		.uleb128 0x6
 615 00d8 C3000000 		.4byte	0xc3
 616 00dc 04       		.uleb128 0x4
 617 00dd 04       		.byte	0x4
 618 00de 07       		.byte	0x7
 619 00df 92000000 		.4byte	.LASF19
 620 00e3 04       		.uleb128 0x4
 621 00e4 01       		.byte	0x1
 622 00e5 08       		.byte	0x8
 623 00e6 DD010000 		.4byte	.LASF20
 624 00ea 06       		.uleb128 0x6
 625 00eb AD000000 		.4byte	0xad
 626 00ef 06       		.uleb128 0x6
 627 00f0 B8000000 		.4byte	0xb8
ARM GAS  C:\Users\ADMINI~1\AppData\Local\Temp\ccR5lzz6.s 			page 12


 628 00f4 07       		.uleb128 0x7
 629 00f5 18       		.byte	0x18
 630 00f6 05       		.byte	0x5
 631 00f7 B102     		.2byte	0x2b1
 632 00f9 4B010000 		.4byte	0x14b
 633 00fd 08       		.uleb128 0x8
 634 00fe 435200   		.ascii	"CR\000"
 635 0101 05       		.byte	0x5
 636 0102 B302     		.2byte	0x2b3
 637 0104 D7000000 		.4byte	0xd7
 638 0108 00       		.byte	0
 639 0109 09       		.uleb128 0x9
 640 010a C5040000 		.4byte	.LASF21
 641 010e 05       		.byte	0x5
 642 010f B402     		.2byte	0x2b4
 643 0111 D7000000 		.4byte	0xd7
 644 0115 04       		.byte	0x4
 645 0116 08       		.uleb128 0x8
 646 0117 50415200 		.ascii	"PAR\000"
 647 011b 05       		.byte	0x5
 648 011c B502     		.2byte	0x2b5
 649 011e D7000000 		.4byte	0xd7
 650 0122 08       		.byte	0x8
 651 0123 09       		.uleb128 0x9
 652 0124 90040000 		.4byte	.LASF22
 653 0128 05       		.byte	0x5
 654 0129 B602     		.2byte	0x2b6
 655 012b D7000000 		.4byte	0xd7
 656 012f 0C       		.byte	0xc
 657 0130 09       		.uleb128 0x9
 658 0131 26040000 		.4byte	.LASF23
 659 0135 05       		.byte	0x5
 660 0136 B702     		.2byte	0x2b7
 661 0138 D7000000 		.4byte	0xd7
 662 013c 10       		.byte	0x10
 663 013d 08       		.uleb128 0x8
 664 013e 46435200 		.ascii	"FCR\000"
 665 0142 05       		.byte	0x5
 666 0143 B802     		.2byte	0x2b8
 667 0145 D7000000 		.4byte	0xd7
 668 0149 14       		.byte	0x14
 669 014a 00       		.byte	0
 670 014b 0A       		.uleb128 0xa
 671 014c 64000000 		.4byte	.LASF24
 672 0150 05       		.byte	0x5
 673 0151 B902     		.2byte	0x2b9
 674 0153 F4000000 		.4byte	0xf4
 675 0157 07       		.uleb128 0x7
 676 0158 1C       		.byte	0x1c
 677 0159 05       		.byte	0x5
 678 015a 2905     		.2byte	0x529
 679 015c 15020000 		.4byte	0x215
 680 0160 08       		.uleb128 0x8
 681 0161 535200   		.ascii	"SR\000"
 682 0164 05       		.byte	0x5
 683 0165 2B05     		.2byte	0x52b
 684 0167 EA000000 		.4byte	0xea
ARM GAS  C:\Users\ADMINI~1\AppData\Local\Temp\ccR5lzz6.s 			page 13


 685 016b 00       		.byte	0
 686 016c 09       		.uleb128 0x9
 687 016d 72040000 		.4byte	.LASF25
 688 0171 05       		.byte	0x5
 689 0172 2C05     		.2byte	0x52c
 690 0174 AD000000 		.4byte	0xad
 691 0178 02       		.byte	0x2
 692 0179 08       		.uleb128 0x8
 693 017a 445200   		.ascii	"DR\000"
 694 017d 05       		.byte	0x5
 695 017e 2D05     		.2byte	0x52d
 696 0180 EA000000 		.4byte	0xea
 697 0184 04       		.byte	0x4
 698 0185 09       		.uleb128 0x9
 699 0186 7C040000 		.4byte	.LASF26
 700 018a 05       		.byte	0x5
 701 018b 2E05     		.2byte	0x52e
 702 018d AD000000 		.4byte	0xad
 703 0191 06       		.byte	0x6
 704 0192 08       		.uleb128 0x8
 705 0193 42525200 		.ascii	"BRR\000"
 706 0197 05       		.byte	0x5
 707 0198 2F05     		.2byte	0x52f
 708 019a EA000000 		.4byte	0xea
 709 019e 08       		.byte	0x8
 710 019f 09       		.uleb128 0x9
 711 01a0 86040000 		.4byte	.LASF27
 712 01a4 05       		.byte	0x5
 713 01a5 3005     		.2byte	0x530
 714 01a7 AD000000 		.4byte	0xad
 715 01ab 0A       		.byte	0xa
 716 01ac 08       		.uleb128 0x8
 717 01ad 43523100 		.ascii	"CR1\000"
 718 01b1 05       		.byte	0x5
 719 01b2 3105     		.2byte	0x531
 720 01b4 EA000000 		.4byte	0xea
 721 01b8 0C       		.byte	0xc
 722 01b9 09       		.uleb128 0x9
 723 01ba 68040000 		.4byte	.LASF28
 724 01be 05       		.byte	0x5
 725 01bf 3205     		.2byte	0x532
 726 01c1 AD000000 		.4byte	0xad
 727 01c5 0E       		.byte	0xe
 728 01c6 08       		.uleb128 0x8
 729 01c7 43523200 		.ascii	"CR2\000"
 730 01cb 05       		.byte	0x5
 731 01cc 3305     		.2byte	0x533
 732 01ce EA000000 		.4byte	0xea
 733 01d2 10       		.byte	0x10
 734 01d3 09       		.uleb128 0x9
 735 01d4 95040000 		.4byte	.LASF29
 736 01d8 05       		.byte	0x5
 737 01d9 3405     		.2byte	0x534
 738 01db AD000000 		.4byte	0xad
 739 01df 12       		.byte	0x12
 740 01e0 08       		.uleb128 0x8
 741 01e1 43523300 		.ascii	"CR3\000"
ARM GAS  C:\Users\ADMINI~1\AppData\Local\Temp\ccR5lzz6.s 			page 14


 742 01e5 05       		.byte	0x5
 743 01e6 3505     		.2byte	0x535
 744 01e8 EA000000 		.4byte	0xea
 745 01ec 14       		.byte	0x14
 746 01ed 09       		.uleb128 0x9
 747 01ee 9F040000 		.4byte	.LASF30
 748 01f2 05       		.byte	0x5
 749 01f3 3605     		.2byte	0x536
 750 01f5 AD000000 		.4byte	0xad
 751 01f9 16       		.byte	0x16
 752 01fa 09       		.uleb128 0x9
 753 01fb 09000000 		.4byte	.LASF31
 754 01ff 05       		.byte	0x5
 755 0200 3705     		.2byte	0x537
 756 0202 EA000000 		.4byte	0xea
 757 0206 18       		.byte	0x18
 758 0207 09       		.uleb128 0x9
 759 0208 BB040000 		.4byte	.LASF32
 760 020c 05       		.byte	0x5
 761 020d 3805     		.2byte	0x538
 762 020f AD000000 		.4byte	0xad
 763 0213 1A       		.byte	0x1a
 764 0214 00       		.byte	0
 765 0215 0A       		.uleb128 0xa
 766 0216 E9000000 		.4byte	.LASF33
 767 021a 05       		.byte	0x5
 768 021b 3905     		.2byte	0x539
 769 021d 57010000 		.4byte	0x157
 770 0221 0B       		.uleb128 0xb
 771 0222 0C       		.byte	0xc
 772 0223 06       		.byte	0x6
 773 0224 DA       		.byte	0xda
 774 0225 66020000 		.4byte	0x266
 775 0229 0C       		.uleb128 0xc
 776 022a E2010000 		.4byte	.LASF34
 777 022e 06       		.byte	0x6
 778 022f DB       		.byte	0xdb
 779 0230 66020000 		.4byte	0x266
 780 0234 00       		.byte	0
 781 0235 0C       		.uleb128 0xc
 782 0236 74050000 		.4byte	.LASF35
 783 023a 06       		.byte	0x6
 784 023b DC       		.byte	0xdc
 785 023c 6C020000 		.4byte	0x26c
 786 0240 04       		.byte	0x4
 787 0241 0C       		.uleb128 0xc
 788 0242 2B040000 		.4byte	.LASF36
 789 0246 06       		.byte	0x6
 790 0247 DD       		.byte	0xdd
 791 0248 A2000000 		.4byte	0xa2
 792 024c 08       		.byte	0x8
 793 024d 0C       		.uleb128 0xc
 794 024e A6030000 		.4byte	.LASF37
 795 0252 06       		.byte	0x6
 796 0253 DF       		.byte	0xdf
 797 0254 A2000000 		.4byte	0xa2
 798 0258 09       		.byte	0x9
ARM GAS  C:\Users\ADMINI~1\AppData\Local\Temp\ccR5lzz6.s 			page 15


 799 0259 0C       		.uleb128 0xc
 800 025a 5A010000 		.4byte	.LASF38
 801 025e 06       		.byte	0x6
 802 025f E0       		.byte	0xe0
 803 0260 A2000000 		.4byte	0xa2
 804 0264 0A       		.byte	0xa
 805 0265 00       		.byte	0
 806 0266 0D       		.uleb128 0xd
 807 0267 04       		.byte	0x4
 808 0268 4B010000 		.4byte	0x14b
 809 026c 0D       		.uleb128 0xd
 810 026d 04       		.byte	0x4
 811 026e D7000000 		.4byte	0xd7
 812 0272 03       		.uleb128 0x3
 813 0273 16010000 		.4byte	.LASF39
 814 0277 06       		.byte	0x6
 815 0278 E1       		.byte	0xe1
 816 0279 21020000 		.4byte	0x221
 817 027d 0D       		.uleb128 0xd
 818 027e 04       		.byte	0x4
 819 027f 83020000 		.4byte	0x283
 820 0283 0E       		.uleb128 0xe
 821 0284 72020000 		.4byte	0x272
 822 0288 0F       		.uleb128 0xf
 823 0289 01       		.byte	0x1
 824 028a 07       		.byte	0x7
 825 028b 48       		.byte	0x48
 826 028c A3020000 		.4byte	0x2a3
 827 0290 10       		.uleb128 0x10
 828 0291 12050000 		.4byte	.LASF40
 829 0295 00       		.sleb128 0
 830 0296 10       		.uleb128 0x10
 831 0297 59050000 		.4byte	.LASF41
 832 029b 01       		.sleb128 1
 833 029c 10       		.uleb128 0x10
 834 029d CA040000 		.4byte	.LASF42
 835 02a1 02       		.sleb128 2
 836 02a2 00       		.byte	0
 837 02a3 03       		.uleb128 0x3
 838 02a4 01040000 		.4byte	.LASF43
 839 02a8 07       		.byte	0x7
 840 02a9 4C       		.byte	0x4c
 841 02aa 88020000 		.4byte	0x288
 842 02ae 0F       		.uleb128 0xf
 843 02af 01       		.byte	0x1
 844 02b0 07       		.byte	0x7
 845 02b1 51       		.byte	0x51
 846 02b2 C9020000 		.4byte	0x2c9
 847 02b6 10       		.uleb128 0x10
 848 02b7 3F050000 		.4byte	.LASF44
 849 02bb 00       		.sleb128 0
 850 02bc 10       		.uleb128 0x10
 851 02bd BA010000 		.4byte	.LASF45
 852 02c1 01       		.sleb128 1
 853 02c2 10       		.uleb128 0x10
 854 02c3 9A010000 		.4byte	.LASF46
 855 02c7 02       		.sleb128 2
ARM GAS  C:\Users\ADMINI~1\AppData\Local\Temp\ccR5lzz6.s 			page 16


 856 02c8 00       		.byte	0
 857 02c9 03       		.uleb128 0x3
 858 02ca 2D020000 		.4byte	.LASF47
 859 02ce 07       		.byte	0x7
 860 02cf 55       		.byte	0x55
 861 02d0 AE020000 		.4byte	0x2ae
 862 02d4 0F       		.uleb128 0xf
 863 02d5 01       		.byte	0x1
 864 02d6 07       		.byte	0x7
 865 02d7 5A       		.byte	0x5a
 866 02d8 EF020000 		.4byte	0x2ef
 867 02dc 10       		.uleb128 0x10
 868 02dd E8040000 		.4byte	.LASF48
 869 02e1 00       		.sleb128 0
 870 02e2 10       		.uleb128 0x10
 871 02e3 6B010000 		.4byte	.LASF49
 872 02e7 01       		.sleb128 1
 873 02e8 10       		.uleb128 0x10
 874 02e9 57040000 		.4byte	.LASF50
 875 02ed 02       		.sleb128 2
 876 02ee 00       		.byte	0
 877 02ef 03       		.uleb128 0x3
 878 02f0 E9010000 		.4byte	.LASF51
 879 02f4 07       		.byte	0x7
 880 02f5 5E       		.byte	0x5e
 881 02f6 D4020000 		.4byte	0x2d4
 882 02fa 0A       		.uleb128 0xa
 883 02fb EC030000 		.4byte	.LASF52
 884 02ff 08       		.byte	0x8
 885 0300 FE01     		.2byte	0x1fe
 886 0302 C3000000 		.4byte	0xc3
 887 0306 0A       		.uleb128 0xa
 888 0307 69050000 		.4byte	.LASF53
 889 030b 08       		.byte	0x8
 890 030c 0302     		.2byte	0x203
 891 030e 12030000 		.4byte	0x312
 892 0312 11       		.uleb128 0x11
 893 0313 69050000 		.4byte	.LASF53
 894 0317 1C       		.byte	0x1c
 895 0318 08       		.byte	0x8
 896 0319 4B02     		.2byte	0x24b
 897 031b 95030000 		.4byte	0x395
 898 031f 09       		.uleb128 0x9
 899 0320 77000000 		.4byte	.LASF54
 900 0324 08       		.byte	0x8
 901 0325 4F02     		.2byte	0x24f
 902 0327 A3020000 		.4byte	0x2a3
 903 032b 00       		.byte	0
 904 032c 09       		.uleb128 0x9
 905 032d CC000000 		.4byte	.LASF55
 906 0331 08       		.byte	0x8
 907 0332 5302     		.2byte	0x253
 908 0334 C9020000 		.4byte	0x2c9
 909 0338 01       		.byte	0x1
 910 0339 09       		.uleb128 0x9
 911 033a 5C000000 		.4byte	.LASF56
 912 033e 08       		.byte	0x8
ARM GAS  C:\Users\ADMINI~1\AppData\Local\Temp\ccR5lzz6.s 			page 17


 913 033f 5702     		.2byte	0x257
 914 0341 EF020000 		.4byte	0x2ef
 915 0345 02       		.byte	0x2
 916 0346 09       		.uleb128 0x9
 917 0347 01010000 		.4byte	.LASF57
 918 034b 08       		.byte	0x8
 919 034c 5B02     		.2byte	0x25b
 920 034e 87040000 		.4byte	0x487
 921 0352 04       		.byte	0x4
 922 0353 09       		.uleb128 0x9
 923 0354 01020000 		.4byte	.LASF58
 924 0358 08       		.byte	0x8
 925 0359 6302     		.2byte	0x263
 926 035b 92040000 		.4byte	0x492
 927 035f 08       		.byte	0x8
 928 0360 09       		.uleb128 0x9
 929 0361 95030000 		.4byte	.LASF59
 930 0365 08       		.byte	0x8
 931 0366 6702     		.2byte	0x267
 932 0368 C3000000 		.4byte	0xc3
 933 036c 0C       		.byte	0xc
 934 036d 09       		.uleb128 0x9
 935 036e 0E000000 		.4byte	.LASF60
 936 0372 08       		.byte	0x8
 937 0373 6B02     		.2byte	0x26b
 938 0375 7D020000 		.4byte	0x27d
 939 0379 10       		.byte	0x10
 940 037a 09       		.uleb128 0x9
 941 037b D0030000 		.4byte	.LASF61
 942 037f 08       		.byte	0x8
 943 0380 6F02     		.2byte	0x26f
 944 0382 7D020000 		.4byte	0x27d
 945 0386 14       		.byte	0x14
 946 0387 09       		.uleb128 0x9
 947 0388 27050000 		.4byte	.LASF62
 948 038c 08       		.byte	0x8
 949 038d 7302     		.2byte	0x273
 950 038f EA000000 		.4byte	0xea
 951 0393 18       		.byte	0x18
 952 0394 00       		.byte	0
 953 0395 0A       		.uleb128 0xa
 954 0396 34000000 		.4byte	.LASF63
 955 039a 08       		.byte	0x8
 956 039b 0A02     		.2byte	0x20a
 957 039d A1030000 		.4byte	0x3a1
 958 03a1 0D       		.uleb128 0xd
 959 03a2 04       		.byte	0x4
 960 03a3 A7030000 		.4byte	0x3a7
 961 03a7 12       		.uleb128 0x12
 962 03a8 B2030000 		.4byte	0x3b2
 963 03ac 13       		.uleb128 0x13
 964 03ad B2030000 		.4byte	0x3b2
 965 03b1 00       		.byte	0
 966 03b2 0D       		.uleb128 0xd
 967 03b3 04       		.byte	0x4
 968 03b4 06030000 		.4byte	0x306
 969 03b8 0A       		.uleb128 0xa
ARM GAS  C:\Users\ADMINI~1\AppData\Local\Temp\ccR5lzz6.s 			page 18


 970 03b9 C6030000 		.4byte	.LASF64
 971 03bd 08       		.byte	0x8
 972 03be 1202     		.2byte	0x212
 973 03c0 C4030000 		.4byte	0x3c4
 974 03c4 0D       		.uleb128 0xd
 975 03c5 04       		.byte	0x4
 976 03c6 CA030000 		.4byte	0x3ca
 977 03ca 12       		.uleb128 0x12
 978 03cb DA030000 		.4byte	0x3da
 979 03cf 13       		.uleb128 0x13
 980 03d0 B2030000 		.4byte	0x3b2
 981 03d4 13       		.uleb128 0x13
 982 03d5 AD000000 		.4byte	0xad
 983 03d9 00       		.byte	0
 984 03da 0A       		.uleb128 0xa
 985 03db 7A010000 		.4byte	.LASF65
 986 03df 08       		.byte	0x8
 987 03e0 1A02     		.2byte	0x21a
 988 03e2 E6030000 		.4byte	0x3e6
 989 03e6 0D       		.uleb128 0xd
 990 03e7 04       		.byte	0x4
 991 03e8 EC030000 		.4byte	0x3ec
 992 03ec 12       		.uleb128 0x12
 993 03ed FC030000 		.4byte	0x3fc
 994 03f1 13       		.uleb128 0x13
 995 03f2 B2030000 		.4byte	0x3b2
 996 03f6 13       		.uleb128 0x13
 997 03f7 FA020000 		.4byte	0x2fa
 998 03fb 00       		.byte	0
 999 03fc 07       		.uleb128 0x7
 1000 03fd 20       		.byte	0x20
 1001 03fe 08       		.byte	0x8
 1002 03ff 2002     		.2byte	0x220
 1003 0401 7B040000 		.4byte	0x47b
 1004 0405 09       		.uleb128 0x9
 1005 0406 D4000000 		.4byte	.LASF66
 1006 040a 08       		.byte	0x8
 1007 040b 2402     		.2byte	0x224
 1008 040d 95030000 		.4byte	0x395
 1009 0411 00       		.byte	0
 1010 0412 09       		.uleb128 0x9
 1011 0413 61010000 		.4byte	.LASF67
 1012 0417 08       		.byte	0x8
 1013 0418 2802     		.2byte	0x228
 1014 041a 95030000 		.4byte	0x395
 1015 041e 04       		.byte	0x4
 1016 041f 09       		.uleb128 0x9
 1017 0420 DF040000 		.4byte	.LASF68
 1018 0424 08       		.byte	0x8
 1019 0425 2C02     		.2byte	0x22c
 1020 0427 95030000 		.4byte	0x395
 1021 042b 08       		.byte	0x8
 1022 042c 09       		.uleb128 0x9
 1023 042d F5040000 		.4byte	.LASF69
 1024 0431 08       		.byte	0x8
 1025 0432 3002     		.2byte	0x230
 1026 0434 B8030000 		.4byte	0x3b8
ARM GAS  C:\Users\ADMINI~1\AppData\Local\Temp\ccR5lzz6.s 			page 19


 1027 0438 0C       		.byte	0xc
 1028 0439 09       		.uleb128 0x9
 1029 043a 00000000 		.4byte	.LASF70
 1030 043e 08       		.byte	0x8
 1031 043f 3402     		.2byte	0x234
 1032 0441 DA030000 		.4byte	0x3da
 1033 0445 10       		.byte	0x10
 1034 0446 09       		.uleb128 0x9
 1035 0447 27020000 		.4byte	.LASF71
 1036 044b 08       		.byte	0x8
 1037 044c 3902     		.2byte	0x239
 1038 044e C3000000 		.4byte	0xc3
 1039 0452 14       		.byte	0x14
 1040 0453 08       		.uleb128 0x8
 1041 0454 63723100 		.ascii	"cr1\000"
 1042 0458 08       		.byte	0x8
 1043 0459 3D02     		.2byte	0x23d
 1044 045b AD000000 		.4byte	0xad
 1045 045f 18       		.byte	0x18
 1046 0460 08       		.uleb128 0x8
 1047 0461 63723200 		.ascii	"cr2\000"
 1048 0465 08       		.byte	0x8
 1049 0466 4102     		.2byte	0x241
 1050 0468 AD000000 		.4byte	0xad
 1051 046c 1A       		.byte	0x1a
 1052 046d 08       		.uleb128 0x8
 1053 046e 63723300 		.ascii	"cr3\000"
 1054 0472 08       		.byte	0x8
 1055 0473 4502     		.2byte	0x245
 1056 0475 AD000000 		.4byte	0xad
 1057 0479 1C       		.byte	0x1c
 1058 047a 00       		.byte	0
 1059 047b 0A       		.uleb128 0xa
 1060 047c 9B000000 		.4byte	.LASF72
 1061 0480 08       		.byte	0x8
 1062 0481 4602     		.2byte	0x246
 1063 0483 FC030000 		.4byte	0x3fc
 1064 0487 0D       		.uleb128 0xd
 1065 0488 04       		.byte	0x4
 1066 0489 8D040000 		.4byte	0x48d
 1067 048d 0E       		.uleb128 0xe
 1068 048e 7B040000 		.4byte	0x47b
 1069 0492 0D       		.uleb128 0xd
 1070 0493 04       		.byte	0x4
 1071 0494 15020000 		.4byte	0x215
 1072 0498 14       		.uleb128 0x14
 1073 0499 F8030000 		.4byte	.LASF73
 1074 049d 01       		.byte	0x1
 1075 049e 44       		.byte	0x44
 1076 049f 00000000 		.4byte	.LFB118
 1077 04a3 04000000 		.4byte	.LFE118-.LFB118
 1078 04a7 01       		.uleb128 0x1
 1079 04a8 9C       		.byte	0x9c
 1080 04a9 B7040000 		.4byte	0x4b7
 1081 04ad 15       		.uleb128 0x15
 1082 04ae 04000000 		.4byte	.LVL0
 1083 04b2 18080000 		.4byte	0x818
ARM GAS  C:\Users\ADMINI~1\AppData\Local\Temp\ccR5lzz6.s 			page 20


 1084 04b6 00       		.byte	0
 1085 04b7 14       		.uleb128 0x14
 1086 04b8 AB010000 		.4byte	.LASF74
 1087 04bc 01       		.byte	0x1
 1088 04bd 50       		.byte	0x50
 1089 04be 00000000 		.4byte	.LFB119
 1090 04c2 0E000000 		.4byte	.LFE119-.LFB119
 1091 04c6 01       		.uleb128 0x1
 1092 04c7 9C       		.byte	0x9c
 1093 04c8 DA040000 		.4byte	0x4da
 1094 04cc 16       		.uleb128 0x16
 1095 04cd 63050000 		.4byte	.LASF76
 1096 04d1 01       		.byte	0x1
 1097 04d2 50       		.byte	0x50
 1098 04d3 B2030000 		.4byte	0x3b2
 1099 04d7 01       		.uleb128 0x1
 1100 04d8 50       		.byte	0x50
 1101 04d9 00       		.byte	0
 1102 04da 14       		.uleb128 0x14
 1103 04db 84010000 		.4byte	.LASF75
 1104 04df 01       		.byte	0x1
 1105 04e0 64       		.byte	0x64
 1106 04e1 00000000 		.4byte	.LFB120
 1107 04e5 14000000 		.4byte	.LFE120-.LFB120
 1108 04e9 01       		.uleb128 0x1
 1109 04ea 9C       		.byte	0x9c
 1110 04eb 1E050000 		.4byte	0x51e
 1111 04ef 17       		.uleb128 0x17
 1112 04f0 63050000 		.4byte	.LASF76
 1113 04f4 01       		.byte	0x1
 1114 04f5 64       		.byte	0x64
 1115 04f6 B2030000 		.4byte	0x3b2
 1116 04fa 00000000 		.4byte	.LLST0
 1117 04fe 17       		.uleb128 0x17
 1118 04ff 01010000 		.4byte	.LASF57
 1119 0503 01       		.byte	0x1
 1120 0504 64       		.byte	0x64
 1121 0505 87040000 		.4byte	0x487
 1122 0509 1E000000 		.4byte	.LLST1
 1123 050d 18       		.uleb128 0x18
 1124 050e 0C000000 		.4byte	.LVL3
 1125 0512 20080000 		.4byte	0x820
 1126 0516 19       		.uleb128 0x19
 1127 0517 01       		.uleb128 0x1
 1128 0518 50       		.byte	0x50
 1129 0519 02       		.uleb128 0x2
 1130 051a 74       		.byte	0x74
 1131 051b 00       		.sleb128 0
 1132 051c 00       		.byte	0
 1133 051d 00       		.byte	0
 1134 051e 14       		.uleb128 0x14
 1135 051f 1E050000 		.4byte	.LASF77
 1136 0523 01       		.byte	0x1
 1137 0524 79       		.byte	0x79
 1138 0525 00000000 		.4byte	.LFB121
 1139 0529 18000000 		.4byte	.LFE121-.LFB121
 1140 052d 01       		.uleb128 0x1
ARM GAS  C:\Users\ADMINI~1\AppData\Local\Temp\ccR5lzz6.s 			page 21


 1141 052e 9C       		.byte	0x9c
 1142 052f 53050000 		.4byte	0x553
 1143 0533 17       		.uleb128 0x17
 1144 0534 63050000 		.4byte	.LASF76
 1145 0538 01       		.byte	0x1
 1146 0539 79       		.byte	0x79
 1147 053a B2030000 		.4byte	0x3b2
 1148 053e 3F000000 		.4byte	.LLST2
 1149 0542 18       		.uleb128 0x18
 1150 0543 0A000000 		.4byte	.LVL5
 1151 0547 32080000 		.4byte	0x832
 1152 054b 19       		.uleb128 0x19
 1153 054c 01       		.uleb128 0x1
 1154 054d 50       		.byte	0x50
 1155 054e 02       		.uleb128 0x2
 1156 054f 74       		.byte	0x74
 1157 0550 00       		.sleb128 0
 1158 0551 00       		.byte	0
 1159 0552 00       		.byte	0
 1160 0553 14       		.uleb128 0x14
 1161 0554 08010000 		.4byte	.LASF78
 1162 0558 01       		.byte	0x1
 1163 0559 93       		.byte	0x93
 1164 055a 00000000 		.4byte	.LFB122
 1165 055e 12000000 		.4byte	.LFE122-.LFB122
 1166 0562 01       		.uleb128 0x1
 1167 0563 9C       		.byte	0x9c
 1168 0564 B2050000 		.4byte	0x5b2
 1169 0568 17       		.uleb128 0x17
 1170 0569 63050000 		.4byte	.LASF76
 1171 056d 01       		.byte	0x1
 1172 056e 93       		.byte	0x93
 1173 056f B2030000 		.4byte	0x3b2
 1174 0573 5D000000 		.4byte	.LLST3
 1175 0577 1A       		.uleb128 0x1a
 1176 0578 6E00     		.ascii	"n\000"
 1177 057a 01       		.byte	0x1
 1178 057b 93       		.byte	0x93
 1179 057c 2C000000 		.4byte	0x2c
 1180 0580 7B000000 		.4byte	.LLST4
 1181 0584 17       		.uleb128 0x17
 1182 0585 20040000 		.4byte	.LASF79
 1183 0589 01       		.byte	0x1
 1184 058a 93       		.byte	0x93
 1185 058b B2050000 		.4byte	0x5b2
 1186 058f 9C000000 		.4byte	.LLST5
 1187 0593 18       		.uleb128 0x18
 1188 0594 0A000000 		.4byte	.LVL7
 1189 0598 44080000 		.4byte	0x844
 1190 059c 19       		.uleb128 0x19
 1191 059d 01       		.uleb128 0x1
 1192 059e 52       		.byte	0x52
 1193 059f 03       		.uleb128 0x3
 1194 05a0 F3       		.byte	0xf3
 1195 05a1 01       		.uleb128 0x1
 1196 05a2 52       		.byte	0x52
 1197 05a3 19       		.uleb128 0x19
ARM GAS  C:\Users\ADMINI~1\AppData\Local\Temp\ccR5lzz6.s 			page 22


 1198 05a4 01       		.uleb128 0x1
 1199 05a5 51       		.byte	0x51
 1200 05a6 03       		.uleb128 0x3
 1201 05a7 F3       		.byte	0xf3
 1202 05a8 01       		.uleb128 0x1
 1203 05a9 51       		.byte	0x51
 1204 05aa 19       		.uleb128 0x19
 1205 05ab 01       		.uleb128 0x1
 1206 05ac 50       		.byte	0x50
 1207 05ad 02       		.uleb128 0x2
 1208 05ae 74       		.byte	0x74
 1209 05af 00       		.sleb128 0
 1210 05b0 00       		.byte	0
 1211 05b1 00       		.byte	0
 1212 05b2 0D       		.uleb128 0xd
 1213 05b3 04       		.byte	0x4
 1214 05b4 B8050000 		.4byte	0x5b8
 1215 05b8 1B       		.uleb128 0x1b
 1216 05b9 14       		.uleb128 0x14
 1217 05ba 4D000000 		.4byte	.LASF80
 1218 05be 01       		.byte	0x1
 1219 05bf AF       		.byte	0xaf
 1220 05c0 00000000 		.4byte	.LFB123
 1221 05c4 0E000000 		.4byte	.LFE123-.LFB123
 1222 05c8 01       		.uleb128 0x1
 1223 05c9 9C       		.byte	0x9c
 1224 05ca 18060000 		.4byte	0x618
 1225 05ce 17       		.uleb128 0x17
 1226 05cf 63050000 		.4byte	.LASF76
 1227 05d3 01       		.byte	0x1
 1228 05d4 AF       		.byte	0xaf
 1229 05d5 B2030000 		.4byte	0x3b2
 1230 05d9 BD000000 		.4byte	.LLST6
 1231 05dd 1A       		.uleb128 0x1a
 1232 05de 6E00     		.ascii	"n\000"
 1233 05e0 01       		.byte	0x1
 1234 05e1 AF       		.byte	0xaf
 1235 05e2 2C000000 		.4byte	0x2c
 1236 05e6 DB000000 		.4byte	.LLST7
 1237 05ea 17       		.uleb128 0x17
 1238 05eb 20040000 		.4byte	.LASF79
 1239 05ef 01       		.byte	0x1
 1240 05f0 AF       		.byte	0xaf
 1241 05f1 B2050000 		.4byte	0x5b2
 1242 05f5 FC000000 		.4byte	.LLST8
 1243 05f9 18       		.uleb128 0x18
 1244 05fa 08000000 		.4byte	.LVL9
 1245 05fe 44080000 		.4byte	0x844
 1246 0602 19       		.uleb128 0x19
 1247 0603 01       		.uleb128 0x1
 1248 0604 52       		.byte	0x52
 1249 0605 03       		.uleb128 0x3
 1250 0606 F3       		.byte	0xf3
 1251 0607 01       		.uleb128 0x1
 1252 0608 52       		.byte	0x52
 1253 0609 19       		.uleb128 0x19
 1254 060a 01       		.uleb128 0x1
ARM GAS  C:\Users\ADMINI~1\AppData\Local\Temp\ccR5lzz6.s 			page 23


 1255 060b 51       		.byte	0x51
 1256 060c 03       		.uleb128 0x3
 1257 060d F3       		.byte	0xf3
 1258 060e 01       		.uleb128 0x1
 1259 060f 51       		.byte	0x51
 1260 0610 19       		.uleb128 0x19
 1261 0611 01       		.uleb128 0x1
 1262 0612 50       		.byte	0x50
 1263 0613 02       		.uleb128 0x2
 1264 0614 74       		.byte	0x74
 1265 0615 00       		.sleb128 0
 1266 0616 00       		.byte	0
 1267 0617 00       		.byte	0
 1268 0618 1C       		.uleb128 0x1c
 1269 0619 BF000000 		.4byte	.LASF81
 1270 061d 01       		.byte	0x1
 1271 061e C9       		.byte	0xc9
 1272 061f 2C000000 		.4byte	0x2c
 1273 0623 00000000 		.4byte	.LFB124
 1274 0627 1E000000 		.4byte	.LFE124-.LFB124
 1275 062b 01       		.uleb128 0x1
 1276 062c 9C       		.byte	0x9c
 1277 062d 5E060000 		.4byte	0x65e
 1278 0631 17       		.uleb128 0x17
 1279 0632 63050000 		.4byte	.LASF76
 1280 0636 01       		.byte	0x1
 1281 0637 C9       		.byte	0xc9
 1282 0638 B2030000 		.4byte	0x3b2
 1283 063c 1D010000 		.4byte	.LLST9
 1284 0640 1D       		.uleb128 0x1d
 1285 0641 6E00     		.ascii	"n\000"
 1286 0643 01       		.byte	0x1
 1287 0644 CA       		.byte	0xca
 1288 0645 2C000000 		.4byte	0x2c
 1289 0649 54010000 		.4byte	.LLST10
 1290 064d 18       		.uleb128 0x18
 1291 064e 16000000 		.4byte	.LVL13
 1292 0652 60080000 		.4byte	0x860
 1293 0656 19       		.uleb128 0x19
 1294 0657 01       		.uleb128 0x1
 1295 0658 50       		.byte	0x50
 1296 0659 02       		.uleb128 0x2
 1297 065a 74       		.byte	0x74
 1298 065b 00       		.sleb128 0
 1299 065c 00       		.byte	0
 1300 065d 00       		.byte	0
 1301 065e 1C       		.uleb128 0x1c
 1302 065f 7D000000 		.4byte	.LASF82
 1303 0663 01       		.byte	0x1
 1304 0664 E8       		.byte	0xe8
 1305 0665 2C000000 		.4byte	0x2c
 1306 0669 00000000 		.4byte	.LFB125
 1307 066d 18000000 		.4byte	.LFE125-.LFB125
 1308 0671 01       		.uleb128 0x1
 1309 0672 9C       		.byte	0x9c
 1310 0673 AC060000 		.4byte	0x6ac
 1311 0677 17       		.uleb128 0x17
ARM GAS  C:\Users\ADMINI~1\AppData\Local\Temp\ccR5lzz6.s 			page 24


 1312 0678 63050000 		.4byte	.LASF76
 1313 067c 01       		.byte	0x1
 1314 067d E8       		.byte	0xe8
 1315 067e B2030000 		.4byte	0x3b2
 1316 0682 72010000 		.4byte	.LLST11
 1317 0686 1E       		.uleb128 0x1e
 1318 0687 0E000000 		.4byte	.LBB2
 1319 068b 0A000000 		.4byte	.LBE2-.LBB2
 1320 068f 1F       		.uleb128 0x1f
 1321 0690 6E00     		.ascii	"n\000"
 1322 0692 01       		.byte	0x1
 1323 0693 EF       		.byte	0xef
 1324 0694 2C000000 		.4byte	0x2c
 1325 0698 01       		.uleb128 0x1
 1326 0699 50       		.byte	0x50
 1327 069a 18       		.uleb128 0x18
 1328 069b 12000000 		.4byte	.LVL17
 1329 069f 60080000 		.4byte	0x860
 1330 06a3 19       		.uleb128 0x19
 1331 06a4 01       		.uleb128 0x1
 1332 06a5 50       		.byte	0x50
 1333 06a6 02       		.uleb128 0x2
 1334 06a7 74       		.byte	0x74
 1335 06a8 00       		.sleb128 0
 1336 06a9 00       		.byte	0
 1337 06aa 00       		.byte	0
 1338 06ab 00       		.byte	0
 1339 06ac 20       		.uleb128 0x20
 1340 06ad 16020000 		.4byte	.LASF83
 1341 06b1 01       		.byte	0x1
 1342 06b2 0101     		.2byte	0x101
 1343 06b4 00000000 		.4byte	.LFB126
 1344 06b8 12000000 		.4byte	.LFE126-.LFB126
 1345 06bc 01       		.uleb128 0x1
 1346 06bd 9C       		.byte	0x9c
 1347 06be 0F070000 		.4byte	0x70f
 1348 06c2 21       		.uleb128 0x21
 1349 06c3 63050000 		.4byte	.LASF76
 1350 06c7 01       		.byte	0x1
 1351 06c8 0101     		.2byte	0x101
 1352 06ca B2030000 		.4byte	0x3b2
 1353 06ce A9010000 		.4byte	.LLST12
 1354 06d2 22       		.uleb128 0x22
 1355 06d3 6E00     		.ascii	"n\000"
 1356 06d5 01       		.byte	0x1
 1357 06d6 0101     		.2byte	0x101
 1358 06d8 2C000000 		.4byte	0x2c
 1359 06dc C7010000 		.4byte	.LLST13
 1360 06e0 21       		.uleb128 0x21
 1361 06e1 27050000 		.4byte	.LASF62
 1362 06e5 01       		.byte	0x1
 1363 06e6 0101     		.2byte	0x101
 1364 06e8 D5000000 		.4byte	0xd5
 1365 06ec E8010000 		.4byte	.LLST14
 1366 06f0 18       		.uleb128 0x18
 1367 06f1 0A000000 		.4byte	.LVL19
 1368 06f5 76080000 		.4byte	0x876
ARM GAS  C:\Users\ADMINI~1\AppData\Local\Temp\ccR5lzz6.s 			page 25


 1369 06f9 19       		.uleb128 0x19
 1370 06fa 01       		.uleb128 0x1
 1371 06fb 52       		.byte	0x52
 1372 06fc 03       		.uleb128 0x3
 1373 06fd F3       		.byte	0xf3
 1374 06fe 01       		.uleb128 0x1
 1375 06ff 52       		.byte	0x52
 1376 0700 19       		.uleb128 0x19
 1377 0701 01       		.uleb128 0x1
 1378 0702 51       		.byte	0x51
 1379 0703 03       		.uleb128 0x3
 1380 0704 F3       		.byte	0xf3
 1381 0705 01       		.uleb128 0x1
 1382 0706 51       		.byte	0x51
 1383 0707 19       		.uleb128 0x19
 1384 0708 01       		.uleb128 0x1
 1385 0709 50       		.byte	0x50
 1386 070a 02       		.uleb128 0x2
 1387 070b 74       		.byte	0x74
 1388 070c 00       		.sleb128 0
 1389 070d 00       		.byte	0
 1390 070e 00       		.byte	0
 1391 070f 20       		.uleb128 0x20
 1392 0710 2D050000 		.4byte	.LASF84
 1393 0714 01       		.byte	0x1
 1394 0715 1D01     		.2byte	0x11d
 1395 0717 00000000 		.4byte	.LFB127
 1396 071b 0E000000 		.4byte	.LFE127-.LFB127
 1397 071f 01       		.uleb128 0x1
 1398 0720 9C       		.byte	0x9c
 1399 0721 72070000 		.4byte	0x772
 1400 0725 21       		.uleb128 0x21
 1401 0726 63050000 		.4byte	.LASF76
 1402 072a 01       		.byte	0x1
 1403 072b 1D01     		.2byte	0x11d
 1404 072d B2030000 		.4byte	0x3b2
 1405 0731 09020000 		.4byte	.LLST15
 1406 0735 22       		.uleb128 0x22
 1407 0736 6E00     		.ascii	"n\000"
 1408 0738 01       		.byte	0x1
 1409 0739 1D01     		.2byte	0x11d
 1410 073b 2C000000 		.4byte	0x2c
 1411 073f 27020000 		.4byte	.LLST16
 1412 0743 21       		.uleb128 0x21
 1413 0744 27050000 		.4byte	.LASF62
 1414 0748 01       		.byte	0x1
 1415 0749 1D01     		.2byte	0x11d
 1416 074b D5000000 		.4byte	0xd5
 1417 074f 48020000 		.4byte	.LLST17
 1418 0753 18       		.uleb128 0x18
 1419 0754 08000000 		.4byte	.LVL21
 1420 0758 76080000 		.4byte	0x876
 1421 075c 19       		.uleb128 0x19
 1422 075d 01       		.uleb128 0x1
 1423 075e 52       		.byte	0x52
 1424 075f 03       		.uleb128 0x3
 1425 0760 F3       		.byte	0xf3
ARM GAS  C:\Users\ADMINI~1\AppData\Local\Temp\ccR5lzz6.s 			page 26


 1426 0761 01       		.uleb128 0x1
 1427 0762 52       		.byte	0x52
 1428 0763 19       		.uleb128 0x19
 1429 0764 01       		.uleb128 0x1
 1430 0765 51       		.byte	0x51
 1431 0766 03       		.uleb128 0x3
 1432 0767 F3       		.byte	0xf3
 1433 0768 01       		.uleb128 0x1
 1434 0769 51       		.byte	0x51
 1435 076a 19       		.uleb128 0x19
 1436 076b 01       		.uleb128 0x1
 1437 076c 50       		.byte	0x50
 1438 076d 02       		.uleb128 0x2
 1439 076e 74       		.byte	0x74
 1440 076f 00       		.sleb128 0
 1441 0770 00       		.byte	0
 1442 0771 00       		.byte	0
 1443 0772 23       		.uleb128 0x23
 1444 0773 3D000000 		.4byte	.LASF85
 1445 0777 01       		.byte	0x1
 1446 0778 3701     		.2byte	0x137
 1447 077a 2C000000 		.4byte	0x2c
 1448 077e 00000000 		.4byte	.LFB128
 1449 0782 1E000000 		.4byte	.LFE128-.LFB128
 1450 0786 01       		.uleb128 0x1
 1451 0787 9C       		.byte	0x9c
 1452 0788 BB070000 		.4byte	0x7bb
 1453 078c 21       		.uleb128 0x21
 1454 078d 63050000 		.4byte	.LASF76
 1455 0791 01       		.byte	0x1
 1456 0792 3701     		.2byte	0x137
 1457 0794 B2030000 		.4byte	0x3b2
 1458 0798 69020000 		.4byte	.LLST18
 1459 079c 24       		.uleb128 0x24
 1460 079d 6E00     		.ascii	"n\000"
 1461 079f 01       		.byte	0x1
 1462 07a0 3801     		.2byte	0x138
 1463 07a2 2C000000 		.4byte	0x2c
 1464 07a6 A0020000 		.4byte	.LLST19
 1465 07aa 18       		.uleb128 0x18
 1466 07ab 16000000 		.4byte	.LVL25
 1467 07af 92080000 		.4byte	0x892
 1468 07b3 19       		.uleb128 0x19
 1469 07b4 01       		.uleb128 0x1
 1470 07b5 50       		.byte	0x50
 1471 07b6 02       		.uleb128 0x2
 1472 07b7 74       		.byte	0x74
 1473 07b8 00       		.sleb128 0
 1474 07b9 00       		.byte	0
 1475 07ba 00       		.byte	0
 1476 07bb 23       		.uleb128 0x23
 1477 07bc 6D030000 		.4byte	.LASF86
 1478 07c0 01       		.byte	0x1
 1479 07c1 5701     		.2byte	0x157
 1480 07c3 2C000000 		.4byte	0x2c
 1481 07c7 00000000 		.4byte	.LFB129
 1482 07cb 18000000 		.4byte	.LFE129-.LFB129
ARM GAS  C:\Users\ADMINI~1\AppData\Local\Temp\ccR5lzz6.s 			page 27


 1483 07cf 01       		.uleb128 0x1
 1484 07d0 9C       		.byte	0x9c
 1485 07d1 0C080000 		.4byte	0x80c
 1486 07d5 21       		.uleb128 0x21
 1487 07d6 63050000 		.4byte	.LASF76
 1488 07da 01       		.byte	0x1
 1489 07db 5701     		.2byte	0x157
 1490 07dd B2030000 		.4byte	0x3b2
 1491 07e1 BE020000 		.4byte	.LLST20
 1492 07e5 1E       		.uleb128 0x1e
 1493 07e6 0E000000 		.4byte	.LBB3
 1494 07ea 0A000000 		.4byte	.LBE3-.LBB3
 1495 07ee 25       		.uleb128 0x25
 1496 07ef 6E00     		.ascii	"n\000"
 1497 07f1 01       		.byte	0x1
 1498 07f2 5F01     		.2byte	0x15f
 1499 07f4 2C000000 		.4byte	0x2c
 1500 07f8 01       		.uleb128 0x1
 1501 07f9 50       		.byte	0x50
 1502 07fa 18       		.uleb128 0x18
 1503 07fb 12000000 		.4byte	.LVL29
 1504 07ff 92080000 		.4byte	0x892
 1505 0803 19       		.uleb128 0x19
 1506 0804 01       		.uleb128 0x1
 1507 0805 50       		.byte	0x50
 1508 0806 02       		.uleb128 0x2
 1509 0807 74       		.byte	0x74
 1510 0808 00       		.sleb128 0
 1511 0809 00       		.byte	0
 1512 080a 00       		.byte	0
 1513 080b 00       		.byte	0
 1514 080c 26       		.uleb128 0x26
 1515 080d 4C050000 		.4byte	.LASF95
 1516 0811 09       		.byte	0x9
 1517 0812 9806     		.2byte	0x698
 1518 0814 EF000000 		.4byte	0xef
 1519 0818 27       		.uleb128 0x27
 1520 0819 43040000 		.4byte	.LASF96
 1521 081d 08       		.byte	0x8
 1522 081e 9902     		.2byte	0x299
 1523 0820 28       		.uleb128 0x28
 1524 0821 07020000 		.4byte	.LASF87
 1525 0825 08       		.byte	0x8
 1526 0826 9A02     		.2byte	0x29a
 1527 0828 32080000 		.4byte	0x832
 1528 082c 13       		.uleb128 0x13
 1529 082d B2030000 		.4byte	0x3b2
 1530 0831 00       		.byte	0
 1531 0832 28       		.uleb128 0x28
 1532 0833 79050000 		.4byte	.LASF88
 1533 0837 08       		.byte	0x8
 1534 0838 9B02     		.2byte	0x29b
 1535 083a 44080000 		.4byte	0x844
 1536 083e 13       		.uleb128 0x13
 1537 083f B2030000 		.4byte	0x3b2
 1538 0843 00       		.byte	0
 1539 0844 28       		.uleb128 0x28
ARM GAS  C:\Users\ADMINI~1\AppData\Local\Temp\ccR5lzz6.s 			page 28


 1540 0845 C9010000 		.4byte	.LASF89
 1541 0849 08       		.byte	0x8
 1542 084a 9C02     		.2byte	0x29c
 1543 084c 60080000 		.4byte	0x860
 1544 0850 13       		.uleb128 0x13
 1545 0851 B2030000 		.4byte	0x3b2
 1546 0855 13       		.uleb128 0x13
 1547 0856 2C000000 		.4byte	0x2c
 1548 085a 13       		.uleb128 0x13
 1549 085b B2050000 		.4byte	0x5b2
 1550 085f 00       		.byte	0
 1551 0860 29       		.uleb128 0x29
 1552 0861 FF040000 		.4byte	.LASF97
 1553 0865 08       		.byte	0x8
 1554 0866 9D02     		.2byte	0x29d
 1555 0868 2C000000 		.4byte	0x2c
 1556 086c 76080000 		.4byte	0x876
 1557 0870 13       		.uleb128 0x13
 1558 0871 B2030000 		.4byte	0x3b2
 1559 0875 00       		.byte	0
 1560 0876 28       		.uleb128 0x28
 1561 0877 3B010000 		.4byte	.LASF90
 1562 087b 08       		.byte	0x8
 1563 087c 9E02     		.2byte	0x29e
 1564 087e 92080000 		.4byte	0x892
 1565 0882 13       		.uleb128 0x13
 1566 0883 B2030000 		.4byte	0x3b2
 1567 0887 13       		.uleb128 0x13
 1568 0888 2C000000 		.4byte	0x2c
 1569 088c 13       		.uleb128 0x13
 1570 088d D5000000 		.4byte	0xd5
 1571 0891 00       		.byte	0
 1572 0892 2A       		.uleb128 0x2a
 1573 0893 D6030000 		.4byte	.LASF91
 1574 0897 08       		.byte	0x8
 1575 0898 9F02     		.2byte	0x29f
 1576 089a 2C000000 		.4byte	0x2c
 1577 089e 13       		.uleb128 0x13
 1578 089f B2030000 		.4byte	0x3b2
 1579 08a3 00       		.byte	0
 1580 08a4 00       		.byte	0
 1581              		.section	.debug_abbrev,"",%progbits
 1582              	.Ldebug_abbrev0:
 1583 0000 01       		.uleb128 0x1
 1584 0001 11       		.uleb128 0x11
 1585 0002 01       		.byte	0x1
 1586 0003 25       		.uleb128 0x25
 1587 0004 0E       		.uleb128 0xe
 1588 0005 13       		.uleb128 0x13
 1589 0006 0B       		.uleb128 0xb
 1590 0007 03       		.uleb128 0x3
 1591 0008 0E       		.uleb128 0xe
 1592 0009 1B       		.uleb128 0x1b
 1593 000a 0E       		.uleb128 0xe
 1594 000b 55       		.uleb128 0x55
 1595 000c 17       		.uleb128 0x17
 1596 000d 11       		.uleb128 0x11
ARM GAS  C:\Users\ADMINI~1\AppData\Local\Temp\ccR5lzz6.s 			page 29


 1597 000e 01       		.uleb128 0x1
 1598 000f 10       		.uleb128 0x10
 1599 0010 17       		.uleb128 0x17
 1600 0011 00       		.byte	0
 1601 0012 00       		.byte	0
 1602 0013 02       		.uleb128 0x2
 1603 0014 24       		.uleb128 0x24
 1604 0015 00       		.byte	0
 1605 0016 0B       		.uleb128 0xb
 1606 0017 0B       		.uleb128 0xb
 1607 0018 3E       		.uleb128 0x3e
 1608 0019 0B       		.uleb128 0xb
 1609 001a 03       		.uleb128 0x3
 1610 001b 08       		.uleb128 0x8
 1611 001c 00       		.byte	0
 1612 001d 00       		.byte	0
 1613 001e 03       		.uleb128 0x3
 1614 001f 16       		.uleb128 0x16
 1615 0020 00       		.byte	0
 1616 0021 03       		.uleb128 0x3
 1617 0022 0E       		.uleb128 0xe
 1618 0023 3A       		.uleb128 0x3a
 1619 0024 0B       		.uleb128 0xb
 1620 0025 3B       		.uleb128 0x3b
 1621 0026 0B       		.uleb128 0xb
 1622 0027 49       		.uleb128 0x49
 1623 0028 13       		.uleb128 0x13
 1624 0029 00       		.byte	0
 1625 002a 00       		.byte	0
 1626 002b 04       		.uleb128 0x4
 1627 002c 24       		.uleb128 0x24
 1628 002d 00       		.byte	0
 1629 002e 0B       		.uleb128 0xb
 1630 002f 0B       		.uleb128 0xb
 1631 0030 3E       		.uleb128 0x3e
 1632 0031 0B       		.uleb128 0xb
 1633 0032 03       		.uleb128 0x3
 1634 0033 0E       		.uleb128 0xe
 1635 0034 00       		.byte	0
 1636 0035 00       		.byte	0
 1637 0036 05       		.uleb128 0x5
 1638 0037 0F       		.uleb128 0xf
 1639 0038 00       		.byte	0
 1640 0039 0B       		.uleb128 0xb
 1641 003a 0B       		.uleb128 0xb
 1642 003b 00       		.byte	0
 1643 003c 00       		.byte	0
 1644 003d 06       		.uleb128 0x6
 1645 003e 35       		.uleb128 0x35
 1646 003f 00       		.byte	0
 1647 0040 49       		.uleb128 0x49
 1648 0041 13       		.uleb128 0x13
 1649 0042 00       		.byte	0
 1650 0043 00       		.byte	0
 1651 0044 07       		.uleb128 0x7
 1652 0045 13       		.uleb128 0x13
 1653 0046 01       		.byte	0x1
ARM GAS  C:\Users\ADMINI~1\AppData\Local\Temp\ccR5lzz6.s 			page 30


 1654 0047 0B       		.uleb128 0xb
 1655 0048 0B       		.uleb128 0xb
 1656 0049 3A       		.uleb128 0x3a
 1657 004a 0B       		.uleb128 0xb
 1658 004b 3B       		.uleb128 0x3b
 1659 004c 05       		.uleb128 0x5
 1660 004d 01       		.uleb128 0x1
 1661 004e 13       		.uleb128 0x13
 1662 004f 00       		.byte	0
 1663 0050 00       		.byte	0
 1664 0051 08       		.uleb128 0x8
 1665 0052 0D       		.uleb128 0xd
 1666 0053 00       		.byte	0
 1667 0054 03       		.uleb128 0x3
 1668 0055 08       		.uleb128 0x8
 1669 0056 3A       		.uleb128 0x3a
 1670 0057 0B       		.uleb128 0xb
 1671 0058 3B       		.uleb128 0x3b
 1672 0059 05       		.uleb128 0x5
 1673 005a 49       		.uleb128 0x49
 1674 005b 13       		.uleb128 0x13
 1675 005c 38       		.uleb128 0x38
 1676 005d 0B       		.uleb128 0xb
 1677 005e 00       		.byte	0
 1678 005f 00       		.byte	0
 1679 0060 09       		.uleb128 0x9
 1680 0061 0D       		.uleb128 0xd
 1681 0062 00       		.byte	0
 1682 0063 03       		.uleb128 0x3
 1683 0064 0E       		.uleb128 0xe
 1684 0065 3A       		.uleb128 0x3a
 1685 0066 0B       		.uleb128 0xb
 1686 0067 3B       		.uleb128 0x3b
 1687 0068 05       		.uleb128 0x5
 1688 0069 49       		.uleb128 0x49
 1689 006a 13       		.uleb128 0x13
 1690 006b 38       		.uleb128 0x38
 1691 006c 0B       		.uleb128 0xb
 1692 006d 00       		.byte	0
 1693 006e 00       		.byte	0
 1694 006f 0A       		.uleb128 0xa
 1695 0070 16       		.uleb128 0x16
 1696 0071 00       		.byte	0
 1697 0072 03       		.uleb128 0x3
 1698 0073 0E       		.uleb128 0xe
 1699 0074 3A       		.uleb128 0x3a
 1700 0075 0B       		.uleb128 0xb
 1701 0076 3B       		.uleb128 0x3b
 1702 0077 05       		.uleb128 0x5
 1703 0078 49       		.uleb128 0x49
 1704 0079 13       		.uleb128 0x13
 1705 007a 00       		.byte	0
 1706 007b 00       		.byte	0
 1707 007c 0B       		.uleb128 0xb
 1708 007d 13       		.uleb128 0x13
 1709 007e 01       		.byte	0x1
 1710 007f 0B       		.uleb128 0xb
ARM GAS  C:\Users\ADMINI~1\AppData\Local\Temp\ccR5lzz6.s 			page 31


 1711 0080 0B       		.uleb128 0xb
 1712 0081 3A       		.uleb128 0x3a
 1713 0082 0B       		.uleb128 0xb
 1714 0083 3B       		.uleb128 0x3b
 1715 0084 0B       		.uleb128 0xb
 1716 0085 01       		.uleb128 0x1
 1717 0086 13       		.uleb128 0x13
 1718 0087 00       		.byte	0
 1719 0088 00       		.byte	0
 1720 0089 0C       		.uleb128 0xc
 1721 008a 0D       		.uleb128 0xd
 1722 008b 00       		.byte	0
 1723 008c 03       		.uleb128 0x3
 1724 008d 0E       		.uleb128 0xe
 1725 008e 3A       		.uleb128 0x3a
 1726 008f 0B       		.uleb128 0xb
 1727 0090 3B       		.uleb128 0x3b
 1728 0091 0B       		.uleb128 0xb
 1729 0092 49       		.uleb128 0x49
 1730 0093 13       		.uleb128 0x13
 1731 0094 38       		.uleb128 0x38
 1732 0095 0B       		.uleb128 0xb
 1733 0096 00       		.byte	0
 1734 0097 00       		.byte	0
 1735 0098 0D       		.uleb128 0xd
 1736 0099 0F       		.uleb128 0xf
 1737 009a 00       		.byte	0
 1738 009b 0B       		.uleb128 0xb
 1739 009c 0B       		.uleb128 0xb
 1740 009d 49       		.uleb128 0x49
 1741 009e 13       		.uleb128 0x13
 1742 009f 00       		.byte	0
 1743 00a0 00       		.byte	0
 1744 00a1 0E       		.uleb128 0xe
 1745 00a2 26       		.uleb128 0x26
 1746 00a3 00       		.byte	0
 1747 00a4 49       		.uleb128 0x49
 1748 00a5 13       		.uleb128 0x13
 1749 00a6 00       		.byte	0
 1750 00a7 00       		.byte	0
 1751 00a8 0F       		.uleb128 0xf
 1752 00a9 04       		.uleb128 0x4
 1753 00aa 01       		.byte	0x1
 1754 00ab 0B       		.uleb128 0xb
 1755 00ac 0B       		.uleb128 0xb
 1756 00ad 3A       		.uleb128 0x3a
 1757 00ae 0B       		.uleb128 0xb
 1758 00af 3B       		.uleb128 0x3b
 1759 00b0 0B       		.uleb128 0xb
 1760 00b1 01       		.uleb128 0x1
 1761 00b2 13       		.uleb128 0x13
 1762 00b3 00       		.byte	0
 1763 00b4 00       		.byte	0
 1764 00b5 10       		.uleb128 0x10
 1765 00b6 28       		.uleb128 0x28
 1766 00b7 00       		.byte	0
 1767 00b8 03       		.uleb128 0x3
ARM GAS  C:\Users\ADMINI~1\AppData\Local\Temp\ccR5lzz6.s 			page 32


 1768 00b9 0E       		.uleb128 0xe
 1769 00ba 1C       		.uleb128 0x1c
 1770 00bb 0D       		.uleb128 0xd
 1771 00bc 00       		.byte	0
 1772 00bd 00       		.byte	0
 1773 00be 11       		.uleb128 0x11
 1774 00bf 13       		.uleb128 0x13
 1775 00c0 01       		.byte	0x1
 1776 00c1 03       		.uleb128 0x3
 1777 00c2 0E       		.uleb128 0xe
 1778 00c3 0B       		.uleb128 0xb
 1779 00c4 0B       		.uleb128 0xb
 1780 00c5 3A       		.uleb128 0x3a
 1781 00c6 0B       		.uleb128 0xb
 1782 00c7 3B       		.uleb128 0x3b
 1783 00c8 05       		.uleb128 0x5
 1784 00c9 01       		.uleb128 0x1
 1785 00ca 13       		.uleb128 0x13
 1786 00cb 00       		.byte	0
 1787 00cc 00       		.byte	0
 1788 00cd 12       		.uleb128 0x12
 1789 00ce 15       		.uleb128 0x15
 1790 00cf 01       		.byte	0x1
 1791 00d0 27       		.uleb128 0x27
 1792 00d1 19       		.uleb128 0x19
 1793 00d2 01       		.uleb128 0x1
 1794 00d3 13       		.uleb128 0x13
 1795 00d4 00       		.byte	0
 1796 00d5 00       		.byte	0
 1797 00d6 13       		.uleb128 0x13
 1798 00d7 05       		.uleb128 0x5
 1799 00d8 00       		.byte	0
 1800 00d9 49       		.uleb128 0x49
 1801 00da 13       		.uleb128 0x13
 1802 00db 00       		.byte	0
 1803 00dc 00       		.byte	0
 1804 00dd 14       		.uleb128 0x14
 1805 00de 2E       		.uleb128 0x2e
 1806 00df 01       		.byte	0x1
 1807 00e0 3F       		.uleb128 0x3f
 1808 00e1 19       		.uleb128 0x19
 1809 00e2 03       		.uleb128 0x3
 1810 00e3 0E       		.uleb128 0xe
 1811 00e4 3A       		.uleb128 0x3a
 1812 00e5 0B       		.uleb128 0xb
 1813 00e6 3B       		.uleb128 0x3b
 1814 00e7 0B       		.uleb128 0xb
 1815 00e8 27       		.uleb128 0x27
 1816 00e9 19       		.uleb128 0x19
 1817 00ea 11       		.uleb128 0x11
 1818 00eb 01       		.uleb128 0x1
 1819 00ec 12       		.uleb128 0x12
 1820 00ed 06       		.uleb128 0x6
 1821 00ee 40       		.uleb128 0x40
 1822 00ef 18       		.uleb128 0x18
 1823 00f0 9742     		.uleb128 0x2117
 1824 00f2 19       		.uleb128 0x19
ARM GAS  C:\Users\ADMINI~1\AppData\Local\Temp\ccR5lzz6.s 			page 33


 1825 00f3 01       		.uleb128 0x1
 1826 00f4 13       		.uleb128 0x13
 1827 00f5 00       		.byte	0
 1828 00f6 00       		.byte	0
 1829 00f7 15       		.uleb128 0x15
 1830 00f8 898201   		.uleb128 0x4109
 1831 00fb 00       		.byte	0
 1832 00fc 11       		.uleb128 0x11
 1833 00fd 01       		.uleb128 0x1
 1834 00fe 9542     		.uleb128 0x2115
 1835 0100 19       		.uleb128 0x19
 1836 0101 31       		.uleb128 0x31
 1837 0102 13       		.uleb128 0x13
 1838 0103 00       		.byte	0
 1839 0104 00       		.byte	0
 1840 0105 16       		.uleb128 0x16
 1841 0106 05       		.uleb128 0x5
 1842 0107 00       		.byte	0
 1843 0108 03       		.uleb128 0x3
 1844 0109 0E       		.uleb128 0xe
 1845 010a 3A       		.uleb128 0x3a
 1846 010b 0B       		.uleb128 0xb
 1847 010c 3B       		.uleb128 0x3b
 1848 010d 0B       		.uleb128 0xb
 1849 010e 49       		.uleb128 0x49
 1850 010f 13       		.uleb128 0x13
 1851 0110 02       		.uleb128 0x2
 1852 0111 18       		.uleb128 0x18
 1853 0112 00       		.byte	0
 1854 0113 00       		.byte	0
 1855 0114 17       		.uleb128 0x17
 1856 0115 05       		.uleb128 0x5
 1857 0116 00       		.byte	0
 1858 0117 03       		.uleb128 0x3
 1859 0118 0E       		.uleb128 0xe
 1860 0119 3A       		.uleb128 0x3a
 1861 011a 0B       		.uleb128 0xb
 1862 011b 3B       		.uleb128 0x3b
 1863 011c 0B       		.uleb128 0xb
 1864 011d 49       		.uleb128 0x49
 1865 011e 13       		.uleb128 0x13
 1866 011f 02       		.uleb128 0x2
 1867 0120 17       		.uleb128 0x17
 1868 0121 00       		.byte	0
 1869 0122 00       		.byte	0
 1870 0123 18       		.uleb128 0x18
 1871 0124 898201   		.uleb128 0x4109
 1872 0127 01       		.byte	0x1
 1873 0128 11       		.uleb128 0x11
 1874 0129 01       		.uleb128 0x1
 1875 012a 31       		.uleb128 0x31
 1876 012b 13       		.uleb128 0x13
 1877 012c 00       		.byte	0
 1878 012d 00       		.byte	0
 1879 012e 19       		.uleb128 0x19
 1880 012f 8A8201   		.uleb128 0x410a
 1881 0132 00       		.byte	0
ARM GAS  C:\Users\ADMINI~1\AppData\Local\Temp\ccR5lzz6.s 			page 34


 1882 0133 02       		.uleb128 0x2
 1883 0134 18       		.uleb128 0x18
 1884 0135 9142     		.uleb128 0x2111
 1885 0137 18       		.uleb128 0x18
 1886 0138 00       		.byte	0
 1887 0139 00       		.byte	0
 1888 013a 1A       		.uleb128 0x1a
 1889 013b 05       		.uleb128 0x5
 1890 013c 00       		.byte	0
 1891 013d 03       		.uleb128 0x3
 1892 013e 08       		.uleb128 0x8
 1893 013f 3A       		.uleb128 0x3a
 1894 0140 0B       		.uleb128 0xb
 1895 0141 3B       		.uleb128 0x3b
 1896 0142 0B       		.uleb128 0xb
 1897 0143 49       		.uleb128 0x49
 1898 0144 13       		.uleb128 0x13
 1899 0145 02       		.uleb128 0x2
 1900 0146 17       		.uleb128 0x17
 1901 0147 00       		.byte	0
 1902 0148 00       		.byte	0
 1903 0149 1B       		.uleb128 0x1b
 1904 014a 26       		.uleb128 0x26
 1905 014b 00       		.byte	0
 1906 014c 00       		.byte	0
 1907 014d 00       		.byte	0
 1908 014e 1C       		.uleb128 0x1c
 1909 014f 2E       		.uleb128 0x2e
 1910 0150 01       		.byte	0x1
 1911 0151 3F       		.uleb128 0x3f
 1912 0152 19       		.uleb128 0x19
 1913 0153 03       		.uleb128 0x3
 1914 0154 0E       		.uleb128 0xe
 1915 0155 3A       		.uleb128 0x3a
 1916 0156 0B       		.uleb128 0xb
 1917 0157 3B       		.uleb128 0x3b
 1918 0158 0B       		.uleb128 0xb
 1919 0159 27       		.uleb128 0x27
 1920 015a 19       		.uleb128 0x19
 1921 015b 49       		.uleb128 0x49
 1922 015c 13       		.uleb128 0x13
 1923 015d 11       		.uleb128 0x11
 1924 015e 01       		.uleb128 0x1
 1925 015f 12       		.uleb128 0x12
 1926 0160 06       		.uleb128 0x6
 1927 0161 40       		.uleb128 0x40
 1928 0162 18       		.uleb128 0x18
 1929 0163 9742     		.uleb128 0x2117
 1930 0165 19       		.uleb128 0x19
 1931 0166 01       		.uleb128 0x1
 1932 0167 13       		.uleb128 0x13
 1933 0168 00       		.byte	0
 1934 0169 00       		.byte	0
 1935 016a 1D       		.uleb128 0x1d
 1936 016b 34       		.uleb128 0x34
 1937 016c 00       		.byte	0
 1938 016d 03       		.uleb128 0x3
ARM GAS  C:\Users\ADMINI~1\AppData\Local\Temp\ccR5lzz6.s 			page 35


 1939 016e 08       		.uleb128 0x8
 1940 016f 3A       		.uleb128 0x3a
 1941 0170 0B       		.uleb128 0xb
 1942 0171 3B       		.uleb128 0x3b
 1943 0172 0B       		.uleb128 0xb
 1944 0173 49       		.uleb128 0x49
 1945 0174 13       		.uleb128 0x13
 1946 0175 02       		.uleb128 0x2
 1947 0176 17       		.uleb128 0x17
 1948 0177 00       		.byte	0
 1949 0178 00       		.byte	0
 1950 0179 1E       		.uleb128 0x1e
 1951 017a 0B       		.uleb128 0xb
 1952 017b 01       		.byte	0x1
 1953 017c 11       		.uleb128 0x11
 1954 017d 01       		.uleb128 0x1
 1955 017e 12       		.uleb128 0x12
 1956 017f 06       		.uleb128 0x6
 1957 0180 00       		.byte	0
 1958 0181 00       		.byte	0
 1959 0182 1F       		.uleb128 0x1f
 1960 0183 34       		.uleb128 0x34
 1961 0184 00       		.byte	0
 1962 0185 03       		.uleb128 0x3
 1963 0186 08       		.uleb128 0x8
 1964 0187 3A       		.uleb128 0x3a
 1965 0188 0B       		.uleb128 0xb
 1966 0189 3B       		.uleb128 0x3b
 1967 018a 0B       		.uleb128 0xb
 1968 018b 49       		.uleb128 0x49
 1969 018c 13       		.uleb128 0x13
 1970 018d 02       		.uleb128 0x2
 1971 018e 18       		.uleb128 0x18
 1972 018f 00       		.byte	0
 1973 0190 00       		.byte	0
 1974 0191 20       		.uleb128 0x20
 1975 0192 2E       		.uleb128 0x2e
 1976 0193 01       		.byte	0x1
 1977 0194 3F       		.uleb128 0x3f
 1978 0195 19       		.uleb128 0x19
 1979 0196 03       		.uleb128 0x3
 1980 0197 0E       		.uleb128 0xe
 1981 0198 3A       		.uleb128 0x3a
 1982 0199 0B       		.uleb128 0xb
 1983 019a 3B       		.uleb128 0x3b
 1984 019b 05       		.uleb128 0x5
 1985 019c 27       		.uleb128 0x27
 1986 019d 19       		.uleb128 0x19
 1987 019e 11       		.uleb128 0x11
 1988 019f 01       		.uleb128 0x1
 1989 01a0 12       		.uleb128 0x12
 1990 01a1 06       		.uleb128 0x6
 1991 01a2 40       		.uleb128 0x40
 1992 01a3 18       		.uleb128 0x18
 1993 01a4 9742     		.uleb128 0x2117
 1994 01a6 19       		.uleb128 0x19
 1995 01a7 01       		.uleb128 0x1
ARM GAS  C:\Users\ADMINI~1\AppData\Local\Temp\ccR5lzz6.s 			page 36


 1996 01a8 13       		.uleb128 0x13
 1997 01a9 00       		.byte	0
 1998 01aa 00       		.byte	0
 1999 01ab 21       		.uleb128 0x21
 2000 01ac 05       		.uleb128 0x5
 2001 01ad 00       		.byte	0
 2002 01ae 03       		.uleb128 0x3
 2003 01af 0E       		.uleb128 0xe
 2004 01b0 3A       		.uleb128 0x3a
 2005 01b1 0B       		.uleb128 0xb
 2006 01b2 3B       		.uleb128 0x3b
 2007 01b3 05       		.uleb128 0x5
 2008 01b4 49       		.uleb128 0x49
 2009 01b5 13       		.uleb128 0x13
 2010 01b6 02       		.uleb128 0x2
 2011 01b7 17       		.uleb128 0x17
 2012 01b8 00       		.byte	0
 2013 01b9 00       		.byte	0
 2014 01ba 22       		.uleb128 0x22
 2015 01bb 05       		.uleb128 0x5
 2016 01bc 00       		.byte	0
 2017 01bd 03       		.uleb128 0x3
 2018 01be 08       		.uleb128 0x8
 2019 01bf 3A       		.uleb128 0x3a
 2020 01c0 0B       		.uleb128 0xb
 2021 01c1 3B       		.uleb128 0x3b
 2022 01c2 05       		.uleb128 0x5
 2023 01c3 49       		.uleb128 0x49
 2024 01c4 13       		.uleb128 0x13
 2025 01c5 02       		.uleb128 0x2
 2026 01c6 17       		.uleb128 0x17
 2027 01c7 00       		.byte	0
 2028 01c8 00       		.byte	0
 2029 01c9 23       		.uleb128 0x23
 2030 01ca 2E       		.uleb128 0x2e
 2031 01cb 01       		.byte	0x1
 2032 01cc 3F       		.uleb128 0x3f
 2033 01cd 19       		.uleb128 0x19
 2034 01ce 03       		.uleb128 0x3
 2035 01cf 0E       		.uleb128 0xe
 2036 01d0 3A       		.uleb128 0x3a
 2037 01d1 0B       		.uleb128 0xb
 2038 01d2 3B       		.uleb128 0x3b
 2039 01d3 05       		.uleb128 0x5
 2040 01d4 27       		.uleb128 0x27
 2041 01d5 19       		.uleb128 0x19
 2042 01d6 49       		.uleb128 0x49
 2043 01d7 13       		.uleb128 0x13
 2044 01d8 11       		.uleb128 0x11
 2045 01d9 01       		.uleb128 0x1
 2046 01da 12       		.uleb128 0x12
 2047 01db 06       		.uleb128 0x6
 2048 01dc 40       		.uleb128 0x40
 2049 01dd 18       		.uleb128 0x18
 2050 01de 9742     		.uleb128 0x2117
 2051 01e0 19       		.uleb128 0x19
 2052 01e1 01       		.uleb128 0x1
ARM GAS  C:\Users\ADMINI~1\AppData\Local\Temp\ccR5lzz6.s 			page 37


 2053 01e2 13       		.uleb128 0x13
 2054 01e3 00       		.byte	0
 2055 01e4 00       		.byte	0
 2056 01e5 24       		.uleb128 0x24
 2057 01e6 34       		.uleb128 0x34
 2058 01e7 00       		.byte	0
 2059 01e8 03       		.uleb128 0x3
 2060 01e9 08       		.uleb128 0x8
 2061 01ea 3A       		.uleb128 0x3a
 2062 01eb 0B       		.uleb128 0xb
 2063 01ec 3B       		.uleb128 0x3b
 2064 01ed 05       		.uleb128 0x5
 2065 01ee 49       		.uleb128 0x49
 2066 01ef 13       		.uleb128 0x13
 2067 01f0 02       		.uleb128 0x2
 2068 01f1 17       		.uleb128 0x17
 2069 01f2 00       		.byte	0
 2070 01f3 00       		.byte	0
 2071 01f4 25       		.uleb128 0x25
 2072 01f5 34       		.uleb128 0x34
 2073 01f6 00       		.byte	0
 2074 01f7 03       		.uleb128 0x3
 2075 01f8 08       		.uleb128 0x8
 2076 01f9 3A       		.uleb128 0x3a
 2077 01fa 0B       		.uleb128 0xb
 2078 01fb 3B       		.uleb128 0x3b
 2079 01fc 05       		.uleb128 0x5
 2080 01fd 49       		.uleb128 0x49
 2081 01fe 13       		.uleb128 0x13
 2082 01ff 02       		.uleb128 0x2
 2083 0200 18       		.uleb128 0x18
 2084 0201 00       		.byte	0
 2085 0202 00       		.byte	0
 2086 0203 26       		.uleb128 0x26
 2087 0204 34       		.uleb128 0x34
 2088 0205 00       		.byte	0
 2089 0206 03       		.uleb128 0x3
 2090 0207 0E       		.uleb128 0xe
 2091 0208 3A       		.uleb128 0x3a
 2092 0209 0B       		.uleb128 0xb
 2093 020a 3B       		.uleb128 0x3b
 2094 020b 05       		.uleb128 0x5
 2095 020c 49       		.uleb128 0x49
 2096 020d 13       		.uleb128 0x13
 2097 020e 3F       		.uleb128 0x3f
 2098 020f 19       		.uleb128 0x19
 2099 0210 3C       		.uleb128 0x3c
 2100 0211 19       		.uleb128 0x19
 2101 0212 00       		.byte	0
 2102 0213 00       		.byte	0
 2103 0214 27       		.uleb128 0x27
 2104 0215 2E       		.uleb128 0x2e
 2105 0216 00       		.byte	0
 2106 0217 3F       		.uleb128 0x3f
 2107 0218 19       		.uleb128 0x19
 2108 0219 03       		.uleb128 0x3
 2109 021a 0E       		.uleb128 0xe
ARM GAS  C:\Users\ADMINI~1\AppData\Local\Temp\ccR5lzz6.s 			page 38


 2110 021b 3A       		.uleb128 0x3a
 2111 021c 0B       		.uleb128 0xb
 2112 021d 3B       		.uleb128 0x3b
 2113 021e 05       		.uleb128 0x5
 2114 021f 27       		.uleb128 0x27
 2115 0220 19       		.uleb128 0x19
 2116 0221 3C       		.uleb128 0x3c
 2117 0222 19       		.uleb128 0x19
 2118 0223 00       		.byte	0
 2119 0224 00       		.byte	0
 2120 0225 28       		.uleb128 0x28
 2121 0226 2E       		.uleb128 0x2e
 2122 0227 01       		.byte	0x1
 2123 0228 3F       		.uleb128 0x3f
 2124 0229 19       		.uleb128 0x19
 2125 022a 03       		.uleb128 0x3
 2126 022b 0E       		.uleb128 0xe
 2127 022c 3A       		.uleb128 0x3a
 2128 022d 0B       		.uleb128 0xb
 2129 022e 3B       		.uleb128 0x3b
 2130 022f 05       		.uleb128 0x5
 2131 0230 27       		.uleb128 0x27
 2132 0231 19       		.uleb128 0x19
 2133 0232 3C       		.uleb128 0x3c
 2134 0233 19       		.uleb128 0x19
 2135 0234 01       		.uleb128 0x1
 2136 0235 13       		.uleb128 0x13
 2137 0236 00       		.byte	0
 2138 0237 00       		.byte	0
 2139 0238 29       		.uleb128 0x29
 2140 0239 2E       		.uleb128 0x2e
 2141 023a 01       		.byte	0x1
 2142 023b 3F       		.uleb128 0x3f
 2143 023c 19       		.uleb128 0x19
 2144 023d 03       		.uleb128 0x3
 2145 023e 0E       		.uleb128 0xe
 2146 023f 3A       		.uleb128 0x3a
 2147 0240 0B       		.uleb128 0xb
 2148 0241 3B       		.uleb128 0x3b
 2149 0242 05       		.uleb128 0x5
 2150 0243 27       		.uleb128 0x27
 2151 0244 19       		.uleb128 0x19
 2152 0245 49       		.uleb128 0x49
 2153 0246 13       		.uleb128 0x13
 2154 0247 3C       		.uleb128 0x3c
 2155 0248 19       		.uleb128 0x19
 2156 0249 01       		.uleb128 0x1
 2157 024a 13       		.uleb128 0x13
 2158 024b 00       		.byte	0
 2159 024c 00       		.byte	0
 2160 024d 2A       		.uleb128 0x2a
 2161 024e 2E       		.uleb128 0x2e
 2162 024f 01       		.byte	0x1
 2163 0250 3F       		.uleb128 0x3f
 2164 0251 19       		.uleb128 0x19
 2165 0252 03       		.uleb128 0x3
 2166 0253 0E       		.uleb128 0xe
ARM GAS  C:\Users\ADMINI~1\AppData\Local\Temp\ccR5lzz6.s 			page 39


 2167 0254 3A       		.uleb128 0x3a
 2168 0255 0B       		.uleb128 0xb
 2169 0256 3B       		.uleb128 0x3b
 2170 0257 05       		.uleb128 0x5
 2171 0258 27       		.uleb128 0x27
 2172 0259 19       		.uleb128 0x19
 2173 025a 49       		.uleb128 0x49
 2174 025b 13       		.uleb128 0x13
 2175 025c 3C       		.uleb128 0x3c
 2176 025d 19       		.uleb128 0x19
 2177 025e 00       		.byte	0
 2178 025f 00       		.byte	0
 2179 0260 00       		.byte	0
 2180              		.section	.debug_loc,"",%progbits
 2181              	.Ldebug_loc0:
 2182              	.LLST0:
 2183 0000 00000000 		.4byte	.LVL2
 2184 0004 0B000000 		.4byte	.LVL3-1
 2185 0008 0100     		.2byte	0x1
 2186 000a 50       		.byte	0x50
 2187 000b 0B000000 		.4byte	.LVL3-1
 2188 000f 14000000 		.4byte	.LFE120
 2189 0013 0100     		.2byte	0x1
 2190 0015 54       		.byte	0x54
 2191 0016 00000000 		.4byte	0
 2192 001a 00000000 		.4byte	0
 2193              	.LLST1:
 2194 001e 00000000 		.4byte	.LVL2
 2195 0022 0B000000 		.4byte	.LVL3-1
 2196 0026 0100     		.2byte	0x1
 2197 0028 51       		.byte	0x51
 2198 0029 0B000000 		.4byte	.LVL3-1
 2199 002d 14000000 		.4byte	.LFE120
 2200 0031 0400     		.2byte	0x4
 2201 0033 F3       		.byte	0xf3
 2202 0034 01       		.uleb128 0x1
 2203 0035 51       		.byte	0x51
 2204 0036 9F       		.byte	0x9f
 2205 0037 00000000 		.4byte	0
 2206 003b 00000000 		.4byte	0
 2207              	.LLST2:
 2208 003f 00000000 		.4byte	.LVL4
 2209 0043 09000000 		.4byte	.LVL5-1
 2210 0047 0100     		.2byte	0x1
 2211 0049 50       		.byte	0x50
 2212 004a 09000000 		.4byte	.LVL5-1
 2213 004e 18000000 		.4byte	.LFE121
 2214 0052 0100     		.2byte	0x1
 2215 0054 54       		.byte	0x54
 2216 0055 00000000 		.4byte	0
 2217 0059 00000000 		.4byte	0
 2218              	.LLST3:
 2219 005d 00000000 		.4byte	.LVL6
 2220 0061 09000000 		.4byte	.LVL7-1
 2221 0065 0100     		.2byte	0x1
 2222 0067 50       		.byte	0x50
 2223 0068 09000000 		.4byte	.LVL7-1
ARM GAS  C:\Users\ADMINI~1\AppData\Local\Temp\ccR5lzz6.s 			page 40


 2224 006c 12000000 		.4byte	.LFE122
 2225 0070 0100     		.2byte	0x1
 2226 0072 54       		.byte	0x54
 2227 0073 00000000 		.4byte	0
 2228 0077 00000000 		.4byte	0
 2229              	.LLST4:
 2230 007b 00000000 		.4byte	.LVL6
 2231 007f 09000000 		.4byte	.LVL7-1
 2232 0083 0100     		.2byte	0x1
 2233 0085 51       		.byte	0x51
 2234 0086 09000000 		.4byte	.LVL7-1
 2235 008a 12000000 		.4byte	.LFE122
 2236 008e 0400     		.2byte	0x4
 2237 0090 F3       		.byte	0xf3
 2238 0091 01       		.uleb128 0x1
 2239 0092 51       		.byte	0x51
 2240 0093 9F       		.byte	0x9f
 2241 0094 00000000 		.4byte	0
 2242 0098 00000000 		.4byte	0
 2243              	.LLST5:
 2244 009c 00000000 		.4byte	.LVL6
 2245 00a0 09000000 		.4byte	.LVL7-1
 2246 00a4 0100     		.2byte	0x1
 2247 00a6 52       		.byte	0x52
 2248 00a7 09000000 		.4byte	.LVL7-1
 2249 00ab 12000000 		.4byte	.LFE122
 2250 00af 0400     		.2byte	0x4
 2251 00b1 F3       		.byte	0xf3
 2252 00b2 01       		.uleb128 0x1
 2253 00b3 52       		.byte	0x52
 2254 00b4 9F       		.byte	0x9f
 2255 00b5 00000000 		.4byte	0
 2256 00b9 00000000 		.4byte	0
 2257              	.LLST6:
 2258 00bd 00000000 		.4byte	.LVL8
 2259 00c1 07000000 		.4byte	.LVL9-1
 2260 00c5 0100     		.2byte	0x1
 2261 00c7 50       		.byte	0x50
 2262 00c8 07000000 		.4byte	.LVL9-1
 2263 00cc 0E000000 		.4byte	.LFE123
 2264 00d0 0100     		.2byte	0x1
 2265 00d2 54       		.byte	0x54
 2266 00d3 00000000 		.4byte	0
 2267 00d7 00000000 		.4byte	0
 2268              	.LLST7:
 2269 00db 00000000 		.4byte	.LVL8
 2270 00df 07000000 		.4byte	.LVL9-1
 2271 00e3 0100     		.2byte	0x1
 2272 00e5 51       		.byte	0x51
 2273 00e6 07000000 		.4byte	.LVL9-1
 2274 00ea 0E000000 		.4byte	.LFE123
 2275 00ee 0400     		.2byte	0x4
 2276 00f0 F3       		.byte	0xf3
 2277 00f1 01       		.uleb128 0x1
 2278 00f2 51       		.byte	0x51
 2279 00f3 9F       		.byte	0x9f
 2280 00f4 00000000 		.4byte	0
ARM GAS  C:\Users\ADMINI~1\AppData\Local\Temp\ccR5lzz6.s 			page 41


 2281 00f8 00000000 		.4byte	0
 2282              	.LLST8:
 2283 00fc 00000000 		.4byte	.LVL8
 2284 0100 07000000 		.4byte	.LVL9-1
 2285 0104 0100     		.2byte	0x1
 2286 0106 52       		.byte	0x52
 2287 0107 07000000 		.4byte	.LVL9-1
 2288 010b 0E000000 		.4byte	.LFE123
 2289 010f 0400     		.2byte	0x4
 2290 0111 F3       		.byte	0xf3
 2291 0112 01       		.uleb128 0x1
 2292 0113 52       		.byte	0x52
 2293 0114 9F       		.byte	0x9f
 2294 0115 00000000 		.4byte	0
 2295 0119 00000000 		.4byte	0
 2296              	.LLST9:
 2297 011d 00000000 		.4byte	.LVL10
 2298 0121 0A000000 		.4byte	.LVL11
 2299 0125 0100     		.2byte	0x1
 2300 0127 50       		.byte	0x50
 2301 0128 0A000000 		.4byte	.LVL11
 2302 012c 0E000000 		.4byte	.LVL12
 2303 0130 0400     		.2byte	0x4
 2304 0132 F3       		.byte	0xf3
 2305 0133 01       		.uleb128 0x1
 2306 0134 50       		.byte	0x50
 2307 0135 9F       		.byte	0x9f
 2308 0136 0E000000 		.4byte	.LVL12
 2309 013a 15000000 		.4byte	.LVL13-1
 2310 013e 0100     		.2byte	0x1
 2311 0140 50       		.byte	0x50
 2312 0141 15000000 		.4byte	.LVL13-1
 2313 0145 1E000000 		.4byte	.LFE124
 2314 0149 0100     		.2byte	0x1
 2315 014b 54       		.byte	0x54
 2316 014c 00000000 		.4byte	0
 2317 0150 00000000 		.4byte	0
 2318              	.LLST10:
 2319 0154 0A000000 		.4byte	.LVL11
 2320 0158 0E000000 		.4byte	.LVL12
 2321 015c 0100     		.2byte	0x1
 2322 015e 50       		.byte	0x50
 2323 015f 16000000 		.4byte	.LVL13
 2324 0163 1E000000 		.4byte	.LFE124
 2325 0167 0100     		.2byte	0x1
 2326 0169 50       		.byte	0x50
 2327 016a 00000000 		.4byte	0
 2328 016e 00000000 		.4byte	0
 2329              	.LLST11:
 2330 0172 00000000 		.4byte	.LVL14
 2331 0176 08000000 		.4byte	.LVL15
 2332 017a 0100     		.2byte	0x1
 2333 017c 50       		.byte	0x50
 2334 017d 08000000 		.4byte	.LVL15
 2335 0181 0A000000 		.4byte	.LVL16
 2336 0185 0400     		.2byte	0x4
 2337 0187 F3       		.byte	0xf3
ARM GAS  C:\Users\ADMINI~1\AppData\Local\Temp\ccR5lzz6.s 			page 42


 2338 0188 01       		.uleb128 0x1
 2339 0189 50       		.byte	0x50
 2340 018a 9F       		.byte	0x9f
 2341 018b 0A000000 		.4byte	.LVL16
 2342 018f 11000000 		.4byte	.LVL17-1
 2343 0193 0100     		.2byte	0x1
 2344 0195 50       		.byte	0x50
 2345 0196 11000000 		.4byte	.LVL17-1
 2346 019a 18000000 		.4byte	.LFE125
 2347 019e 0100     		.2byte	0x1
 2348 01a0 54       		.byte	0x54
 2349 01a1 00000000 		.4byte	0
 2350 01a5 00000000 		.4byte	0
 2351              	.LLST12:
 2352 01a9 00000000 		.4byte	.LVL18
 2353 01ad 09000000 		.4byte	.LVL19-1
 2354 01b1 0100     		.2byte	0x1
 2355 01b3 50       		.byte	0x50
 2356 01b4 09000000 		.4byte	.LVL19-1
 2357 01b8 12000000 		.4byte	.LFE126
 2358 01bc 0100     		.2byte	0x1
 2359 01be 54       		.byte	0x54
 2360 01bf 00000000 		.4byte	0
 2361 01c3 00000000 		.4byte	0
 2362              	.LLST13:
 2363 01c7 00000000 		.4byte	.LVL18
 2364 01cb 09000000 		.4byte	.LVL19-1
 2365 01cf 0100     		.2byte	0x1
 2366 01d1 51       		.byte	0x51
 2367 01d2 09000000 		.4byte	.LVL19-1
 2368 01d6 12000000 		.4byte	.LFE126
 2369 01da 0400     		.2byte	0x4
 2370 01dc F3       		.byte	0xf3
 2371 01dd 01       		.uleb128 0x1
 2372 01de 51       		.byte	0x51
 2373 01df 9F       		.byte	0x9f
 2374 01e0 00000000 		.4byte	0
 2375 01e4 00000000 		.4byte	0
 2376              	.LLST14:
 2377 01e8 00000000 		.4byte	.LVL18
 2378 01ec 09000000 		.4byte	.LVL19-1
 2379 01f0 0100     		.2byte	0x1
 2380 01f2 52       		.byte	0x52
 2381 01f3 09000000 		.4byte	.LVL19-1
 2382 01f7 12000000 		.4byte	.LFE126
 2383 01fb 0400     		.2byte	0x4
 2384 01fd F3       		.byte	0xf3
 2385 01fe 01       		.uleb128 0x1
 2386 01ff 52       		.byte	0x52
 2387 0200 9F       		.byte	0x9f
 2388 0201 00000000 		.4byte	0
 2389 0205 00000000 		.4byte	0
 2390              	.LLST15:
 2391 0209 00000000 		.4byte	.LVL20
 2392 020d 07000000 		.4byte	.LVL21-1
 2393 0211 0100     		.2byte	0x1
 2394 0213 50       		.byte	0x50
ARM GAS  C:\Users\ADMINI~1\AppData\Local\Temp\ccR5lzz6.s 			page 43


 2395 0214 07000000 		.4byte	.LVL21-1
 2396 0218 0E000000 		.4byte	.LFE127
 2397 021c 0100     		.2byte	0x1
 2398 021e 54       		.byte	0x54
 2399 021f 00000000 		.4byte	0
 2400 0223 00000000 		.4byte	0
 2401              	.LLST16:
 2402 0227 00000000 		.4byte	.LVL20
 2403 022b 07000000 		.4byte	.LVL21-1
 2404 022f 0100     		.2byte	0x1
 2405 0231 51       		.byte	0x51
 2406 0232 07000000 		.4byte	.LVL21-1
 2407 0236 0E000000 		.4byte	.LFE127
 2408 023a 0400     		.2byte	0x4
 2409 023c F3       		.byte	0xf3
 2410 023d 01       		.uleb128 0x1
 2411 023e 51       		.byte	0x51
 2412 023f 9F       		.byte	0x9f
 2413 0240 00000000 		.4byte	0
 2414 0244 00000000 		.4byte	0
 2415              	.LLST17:
 2416 0248 00000000 		.4byte	.LVL20
 2417 024c 07000000 		.4byte	.LVL21-1
 2418 0250 0100     		.2byte	0x1
 2419 0252 52       		.byte	0x52
 2420 0253 07000000 		.4byte	.LVL21-1
 2421 0257 0E000000 		.4byte	.LFE127
 2422 025b 0400     		.2byte	0x4
 2423 025d F3       		.byte	0xf3
 2424 025e 01       		.uleb128 0x1
 2425 025f 52       		.byte	0x52
 2426 0260 9F       		.byte	0x9f
 2427 0261 00000000 		.4byte	0
 2428 0265 00000000 		.4byte	0
 2429              	.LLST18:
 2430 0269 00000000 		.4byte	.LVL22
 2431 026d 0A000000 		.4byte	.LVL23
 2432 0271 0100     		.2byte	0x1
 2433 0273 50       		.byte	0x50
 2434 0274 0A000000 		.4byte	.LVL23
 2435 0278 0E000000 		.4byte	.LVL24
 2436 027c 0400     		.2byte	0x4
 2437 027e F3       		.byte	0xf3
 2438 027f 01       		.uleb128 0x1
 2439 0280 50       		.byte	0x50
 2440 0281 9F       		.byte	0x9f
 2441 0282 0E000000 		.4byte	.LVL24
 2442 0286 15000000 		.4byte	.LVL25-1
 2443 028a 0100     		.2byte	0x1
 2444 028c 50       		.byte	0x50
 2445 028d 15000000 		.4byte	.LVL25-1
 2446 0291 1E000000 		.4byte	.LFE128
 2447 0295 0100     		.2byte	0x1
 2448 0297 54       		.byte	0x54
 2449 0298 00000000 		.4byte	0
 2450 029c 00000000 		.4byte	0
 2451              	.LLST19:
ARM GAS  C:\Users\ADMINI~1\AppData\Local\Temp\ccR5lzz6.s 			page 44


 2452 02a0 0A000000 		.4byte	.LVL23
 2453 02a4 0E000000 		.4byte	.LVL24
 2454 02a8 0100     		.2byte	0x1
 2455 02aa 50       		.byte	0x50
 2456 02ab 16000000 		.4byte	.LVL25
 2457 02af 1E000000 		.4byte	.LFE128
 2458 02b3 0100     		.2byte	0x1
 2459 02b5 50       		.byte	0x50
 2460 02b6 00000000 		.4byte	0
 2461 02ba 00000000 		.4byte	0
 2462              	.LLST20:
 2463 02be 00000000 		.4byte	.LVL26
 2464 02c2 08000000 		.4byte	.LVL27
 2465 02c6 0100     		.2byte	0x1
 2466 02c8 50       		.byte	0x50
 2467 02c9 08000000 		.4byte	.LVL27
 2468 02cd 0A000000 		.4byte	.LVL28
 2469 02d1 0400     		.2byte	0x4
 2470 02d3 F3       		.byte	0xf3
 2471 02d4 01       		.uleb128 0x1
 2472 02d5 50       		.byte	0x50
 2473 02d6 9F       		.byte	0x9f
 2474 02d7 0A000000 		.4byte	.LVL28
 2475 02db 11000000 		.4byte	.LVL29-1
 2476 02df 0100     		.2byte	0x1
 2477 02e1 50       		.byte	0x50
 2478 02e2 11000000 		.4byte	.LVL29-1
 2479 02e6 18000000 		.4byte	.LFE129
 2480 02ea 0100     		.2byte	0x1
 2481 02ec 54       		.byte	0x54
 2482 02ed 00000000 		.4byte	0
 2483 02f1 00000000 		.4byte	0
 2484              		.section	.debug_aranges,"",%progbits
 2485 0000 74000000 		.4byte	0x74
 2486 0004 0200     		.2byte	0x2
 2487 0006 00000000 		.4byte	.Ldebug_info0
 2488 000a 04       		.byte	0x4
 2489 000b 00       		.byte	0
 2490 000c 0000     		.2byte	0
 2491 000e 0000     		.2byte	0
 2492 0010 00000000 		.4byte	.LFB118
 2493 0014 04000000 		.4byte	.LFE118-.LFB118
 2494 0018 00000000 		.4byte	.LFB119
 2495 001c 0E000000 		.4byte	.LFE119-.LFB119
 2496 0020 00000000 		.4byte	.LFB120
 2497 0024 14000000 		.4byte	.LFE120-.LFB120
 2498 0028 00000000 		.4byte	.LFB121
 2499 002c 18000000 		.4byte	.LFE121-.LFB121
 2500 0030 00000000 		.4byte	.LFB122
 2501 0034 12000000 		.4byte	.LFE122-.LFB122
 2502 0038 00000000 		.4byte	.LFB123
 2503 003c 0E000000 		.4byte	.LFE123-.LFB123
 2504 0040 00000000 		.4byte	.LFB124
 2505 0044 1E000000 		.4byte	.LFE124-.LFB124
 2506 0048 00000000 		.4byte	.LFB125
 2507 004c 18000000 		.4byte	.LFE125-.LFB125
 2508 0050 00000000 		.4byte	.LFB126
ARM GAS  C:\Users\ADMINI~1\AppData\Local\Temp\ccR5lzz6.s 			page 45


 2509 0054 12000000 		.4byte	.LFE126-.LFB126
 2510 0058 00000000 		.4byte	.LFB127
 2511 005c 0E000000 		.4byte	.LFE127-.LFB127
 2512 0060 00000000 		.4byte	.LFB128
 2513 0064 1E000000 		.4byte	.LFE128-.LFB128
 2514 0068 00000000 		.4byte	.LFB129
 2515 006c 18000000 		.4byte	.LFE129-.LFB129
 2516 0070 00000000 		.4byte	0
 2517 0074 00000000 		.4byte	0
 2518              		.section	.debug_ranges,"",%progbits
 2519              	.Ldebug_ranges0:
 2520 0000 00000000 		.4byte	.LFB118
 2521 0004 04000000 		.4byte	.LFE118
 2522 0008 00000000 		.4byte	.LFB119
 2523 000c 0E000000 		.4byte	.LFE119
 2524 0010 00000000 		.4byte	.LFB120
 2525 0014 14000000 		.4byte	.LFE120
 2526 0018 00000000 		.4byte	.LFB121
 2527 001c 18000000 		.4byte	.LFE121
 2528 0020 00000000 		.4byte	.LFB122
 2529 0024 12000000 		.4byte	.LFE122
 2530 0028 00000000 		.4byte	.LFB123
 2531 002c 0E000000 		.4byte	.LFE123
 2532 0030 00000000 		.4byte	.LFB124
 2533 0034 1E000000 		.4byte	.LFE124
 2534 0038 00000000 		.4byte	.LFB125
 2535 003c 18000000 		.4byte	.LFE125
 2536 0040 00000000 		.4byte	.LFB126
 2537 0044 12000000 		.4byte	.LFE126
 2538 0048 00000000 		.4byte	.LFB127
 2539 004c 0E000000 		.4byte	.LFE127
 2540 0050 00000000 		.4byte	.LFB128
 2541 0054 1E000000 		.4byte	.LFE128
 2542 0058 00000000 		.4byte	.LFB129
 2543 005c 18000000 		.4byte	.LFE129
 2544 0060 00000000 		.4byte	0
 2545 0064 00000000 		.4byte	0
 2546              		.section	.debug_line,"",%progbits
 2547              	.Ldebug_line0:
 2548 0000 5C030000 		.section	.debug_str,"MS",%progbits,1
 2548      02004202 
 2548      00000201 
 2548      FB0E0D00 
 2548      01010101 
 2549              	.LASF70:
 2550 0000 72786572 		.ascii	"rxerr_cb\000"
 2550      725F6362 
 2550      00
 2551              	.LASF31:
 2552 0009 47545052 		.ascii	"GTPR\000"
 2552      00
 2553              	.LASF60:
 2554 000e 646D6172 		.ascii	"dmarx\000"
 2554      7800
 2555              	.LASF93:
 2556 0014 43686962 		.ascii	"ChibiOS_2.6.6/os/hal/src/uart.c\000"
 2556      694F535F 
ARM GAS  C:\Users\ADMINI~1\AppData\Local\Temp\ccR5lzz6.s 			page 46


 2556      322E362E 
 2556      362F6F73 
 2556      2F68616C 
 2557              	.LASF63:
 2558 0034 75617274 		.ascii	"uartcb_t\000"
 2558      63625F74 
 2558      00
 2559              	.LASF85:
 2560 003d 75617274 		.ascii	"uartStopReceive\000"
 2560      53746F70 
 2560      52656365 
 2560      69766500 
 2561              	.LASF80:
 2562 004d 75617274 		.ascii	"uartStartSendI\000"
 2562      53746172 
 2562      7453656E 
 2562      644900
 2563              	.LASF56:
 2564 005c 72787374 		.ascii	"rxstate\000"
 2564      61746500 
 2565              	.LASF24:
 2566 0064 444D415F 		.ascii	"DMA_Stream_TypeDef\000"
 2566      53747265 
 2566      616D5F54 
 2566      79706544 
 2566      656600
 2567              	.LASF54:
 2568 0077 73746174 		.ascii	"state\000"
 2568      6500
 2569              	.LASF82:
 2570 007d 75617274 		.ascii	"uartStopSendI\000"
 2570      53746F70 
 2570      53656E64 
 2570      4900
 2571              	.LASF2:
 2572 008b 73697A65 		.ascii	"size_t\000"
 2572      5F7400
 2573              	.LASF19:
 2574 0092 73697A65 		.ascii	"sizetype\000"
 2574      74797065 
 2574      00
 2575              	.LASF72:
 2576 009b 55415254 		.ascii	"UARTConfig\000"
 2576      436F6E66 
 2576      696700
 2577              	.LASF12:
 2578 00a6 6C6F6E67 		.ascii	"long long int\000"
 2578      206C6F6E 
 2578      6720696E 
 2578      7400
 2579              	.LASF10:
 2580 00b4 5F5F7569 		.ascii	"__uint32_t\000"
 2580      6E743332 
 2580      5F7400
 2581              	.LASF81:
 2582 00bf 75617274 		.ascii	"uartStopSend\000"
 2582      53746F70 
ARM GAS  C:\Users\ADMINI~1\AppData\Local\Temp\ccR5lzz6.s 			page 47


 2582      53656E64 
 2582      00
 2583              	.LASF55:
 2584 00cc 74787374 		.ascii	"txstate\000"
 2584      61746500 
 2585              	.LASF66:
 2586 00d4 7478656E 		.ascii	"txend1_cb\000"
 2586      64315F63 
 2586      6200
 2587              	.LASF6:
 2588 00de 5F5F7569 		.ascii	"__uint16_t\000"
 2588      6E743136 
 2588      5F7400
 2589              	.LASF33:
 2590 00e9 55534152 		.ascii	"USART_TypeDef\000"
 2590      545F5479 
 2590      70654465 
 2590      6600
 2591              	.LASF5:
 2592 00f7 73686F72 		.ascii	"short int\000"
 2592      7420696E 
 2592      7400
 2593              	.LASF57:
 2594 0101 636F6E66 		.ascii	"config\000"
 2594      696700
 2595              	.LASF78:
 2596 0108 75617274 		.ascii	"uartStartSend\000"
 2596      53746172 
 2596      7453656E 
 2596      6400
 2597              	.LASF39:
 2598 0116 73746D33 		.ascii	"stm32_dma_stream_t\000"
 2598      325F646D 
 2598      615F7374 
 2598      7265616D 
 2598      5F7400
 2599              	.LASF94:
 2600 0129 563A5C6F 		.ascii	"V:\\oroca_bldc_dev\000"
 2600      726F6361 
 2600      5F626C64 
 2600      635F6465 
 2600      7600
 2601              	.LASF90:
 2602 013b 75617274 		.ascii	"uart_lld_start_receive\000"
 2602      5F6C6C64 
 2602      5F737461 
 2602      72745F72 
 2602      65636569 
 2603              	.LASF14:
 2604 0152 75696E74 		.ascii	"uint8_t\000"
 2604      385F7400 
 2605              	.LASF38:
 2606 015a 76656374 		.ascii	"vector\000"
 2606      6F7200
 2607              	.LASF67:
 2608 0161 7478656E 		.ascii	"txend2_cb\000"
 2608      64325F63 
ARM GAS  C:\Users\ADMINI~1\AppData\Local\Temp\ccR5lzz6.s 			page 48


 2608      6200
 2609              	.LASF49:
 2610 016b 55415254 		.ascii	"UART_RX_ACTIVE\000"
 2610      5F52585F 
 2610      41435449 
 2610      564500
 2611              	.LASF65:
 2612 017a 75617274 		.ascii	"uartecb_t\000"
 2612      6563625F 
 2612      7400
 2613              	.LASF75:
 2614 0184 75617274 		.ascii	"uartStart\000"
 2614      53746172 
 2614      7400
 2615              	.LASF1:
 2616 018e 7369676E 		.ascii	"signed char\000"
 2616      65642063 
 2616      68617200 
 2617              	.LASF46:
 2618 019a 55415254 		.ascii	"UART_TX_COMPLETE\000"
 2618      5F54585F 
 2618      434F4D50 
 2618      4C455445 
 2618      00
 2619              	.LASF74:
 2620 01ab 75617274 		.ascii	"uartObjectInit\000"
 2620      4F626A65 
 2620      6374496E 
 2620      697400
 2621              	.LASF45:
 2622 01ba 55415254 		.ascii	"UART_TX_ACTIVE\000"
 2622      5F54585F 
 2622      41435449 
 2622      564500
 2623              	.LASF89:
 2624 01c9 75617274 		.ascii	"uart_lld_start_send\000"
 2624      5F6C6C64 
 2624      5F737461 
 2624      72745F73 
 2624      656E6400 
 2625              	.LASF20:
 2626 01dd 63686172 		.ascii	"char\000"
 2626      00
 2627              	.LASF34:
 2628 01e2 73747265 		.ascii	"stream\000"
 2628      616D00
 2629              	.LASF51:
 2630 01e9 75617274 		.ascii	"uartrxstate_t\000"
 2630      72787374 
 2630      6174655F 
 2630      7400
 2631              	.LASF3:
 2632 01f7 5F5F7569 		.ascii	"__uint8_t\000"
 2632      6E74385F 
 2632      7400
 2633              	.LASF58:
 2634 0201 75736172 		.ascii	"usart\000"
ARM GAS  C:\Users\ADMINI~1\AppData\Local\Temp\ccR5lzz6.s 			page 49


 2634      7400
 2635              	.LASF87:
 2636 0207 75617274 		.ascii	"uart_lld_start\000"
 2636      5F6C6C64 
 2636      5F737461 
 2636      727400
 2637              	.LASF83:
 2638 0216 75617274 		.ascii	"uartStartReceive\000"
 2638      53746172 
 2638      74526563 
 2638      65697665 
 2638      00
 2639              	.LASF71:
 2640 0227 73706565 		.ascii	"speed\000"
 2640      6400
 2641              	.LASF47:
 2642 022d 75617274 		.ascii	"uarttxstate_t\000"
 2642      74787374 
 2642      6174655F 
 2642      7400
 2643              	.LASF92:
 2644 023b 474E5520 		.ascii	"GNU C 4.9.3 20150529 (release) [ARM/embedded-4_9-br"
 2644      4320342E 
 2644      392E3320 
 2644      32303135 
 2644      30353239 
 2645 026e 616E6368 		.ascii	"anch revision 224288] -mcpu=cortex-m4 -mfloat-abi=h"
 2645      20726576 
 2645      6973696F 
 2645      6E203232 
 2645      34323838 
 2646 02a1 61726420 		.ascii	"ard -mfpu=fpv4-sp-d16 -mno-thumb-interwork -mthumb "
 2646      2D6D6670 
 2646      753D6670 
 2646      76342D73 
 2646      702D6431 
 2647 02d4 2D676764 		.ascii	"-ggdb -O2 -std=gnu99 -fomit-frame-pointer -falign-f"
 2647      62202D4F 
 2647      32202D73 
 2647      74643D67 
 2647      6E753939 
 2648 0307 756E6374 		.ascii	"unctions=16 -ffunction-sections -fdata-sections -fn"
 2648      696F6E73 
 2648      3D313620 
 2648      2D666675 
 2648      6E637469 
 2649 033a 6F2D636F 		.ascii	"o-common -fsingle-precision-constant\000"
 2649      6D6D6F6E 
 2649      202D6673 
 2649      696E676C 
 2649      652D7072 
 2650              	.LASF4:
 2651 035f 756E7369 		.ascii	"unsigned char\000"
 2651      676E6564 
 2651      20636861 
 2651      7200
 2652              	.LASF86:
ARM GAS  C:\Users\ADMINI~1\AppData\Local\Temp\ccR5lzz6.s 			page 50


 2653 036d 75617274 		.ascii	"uartStopReceiveI\000"
 2653      53746F70 
 2653      52656365 
 2653      69766549 
 2653      00
 2654              	.LASF13:
 2655 037e 6C6F6E67 		.ascii	"long long unsigned int\000"
 2655      206C6F6E 
 2655      6720756E 
 2655      7369676E 
 2655      65642069 
 2656              	.LASF59:
 2657 0395 646D616D 		.ascii	"dmamode\000"
 2657      6F646500 
 2658              	.LASF17:
 2659 039d 75696E74 		.ascii	"uint32_t\000"
 2659      33325F74 
 2659      00
 2660              	.LASF37:
 2661 03a6 73656C66 		.ascii	"selfindex\000"
 2661      696E6465 
 2661      7800
 2662              	.LASF0:
 2663 03b0 756E7369 		.ascii	"unsigned int\000"
 2663      676E6564 
 2663      20696E74 
 2663      00
 2664              	.LASF15:
 2665 03bd 75696E74 		.ascii	"uint16_t\000"
 2665      31365F74 
 2665      00
 2666              	.LASF64:
 2667 03c6 75617274 		.ascii	"uartccb_t\000"
 2667      6363625F 
 2667      7400
 2668              	.LASF61:
 2669 03d0 646D6174 		.ascii	"dmatx\000"
 2669      7800
 2670              	.LASF91:
 2671 03d6 75617274 		.ascii	"uart_lld_stop_receive\000"
 2671      5F6C6C64 
 2671      5F73746F 
 2671      705F7265 
 2671      63656976 
 2672              	.LASF52:
 2673 03ec 75617274 		.ascii	"uartflags_t\000"
 2673      666C6167 
 2673      735F7400 
 2674              	.LASF73:
 2675 03f8 75617274 		.ascii	"uartInit\000"
 2675      496E6974 
 2675      00
 2676              	.LASF43:
 2677 0401 75617274 		.ascii	"uartstate_t\000"
 2677      73746174 
 2677      655F7400 
 2678              	.LASF7:
ARM GAS  C:\Users\ADMINI~1\AppData\Local\Temp\ccR5lzz6.s 			page 51


 2679 040d 73686F72 		.ascii	"short unsigned int\000"
 2679      7420756E 
 2679      7369676E 
 2679      65642069 
 2679      6E7400
 2680              	.LASF79:
 2681 0420 74786275 		.ascii	"txbuf\000"
 2681      6600
 2682              	.LASF23:
 2683 0426 4D314152 		.ascii	"M1AR\000"
 2683      00
 2684              	.LASF36:
 2685 042b 69736869 		.ascii	"ishift\000"
 2685      667400
 2686              	.LASF9:
 2687 0432 6C6F6E67 		.ascii	"long int\000"
 2687      20696E74 
 2687      00
 2688              	.LASF16:
 2689 043b 696E7433 		.ascii	"int32_t\000"
 2689      325F7400 
 2690              	.LASF96:
 2691 0443 75617274 		.ascii	"uart_lld_init\000"
 2691      5F6C6C64 
 2691      5F696E69 
 2691      7400
 2692              	.LASF18:
 2693 0451 5F426F6F 		.ascii	"_Bool\000"
 2693      6C00
 2694              	.LASF50:
 2695 0457 55415254 		.ascii	"UART_RX_COMPLETE\000"
 2695      5F52585F 
 2695      434F4D50 
 2695      4C455445 
 2695      00
 2696              	.LASF28:
 2697 0468 52455345 		.ascii	"RESERVED3\000"
 2697      52564544 
 2697      3300
 2698              	.LASF25:
 2699 0472 52455345 		.ascii	"RESERVED0\000"
 2699      52564544 
 2699      3000
 2700              	.LASF26:
 2701 047c 52455345 		.ascii	"RESERVED1\000"
 2701      52564544 
 2701      3100
 2702              	.LASF27:
 2703 0486 52455345 		.ascii	"RESERVED2\000"
 2703      52564544 
 2703      3200
 2704              	.LASF22:
 2705 0490 4D304152 		.ascii	"M0AR\000"
 2705      00
 2706              	.LASF29:
 2707 0495 52455345 		.ascii	"RESERVED4\000"
 2707      52564544 
ARM GAS  C:\Users\ADMINI~1\AppData\Local\Temp\ccR5lzz6.s 			page 52


 2707      3400
 2708              	.LASF30:
 2709 049f 52455345 		.ascii	"RESERVED5\000"
 2709      52564544 
 2709      3500
 2710              	.LASF11:
 2711 04a9 6C6F6E67 		.ascii	"long unsigned int\000"
 2711      20756E73 
 2711      69676E65 
 2711      6420696E 
 2711      7400
 2712              	.LASF32:
 2713 04bb 52455345 		.ascii	"RESERVED6\000"
 2713      52564544 
 2713      3600
 2714              	.LASF21:
 2715 04c5 4E445452 		.ascii	"NDTR\000"
 2715      00
 2716              	.LASF42:
 2717 04ca 55415254 		.ascii	"UART_READY\000"
 2717      5F524541 
 2717      445900
 2718              	.LASF8:
 2719 04d5 5F5F696E 		.ascii	"__int32_t\000"
 2719      7433325F 
 2719      7400
 2720              	.LASF68:
 2721 04df 7278656E 		.ascii	"rxend_cb\000"
 2721      645F6362 
 2721      00
 2722              	.LASF48:
 2723 04e8 55415254 		.ascii	"UART_RX_IDLE\000"
 2723      5F52585F 
 2723      49444C45 
 2723      00
 2724              	.LASF69:
 2725 04f5 72786368 		.ascii	"rxchar_cb\000"
 2725      61725F63 
 2725      6200
 2726              	.LASF97:
 2727 04ff 75617274 		.ascii	"uart_lld_stop_send\000"
 2727      5F6C6C64 
 2727      5F73746F 
 2727      705F7365 
 2727      6E6400
 2728              	.LASF40:
 2729 0512 55415254 		.ascii	"UART_UNINIT\000"
 2729      5F554E49 
 2729      4E495400 
 2730              	.LASF77:
 2731 051e 75617274 		.ascii	"uartStop\000"
 2731      53746F70 
 2731      00
 2732              	.LASF62:
 2733 0527 72786275 		.ascii	"rxbuf\000"
 2733      6600
 2734              	.LASF84:
ARM GAS  C:\Users\ADMINI~1\AppData\Local\Temp\ccR5lzz6.s 			page 53


 2735 052d 75617274 		.ascii	"uartStartReceiveI\000"
 2735      53746172 
 2735      74526563 
 2735      65697665 
 2735      4900
 2736              	.LASF44:
 2737 053f 55415254 		.ascii	"UART_TX_IDLE\000"
 2737      5F54585F 
 2737      49444C45 
 2737      00
 2738              	.LASF95:
 2739 054c 49544D5F 		.ascii	"ITM_RxBuffer\000"
 2739      52784275 
 2739      66666572 
 2739      00
 2740              	.LASF41:
 2741 0559 55415254 		.ascii	"UART_STOP\000"
 2741      5F53544F 
 2741      5000
 2742              	.LASF76:
 2743 0563 75617274 		.ascii	"uartp\000"
 2743      7000
 2744              	.LASF53:
 2745 0569 55415254 		.ascii	"UARTDriver\000"
 2745      44726976 
 2745      657200
 2746              	.LASF35:
 2747 0574 69666372 		.ascii	"ifcr\000"
 2747      00
 2748              	.LASF88:
 2749 0579 75617274 		.ascii	"uart_lld_stop\000"
 2749      5F6C6C64 
 2749      5F73746F 
 2749      7000
 2750              		.ident	"GCC: (GNU Tools for ARM Embedded Processors) 4.9.3 20150529 (release) [ARM/embedded-4_9-br
ARM GAS  C:\Users\ADMINI~1\AppData\Local\Temp\ccR5lzz6.s 			page 54


DEFINED SYMBOLS
                            *ABS*:00000000 uart.c
C:\Users\ADMINI~1\AppData\Local\Temp\ccR5lzz6.s:21     .text.uartInit:00000000 $t
C:\Users\ADMINI~1\AppData\Local\Temp\ccR5lzz6.s:27     .text.uartInit:00000000 uartInit
C:\Users\ADMINI~1\AppData\Local\Temp\ccR5lzz6.s:42     .text.uartObjectInit:00000000 $t
C:\Users\ADMINI~1\AppData\Local\Temp\ccR5lzz6.s:48     .text.uartObjectInit:00000000 uartObjectInit
C:\Users\ADMINI~1\AppData\Local\Temp\ccR5lzz6.s:72     .text.uartStart:00000000 $t
C:\Users\ADMINI~1\AppData\Local\Temp\ccR5lzz6.s:78     .text.uartStart:00000000 uartStart
C:\Users\ADMINI~1\AppData\Local\Temp\ccR5lzz6.s:114    .text.uartStop:00000000 $t
C:\Users\ADMINI~1\AppData\Local\Temp\ccR5lzz6.s:120    .text.uartStop:00000000 uartStop
C:\Users\ADMINI~1\AppData\Local\Temp\ccR5lzz6.s:160    .text.uartStartSend:00000000 $t
C:\Users\ADMINI~1\AppData\Local\Temp\ccR5lzz6.s:166    .text.uartStartSend:00000000 uartStartSend
C:\Users\ADMINI~1\AppData\Local\Temp\ccR5lzz6.s:200    .text.uartStartSendI:00000000 $t
C:\Users\ADMINI~1\AppData\Local\Temp\ccR5lzz6.s:206    .text.uartStartSendI:00000000 uartStartSendI
C:\Users\ADMINI~1\AppData\Local\Temp\ccR5lzz6.s:230    .text.uartStopSend:00000000 $t
C:\Users\ADMINI~1\AppData\Local\Temp\ccR5lzz6.s:236    .text.uartStopSend:00000000 uartStopSend
C:\Users\ADMINI~1\AppData\Local\Temp\ccR5lzz6.s:287    .text.uartStopSendI:00000000 $t
C:\Users\ADMINI~1\AppData\Local\Temp\ccR5lzz6.s:293    .text.uartStopSendI:00000000 uartStopSendI
C:\Users\ADMINI~1\AppData\Local\Temp\ccR5lzz6.s:330    .text.uartStartReceive:00000000 $t
C:\Users\ADMINI~1\AppData\Local\Temp\ccR5lzz6.s:336    .text.uartStartReceive:00000000 uartStartReceive
C:\Users\ADMINI~1\AppData\Local\Temp\ccR5lzz6.s:370    .text.uartStartReceiveI:00000000 $t
C:\Users\ADMINI~1\AppData\Local\Temp\ccR5lzz6.s:376    .text.uartStartReceiveI:00000000 uartStartReceiveI
C:\Users\ADMINI~1\AppData\Local\Temp\ccR5lzz6.s:400    .text.uartStopReceive:00000000 $t
C:\Users\ADMINI~1\AppData\Local\Temp\ccR5lzz6.s:406    .text.uartStopReceive:00000000 uartStopReceive
C:\Users\ADMINI~1\AppData\Local\Temp\ccR5lzz6.s:457    .text.uartStopReceiveI:00000000 $t
C:\Users\ADMINI~1\AppData\Local\Temp\ccR5lzz6.s:463    .text.uartStopReceiveI:00000000 uartStopReceiveI
                     .debug_frame:00000010 $d

UNDEFINED SYMBOLS
uart_lld_init
uart_lld_start
uart_lld_stop
uart_lld_start_send
uart_lld_stop_send
uart_lld_start_receive
uart_lld_stop_receive
