ARM GAS  C:\Users\jsyoon\AppData\Local\Temp\ccXoI9ru.s 			page 1


   1              		.syntax unified
   2              		.cpu cortex-m4
   3              		.eabi_attribute 27, 3
   4              		.eabi_attribute 28, 1
   5              		.fpu fpv4-sp-d16
   6              		.eabi_attribute 20, 1
   7              		.eabi_attribute 21, 1
   8              		.eabi_attribute 23, 3
   9              		.eabi_attribute 24, 1
  10              		.eabi_attribute 25, 1
  11              		.eabi_attribute 26, 1
  12              		.eabi_attribute 30, 2
  13              		.eabi_attribute 34, 1
  14              		.eabi_attribute 18, 4
  15              		.thumb
  16              		.file	"uart_lld.c"
  17              		.text
  18              	.Ltext0:
  19              		.cfi_sections	.debug_frame
  20              		.section	.text.usart_stop,"ax",%progbits
  21              		.align	2
  22              		.p2align 4,,15
  23              		.thumb
  24              		.thumb_func
  25              		.type	usart_stop, %function
  26              	usart_stop:
  27              	.LFB120:
  28              		.file 1 "ChibiOS_2.6.6/os/hal/platforms/STM32/USARTv1/uart_lld.c"
  29              		.loc 1 181 0
  30              		.cfi_startproc
  31              		@ args = 0, pretend = 0, frame = 0
  32              		@ frame_needed = 0, uses_anonymous_args = 0
  33              		@ link register save eliminated.
  34              	.LVL0:
  35 0000 30B4     		push	{r4, r5}
  36              		.cfi_def_cfa_offset 8
  37              		.cfi_offset 4, -8
  38              		.cfi_offset 5, -4
  39              		.loc 1 184 0
  40 0002 0469     		ldr	r4, [r0, #16]
  41 0004 2268     		ldr	r2, [r4]
  42 0006 1368     		ldr	r3, [r2]
  43 0008 23F01F03 		bic	r3, r3, #31
  44 000c 1360     		str	r3, [r2]
  45              	.L3:
  46              		.loc 1 184 0 is_stmt 0 discriminator 1
  47 000e 1368     		ldr	r3, [r2]
  48 0010 DB07     		lsls	r3, r3, #31
  49 0012 FCD4     		bmi	.L3
  50              		.loc 1 184 0 discriminator 2
  51 0014 257A     		ldrb	r5, [r4, #8]	@ zero_extendqisi2
  52              		.loc 1 185 0 is_stmt 1 discriminator 2
  53 0016 4169     		ldr	r1, [r0, #20]
  54              		.loc 1 184 0 discriminator 2
  55 0018 6368     		ldr	r3, [r4, #4]
  56              		.loc 1 185 0 discriminator 2
  57 001a 0A68     		ldr	r2, [r1]
ARM GAS  C:\Users\jsyoon\AppData\Local\Temp\ccXoI9ru.s 			page 2


  58              		.loc 1 184 0 discriminator 2
  59 001c 3D24     		movs	r4, #61
  60 001e AC40     		lsls	r4, r4, r5
  61 0020 1C60     		str	r4, [r3]
  62              		.loc 1 185 0 discriminator 2
  63 0022 1368     		ldr	r3, [r2]
  64 0024 23F01F03 		bic	r3, r3, #31
  65 0028 1360     		str	r3, [r2]
  66              	.L5:
  67              		.loc 1 185 0 is_stmt 0 discriminator 1
  68 002a 1368     		ldr	r3, [r2]
  69 002c 13F00103 		ands	r3, r3, #1
  70 0030 FBD1     		bne	.L5
  71              		.loc 1 185 0 discriminator 2
  72 0032 0C7A     		ldrb	r4, [r1, #8]	@ zero_extendqisi2
  73              		.loc 1 188 0 is_stmt 1 discriminator 2
  74 0034 8268     		ldr	r2, [r0, #8]
  75              		.loc 1 185 0 discriminator 2
  76 0036 4968     		ldr	r1, [r1, #4]
  77 0038 3D20     		movs	r0, #61
  78              	.LVL1:
  79 003a A040     		lsls	r0, r0, r4
  80 003c 0860     		str	r0, [r1]
  81              		.loc 1 191 0 discriminator 2
  82 003e 30BC     		pop	{r4, r5}
  83              		.loc 1 188 0 discriminator 2
  84 0040 9381     		strh	r3, [r2, #12]	@ movhi
  85              		.loc 1 189 0 discriminator 2
  86 0042 1382     		strh	r3, [r2, #16]	@ movhi
  87              		.loc 1 190 0 discriminator 2
  88 0044 9382     		strh	r3, [r2, #20]	@ movhi
  89              		.loc 1 191 0 discriminator 2
  90 0046 7047     		bx	lr
  91              		.cfi_endproc
  92              	.LFE120:
  93              		.size	usart_stop, .-usart_stop
  94 0048 AFF30080 		.section	.text.serve_usart_irq,"ax",%progbits
  94      AFF30080 
  95              		.align	2
  96              		.p2align 4,,15
  97              		.thumb
  98              		.thumb_func
  99              		.type	serve_usart_irq, %function
 100              	serve_usart_irq:
 101              	.LFB124:
 102              		.loc 1 312 0
 103              		.cfi_startproc
 104              		@ args = 0, pretend = 0, frame = 0
 105              		@ frame_needed = 0, uses_anonymous_args = 0
 106              	.LVL2:
 107 0000 70B5     		push	{r4, r5, r6, lr}
 108              		.cfi_def_cfa_offset 16
 109              		.cfi_offset 4, -16
 110              		.cfi_offset 5, -12
 111              		.cfi_offset 6, -8
 112              		.cfi_offset 14, -4
 113              		.loc 1 314 0
ARM GAS  C:\Users\jsyoon\AppData\Local\Temp\ccXoI9ru.s 			page 3


 114 0002 8568     		ldr	r5, [r0, #8]
 115              	.LVL3:
 116              		.loc 1 316 0
 117 0004 2C88     		ldrh	r4, [r5]
 118              		.loc 1 317 0
 119 0006 AA88     		ldrh	r2, [r5, #4]
 120              		.loc 1 318 0
 121 0008 40F20F13 		movw	r3, #271
 122              		.loc 1 316 0
 123 000c A4B2     		uxth	r4, r4
 124              	.LVL4:
 125              		.loc 1 318 0
 126 000e 2340     		ands	r3, r3, r4
 127              		.loc 1 312 0
 128 0010 0646     		mov	r6, r0
 129              		.loc 1 318 0
 130 0012 E3B1     		cbz	r3, .L9
 131              		.loc 1 321 0
 132 0014 4368     		ldr	r3, [r0, #4]
 133 0016 1B69     		ldr	r3, [r3, #16]
 134              		.loc 1 320 0
 135 0018 4FF6FF62 		movw	r2, #65279
 136 001c 2A80     		strh	r2, [r5]	@ movhi
 137              		.loc 1 321 0
 138 001e B3B1     		cbz	r3, .L9
 139              	.LVL5:
 140              	.LBB12:
 141              	.LBB13:
 142              		.loc 1 140 0
 143 0020 14F0080F 		tst	r4, #8
 144 0024 14BF     		ite	ne
 145 0026 1021     		movne	r1, #16
 146 0028 0021     		moveq	r1, #0
 147              	.LVL6:
 148              		.loc 1 144 0
 149 002a E007     		lsls	r0, r4, #31
 150              	.LVL7:
 151              		.loc 1 145 0
 152 002c 48BF     		it	mi
 153 002e 41F00401 		orrmi	r1, r1, #4
 154              	.LVL8:
 155              		.loc 1 146 0
 156 0032 A207     		lsls	r2, r4, #30
 157              		.loc 1 147 0
 158 0034 48BF     		it	mi
 159 0036 41F00801 		orrmi	r1, r1, #8
 160              	.LVL9:
 161              		.loc 1 148 0
 162 003a 6007     		lsls	r0, r4, #29
 163              		.loc 1 149 0
 164 003c 48BF     		it	mi
 165 003e 41F02001 		orrmi	r1, r1, #32
 166              	.LVL10:
 167              		.loc 1 150 0
 168 0042 E205     		lsls	r2, r4, #23
 169              		.loc 1 151 0
 170 0044 48BF     		it	mi
ARM GAS  C:\Users\jsyoon\AppData\Local\Temp\ccXoI9ru.s 			page 4


 171 0046 41F04001 		orrmi	r1, r1, #64
 172              	.LVL11:
 173              	.LBE13:
 174              	.LBE12:
 175              		.loc 1 322 0
 176 004a 3046     		mov	r0, r6
 177 004c 9847     		blx	r3
 178              	.LVL12:
 179              	.L9:
 180              		.loc 1 324 0
 181 004e 6306     		lsls	r3, r4, #25
 182 0050 07D5     		bpl	.L7
 183              		.loc 1 328 0
 184 0052 7368     		ldr	r3, [r6, #4]
 185 0054 5B68     		ldr	r3, [r3, #4]
 186              		.loc 1 325 0
 187 0056 4FF6BF72 		movw	r2, #65471
 188 005a 2A80     		strh	r2, [r5]	@ movhi
 189              		.loc 1 328 0
 190 005c 0BB1     		cbz	r3, .L7
 191              		.loc 1 329 0
 192 005e 3046     		mov	r0, r6
 193 0060 9847     		blx	r3
 194              	.LVL13:
 195              	.L7:
 196 0062 70BD     		pop	{r4, r5, r6, pc}
 197              		.cfi_endproc
 198              	.LFE124:
 199              		.size	serve_usart_irq, .-serve_usart_irq
 200 0064 AFF30080 		.section	.text.uart_lld_serve_tx_end_irq,"ax",%progbits
 200      AFF30080 
 200      AFF30080 
 201              		.align	2
 202              		.p2align 4,,15
 203              		.thumb
 204              		.thumb_func
 205              		.type	uart_lld_serve_tx_end_irq, %function
 206              	uart_lld_serve_tx_end_irq:
 207              	.LFB123:
 208              		.loc 1 283 0
 209              		.cfi_startproc
 210              		@ args = 0, pretend = 0, frame = 0
 211              		@ frame_needed = 0, uses_anonymous_args = 0
 212              	.LVL14:
 213              		.loc 1 287 0
 214 0000 11F00C0F 		tst	r1, #12
 215              		.loc 1 283 0
 216 0004 10B5     		push	{r4, lr}
 217              		.cfi_def_cfa_offset 8
 218              		.cfi_offset 4, -8
 219              		.cfi_offset 14, -4
 220              		.loc 1 283 0
 221 0006 0446     		mov	r4, r0
 222              		.loc 1 287 0
 223 0008 1BD1     		bne	.L51
 224              	.LVL15:
 225              	.L39:
ARM GAS  C:\Users\jsyoon\AppData\Local\Temp\ccXoI9ru.s 			page 5


 226              		.loc 1 294 0
 227 000a 6169     		ldr	r1, [r4, #20]
 228 000c 0A68     		ldr	r2, [r1]
 229 000e 1368     		ldr	r3, [r2]
 230 0010 23F01F03 		bic	r3, r3, #31
 231 0014 1360     		str	r3, [r2]
 232              	.L41:
 233              		.loc 1 294 0 is_stmt 0 discriminator 1
 234 0016 1368     		ldr	r3, [r2]
 235 0018 DB07     		lsls	r3, r3, #31
 236 001a FCD4     		bmi	.L41
 237              		.loc 1 298 0 is_stmt 1 discriminator 2
 238 001c 6368     		ldr	r3, [r4, #4]
 239              		.loc 1 294 0 discriminator 2
 240 001e 0A7A     		ldrb	r2, [r1, #8]	@ zero_extendqisi2
 241              		.loc 1 298 0 discriminator 2
 242 0020 1B68     		ldr	r3, [r3]
 243              		.loc 1 294 0 discriminator 2
 244 0022 4968     		ldr	r1, [r1, #4]
 245 0024 3D20     		movs	r0, #61
 246 0026 9040     		lsls	r0, r0, r2
 247              		.loc 1 297 0 discriminator 2
 248 0028 0222     		movs	r2, #2
 249              		.loc 1 294 0 discriminator 2
 250 002a 0860     		str	r0, [r1]
 251              		.loc 1 297 0 discriminator 2
 252 002c 6270     		strb	r2, [r4, #1]
 253              		.loc 1 298 0 discriminator 2
 254 002e 2BB1     		cbz	r3, .L44
 255              		.loc 1 299 0
 256 0030 2046     		mov	r0, r4
 257 0032 9847     		blx	r3
 258              	.LVL16:
 259              		.loc 1 303 0
 260 0034 6378     		ldrb	r3, [r4, #1]	@ zero_extendqisi2
 261 0036 022B     		cmp	r3, #2
 262 0038 00D0     		beq	.L44
 263 003a 10BD     		pop	{r4, pc}
 264              	.LVL17:
 265              	.L44:
 266              		.loc 1 304 0
 267 003c 0023     		movs	r3, #0
 268 003e 6370     		strb	r3, [r4, #1]
 269 0040 10BD     		pop	{r4, pc}
 270              	.LVL18:
 271              	.L51:
 272              		.loc 1 288 0
 273 0042 FFF7FEFF 		bl	port_halt
 274              	.LVL19:
 275 0046 E0E7     		b	.L39
 276              		.cfi_endproc
 277              	.LFE123:
 278              		.size	uart_lld_serve_tx_end_irq, .-uart_lld_serve_tx_end_irq
 279 0048 AFF30080 		.section	.text.uart_lld_serve_rx_end_irq,"ax",%progbits
 279      AFF30080 
 280              		.align	2
 281              		.p2align 4,,15
ARM GAS  C:\Users\jsyoon\AppData\Local\Temp\ccXoI9ru.s 			page 6


 282              		.thumb
 283              		.thumb_func
 284              		.type	uart_lld_serve_rx_end_irq, %function
 285              	uart_lld_serve_rx_end_irq:
 286              	.LFB122:
 287              		.loc 1 243 0
 288              		.cfi_startproc
 289              		@ args = 0, pretend = 0, frame = 0
 290              		@ frame_needed = 0, uses_anonymous_args = 0
 291              	.LVL20:
 292              		.loc 1 247 0
 293 0000 11F00C0F 		tst	r1, #12
 294              		.loc 1 243 0
 295 0004 70B5     		push	{r4, r5, r6, lr}
 296              		.cfi_def_cfa_offset 16
 297              		.cfi_offset 4, -16
 298              		.cfi_offset 5, -12
 299              		.cfi_offset 6, -8
 300              		.cfi_offset 14, -4
 301              		.loc 1 243 0
 302 0006 0446     		mov	r4, r0
 303              		.loc 1 247 0
 304 0008 3BD1     		bne	.L67
 305              	.LVL21:
 306              	.L53:
 307              		.loc 1 254 0
 308 000a A378     		ldrb	r3, [r4, #2]	@ zero_extendqisi2
 309 000c 43B9     		cbnz	r3, .L54
 310              		.loc 1 257 0
 311 000e 6368     		ldr	r3, [r4, #4]
 312 0010 DB68     		ldr	r3, [r3, #12]
 313 0012 002B     		cmp	r3, #0
 314 0014 34D0     		beq	.L52
 315              		.loc 1 258 0
 316 0016 218B     		ldrh	r1, [r4, #24]
 317 0018 2046     		mov	r0, r4
 318 001a 89B2     		uxth	r1, r1
 319 001c 9847     		blx	r3
 320              	.LVL22:
 321 001e 70BD     		pop	{r4, r5, r6, pc}
 322              	.LVL23:
 323              	.L54:
 324              	.LBB18:
 325              	.LBB19:
 326              		.loc 1 263 0
 327 0020 2169     		ldr	r1, [r4, #16]
 328 0022 0A68     		ldr	r2, [r1]
 329 0024 1368     		ldr	r3, [r2]
 330 0026 23F01F03 		bic	r3, r3, #31
 331 002a 1360     		str	r3, [r2]
 332              	.L58:
 333 002c 1368     		ldr	r3, [r2]
 334 002e DB07     		lsls	r3, r3, #31
 335 0030 FCD4     		bmi	.L58
 336              		.loc 1 265 0
 337 0032 6068     		ldr	r0, [r4, #4]
 338              		.loc 1 263 0
ARM GAS  C:\Users\jsyoon\AppData\Local\Temp\ccXoI9ru.s 			page 7


 339 0034 0E7A     		ldrb	r6, [r1, #8]	@ zero_extendqisi2
 340 0036 4D68     		ldr	r5, [r1, #4]
 341              		.loc 1 265 0
 342 0038 8368     		ldr	r3, [r0, #8]
 343              		.loc 1 263 0
 344 003a 3D21     		movs	r1, #61
 345 003c 01FA06F6 		lsl	r6, r1, r6
 346              		.loc 1 264 0
 347 0040 0221     		movs	r1, #2
 348              		.loc 1 263 0
 349 0042 2E60     		str	r6, [r5]
 350              		.loc 1 264 0
 351 0044 A170     		strb	r1, [r4, #2]
 352              		.loc 1 265 0
 353 0046 3BB1     		cbz	r3, .L59
 354              		.loc 1 266 0
 355 0048 2046     		mov	r0, r4
 356 004a 9847     		blx	r3
 357              	.LVL24:
 358              		.loc 1 270 0
 359 004c A378     		ldrb	r3, [r4, #2]	@ zero_extendqisi2
 360 004e 022B     		cmp	r3, #2
 361 0050 16D1     		bne	.L52
 362 0052 2369     		ldr	r3, [r4, #16]
 363 0054 6068     		ldr	r0, [r4, #4]
 364 0056 1A68     		ldr	r2, [r3]
 365              	.L59:
 366              	.LBB20:
 367              	.LBB21:
 368              		.loc 1 165 0
 369 0058 C168     		ldr	r1, [r0, #12]
 370              		.loc 1 171 0
 371 005a E368     		ldr	r3, [r4, #12]
 372              		.loc 1 166 0
 373 005c 0029     		cmp	r1, #0
 374 005e 14BF     		ite	ne
 375 0060 4FF48871 		movne	r1, #272
 376 0064 4FF48071 		moveq	r1, #256
 377              		.loc 1 171 0
 378 0068 0B43     		orrs	r3, r3, r1
 379              	.LBE21:
 380              	.LBE20:
 381              		.loc 1 271 0
 382 006a 0025     		movs	r5, #0
 383              	.LBB24:
 384              	.LBB22:
 385              		.loc 1 170 0
 386 006c 0121     		movs	r1, #1
 387              		.loc 1 169 0
 388 006e 04F11800 		add	r0, r4, #24
 389              	.LBE22:
 390              	.LBE24:
 391              		.loc 1 271 0
 392 0072 A570     		strb	r5, [r4, #2]
 393              	.LVL25:
 394              	.LBB25:
 395              	.LBB23:
ARM GAS  C:\Users\jsyoon\AppData\Local\Temp\ccXoI9ru.s 			page 8


 396              		.loc 1 169 0
 397 0074 D060     		str	r0, [r2, #12]
 398              		.loc 1 170 0
 399 0076 5160     		str	r1, [r2, #4]
 400              		.loc 1 171 0
 401 0078 1360     		str	r3, [r2]
 402              		.loc 1 172 0
 403 007a 1368     		ldr	r3, [r2]
 404 007c 0B43     		orrs	r3, r3, r1
 405 007e 1360     		str	r3, [r2]
 406              	.LVL26:
 407              	.L52:
 408 0080 70BD     		pop	{r4, r5, r6, pc}
 409              	.LVL27:
 410              	.L67:
 411              	.LBE23:
 412              	.LBE25:
 413              	.LBE19:
 414              	.LBE18:
 415              		.loc 1 248 0
 416 0082 FFF7FEFF 		bl	port_halt
 417              	.LVL28:
 418 0086 C0E7     		b	.L53
 419              		.cfi_endproc
 420              	.LFE122:
 421              		.size	uart_lld_serve_rx_end_irq, .-uart_lld_serve_rx_end_irq
 422 0088 AFF30080 		.section	.text.VectorDC,"ax",%progbits
 422      AFF30080 
 423              		.align	2
 424              		.p2align 4,,15
 425              		.global	VectorDC
 426              		.thumb
 427              		.thumb_func
 428              		.type	VectorDC, %function
 429              	VectorDC:
 430              	.LFB125:
 431              		.loc 1 384 0
 432              		.cfi_startproc
 433              		@ args = 0, pretend = 0, frame = 0
 434              		@ frame_needed = 0, uses_anonymous_args = 0
 435 0000 08B5     		push	{r3, lr}
 436              		.cfi_def_cfa_offset 8
 437              		.cfi_offset 3, -8
 438              		.cfi_offset 14, -4
 439              		.loc 1 388 0
 440 0002 0348     		ldr	r0, .L69
 441 0004 FFF7FEFF 		bl	serve_usart_irq
 442              	.LVL29:
 443              		.loc 1 391 0
 444 0008 BDE80840 		pop	{r3, lr}
 445              		.loc 1 390 0
 446 000c FFF7FEBF 		b	_port_irq_epilogue
 447              	.LVL30:
 448              	.L70:
 449              		.align	2
 450              	.L69:
 451 0010 00000000 		.word	.LANCHOR0
ARM GAS  C:\Users\jsyoon\AppData\Local\Temp\ccXoI9ru.s 			page 9


 452              		.cfi_endproc
 453              	.LFE125:
 454              		.size	VectorDC, .-VectorDC
 455 0014 AFF30080 		.section	.text.Vector15C,"ax",%progbits
 455      AFF30080 
 455      AFF30080 
 456              		.align	2
 457              		.p2align 4,,15
 458              		.global	Vector15C
 459              		.thumb
 460              		.thumb_func
 461              		.type	Vector15C, %function
 462              	Vector15C:
 463              	.LFB126:
 464              		.loc 1 441 0
 465              		.cfi_startproc
 466              		@ args = 0, pretend = 0, frame = 0
 467              		@ frame_needed = 0, uses_anonymous_args = 0
 468 0000 08B5     		push	{r3, lr}
 469              		.cfi_def_cfa_offset 8
 470              		.cfi_offset 3, -8
 471              		.cfi_offset 14, -4
 472              		.loc 1 445 0
 473 0002 0348     		ldr	r0, .L72
 474 0004 FFF7FEFF 		bl	serve_usart_irq
 475              	.LVL31:
 476              		.loc 1 448 0
 477 0008 BDE80840 		pop	{r3, lr}
 478              		.loc 1 447 0
 479 000c FFF7FEBF 		b	_port_irq_epilogue
 480              	.LVL32:
 481              	.L73:
 482              		.align	2
 483              	.L72:
 484 0010 00000000 		.word	.LANCHOR1
 485              		.cfi_endproc
 486              	.LFE126:
 487              		.size	Vector15C, .-Vector15C
 488 0014 AFF30080 		.section	.text.uart_lld_init,"ax",%progbits
 488      AFF30080 
 488      AFF30080 
 489              		.align	2
 490              		.p2align 4,,15
 491              		.global	uart_lld_init
 492              		.thumb
 493              		.thumb_func
 494              		.type	uart_lld_init, %function
 495              	uart_lld_init:
 496              	.LFB127:
 497              		.loc 1 460 0
 498              		.cfi_startproc
 499              		@ args = 0, pretend = 0, frame = 0
 500              		@ frame_needed = 0, uses_anonymous_args = 0
 501 0000 70B5     		push	{r4, r5, r6, lr}
 502              		.cfi_def_cfa_offset 16
 503              		.cfi_offset 4, -16
 504              		.cfi_offset 5, -12
ARM GAS  C:\Users\jsyoon\AppData\Local\Temp\ccXoI9ru.s 			page 10


 505              		.cfi_offset 6, -8
 506              		.cfi_offset 14, -4
 507              		.loc 1 479 0
 508 0002 0C4C     		ldr	r4, .L75
 509              		.loc 1 482 0
 510 0004 0C4E     		ldr	r6, .L75+4
 511              		.loc 1 503 0
 512 0006 0D4D     		ldr	r5, .L75+8
 513              		.loc 1 479 0
 514 0008 2046     		mov	r0, r4
 515 000a FFF7FEFF 		bl	uartObjectInit
 516              	.LVL33:
 517              		.loc 1 480 0
 518 000e 0C4B     		ldr	r3, .L75+12
 519 0010 A360     		str	r3, [r4, #8]
 520              		.loc 1 481 0
 521 0012 0622     		movs	r2, #6
 522              		.loc 1 483 0
 523 0014 06F11803 		add	r3, r6, #24
 524              		.loc 1 503 0
 525 0018 2846     		mov	r0, r5
 526              		.loc 1 482 0
 527 001a 2661     		str	r6, [r4, #16]
 528              		.loc 1 483 0
 529 001c 6361     		str	r3, [r4, #20]
 530              		.loc 1 481 0
 531 001e E260     		str	r2, [r4, #12]
 532              		.loc 1 503 0
 533 0020 FFF7FEFF 		bl	uartObjectInit
 534              	.LVL34:
 535              		.loc 1 504 0
 536 0024 074B     		ldr	r3, .L75+16
 537 0026 AB60     		str	r3, [r5, #8]
 538              		.loc 1 505 0
 539 0028 06F16C03 		add	r3, r6, #108
 540              		.loc 1 506 0
 541 002c A836     		adds	r6, r6, #168
 542              		.loc 1 505 0
 543 002e 2B61     		str	r3, [r5, #16]
 544              		.loc 1 506 0
 545 0030 6E61     		str	r6, [r5, #20]
 546 0032 70BD     		pop	{r4, r5, r6, pc}
 547              	.L76:
 548              		.align	2
 549              	.L75:
 550 0034 00000000 		.word	.LANCHOR0
 551 0038 0C000000 		.word	_stm32_dma_streams+12
 552 003c 00000000 		.word	.LANCHOR1
 553 0040 00480040 		.word	1073760256
 554 0044 00140140 		.word	1073812480
 555              		.cfi_endproc
 556              	.LFE127:
 557              		.size	uart_lld_init, .-uart_lld_init
 558 0048 AFF30080 		.section	.text.uart_lld_start,"ax",%progbits
 558      AFF30080 
 559              		.align	2
 560              		.p2align 4,,15
ARM GAS  C:\Users\jsyoon\AppData\Local\Temp\ccXoI9ru.s 			page 11


 561              		.global	uart_lld_start
 562              		.thumb
 563              		.thumb_func
 564              		.type	uart_lld_start, %function
 565              	uart_lld_start:
 566              	.LFB128:
 567              		.loc 1 517 0
 568              		.cfi_startproc
 569              		@ args = 0, pretend = 0, frame = 0
 570              		@ frame_needed = 0, uses_anonymous_args = 0
 571              	.LVL35:
 572 0000 2DE9F843 		push	{r3, r4, r5, r6, r7, r8, r9, lr}
 573              		.cfi_def_cfa_offset 32
 574              		.cfi_offset 3, -32
 575              		.cfi_offset 4, -28
 576              		.cfi_offset 5, -24
 577              		.cfi_offset 6, -20
 578              		.cfi_offset 7, -16
 579              		.cfi_offset 8, -12
 580              		.cfi_offset 9, -8
 581              		.cfi_offset 14, -4
 582              		.loc 1 519 0
 583 0004 0378     		ldrb	r3, [r0]	@ zero_extendqisi2
 584 0006 012B     		cmp	r3, #1
 585              		.loc 1 517 0
 586 0008 0446     		mov	r4, r0
 587              		.loc 1 519 0
 588 000a 4BD0     		beq	.L78
 589 000c 8568     		ldr	r5, [r0, #8]
 590              	.LVL36:
 591              	.L79:
 592              		.loc 1 671 0
 593 000e 0023     		movs	r3, #0
 594 0010 A370     		strb	r3, [r4, #2]
 595              		.loc 1 672 0
 596 0012 6370     		strb	r3, [r4, #1]
 597              	.LVL37:
 598              	.LBB32:
 599              	.LBB33:
 600              		.loc 1 204 0
 601 0014 2046     		mov	r0, r4
 602 0016 FFF7FEFF 		bl	usart_stop
 603              	.LVL38:
 604              		.loc 1 208 0
 605 001a A368     		ldr	r3, [r4, #8]
 606 001c 4E4A     		ldr	r2, .L93
 607 001e 9342     		cmp	r3, r2
 608 0020 58D0     		beq	.L83
 609 0022 02F58062 		add	r2, r2, #1024
 610 0026 9342     		cmp	r3, r2
 611 0028 54D0     		beq	.L83
 612              		.loc 1 214 0
 613 002a 6368     		ldr	r3, [r4, #4]
 614 002c 4B49     		ldr	r1, .L93+4
 615 002e 5A69     		ldr	r2, [r3, #20]
 616 0030 B1FBF2F2 		udiv	r2, r1, r2
 617 0034 92B2     		uxth	r2, r2
ARM GAS  C:\Users\jsyoon\AppData\Local\Temp\ccXoI9ru.s 			page 12


 618 0036 2A81     		strh	r2, [r5, #8]	@ movhi
 619              	.L85:
 620              	.LBB34:
 621              	.LBB35:
 622              		.loc 1 169 0
 623 0038 2169     		ldr	r1, [r4, #16]
 624              		.loc 1 165 0
 625 003a DA68     		ldr	r2, [r3, #12]
 626              	.LBE35:
 627              	.LBE34:
 628              		.loc 1 226 0
 629 003c D3F80490 		ldr	r9, [r3, #4]
 630              		.loc 1 231 0
 631 0040 B3F81880 		ldrh	r8, [r3, #24]
 632              		.loc 1 223 0
 633 0044 5F8B     		ldrh	r7, [r3, #26]
 634              		.loc 1 224 0
 635 0046 9E8B     		ldrh	r6, [r3, #28]
 636              	.LBB42:
 637              	.LBB36:
 638              		.loc 1 169 0
 639 0048 0B68     		ldr	r3, [r1]
 640              	.LBE36:
 641              	.LBE42:
 642              		.loc 1 217 0
 643 004a 2988     		ldrh	r1, [r5]
 644              		.loc 1 218 0
 645 004c A988     		ldrh	r1, [r5, #4]
 646              		.loc 1 227 0
 647 004e 42F24C10 		movw	r0, #8524
 648 0052 42F20C11 		movw	r1, #8460
 649 0056 B9F1000F 		cmp	r9, #0
 650 005a 08BF     		it	eq
 651 005c 0846     		moveq	r0, r1
 652              	.LVL39:
 653              	.LBB43:
 654              	.LBB37:
 655              		.loc 1 165 0
 656 005e 002A     		cmp	r2, #0
 657              		.loc 1 171 0
 658 0060 E268     		ldr	r2, [r4, #12]
 659              		.loc 1 166 0
 660 0062 14BF     		ite	ne
 661 0064 4FF48871 		movne	r1, #272
 662 0068 4FF48071 		moveq	r1, #256
 663              	.LBE37:
 664              	.LBE43:
 665              		.loc 1 223 0
 666 006c 47F04007 		orr	r7, r7, #64
 667              		.loc 1 224 0
 668 0070 46F0C106 		orr	r6, r6, #193
 669              		.loc 1 231 0
 670 0074 40EA0800 		orr	r0, r0, r8
 671              	.LVL40:
 672              		.loc 1 223 0
 673 0078 BFB2     		uxth	r7, r7
 674              	.LBB44:
ARM GAS  C:\Users\jsyoon\AppData\Local\Temp\ccXoI9ru.s 			page 13


 675              	.LBB38:
 676              		.loc 1 171 0
 677 007a 41EA0208 		orr	r8, r1, r2
 678              	.LBE38:
 679              	.LBE44:
 680              		.loc 1 219 0
 681 007e 4FF0000C 		mov	ip, #0
 682              	.LBB45:
 683              	.LBB39:
 684              		.loc 1 170 0
 685 0082 0121     		movs	r1, #1
 686              	.LBE39:
 687              	.LBE45:
 688              		.loc 1 224 0
 689 0084 B6B2     		uxth	r6, r6
 690              	.LBB46:
 691              	.LBB40:
 692              		.loc 1 169 0
 693 0086 1834     		adds	r4, r4, #24
 694              	.LVL41:
 695              	.LBE40:
 696              	.LBE46:
 697              		.loc 1 219 0
 698 0088 A5F800C0 		strh	ip, [r5]	@ movhi
 699              		.loc 1 223 0
 700 008c 2F82     		strh	r7, [r5, #16]	@ movhi
 701              		.loc 1 224 0
 702 008e AE82     		strh	r6, [r5, #20]	@ movhi
 703              		.loc 1 231 0
 704 0090 A881     		strh	r0, [r5, #12]	@ movhi
 705              	.LVL42:
 706              	.LBB47:
 707              	.LBB41:
 708              		.loc 1 169 0
 709 0092 DC60     		str	r4, [r3, #12]
 710              		.loc 1 170 0
 711 0094 5960     		str	r1, [r3, #4]
 712              		.loc 1 171 0
 713 0096 C3F80080 		str	r8, [r3]
 714              		.loc 1 172 0
 715 009a 1A68     		ldr	r2, [r3]
 716 009c 0A43     		orrs	r2, r2, r1
 717 009e 1A60     		str	r2, [r3]
 718 00a0 BDE8F883 		pop	{r3, r4, r5, r6, r7, r8, r9, pc}
 719              	.LVL43:
 720              	.L78:
 721              	.LBE41:
 722              	.LBE47:
 723              	.LBE33:
 724              	.LBE32:
 725              		.loc 1 563 0
 726 00a4 2E4B     		ldr	r3, .L93+8
 727 00a6 9842     		cmp	r0, r3
 728 00a8 3BD0     		beq	.L90
 729              		.loc 1 642 0
 730 00aa 2E4B     		ldr	r3, .L93+12
 731 00ac 9842     		cmp	r0, r3
ARM GAS  C:\Users\jsyoon\AppData\Local\Temp\ccXoI9ru.s 			page 14


 732 00ae 1ED0     		beq	.L91
 733              	.LVL44:
 734              	.L81:
 735              		.loc 1 664 0
 736 00b0 6368     		ldr	r3, [r4, #4]
 737 00b2 1B8B     		ldrh	r3, [r3, #24]
 738 00b4 03F4A053 		and	r3, r3, #5120
 739 00b8 B3F5805F 		cmp	r3, #4096
 740 00bc 12D0     		beq	.L92
 741              	.L82:
 742              		.loc 1 666 0
 743 00be 2269     		ldr	r2, [r4, #16]
 744              		.loc 1 667 0
 745 00c0 6369     		ldr	r3, [r4, #20]
 746              		.loc 1 666 0
 747 00c2 A568     		ldr	r5, [r4, #8]
 748 00c4 1068     		ldr	r0, [r2]
 749              		.loc 1 667 0
 750 00c6 1968     		ldr	r1, [r3]
 751              		.loc 1 668 0
 752 00c8 0022     		movs	r2, #0
 753              		.loc 1 666 0
 754 00ca 2B1D     		adds	r3, r5, #4
 755 00cc 8360     		str	r3, [r0, #8]
 756              		.loc 1 667 0
 757 00ce 8B60     		str	r3, [r1, #8]
 758              		.loc 1 668 0
 759 00d0 2283     		strh	r2, [r4, #24]	@ movhi
 760 00d2 9CE7     		b	.L79
 761              	.LVL45:
 762              	.L83:
 763              	.LBB49:
 764              	.LBB48:
 765              		.loc 1 212 0
 766 00d4 6368     		ldr	r3, [r4, #4]
 767 00d6 2449     		ldr	r1, .L93+16
 768 00d8 5A69     		ldr	r2, [r3, #20]
 769 00da B1FBF2F2 		udiv	r2, r1, r2
 770 00de 92B2     		uxth	r2, r2
 771 00e0 2A81     		strh	r2, [r5, #8]	@ movhi
 772 00e2 A9E7     		b	.L85
 773              	.LVL46:
 774              	.L92:
 775              	.LBE48:
 776              	.LBE49:
 777              		.loc 1 665 0
 778 00e4 E368     		ldr	r3, [r4, #12]
 779 00e6 43F42053 		orr	r3, r3, #10240
 780 00ea E360     		str	r3, [r4, #12]
 781 00ec E7E7     		b	.L82
 782              	.LVL47:
 783              	.L91:
 784              	.LBB50:
 785              		.loc 1 644 0
 786 00ee 1F4A     		ldr	r2, .L93+20
 787 00f0 0069     		ldr	r0, [r0, #16]
 788              	.LVL48:
ARM GAS  C:\Users\jsyoon\AppData\Local\Temp\ccXoI9ru.s 			page 15


 789 00f2 0C21     		movs	r1, #12
 790 00f4 2346     		mov	r3, r4
 791 00f6 FFF7FEFF 		bl	dmaStreamAllocate
 792              	.LVL49:
 793              		.loc 1 649 0
 794 00fa 1D4A     		ldr	r2, .L93+24
 795 00fc 6069     		ldr	r0, [r4, #20]
 796 00fe 0C21     		movs	r1, #12
 797 0100 2346     		mov	r3, r4
 798 0102 FFF7FEFF 		bl	dmaStreamAllocate
 799              	.LVL50:
 800              		.loc 1 654 0
 801 0106 1B4B     		ldr	r3, .L93+28
 802 0108 5A6C     		ldr	r2, [r3, #68]
 803 010a 42F02002 		orr	r2, r2, #32
 804 010e 5A64     		str	r2, [r3, #68]
 805              		.loc 1 655 0
 806 0110 4720     		movs	r0, #71
 807 0112 C021     		movs	r1, #192
 808 0114 FFF7FEFF 		bl	nvicEnableVector
 809              	.LVL51:
 810              		.loc 1 657 0
 811 0118 E368     		ldr	r3, [r4, #12]
 812 011a 43F02063 		orr	r3, r3, #167772160
 813 011e E360     		str	r3, [r4, #12]
 814 0120 C6E7     		b	.L81
 815              	.LVL52:
 816              	.L90:
 817              	.LBE50:
 818              	.LBB51:
 819              		.loc 1 565 0
 820 0122 124A     		ldr	r2, .L93+20
 821 0124 0069     		ldr	r0, [r0, #16]
 822              	.LVL53:
 823 0126 0C21     		movs	r1, #12
 824 0128 2346     		mov	r3, r4
 825 012a FFF7FEFF 		bl	dmaStreamAllocate
 826              	.LVL54:
 827              		.loc 1 570 0
 828 012e 104A     		ldr	r2, .L93+24
 829 0130 6069     		ldr	r0, [r4, #20]
 830 0132 0C21     		movs	r1, #12
 831 0134 2346     		mov	r3, r4
 832 0136 FFF7FEFF 		bl	dmaStreamAllocate
 833              	.LVL55:
 834              		.loc 1 575 0
 835 013a 0E4B     		ldr	r3, .L93+28
 836 013c 1A6C     		ldr	r2, [r3, #64]
 837 013e 42F48022 		orr	r2, r2, #262144
 838 0142 1A64     		str	r2, [r3, #64]
 839              		.loc 1 576 0
 840 0144 2720     		movs	r0, #39
 841 0146 C021     		movs	r1, #192
 842 0148 FFF7FEFF 		bl	nvicEnableVector
 843              	.LVL56:
 844              		.loc 1 578 0
 845 014c E368     		ldr	r3, [r4, #12]
ARM GAS  C:\Users\jsyoon\AppData\Local\Temp\ccXoI9ru.s 			page 16


 846 014e 43F00063 		orr	r3, r3, #134217728
 847 0152 E360     		str	r3, [r4, #12]
 848 0154 ACE7     		b	.L81
 849              	.L94:
 850 0156 00BF     		.align	2
 851              	.L93:
 852 0158 00100140 		.word	1073811456
 853 015c 80DE8002 		.word	42000000
 854 0160 00000000 		.word	.LANCHOR0
 855 0164 00000000 		.word	.LANCHOR1
 856 0168 00BD0105 		.word	84000000
 857 016c 00000000 		.word	uart_lld_serve_rx_end_irq
 858 0170 00000000 		.word	uart_lld_serve_tx_end_irq
 859 0174 00380240 		.word	1073887232
 860              	.LBE51:
 861              		.cfi_endproc
 862              	.LFE128:
 863              		.size	uart_lld_start, .-uart_lld_start
 864 0178 AFF30080 		.section	.text.uart_lld_stop,"ax",%progbits
 864      AFF30080 
 865              		.align	2
 866              		.p2align 4,,15
 867              		.global	uart_lld_stop
 868              		.thumb
 869              		.thumb_func
 870              		.type	uart_lld_stop, %function
 871              	uart_lld_stop:
 872              	.LFB129:
 873              		.loc 1 683 0
 874              		.cfi_startproc
 875              		@ args = 0, pretend = 0, frame = 0
 876              		@ frame_needed = 0, uses_anonymous_args = 0
 877              	.LVL57:
 878              		.loc 1 685 0
 879 0000 0378     		ldrb	r3, [r0]	@ zero_extendqisi2
 880 0002 022B     		cmp	r3, #2
 881              		.loc 1 683 0
 882 0004 10B5     		push	{r4, lr}
 883              		.cfi_def_cfa_offset 8
 884              		.cfi_offset 4, -8
 885              		.cfi_offset 14, -4
 886              		.loc 1 683 0
 887 0006 0446     		mov	r4, r0
 888              		.loc 1 685 0
 889 0008 00D0     		beq	.L100
 890              	.LVL58:
 891              	.L95:
 892 000a 10BD     		pop	{r4, pc}
 893              	.LVL59:
 894              	.L100:
 895              		.loc 1 686 0
 896 000c FFF7FEFF 		bl	usart_stop
 897              	.LVL60:
 898              		.loc 1 687 0
 899 0010 2069     		ldr	r0, [r4, #16]
 900 0012 FFF7FEFF 		bl	dmaStreamRelease
 901              	.LVL61:
ARM GAS  C:\Users\jsyoon\AppData\Local\Temp\ccXoI9ru.s 			page 17


 902              		.loc 1 688 0
 903 0016 6069     		ldr	r0, [r4, #20]
 904 0018 FFF7FEFF 		bl	dmaStreamRelease
 905              	.LVL62:
 906              		.loc 1 707 0
 907 001c 0B4B     		ldr	r3, .L102
 908 001e 9C42     		cmp	r4, r3
 909 0020 0BD0     		beq	.L101
 910              		.loc 1 731 0
 911 0022 0B4B     		ldr	r3, .L102+4
 912 0024 9C42     		cmp	r4, r3
 913 0026 F0D1     		bne	.L95
 914              		.loc 1 732 0
 915 0028 4720     		movs	r0, #71
 916 002a FFF7FEFF 		bl	nvicDisableVector
 917              	.LVL63:
 918              		.loc 1 733 0
 919 002e 094B     		ldr	r3, .L102+8
 920 0030 5A6C     		ldr	r2, [r3, #68]
 921 0032 22F02002 		bic	r2, r2, #32
 922 0036 5A64     		str	r2, [r3, #68]
 923              		.loc 1 734 0
 924 0038 E7E7     		b	.L95
 925              	.L101:
 926              		.loc 1 708 0
 927 003a 2720     		movs	r0, #39
 928 003c FFF7FEFF 		bl	nvicDisableVector
 929              	.LVL64:
 930              		.loc 1 709 0
 931 0040 044B     		ldr	r3, .L102+8
 932 0042 1A6C     		ldr	r2, [r3, #64]
 933 0044 22F48022 		bic	r2, r2, #262144
 934 0048 1A64     		str	r2, [r3, #64]
 935              		.loc 1 710 0
 936 004a 10BD     		pop	{r4, pc}
 937              	.LVL65:
 938              	.L103:
 939              		.align	2
 940              	.L102:
 941 004c 00000000 		.word	.LANCHOR0
 942 0050 00000000 		.word	.LANCHOR1
 943 0054 00380240 		.word	1073887232
 944              		.cfi_endproc
 945              	.LFE129:
 946              		.size	uart_lld_stop, .-uart_lld_stop
 947 0058 AFF30080 		.section	.text.uart_lld_start_send,"ax",%progbits
 947      AFF30080 
 948              		.align	2
 949              		.p2align 4,,15
 950              		.global	uart_lld_start_send
 951              		.thumb
 952              		.thumb_func
 953              		.type	uart_lld_start_send, %function
 954              	uart_lld_start_send:
 955              	.LFB130:
 956              		.loc 1 751 0
 957              		.cfi_startproc
ARM GAS  C:\Users\jsyoon\AppData\Local\Temp\ccXoI9ru.s 			page 18


 958              		@ args = 0, pretend = 0, frame = 0
 959              		@ frame_needed = 0, uses_anonymous_args = 0
 960              		@ link register save eliminated.
 961              	.LVL66:
 962              		.loc 1 754 0
 963 0000 4369     		ldr	r3, [r0, #20]
 964              		.loc 1 756 0
 965 0002 C068     		ldr	r0, [r0, #12]
 966              	.LVL67:
 967              		.loc 1 754 0
 968 0004 1B68     		ldr	r3, [r3]
 969              		.loc 1 756 0
 970 0006 40F48A60 		orr	r0, r0, #1104
 971              		.loc 1 754 0
 972 000a DA60     		str	r2, [r3, #12]
 973              		.loc 1 755 0
 974 000c 5960     		str	r1, [r3, #4]
 975              		.loc 1 756 0
 976 000e 1860     		str	r0, [r3]
 977              		.loc 1 758 0
 978 0010 1A68     		ldr	r2, [r3]
 979              	.LVL68:
 980 0012 42F00102 		orr	r2, r2, #1
 981 0016 1A60     		str	r2, [r3]
 982 0018 7047     		bx	lr
 983              		.cfi_endproc
 984              	.LFE130:
 985              		.size	uart_lld_start_send, .-uart_lld_start_send
 986 001a 00BFAFF3 		.section	.text.uart_lld_stop_send,"ax",%progbits
 986      0080
 987              		.align	2
 988              		.p2align 4,,15
 989              		.global	uart_lld_stop_send
 990              		.thumb
 991              		.thumb_func
 992              		.type	uart_lld_stop_send, %function
 993              	uart_lld_stop_send:
 994              	.LFB131:
 995              		.loc 1 772 0
 996              		.cfi_startproc
 997              		@ args = 0, pretend = 0, frame = 0
 998              		@ frame_needed = 0, uses_anonymous_args = 0
 999              		@ link register save eliminated.
 1000              	.LVL69:
 1001              		.loc 1 774 0
 1002 0000 4169     		ldr	r1, [r0, #20]
 1003 0002 0A68     		ldr	r2, [r1]
 1004 0004 1368     		ldr	r3, [r2]
 1005 0006 23F01F03 		bic	r3, r3, #31
 1006 000a 1360     		str	r3, [r2]
 1007              	.L107:
 1008              		.loc 1 774 0 is_stmt 0 discriminator 1
 1009 000c 1368     		ldr	r3, [r2]
 1010 000e DB07     		lsls	r3, r3, #31
 1011 0010 FCD4     		bmi	.L107
 1012              		.loc 1 774 0 discriminator 2
 1013 0012 087A     		ldrb	r0, [r1, #8]	@ zero_extendqisi2
ARM GAS  C:\Users\jsyoon\AppData\Local\Temp\ccXoI9ru.s 			page 19


 1014              	.LVL70:
 1015 0014 4B68     		ldr	r3, [r1, #4]
 1016 0016 3D21     		movs	r1, #61
 1017 0018 8140     		lsls	r1, r1, r0
 1018 001a 1960     		str	r1, [r3]
 1019              		.loc 1 775 0 is_stmt 1 discriminator 2
 1020 001c 5068     		ldr	r0, [r2, #4]
 1021              		.loc 1 776 0 discriminator 2
 1022 001e 7047     		bx	lr
 1023              		.cfi_endproc
 1024              	.LFE131:
 1025              		.size	uart_lld_stop_send, .-uart_lld_stop_send
 1026              		.section	.text.uart_lld_start_receive,"ax",%progbits
 1027              		.align	2
 1028              		.p2align 4,,15
 1029              		.global	uart_lld_start_receive
 1030              		.thumb
 1031              		.thumb_func
 1032              		.type	uart_lld_start_receive, %function
 1033              	uart_lld_start_receive:
 1034              	.LFB132:
 1035              		.loc 1 789 0
 1036              		.cfi_startproc
 1037              		@ args = 0, pretend = 0, frame = 0
 1038              		@ frame_needed = 0, uses_anonymous_args = 0
 1039              		@ link register save eliminated.
 1040              	.LVL71:
 1041 0000 70B4     		push	{r4, r5, r6}
 1042              		.cfi_def_cfa_offset 12
 1043              		.cfi_offset 4, -12
 1044              		.cfi_offset 5, -8
 1045              		.cfi_offset 6, -4
 1046              		.loc 1 792 0
 1047 0002 0569     		ldr	r5, [r0, #16]
 1048 0004 2C68     		ldr	r4, [r5]
 1049 0006 2368     		ldr	r3, [r4]
 1050 0008 23F01F03 		bic	r3, r3, #31
 1051 000c 2360     		str	r3, [r4]
 1052              	.L110:
 1053              		.loc 1 792 0 is_stmt 0 discriminator 1
 1054 000e 2368     		ldr	r3, [r4]
 1055 0010 DB07     		lsls	r3, r3, #31
 1056 0012 FCD4     		bmi	.L110
 1057              		.loc 1 792 0 discriminator 2
 1058 0014 2E7A     		ldrb	r6, [r5, #8]	@ zero_extendqisi2
 1059 0016 6B68     		ldr	r3, [r5, #4]
 1060 0018 3D25     		movs	r5, #61
 1061 001a B540     		lsls	r5, r5, r6
 1062 001c 1D60     		str	r5, [r3]
 1063              		.loc 1 797 0 is_stmt 1 discriminator 2
 1064 001e C368     		ldr	r3, [r0, #12]
 1065              		.loc 1 795 0 discriminator 2
 1066 0020 E260     		str	r2, [r4, #12]
 1067              		.loc 1 797 0 discriminator 2
 1068 0022 43F48263 		orr	r3, r3, #1040
 1069              		.loc 1 796 0 discriminator 2
 1070 0026 6160     		str	r1, [r4, #4]
ARM GAS  C:\Users\jsyoon\AppData\Local\Temp\ccXoI9ru.s 			page 20


 1071              		.loc 1 797 0 discriminator 2
 1072 0028 2360     		str	r3, [r4]
 1073              		.loc 1 799 0 discriminator 2
 1074 002a 2368     		ldr	r3, [r4]
 1075 002c 43F00103 		orr	r3, r3, #1
 1076 0030 2360     		str	r3, [r4]
 1077              		.loc 1 800 0 discriminator 2
 1078 0032 70BC     		pop	{r4, r5, r6}
 1079 0034 7047     		bx	lr
 1080              		.cfi_endproc
 1081              	.LFE132:
 1082              		.size	uart_lld_start_receive, .-uart_lld_start_receive
 1083 0036 00BFAFF3 		.section	.text.uart_lld_stop_receive,"ax",%progbits
 1083      0080AFF3 
 1083      0080
 1084              		.align	2
 1085              		.p2align 4,,15
 1086              		.global	uart_lld_stop_receive
 1087              		.thumb
 1088              		.thumb_func
 1089              		.type	uart_lld_stop_receive, %function
 1090              	uart_lld_stop_receive:
 1091              	.LFB133:
 1092              		.loc 1 813 0
 1093              		.cfi_startproc
 1094              		@ args = 0, pretend = 0, frame = 0
 1095              		@ frame_needed = 0, uses_anonymous_args = 0
 1096              		@ link register save eliminated.
 1097              	.LVL72:
 1098 0000 0146     		mov	r1, r0
 1099              		.loc 1 816 0
 1100 0002 0069     		ldr	r0, [r0, #16]
 1101              	.LVL73:
 1102 0004 0268     		ldr	r2, [r0]
 1103 0006 1368     		ldr	r3, [r2]
 1104 0008 23F01F03 		bic	r3, r3, #31
 1105              		.loc 1 813 0
 1106 000c 30B4     		push	{r4, r5}
 1107              		.cfi_def_cfa_offset 8
 1108              		.cfi_offset 4, -8
 1109              		.cfi_offset 5, -4
 1110              		.loc 1 816 0
 1111 000e 1360     		str	r3, [r2]
 1112              	.L113:
 1113              		.loc 1 816 0 is_stmt 0 discriminator 1
 1114 0010 1368     		ldr	r3, [r2]
 1115 0012 DB07     		lsls	r3, r3, #31
 1116 0014 FCD4     		bmi	.L113
 1117              	.LBB52:
 1118              	.LBB53:
 1119              		.loc 1 165 0 is_stmt 1 discriminator 2
 1120 0016 4B68     		ldr	r3, [r1, #4]
 1121              	.LBE53:
 1122              	.LBE52:
 1123              		.loc 1 816 0 discriminator 2
 1124 0018 057A     		ldrb	r5, [r0, #8]	@ zero_extendqisi2
 1125              	.LBB57:
ARM GAS  C:\Users\jsyoon\AppData\Local\Temp\ccXoI9ru.s 			page 21


 1126              	.LBB54:
 1127              		.loc 1 165 0 discriminator 2
 1128 001a DC68     		ldr	r4, [r3, #12]
 1129              	.LBE54:
 1130              	.LBE57:
 1131              		.loc 1 816 0 discriminator 2
 1132 001c 4068     		ldr	r0, [r0, #4]
 1133 001e 3D23     		movs	r3, #61
 1134 0020 AB40     		lsls	r3, r3, r5
 1135 0022 0360     		str	r3, [r0]
 1136              	.LBB58:
 1137              	.LBB55:
 1138              		.loc 1 171 0 discriminator 2
 1139 0024 CB68     		ldr	r3, [r1, #12]
 1140              	.LBE55:
 1141              	.LBE58:
 1142              		.loc 1 817 0 discriminator 2
 1143 0026 5068     		ldr	r0, [r2, #4]
 1144              	.LVL74:
 1145              	.LBB59:
 1146              	.LBB56:
 1147              		.loc 1 166 0 discriminator 2
 1148 0028 002C     		cmp	r4, #0
 1149 002a 14BF     		ite	ne
 1150 002c 4FF48874 		movne	r4, #272
 1151 0030 4FF48074 		moveq	r4, #256
 1152              	.LVL75:
 1153              		.loc 1 171 0 discriminator 2
 1154 0034 2343     		orrs	r3, r3, r4
 1155              		.loc 1 169 0 discriminator 2
 1156 0036 1831     		adds	r1, r1, #24
 1157              	.LVL76:
 1158              		.loc 1 170 0 discriminator 2
 1159 0038 0124     		movs	r4, #1
 1160              	.LVL77:
 1161              		.loc 1 169 0 discriminator 2
 1162 003a D160     		str	r1, [r2, #12]
 1163              		.loc 1 170 0 discriminator 2
 1164 003c 5460     		str	r4, [r2, #4]
 1165              		.loc 1 171 0 discriminator 2
 1166 003e 1360     		str	r3, [r2]
 1167              		.loc 1 172 0 discriminator 2
 1168 0040 1368     		ldr	r3, [r2]
 1169 0042 2343     		orrs	r3, r3, r4
 1170 0044 1360     		str	r3, [r2]
 1171              	.LBE56:
 1172              	.LBE59:
 1173              		.loc 1 820 0 discriminator 2
 1174 0046 30BC     		pop	{r4, r5}
 1175 0048 7047     		bx	lr
 1176              		.cfi_endproc
 1177              	.LFE133:
 1178              		.size	uart_lld_stop_receive, .-uart_lld_stop_receive
 1179              		.global	UARTD6
 1180              		.global	UARTD3
 1181 004a 00BFAFF3 		.section	.bss.UARTD3,"aw",%nobits
 1181      0080
ARM GAS  C:\Users\jsyoon\AppData\Local\Temp\ccXoI9ru.s 			page 22


 1182              		.align	2
 1183              		.set	.LANCHOR0,. + 0
 1184              		.type	UARTD3, %object
 1185              		.size	UARTD3, 28
 1186              	UARTD3:
 1187 0000 00000000 		.space	28
 1187      00000000 
 1187      00000000 
 1187      00000000 
 1187      00000000 
 1188              		.section	.bss.UARTD6,"aw",%nobits
 1189              		.align	2
 1190              		.set	.LANCHOR1,. + 0
 1191              		.type	UARTD6, %object
 1192              		.size	UARTD6, 28
 1193              	UARTD6:
 1194 0000 00000000 		.space	28
 1194      00000000 
 1194      00000000 
 1194      00000000 
 1194      00000000 
 1195              		.text
 1196              	.Letext0:
 1197              		.file 2 "c:\\crosstools\\gcc-arm-embedded\\4.8_2014q2\\lib\\gcc\\arm-none-eabi\\4.8.4\\include\\st
 1198              		.file 3 "c:\\crosstools\\gcc-arm-embedded\\4.8_2014q2\\arm-none-eabi\\include\\machine\\_default_t
 1199              		.file 4 "c:\\crosstools\\gcc-arm-embedded\\4.8_2014q2\\arm-none-eabi\\include\\stdint.h"
 1200              		.file 5 "ChibiOS_2.6.6/os/ports/GCC/ARMCMx/chtypes.h"
 1201              		.file 6 "ChibiOS_2.6.6/os/hal/platforms/STM32F4xx/stm32f4xx.h"
 1202              		.file 7 "ChibiOS_2.6.6/os/hal/platforms/STM32F4xx/stm32_dma.h"
 1203              		.file 8 "ChibiOS_2.6.6/os/hal/include/uart.h"
 1204              		.file 9 "ChibiOS_2.6.6/os/hal/platforms/STM32/USARTv1/uart_lld.h"
 1205              		.file 10 "ChibiOS_2.6.6/os/ports/common/ARMCMx/CMSIS/include/core_cm4.h"
 1206              		.file 11 "ChibiOS_2.6.6/os/ports/GCC/ARMCMx/chcore_v7m.h"
 1207              		.file 12 "ChibiOS_2.6.6/os/ports/common/ARMCMx/nvic.h"
 1208              		.section	.debug_info,"",%progbits
 1209              	.Ldebug_info0:
 1210 0000 B30E0000 		.4byte	0xeb3
 1211 0004 0400     		.2byte	0x4
 1212 0006 00000000 		.4byte	.Ldebug_abbrev0
 1213 000a 04       		.byte	0x4
 1214 000b 01       		.uleb128 0x1
 1215 000c 8C010000 		.4byte	.LASF126
 1216 0010 01       		.byte	0x1
 1217 0011 E7020000 		.4byte	.LASF127
 1218 0015 3C010000 		.4byte	.LASF128
 1219 0019 A0000000 		.4byte	.Ldebug_ranges0+0xa0
 1220 001d 00000000 		.4byte	0
 1221 0021 00000000 		.4byte	.Ldebug_line0
 1222 0025 02       		.uleb128 0x2
 1223 0026 04       		.byte	0x4
 1224 0027 05       		.byte	0x5
 1225 0028 696E7400 		.ascii	"int\000"
 1226 002c 03       		.uleb128 0x3
 1227 002d 47000000 		.4byte	.LASF2
 1228 0031 02       		.byte	0x2
 1229 0032 D4       		.byte	0xd4
 1230 0033 37000000 		.4byte	0x37
ARM GAS  C:\Users\jsyoon\AppData\Local\Temp\ccXoI9ru.s 			page 23


 1231 0037 04       		.uleb128 0x4
 1232 0038 04       		.byte	0x4
 1233 0039 07       		.byte	0x7
 1234 003a 7F030000 		.4byte	.LASF0
 1235 003e 04       		.uleb128 0x4
 1236 003f 01       		.byte	0x1
 1237 0040 06       		.byte	0x6
 1238 0041 11010000 		.4byte	.LASF1
 1239 0045 03       		.uleb128 0x3
 1240 0046 58000000 		.4byte	.LASF3
 1241 004a 03       		.byte	0x3
 1242 004b 1C       		.byte	0x1c
 1243 004c 50000000 		.4byte	0x50
 1244 0050 04       		.uleb128 0x4
 1245 0051 01       		.byte	0x1
 1246 0052 08       		.byte	0x8
 1247 0053 7E050000 		.4byte	.LASF4
 1248 0057 04       		.uleb128 0x4
 1249 0058 02       		.byte	0x2
 1250 0059 05       		.byte	0x5
 1251 005a 8C050000 		.4byte	.LASF5
 1252 005e 03       		.uleb128 0x3
 1253 005f 1C060000 		.4byte	.LASF6
 1254 0063 03       		.byte	0x3
 1255 0064 26       		.byte	0x26
 1256 0065 69000000 		.4byte	0x69
 1257 0069 04       		.uleb128 0x4
 1258 006a 02       		.byte	0x2
 1259 006b 07       		.byte	0x7
 1260 006c F0030000 		.4byte	.LASF7
 1261 0070 03       		.uleb128 0x3
 1262 0071 30060000 		.4byte	.LASF8
 1263 0075 03       		.byte	0x3
 1264 0076 37       		.byte	0x37
 1265 0077 7B000000 		.4byte	0x7b
 1266 007b 04       		.uleb128 0x4
 1267 007c 04       		.byte	0x4
 1268 007d 05       		.byte	0x5
 1269 007e 7A010000 		.4byte	.LASF9
 1270 0082 03       		.uleb128 0x3
 1271 0083 39030000 		.4byte	.LASF10
 1272 0087 03       		.byte	0x3
 1273 0088 38       		.byte	0x38
 1274 0089 8D000000 		.4byte	0x8d
 1275 008d 04       		.uleb128 0x4
 1276 008e 04       		.byte	0x4
 1277 008f 07       		.byte	0x7
 1278 0090 B7030000 		.4byte	.LASF11
 1279 0094 04       		.uleb128 0x4
 1280 0095 08       		.byte	0x8
 1281 0096 05       		.byte	0x5
 1282 0097 03010000 		.4byte	.LASF12
 1283 009b 04       		.uleb128 0x4
 1284 009c 08       		.byte	0x8
 1285 009d 07       		.byte	0x7
 1286 009e 82000000 		.4byte	.LASF13
 1287 00a2 03       		.uleb128 0x3
ARM GAS  C:\Users\jsyoon\AppData\Local\Temp\ccXoI9ru.s 			page 24


 1288 00a3 A9060000 		.4byte	.LASF14
 1289 00a7 04       		.byte	0x4
 1290 00a8 2A       		.byte	0x2a
 1291 00a9 45000000 		.4byte	0x45
 1292 00ad 03       		.uleb128 0x3
 1293 00ae B0020000 		.4byte	.LASF15
 1294 00b2 04       		.byte	0x4
 1295 00b3 36       		.byte	0x36
 1296 00b4 5E000000 		.4byte	0x5e
 1297 00b8 03       		.uleb128 0x3
 1298 00b9 76050000 		.4byte	.LASF16
 1299 00bd 04       		.byte	0x4
 1300 00be 41       		.byte	0x41
 1301 00bf 70000000 		.4byte	0x70
 1302 00c3 03       		.uleb128 0x3
 1303 00c4 86060000 		.4byte	.LASF17
 1304 00c8 04       		.byte	0x4
 1305 00c9 42       		.byte	0x42
 1306 00ca 82000000 		.4byte	0x82
 1307 00ce 03       		.uleb128 0x3
 1308 00cf D5000000 		.4byte	.LASF18
 1309 00d3 05       		.byte	0x5
 1310 00d4 2B       		.byte	0x2b
 1311 00d5 D9000000 		.4byte	0xd9
 1312 00d9 04       		.uleb128 0x4
 1313 00da 01       		.byte	0x1
 1314 00db 02       		.byte	0x2
 1315 00dc 70050000 		.4byte	.LASF19
 1316 00e0 05       		.uleb128 0x5
 1317 00e1 04       		.byte	0x4
 1318 00e2 06       		.uleb128 0x6
 1319 00e3 C3000000 		.4byte	0xc3
 1320 00e7 04       		.uleb128 0x4
 1321 00e8 04       		.byte	0x4
 1322 00e9 07       		.byte	0x7
 1323 00ea 86040000 		.4byte	.LASF20
 1324 00ee 04       		.uleb128 0x4
 1325 00ef 01       		.byte	0x1
 1326 00f0 08       		.byte	0x8
 1327 00f1 ED050000 		.4byte	.LASF21
 1328 00f5 07       		.uleb128 0x7
 1329 00f6 C3000000 		.4byte	0xc3
 1330 00fa 05010000 		.4byte	0x105
 1331 00fe 08       		.uleb128 0x8
 1332 00ff E7000000 		.4byte	0xe7
 1333 0103 01       		.byte	0x1
 1334 0104 00       		.byte	0
 1335 0105 06       		.uleb128 0x6
 1336 0106 AD000000 		.4byte	0xad
 1337 010a 06       		.uleb128 0x6
 1338 010b B8000000 		.4byte	0xb8
 1339 010f 09       		.uleb128 0x9
 1340 0110 18       		.byte	0x18
 1341 0111 06       		.byte	0x6
 1342 0112 B102     		.2byte	0x2b1
 1343 0114 66010000 		.4byte	0x166
 1344 0118 0A       		.uleb128 0xa
ARM GAS  C:\Users\jsyoon\AppData\Local\Temp\ccXoI9ru.s 			page 25


 1345 0119 435200   		.ascii	"CR\000"
 1346 011c 06       		.byte	0x6
 1347 011d B302     		.2byte	0x2b3
 1348 011f E2000000 		.4byte	0xe2
 1349 0123 00       		.byte	0
 1350 0124 0B       		.uleb128 0xb
 1351 0125 47060000 		.4byte	.LASF22
 1352 0129 06       		.byte	0x6
 1353 012a B402     		.2byte	0x2b4
 1354 012c E2000000 		.4byte	0xe2
 1355 0130 04       		.byte	0x4
 1356 0131 0A       		.uleb128 0xa
 1357 0132 50415200 		.ascii	"PAR\000"
 1358 0136 06       		.byte	0x6
 1359 0137 B502     		.2byte	0x2b5
 1360 0139 E2000000 		.4byte	0xe2
 1361 013d 08       		.byte	0x8
 1362 013e 0B       		.uleb128 0xb
 1363 013f 42000000 		.4byte	.LASF23
 1364 0143 06       		.byte	0x6
 1365 0144 B602     		.2byte	0x2b6
 1366 0146 E2000000 		.4byte	0xe2
 1367 014a 0C       		.byte	0xc
 1368 014b 0B       		.uleb128 0xb
 1369 014c 81060000 		.4byte	.LASF24
 1370 0150 06       		.byte	0x6
 1371 0151 B702     		.2byte	0x2b7
 1372 0153 E2000000 		.4byte	0xe2
 1373 0157 10       		.byte	0x10
 1374 0158 0A       		.uleb128 0xa
 1375 0159 46435200 		.ascii	"FCR\000"
 1376 015d 06       		.byte	0x6
 1377 015e B802     		.2byte	0x2b8
 1378 0160 E2000000 		.4byte	0xe2
 1379 0164 14       		.byte	0x14
 1380 0165 00       		.byte	0
 1381 0166 0C       		.uleb128 0xc
 1382 0167 4C060000 		.4byte	.LASF25
 1383 016b 06       		.byte	0x6
 1384 016c B902     		.2byte	0x2b9
 1385 016e 0F010000 		.4byte	0x10f
 1386 0172 09       		.uleb128 0x9
 1387 0173 90       		.byte	0x90
 1388 0174 06       		.byte	0x6
 1389 0175 5804     		.2byte	0x458
 1390 0177 1B030000 		.4byte	0x31b
 1391 017b 0A       		.uleb128 0xa
 1392 017c 435200   		.ascii	"CR\000"
 1393 017f 06       		.byte	0x6
 1394 0180 5A04     		.2byte	0x45a
 1395 0182 E2000000 		.4byte	0xe2
 1396 0186 00       		.byte	0
 1397 0187 0B       		.uleb128 0xb
 1398 0188 D1020000 		.4byte	.LASF26
 1399 018c 06       		.byte	0x6
 1400 018d 5B04     		.2byte	0x45b
 1401 018f E2000000 		.4byte	0xe2
ARM GAS  C:\Users\jsyoon\AppData\Local\Temp\ccXoI9ru.s 			page 26


 1402 0193 04       		.byte	0x4
 1403 0194 0B       		.uleb128 0xb
 1404 0195 E3060000 		.4byte	.LASF27
 1405 0199 06       		.byte	0x6
 1406 019a 5C04     		.2byte	0x45c
 1407 019c E2000000 		.4byte	0xe2
 1408 01a0 08       		.byte	0x8
 1409 01a1 0A       		.uleb128 0xa
 1410 01a2 43495200 		.ascii	"CIR\000"
 1411 01a6 06       		.byte	0x6
 1412 01a7 5D04     		.2byte	0x45d
 1413 01a9 E2000000 		.4byte	0xe2
 1414 01ad 0C       		.byte	0xc
 1415 01ae 0B       		.uleb128 0xb
 1416 01af 26010000 		.4byte	.LASF28
 1417 01b3 06       		.byte	0x6
 1418 01b4 5E04     		.2byte	0x45e
 1419 01b6 E2000000 		.4byte	0xe2
 1420 01ba 10       		.byte	0x10
 1421 01bb 0B       		.uleb128 0xb
 1422 01bc 27060000 		.4byte	.LASF29
 1423 01c0 06       		.byte	0x6
 1424 01c1 5F04     		.2byte	0x45f
 1425 01c3 E2000000 		.4byte	0xe2
 1426 01c7 14       		.byte	0x14
 1427 01c8 0B       		.uleb128 0xb
 1428 01c9 24040000 		.4byte	.LASF30
 1429 01cd 06       		.byte	0x6
 1430 01ce 6004     		.2byte	0x460
 1431 01d0 E2000000 		.4byte	0xe2
 1432 01d4 18       		.byte	0x18
 1433 01d5 0B       		.uleb128 0xb
 1434 01d6 06050000 		.4byte	.LASF31
 1435 01da 06       		.byte	0x6
 1436 01db 6104     		.2byte	0x461
 1437 01dd C3000000 		.4byte	0xc3
 1438 01e1 1C       		.byte	0x1c
 1439 01e2 0B       		.uleb128 0xb
 1440 01e3 EC040000 		.4byte	.LASF32
 1441 01e7 06       		.byte	0x6
 1442 01e8 6204     		.2byte	0x462
 1443 01ea E2000000 		.4byte	0xe2
 1444 01ee 20       		.byte	0x20
 1445 01ef 0B       		.uleb128 0xb
 1446 01f0 83010000 		.4byte	.LASF33
 1447 01f4 06       		.byte	0x6
 1448 01f5 6304     		.2byte	0x463
 1449 01f7 E2000000 		.4byte	0xe2
 1450 01fb 24       		.byte	0x24
 1451 01fc 0B       		.uleb128 0xb
 1452 01fd 10050000 		.4byte	.LASF34
 1453 0201 06       		.byte	0x6
 1454 0202 6404     		.2byte	0x464
 1455 0204 F5000000 		.4byte	0xf5
 1456 0208 28       		.byte	0x28
 1457 0209 0B       		.uleb128 0xb
 1458 020a DB060000 		.4byte	.LASF35
ARM GAS  C:\Users\jsyoon\AppData\Local\Temp\ccXoI9ru.s 			page 27


 1459 020e 06       		.byte	0x6
 1460 020f 6504     		.2byte	0x465
 1461 0211 E2000000 		.4byte	0xe2
 1462 0215 30       		.byte	0x30
 1463 0216 0B       		.uleb128 0xb
 1464 0217 5F060000 		.4byte	.LASF36
 1465 021b 06       		.byte	0x6
 1466 021c 6604     		.2byte	0x466
 1467 021e E2000000 		.4byte	0xe2
 1468 0222 34       		.byte	0x34
 1469 0223 0B       		.uleb128 0xb
 1470 0224 C5050000 		.4byte	.LASF37
 1471 0228 06       		.byte	0x6
 1472 0229 6704     		.2byte	0x467
 1473 022b E2000000 		.4byte	0xe2
 1474 022f 38       		.byte	0x38
 1475 0230 0B       		.uleb128 0xb
 1476 0231 1A050000 		.4byte	.LASF38
 1477 0235 06       		.byte	0x6
 1478 0236 6804     		.2byte	0x468
 1479 0238 C3000000 		.4byte	0xc3
 1480 023c 3C       		.byte	0x3c
 1481 023d 0B       		.uleb128 0xb
 1482 023e E5050000 		.4byte	.LASF39
 1483 0242 06       		.byte	0x6
 1484 0243 6904     		.2byte	0x469
 1485 0245 E2000000 		.4byte	0xe2
 1486 0249 40       		.byte	0x40
 1487 024a 0B       		.uleb128 0xb
 1488 024b AC050000 		.4byte	.LASF40
 1489 024f 06       		.byte	0x6
 1490 0250 6A04     		.2byte	0x46a
 1491 0252 E2000000 		.4byte	0xe2
 1492 0256 44       		.byte	0x44
 1493 0257 0B       		.uleb128 0xb
 1494 0258 24050000 		.4byte	.LASF41
 1495 025c 06       		.byte	0x6
 1496 025d 6B04     		.2byte	0x46b
 1497 025f F5000000 		.4byte	0xf5
 1498 0263 48       		.byte	0x48
 1499 0264 0B       		.uleb128 0xb
 1500 0265 B1060000 		.4byte	.LASF42
 1501 0269 06       		.byte	0x6
 1502 026a 6C04     		.2byte	0x46c
 1503 026c E2000000 		.4byte	0xe2
 1504 0270 50       		.byte	0x50
 1505 0271 0B       		.uleb128 0xb
 1506 0272 D4040000 		.4byte	.LASF43
 1507 0276 06       		.byte	0x6
 1508 0277 6D04     		.2byte	0x46d
 1509 0279 E2000000 		.4byte	0xe2
 1510 027d 54       		.byte	0x54
 1511 027e 0B       		.uleb128 0xb
 1512 027f 96050000 		.4byte	.LASF44
 1513 0283 06       		.byte	0x6
 1514 0284 6E04     		.2byte	0x46e
 1515 0286 E2000000 		.4byte	0xe2
ARM GAS  C:\Users\jsyoon\AppData\Local\Temp\ccXoI9ru.s 			page 28


 1516 028a 58       		.byte	0x58
 1517 028b 0B       		.uleb128 0xb
 1518 028c 2E050000 		.4byte	.LASF45
 1519 0290 06       		.byte	0x6
 1520 0291 6F04     		.2byte	0x46f
 1521 0293 C3000000 		.4byte	0xc3
 1522 0297 5C       		.byte	0x5c
 1523 0298 0B       		.uleb128 0xb
 1524 0299 1D000000 		.4byte	.LASF46
 1525 029d 06       		.byte	0x6
 1526 029e 7004     		.2byte	0x470
 1527 02a0 E2000000 		.4byte	0xe2
 1528 02a4 60       		.byte	0x60
 1529 02a5 0B       		.uleb128 0xb
 1530 02a6 4E040000 		.4byte	.LASF47
 1531 02aa 06       		.byte	0x6
 1532 02ab 7104     		.2byte	0x471
 1533 02ad E2000000 		.4byte	0xe2
 1534 02b1 64       		.byte	0x64
 1535 02b2 0B       		.uleb128 0xb
 1536 02b3 38050000 		.4byte	.LASF48
 1537 02b7 06       		.byte	0x6
 1538 02b8 7204     		.2byte	0x472
 1539 02ba F5000000 		.4byte	0xf5
 1540 02be 68       		.byte	0x68
 1541 02bf 0B       		.uleb128 0xb
 1542 02c0 A4060000 		.4byte	.LASF49
 1543 02c4 06       		.byte	0x6
 1544 02c5 7304     		.2byte	0x473
 1545 02c7 E2000000 		.4byte	0xe2
 1546 02cb 70       		.byte	0x70
 1547 02cc 0A       		.uleb128 0xa
 1548 02cd 43535200 		.ascii	"CSR\000"
 1549 02d1 06       		.byte	0x6
 1550 02d2 7404     		.2byte	0x474
 1551 02d4 E2000000 		.4byte	0xe2
 1552 02d8 74       		.byte	0x74
 1553 02d9 0B       		.uleb128 0xb
 1554 02da 42050000 		.4byte	.LASF50
 1555 02de 06       		.byte	0x6
 1556 02df 7504     		.2byte	0x475
 1557 02e1 F5000000 		.4byte	0xf5
 1558 02e5 78       		.byte	0x78
 1559 02e6 0B       		.uleb128 0xb
 1560 02e7 8F060000 		.4byte	.LASF51
 1561 02eb 06       		.byte	0x6
 1562 02ec 7604     		.2byte	0x476
 1563 02ee E2000000 		.4byte	0xe2
 1564 02f2 80       		.byte	0x80
 1565 02f3 0B       		.uleb128 0xb
 1566 02f4 19040000 		.4byte	.LASF52
 1567 02f8 06       		.byte	0x6
 1568 02f9 7704     		.2byte	0x477
 1569 02fb E2000000 		.4byte	0xe2
 1570 02ff 84       		.byte	0x84
 1571 0300 0B       		.uleb128 0xb
 1572 0301 F5040000 		.4byte	.LASF53
ARM GAS  C:\Users\jsyoon\AppData\Local\Temp\ccXoI9ru.s 			page 29


 1573 0305 06       		.byte	0x6
 1574 0306 7804     		.2byte	0x478
 1575 0308 E2000000 		.4byte	0xe2
 1576 030c 88       		.byte	0x88
 1577 030d 0B       		.uleb128 0xb
 1578 030e 58040000 		.4byte	.LASF54
 1579 0312 06       		.byte	0x6
 1580 0313 7904     		.2byte	0x479
 1581 0315 E2000000 		.4byte	0xe2
 1582 0319 8C       		.byte	0x8c
 1583 031a 00       		.byte	0
 1584 031b 0C       		.uleb128 0xc
 1585 031c D3030000 		.4byte	.LASF55
 1586 0320 06       		.byte	0x6
 1587 0321 7B04     		.2byte	0x47b
 1588 0323 72010000 		.4byte	0x172
 1589 0327 09       		.uleb128 0x9
 1590 0328 1C       		.byte	0x1c
 1591 0329 06       		.byte	0x6
 1592 032a 2905     		.2byte	0x529
 1593 032c E5030000 		.4byte	0x3e5
 1594 0330 0A       		.uleb128 0xa
 1595 0331 535200   		.ascii	"SR\000"
 1596 0334 06       		.byte	0x6
 1597 0335 2B05     		.2byte	0x52b
 1598 0337 05010000 		.4byte	0x105
 1599 033b 00       		.byte	0
 1600 033c 0B       		.uleb128 0xb
 1601 033d 06050000 		.4byte	.LASF31
 1602 0341 06       		.byte	0x6
 1603 0342 2C05     		.2byte	0x52c
 1604 0344 AD000000 		.4byte	0xad
 1605 0348 02       		.byte	0x2
 1606 0349 0A       		.uleb128 0xa
 1607 034a 445200   		.ascii	"DR\000"
 1608 034d 06       		.byte	0x6
 1609 034e 2D05     		.2byte	0x52d
 1610 0350 05010000 		.4byte	0x105
 1611 0354 04       		.byte	0x4
 1612 0355 0B       		.uleb128 0xb
 1613 0356 10050000 		.4byte	.LASF34
 1614 035a 06       		.byte	0x6
 1615 035b 2E05     		.2byte	0x52e
 1616 035d AD000000 		.4byte	0xad
 1617 0361 06       		.byte	0x6
 1618 0362 0A       		.uleb128 0xa
 1619 0363 42525200 		.ascii	"BRR\000"
 1620 0367 06       		.byte	0x6
 1621 0368 2F05     		.2byte	0x52f
 1622 036a 05010000 		.4byte	0x105
 1623 036e 08       		.byte	0x8
 1624 036f 0B       		.uleb128 0xb
 1625 0370 1A050000 		.4byte	.LASF38
 1626 0374 06       		.byte	0x6
 1627 0375 3005     		.2byte	0x530
 1628 0377 AD000000 		.4byte	0xad
 1629 037b 0A       		.byte	0xa
ARM GAS  C:\Users\jsyoon\AppData\Local\Temp\ccXoI9ru.s 			page 30


 1630 037c 0A       		.uleb128 0xa
 1631 037d 43523100 		.ascii	"CR1\000"
 1632 0381 06       		.byte	0x6
 1633 0382 3105     		.2byte	0x531
 1634 0384 05010000 		.4byte	0x105
 1635 0388 0C       		.byte	0xc
 1636 0389 0B       		.uleb128 0xb
 1637 038a 24050000 		.4byte	.LASF41
 1638 038e 06       		.byte	0x6
 1639 038f 3205     		.2byte	0x532
 1640 0391 AD000000 		.4byte	0xad
 1641 0395 0E       		.byte	0xe
 1642 0396 0A       		.uleb128 0xa
 1643 0397 43523200 		.ascii	"CR2\000"
 1644 039b 06       		.byte	0x6
 1645 039c 3305     		.2byte	0x533
 1646 039e 05010000 		.4byte	0x105
 1647 03a2 10       		.byte	0x10
 1648 03a3 0B       		.uleb128 0xb
 1649 03a4 2E050000 		.4byte	.LASF45
 1650 03a8 06       		.byte	0x6
 1651 03a9 3405     		.2byte	0x534
 1652 03ab AD000000 		.4byte	0xad
 1653 03af 12       		.byte	0x12
 1654 03b0 0A       		.uleb128 0xa
 1655 03b1 43523300 		.ascii	"CR3\000"
 1656 03b5 06       		.byte	0x6
 1657 03b6 3505     		.2byte	0x535
 1658 03b8 05010000 		.4byte	0x105
 1659 03bc 14       		.byte	0x14
 1660 03bd 0B       		.uleb128 0xb
 1661 03be 38050000 		.4byte	.LASF48
 1662 03c2 06       		.byte	0x6
 1663 03c3 3605     		.2byte	0x536
 1664 03c5 AD000000 		.4byte	0xad
 1665 03c9 16       		.byte	0x16
 1666 03ca 0B       		.uleb128 0xb
 1667 03cb 2F010000 		.4byte	.LASF56
 1668 03cf 06       		.byte	0x6
 1669 03d0 3705     		.2byte	0x537
 1670 03d2 05010000 		.4byte	0x105
 1671 03d6 18       		.byte	0x18
 1672 03d7 0B       		.uleb128 0xb
 1673 03d8 42050000 		.4byte	.LASF50
 1674 03dc 06       		.byte	0x6
 1675 03dd 3805     		.2byte	0x538
 1676 03df AD000000 		.4byte	0xad
 1677 03e3 1A       		.byte	0x1a
 1678 03e4 00       		.byte	0
 1679 03e5 0C       		.uleb128 0xc
 1680 03e6 40040000 		.4byte	.LASF57
 1681 03ea 06       		.byte	0x6
 1682 03eb 3905     		.2byte	0x539
 1683 03ed 27030000 		.4byte	0x327
 1684 03f1 0D       		.uleb128 0xd
 1685 03f2 0C       		.byte	0xc
 1686 03f3 07       		.byte	0x7
ARM GAS  C:\Users\jsyoon\AppData\Local\Temp\ccXoI9ru.s 			page 31


 1687 03f4 DA       		.byte	0xda
 1688 03f5 36040000 		.4byte	0x436
 1689 03f9 0E       		.uleb128 0xe
 1690 03fa 69050000 		.4byte	.LASF58
 1691 03fe 07       		.byte	0x7
 1692 03ff DB       		.byte	0xdb
 1693 0400 36040000 		.4byte	0x436
 1694 0404 00       		.byte	0
 1695 0405 0E       		.uleb128 0xe
 1696 0406 D6050000 		.4byte	.LASF59
 1697 040a 07       		.byte	0x7
 1698 040b DC       		.byte	0xdc
 1699 040c 3C040000 		.4byte	0x43c
 1700 0410 04       		.byte	0x4
 1701 0411 0E       		.uleb128 0xe
 1702 0412 E9030000 		.4byte	.LASF60
 1703 0416 07       		.byte	0x7
 1704 0417 DD       		.byte	0xdd
 1705 0418 A2000000 		.4byte	0xa2
 1706 041c 08       		.byte	0x8
 1707 041d 0E       		.uleb128 0xe
 1708 041e 44030000 		.4byte	.LASF61
 1709 0422 07       		.byte	0x7
 1710 0423 DF       		.byte	0xdf
 1711 0424 A2000000 		.4byte	0xa2
 1712 0428 09       		.byte	0x9
 1713 0429 0E       		.uleb128 0xe
 1714 042a A3000000 		.4byte	.LASF62
 1715 042e 07       		.byte	0x7
 1716 042f E0       		.byte	0xe0
 1717 0430 A2000000 		.4byte	0xa2
 1718 0434 0A       		.byte	0xa
 1719 0435 00       		.byte	0
 1720 0436 0F       		.uleb128 0xf
 1721 0437 04       		.byte	0x4
 1722 0438 66010000 		.4byte	0x166
 1723 043c 0F       		.uleb128 0xf
 1724 043d 04       		.byte	0x4
 1725 043e E2000000 		.4byte	0xe2
 1726 0442 03       		.uleb128 0x3
 1727 0443 4C050000 		.4byte	.LASF63
 1728 0447 07       		.byte	0x7
 1729 0448 E1       		.byte	0xe1
 1730 0449 F1030000 		.4byte	0x3f1
 1731 044d 03       		.uleb128 0x3
 1732 044e 95060000 		.4byte	.LASF64
 1733 0452 07       		.byte	0x7
 1734 0453 EA       		.byte	0xea
 1735 0454 58040000 		.4byte	0x458
 1736 0458 0F       		.uleb128 0xf
 1737 0459 04       		.byte	0x4
 1738 045a 5E040000 		.4byte	0x45e
 1739 045e 10       		.uleb128 0x10
 1740 045f 6E040000 		.4byte	0x46e
 1741 0463 11       		.uleb128 0x11
 1742 0464 E0000000 		.4byte	0xe0
 1743 0468 11       		.uleb128 0x11
ARM GAS  C:\Users\jsyoon\AppData\Local\Temp\ccXoI9ru.s 			page 32


 1744 0469 C3000000 		.4byte	0xc3
 1745 046d 00       		.byte	0
 1746 046e 0F       		.uleb128 0xf
 1747 046f 04       		.byte	0x4
 1748 0470 74040000 		.4byte	0x474
 1749 0474 12       		.uleb128 0x12
 1750 0475 42040000 		.4byte	0x442
 1751 0479 13       		.uleb128 0x13
 1752 047a 01       		.byte	0x1
 1753 047b 08       		.byte	0x8
 1754 047c 48       		.byte	0x48
 1755 047d 94040000 		.4byte	0x494
 1756 0481 14       		.uleb128 0x14
 1757 0482 03040000 		.4byte	.LASF65
 1758 0486 00       		.sleb128 0
 1759 0487 14       		.uleb128 0x14
 1760 0488 0F040000 		.4byte	.LASF66
 1761 048c 01       		.sleb128 1
 1762 048d 14       		.uleb128 0x14
 1763 048e 5F030000 		.4byte	.LASF67
 1764 0492 02       		.sleb128 2
 1765 0493 00       		.byte	0
 1766 0494 03       		.uleb128 0x3
 1767 0495 A0050000 		.4byte	.LASF68
 1768 0499 08       		.byte	0x8
 1769 049a 4C       		.byte	0x4c
 1770 049b 79040000 		.4byte	0x479
 1771 049f 13       		.uleb128 0x13
 1772 04a0 01       		.byte	0x1
 1773 04a1 08       		.byte	0x8
 1774 04a2 51       		.byte	0x51
 1775 04a3 BA040000 		.4byte	0x4ba
 1776 04a7 14       		.uleb128 0x14
 1777 04a8 3A060000 		.4byte	.LASF69
 1778 04ac 00       		.sleb128 0
 1779 04ad 14       		.uleb128 0x14
 1780 04ae 6A030000 		.4byte	.LASF70
 1781 04b2 01       		.sleb128 1
 1782 04b3 14       		.uleb128 0x14
 1783 04b4 B4050000 		.4byte	.LASF71
 1784 04b8 02       		.sleb128 2
 1785 04b9 00       		.byte	0
 1786 04ba 03       		.uleb128 0x3
 1787 04bb DE040000 		.4byte	.LASF72
 1788 04bf 08       		.byte	0x8
 1789 04c0 55       		.byte	0x55
 1790 04c1 9F040000 		.4byte	0x49f
 1791 04c5 13       		.uleb128 0x13
 1792 04c6 01       		.byte	0x1
 1793 04c7 08       		.byte	0x8
 1794 04c8 5A       		.byte	0x5a
 1795 04c9 E0040000 		.4byte	0x4e0
 1796 04cd 14       		.uleb128 0x14
 1797 04ce 0F060000 		.4byte	.LASF73
 1798 04d2 00       		.sleb128 0
 1799 04d3 14       		.uleb128 0x14
 1800 04d4 33000000 		.4byte	.LASF74
ARM GAS  C:\Users\jsyoon\AppData\Local\Temp\ccXoI9ru.s 			page 33


 1801 04d8 01       		.sleb128 1
 1802 04d9 14       		.uleb128 0x14
 1803 04da A0040000 		.4byte	.LASF75
 1804 04de 02       		.sleb128 2
 1805 04df 00       		.byte	0
 1806 04e0 03       		.uleb128 0x3
 1807 04e1 D9020000 		.4byte	.LASF76
 1808 04e5 08       		.byte	0x8
 1809 04e6 5E       		.byte	0x5e
 1810 04e7 C5040000 		.4byte	0x4c5
 1811 04eb 0C       		.uleb128 0xc
 1812 04ec 27000000 		.4byte	.LASF77
 1813 04f0 09       		.byte	0x9
 1814 04f1 FE01     		.2byte	0x1fe
 1815 04f3 C3000000 		.4byte	0xc3
 1816 04f7 0C       		.uleb128 0xc
 1817 04f8 2E030000 		.4byte	.LASF78
 1818 04fc 09       		.byte	0x9
 1819 04fd 0302     		.2byte	0x203
 1820 04ff 03050000 		.4byte	0x503
 1821 0503 15       		.uleb128 0x15
 1822 0504 2E030000 		.4byte	.LASF78
 1823 0508 1C       		.byte	0x1c
 1824 0509 09       		.byte	0x9
 1825 050a 4B02     		.2byte	0x24b
 1826 050c 86050000 		.4byte	0x586
 1827 0510 0B       		.uleb128 0xb
 1828 0511 6C010000 		.4byte	.LASF79
 1829 0515 09       		.byte	0x9
 1830 0516 4F02     		.2byte	0x24f
 1831 0518 94040000 		.4byte	0x494
 1832 051c 00       		.byte	0
 1833 051d 0B       		.uleb128 0xb
 1834 051e 72010000 		.4byte	.LASF80
 1835 0522 09       		.byte	0x9
 1836 0523 5302     		.2byte	0x253
 1837 0525 BA040000 		.4byte	0x4ba
 1838 0529 01       		.byte	0x1
 1839 052a 0B       		.uleb128 0xb
 1840 052b 34010000 		.4byte	.LASF81
 1841 052f 09       		.byte	0x9
 1842 0530 5702     		.2byte	0x257
 1843 0532 E0040000 		.4byte	0x4e0
 1844 0536 02       		.byte	0x2
 1845 0537 0B       		.uleb128 0xb
 1846 0538 08060000 		.4byte	.LASF82
 1847 053c 09       		.byte	0x9
 1848 053d 5B02     		.2byte	0x25b
 1849 053f 78060000 		.4byte	0x678
 1850 0543 04       		.byte	0x4
 1851 0544 0B       		.uleb128 0xb
 1852 0545 79030000 		.4byte	.LASF83
 1853 0549 09       		.byte	0x9
 1854 054a 6302     		.2byte	0x263
 1855 054c 83060000 		.4byte	0x683
 1856 0550 08       		.byte	0x8
 1857 0551 0B       		.uleb128 0xb
ARM GAS  C:\Users\jsyoon\AppData\Local\Temp\ccXoI9ru.s 			page 34


 1858 0552 CD060000 		.4byte	.LASF84
 1859 0556 09       		.byte	0x9
 1860 0557 6702     		.2byte	0x267
 1861 0559 C3000000 		.4byte	0xc3
 1862 055d 0C       		.byte	0xc
 1863 055e 0B       		.uleb128 0xb
 1864 055f 17000000 		.4byte	.LASF85
 1865 0563 09       		.byte	0x9
 1866 0564 6B02     		.2byte	0x26b
 1867 0566 6E040000 		.4byte	0x46e
 1868 056a 10       		.byte	0x10
 1869 056b 0B       		.uleb128 0xb
 1870 056c 00050000 		.4byte	.LASF86
 1871 0570 09       		.byte	0x9
 1872 0571 6F02     		.2byte	0x26f
 1873 0573 6E040000 		.4byte	0x46e
 1874 0577 14       		.byte	0x14
 1875 0578 0B       		.uleb128 0xb
 1876 0579 71000000 		.4byte	.LASF87
 1877 057d 09       		.byte	0x9
 1878 057e 7302     		.2byte	0x273
 1879 0580 05010000 		.4byte	0x105
 1880 0584 18       		.byte	0x18
 1881 0585 00       		.byte	0
 1882 0586 0C       		.uleb128 0xc
 1883 0587 1D010000 		.4byte	.LASF88
 1884 058b 09       		.byte	0x9
 1885 058c 0A02     		.2byte	0x20a
 1886 058e 92050000 		.4byte	0x592
 1887 0592 0F       		.uleb128 0xf
 1888 0593 04       		.byte	0x4
 1889 0594 98050000 		.4byte	0x598
 1890 0598 10       		.uleb128 0x10
 1891 0599 A3050000 		.4byte	0x5a3
 1892 059d 11       		.uleb128 0x11
 1893 059e A3050000 		.4byte	0x5a3
 1894 05a2 00       		.byte	0
 1895 05a3 0F       		.uleb128 0xf
 1896 05a4 04       		.byte	0x4
 1897 05a5 F7040000 		.4byte	0x4f7
 1898 05a9 0C       		.uleb128 0xc
 1899 05aa 99000000 		.4byte	.LASF89
 1900 05ae 09       		.byte	0x9
 1901 05af 1202     		.2byte	0x212
 1902 05b1 B5050000 		.4byte	0x5b5
 1903 05b5 0F       		.uleb128 0xf
 1904 05b6 04       		.byte	0x4
 1905 05b7 BB050000 		.4byte	0x5bb
 1906 05bb 10       		.uleb128 0x10
 1907 05bc CB050000 		.4byte	0x5cb
 1908 05c0 11       		.uleb128 0x11
 1909 05c1 A3050000 		.4byte	0x5a3
 1910 05c5 11       		.uleb128 0x11
 1911 05c6 AD000000 		.4byte	0xad
 1912 05ca 00       		.byte	0
 1913 05cb 0C       		.uleb128 0xc
 1914 05cc C9030000 		.4byte	.LASF90
ARM GAS  C:\Users\jsyoon\AppData\Local\Temp\ccXoI9ru.s 			page 35


 1915 05d0 09       		.byte	0x9
 1916 05d1 1A02     		.2byte	0x21a
 1917 05d3 D7050000 		.4byte	0x5d7
 1918 05d7 0F       		.uleb128 0xf
 1919 05d8 04       		.byte	0x4
 1920 05d9 DD050000 		.4byte	0x5dd
 1921 05dd 10       		.uleb128 0x10
 1922 05de ED050000 		.4byte	0x5ed
 1923 05e2 11       		.uleb128 0x11
 1924 05e3 A3050000 		.4byte	0x5a3
 1925 05e7 11       		.uleb128 0x11
 1926 05e8 EB040000 		.4byte	0x4eb
 1927 05ec 00       		.byte	0
 1928 05ed 09       		.uleb128 0x9
 1929 05ee 20       		.byte	0x20
 1930 05ef 09       		.byte	0x9
 1931 05f0 2002     		.2byte	0x220
 1932 05f2 6C060000 		.4byte	0x66c
 1933 05f6 0B       		.uleb128 0xb
 1934 05f7 DB050000 		.4byte	.LASF91
 1935 05fb 09       		.byte	0x9
 1936 05fc 2402     		.2byte	0x224
 1937 05fe 86050000 		.4byte	0x586
 1938 0602 00       		.byte	0
 1939 0603 0B       		.uleb128 0xb
 1940 0604 5F050000 		.4byte	.LASF92
 1941 0608 09       		.byte	0x9
 1942 0609 2802     		.2byte	0x228
 1943 060b 86050000 		.4byte	0x586
 1944 060f 04       		.byte	0x4
 1945 0610 0B       		.uleb128 0xb
 1946 0611 CD050000 		.4byte	.LASF93
 1947 0615 09       		.byte	0x9
 1948 0616 2C02     		.2byte	0x22c
 1949 0618 86050000 		.4byte	0x586
 1950 061c 08       		.byte	0x8
 1951 061d 0B       		.uleb128 0xb
 1952 061e 4E000000 		.4byte	.LASF94
 1953 0622 09       		.byte	0x9
 1954 0623 3002     		.2byte	0x230
 1955 0625 A9050000 		.4byte	0x5a9
 1956 0629 0C       		.byte	0xc
 1957 062a 0B       		.uleb128 0xb
 1958 062b B1040000 		.4byte	.LASF95
 1959 062f 09       		.byte	0x9
 1960 0630 3402     		.2byte	0x234
 1961 0632 CB050000 		.4byte	0x5cb
 1962 0636 10       		.byte	0x10
 1963 0637 0B       		.uleb128 0xb
 1964 0638 D5060000 		.4byte	.LASF96
 1965 063c 09       		.byte	0x9
 1966 063d 3902     		.2byte	0x239
 1967 063f C3000000 		.4byte	0xc3
 1968 0643 14       		.byte	0x14
 1969 0644 0A       		.uleb128 0xa
 1970 0645 63723100 		.ascii	"cr1\000"
 1971 0649 09       		.byte	0x9
ARM GAS  C:\Users\jsyoon\AppData\Local\Temp\ccXoI9ru.s 			page 36


 1972 064a 3D02     		.2byte	0x23d
 1973 064c AD000000 		.4byte	0xad
 1974 0650 18       		.byte	0x18
 1975 0651 0A       		.uleb128 0xa
 1976 0652 63723200 		.ascii	"cr2\000"
 1977 0656 09       		.byte	0x9
 1978 0657 4102     		.2byte	0x241
 1979 0659 AD000000 		.4byte	0xad
 1980 065d 1A       		.byte	0x1a
 1981 065e 0A       		.uleb128 0xa
 1982 065f 63723300 		.ascii	"cr3\000"
 1983 0663 09       		.byte	0x9
 1984 0664 4502     		.2byte	0x245
 1985 0666 AD000000 		.4byte	0xad
 1986 066a 1C       		.byte	0x1c
 1987 066b 00       		.byte	0
 1988 066c 0C       		.uleb128 0xc
 1989 066d BD000000 		.4byte	.LASF97
 1990 0671 09       		.byte	0x9
 1991 0672 4602     		.2byte	0x246
 1992 0674 ED050000 		.4byte	0x5ed
 1993 0678 0F       		.uleb128 0xf
 1994 0679 04       		.byte	0x4
 1995 067a 7E060000 		.4byte	0x67e
 1996 067e 12       		.uleb128 0x12
 1997 067f 6C060000 		.4byte	0x66c
 1998 0683 0F       		.uleb128 0xf
 1999 0684 04       		.byte	0x4
 2000 0685 E5030000 		.4byte	0x3e5
 2001 0689 16       		.uleb128 0x16
 2002 068a 4E030000 		.4byte	.LASF98
 2003 068e 01       		.byte	0x1
 2004 068f A0       		.byte	0xa0
 2005 0690 01       		.byte	0x1
 2006 0691 AC060000 		.4byte	0x6ac
 2007 0695 17       		.uleb128 0x17
 2008 0696 79040000 		.4byte	.LASF100
 2009 069a 01       		.byte	0x1
 2010 069b A0       		.byte	0xa0
 2011 069c A3050000 		.4byte	0x5a3
 2012 06a0 18       		.uleb128 0x18
 2013 06a1 03060000 		.4byte	.LASF102
 2014 06a5 01       		.byte	0x1
 2015 06a6 A1       		.byte	0xa1
 2016 06a7 C3000000 		.4byte	0xc3
 2017 06ab 00       		.byte	0
 2018 06ac 16       		.uleb128 0x16
 2019 06ad 67060000 		.4byte	.LASF99
 2020 06b1 01       		.byte	0x1
 2021 06b2 F3       		.byte	0xf3
 2022 06b3 01       		.byte	0x1
 2023 06b4 CF060000 		.4byte	0x6cf
 2024 06b8 17       		.uleb128 0x17
 2025 06b9 79040000 		.4byte	.LASF100
 2026 06bd 01       		.byte	0x1
 2027 06be F3       		.byte	0xf3
 2028 06bf A3050000 		.4byte	0x5a3
ARM GAS  C:\Users\jsyoon\AppData\Local\Temp\ccXoI9ru.s 			page 37


 2029 06c3 17       		.uleb128 0x17
 2030 06c4 C7060000 		.4byte	.LASF101
 2031 06c8 01       		.byte	0x1
 2032 06c9 F3       		.byte	0xf3
 2033 06ca C3000000 		.4byte	0xc3
 2034 06ce 00       		.byte	0
 2035 06cf 19       		.uleb128 0x19
 2036 06d0 77000000 		.4byte	.LASF103
 2037 06d4 01       		.byte	0x1
 2038 06d5 B5       		.byte	0xb5
 2039 06d6 00000000 		.4byte	.LFB120
 2040 06da 48000000 		.4byte	.LFE120-.LFB120
 2041 06de 01       		.uleb128 0x1
 2042 06df 9C       		.byte	0x9c
 2043 06e0 F4060000 		.4byte	0x6f4
 2044 06e4 1A       		.uleb128 0x1a
 2045 06e5 79040000 		.4byte	.LASF100
 2046 06e9 01       		.byte	0x1
 2047 06ea B5       		.byte	0xb5
 2048 06eb A3050000 		.4byte	0x5a3
 2049 06ef 00000000 		.4byte	.LLST0
 2050 06f3 00       		.byte	0
 2051 06f4 1B       		.uleb128 0x1b
 2052 06f5 8F040000 		.4byte	.LASF129
 2053 06f9 01       		.byte	0x1
 2054 06fa 8B       		.byte	0x8b
 2055 06fb EB040000 		.4byte	0x4eb
 2056 06ff 01       		.byte	0x1
 2057 0700 1A070000 		.4byte	0x71a
 2058 0704 1C       		.uleb128 0x1c
 2059 0705 737200   		.ascii	"sr\000"
 2060 0708 01       		.byte	0x1
 2061 0709 8B       		.byte	0x8b
 2062 070a AD000000 		.4byte	0xad
 2063 070e 1D       		.uleb128 0x1d
 2064 070f 73747300 		.ascii	"sts\000"
 2065 0713 01       		.byte	0x1
 2066 0714 8C       		.byte	0x8c
 2067 0715 EB040000 		.4byte	0x4eb
 2068 0719 00       		.byte	0
 2069 071a 1E       		.uleb128 0x1e
 2070 071b 69040000 		.4byte	.LASF104
 2071 071f 01       		.byte	0x1
 2072 0720 3801     		.2byte	0x138
 2073 0722 00000000 		.4byte	.LFB124
 2074 0726 64000000 		.4byte	.LFE124-.LFB124
 2075 072a 01       		.uleb128 0x1
 2076 072b 9C       		.byte	0x9c
 2077 072c 42090000 		.4byte	0x942
 2078 0730 1F       		.uleb128 0x1f
 2079 0731 79040000 		.4byte	.LASF100
 2080 0735 01       		.byte	0x1
 2081 0736 3801     		.2byte	0x138
 2082 0738 A3050000 		.4byte	0x5a3
 2083 073c 21000000 		.4byte	.LLST1
 2084 0740 20       		.uleb128 0x20
 2085 0741 737200   		.ascii	"sr\000"
ARM GAS  C:\Users\jsyoon\AppData\Local\Temp\ccXoI9ru.s 			page 38


 2086 0744 01       		.byte	0x1
 2087 0745 3901     		.2byte	0x139
 2088 0747 AD000000 		.4byte	0xad
 2089 074b 01       		.uleb128 0x1
 2090 074c 54       		.byte	0x54
 2091 074d 20       		.uleb128 0x20
 2092 074e 7500     		.ascii	"u\000"
 2093 0750 01       		.byte	0x1
 2094 0751 3A01     		.2byte	0x13a
 2095 0753 83060000 		.4byte	0x683
 2096 0757 01       		.uleb128 0x1
 2097 0758 55       		.byte	0x55
 2098 0759 21       		.uleb128 0x21
 2099 075a F4060000 		.4byte	0x6f4
 2100 075e 20000000 		.4byte	.LBB12
 2101 0762 2A000000 		.4byte	.LBE12-.LBB12
 2102 0766 01       		.byte	0x1
 2103 0767 4201     		.2byte	0x142
 2104 0769 8A070000 		.4byte	0x78a
 2105 076d 22       		.uleb128 0x22
 2106 076e 04070000 		.4byte	0x704
 2107 0772 3F000000 		.4byte	.LLST2
 2108 0776 23       		.uleb128 0x23
 2109 0777 20000000 		.4byte	.LBB13
 2110 077b 2A000000 		.4byte	.LBE13-.LBB13
 2111 077f 24       		.uleb128 0x24
 2112 0780 0E070000 		.4byte	0x70e
 2113 0784 52000000 		.4byte	.LLST3
 2114 0788 00       		.byte	0
 2115 0789 00       		.byte	0
 2116 078a 25       		.uleb128 0x25
 2117 078b 4E000000 		.4byte	.LVL12
 2118 078f 35090000 		.4byte	0x935
 2119 0793 26       		.uleb128 0x26
 2120 0794 01       		.uleb128 0x1
 2121 0795 51       		.byte	0x51
 2122 0796 9603     		.uleb128 0x196
 2123 0798 40       		.byte	0x40
 2124 0799 30       		.byte	0x30
 2125 079a 74       		.byte	0x74
 2126 079b 00       		.sleb128 0
 2127 079c 33       		.byte	0x33
 2128 079d 25       		.byte	0x25
 2129 079e 30       		.byte	0x30
 2130 079f 2E       		.byte	0x2e
 2131 07a0 28       		.byte	0x28
 2132 07a1 0100     		.2byte	0x1
 2133 07a3 16       		.byte	0x16
 2134 07a4 13       		.byte	0x13
 2135 07a5 34       		.byte	0x34
 2136 07a6 21       		.byte	0x21
 2137 07a7 40       		.byte	0x40
 2138 07a8 30       		.byte	0x30
 2139 07a9 74       		.byte	0x74
 2140 07aa 00       		.sleb128 0
 2141 07ab 33       		.byte	0x33
 2142 07ac 25       		.byte	0x25
ARM GAS  C:\Users\jsyoon\AppData\Local\Temp\ccXoI9ru.s 			page 39


 2143 07ad 30       		.byte	0x30
 2144 07ae 2E       		.byte	0x2e
 2145 07af 28       		.byte	0x28
 2146 07b0 0100     		.2byte	0x1
 2147 07b2 16       		.byte	0x16
 2148 07b3 13       		.byte	0x13
 2149 07b4 74       		.byte	0x74
 2150 07b5 00       		.sleb128 0
 2151 07b6 4F       		.byte	0x4f
 2152 07b7 24       		.byte	0x24
 2153 07b8 30       		.byte	0x30
 2154 07b9 2D       		.byte	0x2d
 2155 07ba 28       		.byte	0x28
 2156 07bb 0100     		.2byte	0x1
 2157 07bd 16       		.byte	0x16
 2158 07be 13       		.byte	0x13
 2159 07bf 38       		.byte	0x38
 2160 07c0 21       		.byte	0x21
 2161 07c1 40       		.byte	0x40
 2162 07c2 30       		.byte	0x30
 2163 07c3 74       		.byte	0x74
 2164 07c4 00       		.sleb128 0
 2165 07c5 33       		.byte	0x33
 2166 07c6 25       		.byte	0x25
 2167 07c7 30       		.byte	0x30
 2168 07c8 2E       		.byte	0x2e
 2169 07c9 28       		.byte	0x28
 2170 07ca 0100     		.2byte	0x1
 2171 07cc 16       		.byte	0x16
 2172 07cd 13       		.byte	0x13
 2173 07ce 34       		.byte	0x34
 2174 07cf 21       		.byte	0x21
 2175 07d0 40       		.byte	0x40
 2176 07d1 30       		.byte	0x30
 2177 07d2 74       		.byte	0x74
 2178 07d3 00       		.sleb128 0
 2179 07d4 33       		.byte	0x33
 2180 07d5 25       		.byte	0x25
 2181 07d6 30       		.byte	0x30
 2182 07d7 2E       		.byte	0x2e
 2183 07d8 28       		.byte	0x28
 2184 07d9 0100     		.2byte	0x1
 2185 07db 16       		.byte	0x16
 2186 07dc 13       		.byte	0x13
 2187 07dd 74       		.byte	0x74
 2188 07de 00       		.sleb128 0
 2189 07df 4F       		.byte	0x4f
 2190 07e0 24       		.byte	0x24
 2191 07e1 30       		.byte	0x30
 2192 07e2 2D       		.byte	0x2d
 2193 07e3 28       		.byte	0x28
 2194 07e4 0100     		.2byte	0x1
 2195 07e6 16       		.byte	0x16
 2196 07e7 13       		.byte	0x13
 2197 07e8 74       		.byte	0x74
 2198 07e9 00       		.sleb128 0
 2199 07ea 4E       		.byte	0x4e
ARM GAS  C:\Users\jsyoon\AppData\Local\Temp\ccXoI9ru.s 			page 40


 2200 07eb 24       		.byte	0x24
 2201 07ec 30       		.byte	0x30
 2202 07ed 2D       		.byte	0x2d
 2203 07ee 28       		.byte	0x28
 2204 07ef 0100     		.2byte	0x1
 2205 07f1 16       		.byte	0x16
 2206 07f2 13       		.byte	0x13
 2207 07f3 08       		.byte	0x8
 2208 07f4 20       		.byte	0x20
 2209 07f5 21       		.byte	0x21
 2210 07f6 40       		.byte	0x40
 2211 07f7 30       		.byte	0x30
 2212 07f8 74       		.byte	0x74
 2213 07f9 00       		.sleb128 0
 2214 07fa 33       		.byte	0x33
 2215 07fb 25       		.byte	0x25
 2216 07fc 30       		.byte	0x30
 2217 07fd 2E       		.byte	0x2e
 2218 07fe 28       		.byte	0x28
 2219 07ff 0100     		.2byte	0x1
 2220 0801 16       		.byte	0x16
 2221 0802 13       		.byte	0x13
 2222 0803 34       		.byte	0x34
 2223 0804 21       		.byte	0x21
 2224 0805 40       		.byte	0x40
 2225 0806 30       		.byte	0x30
 2226 0807 74       		.byte	0x74
 2227 0808 00       		.sleb128 0
 2228 0809 33       		.byte	0x33
 2229 080a 25       		.byte	0x25
 2230 080b 30       		.byte	0x30
 2231 080c 2E       		.byte	0x2e
 2232 080d 28       		.byte	0x28
 2233 080e 0100     		.2byte	0x1
 2234 0810 16       		.byte	0x16
 2235 0811 13       		.byte	0x13
 2236 0812 74       		.byte	0x74
 2237 0813 00       		.sleb128 0
 2238 0814 4F       		.byte	0x4f
 2239 0815 24       		.byte	0x24
 2240 0816 30       		.byte	0x30
 2241 0817 2D       		.byte	0x2d
 2242 0818 28       		.byte	0x28
 2243 0819 0100     		.2byte	0x1
 2244 081b 16       		.byte	0x16
 2245 081c 13       		.byte	0x13
 2246 081d 38       		.byte	0x38
 2247 081e 21       		.byte	0x21
 2248 081f 40       		.byte	0x40
 2249 0820 30       		.byte	0x30
 2250 0821 74       		.byte	0x74
 2251 0822 00       		.sleb128 0
 2252 0823 33       		.byte	0x33
 2253 0824 25       		.byte	0x25
 2254 0825 30       		.byte	0x30
 2255 0826 2E       		.byte	0x2e
 2256 0827 28       		.byte	0x28
ARM GAS  C:\Users\jsyoon\AppData\Local\Temp\ccXoI9ru.s 			page 41


 2257 0828 0100     		.2byte	0x1
 2258 082a 16       		.byte	0x16
 2259 082b 13       		.byte	0x13
 2260 082c 34       		.byte	0x34
 2261 082d 21       		.byte	0x21
 2262 082e 40       		.byte	0x40
 2263 082f 30       		.byte	0x30
 2264 0830 74       		.byte	0x74
 2265 0831 00       		.sleb128 0
 2266 0832 33       		.byte	0x33
 2267 0833 25       		.byte	0x25
 2268 0834 30       		.byte	0x30
 2269 0835 2E       		.byte	0x2e
 2270 0836 28       		.byte	0x28
 2271 0837 0100     		.2byte	0x1
 2272 0839 16       		.byte	0x16
 2273 083a 13       		.byte	0x13
 2274 083b 74       		.byte	0x74
 2275 083c 00       		.sleb128 0
 2276 083d 4F       		.byte	0x4f
 2277 083e 24       		.byte	0x24
 2278 083f 30       		.byte	0x30
 2279 0840 2D       		.byte	0x2d
 2280 0841 28       		.byte	0x28
 2281 0842 0100     		.2byte	0x1
 2282 0844 16       		.byte	0x16
 2283 0845 13       		.byte	0x13
 2284 0846 74       		.byte	0x74
 2285 0847 00       		.sleb128 0
 2286 0848 4E       		.byte	0x4e
 2287 0849 24       		.byte	0x24
 2288 084a 30       		.byte	0x30
 2289 084b 2D       		.byte	0x2d
 2290 084c 28       		.byte	0x28
 2291 084d 0100     		.2byte	0x1
 2292 084f 16       		.byte	0x16
 2293 0850 13       		.byte	0x13
 2294 0851 74       		.byte	0x74
 2295 0852 00       		.sleb128 0
 2296 0853 4D       		.byte	0x4d
 2297 0854 24       		.byte	0x24
 2298 0855 30       		.byte	0x30
 2299 0856 2D       		.byte	0x2d
 2300 0857 28       		.byte	0x28
 2301 0858 0100     		.2byte	0x1
 2302 085a 16       		.byte	0x16
 2303 085b 13       		.byte	0x13
 2304 085c 08       		.byte	0x8
 2305 085d 40       		.byte	0x40
 2306 085e 21       		.byte	0x21
 2307 085f 40       		.byte	0x40
 2308 0860 30       		.byte	0x30
 2309 0861 74       		.byte	0x74
 2310 0862 00       		.sleb128 0
 2311 0863 33       		.byte	0x33
 2312 0864 25       		.byte	0x25
 2313 0865 30       		.byte	0x30
ARM GAS  C:\Users\jsyoon\AppData\Local\Temp\ccXoI9ru.s 			page 42


 2314 0866 2E       		.byte	0x2e
 2315 0867 28       		.byte	0x28
 2316 0868 0100     		.2byte	0x1
 2317 086a 16       		.byte	0x16
 2318 086b 13       		.byte	0x13
 2319 086c 34       		.byte	0x34
 2320 086d 21       		.byte	0x21
 2321 086e 40       		.byte	0x40
 2322 086f 30       		.byte	0x30
 2323 0870 74       		.byte	0x74
 2324 0871 00       		.sleb128 0
 2325 0872 33       		.byte	0x33
 2326 0873 25       		.byte	0x25
 2327 0874 30       		.byte	0x30
 2328 0875 2E       		.byte	0x2e
 2329 0876 28       		.byte	0x28
 2330 0877 0100     		.2byte	0x1
 2331 0879 16       		.byte	0x16
 2332 087a 13       		.byte	0x13
 2333 087b 74       		.byte	0x74
 2334 087c 00       		.sleb128 0
 2335 087d 4F       		.byte	0x4f
 2336 087e 24       		.byte	0x24
 2337 087f 30       		.byte	0x30
 2338 0880 2D       		.byte	0x2d
 2339 0881 28       		.byte	0x28
 2340 0882 0100     		.2byte	0x1
 2341 0884 16       		.byte	0x16
 2342 0885 13       		.byte	0x13
 2343 0886 38       		.byte	0x38
 2344 0887 21       		.byte	0x21
 2345 0888 40       		.byte	0x40
 2346 0889 30       		.byte	0x30
 2347 088a 74       		.byte	0x74
 2348 088b 00       		.sleb128 0
 2349 088c 33       		.byte	0x33
 2350 088d 25       		.byte	0x25
 2351 088e 30       		.byte	0x30
 2352 088f 2E       		.byte	0x2e
 2353 0890 28       		.byte	0x28
 2354 0891 0100     		.2byte	0x1
 2355 0893 16       		.byte	0x16
 2356 0894 13       		.byte	0x13
 2357 0895 34       		.byte	0x34
 2358 0896 21       		.byte	0x21
 2359 0897 40       		.byte	0x40
 2360 0898 30       		.byte	0x30
 2361 0899 74       		.byte	0x74
 2362 089a 00       		.sleb128 0
 2363 089b 33       		.byte	0x33
 2364 089c 25       		.byte	0x25
 2365 089d 30       		.byte	0x30
 2366 089e 2E       		.byte	0x2e
 2367 089f 28       		.byte	0x28
 2368 08a0 0100     		.2byte	0x1
 2369 08a2 16       		.byte	0x16
 2370 08a3 13       		.byte	0x13
ARM GAS  C:\Users\jsyoon\AppData\Local\Temp\ccXoI9ru.s 			page 43


 2371 08a4 74       		.byte	0x74
 2372 08a5 00       		.sleb128 0
 2373 08a6 4F       		.byte	0x4f
 2374 08a7 24       		.byte	0x24
 2375 08a8 30       		.byte	0x30
 2376 08a9 2D       		.byte	0x2d
 2377 08aa 28       		.byte	0x28
 2378 08ab 0100     		.2byte	0x1
 2379 08ad 16       		.byte	0x16
 2380 08ae 13       		.byte	0x13
 2381 08af 74       		.byte	0x74
 2382 08b0 00       		.sleb128 0
 2383 08b1 4E       		.byte	0x4e
 2384 08b2 24       		.byte	0x24
 2385 08b3 30       		.byte	0x30
 2386 08b4 2D       		.byte	0x2d
 2387 08b5 28       		.byte	0x28
 2388 08b6 0100     		.2byte	0x1
 2389 08b8 16       		.byte	0x16
 2390 08b9 13       		.byte	0x13
 2391 08ba 08       		.byte	0x8
 2392 08bb 20       		.byte	0x20
 2393 08bc 21       		.byte	0x21
 2394 08bd 40       		.byte	0x40
 2395 08be 30       		.byte	0x30
 2396 08bf 74       		.byte	0x74
 2397 08c0 00       		.sleb128 0
 2398 08c1 33       		.byte	0x33
 2399 08c2 25       		.byte	0x25
 2400 08c3 30       		.byte	0x30
 2401 08c4 2E       		.byte	0x2e
 2402 08c5 28       		.byte	0x28
 2403 08c6 0100     		.2byte	0x1
 2404 08c8 16       		.byte	0x16
 2405 08c9 13       		.byte	0x13
 2406 08ca 34       		.byte	0x34
 2407 08cb 21       		.byte	0x21
 2408 08cc 40       		.byte	0x40
 2409 08cd 30       		.byte	0x30
 2410 08ce 74       		.byte	0x74
 2411 08cf 00       		.sleb128 0
 2412 08d0 33       		.byte	0x33
 2413 08d1 25       		.byte	0x25
 2414 08d2 30       		.byte	0x30
 2415 08d3 2E       		.byte	0x2e
 2416 08d4 28       		.byte	0x28
 2417 08d5 0100     		.2byte	0x1
 2418 08d7 16       		.byte	0x16
 2419 08d8 13       		.byte	0x13
 2420 08d9 74       		.byte	0x74
 2421 08da 00       		.sleb128 0
 2422 08db 4F       		.byte	0x4f
 2423 08dc 24       		.byte	0x24
 2424 08dd 30       		.byte	0x30
 2425 08de 2D       		.byte	0x2d
 2426 08df 28       		.byte	0x28
 2427 08e0 0100     		.2byte	0x1
ARM GAS  C:\Users\jsyoon\AppData\Local\Temp\ccXoI9ru.s 			page 44


 2428 08e2 16       		.byte	0x16
 2429 08e3 13       		.byte	0x13
 2430 08e4 38       		.byte	0x38
 2431 08e5 21       		.byte	0x21
 2432 08e6 40       		.byte	0x40
 2433 08e7 30       		.byte	0x30
 2434 08e8 74       		.byte	0x74
 2435 08e9 00       		.sleb128 0
 2436 08ea 33       		.byte	0x33
 2437 08eb 25       		.byte	0x25
 2438 08ec 30       		.byte	0x30
 2439 08ed 2E       		.byte	0x2e
 2440 08ee 28       		.byte	0x28
 2441 08ef 0100     		.2byte	0x1
 2442 08f1 16       		.byte	0x16
 2443 08f2 13       		.byte	0x13
 2444 08f3 34       		.byte	0x34
 2445 08f4 21       		.byte	0x21
 2446 08f5 40       		.byte	0x40
 2447 08f6 30       		.byte	0x30
 2448 08f7 74       		.byte	0x74
 2449 08f8 00       		.sleb128 0
 2450 08f9 33       		.byte	0x33
 2451 08fa 25       		.byte	0x25
 2452 08fb 30       		.byte	0x30
 2453 08fc 2E       		.byte	0x2e
 2454 08fd 28       		.byte	0x28
 2455 08fe 0100     		.2byte	0x1
 2456 0900 16       		.byte	0x16
 2457 0901 13       		.byte	0x13
 2458 0902 74       		.byte	0x74
 2459 0903 00       		.sleb128 0
 2460 0904 4F       		.byte	0x4f
 2461 0905 24       		.byte	0x24
 2462 0906 30       		.byte	0x30
 2463 0907 2D       		.byte	0x2d
 2464 0908 28       		.byte	0x28
 2465 0909 0100     		.2byte	0x1
 2466 090b 16       		.byte	0x16
 2467 090c 13       		.byte	0x13
 2468 090d 74       		.byte	0x74
 2469 090e 00       		.sleb128 0
 2470 090f 4E       		.byte	0x4e
 2471 0910 24       		.byte	0x24
 2472 0911 30       		.byte	0x30
 2473 0912 2D       		.byte	0x2d
 2474 0913 28       		.byte	0x28
 2475 0914 0100     		.2byte	0x1
 2476 0916 16       		.byte	0x16
 2477 0917 13       		.byte	0x13
 2478 0918 74       		.byte	0x74
 2479 0919 00       		.sleb128 0
 2480 091a 4D       		.byte	0x4d
 2481 091b 24       		.byte	0x24
 2482 091c 30       		.byte	0x30
 2483 091d 2D       		.byte	0x2d
 2484 091e 28       		.byte	0x28
ARM GAS  C:\Users\jsyoon\AppData\Local\Temp\ccXoI9ru.s 			page 45


 2485 091f 0100     		.2byte	0x1
 2486 0921 16       		.byte	0x16
 2487 0922 13       		.byte	0x13
 2488 0923 74       		.byte	0x74
 2489 0924 00       		.sleb128 0
 2490 0925 47       		.byte	0x47
 2491 0926 24       		.byte	0x24
 2492 0927 30       		.byte	0x30
 2493 0928 2D       		.byte	0x2d
 2494 0929 28       		.byte	0x28
 2495 092a 0100     		.2byte	0x1
 2496 092c 16       		.byte	0x16
 2497 092d 13       		.byte	0x13
 2498 092e 26       		.uleb128 0x26
 2499 092f 01       		.uleb128 0x1
 2500 0930 50       		.byte	0x50
 2501 0931 02       		.uleb128 0x2
 2502 0932 76       		.byte	0x76
 2503 0933 00       		.sleb128 0
 2504 0934 00       		.byte	0
 2505 0935 27       		.uleb128 0x27
 2506 0936 62000000 		.4byte	.LVL13
 2507 093a 26       		.uleb128 0x26
 2508 093b 01       		.uleb128 0x1
 2509 093c 50       		.byte	0x50
 2510 093d 02       		.uleb128 0x2
 2511 093e 76       		.byte	0x76
 2512 093f 00       		.sleb128 0
 2513 0940 00       		.byte	0
 2514 0941 00       		.byte	0
 2515 0942 1E       		.uleb128 0x1e
 2516 0943 BA040000 		.4byte	.LASF105
 2517 0947 01       		.byte	0x1
 2518 0948 1B01     		.2byte	0x11b
 2519 094a 00000000 		.4byte	.LFB123
 2520 094e 48000000 		.4byte	.LFE123-.LFB123
 2521 0952 01       		.uleb128 0x1
 2522 0953 9C       		.byte	0x9c
 2523 0954 92090000 		.4byte	0x992
 2524 0958 1F       		.uleb128 0x1f
 2525 0959 79040000 		.4byte	.LASF100
 2526 095d 01       		.byte	0x1
 2527 095e 1B01     		.2byte	0x11b
 2528 0960 A3050000 		.4byte	0x5a3
 2529 0964 12020000 		.4byte	.LLST4
 2530 0968 1F       		.uleb128 0x1f
 2531 0969 C7060000 		.4byte	.LASF101
 2532 096d 01       		.byte	0x1
 2533 096e 1B01     		.2byte	0x11b
 2534 0970 C3000000 		.4byte	0xc3
 2535 0974 46020000 		.4byte	.LLST5
 2536 0978 25       		.uleb128 0x25
 2537 0979 34000000 		.4byte	.LVL16
 2538 097d 88090000 		.4byte	0x988
 2539 0981 26       		.uleb128 0x26
 2540 0982 01       		.uleb128 0x1
 2541 0983 50       		.byte	0x50
ARM GAS  C:\Users\jsyoon\AppData\Local\Temp\ccXoI9ru.s 			page 46


 2542 0984 02       		.uleb128 0x2
 2543 0985 74       		.byte	0x74
 2544 0986 00       		.sleb128 0
 2545 0987 00       		.byte	0
 2546 0988 28       		.uleb128 0x28
 2547 0989 46000000 		.4byte	.LVL19
 2548 098d 390E0000 		.4byte	0xe39
 2549 0991 00       		.byte	0
 2550 0992 29       		.uleb128 0x29
 2551 0993 AC060000 		.4byte	0x6ac
 2552 0997 00000000 		.4byte	.LFB122
 2553 099b 88000000 		.4byte	.LFE122-.LFB122
 2554 099f 01       		.uleb128 0x1
 2555 09a0 9C       		.byte	0x9c
 2556 09a1 260A0000 		.4byte	0xa26
 2557 09a5 22       		.uleb128 0x22
 2558 09a6 B8060000 		.4byte	0x6b8
 2559 09aa 80020000 		.4byte	.LLST6
 2560 09ae 22       		.uleb128 0x22
 2561 09af C3060000 		.4byte	0x6c3
 2562 09b3 B4020000 		.4byte	.LLST7
 2563 09b7 2A       		.uleb128 0x2a
 2564 09b8 20000000 		.4byte	.LBB18
 2565 09bc 62000000 		.4byte	.LBE18-.LBB18
 2566 09c0 0C0A0000 		.4byte	0xa0c
 2567 09c4 22       		.uleb128 0x22
 2568 09c5 C3060000 		.4byte	0x6c3
 2569 09c9 EE020000 		.4byte	.LLST8
 2570 09cd 22       		.uleb128 0x22
 2571 09ce B8060000 		.4byte	0x6b8
 2572 09d2 04030000 		.4byte	.LLST9
 2573 09d6 2B       		.uleb128 0x2b
 2574 09d7 89060000 		.4byte	0x689
 2575 09db 58000000 		.4byte	.LBB20
 2576 09df 00000000 		.4byte	.Ldebug_ranges0+0
 2577 09e3 01       		.byte	0x1
 2578 09e4 1001     		.2byte	0x110
 2579 09e6 FF090000 		.4byte	0x9ff
 2580 09ea 22       		.uleb128 0x22
 2581 09eb 95060000 		.4byte	0x695
 2582 09ef 17030000 		.4byte	.LLST10
 2583 09f3 2C       		.uleb128 0x2c
 2584 09f4 00000000 		.4byte	.Ldebug_ranges0+0
 2585 09f8 2D       		.uleb128 0x2d
 2586 09f9 A0060000 		.4byte	0x6a0
 2587 09fd 00       		.byte	0
 2588 09fe 00       		.byte	0
 2589 09ff 27       		.uleb128 0x27
 2590 0a00 4C000000 		.4byte	.LVL24
 2591 0a04 26       		.uleb128 0x26
 2592 0a05 01       		.uleb128 0x1
 2593 0a06 50       		.byte	0x50
 2594 0a07 02       		.uleb128 0x2
 2595 0a08 74       		.byte	0x74
 2596 0a09 00       		.sleb128 0
 2597 0a0a 00       		.byte	0
 2598 0a0b 00       		.byte	0
ARM GAS  C:\Users\jsyoon\AppData\Local\Temp\ccXoI9ru.s 			page 47


 2599 0a0c 25       		.uleb128 0x25
 2600 0a0d 1E000000 		.4byte	.LVL22
 2601 0a11 1C0A0000 		.4byte	0xa1c
 2602 0a15 26       		.uleb128 0x26
 2603 0a16 01       		.uleb128 0x1
 2604 0a17 50       		.byte	0x50
 2605 0a18 02       		.uleb128 0x2
 2606 0a19 74       		.byte	0x74
 2607 0a1a 00       		.sleb128 0
 2608 0a1b 00       		.byte	0
 2609 0a1c 28       		.uleb128 0x28
 2610 0a1d 86000000 		.4byte	.LVL28
 2611 0a21 390E0000 		.4byte	0xe39
 2612 0a25 00       		.byte	0
 2613 0a26 2E       		.uleb128 0x2e
 2614 0a27 60040000 		.4byte	.LASF106
 2615 0a2b 01       		.byte	0x1
 2616 0a2c 8001     		.2byte	0x180
 2617 0a2e 00000000 		.4byte	.LFB125
 2618 0a32 14000000 		.4byte	.LFE125-.LFB125
 2619 0a36 01       		.uleb128 0x1
 2620 0a37 9C       		.byte	0x9c
 2621 0a38 5D0A0000 		.4byte	0xa5d
 2622 0a3c 2F       		.uleb128 0x2f
 2623 0a3d 08000000 		.4byte	.LVL29
 2624 0a41 1A070000 		.4byte	0x71a
 2625 0a45 530A0000 		.4byte	0xa53
 2626 0a49 26       		.uleb128 0x26
 2627 0a4a 01       		.uleb128 0x1
 2628 0a4b 50       		.byte	0x50
 2629 0a4c 05       		.uleb128 0x5
 2630 0a4d 03       		.byte	0x3
 2631 0a4e 00000000 		.4byte	.LANCHOR0
 2632 0a52 00       		.byte	0
 2633 0a53 30       		.uleb128 0x30
 2634 0a54 10000000 		.4byte	.LVL30
 2635 0a58 410E0000 		.4byte	0xe41
 2636 0a5c 00       		.byte	0
 2637 0a5d 2E       		.uleb128 0x2e
 2638 0a5e DF030000 		.4byte	.LASF107
 2639 0a62 01       		.byte	0x1
 2640 0a63 B901     		.2byte	0x1b9
 2641 0a65 00000000 		.4byte	.LFB126
 2642 0a69 14000000 		.4byte	.LFE126-.LFB126
 2643 0a6d 01       		.uleb128 0x1
 2644 0a6e 9C       		.byte	0x9c
 2645 0a6f 940A0000 		.4byte	0xa94
 2646 0a73 2F       		.uleb128 0x2f
 2647 0a74 08000000 		.4byte	.LVL31
 2648 0a78 1A070000 		.4byte	0x71a
 2649 0a7c 8A0A0000 		.4byte	0xa8a
 2650 0a80 26       		.uleb128 0x26
 2651 0a81 01       		.uleb128 0x1
 2652 0a82 50       		.byte	0x50
 2653 0a83 05       		.uleb128 0x5
 2654 0a84 03       		.byte	0x3
 2655 0a85 00000000 		.4byte	.LANCHOR1
ARM GAS  C:\Users\jsyoon\AppData\Local\Temp\ccXoI9ru.s 			page 48


 2656 0a89 00       		.byte	0
 2657 0a8a 30       		.uleb128 0x30
 2658 0a8b 10000000 		.4byte	.LVL32
 2659 0a8f 410E0000 		.4byte	0xe41
 2660 0a93 00       		.byte	0
 2661 0a94 2E       		.uleb128 0x2e
 2662 0a95 B9020000 		.4byte	.LASF108
 2663 0a99 01       		.byte	0x1
 2664 0a9a CC01     		.2byte	0x1cc
 2665 0a9c 00000000 		.4byte	.LFB127
 2666 0aa0 48000000 		.4byte	.LFE127-.LFB127
 2667 0aa4 01       		.uleb128 0x1
 2668 0aa5 9C       		.byte	0x9c
 2669 0aa6 CF0A0000 		.4byte	0xacf
 2670 0aaa 2F       		.uleb128 0x2f
 2671 0aab 0E000000 		.4byte	.LVL33
 2672 0aaf 490E0000 		.4byte	0xe49
 2673 0ab3 BE0A0000 		.4byte	0xabe
 2674 0ab7 26       		.uleb128 0x26
 2675 0ab8 01       		.uleb128 0x1
 2676 0ab9 50       		.byte	0x50
 2677 0aba 02       		.uleb128 0x2
 2678 0abb 74       		.byte	0x74
 2679 0abc 00       		.sleb128 0
 2680 0abd 00       		.byte	0
 2681 0abe 31       		.uleb128 0x31
 2682 0abf 24000000 		.4byte	.LVL34
 2683 0ac3 490E0000 		.4byte	0xe49
 2684 0ac7 26       		.uleb128 0x26
 2685 0ac8 01       		.uleb128 0x1
 2686 0ac9 50       		.byte	0x50
 2687 0aca 02       		.uleb128 0x2
 2688 0acb 75       		.byte	0x75
 2689 0acc 00       		.sleb128 0
 2690 0acd 00       		.byte	0
 2691 0ace 00       		.byte	0
 2692 0acf 16       		.uleb128 0x16
 2693 0ad0 BB060000 		.4byte	.LASF109
 2694 0ad4 01       		.byte	0x1
 2695 0ad5 C7       		.byte	0xc7
 2696 0ad6 01       		.byte	0x1
 2697 0ad7 FB0A0000 		.4byte	0xafb
 2698 0adb 17       		.uleb128 0x17
 2699 0adc 79040000 		.4byte	.LASF100
 2700 0ae0 01       		.byte	0x1
 2701 0ae1 C7       		.byte	0xc7
 2702 0ae2 A3050000 		.4byte	0x5a3
 2703 0ae6 1D       		.uleb128 0x1d
 2704 0ae7 63723100 		.ascii	"cr1\000"
 2705 0aeb 01       		.byte	0x1
 2706 0aec C8       		.byte	0xc8
 2707 0aed AD000000 		.4byte	0xad
 2708 0af1 1D       		.uleb128 0x1d
 2709 0af2 7500     		.ascii	"u\000"
 2710 0af4 01       		.byte	0x1
 2711 0af5 C9       		.byte	0xc9
 2712 0af6 83060000 		.4byte	0x683
ARM GAS  C:\Users\jsyoon\AppData\Local\Temp\ccXoI9ru.s 			page 49


 2713 0afa 00       		.byte	0
 2714 0afb 2E       		.uleb128 0x2e
 2715 0afc 1F030000 		.4byte	.LASF110
 2716 0b00 01       		.byte	0x1
 2717 0b01 0502     		.2byte	0x205
 2718 0b03 00000000 		.4byte	.LFB128
 2719 0b07 78010000 		.4byte	.LFE128-.LFB128
 2720 0b0b 01       		.uleb128 0x1
 2721 0b0c 9C       		.byte	0x9c
 2722 0b0d 700C0000 		.4byte	0xc70
 2723 0b11 1F       		.uleb128 0x1f
 2724 0b12 79040000 		.4byte	.LASF100
 2725 0b16 01       		.byte	0x1
 2726 0b17 0502     		.2byte	0x205
 2727 0b19 A3050000 		.4byte	0x5a3
 2728 0b1d 2A030000 		.4byte	.LLST11
 2729 0b21 2B       		.uleb128 0x2b
 2730 0b22 CF0A0000 		.4byte	0xacf
 2731 0b26 14000000 		.4byte	.LBB32
 2732 0b2a 20000000 		.4byte	.Ldebug_ranges0+0x20
 2733 0b2e 01       		.byte	0x1
 2734 0b2f A102     		.2byte	0x2a1
 2735 0b31 8F0B0000 		.4byte	0xb8f
 2736 0b35 22       		.uleb128 0x22
 2737 0b36 DB0A0000 		.4byte	0xadb
 2738 0b3a 97030000 		.4byte	.LLST12
 2739 0b3e 2C       		.uleb128 0x2c
 2740 0b3f 20000000 		.4byte	.Ldebug_ranges0+0x20
 2741 0b43 24       		.uleb128 0x24
 2742 0b44 E60A0000 		.4byte	0xae6
 2743 0b48 C2030000 		.4byte	.LLST13
 2744 0b4c 24       		.uleb128 0x24
 2745 0b4d F10A0000 		.4byte	0xaf1
 2746 0b51 EF030000 		.4byte	.LLST14
 2747 0b55 32       		.uleb128 0x32
 2748 0b56 89060000 		.4byte	0x689
 2749 0b5a 38000000 		.4byte	.LBB34
 2750 0b5e 38000000 		.4byte	.Ldebug_ranges0+0x38
 2751 0b62 01       		.byte	0x1
 2752 0b63 EA       		.byte	0xea
 2753 0b64 7D0B0000 		.4byte	0xb7d
 2754 0b68 22       		.uleb128 0x22
 2755 0b69 95060000 		.4byte	0x695
 2756 0b6d 0D040000 		.4byte	.LLST15
 2757 0b71 2C       		.uleb128 0x2c
 2758 0b72 38000000 		.4byte	.Ldebug_ranges0+0x38
 2759 0b76 2D       		.uleb128 0x2d
 2760 0b77 A0060000 		.4byte	0x6a0
 2761 0b7b 00       		.byte	0
 2762 0b7c 00       		.byte	0
 2763 0b7d 31       		.uleb128 0x31
 2764 0b7e 1A000000 		.4byte	.LVL38
 2765 0b82 CF060000 		.4byte	0x6cf
 2766 0b86 26       		.uleb128 0x26
 2767 0b87 01       		.uleb128 0x1
 2768 0b88 50       		.byte	0x50
 2769 0b89 02       		.uleb128 0x2
ARM GAS  C:\Users\jsyoon\AppData\Local\Temp\ccXoI9ru.s 			page 50


 2770 0b8a 74       		.byte	0x74
 2771 0b8b 00       		.sleb128 0
 2772 0b8c 00       		.byte	0
 2773 0b8d 00       		.byte	0
 2774 0b8e 00       		.byte	0
 2775 0b8f 2A       		.uleb128 0x2a
 2776 0b90 EE000000 		.4byte	.LBB50
 2777 0b94 34000000 		.4byte	.LBE50-.LBB50
 2778 0b98 010C0000 		.4byte	0xc01
 2779 0b9c 33       		.uleb128 0x33
 2780 0b9d 6200     		.ascii	"b\000"
 2781 0b9f 01       		.byte	0x1
 2782 0ba0 8302     		.2byte	0x283
 2783 0ba2 CE000000 		.4byte	0xce
 2784 0ba6 2F       		.uleb128 0x2f
 2785 0ba7 FA000000 		.4byte	.LVL49
 2786 0bab 5A0E0000 		.4byte	0xe5a
 2787 0baf C80B0000 		.4byte	0xbc8
 2788 0bb3 26       		.uleb128 0x26
 2789 0bb4 01       		.uleb128 0x1
 2790 0bb5 53       		.byte	0x53
 2791 0bb6 02       		.uleb128 0x2
 2792 0bb7 74       		.byte	0x74
 2793 0bb8 00       		.sleb128 0
 2794 0bb9 26       		.uleb128 0x26
 2795 0bba 01       		.uleb128 0x1
 2796 0bbb 52       		.byte	0x52
 2797 0bbc 05       		.uleb128 0x5
 2798 0bbd 03       		.byte	0x3
 2799 0bbe 00000000 		.4byte	uart_lld_serve_rx_end_irq
 2800 0bc2 26       		.uleb128 0x26
 2801 0bc3 01       		.uleb128 0x1
 2802 0bc4 51       		.byte	0x51
 2803 0bc5 01       		.uleb128 0x1
 2804 0bc6 3C       		.byte	0x3c
 2805 0bc7 00       		.byte	0
 2806 0bc8 2F       		.uleb128 0x2f
 2807 0bc9 06010000 		.4byte	.LVL50
 2808 0bcd 5A0E0000 		.4byte	0xe5a
 2809 0bd1 EA0B0000 		.4byte	0xbea
 2810 0bd5 26       		.uleb128 0x26
 2811 0bd6 01       		.uleb128 0x1
 2812 0bd7 53       		.byte	0x53
 2813 0bd8 02       		.uleb128 0x2
 2814 0bd9 74       		.byte	0x74
 2815 0bda 00       		.sleb128 0
 2816 0bdb 26       		.uleb128 0x26
 2817 0bdc 01       		.uleb128 0x1
 2818 0bdd 52       		.byte	0x52
 2819 0bde 05       		.uleb128 0x5
 2820 0bdf 03       		.byte	0x3
 2821 0be0 00000000 		.4byte	uart_lld_serve_tx_end_irq
 2822 0be4 26       		.uleb128 0x26
 2823 0be5 01       		.uleb128 0x1
 2824 0be6 51       		.byte	0x51
 2825 0be7 01       		.uleb128 0x1
 2826 0be8 3C       		.byte	0x3c
ARM GAS  C:\Users\jsyoon\AppData\Local\Temp\ccXoI9ru.s 			page 51


 2827 0be9 00       		.byte	0
 2828 0bea 31       		.uleb128 0x31
 2829 0beb 18010000 		.4byte	.LVL51
 2830 0bef 7F0E0000 		.4byte	0xe7f
 2831 0bf3 26       		.uleb128 0x26
 2832 0bf4 01       		.uleb128 0x1
 2833 0bf5 51       		.byte	0x51
 2834 0bf6 02       		.uleb128 0x2
 2835 0bf7 08       		.byte	0x8
 2836 0bf8 C0       		.byte	0xc0
 2837 0bf9 26       		.uleb128 0x26
 2838 0bfa 01       		.uleb128 0x1
 2839 0bfb 50       		.byte	0x50
 2840 0bfc 02       		.uleb128 0x2
 2841 0bfd 08       		.byte	0x8
 2842 0bfe 47       		.byte	0x47
 2843 0bff 00       		.byte	0
 2844 0c00 00       		.byte	0
 2845 0c01 23       		.uleb128 0x23
 2846 0c02 22010000 		.4byte	.LBB51
 2847 0c06 56000000 		.4byte	.LBE51-.LBB51
 2848 0c0a 33       		.uleb128 0x33
 2849 0c0b 6200     		.ascii	"b\000"
 2850 0c0d 01       		.byte	0x1
 2851 0c0e 3402     		.2byte	0x234
 2852 0c10 CE000000 		.4byte	0xce
 2853 0c14 2F       		.uleb128 0x2f
 2854 0c15 2E010000 		.4byte	.LVL54
 2855 0c19 5A0E0000 		.4byte	0xe5a
 2856 0c1d 360C0000 		.4byte	0xc36
 2857 0c21 26       		.uleb128 0x26
 2858 0c22 01       		.uleb128 0x1
 2859 0c23 53       		.byte	0x53
 2860 0c24 02       		.uleb128 0x2
 2861 0c25 74       		.byte	0x74
 2862 0c26 00       		.sleb128 0
 2863 0c27 26       		.uleb128 0x26
 2864 0c28 01       		.uleb128 0x1
 2865 0c29 52       		.byte	0x52
 2866 0c2a 05       		.uleb128 0x5
 2867 0c2b 03       		.byte	0x3
 2868 0c2c 00000000 		.4byte	uart_lld_serve_rx_end_irq
 2869 0c30 26       		.uleb128 0x26
 2870 0c31 01       		.uleb128 0x1
 2871 0c32 51       		.byte	0x51
 2872 0c33 01       		.uleb128 0x1
 2873 0c34 3C       		.byte	0x3c
 2874 0c35 00       		.byte	0
 2875 0c36 2F       		.uleb128 0x2f
 2876 0c37 3A010000 		.4byte	.LVL55
 2877 0c3b 5A0E0000 		.4byte	0xe5a
 2878 0c3f 580C0000 		.4byte	0xc58
 2879 0c43 26       		.uleb128 0x26
 2880 0c44 01       		.uleb128 0x1
 2881 0c45 53       		.byte	0x53
 2882 0c46 02       		.uleb128 0x2
 2883 0c47 74       		.byte	0x74
ARM GAS  C:\Users\jsyoon\AppData\Local\Temp\ccXoI9ru.s 			page 52


 2884 0c48 00       		.sleb128 0
 2885 0c49 26       		.uleb128 0x26
 2886 0c4a 01       		.uleb128 0x1
 2887 0c4b 52       		.byte	0x52
 2888 0c4c 05       		.uleb128 0x5
 2889 0c4d 03       		.byte	0x3
 2890 0c4e 00000000 		.4byte	uart_lld_serve_tx_end_irq
 2891 0c52 26       		.uleb128 0x26
 2892 0c53 01       		.uleb128 0x1
 2893 0c54 51       		.byte	0x51
 2894 0c55 01       		.uleb128 0x1
 2895 0c56 3C       		.byte	0x3c
 2896 0c57 00       		.byte	0
 2897 0c58 31       		.uleb128 0x31
 2898 0c59 4C010000 		.4byte	.LVL56
 2899 0c5d 7F0E0000 		.4byte	0xe7f
 2900 0c61 26       		.uleb128 0x26
 2901 0c62 01       		.uleb128 0x1
 2902 0c63 51       		.byte	0x51
 2903 0c64 02       		.uleb128 0x2
 2904 0c65 08       		.byte	0x8
 2905 0c66 C0       		.byte	0xc0
 2906 0c67 26       		.uleb128 0x26
 2907 0c68 01       		.uleb128 0x1
 2908 0c69 50       		.byte	0x50
 2909 0c6a 02       		.uleb128 0x2
 2910 0c6b 08       		.byte	0x8
 2911 0c6c 27       		.byte	0x27
 2912 0c6d 00       		.byte	0
 2913 0c6e 00       		.byte	0
 2914 0c6f 00       		.byte	0
 2915 0c70 2E       		.uleb128 0x2e
 2916 0c71 FC060000 		.4byte	.LASF111
 2917 0c75 01       		.byte	0x1
 2918 0c76 AB02     		.2byte	0x2ab
 2919 0c78 00000000 		.4byte	.LFB129
 2920 0c7c 58000000 		.4byte	.LFE129-.LFB129
 2921 0c80 01       		.uleb128 0x1
 2922 0c81 9C       		.byte	0x9c
 2923 0c82 D60C0000 		.4byte	0xcd6
 2924 0c86 1F       		.uleb128 0x1f
 2925 0c87 79040000 		.4byte	.LASF100
 2926 0c8b 01       		.byte	0x1
 2927 0c8c AB02     		.2byte	0x2ab
 2928 0c8e A3050000 		.4byte	0x5a3
 2929 0c92 22040000 		.4byte	.LLST16
 2930 0c96 28       		.uleb128 0x28
 2931 0c97 10000000 		.4byte	.LVL60
 2932 0c9b CF060000 		.4byte	0x6cf
 2933 0c9f 28       		.uleb128 0x28
 2934 0ca0 16000000 		.4byte	.LVL61
 2935 0ca4 960E0000 		.4byte	0xe96
 2936 0ca8 28       		.uleb128 0x28
 2937 0ca9 1C000000 		.4byte	.LVL62
 2938 0cad 960E0000 		.4byte	0xe96
 2939 0cb1 2F       		.uleb128 0x2f
 2940 0cb2 2E000000 		.4byte	.LVL63
ARM GAS  C:\Users\jsyoon\AppData\Local\Temp\ccXoI9ru.s 			page 53


 2941 0cb6 A80E0000 		.4byte	0xea8
 2942 0cba C50C0000 		.4byte	0xcc5
 2943 0cbe 26       		.uleb128 0x26
 2944 0cbf 01       		.uleb128 0x1
 2945 0cc0 50       		.byte	0x50
 2946 0cc1 02       		.uleb128 0x2
 2947 0cc2 08       		.byte	0x8
 2948 0cc3 47       		.byte	0x47
 2949 0cc4 00       		.byte	0
 2950 0cc5 31       		.uleb128 0x31
 2951 0cc6 40000000 		.4byte	.LVL64
 2952 0cca A80E0000 		.4byte	0xea8
 2953 0cce 26       		.uleb128 0x26
 2954 0ccf 01       		.uleb128 0x1
 2955 0cd0 50       		.byte	0x50
 2956 0cd1 02       		.uleb128 0x2
 2957 0cd2 08       		.byte	0x8
 2958 0cd3 27       		.byte	0x27
 2959 0cd4 00       		.byte	0
 2960 0cd5 00       		.byte	0
 2961 0cd6 2E       		.uleb128 0x2e
 2962 0cd7 E8060000 		.4byte	.LASF112
 2963 0cdb 01       		.byte	0x1
 2964 0cdc EF02     		.2byte	0x2ef
 2965 0cde 00000000 		.4byte	.LFB130
 2966 0ce2 1A000000 		.4byte	.LFE130-.LFB130
 2967 0ce6 01       		.uleb128 0x1
 2968 0ce7 9C       		.byte	0x9c
 2969 0ce8 190D0000 		.4byte	0xd19
 2970 0cec 1F       		.uleb128 0x1f
 2971 0ced 79040000 		.4byte	.LASF100
 2972 0cf1 01       		.byte	0x1
 2973 0cf2 EF02     		.2byte	0x2ef
 2974 0cf4 A3050000 		.4byte	0x5a3
 2975 0cf8 64040000 		.4byte	.LLST17
 2976 0cfc 34       		.uleb128 0x34
 2977 0cfd 6E00     		.ascii	"n\000"
 2978 0cff 01       		.byte	0x1
 2979 0d00 EF02     		.2byte	0x2ef
 2980 0d02 2C000000 		.4byte	0x2c
 2981 0d06 01       		.uleb128 0x1
 2982 0d07 51       		.byte	0x51
 2983 0d08 1F       		.uleb128 0x1f
 2984 0d09 8C030000 		.4byte	.LASF113
 2985 0d0d 01       		.byte	0x1
 2986 0d0e EF02     		.2byte	0x2ef
 2987 0d10 190D0000 		.4byte	0xd19
 2988 0d14 85040000 		.4byte	.LLST18
 2989 0d18 00       		.byte	0
 2990 0d19 0F       		.uleb128 0xf
 2991 0d1a 04       		.byte	0x4
 2992 0d1b 1F0D0000 		.4byte	0xd1f
 2993 0d1f 35       		.uleb128 0x35
 2994 0d20 36       		.uleb128 0x36
 2995 0d21 A4030000 		.4byte	.LASF115
 2996 0d25 01       		.byte	0x1
 2997 0d26 0403     		.2byte	0x304
ARM GAS  C:\Users\jsyoon\AppData\Local\Temp\ccXoI9ru.s 			page 54


 2998 0d28 2C000000 		.4byte	0x2c
 2999 0d2c 00000000 		.4byte	.LFB131
 3000 0d30 20000000 		.4byte	.LFE131-.LFB131
 3001 0d34 01       		.uleb128 0x1
 3002 0d35 9C       		.byte	0x9c
 3003 0d36 4B0D0000 		.4byte	0xd4b
 3004 0d3a 1F       		.uleb128 0x1f
 3005 0d3b 79040000 		.4byte	.LASF100
 3006 0d3f 01       		.byte	0x1
 3007 0d40 0403     		.2byte	0x304
 3008 0d42 A3050000 		.4byte	0x5a3
 3009 0d46 A6040000 		.4byte	.LLST19
 3010 0d4a 00       		.byte	0
 3011 0d4b 2E       		.uleb128 0x2e
 3012 0d4c 00000000 		.4byte	.LASF114
 3013 0d50 01       		.byte	0x1
 3014 0d51 1503     		.2byte	0x315
 3015 0d53 00000000 		.4byte	.LFB132
 3016 0d57 36000000 		.4byte	.LFE132-.LFB132
 3017 0d5b 01       		.uleb128 0x1
 3018 0d5c 9C       		.byte	0x9c
 3019 0d5d 8A0D0000 		.4byte	0xd8a
 3020 0d61 37       		.uleb128 0x37
 3021 0d62 79040000 		.4byte	.LASF100
 3022 0d66 01       		.byte	0x1
 3023 0d67 1503     		.2byte	0x315
 3024 0d69 A3050000 		.4byte	0x5a3
 3025 0d6d 01       		.uleb128 0x1
 3026 0d6e 50       		.byte	0x50
 3027 0d6f 34       		.uleb128 0x34
 3028 0d70 6E00     		.ascii	"n\000"
 3029 0d72 01       		.byte	0x1
 3030 0d73 1503     		.2byte	0x315
 3031 0d75 2C000000 		.4byte	0x2c
 3032 0d79 01       		.uleb128 0x1
 3033 0d7a 51       		.byte	0x51
 3034 0d7b 37       		.uleb128 0x37
 3035 0d7c 71000000 		.4byte	.LASF87
 3036 0d80 01       		.byte	0x1
 3037 0d81 1503     		.2byte	0x315
 3038 0d83 E0000000 		.4byte	0xe0
 3039 0d87 01       		.uleb128 0x1
 3040 0d88 52       		.byte	0x52
 3041 0d89 00       		.byte	0
 3042 0d8a 36       		.uleb128 0x36
 3043 0d8b ED000000 		.4byte	.LASF116
 3044 0d8f 01       		.byte	0x1
 3045 0d90 2D03     		.2byte	0x32d
 3046 0d92 2C000000 		.4byte	0x2c
 3047 0d96 00000000 		.4byte	.LFB133
 3048 0d9a 4A000000 		.4byte	.LFE133-.LFB133
 3049 0d9e 01       		.uleb128 0x1
 3050 0d9f 9C       		.byte	0x9c
 3051 0da0 EA0D0000 		.4byte	0xdea
 3052 0da4 1F       		.uleb128 0x1f
 3053 0da5 79040000 		.4byte	.LASF100
 3054 0da9 01       		.byte	0x1
ARM GAS  C:\Users\jsyoon\AppData\Local\Temp\ccXoI9ru.s 			page 55


 3055 0daa 2D03     		.2byte	0x32d
 3056 0dac A3050000 		.4byte	0x5a3
 3057 0db0 C7040000 		.4byte	.LLST20
 3058 0db4 20       		.uleb128 0x20
 3059 0db5 6E00     		.ascii	"n\000"
 3060 0db7 01       		.byte	0x1
 3061 0db8 2E03     		.2byte	0x32e
 3062 0dba 2C000000 		.4byte	0x2c
 3063 0dbe 01       		.uleb128 0x1
 3064 0dbf 50       		.byte	0x50
 3065 0dc0 38       		.uleb128 0x38
 3066 0dc1 89060000 		.4byte	0x689
 3067 0dc5 16000000 		.4byte	.LBB52
 3068 0dc9 78000000 		.4byte	.Ldebug_ranges0+0x78
 3069 0dcd 01       		.byte	0x1
 3070 0dce 3203     		.2byte	0x332
 3071 0dd0 22       		.uleb128 0x22
 3072 0dd1 95060000 		.4byte	0x695
 3073 0dd5 F3040000 		.4byte	.LLST21
 3074 0dd9 2C       		.uleb128 0x2c
 3075 0dda 78000000 		.4byte	.Ldebug_ranges0+0x78
 3076 0dde 24       		.uleb128 0x24
 3077 0ddf A0060000 		.4byte	0x6a0
 3078 0de3 13050000 		.4byte	.LLST22
 3079 0de7 00       		.byte	0
 3080 0de8 00       		.byte	0
 3081 0de9 00       		.byte	0
 3082 0dea 39       		.uleb128 0x39
 3083 0deb C8000000 		.4byte	.LASF117
 3084 0def 0A       		.byte	0xa
 3085 0df0 9806     		.2byte	0x698
 3086 0df2 0A010000 		.4byte	0x10a
 3087 0df6 07       		.uleb128 0x7
 3088 0df7 42040000 		.4byte	0x442
 3089 0dfb 060E0000 		.4byte	0xe06
 3090 0dff 08       		.uleb128 0x8
 3091 0e00 E7000000 		.4byte	0xe7
 3092 0e04 0F       		.byte	0xf
 3093 0e05 00       		.byte	0
 3094 0e06 39       		.uleb128 0x39
 3095 0e07 AA000000 		.4byte	.LASF118
 3096 0e0b 07       		.byte	0x7
 3097 0e0c BB01     		.2byte	0x1bb
 3098 0e0e 120E0000 		.4byte	0xe12
 3099 0e12 12       		.uleb128 0x12
 3100 0e13 F60D0000 		.4byte	0xdf6
 3101 0e17 3A       		.uleb128 0x3a
 3102 0e18 1C070000 		.4byte	.LASF119
 3103 0e1c 01       		.byte	0x1
 3104 0e1d 6A       		.byte	0x6a
 3105 0e1e F7040000 		.4byte	0x4f7
 3106 0e22 05       		.uleb128 0x5
 3107 0e23 03       		.byte	0x3
 3108 0e24 00000000 		.4byte	UARTD3
 3109 0e28 3A       		.uleb128 0x3a
 3110 0e29 7F040000 		.4byte	.LASF120
 3111 0e2d 01       		.byte	0x1
ARM GAS  C:\Users\jsyoon\AppData\Local\Temp\ccXoI9ru.s 			page 56


 3112 0e2e 79       		.byte	0x79
 3113 0e2f F7040000 		.4byte	0x4f7
 3114 0e33 05       		.uleb128 0x5
 3115 0e34 03       		.byte	0x3
 3116 0e35 00000000 		.4byte	UARTD6
 3117 0e39 3B       		.uleb128 0x3b
 3118 0e3a C7020000 		.4byte	.LASF121
 3119 0e3e 0B       		.byte	0xb
 3120 0e3f 0102     		.2byte	0x201
 3121 0e41 3B       		.uleb128 0x3b
 3122 0e42 2D040000 		.4byte	.LASF122
 3123 0e46 0B       		.byte	0xb
 3124 0e47 0302     		.2byte	0x203
 3125 0e49 3C       		.uleb128 0x3c
 3126 0e4a 62000000 		.4byte	.LASF123
 3127 0e4e 08       		.byte	0x8
 3128 0e4f 6E       		.byte	0x6e
 3129 0e50 5A0E0000 		.4byte	0xe5a
 3130 0e54 11       		.uleb128 0x11
 3131 0e55 A3050000 		.4byte	0x5a3
 3132 0e59 00       		.byte	0
 3133 0e5a 3D       		.uleb128 0x3d
 3134 0e5b 0A070000 		.4byte	.LASF130
 3135 0e5f 07       		.byte	0x7
 3136 0e60 C201     		.2byte	0x1c2
 3137 0e62 CE000000 		.4byte	0xce
 3138 0e66 7F0E0000 		.4byte	0xe7f
 3139 0e6a 11       		.uleb128 0x11
 3140 0e6b 6E040000 		.4byte	0x46e
 3141 0e6f 11       		.uleb128 0x11
 3142 0e70 C3000000 		.4byte	0xc3
 3143 0e74 11       		.uleb128 0x11
 3144 0e75 4D040000 		.4byte	0x44d
 3145 0e79 11       		.uleb128 0x11
 3146 0e7a E0000000 		.4byte	0xe0
 3147 0e7e 00       		.byte	0
 3148 0e7f 3E       		.uleb128 0x3e
 3149 0e80 DC000000 		.4byte	.LASF124
 3150 0e84 0C       		.byte	0xc
 3151 0e85 2301     		.2byte	0x123
 3152 0e87 960E0000 		.4byte	0xe96
 3153 0e8b 11       		.uleb128 0x11
 3154 0e8c C3000000 		.4byte	0xc3
 3155 0e90 11       		.uleb128 0x11
 3156 0e91 C3000000 		.4byte	0xc3
 3157 0e95 00       		.byte	0
 3158 0e96 3E       		.uleb128 0x3e
 3159 0e97 F2050000 		.4byte	.LASF125
 3160 0e9b 07       		.byte	0x7
 3161 0e9c C601     		.2byte	0x1c6
 3162 0e9e A80E0000 		.4byte	0xea8
 3163 0ea2 11       		.uleb128 0x11
 3164 0ea3 6E040000 		.4byte	0x46e
 3165 0ea7 00       		.byte	0
 3166 0ea8 3F       		.uleb128 0x3f
 3167 0ea9 92030000 		.4byte	.LASF131
 3168 0ead 0C       		.byte	0xc
ARM GAS  C:\Users\jsyoon\AppData\Local\Temp\ccXoI9ru.s 			page 57


 3169 0eae 2401     		.2byte	0x124
 3170 0eb0 11       		.uleb128 0x11
 3171 0eb1 C3000000 		.4byte	0xc3
 3172 0eb5 00       		.byte	0
 3173 0eb6 00       		.byte	0
 3174              		.section	.debug_abbrev,"",%progbits
 3175              	.Ldebug_abbrev0:
 3176 0000 01       		.uleb128 0x1
 3177 0001 11       		.uleb128 0x11
 3178 0002 01       		.byte	0x1
 3179 0003 25       		.uleb128 0x25
 3180 0004 0E       		.uleb128 0xe
 3181 0005 13       		.uleb128 0x13
 3182 0006 0B       		.uleb128 0xb
 3183 0007 03       		.uleb128 0x3
 3184 0008 0E       		.uleb128 0xe
 3185 0009 1B       		.uleb128 0x1b
 3186 000a 0E       		.uleb128 0xe
 3187 000b 55       		.uleb128 0x55
 3188 000c 17       		.uleb128 0x17
 3189 000d 11       		.uleb128 0x11
 3190 000e 01       		.uleb128 0x1
 3191 000f 10       		.uleb128 0x10
 3192 0010 17       		.uleb128 0x17
 3193 0011 00       		.byte	0
 3194 0012 00       		.byte	0
 3195 0013 02       		.uleb128 0x2
 3196 0014 24       		.uleb128 0x24
 3197 0015 00       		.byte	0
 3198 0016 0B       		.uleb128 0xb
 3199 0017 0B       		.uleb128 0xb
 3200 0018 3E       		.uleb128 0x3e
 3201 0019 0B       		.uleb128 0xb
 3202 001a 03       		.uleb128 0x3
 3203 001b 08       		.uleb128 0x8
 3204 001c 00       		.byte	0
 3205 001d 00       		.byte	0
 3206 001e 03       		.uleb128 0x3
 3207 001f 16       		.uleb128 0x16
 3208 0020 00       		.byte	0
 3209 0021 03       		.uleb128 0x3
 3210 0022 0E       		.uleb128 0xe
 3211 0023 3A       		.uleb128 0x3a
 3212 0024 0B       		.uleb128 0xb
 3213 0025 3B       		.uleb128 0x3b
 3214 0026 0B       		.uleb128 0xb
 3215 0027 49       		.uleb128 0x49
 3216 0028 13       		.uleb128 0x13
 3217 0029 00       		.byte	0
 3218 002a 00       		.byte	0
 3219 002b 04       		.uleb128 0x4
 3220 002c 24       		.uleb128 0x24
 3221 002d 00       		.byte	0
 3222 002e 0B       		.uleb128 0xb
 3223 002f 0B       		.uleb128 0xb
 3224 0030 3E       		.uleb128 0x3e
 3225 0031 0B       		.uleb128 0xb
ARM GAS  C:\Users\jsyoon\AppData\Local\Temp\ccXoI9ru.s 			page 58


 3226 0032 03       		.uleb128 0x3
 3227 0033 0E       		.uleb128 0xe
 3228 0034 00       		.byte	0
 3229 0035 00       		.byte	0
 3230 0036 05       		.uleb128 0x5
 3231 0037 0F       		.uleb128 0xf
 3232 0038 00       		.byte	0
 3233 0039 0B       		.uleb128 0xb
 3234 003a 0B       		.uleb128 0xb
 3235 003b 00       		.byte	0
 3236 003c 00       		.byte	0
 3237 003d 06       		.uleb128 0x6
 3238 003e 35       		.uleb128 0x35
 3239 003f 00       		.byte	0
 3240 0040 49       		.uleb128 0x49
 3241 0041 13       		.uleb128 0x13
 3242 0042 00       		.byte	0
 3243 0043 00       		.byte	0
 3244 0044 07       		.uleb128 0x7
 3245 0045 01       		.uleb128 0x1
 3246 0046 01       		.byte	0x1
 3247 0047 49       		.uleb128 0x49
 3248 0048 13       		.uleb128 0x13
 3249 0049 01       		.uleb128 0x1
 3250 004a 13       		.uleb128 0x13
 3251 004b 00       		.byte	0
 3252 004c 00       		.byte	0
 3253 004d 08       		.uleb128 0x8
 3254 004e 21       		.uleb128 0x21
 3255 004f 00       		.byte	0
 3256 0050 49       		.uleb128 0x49
 3257 0051 13       		.uleb128 0x13
 3258 0052 2F       		.uleb128 0x2f
 3259 0053 0B       		.uleb128 0xb
 3260 0054 00       		.byte	0
 3261 0055 00       		.byte	0
 3262 0056 09       		.uleb128 0x9
 3263 0057 13       		.uleb128 0x13
 3264 0058 01       		.byte	0x1
 3265 0059 0B       		.uleb128 0xb
 3266 005a 0B       		.uleb128 0xb
 3267 005b 3A       		.uleb128 0x3a
 3268 005c 0B       		.uleb128 0xb
 3269 005d 3B       		.uleb128 0x3b
 3270 005e 05       		.uleb128 0x5
 3271 005f 01       		.uleb128 0x1
 3272 0060 13       		.uleb128 0x13
 3273 0061 00       		.byte	0
 3274 0062 00       		.byte	0
 3275 0063 0A       		.uleb128 0xa
 3276 0064 0D       		.uleb128 0xd
 3277 0065 00       		.byte	0
 3278 0066 03       		.uleb128 0x3
 3279 0067 08       		.uleb128 0x8
 3280 0068 3A       		.uleb128 0x3a
 3281 0069 0B       		.uleb128 0xb
 3282 006a 3B       		.uleb128 0x3b
ARM GAS  C:\Users\jsyoon\AppData\Local\Temp\ccXoI9ru.s 			page 59


 3283 006b 05       		.uleb128 0x5
 3284 006c 49       		.uleb128 0x49
 3285 006d 13       		.uleb128 0x13
 3286 006e 38       		.uleb128 0x38
 3287 006f 0B       		.uleb128 0xb
 3288 0070 00       		.byte	0
 3289 0071 00       		.byte	0
 3290 0072 0B       		.uleb128 0xb
 3291 0073 0D       		.uleb128 0xd
 3292 0074 00       		.byte	0
 3293 0075 03       		.uleb128 0x3
 3294 0076 0E       		.uleb128 0xe
 3295 0077 3A       		.uleb128 0x3a
 3296 0078 0B       		.uleb128 0xb
 3297 0079 3B       		.uleb128 0x3b
 3298 007a 05       		.uleb128 0x5
 3299 007b 49       		.uleb128 0x49
 3300 007c 13       		.uleb128 0x13
 3301 007d 38       		.uleb128 0x38
 3302 007e 0B       		.uleb128 0xb
 3303 007f 00       		.byte	0
 3304 0080 00       		.byte	0
 3305 0081 0C       		.uleb128 0xc
 3306 0082 16       		.uleb128 0x16
 3307 0083 00       		.byte	0
 3308 0084 03       		.uleb128 0x3
 3309 0085 0E       		.uleb128 0xe
 3310 0086 3A       		.uleb128 0x3a
 3311 0087 0B       		.uleb128 0xb
 3312 0088 3B       		.uleb128 0x3b
 3313 0089 05       		.uleb128 0x5
 3314 008a 49       		.uleb128 0x49
 3315 008b 13       		.uleb128 0x13
 3316 008c 00       		.byte	0
 3317 008d 00       		.byte	0
 3318 008e 0D       		.uleb128 0xd
 3319 008f 13       		.uleb128 0x13
 3320 0090 01       		.byte	0x1
 3321 0091 0B       		.uleb128 0xb
 3322 0092 0B       		.uleb128 0xb
 3323 0093 3A       		.uleb128 0x3a
 3324 0094 0B       		.uleb128 0xb
 3325 0095 3B       		.uleb128 0x3b
 3326 0096 0B       		.uleb128 0xb
 3327 0097 01       		.uleb128 0x1
 3328 0098 13       		.uleb128 0x13
 3329 0099 00       		.byte	0
 3330 009a 00       		.byte	0
 3331 009b 0E       		.uleb128 0xe
 3332 009c 0D       		.uleb128 0xd
 3333 009d 00       		.byte	0
 3334 009e 03       		.uleb128 0x3
 3335 009f 0E       		.uleb128 0xe
 3336 00a0 3A       		.uleb128 0x3a
 3337 00a1 0B       		.uleb128 0xb
 3338 00a2 3B       		.uleb128 0x3b
 3339 00a3 0B       		.uleb128 0xb
ARM GAS  C:\Users\jsyoon\AppData\Local\Temp\ccXoI9ru.s 			page 60


 3340 00a4 49       		.uleb128 0x49
 3341 00a5 13       		.uleb128 0x13
 3342 00a6 38       		.uleb128 0x38
 3343 00a7 0B       		.uleb128 0xb
 3344 00a8 00       		.byte	0
 3345 00a9 00       		.byte	0
 3346 00aa 0F       		.uleb128 0xf
 3347 00ab 0F       		.uleb128 0xf
 3348 00ac 00       		.byte	0
 3349 00ad 0B       		.uleb128 0xb
 3350 00ae 0B       		.uleb128 0xb
 3351 00af 49       		.uleb128 0x49
 3352 00b0 13       		.uleb128 0x13
 3353 00b1 00       		.byte	0
 3354 00b2 00       		.byte	0
 3355 00b3 10       		.uleb128 0x10
 3356 00b4 15       		.uleb128 0x15
 3357 00b5 01       		.byte	0x1
 3358 00b6 27       		.uleb128 0x27
 3359 00b7 19       		.uleb128 0x19
 3360 00b8 01       		.uleb128 0x1
 3361 00b9 13       		.uleb128 0x13
 3362 00ba 00       		.byte	0
 3363 00bb 00       		.byte	0
 3364 00bc 11       		.uleb128 0x11
 3365 00bd 05       		.uleb128 0x5
 3366 00be 00       		.byte	0
 3367 00bf 49       		.uleb128 0x49
 3368 00c0 13       		.uleb128 0x13
 3369 00c1 00       		.byte	0
 3370 00c2 00       		.byte	0
 3371 00c3 12       		.uleb128 0x12
 3372 00c4 26       		.uleb128 0x26
 3373 00c5 00       		.byte	0
 3374 00c6 49       		.uleb128 0x49
 3375 00c7 13       		.uleb128 0x13
 3376 00c8 00       		.byte	0
 3377 00c9 00       		.byte	0
 3378 00ca 13       		.uleb128 0x13
 3379 00cb 04       		.uleb128 0x4
 3380 00cc 01       		.byte	0x1
 3381 00cd 0B       		.uleb128 0xb
 3382 00ce 0B       		.uleb128 0xb
 3383 00cf 3A       		.uleb128 0x3a
 3384 00d0 0B       		.uleb128 0xb
 3385 00d1 3B       		.uleb128 0x3b
 3386 00d2 0B       		.uleb128 0xb
 3387 00d3 01       		.uleb128 0x1
 3388 00d4 13       		.uleb128 0x13
 3389 00d5 00       		.byte	0
 3390 00d6 00       		.byte	0
 3391 00d7 14       		.uleb128 0x14
 3392 00d8 28       		.uleb128 0x28
 3393 00d9 00       		.byte	0
 3394 00da 03       		.uleb128 0x3
 3395 00db 0E       		.uleb128 0xe
 3396 00dc 1C       		.uleb128 0x1c
ARM GAS  C:\Users\jsyoon\AppData\Local\Temp\ccXoI9ru.s 			page 61


 3397 00dd 0D       		.uleb128 0xd
 3398 00de 00       		.byte	0
 3399 00df 00       		.byte	0
 3400 00e0 15       		.uleb128 0x15
 3401 00e1 13       		.uleb128 0x13
 3402 00e2 01       		.byte	0x1
 3403 00e3 03       		.uleb128 0x3
 3404 00e4 0E       		.uleb128 0xe
 3405 00e5 0B       		.uleb128 0xb
 3406 00e6 0B       		.uleb128 0xb
 3407 00e7 3A       		.uleb128 0x3a
 3408 00e8 0B       		.uleb128 0xb
 3409 00e9 3B       		.uleb128 0x3b
 3410 00ea 05       		.uleb128 0x5
 3411 00eb 01       		.uleb128 0x1
 3412 00ec 13       		.uleb128 0x13
 3413 00ed 00       		.byte	0
 3414 00ee 00       		.byte	0
 3415 00ef 16       		.uleb128 0x16
 3416 00f0 2E       		.uleb128 0x2e
 3417 00f1 01       		.byte	0x1
 3418 00f2 03       		.uleb128 0x3
 3419 00f3 0E       		.uleb128 0xe
 3420 00f4 3A       		.uleb128 0x3a
 3421 00f5 0B       		.uleb128 0xb
 3422 00f6 3B       		.uleb128 0x3b
 3423 00f7 0B       		.uleb128 0xb
 3424 00f8 27       		.uleb128 0x27
 3425 00f9 19       		.uleb128 0x19
 3426 00fa 20       		.uleb128 0x20
 3427 00fb 0B       		.uleb128 0xb
 3428 00fc 01       		.uleb128 0x1
 3429 00fd 13       		.uleb128 0x13
 3430 00fe 00       		.byte	0
 3431 00ff 00       		.byte	0
 3432 0100 17       		.uleb128 0x17
 3433 0101 05       		.uleb128 0x5
 3434 0102 00       		.byte	0
 3435 0103 03       		.uleb128 0x3
 3436 0104 0E       		.uleb128 0xe
 3437 0105 3A       		.uleb128 0x3a
 3438 0106 0B       		.uleb128 0xb
 3439 0107 3B       		.uleb128 0x3b
 3440 0108 0B       		.uleb128 0xb
 3441 0109 49       		.uleb128 0x49
 3442 010a 13       		.uleb128 0x13
 3443 010b 00       		.byte	0
 3444 010c 00       		.byte	0
 3445 010d 18       		.uleb128 0x18
 3446 010e 34       		.uleb128 0x34
 3447 010f 00       		.byte	0
 3448 0110 03       		.uleb128 0x3
 3449 0111 0E       		.uleb128 0xe
 3450 0112 3A       		.uleb128 0x3a
 3451 0113 0B       		.uleb128 0xb
 3452 0114 3B       		.uleb128 0x3b
 3453 0115 0B       		.uleb128 0xb
ARM GAS  C:\Users\jsyoon\AppData\Local\Temp\ccXoI9ru.s 			page 62


 3454 0116 49       		.uleb128 0x49
 3455 0117 13       		.uleb128 0x13
 3456 0118 00       		.byte	0
 3457 0119 00       		.byte	0
 3458 011a 19       		.uleb128 0x19
 3459 011b 2E       		.uleb128 0x2e
 3460 011c 01       		.byte	0x1
 3461 011d 03       		.uleb128 0x3
 3462 011e 0E       		.uleb128 0xe
 3463 011f 3A       		.uleb128 0x3a
 3464 0120 0B       		.uleb128 0xb
 3465 0121 3B       		.uleb128 0x3b
 3466 0122 0B       		.uleb128 0xb
 3467 0123 27       		.uleb128 0x27
 3468 0124 19       		.uleb128 0x19
 3469 0125 11       		.uleb128 0x11
 3470 0126 01       		.uleb128 0x1
 3471 0127 12       		.uleb128 0x12
 3472 0128 06       		.uleb128 0x6
 3473 0129 40       		.uleb128 0x40
 3474 012a 18       		.uleb128 0x18
 3475 012b 9742     		.uleb128 0x2117
 3476 012d 19       		.uleb128 0x19
 3477 012e 01       		.uleb128 0x1
 3478 012f 13       		.uleb128 0x13
 3479 0130 00       		.byte	0
 3480 0131 00       		.byte	0
 3481 0132 1A       		.uleb128 0x1a
 3482 0133 05       		.uleb128 0x5
 3483 0134 00       		.byte	0
 3484 0135 03       		.uleb128 0x3
 3485 0136 0E       		.uleb128 0xe
 3486 0137 3A       		.uleb128 0x3a
 3487 0138 0B       		.uleb128 0xb
 3488 0139 3B       		.uleb128 0x3b
 3489 013a 0B       		.uleb128 0xb
 3490 013b 49       		.uleb128 0x49
 3491 013c 13       		.uleb128 0x13
 3492 013d 02       		.uleb128 0x2
 3493 013e 17       		.uleb128 0x17
 3494 013f 00       		.byte	0
 3495 0140 00       		.byte	0
 3496 0141 1B       		.uleb128 0x1b
 3497 0142 2E       		.uleb128 0x2e
 3498 0143 01       		.byte	0x1
 3499 0144 03       		.uleb128 0x3
 3500 0145 0E       		.uleb128 0xe
 3501 0146 3A       		.uleb128 0x3a
 3502 0147 0B       		.uleb128 0xb
 3503 0148 3B       		.uleb128 0x3b
 3504 0149 0B       		.uleb128 0xb
 3505 014a 27       		.uleb128 0x27
 3506 014b 19       		.uleb128 0x19
 3507 014c 49       		.uleb128 0x49
 3508 014d 13       		.uleb128 0x13
 3509 014e 20       		.uleb128 0x20
 3510 014f 0B       		.uleb128 0xb
ARM GAS  C:\Users\jsyoon\AppData\Local\Temp\ccXoI9ru.s 			page 63


 3511 0150 01       		.uleb128 0x1
 3512 0151 13       		.uleb128 0x13
 3513 0152 00       		.byte	0
 3514 0153 00       		.byte	0
 3515 0154 1C       		.uleb128 0x1c
 3516 0155 05       		.uleb128 0x5
 3517 0156 00       		.byte	0
 3518 0157 03       		.uleb128 0x3
 3519 0158 08       		.uleb128 0x8
 3520 0159 3A       		.uleb128 0x3a
 3521 015a 0B       		.uleb128 0xb
 3522 015b 3B       		.uleb128 0x3b
 3523 015c 0B       		.uleb128 0xb
 3524 015d 49       		.uleb128 0x49
 3525 015e 13       		.uleb128 0x13
 3526 015f 00       		.byte	0
 3527 0160 00       		.byte	0
 3528 0161 1D       		.uleb128 0x1d
 3529 0162 34       		.uleb128 0x34
 3530 0163 00       		.byte	0
 3531 0164 03       		.uleb128 0x3
 3532 0165 08       		.uleb128 0x8
 3533 0166 3A       		.uleb128 0x3a
 3534 0167 0B       		.uleb128 0xb
 3535 0168 3B       		.uleb128 0x3b
 3536 0169 0B       		.uleb128 0xb
 3537 016a 49       		.uleb128 0x49
 3538 016b 13       		.uleb128 0x13
 3539 016c 00       		.byte	0
 3540 016d 00       		.byte	0
 3541 016e 1E       		.uleb128 0x1e
 3542 016f 2E       		.uleb128 0x2e
 3543 0170 01       		.byte	0x1
 3544 0171 03       		.uleb128 0x3
 3545 0172 0E       		.uleb128 0xe
 3546 0173 3A       		.uleb128 0x3a
 3547 0174 0B       		.uleb128 0xb
 3548 0175 3B       		.uleb128 0x3b
 3549 0176 05       		.uleb128 0x5
 3550 0177 27       		.uleb128 0x27
 3551 0178 19       		.uleb128 0x19
 3552 0179 11       		.uleb128 0x11
 3553 017a 01       		.uleb128 0x1
 3554 017b 12       		.uleb128 0x12
 3555 017c 06       		.uleb128 0x6
 3556 017d 40       		.uleb128 0x40
 3557 017e 18       		.uleb128 0x18
 3558 017f 9742     		.uleb128 0x2117
 3559 0181 19       		.uleb128 0x19
 3560 0182 01       		.uleb128 0x1
 3561 0183 13       		.uleb128 0x13
 3562 0184 00       		.byte	0
 3563 0185 00       		.byte	0
 3564 0186 1F       		.uleb128 0x1f
 3565 0187 05       		.uleb128 0x5
 3566 0188 00       		.byte	0
 3567 0189 03       		.uleb128 0x3
ARM GAS  C:\Users\jsyoon\AppData\Local\Temp\ccXoI9ru.s 			page 64


 3568 018a 0E       		.uleb128 0xe
 3569 018b 3A       		.uleb128 0x3a
 3570 018c 0B       		.uleb128 0xb
 3571 018d 3B       		.uleb128 0x3b
 3572 018e 05       		.uleb128 0x5
 3573 018f 49       		.uleb128 0x49
 3574 0190 13       		.uleb128 0x13
 3575 0191 02       		.uleb128 0x2
 3576 0192 17       		.uleb128 0x17
 3577 0193 00       		.byte	0
 3578 0194 00       		.byte	0
 3579 0195 20       		.uleb128 0x20
 3580 0196 34       		.uleb128 0x34
 3581 0197 00       		.byte	0
 3582 0198 03       		.uleb128 0x3
 3583 0199 08       		.uleb128 0x8
 3584 019a 3A       		.uleb128 0x3a
 3585 019b 0B       		.uleb128 0xb
 3586 019c 3B       		.uleb128 0x3b
 3587 019d 05       		.uleb128 0x5
 3588 019e 49       		.uleb128 0x49
 3589 019f 13       		.uleb128 0x13
 3590 01a0 02       		.uleb128 0x2
 3591 01a1 18       		.uleb128 0x18
 3592 01a2 00       		.byte	0
 3593 01a3 00       		.byte	0
 3594 01a4 21       		.uleb128 0x21
 3595 01a5 1D       		.uleb128 0x1d
 3596 01a6 01       		.byte	0x1
 3597 01a7 31       		.uleb128 0x31
 3598 01a8 13       		.uleb128 0x13
 3599 01a9 11       		.uleb128 0x11
 3600 01aa 01       		.uleb128 0x1
 3601 01ab 12       		.uleb128 0x12
 3602 01ac 06       		.uleb128 0x6
 3603 01ad 58       		.uleb128 0x58
 3604 01ae 0B       		.uleb128 0xb
 3605 01af 59       		.uleb128 0x59
 3606 01b0 05       		.uleb128 0x5
 3607 01b1 01       		.uleb128 0x1
 3608 01b2 13       		.uleb128 0x13
 3609 01b3 00       		.byte	0
 3610 01b4 00       		.byte	0
 3611 01b5 22       		.uleb128 0x22
 3612 01b6 05       		.uleb128 0x5
 3613 01b7 00       		.byte	0
 3614 01b8 31       		.uleb128 0x31
 3615 01b9 13       		.uleb128 0x13
 3616 01ba 02       		.uleb128 0x2
 3617 01bb 17       		.uleb128 0x17
 3618 01bc 00       		.byte	0
 3619 01bd 00       		.byte	0
 3620 01be 23       		.uleb128 0x23
 3621 01bf 0B       		.uleb128 0xb
 3622 01c0 01       		.byte	0x1
 3623 01c1 11       		.uleb128 0x11
 3624 01c2 01       		.uleb128 0x1
ARM GAS  C:\Users\jsyoon\AppData\Local\Temp\ccXoI9ru.s 			page 65


 3625 01c3 12       		.uleb128 0x12
 3626 01c4 06       		.uleb128 0x6
 3627 01c5 00       		.byte	0
 3628 01c6 00       		.byte	0
 3629 01c7 24       		.uleb128 0x24
 3630 01c8 34       		.uleb128 0x34
 3631 01c9 00       		.byte	0
 3632 01ca 31       		.uleb128 0x31
 3633 01cb 13       		.uleb128 0x13
 3634 01cc 02       		.uleb128 0x2
 3635 01cd 17       		.uleb128 0x17
 3636 01ce 00       		.byte	0
 3637 01cf 00       		.byte	0
 3638 01d0 25       		.uleb128 0x25
 3639 01d1 898201   		.uleb128 0x4109
 3640 01d4 01       		.byte	0x1
 3641 01d5 11       		.uleb128 0x11
 3642 01d6 01       		.uleb128 0x1
 3643 01d7 01       		.uleb128 0x1
 3644 01d8 13       		.uleb128 0x13
 3645 01d9 00       		.byte	0
 3646 01da 00       		.byte	0
 3647 01db 26       		.uleb128 0x26
 3648 01dc 8A8201   		.uleb128 0x410a
 3649 01df 00       		.byte	0
 3650 01e0 02       		.uleb128 0x2
 3651 01e1 18       		.uleb128 0x18
 3652 01e2 9142     		.uleb128 0x2111
 3653 01e4 18       		.uleb128 0x18
 3654 01e5 00       		.byte	0
 3655 01e6 00       		.byte	0
 3656 01e7 27       		.uleb128 0x27
 3657 01e8 898201   		.uleb128 0x4109
 3658 01eb 01       		.byte	0x1
 3659 01ec 11       		.uleb128 0x11
 3660 01ed 01       		.uleb128 0x1
 3661 01ee 00       		.byte	0
 3662 01ef 00       		.byte	0
 3663 01f0 28       		.uleb128 0x28
 3664 01f1 898201   		.uleb128 0x4109
 3665 01f4 00       		.byte	0
 3666 01f5 11       		.uleb128 0x11
 3667 01f6 01       		.uleb128 0x1
 3668 01f7 31       		.uleb128 0x31
 3669 01f8 13       		.uleb128 0x13
 3670 01f9 00       		.byte	0
 3671 01fa 00       		.byte	0
 3672 01fb 29       		.uleb128 0x29
 3673 01fc 2E       		.uleb128 0x2e
 3674 01fd 01       		.byte	0x1
 3675 01fe 31       		.uleb128 0x31
 3676 01ff 13       		.uleb128 0x13
 3677 0200 11       		.uleb128 0x11
 3678 0201 01       		.uleb128 0x1
 3679 0202 12       		.uleb128 0x12
 3680 0203 06       		.uleb128 0x6
 3681 0204 40       		.uleb128 0x40
ARM GAS  C:\Users\jsyoon\AppData\Local\Temp\ccXoI9ru.s 			page 66


 3682 0205 18       		.uleb128 0x18
 3683 0206 9742     		.uleb128 0x2117
 3684 0208 19       		.uleb128 0x19
 3685 0209 01       		.uleb128 0x1
 3686 020a 13       		.uleb128 0x13
 3687 020b 00       		.byte	0
 3688 020c 00       		.byte	0
 3689 020d 2A       		.uleb128 0x2a
 3690 020e 0B       		.uleb128 0xb
 3691 020f 01       		.byte	0x1
 3692 0210 11       		.uleb128 0x11
 3693 0211 01       		.uleb128 0x1
 3694 0212 12       		.uleb128 0x12
 3695 0213 06       		.uleb128 0x6
 3696 0214 01       		.uleb128 0x1
 3697 0215 13       		.uleb128 0x13
 3698 0216 00       		.byte	0
 3699 0217 00       		.byte	0
 3700 0218 2B       		.uleb128 0x2b
 3701 0219 1D       		.uleb128 0x1d
 3702 021a 01       		.byte	0x1
 3703 021b 31       		.uleb128 0x31
 3704 021c 13       		.uleb128 0x13
 3705 021d 52       		.uleb128 0x52
 3706 021e 01       		.uleb128 0x1
 3707 021f 55       		.uleb128 0x55
 3708 0220 17       		.uleb128 0x17
 3709 0221 58       		.uleb128 0x58
 3710 0222 0B       		.uleb128 0xb
 3711 0223 59       		.uleb128 0x59
 3712 0224 05       		.uleb128 0x5
 3713 0225 01       		.uleb128 0x1
 3714 0226 13       		.uleb128 0x13
 3715 0227 00       		.byte	0
 3716 0228 00       		.byte	0
 3717 0229 2C       		.uleb128 0x2c
 3718 022a 0B       		.uleb128 0xb
 3719 022b 01       		.byte	0x1
 3720 022c 55       		.uleb128 0x55
 3721 022d 17       		.uleb128 0x17
 3722 022e 00       		.byte	0
 3723 022f 00       		.byte	0
 3724 0230 2D       		.uleb128 0x2d
 3725 0231 34       		.uleb128 0x34
 3726 0232 00       		.byte	0
 3727 0233 31       		.uleb128 0x31
 3728 0234 13       		.uleb128 0x13
 3729 0235 00       		.byte	0
 3730 0236 00       		.byte	0
 3731 0237 2E       		.uleb128 0x2e
 3732 0238 2E       		.uleb128 0x2e
 3733 0239 01       		.byte	0x1
 3734 023a 3F       		.uleb128 0x3f
 3735 023b 19       		.uleb128 0x19
 3736 023c 03       		.uleb128 0x3
 3737 023d 0E       		.uleb128 0xe
 3738 023e 3A       		.uleb128 0x3a
ARM GAS  C:\Users\jsyoon\AppData\Local\Temp\ccXoI9ru.s 			page 67


 3739 023f 0B       		.uleb128 0xb
 3740 0240 3B       		.uleb128 0x3b
 3741 0241 05       		.uleb128 0x5
 3742 0242 27       		.uleb128 0x27
 3743 0243 19       		.uleb128 0x19
 3744 0244 11       		.uleb128 0x11
 3745 0245 01       		.uleb128 0x1
 3746 0246 12       		.uleb128 0x12
 3747 0247 06       		.uleb128 0x6
 3748 0248 40       		.uleb128 0x40
 3749 0249 18       		.uleb128 0x18
 3750 024a 9742     		.uleb128 0x2117
 3751 024c 19       		.uleb128 0x19
 3752 024d 01       		.uleb128 0x1
 3753 024e 13       		.uleb128 0x13
 3754 024f 00       		.byte	0
 3755 0250 00       		.byte	0
 3756 0251 2F       		.uleb128 0x2f
 3757 0252 898201   		.uleb128 0x4109
 3758 0255 01       		.byte	0x1
 3759 0256 11       		.uleb128 0x11
 3760 0257 01       		.uleb128 0x1
 3761 0258 31       		.uleb128 0x31
 3762 0259 13       		.uleb128 0x13
 3763 025a 01       		.uleb128 0x1
 3764 025b 13       		.uleb128 0x13
 3765 025c 00       		.byte	0
 3766 025d 00       		.byte	0
 3767 025e 30       		.uleb128 0x30
 3768 025f 898201   		.uleb128 0x4109
 3769 0262 00       		.byte	0
 3770 0263 11       		.uleb128 0x11
 3771 0264 01       		.uleb128 0x1
 3772 0265 9542     		.uleb128 0x2115
 3773 0267 19       		.uleb128 0x19
 3774 0268 31       		.uleb128 0x31
 3775 0269 13       		.uleb128 0x13
 3776 026a 00       		.byte	0
 3777 026b 00       		.byte	0
 3778 026c 31       		.uleb128 0x31
 3779 026d 898201   		.uleb128 0x4109
 3780 0270 01       		.byte	0x1
 3781 0271 11       		.uleb128 0x11
 3782 0272 01       		.uleb128 0x1
 3783 0273 31       		.uleb128 0x31
 3784 0274 13       		.uleb128 0x13
 3785 0275 00       		.byte	0
 3786 0276 00       		.byte	0
 3787 0277 32       		.uleb128 0x32
 3788 0278 1D       		.uleb128 0x1d
 3789 0279 01       		.byte	0x1
 3790 027a 31       		.uleb128 0x31
 3791 027b 13       		.uleb128 0x13
 3792 027c 52       		.uleb128 0x52
 3793 027d 01       		.uleb128 0x1
 3794 027e 55       		.uleb128 0x55
 3795 027f 17       		.uleb128 0x17
ARM GAS  C:\Users\jsyoon\AppData\Local\Temp\ccXoI9ru.s 			page 68


 3796 0280 58       		.uleb128 0x58
 3797 0281 0B       		.uleb128 0xb
 3798 0282 59       		.uleb128 0x59
 3799 0283 0B       		.uleb128 0xb
 3800 0284 01       		.uleb128 0x1
 3801 0285 13       		.uleb128 0x13
 3802 0286 00       		.byte	0
 3803 0287 00       		.byte	0
 3804 0288 33       		.uleb128 0x33
 3805 0289 34       		.uleb128 0x34
 3806 028a 00       		.byte	0
 3807 028b 03       		.uleb128 0x3
 3808 028c 08       		.uleb128 0x8
 3809 028d 3A       		.uleb128 0x3a
 3810 028e 0B       		.uleb128 0xb
 3811 028f 3B       		.uleb128 0x3b
 3812 0290 05       		.uleb128 0x5
 3813 0291 49       		.uleb128 0x49
 3814 0292 13       		.uleb128 0x13
 3815 0293 00       		.byte	0
 3816 0294 00       		.byte	0
 3817 0295 34       		.uleb128 0x34
 3818 0296 05       		.uleb128 0x5
 3819 0297 00       		.byte	0
 3820 0298 03       		.uleb128 0x3
 3821 0299 08       		.uleb128 0x8
 3822 029a 3A       		.uleb128 0x3a
 3823 029b 0B       		.uleb128 0xb
 3824 029c 3B       		.uleb128 0x3b
 3825 029d 05       		.uleb128 0x5
 3826 029e 49       		.uleb128 0x49
 3827 029f 13       		.uleb128 0x13
 3828 02a0 02       		.uleb128 0x2
 3829 02a1 18       		.uleb128 0x18
 3830 02a2 00       		.byte	0
 3831 02a3 00       		.byte	0
 3832 02a4 35       		.uleb128 0x35
 3833 02a5 26       		.uleb128 0x26
 3834 02a6 00       		.byte	0
 3835 02a7 00       		.byte	0
 3836 02a8 00       		.byte	0
 3837 02a9 36       		.uleb128 0x36
 3838 02aa 2E       		.uleb128 0x2e
 3839 02ab 01       		.byte	0x1
 3840 02ac 3F       		.uleb128 0x3f
 3841 02ad 19       		.uleb128 0x19
 3842 02ae 03       		.uleb128 0x3
 3843 02af 0E       		.uleb128 0xe
 3844 02b0 3A       		.uleb128 0x3a
 3845 02b1 0B       		.uleb128 0xb
 3846 02b2 3B       		.uleb128 0x3b
 3847 02b3 05       		.uleb128 0x5
 3848 02b4 27       		.uleb128 0x27
 3849 02b5 19       		.uleb128 0x19
 3850 02b6 49       		.uleb128 0x49
 3851 02b7 13       		.uleb128 0x13
 3852 02b8 11       		.uleb128 0x11
ARM GAS  C:\Users\jsyoon\AppData\Local\Temp\ccXoI9ru.s 			page 69


 3853 02b9 01       		.uleb128 0x1
 3854 02ba 12       		.uleb128 0x12
 3855 02bb 06       		.uleb128 0x6
 3856 02bc 40       		.uleb128 0x40
 3857 02bd 18       		.uleb128 0x18
 3858 02be 9742     		.uleb128 0x2117
 3859 02c0 19       		.uleb128 0x19
 3860 02c1 01       		.uleb128 0x1
 3861 02c2 13       		.uleb128 0x13
 3862 02c3 00       		.byte	0
 3863 02c4 00       		.byte	0
 3864 02c5 37       		.uleb128 0x37
 3865 02c6 05       		.uleb128 0x5
 3866 02c7 00       		.byte	0
 3867 02c8 03       		.uleb128 0x3
 3868 02c9 0E       		.uleb128 0xe
 3869 02ca 3A       		.uleb128 0x3a
 3870 02cb 0B       		.uleb128 0xb
 3871 02cc 3B       		.uleb128 0x3b
 3872 02cd 05       		.uleb128 0x5
 3873 02ce 49       		.uleb128 0x49
 3874 02cf 13       		.uleb128 0x13
 3875 02d0 02       		.uleb128 0x2
 3876 02d1 18       		.uleb128 0x18
 3877 02d2 00       		.byte	0
 3878 02d3 00       		.byte	0
 3879 02d4 38       		.uleb128 0x38
 3880 02d5 1D       		.uleb128 0x1d
 3881 02d6 01       		.byte	0x1
 3882 02d7 31       		.uleb128 0x31
 3883 02d8 13       		.uleb128 0x13
 3884 02d9 52       		.uleb128 0x52
 3885 02da 01       		.uleb128 0x1
 3886 02db 55       		.uleb128 0x55
 3887 02dc 17       		.uleb128 0x17
 3888 02dd 58       		.uleb128 0x58
 3889 02de 0B       		.uleb128 0xb
 3890 02df 59       		.uleb128 0x59
 3891 02e0 05       		.uleb128 0x5
 3892 02e1 00       		.byte	0
 3893 02e2 00       		.byte	0
 3894 02e3 39       		.uleb128 0x39
 3895 02e4 34       		.uleb128 0x34
 3896 02e5 00       		.byte	0
 3897 02e6 03       		.uleb128 0x3
 3898 02e7 0E       		.uleb128 0xe
 3899 02e8 3A       		.uleb128 0x3a
 3900 02e9 0B       		.uleb128 0xb
 3901 02ea 3B       		.uleb128 0x3b
 3902 02eb 05       		.uleb128 0x5
 3903 02ec 49       		.uleb128 0x49
 3904 02ed 13       		.uleb128 0x13
 3905 02ee 3F       		.uleb128 0x3f
 3906 02ef 19       		.uleb128 0x19
 3907 02f0 3C       		.uleb128 0x3c
 3908 02f1 19       		.uleb128 0x19
 3909 02f2 00       		.byte	0
ARM GAS  C:\Users\jsyoon\AppData\Local\Temp\ccXoI9ru.s 			page 70


 3910 02f3 00       		.byte	0
 3911 02f4 3A       		.uleb128 0x3a
 3912 02f5 34       		.uleb128 0x34
 3913 02f6 00       		.byte	0
 3914 02f7 03       		.uleb128 0x3
 3915 02f8 0E       		.uleb128 0xe
 3916 02f9 3A       		.uleb128 0x3a
 3917 02fa 0B       		.uleb128 0xb
 3918 02fb 3B       		.uleb128 0x3b
 3919 02fc 0B       		.uleb128 0xb
 3920 02fd 49       		.uleb128 0x49
 3921 02fe 13       		.uleb128 0x13
 3922 02ff 3F       		.uleb128 0x3f
 3923 0300 19       		.uleb128 0x19
 3924 0301 02       		.uleb128 0x2
 3925 0302 18       		.uleb128 0x18
 3926 0303 00       		.byte	0
 3927 0304 00       		.byte	0
 3928 0305 3B       		.uleb128 0x3b
 3929 0306 2E       		.uleb128 0x2e
 3930 0307 00       		.byte	0
 3931 0308 3F       		.uleb128 0x3f
 3932 0309 19       		.uleb128 0x19
 3933 030a 03       		.uleb128 0x3
 3934 030b 0E       		.uleb128 0xe
 3935 030c 3A       		.uleb128 0x3a
 3936 030d 0B       		.uleb128 0xb
 3937 030e 3B       		.uleb128 0x3b
 3938 030f 05       		.uleb128 0x5
 3939 0310 27       		.uleb128 0x27
 3940 0311 19       		.uleb128 0x19
 3941 0312 3C       		.uleb128 0x3c
 3942 0313 19       		.uleb128 0x19
 3943 0314 00       		.byte	0
 3944 0315 00       		.byte	0
 3945 0316 3C       		.uleb128 0x3c
 3946 0317 2E       		.uleb128 0x2e
 3947 0318 01       		.byte	0x1
 3948 0319 3F       		.uleb128 0x3f
 3949 031a 19       		.uleb128 0x19
 3950 031b 03       		.uleb128 0x3
 3951 031c 0E       		.uleb128 0xe
 3952 031d 3A       		.uleb128 0x3a
 3953 031e 0B       		.uleb128 0xb
 3954 031f 3B       		.uleb128 0x3b
 3955 0320 0B       		.uleb128 0xb
 3956 0321 27       		.uleb128 0x27
 3957 0322 19       		.uleb128 0x19
 3958 0323 3C       		.uleb128 0x3c
 3959 0324 19       		.uleb128 0x19
 3960 0325 01       		.uleb128 0x1
 3961 0326 13       		.uleb128 0x13
 3962 0327 00       		.byte	0
 3963 0328 00       		.byte	0
 3964 0329 3D       		.uleb128 0x3d
 3965 032a 2E       		.uleb128 0x2e
 3966 032b 01       		.byte	0x1
ARM GAS  C:\Users\jsyoon\AppData\Local\Temp\ccXoI9ru.s 			page 71


 3967 032c 3F       		.uleb128 0x3f
 3968 032d 19       		.uleb128 0x19
 3969 032e 03       		.uleb128 0x3
 3970 032f 0E       		.uleb128 0xe
 3971 0330 3A       		.uleb128 0x3a
 3972 0331 0B       		.uleb128 0xb
 3973 0332 3B       		.uleb128 0x3b
 3974 0333 05       		.uleb128 0x5
 3975 0334 27       		.uleb128 0x27
 3976 0335 19       		.uleb128 0x19
 3977 0336 49       		.uleb128 0x49
 3978 0337 13       		.uleb128 0x13
 3979 0338 3C       		.uleb128 0x3c
 3980 0339 19       		.uleb128 0x19
 3981 033a 01       		.uleb128 0x1
 3982 033b 13       		.uleb128 0x13
 3983 033c 00       		.byte	0
 3984 033d 00       		.byte	0
 3985 033e 3E       		.uleb128 0x3e
 3986 033f 2E       		.uleb128 0x2e
 3987 0340 01       		.byte	0x1
 3988 0341 3F       		.uleb128 0x3f
 3989 0342 19       		.uleb128 0x19
 3990 0343 03       		.uleb128 0x3
 3991 0344 0E       		.uleb128 0xe
 3992 0345 3A       		.uleb128 0x3a
 3993 0346 0B       		.uleb128 0xb
 3994 0347 3B       		.uleb128 0x3b
 3995 0348 05       		.uleb128 0x5
 3996 0349 27       		.uleb128 0x27
 3997 034a 19       		.uleb128 0x19
 3998 034b 3C       		.uleb128 0x3c
 3999 034c 19       		.uleb128 0x19
 4000 034d 01       		.uleb128 0x1
 4001 034e 13       		.uleb128 0x13
 4002 034f 00       		.byte	0
 4003 0350 00       		.byte	0
 4004 0351 3F       		.uleb128 0x3f
 4005 0352 2E       		.uleb128 0x2e
 4006 0353 01       		.byte	0x1
 4007 0354 3F       		.uleb128 0x3f
 4008 0355 19       		.uleb128 0x19
 4009 0356 03       		.uleb128 0x3
 4010 0357 0E       		.uleb128 0xe
 4011 0358 3A       		.uleb128 0x3a
 4012 0359 0B       		.uleb128 0xb
 4013 035a 3B       		.uleb128 0x3b
 4014 035b 05       		.uleb128 0x5
 4015 035c 27       		.uleb128 0x27
 4016 035d 19       		.uleb128 0x19
 4017 035e 3C       		.uleb128 0x3c
 4018 035f 19       		.uleb128 0x19
 4019 0360 00       		.byte	0
 4020 0361 00       		.byte	0
 4021 0362 00       		.byte	0
 4022              		.section	.debug_loc,"",%progbits
 4023              	.Ldebug_loc0:
ARM GAS  C:\Users\jsyoon\AppData\Local\Temp\ccXoI9ru.s 			page 72


 4024              	.LLST0:
 4025 0000 00000000 		.4byte	.LVL0
 4026 0004 3A000000 		.4byte	.LVL1
 4027 0008 0100     		.2byte	0x1
 4028 000a 50       		.byte	0x50
 4029 000b 3A000000 		.4byte	.LVL1
 4030 000f 48000000 		.4byte	.LFE120
 4031 0013 0400     		.2byte	0x4
 4032 0015 F3       		.byte	0xf3
 4033 0016 01       		.uleb128 0x1
 4034 0017 50       		.byte	0x50
 4035 0018 9F       		.byte	0x9f
 4036 0019 00000000 		.4byte	0
 4037 001d 00000000 		.4byte	0
 4038              	.LLST1:
 4039 0021 00000000 		.4byte	.LVL2
 4040 0025 2C000000 		.4byte	.LVL7
 4041 0029 0100     		.2byte	0x1
 4042 002b 50       		.byte	0x50
 4043 002c 2C000000 		.4byte	.LVL7
 4044 0030 64000000 		.4byte	.LFE124
 4045 0034 0100     		.2byte	0x1
 4046 0036 56       		.byte	0x56
 4047 0037 00000000 		.4byte	0
 4048 003b 00000000 		.4byte	0
 4049              	.LLST2:
 4050 003f 20000000 		.4byte	.LVL5
 4051 0043 4E000000 		.4byte	.LVL12
 4052 0047 0100     		.2byte	0x1
 4053 0049 54       		.byte	0x54
 4054 004a 00000000 		.4byte	0
 4055 004e 00000000 		.4byte	0
 4056              	.LLST3:
 4057 0052 20000000 		.4byte	.LVL5
 4058 0056 2A000000 		.4byte	.LVL6
 4059 005a 0200     		.2byte	0x2
 4060 005c 30       		.byte	0x30
 4061 005d 9F       		.byte	0x9f
 4062 005e 2A000000 		.4byte	.LVL6
 4063 0062 4D000000 		.4byte	.LVL12-1
 4064 0066 0100     		.2byte	0x1
 4065 0068 51       		.byte	0x51
 4066 0069 4D000000 		.4byte	.LVL12-1
 4067 006d 4E000000 		.4byte	.LVL12
 4068 0071 9701     		.2byte	0x197
 4069 0073 40       		.byte	0x40
 4070 0074 30       		.byte	0x30
 4071 0075 74       		.byte	0x74
 4072 0076 00       		.sleb128 0
 4073 0077 33       		.byte	0x33
 4074 0078 25       		.byte	0x25
 4075 0079 30       		.byte	0x30
 4076 007a 2E       		.byte	0x2e
 4077 007b 28       		.byte	0x28
 4078 007c 0100     		.2byte	0x1
 4079 007e 16       		.byte	0x16
 4080 007f 13       		.byte	0x13
ARM GAS  C:\Users\jsyoon\AppData\Local\Temp\ccXoI9ru.s 			page 73


 4081 0080 34       		.byte	0x34
 4082 0081 21       		.byte	0x21
 4083 0082 40       		.byte	0x40
 4084 0083 30       		.byte	0x30
 4085 0084 74       		.byte	0x74
 4086 0085 00       		.sleb128 0
 4087 0086 33       		.byte	0x33
 4088 0087 25       		.byte	0x25
 4089 0088 30       		.byte	0x30
 4090 0089 2E       		.byte	0x2e
 4091 008a 28       		.byte	0x28
 4092 008b 0100     		.2byte	0x1
 4093 008d 16       		.byte	0x16
 4094 008e 13       		.byte	0x13
 4095 008f 74       		.byte	0x74
 4096 0090 00       		.sleb128 0
 4097 0091 4F       		.byte	0x4f
 4098 0092 24       		.byte	0x24
 4099 0093 30       		.byte	0x30
 4100 0094 2D       		.byte	0x2d
 4101 0095 28       		.byte	0x28
 4102 0096 0100     		.2byte	0x1
 4103 0098 16       		.byte	0x16
 4104 0099 13       		.byte	0x13
 4105 009a 38       		.byte	0x38
 4106 009b 21       		.byte	0x21
 4107 009c 40       		.byte	0x40
 4108 009d 30       		.byte	0x30
 4109 009e 74       		.byte	0x74
 4110 009f 00       		.sleb128 0
 4111 00a0 33       		.byte	0x33
 4112 00a1 25       		.byte	0x25
 4113 00a2 30       		.byte	0x30
 4114 00a3 2E       		.byte	0x2e
 4115 00a4 28       		.byte	0x28
 4116 00a5 0100     		.2byte	0x1
 4117 00a7 16       		.byte	0x16
 4118 00a8 13       		.byte	0x13
 4119 00a9 34       		.byte	0x34
 4120 00aa 21       		.byte	0x21
 4121 00ab 40       		.byte	0x40
 4122 00ac 30       		.byte	0x30
 4123 00ad 74       		.byte	0x74
 4124 00ae 00       		.sleb128 0
 4125 00af 33       		.byte	0x33
 4126 00b0 25       		.byte	0x25
 4127 00b1 30       		.byte	0x30
 4128 00b2 2E       		.byte	0x2e
 4129 00b3 28       		.byte	0x28
 4130 00b4 0100     		.2byte	0x1
 4131 00b6 16       		.byte	0x16
 4132 00b7 13       		.byte	0x13
 4133 00b8 74       		.byte	0x74
 4134 00b9 00       		.sleb128 0
 4135 00ba 4F       		.byte	0x4f
 4136 00bb 24       		.byte	0x24
 4137 00bc 30       		.byte	0x30
ARM GAS  C:\Users\jsyoon\AppData\Local\Temp\ccXoI9ru.s 			page 74


 4138 00bd 2D       		.byte	0x2d
 4139 00be 28       		.byte	0x28
 4140 00bf 0100     		.2byte	0x1
 4141 00c1 16       		.byte	0x16
 4142 00c2 13       		.byte	0x13
 4143 00c3 74       		.byte	0x74
 4144 00c4 00       		.sleb128 0
 4145 00c5 4E       		.byte	0x4e
 4146 00c6 24       		.byte	0x24
 4147 00c7 30       		.byte	0x30
 4148 00c8 2D       		.byte	0x2d
 4149 00c9 28       		.byte	0x28
 4150 00ca 0100     		.2byte	0x1
 4151 00cc 16       		.byte	0x16
 4152 00cd 13       		.byte	0x13
 4153 00ce 08       		.byte	0x8
 4154 00cf 20       		.byte	0x20
 4155 00d0 21       		.byte	0x21
 4156 00d1 40       		.byte	0x40
 4157 00d2 30       		.byte	0x30
 4158 00d3 74       		.byte	0x74
 4159 00d4 00       		.sleb128 0
 4160 00d5 33       		.byte	0x33
 4161 00d6 25       		.byte	0x25
 4162 00d7 30       		.byte	0x30
 4163 00d8 2E       		.byte	0x2e
 4164 00d9 28       		.byte	0x28
 4165 00da 0100     		.2byte	0x1
 4166 00dc 16       		.byte	0x16
 4167 00dd 13       		.byte	0x13
 4168 00de 34       		.byte	0x34
 4169 00df 21       		.byte	0x21
 4170 00e0 40       		.byte	0x40
 4171 00e1 30       		.byte	0x30
 4172 00e2 74       		.byte	0x74
 4173 00e3 00       		.sleb128 0
 4174 00e4 33       		.byte	0x33
 4175 00e5 25       		.byte	0x25
 4176 00e6 30       		.byte	0x30
 4177 00e7 2E       		.byte	0x2e
 4178 00e8 28       		.byte	0x28
 4179 00e9 0100     		.2byte	0x1
 4180 00eb 16       		.byte	0x16
 4181 00ec 13       		.byte	0x13
 4182 00ed 74       		.byte	0x74
 4183 00ee 00       		.sleb128 0
 4184 00ef 4F       		.byte	0x4f
 4185 00f0 24       		.byte	0x24
 4186 00f1 30       		.byte	0x30
 4187 00f2 2D       		.byte	0x2d
 4188 00f3 28       		.byte	0x28
 4189 00f4 0100     		.2byte	0x1
 4190 00f6 16       		.byte	0x16
 4191 00f7 13       		.byte	0x13
 4192 00f8 38       		.byte	0x38
 4193 00f9 21       		.byte	0x21
 4194 00fa 40       		.byte	0x40
ARM GAS  C:\Users\jsyoon\AppData\Local\Temp\ccXoI9ru.s 			page 75


 4195 00fb 30       		.byte	0x30
 4196 00fc 74       		.byte	0x74
 4197 00fd 00       		.sleb128 0
 4198 00fe 33       		.byte	0x33
 4199 00ff 25       		.byte	0x25
 4200 0100 30       		.byte	0x30
 4201 0101 2E       		.byte	0x2e
 4202 0102 28       		.byte	0x28
 4203 0103 0100     		.2byte	0x1
 4204 0105 16       		.byte	0x16
 4205 0106 13       		.byte	0x13
 4206 0107 34       		.byte	0x34
 4207 0108 21       		.byte	0x21
 4208 0109 40       		.byte	0x40
 4209 010a 30       		.byte	0x30
 4210 010b 74       		.byte	0x74
 4211 010c 00       		.sleb128 0
 4212 010d 33       		.byte	0x33
 4213 010e 25       		.byte	0x25
 4214 010f 30       		.byte	0x30
 4215 0110 2E       		.byte	0x2e
 4216 0111 28       		.byte	0x28
 4217 0112 0100     		.2byte	0x1
 4218 0114 16       		.byte	0x16
 4219 0115 13       		.byte	0x13
 4220 0116 74       		.byte	0x74
 4221 0117 00       		.sleb128 0
 4222 0118 4F       		.byte	0x4f
 4223 0119 24       		.byte	0x24
 4224 011a 30       		.byte	0x30
 4225 011b 2D       		.byte	0x2d
 4226 011c 28       		.byte	0x28
 4227 011d 0100     		.2byte	0x1
 4228 011f 16       		.byte	0x16
 4229 0120 13       		.byte	0x13
 4230 0121 74       		.byte	0x74
 4231 0122 00       		.sleb128 0
 4232 0123 4E       		.byte	0x4e
 4233 0124 24       		.byte	0x24
 4234 0125 30       		.byte	0x30
 4235 0126 2D       		.byte	0x2d
 4236 0127 28       		.byte	0x28
 4237 0128 0100     		.2byte	0x1
 4238 012a 16       		.byte	0x16
 4239 012b 13       		.byte	0x13
 4240 012c 74       		.byte	0x74
 4241 012d 00       		.sleb128 0
 4242 012e 4D       		.byte	0x4d
 4243 012f 24       		.byte	0x24
 4244 0130 30       		.byte	0x30
 4245 0131 2D       		.byte	0x2d
 4246 0132 28       		.byte	0x28
 4247 0133 0100     		.2byte	0x1
 4248 0135 16       		.byte	0x16
 4249 0136 13       		.byte	0x13
 4250 0137 08       		.byte	0x8
 4251 0138 40       		.byte	0x40
ARM GAS  C:\Users\jsyoon\AppData\Local\Temp\ccXoI9ru.s 			page 76


 4252 0139 21       		.byte	0x21
 4253 013a 40       		.byte	0x40
 4254 013b 30       		.byte	0x30
 4255 013c 74       		.byte	0x74
 4256 013d 00       		.sleb128 0
 4257 013e 33       		.byte	0x33
 4258 013f 25       		.byte	0x25
 4259 0140 30       		.byte	0x30
 4260 0141 2E       		.byte	0x2e
 4261 0142 28       		.byte	0x28
 4262 0143 0100     		.2byte	0x1
 4263 0145 16       		.byte	0x16
 4264 0146 13       		.byte	0x13
 4265 0147 34       		.byte	0x34
 4266 0148 21       		.byte	0x21
 4267 0149 40       		.byte	0x40
 4268 014a 30       		.byte	0x30
 4269 014b 74       		.byte	0x74
 4270 014c 00       		.sleb128 0
 4271 014d 33       		.byte	0x33
 4272 014e 25       		.byte	0x25
 4273 014f 30       		.byte	0x30
 4274 0150 2E       		.byte	0x2e
 4275 0151 28       		.byte	0x28
 4276 0152 0100     		.2byte	0x1
 4277 0154 16       		.byte	0x16
 4278 0155 13       		.byte	0x13
 4279 0156 74       		.byte	0x74
 4280 0157 00       		.sleb128 0
 4281 0158 4F       		.byte	0x4f
 4282 0159 24       		.byte	0x24
 4283 015a 30       		.byte	0x30
 4284 015b 2D       		.byte	0x2d
 4285 015c 28       		.byte	0x28
 4286 015d 0100     		.2byte	0x1
 4287 015f 16       		.byte	0x16
 4288 0160 13       		.byte	0x13
 4289 0161 38       		.byte	0x38
 4290 0162 21       		.byte	0x21
 4291 0163 40       		.byte	0x40
 4292 0164 30       		.byte	0x30
 4293 0165 74       		.byte	0x74
 4294 0166 00       		.sleb128 0
 4295 0167 33       		.byte	0x33
 4296 0168 25       		.byte	0x25
 4297 0169 30       		.byte	0x30
 4298 016a 2E       		.byte	0x2e
 4299 016b 28       		.byte	0x28
 4300 016c 0100     		.2byte	0x1
 4301 016e 16       		.byte	0x16
 4302 016f 13       		.byte	0x13
 4303 0170 34       		.byte	0x34
 4304 0171 21       		.byte	0x21
 4305 0172 40       		.byte	0x40
 4306 0173 30       		.byte	0x30
 4307 0174 74       		.byte	0x74
 4308 0175 00       		.sleb128 0
ARM GAS  C:\Users\jsyoon\AppData\Local\Temp\ccXoI9ru.s 			page 77


 4309 0176 33       		.byte	0x33
 4310 0177 25       		.byte	0x25
 4311 0178 30       		.byte	0x30
 4312 0179 2E       		.byte	0x2e
 4313 017a 28       		.byte	0x28
 4314 017b 0100     		.2byte	0x1
 4315 017d 16       		.byte	0x16
 4316 017e 13       		.byte	0x13
 4317 017f 74       		.byte	0x74
 4318 0180 00       		.sleb128 0
 4319 0181 4F       		.byte	0x4f
 4320 0182 24       		.byte	0x24
 4321 0183 30       		.byte	0x30
 4322 0184 2D       		.byte	0x2d
 4323 0185 28       		.byte	0x28
 4324 0186 0100     		.2byte	0x1
 4325 0188 16       		.byte	0x16
 4326 0189 13       		.byte	0x13
 4327 018a 74       		.byte	0x74
 4328 018b 00       		.sleb128 0
 4329 018c 4E       		.byte	0x4e
 4330 018d 24       		.byte	0x24
 4331 018e 30       		.byte	0x30
 4332 018f 2D       		.byte	0x2d
 4333 0190 28       		.byte	0x28
 4334 0191 0100     		.2byte	0x1
 4335 0193 16       		.byte	0x16
 4336 0194 13       		.byte	0x13
 4337 0195 08       		.byte	0x8
 4338 0196 20       		.byte	0x20
 4339 0197 21       		.byte	0x21
 4340 0198 40       		.byte	0x40
 4341 0199 30       		.byte	0x30
 4342 019a 74       		.byte	0x74
 4343 019b 00       		.sleb128 0
 4344 019c 33       		.byte	0x33
 4345 019d 25       		.byte	0x25
 4346 019e 30       		.byte	0x30
 4347 019f 2E       		.byte	0x2e
 4348 01a0 28       		.byte	0x28
 4349 01a1 0100     		.2byte	0x1
 4350 01a3 16       		.byte	0x16
 4351 01a4 13       		.byte	0x13
 4352 01a5 34       		.byte	0x34
 4353 01a6 21       		.byte	0x21
 4354 01a7 40       		.byte	0x40
 4355 01a8 30       		.byte	0x30
 4356 01a9 74       		.byte	0x74
 4357 01aa 00       		.sleb128 0
 4358 01ab 33       		.byte	0x33
 4359 01ac 25       		.byte	0x25
 4360 01ad 30       		.byte	0x30
 4361 01ae 2E       		.byte	0x2e
 4362 01af 28       		.byte	0x28
 4363 01b0 0100     		.2byte	0x1
 4364 01b2 16       		.byte	0x16
 4365 01b3 13       		.byte	0x13
ARM GAS  C:\Users\jsyoon\AppData\Local\Temp\ccXoI9ru.s 			page 78


 4366 01b4 74       		.byte	0x74
 4367 01b5 00       		.sleb128 0
 4368 01b6 4F       		.byte	0x4f
 4369 01b7 24       		.byte	0x24
 4370 01b8 30       		.byte	0x30
 4371 01b9 2D       		.byte	0x2d
 4372 01ba 28       		.byte	0x28
 4373 01bb 0100     		.2byte	0x1
 4374 01bd 16       		.byte	0x16
 4375 01be 13       		.byte	0x13
 4376 01bf 38       		.byte	0x38
 4377 01c0 21       		.byte	0x21
 4378 01c1 40       		.byte	0x40
 4379 01c2 30       		.byte	0x30
 4380 01c3 74       		.byte	0x74
 4381 01c4 00       		.sleb128 0
 4382 01c5 33       		.byte	0x33
 4383 01c6 25       		.byte	0x25
 4384 01c7 30       		.byte	0x30
 4385 01c8 2E       		.byte	0x2e
 4386 01c9 28       		.byte	0x28
 4387 01ca 0100     		.2byte	0x1
 4388 01cc 16       		.byte	0x16
 4389 01cd 13       		.byte	0x13
 4390 01ce 34       		.byte	0x34
 4391 01cf 21       		.byte	0x21
 4392 01d0 40       		.byte	0x40
 4393 01d1 30       		.byte	0x30
 4394 01d2 74       		.byte	0x74
 4395 01d3 00       		.sleb128 0
 4396 01d4 33       		.byte	0x33
 4397 01d5 25       		.byte	0x25
 4398 01d6 30       		.byte	0x30
 4399 01d7 2E       		.byte	0x2e
 4400 01d8 28       		.byte	0x28
 4401 01d9 0100     		.2byte	0x1
 4402 01db 16       		.byte	0x16
 4403 01dc 13       		.byte	0x13
 4404 01dd 74       		.byte	0x74
 4405 01de 00       		.sleb128 0
 4406 01df 4F       		.byte	0x4f
 4407 01e0 24       		.byte	0x24
 4408 01e1 30       		.byte	0x30
 4409 01e2 2D       		.byte	0x2d
 4410 01e3 28       		.byte	0x28
 4411 01e4 0100     		.2byte	0x1
 4412 01e6 16       		.byte	0x16
 4413 01e7 13       		.byte	0x13
 4414 01e8 74       		.byte	0x74
 4415 01e9 00       		.sleb128 0
 4416 01ea 4E       		.byte	0x4e
 4417 01eb 24       		.byte	0x24
 4418 01ec 30       		.byte	0x30
 4419 01ed 2D       		.byte	0x2d
 4420 01ee 28       		.byte	0x28
 4421 01ef 0100     		.2byte	0x1
 4422 01f1 16       		.byte	0x16
ARM GAS  C:\Users\jsyoon\AppData\Local\Temp\ccXoI9ru.s 			page 79


 4423 01f2 13       		.byte	0x13
 4424 01f3 74       		.byte	0x74
 4425 01f4 00       		.sleb128 0
 4426 01f5 4D       		.byte	0x4d
 4427 01f6 24       		.byte	0x24
 4428 01f7 30       		.byte	0x30
 4429 01f8 2D       		.byte	0x2d
 4430 01f9 28       		.byte	0x28
 4431 01fa 0100     		.2byte	0x1
 4432 01fc 16       		.byte	0x16
 4433 01fd 13       		.byte	0x13
 4434 01fe 74       		.byte	0x74
 4435 01ff 00       		.sleb128 0
 4436 0200 47       		.byte	0x47
 4437 0201 24       		.byte	0x24
 4438 0202 30       		.byte	0x30
 4439 0203 2D       		.byte	0x2d
 4440 0204 28       		.byte	0x28
 4441 0205 0100     		.2byte	0x1
 4442 0207 16       		.byte	0x16
 4443 0208 13       		.byte	0x13
 4444 0209 9F       		.byte	0x9f
 4445 020a 00000000 		.4byte	0
 4446 020e 00000000 		.4byte	0
 4447              	.LLST4:
 4448 0212 00000000 		.4byte	.LVL14
 4449 0216 0A000000 		.4byte	.LVL15
 4450 021a 0100     		.2byte	0x1
 4451 021c 50       		.byte	0x50
 4452 021d 0A000000 		.4byte	.LVL15
 4453 0221 42000000 		.4byte	.LVL18
 4454 0225 0100     		.2byte	0x1
 4455 0227 54       		.byte	0x54
 4456 0228 42000000 		.4byte	.LVL18
 4457 022c 45000000 		.4byte	.LVL19-1
 4458 0230 0100     		.2byte	0x1
 4459 0232 50       		.byte	0x50
 4460 0233 45000000 		.4byte	.LVL19-1
 4461 0237 48000000 		.4byte	.LFE123
 4462 023b 0100     		.2byte	0x1
 4463 023d 54       		.byte	0x54
 4464 023e 00000000 		.4byte	0
 4465 0242 00000000 		.4byte	0
 4466              	.LLST5:
 4467 0246 00000000 		.4byte	.LVL14
 4468 024a 0A000000 		.4byte	.LVL15
 4469 024e 0100     		.2byte	0x1
 4470 0250 51       		.byte	0x51
 4471 0251 0A000000 		.4byte	.LVL15
 4472 0255 42000000 		.4byte	.LVL18
 4473 0259 0400     		.2byte	0x4
 4474 025b F3       		.byte	0xf3
 4475 025c 01       		.uleb128 0x1
 4476 025d 51       		.byte	0x51
 4477 025e 9F       		.byte	0x9f
 4478 025f 42000000 		.4byte	.LVL18
 4479 0263 45000000 		.4byte	.LVL19-1
ARM GAS  C:\Users\jsyoon\AppData\Local\Temp\ccXoI9ru.s 			page 80


 4480 0267 0100     		.2byte	0x1
 4481 0269 51       		.byte	0x51
 4482 026a 45000000 		.4byte	.LVL19-1
 4483 026e 48000000 		.4byte	.LFE123
 4484 0272 0400     		.2byte	0x4
 4485 0274 F3       		.byte	0xf3
 4486 0275 01       		.uleb128 0x1
 4487 0276 51       		.byte	0x51
 4488 0277 9F       		.byte	0x9f
 4489 0278 00000000 		.4byte	0
 4490 027c 00000000 		.4byte	0
 4491              	.LLST6:
 4492 0280 00000000 		.4byte	.LVL20
 4493 0284 0A000000 		.4byte	.LVL21
 4494 0288 0100     		.2byte	0x1
 4495 028a 50       		.byte	0x50
 4496 028b 0A000000 		.4byte	.LVL21
 4497 028f 82000000 		.4byte	.LVL27
 4498 0293 0100     		.2byte	0x1
 4499 0295 54       		.byte	0x54
 4500 0296 82000000 		.4byte	.LVL27
 4501 029a 85000000 		.4byte	.LVL28-1
 4502 029e 0100     		.2byte	0x1
 4503 02a0 50       		.byte	0x50
 4504 02a1 85000000 		.4byte	.LVL28-1
 4505 02a5 88000000 		.4byte	.LFE122
 4506 02a9 0100     		.2byte	0x1
 4507 02ab 54       		.byte	0x54
 4508 02ac 00000000 		.4byte	0
 4509 02b0 00000000 		.4byte	0
 4510              	.LLST7:
 4511 02b4 00000000 		.4byte	.LVL20
 4512 02b8 0A000000 		.4byte	.LVL21
 4513 02bc 0100     		.2byte	0x1
 4514 02be 51       		.byte	0x51
 4515 02bf 0A000000 		.4byte	.LVL21
 4516 02c3 82000000 		.4byte	.LVL27
 4517 02c7 0400     		.2byte	0x4
 4518 02c9 F3       		.byte	0xf3
 4519 02ca 01       		.uleb128 0x1
 4520 02cb 51       		.byte	0x51
 4521 02cc 9F       		.byte	0x9f
 4522 02cd 82000000 		.4byte	.LVL27
 4523 02d1 85000000 		.4byte	.LVL28-1
 4524 02d5 0100     		.2byte	0x1
 4525 02d7 51       		.byte	0x51
 4526 02d8 85000000 		.4byte	.LVL28-1
 4527 02dc 88000000 		.4byte	.LFE122
 4528 02e0 0400     		.2byte	0x4
 4529 02e2 F3       		.byte	0xf3
 4530 02e3 01       		.uleb128 0x1
 4531 02e4 51       		.byte	0x51
 4532 02e5 9F       		.byte	0x9f
 4533 02e6 00000000 		.4byte	0
 4534 02ea 00000000 		.4byte	0
 4535              	.LLST8:
 4536 02ee 20000000 		.4byte	.LVL23
ARM GAS  C:\Users\jsyoon\AppData\Local\Temp\ccXoI9ru.s 			page 81


 4537 02f2 80000000 		.4byte	.LVL26
 4538 02f6 0400     		.2byte	0x4
 4539 02f8 F3       		.byte	0xf3
 4540 02f9 01       		.uleb128 0x1
 4541 02fa 51       		.byte	0x51
 4542 02fb 9F       		.byte	0x9f
 4543 02fc 00000000 		.4byte	0
 4544 0300 00000000 		.4byte	0
 4545              	.LLST9:
 4546 0304 20000000 		.4byte	.LVL23
 4547 0308 80000000 		.4byte	.LVL26
 4548 030c 0100     		.2byte	0x1
 4549 030e 54       		.byte	0x54
 4550 030f 00000000 		.4byte	0
 4551 0313 00000000 		.4byte	0
 4552              	.LLST10:
 4553 0317 74000000 		.4byte	.LVL25
 4554 031b 80000000 		.4byte	.LVL26
 4555 031f 0100     		.2byte	0x1
 4556 0321 54       		.byte	0x54
 4557 0322 00000000 		.4byte	0
 4558 0326 00000000 		.4byte	0
 4559              	.LLST11:
 4560 032a 00000000 		.4byte	.LVL35
 4561 032e 0E000000 		.4byte	.LVL36
 4562 0332 0100     		.2byte	0x1
 4563 0334 50       		.byte	0x50
 4564 0335 0E000000 		.4byte	.LVL36
 4565 0339 88000000 		.4byte	.LVL41
 4566 033d 0100     		.2byte	0x1
 4567 033f 54       		.byte	0x54
 4568 0340 88000000 		.4byte	.LVL41
 4569 0344 A4000000 		.4byte	.LVL43
 4570 0348 0300     		.2byte	0x3
 4571 034a 74       		.byte	0x74
 4572 034b 68       		.sleb128 -24
 4573 034c 9F       		.byte	0x9f
 4574 034d A4000000 		.4byte	.LVL43
 4575 0351 B0000000 		.4byte	.LVL44
 4576 0355 0100     		.2byte	0x1
 4577 0357 50       		.byte	0x50
 4578 0358 B0000000 		.4byte	.LVL44
 4579 035c EE000000 		.4byte	.LVL47
 4580 0360 0100     		.2byte	0x1
 4581 0362 54       		.byte	0x54
 4582 0363 EE000000 		.4byte	.LVL47
 4583 0367 F2000000 		.4byte	.LVL48
 4584 036b 0100     		.2byte	0x1
 4585 036d 50       		.byte	0x50
 4586 036e F2000000 		.4byte	.LVL48
 4587 0372 22010000 		.4byte	.LVL52
 4588 0376 0100     		.2byte	0x1
 4589 0378 54       		.byte	0x54
 4590 0379 22010000 		.4byte	.LVL52
 4591 037d 26010000 		.4byte	.LVL53
 4592 0381 0100     		.2byte	0x1
 4593 0383 50       		.byte	0x50
ARM GAS  C:\Users\jsyoon\AppData\Local\Temp\ccXoI9ru.s 			page 82


 4594 0384 26010000 		.4byte	.LVL53
 4595 0388 78010000 		.4byte	.LFE128
 4596 038c 0100     		.2byte	0x1
 4597 038e 54       		.byte	0x54
 4598 038f 00000000 		.4byte	0
 4599 0393 00000000 		.4byte	0
 4600              	.LLST12:
 4601 0397 14000000 		.4byte	.LVL37
 4602 039b 88000000 		.4byte	.LVL41
 4603 039f 0100     		.2byte	0x1
 4604 03a1 54       		.byte	0x54
 4605 03a2 88000000 		.4byte	.LVL41
 4606 03a6 A4000000 		.4byte	.LVL43
 4607 03aa 0300     		.2byte	0x3
 4608 03ac 74       		.byte	0x74
 4609 03ad 68       		.sleb128 -24
 4610 03ae 9F       		.byte	0x9f
 4611 03af D4000000 		.4byte	.LVL45
 4612 03b3 E4000000 		.4byte	.LVL46
 4613 03b7 0100     		.2byte	0x1
 4614 03b9 54       		.byte	0x54
 4615 03ba 00000000 		.4byte	0
 4616 03be 00000000 		.4byte	0
 4617              	.LLST13:
 4618 03c2 5E000000 		.4byte	.LVL39
 4619 03c6 78000000 		.4byte	.LVL40
 4620 03ca 0100     		.2byte	0x1
 4621 03cc 50       		.byte	0x50
 4622 03cd 78000000 		.4byte	.LVL40
 4623 03d1 A4000000 		.4byte	.LVL43
 4624 03d5 1000     		.2byte	0x10
 4625 03d7 0A       		.byte	0xa
 4626 03d8 4C21     		.2byte	0x214c
 4627 03da 0A       		.byte	0xa
 4628 03db 0C21     		.2byte	0x210c
 4629 03dd 79       		.byte	0x79
 4630 03de 00       		.sleb128 0
 4631 03df 30       		.byte	0x30
 4632 03e0 2E       		.byte	0x2e
 4633 03e1 28       		.byte	0x28
 4634 03e2 0100     		.2byte	0x1
 4635 03e4 16       		.byte	0x16
 4636 03e5 13       		.byte	0x13
 4637 03e6 9F       		.byte	0x9f
 4638 03e7 00000000 		.4byte	0
 4639 03eb 00000000 		.4byte	0
 4640              	.LLST14:
 4641 03ef 14000000 		.4byte	.LVL37
 4642 03f3 A4000000 		.4byte	.LVL43
 4643 03f7 0100     		.2byte	0x1
 4644 03f9 55       		.byte	0x55
 4645 03fa D4000000 		.4byte	.LVL45
 4646 03fe E4000000 		.4byte	.LVL46
 4647 0402 0100     		.2byte	0x1
 4648 0404 55       		.byte	0x55
 4649 0405 00000000 		.4byte	0
 4650 0409 00000000 		.4byte	0
ARM GAS  C:\Users\jsyoon\AppData\Local\Temp\ccXoI9ru.s 			page 83


 4651              	.LLST15:
 4652 040d 92000000 		.4byte	.LVL42
 4653 0411 A4000000 		.4byte	.LVL43
 4654 0415 0300     		.2byte	0x3
 4655 0417 74       		.byte	0x74
 4656 0418 68       		.sleb128 -24
 4657 0419 9F       		.byte	0x9f
 4658 041a 00000000 		.4byte	0
 4659 041e 00000000 		.4byte	0
 4660              	.LLST16:
 4661 0422 00000000 		.4byte	.LVL57
 4662 0426 0A000000 		.4byte	.LVL58
 4663 042a 0100     		.2byte	0x1
 4664 042c 50       		.byte	0x50
 4665 042d 0A000000 		.4byte	.LVL58
 4666 0431 0C000000 		.4byte	.LVL59
 4667 0435 0100     		.2byte	0x1
 4668 0437 54       		.byte	0x54
 4669 0438 0C000000 		.4byte	.LVL59
 4670 043c 0F000000 		.4byte	.LVL60-1
 4671 0440 0100     		.2byte	0x1
 4672 0442 50       		.byte	0x50
 4673 0443 0F000000 		.4byte	.LVL60-1
 4674 0447 4C000000 		.4byte	.LVL65
 4675 044b 0100     		.2byte	0x1
 4676 044d 54       		.byte	0x54
 4677 044e 4C000000 		.4byte	.LVL65
 4678 0452 58000000 		.4byte	.LFE129
 4679 0456 0400     		.2byte	0x4
 4680 0458 F3       		.byte	0xf3
 4681 0459 01       		.uleb128 0x1
 4682 045a 50       		.byte	0x50
 4683 045b 9F       		.byte	0x9f
 4684 045c 00000000 		.4byte	0
 4685 0460 00000000 		.4byte	0
 4686              	.LLST17:
 4687 0464 00000000 		.4byte	.LVL66
 4688 0468 04000000 		.4byte	.LVL67
 4689 046c 0100     		.2byte	0x1
 4690 046e 50       		.byte	0x50
 4691 046f 04000000 		.4byte	.LVL67
 4692 0473 1A000000 		.4byte	.LFE130
 4693 0477 0400     		.2byte	0x4
 4694 0479 F3       		.byte	0xf3
 4695 047a 01       		.uleb128 0x1
 4696 047b 50       		.byte	0x50
 4697 047c 9F       		.byte	0x9f
 4698 047d 00000000 		.4byte	0
 4699 0481 00000000 		.4byte	0
 4700              	.LLST18:
 4701 0485 00000000 		.4byte	.LVL66
 4702 0489 12000000 		.4byte	.LVL68
 4703 048d 0100     		.2byte	0x1
 4704 048f 52       		.byte	0x52
 4705 0490 12000000 		.4byte	.LVL68
 4706 0494 1A000000 		.4byte	.LFE130
 4707 0498 0400     		.2byte	0x4
ARM GAS  C:\Users\jsyoon\AppData\Local\Temp\ccXoI9ru.s 			page 84


 4708 049a F3       		.byte	0xf3
 4709 049b 01       		.uleb128 0x1
 4710 049c 52       		.byte	0x52
 4711 049d 9F       		.byte	0x9f
 4712 049e 00000000 		.4byte	0
 4713 04a2 00000000 		.4byte	0
 4714              	.LLST19:
 4715 04a6 00000000 		.4byte	.LVL69
 4716 04aa 14000000 		.4byte	.LVL70
 4717 04ae 0100     		.2byte	0x1
 4718 04b0 50       		.byte	0x50
 4719 04b1 14000000 		.4byte	.LVL70
 4720 04b5 20000000 		.4byte	.LFE131
 4721 04b9 0400     		.2byte	0x4
 4722 04bb F3       		.byte	0xf3
 4723 04bc 01       		.uleb128 0x1
 4724 04bd 50       		.byte	0x50
 4725 04be 9F       		.byte	0x9f
 4726 04bf 00000000 		.4byte	0
 4727 04c3 00000000 		.4byte	0
 4728              	.LLST20:
 4729 04c7 00000000 		.4byte	.LVL72
 4730 04cb 04000000 		.4byte	.LVL73
 4731 04cf 0100     		.2byte	0x1
 4732 04d1 50       		.byte	0x50
 4733 04d2 04000000 		.4byte	.LVL73
 4734 04d6 38000000 		.4byte	.LVL76
 4735 04da 0100     		.2byte	0x1
 4736 04dc 51       		.byte	0x51
 4737 04dd 38000000 		.4byte	.LVL76
 4738 04e1 4A000000 		.4byte	.LFE133
 4739 04e5 0400     		.2byte	0x4
 4740 04e7 F3       		.byte	0xf3
 4741 04e8 01       		.uleb128 0x1
 4742 04e9 50       		.byte	0x50
 4743 04ea 9F       		.byte	0x9f
 4744 04eb 00000000 		.4byte	0
 4745 04ef 00000000 		.4byte	0
 4746              	.LLST21:
 4747 04f3 28000000 		.4byte	.LVL74
 4748 04f7 38000000 		.4byte	.LVL76
 4749 04fb 0100     		.2byte	0x1
 4750 04fd 51       		.byte	0x51
 4751 04fe 38000000 		.4byte	.LVL76
 4752 0502 4A000000 		.4byte	.LFE133
 4753 0506 0300     		.2byte	0x3
 4754 0508 71       		.byte	0x71
 4755 0509 68       		.sleb128 -24
 4756 050a 9F       		.byte	0x9f
 4757 050b 00000000 		.4byte	0
 4758 050f 00000000 		.4byte	0
 4759              	.LLST22:
 4760 0513 34000000 		.4byte	.LVL75
 4761 0517 3A000000 		.4byte	.LVL77
 4762 051b 0100     		.2byte	0x1
 4763 051d 54       		.byte	0x54
 4764 051e 00000000 		.4byte	0
ARM GAS  C:\Users\jsyoon\AppData\Local\Temp\ccXoI9ru.s 			page 85


 4765 0522 00000000 		.4byte	0
 4766              		.section	.debug_aranges,"",%progbits
 4767 0000 7C000000 		.4byte	0x7c
 4768 0004 0200     		.2byte	0x2
 4769 0006 00000000 		.4byte	.Ldebug_info0
 4770 000a 04       		.byte	0x4
 4771 000b 00       		.byte	0
 4772 000c 0000     		.2byte	0
 4773 000e 0000     		.2byte	0
 4774 0010 00000000 		.4byte	.LFB120
 4775 0014 48000000 		.4byte	.LFE120-.LFB120
 4776 0018 00000000 		.4byte	.LFB124
 4777 001c 64000000 		.4byte	.LFE124-.LFB124
 4778 0020 00000000 		.4byte	.LFB123
 4779 0024 48000000 		.4byte	.LFE123-.LFB123
 4780 0028 00000000 		.4byte	.LFB122
 4781 002c 88000000 		.4byte	.LFE122-.LFB122
 4782 0030 00000000 		.4byte	.LFB125
 4783 0034 14000000 		.4byte	.LFE125-.LFB125
 4784 0038 00000000 		.4byte	.LFB126
 4785 003c 14000000 		.4byte	.LFE126-.LFB126
 4786 0040 00000000 		.4byte	.LFB127
 4787 0044 48000000 		.4byte	.LFE127-.LFB127
 4788 0048 00000000 		.4byte	.LFB128
 4789 004c 78010000 		.4byte	.LFE128-.LFB128
 4790 0050 00000000 		.4byte	.LFB129
 4791 0054 58000000 		.4byte	.LFE129-.LFB129
 4792 0058 00000000 		.4byte	.LFB130
 4793 005c 1A000000 		.4byte	.LFE130-.LFB130
 4794 0060 00000000 		.4byte	.LFB131
 4795 0064 20000000 		.4byte	.LFE131-.LFB131
 4796 0068 00000000 		.4byte	.LFB132
 4797 006c 36000000 		.4byte	.LFE132-.LFB132
 4798 0070 00000000 		.4byte	.LFB133
 4799 0074 4A000000 		.4byte	.LFE133-.LFB133
 4800 0078 00000000 		.4byte	0
 4801 007c 00000000 		.4byte	0
 4802              		.section	.debug_ranges,"",%progbits
 4803              	.Ldebug_ranges0:
 4804 0000 58000000 		.4byte	.LBB20
 4805 0004 6A000000 		.4byte	.LBE20
 4806 0008 6C000000 		.4byte	.LBB24
 4807 000c 72000000 		.4byte	.LBE24
 4808 0010 74000000 		.4byte	.LBB25
 4809 0014 82000000 		.4byte	.LBE25
 4810 0018 00000000 		.4byte	0
 4811 001c 00000000 		.4byte	0
 4812 0020 14000000 		.4byte	.LBB32
 4813 0024 A4000000 		.4byte	.LBE32
 4814 0028 D4000000 		.4byte	.LBB49
 4815 002c E4000000 		.4byte	.LBE49
 4816 0030 00000000 		.4byte	0
 4817 0034 00000000 		.4byte	0
 4818 0038 38000000 		.4byte	.LBB34
 4819 003c 3C000000 		.4byte	.LBE34
 4820 0040 48000000 		.4byte	.LBB42
 4821 0044 4A000000 		.4byte	.LBE42
ARM GAS  C:\Users\jsyoon\AppData\Local\Temp\ccXoI9ru.s 			page 86


 4822 0048 5E000000 		.4byte	.LBB43
 4823 004c 6C000000 		.4byte	.LBE43
 4824 0050 7A000000 		.4byte	.LBB44
 4825 0054 7E000000 		.4byte	.LBE44
 4826 0058 82000000 		.4byte	.LBB45
 4827 005c 84000000 		.4byte	.LBE45
 4828 0060 86000000 		.4byte	.LBB46
 4829 0064 88000000 		.4byte	.LBE46
 4830 0068 92000000 		.4byte	.LBB47
 4831 006c A4000000 		.4byte	.LBE47
 4832 0070 00000000 		.4byte	0
 4833 0074 00000000 		.4byte	0
 4834 0078 16000000 		.4byte	.LBB52
 4835 007c 18000000 		.4byte	.LBE52
 4836 0080 1A000000 		.4byte	.LBB57
 4837 0084 1C000000 		.4byte	.LBE57
 4838 0088 24000000 		.4byte	.LBB58
 4839 008c 26000000 		.4byte	.LBE58
 4840 0090 28000000 		.4byte	.LBB59
 4841 0094 46000000 		.4byte	.LBE59
 4842 0098 00000000 		.4byte	0
 4843 009c 00000000 		.4byte	0
 4844 00a0 00000000 		.4byte	.LFB120
 4845 00a4 48000000 		.4byte	.LFE120
 4846 00a8 00000000 		.4byte	.LFB124
 4847 00ac 64000000 		.4byte	.LFE124
 4848 00b0 00000000 		.4byte	.LFB123
 4849 00b4 48000000 		.4byte	.LFE123
 4850 00b8 00000000 		.4byte	.LFB122
 4851 00bc 88000000 		.4byte	.LFE122
 4852 00c0 00000000 		.4byte	.LFB125
 4853 00c4 14000000 		.4byte	.LFE125
 4854 00c8 00000000 		.4byte	.LFB126
 4855 00cc 14000000 		.4byte	.LFE126
 4856 00d0 00000000 		.4byte	.LFB127
 4857 00d4 48000000 		.4byte	.LFE127
 4858 00d8 00000000 		.4byte	.LFB128
 4859 00dc 78010000 		.4byte	.LFE128
 4860 00e0 00000000 		.4byte	.LFB129
 4861 00e4 58000000 		.4byte	.LFE129
 4862 00e8 00000000 		.4byte	.LFB130
 4863 00ec 1A000000 		.4byte	.LFE130
 4864 00f0 00000000 		.4byte	.LFB131
 4865 00f4 20000000 		.4byte	.LFE131
 4866 00f8 00000000 		.4byte	.LFB132
 4867 00fc 36000000 		.4byte	.LFE132
 4868 0100 00000000 		.4byte	.LFB133
 4869 0104 4A000000 		.4byte	.LFE133
 4870 0108 00000000 		.4byte	0
 4871 010c 00000000 		.4byte	0
 4872              		.section	.debug_line,"",%progbits
 4873              	.Ldebug_line0:
 4874 0000 9D050000 		.section	.debug_str,"MS",%progbits,1
 4874      02007B02 
 4874      00000201 
 4874      FB0E0D00 
 4874      01010101 
ARM GAS  C:\Users\jsyoon\AppData\Local\Temp\ccXoI9ru.s 			page 87


 4875              	.LASF114:
 4876 0000 75617274 		.ascii	"uart_lld_start_receive\000"
 4876      5F6C6C64 
 4876      5F737461 
 4876      72745F72 
 4876      65636569 
 4877              	.LASF85:
 4878 0017 646D6172 		.ascii	"dmarx\000"
 4878      7800
 4879              	.LASF46:
 4880 001d 41504231 		.ascii	"APB1LPENR\000"
 4880      4C50454E 
 4880      5200
 4881              	.LASF77:
 4882 0027 75617274 		.ascii	"uartflags_t\000"
 4882      666C6167 
 4882      735F7400 
 4883              	.LASF74:
 4884 0033 55415254 		.ascii	"UART_RX_ACTIVE\000"
 4884      5F52585F 
 4884      41435449 
 4884      564500
 4885              	.LASF23:
 4886 0042 4D304152 		.ascii	"M0AR\000"
 4886      00
 4887              	.LASF2:
 4888 0047 73697A65 		.ascii	"size_t\000"
 4888      5F7400
 4889              	.LASF94:
 4890 004e 72786368 		.ascii	"rxchar_cb\000"
 4890      61725F63 
 4890      6200
 4891              	.LASF3:
 4892 0058 5F5F7569 		.ascii	"__uint8_t\000"
 4892      6E74385F 
 4892      7400
 4893              	.LASF123:
 4894 0062 75617274 		.ascii	"uartObjectInit\000"
 4894      4F626A65 
 4894      6374496E 
 4894      697400
 4895              	.LASF87:
 4896 0071 72786275 		.ascii	"rxbuf\000"
 4896      6600
 4897              	.LASF103:
 4898 0077 75736172 		.ascii	"usart_stop\000"
 4898      745F7374 
 4898      6F7000
 4899              	.LASF13:
 4900 0082 6C6F6E67 		.ascii	"long long unsigned int\000"
 4900      206C6F6E 
 4900      6720756E 
 4900      7369676E 
 4900      65642069 
 4901              	.LASF89:
 4902 0099 75617274 		.ascii	"uartccb_t\000"
 4902      6363625F 
ARM GAS  C:\Users\jsyoon\AppData\Local\Temp\ccXoI9ru.s 			page 88


 4902      7400
 4903              	.LASF62:
 4904 00a3 76656374 		.ascii	"vector\000"
 4904      6F7200
 4905              	.LASF118:
 4906 00aa 5F73746D 		.ascii	"_stm32_dma_streams\000"
 4906      33325F64 
 4906      6D615F73 
 4906      74726561 
 4906      6D7300
 4907              	.LASF97:
 4908 00bd 55415254 		.ascii	"UARTConfig\000"
 4908      436F6E66 
 4908      696700
 4909              	.LASF117:
 4910 00c8 49544D5F 		.ascii	"ITM_RxBuffer\000"
 4910      52784275 
 4910      66666572 
 4910      00
 4911              	.LASF18:
 4912 00d5 626F6F6C 		.ascii	"bool_t\000"
 4912      5F7400
 4913              	.LASF124:
 4914 00dc 6E766963 		.ascii	"nvicEnableVector\000"
 4914      456E6162 
 4914      6C655665 
 4914      63746F72 
 4914      00
 4915              	.LASF116:
 4916 00ed 75617274 		.ascii	"uart_lld_stop_receive\000"
 4916      5F6C6C64 
 4916      5F73746F 
 4916      705F7265 
 4916      63656976 
 4917              	.LASF12:
 4918 0103 6C6F6E67 		.ascii	"long long int\000"
 4918      206C6F6E 
 4918      6720696E 
 4918      7400
 4919              	.LASF1:
 4920 0111 7369676E 		.ascii	"signed char\000"
 4920      65642063 
 4920      68617200 
 4921              	.LASF88:
 4922 011d 75617274 		.ascii	"uartcb_t\000"
 4922      63625F74 
 4922      00
 4923              	.LASF28:
 4924 0126 41484231 		.ascii	"AHB1RSTR\000"
 4924      52535452 
 4924      00
 4925              	.LASF56:
 4926 012f 47545052 		.ascii	"GTPR\000"
 4926      00
 4927              	.LASF81:
 4928 0134 72787374 		.ascii	"rxstate\000"
 4928      61746500 
ARM GAS  C:\Users\jsyoon\AppData\Local\Temp\ccXoI9ru.s 			page 89


 4929              	.LASF128:
 4930 013c 453A5C4D 		.ascii	"E:\\Maker\\BLDC\\test_eval\\try2\\OROCA-BLDC_R15080"
 4930      616B6572 
 4930      5C424C44 
 4930      435C7465 
 4930      73745F65 
 4931 016a 3700     		.ascii	"7\000"
 4932              	.LASF79:
 4933 016c 73746174 		.ascii	"state\000"
 4933      6500
 4934              	.LASF80:
 4935 0172 74787374 		.ascii	"txstate\000"
 4935      61746500 
 4936              	.LASF9:
 4937 017a 6C6F6E67 		.ascii	"long int\000"
 4937      20696E74 
 4937      00
 4938              	.LASF33:
 4939 0183 41504232 		.ascii	"APB2RSTR\000"
 4939      52535452 
 4939      00
 4940              	.LASF126:
 4941 018c 474E5520 		.ascii	"GNU C 4.8.4 20140526 (release) [ARM/embedded-4_8-br"
 4941      4320342E 
 4941      382E3420 
 4941      32303134 
 4941      30353236 
 4942 01bf 616E6368 		.ascii	"anch revision 211358] -mcpu=cortex-m4 -mfloat-abi=h"
 4942      20726576 
 4942      6973696F 
 4942      6E203231 
 4942      31333538 
 4943 01f2 61726420 		.ascii	"ard -mfpu=fpv4-sp-d16 -mno-thumb-interwork -mthumb "
 4943      2D6D6670 
 4943      753D6670 
 4943      76342D73 
 4943      702D6431 
 4944 0225 2D676764 		.ascii	"-ggdb -O2 -std=gnu99 -fomit-frame-pointer -falign-f"
 4944      62202D4F 
 4944      32202D73 
 4944      74643D67 
 4944      6E753939 
 4945 0258 756E6374 		.ascii	"unctions=16 -ffunction-sections -fdata-sections -fn"
 4945      696F6E73 
 4945      3D313620 
 4945      2D666675 
 4945      6E637469 
 4946 028b 6F2D636F 		.ascii	"o-common -fsingle-precision-constant\000"
 4946      6D6D6F6E 
 4946      202D6673 
 4946      696E676C 
 4946      652D7072 
 4947              	.LASF15:
 4948 02b0 75696E74 		.ascii	"uint16_t\000"
 4948      31365F74 
 4948      00
 4949              	.LASF108:
ARM GAS  C:\Users\jsyoon\AppData\Local\Temp\ccXoI9ru.s 			page 90


 4950 02b9 75617274 		.ascii	"uart_lld_init\000"
 4950      5F6C6C64 
 4950      5F696E69 
 4950      7400
 4951              	.LASF121:
 4952 02c7 706F7274 		.ascii	"port_halt\000"
 4952      5F68616C 
 4952      7400
 4953              	.LASF26:
 4954 02d1 504C4C43 		.ascii	"PLLCFGR\000"
 4954      46475200 
 4955              	.LASF76:
 4956 02d9 75617274 		.ascii	"uartrxstate_t\000"
 4956      72787374 
 4956      6174655F 
 4956      7400
 4957              	.LASF127:
 4958 02e7 43686962 		.ascii	"ChibiOS_2.6.6/os/hal/platforms/STM32/USARTv1/uart_l"
 4958      694F535F 
 4958      322E362E 
 4958      362F6F73 
 4958      2F68616C 
 4959 031a 6C642E63 		.ascii	"ld.c\000"
 4959      00
 4960              	.LASF110:
 4961 031f 75617274 		.ascii	"uart_lld_start\000"
 4961      5F6C6C64 
 4961      5F737461 
 4961      727400
 4962              	.LASF78:
 4963 032e 55415254 		.ascii	"UARTDriver\000"
 4963      44726976 
 4963      657200
 4964              	.LASF10:
 4965 0339 5F5F7569 		.ascii	"__uint32_t\000"
 4965      6E743332 
 4965      5F7400
 4966              	.LASF61:
 4967 0344 73656C66 		.ascii	"selfindex\000"
 4967      696E6465 
 4967      7800
 4968              	.LASF98:
 4969 034e 7365745F 		.ascii	"set_rx_idle_loop\000"
 4969      72785F69 
 4969      646C655F 
 4969      6C6F6F70 
 4969      00
 4970              	.LASF67:
 4971 035f 55415254 		.ascii	"UART_READY\000"
 4971      5F524541 
 4971      445900
 4972              	.LASF70:
 4973 036a 55415254 		.ascii	"UART_TX_ACTIVE\000"
 4973      5F54585F 
 4973      41435449 
 4973      564500
 4974              	.LASF83:
ARM GAS  C:\Users\jsyoon\AppData\Local\Temp\ccXoI9ru.s 			page 91


 4975 0379 75736172 		.ascii	"usart\000"
 4975      7400
 4976              	.LASF0:
 4977 037f 756E7369 		.ascii	"unsigned int\000"
 4977      676E6564 
 4977      20696E74 
 4977      00
 4978              	.LASF113:
 4979 038c 74786275 		.ascii	"txbuf\000"
 4979      6600
 4980              	.LASF131:
 4981 0392 6E766963 		.ascii	"nvicDisableVector\000"
 4981      44697361 
 4981      626C6556 
 4981      6563746F 
 4981      7200
 4982              	.LASF115:
 4983 03a4 75617274 		.ascii	"uart_lld_stop_send\000"
 4983      5F6C6C64 
 4983      5F73746F 
 4983      705F7365 
 4983      6E6400
 4984              	.LASF11:
 4985 03b7 6C6F6E67 		.ascii	"long unsigned int\000"
 4985      20756E73 
 4985      69676E65 
 4985      6420696E 
 4985      7400
 4986              	.LASF90:
 4987 03c9 75617274 		.ascii	"uartecb_t\000"
 4987      6563625F 
 4987      7400
 4988              	.LASF55:
 4989 03d3 5243435F 		.ascii	"RCC_TypeDef\000"
 4989      54797065 
 4989      44656600 
 4990              	.LASF107:
 4991 03df 56656374 		.ascii	"Vector15C\000"
 4991      6F723135 
 4991      4300
 4992              	.LASF60:
 4993 03e9 69736869 		.ascii	"ishift\000"
 4993      667400
 4994              	.LASF7:
 4995 03f0 73686F72 		.ascii	"short unsigned int\000"
 4995      7420756E 
 4995      7369676E 
 4995      65642069 
 4995      6E7400
 4996              	.LASF65:
 4997 0403 55415254 		.ascii	"UART_UNINIT\000"
 4997      5F554E49 
 4997      4E495400 
 4998              	.LASF66:
 4999 040f 55415254 		.ascii	"UART_STOP\000"
 4999      5F53544F 
 4999      5000
ARM GAS  C:\Users\jsyoon\AppData\Local\Temp\ccXoI9ru.s 			page 92


 5000              	.LASF52:
 5001 0419 504C4C49 		.ascii	"PLLI2SCFGR\000"
 5001      32534346 
 5001      475200
 5002              	.LASF30:
 5003 0424 41484233 		.ascii	"AHB3RSTR\000"
 5003      52535452 
 5003      00
 5004              	.LASF122:
 5005 042d 5F706F72 		.ascii	"_port_irq_epilogue\000"
 5005      745F6972 
 5005      715F6570 
 5005      696C6F67 
 5005      756500
 5006              	.LASF57:
 5007 0440 55534152 		.ascii	"USART_TypeDef\000"
 5007      545F5479 
 5007      70654465 
 5007      6600
 5008              	.LASF47:
 5009 044e 41504232 		.ascii	"APB2LPENR\000"
 5009      4C50454E 
 5009      5200
 5010              	.LASF54:
 5011 0458 44434B43 		.ascii	"DCKCFGR\000"
 5011      46475200 
 5012              	.LASF106:
 5013 0460 56656374 		.ascii	"VectorDC\000"
 5013      6F724443 
 5013      00
 5014              	.LASF104:
 5015 0469 73657276 		.ascii	"serve_usart_irq\000"
 5015      655F7573 
 5015      6172745F 
 5015      69727100 
 5016              	.LASF100:
 5017 0479 75617274 		.ascii	"uartp\000"
 5017      7000
 5018              	.LASF120:
 5019 047f 55415254 		.ascii	"UARTD6\000"
 5019      443600
 5020              	.LASF20:
 5021 0486 73697A65 		.ascii	"sizetype\000"
 5021      74797065 
 5021      00
 5022              	.LASF129:
 5023 048f 7472616E 		.ascii	"translate_errors\000"
 5023      736C6174 
 5023      655F6572 
 5023      726F7273 
 5023      00
 5024              	.LASF75:
 5025 04a0 55415254 		.ascii	"UART_RX_COMPLETE\000"
 5025      5F52585F 
 5025      434F4D50 
 5025      4C455445 
 5025      00
ARM GAS  C:\Users\jsyoon\AppData\Local\Temp\ccXoI9ru.s 			page 93


 5026              	.LASF95:
 5027 04b1 72786572 		.ascii	"rxerr_cb\000"
 5027      725F6362 
 5027      00
 5028              	.LASF105:
 5029 04ba 75617274 		.ascii	"uart_lld_serve_tx_end_irq\000"
 5029      5F6C6C64 
 5029      5F736572 
 5029      76655F74 
 5029      785F656E 
 5030              	.LASF43:
 5031 04d4 41484232 		.ascii	"AHB2LPENR\000"
 5031      4C50454E 
 5031      5200
 5032              	.LASF72:
 5033 04de 75617274 		.ascii	"uarttxstate_t\000"
 5033      74787374 
 5033      6174655F 
 5033      7400
 5034              	.LASF32:
 5035 04ec 41504231 		.ascii	"APB1RSTR\000"
 5035      52535452 
 5035      00
 5036              	.LASF53:
 5037 04f5 504C4C53 		.ascii	"PLLSAICFGR\000"
 5037      41494346 
 5037      475200
 5038              	.LASF86:
 5039 0500 646D6174 		.ascii	"dmatx\000"
 5039      7800
 5040              	.LASF31:
 5041 0506 52455345 		.ascii	"RESERVED0\000"
 5041      52564544 
 5041      3000
 5042              	.LASF34:
 5043 0510 52455345 		.ascii	"RESERVED1\000"
 5043      52564544 
 5043      3100
 5044              	.LASF38:
 5045 051a 52455345 		.ascii	"RESERVED2\000"
 5045      52564544 
 5045      3200
 5046              	.LASF41:
 5047 0524 52455345 		.ascii	"RESERVED3\000"
 5047      52564544 
 5047      3300
 5048              	.LASF45:
 5049 052e 52455345 		.ascii	"RESERVED4\000"
 5049      52564544 
 5049      3400
 5050              	.LASF48:
 5051 0538 52455345 		.ascii	"RESERVED5\000"
 5051      52564544 
 5051      3500
 5052              	.LASF50:
 5053 0542 52455345 		.ascii	"RESERVED6\000"
 5053      52564544 
ARM GAS  C:\Users\jsyoon\AppData\Local\Temp\ccXoI9ru.s 			page 94


 5053      3600
 5054              	.LASF63:
 5055 054c 73746D33 		.ascii	"stm32_dma_stream_t\000"
 5055      325F646D 
 5055      615F7374 
 5055      7265616D 
 5055      5F7400
 5056              	.LASF92:
 5057 055f 7478656E 		.ascii	"txend2_cb\000"
 5057      64325F63 
 5057      6200
 5058              	.LASF58:
 5059 0569 73747265 		.ascii	"stream\000"
 5059      616D00
 5060              	.LASF19:
 5061 0570 5F426F6F 		.ascii	"_Bool\000"
 5061      6C00
 5062              	.LASF16:
 5063 0576 696E7433 		.ascii	"int32_t\000"
 5063      325F7400 
 5064              	.LASF4:
 5065 057e 756E7369 		.ascii	"unsigned char\000"
 5065      676E6564 
 5065      20636861 
 5065      7200
 5066              	.LASF5:
 5067 058c 73686F72 		.ascii	"short int\000"
 5067      7420696E 
 5067      7400
 5068              	.LASF44:
 5069 0596 41484233 		.ascii	"AHB3LPENR\000"
 5069      4C50454E 
 5069      5200
 5070              	.LASF68:
 5071 05a0 75617274 		.ascii	"uartstate_t\000"
 5071      73746174 
 5071      655F7400 
 5072              	.LASF40:
 5073 05ac 41504232 		.ascii	"APB2ENR\000"
 5073      454E5200 
 5074              	.LASF71:
 5075 05b4 55415254 		.ascii	"UART_TX_COMPLETE\000"
 5075      5F54585F 
 5075      434F4D50 
 5075      4C455445 
 5075      00
 5076              	.LASF37:
 5077 05c5 41484233 		.ascii	"AHB3ENR\000"
 5077      454E5200 
 5078              	.LASF93:
 5079 05cd 7278656E 		.ascii	"rxend_cb\000"
 5079      645F6362 
 5079      00
 5080              	.LASF59:
 5081 05d6 69666372 		.ascii	"ifcr\000"
 5081      00
 5082              	.LASF91:
ARM GAS  C:\Users\jsyoon\AppData\Local\Temp\ccXoI9ru.s 			page 95


 5083 05db 7478656E 		.ascii	"txend1_cb\000"
 5083      64315F63 
 5083      6200
 5084              	.LASF39:
 5085 05e5 41504231 		.ascii	"APB1ENR\000"
 5085      454E5200 
 5086              	.LASF21:
 5087 05ed 63686172 		.ascii	"char\000"
 5087      00
 5088              	.LASF125:
 5089 05f2 646D6153 		.ascii	"dmaStreamRelease\000"
 5089      74726561 
 5089      6D52656C 
 5089      65617365 
 5089      00
 5090              	.LASF102:
 5091 0603 6D6F6465 		.ascii	"mode\000"
 5091      00
 5092              	.LASF82:
 5093 0608 636F6E66 		.ascii	"config\000"
 5093      696700
 5094              	.LASF73:
 5095 060f 55415254 		.ascii	"UART_RX_IDLE\000"
 5095      5F52585F 
 5095      49444C45 
 5095      00
 5096              	.LASF6:
 5097 061c 5F5F7569 		.ascii	"__uint16_t\000"
 5097      6E743136 
 5097      5F7400
 5098              	.LASF29:
 5099 0627 41484232 		.ascii	"AHB2RSTR\000"
 5099      52535452 
 5099      00
 5100              	.LASF8:
 5101 0630 5F5F696E 		.ascii	"__int32_t\000"
 5101      7433325F 
 5101      7400
 5102              	.LASF69:
 5103 063a 55415254 		.ascii	"UART_TX_IDLE\000"
 5103      5F54585F 
 5103      49444C45 
 5103      00
 5104              	.LASF22:
 5105 0647 4E445452 		.ascii	"NDTR\000"
 5105      00
 5106              	.LASF25:
 5107 064c 444D415F 		.ascii	"DMA_Stream_TypeDef\000"
 5107      53747265 
 5107      616D5F54 
 5107      79706544 
 5107      656600
 5108              	.LASF36:
 5109 065f 41484232 		.ascii	"AHB2ENR\000"
 5109      454E5200 
 5110              	.LASF99:
 5111 0667 75617274 		.ascii	"uart_lld_serve_rx_end_irq\000"
ARM GAS  C:\Users\jsyoon\AppData\Local\Temp\ccXoI9ru.s 			page 96


 5111      5F6C6C64 
 5111      5F736572 
 5111      76655F72 
 5111      785F656E 
 5112              	.LASF24:
 5113 0681 4D314152 		.ascii	"M1AR\000"
 5113      00
 5114              	.LASF17:
 5115 0686 75696E74 		.ascii	"uint32_t\000"
 5115      33325F74 
 5115      00
 5116              	.LASF51:
 5117 068f 53534347 		.ascii	"SSCGR\000"
 5117      5200
 5118              	.LASF64:
 5119 0695 73746D33 		.ascii	"stm32_dmaisr_t\000"
 5119      325F646D 
 5119      61697372 
 5119      5F7400
 5120              	.LASF49:
 5121 06a4 42444352 		.ascii	"BDCR\000"
 5121      00
 5122              	.LASF14:
 5123 06a9 75696E74 		.ascii	"uint8_t\000"
 5123      385F7400 
 5124              	.LASF42:
 5125 06b1 41484231 		.ascii	"AHB1LPENR\000"
 5125      4C50454E 
 5125      5200
 5126              	.LASF109:
 5127 06bb 75736172 		.ascii	"usart_start\000"
 5127      745F7374 
 5127      61727400 
 5128              	.LASF101:
 5129 06c7 666C6167 		.ascii	"flags\000"
 5129      7300
 5130              	.LASF84:
 5131 06cd 646D616D 		.ascii	"dmamode\000"
 5131      6F646500 
 5132              	.LASF96:
 5133 06d5 73706565 		.ascii	"speed\000"
 5133      6400
 5134              	.LASF35:
 5135 06db 41484231 		.ascii	"AHB1ENR\000"
 5135      454E5200 
 5136              	.LASF27:
 5137 06e3 43464752 		.ascii	"CFGR\000"
 5137      00
 5138              	.LASF112:
 5139 06e8 75617274 		.ascii	"uart_lld_start_send\000"
 5139      5F6C6C64 
 5139      5F737461 
 5139      72745F73 
 5139      656E6400 
 5140              	.LASF111:
 5141 06fc 75617274 		.ascii	"uart_lld_stop\000"
 5141      5F6C6C64 
ARM GAS  C:\Users\jsyoon\AppData\Local\Temp\ccXoI9ru.s 			page 97


 5141      5F73746F 
 5141      7000
 5142              	.LASF130:
 5143 070a 646D6153 		.ascii	"dmaStreamAllocate\000"
 5143      74726561 
 5143      6D416C6C 
 5143      6F636174 
 5143      6500
 5144              	.LASF119:
 5145 071c 55415254 		.ascii	"UARTD3\000"
 5145      443300
 5146              		.ident	"GCC: (GNU Tools for ARM Embedded Processors) 4.8.4 20140526 (release) [ARM/embedded-4_8-br
ARM GAS  C:\Users\jsyoon\AppData\Local\Temp\ccXoI9ru.s 			page 98


DEFINED SYMBOLS
                            *ABS*:00000000 uart_lld.c
C:\Users\jsyoon\AppData\Local\Temp\ccXoI9ru.s:21     .text.usart_stop:00000000 $t
C:\Users\jsyoon\AppData\Local\Temp\ccXoI9ru.s:26     .text.usart_stop:00000000 usart_stop
C:\Users\jsyoon\AppData\Local\Temp\ccXoI9ru.s:95     .text.serve_usart_irq:00000000 $t
C:\Users\jsyoon\AppData\Local\Temp\ccXoI9ru.s:100    .text.serve_usart_irq:00000000 serve_usart_irq
C:\Users\jsyoon\AppData\Local\Temp\ccXoI9ru.s:201    .text.uart_lld_serve_tx_end_irq:00000000 $t
C:\Users\jsyoon\AppData\Local\Temp\ccXoI9ru.s:206    .text.uart_lld_serve_tx_end_irq:00000000 uart_lld_serve_tx_end_irq
C:\Users\jsyoon\AppData\Local\Temp\ccXoI9ru.s:280    .text.uart_lld_serve_rx_end_irq:00000000 $t
C:\Users\jsyoon\AppData\Local\Temp\ccXoI9ru.s:285    .text.uart_lld_serve_rx_end_irq:00000000 uart_lld_serve_rx_end_irq
C:\Users\jsyoon\AppData\Local\Temp\ccXoI9ru.s:423    .text.VectorDC:00000000 $t
C:\Users\jsyoon\AppData\Local\Temp\ccXoI9ru.s:429    .text.VectorDC:00000000 VectorDC
C:\Users\jsyoon\AppData\Local\Temp\ccXoI9ru.s:451    .text.VectorDC:00000010 $d
C:\Users\jsyoon\AppData\Local\Temp\ccXoI9ru.s:456    .text.Vector15C:00000000 $t
C:\Users\jsyoon\AppData\Local\Temp\ccXoI9ru.s:462    .text.Vector15C:00000000 Vector15C
C:\Users\jsyoon\AppData\Local\Temp\ccXoI9ru.s:484    .text.Vector15C:00000010 $d
C:\Users\jsyoon\AppData\Local\Temp\ccXoI9ru.s:489    .text.uart_lld_init:00000000 $t
C:\Users\jsyoon\AppData\Local\Temp\ccXoI9ru.s:495    .text.uart_lld_init:00000000 uart_lld_init
C:\Users\jsyoon\AppData\Local\Temp\ccXoI9ru.s:550    .text.uart_lld_init:00000034 $d
C:\Users\jsyoon\AppData\Local\Temp\ccXoI9ru.s:559    .text.uart_lld_start:00000000 $t
C:\Users\jsyoon\AppData\Local\Temp\ccXoI9ru.s:565    .text.uart_lld_start:00000000 uart_lld_start
C:\Users\jsyoon\AppData\Local\Temp\ccXoI9ru.s:852    .text.uart_lld_start:00000158 $d
C:\Users\jsyoon\AppData\Local\Temp\ccXoI9ru.s:865    .text.uart_lld_stop:00000000 $t
C:\Users\jsyoon\AppData\Local\Temp\ccXoI9ru.s:871    .text.uart_lld_stop:00000000 uart_lld_stop
C:\Users\jsyoon\AppData\Local\Temp\ccXoI9ru.s:941    .text.uart_lld_stop:0000004c $d
C:\Users\jsyoon\AppData\Local\Temp\ccXoI9ru.s:948    .text.uart_lld_start_send:00000000 $t
C:\Users\jsyoon\AppData\Local\Temp\ccXoI9ru.s:954    .text.uart_lld_start_send:00000000 uart_lld_start_send
C:\Users\jsyoon\AppData\Local\Temp\ccXoI9ru.s:987    .text.uart_lld_stop_send:00000000 $t
C:\Users\jsyoon\AppData\Local\Temp\ccXoI9ru.s:993    .text.uart_lld_stop_send:00000000 uart_lld_stop_send
C:\Users\jsyoon\AppData\Local\Temp\ccXoI9ru.s:1027   .text.uart_lld_start_receive:00000000 $t
C:\Users\jsyoon\AppData\Local\Temp\ccXoI9ru.s:1033   .text.uart_lld_start_receive:00000000 uart_lld_start_receive
C:\Users\jsyoon\AppData\Local\Temp\ccXoI9ru.s:1084   .text.uart_lld_stop_receive:00000000 $t
C:\Users\jsyoon\AppData\Local\Temp\ccXoI9ru.s:1090   .text.uart_lld_stop_receive:00000000 uart_lld_stop_receive
C:\Users\jsyoon\AppData\Local\Temp\ccXoI9ru.s:1193   .bss.UARTD6:00000000 UARTD6
C:\Users\jsyoon\AppData\Local\Temp\ccXoI9ru.s:1186   .bss.UARTD3:00000000 UARTD3
C:\Users\jsyoon\AppData\Local\Temp\ccXoI9ru.s:1182   .bss.UARTD3:00000000 $d
C:\Users\jsyoon\AppData\Local\Temp\ccXoI9ru.s:1189   .bss.UARTD6:00000000 $d
                     .debug_frame:00000010 $d
C:\Users\jsyoon\AppData\Local\Temp\ccXoI9ru.s:455    .text.VectorDC:00000014 $t
C:\Users\jsyoon\AppData\Local\Temp\ccXoI9ru.s:488    .text.Vector15C:00000014 $t
C:\Users\jsyoon\AppData\Local\Temp\ccXoI9ru.s:558    .text.uart_lld_init:00000048 $t
C:\Users\jsyoon\AppData\Local\Temp\ccXoI9ru.s:864    .text.uart_lld_start:00000178 $t
C:\Users\jsyoon\AppData\Local\Temp\ccXoI9ru.s:947    .text.uart_lld_stop:00000058 $t

UNDEFINED SYMBOLS
port_halt
_port_irq_epilogue
uartObjectInit
_stm32_dma_streams
dmaStreamAllocate
nvicEnableVector
dmaStreamRelease
nvicDisableVector
