ARM GAS  C:\Users\jsyoon\AppData\Local\Temp\ccXoI9ru.s 			page 1


   1              		.syntax unified
   2              		.cpu cortex-m4
   3              		.eabi_attribute 27, 3
   4              		.eabi_attribute 28, 1
   5              		.fpu fpv4-sp-d16
   6              		.eabi_attribute 20, 1
   7              		.eabi_attribute 21, 1
   8              		.eabi_attribute 23, 3
   9              		.eabi_attribute 24, 1
  10              		.eabi_attribute 25, 1
  11              		.eabi_attribute 26, 1
  12              		.eabi_attribute 30, 2
  13              		.eabi_attribute 34, 1
  14              		.eabi_attribute 18, 4
  15              		.thumb
  16              		.file	"uart_lld.c"
  17              		.text
  18              	.Ltext0:
  19              		.cfi_sections	.debug_frame
  20              		.section	.text.usart_stop,"ax",%progbits
  21              		.align	2
  22              		.p2align 4,,15
  23              		.thumb
  24              		.thumb_func
  25              		.type	usart_stop, %function
  26              	usart_stop:
  27              	.LFB120:
  28              		.file 1 "ChibiOS_2.6.6/os/hal/platforms/STM32/USARTv1/uart_lld.c"
  29              		.loc 1 181 0
  30              		.cfi_startproc
  31              		@ args = 0, pretend = 0, frame = 0
  32              		@ frame_needed = 0, uses_anonymous_args = 0
  33              		@ link register save eliminated.
  34              	.LVL0:
  35 0000 30B4     		push	{r4, r5}
  36              		.cfi_def_cfa_offset 8
  37              		.cfi_offset 4, -8
  38              		.cfi_offset 5, -4
  39              		.loc 1 184 0
  40 0002 0469     		ldr	r4, [r0, #16]
  41 0004 2268     		ldr	r2, [r4]
  42 0006 1368     		ldr	r3, [r2]
  43 0008 23F01F03 		bic	r3, r3, #31
  44 000c 1360     		str	r3, [r2]
  45              	.L3:
  46              		.loc 1 184 0 is_stmt 0 discriminator 1
  47 000e 1368     		ldr	r3, [r2]
  48 0010 DB07     		lsls	r3, r3, #31
  49 0012 FCD4     		bmi	.L3
  50              		.loc 1 184 0 discriminator 2
  51 0014 257A     		ldrb	r5, [r4, #8]	@ zero_extendqisi2
  52              		.loc 1 185 0 is_stmt 1 discriminator 2
  53 0016 4169     		ldr	r1, [r0, #20]
  54              		.loc 1 184 0 discriminator 2
  55 0018 6368     		ldr	r3, [r4, #4]
  56              		.loc 1 185 0 discriminator 2
  57 001a 0A68     		ldr	r2, [r1]
ARM GAS  C:\Users\jsyoon\AppData\Local\Temp\ccXoI9ru.s 			page 2


  58              		.loc 1 184 0 discriminator 2
  59 001c 3D24     		movs	r4, #61
  60 001e AC40     		lsls	r4, r4, r5
  61 0020 1C60     		str	r4, [r3]
  62              		.loc 1 185 0 discriminator 2
  63 0022 1368     		ldr	r3, [r2]
  64 0024 23F01F03 		bic	r3, r3, #31
  65 0028 1360     		str	r3, [r2]
  66              	.L5:
  67              		.loc 1 185 0 is_stmt 0 discriminator 1
  68 002a 1368     		ldr	r3, [r2]
  69 002c 13F00103 		ands	r3, r3, #1
  70 0030 FBD1     		bne	.L5
  71              		.loc 1 185 0 discriminator 2
  72 0032 0C7A     		ldrb	r4, [r1, #8]	@ zero_extendqisi2
  73              		.loc 1 188 0 is_stmt 1 discriminator 2
  74 0034 8268     		ldr	r2, [r0, #8]
  75              		.loc 1 185 0 discriminator 2
  76 0036 4968     		ldr	r1, [r1, #4]
  77 0038 3D20     		movs	r0, #61
  78              	.LVL1:
  79 003a A040     		lsls	r0, r0, r4
  80 003c 0860     		str	r0, [r1]
  81              		.loc 1 191 0 discriminator 2
  82 003e 30BC     		pop	{r4, r5}
  83              		.loc 1 188 0 discriminator 2
  84 0040 9381     		strh	r3, [r2, #12]	@ movhi
  85              		.loc 1 189 0 discriminator 2
  86 0042 1382     		strh	r3, [r2, #16]	@ movhi
  87              		.loc 1 190 0 discriminator 2
  88 0044 9382     		strh	r3, [r2, #20]	@ movhi
  89              		.loc 1 191 0 discriminator 2
  90 0046 7047     		bx	lr
  91              		.cfi_endproc
  92              	.LFE120:
  93              		.size	usart_stop, .-usart_stop
  94 0048 AFF30080 		.section	.text.serve_usart_irq,"ax",%progbits
  94      AFF30080 
  95              		.align	2
  96              		.p2align 4,,15
  97              		.thumb
  98              		.thumb_func
  99              		.type	serve_usart_irq, %function
 100              	serve_usart_irq:
 101              	.LFB124:
 102              		.loc 1 312 0
 103              		.cfi_startproc
 104              		@ args = 0, pretend = 0, frame = 0
 105              		@ frame_needed = 0, uses_anonymous_args = 0
 106              	.LVL2:
 107 0000 70B5     		push	{r4, r5, r6, lr}
 108              		.cfi_def_cfa_offset 16
 109              		.cfi_offset 4, -16
 110              		.cfi_offset 5, -12
 111              		.cfi_offset 6, -8
 112              		.cfi_offset 14, -4
 113              		.loc 1 314 0
ARM GAS  C:\Users\jsyoon\AppData\Local\Temp\ccXoI9ru.s 			page 3


 114 0002 8568     		ldr	r5, [r0, #8]
 115              	.LVL3:
 116              		.loc 1 316 0
 117 0004 2C88     		ldrh	r4, [r5]
 118              		.loc 1 317 0
 119 0006 AA88     		ldrh	r2, [r5, #4]
 120              		.loc 1 318 0
 121 0008 40F20F13 		movw	r3, #271
 122              		.loc 1 316 0
 123 000c A4B2     		uxth	r4, r4
 124              	.LVL4:
 125              		.loc 1 318 0
 126 000e 2340     		ands	r3, r3, r4
 127              		.loc 1 312 0
 128 0010 0646     		mov	r6, r0
 129              		.loc 1 318 0
 130 0012 E3B1     		cbz	r3, .L9
 131              		.loc 1 321 0
 132 0014 4368     		ldr	r3, [r0, #4]
 133 0016 1B69     		ldr	r3, [r3, #16]
 134              		.loc 1 320 0
 135 0018 4FF6FF62 		movw	r2, #65279
 136 001c 2A80     		strh	r2, [r5]	@ movhi
 137              		.loc 1 321 0
 138 001e B3B1     		cbz	r3, .L9
 139              	.LVL5:
 140              	.LBB12:
 141              	.LBB13:
 142              		.loc 1 140 0
 143 0020 14F0080F 		tst	r4, #8
 144 0024 14BF     		ite	ne
 145 0026 1021     		movne	r1, #16
 146 0028 0021     		moveq	r1, #0
 147              	.LVL6:
 148              		.loc 1 144 0
 149 002a E007     		lsls	r0, r4, #31
 150              	.LVL7:
 151              		.loc 1 145 0
 152 002c 48BF     		it	mi
 153 002e 41F00401 		orrmi	r1, r1, #4
 154              	.LVL8:
 155              		.loc 1 146 0
 156 0032 A207     		lsls	r2, r4, #30
 157              		.loc 1 147 0
 158 0034 48BF     		it	mi
 159 0036 41F00801 		orrmi	r1, r1, #8
 160              	.LVL9:
 161              		.loc 1 148 0
 162 003a 6007     		lsls	r0, r4, #29
 163              		.loc 1 149 0
 164 003c 48BF     		it	mi
 165 003e 41F02001 		orrmi	r1, r1, #32
 166              	.LVL10:
 167              		.loc 1 150 0
 168 0042 E205     		lsls	r2, r4, #23
 169              		.loc 1 151 0
 170 0044 48BF     		it	mi
ARM GAS  C:\Users\jsyoon\AppData\Local\Temp\ccXoI9ru.s 			page 4


 171 0046 41F04001 		orrmi	r1, r1, #64
 172              	.LVL11:
 173              	.LBE13:
 174              	.LBE12:
 175              		.loc 1 322 0
 176 004a 3046     		mov	r0, r6
 177 004c 9847     		blx	r3
 178              	.LVL12:
 179              	.L9:
 180              		.loc 1 324 0
 181 004e 6306     		lsls	r3, r4, #25
 182 0050 07D5     		bpl	.L7
 183              		.loc 1 328 0
 184 0052 7368     		ldr	r3, [r6, #4]
 185 0054 5B68     		ldr	r3, [r3, #4]
 186              		.loc 1 325 0
 187 0056 4FF6BF72 		movw	r2, #65471
 188 005a 2A80     		strh	r2, [r5]	@ movhi
 189              		.loc 1 328 0
 190 005c 0BB1     		cbz	r3, .L7
 191              		.loc 1 329 0
 192 005e 3046     		mov	r0, r6
 193 0060 9847     		blx	r3
 194              	.LVL13:
 195              	.L7:
 196 0062 70BD     		pop	{r4, r5, r6, pc}
 197              		.cfi_endproc
 198              	.LFE124:
 199              		.size	serve_usart_irq, .-serve_usart_irq
 200 0064 AFF30080 		.section	.text.uart_lld_serve_tx_end_irq,"ax",%progbits
 200      AFF30080 
 200      AFF30080 
 201              		.align	2
 202              		.p2align 4,,15
 203              		.thumb
 204              		.thumb_func
 205              		.type	uart_lld_serve_tx_end_irq, %function
 206              	uart_lld_serve_tx_end_irq:
 207              	.LFB123:
 208              		.loc 1 283 0
 209              		.cfi_startproc
 210              		@ args = 0, pretend = 0, frame = 0
 211              		@ frame_needed = 0, uses_anonymous_args = 0
 212              	.LVL14:
 213              		.loc 1 287 0
 214 0000 11F00C0F 		tst	r1, #12
 215              		.loc 1 283 0
 216 0004 10B5     		push	{r4, lr}
 217              		.cfi_def_cfa_offset 8
 218              		.cfi_offset 4, -8
 219              		.cfi_offset 14, -4
 220              		.loc 1 283 0
 221 0006 0446     		mov	r4, r0
 222              		.loc 1 287 0
 223 0008 1BD1     		bne	.L51
 224              	.LVL15:
 225              	.L39:
ARM GAS  C:\Users\jsyoon\AppData\Local\Temp\ccXoI9ru.s 			page 5


 226              		.loc 1 294 0
 227 000a 6169     		ldr	r1, [r4, #20]
 228 000c 0A68     		ldr	r2, [r1]
 229 000e 1368     		ldr	r3, [r2]
 230 0010 23F01F03 		bic	r3, r3, #31
 231 0014 1360     		str	r3, [r2]
 232              	.L41:
 233              		.loc 1 294 0 is_stmt 0 discriminator 1
 234 0016 1368     		ldr	r3, [r2]
 235 0018 DB07     		lsls	r3, r3, #31
 236 001a FCD4     		bmi	.L41
 237              		.loc 1 298 0 is_stmt 1 discriminator 2
 238 001c 6368     		ldr	r3, [r4, #4]
 239              		.loc 1 294 0 discriminator 2
 240 001e 0A7A     		ldrb	r2, [r1, #8]	@ zero_extendqisi2
 241              		.loc 1 298 0 discriminator 2
 242 0020 1B68     		ldr	r3, [r3]
 243              		.loc 1 294 0 discriminator 2
 244 0022 4968     		ldr	r1, [r1, #4]
 245 0024 3D20     		movs	r0, #61
 246 0026 9040     		lsls	r0, r0, r2
 247              		.loc 1 297 0 discriminator 2
 248 0028 0222     		movs	r2, #2
 249              		.loc 1 294 0 discriminator 2
 250 002a 0860     		str	r0, [r1]
 251              		.loc 1 297 0 discriminator 2
 252 002c 6270     		strb	r2, [r4, #1]
 253              		.loc 1 298 0 discriminator 2
 254 002e 2BB1     		cbz	r3, .L44
 255              		.loc 1 299 0
 256 0030 2046     		mov	r0, r4
 257 0032 9847     		blx	r3
 258              	.LVL16:
 259              		.loc 1 303 0
 260 0034 6378     		ldrb	r3, [r4, #1]	@ zero_extendqisi2
 261 0036 022B     		cmp	r3, #2
 262 0038 00D0     		beq	.L44
 263 003a 10BD     		pop	{r4, pc}
 264              	.LVL17:
 265              	.L44:
 266              		.loc 1 304 0
 267 003c 0023     		movs	r3, #0
 268 003e 6370     		strb	r3, [r4, #1]
 269 0040 10BD     		pop	{r4, pc}
 270              	.LVL18:
 271              	.L51:
 272              		.loc 1 288 0
 273 0042 FFF7FEFF 		bl	port_halt
 274              	.LVL19:
 275 0046 E0E7     		b	.L39
 276              		.cfi_endproc
 277              	.LFE123:
 278              		.size	uart_lld_serve_tx_end_irq, .-uart_lld_serve_tx_end_irq
 279 0048 AFF30080 		.section	.text.uart_lld_serve_rx_end_irq,"ax",%progbits
 279      AFF30080 
 280              		.align	2
 281              		.p2align 4,,15
ARM GAS  C:\Users\jsyoon\AppData\Local\Temp\ccXoI9ru.s 			page 6


 282              		.thumb
 283              		.thumb_func
 284              		.type	uart_lld_serve_rx_end_irq, %function
 285              	uart_lld_serve_rx_end_irq:
 286              	.LFB122:
 287              		.loc 1 243 0
 288              		.cfi_startproc
 289              		@ args = 0, pretend = 0, frame = 0
 290              		@ frame_needed = 0, uses_anonymous_args = 0
 291              	.LVL20:
 292              		.loc 1 247 0
 293 0000 11F00C0F 		tst	r1, #12
 294              		.loc 1 243 0
 295 0004 70B5     		push	{r4, r5, r6, lr}
 296              		.cfi_def_cfa_offset 16
 297              		.cfi_offset 4, -16
 298              		.cfi_offset 5, -12
 299              		.cfi_offset 6, -8
 300              		.cfi_offset 14, -4
 301              		.loc 1 243 0
 302 0006 0446     		mov	r4, r0
 303              		.loc 1 247 0
 304 0008 3BD1     		bne	.L67
 305              	.LVL21:
 306              	.L53:
 307              		.loc 1 254 0
 308 000a A378     		ldrb	r3, [r4, #2]	@ zero_extendqisi2
 309 000c 43B9     		cbnz	r3, .L54
 310              		.loc 1 257 0
 311 000e 6368     		ldr	r3, [r4, #4]
 312 0010 DB68     		ldr	r3, [r3, #12]
 313 0012 002B     		cmp	r3, #0
 314 0014 34D0     		beq	.L52
 315              		.loc 1 258 0
 316 0016 218B     		ldrh	r1, [r4, #24]
 317 0018 2046     		mov	r0, r4
 318 001a 89B2     		uxth	r1, r1
 319 001c 9847     		blx	r3
 320              	.LVL22:
 321 001e 70BD     		pop	{r4, r5, r6, pc}
 322              	.LVL23:
 323              	.L54:
 324              	.LBB18:
 325              	.LBB19:
 326              		.loc 1 263 0
 327 0020 2169     		ldr	r1, [r4, #16]
 328 0022 0A68     		ldr	r2, [r1]
 329 0024 1368     		ldr	r3, [r2]
 330 0026 23F01F03 		bic	r3, r3, #31
 331 002a 1360     		str	r3, [r2]
 332              	.L58:
 333 002c 1368     		ldr	r3, [r2]
 334 002e DB07     		lsls	r3, r3, #31
 335 0030 FCD4     		bmi	.L58
 336              		.loc 1 265 0
 337 0032 6068     		ldr	r0, [r4, #4]
 338              		.loc 1 263 0
ARM GAS  C:\Users\jsyoon\AppData\Local\Temp\ccXoI9ru.s 			page 7


 339 0034 0E7A     		ldrb	r6, [r1, #8]	@ zero_extendqisi2
 340 0036 4D68     		ldr	r5, [r1, #4]
 341              		.loc 1 265 0
 342 0038 8368     		ldr	r3, [r0, #8]
 343              		.loc 1 263 0
 344 003a 3D21     		movs	r1, #61
 345 003c 01FA06F6 		lsl	r6, r1, r6
 346              		.loc 1 264 0
 347 0040 0221     		movs	r1, #2
 348              		.loc 1 263 0
 349 0042 2E60     		str	r6, [r5]
 350              		.loc 1 264 0
 351 0044 A170     		strb	r1, [r4, #2]
 352              		.loc 1 265 0
 353 0046 3BB1     		cbz	r3, .L59
 354              		.loc 1 266 0
 355 0048 2046     		mov	r0, r4
 356 004a 9847     		blx	r3
 357              	.LVL24:
 358              		.loc 1 270 0
 359 004c A378     		ldrb	r3, [r4, #2]	@ zero_extendqisi2
 360 004e 022B     		cmp	r3, #2
 361 0050 16D1     		bne	.L52
 362 0052 2369     		ldr	r3, [r4, #16]
 363 0054 6068     		ldr	r0, [r4, #4]
 364 0056 1A68     		ldr	r2, [r3]
 365              	.L59:
 366              	.LBB20:
 367              	.LBB21:
 368              		.loc 1 165 0
 369 0058 C168     		ldr	r1, [r0, #12]
 370              		.loc 1 171 0
 371 005a E368     		ldr	r3, [r4, #12]
 372              		.loc 1 166 0
 373 005c 0029     		cmp	r1, #0
 374 005e 14BF     		ite	ne
 375 0060 4FF48871 		movne	r1, #272
 376 0064 4FF48071 		moveq	r1, #256
 377              		.loc 1 171 0
 378 0068 0B43     		orrs	r3, r3, r1
 379              	.LBE21:
 380              	.LBE20:
 381              		.loc 1 271 0
 382 006a 0025     		movs	r5, #0
 383              	.LBB24:
 384              	.LBB22:
 385              		.loc 1 170 0
 386 006c 0121     		movs	r1, #1
 387              		.loc 1 169 0
 388 006e 04F11800 		add	r0, r4, #24
 389              	.LBE22:
 390              	.LBE24:
 391              		.loc 1 271 0
 392 0072 A570     		strb	r5, [r4, #2]
 393              	.LVL25:
 394              	.LBB25:
 395              	.LBB23:
ARM GAS  C:\Users\jsyoon\AppData\Local\Temp\ccXoI9ru.s 			page 8


 396              		.loc 1 169 0
 397 0074 D060     		str	r0, [r2, #12]
 398              		.loc 1 170 0
 399 0076 5160     		str	r1, [r2, #4]
 400              		.loc 1 171 0
 401 0078 1360     		str	r3, [r2]
 402              		.loc 1 172 0
 403 007a 1368     		ldr	r3, [r2]
 404 007c 0B43     		orrs	r3, r3, r1
 405 007e 1360     		str	r3, [r2]
 406              	.LVL26:
 407              	.L52:
 408 0080 70BD     		pop	{r4, r5, r6, pc}
 409              	.LVL27:
 410              	.L67:
 411              	.LBE23:
 412              	.LBE25:
 413              	.LBE19:
 414              	.LBE18:
 415              		.loc 1 248 0
 416 0082 FFF7FEFF 		bl	port_halt
 417              	.LVL28:
 418 0086 C0E7     		b	.L53
 419              		.cfi_endproc
 420              	.LFE122:
 421              		.size	uart_lld_serve_rx_end_irq, .-uart_lld_serve_rx_end_irq
 422 0088 AFF30080 		.section	.text.VectorDC,"ax",%progbits
 422      AFF30080 
 423              		.align	2
 424              		.p2align 4,,15
 425              		.global	VectorDC
 426              		.thumb
 427              		.thumb_func
 428              		.type	VectorDC, %function
 429              	VectorDC:
 430              	.LFB125:
 431              		.loc 1 384 0
 432              		.cfi_startproc
 433              		@ args = 0, pretend = 0, frame = 0
 434              		@ frame_needed = 0, uses_anonymous_args = 0
 435 0000 08B5     		push	{r3, lr}
 436              		.cfi_def_cfa_offset 8
 437              		.cfi_offset 3, -8
 438              		.cfi_offset 14, -4
 439              		.loc 1 388 0
 440 0002 0348     		ldr	r0, .L69
 441 0004 FFF7FEFF 		bl	serve_usart_irq
 442              	.LVL29:
 443              		.loc 1 391 0
 444 0008 BDE80840 		pop	{r3, lr}
 445              		.loc 1 390 0
 446 000c FFF7FEBF 		b	_port_irq_epilogue
 447              	.LVL30:
 448              	.L70:
 449              		.align	2
 450              	.L69:
 451 0010 00000000 		.word	.LANCHOR0
ARM GAS  C:\Users\jsyoon\AppData\Local\Temp\ccXoI9ru.s 			page 9


 452              		.cfi_endproc
 453              	.LFE125:
 454              		.size	VectorDC, .-VectorDC
 455 0014 AFF30080 		.section	.text.Vector15C,"ax",%progbits
 455      AFF30080 
 455      AFF30080 
 456              		.align	2
 457              		.p2align 4,,15
 458              		.global	Vector15C
 459              		.thumb
 460              		.thumb_func
 461              		.type	Vector15C, %function
 462              	Vector15C:
 463              	.LFB126:
 464              		.loc 1 441 0
 465              		.cfi_startproc
 466              		@ args = 0, pretend = 0, frame = 0
 467              		@ frame_needed = 0, uses_anonymous_args = 0
 468 0000 08B5     		push	{r3, lr}
 469              		.cfi_def_cfa_offset 8
 470              		.cfi_offset 3, -8
 471              		.cfi_offset 14, -4
 472              		.loc 1 445 0
 473 0002 0348     		ldr	r0, .L72
 474 0004 FFF7FEFF 		bl	serve_usart_irq
 475              	.LVL31:
 476              		.loc 1 448 0
 477 0008 BDE80840 		pop	{r3, lr}
 478              		.loc 1 447 0
 479 000c FFF7FEBF 		b	_port_irq_epilogue
 480              	.LVL32:
 481              	.L73:
 482              		.align	2
 483              	.L72:
 484 0010 00000000 		.word	.LANCHOR1
 485              		.cfi_endproc
 486              	.LFE126:
 487              		.size	Vector15C, .-Vector15C
 488 0014 AFF30080 		.section	.text.uart_lld_init,"ax",%progbits
 488      AFF30080 
 488      AFF30080 
 489              		.align	2
 490              		.p2align 4,,15
 491              		.global	uart_lld_init
 492              		.thumb
 493              		.thumb_func
 494              		.type	uart_lld_init, %function
 495              	uart_lld_init:
 496              	.LFB127:
 497              		.loc 1 460 0
 498              		.cfi_startproc
 499              		@ args = 0, pretend = 0, frame = 0
 500              		@ frame_needed = 0, uses_anonymous_args = 0
 501 0000 70B5     		push	{r4, r5, r6, lr}
 502              		.cfi_def_cfa_offset 16
 503              		.cfi_offset 4, -16
 504              		.cfi_offset 5, -12
ARM GAS  C:\Users\jsyoon\AppData\Local\Temp\ccXoI9ru.s 			page 10


 505              		.cfi_offset 6, -8
 506              		.cfi_offset 14, -4
 507              		.loc 1 479 0
 508 0002 0C4C     		ldr	r4, .L75
 509              		.loc 1 482 0
 510 0004 0C4E     		ldr	r6, .L75+4
 511              		.loc 1 503 0
 512 0006 0D4D     		ldr	r5, .L75+8
 513              		.loc 1 479 0
 514 0008 2046     		mov	r0, r4
 515 000a FFF7FEFF 		bl	uartObjectInit
 516              	.LVL33:
 517              		.loc 1 480 0
 518 000e 0C4B     		ldr	r3, .L75+12
 519 0010 A360     		str	r3, [r4, #8]
 520              		.loc 1 481 0
 521 0012 0622     		movs	r2, #6
 522              		.loc 1 483 0
 523 0014 06F11803 		add	r3, r6, #24
 524              		.loc 1 503 0
 525 0018 2846     		mov	r0, r5
 526              		.loc 1 482 0
 527 001a 2661     		str	r6, [r4, #16]
 528              		.loc 1 483 0
 529 001c 6361     		str	r3, [r4, #20]
 530              		.loc 1 481 0
 531 001e E260     		str	r2, [r4, #12]
 532              		.loc 1 503 0
 533 0020 FFF7FEFF 		bl	uartObjectInit
 534              	.LVL34:
 535              		.loc 1 504 0
 536 0024 074B     		ldr	r3, .L75+16
 537 0026 AB60     		str	r3, [r5, #8]
 538              		.loc 1 505 0
 539 0028 06F16C03 		add	r3, r6, #108
 540              		.loc 1 506 0
 541 002c A836     		adds	r6, r6, #168
 542              		.loc 1 505 0
 543 002e 2B61     		str	r3, [r5, #16]
 544              		.loc 1 506 0
 545 0030 6E61     		str	r6, [r5, #20]
 546 0032 70BD     		pop	{r4, r5, r6, pc}
 547              	.L76:
 548              		.align	2
 549              	.L75:
 550 0034 00000000 		.word	.LANCHOR0
 551 0038 0C000000 		.word	_stm32_dma_streams+12
 552 003c 00000000 		.word	.LANCHOR1
 553 0040 00480040 		.word	1073760256
 554 0044 00140140 		.word	1073812480
 555              		.cfi_endproc
 556              	.LFE127:
 557              		.size	uart_lld_init, .-uart_lld_init
 558 0048 AFF30080 		.section	.text.uart_lld_start,"ax",%progbits
 558      AFF30080 
 559              		.align	2
 560              		.p2align 4,,15
ARM GAS  C:\Users\jsyoon\AppData\Local\Temp\ccXoI9ru.s 			page 11


 561              		.global	uart_lld_start
 562              		.thumb
 563              		.thumb_func
 564              		.type	uart_lld_start, %function
 565              	uart_lld_start:
 566              	.LFB128:
 567              		.loc 1 517 0
 568              		.cfi_startproc
 569              		@ args = 0, pretend = 0, frame = 0
 570              		@ frame_needed = 0, uses_anonymous_args = 0
 571              	.LVL35:
 572 0000 2DE9F843 		push	{r3, r4, r5, r6, r7, r8, r9, lr}
 573              		.cfi_def_cfa_offset 32
 574              		.cfi_offset 3, -32
 575              		.cfi_offset 4, -28
 576              		.cfi_offset 5, -24
 577              		.cfi_offset 6, -20
 578              		.cfi_offset 7, -16
 579              		.cfi_offset 8, -12
 580              		.cfi_offset 9, -8
 581              		.cfi_offset 14, -4
 582              		.loc 1 519 0
 583 0004 0378     		ldrb	r3, [r0]	@ zero_extendqisi2
 584 0006 012B     		cmp	r3, #1
 585              		.loc 1 517 0
 586 0008 0446     		mov	r4, r0
 587              		.loc 1 519 0
 588 000a 4BD0     		beq	.L78
 589 000c 8568     		ldr	r5, [r0, #8]
 590              	.LVL36:
 591              	.L79:
 592              		.loc 1 671 0
 593 000e 0023     		movs	r3, #0
 594 0010 A370     		strb	r3, [r4, #2]
 595              		.loc 1 672 0
 596 0012 6370     		strb	r3, [r4, #1]
 597              	.LVL37:
 598              	.LBB32:
 599              	.LBB33:
 600              		.loc 1 204 0
 601 0014 2046     		mov	r0, r4
 602 0016 FFF7FEFF 		bl	usart_stop
 603              	.LVL38:
 604              		.loc 1 208 0
 605 001a A368     		ldr	r3, [r4, #8]
 606 001c 4E4A     		ldr	r2, .L93
 607 001e 9342     		cmp	r3, r2
 608 0020 58D0     		beq	.L83
 609 0022 02F58062 		add	r2, r2, #1024
 610 0026 9342     		cmp	r3, r2
 611 0028 54D0     		beq	.L83
 612              		.loc 1 214 0
 613 002a 6368     		ldr	r3, [r4, #4]
 614 002c 4B49     		ldr	r1, .L93+4
 615 002e 5A69     		ldr	r2, [r3, #20]
 616 0030 B1FBF2F2 		udiv	r2, r1, r2
 617 0034 92B2     		uxth	r2, r2
ARM GAS  C:\Users\jsyoon\AppData\Local\Temp\ccXoI9ru.s 			page 12


 618 0036 2A81     		strh	r2, [r5, #8]	@ movhi
 619              	.L85:
 620              	.LBB34:
 621              	.LBB35:
 622              		.loc 1 169 0
 623 0038 2169     		ldr	r1, [r4, #16]
 624              		.loc 1 165 0
 625 003a DA68     		ldr	r2, [r3, #12]
 626              	.LBE35:
 627              	.LBE34:
 628              		.loc 1 226 0
 629 003c D3F80490 		ldr	r9, [r3, #4]
 630              		.loc 1 231 0
 631 0040 B3F81880 		ldrh	r8, [r3, #24]
 632              		.loc 1 223 0
 633 0044 5F8B     		ldrh	r7, [r3, #26]
 634              		.loc 1 224 0
 635 0046 9E8B     		ldrh	r6, [r3, #28]
 636              	.LBB42:
 637              	.LBB36:
 638              		.loc 1 169 0
 639 0048 0B68     		ldr	r3, [r1]
 640              	.LBE36:
 641              	.LBE42:
 642              		.loc 1 217 0
 643 004a 2988     		ldrh	r1, [r5]
 644              		.loc 1 218 0
 645 004c A988     		ldrh	r1, [r5, #4]
 646              		.loc 1 227 0
 647 004e 42F24C10 		movw	r0, #8524
 648 0052 42F20C11 		movw	r1, #8460
 649 0056 B9F1000F 		cmp	r9, #0
 650 005a 08BF     		it	eq
 651 005c 0846     		moveq	r0, r1
 652              	.LVL39:
 653              	.LBB43:
 654              	.LBB37:
 655              		.loc 1 165 0
 656 005e 002A     		cmp	r2, #0
 657              		.loc 1 171 0
 658 0060 E268     		ldr	r2, [r4, #12]
 659              		.loc 1 166 0
 660 0062 14BF     		ite	ne
 661 0064 4FF48871 		movne	r1, #272
 662 0068 4FF48071 		moveq	r1, #256
 663              	.LBE37:
 664              	.LBE43:
 665              		.loc 1 223 0
 666 006c 47F04007 		orr	r7, r7, #64
 667              		.loc 1 224 0
 668 0070 46F0C106 		orr	r6, r6, #193
 669              		.loc 1 231 0
 670 0074 40EA0800 		orr	r0, r0, r8
 671              	.LVL40:
 672              		.loc 1 223 0
 673 0078 BFB2     		uxth	r7, r7
 674              	.LBB44:
ARM GAS  C:\Users\jsyoon\AppData\Local\Temp\ccXoI9ru.s 			page 13


 675              	.LBB38:
 676              		.loc 1 171 0
 677 007a 41EA0208 		orr	r8, r1, r2
 678              	.LBE38:
 679              	.LBE44:
 680              		.loc 1 219 0
 681 007e 4FF0000C 		mov	ip, #0
 682              	.LBB45:
 683              	.LBB39:
 684              		.loc 1 170 0
 685 0082 0121     		movs	r1, #1
 686              	.LBE39:
 687              	.LBE45:
 688              		.loc 1 224 0
 689 0084 B6B2     		uxth	r6, r6
 690              	.LBB46:
 691              	.LBB40:
 692              		.loc 1 169 0
 693 0086 1834     		adds	r4, r4, #24
 694              	.LVL41:
 695              	.LBE40:
 696              	.LBE46:
 697              		.loc 1 219 0
 698 0088 A5F800C0 		strh	ip, [r5]	@ movhi
 699              		.loc 1 223 0
 700 008c 2F82     		strh	r7, [r5, #16]	@ movhi
 701              		.loc 1 224 0
 702 008e AE82     		strh	r6, [r5, #20]	@ movhi
 703              		.loc 1 231 0
 704 0090 A881     		strh	r0, [r5, #12]	@ movhi
 705              	.LVL42:
 706              	.LBB47:
 707              	.LBB41:
 708              		.loc 1 169 0
 709 0092 DC60     		str	r4, [r3, #12]
 710              		.loc 1 170 0
 711 0094 5960     		str	r1, [r3, #4]
 712              		.loc 1 171 0
 713 0096 C3F80080 		str	r8, [r3]
 714              		.loc 1 172 0
 715 009a 1A68     		ldr	r2, [r3]
 716 009c 0A43     		orrs	r2, r2, r1
 717 009e 1A60     		str	r2, [r3]
 718 00a0 BDE8F883 		pop	{r3, r4, r5, r6, r7, r8, r9, pc}
 719              	.LVL43:
 720              	.L78:
 721              	.LBE41:
 722              	.LBE47:
 723              	.LBE33:
 724              	.LBE32:
 725              		.loc 1 563 0
 726 00a4 2E4B     		ldr	r3, .L93+8
 727 00a6 9842     		cmp	r0, r3
 728 00a8 3BD0     		beq	.L90
 729              		.loc 1 642 0
 730 00aa 2E4B     		ldr	r3, .L93+12
 731 00ac 9842     		cmp	r0, r3
ARM GAS  C:\Users\jsyoon\AppData\Local\Temp\ccXoI9ru.s 			page 14


 732 00ae 1ED0     		beq	.L91
 733              	.LVL44:
 734              	.L81:
 735              		.loc 1 664 0
 736 00b0 6368     		ldr	r3, [r4, #4]
 737 00b2 1B8B     		ldrh	r3, [r3, #24]
 738 00b4 03F4A053 		and	r3, r3, #5120
 739 00b8 B3F5805F 		cmp	r3, #4096
 740 00bc 12D0     		beq	.L92
 741              	.L82:
 742              		.loc 1 666 0
 743 00be 2269     		ldr	r2, [r4, #16]
 744              		.loc 1 667 0
 745 00c0 6369     		ldr	r3, [r4, #20]
 746              		.loc 1 666 0
 747 00c2 A568     		ldr	r5, [r4, #8]
 748 00c4 1068     		ldr	r0, [r2]
 749              		.loc 1 667 0
 750 00c6 1968     		ldr	r1, [r3]
 751              		.loc 1 668 0
 752 00c8 0022     		movs	r2, #0
 753              		.loc 1 666 0
 754 00ca 2B1D     		adds	r3, r5, #4
 755 00cc 8360     		str	r3, [r0, #8]
 756              		.loc 1 667 0
 757 00ce 8B60     		str	r3, [r1, #8]
 758              		.loc 1 668 0
 759 00d0 2283     		strh	r2, [r4, #24]	@ movhi
 760 00d2 9CE7     		b	.L79
 761              	.LVL45:
 762              	.L83:
 763              	.LBB49:
 764              	.LBB48:
 765              		.loc 1 212 0
 766 00d4 6368     		ldr	r3, [r4, #4]
 767 00d6 2449     		ldr	r1, .L93+16
 768 00d8 5A69     		ldr	r2, [r3, #20]
 769 00da B1FBF2F2 		udiv	r2, r1, r2
 770 00de 92B2     		uxth	r2, r2
 771 00e0 2A81     		strh	r2, [r5, #8]	@ movhi
 772 00e2 A9E7     		b	.L85
 773              	.LVL46:
 774              	.L92:
 775              	.LBE48:
 776              	.LBE49:
 777              		.loc 1 665 0
 778 00e4 E368     		ldr	r3, [r4, #12]
 779 00e6 43F42053 		orr	r3, r3, #10240
 780 00ea E360     		str	r3, [r4, #12]
 781 00ec E7E7     		b	.L82
 782              	.LVL47:
 783              	.L91:
 784              	.LBB50:
 785              		.loc 1 644 0
 786 00ee 1F4A     		ldr	r2, .L93+20
 787 00f0 0069     		ldr	r0, [r0, #16]
 788              	.LVL48:
ARM GAS  C:\Users\jsyoon\AppData\Local\Temp\ccXoI9ru.s 			page 15


 789 00f2 0C21     		movs	r1, #12
 790 00f4 2346     		mov	r3, r4
 791 00f6 FFF7FEFF 		bl	dmaStreamAllocate
 792              	.LVL49:
 793              		.loc 1 649 0
 794 00fa 1D4A     		ldr	r2, .L93+24
 795 00fc 6069     		ldr	r0, [r4, #20]
 796 00fe 0C21     		movs	r1, #12
 797 0100 2346     		mov	r3, r4
 798 0102 FFF7FEFF 		bl	dmaStreamAllocate
 799              	.LVL50:
 800              		.loc 1 654 0
 801 0106 1B4B     		ldr	r3, .L93+28
 802 0108 5A6C     		ldr	r2, [r3, #68]
 803 010a 42F02002 		orr	r2, r2, #32
 804 010e 5A64     		str	r2, [r3, #68]
 805              		.loc 1 655 0
 806 0110 4720     		movs	r0, #71
 807 0112 C021     		movs	r1, #192
 808 0114 FFF7FEFF 		bl	nvicEnableVector
 809              	.LVL51:
 810              		.loc 1 657 0
 811 0118 E368     		ldr	r3, [r4, #12]
 812 011a 43F02063 		orr	r3, r3, #167772160
 813 011e E360     		str	r3, [r4, #12]
 814 0120 C6E7     		b	.L81
 815              	.LVL52:
 816              	.L90:
 817              	.LBE50:
 818              	.LBB51:
 819              		.loc 1 565 0
 820 0122 124A     		ldr	r2, .L93+20
 821 0124 0069     		ldr	r0, [r0, #16]
 822              	.LVL53:
 823 0126 0C21     		movs	r1, #12
 824 0128 2346     		mov	r3, r4
 825 012a FFF7FEFF 		bl	dmaStreamAllocate
 826              	.LVL54:
 827              		.loc 1 570 0
 828 012e 104A     		ldr	r2, .L93+24
 829 0130 6069     		ldr	r0, [r4, #20]
 830 0132 0C21     		movs	r1, #12
 831 0134 2346     		mov	r3, r4
 832 0136 FFF7FEFF 		bl	dmaStreamAllocate
 833              	.LVL55:
 834              		.loc 1 575 0
 835 013a 0E4B     		ldr	r3, .L93+28
 836 013c 1A6C     		ldr	r2, [r3, #64]
 837 013e 42F48022 		orr	r2, r2, #262144
 838 0142 1A64     		str	r2, [r3, #64]
 839              		.loc 1 576 0
 840 0144 2720     		movs	r0, #39
 841 0146 C021     		movs	r1, #192
 842 0148 FFF7FEFF 		bl	nvicEnableVector
 843              	.LVL56:
 844              		.loc 1 578 0
 845 014c E368     		ldr	r3, [r4, #12]
ARM GAS  C:\Users\jsyoon\AppData\Local\Temp\ccXoI9ru.s 			page 16


 846 014e 43F00063 		orr	r3, r3, #134217728
 847 0152 E360     		str	r3, [r4, #12]
 848 0154 ACE7     		b	.L81
 849              	.L94:
 850 0156 00BF     		.align	2
 851              	.L93:
 852 0158 00100140 		.word	1073811456
 853 015c 80DE8002 		.word	42000000
 854 0160 00000000 		.word	.LANCHOR0
 855 0164 00000000 		.word	.LANCHOR1
 856 0168 00BD0105 		.word	84000000
 857 016c 00000000 		.word	uart_lld_serve_rx_end_irq
 858 0170 00000000 		.word	uart_lld_serve_tx_end_irq
 859 0174 00380240 		.word	1073887232
 860              	.LBE51:
 861              		.cfi_endproc
 862              	.LFE128:
 863              		.size	uart_lld_start, .-uart_lld_start
 864 0178 AFF30080 		.section	.text.uart_lld_stop,"ax",%progbits
 864      AFF30080 
 865              		.align	2
 866              		.p2align 4,,15
 867              		.global	uart_lld_stop
 868              		.thumb
 869              		.thumb_func
 870              		.type	uart_lld_stop, %function
 871              	uart_lld_stop:
 872              	.LFB129:
 873              		.loc 1 683 0
 874              		.cfi_startproc
 875              		@ args = 0, pretend = 0, frame = 0
 876              		@ frame_needed = 0, uses_anonymous_args = 0
 877              	.LVL57:
 878              		.loc 1 685 0
 879 0000 0378     		ldrb	r3, [r0]	@ zero_extendqisi2
 880 0002 022B     		cmp	r3, #2
 881              		.loc 1 683 0
 882 0004 10B5     		push	{r4, lr}
 883              		.cfi_def_cfa_offset 8
 884              		.cfi_offset 4, -8
 885              		.cfi_offset 14, -4
 886              		.loc 1 683 0
 887 0006 0446     		mov	r4, r0
 888              		.loc 1 685 0
 889 0008 00D0     		beq	.L100
 890              	.LVL58:
 891              	.L95:
 892 000a 10BD     		pop	{r4, pc}
 893              	.LVL59:
 894              	.L100:
 895              		.loc 1 686 0
 896 000c FFF7FEFF 		bl	usart_stop
 897              	.LVL60:
 898              		.loc 1 687 0
 899 0010 2069     		ldr	r0, [r4, #16]
 900 0012 FFF7FEFF 		bl	dmaStreamRelease
 901              	.LVL61:
ARM GAS  C:\Users\jsyoon\AppData\Local\Temp\ccXoI9ru.s 			page 17


 902              		.loc 1 688 0
 903 0016 6069     		ldr	r0, [r4, #20]
 904 0018 FFF7FEFF 		bl	dmaStreamRelease
 905              	.LVL62:
 906              		.loc 1 707 0
 907 001c 0B4B     		ldr	r3, .L102
 908 001e 9C42     		cmp	r4, r3
 909 0020 0BD0     		beq	.L101
 910              		.loc 1 731 0
 911 0022 0B4B     		ldr	r3, .L102+4
 912 0024 9C42     		cmp	r4, r3
 913 0026 F0D1     		bne	.L95
 914              		.loc 1 732 0
 915 0028 4720     		movs	r0, #71
 916 002a FFF7FEFF 		bl	nvicDisableVector
 917              	.LVL63:
 918              		.loc 1 733 0
 919 002e 094B     		ldr	r3, .L102+8
 920 0030 5A6C     		ldr	r2, [r3, #68]
 921 0032 22F02002 		bic	r2, r2, #32
 922 0036 5A64     		str	r2, [r3, #68]
 923              		.loc 1 734 0
 924 0038 E7E7     		b	.L95
 925              	.L101:
 926              		.loc 1 708 0
 927 003a 2720     		movs	r0, #39
 928 003c FFF7FEFF 		bl	nvicDisableVector
 929              	.LVL64:
 930              		.loc 1 709 0
 931 0040 044B     		ldr	r3, .L102+8
 932 0042 1A6C     		ldr	r2, [r3, #64]
 933 0044 22F48022 		bic	r2, r2, #262144
 934 0048 1A64     		str	r2, [r3, #64]
 935              		.loc 1 710 0
 936 004a 10BD     		pop	{r4, pc}
 937              	.LVL65:
 938              	.L103:
 939              		.align	2
 940              	.L102:
 941 004c 00000000 		.word	.LANCHOR0
 942 0050 00000000 		.word	.LANCHOR1
 943 0054 00380240 		.word	1073887232
 944              		.cfi_endproc
 945              	.LFE129:
 946              		.size	uart_lld_stop, .-uart_lld_stop
 947 0058 AFF30080 		.section	.text.uart_lld_start_send,"ax",%progbits
 947      AFF30080 
 948              		.align	2
 949              		.p2align 4,,15
 950              		.global	uart_lld_start_send
 951              		.thumb
 952              		.thumb_func
 953              		.type	uart_lld_start_send, %function
 954              	uart_lld_start_send:
 955              	.LFB130:
 956              		.loc 1 751 0
 957              		.cfi_startproc
ARM GAS  C:\Users\jsyoon\AppData\Local\Temp\ccXoI9ru.s 			page 18


 958              		@ args = 0, pretend = 0, frame = 0
 959              		@ frame_needed = 0, uses_anonymous_args = 0
 960              		@ link register save eliminated.
 961              	.LVL66:
 962              		.loc 1 754 0
 963 0000 4369     		ldr	r3, [r0, #20]
 964              		.loc 1 756 0
 965 0002 C068     		ldr	r0, [r0, #12]
 966              	.LVL67:
 967              		.loc 1 754 0
 968 0004 1B68     		ldr	r3, [r3]
 969              		.loc 1 756 0
 970 0006 40F48A60 		orr	r0, r0, #1104
 971              		.loc 1 754 0
 972 000a DA60     		str	r2, [r3, #12]
 973              		.loc 1 755 0
 974 000c 5960     		str	r1, [r3, #4]
 975              		.loc 1 756 0
 976 000e 1860     		str	r0, [r3]
 977              		.loc 1 758 0
 978 0010 1A68     		ldr	r2, [r3]
 979              	.LVL68:
 980 0012 42F00102 		orr	r2, r2, #1
 981 0016 1A60     		str	r2, [r3]
 982 0018 7047     		bx	lr
 983              		.cfi_endproc
 984              	.LFE130:
 985              		.size	uart_lld_start_send, .-uart_lld_start_send
 986 001a 00BFAFF3 		.section	.text.uart_lld_stop_send,"ax",%progbits
 986      0080
 987              		.align	2
 988              		.p2align 4,,15
 989              		.global	uart_lld_stop_send
 990              		.thumb
 991              		.thumb_func
 992              		.type	uart_lld_stop_send, %function
 993              	uart_lld_stop_send:
 994              	.LFB131:
 995              		.loc 1 772 0
 996              		.cfi_startproc
 997              		@ args = 0, pretend = 0, frame = 0
 998              		@ frame_needed = 0, uses_anonymous_args = 0
 999              		@ link register save eliminated.
 1000              	.LVL69:
 1001              		.loc 1 774 0
 1002 0000 4169     		ldr	r1, [r0, #20]
 1003 0002 0A68     		ldr	r2, [r1]
 1004 0004 1368     		ldr	r3, [r2]
 1005 0006 23F01F03 		bic	r3, r3, #31
 1006 000a 1360     		str	r3, [r2]
 1007              	.L107:
 1008              		.loc 1 774 0 is_stmt 0 discriminator 1
 1009 000c 1368     		ldr	r3, [r2]
 1010 000e DB07     		lsls	r3, r3, #31
 1011 0010 FCD4     		bmi	.L107
 1012              		.loc 1 774 0 discriminator 2
 1013 0012 087A     		ldrb	r0, [r1, #8]	@ zero_extendqisi2
ARM GAS  C:\Users\jsyoon\AppData\Local\Temp\ccXoI9ru.s 			page 19


 1014              	.LVL70:
 1015 0014 4B68     		ldr	r3, [r1, #4]
 1016 0016 3D21     		movs	r1, #61
 1017 0018 8140     		lsls	r1, r1, r0
 1018 001a 1960     		str	r1, [r3]
 1019              		.loc 1 775 0 is_stmt 1 discriminator 2
 1020 001c 5068     		ldr	r0, [r2, #4]
 1021              		.loc 1 776 0 discriminator 2
 1022 001e 7047     		bx	lr
 1023              		.cfi_endproc
 1024              	.LFE131:
 1025              		.size	uart_lld_stop_send, .-uart_lld_stop_send
 1026              		.section	.text.uart_lld_start_receive,"ax",%progbits
 1027              		.align	2
 1028              		.p2align 4,,15
 1029              		.global	uart_lld_start_receive
 1030              		.thumb
 1031              		.thumb_func
 1032              		.type	uart_lld_start_receive, %function
 1033              	uart_lld_start_receive:
 1034              	.LFB132:
 1035              		.loc 1 789 0
 1036              		.cfi_startproc
 1037              		@ args = 0, pretend = 0, frame = 0
 1038              		@ frame_needed = 0, uses_anonymous_args = 0
 1039              		@ link register save eliminated.
 1040              	.LVL71:
 1041 0000 70B4     		push	{r4, r5, r6}
 1042              		.cfi_def_cfa_offset 12
 1043              		.cfi_offset 4, -12
 1044              		.cfi_offset 5, -8
 1045              		.cfi_offset 6, -4
 1046              		.loc 1 792 0
 1047 0002 0569     		ldr	r5, [r0, #16]
 1048 0004 2C68     		ldr	r4, [r5]
 1049 0006 2368     		ldr	r3, [r4]
 1050 0008 23F01F03 		bic	r3, r3, #31
 1051 000c 2360     		str	r3, [r4]
 1052              	.L110:
 1053              		.loc 1 792 0 is_stmt 0 discriminator 1
 1054 000e 2368     		ldr	r3, [r4]
 1055 0010 DB07     		lsls	r3, r3, #31
 1056 0012 FCD4     		bmi	.L110
 1057              		.loc 1 792 0 discriminator 2
 1058 0014 2E7A     		ldrb	r6, [r5, #8]	@ zero_extendqisi2
 1059 0016 6B68     		ldr	r3, [r5, #4]
 1060 0018 3D25     		movs	r5, #61
 1061 001a B540     		lsls	r5, r5, r6
 1062 001c 1D60     		str	r5, [r3]
 1063              		.loc 1 797 0 is_stmt 1 discriminator 2
 1064 001e C368     		ldr	r3, [r0, #12]
 1065              		.loc 1 795 0 discriminator 2
 1066 0020 E260     		str	r2, [r4, #12]
 1067              		.loc 1 797 0 discriminator 2
 1068 0022 43F48263 		orr	r3, r3, #1040
 1069              		.loc 1 796 0 discriminator 2
 1070 0026 6160     		str	r1, [r4, #4]
ARM GAS  C:\Users\jsyoon\AppData\Local\Temp\ccXoI9ru.s 			page 20


 1071              		.loc 1 797 0 discriminator 2
 1072 0028 2360     		str	r3, [r4]
 1073              		.loc 1 799 0 discriminator 2
 1074 002a 2368     		ldr	r3, [r4]
 1075 002c 43F00103 		orr	r3, r3, #1
 1076 0030 2360     		str	r3, [r4]
 1077              		.loc 1 800 0 discriminator 2
 1078 0032 70BC     		pop	{r4, r5, r6}
 1079 0034 7047     		bx	lr
 1080              		.cfi_endproc
 1081              	.LFE132:
 1082              		.size	uart_lld_start_receive, .-uart_lld_start_receive
 1083 0036 00BFAFF3 		.section	.text.uart_lld_stop_receive,"ax",%progbits
 1083      0080AFF3 
 1083      0080
 1084              		.align	2
 1085              		.p2align 4,,15
 1086              		.global	uart_lld_stop_receive
 1087              		.thumb
 1088              		.thumb_func
 1089              		.type	uart_lld_stop_receive, %function
 1090              	uart_lld_stop_receive:
 1091              	.LFB133:
 1092              		.loc 1 813 0
 1093              		.cfi_startproc
 1094              		@ args = 0, pretend = 0, frame = 0
 1095              		@ frame_needed = 0, uses_anonymous_args = 0
 1096              		@ link register save eliminated.
 1097              	.LVL72:
 1098 0000 0146     		mov	r1, r0
 1099              		.loc 1 816 0
 1100 0002 0069     		ldr	r0, [r0, #16]
 1101              	.LVL73:
 1102 0004 0268     		ldr	r2, [r0]
 1103 0006 1368     		ldr	r3, [r2]
 1104 0008 23F01F03 		bic	r3, r3, #31
 1105              		.loc 1 813 0
 1106 000c 30B4     		push	{r4, r5}
 1107              		.cfi_def_cfa_offset 8
 1108              		.cfi_offset 4, -8
 1109              		.cfi_offset 5, -4
 1110              		.loc 1 816 0
 1111 000e 1360     		str	r3, [r2]
 1112              	.L113:
 1113              		.loc 1 816 0 is_stmt 0 discriminator 1
 1114 0010 1368     		ldr	r3, [r2]
 1115 0012 DB07     		lsls	r3, r3, #31
 1116 0014 FCD4     		bmi	.L113
 1117              	.LBB52:
 1118              	.LBB53:
 1119              		.loc 1 165 0 is_stmt 1 discriminator 2
 1120 0016 4B68     		ldr	r3, [r1, #4]
 1121              	.LBE53:
 1122              	.LBE52:
 1123              		.loc 1 816 0 discriminator 2
 1124 0018 057A     		ldrb	r5, [r0, #8]	@ zero_extendqisi2
 1125              	.LBB57:
ARM GAS  C:\Users\jsyoon\AppData\Local\Temp\ccXoI9ru.s 			page 21


 1126              	.LBB54:
 1127              		.loc 1 165 0 discriminator 2
 1128 001a DC68     		ldr	r4, [r3, #12]
 1129              	.LBE54:
 1130              	.LBE57:
 1131              		.loc 1 816 0 discriminator 2
 1132 001c 4068     		ldr	r0, [r0, #4]
 1133 001e 3D23     		movs	r3, #61
 1134 0020 AB40     		lsls	r3, r3, r5
 1135 0022 0360     		str	r3, [r0]
 1136              	.LBB58:
 1137              	.LBB55:
 1138              		.loc 1 171 0 discriminator 2
 1139 0024 CB68     		ldr	r3, [r1, #12]
 1140              	.LBE55:
 1141              	.LBE58:
 1142              		.loc 1 817 0 discriminator 2
 1143 0026 5068     		ldr	r0, [r2, #4]
 1144              	.LVL74:
 1145              	.LBB59:
 1146              	.LBB56:
 1147              		.loc 1 166 0 discriminator 2
 1148 0028 002C     		cmp	r4, #0
 1149 002a 14BF     		ite	ne
 1150 002c 4FF48874 		movne	r4, #272
 1151 0030 4FF48074 		moveq	r4, #256
 1152              	.LVL75:
 1153              		.loc 1 171 0 discriminator 2
 1154 0034 2343     		orrs	r3, r3, r4
 1155              		.loc 1 169 0 discriminator 2
 1156 0036 1831     		adds	r1, r1, #24
 1157              	.LVL76:
 1158              		.loc 1 170 0 discriminator 2
 1159 0038 0124     		movs	r4, #1
 1160              	.LVL77:
 1161              		.loc 1 169 0 discriminator 2
 1162 003a D160     		str	r1, [r2, #12]
 1163              		.loc 1 170 0 discriminator 2
 1164 003c 5460     		str	r4, [r2, #4]
 1165              		.loc 1 171 0 discriminator 2
 1166 003e 1360     		str	r3, [r2]
 1167              		.loc 1 172 0 discriminator 2
 1168 0040 1368     		ldr	r3, [r2]
 1169 0042 2343     		orrs	r3, r3, r4
 1170 0044 1360     		str	r3, [r2]
 1171              	.LBE56:
 1172              	.LBE59:
 1173              		.loc 1 820 0 discriminator 2
 1174 0046 30BC     		pop	{r4, r5}
 1175 0048 7047     		bx	lr
 1176              		.cfi_endproc
 1177              	.LFE133:
 1178              		.size	uart_lld_stop_receive, .-uart_lld_stop_receive
 1179              		.global	UARTD6
 1180              		.global	UARTD3
 1181 004a 00BFAFF3 		.section	.bss.UARTD3,"aw",%nobits
 1181      0080
ARM GAS  C:\Users\jsyoon\AppData\Local\Temp\ccXoI9ru.s 			page 22


 1182              		.align	2
 1183              		.set	.LANCHOR0,. + 0
 1184              		.type	UARTD3, %object
 1185              		.size	UARTD3, 28
 1186              	UARTD3:
 1187 0000 00000000 		.space	28
 1187      00000000 
 1187      00000000 
 1187      00000000 
 1187      00000000 
 1188              		.section	.bss.UARTD6,"aw",%nobits
 1189              		.align	2
 1190              		.set	.LANCHOR1,. + 0
 1191              		.type	UARTD6, %object
 1192              		.size	UARTD6, 28
 1193              	UARTD6:
 1194 0000 00000000 		.space	28
 1194      00000000 
 1194      00000000 
 1194      00000000 
 1194      00000000 
 1195              		.text
 1196              	.Letext0:
 1197              		.file 2 "c:\\crosstools\\gcc-arm-embedded\\4.8_2014q2\\lib\\gcc\\arm-none-eabi\\4.8.4\\include\\st
 1198              		.file 3 "c:\\crosstools\\gcc-arm-embedded\\4.8_2014q2\\arm-none-eabi\\include\\machine\\_default_t
 1199              		.file 4 "c:\\crosstools\\gcc-arm-embedded\\4.8_2014q2\\arm-none-eabi\\include\\stdint.h"
 1200              		.file 5 "ChibiOS_2.6.6/os/ports/GCC/ARMCMx/chtypes.h"
 1201              		.file 6 "ChibiOS_2.6.6/os/hal/platforms/STM32F4xx/stm32f4xx.h"
 1202              		.file 7 "ChibiOS_2.6.6/os/hal/platforms/STM32F4xx/stm32_dma.h"
 1203              		.file 8 "ChibiOS_2.6.6/os/hal/include/uart.h"
 1204              		.file 9 "ChibiOS_2.6.6/os/hal/platforms/STM32/USARTv1/uart_lld.h"
 1205              		.file 10 "ChibiOS_2.6.6/os/ports/common/ARMCMx/CMSIS/include/core_cm4.h"
 1206              		.file 11 "ChibiOS_2.6.6/os/ports/GCC/ARMCMx/chcore_v7m.h"
 1207              		.file 12 "ChibiOS_2.6.6/os/ports/common/ARMCMx/nvic.h"