ARM GAS  C:\Users\jsyoon\AppData\Local\Temp\ccd9Jjyg.s 			page 1


   1              		.syntax unified
   2              		.cpu cortex-m4
   3              		.eabi_attribute 27, 3
   4              		.eabi_attribute 28, 1
   5              		.fpu fpv4-sp-d16
   6              		.eabi_attribute 20, 1
   7              		.eabi_attribute 21, 1
   8              		.eabi_attribute 23, 3
   9              		.eabi_attribute 24, 1
  10              		.eabi_attribute 25, 1
  11              		.eabi_attribute 26, 1
  12              		.eabi_attribute 30, 2
  13              		.eabi_attribute 34, 1
  14              		.eabi_attribute 18, 4
  15              		.thumb
  16              		.file	"usb.c"
  17              		.text
  18              	.Ltext0:
  19              		.cfi_sections	.debug_frame
  20              		.section	.text.usbInit,"ax",%progbits
  21              		.align	2
  22              		.p2align 4,,15
  23              		.global	usbInit
  24              		.thumb
  25              		.thumb_func
  26              		.type	usbInit, %function
  27              	usbInit:
  28              	.LFB120:
  29              		.file 1 "ChibiOS_2.6.6/os/hal/src/usb.c"
  30              		.loc 1 235 0
  31              		.cfi_startproc
  32              		@ args = 0, pretend = 0, frame = 0
  33              		@ frame_needed = 0, uses_anonymous_args = 0
  34              		@ link register save eliminated.
  35              		.loc 1 237 0
  36 0000 FFF7FEBF 		b	usb_lld_init
  37              	.LVL0:
  38              		.cfi_endproc
  39              	.LFE120:
  40              		.size	usbInit, .-usbInit
  41 0004 AFF30080 		.section	.text.usbObjectInit,"ax",%progbits
  41      AFF30080 
  41      AFF30080 
  42              		.align	2
  43              		.p2align 4,,15
  44              		.global	usbObjectInit
  45              		.thumb
  46              		.thumb_func
  47              		.type	usbObjectInit, %function
  48              	usbObjectInit:
  49              	.LFB121:
  50              		.loc 1 247 0
  51              		.cfi_startproc
  52              		@ args = 0, pretend = 0, frame = 0
  53              		@ frame_needed = 0, uses_anonymous_args = 0
  54              		@ link register save eliminated.
  55              	.LVL1:
ARM GAS  C:\Users\jsyoon\AppData\Local\Temp\ccd9Jjyg.s 			page 2


  56              		.loc 1 251 0
  57 0000 0023     		movs	r3, #0
  58              		.loc 1 250 0
  59 0002 0122     		movs	r2, #1
  60 0004 0270     		strb	r2, [r0]
  61              		.loc 1 251 0
  62 0006 4360     		str	r3, [r0, #4]
  63              	.LVL2:
  64              		.loc 1 253 0
  65 0008 C361     		str	r3, [r0, #28]
  66              		.loc 1 254 0
  67 000a 8362     		str	r3, [r0, #40]
  68              	.LVL3:
  69              		.loc 1 253 0
  70 000c 0362     		str	r3, [r0, #32]
  71              		.loc 1 254 0
  72 000e C362     		str	r3, [r0, #44]
  73              	.LVL4:
  74              		.loc 1 253 0
  75 0010 4362     		str	r3, [r0, #36]
  76              		.loc 1 254 0
  77 0012 0363     		str	r3, [r0, #48]
  78              	.LVL5:
  79              		.loc 1 256 0
  80 0014 0381     		strh	r3, [r0, #8]	@ movhi
  81              		.loc 1 257 0
  82 0016 4381     		strh	r3, [r0, #10]	@ movhi
  83 0018 7047     		bx	lr
  84              		.cfi_endproc
  85              	.LFE121:
  86              		.size	usbObjectInit, .-usbObjectInit
  87 001a 00BFAFF3 		.section	.text.usbStart,"ax",%progbits
  87      0080
  88              		.align	2
  89              		.p2align 4,,15
  90              		.global	usbStart
  91              		.thumb
  92              		.thumb_func
  93              		.type	usbStart, %function
  94              	usbStart:
  95              	.LFB122:
  96              		.loc 1 268 0
  97              		.cfi_startproc
  98              		@ args = 0, pretend = 0, frame = 0
  99              		@ frame_needed = 0, uses_anonymous_args = 0
 100              	.LVL6:
 101 0000 10B5     		push	{r4, lr}
 102              		.cfi_def_cfa_offset 8
 103              		.cfi_offset 4, -8
 104              		.cfi_offset 14, -4
 105              		.loc 1 268 0
 106 0002 0446     		mov	r4, r0
 107              		.loc 1 273 0
 108              	@ 273 "ChibiOS_2.6.6/os/hal/src/usb.c" 1
 109 0004 72B6     		cpsid   i
 110              	@ 0 "" 2
 111              		.loc 1 278 0
ARM GAS  C:\Users\jsyoon\AppData\Local\Temp\ccd9Jjyg.s 			page 3


 112              		.thumb
 113 0006 0023     		movs	r3, #0
 114 0008 C360     		str	r3, [r0, #12]
 115 000a 0361     		str	r3, [r0, #16]
 116 000c 4361     		str	r3, [r0, #20]
 117 000e 8361     		str	r3, [r0, #24]
 118              		.loc 1 276 0
 119 0010 4160     		str	r1, [r0, #4]
 120              	.LVL7:
 121              		.loc 1 279 0
 122 0012 FFF7FEFF 		bl	usb_lld_start
 123              	.LVL8:
 124              		.loc 1 280 0
 125 0016 0223     		movs	r3, #2
 126 0018 2370     		strb	r3, [r4]
 127              		.loc 1 281 0
 128              	@ 281 "ChibiOS_2.6.6/os/hal/src/usb.c" 1
 129 001a 62B6     		cpsie   i
 130              	@ 0 "" 2
 131              		.thumb
 132 001c 10BD     		pop	{r4, pc}
 133              		.cfi_endproc
 134              	.LFE122:
 135              		.size	usbStart, .-usbStart
 136 001e 00BF     		.section	.text.usbStop,"ax",%progbits
 137              		.align	2
 138              		.p2align 4,,15
 139              		.global	usbStop
 140              		.thumb
 141              		.thumb_func
 142              		.type	usbStop, %function
 143              	usbStop:
 144              	.LFB123:
 145              		.loc 1 291 0
 146              		.cfi_startproc
 147              		@ args = 0, pretend = 0, frame = 0
 148              		@ frame_needed = 0, uses_anonymous_args = 0
 149              	.LVL9:
 150 0000 10B5     		push	{r4, lr}
 151              		.cfi_def_cfa_offset 8
 152              		.cfi_offset 4, -8
 153              		.cfi_offset 14, -4
 154              		.loc 1 291 0
 155 0002 0446     		mov	r4, r0
 156              		.loc 1 295 0
 157              	@ 295 "ChibiOS_2.6.6/os/hal/src/usb.c" 1
 158 0004 72B6     		cpsid   i
 159              	@ 0 "" 2
 160              		.loc 1 299 0
 161              		.thumb
 162 0006 FFF7FEFF 		bl	usb_lld_stop
 163              	.LVL10:
 164              		.loc 1 300 0
 165 000a 0123     		movs	r3, #1
 166 000c 2370     		strb	r3, [r4]
 167              		.loc 1 301 0
 168              	@ 301 "ChibiOS_2.6.6/os/hal/src/usb.c" 1
ARM GAS  C:\Users\jsyoon\AppData\Local\Temp\ccd9Jjyg.s 			page 4


 169 000e 62B6     		cpsie   i
 170              	@ 0 "" 2
 171              		.thumb
 172 0010 10BD     		pop	{r4, pc}
 173              		.cfi_endproc
 174              	.LFE123:
 175              		.size	usbStop, .-usbStop
 176 0012 00BFAFF3 		.section	.text.usbInitEndpointI,"ax",%progbits
 176      0080AFF3 
 176      0080AFF3 
 176      0080
 177              		.align	2
 178              		.p2align 4,,15
 179              		.global	usbInitEndpointI
 180              		.thumb
 181              		.thumb_func
 182              		.type	usbInitEndpointI, %function
 183              	usbInitEndpointI:
 184              	.LFB124:
 185              		.loc 1 318 0
 186              		.cfi_startproc
 187              		@ args = 0, pretend = 0, frame = 0
 188              		@ frame_needed = 0, uses_anonymous_args = 0
 189              	.LVL11:
 190 0000 70B5     		push	{r4, r5, r6, lr}
 191              		.cfi_def_cfa_offset 16
 192              		.cfi_offset 4, -16
 193              		.cfi_offset 5, -12
 194              		.cfi_offset 6, -8
 195              		.cfi_offset 14, -4
 196              		.loc 1 318 0
 197 0002 0646     		mov	r6, r0
 198              		.loc 1 328 0
 199 0004 5069     		ldr	r0, [r2, #20]
 200              	.LVL12:
 201              		.loc 1 318 0
 202 0006 1446     		mov	r4, r2
 203 0008 0D46     		mov	r5, r1
 204              		.loc 1 328 0
 205 000a 18B1     		cbz	r0, .L6
 206              		.loc 1 329 0
 207 000c 0021     		movs	r1, #0
 208              	.LVL13:
 209 000e 1422     		movs	r2, #20
 210              	.LVL14:
 211 0010 FFF7FEFF 		bl	memset
 212              	.LVL15:
 213              	.L6:
 214              		.loc 1 330 0
 215 0014 A069     		ldr	r0, [r4, #24]
 216 0016 18B1     		cbz	r0, .L7
 217              		.loc 1 331 0
 218 0018 0021     		movs	r1, #0
 219 001a 1422     		movs	r2, #20
 220 001c FFF7FEFF 		bl	memset
 221              	.LVL16:
 222              	.L7:
ARM GAS  C:\Users\jsyoon\AppData\Local\Temp\ccd9Jjyg.s 			page 5


 223              		.loc 1 333 0
 224 0020 06EB8503 		add	r3, r6, r5, lsl #2
 225              		.loc 1 336 0
 226 0024 3046     		mov	r0, r6
 227              		.loc 1 333 0
 228 0026 DC60     		str	r4, [r3, #12]
 229              		.loc 1 336 0
 230 0028 2946     		mov	r1, r5
 231              		.loc 1 337 0
 232 002a BDE87040 		pop	{r4, r5, r6, lr}
 233              	.LVL17:
 234              		.loc 1 336 0
 235 002e FFF7FEBF 		b	usb_lld_init_endpoint
 236              	.LVL18:
 237              		.cfi_endproc
 238              	.LFE124:
 239              		.size	usbInitEndpointI, .-usbInitEndpointI
 240 0032 00BFAFF3 		.section	.text.usbDisableEndpointsI,"ax",%progbits
 240      0080AFF3 
 240      0080AFF3 
 240      0080
 241              		.align	2
 242              		.p2align 4,,15
 243              		.global	usbDisableEndpointsI
 244              		.thumb
 245              		.thumb_func
 246              		.type	usbDisableEndpointsI, %function
 247              	usbDisableEndpointsI:
 248              	.LFB125:
 249              		.loc 1 350 0
 250              		.cfi_startproc
 251              		@ args = 0, pretend = 0, frame = 0
 252              		@ frame_needed = 0, uses_anonymous_args = 0
 253              		@ link register save eliminated.
 254              	.LVL19:
 255 0000 10B4     		push	{r4}
 256              		.cfi_def_cfa_offset 4
 257              		.cfi_offset 4, -4
 258              		.loc 1 359 0
 259 0002 4189     		ldrh	r1, [r0, #10]
 260              		.loc 1 358 0
 261 0004 0489     		ldrh	r4, [r0, #8]
 262              		.loc 1 361 0
 263 0006 0022     		movs	r2, #0
 264              		.loc 1 358 0
 265 0008 24F00104 		bic	r4, r4, #1
 266              		.loc 1 359 0
 267 000c 21F00101 		bic	r1, r1, #1
 268              		.loc 1 358 0
 269 0010 0481     		strh	r4, [r0, #8]	@ movhi
 270              		.loc 1 361 0
 271 0012 0261     		str	r2, [r0, #16]
 272              		.loc 1 359 0
 273 0014 4181     		strh	r1, [r0, #10]	@ movhi
 274              	.LVL20:
 275              		.loc 1 361 0
 276 0016 4261     		str	r2, [r0, #20]
ARM GAS  C:\Users\jsyoon\AppData\Local\Temp\ccd9Jjyg.s 			page 6


 277              	.LVL21:
 278 0018 8261     		str	r2, [r0, #24]
 279              	.LVL22:
 280              		.loc 1 365 0
 281 001a 5DF8044B 		ldr	r4, [sp], #4
 282              		.loc 1 364 0
 283 001e FFF7FEBF 		b	usb_lld_disable_endpoints
 284              	.LVL23:
 285              		.cfi_endproc
 286              	.LFE125:
 287              		.size	usbDisableEndpointsI, .-usbDisableEndpointsI
 288 0022 00BFAFF3 		.section	.text.usbPrepareReceive,"ax",%progbits
 288      0080AFF3 
 288      0080AFF3 
 288      0080
 289              		.align	2
 290              		.p2align 4,,15
 291              		.global	usbPrepareReceive
 292              		.thumb
 293              		.thumb_func
 294              		.type	usbPrepareReceive, %function
 295              	usbPrepareReceive:
 296              	.LFB126:
 297              		.loc 1 379 0
 298              		.cfi_startproc
 299              		@ args = 0, pretend = 0, frame = 0
 300              		@ frame_needed = 0, uses_anonymous_args = 0
 301              		@ link register save eliminated.
 302              	.LVL24:
 303 0000 30B4     		push	{r4, r5}
 304              		.cfi_def_cfa_offset 8
 305              		.cfi_offset 4, -8
 306              		.cfi_offset 5, -4
 307              		.loc 1 380 0
 308 0002 00EB8104 		add	r4, r0, r1, lsl #2
 309              		.loc 1 382 0
 310 0006 0025     		movs	r5, #0
 311              		.loc 1 380 0
 312 0008 E468     		ldr	r4, [r4, #12]
 313 000a A469     		ldr	r4, [r4, #24]
 314              	.LVL25:
 315              		.loc 1 383 0
 316 000c E260     		str	r2, [r4, #12]
 317              		.loc 1 384 0
 318 000e 6360     		str	r3, [r4, #4]
 319              		.loc 1 382 0
 320 0010 2570     		strb	r5, [r4]
 321              		.loc 1 385 0
 322 0012 A560     		str	r5, [r4, #8]
 323              		.loc 1 388 0
 324 0014 30BC     		pop	{r4, r5}
 325              	.LVL26:
 326              		.loc 1 387 0
 327 0016 FFF7FEBF 		b	usb_lld_prepare_receive
 328              	.LVL27:
 329              		.cfi_endproc
 330              	.LFE126:
ARM GAS  C:\Users\jsyoon\AppData\Local\Temp\ccd9Jjyg.s 			page 7


 331              		.size	usbPrepareReceive, .-usbPrepareReceive
 332 001a 00BFAFF3 		.section	.text.usbPrepareTransmit,"ax",%progbits
 332      0080
 333              		.align	2
 334              		.p2align 4,,15
 335              		.global	usbPrepareTransmit
 336              		.thumb
 337              		.thumb_func
 338              		.type	usbPrepareTransmit, %function
 339              	usbPrepareTransmit:
 340              	.LFB127:
 341              		.loc 1 405 0
 342              		.cfi_startproc
 343              		@ args = 0, pretend = 0, frame = 0
 344              		@ frame_needed = 0, uses_anonymous_args = 0
 345              		@ link register save eliminated.
 346              	.LVL28:
 347 0000 30B4     		push	{r4, r5}
 348              		.cfi_def_cfa_offset 8
 349              		.cfi_offset 4, -8
 350              		.cfi_offset 5, -4
 351              		.loc 1 406 0
 352 0002 00EB8104 		add	r4, r0, r1, lsl #2
 353              		.loc 1 408 0
 354 0006 0025     		movs	r5, #0
 355              		.loc 1 406 0
 356 0008 E468     		ldr	r4, [r4, #12]
 357 000a 6469     		ldr	r4, [r4, #20]
 358              	.LVL29:
 359              		.loc 1 409 0
 360 000c E260     		str	r2, [r4, #12]
 361              		.loc 1 410 0
 362 000e 6360     		str	r3, [r4, #4]
 363              		.loc 1 408 0
 364 0010 2570     		strb	r5, [r4]
 365              		.loc 1 411 0
 366 0012 A560     		str	r5, [r4, #8]
 367              		.loc 1 414 0
 368 0014 30BC     		pop	{r4, r5}
 369              	.LVL30:
 370              		.loc 1 413 0
 371 0016 FFF7FEBF 		b	usb_lld_prepare_transmit
 372              	.LVL31:
 373              		.cfi_endproc
 374              	.LFE127:
 375              		.size	usbPrepareTransmit, .-usbPrepareTransmit
 376 001a 00BFAFF3 		.section	.text.usbPrepareQueuedReceive,"ax",%progbits
 376      0080
 377              		.align	2
 378              		.p2align 4,,15
 379              		.global	usbPrepareQueuedReceive
 380              		.thumb
 381              		.thumb_func
 382              		.type	usbPrepareQueuedReceive, %function
 383              	usbPrepareQueuedReceive:
 384              	.LFB128:
 385              		.loc 1 434 0
ARM GAS  C:\Users\jsyoon\AppData\Local\Temp\ccd9Jjyg.s 			page 8


 386              		.cfi_startproc
 387              		@ args = 0, pretend = 0, frame = 0
 388              		@ frame_needed = 0, uses_anonymous_args = 0
 389              		@ link register save eliminated.
 390              	.LVL32:
 391 0000 70B4     		push	{r4, r5, r6}
 392              		.cfi_def_cfa_offset 12
 393              		.cfi_offset 4, -12
 394              		.cfi_offset 5, -8
 395              		.cfi_offset 6, -4
 396              		.loc 1 435 0
 397 0002 00EB8104 		add	r4, r0, r1, lsl #2
 398              		.loc 1 437 0
 399 0006 0126     		movs	r6, #1
 400              		.loc 1 435 0
 401 0008 E468     		ldr	r4, [r4, #12]
 402 000a A469     		ldr	r4, [r4, #24]
 403              	.LVL33:
 404              		.loc 1 440 0
 405 000c 0025     		movs	r5, #0
 406              		.loc 1 438 0
 407 000e E260     		str	r2, [r4, #12]
 408              		.loc 1 439 0
 409 0010 6360     		str	r3, [r4, #4]
 410              		.loc 1 437 0
 411 0012 2670     		strb	r6, [r4]
 412              		.loc 1 440 0
 413 0014 A560     		str	r5, [r4, #8]
 414              		.loc 1 443 0
 415 0016 70BC     		pop	{r4, r5, r6}
 416              	.LVL34:
 417              		.loc 1 442 0
 418 0018 FFF7FEBF 		b	usb_lld_prepare_receive
 419              	.LVL35:
 420              		.cfi_endproc
 421              	.LFE128:
 422              		.size	usbPrepareQueuedReceive, .-usbPrepareQueuedReceive
 423 001c AFF30080 		.section	.text.usbPrepareQueuedTransmit,"ax",%progbits
 424              		.align	2
 425              		.p2align 4,,15
 426              		.global	usbPrepareQueuedTransmit
 427              		.thumb
 428              		.thumb_func
 429              		.type	usbPrepareQueuedTransmit, %function
 430              	usbPrepareQueuedTransmit:
 431              	.LFB129:
 432              		.loc 1 460 0
 433              		.cfi_startproc
 434              		@ args = 0, pretend = 0, frame = 0
 435              		@ frame_needed = 0, uses_anonymous_args = 0
 436              		@ link register save eliminated.
 437              	.LVL36:
 438 0000 70B4     		push	{r4, r5, r6}
 439              		.cfi_def_cfa_offset 12
 440              		.cfi_offset 4, -12
 441              		.cfi_offset 5, -8
 442              		.cfi_offset 6, -4
ARM GAS  C:\Users\jsyoon\AppData\Local\Temp\ccd9Jjyg.s 			page 9


 443              		.loc 1 461 0
 444 0002 00EB8104 		add	r4, r0, r1, lsl #2
 445              		.loc 1 463 0
 446 0006 0126     		movs	r6, #1
 447              		.loc 1 461 0
 448 0008 E468     		ldr	r4, [r4, #12]
 449 000a 6469     		ldr	r4, [r4, #20]
 450              	.LVL37:
 451              		.loc 1 466 0
 452 000c 0025     		movs	r5, #0
 453              		.loc 1 464 0
 454 000e E260     		str	r2, [r4, #12]
 455              		.loc 1 465 0
 456 0010 6360     		str	r3, [r4, #4]
 457              		.loc 1 463 0
 458 0012 2670     		strb	r6, [r4]
 459              		.loc 1 466 0
 460 0014 A560     		str	r5, [r4, #8]
 461              		.loc 1 469 0
 462 0016 70BC     		pop	{r4, r5, r6}
 463              	.LVL38:
 464              		.loc 1 468 0
 465 0018 FFF7FEBF 		b	usb_lld_prepare_transmit
 466              	.LVL39:
 467              		.cfi_endproc
 468              	.LFE129:
 469              		.size	usbPrepareQueuedTransmit, .-usbPrepareQueuedTransmit
 470 001c AFF30080 		.section	.text.usbStartReceiveI,"ax",%progbits
 471              		.align	2
 472              		.p2align 4,,15
 473              		.global	usbStartReceiveI
 474              		.thumb
 475              		.thumb_func
 476              		.type	usbStartReceiveI, %function
 477              	usbStartReceiveI:
 478              	.LFB130:
 479              		.loc 1 485 0
 480              		.cfi_startproc
 481              		@ args = 0, pretend = 0, frame = 0
 482              		@ frame_needed = 0, uses_anonymous_args = 0
 483              	.LVL40:
 484 0000 70B5     		push	{r4, r5, r6, lr}
 485              		.cfi_def_cfa_offset 16
 486              		.cfi_offset 4, -16
 487              		.cfi_offset 5, -12
 488              		.cfi_offset 6, -8
 489              		.cfi_offset 14, -4
 490              		.loc 1 490 0
 491 0002 4489     		ldrh	r4, [r0, #10]
 492 0004 44FA01F3 		asr	r3, r4, r1
 493 0008 13F00106 		ands	r6, r3, #1
 494 000c 01D0     		beq	.L23
 495              		.loc 1 491 0
 496 000e 0120     		movs	r0, #1
 497              	.LVL41:
 498              		.loc 1 496 0
 499 0010 70BD     		pop	{r4, r5, r6, pc}
ARM GAS  C:\Users\jsyoon\AppData\Local\Temp\ccd9Jjyg.s 			page 10


 500              	.LVL42:
 501              	.L23:
 502              		.loc 1 493 0
 503 0012 0123     		movs	r3, #1
 504 0014 03FA01F5 		lsl	r5, r3, r1
 505 0018 2C43     		orrs	r4, r4, r5
 506 001a 4481     		strh	r4, [r0, #10]	@ movhi
 507              		.loc 1 494 0
 508 001c FFF7FEFF 		bl	usb_lld_start_out
 509              	.LVL43:
 510              		.loc 1 495 0
 511 0020 3046     		mov	r0, r6
 512 0022 70BD     		pop	{r4, r5, r6, pc}
 513              		.cfi_endproc
 514              	.LFE130:
 515              		.size	usbStartReceiveI, .-usbStartReceiveI
 516 0024 AFF30080 		.section	.text.usbStartTransmitI,"ax",%progbits
 516      AFF30080 
 516      AFF30080 
 517              		.align	2
 518              		.p2align 4,,15
 519              		.global	usbStartTransmitI
 520              		.thumb
 521              		.thumb_func
 522              		.type	usbStartTransmitI, %function
 523              	usbStartTransmitI:
 524              	.LFB131:
 525              		.loc 1 512 0
 526              		.cfi_startproc
 527              		@ args = 0, pretend = 0, frame = 0
 528              		@ frame_needed = 0, uses_anonymous_args = 0
 529              	.LVL44:
 530 0000 70B5     		push	{r4, r5, r6, lr}
 531              		.cfi_def_cfa_offset 16
 532              		.cfi_offset 4, -16
 533              		.cfi_offset 5, -12
 534              		.cfi_offset 6, -8
 535              		.cfi_offset 14, -4
 536              		.loc 1 517 0
 537 0002 0489     		ldrh	r4, [r0, #8]
 538 0004 44FA01F3 		asr	r3, r4, r1
 539 0008 13F00106 		ands	r6, r3, #1
 540 000c 01D0     		beq	.L27
 541              		.loc 1 518 0
 542 000e 0120     		movs	r0, #1
 543              	.LVL45:
 544              		.loc 1 523 0
 545 0010 70BD     		pop	{r4, r5, r6, pc}
 546              	.LVL46:
 547              	.L27:
 548              		.loc 1 520 0
 549 0012 0123     		movs	r3, #1
 550 0014 03FA01F5 		lsl	r5, r3, r1
 551 0018 2C43     		orrs	r4, r4, r5
 552 001a 0481     		strh	r4, [r0, #8]	@ movhi
 553              		.loc 1 521 0
 554 001c FFF7FEFF 		bl	usb_lld_start_in
ARM GAS  C:\Users\jsyoon\AppData\Local\Temp\ccd9Jjyg.s 			page 11


 555              	.LVL47:
 556              		.loc 1 522 0
 557 0020 3046     		mov	r0, r6
 558 0022 70BD     		pop	{r4, r5, r6, pc}
 559              		.cfi_endproc
 560              	.LFE131:
 561              		.size	usbStartTransmitI, .-usbStartTransmitI
 562 0024 AFF30080 		.section	.text.usbStallReceiveI,"ax",%progbits
 562      AFF30080 
 562      AFF30080 
 563              		.align	2
 564              		.p2align 4,,15
 565              		.global	usbStallReceiveI
 566              		.thumb
 567              		.thumb_func
 568              		.type	usbStallReceiveI, %function
 569              	usbStallReceiveI:
 570              	.LFB132:
 571              		.loc 1 537 0
 572              		.cfi_startproc
 573              		@ args = 0, pretend = 0, frame = 0
 574              		@ frame_needed = 0, uses_anonymous_args = 0
 575              	.LVL48:
 576              		.loc 1 542 0
 577 0000 4389     		ldrh	r3, [r0, #10]
 578 0002 0B41     		asrs	r3, r3, r1
 579              		.loc 1 537 0
 580 0004 10B5     		push	{r4, lr}
 581              		.cfi_def_cfa_offset 8
 582              		.cfi_offset 4, -8
 583              		.cfi_offset 14, -4
 584              		.loc 1 542 0
 585 0006 13F00104 		ands	r4, r3, #1
 586 000a 01D0     		beq	.L31
 587              		.loc 1 543 0
 588 000c 0120     		movs	r0, #1
 589              	.LVL49:
 590              		.loc 1 547 0
 591 000e 10BD     		pop	{r4, pc}
 592              	.LVL50:
 593              	.L31:
 594              		.loc 1 545 0
 595 0010 FFF7FEFF 		bl	usb_lld_stall_out
 596              	.LVL51:
 597              		.loc 1 546 0
 598 0014 2046     		mov	r0, r4
 599 0016 10BD     		pop	{r4, pc}
 600              		.cfi_endproc
 601              	.LFE132:
 602              		.size	usbStallReceiveI, .-usbStallReceiveI
 603 0018 AFF30080 		.section	.text.usbStallTransmitI,"ax",%progbits
 603      AFF30080 
 604              		.align	2
 605              		.p2align 4,,15
 606              		.global	usbStallTransmitI
 607              		.thumb
 608              		.thumb_func
ARM GAS  C:\Users\jsyoon\AppData\Local\Temp\ccd9Jjyg.s 			page 12


 609              		.type	usbStallTransmitI, %function
 610              	usbStallTransmitI:
 611              	.LFB133:
 612              		.loc 1 561 0
 613              		.cfi_startproc
 614              		@ args = 0, pretend = 0, frame = 0
 615              		@ frame_needed = 0, uses_anonymous_args = 0
 616              	.LVL52:
 617              		.loc 1 566 0
 618 0000 0389     		ldrh	r3, [r0, #8]
 619 0002 0B41     		asrs	r3, r3, r1
 620              		.loc 1 561 0
 621 0004 10B5     		push	{r4, lr}
 622              		.cfi_def_cfa_offset 8
 623              		.cfi_offset 4, -8
 624              		.cfi_offset 14, -4
 625              		.loc 1 566 0
 626 0006 13F00104 		ands	r4, r3, #1
 627 000a 01D0     		beq	.L35
 628              		.loc 1 567 0
 629 000c 0120     		movs	r0, #1
 630              	.LVL53:
 631              		.loc 1 571 0
 632 000e 10BD     		pop	{r4, pc}
 633              	.LVL54:
 634              	.L35:
 635              		.loc 1 569 0
 636 0010 FFF7FEFF 		bl	usb_lld_stall_in
 637              	.LVL55:
 638              		.loc 1 570 0
 639 0014 2046     		mov	r0, r4
 640 0016 10BD     		pop	{r4, pc}
 641              		.cfi_endproc
 642              	.LFE133:
 643              		.size	usbStallTransmitI, .-usbStallTransmitI
 644 0018 AFF30080 		.section	.text._usb_reset,"ax",%progbits
 644      AFF30080 
 645              		.align	2
 646              		.p2align 4,,15
 647              		.global	_usb_reset
 648              		.thumb
 649              		.thumb_func
 650              		.type	_usb_reset, %function
 651              	_usb_reset:
 652              	.LFB134:
 653              		.loc 1 582 0
 654              		.cfi_startproc
 655              		@ args = 0, pretend = 0, frame = 0
 656              		@ frame_needed = 0, uses_anonymous_args = 0
 657              		@ link register save eliminated.
 658              	.LVL56:
 659              		.loc 1 586 0
 660 0000 0022     		movs	r2, #0
 661              		.loc 1 585 0
 662 0002 0221     		movs	r1, #2
 663 0004 0170     		strb	r1, [r0]
 664              		.loc 1 586 0
ARM GAS  C:\Users\jsyoon\AppData\Local\Temp\ccd9Jjyg.s 			page 13


 665 0006 A0F84C20 		strh	r2, [r0, #76]	@ movhi
 666              		.loc 1 587 0
 667 000a 80F84E20 		strb	r2, [r0, #78]
 668              		.loc 1 588 0
 669 000e 80F84F20 		strb	r2, [r0, #79]
 670              		.loc 1 589 0
 671 0012 0281     		strh	r2, [r0, #8]	@ movhi
 672              		.loc 1 590 0
 673 0014 4281     		strh	r2, [r0, #10]	@ movhi
 674              	.LVL57:
 675              		.loc 1 594 0
 676 0016 C260     		str	r2, [r0, #12]
 677              	.LVL58:
 678 0018 0261     		str	r2, [r0, #16]
 679              	.LVL59:
 680 001a 4261     		str	r2, [r0, #20]
 681              	.LVL60:
 682 001c 8261     		str	r2, [r0, #24]
 683              	.LVL61:
 684              		.loc 1 597 0
 685 001e 80F83420 		strb	r2, [r0, #52]
 686              		.loc 1 600 0
 687 0022 FFF7FEBF 		b	usb_lld_reset
 688              	.LVL62:
 689              		.cfi_endproc
 690              	.LFE134:
 691              		.size	_usb_reset, .-_usb_reset
 692 0026 00BFAFF3 		.section	.text._usb_ep0setup,"ax",%progbits
 692      0080AFF3 
 692      0080
 693              		.align	2
 694              		.p2align 4,,15
 695              		.global	_usb_ep0setup
 696              		.thumb
 697              		.thumb_func
 698              		.type	_usb_ep0setup, %function
 699              	_usb_ep0setup:
 700              	.LFB135:
 701              		.loc 1 613 0
 702              		.cfi_startproc
 703              		@ args = 0, pretend = 0, frame = 0
 704              		@ frame_needed = 0, uses_anonymous_args = 0
 705              	.LVL63:
 706 0000 F8B5     		push	{r3, r4, r5, r6, r7, lr}
 707              		.cfi_def_cfa_offset 24
 708              		.cfi_offset 3, -24
 709              		.cfi_offset 4, -20
 710              		.cfi_offset 5, -16
 711              		.cfi_offset 6, -12
 712              		.cfi_offset 7, -8
 713              		.cfi_offset 14, -4
 714              		.loc 1 616 0
 715 0002 0023     		movs	r3, #0
 716              		.loc 1 613 0
 717 0004 0446     		mov	r4, r0
 718              		.loc 1 616 0
 719 0006 80F83430 		strb	r3, [r0, #52]
ARM GAS  C:\Users\jsyoon\AppData\Local\Temp\ccd9Jjyg.s 			page 14


 720              		.loc 1 617 0
 721 000a 00F14402 		add	r2, r0, #68
 722 000e FFF7FEFF 		bl	usb_lld_read_setup
 723              	.LVL64:
 724              		.loc 1 621 0
 725 0012 6368     		ldr	r3, [r4, #4]
 726 0014 9B68     		ldr	r3, [r3, #8]
 727 0016 4BB3     		cbz	r3, .L42
 728              		.loc 1 622 0 discriminator 1
 729 0018 2046     		mov	r0, r4
 730 001a 9847     		blx	r3
 731              	.LVL65:
 732              		.loc 1 621 0 discriminator 1
 733 001c 30B3     		cbz	r0, .L42
 734 001e E56B     		ldr	r5, [r4, #60]
 735 0020 94F84430 		ldrb	r3, [r4, #68]	@ zero_extendqisi2
 736              	.L81:
 737              		.loc 1 646 0
 738 0024 94F84B10 		ldrb	r1, [r4, #75]	@ zero_extendqisi2
 739 0028 94F84A20 		ldrb	r2, [r4, #74]	@ zero_extendqisi2
 740 002c 42EA0122 		orr	r2, r2, r1, lsl #8
 741              	.LVL66:
 742              		.loc 1 648 0
 743 0030 AA42     		cmp	r2, r5
 744              		.loc 1 649 0
 745 0032 3CBF     		itt	cc
 746 0034 E263     		strcc	r2, [r4, #60]
 747 0036 1546     		movcc	r5, r2
 748              		.loc 1 650 0
 749 0038 13F0800F 		tst	r3, #128
 750              	.LBB28:
 751              	.LBB29:
 752              		.loc 1 406 0
 753 003c E368     		ldr	r3, [r4, #12]
 754              	.LBE29:
 755              	.LBE28:
 756              		.loc 1 650 0
 757 003e 40F08180 		bne	.L105
 758              		.loc 1 676 0
 759 0042 002D     		cmp	r5, #0
 760 0044 69D1     		bne	.L106
 761              	.LBB33:
 762              	.LBB34:
 763              		.loc 1 406 0
 764 0046 5B69     		ldr	r3, [r3, #20]
 765              	.LBE34:
 766              	.LBE33:
 767              		.loc 1 687 0
 768 0048 0522     		movs	r2, #5
 769              	.LVL67:
 770 004a 84F83420 		strb	r2, [r4, #52]
 771              	.LVL68:
 772              	.LBB36:
 773              	.LBB35:
 774              		.loc 1 413 0
 775 004e 2046     		mov	r0, r4
 776              		.loc 1 408 0
ARM GAS  C:\Users\jsyoon\AppData\Local\Temp\ccd9Jjyg.s 			page 15


 777 0050 1D70     		strb	r5, [r3]
 778              	.LVL69:
 779              		.loc 1 409 0
 780 0052 DD60     		str	r5, [r3, #12]
 781              		.loc 1 410 0
 782 0054 5D60     		str	r5, [r3, #4]
 783              		.loc 1 411 0
 784 0056 9D60     		str	r5, [r3, #8]
 785              		.loc 1 413 0
 786 0058 2946     		mov	r1, r5
 787 005a FFF7FEFF 		bl	usb_lld_prepare_transmit
 788              	.LVL70:
 789              	.LBE35:
 790              	.LBE36:
 791              		.loc 1 690 0
 792              	@ 690 "ChibiOS_2.6.6/os/hal/src/usb.c" 1
 793 005e 72B6     		cpsid   i
 794              	@ 0 "" 2
 795              		.loc 1 691 0
 796              		.thumb
 797 0060 2046     		mov	r0, r4
 798 0062 2946     		mov	r1, r5
 799 0064 FFF7FEFF 		bl	usbStartTransmitI
 800              	.LVL71:
 801              		.loc 1 692 0
 802              	@ 692 "ChibiOS_2.6.6/os/hal/src/usb.c" 1
 803 0068 62B6     		cpsie   i
 804              	@ 0 "" 2
 805              		.thumb
 806 006a F8BD     		pop	{r3, r4, r5, r6, r7, pc}
 807              	.LVL72:
 808              	.L42:
 809              		.loc 1 625 0
 810 006c 94F84430 		ldrb	r3, [r4, #68]	@ zero_extendqisi2
 811 0070 13F06007 		ands	r7, r3, #96
 812 0074 11D0     		beq	.L107
 813              	.L39:
 814              		.loc 1 630 0
 815 0076 2046     		mov	r0, r4
 816 0078 0021     		movs	r1, #0
 817 007a FFF7FEFF 		bl	usb_lld_stall_in
 818              	.LVL73:
 819              		.loc 1 631 0
 820 007e 2046     		mov	r0, r4
 821 0080 0021     		movs	r1, #0
 822 0082 FFF7FEFF 		bl	usb_lld_stall_out
 823              	.LVL74:
 824              		.loc 1 632 0
 825 0086 6368     		ldr	r3, [r4, #4]
 826 0088 1B68     		ldr	r3, [r3]
 827 008a 13B1     		cbz	r3, .L75
 828              		.loc 1 632 0 is_stmt 0 discriminator 1
 829 008c 2046     		mov	r0, r4
 830 008e 0521     		movs	r1, #5
 831 0090 9847     		blx	r3
 832              	.LVL75:
 833              	.L75:
ARM GAS  C:\Users\jsyoon\AppData\Local\Temp\ccd9Jjyg.s 			page 16


 834              		.loc 1 633 0 is_stmt 1
 835 0092 0623     		movs	r3, #6
 836 0094 84F83430 		strb	r3, [r4, #52]
 837              		.loc 1 634 0
 838 0098 F8BD     		pop	{r3, r4, r5, r6, r7, pc}
 839              	.LVL76:
 840              	.L107:
 841              	.LBB37:
 842              	.LBB38:
 843              		.loc 1 95 0
 844 009a 94F84560 		ldrb	r6, [r4, #69]	@ zero_extendqisi2
 845              		.loc 1 93 0
 846 009e 03F07F02 		and	r2, r3, #127
 847              		.loc 1 94 0
 848 00a2 42EA0626 		orr	r6, r2, r6, lsl #8
 849              		.loc 1 93 0
 850 00a6 B6F5407F 		cmp	r6, #768
 851 00aa 00F0F680 		beq	.L44
 852 00ae 16DD     		ble	.L108
 853 00b0 B6F5C06F 		cmp	r6, #1536
 854 00b4 00F0D880 		beq	.L52
 855 00b8 6DDD     		ble	.L109
 856 00ba B6F5106F 		cmp	r6, #2304
 857 00be 7DD0     		beq	.L56
 858 00c0 40F60242 		movw	r2, #3074
 859 00c4 9642     		cmp	r6, r2
 860 00c6 00F0FB80 		beq	.L49
 861 00ca B6F5006F 		cmp	r6, #2048
 862 00ce D2D1     		bne	.L39
 863              		.loc 1 142 0
 864 00d0 04F14F02 		add	r2, r4, #79
 865 00d4 0125     		movs	r5, #1
 866 00d6 2764     		str	r7, [r4, #64]
 867 00d8 A263     		str	r2, [r4, #56]
 868 00da E563     		str	r5, [r4, #60]
 869 00dc A2E7     		b	.L81
 870              	.L108:
 871              		.loc 1 93 0
 872 00de 022E     		cmp	r6, #2
 873 00e0 00F0AB80 		beq	.L46
 874 00e4 40F3A080 		ble	.L110
 875 00e8 B6F5807F 		cmp	r6, #256
 876 00ec 00F08C80 		beq	.L50
 877 00f0 B6F5817F 		cmp	r6, #258
 878 00f4 BFD1     		bne	.L39
 879              		.loc 1 188 0
 880 00f6 94F84620 		ldrb	r2, [r4, #70]	@ zero_extendqisi2
 881 00fa 002A     		cmp	r2, #0
 882 00fc BBD1     		bne	.L39
 883              		.loc 1 191 0
 884 00fe 94F84820 		ldrb	r2, [r4, #72]	@ zero_extendqisi2
 885 0102 12F00F01 		ands	r1, r2, #15
 886 0106 54D0     		beq	.L73
 887              		.loc 1 192 0
 888 0108 1206     		lsls	r2, r2, #24
 889              		.loc 1 193 0
 890 010a 2046     		mov	r0, r4
ARM GAS  C:\Users\jsyoon\AppData\Local\Temp\ccd9Jjyg.s 			page 17


 891              		.loc 1 192 0
 892 010c 00F10081 		bmi	.L111
 893              	.LVL77:
 894              		.loc 1 195 0
 895 0110 FFF7FEFF 		bl	usb_lld_clear_out
 896              	.LVL78:
 897 0114 94F84430 		ldrb	r3, [r4, #68]	@ zero_extendqisi2
 898 0118 4BE0     		b	.L73
 899              	.LVL79:
 900              	.L106:
 901              	.LBE38:
 902              	.LBE37:
 903              	.LBB42:
 904              	.LBB43:
 905              		.loc 1 380 0
 906 011a 9B69     		ldr	r3, [r3, #24]
 907              	.LBE43:
 908              	.LBE42:
 909              		.loc 1 679 0
 910 011c A26B     		ldr	r2, [r4, #56]
 911              	.LVL80:
 912              	.LBB46:
 913              	.LBB44:
 914              		.loc 1 382 0
 915 011e 0026     		movs	r6, #0
 916              	.LBE44:
 917              	.LBE46:
 918              		.loc 1 678 0
 919 0120 0421     		movs	r1, #4
 920              	.LVL81:
 921 0122 84F83410 		strb	r1, [r4, #52]
 922              	.LBB47:
 923              	.LBB45:
 924              		.loc 1 387 0
 925 0126 2046     		mov	r0, r4
 926 0128 3146     		mov	r1, r6
 927              		.loc 1 383 0
 928 012a DA60     		str	r2, [r3, #12]
 929              	.LVL82:
 930              		.loc 1 384 0
 931 012c 5D60     		str	r5, [r3, #4]
 932              		.loc 1 382 0
 933 012e 1E70     		strb	r6, [r3]
 934              		.loc 1 385 0
 935 0130 9E60     		str	r6, [r3, #8]
 936              		.loc 1 387 0
 937 0132 FFF7FEFF 		bl	usb_lld_prepare_receive
 938              	.LVL83:
 939              	.LBE45:
 940              	.LBE47:
 941              		.loc 1 680 0
 942              	@ 680 "ChibiOS_2.6.6/os/hal/src/usb.c" 1
 943 0136 72B6     		cpsid   i
 944              	@ 0 "" 2
 945              		.loc 1 681 0
 946              		.thumb
 947 0138 2046     		mov	r0, r4
ARM GAS  C:\Users\jsyoon\AppData\Local\Temp\ccd9Jjyg.s 			page 18


 948 013a 3146     		mov	r1, r6
 949 013c FFF7FEFF 		bl	usbStartReceiveI
 950              	.LVL84:
 951              		.loc 1 682 0
 952              	@ 682 "ChibiOS_2.6.6/os/hal/src/usb.c" 1
 953 0140 62B6     		cpsie   i
 954              	@ 0 "" 2
 955              		.thumb
 956 0142 F8BD     		pop	{r3, r4, r5, r6, r7, pc}
 957              	.LVL85:
 958              	.L105:
 959              		.loc 1 652 0
 960 0144 A5B1     		cbz	r5, .L79
 961              	.LBB48:
 962              	.LBB30:
 963              		.loc 1 406 0
 964 0146 5B69     		ldr	r3, [r3, #20]
 965              	.LBE30:
 966              	.LBE48:
 967              		.loc 1 655 0
 968 0148 A26B     		ldr	r2, [r4, #56]
 969              	.LVL86:
 970              	.LBB49:
 971              	.LBB31:
 972              		.loc 1 408 0
 973 014a 0026     		movs	r6, #0
 974              	.LBE31:
 975              	.LBE49:
 976              		.loc 1 654 0
 977 014c 0121     		movs	r1, #1
 978              	.LVL87:
 979 014e 84F83410 		strb	r1, [r4, #52]
 980              	.LBB50:
 981              	.LBB32:
 982              		.loc 1 413 0
 983 0152 2046     		mov	r0, r4
 984 0154 3146     		mov	r1, r6
 985              		.loc 1 409 0
 986 0156 DA60     		str	r2, [r3, #12]
 987              	.LVL88:
 988              		.loc 1 410 0
 989 0158 5D60     		str	r5, [r3, #4]
 990              		.loc 1 408 0
 991 015a 1E70     		strb	r6, [r3]
 992              		.loc 1 411 0
 993 015c 9E60     		str	r6, [r3, #8]
 994              		.loc 1 413 0
 995 015e FFF7FEFF 		bl	usb_lld_prepare_transmit
 996              	.LVL89:
 997              	.LBE32:
 998              	.LBE50:
 999              		.loc 1 656 0
 1000              	@ 656 "ChibiOS_2.6.6/os/hal/src/usb.c" 1
 1001 0162 72B6     		cpsid   i
 1002              	@ 0 "" 2
 1003              		.loc 1 657 0
 1004              		.thumb
ARM GAS  C:\Users\jsyoon\AppData\Local\Temp\ccd9Jjyg.s 			page 19


 1005 0164 2046     		mov	r0, r4
 1006 0166 3146     		mov	r1, r6
 1007 0168 FFF7FEFF 		bl	usbStartTransmitI
 1008              	.LVL90:
 1009              		.loc 1 658 0
 1010              	@ 658 "ChibiOS_2.6.6/os/hal/src/usb.c" 1
 1011 016c 62B6     		cpsie   i
 1012              	@ 0 "" 2
 1013              		.thumb
 1014 016e F8BD     		pop	{r3, r4, r5, r6, r7, pc}
 1015              	.LVL91:
 1016              	.L79:
 1017              	.LBB51:
 1018              	.LBB52:
 1019              		.loc 1 380 0
 1020 0170 9B69     		ldr	r3, [r3, #24]
 1021              	.LBE52:
 1022              	.LBE51:
 1023              		.loc 1 663 0
 1024 0172 0322     		movs	r2, #3
 1025              	.LVL92:
 1026 0174 84F83420 		strb	r2, [r4, #52]
 1027              	.LVL93:
 1028              	.LBB54:
 1029              	.LBB53:
 1030              		.loc 1 387 0
 1031 0178 2046     		mov	r0, r4
 1032              		.loc 1 382 0
 1033 017a 1D70     		strb	r5, [r3]
 1034              	.LVL94:
 1035              		.loc 1 383 0
 1036 017c DD60     		str	r5, [r3, #12]
 1037              		.loc 1 384 0
 1038 017e 5D60     		str	r5, [r3, #4]
 1039              		.loc 1 385 0
 1040 0180 9D60     		str	r5, [r3, #8]
 1041              		.loc 1 387 0
 1042 0182 2946     		mov	r1, r5
 1043 0184 FFF7FEFF 		bl	usb_lld_prepare_receive
 1044              	.LVL95:
 1045              	.LBE53:
 1046              	.LBE54:
 1047              		.loc 1 666 0
 1048              	@ 666 "ChibiOS_2.6.6/os/hal/src/usb.c" 1
 1049 0188 72B6     		cpsid   i
 1050              	@ 0 "" 2
 1051              		.loc 1 667 0
 1052              		.thumb
 1053 018a 2046     		mov	r0, r4
 1054 018c 2946     		mov	r1, r5
 1055 018e FFF7FEFF 		bl	usbStartReceiveI
 1056              	.LVL96:
 1057              		.loc 1 668 0
 1058              	@ 668 "ChibiOS_2.6.6/os/hal/src/usb.c" 1
 1059 0192 62B6     		cpsie   i
 1060              	@ 0 "" 2
 1061              		.thumb
ARM GAS  C:\Users\jsyoon\AppData\Local\Temp\ccd9Jjyg.s 			page 20


 1062 0194 F8BD     		pop	{r3, r4, r5, r6, r7, pc}
 1063              	.LVL97:
 1064              	.L109:
 1065              	.LBB55:
 1066              	.LBB41:
 1067              		.loc 1 93 0
 1068 0196 40F20232 		movw	r2, #770
 1069 019a 9642     		cmp	r6, r2
 1070 019c 21D0     		beq	.L54
 1071 019e B6F5A06F 		cmp	r6, #1280
 1072 01a2 7FF468AF 		bne	.L39
 1073              		.loc 1 123 0
 1074 01a6 B4F84420 		ldrh	r2, [r4, #68]
 1075 01aa B2F5A06F 		cmp	r2, #1280
 1076 01ae 00F09D80 		beq	.L112
 1077              	.L73:
 1078              		.loc 1 210 0
 1079 01b2 0025     		movs	r5, #0
 1080 01b4 A563     		str	r5, [r4, #56]
 1081 01b6 E563     		str	r5, [r4, #60]
 1082 01b8 2564     		str	r5, [r4, #64]
 1083 01ba 33E7     		b	.L81
 1084              	.L56:
 1085              		.loc 1 146 0
 1086 01bc 94F84620 		ldrb	r2, [r4, #70]	@ zero_extendqisi2
 1087 01c0 84F84F20 		strb	r2, [r4, #79]
 1088              		.loc 1 147 0
 1089 01c4 002A     		cmp	r2, #0
 1090 01c6 40F08280 		bne	.L63
 1091              		.loc 1 148 0
 1092 01ca 0322     		movs	r2, #3
 1093 01cc 2270     		strb	r2, [r4]
 1094              	.L64:
 1095              		.loc 1 151 0
 1096 01ce 6268     		ldr	r2, [r4, #4]
 1097 01d0 1268     		ldr	r2, [r2]
 1098 01d2 002A     		cmp	r2, #0
 1099 01d4 EDD0     		beq	.L73
 1100 01d6 2046     		mov	r0, r4
 1101 01d8 0221     		movs	r1, #2
 1102 01da 9047     		blx	r2
 1103              	.LVL98:
 1104 01dc 94F84430 		ldrb	r3, [r4, #68]	@ zero_extendqisi2
 1105 01e0 E7E7     		b	.L73
 1106              	.L54:
 1107              		.loc 1 201 0
 1108 01e2 94F84620 		ldrb	r2, [r4, #70]	@ zero_extendqisi2
 1109 01e6 002A     		cmp	r2, #0
 1110 01e8 7FF445AF 		bne	.L39
 1111              		.loc 1 204 0
 1112 01ec 94F84820 		ldrb	r2, [r4, #72]	@ zero_extendqisi2
 1113 01f0 12F00F01 		ands	r1, r2, #15
 1114 01f4 DDD0     		beq	.L73
 1115              		.loc 1 205 0
 1116 01f6 1306     		lsls	r3, r2, #24
 1117              		.loc 1 206 0
 1118 01f8 2046     		mov	r0, r4
ARM GAS  C:\Users\jsyoon\AppData\Local\Temp\ccd9Jjyg.s 			page 21


 1119              		.loc 1 205 0
 1120 01fa 00F18E80 		bmi	.L113
 1121              	.LVL99:
 1122              		.loc 1 208 0
 1123 01fe FFF7FEFF 		bl	usb_lld_stall_out
 1124              	.LVL100:
 1125 0202 94F84430 		ldrb	r3, [r4, #68]	@ zero_extendqisi2
 1126 0206 D4E7     		b	.L73
 1127              	.L50:
 1128              		.loc 1 103 0
 1129 0208 94F84620 		ldrb	r2, [r4, #70]	@ zero_extendqisi2
 1130 020c 012A     		cmp	r2, #1
 1131 020e 7FF432AF 		bne	.L39
 1132              		.loc 1 104 0
 1133 0212 B4F84C20 		ldrh	r2, [r4, #76]
 1134              		.loc 1 105 0
 1135 0216 A763     		str	r7, [r4, #56]
 1136              		.loc 1 104 0
 1137 0218 22F00202 		bic	r2, r2, #2
 1138              		.loc 1 105 0
 1139 021c E763     		str	r7, [r4, #60]
 1140 021e 2764     		str	r7, [r4, #64]
 1141 0220 3D46     		mov	r5, r7
 1142              		.loc 1 104 0
 1143 0222 A4F84C20 		strh	r2, [r4, #76]	@ movhi
 1144 0226 FDE6     		b	.L81
 1145              	.L110:
 1146              		.loc 1 93 0
 1147 0228 002E     		cmp	r6, #0
 1148 022a 46D1     		bne	.L114
 1149              		.loc 1 98 0
 1150 022c 04F14C02 		add	r2, r4, #76
 1151 0230 0225     		movs	r5, #2
 1152 0232 2664     		str	r6, [r4, #64]
 1153 0234 A263     		str	r2, [r4, #56]
 1154 0236 E563     		str	r5, [r4, #60]
 1155 0238 F4E6     		b	.L81
 1156              	.L46:
 1157              		.loc 1 162 0
 1158 023a 94F84810 		ldrb	r1, [r4, #72]	@ zero_extendqisi2
 1159 023e 11F0800F 		tst	r1, #128
 1160              		.loc 1 163 0
 1161 0242 2046     		mov	r0, r4
 1162 0244 01F00F01 		and	r1, r1, #15
 1163              		.loc 1 162 0
 1164 0248 44D1     		bne	.L115
 1165              	.LVL101:
 1166              		.loc 1 175 0
 1167 024a FFF7FEFF 		bl	usb_lld_get_status_out
 1168              	.LVL102:
 1169 024e 0128     		cmp	r0, #1
 1170 0250 44D0     		beq	.L69
 1171              	.L104:
 1172 0252 0228     		cmp	r0, #2
 1173 0254 7FF40FAF 		bne	.L39
 1174              		.loc 1 180 0
 1175 0258 324B     		ldr	r3, .L116
ARM GAS  C:\Users\jsyoon\AppData\Local\Temp\ccd9Jjyg.s 			page 22


 1176 025a A363     		str	r3, [r4, #56]
 1177 025c E063     		str	r0, [r4, #60]
 1178 025e 2764     		str	r7, [r4, #64]
 1179 0260 0546     		mov	r5, r0
 1180 0262 94F84430 		ldrb	r3, [r4, #68]	@ zero_extendqisi2
 1181 0266 DDE6     		b	.L81
 1182              	.L52:
 1183              		.loc 1 133 0
 1184 0268 6268     		ldr	r2, [r4, #4]
 1185              		.loc 1 135 0
 1186 026a 94F84900 		ldrb	r0, [r4, #73]	@ zero_extendqisi2
 1187              		.loc 1 133 0
 1188 026e 94F84830 		ldrb	r3, [r4, #72]	@ zero_extendqisi2
 1189 0272 5568     		ldr	r5, [r2, #4]
 1190 0274 94F84710 		ldrb	r1, [r4, #71]	@ zero_extendqisi2
 1191 0278 94F84620 		ldrb	r2, [r4, #70]	@ zero_extendqisi2
 1192 027c 43EA0023 		orr	r3, r3, r0, lsl #8
 1193 0280 2046     		mov	r0, r4
 1194 0282 A847     		blx	r5
 1195              	.LVL103:
 1196              		.loc 1 136 0
 1197 0284 0028     		cmp	r0, #0
 1198 0286 3FF4F6AE 		beq	.L39
 1199              		.loc 1 138 0
 1200 028a 4368     		ldr	r3, [r0, #4]
 1201 028c 0568     		ldr	r5, [r0]
 1202 028e E563     		str	r5, [r4, #60]
 1203 0290 A363     		str	r3, [r4, #56]
 1204 0292 2764     		str	r7, [r4, #64]
 1205 0294 94F84430 		ldrb	r3, [r4, #68]	@ zero_extendqisi2
 1206 0298 C4E6     		b	.L81
 1207              	.LVL104:
 1208              	.L44:
 1209              		.loc 1 112 0
 1210 029a 94F84620 		ldrb	r2, [r4, #70]	@ zero_extendqisi2
 1211 029e 012A     		cmp	r2, #1
 1212 02a0 7FF4E9AE 		bne	.L39
 1213              		.loc 1 113 0
 1214 02a4 B4F84C20 		ldrh	r2, [r4, #76]
 1215              		.loc 1 114 0
 1216 02a8 A763     		str	r7, [r4, #56]
 1217              		.loc 1 113 0
 1218 02aa 42F00202 		orr	r2, r2, #2
 1219              		.loc 1 114 0
 1220 02ae E763     		str	r7, [r4, #60]
 1221 02b0 2764     		str	r7, [r4, #64]
 1222 02b2 3D46     		mov	r5, r7
 1223              		.loc 1 113 0
 1224 02b4 A4F84C20 		strh	r2, [r4, #76]	@ movhi
 1225 02b8 B4E6     		b	.L81
 1226              	.L114:
 1227              		.loc 1 93 0
 1228 02ba 012E     		cmp	r6, #1
 1229 02bc 7FF4DBAE 		bne	.L39
 1230              	.L49:
 1231              		.loc 1 158 0
 1232 02c0 194A     		ldr	r2, .L116+4
ARM GAS  C:\Users\jsyoon\AppData\Local\Temp\ccd9Jjyg.s 			page 23


 1233 02c2 A263     		str	r2, [r4, #56]
 1234 02c4 0225     		movs	r5, #2
 1235 02c6 0022     		movs	r2, #0
 1236 02c8 E563     		str	r5, [r4, #60]
 1237 02ca 2264     		str	r2, [r4, #64]
 1238 02cc AAE6     		b	.L81
 1239              	.L63:
 1240              		.loc 1 150 0
 1241 02ce 0422     		movs	r2, #4
 1242 02d0 2270     		strb	r2, [r4]
 1243 02d2 7CE7     		b	.L64
 1244              	.LVL105:
 1245              	.L115:
 1246              		.loc 1 163 0
 1247 02d4 FFF7FEFF 		bl	usb_lld_get_status_in
 1248              	.LVL106:
 1249 02d8 0128     		cmp	r0, #1
 1250 02da BAD1     		bne	.L104
 1251              	.L69:
 1252              		.loc 1 177 0
 1253 02dc 134B     		ldr	r3, .L116+8
 1254 02de A363     		str	r3, [r4, #56]
 1255 02e0 E663     		str	r6, [r4, #60]
 1256 02e2 2764     		str	r7, [r4, #64]
 1257 02e4 3546     		mov	r5, r6
 1258 02e6 94F84430 		ldrb	r3, [r4, #68]	@ zero_extendqisi2
 1259 02ea 9BE6     		b	.L81
 1260              	.L112:
 1261              	.LVL107:
 1262              	.LBB39:
 1263              	.LBB40:
 1264              		.loc 1 71 0
 1265 02ec 94F84630 		ldrb	r3, [r4, #70]	@ zero_extendqisi2
 1266 02f0 84F84E30 		strb	r3, [r4, #78]
 1267              		.loc 1 72 0
 1268 02f4 2046     		mov	r0, r4
 1269 02f6 FFF7FEFF 		bl	usb_lld_set_address
 1270              	.LVL108:
 1271              		.loc 1 73 0
 1272 02fa 6368     		ldr	r3, [r4, #4]
 1273 02fc 1B68     		ldr	r3, [r3]
 1274 02fe 13B1     		cbz	r3, .L62
 1275 0300 2046     		mov	r0, r4
 1276 0302 0121     		movs	r1, #1
 1277 0304 9847     		blx	r3
 1278              	.LVL109:
 1279              	.L62:
 1280              		.loc 1 74 0
 1281 0306 0322     		movs	r2, #3
 1282 0308 94F84430 		ldrb	r3, [r4, #68]	@ zero_extendqisi2
 1283 030c 2270     		strb	r2, [r4]
 1284 030e 50E7     		b	.L73
 1285              	.LVL110:
 1286              	.L111:
 1287              	.LBE40:
 1288              	.LBE39:
 1289              		.loc 1 193 0
ARM GAS  C:\Users\jsyoon\AppData\Local\Temp\ccd9Jjyg.s 			page 24


 1290 0310 FFF7FEFF 		bl	usb_lld_clear_in
 1291              	.LVL111:
 1292 0314 94F84430 		ldrb	r3, [r4, #68]	@ zero_extendqisi2
 1293 0318 4BE7     		b	.L73
 1294              	.LVL112:
 1295              	.L113:
 1296              		.loc 1 206 0
 1297 031a FFF7FEFF 		bl	usb_lld_stall_in
 1298              	.LVL113:
 1299 031e 94F84430 		ldrb	r3, [r4, #68]	@ zero_extendqisi2
 1300 0322 46E7     		b	.L73
 1301              	.L117:
 1302              		.align	2
 1303              	.L116:
 1304 0324 00000000 		.word	.LANCHOR2
 1305 0328 00000000 		.word	.LANCHOR0
 1306 032c 00000000 		.word	.LANCHOR1
 1307              	.LBE41:
 1308              	.LBE55:
 1309              		.cfi_endproc
 1310              	.LFE135:
 1311              		.size	_usb_ep0setup, .-_usb_ep0setup
 1312              		.section	.text._usb_ep0in,"ax",%progbits
 1313              		.align	2
 1314              		.p2align 4,,15
 1315              		.global	_usb_ep0in
 1316              		.thumb
 1317              		.thumb_func
 1318              		.type	_usb_ep0in, %function
 1319              	_usb_ep0in:
 1320              	.LFB136:
 1321              		.loc 1 710 0
 1322              		.cfi_startproc
 1323              		@ args = 0, pretend = 0, frame = 0
 1324              		@ frame_needed = 0, uses_anonymous_args = 0
 1325              	.LVL114:
 1326 0000 38B5     		push	{r3, r4, r5, lr}
 1327              		.cfi_def_cfa_offset 16
 1328              		.cfi_offset 3, -16
 1329              		.cfi_offset 4, -12
 1330              		.cfi_offset 5, -8
 1331              		.cfi_offset 14, -4
 1332              		.loc 1 714 0
 1333 0002 90F83430 		ldrb	r3, [r0, #52]	@ zero_extendqisi2
 1334 0006 022B     		cmp	r3, #2
 1335              		.loc 1 710 0
 1336 0008 0446     		mov	r4, r0
 1337              		.loc 1 714 0
 1338 000a 3FD0     		beq	.L120
 1339 000c 052B     		cmp	r3, #5
 1340 000e 36D0     		beq	.L121
 1341 0010 012B     		cmp	r3, #1
 1342 0012 10D0     		beq	.L135
 1343              		.loc 1 753 0
 1344 0014 0021     		movs	r1, #0
 1345              	.LVL115:
 1346 0016 FFF7FEFF 		bl	usb_lld_stall_in
ARM GAS  C:\Users\jsyoon\AppData\Local\Temp\ccd9Jjyg.s 			page 25


 1347              	.LVL116:
 1348              		.loc 1 754 0
 1349 001a 2046     		mov	r0, r4
 1350 001c 0021     		movs	r1, #0
 1351 001e FFF7FEFF 		bl	usb_lld_stall_out
 1352              	.LVL117:
 1353              		.loc 1 755 0
 1354 0022 6368     		ldr	r3, [r4, #4]
 1355 0024 1B68     		ldr	r3, [r3]
 1356 0026 13B1     		cbz	r3, .L127
 1357              		.loc 1 755 0 is_stmt 0 discriminator 1
 1358 0028 2046     		mov	r0, r4
 1359 002a 0521     		movs	r1, #5
 1360 002c 9847     		blx	r3
 1361              	.LVL118:
 1362              	.L127:
 1363              		.loc 1 756 0 is_stmt 1
 1364 002e 0623     		movs	r3, #6
 1365 0030 84F83430 		strb	r3, [r4, #52]
 1366 0034 38BD     		pop	{r3, r4, r5, pc}
 1367              	.LVL119:
 1368              	.L135:
 1369              		.loc 1 716 0
 1370 0036 90F84B10 		ldrb	r1, [r0, #75]	@ zero_extendqisi2
 1371              	.LVL120:
 1372 003a 90F84A30 		ldrb	r3, [r0, #74]	@ zero_extendqisi2
 1373              		.loc 1 720 0
 1374 003e C26B     		ldr	r2, [r0, #60]
 1375              		.loc 1 716 0
 1376 0040 43EA0123 		orr	r3, r3, r1, lsl #8
 1377              		.loc 1 720 0
 1378 0044 9342     		cmp	r3, r2
 1379 0046 C368     		ldr	r3, [r0, #12]
 1380 0048 05D9     		bls	.L124
 1381              		.loc 1 720 0 is_stmt 0 discriminator 1
 1382 004a 198A     		ldrh	r1, [r3, #16]
 1383 004c B2FBF1F5 		udiv	r5, r2, r1
 1384 0050 01FB1525 		mls	r5, r1, r5, r2
 1385 0054 E5B1     		cbz	r5, .L136
 1386              	.LVL121:
 1387              	.L124:
 1388              	.LBB56:
 1389              	.LBB57:
 1390              		.loc 1 380 0 is_stmt 1
 1391 0056 9B69     		ldr	r3, [r3, #24]
 1392              		.loc 1 382 0
 1393 0058 0025     		movs	r5, #0
 1394              	.LBE57:
 1395              	.LBE56:
 1396              		.loc 1 731 0
 1397 005a 0322     		movs	r2, #3
 1398 005c 84F83420 		strb	r2, [r4, #52]
 1399              	.LVL122:
 1400              	.LBB59:
 1401              	.LBB58:
 1402              		.loc 1 387 0
 1403 0060 2946     		mov	r1, r5
ARM GAS  C:\Users\jsyoon\AppData\Local\Temp\ccd9Jjyg.s 			page 26


 1404              		.loc 1 382 0
 1405 0062 1D70     		strb	r5, [r3]
 1406              		.loc 1 383 0
 1407 0064 DD60     		str	r5, [r3, #12]
 1408              		.loc 1 384 0
 1409 0066 5D60     		str	r5, [r3, #4]
 1410              		.loc 1 385 0
 1411 0068 9D60     		str	r5, [r3, #8]
 1412              		.loc 1 387 0
 1413 006a 2046     		mov	r0, r4
 1414              	.LVL123:
 1415 006c FFF7FEFF 		bl	usb_lld_prepare_receive
 1416              	.LVL124:
 1417              	.LBE58:
 1418              	.LBE59:
 1419              		.loc 1 734 0
 1420              	@ 734 "ChibiOS_2.6.6/os/hal/src/usb.c" 1
 1421 0070 72B6     		cpsid   i
 1422              	@ 0 "" 2
 1423              		.loc 1 735 0
 1424              		.thumb
 1425 0072 2046     		mov	r0, r4
 1426 0074 2946     		mov	r1, r5
 1427 0076 FFF7FEFF 		bl	usbStartReceiveI
 1428              	.LVL125:
 1429              		.loc 1 736 0
 1430              	@ 736 "ChibiOS_2.6.6/os/hal/src/usb.c" 1
 1431 007a 62B6     		cpsie   i
 1432              	@ 0 "" 2
 1433              		.loc 1 740 0
 1434              		.thumb
 1435 007c 38BD     		pop	{r3, r4, r5, pc}
 1436              	.LVL126:
 1437              	.L121:
 1438              		.loc 1 743 0
 1439 007e 036C     		ldr	r3, [r0, #64]
 1440 0080 03B1     		cbz	r3, .L126
 1441              		.loc 1 744 0
 1442 0082 9847     		blx	r3
 1443              	.LVL127:
 1444              	.L126:
 1445              		.loc 1 745 0
 1446 0084 0023     		movs	r3, #0
 1447 0086 84F83430 		strb	r3, [r4, #52]
 1448              		.loc 1 746 0
 1449 008a 38BD     		pop	{r3, r4, r5, pc}
 1450              	.LVL128:
 1451              	.L120:
 1452 008c C368     		ldr	r3, [r0, #12]
 1453 008e E2E7     		b	.L124
 1454              	.LVL129:
 1455              	.L136:
 1456              	.LBB60:
 1457              	.LBB61:
 1458              		.loc 1 406 0
 1459 0090 5B69     		ldr	r3, [r3, #20]
 1460              	.LVL130:
ARM GAS  C:\Users\jsyoon\AppData\Local\Temp\ccd9Jjyg.s 			page 27


 1461              		.loc 1 413 0
 1462 0092 2946     		mov	r1, r5
 1463              		.loc 1 408 0
 1464 0094 1D70     		strb	r5, [r3]
 1465              	.LVL131:
 1466              		.loc 1 409 0
 1467 0096 DD60     		str	r5, [r3, #12]
 1468              		.loc 1 410 0
 1469 0098 5D60     		str	r5, [r3, #4]
 1470              		.loc 1 411 0
 1471 009a 9D60     		str	r5, [r3, #8]
 1472              		.loc 1 413 0
 1473 009c FFF7FEFF 		bl	usb_lld_prepare_transmit
 1474              	.LVL132:
 1475              	.LBE61:
 1476              	.LBE60:
 1477              		.loc 1 722 0
 1478              	@ 722 "ChibiOS_2.6.6/os/hal/src/usb.c" 1
 1479 00a0 72B6     		cpsid   i
 1480              	@ 0 "" 2
 1481              		.loc 1 723 0
 1482              		.thumb
 1483 00a2 2946     		mov	r1, r5
 1484 00a4 2046     		mov	r0, r4
 1485 00a6 FFF7FEFF 		bl	usbStartTransmitI
 1486              	.LVL133:
 1487              		.loc 1 724 0
 1488              	@ 724 "ChibiOS_2.6.6/os/hal/src/usb.c" 1
 1489 00aa 62B6     		cpsie   i
 1490              	@ 0 "" 2
 1491              		.loc 1 725 0
 1492              		.thumb
 1493 00ac 0223     		movs	r3, #2
 1494 00ae 84F83430 		strb	r3, [r4, #52]
 1495              		.loc 1 726 0
 1496 00b2 38BD     		pop	{r3, r4, r5, pc}
 1497              		.cfi_endproc
 1498              	.LFE136:
 1499              		.size	_usb_ep0in, .-_usb_ep0in
 1500 00b4 AFF30080 		.section	.text._usb_ep0out,"ax",%progbits
 1500      AFF30080 
 1500      AFF30080 
 1501              		.align	2
 1502              		.p2align 4,,15
 1503              		.global	_usb_ep0out
 1504              		.thumb
 1505              		.thumb_func
 1506              		.type	_usb_ep0out, %function
 1507              	_usb_ep0out:
 1508              	.LFB137:
 1509              		.loc 1 769 0
 1510              		.cfi_startproc
 1511              		@ args = 0, pretend = 0, frame = 0
 1512              		@ frame_needed = 0, uses_anonymous_args = 0
 1513              	.LVL134:
 1514 0000 38B5     		push	{r3, r4, r5, lr}
 1515              		.cfi_def_cfa_offset 16
ARM GAS  C:\Users\jsyoon\AppData\Local\Temp\ccd9Jjyg.s 			page 28


 1516              		.cfi_offset 3, -16
 1517              		.cfi_offset 4, -12
 1518              		.cfi_offset 5, -8
 1519              		.cfi_offset 14, -4
 1520              		.loc 1 772 0
 1521 0002 90F83430 		ldrb	r3, [r0, #52]	@ zero_extendqisi2
 1522 0006 032B     		cmp	r3, #3
 1523              		.loc 1 769 0
 1524 0008 0446     		mov	r4, r0
 1525              		.loc 1 772 0
 1526 000a 27D0     		beq	.L139
 1527 000c 042B     		cmp	r3, #4
 1528 000e 11D0     		beq	.L150
 1529              	.L138:
 1530              		.loc 1 802 0
 1531 0010 2046     		mov	r0, r4
 1532              	.LVL135:
 1533 0012 0021     		movs	r1, #0
 1534              	.LVL136:
 1535 0014 FFF7FEFF 		bl	usb_lld_stall_in
 1536              	.LVL137:
 1537              		.loc 1 803 0
 1538 0018 2046     		mov	r0, r4
 1539 001a 0021     		movs	r1, #0
 1540 001c FFF7FEFF 		bl	usb_lld_stall_out
 1541              	.LVL138:
 1542              		.loc 1 804 0
 1543 0020 6368     		ldr	r3, [r4, #4]
 1544 0022 1B68     		ldr	r3, [r3]
 1545 0024 13B1     		cbz	r3, .L143
 1546              		.loc 1 804 0 is_stmt 0 discriminator 1
 1547 0026 2046     		mov	r0, r4
 1548 0028 0521     		movs	r1, #5
 1549 002a 9847     		blx	r3
 1550              	.LVL139:
 1551              	.L143:
 1552              		.loc 1 805 0 is_stmt 1
 1553 002c 0623     		movs	r3, #6
 1554 002e 84F83430 		strb	r3, [r4, #52]
 1555 0032 38BD     		pop	{r3, r4, r5, pc}
 1556              	.LVL140:
 1557              	.L150:
 1558              	.LBB62:
 1559              	.LBB63:
 1560              		.loc 1 406 0
 1561 0034 C368     		ldr	r3, [r0, #12]
 1562 0036 5B69     		ldr	r3, [r3, #20]
 1563              		.loc 1 408 0
 1564 0038 0025     		movs	r5, #0
 1565              	.LBE63:
 1566              	.LBE62:
 1567              		.loc 1 775 0
 1568 003a 0522     		movs	r2, #5
 1569 003c 80F83420 		strb	r2, [r0, #52]
 1570              	.LVL141:
 1571              	.LBB65:
 1572              	.LBB64:
ARM GAS  C:\Users\jsyoon\AppData\Local\Temp\ccd9Jjyg.s 			page 29


 1573              		.loc 1 413 0
 1574 0040 2946     		mov	r1, r5
 1575              	.LVL142:
 1576              		.loc 1 408 0
 1577 0042 1D70     		strb	r5, [r3]
 1578              		.loc 1 409 0
 1579 0044 DD60     		str	r5, [r3, #12]
 1580              		.loc 1 410 0
 1581 0046 5D60     		str	r5, [r3, #4]
 1582              		.loc 1 411 0
 1583 0048 9D60     		str	r5, [r3, #8]
 1584              		.loc 1 413 0
 1585 004a FFF7FEFF 		bl	usb_lld_prepare_transmit
 1586              	.LVL143:
 1587              	.LBE64:
 1588              	.LBE65:
 1589              		.loc 1 778 0
 1590              	@ 778 "ChibiOS_2.6.6/os/hal/src/usb.c" 1
 1591 004e 72B6     		cpsid   i
 1592              	@ 0 "" 2
 1593              		.loc 1 779 0
 1594              		.thumb
 1595 0050 2046     		mov	r0, r4
 1596 0052 2946     		mov	r1, r5
 1597 0054 FFF7FEFF 		bl	usbStartTransmitI
 1598              	.LVL144:
 1599              		.loc 1 780 0
 1600              	@ 780 "ChibiOS_2.6.6/os/hal/src/usb.c" 1
 1601 0058 62B6     		cpsie   i
 1602              	@ 0 "" 2
 1603              		.loc 1 784 0
 1604              		.thumb
 1605 005a 38BD     		pop	{r3, r4, r5, pc}
 1606              	.LVL145:
 1607              	.L139:
 1608              		.loc 1 789 0
 1609 005c C368     		ldr	r3, [r0, #12]
 1610 005e 9B69     		ldr	r3, [r3, #24]
 1611 0060 9B68     		ldr	r3, [r3, #8]
 1612 0062 002B     		cmp	r3, #0
 1613 0064 D4D1     		bne	.L138
 1614              		.loc 1 792 0
 1615 0066 036C     		ldr	r3, [r0, #64]
 1616 0068 03B1     		cbz	r3, .L142
 1617              		.loc 1 793 0
 1618 006a 9847     		blx	r3
 1619              	.LVL146:
 1620              	.L142:
 1621              		.loc 1 794 0
 1622 006c 0023     		movs	r3, #0
 1623 006e 84F83430 		strb	r3, [r4, #52]
 1624              		.loc 1 795 0
 1625 0072 38BD     		pop	{r3, r4, r5, pc}
 1626              		.cfi_endproc
 1627              	.LFE137:
 1628              		.size	_usb_ep0out, .-_usb_ep0out
 1629 0074 AFF30080 		.section	.rodata.zero_status,"a",%progbits
ARM GAS  C:\Users\jsyoon\AppData\Local\Temp\ccd9Jjyg.s 			page 30


 1629      AFF30080 
 1629      AFF30080 
 1630              		.align	2
 1631              		.set	.LANCHOR0,. + 0
 1632              		.type	zero_status, %object
 1633              		.size	zero_status, 2
 1634              	zero_status:
 1635 0000 0000     		.space	2
 1636 0002 0000     		.section	.rodata.active_status,"a",%progbits
 1637              		.align	2
 1638              		.set	.LANCHOR2,. + 0
 1639              		.type	active_status, %object
 1640              		.size	active_status, 2
 1641              	active_status:
 1642 0000 0000     		.space	2
 1643 0002 0000     		.section	.rodata.halted_status,"a",%progbits
 1644              		.align	2
 1645              		.set	.LANCHOR1,. + 0
 1646              		.type	halted_status, %object
 1647              		.size	halted_status, 2
 1648              	halted_status:
 1649 0000 01       		.byte	1
 1650 0001 00       		.byte	0
 1651 0002 0000     		.text
 1652              	.Letext0:
 1653              		.file 2 "c:\\crosstools\\gcc-arm-embedded\\4.8_2014q2\\lib\\gcc\\arm-none-eabi\\4.8.4\\include\\st
 1654              		.file 3 "c:\\crosstools\\gcc-arm-embedded\\4.8_2014q2\\arm-none-eabi\\include\\machine\\_default_t
 1655              		.file 4 "c:\\crosstools\\gcc-arm-embedded\\4.8_2014q2\\arm-none-eabi\\include\\stdint.h"
 1656              		.file 5 "ChibiOS_2.6.6/os/ports/GCC/ARMCMx/chtypes.h"
 1657              		.file 6 "ChibiOS_2.6.6/os/kernel/include/chlists.h"
 1658              		.file 7 "ChibiOS_2.6.6/os/kernel/include/chthreads.h"
 1659              		.file 8 "ChibiOS_2.6.6/os/ports/GCC/ARMCMx/chcore_v7m.h"
 1660              		.file 9 "ChibiOS_2.6.6/os/kernel/include/chmtx.h"
 1661              		.file 10 "ChibiOS_2.6.6/os/kernel/include/chqueues.h"
 1662              		.file 11 "ChibiOS_2.6.6/os/hal/include/usb.h"
 1663              		.file 12 "ChibiOS_2.6.6/os/hal/platforms/STM32/OTGv1/usb_lld.h"
 1664              		.file 13 "ChibiOS_2.6.6/os/hal/platforms/STM32/OTGv1/stm32_otg.h"
 1665              		.file 14 "ChibiOS_2.6.6/os/ports/common/ARMCMx/CMSIS/include/core_cm4.h"