ARM GAS  C:\Users\jsyoon\AppData\Local\Temp\cc51thSB.s 			page 1


   1              		.syntax unified
   2              		.cpu cortex-m4
   3              		.eabi_attribute 27, 3
   4              		.eabi_attribute 28, 1
   5              		.fpu fpv4-sp-d16
   6              		.eabi_attribute 20, 1
   7              		.eabi_attribute 21, 1
   8              		.eabi_attribute 23, 3
   9              		.eabi_attribute 24, 1
  10              		.eabi_attribute 25, 1
  11              		.eabi_attribute 26, 1
  12              		.eabi_attribute 30, 2
  13              		.eabi_attribute 34, 1
  14              		.eabi_attribute 18, 4
  15              		.thumb
  16              		.file	"ws2811.c"
  17              		.text
  18              	.Ltext0:
  19              		.cfi_sections	.debug_frame
  20              		.section	.text.ws2811_init,"ax",%progbits
  21              		.align	2
  22              		.p2align 4,,15
  23              		.global	ws2811_init
  24              		.thumb
  25              		.thumb_func
  26              		.type	ws2811_init, %function
  27              	ws2811_init:
  28              	.LFB118:
  29              		.file 1 "ws2811.c"
  30              		.loc 1 47 0
  31              		.cfi_startproc
  32              		@ args = 0, pretend = 0, frame = 96
  33              		@ frame_needed = 0, uses_anonymous_args = 0
  34              	.LVL0:
  35 0000 2DE9F04F 		push	{r4, r5, r6, r7, r8, r9, r10, fp, lr}
  36              		.cfi_def_cfa_offset 36
  37              		.cfi_offset 4, -36
  38              		.cfi_offset 5, -32
  39              		.cfi_offset 6, -28
  40              		.cfi_offset 7, -24
  41              		.cfi_offset 8, -20
  42              		.cfi_offset 9, -16
  43              		.cfi_offset 10, -12
  44              		.cfi_offset 11, -8
  45              		.cfi_offset 14, -4
  46 0004 2DED028B 		fstmfdd	sp!, {d8}
  47              		.cfi_def_cfa_offset 44
  48              		.cfi_offset 80, -44
  49 0008 DFF8B081 		ldr	r8, .L19+32
  50 000c 99B0     		sub	sp, sp, #100
  51              		.cfi_def_cfa_offset 144
  52              		.loc 1 56 0
  53 000e 0022     		movs	r2, #0
  54              		.loc 1 47 0
  55 0010 A8F13C03 		sub	r3, r8, #60
  56              	.LVL1:
  57              	.L3:
ARM GAS  C:\Users\jsyoon\AppData\Local\Temp\cc51thSB.s 			page 2


  58              		.loc 1 56 0 discriminator 2
  59 0014 43F8042F 		str	r2, [r3, #4]!
  60              		.loc 1 55 0 discriminator 2
  61 0018 4345     		cmp	r3, r8
  62 001a FBD1     		bne	.L3
  63 001c 5F4E     		ldr	r6, .L19
  64              		.loc 1 55 0 is_stmt 0
  65 001e DFF8A0C1 		ldr	ip, .L19+36
  66 0022 5F4D     		ldr	r5, .L19+4
  67 0024 06F13009 		add	r9, r6, #48
  68 0028 4FF0000E 		mov	lr, #0
  69              	.LBB12:
  70              		.loc 1 66 0 is_stmt 1
  71 002c 1424     		movs	r4, #20
  72              		.loc 1 64 0
  73 002e 5320     		movs	r0, #83
  74              	.L9:
  75              		.loc 1 60 0
  76 0030 5CF8043F 		ldr	r3, [ip, #4]!
  77              	.LVL2:
  78 0034 594F     		ldr	r7, .L19
  79              	.LBB13:
  80              	.LBB14:
  81              		.loc 1 230 0
  82 0036 C3F30742 		ubfx	r2, r3, #16, #8
  83              		.loc 1 231 0
  84 003a C3F30721 		ubfx	r1, r3, #8, #8
  85              		.loc 1 234 0
  86 003e AA5C     		ldrb	r2, [r5, r2]	@ zero_extendqisi2
  87              	.LVL3:
  88              		.loc 1 235 0
  89 0040 695C     		ldrb	r1, [r5, r1]	@ zero_extendqisi2
  90              	.LVL4:
  91              		.loc 1 232 0
  92 0042 DBB2     		uxtb	r3, r3
  93              	.LVL5:
  94              		.loc 1 238 0
  95 0044 1202     		lsls	r2, r2, #8
  96              	.LVL6:
  97              		.loc 1 236 0
  98 0046 EB5C     		ldrb	r3, [r5, r3]	@ zero_extendqisi2
  99              	.LVL7:
 100              		.loc 1 238 0
 101 0048 42EA0142 		orr	r2, r2, r1, lsl #16
 102 004c 1A43     		orrs	r2, r2, r3
 103              	.LVL8:
 104 004e 09EB0E01 		add	r1, r9, lr
 105              	.LVL9:
 106 0052 06EB0E03 		add	r3, r6, lr
 107              	.LVL10:
 108              	.L7:
 109              	.LBE14:
 110              	.LBE13:
 111              		.loc 1 63 0
 112 0056 12F4000F 		tst	r2, #8388608
 113              		.loc 1 64 0
 114 005a 14BF     		ite	ne
ARM GAS  C:\Users\jsyoon\AppData\Local\Temp\cc51thSB.s 			page 3


 115 005c 1880     		strhne	r0, [r3]	@ movhi
 116              		.loc 1 66 0
 117 005e 1C80     		strheq	r4, [r3]	@ movhi
 118 0060 0233     		adds	r3, r3, #2
 119              		.loc 1 62 0
 120 0062 9942     		cmp	r1, r3
 121              		.loc 1 68 0
 122 0064 4FEA4202 		lsl	r2, r2, #1
 123              	.LVL11:
 124              		.loc 1 62 0
 125 0068 F5D1     		bne	.L7
 126              	.LBE12:
 127              		.loc 1 59 0
 128 006a E045     		cmp	r8, ip
 129 006c 0EF1300E 		add	lr, lr, #48
 130 0070 DED1     		bne	.L9
 131 0072 4C4B     		ldr	r3, .L19+8
 132              		.loc 1 75 0
 133 0074 0021     		movs	r1, #0
 134 0076 03F16402 		add	r2, r3, #100
 135              	.LVL12:
 136              	.L11:
 137              		.loc 1 75 0 is_stmt 0 discriminator 2
 138 007a 23F8021F 		strh	r1, [r3, #2]!	@ movhi
 139              		.loc 1 74 0 is_stmt 1 discriminator 2
 140 007e 9342     		cmp	r3, r2
 141 0080 FBD1     		bne	.L11
 142              	.LBB15:
 143              		.loc 1 80 0
 144 0082 9FED498A 		flds	s16, .L19+12
 145              	.LBE15:
 146              		.loc 1 74 0
 147 0086 0024     		movs	r4, #0
 148              	.LVL13:
 149              	.L13:
 150              	.LBB16:
 151              		.loc 1 80 0 discriminator 2
 152 0088 07EE904A 		fmsr	s15, r4	@ int
 153 008c B8EEE70A 		fsitos	s0, s15
 154 0090 DFED460A 		flds	s1, .L19+16
 155 0094 80EE080A 		fdivs	s0, s0, s16
 156 0098 FFF7FEFF 		bl	powf
 157              	.LVL14:
 158 009c 20EE080A 		fmuls	s0, s0, s16
 159 00a0 FFF7FEFF 		bl	roundf
 160              	.LVL15:
 161 00a4 BDEEC00A 		ftosizs	s0, s0
 162 00a8 10EE103A 		fmrs	r3, s0	@ int
 163 00ac 2B55     		strb	r3, [r5, r4]
 164              		.loc 1 79 0 discriminator 2
 165 00ae 0134     		adds	r4, r4, #1
 166              	.LVL16:
 167 00b0 B4F5807F 		cmp	r4, #256
 168 00b4 E8D1     		bne	.L13
 169              	.LBE16:
 170              		.loc 1 84 0
 171 00b6 4FF48772 		mov	r2, #270
ARM GAS  C:\Users\jsyoon\AppData\Local\Temp\cc51thSB.s 			page 4


 172 00ba 3D48     		ldr	r0, .L19+20
 173              		.loc 1 100 0
 174 00bc DFF804A1 		ldr	r10, .L19+40
 175              		.loc 1 84 0
 176 00c0 8021     		movs	r1, #128
 177 00c2 FFF7FEFF 		bl	_pal_lld_setgroupmode
 178              	.LVL17:
 179              		.loc 1 96 0
 180 00c6 0121     		movs	r1, #1
 181 00c8 4FF40010 		mov	r0, #2097152
 182 00cc FFF7FEFF 		bl	RCC_AHB1PeriphClockCmd
 183              	.LVL18:
 184              		.loc 1 99 0
 185 00d0 3848     		ldr	r0, .L19+24
 186 00d2 FFF7FEFF 		bl	DMA_DeInit
 187              	.LVL19:
 188              		.loc 1 109 0
 189 00d6 0025     		movs	r5, #0
 190              		.loc 1 111 0
 191 00d8 4FF4006C 		mov	ip, #2048
 192              		.loc 1 112 0
 193 00dc 4FF4005E 		mov	lr, #8192
 194              		.loc 1 114 0
 195 00e0 4FF40032 		mov	r2, #131072
 196              		.loc 1 116 0
 197 00e4 0323     		movs	r3, #3
 198              		.loc 1 106 0
 199 00e6 0B97     		str	r7, [sp, #44]
 200              		.loc 1 121 0
 201 00e8 09A9     		add	r1, sp, #36
 202              		.loc 1 110 0
 203 00ea 4FF48067 		mov	r7, #1024
 204              		.loc 1 121 0
 205 00ee 3148     		ldr	r0, .L19+24
 206              		.loc 1 111 0
 207 00f0 CDF840C0 		str	ip, [sp, #64]
 208              		.loc 1 105 0
 209 00f4 4FF0806B 		mov	fp, #67108864
 210              		.loc 1 107 0
 211 00f8 4FF04009 		mov	r9, #64
 212              		.loc 1 108 0
 213 00fc 4FF4CD78 		mov	r8, #410
 214              		.loc 1 112 0
 215 0100 CDF844E0 		str	lr, [sp, #68]
 216              		.loc 1 114 0
 217 0104 1392     		str	r2, [sp, #76]
 218              		.loc 1 116 0
 219 0106 1593     		str	r3, [sp, #84]
 220              		.loc 1 113 0
 221 0108 1294     		str	r4, [sp, #72]
 222              		.loc 1 100 0
 223 010a CDF828A0 		str	r10, [sp, #40]
 224              		.loc 1 105 0
 225 010e CDF824B0 		str	fp, [sp, #36]
 226              		.loc 1 107 0
 227 0112 CDF83090 		str	r9, [sp, #48]
 228              		.loc 1 108 0
ARM GAS  C:\Users\jsyoon\AppData\Local\Temp\cc51thSB.s 			page 5


 229 0116 CDF83480 		str	r8, [sp, #52]
 230              		.loc 1 109 0
 231 011a 0E95     		str	r5, [sp, #56]
 232              		.loc 1 115 0
 233 011c 1495     		str	r5, [sp, #80]
 234              		.loc 1 117 0
 235 011e 1695     		str	r5, [sp, #88]
 236              		.loc 1 118 0
 237 0120 1795     		str	r5, [sp, #92]
 238              		.loc 1 110 0
 239 0122 0F97     		str	r7, [sp, #60]
 240              		.loc 1 121 0
 241 0124 FFF7FEFF 		bl	DMA_Init
 242              	.LVL20:
 243              		.loc 1 126 0
 244 0128 0420     		movs	r0, #4
 245 012a 0121     		movs	r1, #1
 246 012c FFF7FEFF 		bl	RCC_APB1PeriphClockCmd
 247              	.LVL21:
 248              		.loc 1 131 0
 249 0130 6823     		movs	r3, #104
 250              		.loc 1 135 0
 251 0132 01A9     		add	r1, sp, #4
 252 0134 2048     		ldr	r0, .L19+28
 253              		.loc 1 131 0
 254 0136 0293     		str	r3, [sp, #8]
 255              		.loc 1 139 0
 256 0138 0124     		movs	r4, #1
 257              	.LVL22:
 258              		.loc 1 129 0
 259 013a ADF80450 		strh	r5, [sp, #4]	@ movhi
 260              		.loc 1 130 0
 261 013e ADF80650 		strh	r5, [sp, #6]	@ movhi
 262              		.loc 1 132 0
 263 0142 ADF80C50 		strh	r5, [sp, #12]	@ movhi
 264              		.loc 1 133 0
 265 0146 8DF80E50 		strb	r5, [sp, #14]
 266              		.loc 1 135 0
 267 014a FFF7FEFF 		bl	TIM_TimeBaseInit
 268              	.LVL23:
 269              		.loc 1 138 0
 270 014e 6023     		movs	r3, #96
 271              		.loc 1 140 0
 272 0150 3288     		ldrh	r2, [r6]
 273              		.loc 1 144 0
 274 0152 1948     		ldr	r0, .L19+28
 275              		.loc 1 138 0
 276 0154 ADF81030 		strh	r3, [sp, #16]	@ movhi
 277              		.loc 1 144 0
 278 0158 04A9     		add	r1, sp, #16
 279              		.loc 1 140 0
 280 015a 0692     		str	r2, [sp, #24]
 281              		.loc 1 141 0
 282 015c ADF81C50 		strh	r5, [sp, #28]	@ movhi
 283              		.loc 1 139 0
 284 0160 ADF81240 		strh	r4, [sp, #18]	@ movhi
 285              		.loc 1 144 0
ARM GAS  C:\Users\jsyoon\AppData\Local\Temp\cc51thSB.s 			page 6


 286 0164 FFF7FEFF 		bl	TIM_OC2Init
 287              	.LVL24:
 288              		.loc 1 145 0
 289 0168 1348     		ldr	r0, .L19+28
 290 016a 0821     		movs	r1, #8
 291 016c FFF7FEFF 		bl	TIM_OC2PreloadConfig
 292              	.LVL25:
 293              		.loc 1 152 0
 294 0170 2146     		mov	r1, r4
 295 0172 1148     		ldr	r0, .L19+28
 296 0174 FFF7FEFF 		bl	TIM_Cmd
 297              	.LVL26:
 298              		.loc 1 156 0
 299 0178 2146     		mov	r1, r4
 300 017a 0E48     		ldr	r0, .L19+24
 301 017c FFF7FEFF 		bl	DMA_Cmd
 302              	.LVL27:
 303              		.loc 1 163 0
 304 0180 3946     		mov	r1, r7
 305 0182 2246     		mov	r2, r4
 306 0184 0C48     		ldr	r0, .L19+28
 307 0186 FFF7FEFF 		bl	TIM_DMACmd
 308              	.LVL28:
 309              		.loc 1 169 0
 310 018a 2146     		mov	r1, r4
 311 018c 0A48     		ldr	r0, .L19+28
 312 018e FFF7FEFF 		bl	TIM_CtrlPWMOutputs
 313              	.LVL29:
 314              		.loc 1 170 0
 315 0192 19B0     		add	sp, sp, #100
 316              		@ sp needed
 317 0194 BDEC028B 		fldmfdd	sp!, {d8}
 318 0198 BDE8F08F 		pop	{r4, r5, r6, r7, r8, r9, r10, fp, pc}
 319              	.L20:
 320              		.align	2
 321              	.L19:
 322 019c 00000000 		.word	.LANCHOR2
 323 01a0 00000000 		.word	.LANCHOR1
 324 01a4 CC020000 		.word	.LANCHOR2+716
 325 01a8 00007F43 		.word	1132396544
 326 01ac E4380E40 		.word	1074673892
 327 01b0 00040240 		.word	1073873920
 328 01b4 58600240 		.word	1073897560
 329 01b8 00080040 		.word	1073743872
 330 01bc 38000000 		.word	.LANCHOR0+56
 331 01c0 FCFFFFFF 		.word	.LANCHOR0-4
 332 01c4 38080040 		.word	1073743928
 333              		.cfi_endproc
 334              	.LFE118:
 335              		.size	ws2811_init, .-ws2811_init
 336 01c8 AFF30080 		.section	.text.ws2811_set_led_color,"ax",%progbits
 336      AFF30080 
 337              		.align	2
 338              		.p2align 4,,15
 339              		.global	ws2811_set_led_color
 340              		.thumb
 341              		.thumb_func
ARM GAS  C:\Users\jsyoon\AppData\Local\Temp\cc51thSB.s 			page 7


 342              		.type	ws2811_set_led_color, %function
 343              	ws2811_set_led_color:
 344              	.LFB119:
 345              		.loc 1 172 0
 346              		.cfi_startproc
 347              		@ args = 0, pretend = 0, frame = 0
 348              		@ frame_needed = 0, uses_anonymous_args = 0
 349              		@ link register save eliminated.
 350              	.LVL30:
 351              		.loc 1 173 0
 352 0000 0D28     		cmp	r0, #13
 353              		.loc 1 172 0
 354 0002 F0B4     		push	{r4, r5, r6, r7}
 355              		.cfi_def_cfa_offset 16
 356              		.cfi_offset 4, -16
 357              		.cfi_offset 5, -12
 358              		.cfi_offset 6, -8
 359              		.cfi_offset 7, -4
 360              		.loc 1 173 0
 361 0004 28DC     		bgt	.L21
 362              	.LBB17:
 363              	.LBB18:
 364              	.LBB19:
 365              		.loc 1 234 0
 366 0006 154C     		ldr	r4, .L28
 367              	.LBE19:
 368              	.LBE18:
 369              		.loc 1 174 0
 370 0008 154E     		ldr	r6, .L28+4
 371 000a 164B     		ldr	r3, .L28+8
 372 000c 46F82010 		str	r1, [r6, r0, lsl #2]
 373              	.LVL31:
 374              	.LBB22:
 375              	.LBB20:
 376              		.loc 1 230 0
 377 0010 C1F30742 		ubfx	r2, r1, #16, #8
 378              		.loc 1 231 0
 379 0014 C1F30725 		ubfx	r5, r1, #8, #8
 380              		.loc 1 234 0
 381 0018 A25C     		ldrb	r2, [r4, r2]	@ zero_extendqisi2
 382              	.LVL32:
 383              		.loc 1 235 0
 384 001a 655D     		ldrb	r5, [r4, r5]	@ zero_extendqisi2
 385              	.LVL33:
 386              		.loc 1 232 0
 387 001c C9B2     		uxtb	r1, r1
 388              	.LVL34:
 389              	.LBE20:
 390              	.LBE22:
 391              		.loc 1 181 0
 392 001e 00EB4000 		add	r0, r0, r0, lsl #1
 393              	.LVL35:
 394              	.LBB23:
 395              	.LBB21:
 396              		.loc 1 236 0
 397 0022 615C     		ldrb	r1, [r4, r1]	@ zero_extendqisi2
 398              	.LVL36:
ARM GAS  C:\Users\jsyoon\AppData\Local\Temp\cc51thSB.s 			page 8


 399              		.loc 1 238 0
 400 0024 1202     		lsls	r2, r2, #8
 401              	.LVL37:
 402 0026 42EA0542 		orr	r2, r2, r5, lsl #16
 403 002a 03F13004 		add	r4, r3, #48
 404              	.LVL38:
 405 002e 0501     		lsls	r5, r0, #4
 406              	.LVL39:
 407 0030 0A43     		orrs	r2, r2, r1
 408              	.LVL40:
 409 0032 2C44     		add	r4, r4, r5
 410 0034 2B44     		add	r3, r3, r5
 411 0036 6842     		negs	r0, r5
 412              	.LBE21:
 413              	.LBE23:
 414              		.loc 1 183 0
 415 0038 1427     		movs	r7, #20
 416              		.loc 1 181 0
 417 003a 5326     		movs	r6, #83
 418              	.LVL41:
 419              	.L26:
 420              		.loc 1 180 0
 421 003c 12F4000F 		tst	r2, #8388608
 422 0040 03EB0001 		add	r1, r3, r0
 423              		.loc 1 181 0
 424 0044 18BF     		it	ne
 425 0046 1E80     		strhne	r6, [r3]	@ movhi
 426 0048 03F10203 		add	r3, r3, #2
 427              		.loc 1 183 0
 428 004c 08BF     		it	eq
 429 004e 4F53     		strheq	r7, [r1, r5]	@ movhi
 430              		.loc 1 179 0
 431 0050 A342     		cmp	r3, r4
 432              		.loc 1 185 0
 433 0052 4FEA4202 		lsl	r2, r2, #1
 434              	.LVL42:
 435              		.loc 1 179 0
 436 0056 F1D1     		bne	.L26
 437              	.LVL43:
 438              	.L21:
 439              	.LBE17:
 440              		.loc 1 188 0
 441 0058 F0BC     		pop	{r4, r5, r6, r7}
 442 005a 7047     		bx	lr
 443              	.L29:
 444              		.align	2
 445              	.L28:
 446 005c 00000000 		.word	.LANCHOR1
 447 0060 00000000 		.word	.LANCHOR0
 448 0064 00000000 		.word	.LANCHOR2
 449              		.cfi_endproc
 450              	.LFE119:
 451              		.size	ws2811_set_led_color, .-ws2811_set_led_color
 452 0068 AFF30080 		.section	.text.ws2811_get_led_color,"ax",%progbits
 452      AFF30080 
 453              		.align	2
 454              		.p2align 4,,15
ARM GAS  C:\Users\jsyoon\AppData\Local\Temp\cc51thSB.s 			page 9


 455              		.global	ws2811_get_led_color
 456              		.thumb
 457              		.thumb_func
 458              		.type	ws2811_get_led_color, %function
 459              	ws2811_get_led_color:
 460              	.LFB120:
 461              		.loc 1 190 0
 462              		.cfi_startproc
 463              		@ args = 0, pretend = 0, frame = 0
 464              		@ frame_needed = 0, uses_anonymous_args = 0
 465              		@ link register save eliminated.
 466              	.LVL44:
 467              		.loc 1 191 0
 468 0000 0D28     		cmp	r0, #13
 469              		.loc 1 192 0
 470 0002 DABF     		itte	le
 471 0004 024B     		ldrle	r3, .L33
 472 0006 53F82000 		ldrle	r0, [r3, r0, lsl #2]
 473              	.LVL45:
 474              		.loc 1 195 0
 475 000a 0020     		movgt	r0, #0
 476              		.loc 1 196 0
 477 000c 7047     		bx	lr
 478              	.L34:
 479 000e 00BF     		.align	2
 480              	.L33:
 481 0010 00000000 		.word	.LANCHOR0
 482              		.cfi_endproc
 483              	.LFE120:
 484              		.size	ws2811_get_led_color, .-ws2811_get_led_color
 485 0014 AFF30080 		.section	.text.ws2811_all_off,"ax",%progbits
 485      AFF30080 
 485      AFF30080 
 486              		.align	2
 487              		.p2align 4,,15
 488              		.global	ws2811_all_off
 489              		.thumb
 490              		.thumb_func
 491              		.type	ws2811_all_off, %function
 492              	ws2811_all_off:
 493              	.LFB121:
 494              		.loc 1 198 0
 495              		.cfi_startproc
 496              		@ args = 0, pretend = 0, frame = 0
 497              		@ frame_needed = 0, uses_anonymous_args = 0
 498              		@ link register save eliminated.
 499              	.LVL46:
 500 0000 084B     		ldr	r3, .L42
 501              		.loc 1 202 0
 502 0002 0021     		movs	r1, #0
 503 0004 03F13802 		add	r2, r3, #56
 504              	.LVL47:
 505              	.L37:
 506              		.loc 1 202 0 is_stmt 0 discriminator 2
 507 0008 43F8041F 		str	r1, [r3, #4]!
 508              		.loc 1 201 0 is_stmt 1 discriminator 2
 509 000c 9342     		cmp	r3, r2
ARM GAS  C:\Users\jsyoon\AppData\Local\Temp\cc51thSB.s 			page 10


 510 000e FBD1     		bne	.L37
 511 0010 054B     		ldr	r3, .L42+4
 512              		.loc 1 206 0
 513 0012 1421     		movs	r1, #20
 514 0014 03F52872 		add	r2, r3, #672
 515              	.L39:
 516              		.loc 1 206 0 is_stmt 0 discriminator 2
 517 0018 23F8021F 		strh	r1, [r3, #2]!	@ movhi
 518              		.loc 1 205 0 is_stmt 1 discriminator 2
 519 001c 9342     		cmp	r3, r2
 520 001e FBD1     		bne	.L39
 521              		.loc 1 208 0
 522 0020 7047     		bx	lr
 523              	.L43:
 524 0022 00BF     		.align	2
 525              	.L42:
 526 0024 FCFFFFFF 		.word	.LANCHOR0-4
 527 0028 FEFFFFFF 		.word	.LANCHOR2-2
 528              		.cfi_endproc
 529              	.LFE121:
 530              		.size	ws2811_all_off, .-ws2811_all_off
 531 002c AFF30080 		.section	.text.ws2811_set_all,"ax",%progbits
 532              		.align	2
 533              		.p2align 4,,15
 534              		.global	ws2811_set_all
 535              		.thumb
 536              		.thumb_func
 537              		.type	ws2811_set_all, %function
 538              	ws2811_set_all:
 539              	.LFB122:
 540              		.loc 1 210 0
 541              		.cfi_startproc
 542              		@ args = 0, pretend = 0, frame = 0
 543              		@ frame_needed = 0, uses_anonymous_args = 0
 544              		@ link register save eliminated.
 545              	.LVL48:
 546 0000 2DE9F007 		push	{r4, r5, r6, r7, r8, r9, r10}
 547              		.cfi_def_cfa_offset 28
 548              		.cfi_offset 4, -28
 549              		.cfi_offset 5, -24
 550              		.cfi_offset 6, -20
 551              		.cfi_offset 7, -16
 552              		.cfi_offset 8, -12
 553              		.cfi_offset 9, -8
 554              		.cfi_offset 10, -4
 555 0004 184B     		ldr	r3, .L53
 556 0006 194F     		ldr	r7, .L53+4
 557 0008 DFF864C0 		ldr	ip, .L53+8
 558 000c C0F30742 		ubfx	r2, r0, #16, #8
 559 0010 C0F30724 		ubfx	r4, r0, #8, #8
 560 0014 9A5C     		ldrb	r2, [r3, r2]	@ zero_extendqisi2
 561 0016 13F804A0 		ldrb	r10, [r3, r4]	@ zero_extendqisi2
 562 001a C1B2     		uxtb	r1, r0
 563 001c 1202     		lsls	r2, r2, #8
 564 001e 5B5C     		ldrb	r3, [r3, r1]	@ zero_extendqisi2
 565 0020 42EA0A4A 		orr	r10, r2, r10, lsl #16
 566 0024 4AEA030A 		orr	r10, r10, r3
ARM GAS  C:\Users\jsyoon\AppData\Local\Temp\cc51thSB.s 			page 11


 567 0028 07F13809 		add	r9, r7, #56
 568 002c 0CF13008 		add	r8, ip, #48
 569              		.loc 1 210 0
 570 0030 0026     		movs	r6, #0
 571              	.LBB24:
 572              		.loc 1 222 0
 573 0032 1425     		movs	r5, #20
 574              		.loc 1 220 0
 575 0034 5324     		movs	r4, #83
 576              	.LVL49:
 577              	.L50:
 578              		.loc 1 214 0
 579 0036 47F8040F 		str	r0, [r7, #4]!
 580              	.LVL50:
 581 003a 08EB0601 		add	r1, r8, r6
 582 003e 0CEB0603 		add	r3, ip, r6
 583              		.loc 1 216 0
 584 0042 5246     		mov	r2, r10
 585              	.LVL51:
 586              	.L48:
 587              		.loc 1 219 0
 588 0044 12F4000F 		tst	r2, #8388608
 589              		.loc 1 220 0
 590 0048 14BF     		ite	ne
 591 004a 1C80     		strhne	r4, [r3]	@ movhi
 592              		.loc 1 222 0
 593 004c 1D80     		strheq	r5, [r3]	@ movhi
 594 004e 0233     		adds	r3, r3, #2
 595              		.loc 1 218 0
 596 0050 8B42     		cmp	r3, r1
 597              		.loc 1 224 0
 598 0052 4FEA4202 		lsl	r2, r2, #1
 599              	.LVL52:
 600              		.loc 1 218 0
 601 0056 F5D1     		bne	.L48
 602              	.LBE24:
 603              		.loc 1 213 0
 604 0058 4F45     		cmp	r7, r9
 605 005a 06F13006 		add	r6, r6, #48
 606 005e EAD1     		bne	.L50
 607              		.loc 1 227 0
 608 0060 BDE8F007 		pop	{r4, r5, r6, r7, r8, r9, r10}
 609 0064 7047     		bx	lr
 610              	.L54:
 611 0066 00BF     		.align	2
 612              	.L53:
 613 0068 00000000 		.word	.LANCHOR1
 614 006c FCFFFFFF 		.word	.LANCHOR0-4
 615 0070 00000000 		.word	.LANCHOR2
 616              		.cfi_endproc
 617              	.LFE122:
 618              		.size	ws2811_set_all, .-ws2811_set_all
 619 0074 AFF30080 		.section	.bss.RGBdata,"aw",%nobits
 619      AFF30080 
 619      AFF30080 
 620              		.align	2
 621              		.set	.LANCHOR0,. + 0
ARM GAS  C:\Users\jsyoon\AppData\Local\Temp\cc51thSB.s 			page 12


 622              		.type	RGBdata, %object
 623              		.size	RGBdata, 60
 624              	RGBdata:
 625 0000 00000000 		.space	60
 625      00000000 
 625      00000000 
 625      00000000 
 625      00000000 
 626              		.section	.bss.bitbuffer,"aw",%nobits
 627              		.align	2
 628              		.set	.LANCHOR2,. + 0
 629              		.type	bitbuffer, %object
 630              		.size	bitbuffer, 820
 631              	bitbuffer:
 632 0000 00000000 		.space	820
 632      00000000 
 632      00000000 
 632      00000000 
 632      00000000 
 633              		.section	.bss.gamma_table,"aw",%nobits
 634              		.align	2
 635              		.set	.LANCHOR1,. + 0
 636              		.type	gamma_table, %object
 637              		.size	gamma_table, 256
 638              	gamma_table:
 639 0000 00000000 		.space	256
 639      00000000 
 639      00000000 
 639      00000000 
 639      00000000 
 640              		.text
 641              	.Letext0:
 642              		.file 2 "c:\\crosstools\\gcc-arm-embedded\\4.8_2014q2\\arm-none-eabi\\include\\machine\\_default_t
 643              		.file 3 "c:\\crosstools\\gcc-arm-embedded\\4.8_2014q2\\arm-none-eabi\\include\\stdint.h"
 644              		.file 4 "ChibiOS_2.6.6/os/hal/platforms/STM32F4xx/stm32f4xx.h"
 645              		.file 5 "ChibiOS_2.6.6/ext/stdperiph_stm32f4/inc/stm32f4xx_dma.h"
 646              		.file 6 "ChibiOS_2.6.6/ext/stdperiph_stm32f4/inc/stm32f4xx_tim.h"
 647              		.file 7 "ChibiOS_2.6.6/os/hal/platforms/STM32/GPIOv2/pal_lld.h"
 648              		.file 8 "c:\\crosstools\\gcc-arm-embedded\\4.8_2014q2\\arm-none-eabi\\include\\math.h"
 649              		.file 9 "ChibiOS_2.6.6/ext/stdperiph_stm32f4/inc/stm32f4xx_rcc.h"
 650              		.file 10 "ChibiOS_2.6.6/os/ports/common/ARMCMx/CMSIS/include/core_cm4.h"
 651              		.section	.debug_info,"",%progbits
 652              	.Ldebug_info0:
 653 0000 760B0000 		.4byte	0xb76
 654 0004 0400     		.2byte	0x4
 655 0006 00000000 		.4byte	.Ldebug_abbrev0
 656 000a 04       		.byte	0x4
 657 000b 01       		.uleb128 0x1
 658 000c CD010000 		.4byte	.LASF126
 659 0010 01       		.byte	0x1
 660 0011 35040000 		.4byte	.LASF127
 661 0015 7C010000 		.4byte	.LASF128
 662 0019 38000000 		.4byte	.Ldebug_ranges0+0x38
 663 001d 00000000 		.4byte	0
 664 0021 00000000 		.4byte	.Ldebug_line0
 665 0025 02       		.uleb128 0x2
 666 0026 04       		.byte	0x4
ARM GAS  C:\Users\jsyoon\AppData\Local\Temp\cc51thSB.s 			page 13


 667 0027 04       		.byte	0x4
 668 0028 02050000 		.4byte	.LASF0
 669 002c 03       		.uleb128 0x3
 670 002d 04       		.byte	0x4
 671 002e 05       		.byte	0x5
 672 002f 696E7400 		.ascii	"int\000"
 673 0033 02       		.uleb128 0x2
 674 0034 04       		.byte	0x4
 675 0035 07       		.byte	0x7
 676 0036 B4030000 		.4byte	.LASF1
 677 003a 02       		.uleb128 0x2
 678 003b 01       		.byte	0x1
 679 003c 06       		.byte	0x6
 680 003d 19010000 		.4byte	.LASF2
 681 0041 04       		.uleb128 0x4
 682 0042 46000000 		.4byte	.LASF5
 683 0046 02       		.byte	0x2
 684 0047 1C       		.byte	0x1c
 685 0048 4C000000 		.4byte	0x4c
 686 004c 02       		.uleb128 0x2
 687 004d 01       		.byte	0x1
 688 004e 08       		.byte	0x8
 689 004f 8B050000 		.4byte	.LASF3
 690 0053 02       		.uleb128 0x2
 691 0054 02       		.byte	0x2
 692 0055 05       		.byte	0x5
 693 0056 AC050000 		.4byte	.LASF4
 694 005a 04       		.uleb128 0x4
 695 005b 44060000 		.4byte	.LASF6
 696 005f 02       		.byte	0x2
 697 0060 26       		.byte	0x26
 698 0061 65000000 		.4byte	0x65
 699 0065 02       		.uleb128 0x2
 700 0066 02       		.byte	0x2
 701 0067 07       		.byte	0x7
 702 0068 22040000 		.4byte	.LASF7
 703 006c 04       		.uleb128 0x4
 704 006d 86060000 		.4byte	.LASF8
 705 0071 02       		.byte	0x2
 706 0072 37       		.byte	0x37
 707 0073 77000000 		.4byte	0x77
 708 0077 02       		.uleb128 0x2
 709 0078 04       		.byte	0x4
 710 0079 05       		.byte	0x5
 711 007a AC010000 		.4byte	.LASF9
 712 007e 04       		.uleb128 0x4
 713 007f 5F030000 		.4byte	.LASF10
 714 0083 02       		.byte	0x2
 715 0084 38       		.byte	0x38
 716 0085 89000000 		.4byte	0x89
 717 0089 02       		.uleb128 0x2
 718 008a 04       		.byte	0x4
 719 008b 07       		.byte	0x7
 720 008c EB030000 		.4byte	.LASF11
 721 0090 02       		.uleb128 0x2
 722 0091 08       		.byte	0x8
 723 0092 05       		.byte	0x5
ARM GAS  C:\Users\jsyoon\AppData\Local\Temp\cc51thSB.s 			page 14


 724 0093 0B010000 		.4byte	.LASF12
 725 0097 02       		.uleb128 0x2
 726 0098 08       		.byte	0x8
 727 0099 07       		.byte	0x7
 728 009a BB000000 		.4byte	.LASF13
 729 009e 02       		.uleb128 0x2
 730 009f 04       		.byte	0x4
 731 00a0 07       		.byte	0x7
 732 00a1 D0030000 		.4byte	.LASF14
 733 00a5 02       		.uleb128 0x2
 734 00a6 01       		.byte	0x1
 735 00a7 08       		.byte	0x8
 736 00a8 32060000 		.4byte	.LASF15
 737 00ac 02       		.uleb128 0x2
 738 00ad 08       		.byte	0x8
 739 00ae 04       		.byte	0x4
 740 00af 2F030000 		.4byte	.LASF16
 741 00b3 02       		.uleb128 0x2
 742 00b4 08       		.byte	0x8
 743 00b5 04       		.byte	0x4
 744 00b6 10060000 		.4byte	.LASF17
 745 00ba 04       		.uleb128 0x4
 746 00bb 21070000 		.4byte	.LASF18
 747 00bf 03       		.byte	0x3
 748 00c0 2A       		.byte	0x2a
 749 00c1 41000000 		.4byte	0x41
 750 00c5 04       		.uleb128 0x4
 751 00c6 1F030000 		.4byte	.LASF19
 752 00ca 03       		.byte	0x3
 753 00cb 36       		.byte	0x36
 754 00cc 5A000000 		.4byte	0x5a
 755 00d0 04       		.uleb128 0x4
 756 00d1 83050000 		.4byte	.LASF20
 757 00d5 03       		.byte	0x3
 758 00d6 41       		.byte	0x41
 759 00d7 6C000000 		.4byte	0x6c
 760 00db 04       		.uleb128 0x4
 761 00dc 07060000 		.4byte	.LASF21
 762 00e0 03       		.byte	0x3
 763 00e1 42       		.byte	0x42
 764 00e2 7E000000 		.4byte	0x7e
 765 00e6 02       		.uleb128 0x2
 766 00e7 01       		.byte	0x1
 767 00e8 02       		.byte	0x2
 768 00e9 7D050000 		.4byte	.LASF22
 769 00ed 05       		.uleb128 0x5
 770 00ee DB000000 		.4byte	0xdb
 771 00f2 05       		.uleb128 0x5
 772 00f3 C5000000 		.4byte	0xc5
 773 00f7 06       		.uleb128 0x6
 774 00f8 DB000000 		.4byte	0xdb
 775 00fc 07010000 		.4byte	0x107
 776 0100 07       		.uleb128 0x7
 777 0101 9E000000 		.4byte	0x9e
 778 0105 0E       		.byte	0xe
 779 0106 00       		.byte	0
 780 0107 05       		.uleb128 0x5
ARM GAS  C:\Users\jsyoon\AppData\Local\Temp\cc51thSB.s 			page 15


 781 0108 D0000000 		.4byte	0xd0
 782 010c 08       		.uleb128 0x8
 783 010d 01       		.byte	0x1
 784 010e 04       		.byte	0x4
 785 010f F901     		.2byte	0x1f9
 786 0111 22010000 		.4byte	0x122
 787 0115 09       		.uleb128 0x9
 788 0116 AD000000 		.4byte	.LASF23
 789 011a 00       		.sleb128 0
 790 011b 09       		.uleb128 0x9
 791 011c C6010000 		.4byte	.LASF24
 792 0120 01       		.sleb128 1
 793 0121 00       		.byte	0
 794 0122 0A       		.uleb128 0xa
 795 0123 D5040000 		.4byte	.LASF25
 796 0127 04       		.byte	0x4
 797 0128 F901     		.2byte	0x1f9
 798 012a 0C010000 		.4byte	0x10c
 799 012e 0B       		.uleb128 0xb
 800 012f 18       		.byte	0x18
 801 0130 04       		.byte	0x4
 802 0131 B102     		.2byte	0x2b1
 803 0133 85010000 		.4byte	0x185
 804 0137 0C       		.uleb128 0xc
 805 0138 435200   		.ascii	"CR\000"
 806 013b 04       		.byte	0x4
 807 013c B302     		.2byte	0x2b3
 808 013e ED000000 		.4byte	0xed
 809 0142 00       		.byte	0
 810 0143 0D       		.uleb128 0xd
 811 0144 90060000 		.4byte	.LASF26
 812 0148 04       		.byte	0x4
 813 0149 B402     		.2byte	0x2b4
 814 014b ED000000 		.4byte	0xed
 815 014f 04       		.byte	0x4
 816 0150 0C       		.uleb128 0xc
 817 0151 50415200 		.ascii	"PAR\000"
 818 0155 04       		.byte	0x4
 819 0156 B502     		.2byte	0x2b5
 820 0158 ED000000 		.4byte	0xed
 821 015c 08       		.byte	0x8
 822 015d 0D       		.uleb128 0xd
 823 015e 1B000000 		.4byte	.LASF27
 824 0162 04       		.byte	0x4
 825 0163 B602     		.2byte	0x2b6
 826 0165 ED000000 		.4byte	0xed
 827 0169 0C       		.byte	0xc
 828 016a 0D       		.uleb128 0xd
 829 016b D4060000 		.4byte	.LASF28
 830 016f 04       		.byte	0x4
 831 0170 B702     		.2byte	0x2b7
 832 0172 ED000000 		.4byte	0xed
 833 0176 10       		.byte	0x10
 834 0177 0C       		.uleb128 0xc
 835 0178 46435200 		.ascii	"FCR\000"
 836 017c 04       		.byte	0x4
 837 017d B802     		.2byte	0x2b8
ARM GAS  C:\Users\jsyoon\AppData\Local\Temp\cc51thSB.s 			page 16


 838 017f ED000000 		.4byte	0xed
 839 0183 14       		.byte	0x14
 840 0184 00       		.byte	0
 841 0185 0A       		.uleb128 0xa
 842 0186 95060000 		.4byte	.LASF29
 843 018a 04       		.byte	0x4
 844 018b B902     		.2byte	0x2b9
 845 018d 2E010000 		.4byte	0x12e
 846 0191 0B       		.uleb128 0xb
 847 0192 54       		.byte	0x54
 848 0193 04       		.byte	0x4
 849 0194 FD04     		.2byte	0x4fd
 850 0196 6D030000 		.4byte	0x36d
 851 019a 0C       		.uleb128 0xc
 852 019b 43523100 		.ascii	"CR1\000"
 853 019f 04       		.byte	0x4
 854 01a0 FF04     		.2byte	0x4ff
 855 01a2 F2000000 		.4byte	0xf2
 856 01a6 00       		.byte	0
 857 01a7 0D       		.uleb128 0xd
 858 01a8 19050000 		.4byte	.LASF30
 859 01ac 04       		.byte	0x4
 860 01ad 0005     		.2byte	0x500
 861 01af C5000000 		.4byte	0xc5
 862 01b3 02       		.byte	0x2
 863 01b4 0C       		.uleb128 0xc
 864 01b5 43523200 		.ascii	"CR2\000"
 865 01b9 04       		.byte	0x4
 866 01ba 0105     		.2byte	0x501
 867 01bc F2000000 		.4byte	0xf2
 868 01c0 04       		.byte	0x4
 869 01c1 0D       		.uleb128 0xd
 870 01c2 23050000 		.4byte	.LASF31
 871 01c6 04       		.byte	0x4
 872 01c7 0205     		.2byte	0x502
 873 01c9 C5000000 		.4byte	0xc5
 874 01cd 06       		.byte	0x6
 875 01ce 0D       		.uleb128 0xd
 876 01cf 37060000 		.4byte	.LASF32
 877 01d3 04       		.byte	0x4
 878 01d4 0305     		.2byte	0x503
 879 01d6 F2000000 		.4byte	0xf2
 880 01da 08       		.byte	0x8
 881 01db 0D       		.uleb128 0xd
 882 01dc 2D050000 		.4byte	.LASF33
 883 01e0 04       		.byte	0x4
 884 01e1 0405     		.2byte	0x504
 885 01e3 C5000000 		.4byte	0xc5
 886 01e7 0A       		.byte	0xa
 887 01e8 0D       		.uleb128 0xd
 888 01e9 16000000 		.4byte	.LASF34
 889 01ed 04       		.byte	0x4
 890 01ee 0505     		.2byte	0x505
 891 01f0 F2000000 		.4byte	0xf2
 892 01f4 0C       		.byte	0xc
 893 01f5 0D       		.uleb128 0xd
 894 01f6 37050000 		.4byte	.LASF35
ARM GAS  C:\Users\jsyoon\AppData\Local\Temp\cc51thSB.s 			page 17


 895 01fa 04       		.byte	0x4
 896 01fb 0605     		.2byte	0x506
 897 01fd C5000000 		.4byte	0xc5
 898 0201 0E       		.byte	0xe
 899 0202 0C       		.uleb128 0xc
 900 0203 535200   		.ascii	"SR\000"
 901 0206 04       		.byte	0x4
 902 0207 0705     		.2byte	0x507
 903 0209 F2000000 		.4byte	0xf2
 904 020d 10       		.byte	0x10
 905 020e 0D       		.uleb128 0xd
 906 020f F3050000 		.4byte	.LASF36
 907 0213 04       		.byte	0x4
 908 0214 0805     		.2byte	0x508
 909 0216 C5000000 		.4byte	0xc5
 910 021a 12       		.byte	0x12
 911 021b 0C       		.uleb128 0xc
 912 021c 45475200 		.ascii	"EGR\000"
 913 0220 04       		.byte	0x4
 914 0221 0905     		.2byte	0x509
 915 0223 F2000000 		.4byte	0xf2
 916 0227 14       		.byte	0x14
 917 0228 0D       		.uleb128 0xd
 918 0229 FD050000 		.4byte	.LASF37
 919 022d 04       		.byte	0x4
 920 022e 0A05     		.2byte	0x50a
 921 0230 C5000000 		.4byte	0xc5
 922 0234 16       		.byte	0x16
 923 0235 0D       		.uleb128 0xd
 924 0236 FF000000 		.4byte	.LASF38
 925 023a 04       		.byte	0x4
 926 023b 0B05     		.2byte	0x50b
 927 023d F2000000 		.4byte	0xf2
 928 0241 18       		.byte	0x18
 929 0242 0D       		.uleb128 0xd
 930 0243 55050000 		.4byte	.LASF39
 931 0247 04       		.byte	0x4
 932 0248 0C05     		.2byte	0x50c
 933 024a C5000000 		.4byte	0xc5
 934 024e 1A       		.byte	0x1a
 935 024f 0D       		.uleb128 0xd
 936 0250 05010000 		.4byte	.LASF40
 937 0254 04       		.byte	0x4
 938 0255 0D05     		.2byte	0x50d
 939 0257 F2000000 		.4byte	0xf2
 940 025b 1C       		.byte	0x1c
 941 025c 0D       		.uleb128 0xd
 942 025d 5F050000 		.4byte	.LASF41
 943 0261 04       		.byte	0x4
 944 0262 0E05     		.2byte	0x50e
 945 0264 C5000000 		.4byte	0xc5
 946 0268 1E       		.byte	0x1e
 947 0269 0D       		.uleb128 0xd
 948 026a FB020000 		.4byte	.LASF42
 949 026e 04       		.byte	0x4
 950 026f 0F05     		.2byte	0x50f
 951 0271 F2000000 		.4byte	0xf2
ARM GAS  C:\Users\jsyoon\AppData\Local\Temp\cc51thSB.s 			page 18


 952 0275 20       		.byte	0x20
 953 0276 0D       		.uleb128 0xd
 954 0277 69050000 		.4byte	.LASF43
 955 027b 04       		.byte	0x4
 956 027c 1005     		.2byte	0x510
 957 027e C5000000 		.4byte	0xc5
 958 0282 22       		.byte	0x22
 959 0283 0C       		.uleb128 0xc
 960 0284 434E5400 		.ascii	"CNT\000"
 961 0288 04       		.byte	0x4
 962 0289 1105     		.2byte	0x511
 963 028b ED000000 		.4byte	0xed
 964 028f 24       		.byte	0x24
 965 0290 0C       		.uleb128 0xc
 966 0291 50534300 		.ascii	"PSC\000"
 967 0295 04       		.byte	0x4
 968 0296 1205     		.2byte	0x512
 969 0298 F2000000 		.4byte	0xf2
 970 029c 28       		.byte	0x28
 971 029d 0D       		.uleb128 0xd
 972 029e 73050000 		.4byte	.LASF44
 973 02a2 04       		.byte	0x4
 974 02a3 1305     		.2byte	0x513
 975 02a5 C5000000 		.4byte	0xc5
 976 02a9 2A       		.byte	0x2a
 977 02aa 0C       		.uleb128 0xc
 978 02ab 41525200 		.ascii	"ARR\000"
 979 02af 04       		.byte	0x4
 980 02b0 1405     		.2byte	0x514
 981 02b2 ED000000 		.4byte	0xed
 982 02b6 2C       		.byte	0x2c
 983 02b7 0C       		.uleb128 0xc
 984 02b8 52435200 		.ascii	"RCR\000"
 985 02bc 04       		.byte	0x4
 986 02bd 1505     		.2byte	0x515
 987 02bf F2000000 		.4byte	0xf2
 988 02c3 30       		.byte	0x30
 989 02c4 0D       		.uleb128 0xd
 990 02c5 3C010000 		.4byte	.LASF45
 991 02c9 04       		.byte	0x4
 992 02ca 1605     		.2byte	0x516
 993 02cc C5000000 		.4byte	0xc5
 994 02d0 32       		.byte	0x32
 995 02d1 0D       		.uleb128 0xd
 996 02d2 E4060000 		.4byte	.LASF46
 997 02d6 04       		.byte	0x4
 998 02d7 1705     		.2byte	0x517
 999 02d9 ED000000 		.4byte	0xed
 1000 02dd 34       		.byte	0x34
 1001 02de 0D       		.uleb128 0xd
 1002 02df E9060000 		.4byte	.LASF47
 1003 02e3 04       		.byte	0x4
 1004 02e4 1805     		.2byte	0x518
 1005 02e6 ED000000 		.4byte	0xed
 1006 02ea 38       		.byte	0x38
 1007 02eb 0D       		.uleb128 0xd
 1008 02ec EE060000 		.4byte	.LASF48
ARM GAS  C:\Users\jsyoon\AppData\Local\Temp\cc51thSB.s 			page 19


 1009 02f0 04       		.byte	0x4
 1010 02f1 1905     		.2byte	0x519
 1011 02f3 ED000000 		.4byte	0xed
 1012 02f7 3C       		.byte	0x3c
 1013 02f8 0D       		.uleb128 0xd
 1014 02f9 F3060000 		.4byte	.LASF49
 1015 02fd 04       		.byte	0x4
 1016 02fe 1A05     		.2byte	0x51a
 1017 0300 ED000000 		.4byte	0xed
 1018 0304 40       		.byte	0x40
 1019 0305 0D       		.uleb128 0xd
 1020 0306 EA000000 		.4byte	.LASF50
 1021 030a 04       		.byte	0x4
 1022 030b 1B05     		.2byte	0x51b
 1023 030d F2000000 		.4byte	0xf2
 1024 0311 44       		.byte	0x44
 1025 0312 0D       		.uleb128 0xd
 1026 0313 47010000 		.4byte	.LASF51
 1027 0317 04       		.byte	0x4
 1028 0318 1C05     		.2byte	0x51c
 1029 031a C5000000 		.4byte	0xc5
 1030 031e 46       		.byte	0x46
 1031 031f 0C       		.uleb128 0xc
 1032 0320 44435200 		.ascii	"DCR\000"
 1033 0324 04       		.byte	0x4
 1034 0325 1D05     		.2byte	0x51d
 1035 0327 F2000000 		.4byte	0xf2
 1036 032b 48       		.byte	0x48
 1037 032c 0D       		.uleb128 0xd
 1038 032d D9060000 		.4byte	.LASF52
 1039 0331 04       		.byte	0x4
 1040 0332 1E05     		.2byte	0x51e
 1041 0334 C5000000 		.4byte	0xc5
 1042 0338 4A       		.byte	0x4a
 1043 0339 0D       		.uleb128 0xd
 1044 033a F8040000 		.4byte	.LASF53
 1045 033e 04       		.byte	0x4
 1046 033f 1F05     		.2byte	0x51f
 1047 0341 F2000000 		.4byte	0xf2
 1048 0345 4C       		.byte	0x4c
 1049 0346 0D       		.uleb128 0xd
 1050 0347 66010000 		.4byte	.LASF54
 1051 034b 04       		.byte	0x4
 1052 034c 2005     		.2byte	0x520
 1053 034e C5000000 		.4byte	0xc5
 1054 0352 4E       		.byte	0x4e
 1055 0353 0C       		.uleb128 0xc
 1056 0354 4F5200   		.ascii	"OR\000"
 1057 0357 04       		.byte	0x4
 1058 0358 2105     		.2byte	0x521
 1059 035a F2000000 		.4byte	0xf2
 1060 035e 50       		.byte	0x50
 1061 035f 0D       		.uleb128 0xd
 1062 0360 71010000 		.4byte	.LASF55
 1063 0364 04       		.byte	0x4
 1064 0365 2205     		.2byte	0x522
 1065 0367 C5000000 		.4byte	0xc5
ARM GAS  C:\Users\jsyoon\AppData\Local\Temp\cc51thSB.s 			page 20


 1066 036b 52       		.byte	0x52
 1067 036c 00       		.byte	0
 1068 036d 0A       		.uleb128 0xa
 1069 036e 86000000 		.4byte	.LASF56
 1070 0372 04       		.byte	0x4
 1071 0373 2305     		.2byte	0x523
 1072 0375 91010000 		.4byte	0x191
 1073 0379 0E       		.uleb128 0xe
 1074 037a 3C       		.byte	0x3c
 1075 037b 05       		.byte	0x5
 1076 037c 36       		.byte	0x36
 1077 037d 36040000 		.4byte	0x436
 1078 0381 0F       		.uleb128 0xf
 1079 0382 B6050000 		.4byte	.LASF57
 1080 0386 05       		.byte	0x5
 1081 0387 38       		.byte	0x38
 1082 0388 DB000000 		.4byte	0xdb
 1083 038c 00       		.byte	0
 1084 038d 0F       		.uleb128 0xf
 1085 038e 6D040000 		.4byte	.LASF58
 1086 0392 05       		.byte	0x5
 1087 0393 3B       		.byte	0x3b
 1088 0394 DB000000 		.4byte	0xdb
 1089 0398 04       		.byte	0x4
 1090 0399 0F       		.uleb128 0xf
 1091 039a 41050000 		.4byte	.LASF59
 1092 039e 05       		.byte	0x5
 1093 039f 3D       		.byte	0x3d
 1094 03a0 DB000000 		.4byte	0xdb
 1095 03a4 08       		.byte	0x8
 1096 03a5 0F       		.uleb128 0xf
 1097 03a6 A7040000 		.4byte	.LASF60
 1098 03aa 05       		.byte	0x5
 1099 03ab 41       		.byte	0x41
 1100 03ac DB000000 		.4byte	0xdb
 1101 03b0 0C       		.byte	0xc
 1102 03b1 0F       		.uleb128 0xf
 1103 03b2 3F070000 		.4byte	.LASF61
 1104 03b6 05       		.byte	0x5
 1105 03b7 45       		.byte	0x45
 1106 03b8 DB000000 		.4byte	0xdb
 1107 03bc 10       		.byte	0x10
 1108 03bd 0F       		.uleb128 0xf
 1109 03be 5D000000 		.4byte	.LASF62
 1110 03c2 05       		.byte	0x5
 1111 03c3 49       		.byte	0x49
 1112 03c4 DB000000 		.4byte	0xdb
 1113 03c8 14       		.byte	0x14
 1114 03c9 0F       		.uleb128 0xf
 1115 03ca 92000000 		.4byte	.LASF63
 1116 03ce 05       		.byte	0x5
 1117 03cf 4C       		.byte	0x4c
 1118 03d0 DB000000 		.4byte	0xdb
 1119 03d4 18       		.byte	0x18
 1120 03d5 0F       		.uleb128 0xf
 1121 03d6 4F060000 		.4byte	.LASF64
 1122 03da 05       		.byte	0x5
ARM GAS  C:\Users\jsyoon\AppData\Local\Temp\cc51thSB.s 			page 21


 1123 03db 4F       		.byte	0x4f
 1124 03dc DB000000 		.4byte	0xdb
 1125 03e0 1C       		.byte	0x1c
 1126 03e1 0F       		.uleb128 0xf
 1127 03e2 E5040000 		.4byte	.LASF65
 1128 03e6 05       		.byte	0x5
 1129 03e7 52       		.byte	0x52
 1130 03e8 DB000000 		.4byte	0xdb
 1131 03ec 20       		.byte	0x20
 1132 03ed 0F       		.uleb128 0xf
 1133 03ee CC040000 		.4byte	.LASF66
 1134 03f2 05       		.byte	0x5
 1135 03f3 55       		.byte	0x55
 1136 03f4 DB000000 		.4byte	0xdb
 1137 03f8 24       		.byte	0x24
 1138 03f9 0F       		.uleb128 0xf
 1139 03fa 50000000 		.4byte	.LASF67
 1140 03fe 05       		.byte	0x5
 1141 03ff 5A       		.byte	0x5a
 1142 0400 DB000000 		.4byte	0xdb
 1143 0404 28       		.byte	0x28
 1144 0405 0F       		.uleb128 0xf
 1145 0406 14070000 		.4byte	.LASF68
 1146 040a 05       		.byte	0x5
 1147 040b 5D       		.byte	0x5d
 1148 040c DB000000 		.4byte	0xdb
 1149 0410 2C       		.byte	0x2c
 1150 0411 0F       		.uleb128 0xf
 1151 0412 53040000 		.4byte	.LASF69
 1152 0416 05       		.byte	0x5
 1153 0417 62       		.byte	0x62
 1154 0418 DB000000 		.4byte	0xdb
 1155 041c 30       		.byte	0x30
 1156 041d 0F       		.uleb128 0xf
 1157 041e EF000000 		.4byte	.LASF70
 1158 0422 05       		.byte	0x5
 1159 0423 65       		.byte	0x65
 1160 0424 DB000000 		.4byte	0xdb
 1161 0428 34       		.byte	0x34
 1162 0429 0F       		.uleb128 0xf
 1163 042a 52010000 		.4byte	.LASF71
 1164 042e 05       		.byte	0x5
 1165 042f 6A       		.byte	0x6a
 1166 0430 DB000000 		.4byte	0xdb
 1167 0434 38       		.byte	0x38
 1168 0435 00       		.byte	0
 1169 0436 04       		.uleb128 0x4
 1170 0437 2F000000 		.4byte	.LASF72
 1171 043b 05       		.byte	0x5
 1172 043c 6E       		.byte	0x6e
 1173 043d 79030000 		.4byte	0x379
 1174 0441 0E       		.uleb128 0xe
 1175 0442 0C       		.byte	0xc
 1176 0443 06       		.byte	0x6
 1177 0444 37       		.byte	0x37
 1178 0445 86040000 		.4byte	0x486
 1179 0449 0F       		.uleb128 0xf
ARM GAS  C:\Users\jsyoon\AppData\Local\Temp\cc51thSB.s 			page 22


 1180 044a 84040000 		.4byte	.LASF73
 1181 044e 06       		.byte	0x6
 1182 044f 39       		.byte	0x39
 1183 0450 C5000000 		.4byte	0xc5
 1184 0454 00       		.byte	0
 1185 0455 0F       		.uleb128 0xf
 1186 0456 90030000 		.4byte	.LASF74
 1187 045a 06       		.byte	0x6
 1188 045b 3C       		.byte	0x3c
 1189 045c C5000000 		.4byte	0xc5
 1190 0460 02       		.byte	0x2
 1191 0461 0F       		.uleb128 0xf
 1192 0462 7B060000 		.4byte	.LASF75
 1193 0466 06       		.byte	0x6
 1194 0467 3F       		.byte	0x3f
 1195 0468 DB000000 		.4byte	0xdb
 1196 046c 04       		.byte	0x4
 1197 046d 0F       		.uleb128 0xf
 1198 046e D9030000 		.4byte	.LASF76
 1199 0472 06       		.byte	0x6
 1200 0473 43       		.byte	0x43
 1201 0474 C5000000 		.4byte	0xc5
 1202 0478 08       		.byte	0x8
 1203 0479 0F       		.uleb128 0xf
 1204 047a 29070000 		.4byte	.LASF77
 1205 047e 06       		.byte	0x6
 1206 047f 46       		.byte	0x46
 1207 0480 BA000000 		.4byte	0xba
 1208 0484 0A       		.byte	0xa
 1209 0485 00       		.byte	0
 1210 0486 04       		.uleb128 0x4
 1211 0487 0A040000 		.4byte	.LASF78
 1212 048b 06       		.byte	0x6
 1213 048c 4E       		.byte	0x4e
 1214 048d 41040000 		.4byte	0x441
 1215 0491 0E       		.uleb128 0xe
 1216 0492 14       		.byte	0x14
 1217 0493 06       		.byte	0x6
 1218 0494 54       		.byte	0x54
 1219 0495 FA040000 		.4byte	0x4fa
 1220 0499 0F       		.uleb128 0xf
 1221 049a C9060000 		.4byte	.LASF79
 1222 049e 06       		.byte	0x6
 1223 049f 56       		.byte	0x56
 1224 04a0 C5000000 		.4byte	0xc5
 1225 04a4 00       		.byte	0
 1226 04a5 0F       		.uleb128 0xf
 1227 04a6 6A030000 		.4byte	.LASF80
 1228 04aa 06       		.byte	0x6
 1229 04ab 59       		.byte	0x59
 1230 04ac C5000000 		.4byte	0xc5
 1231 04b0 02       		.byte	0x2
 1232 04b1 0F       		.uleb128 0xf
 1233 04b2 B5010000 		.4byte	.LASF81
 1234 04b6 06       		.byte	0x6
 1235 04b7 5C       		.byte	0x5c
 1236 04b8 C5000000 		.4byte	0xc5
ARM GAS  C:\Users\jsyoon\AppData\Local\Temp\cc51thSB.s 			page 23


 1237 04bc 04       		.byte	0x4
 1238 04bd 0F       		.uleb128 0xf
 1239 04be 6F000000 		.4byte	.LASF82
 1240 04c2 06       		.byte	0x6
 1241 04c3 60       		.byte	0x60
 1242 04c4 DB000000 		.4byte	0xdb
 1243 04c8 08       		.byte	0x8
 1244 04c9 0F       		.uleb128 0xf
 1245 04ca C1030000 		.4byte	.LASF83
 1246 04ce 06       		.byte	0x6
 1247 04cf 63       		.byte	0x63
 1248 04d0 C5000000 		.4byte	0xc5
 1249 04d4 0C       		.byte	0xc
 1250 04d5 0F       		.uleb128 0xf
 1251 04d6 1C060000 		.4byte	.LASF84
 1252 04da 06       		.byte	0x6
 1253 04db 66       		.byte	0x66
 1254 04dc C5000000 		.4byte	0xc5
 1255 04e0 0E       		.byte	0xe
 1256 04e1 0F       		.uleb128 0xf
 1257 04e2 53070000 		.4byte	.LASF85
 1258 04e6 06       		.byte	0x6
 1259 04e7 6A       		.byte	0x6a
 1260 04e8 C5000000 		.4byte	0xc5
 1261 04ec 10       		.byte	0x10
 1262 04ed 0F       		.uleb128 0xf
 1263 04ee AF040000 		.4byte	.LASF86
 1264 04f2 06       		.byte	0x6
 1265 04f3 6E       		.byte	0x6e
 1266 04f4 C5000000 		.4byte	0xc5
 1267 04f8 12       		.byte	0x12
 1268 04f9 00       		.byte	0
 1269 04fa 04       		.uleb128 0x4
 1270 04fb F8060000 		.4byte	.LASF87
 1271 04ff 06       		.byte	0x6
 1272 0500 71       		.byte	0x71
 1273 0501 91040000 		.4byte	0x491
 1274 0505 10       		.uleb128 0x10
 1275 0506 04       		.byte	0x4
 1276 0507 85010000 		.4byte	0x185
 1277 050b 0E       		.uleb128 0xe
 1278 050c 04       		.byte	0x4
 1279 050d 07       		.byte	0x7
 1280 050e 96       		.byte	0x96
 1281 050f 2C050000 		.4byte	0x52c
 1282 0513 11       		.uleb128 0x11
 1283 0514 73657400 		.ascii	"set\000"
 1284 0518 07       		.byte	0x7
 1285 0519 97       		.byte	0x97
 1286 051a C5000000 		.4byte	0xc5
 1287 051e 00       		.byte	0
 1288 051f 0F       		.uleb128 0xf
 1289 0520 A1040000 		.4byte	.LASF88
 1290 0524 07       		.byte	0x7
 1291 0525 98       		.byte	0x98
 1292 0526 C5000000 		.4byte	0xc5
 1293 052a 02       		.byte	0x2
ARM GAS  C:\Users\jsyoon\AppData\Local\Temp\cc51thSB.s 			page 24


 1294 052b 00       		.byte	0
 1295 052c 12       		.uleb128 0x12
 1296 052d 04       		.byte	0x4
 1297 052e 07       		.byte	0x7
 1298 052f 94       		.byte	0x94
 1299 0530 47050000 		.4byte	0x547
 1300 0534 13       		.uleb128 0x13
 1301 0535 5700     		.ascii	"W\000"
 1302 0537 07       		.byte	0x7
 1303 0538 95       		.byte	0x95
 1304 0539 DB000000 		.4byte	0xdb
 1305 053d 13       		.uleb128 0x13
 1306 053e 4800     		.ascii	"H\000"
 1307 0540 07       		.byte	0x7
 1308 0541 99       		.byte	0x99
 1309 0542 0B050000 		.4byte	0x50b
 1310 0546 00       		.byte	0
 1311 0547 0E       		.uleb128 0xe
 1312 0548 28       		.byte	0x28
 1313 0549 07       		.byte	0x7
 1314 054a 8C       		.byte	0x8c
 1315 054b C8050000 		.4byte	0x5c8
 1316 054f 0F       		.uleb128 0xf
 1317 0550 B5000000 		.4byte	.LASF89
 1318 0554 07       		.byte	0x7
 1319 0555 8E       		.byte	0x8e
 1320 0556 ED000000 		.4byte	0xed
 1321 055a 00       		.byte	0
 1322 055b 0F       		.uleb128 0xf
 1323 055c 3F000000 		.4byte	.LASF90
 1324 0560 07       		.byte	0x7
 1325 0561 8F       		.byte	0x8f
 1326 0562 ED000000 		.4byte	0xed
 1327 0566 04       		.byte	0x4
 1328 0567 0F       		.uleb128 0xf
 1329 0568 57030000 		.4byte	.LASF91
 1330 056c 07       		.byte	0x7
 1331 056d 90       		.byte	0x90
 1332 056e ED000000 		.4byte	0xed
 1333 0572 08       		.byte	0x8
 1334 0573 0F       		.uleb128 0xf
 1335 0574 00000000 		.4byte	.LASF92
 1336 0578 07       		.byte	0x7
 1337 0579 91       		.byte	0x91
 1338 057a ED000000 		.4byte	0xed
 1339 057e 0C       		.byte	0xc
 1340 057f 11       		.uleb128 0x11
 1341 0580 49445200 		.ascii	"IDR\000"
 1342 0584 07       		.byte	0x7
 1343 0585 92       		.byte	0x92
 1344 0586 ED000000 		.4byte	0xed
 1345 058a 10       		.byte	0x10
 1346 058b 11       		.uleb128 0x11
 1347 058c 4F445200 		.ascii	"ODR\000"
 1348 0590 07       		.byte	0x7
 1349 0591 93       		.byte	0x93
 1350 0592 ED000000 		.4byte	0xed
ARM GAS  C:\Users\jsyoon\AppData\Local\Temp\cc51thSB.s 			page 25


 1351 0596 14       		.byte	0x14
 1352 0597 0F       		.uleb128 0xf
 1353 0598 25010000 		.4byte	.LASF93
 1354 059c 07       		.byte	0x7
 1355 059d 9A       		.byte	0x9a
 1356 059e C8050000 		.4byte	0x5c8
 1357 05a2 18       		.byte	0x18
 1358 05a3 0F       		.uleb128 0xf
 1359 05a4 06000000 		.4byte	.LASF94
 1360 05a8 07       		.byte	0x7
 1361 05a9 9B       		.byte	0x9b
 1362 05aa ED000000 		.4byte	0xed
 1363 05ae 1C       		.byte	0x1c
 1364 05af 0F       		.uleb128 0xf
 1365 05b0 14050000 		.4byte	.LASF95
 1366 05b4 07       		.byte	0x7
 1367 05b5 9C       		.byte	0x9c
 1368 05b6 ED000000 		.4byte	0xed
 1369 05ba 20       		.byte	0x20
 1370 05bb 0F       		.uleb128 0xf
 1371 05bc FD040000 		.4byte	.LASF96
 1372 05c0 07       		.byte	0x7
 1373 05c1 9D       		.byte	0x9d
 1374 05c2 ED000000 		.4byte	0xed
 1375 05c6 24       		.byte	0x24
 1376 05c7 00       		.byte	0
 1377 05c8 05       		.uleb128 0x5
 1378 05c9 2C050000 		.4byte	0x52c
 1379 05cd 04       		.uleb128 0x4
 1380 05ce FD030000 		.4byte	.LASF97
 1381 05d2 07       		.byte	0x7
 1382 05d3 9E       		.byte	0x9e
 1383 05d4 47050000 		.4byte	0x547
 1384 05d8 04       		.uleb128 0x4
 1385 05d9 79000000 		.4byte	.LASF98
 1386 05dd 07       		.byte	0x7
 1387 05de F0       		.byte	0xf0
 1388 05df DB000000 		.4byte	0xdb
 1389 05e3 04       		.uleb128 0x4
 1390 05e4 63070000 		.4byte	.LASF99
 1391 05e8 07       		.byte	0x7
 1392 05e9 F5       		.byte	0xf5
 1393 05ea DB000000 		.4byte	0xdb
 1394 05ee 04       		.uleb128 0x4
 1395 05ef A8060000 		.4byte	.LASF100
 1396 05f3 07       		.byte	0x7
 1397 05f4 FD       		.byte	0xfd
 1398 05f5 F9050000 		.4byte	0x5f9
 1399 05f9 10       		.uleb128 0x10
 1400 05fa 04       		.byte	0x4
 1401 05fb CD050000 		.4byte	0x5cd
 1402 05ff 06       		.uleb128 0x6
 1403 0600 BA000000 		.4byte	0xba
 1404 0604 0F060000 		.4byte	0x60f
 1405 0608 07       		.uleb128 0x7
 1406 0609 9E000000 		.4byte	0x9e
 1407 060d FF       		.byte	0xff
ARM GAS  C:\Users\jsyoon\AppData\Local\Temp\cc51thSB.s 			page 26


 1408 060e 00       		.byte	0
 1409 060f 14       		.uleb128 0x14
 1410 0610 A0000000 		.4byte	.LASF129
 1411 0614 01       		.byte	0x1
 1412 0615 E5       		.byte	0xe5
 1413 0616 DB000000 		.4byte	0xdb
 1414 061a 01       		.byte	0x1
 1415 061b 46060000 		.4byte	0x646
 1416 061f 15       		.uleb128 0x15
 1417 0620 2C060000 		.4byte	.LASF107
 1418 0624 01       		.byte	0x1
 1419 0625 E5       		.byte	0xe5
 1420 0626 DB000000 		.4byte	0xdb
 1421 062a 16       		.uleb128 0x16
 1422 062b 7200     		.ascii	"r\000"
 1423 062d 01       		.byte	0x1
 1424 062e E6       		.byte	0xe6
 1425 062f DB000000 		.4byte	0xdb
 1426 0633 16       		.uleb128 0x16
 1427 0634 6700     		.ascii	"g\000"
 1428 0636 01       		.byte	0x1
 1429 0637 E7       		.byte	0xe7
 1430 0638 DB000000 		.4byte	0xdb
 1431 063c 16       		.uleb128 0x16
 1432 063d 6200     		.ascii	"b\000"
 1433 063f 01       		.byte	0x1
 1434 0640 E8       		.byte	0xe8
 1435 0641 DB000000 		.4byte	0xdb
 1436 0645 00       		.byte	0
 1437 0646 17       		.uleb128 0x17
 1438 0647 4B030000 		.4byte	.LASF105
 1439 064b 01       		.byte	0x1
 1440 064c 2F       		.byte	0x2f
 1441 064d 00000000 		.4byte	.LFB118
 1442 0651 C8010000 		.4byte	.LFE118-.LFB118
 1443 0655 01       		.uleb128 0x1
 1444 0656 9C       		.byte	0x9c
 1445 0657 A2080000 		.4byte	0x8a2
 1446 065b 18       		.uleb128 0x18
 1447 065c 7A030000 		.4byte	.LASF101
 1448 0660 01       		.byte	0x1
 1449 0661 30       		.byte	0x30
 1450 0662 86040000 		.4byte	0x486
 1451 0666 03       		.uleb128 0x3
 1452 0667 91       		.byte	0x91
 1453 0668 F47E     		.sleb128 -140
 1454 066a 18       		.uleb128 0x18
 1455 066b A0030000 		.4byte	.LASF102
 1456 066f 01       		.byte	0x1
 1457 0670 31       		.byte	0x31
 1458 0671 FA040000 		.4byte	0x4fa
 1459 0675 03       		.uleb128 0x3
 1460 0676 91       		.byte	0x91
 1461 0677 807F     		.sleb128 -128
 1462 0679 18       		.uleb128 0x18
 1463 067a 2A010000 		.4byte	.LASF103
 1464 067e 01       		.byte	0x1
ARM GAS  C:\Users\jsyoon\AppData\Local\Temp\cc51thSB.s 			page 27


 1465 067f 32       		.byte	0x32
 1466 0680 36040000 		.4byte	0x436
 1467 0684 03       		.uleb128 0x3
 1468 0685 91       		.byte	0x91
 1469 0686 947F     		.sleb128 -108
 1470 0688 19       		.uleb128 0x19
 1471 0689 6900     		.ascii	"i\000"
 1472 068b 01       		.byte	0x1
 1473 068c 35       		.byte	0x35
 1474 068d 2C000000 		.4byte	0x2c
 1475 0691 00000000 		.4byte	.LLST0
 1476 0695 19       		.uleb128 0x19
 1477 0696 62697400 		.ascii	"bit\000"
 1478 069a 01       		.byte	0x1
 1479 069b 35       		.byte	0x35
 1480 069c 2C000000 		.4byte	0x2c
 1481 06a0 14000000 		.4byte	.LLST1
 1482 06a4 1A       		.uleb128 0x1a
 1483 06a5 2C000000 		.4byte	.LBB12
 1484 06a9 3E000000 		.4byte	.LBE12-.LBB12
 1485 06ad FF060000 		.4byte	0x6ff
 1486 06b1 1B       		.uleb128 0x1b
 1487 06b2 0A070000 		.4byte	.LASF104
 1488 06b6 01       		.byte	0x1
 1489 06b7 3C       		.byte	0x3c
 1490 06b8 DB000000 		.4byte	0xdb
 1491 06bc 28000000 		.4byte	.LLST2
 1492 06c0 1C       		.uleb128 0x1c
 1493 06c1 0F060000 		.4byte	0x60f
 1494 06c5 36000000 		.4byte	.LBB13
 1495 06c9 20000000 		.4byte	.LBE13-.LBB13
 1496 06cd 01       		.byte	0x1
 1497 06ce 3C       		.byte	0x3c
 1498 06cf 1D       		.uleb128 0x1d
 1499 06d0 1F060000 		.4byte	0x61f
 1500 06d4 3B000000 		.4byte	.LLST3
 1501 06d8 1E       		.uleb128 0x1e
 1502 06d9 36000000 		.4byte	.LBB14
 1503 06dd 20000000 		.4byte	.LBE14-.LBB14
 1504 06e1 1F       		.uleb128 0x1f
 1505 06e2 2A060000 		.4byte	0x62a
 1506 06e6 5A000000 		.4byte	.LLST4
 1507 06ea 1F       		.uleb128 0x1f
 1508 06eb 33060000 		.4byte	0x633
 1509 06ef A0000000 		.4byte	.LLST5
 1510 06f3 1F       		.uleb128 0x1f
 1511 06f4 3C060000 		.4byte	0x63c
 1512 06f8 E6000000 		.4byte	.LLST6
 1513 06fc 00       		.byte	0
 1514 06fd 00       		.byte	0
 1515 06fe 00       		.byte	0
 1516 06ff 20       		.uleb128 0x20
 1517 0700 00000000 		.4byte	.Ldebug_ranges0+0
 1518 0704 48070000 		.4byte	0x748
 1519 0708 19       		.uleb128 0x19
 1520 0709 6900     		.ascii	"i\000"
 1521 070b 01       		.byte	0x1
ARM GAS  C:\Users\jsyoon\AppData\Local\Temp\cc51thSB.s 			page 28


 1522 070c 4F       		.byte	0x4f
 1523 070d 2C000000 		.4byte	0x2c
 1524 0711 39010000 		.4byte	.LLST7
 1525 0715 21       		.uleb128 0x21
 1526 0716 9C000000 		.4byte	.LVL14
 1527 071a 1B0A0000 		.4byte	0xa1b
 1528 071e 3E070000 		.4byte	0x73e
 1529 0722 22       		.uleb128 0x22
 1530 0723 02       		.uleb128 0x2
 1531 0724 90       		.byte	0x90
 1532 0725 41       		.uleb128 0x41
 1533 0726 07       		.uleb128 0x7
 1534 0727 F4       		.byte	0xf4
 1535 0728 25       		.uleb128 0x25
 1536 0729 04       		.byte	0x4
 1537 072a E4380E40 		.4byte	0x400e38e4
 1538 072e 22       		.uleb128 0x22
 1539 072f 02       		.uleb128 0x2
 1540 0730 90       		.byte	0x90
 1541 0731 40       		.uleb128 0x40
 1542 0732 0A       		.uleb128 0xa
 1543 0733 74       		.byte	0x74
 1544 0734 00       		.sleb128 0
 1545 0735 F7       		.byte	0xf7
 1546 0736 2C       		.uleb128 0x2c
 1547 0737 F7       		.byte	0xf7
 1548 0738 25       		.uleb128 0x25
 1549 0739 F5       		.byte	0xf5
 1550 073a 50       		.uleb128 0x50
 1551 073b 25       		.uleb128 0x25
 1552 073c 1B       		.byte	0x1b
 1553 073d 00       		.byte	0
 1554 073e 23       		.uleb128 0x23
 1555 073f A4000000 		.4byte	.LVL15
 1556 0743 360A0000 		.4byte	0xa36
 1557 0747 00       		.byte	0
 1558 0748 21       		.uleb128 0x21
 1559 0749 C6000000 		.4byte	.LVL17
 1560 074d 4C0A0000 		.4byte	0xa4c
 1561 0751 6C070000 		.4byte	0x76c
 1562 0755 22       		.uleb128 0x22
 1563 0756 01       		.uleb128 0x1
 1564 0757 52       		.byte	0x52
 1565 0758 03       		.uleb128 0x3
 1566 0759 0A       		.byte	0xa
 1567 075a 0E01     		.2byte	0x10e
 1568 075c 22       		.uleb128 0x22
 1569 075d 01       		.uleb128 0x1
 1570 075e 51       		.byte	0x51
 1571 075f 02       		.uleb128 0x2
 1572 0760 08       		.byte	0x8
 1573 0761 80       		.byte	0x80
 1574 0762 22       		.uleb128 0x22
 1575 0763 01       		.uleb128 0x1
 1576 0764 50       		.byte	0x50
 1577 0765 05       		.uleb128 0x5
 1578 0766 0C       		.byte	0xc
ARM GAS  C:\Users\jsyoon\AppData\Local\Temp\cc51thSB.s 			page 29


 1579 0767 00040240 		.4byte	0x40020400
 1580 076b 00       		.byte	0
 1581 076c 21       		.uleb128 0x21
 1582 076d D0000000 		.4byte	.LVL18
 1583 0771 680A0000 		.4byte	0xa68
 1584 0775 86070000 		.4byte	0x786
 1585 0779 22       		.uleb128 0x22
 1586 077a 01       		.uleb128 0x1
 1587 077b 51       		.byte	0x51
 1588 077c 01       		.uleb128 0x1
 1589 077d 31       		.byte	0x31
 1590 077e 22       		.uleb128 0x22
 1591 077f 01       		.uleb128 0x1
 1592 0780 50       		.byte	0x50
 1593 0781 03       		.uleb128 0x3
 1594 0782 40       		.byte	0x40
 1595 0783 41       		.byte	0x41
 1596 0784 24       		.byte	0x24
 1597 0785 00       		.byte	0
 1598 0786 21       		.uleb128 0x21
 1599 0787 D6000000 		.4byte	.LVL19
 1600 078b 7F0A0000 		.4byte	0xa7f
 1601 078f 9D070000 		.4byte	0x79d
 1602 0793 22       		.uleb128 0x22
 1603 0794 01       		.uleb128 0x1
 1604 0795 50       		.byte	0x50
 1605 0796 05       		.uleb128 0x5
 1606 0797 0C       		.byte	0xc
 1607 0798 58600240 		.4byte	0x40026058
 1608 079c 00       		.byte	0
 1609 079d 21       		.uleb128 0x21
 1610 079e 28010000 		.4byte	.LVL20
 1611 07a2 910A0000 		.4byte	0xa91
 1612 07a6 BB070000 		.4byte	0x7bb
 1613 07aa 22       		.uleb128 0x22
 1614 07ab 01       		.uleb128 0x1
 1615 07ac 51       		.byte	0x51
 1616 07ad 03       		.uleb128 0x3
 1617 07ae 91       		.byte	0x91
 1618 07af 947F     		.sleb128 -108
 1619 07b1 22       		.uleb128 0x22
 1620 07b2 01       		.uleb128 0x1
 1621 07b3 50       		.byte	0x50
 1622 07b4 05       		.uleb128 0x5
 1623 07b5 0C       		.byte	0xc
 1624 07b6 58600240 		.4byte	0x40026058
 1625 07ba 00       		.byte	0
 1626 07bb 21       		.uleb128 0x21
 1627 07bc 30010000 		.4byte	.LVL21
 1628 07c0 AE0A0000 		.4byte	0xaae
 1629 07c4 D3070000 		.4byte	0x7d3
 1630 07c8 22       		.uleb128 0x22
 1631 07c9 01       		.uleb128 0x1
 1632 07ca 51       		.byte	0x51
 1633 07cb 01       		.uleb128 0x1
 1634 07cc 31       		.byte	0x31
 1635 07cd 22       		.uleb128 0x22
ARM GAS  C:\Users\jsyoon\AppData\Local\Temp\cc51thSB.s 			page 30


 1636 07ce 01       		.uleb128 0x1
 1637 07cf 50       		.byte	0x50
 1638 07d0 01       		.uleb128 0x1
 1639 07d1 34       		.byte	0x34
 1640 07d2 00       		.byte	0
 1641 07d3 21       		.uleb128 0x21
 1642 07d4 4E010000 		.4byte	.LVL23
 1643 07d8 C50A0000 		.4byte	0xac5
 1644 07dc F1070000 		.4byte	0x7f1
 1645 07e0 22       		.uleb128 0x22
 1646 07e1 01       		.uleb128 0x1
 1647 07e2 51       		.byte	0x51
 1648 07e3 03       		.uleb128 0x3
 1649 07e4 91       		.byte	0x91
 1650 07e5 F47E     		.sleb128 -140
 1651 07e7 22       		.uleb128 0x22
 1652 07e8 01       		.uleb128 0x1
 1653 07e9 50       		.byte	0x50
 1654 07ea 05       		.uleb128 0x5
 1655 07eb 0C       		.byte	0xc
 1656 07ec 00080040 		.4byte	0x40000800
 1657 07f0 00       		.byte	0
 1658 07f1 21       		.uleb128 0x21
 1659 07f2 68010000 		.4byte	.LVL24
 1660 07f6 E80A0000 		.4byte	0xae8
 1661 07fa 0F080000 		.4byte	0x80f
 1662 07fe 22       		.uleb128 0x22
 1663 07ff 01       		.uleb128 0x1
 1664 0800 51       		.byte	0x51
 1665 0801 03       		.uleb128 0x3
 1666 0802 91       		.byte	0x91
 1667 0803 807F     		.sleb128 -128
 1668 0805 22       		.uleb128 0x22
 1669 0806 01       		.uleb128 0x1
 1670 0807 50       		.byte	0x50
 1671 0808 05       		.uleb128 0x5
 1672 0809 0C       		.byte	0xc
 1673 080a 00080040 		.4byte	0x40000800
 1674 080e 00       		.byte	0
 1675 080f 21       		.uleb128 0x21
 1676 0810 70010000 		.4byte	.LVL25
 1677 0814 050B0000 		.4byte	0xb05
 1678 0818 2B080000 		.4byte	0x82b
 1679 081c 22       		.uleb128 0x22
 1680 081d 01       		.uleb128 0x1
 1681 081e 51       		.byte	0x51
 1682 081f 01       		.uleb128 0x1
 1683 0820 38       		.byte	0x38
 1684 0821 22       		.uleb128 0x22
 1685 0822 01       		.uleb128 0x1
 1686 0823 50       		.byte	0x50
 1687 0824 05       		.uleb128 0x5
 1688 0825 0C       		.byte	0xc
 1689 0826 00080040 		.4byte	0x40000800
 1690 082a 00       		.byte	0
 1691 082b 21       		.uleb128 0x21
 1692 082c 78010000 		.4byte	.LVL26
ARM GAS  C:\Users\jsyoon\AppData\Local\Temp\cc51thSB.s 			page 31


 1693 0830 1C0B0000 		.4byte	0xb1c
 1694 0834 48080000 		.4byte	0x848
 1695 0838 22       		.uleb128 0x22
 1696 0839 01       		.uleb128 0x1
 1697 083a 51       		.byte	0x51
 1698 083b 02       		.uleb128 0x2
 1699 083c 74       		.byte	0x74
 1700 083d 00       		.sleb128 0
 1701 083e 22       		.uleb128 0x22
 1702 083f 01       		.uleb128 0x1
 1703 0840 50       		.byte	0x50
 1704 0841 05       		.uleb128 0x5
 1705 0842 0C       		.byte	0xc
 1706 0843 00080040 		.4byte	0x40000800
 1707 0847 00       		.byte	0
 1708 0848 21       		.uleb128 0x21
 1709 0849 80010000 		.4byte	.LVL27
 1710 084d 330B0000 		.4byte	0xb33
 1711 0851 65080000 		.4byte	0x865
 1712 0855 22       		.uleb128 0x22
 1713 0856 01       		.uleb128 0x1
 1714 0857 51       		.byte	0x51
 1715 0858 02       		.uleb128 0x2
 1716 0859 74       		.byte	0x74
 1717 085a 00       		.sleb128 0
 1718 085b 22       		.uleb128 0x22
 1719 085c 01       		.uleb128 0x1
 1720 085d 50       		.byte	0x50
 1721 085e 05       		.uleb128 0x5
 1722 085f 0C       		.byte	0xc
 1723 0860 58600240 		.4byte	0x40026058
 1724 0864 00       		.byte	0
 1725 0865 21       		.uleb128 0x21
 1726 0866 8A010000 		.4byte	.LVL28
 1727 086a 4A0B0000 		.4byte	0xb4a
 1728 086e 88080000 		.4byte	0x888
 1729 0872 22       		.uleb128 0x22
 1730 0873 01       		.uleb128 0x1
 1731 0874 52       		.byte	0x52
 1732 0875 02       		.uleb128 0x2
 1733 0876 74       		.byte	0x74
 1734 0877 00       		.sleb128 0
 1735 0878 22       		.uleb128 0x22
 1736 0879 01       		.uleb128 0x1
 1737 087a 51       		.byte	0x51
 1738 087b 02       		.uleb128 0x2
 1739 087c 77       		.byte	0x77
 1740 087d 00       		.sleb128 0
 1741 087e 22       		.uleb128 0x22
 1742 087f 01       		.uleb128 0x1
 1743 0880 50       		.byte	0x50
 1744 0881 05       		.uleb128 0x5
 1745 0882 0C       		.byte	0xc
 1746 0883 00080040 		.4byte	0x40000800
 1747 0887 00       		.byte	0
 1748 0888 24       		.uleb128 0x24
 1749 0889 92010000 		.4byte	.LVL29
ARM GAS  C:\Users\jsyoon\AppData\Local\Temp\cc51thSB.s 			page 32


 1750 088d 660B0000 		.4byte	0xb66
 1751 0891 22       		.uleb128 0x22
 1752 0892 01       		.uleb128 0x1
 1753 0893 51       		.byte	0x51
 1754 0894 02       		.uleb128 0x2
 1755 0895 74       		.byte	0x74
 1756 0896 00       		.sleb128 0
 1757 0897 22       		.uleb128 0x22
 1758 0898 01       		.uleb128 0x1
 1759 0899 50       		.byte	0x50
 1760 089a 05       		.uleb128 0x5
 1761 089b 0C       		.byte	0xc
 1762 089c 00080040 		.4byte	0x40000800
 1763 08a0 00       		.byte	0
 1764 08a1 00       		.byte	0
 1765 08a2 17       		.uleb128 0x17
 1766 08a3 3E040000 		.4byte	.LASF106
 1767 08a7 01       		.byte	0x1
 1768 08a8 AC       		.byte	0xac
 1769 08a9 00000000 		.4byte	.LFB119
 1770 08ad 68000000 		.4byte	.LFE119-.LFB119
 1771 08b1 01       		.uleb128 0x1
 1772 08b2 9C       		.byte	0x9c
 1773 08b3 29090000 		.4byte	0x929
 1774 08b7 25       		.uleb128 0x25
 1775 08b8 6C656400 		.ascii	"led\000"
 1776 08bc 01       		.byte	0x1
 1777 08bd AC       		.byte	0xac
 1778 08be 2C000000 		.4byte	0x2c
 1779 08c2 4C010000 		.4byte	.LLST8
 1780 08c6 26       		.uleb128 0x26
 1781 08c7 2C060000 		.4byte	.LASF107
 1782 08cb 01       		.byte	0x1
 1783 08cc AC       		.byte	0xac
 1784 08cd DB000000 		.4byte	0xdb
 1785 08d1 6D010000 		.4byte	.LLST9
 1786 08d5 1E       		.uleb128 0x1e
 1787 08d6 06000000 		.4byte	.LBB17
 1788 08da 52000000 		.4byte	.LBE17-.LBB17
 1789 08de 19       		.uleb128 0x19
 1790 08df 62697400 		.ascii	"bit\000"
 1791 08e3 01       		.byte	0x1
 1792 08e4 B2       		.byte	0xb2
 1793 08e5 2C000000 		.4byte	0x2c
 1794 08e9 AE010000 		.4byte	.LLST10
 1795 08ed 27       		.uleb128 0x27
 1796 08ee 0F060000 		.4byte	0x60f
 1797 08f2 06000000 		.4byte	.LBB18
 1798 08f6 18000000 		.4byte	.Ldebug_ranges0+0x18
 1799 08fa 01       		.byte	0x1
 1800 08fb B0       		.byte	0xb0
 1801 08fc 1D       		.uleb128 0x1d
 1802 08fd 1F060000 		.4byte	0x61f
 1803 0901 C2010000 		.4byte	.LLST11
 1804 0905 28       		.uleb128 0x28
 1805 0906 18000000 		.4byte	.Ldebug_ranges0+0x18
 1806 090a 1F       		.uleb128 0x1f
ARM GAS  C:\Users\jsyoon\AppData\Local\Temp\cc51thSB.s 			page 33


 1807 090b 2A060000 		.4byte	0x62a
 1808 090f 0D020000 		.4byte	.LLST12
 1809 0913 1F       		.uleb128 0x1f
 1810 0914 33060000 		.4byte	0x633
 1811 0918 94020000 		.4byte	.LLST13
 1812 091c 1F       		.uleb128 0x1f
 1813 091d 3C060000 		.4byte	0x63c
 1814 0921 F9020000 		.4byte	.LLST14
 1815 0925 00       		.byte	0
 1816 0926 00       		.byte	0
 1817 0927 00       		.byte	0
 1818 0928 00       		.byte	0
 1819 0929 29       		.uleb128 0x29
 1820 092a 36030000 		.4byte	.LASF130
 1821 092e 01       		.byte	0x1
 1822 092f BE       		.byte	0xbe
 1823 0930 DB000000 		.4byte	0xdb
 1824 0934 00000000 		.4byte	.LFB120
 1825 0938 14000000 		.4byte	.LFE120-.LFB120
 1826 093c 01       		.uleb128 0x1
 1827 093d 9C       		.byte	0x9c
 1828 093e 52090000 		.4byte	0x952
 1829 0942 25       		.uleb128 0x25
 1830 0943 6C656400 		.ascii	"led\000"
 1831 0947 01       		.byte	0x1
 1832 0948 BE       		.byte	0xbe
 1833 0949 2C000000 		.4byte	0x2c
 1834 094d 74030000 		.4byte	.LLST15
 1835 0951 00       		.byte	0
 1836 0952 17       		.uleb128 0x17
 1837 0953 20000000 		.4byte	.LASF108
 1838 0957 01       		.byte	0x1
 1839 0958 C6       		.byte	0xc6
 1840 0959 00000000 		.4byte	.LFB121
 1841 095d 2C000000 		.4byte	.LFE121-.LFB121
 1842 0961 01       		.uleb128 0x1
 1843 0962 9C       		.byte	0x9c
 1844 0963 75090000 		.4byte	0x975
 1845 0967 19       		.uleb128 0x19
 1846 0968 6900     		.ascii	"i\000"
 1847 096a 01       		.byte	0x1
 1848 096b C7       		.byte	0xc7
 1849 096c 2C000000 		.4byte	0x2c
 1850 0970 95030000 		.4byte	.LLST16
 1851 0974 00       		.byte	0
 1852 0975 17       		.uleb128 0x17
 1853 0976 92040000 		.4byte	.LASF109
 1854 097a 01       		.byte	0x1
 1855 097b D2       		.byte	0xd2
 1856 097c 00000000 		.4byte	.LFB122
 1857 0980 74000000 		.4byte	.LFE122-.LFB122
 1858 0984 01       		.uleb128 0x1
 1859 0985 9C       		.byte	0x9c
 1860 0986 CB090000 		.4byte	0x9cb
 1861 098a 2A       		.uleb128 0x2a
 1862 098b 2C060000 		.4byte	.LASF107
 1863 098f 01       		.byte	0x1
ARM GAS  C:\Users\jsyoon\AppData\Local\Temp\cc51thSB.s 			page 34


 1864 0990 D2       		.byte	0xd2
 1865 0991 DB000000 		.4byte	0xdb
 1866 0995 01       		.uleb128 0x1
 1867 0996 50       		.byte	0x50
 1868 0997 19       		.uleb128 0x19
 1869 0998 6900     		.ascii	"i\000"
 1870 099a 01       		.byte	0x1
 1871 099b D3       		.byte	0xd3
 1872 099c 2C000000 		.4byte	0x2c
 1873 09a0 A9030000 		.4byte	.LLST17
 1874 09a4 19       		.uleb128 0x19
 1875 09a5 62697400 		.ascii	"bit\000"
 1876 09a9 01       		.byte	0x1
 1877 09aa D3       		.byte	0xd3
 1878 09ab 2C000000 		.4byte	0x2c
 1879 09af BD030000 		.4byte	.LLST18
 1880 09b3 1E       		.uleb128 0x1e
 1881 09b4 32000000 		.4byte	.LBB24
 1882 09b8 26000000 		.4byte	.LBE24-.LBB24
 1883 09bc 18       		.uleb128 0x18
 1884 09bd 0A070000 		.4byte	.LASF104
 1885 09c1 01       		.byte	0x1
 1886 09c2 D8       		.byte	0xd8
 1887 09c3 DB000000 		.4byte	0xdb
 1888 09c7 01       		.uleb128 0x1
 1889 09c8 52       		.byte	0x52
 1890 09c9 00       		.byte	0
 1891 09ca 00       		.byte	0
 1892 09cb 06       		.uleb128 0x6
 1893 09cc C5000000 		.4byte	0xc5
 1894 09d0 DC090000 		.4byte	0x9dc
 1895 09d4 2B       		.uleb128 0x2b
 1896 09d5 9E000000 		.4byte	0x9e
 1897 09d9 9901     		.2byte	0x199
 1898 09db 00       		.byte	0
 1899 09dc 18       		.uleb128 0x18
 1900 09dd F1020000 		.4byte	.LASF110
 1901 09e1 01       		.byte	0x1
 1902 09e2 28       		.byte	0x28
 1903 09e3 CB090000 		.4byte	0x9cb
 1904 09e7 05       		.uleb128 0x5
 1905 09e8 03       		.byte	0x3
 1906 09e9 00000000 		.4byte	bitbuffer
 1907 09ed 18       		.uleb128 0x18
 1908 09ee 17030000 		.4byte	.LASF111
 1909 09f2 01       		.byte	0x1
 1910 09f3 29       		.byte	0x29
 1911 09f4 F7000000 		.4byte	0xf7
 1912 09f8 05       		.uleb128 0x5
 1913 09f9 03       		.byte	0x3
 1914 09fa 00000000 		.4byte	RGBdata
 1915 09fe 18       		.uleb128 0x18
 1916 09ff 08050000 		.4byte	.LASF112
 1917 0a03 01       		.byte	0x1
 1918 0a04 2A       		.byte	0x2a
 1919 0a05 FF050000 		.4byte	0x5ff
 1920 0a09 05       		.uleb128 0x5
ARM GAS  C:\Users\jsyoon\AppData\Local\Temp\cc51thSB.s 			page 35


 1921 0a0a 03       		.byte	0x3
 1922 0a0b 00000000 		.4byte	gamma_table
 1923 0a0f 2C       		.uleb128 0x2c
 1924 0a10 DD000000 		.4byte	.LASF131
 1925 0a14 0A       		.byte	0xa
 1926 0a15 9806     		.2byte	0x698
 1927 0a17 07010000 		.4byte	0x107
 1928 0a1b 2D       		.uleb128 0x2d
 1929 0a1c 4E070000 		.4byte	.LASF113
 1930 0a20 08       		.byte	0x8
 1931 0a21 4E01     		.2byte	0x14e
 1932 0a23 25000000 		.4byte	0x25
 1933 0a27 360A0000 		.4byte	0xa36
 1934 0a2b 2E       		.uleb128 0x2e
 1935 0a2c 25000000 		.4byte	0x25
 1936 0a30 2E       		.uleb128 0x2e
 1937 0a31 25000000 		.4byte	0x25
 1938 0a35 00       		.byte	0
 1939 0a36 2D       		.uleb128 0x2d
 1940 0a37 28030000 		.4byte	.LASF114
 1941 0a3b 08       		.byte	0x8
 1942 0a3c 5B01     		.2byte	0x15b
 1943 0a3e 25000000 		.4byte	0x25
 1944 0a42 4C0A0000 		.4byte	0xa4c
 1945 0a46 2E       		.uleb128 0x2e
 1946 0a47 25000000 		.4byte	0x25
 1947 0a4b 00       		.byte	0
 1948 0a4c 2F       		.uleb128 0x2f
 1949 0a4d B3060000 		.4byte	.LASF115
 1950 0a51 07       		.byte	0x7
 1951 0a52 C201     		.2byte	0x1c2
 1952 0a54 680A0000 		.4byte	0xa68
 1953 0a58 2E       		.uleb128 0x2e
 1954 0a59 EE050000 		.4byte	0x5ee
 1955 0a5d 2E       		.uleb128 0x2e
 1956 0a5e D8050000 		.4byte	0x5d8
 1957 0a62 2E       		.uleb128 0x2e
 1958 0a63 E3050000 		.4byte	0x5e3
 1959 0a67 00       		.byte	0
 1960 0a68 2F       		.uleb128 0x2f
 1961 0a69 CB050000 		.4byte	.LASF116
 1962 0a6d 09       		.byte	0x9
 1963 0a6e DD01     		.2byte	0x1dd
 1964 0a70 7F0A0000 		.4byte	0xa7f
 1965 0a74 2E       		.uleb128 0x2e
 1966 0a75 DB000000 		.4byte	0xdb
 1967 0a79 2E       		.uleb128 0x2e
 1968 0a7a 22010000 		.4byte	0x122
 1969 0a7e 00       		.byte	0
 1970 0a7f 2F       		.uleb128 0x2f
 1971 0a80 D2000000 		.4byte	.LASF117
 1972 0a84 05       		.byte	0x5
 1973 0a85 3202     		.2byte	0x232
 1974 0a87 910A0000 		.4byte	0xa91
 1975 0a8b 2E       		.uleb128 0x2e
 1976 0a8c 05050000 		.4byte	0x505
 1977 0a90 00       		.byte	0
ARM GAS  C:\Users\jsyoon\AppData\Local\Temp\cc51thSB.s 			page 36


 1978 0a91 2F       		.uleb128 0x2f
 1979 0a92 C2050000 		.4byte	.LASF118
 1980 0a96 05       		.byte	0x5
 1981 0a97 3502     		.2byte	0x235
 1982 0a99 A80A0000 		.4byte	0xaa8
 1983 0a9d 2E       		.uleb128 0x2e
 1984 0a9e 05050000 		.4byte	0x505
 1985 0aa2 2E       		.uleb128 0x2e
 1986 0aa3 A80A0000 		.4byte	0xaa8
 1987 0aa7 00       		.byte	0
 1988 0aa8 10       		.uleb128 0x10
 1989 0aa9 04       		.byte	0x4
 1990 0aaa 36040000 		.4byte	0x436
 1991 0aae 2F       		.uleb128 0x2f
 1992 0aaf 00030000 		.4byte	.LASF119
 1993 0ab3 09       		.byte	0x9
 1994 0ab4 E001     		.2byte	0x1e0
 1995 0ab6 C50A0000 		.4byte	0xac5
 1996 0aba 2E       		.uleb128 0x2e
 1997 0abb DB000000 		.4byte	0xdb
 1998 0abf 2E       		.uleb128 0x2e
 1999 0ac0 22010000 		.4byte	0x122
 2000 0ac4 00       		.byte	0
 2001 0ac5 2F       		.uleb128 0x2f
 2002 0ac6 E2050000 		.4byte	.LASF120
 2003 0aca 06       		.byte	0x6
 2004 0acb 0304     		.2byte	0x403
 2005 0acd DC0A0000 		.4byte	0xadc
 2006 0ad1 2E       		.uleb128 0x2e
 2007 0ad2 DC0A0000 		.4byte	0xadc
 2008 0ad6 2E       		.uleb128 0x2e
 2009 0ad7 E20A0000 		.4byte	0xae2
 2010 0adb 00       		.byte	0
 2011 0adc 10       		.uleb128 0x10
 2012 0add 04       		.byte	0x4
 2013 0ade 6D030000 		.4byte	0x36d
 2014 0ae2 10       		.uleb128 0x10
 2015 0ae3 04       		.byte	0x4
 2016 0ae4 86040000 		.4byte	0x486
 2017 0ae8 2F       		.uleb128 0x2f
 2018 0ae9 C0040000 		.4byte	.LASF121
 2019 0aed 06       		.byte	0x6
 2020 0aee 1404     		.2byte	0x414
 2021 0af0 FF0A0000 		.4byte	0xaff
 2022 0af4 2E       		.uleb128 0x2e
 2023 0af5 DC0A0000 		.4byte	0xadc
 2024 0af9 2E       		.uleb128 0x2e
 2025 0afa FF0A0000 		.4byte	0xaff
 2026 0afe 00       		.byte	0
 2027 0aff 10       		.uleb128 0x10
 2028 0b00 04       		.byte	0x4
 2029 0b01 FA040000 		.4byte	0x4fa
 2030 0b05 2F       		.uleb128 0x2f
 2031 0b06 66060000 		.4byte	.LASF122
 2032 0b0a 06       		.byte	0x6
 2033 0b0b 2204     		.2byte	0x422
 2034 0b0d 1C0B0000 		.4byte	0xb1c
ARM GAS  C:\Users\jsyoon\AppData\Local\Temp\cc51thSB.s 			page 37


 2035 0b11 2E       		.uleb128 0x2e
 2036 0b12 DC0A0000 		.4byte	0xadc
 2037 0b16 2E       		.uleb128 0x2e
 2038 0b17 C5000000 		.4byte	0xc5
 2039 0b1b 00       		.byte	0
 2040 0b1c 2F       		.uleb128 0x2f
 2041 0b1d 3C060000 		.4byte	.LASF123
 2042 0b21 06       		.byte	0x6
 2043 0b22 1004     		.2byte	0x410
 2044 0b24 330B0000 		.4byte	0xb33
 2045 0b28 2E       		.uleb128 0x2e
 2046 0b29 DC0A0000 		.4byte	0xadc
 2047 0b2d 2E       		.uleb128 0x2e
 2048 0b2e 22010000 		.4byte	0x122
 2049 0b32 00       		.byte	0
 2050 0b33 2F       		.uleb128 0x2f
 2051 0b34 65040000 		.4byte	.LASF124
 2052 0b38 05       		.byte	0x5
 2053 0b39 3702     		.2byte	0x237
 2054 0b3b 4A0B0000 		.4byte	0xb4a
 2055 0b3f 2E       		.uleb128 0x2e
 2056 0b40 05050000 		.4byte	0x505
 2057 0b44 2E       		.uleb128 0x2e
 2058 0b45 22010000 		.4byte	0x122
 2059 0b49 00       		.byte	0
 2060 0b4a 2F       		.uleb128 0x2f
 2061 0b4b 0B000000 		.4byte	.LASF125
 2062 0b4f 06       		.byte	0x6
 2063 0b50 5304     		.2byte	0x453
 2064 0b52 660B0000 		.4byte	0xb66
 2065 0b56 2E       		.uleb128 0x2e
 2066 0b57 DC0A0000 		.4byte	0xadc
 2067 0b5b 2E       		.uleb128 0x2e
 2068 0b5c C5000000 		.4byte	0xc5
 2069 0b60 2E       		.uleb128 0x2e
 2070 0b61 22010000 		.4byte	0x122
 2071 0b65 00       		.byte	0
 2072 0b66 30       		.uleb128 0x30
 2073 0b67 99050000 		.4byte	.LASF132
 2074 0b6b 06       		.byte	0x6
 2075 0b6c 4704     		.2byte	0x447
 2076 0b6e 2E       		.uleb128 0x2e
 2077 0b6f DC0A0000 		.4byte	0xadc
 2078 0b73 2E       		.uleb128 0x2e
 2079 0b74 22010000 		.4byte	0x122
 2080 0b78 00       		.byte	0
 2081 0b79 00       		.byte	0
 2082              		.section	.debug_abbrev,"",%progbits
 2083              	.Ldebug_abbrev0:
 2084 0000 01       		.uleb128 0x1
 2085 0001 11       		.uleb128 0x11
 2086 0002 01       		.byte	0x1
 2087 0003 25       		.uleb128 0x25
 2088 0004 0E       		.uleb128 0xe
 2089 0005 13       		.uleb128 0x13
 2090 0006 0B       		.uleb128 0xb
 2091 0007 03       		.uleb128 0x3
ARM GAS  C:\Users\jsyoon\AppData\Local\Temp\cc51thSB.s 			page 38


 2092 0008 0E       		.uleb128 0xe
 2093 0009 1B       		.uleb128 0x1b
 2094 000a 0E       		.uleb128 0xe
 2095 000b 55       		.uleb128 0x55
 2096 000c 17       		.uleb128 0x17
 2097 000d 11       		.uleb128 0x11
 2098 000e 01       		.uleb128 0x1
 2099 000f 10       		.uleb128 0x10
 2100 0010 17       		.uleb128 0x17
 2101 0011 00       		.byte	0
 2102 0012 00       		.byte	0
 2103 0013 02       		.uleb128 0x2
 2104 0014 24       		.uleb128 0x24
 2105 0015 00       		.byte	0
 2106 0016 0B       		.uleb128 0xb
 2107 0017 0B       		.uleb128 0xb
 2108 0018 3E       		.uleb128 0x3e
 2109 0019 0B       		.uleb128 0xb
 2110 001a 03       		.uleb128 0x3
 2111 001b 0E       		.uleb128 0xe
 2112 001c 00       		.byte	0
 2113 001d 00       		.byte	0
 2114 001e 03       		.uleb128 0x3
 2115 001f 24       		.uleb128 0x24
 2116 0020 00       		.byte	0
 2117 0021 0B       		.uleb128 0xb
 2118 0022 0B       		.uleb128 0xb
 2119 0023 3E       		.uleb128 0x3e
 2120 0024 0B       		.uleb128 0xb
 2121 0025 03       		.uleb128 0x3
 2122 0026 08       		.uleb128 0x8
 2123 0027 00       		.byte	0
 2124 0028 00       		.byte	0
 2125 0029 04       		.uleb128 0x4
 2126 002a 16       		.uleb128 0x16
 2127 002b 00       		.byte	0
 2128 002c 03       		.uleb128 0x3
 2129 002d 0E       		.uleb128 0xe
 2130 002e 3A       		.uleb128 0x3a
 2131 002f 0B       		.uleb128 0xb
 2132 0030 3B       		.uleb128 0x3b
 2133 0031 0B       		.uleb128 0xb
 2134 0032 49       		.uleb128 0x49
 2135 0033 13       		.uleb128 0x13
 2136 0034 00       		.byte	0
 2137 0035 00       		.byte	0
 2138 0036 05       		.uleb128 0x5
 2139 0037 35       		.uleb128 0x35
 2140 0038 00       		.byte	0
 2141 0039 49       		.uleb128 0x49
 2142 003a 13       		.uleb128 0x13
 2143 003b 00       		.byte	0
 2144 003c 00       		.byte	0
 2145 003d 06       		.uleb128 0x6
 2146 003e 01       		.uleb128 0x1
 2147 003f 01       		.byte	0x1
 2148 0040 49       		.uleb128 0x49
ARM GAS  C:\Users\jsyoon\AppData\Local\Temp\cc51thSB.s 			page 39


 2149 0041 13       		.uleb128 0x13
 2150 0042 01       		.uleb128 0x1
 2151 0043 13       		.uleb128 0x13
 2152 0044 00       		.byte	0
 2153 0045 00       		.byte	0
 2154 0046 07       		.uleb128 0x7
 2155 0047 21       		.uleb128 0x21
 2156 0048 00       		.byte	0
 2157 0049 49       		.uleb128 0x49
 2158 004a 13       		.uleb128 0x13
 2159 004b 2F       		.uleb128 0x2f
 2160 004c 0B       		.uleb128 0xb
 2161 004d 00       		.byte	0
 2162 004e 00       		.byte	0
 2163 004f 08       		.uleb128 0x8
 2164 0050 04       		.uleb128 0x4
 2165 0051 01       		.byte	0x1
 2166 0052 0B       		.uleb128 0xb
 2167 0053 0B       		.uleb128 0xb
 2168 0054 3A       		.uleb128 0x3a
 2169 0055 0B       		.uleb128 0xb
 2170 0056 3B       		.uleb128 0x3b
 2171 0057 05       		.uleb128 0x5
 2172 0058 01       		.uleb128 0x1
 2173 0059 13       		.uleb128 0x13
 2174 005a 00       		.byte	0
 2175 005b 00       		.byte	0
 2176 005c 09       		.uleb128 0x9
 2177 005d 28       		.uleb128 0x28
 2178 005e 00       		.byte	0
 2179 005f 03       		.uleb128 0x3
 2180 0060 0E       		.uleb128 0xe
 2181 0061 1C       		.uleb128 0x1c
 2182 0062 0D       		.uleb128 0xd
 2183 0063 00       		.byte	0
 2184 0064 00       		.byte	0
 2185 0065 0A       		.uleb128 0xa
 2186 0066 16       		.uleb128 0x16
 2187 0067 00       		.byte	0
 2188 0068 03       		.uleb128 0x3
 2189 0069 0E       		.uleb128 0xe
 2190 006a 3A       		.uleb128 0x3a
 2191 006b 0B       		.uleb128 0xb
 2192 006c 3B       		.uleb128 0x3b
 2193 006d 05       		.uleb128 0x5
 2194 006e 49       		.uleb128 0x49
 2195 006f 13       		.uleb128 0x13
 2196 0070 00       		.byte	0
 2197 0071 00       		.byte	0
 2198 0072 0B       		.uleb128 0xb
 2199 0073 13       		.uleb128 0x13
 2200 0074 01       		.byte	0x1
 2201 0075 0B       		.uleb128 0xb
 2202 0076 0B       		.uleb128 0xb
 2203 0077 3A       		.uleb128 0x3a
 2204 0078 0B       		.uleb128 0xb
 2205 0079 3B       		.uleb128 0x3b
ARM GAS  C:\Users\jsyoon\AppData\Local\Temp\cc51thSB.s 			page 40


 2206 007a 05       		.uleb128 0x5
 2207 007b 01       		.uleb128 0x1
 2208 007c 13       		.uleb128 0x13
 2209 007d 00       		.byte	0
 2210 007e 00       		.byte	0
 2211 007f 0C       		.uleb128 0xc
 2212 0080 0D       		.uleb128 0xd
 2213 0081 00       		.byte	0
 2214 0082 03       		.uleb128 0x3
 2215 0083 08       		.uleb128 0x8
 2216 0084 3A       		.uleb128 0x3a
 2217 0085 0B       		.uleb128 0xb
 2218 0086 3B       		.uleb128 0x3b
 2219 0087 05       		.uleb128 0x5
 2220 0088 49       		.uleb128 0x49
 2221 0089 13       		.uleb128 0x13
 2222 008a 38       		.uleb128 0x38
 2223 008b 0B       		.uleb128 0xb
 2224 008c 00       		.byte	0
 2225 008d 00       		.byte	0
 2226 008e 0D       		.uleb128 0xd
 2227 008f 0D       		.uleb128 0xd
 2228 0090 00       		.byte	0
 2229 0091 03       		.uleb128 0x3
 2230 0092 0E       		.uleb128 0xe
 2231 0093 3A       		.uleb128 0x3a
 2232 0094 0B       		.uleb128 0xb
 2233 0095 3B       		.uleb128 0x3b
 2234 0096 05       		.uleb128 0x5
 2235 0097 49       		.uleb128 0x49
 2236 0098 13       		.uleb128 0x13
 2237 0099 38       		.uleb128 0x38
 2238 009a 0B       		.uleb128 0xb
 2239 009b 00       		.byte	0
 2240 009c 00       		.byte	0
 2241 009d 0E       		.uleb128 0xe
 2242 009e 13       		.uleb128 0x13
 2243 009f 01       		.byte	0x1
 2244 00a0 0B       		.uleb128 0xb
 2245 00a1 0B       		.uleb128 0xb
 2246 00a2 3A       		.uleb128 0x3a
 2247 00a3 0B       		.uleb128 0xb
 2248 00a4 3B       		.uleb128 0x3b
 2249 00a5 0B       		.uleb128 0xb
 2250 00a6 01       		.uleb128 0x1
 2251 00a7 13       		.uleb128 0x13
 2252 00a8 00       		.byte	0
 2253 00a9 00       		.byte	0
 2254 00aa 0F       		.uleb128 0xf
 2255 00ab 0D       		.uleb128 0xd
 2256 00ac 00       		.byte	0
 2257 00ad 03       		.uleb128 0x3
 2258 00ae 0E       		.uleb128 0xe
 2259 00af 3A       		.uleb128 0x3a
 2260 00b0 0B       		.uleb128 0xb
 2261 00b1 3B       		.uleb128 0x3b
 2262 00b2 0B       		.uleb128 0xb
ARM GAS  C:\Users\jsyoon\AppData\Local\Temp\cc51thSB.s 			page 41


 2263 00b3 49       		.uleb128 0x49
 2264 00b4 13       		.uleb128 0x13
 2265 00b5 38       		.uleb128 0x38
 2266 00b6 0B       		.uleb128 0xb
 2267 00b7 00       		.byte	0
 2268 00b8 00       		.byte	0
 2269 00b9 10       		.uleb128 0x10
 2270 00ba 0F       		.uleb128 0xf
 2271 00bb 00       		.byte	0
 2272 00bc 0B       		.uleb128 0xb
 2273 00bd 0B       		.uleb128 0xb
 2274 00be 49       		.uleb128 0x49
 2275 00bf 13       		.uleb128 0x13
 2276 00c0 00       		.byte	0
 2277 00c1 00       		.byte	0
 2278 00c2 11       		.uleb128 0x11
 2279 00c3 0D       		.uleb128 0xd
 2280 00c4 00       		.byte	0
 2281 00c5 03       		.uleb128 0x3
 2282 00c6 08       		.uleb128 0x8
 2283 00c7 3A       		.uleb128 0x3a
 2284 00c8 0B       		.uleb128 0xb
 2285 00c9 3B       		.uleb128 0x3b
 2286 00ca 0B       		.uleb128 0xb
 2287 00cb 49       		.uleb128 0x49
 2288 00cc 13       		.uleb128 0x13
 2289 00cd 38       		.uleb128 0x38
 2290 00ce 0B       		.uleb128 0xb
 2291 00cf 00       		.byte	0
 2292 00d0 00       		.byte	0
 2293 00d1 12       		.uleb128 0x12
 2294 00d2 17       		.uleb128 0x17
 2295 00d3 01       		.byte	0x1
 2296 00d4 0B       		.uleb128 0xb
 2297 00d5 0B       		.uleb128 0xb
 2298 00d6 3A       		.uleb128 0x3a
 2299 00d7 0B       		.uleb128 0xb
 2300 00d8 3B       		.uleb128 0x3b
 2301 00d9 0B       		.uleb128 0xb
 2302 00da 01       		.uleb128 0x1
 2303 00db 13       		.uleb128 0x13
 2304 00dc 00       		.byte	0
 2305 00dd 00       		.byte	0
 2306 00de 13       		.uleb128 0x13
 2307 00df 0D       		.uleb128 0xd
 2308 00e0 00       		.byte	0
 2309 00e1 03       		.uleb128 0x3
 2310 00e2 08       		.uleb128 0x8
 2311 00e3 3A       		.uleb128 0x3a
 2312 00e4 0B       		.uleb128 0xb
 2313 00e5 3B       		.uleb128 0x3b
 2314 00e6 0B       		.uleb128 0xb
 2315 00e7 49       		.uleb128 0x49
 2316 00e8 13       		.uleb128 0x13
 2317 00e9 00       		.byte	0
 2318 00ea 00       		.byte	0
 2319 00eb 14       		.uleb128 0x14
ARM GAS  C:\Users\jsyoon\AppData\Local\Temp\cc51thSB.s 			page 42


 2320 00ec 2E       		.uleb128 0x2e
 2321 00ed 01       		.byte	0x1
 2322 00ee 03       		.uleb128 0x3
 2323 00ef 0E       		.uleb128 0xe
 2324 00f0 3A       		.uleb128 0x3a
 2325 00f1 0B       		.uleb128 0xb
 2326 00f2 3B       		.uleb128 0x3b
 2327 00f3 0B       		.uleb128 0xb
 2328 00f4 27       		.uleb128 0x27
 2329 00f5 19       		.uleb128 0x19
 2330 00f6 49       		.uleb128 0x49
 2331 00f7 13       		.uleb128 0x13
 2332 00f8 20       		.uleb128 0x20
 2333 00f9 0B       		.uleb128 0xb
 2334 00fa 01       		.uleb128 0x1
 2335 00fb 13       		.uleb128 0x13
 2336 00fc 00       		.byte	0
 2337 00fd 00       		.byte	0
 2338 00fe 15       		.uleb128 0x15
 2339 00ff 05       		.uleb128 0x5
 2340 0100 00       		.byte	0
 2341 0101 03       		.uleb128 0x3
 2342 0102 0E       		.uleb128 0xe
 2343 0103 3A       		.uleb128 0x3a
 2344 0104 0B       		.uleb128 0xb
 2345 0105 3B       		.uleb128 0x3b
 2346 0106 0B       		.uleb128 0xb
 2347 0107 49       		.uleb128 0x49
 2348 0108 13       		.uleb128 0x13
 2349 0109 00       		.byte	0
 2350 010a 00       		.byte	0
 2351 010b 16       		.uleb128 0x16
 2352 010c 34       		.uleb128 0x34
 2353 010d 00       		.byte	0
 2354 010e 03       		.uleb128 0x3
 2355 010f 08       		.uleb128 0x8
 2356 0110 3A       		.uleb128 0x3a
 2357 0111 0B       		.uleb128 0xb
 2358 0112 3B       		.uleb128 0x3b
 2359 0113 0B       		.uleb128 0xb
 2360 0114 49       		.uleb128 0x49
 2361 0115 13       		.uleb128 0x13
 2362 0116 00       		.byte	0
 2363 0117 00       		.byte	0
 2364 0118 17       		.uleb128 0x17
 2365 0119 2E       		.uleb128 0x2e
 2366 011a 01       		.byte	0x1
 2367 011b 3F       		.uleb128 0x3f
 2368 011c 19       		.uleb128 0x19
 2369 011d 03       		.uleb128 0x3
 2370 011e 0E       		.uleb128 0xe
 2371 011f 3A       		.uleb128 0x3a
 2372 0120 0B       		.uleb128 0xb
 2373 0121 3B       		.uleb128 0x3b
 2374 0122 0B       		.uleb128 0xb
 2375 0123 27       		.uleb128 0x27
 2376 0124 19       		.uleb128 0x19
ARM GAS  C:\Users\jsyoon\AppData\Local\Temp\cc51thSB.s 			page 43


 2377 0125 11       		.uleb128 0x11
 2378 0126 01       		.uleb128 0x1
 2379 0127 12       		.uleb128 0x12
 2380 0128 06       		.uleb128 0x6
 2381 0129 40       		.uleb128 0x40
 2382 012a 18       		.uleb128 0x18
 2383 012b 9742     		.uleb128 0x2117
 2384 012d 19       		.uleb128 0x19
 2385 012e 01       		.uleb128 0x1
 2386 012f 13       		.uleb128 0x13
 2387 0130 00       		.byte	0
 2388 0131 00       		.byte	0
 2389 0132 18       		.uleb128 0x18
 2390 0133 34       		.uleb128 0x34
 2391 0134 00       		.byte	0
 2392 0135 03       		.uleb128 0x3
 2393 0136 0E       		.uleb128 0xe
 2394 0137 3A       		.uleb128 0x3a
 2395 0138 0B       		.uleb128 0xb
 2396 0139 3B       		.uleb128 0x3b
 2397 013a 0B       		.uleb128 0xb
 2398 013b 49       		.uleb128 0x49
 2399 013c 13       		.uleb128 0x13
 2400 013d 02       		.uleb128 0x2
 2401 013e 18       		.uleb128 0x18
 2402 013f 00       		.byte	0
 2403 0140 00       		.byte	0
 2404 0141 19       		.uleb128 0x19
 2405 0142 34       		.uleb128 0x34
 2406 0143 00       		.byte	0
 2407 0144 03       		.uleb128 0x3
 2408 0145 08       		.uleb128 0x8
 2409 0146 3A       		.uleb128 0x3a
 2410 0147 0B       		.uleb128 0xb
 2411 0148 3B       		.uleb128 0x3b
 2412 0149 0B       		.uleb128 0xb
 2413 014a 49       		.uleb128 0x49
 2414 014b 13       		.uleb128 0x13
 2415 014c 02       		.uleb128 0x2
 2416 014d 17       		.uleb128 0x17
 2417 014e 00       		.byte	0
 2418 014f 00       		.byte	0
 2419 0150 1A       		.uleb128 0x1a
 2420 0151 0B       		.uleb128 0xb
 2421 0152 01       		.byte	0x1
 2422 0153 11       		.uleb128 0x11
 2423 0154 01       		.uleb128 0x1
 2424 0155 12       		.uleb128 0x12
 2425 0156 06       		.uleb128 0x6
 2426 0157 01       		.uleb128 0x1
 2427 0158 13       		.uleb128 0x13
 2428 0159 00       		.byte	0
 2429 015a 00       		.byte	0
 2430 015b 1B       		.uleb128 0x1b
 2431 015c 34       		.uleb128 0x34
 2432 015d 00       		.byte	0
 2433 015e 03       		.uleb128 0x3
ARM GAS  C:\Users\jsyoon\AppData\Local\Temp\cc51thSB.s 			page 44


 2434 015f 0E       		.uleb128 0xe
 2435 0160 3A       		.uleb128 0x3a
 2436 0161 0B       		.uleb128 0xb
 2437 0162 3B       		.uleb128 0x3b
 2438 0163 0B       		.uleb128 0xb
 2439 0164 49       		.uleb128 0x49
 2440 0165 13       		.uleb128 0x13
 2441 0166 02       		.uleb128 0x2
 2442 0167 17       		.uleb128 0x17
 2443 0168 00       		.byte	0
 2444 0169 00       		.byte	0
 2445 016a 1C       		.uleb128 0x1c
 2446 016b 1D       		.uleb128 0x1d
 2447 016c 01       		.byte	0x1
 2448 016d 31       		.uleb128 0x31
 2449 016e 13       		.uleb128 0x13
 2450 016f 11       		.uleb128 0x11
 2451 0170 01       		.uleb128 0x1
 2452 0171 12       		.uleb128 0x12
 2453 0172 06       		.uleb128 0x6
 2454 0173 58       		.uleb128 0x58
 2455 0174 0B       		.uleb128 0xb
 2456 0175 59       		.uleb128 0x59
 2457 0176 0B       		.uleb128 0xb
 2458 0177 00       		.byte	0
 2459 0178 00       		.byte	0
 2460 0179 1D       		.uleb128 0x1d
 2461 017a 05       		.uleb128 0x5
 2462 017b 00       		.byte	0
 2463 017c 31       		.uleb128 0x31
 2464 017d 13       		.uleb128 0x13
 2465 017e 02       		.uleb128 0x2
 2466 017f 17       		.uleb128 0x17
 2467 0180 00       		.byte	0
 2468 0181 00       		.byte	0
 2469 0182 1E       		.uleb128 0x1e
 2470 0183 0B       		.uleb128 0xb
 2471 0184 01       		.byte	0x1
 2472 0185 11       		.uleb128 0x11
 2473 0186 01       		.uleb128 0x1
 2474 0187 12       		.uleb128 0x12
 2475 0188 06       		.uleb128 0x6
 2476 0189 00       		.byte	0
 2477 018a 00       		.byte	0
 2478 018b 1F       		.uleb128 0x1f
 2479 018c 34       		.uleb128 0x34
 2480 018d 00       		.byte	0
 2481 018e 31       		.uleb128 0x31
 2482 018f 13       		.uleb128 0x13
 2483 0190 02       		.uleb128 0x2
 2484 0191 17       		.uleb128 0x17
 2485 0192 00       		.byte	0
 2486 0193 00       		.byte	0
 2487 0194 20       		.uleb128 0x20
 2488 0195 0B       		.uleb128 0xb
 2489 0196 01       		.byte	0x1
 2490 0197 55       		.uleb128 0x55
ARM GAS  C:\Users\jsyoon\AppData\Local\Temp\cc51thSB.s 			page 45


 2491 0198 17       		.uleb128 0x17
 2492 0199 01       		.uleb128 0x1
 2493 019a 13       		.uleb128 0x13
 2494 019b 00       		.byte	0
 2495 019c 00       		.byte	0
 2496 019d 21       		.uleb128 0x21
 2497 019e 898201   		.uleb128 0x4109
 2498 01a1 01       		.byte	0x1
 2499 01a2 11       		.uleb128 0x11
 2500 01a3 01       		.uleb128 0x1
 2501 01a4 31       		.uleb128 0x31
 2502 01a5 13       		.uleb128 0x13
 2503 01a6 01       		.uleb128 0x1
 2504 01a7 13       		.uleb128 0x13
 2505 01a8 00       		.byte	0
 2506 01a9 00       		.byte	0
 2507 01aa 22       		.uleb128 0x22
 2508 01ab 8A8201   		.uleb128 0x410a
 2509 01ae 00       		.byte	0
 2510 01af 02       		.uleb128 0x2
 2511 01b0 18       		.uleb128 0x18
 2512 01b1 9142     		.uleb128 0x2111
 2513 01b3 18       		.uleb128 0x18
 2514 01b4 00       		.byte	0
 2515 01b5 00       		.byte	0
 2516 01b6 23       		.uleb128 0x23
 2517 01b7 898201   		.uleb128 0x4109
 2518 01ba 00       		.byte	0
 2519 01bb 11       		.uleb128 0x11
 2520 01bc 01       		.uleb128 0x1
 2521 01bd 31       		.uleb128 0x31
 2522 01be 13       		.uleb128 0x13
 2523 01bf 00       		.byte	0
 2524 01c0 00       		.byte	0
 2525 01c1 24       		.uleb128 0x24
 2526 01c2 898201   		.uleb128 0x4109
 2527 01c5 01       		.byte	0x1
 2528 01c6 11       		.uleb128 0x11
 2529 01c7 01       		.uleb128 0x1
 2530 01c8 31       		.uleb128 0x31
 2531 01c9 13       		.uleb128 0x13
 2532 01ca 00       		.byte	0
 2533 01cb 00       		.byte	0
 2534 01cc 25       		.uleb128 0x25
 2535 01cd 05       		.uleb128 0x5
 2536 01ce 00       		.byte	0
 2537 01cf 03       		.uleb128 0x3
 2538 01d0 08       		.uleb128 0x8
 2539 01d1 3A       		.uleb128 0x3a
 2540 01d2 0B       		.uleb128 0xb
 2541 01d3 3B       		.uleb128 0x3b
 2542 01d4 0B       		.uleb128 0xb
 2543 01d5 49       		.uleb128 0x49
 2544 01d6 13       		.uleb128 0x13
 2545 01d7 02       		.uleb128 0x2
 2546 01d8 17       		.uleb128 0x17
 2547 01d9 00       		.byte	0
ARM GAS  C:\Users\jsyoon\AppData\Local\Temp\cc51thSB.s 			page 46


 2548 01da 00       		.byte	0
 2549 01db 26       		.uleb128 0x26
 2550 01dc 05       		.uleb128 0x5
 2551 01dd 00       		.byte	0
 2552 01de 03       		.uleb128 0x3
 2553 01df 0E       		.uleb128 0xe
 2554 01e0 3A       		.uleb128 0x3a
 2555 01e1 0B       		.uleb128 0xb
 2556 01e2 3B       		.uleb128 0x3b
 2557 01e3 0B       		.uleb128 0xb
 2558 01e4 49       		.uleb128 0x49
 2559 01e5 13       		.uleb128 0x13
 2560 01e6 02       		.uleb128 0x2
 2561 01e7 17       		.uleb128 0x17
 2562 01e8 00       		.byte	0
 2563 01e9 00       		.byte	0
 2564 01ea 27       		.uleb128 0x27
 2565 01eb 1D       		.uleb128 0x1d
 2566 01ec 01       		.byte	0x1
 2567 01ed 31       		.uleb128 0x31
 2568 01ee 13       		.uleb128 0x13
 2569 01ef 52       		.uleb128 0x52
 2570 01f0 01       		.uleb128 0x1
 2571 01f1 55       		.uleb128 0x55
 2572 01f2 17       		.uleb128 0x17
 2573 01f3 58       		.uleb128 0x58
 2574 01f4 0B       		.uleb128 0xb
 2575 01f5 59       		.uleb128 0x59
 2576 01f6 0B       		.uleb128 0xb
 2577 01f7 00       		.byte	0
 2578 01f8 00       		.byte	0
 2579 01f9 28       		.uleb128 0x28
 2580 01fa 0B       		.uleb128 0xb
 2581 01fb 01       		.byte	0x1
 2582 01fc 55       		.uleb128 0x55
 2583 01fd 17       		.uleb128 0x17
 2584 01fe 00       		.byte	0
 2585 01ff 00       		.byte	0
 2586 0200 29       		.uleb128 0x29
 2587 0201 2E       		.uleb128 0x2e
 2588 0202 01       		.byte	0x1
 2589 0203 3F       		.uleb128 0x3f
 2590 0204 19       		.uleb128 0x19
 2591 0205 03       		.uleb128 0x3
 2592 0206 0E       		.uleb128 0xe
 2593 0207 3A       		.uleb128 0x3a
 2594 0208 0B       		.uleb128 0xb
 2595 0209 3B       		.uleb128 0x3b
 2596 020a 0B       		.uleb128 0xb
 2597 020b 27       		.uleb128 0x27
 2598 020c 19       		.uleb128 0x19
 2599 020d 49       		.uleb128 0x49
 2600 020e 13       		.uleb128 0x13
 2601 020f 11       		.uleb128 0x11
 2602 0210 01       		.uleb128 0x1
 2603 0211 12       		.uleb128 0x12
 2604 0212 06       		.uleb128 0x6
ARM GAS  C:\Users\jsyoon\AppData\Local\Temp\cc51thSB.s 			page 47


 2605 0213 40       		.uleb128 0x40
 2606 0214 18       		.uleb128 0x18
 2607 0215 9742     		.uleb128 0x2117
 2608 0217 19       		.uleb128 0x19
 2609 0218 01       		.uleb128 0x1
 2610 0219 13       		.uleb128 0x13
 2611 021a 00       		.byte	0
 2612 021b 00       		.byte	0
 2613 021c 2A       		.uleb128 0x2a
 2614 021d 05       		.uleb128 0x5
 2615 021e 00       		.byte	0
 2616 021f 03       		.uleb128 0x3
 2617 0220 0E       		.uleb128 0xe
 2618 0221 3A       		.uleb128 0x3a
 2619 0222 0B       		.uleb128 0xb
 2620 0223 3B       		.uleb128 0x3b
 2621 0224 0B       		.uleb128 0xb
 2622 0225 49       		.uleb128 0x49
 2623 0226 13       		.uleb128 0x13
 2624 0227 02       		.uleb128 0x2
 2625 0228 18       		.uleb128 0x18
 2626 0229 00       		.byte	0
 2627 022a 00       		.byte	0
 2628 022b 2B       		.uleb128 0x2b
 2629 022c 21       		.uleb128 0x21
 2630 022d 00       		.byte	0
 2631 022e 49       		.uleb128 0x49
 2632 022f 13       		.uleb128 0x13
 2633 0230 2F       		.uleb128 0x2f
 2634 0231 05       		.uleb128 0x5
 2635 0232 00       		.byte	0
 2636 0233 00       		.byte	0
 2637 0234 2C       		.uleb128 0x2c
 2638 0235 34       		.uleb128 0x34
 2639 0236 00       		.byte	0
 2640 0237 03       		.uleb128 0x3
 2641 0238 0E       		.uleb128 0xe
 2642 0239 3A       		.uleb128 0x3a
 2643 023a 0B       		.uleb128 0xb
 2644 023b 3B       		.uleb128 0x3b
 2645 023c 05       		.uleb128 0x5
 2646 023d 49       		.uleb128 0x49
 2647 023e 13       		.uleb128 0x13
 2648 023f 3F       		.uleb128 0x3f
 2649 0240 19       		.uleb128 0x19
 2650 0241 3C       		.uleb128 0x3c
 2651 0242 19       		.uleb128 0x19
 2652 0243 00       		.byte	0
 2653 0244 00       		.byte	0
 2654 0245 2D       		.uleb128 0x2d
 2655 0246 2E       		.uleb128 0x2e
 2656 0247 01       		.byte	0x1
 2657 0248 3F       		.uleb128 0x3f
 2658 0249 19       		.uleb128 0x19
 2659 024a 03       		.uleb128 0x3
 2660 024b 0E       		.uleb128 0xe
 2661 024c 3A       		.uleb128 0x3a
ARM GAS  C:\Users\jsyoon\AppData\Local\Temp\cc51thSB.s 			page 48


 2662 024d 0B       		.uleb128 0xb
 2663 024e 3B       		.uleb128 0x3b
 2664 024f 05       		.uleb128 0x5
 2665 0250 27       		.uleb128 0x27
 2666 0251 19       		.uleb128 0x19
 2667 0252 49       		.uleb128 0x49
 2668 0253 13       		.uleb128 0x13
 2669 0254 3C       		.uleb128 0x3c
 2670 0255 19       		.uleb128 0x19
 2671 0256 01       		.uleb128 0x1
 2672 0257 13       		.uleb128 0x13
 2673 0258 00       		.byte	0
 2674 0259 00       		.byte	0
 2675 025a 2E       		.uleb128 0x2e
 2676 025b 05       		.uleb128 0x5
 2677 025c 00       		.byte	0
 2678 025d 49       		.uleb128 0x49
 2679 025e 13       		.uleb128 0x13
 2680 025f 00       		.byte	0
 2681 0260 00       		.byte	0
 2682 0261 2F       		.uleb128 0x2f
 2683 0262 2E       		.uleb128 0x2e
 2684 0263 01       		.byte	0x1
 2685 0264 3F       		.uleb128 0x3f
 2686 0265 19       		.uleb128 0x19
 2687 0266 03       		.uleb128 0x3
 2688 0267 0E       		.uleb128 0xe
 2689 0268 3A       		.uleb128 0x3a
 2690 0269 0B       		.uleb128 0xb
 2691 026a 3B       		.uleb128 0x3b
 2692 026b 05       		.uleb128 0x5
 2693 026c 27       		.uleb128 0x27
 2694 026d 19       		.uleb128 0x19
 2695 026e 3C       		.uleb128 0x3c
 2696 026f 19       		.uleb128 0x19
 2697 0270 01       		.uleb128 0x1
 2698 0271 13       		.uleb128 0x13
 2699 0272 00       		.byte	0
 2700 0273 00       		.byte	0
 2701 0274 30       		.uleb128 0x30
 2702 0275 2E       		.uleb128 0x2e
 2703 0276 01       		.byte	0x1
 2704 0277 3F       		.uleb128 0x3f
 2705 0278 19       		.uleb128 0x19
 2706 0279 03       		.uleb128 0x3
 2707 027a 0E       		.uleb128 0xe
 2708 027b 3A       		.uleb128 0x3a
 2709 027c 0B       		.uleb128 0xb
 2710 027d 3B       		.uleb128 0x3b
 2711 027e 05       		.uleb128 0x5
 2712 027f 27       		.uleb128 0x27
 2713 0280 19       		.uleb128 0x19
 2714 0281 3C       		.uleb128 0x3c
 2715 0282 19       		.uleb128 0x19
 2716 0283 00       		.byte	0
 2717 0284 00       		.byte	0
 2718 0285 00       		.byte	0
ARM GAS  C:\Users\jsyoon\AppData\Local\Temp\cc51thSB.s 			page 49


 2719              		.section	.debug_loc,"",%progbits
 2720              	.Ldebug_loc0:
 2721              	.LLST0:
 2722 0000 00000000 		.4byte	.LVL0
 2723 0004 14000000 		.4byte	.LVL1
 2724 0008 0200     		.2byte	0x2
 2725 000a 30       		.byte	0x30
 2726 000b 9F       		.byte	0x9f
 2727 000c 00000000 		.4byte	0
 2728 0010 00000000 		.4byte	0
 2729              	.LLST1:
 2730 0014 4E000000 		.4byte	.LVL8
 2731 0018 56000000 		.4byte	.LVL10
 2732 001c 0200     		.2byte	0x2
 2733 001e 30       		.byte	0x30
 2734 001f 9F       		.byte	0x9f
 2735 0020 00000000 		.4byte	0
 2736 0024 00000000 		.4byte	0
 2737              	.LLST2:
 2738 0028 4E000000 		.4byte	.LVL8
 2739 002c 7A000000 		.4byte	.LVL12
 2740 0030 0100     		.2byte	0x1
 2741 0032 52       		.byte	0x52
 2742 0033 00000000 		.4byte	0
 2743 0037 00000000 		.4byte	0
 2744              	.LLST3:
 2745 003b 34000000 		.4byte	.LVL2
 2746 003f 44000000 		.4byte	.LVL5
 2747 0043 0100     		.2byte	0x1
 2748 0045 53       		.byte	0x53
 2749 0046 44000000 		.4byte	.LVL5
 2750 004a 88000000 		.4byte	.LVL13
 2751 004e 0200     		.2byte	0x2
 2752 0050 7C       		.byte	0x7c
 2753 0051 00       		.sleb128 0
 2754 0052 00000000 		.4byte	0
 2755 0056 00000000 		.4byte	0
 2756              	.LLST4:
 2757 005a 34000000 		.4byte	.LVL2
 2758 005e 40000000 		.4byte	.LVL3
 2759 0062 0800     		.2byte	0x8
 2760 0064 73       		.byte	0x73
 2761 0065 00       		.sleb128 0
 2762 0066 40       		.byte	0x40
 2763 0067 25       		.byte	0x25
 2764 0068 08       		.byte	0x8
 2765 0069 FF       		.byte	0xff
 2766 006a 1A       		.byte	0x1a
 2767 006b 9F       		.byte	0x9f
 2768 006c 40000000 		.4byte	.LVL3
 2769 0070 46000000 		.4byte	.LVL6
 2770 0074 0600     		.2byte	0x6
 2771 0076 72       		.byte	0x72
 2772 0077 00       		.sleb128 0
 2773 0078 08       		.byte	0x8
 2774 0079 FF       		.byte	0xff
 2775 007a 1A       		.byte	0x1a
ARM GAS  C:\Users\jsyoon\AppData\Local\Temp\cc51thSB.s 			page 50


 2776 007b 9F       		.byte	0x9f
 2777 007c 46000000 		.4byte	.LVL6
 2778 0080 88000000 		.4byte	.LVL13
 2779 0084 1200     		.2byte	0x12
 2780 0086 7C       		.byte	0x7c
 2781 0087 00       		.sleb128 0
 2782 0088 06       		.byte	0x6
 2783 0089 09       		.byte	0x9
 2784 008a EC       		.byte	0xec
 2785 008b 24       		.byte	0x24
 2786 008c 09       		.byte	0x9
 2787 008d FC       		.byte	0xfc
 2788 008e 25       		.byte	0x25
 2789 008f 75       		.byte	0x75
 2790 0090 00       		.sleb128 0
 2791 0091 22       		.byte	0x22
 2792 0092 94       		.byte	0x94
 2793 0093 01       		.byte	0x1
 2794 0094 08       		.byte	0x8
 2795 0095 FF       		.byte	0xff
 2796 0096 1A       		.byte	0x1a
 2797 0097 9F       		.byte	0x9f
 2798 0098 00000000 		.4byte	0
 2799 009c 00000000 		.4byte	0
 2800              	.LLST5:
 2801 00a0 34000000 		.4byte	.LVL2
 2802 00a4 42000000 		.4byte	.LVL4
 2803 00a8 0800     		.2byte	0x8
 2804 00aa 73       		.byte	0x73
 2805 00ab 00       		.sleb128 0
 2806 00ac 38       		.byte	0x38
 2807 00ad 25       		.byte	0x25
 2808 00ae 08       		.byte	0x8
 2809 00af FF       		.byte	0xff
 2810 00b0 1A       		.byte	0x1a
 2811 00b1 9F       		.byte	0x9f
 2812 00b2 42000000 		.4byte	.LVL4
 2813 00b6 52000000 		.4byte	.LVL9
 2814 00ba 0600     		.2byte	0x6
 2815 00bc 71       		.byte	0x71
 2816 00bd 00       		.sleb128 0
 2817 00be 08       		.byte	0x8
 2818 00bf FF       		.byte	0xff
 2819 00c0 1A       		.byte	0x1a
 2820 00c1 9F       		.byte	0x9f
 2821 00c2 52000000 		.4byte	.LVL9
 2822 00c6 88000000 		.4byte	.LVL13
 2823 00ca 1200     		.2byte	0x12
 2824 00cc 7C       		.byte	0x7c
 2825 00cd 00       		.sleb128 0
 2826 00ce 06       		.byte	0x6
 2827 00cf 09       		.byte	0x9
 2828 00d0 F4       		.byte	0xf4
 2829 00d1 24       		.byte	0x24
 2830 00d2 09       		.byte	0x9
 2831 00d3 FC       		.byte	0xfc
 2832 00d4 25       		.byte	0x25
ARM GAS  C:\Users\jsyoon\AppData\Local\Temp\cc51thSB.s 			page 51


 2833 00d5 75       		.byte	0x75
 2834 00d6 00       		.sleb128 0
 2835 00d7 22       		.byte	0x22
 2836 00d8 94       		.byte	0x94
 2837 00d9 01       		.byte	0x1
 2838 00da 08       		.byte	0x8
 2839 00db FF       		.byte	0xff
 2840 00dc 1A       		.byte	0x1a
 2841 00dd 9F       		.byte	0x9f
 2842 00de 00000000 		.4byte	0
 2843 00e2 00000000 		.4byte	0
 2844              	.LLST6:
 2845 00e6 34000000 		.4byte	.LVL2
 2846 00ea 44000000 		.4byte	.LVL5
 2847 00ee 0600     		.2byte	0x6
 2848 00f0 73       		.byte	0x73
 2849 00f1 00       		.sleb128 0
 2850 00f2 08       		.byte	0x8
 2851 00f3 FF       		.byte	0xff
 2852 00f4 1A       		.byte	0x1a
 2853 00f5 9F       		.byte	0x9f
 2854 00f6 44000000 		.4byte	.LVL5
 2855 00fa 48000000 		.4byte	.LVL7
 2856 00fe 0700     		.2byte	0x7
 2857 0100 7C       		.byte	0x7c
 2858 0101 00       		.sleb128 0
 2859 0102 06       		.byte	0x6
 2860 0103 08       		.byte	0x8
 2861 0104 FF       		.byte	0xff
 2862 0105 1A       		.byte	0x1a
 2863 0106 9F       		.byte	0x9f
 2864 0107 48000000 		.4byte	.LVL7
 2865 010b 56000000 		.4byte	.LVL10
 2866 010f 0600     		.2byte	0x6
 2867 0111 73       		.byte	0x73
 2868 0112 00       		.sleb128 0
 2869 0113 08       		.byte	0x8
 2870 0114 FF       		.byte	0xff
 2871 0115 1A       		.byte	0x1a
 2872 0116 9F       		.byte	0x9f
 2873 0117 56000000 		.4byte	.LVL10
 2874 011b 88000000 		.4byte	.LVL13
 2875 011f 1000     		.2byte	0x10
 2876 0121 7C       		.byte	0x7c
 2877 0122 00       		.sleb128 0
 2878 0123 94       		.byte	0x94
 2879 0124 01       		.byte	0x1
 2880 0125 08       		.byte	0x8
 2881 0126 FF       		.byte	0xff
 2882 0127 1A       		.byte	0x1a
 2883 0128 75       		.byte	0x75
 2884 0129 00       		.sleb128 0
 2885 012a 22       		.byte	0x22
 2886 012b 94       		.byte	0x94
 2887 012c 01       		.byte	0x1
 2888 012d 08       		.byte	0x8
 2889 012e FF       		.byte	0xff
ARM GAS  C:\Users\jsyoon\AppData\Local\Temp\cc51thSB.s 			page 52


 2890 012f 1A       		.byte	0x1a
 2891 0130 9F       		.byte	0x9f
 2892 0131 00000000 		.4byte	0
 2893 0135 00000000 		.4byte	0
 2894              	.LLST7:
 2895 0139 88000000 		.4byte	.LVL13
 2896 013d 3A010000 		.4byte	.LVL22
 2897 0141 0100     		.2byte	0x1
 2898 0143 54       		.byte	0x54
 2899 0144 00000000 		.4byte	0
 2900 0148 00000000 		.4byte	0
 2901              	.LLST8:
 2902 014c 00000000 		.4byte	.LVL30
 2903 0150 22000000 		.4byte	.LVL35
 2904 0154 0100     		.2byte	0x1
 2905 0156 50       		.byte	0x50
 2906 0157 22000000 		.4byte	.LVL35
 2907 015b 68000000 		.4byte	.LFE119
 2908 015f 0400     		.2byte	0x4
 2909 0161 F3       		.byte	0xf3
 2910 0162 01       		.uleb128 0x1
 2911 0163 50       		.byte	0x50
 2912 0164 9F       		.byte	0x9f
 2913 0165 00000000 		.4byte	0
 2914 0169 00000000 		.4byte	0
 2915              	.LLST9:
 2916 016d 00000000 		.4byte	.LVL30
 2917 0171 1E000000 		.4byte	.LVL34
 2918 0175 0100     		.2byte	0x1
 2919 0177 51       		.byte	0x51
 2920 0178 1E000000 		.4byte	.LVL34
 2921 017c 22000000 		.4byte	.LVL35
 2922 0180 0700     		.2byte	0x7
 2923 0182 70       		.byte	0x70
 2924 0183 00       		.sleb128 0
 2925 0184 32       		.byte	0x32
 2926 0185 24       		.byte	0x24
 2927 0186 76       		.byte	0x76
 2928 0187 00       		.sleb128 0
 2929 0188 22       		.byte	0x22
 2930 0189 22000000 		.4byte	.LVL35
 2931 018d 32000000 		.4byte	.LVL40
 2932 0191 0800     		.2byte	0x8
 2933 0193 F3       		.byte	0xf3
 2934 0194 01       		.uleb128 0x1
 2935 0195 50       		.byte	0x50
 2936 0196 32       		.byte	0x32
 2937 0197 24       		.byte	0x24
 2938 0198 76       		.byte	0x76
 2939 0199 00       		.sleb128 0
 2940 019a 22       		.byte	0x22
 2941 019b 32000000 		.4byte	.LVL40
 2942 019f 58000000 		.4byte	.LVL43
 2943 01a3 0100     		.2byte	0x1
 2944 01a5 52       		.byte	0x52
 2945 01a6 00000000 		.4byte	0
 2946 01aa 00000000 		.4byte	0
ARM GAS  C:\Users\jsyoon\AppData\Local\Temp\cc51thSB.s 			page 53


 2947              	.LLST10:
 2948 01ae 32000000 		.4byte	.LVL40
 2949 01b2 3C000000 		.4byte	.LVL41
 2950 01b6 0200     		.2byte	0x2
 2951 01b8 30       		.byte	0x30
 2952 01b9 9F       		.byte	0x9f
 2953 01ba 00000000 		.4byte	0
 2954 01be 00000000 		.4byte	0
 2955              	.LLST11:
 2956 01c2 10000000 		.4byte	.LVL31
 2957 01c6 1E000000 		.4byte	.LVL34
 2958 01ca 0100     		.2byte	0x1
 2959 01cc 51       		.byte	0x51
 2960 01cd 1E000000 		.4byte	.LVL34
 2961 01d1 22000000 		.4byte	.LVL35
 2962 01d5 0700     		.2byte	0x7
 2963 01d7 70       		.byte	0x70
 2964 01d8 00       		.sleb128 0
 2965 01d9 32       		.byte	0x32
 2966 01da 24       		.byte	0x24
 2967 01db 76       		.byte	0x76
 2968 01dc 00       		.sleb128 0
 2969 01dd 22       		.byte	0x22
 2970 01de 22000000 		.4byte	.LVL35
 2971 01e2 3C000000 		.4byte	.LVL41
 2972 01e6 0800     		.2byte	0x8
 2973 01e8 F3       		.byte	0xf3
 2974 01e9 01       		.uleb128 0x1
 2975 01ea 50       		.byte	0x50
 2976 01eb 32       		.byte	0x32
 2977 01ec 24       		.byte	0x24
 2978 01ed 76       		.byte	0x76
 2979 01ee 00       		.sleb128 0
 2980 01ef 22       		.byte	0x22
 2981 01f0 3C000000 		.4byte	.LVL41
 2982 01f4 58000000 		.4byte	.LVL43
 2983 01f8 0B00     		.2byte	0xb
 2984 01fa F3       		.byte	0xf3
 2985 01fb 01       		.uleb128 0x1
 2986 01fc 50       		.byte	0x50
 2987 01fd 32       		.byte	0x32
 2988 01fe 24       		.byte	0x24
 2989 01ff 03       		.byte	0x3
 2990 0200 00000000 		.4byte	.LANCHOR0
 2991 0204 22       		.byte	0x22
 2992 0205 00000000 		.4byte	0
 2993 0209 00000000 		.4byte	0
 2994              	.LLST12:
 2995 020d 1A000000 		.4byte	.LVL32
 2996 0211 26000000 		.4byte	.LVL37
 2997 0215 0600     		.2byte	0x6
 2998 0217 72       		.byte	0x72
 2999 0218 00       		.sleb128 0
 3000 0219 08       		.byte	0x8
 3001 021a FF       		.byte	0xff
 3002 021b 1A       		.byte	0x1a
 3003 021c 9F       		.byte	0x9f
ARM GAS  C:\Users\jsyoon\AppData\Local\Temp\cc51thSB.s 			page 54


 3004 021d 26000000 		.4byte	.LVL37
 3005 0221 2E000000 		.4byte	.LVL38
 3006 0225 1800     		.2byte	0x18
 3007 0227 F3       		.byte	0xf3
 3008 0228 01       		.uleb128 0x1
 3009 0229 50       		.byte	0x50
 3010 022a 32       		.byte	0x32
 3011 022b 24       		.byte	0x24
 3012 022c 76       		.byte	0x76
 3013 022d 00       		.sleb128 0
 3014 022e 22       		.byte	0x22
 3015 022f 06       		.byte	0x6
 3016 0230 09       		.byte	0x9
 3017 0231 EC       		.byte	0xec
 3018 0232 24       		.byte	0x24
 3019 0233 09       		.byte	0x9
 3020 0234 FC       		.byte	0xfc
 3021 0235 25       		.byte	0x25
 3022 0236 74       		.byte	0x74
 3023 0237 00       		.sleb128 0
 3024 0238 22       		.byte	0x22
 3025 0239 94       		.byte	0x94
 3026 023a 01       		.byte	0x1
 3027 023b 08       		.byte	0x8
 3028 023c FF       		.byte	0xff
 3029 023d 1A       		.byte	0x1a
 3030 023e 9F       		.byte	0x9f
 3031 023f 2E000000 		.4byte	.LVL38
 3032 0243 3C000000 		.4byte	.LVL41
 3033 0247 1B00     		.2byte	0x1b
 3034 0249 F3       		.byte	0xf3
 3035 024a 01       		.uleb128 0x1
 3036 024b 50       		.byte	0x50
 3037 024c 32       		.byte	0x32
 3038 024d 24       		.byte	0x24
 3039 024e 76       		.byte	0x76
 3040 024f 00       		.sleb128 0
 3041 0250 22       		.byte	0x22
 3042 0251 06       		.byte	0x6
 3043 0252 09       		.byte	0x9
 3044 0253 EC       		.byte	0xec
 3045 0254 24       		.byte	0x24
 3046 0255 09       		.byte	0x9
 3047 0256 FC       		.byte	0xfc
 3048 0257 25       		.byte	0x25
 3049 0258 03       		.byte	0x3
 3050 0259 00000000 		.4byte	.LANCHOR1
 3051 025d 22       		.byte	0x22
 3052 025e 94       		.byte	0x94
 3053 025f 01       		.byte	0x1
 3054 0260 08       		.byte	0x8
 3055 0261 FF       		.byte	0xff
 3056 0262 1A       		.byte	0x1a
 3057 0263 9F       		.byte	0x9f
 3058 0264 3C000000 		.4byte	.LVL41
 3059 0268 58000000 		.4byte	.LVL43
 3060 026c 1E00     		.2byte	0x1e
ARM GAS  C:\Users\jsyoon\AppData\Local\Temp\cc51thSB.s 			page 55


 3061 026e F3       		.byte	0xf3
 3062 026f 01       		.uleb128 0x1
 3063 0270 50       		.byte	0x50
 3064 0271 32       		.byte	0x32
 3065 0272 24       		.byte	0x24
 3066 0273 03       		.byte	0x3
 3067 0274 00000000 		.4byte	.LANCHOR0
 3068 0278 22       		.byte	0x22
 3069 0279 06       		.byte	0x6
 3070 027a 09       		.byte	0x9
 3071 027b EC       		.byte	0xec
 3072 027c 24       		.byte	0x24
 3073 027d 09       		.byte	0x9
 3074 027e FC       		.byte	0xfc
 3075 027f 25       		.byte	0x25
 3076 0280 03       		.byte	0x3
 3077 0281 00000000 		.4byte	.LANCHOR1
 3078 0285 22       		.byte	0x22
 3079 0286 94       		.byte	0x94
 3080 0287 01       		.byte	0x1
 3081 0288 08       		.byte	0x8
 3082 0289 FF       		.byte	0xff
 3083 028a 1A       		.byte	0x1a
 3084 028b 9F       		.byte	0x9f
 3085 028c 00000000 		.4byte	0
 3086 0290 00000000 		.4byte	0
 3087              	.LLST13:
 3088 0294 1C000000 		.4byte	.LVL33
 3089 0298 30000000 		.4byte	.LVL39
 3090 029c 0600     		.2byte	0x6
 3091 029e 75       		.byte	0x75
 3092 029f 00       		.sleb128 0
 3093 02a0 08       		.byte	0x8
 3094 02a1 FF       		.byte	0xff
 3095 02a2 1A       		.byte	0x1a
 3096 02a3 9F       		.byte	0x9f
 3097 02a4 30000000 		.4byte	.LVL39
 3098 02a8 3C000000 		.4byte	.LVL41
 3099 02ac 1B00     		.2byte	0x1b
 3100 02ae F3       		.byte	0xf3
 3101 02af 01       		.uleb128 0x1
 3102 02b0 50       		.byte	0x50
 3103 02b1 32       		.byte	0x32
 3104 02b2 24       		.byte	0x24
 3105 02b3 76       		.byte	0x76
 3106 02b4 00       		.sleb128 0
 3107 02b5 22       		.byte	0x22
 3108 02b6 06       		.byte	0x6
 3109 02b7 09       		.byte	0x9
 3110 02b8 F4       		.byte	0xf4
 3111 02b9 24       		.byte	0x24
 3112 02ba 09       		.byte	0x9
 3113 02bb FC       		.byte	0xfc
 3114 02bc 25       		.byte	0x25
 3115 02bd 03       		.byte	0x3
 3116 02be 00000000 		.4byte	.LANCHOR1
 3117 02c2 22       		.byte	0x22
ARM GAS  C:\Users\jsyoon\AppData\Local\Temp\cc51thSB.s 			page 56


 3118 02c3 94       		.byte	0x94
 3119 02c4 01       		.byte	0x1
 3120 02c5 08       		.byte	0x8
 3121 02c6 FF       		.byte	0xff
 3122 02c7 1A       		.byte	0x1a
 3123 02c8 9F       		.byte	0x9f
 3124 02c9 3C000000 		.4byte	.LVL41
 3125 02cd 58000000 		.4byte	.LVL43
 3126 02d1 1E00     		.2byte	0x1e
 3127 02d3 F3       		.byte	0xf3
 3128 02d4 01       		.uleb128 0x1
 3129 02d5 50       		.byte	0x50
 3130 02d6 32       		.byte	0x32
 3131 02d7 24       		.byte	0x24
 3132 02d8 03       		.byte	0x3
 3133 02d9 00000000 		.4byte	.LANCHOR0
 3134 02dd 22       		.byte	0x22
 3135 02de 06       		.byte	0x6
 3136 02df 09       		.byte	0x9
 3137 02e0 F4       		.byte	0xf4
 3138 02e1 24       		.byte	0x24
 3139 02e2 09       		.byte	0x9
 3140 02e3 FC       		.byte	0xfc
 3141 02e4 25       		.byte	0x25
 3142 02e5 03       		.byte	0x3
 3143 02e6 00000000 		.4byte	.LANCHOR1
 3144 02ea 22       		.byte	0x22
 3145 02eb 94       		.byte	0x94
 3146 02ec 01       		.byte	0x1
 3147 02ed 08       		.byte	0x8
 3148 02ee FF       		.byte	0xff
 3149 02ef 1A       		.byte	0x1a
 3150 02f0 9F       		.byte	0x9f
 3151 02f1 00000000 		.4byte	0
 3152 02f5 00000000 		.4byte	0
 3153              	.LLST14:
 3154 02f9 10000000 		.4byte	.LVL31
 3155 02fd 1E000000 		.4byte	.LVL34
 3156 0301 0600     		.2byte	0x6
 3157 0303 71       		.byte	0x71
 3158 0304 00       		.sleb128 0
 3159 0305 08       		.byte	0x8
 3160 0306 FF       		.byte	0xff
 3161 0307 1A       		.byte	0x1a
 3162 0308 9F       		.byte	0x9f
 3163 0309 1E000000 		.4byte	.LVL34
 3164 030d 22000000 		.4byte	.LVL35
 3165 0311 0C00     		.2byte	0xc
 3166 0313 70       		.byte	0x70
 3167 0314 00       		.sleb128 0
 3168 0315 32       		.byte	0x32
 3169 0316 24       		.byte	0x24
 3170 0317 76       		.byte	0x76
 3171 0318 00       		.sleb128 0
 3172 0319 22       		.byte	0x22
 3173 031a 06       		.byte	0x6
 3174 031b 08       		.byte	0x8
ARM GAS  C:\Users\jsyoon\AppData\Local\Temp\cc51thSB.s 			page 57


 3175 031c FF       		.byte	0xff
 3176 031d 1A       		.byte	0x1a
 3177 031e 9F       		.byte	0x9f
 3178 031f 22000000 		.4byte	.LVL35
 3179 0323 24000000 		.4byte	.LVL36
 3180 0327 0D00     		.2byte	0xd
 3181 0329 F3       		.byte	0xf3
 3182 032a 01       		.uleb128 0x1
 3183 032b 50       		.byte	0x50
 3184 032c 32       		.byte	0x32
 3185 032d 24       		.byte	0x24
 3186 032e 76       		.byte	0x76
 3187 032f 00       		.sleb128 0
 3188 0330 22       		.byte	0x22
 3189 0331 06       		.byte	0x6
 3190 0332 08       		.byte	0x8
 3191 0333 FF       		.byte	0xff
 3192 0334 1A       		.byte	0x1a
 3193 0335 9F       		.byte	0x9f
 3194 0336 24000000 		.4byte	.LVL36
 3195 033a 3C000000 		.4byte	.LVL41
 3196 033e 0600     		.2byte	0x6
 3197 0340 71       		.byte	0x71
 3198 0341 00       		.sleb128 0
 3199 0342 08       		.byte	0x8
 3200 0343 FF       		.byte	0xff
 3201 0344 1A       		.byte	0x1a
 3202 0345 9F       		.byte	0x9f
 3203 0346 3C000000 		.4byte	.LVL41
 3204 034a 58000000 		.4byte	.LVL43
 3205 034e 1C00     		.2byte	0x1c
 3206 0350 F3       		.byte	0xf3
 3207 0351 01       		.uleb128 0x1
 3208 0352 50       		.byte	0x50
 3209 0353 32       		.byte	0x32
 3210 0354 24       		.byte	0x24
 3211 0355 03       		.byte	0x3
 3212 0356 00000000 		.4byte	.LANCHOR0
 3213 035a 22       		.byte	0x22
 3214 035b 94       		.byte	0x94
 3215 035c 01       		.byte	0x1
 3216 035d 08       		.byte	0x8
 3217 035e FF       		.byte	0xff
 3218 035f 1A       		.byte	0x1a
 3219 0360 03       		.byte	0x3
 3220 0361 00000000 		.4byte	.LANCHOR1
 3221 0365 22       		.byte	0x22
 3222 0366 94       		.byte	0x94
 3223 0367 01       		.byte	0x1
 3224 0368 08       		.byte	0x8
 3225 0369 FF       		.byte	0xff
 3226 036a 1A       		.byte	0x1a
 3227 036b 9F       		.byte	0x9f
 3228 036c 00000000 		.4byte	0
 3229 0370 00000000 		.4byte	0
 3230              	.LLST15:
 3231 0374 00000000 		.4byte	.LVL44
ARM GAS  C:\Users\jsyoon\AppData\Local\Temp\cc51thSB.s 			page 58


 3232 0378 0A000000 		.4byte	.LVL45
 3233 037c 0100     		.2byte	0x1
 3234 037e 50       		.byte	0x50
 3235 037f 0A000000 		.4byte	.LVL45
 3236 0383 14000000 		.4byte	.LFE120
 3237 0387 0400     		.2byte	0x4
 3238 0389 F3       		.byte	0xf3
 3239 038a 01       		.uleb128 0x1
 3240 038b 50       		.byte	0x50
 3241 038c 9F       		.byte	0x9f
 3242 038d 00000000 		.4byte	0
 3243 0391 00000000 		.4byte	0
 3244              	.LLST16:
 3245 0395 00000000 		.4byte	.LVL46
 3246 0399 08000000 		.4byte	.LVL47
 3247 039d 0200     		.2byte	0x2
 3248 039f 30       		.byte	0x30
 3249 03a0 9F       		.byte	0x9f
 3250 03a1 00000000 		.4byte	0
 3251 03a5 00000000 		.4byte	0
 3252              	.LLST17:
 3253 03a9 00000000 		.4byte	.LVL48
 3254 03ad 36000000 		.4byte	.LVL49
 3255 03b1 0200     		.2byte	0x2
 3256 03b3 30       		.byte	0x30
 3257 03b4 9F       		.byte	0x9f
 3258 03b5 00000000 		.4byte	0
 3259 03b9 00000000 		.4byte	0
 3260              	.LLST18:
 3261 03bd 3A000000 		.4byte	.LVL50
 3262 03c1 44000000 		.4byte	.LVL51
 3263 03c5 0200     		.2byte	0x2
 3264 03c7 30       		.byte	0x30
 3265 03c8 9F       		.byte	0x9f
 3266 03c9 00000000 		.4byte	0
 3267 03cd 00000000 		.4byte	0
 3268              		.section	.debug_aranges,"",%progbits
 3269 0000 3C000000 		.4byte	0x3c
 3270 0004 0200     		.2byte	0x2
 3271 0006 00000000 		.4byte	.Ldebug_info0
 3272 000a 04       		.byte	0x4
 3273 000b 00       		.byte	0
 3274 000c 0000     		.2byte	0
 3275 000e 0000     		.2byte	0
 3276 0010 00000000 		.4byte	.LFB118
 3277 0014 C8010000 		.4byte	.LFE118-.LFB118
 3278 0018 00000000 		.4byte	.LFB119
 3279 001c 68000000 		.4byte	.LFE119-.LFB119
 3280 0020 00000000 		.4byte	.LFB120
 3281 0024 14000000 		.4byte	.LFE120-.LFB120
 3282 0028 00000000 		.4byte	.LFB121
 3283 002c 2C000000 		.4byte	.LFE121-.LFB121
 3284 0030 00000000 		.4byte	.LFB122
 3285 0034 74000000 		.4byte	.LFE122-.LFB122
 3286 0038 00000000 		.4byte	0
 3287 003c 00000000 		.4byte	0
 3288              		.section	.debug_ranges,"",%progbits
ARM GAS  C:\Users\jsyoon\AppData\Local\Temp\cc51thSB.s 			page 59


 3289              	.Ldebug_ranges0:
 3290 0000 82000000 		.4byte	.LBB15
 3291 0004 86000000 		.4byte	.LBE15
 3292 0008 88000000 		.4byte	.LBB16
 3293 000c B6000000 		.4byte	.LBE16
 3294 0010 00000000 		.4byte	0
 3295 0014 00000000 		.4byte	0
 3296 0018 06000000 		.4byte	.LBB18
 3297 001c 08000000 		.4byte	.LBE18
 3298 0020 10000000 		.4byte	.LBB22
 3299 0024 1E000000 		.4byte	.LBE22
 3300 0028 22000000 		.4byte	.LBB23
 3301 002c 38000000 		.4byte	.LBE23
 3302 0030 00000000 		.4byte	0
 3303 0034 00000000 		.4byte	0
 3304 0038 00000000 		.4byte	.LFB118
 3305 003c C8010000 		.4byte	.LFE118
 3306 0040 00000000 		.4byte	.LFB119
 3307 0044 68000000 		.4byte	.LFE119
 3308 0048 00000000 		.4byte	.LFB120
 3309 004c 14000000 		.4byte	.LFE120
 3310 0050 00000000 		.4byte	.LFB121
 3311 0054 2C000000 		.4byte	.LFE121
 3312 0058 00000000 		.4byte	.LFB122
 3313 005c 74000000 		.4byte	.LFE122
 3314 0060 00000000 		.4byte	0
 3315 0064 00000000 		.4byte	0
 3316              		.section	.debug_line,"",%progbits
 3317              	.Ldebug_line0:
 3318 0000 3A030000 		.section	.debug_str,"MS",%progbits,1
 3318      0200E401 
 3318      00000201 
 3318      FB0E0D00 
 3318      01010101 
 3319              	.LASF92:
 3320 0000 50555044 		.ascii	"PUPDR\000"
 3320      5200
 3321              	.LASF94:
 3322 0006 4C434B52 		.ascii	"LCKR\000"
 3322      00
 3323              	.LASF125:
 3324 000b 54494D5F 		.ascii	"TIM_DMACmd\000"
 3324      444D4143 
 3324      6D6400
 3325              	.LASF34:
 3326 0016 44494552 		.ascii	"DIER\000"
 3326      00
 3327              	.LASF27:
 3328 001b 4D304152 		.ascii	"M0AR\000"
 3328      00
 3329              	.LASF108:
 3330 0020 77733238 		.ascii	"ws2811_all_off\000"
 3330      31315F61 
 3330      6C6C5F6F 
 3330      666600
 3331              	.LASF72:
 3332 002f 444D415F 		.ascii	"DMA_InitTypeDef\000"
ARM GAS  C:\Users\jsyoon\AppData\Local\Temp\cc51thSB.s 			page 60


 3332      496E6974 
 3332      54797065 
 3332      44656600 
 3333              	.LASF90:
 3334 003f 4F545950 		.ascii	"OTYPER\000"
 3334      455200
 3335              	.LASF5:
 3336 0046 5F5F7569 		.ascii	"__uint8_t\000"
 3336      6E74385F 
 3336      7400
 3337              	.LASF67:
 3338 0050 444D415F 		.ascii	"DMA_Priority\000"
 3338      5072696F 
 3338      72697479 
 3338      00
 3339              	.LASF62:
 3340 005d 444D415F 		.ascii	"DMA_PeripheralInc\000"
 3340      50657269 
 3340      70686572 
 3340      616C496E 
 3340      6300
 3341              	.LASF82:
 3342 006f 54494D5F 		.ascii	"TIM_Pulse\000"
 3342      50756C73 
 3342      6500
 3343              	.LASF98:
 3344 0079 696F706F 		.ascii	"ioportmask_t\000"
 3344      72746D61 
 3344      736B5F74 
 3344      00
 3345              	.LASF56:
 3346 0086 54494D5F 		.ascii	"TIM_TypeDef\000"
 3346      54797065 
 3346      44656600 
 3347              	.LASF63:
 3348 0092 444D415F 		.ascii	"DMA_MemoryInc\000"
 3348      4D656D6F 
 3348      7279496E 
 3348      6300
 3349              	.LASF129:
 3350 00a0 7267625F 		.ascii	"rgb_to_local\000"
 3350      746F5F6C 
 3350      6F63616C 
 3350      00
 3351              	.LASF23:
 3352 00ad 44495341 		.ascii	"DISABLE\000"
 3352      424C4500 
 3353              	.LASF89:
 3354 00b5 4D4F4445 		.ascii	"MODER\000"
 3354      5200
 3355              	.LASF13:
 3356 00bb 6C6F6E67 		.ascii	"long long unsigned int\000"
 3356      206C6F6E 
 3356      6720756E 
 3356      7369676E 
 3356      65642069 
 3357              	.LASF117:
ARM GAS  C:\Users\jsyoon\AppData\Local\Temp\cc51thSB.s 			page 61


 3358 00d2 444D415F 		.ascii	"DMA_DeInit\000"
 3358      4465496E 
 3358      697400
 3359              	.LASF131:
 3360 00dd 49544D5F 		.ascii	"ITM_RxBuffer\000"
 3360      52784275 
 3360      66666572 
 3360      00
 3361              	.LASF50:
 3362 00ea 42445452 		.ascii	"BDTR\000"
 3362      00
 3363              	.LASF70:
 3364 00ef 444D415F 		.ascii	"DMA_MemoryBurst\000"
 3364      4D656D6F 
 3364      72794275 
 3364      72737400 
 3365              	.LASF38:
 3366 00ff 43434D52 		.ascii	"CCMR1\000"
 3366      3100
 3367              	.LASF40:
 3368 0105 43434D52 		.ascii	"CCMR2\000"
 3368      3200
 3369              	.LASF12:
 3370 010b 6C6F6E67 		.ascii	"long long int\000"
 3370      206C6F6E 
 3370      6720696E 
 3370      7400
 3371              	.LASF2:
 3372 0119 7369676E 		.ascii	"signed char\000"
 3372      65642063 
 3372      68617200 
 3373              	.LASF93:
 3374 0125 42535252 		.ascii	"BSRR\000"
 3374      00
 3375              	.LASF103:
 3376 012a 444D415F 		.ascii	"DMA_InitStructure\000"
 3376      496E6974 
 3376      53747275 
 3376      63747572 
 3376      6500
 3377              	.LASF45:
 3378 013c 52455345 		.ascii	"RESERVED10\000"
 3378      52564544 
 3378      313000
 3379              	.LASF51:
 3380 0147 52455345 		.ascii	"RESERVED11\000"
 3380      52564544 
 3380      313100
 3381              	.LASF71:
 3382 0152 444D415F 		.ascii	"DMA_PeripheralBurst\000"
 3382      50657269 
 3382      70686572 
 3382      616C4275 
 3382      72737400 
 3383              	.LASF54:
 3384 0166 52455345 		.ascii	"RESERVED13\000"
 3384      52564544 
ARM GAS  C:\Users\jsyoon\AppData\Local\Temp\cc51thSB.s 			page 62


 3384      313300
 3385              	.LASF55:
 3386 0171 52455345 		.ascii	"RESERVED14\000"
 3386      52564544 
 3386      313400
 3387              	.LASF128:
 3388 017c 453A5C4D 		.ascii	"E:\\Maker\\BLDC\\test_eval\\try2\\OROCA-BLDC_R15080"
 3388      616B6572 
 3388      5C424C44 
 3388      435C7465 
 3388      73745F65 
 3389 01aa 3700     		.ascii	"7\000"
 3390              	.LASF9:
 3391 01ac 6C6F6E67 		.ascii	"long int\000"
 3391      20696E74 
 3391      00
 3392              	.LASF81:
 3393 01b5 54494D5F 		.ascii	"TIM_OutputNState\000"
 3393      4F757470 
 3393      75744E53 
 3393      74617465 
 3393      00
 3394              	.LASF24:
 3395 01c6 454E4142 		.ascii	"ENABLE\000"
 3395      4C4500
 3396              	.LASF126:
 3397 01cd 474E5520 		.ascii	"GNU C 4.8.4 20140526 (release) [ARM/embedded-4_8-br"
 3397      4320342E 
 3397      382E3420 
 3397      32303134 
 3397      30353236 
 3398 0200 616E6368 		.ascii	"anch revision 211358] -mcpu=cortex-m4 -mfloat-abi=h"
 3398      20726576 
 3398      6973696F 
 3398      6E203231 
 3398      31333538 
 3399 0233 61726420 		.ascii	"ard -mfpu=fpv4-sp-d16 -mno-thumb-interwork -mthumb "
 3399      2D6D6670 
 3399      753D6670 
 3399      76342D73 
 3399      702D6431 
 3400 0266 2D676764 		.ascii	"-ggdb -O2 -std=gnu99 -fomit-frame-pointer -falign-f"
 3400      62202D4F 
 3400      32202D73 
 3400      74643D67 
 3400      6E753939 
 3401 0299 756E6374 		.ascii	"unctions=16 -ffunction-sections -fdata-sections -fn"
 3401      696F6E73 
 3401      3D313620 
 3401      2D666675 
 3401      6E637469 
 3402 02cc 6F2D636F 		.ascii	"o-common -fsingle-precision-constant\000"
 3402      6D6D6F6E 
 3402      202D6673 
 3402      696E676C 
 3402      652D7072 
 3403              	.LASF110:
ARM GAS  C:\Users\jsyoon\AppData\Local\Temp\cc51thSB.s 			page 63


 3404 02f1 62697462 		.ascii	"bitbuffer\000"
 3404      75666665 
 3404      7200
 3405              	.LASF42:
 3406 02fb 43434552 		.ascii	"CCER\000"
 3406      00
 3407              	.LASF119:
 3408 0300 5243435F 		.ascii	"RCC_APB1PeriphClockCmd\000"
 3408      41504231 
 3408      50657269 
 3408      7068436C 
 3408      6F636B43 
 3409              	.LASF111:
 3410 0317 52474264 		.ascii	"RGBdata\000"
 3410      61746100 
 3411              	.LASF19:
 3412 031f 75696E74 		.ascii	"uint16_t\000"
 3412      31365F74 
 3412      00
 3413              	.LASF114:
 3414 0328 726F756E 		.ascii	"roundf\000"
 3414      646600
 3415              	.LASF16:
 3416 032f 646F7562 		.ascii	"double\000"
 3416      6C6500
 3417              	.LASF130:
 3418 0336 77733238 		.ascii	"ws2811_get_led_color\000"
 3418      31315F67 
 3418      65745F6C 
 3418      65645F63 
 3418      6F6C6F72 
 3419              	.LASF105:
 3420 034b 77733238 		.ascii	"ws2811_init\000"
 3420      31315F69 
 3420      6E697400 
 3421              	.LASF91:
 3422 0357 4F535045 		.ascii	"OSPEEDR\000"
 3422      45445200 
 3423              	.LASF10:
 3424 035f 5F5F7569 		.ascii	"__uint32_t\000"
 3424      6E743332 
 3424      5F7400
 3425              	.LASF80:
 3426 036a 54494D5F 		.ascii	"TIM_OutputState\000"
 3426      4F757470 
 3426      75745374 
 3426      61746500 
 3427              	.LASF101:
 3428 037a 54494D5F 		.ascii	"TIM_TimeBaseStructure\000"
 3428      54696D65 
 3428      42617365 
 3428      53747275 
 3428      63747572 
 3429              	.LASF74:
 3430 0390 54494D5F 		.ascii	"TIM_CounterMode\000"
 3430      436F756E 
 3430      7465724D 
ARM GAS  C:\Users\jsyoon\AppData\Local\Temp\cc51thSB.s 			page 64


 3430      6F646500 
 3431              	.LASF102:
 3432 03a0 54494D5F 		.ascii	"TIM_OCInitStructure\000"
 3432      4F43496E 
 3432      69745374 
 3432      72756374 
 3432      75726500 
 3433              	.LASF1:
 3434 03b4 756E7369 		.ascii	"unsigned int\000"
 3434      676E6564 
 3434      20696E74 
 3434      00
 3435              	.LASF83:
 3436 03c1 54494D5F 		.ascii	"TIM_OCPolarity\000"
 3436      4F43506F 
 3436      6C617269 
 3436      747900
 3437              	.LASF14:
 3438 03d0 73697A65 		.ascii	"sizetype\000"
 3438      74797065 
 3438      00
 3439              	.LASF76:
 3440 03d9 54494D5F 		.ascii	"TIM_ClockDivision\000"
 3440      436C6F63 
 3440      6B446976 
 3440      6973696F 
 3440      6E00
 3441              	.LASF11:
 3442 03eb 6C6F6E67 		.ascii	"long unsigned int\000"
 3442      20756E73 
 3442      69676E65 
 3442      6420696E 
 3442      7400
 3443              	.LASF97:
 3444 03fd 4750494F 		.ascii	"GPIO_TypeDef\000"
 3444      5F547970 
 3444      65446566 
 3444      00
 3445              	.LASF78:
 3446 040a 54494D5F 		.ascii	"TIM_TimeBaseInitTypeDef\000"
 3446      54696D65 
 3446      42617365 
 3446      496E6974 
 3446      54797065 
 3447              	.LASF7:
 3448 0422 73686F72 		.ascii	"short unsigned int\000"
 3448      7420756E 
 3448      7369676E 
 3448      65642069 
 3448      6E7400
 3449              	.LASF127:
 3450 0435 77733238 		.ascii	"ws2811.c\000"
 3450      31312E63 
 3450      00
 3451              	.LASF106:
 3452 043e 77733238 		.ascii	"ws2811_set_led_color\000"
 3452      31315F73 
ARM GAS  C:\Users\jsyoon\AppData\Local\Temp\cc51thSB.s 			page 65


 3452      65745F6C 
 3452      65645F63 
 3452      6F6C6F72 
 3453              	.LASF69:
 3454 0453 444D415F 		.ascii	"DMA_FIFOThreshold\000"
 3454      4649464F 
 3454      54687265 
 3454      73686F6C 
 3454      6400
 3455              	.LASF124:
 3456 0465 444D415F 		.ascii	"DMA_Cmd\000"
 3456      436D6400 
 3457              	.LASF58:
 3458 046d 444D415F 		.ascii	"DMA_PeripheralBaseAddr\000"
 3458      50657269 
 3458      70686572 
 3458      616C4261 
 3458      73654164 
 3459              	.LASF73:
 3460 0484 54494D5F 		.ascii	"TIM_Prescaler\000"
 3460      50726573 
 3460      63616C65 
 3460      7200
 3461              	.LASF109:
 3462 0492 77733238 		.ascii	"ws2811_set_all\000"
 3462      31315F73 
 3462      65745F61 
 3462      6C6C00
 3463              	.LASF88:
 3464 04a1 636C6561 		.ascii	"clear\000"
 3464      7200
 3465              	.LASF60:
 3466 04a7 444D415F 		.ascii	"DMA_DIR\000"
 3466      44495200 
 3467              	.LASF86:
 3468 04af 54494D5F 		.ascii	"TIM_OCNIdleState\000"
 3468      4F434E49 
 3468      646C6553 
 3468      74617465 
 3468      00
 3469              	.LASF121:
 3470 04c0 54494D5F 		.ascii	"TIM_OC2Init\000"
 3470      4F433249 
 3470      6E697400 
 3471              	.LASF66:
 3472 04cc 444D415F 		.ascii	"DMA_Mode\000"
 3472      4D6F6465 
 3472      00
 3473              	.LASF25:
 3474 04d5 46756E63 		.ascii	"FunctionalState\000"
 3474      74696F6E 
 3474      616C5374 
 3474      61746500 
 3475              	.LASF65:
 3476 04e5 444D415F 		.ascii	"DMA_MemoryDataSize\000"
 3476      4D656D6F 
 3476      72794461 
ARM GAS  C:\Users\jsyoon\AppData\Local\Temp\cc51thSB.s 			page 66


 3476      74615369 
 3476      7A6500
 3477              	.LASF53:
 3478 04f8 444D4152 		.ascii	"DMAR\000"
 3478      00
 3479              	.LASF96:
 3480 04fd 41465248 		.ascii	"AFRH\000"
 3480      00
 3481              	.LASF0:
 3482 0502 666C6F61 		.ascii	"float\000"
 3482      7400
 3483              	.LASF112:
 3484 0508 67616D6D 		.ascii	"gamma_table\000"
 3484      615F7461 
 3484      626C6500 
 3485              	.LASF95:
 3486 0514 4146524C 		.ascii	"AFRL\000"
 3486      00
 3487              	.LASF30:
 3488 0519 52455345 		.ascii	"RESERVED0\000"
 3488      52564544 
 3488      3000
 3489              	.LASF31:
 3490 0523 52455345 		.ascii	"RESERVED1\000"
 3490      52564544 
 3490      3100
 3491              	.LASF33:
 3492 052d 52455345 		.ascii	"RESERVED2\000"
 3492      52564544 
 3492      3200
 3493              	.LASF35:
 3494 0537 52455345 		.ascii	"RESERVED3\000"
 3494      52564544 
 3494      3300
 3495              	.LASF59:
 3496 0541 444D415F 		.ascii	"DMA_Memory0BaseAddr\000"
 3496      4D656D6F 
 3496      72793042 
 3496      61736541 
 3496      64647200 
 3497              	.LASF39:
 3498 0555 52455345 		.ascii	"RESERVED6\000"
 3498      52564544 
 3498      3600
 3499              	.LASF41:
 3500 055f 52455345 		.ascii	"RESERVED7\000"
 3500      52564544 
 3500      3700
 3501              	.LASF43:
 3502 0569 52455345 		.ascii	"RESERVED8\000"
 3502      52564544 
 3502      3800
 3503              	.LASF44:
 3504 0573 52455345 		.ascii	"RESERVED9\000"
 3504      52564544 
 3504      3900
 3505              	.LASF22:
ARM GAS  C:\Users\jsyoon\AppData\Local\Temp\cc51thSB.s 			page 67


 3506 057d 5F426F6F 		.ascii	"_Bool\000"
 3506      6C00
 3507              	.LASF20:
 3508 0583 696E7433 		.ascii	"int32_t\000"
 3508      325F7400 
 3509              	.LASF3:
 3510 058b 756E7369 		.ascii	"unsigned char\000"
 3510      676E6564 
 3510      20636861 
 3510      7200
 3511              	.LASF132:
 3512 0599 54494D5F 		.ascii	"TIM_CtrlPWMOutputs\000"
 3512      4374726C 
 3512      50574D4F 
 3512      75747075 
 3512      747300
 3513              	.LASF4:
 3514 05ac 73686F72 		.ascii	"short int\000"
 3514      7420696E 
 3514      7400
 3515              	.LASF57:
 3516 05b6 444D415F 		.ascii	"DMA_Channel\000"
 3516      4368616E 
 3516      6E656C00 
 3517              	.LASF118:
 3518 05c2 444D415F 		.ascii	"DMA_Init\000"
 3518      496E6974 
 3518      00
 3519              	.LASF116:
 3520 05cb 5243435F 		.ascii	"RCC_AHB1PeriphClockCmd\000"
 3520      41484231 
 3520      50657269 
 3520      7068436C 
 3520      6F636B43 
 3521              	.LASF120:
 3522 05e2 54494D5F 		.ascii	"TIM_TimeBaseInit\000"
 3522      54696D65 
 3522      42617365 
 3522      496E6974 
 3522      00
 3523              	.LASF36:
 3524 05f3 52455345 		.ascii	"RESERVED4\000"
 3524      52564544 
 3524      3400
 3525              	.LASF37:
 3526 05fd 52455345 		.ascii	"RESERVED5\000"
 3526      52564544 
 3526      3500
 3527              	.LASF21:
 3528 0607 75696E74 		.ascii	"uint32_t\000"
 3528      33325F74 
 3528      00
 3529              	.LASF17:
 3530 0610 6C6F6E67 		.ascii	"long double\000"
 3530      20646F75 
 3530      626C6500 
 3531              	.LASF84:
ARM GAS  C:\Users\jsyoon\AppData\Local\Temp\cc51thSB.s 			page 68


 3532 061c 54494D5F 		.ascii	"TIM_OCNPolarity\000"
 3532      4F434E50 
 3532      6F6C6172 
 3532      69747900 
 3533              	.LASF107:
 3534 062c 636F6C6F 		.ascii	"color\000"
 3534      7200
 3535              	.LASF15:
 3536 0632 63686172 		.ascii	"char\000"
 3536      00
 3537              	.LASF32:
 3538 0637 534D4352 		.ascii	"SMCR\000"
 3538      00
 3539              	.LASF123:
 3540 063c 54494D5F 		.ascii	"TIM_Cmd\000"
 3540      436D6400 
 3541              	.LASF6:
 3542 0644 5F5F7569 		.ascii	"__uint16_t\000"
 3542      6E743136 
 3542      5F7400
 3543              	.LASF64:
 3544 064f 444D415F 		.ascii	"DMA_PeripheralDataSize\000"
 3544      50657269 
 3544      70686572 
 3544      616C4461 
 3544      74615369 
 3545              	.LASF122:
 3546 0666 54494D5F 		.ascii	"TIM_OC2PreloadConfig\000"
 3546      4F433250 
 3546      72656C6F 
 3546      6164436F 
 3546      6E666967 
 3547              	.LASF75:
 3548 067b 54494D5F 		.ascii	"TIM_Period\000"
 3548      50657269 
 3548      6F6400
 3549              	.LASF8:
 3550 0686 5F5F696E 		.ascii	"__int32_t\000"
 3550      7433325F 
 3550      7400
 3551              	.LASF26:
 3552 0690 4E445452 		.ascii	"NDTR\000"
 3552      00
 3553              	.LASF29:
 3554 0695 444D415F 		.ascii	"DMA_Stream_TypeDef\000"
 3554      53747265 
 3554      616D5F54 
 3554      79706544 
 3554      656600
 3555              	.LASF100:
 3556 06a8 696F706F 		.ascii	"ioportid_t\000"
 3556      72746964 
 3556      5F7400
 3557              	.LASF115:
 3558 06b3 5F70616C 		.ascii	"_pal_lld_setgroupmode\000"
 3558      5F6C6C64 
 3558      5F736574 
ARM GAS  C:\Users\jsyoon\AppData\Local\Temp\cc51thSB.s 			page 69


 3558      67726F75 
 3558      706D6F64 
 3559              	.LASF79:
 3560 06c9 54494D5F 		.ascii	"TIM_OCMode\000"
 3560      4F434D6F 
 3560      646500
 3561              	.LASF28:
 3562 06d4 4D314152 		.ascii	"M1AR\000"
 3562      00
 3563              	.LASF52:
 3564 06d9 52455345 		.ascii	"RESERVED12\000"
 3564      52564544 
 3564      313200
 3565              	.LASF46:
 3566 06e4 43435231 		.ascii	"CCR1\000"
 3566      00
 3567              	.LASF47:
 3568 06e9 43435232 		.ascii	"CCR2\000"
 3568      00
 3569              	.LASF48:
 3570 06ee 43435233 		.ascii	"CCR3\000"
 3570      00
 3571              	.LASF49:
 3572 06f3 43435234 		.ascii	"CCR4\000"
 3572      00
 3573              	.LASF87:
 3574 06f8 54494D5F 		.ascii	"TIM_OCInitTypeDef\000"
 3574      4F43496E 
 3574      69745479 
 3574      70654465 
 3574      6600
 3575              	.LASF104:
 3576 070a 746D705F 		.ascii	"tmp_color\000"
 3576      636F6C6F 
 3576      7200
 3577              	.LASF68:
 3578 0714 444D415F 		.ascii	"DMA_FIFOMode\000"
 3578      4649464F 
 3578      4D6F6465 
 3578      00
 3579              	.LASF18:
 3580 0721 75696E74 		.ascii	"uint8_t\000"
 3580      385F7400 
 3581              	.LASF77:
 3582 0729 54494D5F 		.ascii	"TIM_RepetitionCounter\000"
 3582      52657065 
 3582      74697469 
 3582      6F6E436F 
 3582      756E7465 
 3583              	.LASF61:
 3584 073f 444D415F 		.ascii	"DMA_BufferSize\000"
 3584      42756666 
 3584      65725369 
 3584      7A6500
 3585              	.LASF113:
 3586 074e 706F7766 		.ascii	"powf\000"
 3586      00
ARM GAS  C:\Users\jsyoon\AppData\Local\Temp\cc51thSB.s 			page 70


 3587              	.LASF85:
 3588 0753 54494D5F 		.ascii	"TIM_OCIdleState\000"
 3588      4F434964 
 3588      6C655374 
 3588      61746500 
 3589              	.LASF99:
 3590 0763 696F6D6F 		.ascii	"iomode_t\000"
 3590      64655F74 
 3590      00
 3591              		.ident	"GCC: (GNU Tools for ARM Embedded Processors) 4.8.4 20140526 (release) [ARM/embedded-4_8-br
ARM GAS  C:\Users\jsyoon\AppData\Local\Temp\cc51thSB.s 			page 71


DEFINED SYMBOLS
                            *ABS*:00000000 ws2811.c
C:\Users\jsyoon\AppData\Local\Temp\cc51thSB.s:21     .text.ws2811_init:00000000 $t
C:\Users\jsyoon\AppData\Local\Temp\cc51thSB.s:27     .text.ws2811_init:00000000 ws2811_init
C:\Users\jsyoon\AppData\Local\Temp\cc51thSB.s:322    .text.ws2811_init:0000019c $d
C:\Users\jsyoon\AppData\Local\Temp\cc51thSB.s:337    .text.ws2811_set_led_color:00000000 $t
C:\Users\jsyoon\AppData\Local\Temp\cc51thSB.s:343    .text.ws2811_set_led_color:00000000 ws2811_set_led_color
C:\Users\jsyoon\AppData\Local\Temp\cc51thSB.s:446    .text.ws2811_set_led_color:0000005c $d
C:\Users\jsyoon\AppData\Local\Temp\cc51thSB.s:453    .text.ws2811_get_led_color:00000000 $t
C:\Users\jsyoon\AppData\Local\Temp\cc51thSB.s:459    .text.ws2811_get_led_color:00000000 ws2811_get_led_color
C:\Users\jsyoon\AppData\Local\Temp\cc51thSB.s:481    .text.ws2811_get_led_color:00000010 $d
C:\Users\jsyoon\AppData\Local\Temp\cc51thSB.s:486    .text.ws2811_all_off:00000000 $t
C:\Users\jsyoon\AppData\Local\Temp\cc51thSB.s:492    .text.ws2811_all_off:00000000 ws2811_all_off
C:\Users\jsyoon\AppData\Local\Temp\cc51thSB.s:526    .text.ws2811_all_off:00000024 $d
C:\Users\jsyoon\AppData\Local\Temp\cc51thSB.s:532    .text.ws2811_set_all:00000000 $t
C:\Users\jsyoon\AppData\Local\Temp\cc51thSB.s:538    .text.ws2811_set_all:00000000 ws2811_set_all
C:\Users\jsyoon\AppData\Local\Temp\cc51thSB.s:613    .text.ws2811_set_all:00000068 $d
C:\Users\jsyoon\AppData\Local\Temp\cc51thSB.s:620    .bss.RGBdata:00000000 $d
C:\Users\jsyoon\AppData\Local\Temp\cc51thSB.s:624    .bss.RGBdata:00000000 RGBdata
C:\Users\jsyoon\AppData\Local\Temp\cc51thSB.s:627    .bss.bitbuffer:00000000 $d
C:\Users\jsyoon\AppData\Local\Temp\cc51thSB.s:631    .bss.bitbuffer:00000000 bitbuffer
C:\Users\jsyoon\AppData\Local\Temp\cc51thSB.s:634    .bss.gamma_table:00000000 $d
C:\Users\jsyoon\AppData\Local\Temp\cc51thSB.s:638    .bss.gamma_table:00000000 gamma_table
                     .debug_frame:00000010 $d
C:\Users\jsyoon\AppData\Local\Temp\cc51thSB.s:336    .text.ws2811_init:000001c8 $t
C:\Users\jsyoon\AppData\Local\Temp\cc51thSB.s:452    .text.ws2811_set_led_color:00000068 $t
C:\Users\jsyoon\AppData\Local\Temp\cc51thSB.s:485    .text.ws2811_get_led_color:00000014 $t
C:\Users\jsyoon\AppData\Local\Temp\cc51thSB.s:531    .text.ws2811_all_off:0000002c $t
C:\Users\jsyoon\AppData\Local\Temp\cc51thSB.s:619    .text.ws2811_set_all:00000074 $t

UNDEFINED SYMBOLS
powf
roundf
_pal_lld_setgroupmode
RCC_AHB1PeriphClockCmd
DMA_DeInit
DMA_Init
RCC_APB1PeriphClockCmd
TIM_TimeBaseInit
TIM_OC2Init
TIM_OC2PreloadConfig
TIM_Cmd
DMA_Cmd
TIM_DMACmd
TIM_CtrlPWMOutputs
