ARM GAS  C:\Users\jsyoon\AppData\Local\Temp\cc51thSB.s 			page 1


   1              		.syntax unified
   2              		.cpu cortex-m4
   3              		.eabi_attribute 27, 3
   4              		.eabi_attribute 28, 1
   5              		.fpu fpv4-sp-d16
   6              		.eabi_attribute 20, 1
   7              		.eabi_attribute 21, 1
   8              		.eabi_attribute 23, 3
   9              		.eabi_attribute 24, 1
  10              		.eabi_attribute 25, 1
  11              		.eabi_attribute 26, 1
  12              		.eabi_attribute 30, 2
  13              		.eabi_attribute 34, 1
  14              		.eabi_attribute 18, 4
  15              		.thumb
  16              		.file	"ws2811.c"
  17              		.text
  18              	.Ltext0:
  19              		.cfi_sections	.debug_frame
  20              		.section	.text.ws2811_init,"ax",%progbits
  21              		.align	2
  22              		.p2align 4,,15
  23              		.global	ws2811_init
  24              		.thumb
  25              		.thumb_func
  26              		.type	ws2811_init, %function
  27              	ws2811_init:
  28              	.LFB118:
  29              		.file 1 "ws2811.c"
  30              		.loc 1 47 0
  31              		.cfi_startproc
  32              		@ args = 0, pretend = 0, frame = 96
  33              		@ frame_needed = 0, uses_anonymous_args = 0
  34              	.LVL0:
  35 0000 2DE9F04F 		push	{r4, r5, r6, r7, r8, r9, r10, fp, lr}
  36              		.cfi_def_cfa_offset 36
  37              		.cfi_offset 4, -36
  38              		.cfi_offset 5, -32
  39              		.cfi_offset 6, -28
  40              		.cfi_offset 7, -24
  41              		.cfi_offset 8, -20
  42              		.cfi_offset 9, -16
  43              		.cfi_offset 10, -12
  44              		.cfi_offset 11, -8
  45              		.cfi_offset 14, -4
  46 0004 2DED028B 		fstmfdd	sp!, {d8}
  47              		.cfi_def_cfa_offset 44
  48              		.cfi_offset 80, -44
  49 0008 DFF8B081 		ldr	r8, .L19+32
  50 000c 99B0     		sub	sp, sp, #100
  51              		.cfi_def_cfa_offset 144
  52              		.loc 1 56 0
  53 000e 0022     		movs	r2, #0
  54              		.loc 1 47 0
  55 0010 A8F13C03 		sub	r3, r8, #60
  56              	.LVL1:
  57              	.L3:
ARM GAS  C:\Users\jsyoon\AppData\Local\Temp\cc51thSB.s 			page 2


  58              		.loc 1 56 0 discriminator 2
  59 0014 43F8042F 		str	r2, [r3, #4]!
  60              		.loc 1 55 0 discriminator 2
  61 0018 4345     		cmp	r3, r8
  62 001a FBD1     		bne	.L3
  63 001c 5F4E     		ldr	r6, .L19
  64              		.loc 1 55 0 is_stmt 0
  65 001e DFF8A0C1 		ldr	ip, .L19+36
  66 0022 5F4D     		ldr	r5, .L19+4
  67 0024 06F13009 		add	r9, r6, #48
  68 0028 4FF0000E 		mov	lr, #0
  69              	.LBB12:
  70              		.loc 1 66 0 is_stmt 1
  71 002c 1424     		movs	r4, #20
  72              		.loc 1 64 0
  73 002e 5320     		movs	r0, #83
  74              	.L9:
  75              		.loc 1 60 0
  76 0030 5CF8043F 		ldr	r3, [ip, #4]!
  77              	.LVL2:
  78 0034 594F     		ldr	r7, .L19
  79              	.LBB13:
  80              	.LBB14:
  81              		.loc 1 230 0
  82 0036 C3F30742 		ubfx	r2, r3, #16, #8
  83              		.loc 1 231 0
  84 003a C3F30721 		ubfx	r1, r3, #8, #8
  85              		.loc 1 234 0
  86 003e AA5C     		ldrb	r2, [r5, r2]	@ zero_extendqisi2
  87              	.LVL3:
  88              		.loc 1 235 0
  89 0040 695C     		ldrb	r1, [r5, r1]	@ zero_extendqisi2
  90              	.LVL4:
  91              		.loc 1 232 0
  92 0042 DBB2     		uxtb	r3, r3
  93              	.LVL5:
  94              		.loc 1 238 0
  95 0044 1202     		lsls	r2, r2, #8
  96              	.LVL6:
  97              		.loc 1 236 0
  98 0046 EB5C     		ldrb	r3, [r5, r3]	@ zero_extendqisi2
  99              	.LVL7:
 100              		.loc 1 238 0
 101 0048 42EA0142 		orr	r2, r2, r1, lsl #16
 102 004c 1A43     		orrs	r2, r2, r3
 103              	.LVL8:
 104 004e 09EB0E01 		add	r1, r9, lr
 105              	.LVL9:
 106 0052 06EB0E03 		add	r3, r6, lr
 107              	.LVL10:
 108              	.L7:
 109              	.LBE14:
 110              	.LBE13:
 111              		.loc 1 63 0
 112 0056 12F4000F 		tst	r2, #8388608
 113              		.loc 1 64 0
 114 005a 14BF     		ite	ne
ARM GAS  C:\Users\jsyoon\AppData\Local\Temp\cc51thSB.s 			page 3


 115 005c 1880     		strhne	r0, [r3]	@ movhi
 116              		.loc 1 66 0
 117 005e 1C80     		strheq	r4, [r3]	@ movhi
 118 0060 0233     		adds	r3, r3, #2
 119              		.loc 1 62 0
 120 0062 9942     		cmp	r1, r3
 121              		.loc 1 68 0
 122 0064 4FEA4202 		lsl	r2, r2, #1
 123              	.LVL11:
 124              		.loc 1 62 0
 125 0068 F5D1     		bne	.L7
 126              	.LBE12:
 127              		.loc 1 59 0
 128 006a E045     		cmp	r8, ip
 129 006c 0EF1300E 		add	lr, lr, #48
 130 0070 DED1     		bne	.L9
 131 0072 4C4B     		ldr	r3, .L19+8
 132              		.loc 1 75 0
 133 0074 0021     		movs	r1, #0
 134 0076 03F16402 		add	r2, r3, #100
 135              	.LVL12:
 136              	.L11:
 137              		.loc 1 75 0 is_stmt 0 discriminator 2
 138 007a 23F8021F 		strh	r1, [r3, #2]!	@ movhi
 139              		.loc 1 74 0 is_stmt 1 discriminator 2
 140 007e 9342     		cmp	r3, r2
 141 0080 FBD1     		bne	.L11
 142              	.LBB15:
 143              		.loc 1 80 0
 144 0082 9FED498A 		flds	s16, .L19+12
 145              	.LBE15:
 146              		.loc 1 74 0
 147 0086 0024     		movs	r4, #0
 148              	.LVL13:
 149              	.L13:
 150              	.LBB16:
 151              		.loc 1 80 0 discriminator 2
 152 0088 07EE904A 		fmsr	s15, r4	@ int
 153 008c B8EEE70A 		fsitos	s0, s15
 154 0090 DFED460A 		flds	s1, .L19+16
 155 0094 80EE080A 		fdivs	s0, s0, s16
 156 0098 FFF7FEFF 		bl	powf
 157              	.LVL14:
 158 009c 20EE080A 		fmuls	s0, s0, s16
 159 00a0 FFF7FEFF 		bl	roundf
 160              	.LVL15:
 161 00a4 BDEEC00A 		ftosizs	s0, s0
 162 00a8 10EE103A 		fmrs	r3, s0	@ int
 163 00ac 2B55     		strb	r3, [r5, r4]
 164              		.loc 1 79 0 discriminator 2
 165 00ae 0134     		adds	r4, r4, #1
 166              	.LVL16:
 167 00b0 B4F5807F 		cmp	r4, #256
 168 00b4 E8D1     		bne	.L13
 169              	.LBE16:
 170              		.loc 1 84 0
 171 00b6 4FF48772 		mov	r2, #270
ARM GAS  C:\Users\jsyoon\AppData\Local\Temp\cc51thSB.s 			page 4


 172 00ba 3D48     		ldr	r0, .L19+20
 173              		.loc 1 100 0
 174 00bc DFF804A1 		ldr	r10, .L19+40
 175              		.loc 1 84 0
 176 00c0 8021     		movs	r1, #128
 177 00c2 FFF7FEFF 		bl	_pal_lld_setgroupmode
 178              	.LVL17:
 179              		.loc 1 96 0
 180 00c6 0121     		movs	r1, #1
 181 00c8 4FF40010 		mov	r0, #2097152
 182 00cc FFF7FEFF 		bl	RCC_AHB1PeriphClockCmd
 183              	.LVL18:
 184              		.loc 1 99 0
 185 00d0 3848     		ldr	r0, .L19+24
 186 00d2 FFF7FEFF 		bl	DMA_DeInit
 187              	.LVL19:
 188              		.loc 1 109 0
 189 00d6 0025     		movs	r5, #0
 190              		.loc 1 111 0
 191 00d8 4FF4006C 		mov	ip, #2048
 192              		.loc 1 112 0
 193 00dc 4FF4005E 		mov	lr, #8192
 194              		.loc 1 114 0
 195 00e0 4FF40032 		mov	r2, #131072
 196              		.loc 1 116 0
 197 00e4 0323     		movs	r3, #3
 198              		.loc 1 106 0
 199 00e6 0B97     		str	r7, [sp, #44]
 200              		.loc 1 121 0
 201 00e8 09A9     		add	r1, sp, #36
 202              		.loc 1 110 0
 203 00ea 4FF48067 		mov	r7, #1024
 204              		.loc 1 121 0
 205 00ee 3148     		ldr	r0, .L19+24
 206              		.loc 1 111 0
 207 00f0 CDF840C0 		str	ip, [sp, #64]
 208              		.loc 1 105 0
 209 00f4 4FF0806B 		mov	fp, #67108864
 210              		.loc 1 107 0
 211 00f8 4FF04009 		mov	r9, #64
 212              		.loc 1 108 0
 213 00fc 4FF4CD78 		mov	r8, #410
 214              		.loc 1 112 0
 215 0100 CDF844E0 		str	lr, [sp, #68]
 216              		.loc 1 114 0
 217 0104 1392     		str	r2, [sp, #76]
 218              		.loc 1 116 0
 219 0106 1593     		str	r3, [sp, #84]
 220              		.loc 1 113 0
 221 0108 1294     		str	r4, [sp, #72]
 222              		.loc 1 100 0
 223 010a CDF828A0 		str	r10, [sp, #40]
 224              		.loc 1 105 0
 225 010e CDF824B0 		str	fp, [sp, #36]
 226              		.loc 1 107 0
 227 0112 CDF83090 		str	r9, [sp, #48]
 228              		.loc 1 108 0
ARM GAS  C:\Users\jsyoon\AppData\Local\Temp\cc51thSB.s 			page 5


 229 0116 CDF83480 		str	r8, [sp, #52]
 230              		.loc 1 109 0
 231 011a 0E95     		str	r5, [sp, #56]
 232              		.loc 1 115 0
 233 011c 1495     		str	r5, [sp, #80]
 234              		.loc 1 117 0
 235 011e 1695     		str	r5, [sp, #88]
 236              		.loc 1 118 0
 237 0120 1795     		str	r5, [sp, #92]
 238              		.loc 1 110 0
 239 0122 0F97     		str	r7, [sp, #60]
 240              		.loc 1 121 0
 241 0124 FFF7FEFF 		bl	DMA_Init
 242              	.LVL20:
 243              		.loc 1 126 0
 244 0128 0420     		movs	r0, #4
 245 012a 0121     		movs	r1, #1
 246 012c FFF7FEFF 		bl	RCC_APB1PeriphClockCmd
 247              	.LVL21:
 248              		.loc 1 131 0
 249 0130 6823     		movs	r3, #104
 250              		.loc 1 135 0
 251 0132 01A9     		add	r1, sp, #4
 252 0134 2048     		ldr	r0, .L19+28
 253              		.loc 1 131 0
 254 0136 0293     		str	r3, [sp, #8]
 255              		.loc 1 139 0
 256 0138 0124     		movs	r4, #1
 257              	.LVL22:
 258              		.loc 1 129 0
 259 013a ADF80450 		strh	r5, [sp, #4]	@ movhi
 260              		.loc 1 130 0
 261 013e ADF80650 		strh	r5, [sp, #6]	@ movhi
 262              		.loc 1 132 0
 263 0142 ADF80C50 		strh	r5, [sp, #12]	@ movhi
 264              		.loc 1 133 0
 265 0146 8DF80E50 		strb	r5, [sp, #14]
 266              		.loc 1 135 0
 267 014a FFF7FEFF 		bl	TIM_TimeBaseInit
 268              	.LVL23:
 269              		.loc 1 138 0
 270 014e 6023     		movs	r3, #96
 271              		.loc 1 140 0
 272 0150 3288     		ldrh	r2, [r6]
 273              		.loc 1 144 0
 274 0152 1948     		ldr	r0, .L19+28
 275              		.loc 1 138 0
 276 0154 ADF81030 		strh	r3, [sp, #16]	@ movhi
 277              		.loc 1 144 0
 278 0158 04A9     		add	r1, sp, #16
 279              		.loc 1 140 0
 280 015a 0692     		str	r2, [sp, #24]
 281              		.loc 1 141 0
 282 015c ADF81C50 		strh	r5, [sp, #28]	@ movhi
 283              		.loc 1 139 0
 284 0160 ADF81240 		strh	r4, [sp, #18]	@ movhi
 285              		.loc 1 144 0
ARM GAS  C:\Users\jsyoon\AppData\Local\Temp\cc51thSB.s 			page 6


 286 0164 FFF7FEFF 		bl	TIM_OC2Init
 287              	.LVL24:
 288              		.loc 1 145 0
 289 0168 1348     		ldr	r0, .L19+28
 290 016a 0821     		movs	r1, #8
 291 016c FFF7FEFF 		bl	TIM_OC2PreloadConfig
 292              	.LVL25:
 293              		.loc 1 152 0
 294 0170 2146     		mov	r1, r4
 295 0172 1148     		ldr	r0, .L19+28
 296 0174 FFF7FEFF 		bl	TIM_Cmd
 297              	.LVL26:
 298              		.loc 1 156 0
 299 0178 2146     		mov	r1, r4
 300 017a 0E48     		ldr	r0, .L19+24
 301 017c FFF7FEFF 		bl	DMA_Cmd
 302              	.LVL27:
 303              		.loc 1 163 0
 304 0180 3946     		mov	r1, r7
 305 0182 2246     		mov	r2, r4
 306 0184 0C48     		ldr	r0, .L19+28
 307 0186 FFF7FEFF 		bl	TIM_DMACmd
 308              	.LVL28:
 309              		.loc 1 169 0
 310 018a 2146     		mov	r1, r4
 311 018c 0A48     		ldr	r0, .L19+28
 312 018e FFF7FEFF 		bl	TIM_CtrlPWMOutputs
 313              	.LVL29:
 314              		.loc 1 170 0
 315 0192 19B0     		add	sp, sp, #100
 316              		@ sp needed
 317 0194 BDEC028B 		fldmfdd	sp!, {d8}
 318 0198 BDE8F08F 		pop	{r4, r5, r6, r7, r8, r9, r10, fp, pc}
 319              	.L20:
 320              		.align	2
 321              	.L19:
 322 019c 00000000 		.word	.LANCHOR2
 323 01a0 00000000 		.word	.LANCHOR1
 324 01a4 CC020000 		.word	.LANCHOR2+716
 325 01a8 00007F43 		.word	1132396544
 326 01ac E4380E40 		.word	1074673892
 327 01b0 00040240 		.word	1073873920
 328 01b4 58600240 		.word	1073897560
 329 01b8 00080040 		.word	1073743872
 330 01bc 38000000 		.word	.LANCHOR0+56
 331 01c0 FCFFFFFF 		.word	.LANCHOR0-4
 332 01c4 38080040 		.word	1073743928
 333              		.cfi_endproc
 334              	.LFE118:
 335              		.size	ws2811_init, .-ws2811_init
 336 01c8 AFF30080 		.section	.text.ws2811_set_led_color,"ax",%progbits
 336      AFF30080 
 337              		.align	2
 338              		.p2align 4,,15
 339              		.global	ws2811_set_led_color
 340              		.thumb
 341              		.thumb_func
ARM GAS  C:\Users\jsyoon\AppData\Local\Temp\cc51thSB.s 			page 7


 342              		.type	ws2811_set_led_color, %function
 343              	ws2811_set_led_color:
 344              	.LFB119:
 345              		.loc 1 172 0
 346              		.cfi_startproc
 347              		@ args = 0, pretend = 0, frame = 0
 348              		@ frame_needed = 0, uses_anonymous_args = 0
 349              		@ link register save eliminated.
 350              	.LVL30:
 351              		.loc 1 173 0
 352 0000 0D28     		cmp	r0, #13
 353              		.loc 1 172 0
 354 0002 F0B4     		push	{r4, r5, r6, r7}
 355              		.cfi_def_cfa_offset 16
 356              		.cfi_offset 4, -16
 357              		.cfi_offset 5, -12
 358              		.cfi_offset 6, -8
 359              		.cfi_offset 7, -4
 360              		.loc 1 173 0
 361 0004 28DC     		bgt	.L21
 362              	.LBB17:
 363              	.LBB18:
 364              	.LBB19:
 365              		.loc 1 234 0
 366 0006 154C     		ldr	r4, .L28
 367              	.LBE19:
 368              	.LBE18:
 369              		.loc 1 174 0
 370 0008 154E     		ldr	r6, .L28+4
 371 000a 164B     		ldr	r3, .L28+8
 372 000c 46F82010 		str	r1, [r6, r0, lsl #2]
 373              	.LVL31:
 374              	.LBB22:
 375              	.LBB20:
 376              		.loc 1 230 0
 377 0010 C1F30742 		ubfx	r2, r1, #16, #8
 378              		.loc 1 231 0
 379 0014 C1F30725 		ubfx	r5, r1, #8, #8
 380              		.loc 1 234 0
 381 0018 A25C     		ldrb	r2, [r4, r2]	@ zero_extendqisi2
 382              	.LVL32:
 383              		.loc 1 235 0
 384 001a 655D     		ldrb	r5, [r4, r5]	@ zero_extendqisi2
 385              	.LVL33:
 386              		.loc 1 232 0
 387 001c C9B2     		uxtb	r1, r1
 388              	.LVL34:
 389              	.LBE20:
 390              	.LBE22:
 391              		.loc 1 181 0
 392 001e 00EB4000 		add	r0, r0, r0, lsl #1
 393              	.LVL35:
 394              	.LBB23:
 395              	.LBB21:
 396              		.loc 1 236 0
 397 0022 615C     		ldrb	r1, [r4, r1]	@ zero_extendqisi2
 398              	.LVL36:
ARM GAS  C:\Users\jsyoon\AppData\Local\Temp\cc51thSB.s 			page 8


 399              		.loc 1 238 0
 400 0024 1202     		lsls	r2, r2, #8
 401              	.LVL37:
 402 0026 42EA0542 		orr	r2, r2, r5, lsl #16
 403 002a 03F13004 		add	r4, r3, #48
 404              	.LVL38:
 405 002e 0501     		lsls	r5, r0, #4
 406              	.LVL39:
 407 0030 0A43     		orrs	r2, r2, r1
 408              	.LVL40:
 409 0032 2C44     		add	r4, r4, r5
 410 0034 2B44     		add	r3, r3, r5
 411 0036 6842     		negs	r0, r5
 412              	.LBE21:
 413              	.LBE23:
 414              		.loc 1 183 0
 415 0038 1427     		movs	r7, #20
 416              		.loc 1 181 0
 417 003a 5326     		movs	r6, #83
 418              	.LVL41:
 419              	.L26:
 420              		.loc 1 180 0
 421 003c 12F4000F 		tst	r2, #8388608
 422 0040 03EB0001 		add	r1, r3, r0
 423              		.loc 1 181 0
 424 0044 18BF     		it	ne
 425 0046 1E80     		strhne	r6, [r3]	@ movhi
 426 0048 03F10203 		add	r3, r3, #2
 427              		.loc 1 183 0
 428 004c 08BF     		it	eq
 429 004e 4F53     		strheq	r7, [r1, r5]	@ movhi
 430              		.loc 1 179 0
 431 0050 A342     		cmp	r3, r4
 432              		.loc 1 185 0
 433 0052 4FEA4202 		lsl	r2, r2, #1
 434              	.LVL42:
 435              		.loc 1 179 0
 436 0056 F1D1     		bne	.L26
 437              	.LVL43:
 438              	.L21:
 439              	.LBE17:
 440              		.loc 1 188 0
 441 0058 F0BC     		pop	{r4, r5, r6, r7}
 442 005a 7047     		bx	lr
 443              	.L29:
 444              		.align	2
 445              	.L28:
 446 005c 00000000 		.word	.LANCHOR1
 447 0060 00000000 		.word	.LANCHOR0
 448 0064 00000000 		.word	.LANCHOR2
 449              		.cfi_endproc
 450              	.LFE119:
 451              		.size	ws2811_set_led_color, .-ws2811_set_led_color
 452 0068 AFF30080 		.section	.text.ws2811_get_led_color,"ax",%progbits
 452      AFF30080 
 453              		.align	2
 454              		.p2align 4,,15
ARM GAS  C:\Users\jsyoon\AppData\Local\Temp\cc51thSB.s 			page 9


 455              		.global	ws2811_get_led_color
 456              		.thumb
 457              		.thumb_func
 458              		.type	ws2811_get_led_color, %function
 459              	ws2811_get_led_color:
 460              	.LFB120:
 461              		.loc 1 190 0
 462              		.cfi_startproc
 463              		@ args = 0, pretend = 0, frame = 0
 464              		@ frame_needed = 0, uses_anonymous_args = 0
 465              		@ link register save eliminated.
 466              	.LVL44:
 467              		.loc 1 191 0
 468 0000 0D28     		cmp	r0, #13
 469              		.loc 1 192 0
 470 0002 DABF     		itte	le
 471 0004 024B     		ldrle	r3, .L33
 472 0006 53F82000 		ldrle	r0, [r3, r0, lsl #2]
 473              	.LVL45:
 474              		.loc 1 195 0
 475 000a 0020     		movgt	r0, #0
 476              		.loc 1 196 0
 477 000c 7047     		bx	lr
 478              	.L34:
 479 000e 00BF     		.align	2
 480              	.L33:
 481 0010 00000000 		.word	.LANCHOR0
 482              		.cfi_endproc
 483              	.LFE120:
 484              		.size	ws2811_get_led_color, .-ws2811_get_led_color
 485 0014 AFF30080 		.section	.text.ws2811_all_off,"ax",%progbits
 485      AFF30080 
 485      AFF30080 
 486              		.align	2
 487              		.p2align 4,,15
 488              		.global	ws2811_all_off
 489              		.thumb
 490              		.thumb_func
 491              		.type	ws2811_all_off, %function
 492              	ws2811_all_off:
 493              	.LFB121:
 494              		.loc 1 198 0
 495              		.cfi_startproc
 496              		@ args = 0, pretend = 0, frame = 0
 497              		@ frame_needed = 0, uses_anonymous_args = 0
 498              		@ link register save eliminated.
 499              	.LVL46:
 500 0000 084B     		ldr	r3, .L42
 501              		.loc 1 202 0
 502 0002 0021     		movs	r1, #0
 503 0004 03F13802 		add	r2, r3, #56
 504              	.LVL47:
 505              	.L37:
 506              		.loc 1 202 0 is_stmt 0 discriminator 2
 507 0008 43F8041F 		str	r1, [r3, #4]!
 508              		.loc 1 201 0 is_stmt 1 discriminator 2
 509 000c 9342     		cmp	r3, r2
ARM GAS  C:\Users\jsyoon\AppData\Local\Temp\cc51thSB.s 			page 10


 510 000e FBD1     		bne	.L37
 511 0010 054B     		ldr	r3, .L42+4
 512              		.loc 1 206 0
 513 0012 1421     		movs	r1, #20
 514 0014 03F52872 		add	r2, r3, #672
 515              	.L39:
 516              		.loc 1 206 0 is_stmt 0 discriminator 2
 517 0018 23F8021F 		strh	r1, [r3, #2]!	@ movhi
 518              		.loc 1 205 0 is_stmt 1 discriminator 2
 519 001c 9342     		cmp	r3, r2
 520 001e FBD1     		bne	.L39
 521              		.loc 1 208 0
 522 0020 7047     		bx	lr
 523              	.L43:
 524 0022 00BF     		.align	2
 525              	.L42:
 526 0024 FCFFFFFF 		.word	.LANCHOR0-4
 527 0028 FEFFFFFF 		.word	.LANCHOR2-2
 528              		.cfi_endproc
 529              	.LFE121:
 530              		.size	ws2811_all_off, .-ws2811_all_off
 531 002c AFF30080 		.section	.text.ws2811_set_all,"ax",%progbits
 532              		.align	2
 533              		.p2align 4,,15
 534              		.global	ws2811_set_all
 535              		.thumb
 536              		.thumb_func
 537              		.type	ws2811_set_all, %function
 538              	ws2811_set_all:
 539              	.LFB122:
 540              		.loc 1 210 0
 541              		.cfi_startproc
 542              		@ args = 0, pretend = 0, frame = 0
 543              		@ frame_needed = 0, uses_anonymous_args = 0
 544              		@ link register save eliminated.
 545              	.LVL48:
 546 0000 2DE9F007 		push	{r4, r5, r6, r7, r8, r9, r10}
 547              		.cfi_def_cfa_offset 28
 548              		.cfi_offset 4, -28
 549              		.cfi_offset 5, -24
 550              		.cfi_offset 6, -20
 551              		.cfi_offset 7, -16
 552              		.cfi_offset 8, -12
 553              		.cfi_offset 9, -8
 554              		.cfi_offset 10, -4
 555 0004 184B     		ldr	r3, .L53
 556 0006 194F     		ldr	r7, .L53+4
 557 0008 DFF864C0 		ldr	ip, .L53+8
 558 000c C0F30742 		ubfx	r2, r0, #16, #8
 559 0010 C0F30724 		ubfx	r4, r0, #8, #8
 560 0014 9A5C     		ldrb	r2, [r3, r2]	@ zero_extendqisi2
 561 0016 13F804A0 		ldrb	r10, [r3, r4]	@ zero_extendqisi2
 562 001a C1B2     		uxtb	r1, r0
 563 001c 1202     		lsls	r2, r2, #8
 564 001e 5B5C     		ldrb	r3, [r3, r1]	@ zero_extendqisi2
 565 0020 42EA0A4A 		orr	r10, r2, r10, lsl #16
 566 0024 4AEA030A 		orr	r10, r10, r3
ARM GAS  C:\Users\jsyoon\AppData\Local\Temp\cc51thSB.s 			page 11


 567 0028 07F13809 		add	r9, r7, #56
 568 002c 0CF13008 		add	r8, ip, #48
 569              		.loc 1 210 0
 570 0030 0026     		movs	r6, #0
 571              	.LBB24:
 572              		.loc 1 222 0
 573 0032 1425     		movs	r5, #20
 574              		.loc 1 220 0
 575 0034 5324     		movs	r4, #83
 576              	.LVL49:
 577              	.L50:
 578              		.loc 1 214 0
 579 0036 47F8040F 		str	r0, [r7, #4]!
 580              	.LVL50:
 581 003a 08EB0601 		add	r1, r8, r6
 582 003e 0CEB0603 		add	r3, ip, r6
 583              		.loc 1 216 0
 584 0042 5246     		mov	r2, r10
 585              	.LVL51:
 586              	.L48:
 587              		.loc 1 219 0
 588 0044 12F4000F 		tst	r2, #8388608
 589              		.loc 1 220 0
 590 0048 14BF     		ite	ne
 591 004a 1C80     		strhne	r4, [r3]	@ movhi
 592              		.loc 1 222 0
 593 004c 1D80     		strheq	r5, [r3]	@ movhi
 594 004e 0233     		adds	r3, r3, #2
 595              		.loc 1 218 0
 596 0050 8B42     		cmp	r3, r1
 597              		.loc 1 224 0
 598 0052 4FEA4202 		lsl	r2, r2, #1
 599              	.LVL52:
 600              		.loc 1 218 0
 601 0056 F5D1     		bne	.L48
 602              	.LBE24:
 603              		.loc 1 213 0
 604 0058 4F45     		cmp	r7, r9
 605 005a 06F13006 		add	r6, r6, #48
 606 005e EAD1     		bne	.L50
 607              		.loc 1 227 0
 608 0060 BDE8F007 		pop	{r4, r5, r6, r7, r8, r9, r10}
 609 0064 7047     		bx	lr
 610              	.L54:
 611 0066 00BF     		.align	2
 612              	.L53:
 613 0068 00000000 		.word	.LANCHOR1
 614 006c FCFFFFFF 		.word	.LANCHOR0-4
 615 0070 00000000 		.word	.LANCHOR2
 616              		.cfi_endproc
 617              	.LFE122:
 618              		.size	ws2811_set_all, .-ws2811_set_all
 619 0074 AFF30080 		.section	.bss.RGBdata,"aw",%nobits
 619      AFF30080 
 619      AFF30080 
 620              		.align	2
 621              		.set	.LANCHOR0,. + 0
ARM GAS  C:\Users\jsyoon\AppData\Local\Temp\cc51thSB.s 			page 12


 622              		.type	RGBdata, %object
 623              		.size	RGBdata, 60
 624              	RGBdata:
 625 0000 00000000 		.space	60
 625      00000000 
 625      00000000 
 625      00000000 
 625      00000000 
 626              		.section	.bss.bitbuffer,"aw",%nobits
 627              		.align	2
 628              		.set	.LANCHOR2,. + 0
 629              		.type	bitbuffer, %object
 630              		.size	bitbuffer, 820
 631              	bitbuffer:
 632 0000 00000000 		.space	820
 632      00000000 
 632      00000000 
 632      00000000 
 632      00000000 
 633              		.section	.bss.gamma_table,"aw",%nobits
 634              		.align	2
 635              		.set	.LANCHOR1,. + 0
 636              		.type	gamma_table, %object
 637              		.size	gamma_table, 256
 638              	gamma_table:
 639 0000 00000000 		.space	256
 639      00000000 
 639      00000000 
 639      00000000 
 639      00000000 
 640              		.text
 641              	.Letext0:
 642              		.file 2 "c:\\crosstools\\gcc-arm-embedded\\4.8_2014q2\\arm-none-eabi\\include\\machine\\_default_t
 643              		.file 3 "c:\\crosstools\\gcc-arm-embedded\\4.8_2014q2\\arm-none-eabi\\include\\stdint.h"
 644              		.file 4 "ChibiOS_2.6.6/os/hal/platforms/STM32F4xx/stm32f4xx.h"
 645              		.file 5 "ChibiOS_2.6.6/ext/stdperiph_stm32f4/inc/stm32f4xx_dma.h"
 646              		.file 6 "ChibiOS_2.6.6/ext/stdperiph_stm32f4/inc/stm32f4xx_tim.h"
 647              		.file 7 "ChibiOS_2.6.6/os/hal/platforms/STM32/GPIOv2/pal_lld.h"
 648              		.file 8 "c:\\crosstools\\gcc-arm-embedded\\4.8_2014q2\\arm-none-eabi\\include\\math.h"
 649              		.file 9 "ChibiOS_2.6.6/ext/stdperiph_stm32f4/inc/stm32f4xx_rcc.h"
 650              		.file 10 "ChibiOS_2.6.6/os/ports/common/ARMCMx/CMSIS/include/core_cm4.h"