ARM GAS  /var/folders/7z/kps_xzfj7sn5l5gkyq8s9db00000gn/T//ccMbSsTb.s 			page 1


   1              		.syntax unified
   2              		.cpu cortex-m4
   3              		.eabi_attribute 27, 1
   4              		.eabi_attribute 28, 1
   5              		.fpu fpv4-sp-d16
   6              		.eabi_attribute 20, 1
   7              		.eabi_attribute 21, 1
   8              		.eabi_attribute 23, 3
   9              		.eabi_attribute 24, 1
  10              		.eabi_attribute 25, 1
  11              		.eabi_attribute 26, 1
  12              		.eabi_attribute 30, 2
  13              		.eabi_attribute 34, 1
  14              		.eabi_attribute 18, 4
  15              		.thumb
  16              		.file	"chcond.c"
  17              		.text
  18              	.Ltext0:
  19              		.cfi_sections	.debug_frame
  20              		.section	.text.chCondInit,"ax",%progbits
  21              		.align	2
  22              		.p2align 4,,15
  23              		.global	chCondInit
  24              		.thumb
  25              		.thumb_func
  26              		.type	chCondInit, %function
  27              	chCondInit:
  28              	.LFB7:
  29              		.file 1 "lib/ChibiOS_2.6.6/os/kernel/src/chcond.c"
  30              		.loc 1 59 0
  31              		.cfi_startproc
  32              		@ args = 0, pretend = 0, frame = 0
  33              		@ frame_needed = 0, uses_anonymous_args = 0
  34              		@ link register save eliminated.
  35              	.LVL0:
  36              		.loc 1 63 0
  37 0000 4060     		str	r0, [r0, #4]
  38 0002 0060     		str	r0, [r0]
  39 0004 7047     		bx	lr
  40              		.cfi_endproc
  41              	.LFE7:
  42              		.size	chCondInit, .-chCondInit
  43 0006 00BFAFF3 		.section	.text.chCondSignal,"ax",%progbits
  43      0080AFF3 
  43      0080
  44              		.align	2
  45              		.p2align 4,,15
  46              		.global	chCondSignal
  47              		.thumb
  48              		.thumb_func
  49              		.type	chCondSignal, %function
  50              	chCondSignal:
  51              	.LFB8:
  52              		.loc 1 73 0
  53              		.cfi_startproc
  54              		@ args = 0, pretend = 0, frame = 0
  55              		@ frame_needed = 0, uses_anonymous_args = 0
ARM GAS  /var/folders/7z/kps_xzfj7sn5l5gkyq8s9db00000gn/T//ccMbSsTb.s 			page 2


  56              	.LVL1:
  57              		.loc 1 77 0
  58              	@ 77 "lib/ChibiOS_2.6.6/os/kernel/src/chcond.c" 1
  59 0000 72B6     		cpsid   i
  60              	@ 0 "" 2
  61              		.loc 1 78 0
  62              		.thumb
  63 0002 0268     		ldr	r2, [r0]
  64 0004 8242     		cmp	r2, r0
  65 0006 0AD0     		beq	.L5
  66              	.LBB12:
  67              	.LBB13:
  68              		.file 2 "lib/ChibiOS_2.6.6/os/kernel/include/chinline.h"
  69              		.loc 2 62 0
  70 0008 1168     		ldr	r1, [r2]
  71              	.LBE13:
  72              	.LBE12:
  73              		.loc 1 73 0
  74 000a 08B5     		push	{r3, lr}
  75              		.cfi_def_cfa_offset 8
  76              		.cfi_offset 3, -8
  77              		.cfi_offset 14, -4
  78 000c 0346     		mov	r3, r0
  79              	.LVL2:
  80              	.LBB15:
  81              	.LBB14:
  82              		.loc 2 62 0
  83 000e 0160     		str	r1, [r0]
  84 0010 4B60     		str	r3, [r1, #4]
  85              	.LBE14:
  86              	.LBE15:
  87              		.loc 1 79 0
  88 0012 1046     		mov	r0, r2
  89              	.LVL3:
  90 0014 0021     		movs	r1, #0
  91 0016 FFF7FEFF 		bl	chSchWakeupS
  92              	.LVL4:
  93              		.loc 1 80 0
  94              	@ 80 "lib/ChibiOS_2.6.6/os/kernel/src/chcond.c" 1
  95 001a 62B6     		cpsie   i
  96              	@ 0 "" 2
  97              		.thumb
  98 001c 08BD     		pop	{r3, pc}
  99              	.LVL5:
 100              	.L5:
 101              		.cfi_def_cfa_offset 0
 102              		.cfi_restore 3
 103              		.cfi_restore 14
 104              	@ 80 "lib/ChibiOS_2.6.6/os/kernel/src/chcond.c" 1
 105 001e 62B6     		cpsie   i
 106              	@ 0 "" 2
 107              		.thumb
 108 0020 7047     		bx	lr
 109              		.cfi_endproc
 110              	.LFE8:
 111              		.size	chCondSignal, .-chCondSignal
 112 0022 00BFAFF3 		.section	.text.chCondSignalI,"ax",%progbits
ARM GAS  /var/folders/7z/kps_xzfj7sn5l5gkyq8s9db00000gn/T//ccMbSsTb.s 			page 3


 112      0080AFF3 
 112      0080AFF3 
 112      0080
 113              		.align	2
 114              		.p2align 4,,15
 115              		.global	chCondSignalI
 116              		.thumb
 117              		.thumb_func
 118              		.type	chCondSignalI, %function
 119              	chCondSignalI:
 120              	.LFB9:
 121              		.loc 1 94 0
 122              		.cfi_startproc
 123              		@ args = 0, pretend = 0, frame = 0
 124              		@ frame_needed = 0, uses_anonymous_args = 0
 125              	.LVL6:
 126              		.loc 1 99 0
 127 0000 0268     		ldr	r2, [r0]
 128 0002 8242     		cmp	r2, r0
 129 0004 0AD0     		beq	.L10
 130              	.LBB16:
 131              	.LBB17:
 132              		.loc 2 62 0
 133 0006 1168     		ldr	r1, [r2]
 134              	.LBE17:
 135              	.LBE16:
 136              		.loc 1 94 0
 137 0008 08B5     		push	{r3, lr}
 138              		.cfi_def_cfa_offset 8
 139              		.cfi_offset 3, -8
 140              		.cfi_offset 14, -4
 141 000a 0346     		mov	r3, r0
 142              	.LVL7:
 143              	.LBB19:
 144              	.LBB18:
 145              		.loc 2 62 0
 146 000c 0160     		str	r1, [r0]
 147 000e 4B60     		str	r3, [r1, #4]
 148              	.LBE18:
 149              	.LBE19:
 150              		.loc 1 100 0
 151 0010 1046     		mov	r0, r2
 152              	.LVL8:
 153 0012 FFF7FEFF 		bl	chSchReadyI
 154              	.LVL9:
 155 0016 0023     		movs	r3, #0
 156 0018 4362     		str	r3, [r0, #36]
 157 001a 08BD     		pop	{r3, pc}
 158              	.LVL10:
 159              	.L10:
 160              		.cfi_def_cfa_offset 0
 161              		.cfi_restore 3
 162              		.cfi_restore 14
 163 001c 7047     		bx	lr
 164              		.cfi_endproc
 165              	.LFE9:
 166              		.size	chCondSignalI, .-chCondSignalI
ARM GAS  /var/folders/7z/kps_xzfj7sn5l5gkyq8s9db00000gn/T//ccMbSsTb.s 			page 4


 167 001e 00BF     		.section	.text.chCondBroadcastI,"ax",%progbits
 168              		.align	2
 169              		.p2align 4,,15
 170              		.global	chCondBroadcastI
 171              		.thumb
 172              		.thumb_func
 173              		.type	chCondBroadcastI, %function
 174              	chCondBroadcastI:
 175              	.LFB11:
 176              		.loc 1 129 0
 177              		.cfi_startproc
 178              		@ args = 0, pretend = 0, frame = 0
 179              		@ frame_needed = 0, uses_anonymous_args = 0
 180              	.LVL11:
 181 0000 38B5     		push	{r3, r4, r5, lr}
 182              		.cfi_def_cfa_offset 16
 183              		.cfi_offset 3, -16
 184              		.cfi_offset 4, -12
 185              		.cfi_offset 5, -8
 186              		.cfi_offset 14, -4
 187              		.loc 1 129 0
 188 0002 0446     		mov	r4, r0
 189              		.loc 1 137 0
 190 0004 0068     		ldr	r0, [r0]
 191              	.LVL12:
 192 0006 A042     		cmp	r0, r4
 193 0008 0AD0     		beq	.L11
 194              		.loc 1 138 0
 195 000a 6FF00105 		mvn	r5, #1
 196              	.L13:
 197              	.LVL13:
 198              	.LBB20:
 199              	.LBB21:
 200              		.loc 2 62 0
 201 000e 0368     		ldr	r3, [r0]
 202 0010 2360     		str	r3, [r4]
 203 0012 5C60     		str	r4, [r3, #4]
 204              	.LBE21:
 205              	.LBE20:
 206              		.loc 1 138 0
 207 0014 FFF7FEFF 		bl	chSchReadyI
 208              	.LVL14:
 209 0018 4562     		str	r5, [r0, #36]
 210              		.loc 1 137 0
 211 001a 2068     		ldr	r0, [r4]
 212 001c A042     		cmp	r0, r4
 213 001e F6D1     		bne	.L13
 214              	.LVL15:
 215              	.L11:
 216 0020 38BD     		pop	{r3, r4, r5, pc}
 217              		.cfi_endproc
 218              	.LFE11:
 219              		.size	chCondBroadcastI, .-chCondBroadcastI
 220 0022 00BFAFF3 		.section	.text.chCondBroadcast,"ax",%progbits
 220      0080AFF3 
 220      0080AFF3 
 220      0080
ARM GAS  /var/folders/7z/kps_xzfj7sn5l5gkyq8s9db00000gn/T//ccMbSsTb.s 			page 5


 221              		.align	2
 222              		.p2align 4,,15
 223              		.global	chCondBroadcast
 224              		.thumb
 225              		.thumb_func
 226              		.type	chCondBroadcast, %function
 227              	chCondBroadcast:
 228              	.LFB10:
 229              		.loc 1 110 0
 230              		.cfi_startproc
 231              		@ args = 0, pretend = 0, frame = 0
 232              		@ frame_needed = 0, uses_anonymous_args = 0
 233              	.LVL16:
 234 0000 08B5     		push	{r3, lr}
 235              		.cfi_def_cfa_offset 8
 236              		.cfi_offset 3, -8
 237              		.cfi_offset 14, -4
 238              		.loc 1 112 0
 239              	@ 112 "lib/ChibiOS_2.6.6/os/kernel/src/chcond.c" 1
 240 0002 72B6     		cpsid   i
 241              	@ 0 "" 2
 242              		.loc 1 113 0
 243              		.thumb
 244 0004 FFF7FEFF 		bl	chCondBroadcastI
 245              	.LVL17:
 246              		.loc 1 114 0
 247 0008 FFF7FEFF 		bl	chSchRescheduleS
 248              	.LVL18:
 249              		.loc 1 115 0
 250              	@ 115 "lib/ChibiOS_2.6.6/os/kernel/src/chcond.c" 1
 251 000c 62B6     		cpsie   i
 252              	@ 0 "" 2
 253              		.thumb
 254 000e 08BD     		pop	{r3, pc}
 255              		.cfi_endproc
 256              	.LFE10:
 257              		.size	chCondBroadcast, .-chCondBroadcast
 258              		.section	.text.chCondWaitS,"ax",%progbits
 259              		.align	2
 260              		.p2align 4,,15
 261              		.global	chCondWaitS
 262              		.thumb
 263              		.thumb_func
 264              		.type	chCondWaitS, %function
 265              	chCondWaitS:
 266              	.LFB13:
 267              		.loc 1 184 0
 268              		.cfi_startproc
 269              		@ args = 0, pretend = 0, frame = 0
 270              		@ frame_needed = 0, uses_anonymous_args = 0
 271              	.LVL19:
 272              		.loc 1 185 0
 273 0000 0F4B     		ldr	r3, .L27
 274              		.loc 1 184 0
 275 0002 70B5     		push	{r4, r5, r6, lr}
 276              		.cfi_def_cfa_offset 16
 277              		.cfi_offset 4, -16
ARM GAS  /var/folders/7z/kps_xzfj7sn5l5gkyq8s9db00000gn/T//ccMbSsTb.s 			page 6


 278              		.cfi_offset 5, -12
 279              		.cfi_offset 6, -8
 280              		.cfi_offset 14, -4
 281              		.loc 1 185 0
 282 0004 9C69     		ldr	r4, [r3, #24]
 283              	.LVL20:
 284              		.loc 1 184 0
 285 0006 0546     		mov	r5, r0
 286              		.loc 1 195 0
 287 0008 FFF7FEFF 		bl	chMtxUnlockS
 288              	.LVL21:
 289              		.loc 1 196 0
 290 000c 6562     		str	r5, [r4, #36]
 291              		.loc 1 195 0
 292 000e 0646     		mov	r6, r0
 293              	.LVL22:
 294              	.LBB22:
 295              	.LBB23:
 296              		.loc 2 43 0
 297 0010 2B46     		mov	r3, r5
 298 0012 03E0     		b	.L21
 299              	.LVL23:
 300              	.L26:
 301              		.loc 2 46 0
 302 0014 9968     		ldr	r1, [r3, #8]
 303 0016 A268     		ldr	r2, [r4, #8]
 304 0018 9142     		cmp	r1, r2
 305 001a 02D3     		bcc	.L22
 306              	.L21:
 307              		.loc 2 45 0
 308 001c 1B68     		ldr	r3, [r3]
 309              	.LVL24:
 310              		.loc 2 46 0
 311 001e 9D42     		cmp	r5, r3
 312 0020 F8D1     		bne	.L26
 313              	.L22:
 314              		.loc 2 48 0
 315 0022 5A68     		ldr	r2, [r3, #4]
 316 0024 6260     		str	r2, [r4, #4]
 317              		.loc 2 47 0
 318 0026 2360     		str	r3, [r4]
 319              	.LBE23:
 320              	.LBE22:
 321              		.loc 1 198 0
 322 0028 0520     		movs	r0, #5
 323              	.LVL25:
 324              	.LBB25:
 325              	.LBB24:
 326              		.loc 2 49 0
 327 002a 5C60     		str	r4, [r3, #4]
 328 002c 1460     		str	r4, [r2]
 329              	.LBE24:
 330              	.LBE25:
 331              		.loc 1 198 0
 332 002e FFF7FEFF 		bl	chSchGoSleepS
 333              	.LVL26:
 334              		.loc 1 199 0
ARM GAS  /var/folders/7z/kps_xzfj7sn5l5gkyq8s9db00000gn/T//ccMbSsTb.s 			page 7


 335 0032 646A     		ldr	r4, [r4, #36]
 336              	.LVL27:
 337              		.loc 1 200 0
 338 0034 3046     		mov	r0, r6
 339 0036 FFF7FEFF 		bl	chMtxLockS
 340              	.LVL28:
 341              		.loc 1 202 0
 342 003a 2046     		mov	r0, r4
 343 003c 70BD     		pop	{r4, r5, r6, pc}
 344              	.LVL29:
 345              	.L28:
 346 003e 00BF     		.align	2
 347              	.L27:
 348 0040 00000000 		.word	rlist
 349              		.cfi_endproc
 350              	.LFE13:
 351              		.size	chCondWaitS, .-chCondWaitS
 352 0044 AFF30080 		.section	.text.chCondWait,"ax",%progbits
 352      AFF30080 
 352      AFF30080 
 353              		.align	2
 354              		.p2align 4,,15
 355              		.global	chCondWait
 356              		.thumb
 357              		.thumb_func
 358              		.type	chCondWait, %function
 359              	chCondWait:
 360              	.LFB12:
 361              		.loc 1 158 0
 362              		.cfi_startproc
 363              		@ args = 0, pretend = 0, frame = 0
 364              		@ frame_needed = 0, uses_anonymous_args = 0
 365              	.LVL30:
 366 0000 08B5     		push	{r3, lr}
 367              		.cfi_def_cfa_offset 8
 368              		.cfi_offset 3, -8
 369              		.cfi_offset 14, -4
 370              		.loc 1 161 0
 371              	@ 161 "lib/ChibiOS_2.6.6/os/kernel/src/chcond.c" 1
 372 0002 72B6     		cpsid   i
 373              	@ 0 "" 2
 374              		.loc 1 162 0
 375              		.thumb
 376 0004 FFF7FEFF 		bl	chCondWaitS
 377              	.LVL31:
 378              		.loc 1 163 0
 379              	@ 163 "lib/ChibiOS_2.6.6/os/kernel/src/chcond.c" 1
 380 0008 62B6     		cpsie   i
 381              	@ 0 "" 2
 382              		.loc 1 165 0
 383              		.thumb
 384 000a 08BD     		pop	{r3, pc}
 385              		.cfi_endproc
 386              	.LFE12:
 387              		.size	chCondWait, .-chCondWait
 388 000c AFF30080 		.section	.text.chCondWaitTimeoutS,"ax",%progbits
 389              		.align	2
ARM GAS  /var/folders/7z/kps_xzfj7sn5l5gkyq8s9db00000gn/T//ccMbSsTb.s 			page 8


 390              		.p2align 4,,15
 391              		.global	chCondWaitTimeoutS
 392              		.thumb
 393              		.thumb_func
 394              		.type	chCondWaitTimeoutS, %function
 395              	chCondWaitTimeoutS:
 396              	.LFB15:
 397              		.loc 1 270 0
 398              		.cfi_startproc
 399              		@ args = 0, pretend = 0, frame = 0
 400              		@ frame_needed = 0, uses_anonymous_args = 0
 401              	.LVL32:
 402 0000 F8B5     		push	{r3, r4, r5, r6, r7, lr}
 403              		.cfi_def_cfa_offset 24
 404              		.cfi_offset 3, -24
 405              		.cfi_offset 4, -20
 406              		.cfi_offset 5, -16
 407              		.cfi_offset 6, -12
 408              		.cfi_offset 7, -8
 409              		.cfi_offset 14, -4
 410              		.loc 1 270 0
 411 0002 0546     		mov	r5, r0
 412 0004 0F46     		mov	r7, r1
 413              		.loc 1 280 0
 414 0006 FFF7FEFF 		bl	chMtxUnlockS
 415              	.LVL33:
 416              		.loc 1 281 0
 417 000a 0F4B     		ldr	r3, .L39
 418 000c 9C69     		ldr	r4, [r3, #24]
 419              		.loc 1 280 0
 420 000e 0646     		mov	r6, r0
 421              	.LVL34:
 422              	.LBB26:
 423              	.LBB27:
 424              		.loc 2 43 0
 425 0010 2B46     		mov	r3, r5
 426              	.LBE27:
 427              	.LBE26:
 428              		.loc 1 281 0
 429 0012 6562     		str	r5, [r4, #36]
 430              	.LVL35:
 431 0014 03E0     		b	.L35
 432              	.LVL36:
 433              	.L32:
 434              	.LBB31:
 435              	.LBB28:
 436              		.loc 2 46 0
 437 0016 9868     		ldr	r0, [r3, #8]
 438 0018 A268     		ldr	r2, [r4, #8]
 439 001a 9042     		cmp	r0, r2
 440 001c 02D3     		bcc	.L36
 441              	.L35:
 442              		.loc 2 45 0
 443 001e 1B68     		ldr	r3, [r3]
 444              	.LVL37:
 445              		.loc 2 46 0
 446 0020 9D42     		cmp	r5, r3
ARM GAS  /var/folders/7z/kps_xzfj7sn5l5gkyq8s9db00000gn/T//ccMbSsTb.s 			page 9


 447 0022 F8D1     		bne	.L32
 448              	.L36:
 449              		.loc 2 48 0
 450 0024 5A68     		ldr	r2, [r3, #4]
 451 0026 6260     		str	r2, [r4, #4]
 452              		.loc 2 47 0
 453 0028 2360     		str	r3, [r4]
 454              	.LBE28:
 455              	.LBE31:
 456              		.loc 1 283 0
 457 002a 3946     		mov	r1, r7
 458              	.LBB32:
 459              	.LBB29:
 460              		.loc 2 49 0
 461 002c 5C60     		str	r4, [r3, #4]
 462              	.LBE29:
 463              	.LBE32:
 464              		.loc 1 283 0
 465 002e 0520     		movs	r0, #5
 466              	.LBB33:
 467              	.LBB30:
 468              		.loc 2 49 0
 469 0030 1460     		str	r4, [r2]
 470              	.LBE30:
 471              	.LBE33:
 472              		.loc 1 283 0
 473 0032 FFF7FEFF 		bl	chSchGoSleepTimeoutS
 474              	.LVL38:
 475              		.loc 1 284 0
 476 0036 431C     		adds	r3, r0, #1
 477              		.loc 1 283 0
 478 0038 0446     		mov	r4, r0
 479              	.LVL39:
 480              		.loc 1 284 0
 481 003a 02D0     		beq	.L34
 482              		.loc 1 285 0
 483 003c 3046     		mov	r0, r6
 484              	.LVL40:
 485 003e FFF7FEFF 		bl	chMtxLockS
 486              	.LVL41:
 487              	.L34:
 488              		.loc 1 287 0
 489 0042 2046     		mov	r0, r4
 490 0044 F8BD     		pop	{r3, r4, r5, r6, r7, pc}
 491              	.LVL42:
 492              	.L40:
 493 0046 00BF     		.align	2
 494              	.L39:
 495 0048 00000000 		.word	rlist
 496              		.cfi_endproc
 497              	.LFE15:
 498              		.size	chCondWaitTimeoutS, .-chCondWaitTimeoutS
 499 004c AFF30080 		.section	.text.chCondWaitTimeout,"ax",%progbits
 500              		.align	2
 501              		.p2align 4,,15
 502              		.global	chCondWaitTimeout
 503              		.thumb
ARM GAS  /var/folders/7z/kps_xzfj7sn5l5gkyq8s9db00000gn/T//ccMbSsTb.s 			page 10


 504              		.thumb_func
 505              		.type	chCondWaitTimeout, %function
 506              	chCondWaitTimeout:
 507              	.LFB14:
 508              		.loc 1 233 0
 509              		.cfi_startproc
 510              		@ args = 0, pretend = 0, frame = 0
 511              		@ frame_needed = 0, uses_anonymous_args = 0
 512              	.LVL43:
 513 0000 08B5     		push	{r3, lr}
 514              		.cfi_def_cfa_offset 8
 515              		.cfi_offset 3, -8
 516              		.cfi_offset 14, -4
 517              		.loc 1 236 0
 518              	@ 236 "lib/ChibiOS_2.6.6/os/kernel/src/chcond.c" 1
 519 0002 72B6     		cpsid   i
 520              	@ 0 "" 2
 521              		.loc 1 237 0
 522              		.thumb
 523 0004 FFF7FEFF 		bl	chCondWaitTimeoutS
 524              	.LVL44:
 525              		.loc 1 238 0
 526              	@ 238 "lib/ChibiOS_2.6.6/os/kernel/src/chcond.c" 1
 527 0008 62B6     		cpsie   i
 528              	@ 0 "" 2
 529              		.loc 1 240 0
 530              		.thumb
 531 000a 08BD     		pop	{r3, pc}
 532              		.cfi_endproc
 533              	.LFE14:
 534              		.size	chCondWaitTimeout, .-chCondWaitTimeout
 535 000c AFF30080 		.text
 536              	.Letext0:
 537              		.file 3 "/Users/Baram/gcc-arm-none-eabi/arm-none-eabi/include/machine/_default_types.h"
 538              		.file 4 "/Users/Baram/gcc-arm-none-eabi/arm-none-eabi/include/stdint.h"
 539              		.file 5 "lib/ChibiOS_2.6.6/os/ports/GCC/ARMCMx/chtypes.h"
 540              		.file 6 "lib/ChibiOS_2.6.6/os/kernel/include/chlists.h"
 541              		.file 7 "lib/ChibiOS_2.6.6/os/kernel/include/chthreads.h"
 542              		.file 8 "lib/ChibiOS_2.6.6/os/ports/GCC/ARMCMx/chcore_v7m.h"
 543              		.file 9 "lib/ChibiOS_2.6.6/os/kernel/include/chschd.h"
 544              		.file 10 "lib/ChibiOS_2.6.6/os/kernel/include/chmtx.h"
 545              		.file 11 "lib/ChibiOS_2.6.6/os/kernel/include/chcond.h"