ARM GAS  /var/folders/7z/kps_xzfj7sn5l5gkyq8s9db00000gn/T//ccLk9ZXD.s 			page 1


   1              		.syntax unified
   2              		.cpu cortex-m4
   3              		.eabi_attribute 27, 1
   4              		.eabi_attribute 28, 1
   5              		.fpu fpv4-sp-d16
   6              		.eabi_attribute 20, 1
   7              		.eabi_attribute 21, 1
   8              		.eabi_attribute 23, 3
   9              		.eabi_attribute 24, 1
  10              		.eabi_attribute 25, 1
  11              		.eabi_attribute 26, 1
  12              		.eabi_attribute 30, 2
  13              		.eabi_attribute 34, 1
  14              		.eabi_attribute 18, 4
  15              		.thumb
  16              		.file	"chmboxes.c"
  17              		.text
  18              	.Ltext0:
  19              		.cfi_sections	.debug_frame
  20              		.section	.text.chMBInit,"ax",%progbits
  21              		.align	2
  22              		.p2align 4,,15
  23              		.global	chMBInit
  24              		.thumb
  25              		.thumb_func
  26              		.type	chMBInit, %function
  27              	chMBInit:
  28              	.LFB7:
  29              		.file 1 "lib/ChibiOS_2.6.6/os/kernel/src/chmboxes.c"
  30              		.loc 1 72 0
  31              		.cfi_startproc
  32              		@ args = 0, pretend = 0, frame = 0
  33              		@ frame_needed = 0, uses_anonymous_args = 0
  34              	.LVL0:
  35 0000 10B5     		push	{r4, lr}
  36              		.cfi_def_cfa_offset 8
  37              		.cfi_offset 4, -8
  38              		.cfi_offset 14, -4
  39              		.loc 1 72 0
  40 0002 0B46     		mov	r3, r1
  41              		.loc 1 77 0
  42 0004 01EB8201 		add	r1, r1, r2, lsl #2
  43              	.LVL1:
  44 0008 4160     		str	r1, [r0, #4]
  45              		.loc 1 72 0
  46 000a 0446     		mov	r4, r0
  47              		.loc 1 76 0
  48 000c C360     		str	r3, [r0, #12]
  49 000e 8360     		str	r3, [r0, #8]
  50 0010 0360     		str	r3, [r0]
  51              		.loc 1 78 0
  52 0012 1146     		mov	r1, r2
  53 0014 1C30     		adds	r0, r0, #28
  54              	.LVL2:
  55 0016 FFF7FEFF 		bl	chSemInit
  56              	.LVL3:
  57              		.loc 1 79 0
ARM GAS  /var/folders/7z/kps_xzfj7sn5l5gkyq8s9db00000gn/T//ccLk9ZXD.s 			page 2


  58 001a 04F11000 		add	r0, r4, #16
  59 001e 0021     		movs	r1, #0
  60              		.loc 1 80 0
  61 0020 BDE81040 		pop	{r4, lr}
  62              		.cfi_restore 14
  63              		.cfi_restore 4
  64              		.cfi_def_cfa_offset 0
  65              	.LVL4:
  66              		.loc 1 79 0
  67 0024 FFF7FEBF 		b	chSemInit
  68              	.LVL5:
  69              		.cfi_endproc
  70              	.LFE7:
  71              		.size	chMBInit, .-chMBInit
  72 0028 AFF30080 		.section	.text.chMBReset,"ax",%progbits
  72      AFF30080 
  73              		.align	2
  74              		.p2align 4,,15
  75              		.global	chMBReset
  76              		.thumb
  77              		.thumb_func
  78              		.type	chMBReset, %function
  79              	chMBReset:
  80              	.LFB8:
  81              		.loc 1 91 0
  82              		.cfi_startproc
  83              		@ args = 0, pretend = 0, frame = 0
  84              		@ frame_needed = 0, uses_anonymous_args = 0
  85              	.LVL6:
  86 0000 10B5     		push	{r4, lr}
  87              		.cfi_def_cfa_offset 8
  88              		.cfi_offset 4, -8
  89              		.cfi_offset 14, -4
  90              		.loc 1 91 0
  91 0002 0446     		mov	r4, r0
  92              		.loc 1 95 0
  93              	@ 95 "lib/ChibiOS_2.6.6/os/kernel/src/chmboxes.c" 1
  94 0004 72B6     		cpsid   i
  95              	@ 0 "" 2
  96              		.loc 1 96 0
  97              		.thumb
  98 0006 0368     		ldr	r3, [r0]
  99              		.loc 1 97 0
 100 0008 4168     		ldr	r1, [r0, #4]
 101              		.loc 1 96 0
 102 000a C360     		str	r3, [r0, #12]
 103              		.loc 1 97 0
 104 000c C91A     		subs	r1, r1, r3
 105              		.loc 1 96 0
 106 000e 8360     		str	r3, [r0, #8]
 107              		.loc 1 97 0
 108 0010 8910     		asrs	r1, r1, #2
 109 0012 1C30     		adds	r0, r0, #28
 110              	.LVL7:
 111 0014 FFF7FEFF 		bl	chSemResetI
 112              	.LVL8:
 113              		.loc 1 98 0
ARM GAS  /var/folders/7z/kps_xzfj7sn5l5gkyq8s9db00000gn/T//ccLk9ZXD.s 			page 3


 114 0018 04F11000 		add	r0, r4, #16
 115 001c 0021     		movs	r1, #0
 116 001e FFF7FEFF 		bl	chSemResetI
 117              	.LVL9:
 118              		.loc 1 99 0
 119 0022 FFF7FEFF 		bl	chSchRescheduleS
 120              	.LVL10:
 121              		.loc 1 100 0
 122              	@ 100 "lib/ChibiOS_2.6.6/os/kernel/src/chmboxes.c" 1
 123 0026 62B6     		cpsie   i
 124              	@ 0 "" 2
 125              		.thumb
 126 0028 10BD     		pop	{r4, pc}
 127              		.cfi_endproc
 128              	.LFE8:
 129              		.size	chMBReset, .-chMBReset
 130 002a 00BFAFF3 		.section	.text.chMBPostS,"ax",%progbits
 130      0080
 131              		.align	2
 132              		.p2align 4,,15
 133              		.global	chMBPostS
 134              		.thumb
 135              		.thumb_func
 136              		.type	chMBPostS, %function
 137              	chMBPostS:
 138              	.LFB10:
 139              		.loc 1 150 0
 140              		.cfi_startproc
 141              		@ args = 0, pretend = 0, frame = 0
 142              		@ frame_needed = 0, uses_anonymous_args = 0
 143              	.LVL11:
 144 0000 70B5     		push	{r4, r5, r6, lr}
 145              		.cfi_def_cfa_offset 16
 146              		.cfi_offset 4, -16
 147              		.cfi_offset 5, -12
 148              		.cfi_offset 6, -8
 149              		.cfi_offset 14, -4
 150              		.loc 1 150 0
 151 0002 0446     		mov	r4, r0
 152 0004 0E46     		mov	r6, r1
 153              		.loc 1 156 0
 154 0006 1C30     		adds	r0, r0, #28
 155              	.LVL12:
 156 0008 1146     		mov	r1, r2
 157              	.LVL13:
 158 000a FFF7FEFF 		bl	chSemWaitTimeoutS
 159              	.LVL14:
 160              		.loc 1 157 0
 161 000e 0546     		mov	r5, r0
 162 0010 78B9     		cbnz	r0, .L6
 163              	.LVL15:
 164              	.LBB4:
 165              	.LBB5:
 166              		.loc 1 158 0
 167 0012 A268     		ldr	r2, [r4, #8]
 168              		.loc 1 159 0
 169 0014 6168     		ldr	r1, [r4, #4]
ARM GAS  /var/folders/7z/kps_xzfj7sn5l5gkyq8s9db00000gn/T//ccLk9ZXD.s 			page 4


 170              		.loc 1 158 0
 171 0016 131D     		adds	r3, r2, #4
 172              		.loc 1 159 0
 173 0018 8B42     		cmp	r3, r1
 174              		.loc 1 158 0
 175 001a A360     		str	r3, [r4, #8]
 176              		.loc 1 160 0
 177 001c 28BF     		it	cs
 178 001e 2368     		ldrcs	r3, [r4]
 179              		.loc 1 158 0
 180 0020 1660     		str	r6, [r2]
 181              		.loc 1 161 0
 182 0022 04F11000 		add	r0, r4, #16
 183              	.LVL16:
 184              		.loc 1 160 0
 185 0026 28BF     		it	cs
 186 0028 A360     		strcs	r3, [r4, #8]
 187              		.loc 1 161 0
 188 002a FFF7FEFF 		bl	chSemSignalI
 189              	.LVL17:
 190              		.loc 1 162 0
 191 002e FFF7FEFF 		bl	chSchRescheduleS
 192              	.LVL18:
 193              	.L6:
 194              	.LBE5:
 195              	.LBE4:
 196              		.loc 1 165 0
 197 0032 2846     		mov	r0, r5
 198 0034 70BD     		pop	{r4, r5, r6, pc}
 199              		.cfi_endproc
 200              	.LFE10:
 201              		.size	chMBPostS, .-chMBPostS
 202 0036 00BFAFF3 		.section	.text.chMBPost,"ax",%progbits
 202      0080AFF3 
 202      0080
 203              		.align	2
 204              		.p2align 4,,15
 205              		.global	chMBPost
 206              		.thumb
 207              		.thumb_func
 208              		.type	chMBPost, %function
 209              	chMBPost:
 210              	.LFB9:
 211              		.loc 1 122 0
 212              		.cfi_startproc
 213              		@ args = 0, pretend = 0, frame = 0
 214              		@ frame_needed = 0, uses_anonymous_args = 0
 215              	.LVL19:
 216 0000 08B5     		push	{r3, lr}
 217              		.cfi_def_cfa_offset 8
 218              		.cfi_offset 3, -8
 219              		.cfi_offset 14, -4
 220              		.loc 1 125 0
 221              	@ 125 "lib/ChibiOS_2.6.6/os/kernel/src/chmboxes.c" 1
 222 0002 72B6     		cpsid   i
 223              	@ 0 "" 2
 224              		.loc 1 126 0
ARM GAS  /var/folders/7z/kps_xzfj7sn5l5gkyq8s9db00000gn/T//ccLk9ZXD.s 			page 5


 225              		.thumb
 226 0004 FFF7FEFF 		bl	chMBPostS
 227              	.LVL20:
 228              		.loc 1 127 0
 229              	@ 127 "lib/ChibiOS_2.6.6/os/kernel/src/chmboxes.c" 1
 230 0008 62B6     		cpsie   i
 231              	@ 0 "" 2
 232              		.loc 1 129 0
 233              		.thumb
 234 000a 08BD     		pop	{r3, pc}
 235              		.cfi_endproc
 236              	.LFE9:
 237              		.size	chMBPost, .-chMBPost
 238 000c AFF30080 		.section	.text.chMBPostI,"ax",%progbits
 239              		.align	2
 240              		.p2align 4,,15
 241              		.global	chMBPostI
 242              		.thumb
 243              		.thumb_func
 244              		.type	chMBPostI, %function
 245              	chMBPostI:
 246              	.LFB11:
 247              		.loc 1 181 0
 248              		.cfi_startproc
 249              		@ args = 0, pretend = 0, frame = 0
 250              		@ frame_needed = 0, uses_anonymous_args = 0
 251              	.LVL21:
 252 0000 38B5     		push	{r3, r4, r5, lr}
 253              		.cfi_def_cfa_offset 16
 254              		.cfi_offset 3, -16
 255              		.cfi_offset 4, -12
 256              		.cfi_offset 5, -8
 257              		.cfi_offset 14, -4
 258              		.loc 1 186 0
 259 0002 436A     		ldr	r3, [r0, #36]
 260 0004 002B     		cmp	r3, #0
 261 0006 12DD     		ble	.L15
 262              		.loc 1 189 0
 263 0008 8468     		ldr	r4, [r0, #8]
 264              		.loc 1 190 0
 265 000a 4568     		ldr	r5, [r0, #4]
 266              		.loc 1 189 0
 267 000c 221D     		adds	r2, r4, #4
 268              		.loc 1 188 0
 269 000e 013B     		subs	r3, r3, #1
 270              		.loc 1 190 0
 271 0010 AA42     		cmp	r2, r5
 272              		.loc 1 188 0
 273 0012 4362     		str	r3, [r0, #36]
 274              		.loc 1 191 0
 275 0014 28BF     		it	cs
 276 0016 0368     		ldrcs	r3, [r0]
 277              		.loc 1 189 0
 278 0018 8260     		str	r2, [r0, #8]
 279 001a 2160     		str	r1, [r4]
 280              		.loc 1 192 0
 281 001c 00F11000 		add	r0, r0, #16
ARM GAS  /var/folders/7z/kps_xzfj7sn5l5gkyq8s9db00000gn/T//ccLk9ZXD.s 			page 6


 282              	.LVL22:
 283              		.loc 1 191 0
 284 0020 28BF     		it	cs
 285 0022 40F8083C 		strcs	r3, [r0, #-8]
 286              		.loc 1 192 0
 287 0026 FFF7FEFF 		bl	chSemSignalI
 288              	.LVL23:
 289              		.loc 1 193 0
 290 002a 0020     		movs	r0, #0
 291 002c 38BD     		pop	{r3, r4, r5, pc}
 292              	.LVL24:
 293              	.L15:
 294              		.loc 1 187 0
 295 002e 4FF0FF30 		mov	r0, #-1
 296              	.LVL25:
 297              		.loc 1 194 0
 298 0032 38BD     		pop	{r3, r4, r5, pc}
 299              		.cfi_endproc
 300              	.LFE11:
 301              		.size	chMBPostI, .-chMBPostI
 302 0034 AFF30080 		.section	.text.chMBPostAheadS,"ax",%progbits
 302      AFF30080 
 302      AFF30080 
 303              		.align	2
 304              		.p2align 4,,15
 305              		.global	chMBPostAheadS
 306              		.thumb
 307              		.thumb_func
 308              		.type	chMBPostAheadS, %function
 309              	chMBPostAheadS:
 310              	.LFB13:
 311              		.loc 1 243 0
 312              		.cfi_startproc
 313              		@ args = 0, pretend = 0, frame = 0
 314              		@ frame_needed = 0, uses_anonymous_args = 0
 315              	.LVL26:
 316 0000 70B5     		push	{r4, r5, r6, lr}
 317              		.cfi_def_cfa_offset 16
 318              		.cfi_offset 4, -16
 319              		.cfi_offset 5, -12
 320              		.cfi_offset 6, -8
 321              		.cfi_offset 14, -4
 322              		.loc 1 243 0
 323 0002 0446     		mov	r4, r0
 324 0004 0E46     		mov	r6, r1
 325              		.loc 1 249 0
 326 0006 1C30     		adds	r0, r0, #28
 327              	.LVL27:
 328 0008 1146     		mov	r1, r2
 329              	.LVL28:
 330 000a FFF7FEFF 		bl	chSemWaitTimeoutS
 331              	.LVL29:
 332              		.loc 1 250 0
 333 000e 0546     		mov	r5, r0
 334 0010 60B9     		cbnz	r0, .L18
 335              	.LVL30:
 336              	.LBB8:
ARM GAS  /var/folders/7z/kps_xzfj7sn5l5gkyq8s9db00000gn/T//ccLk9ZXD.s 			page 7


 337              	.LBB9:
 338              		.loc 1 251 0
 339 0012 E368     		ldr	r3, [r4, #12]
 340 0014 2268     		ldr	r2, [r4]
 341 0016 043B     		subs	r3, r3, #4
 342 0018 9342     		cmp	r3, r2
 343 001a E360     		str	r3, [r4, #12]
 344 001c 08D3     		bcc	.L21
 345              	.L19:
 346              		.loc 1 253 0
 347 001e 1E60     		str	r6, [r3]
 348              		.loc 1 254 0
 349 0020 04F11000 		add	r0, r4, #16
 350              	.LVL31:
 351 0024 FFF7FEFF 		bl	chSemSignalI
 352              	.LVL32:
 353              		.loc 1 255 0
 354 0028 FFF7FEFF 		bl	chSchRescheduleS
 355              	.LVL33:
 356              	.L18:
 357              	.LBE9:
 358              	.LBE8:
 359              		.loc 1 258 0
 360 002c 2846     		mov	r0, r5
 361 002e 70BD     		pop	{r4, r5, r6, pc}
 362              	.LVL34:
 363              	.L21:
 364              	.LBB11:
 365              	.LBB10:
 366              		.loc 1 252 0
 367 0030 6368     		ldr	r3, [r4, #4]
 368 0032 043B     		subs	r3, r3, #4
 369 0034 E360     		str	r3, [r4, #12]
 370 0036 F2E7     		b	.L19
 371              	.LBE10:
 372              	.LBE11:
 373              		.cfi_endproc
 374              	.LFE13:
 375              		.size	chMBPostAheadS, .-chMBPostAheadS
 376 0038 AFF30080 		.section	.text.chMBPostAhead,"ax",%progbits
 376      AFF30080 
 377              		.align	2
 378              		.p2align 4,,15
 379              		.global	chMBPostAhead
 380              		.thumb
 381              		.thumb_func
 382              		.type	chMBPostAhead, %function
 383              	chMBPostAhead:
 384              	.LFB12:
 385              		.loc 1 215 0
 386              		.cfi_startproc
 387              		@ args = 0, pretend = 0, frame = 0
 388              		@ frame_needed = 0, uses_anonymous_args = 0
 389              	.LVL35:
 390 0000 08B5     		push	{r3, lr}
 391              		.cfi_def_cfa_offset 8
 392              		.cfi_offset 3, -8
ARM GAS  /var/folders/7z/kps_xzfj7sn5l5gkyq8s9db00000gn/T//ccLk9ZXD.s 			page 8


 393              		.cfi_offset 14, -4
 394              		.loc 1 218 0
 395              	@ 218 "lib/ChibiOS_2.6.6/os/kernel/src/chmboxes.c" 1
 396 0002 72B6     		cpsid   i
 397              	@ 0 "" 2
 398              		.loc 1 219 0
 399              		.thumb
 400 0004 FFF7FEFF 		bl	chMBPostAheadS
 401              	.LVL36:
 402              		.loc 1 220 0
 403              	@ 220 "lib/ChibiOS_2.6.6/os/kernel/src/chmboxes.c" 1
 404 0008 62B6     		cpsie   i
 405              	@ 0 "" 2
 406              		.loc 1 222 0
 407              		.thumb
 408 000a 08BD     		pop	{r3, pc}
 409              		.cfi_endproc
 410              	.LFE12:
 411              		.size	chMBPostAhead, .-chMBPostAhead
 412 000c AFF30080 		.section	.text.chMBPostAheadI,"ax",%progbits
 413              		.align	2
 414              		.p2align 4,,15
 415              		.global	chMBPostAheadI
 416              		.thumb
 417              		.thumb_func
 418              		.type	chMBPostAheadI, %function
 419              	chMBPostAheadI:
 420              	.LFB14:
 421              		.loc 1 274 0
 422              		.cfi_startproc
 423              		@ args = 0, pretend = 0, frame = 0
 424              		@ frame_needed = 0, uses_anonymous_args = 0
 425              	.LVL37:
 426              		.loc 1 279 0
 427 0000 426A     		ldr	r2, [r0, #36]
 428 0002 002A     		cmp	r2, #0
 429 0004 11DD     		ble	.L27
 430              		.loc 1 282 0
 431 0006 C368     		ldr	r3, [r0, #12]
 432              		.loc 1 274 0
 433 0008 10B5     		push	{r4, lr}
 434              		.cfi_def_cfa_offset 8
 435              		.cfi_offset 4, -8
 436              		.cfi_offset 14, -4
 437              		.loc 1 282 0
 438 000a 0468     		ldr	r4, [r0]
 439 000c 043B     		subs	r3, r3, #4
 440              		.loc 1 281 0
 441 000e 013A     		subs	r2, r2, #1
 442              		.loc 1 282 0
 443 0010 A342     		cmp	r3, r4
 444              		.loc 1 281 0
 445 0012 4262     		str	r2, [r0, #36]
 446              		.loc 1 282 0
 447 0014 C360     		str	r3, [r0, #12]
 448 0016 02D2     		bcs	.L26
 449              		.loc 1 283 0
ARM GAS  /var/folders/7z/kps_xzfj7sn5l5gkyq8s9db00000gn/T//ccLk9ZXD.s 			page 9


 450 0018 4368     		ldr	r3, [r0, #4]
 451 001a 043B     		subs	r3, r3, #4
 452 001c C360     		str	r3, [r0, #12]
 453              	.L26:
 454              		.loc 1 284 0
 455 001e 1960     		str	r1, [r3]
 456              		.loc 1 285 0
 457 0020 1030     		adds	r0, r0, #16
 458              	.LVL38:
 459 0022 FFF7FEFF 		bl	chSemSignalI
 460              	.LVL39:
 461              		.loc 1 286 0
 462 0026 0020     		movs	r0, #0
 463 0028 10BD     		pop	{r4, pc}
 464              	.LVL40:
 465              	.L27:
 466              		.cfi_def_cfa_offset 0
 467              		.cfi_restore 4
 468              		.cfi_restore 14
 469              		.loc 1 280 0
 470 002a 4FF0FF30 		mov	r0, #-1
 471              	.LVL41:
 472 002e 7047     		bx	lr
 473              		.cfi_endproc
 474              	.LFE14:
 475              		.size	chMBPostAheadI, .-chMBPostAheadI
 476              		.section	.text.chMBFetchS,"ax",%progbits
 477              		.align	2
 478              		.p2align 4,,15
 479              		.global	chMBFetchS
 480              		.thumb
 481              		.thumb_func
 482              		.type	chMBFetchS, %function
 483              	chMBFetchS:
 484              	.LFB16:
 485              		.loc 1 336 0
 486              		.cfi_startproc
 487              		@ args = 0, pretend = 0, frame = 0
 488              		@ frame_needed = 0, uses_anonymous_args = 0
 489              	.LVL42:
 490 0000 70B5     		push	{r4, r5, r6, lr}
 491              		.cfi_def_cfa_offset 16
 492              		.cfi_offset 4, -16
 493              		.cfi_offset 5, -12
 494              		.cfi_offset 6, -8
 495              		.cfi_offset 14, -4
 496              		.loc 1 336 0
 497 0002 0446     		mov	r4, r0
 498 0004 0E46     		mov	r6, r1
 499              		.loc 1 342 0
 500 0006 1030     		adds	r0, r0, #16
 501              	.LVL43:
 502 0008 1146     		mov	r1, r2
 503              	.LVL44:
 504 000a FFF7FEFF 		bl	chSemWaitTimeoutS
 505              	.LVL45:
 506              		.loc 1 343 0
ARM GAS  /var/folders/7z/kps_xzfj7sn5l5gkyq8s9db00000gn/T//ccLk9ZXD.s 			page 10


 507 000e 0546     		mov	r5, r0
 508 0010 80B9     		cbnz	r0, .L31
 509              	.LVL46:
 510              	.LBB14:
 511              	.LBB15:
 512              		.loc 1 344 0
 513 0012 E368     		ldr	r3, [r4, #12]
 514              		.loc 1 345 0
 515 0014 6268     		ldr	r2, [r4, #4]
 516              		.loc 1 344 0
 517 0016 1968     		ldr	r1, [r3]
 518 0018 0433     		adds	r3, r3, #4
 519              		.loc 1 345 0
 520 001a 9342     		cmp	r3, r2
 521              		.loc 1 344 0
 522 001c E360     		str	r3, [r4, #12]
 523              		.loc 1 346 0
 524 001e 28BF     		it	cs
 525 0020 2368     		ldrcs	r3, [r4]
 526              		.loc 1 344 0
 527 0022 3160     		str	r1, [r6]
 528              		.loc 1 347 0
 529 0024 04F11C00 		add	r0, r4, #28
 530              	.LVL47:
 531              		.loc 1 346 0
 532 0028 28BF     		it	cs
 533 002a E360     		strcs	r3, [r4, #12]
 534              		.loc 1 347 0
 535 002c FFF7FEFF 		bl	chSemSignalI
 536              	.LVL48:
 537              		.loc 1 348 0
 538 0030 FFF7FEFF 		bl	chSchRescheduleS
 539              	.LVL49:
 540              	.L31:
 541              	.LBE15:
 542              	.LBE14:
 543              		.loc 1 351 0
 544 0034 2846     		mov	r0, r5
 545 0036 70BD     		pop	{r4, r5, r6, pc}
 546              		.cfi_endproc
 547              	.LFE16:
 548              		.size	chMBFetchS, .-chMBFetchS
 549 0038 AFF30080 		.section	.text.chMBFetch,"ax",%progbits
 549      AFF30080 
 550              		.align	2
 551              		.p2align 4,,15
 552              		.global	chMBFetch
 553              		.thumb
 554              		.thumb_func
 555              		.type	chMBFetch, %function
 556              	chMBFetch:
 557              	.LFB15:
 558              		.loc 1 308 0
 559              		.cfi_startproc
 560              		@ args = 0, pretend = 0, frame = 0
 561              		@ frame_needed = 0, uses_anonymous_args = 0
 562              	.LVL50:
ARM GAS  /var/folders/7z/kps_xzfj7sn5l5gkyq8s9db00000gn/T//ccLk9ZXD.s 			page 11


 563 0000 08B5     		push	{r3, lr}
 564              		.cfi_def_cfa_offset 8
 565              		.cfi_offset 3, -8
 566              		.cfi_offset 14, -4
 567              		.loc 1 311 0
 568              	@ 311 "lib/ChibiOS_2.6.6/os/kernel/src/chmboxes.c" 1
 569 0002 72B6     		cpsid   i
 570              	@ 0 "" 2
 571              		.loc 1 312 0
 572              		.thumb
 573 0004 FFF7FEFF 		bl	chMBFetchS
 574              	.LVL51:
 575              		.loc 1 313 0
 576              	@ 313 "lib/ChibiOS_2.6.6/os/kernel/src/chmboxes.c" 1
 577 0008 62B6     		cpsie   i
 578              	@ 0 "" 2
 579              		.loc 1 315 0
 580              		.thumb
 581 000a 08BD     		pop	{r3, pc}
 582              		.cfi_endproc
 583              	.LFE15:
 584              		.size	chMBFetch, .-chMBFetch
 585 000c AFF30080 		.section	.text.chMBFetchI,"ax",%progbits
 586              		.align	2
 587              		.p2align 4,,15
 588              		.global	chMBFetchI
 589              		.thumb
 590              		.thumb_func
 591              		.type	chMBFetchI, %function
 592              	chMBFetchI:
 593              	.LFB17:
 594              		.loc 1 367 0
 595              		.cfi_startproc
 596              		@ args = 0, pretend = 0, frame = 0
 597              		@ frame_needed = 0, uses_anonymous_args = 0
 598              	.LVL52:
 599              		.loc 1 372 0
 600 0000 8369     		ldr	r3, [r0, #24]
 601 0002 002B     		cmp	r3, #0
 602 0004 14DD     		ble	.L39
 603              		.loc 1 374 0
 604 0006 5A1E     		subs	r2, r3, #1
 605              		.loc 1 375 0
 606 0008 C368     		ldr	r3, [r0, #12]
 607              		.loc 1 367 0
 608 000a 10B5     		push	{r4, lr}
 609              		.cfi_def_cfa_offset 8
 610              		.cfi_offset 4, -8
 611              		.cfi_offset 14, -4
 612              		.loc 1 374 0
 613 000c 8261     		str	r2, [r0, #24]
 614              		.loc 1 376 0
 615 000e 4268     		ldr	r2, [r0, #4]
 616              		.loc 1 375 0
 617 0010 1C68     		ldr	r4, [r3]
 618 0012 0433     		adds	r3, r3, #4
 619              		.loc 1 376 0
ARM GAS  /var/folders/7z/kps_xzfj7sn5l5gkyq8s9db00000gn/T//ccLk9ZXD.s 			page 12


 620 0014 9342     		cmp	r3, r2
 621              		.loc 1 375 0
 622 0016 C360     		str	r3, [r0, #12]
 623              		.loc 1 377 0
 624 0018 28BF     		it	cs
 625 001a 0368     		ldrcs	r3, [r0]
 626              		.loc 1 375 0
 627 001c 0C60     		str	r4, [r1]
 628              		.loc 1 378 0
 629 001e 00F11C00 		add	r0, r0, #28
 630              	.LVL53:
 631              		.loc 1 377 0
 632 0022 28BF     		it	cs
 633 0024 40F8103C 		strcs	r3, [r0, #-16]
 634              		.loc 1 378 0
 635 0028 FFF7FEFF 		bl	chSemSignalI
 636              	.LVL54:
 637              		.loc 1 379 0
 638 002c 0020     		movs	r0, #0
 639 002e 10BD     		pop	{r4, pc}
 640              	.LVL55:
 641              	.L39:
 642              		.cfi_def_cfa_offset 0
 643              		.cfi_restore 4
 644              		.cfi_restore 14
 645              		.loc 1 373 0
 646 0030 4FF0FF30 		mov	r0, #-1
 647              	.LVL56:
 648 0034 7047     		bx	lr
 649              		.cfi_endproc
 650              	.LFE17:
 651              		.size	chMBFetchI, .-chMBFetchI
 652 0036 00BFAFF3 		.text
 652      0080AFF3 
 652      0080
 653              	.Letext0:
 654              		.file 2 "/Users/Baram/gcc-arm-none-eabi/arm-none-eabi/include/machine/_default_types.h"
 655              		.file 3 "/Users/Baram/gcc-arm-none-eabi/arm-none-eabi/include/stdint.h"
 656              		.file 4 "lib/ChibiOS_2.6.6/os/ports/GCC/ARMCMx/chtypes.h"
 657              		.file 5 "lib/ChibiOS_2.6.6/os/kernel/include/chlists.h"
 658              		.file 6 "lib/ChibiOS_2.6.6/os/kernel/include/chthreads.h"
 659              		.file 7 "lib/ChibiOS_2.6.6/os/ports/GCC/ARMCMx/chcore_v7m.h"
 660              		.file 8 "lib/ChibiOS_2.6.6/os/kernel/include/chsem.h"
 661              		.file 9 "lib/ChibiOS_2.6.6/os/kernel/include/chmtx.h"
 662              		.file 10 "lib/ChibiOS_2.6.6/os/kernel/include/chmboxes.h"
 663              		.file 11 "lib/ChibiOS_2.6.6/os/kernel/include/chschd.h"