ARM GAS  /var/folders/7z/kps_xzfj7sn5l5gkyq8s9db00000gn/T//ccLk9ZXD.s 			page 1


   1              		.syntax unified
   2              		.cpu cortex-m4
   3              		.eabi_attribute 27, 1
   4              		.eabi_attribute 28, 1
   5              		.fpu fpv4-sp-d16
   6              		.eabi_attribute 20, 1
   7              		.eabi_attribute 21, 1
   8              		.eabi_attribute 23, 3
   9              		.eabi_attribute 24, 1
  10              		.eabi_attribute 25, 1
  11              		.eabi_attribute 26, 1
  12              		.eabi_attribute 30, 2
  13              		.eabi_attribute 34, 1
  14              		.eabi_attribute 18, 4
  15              		.thumb
  16              		.file	"chmboxes.c"
  17              		.text
  18              	.Ltext0:
  19              		.cfi_sections	.debug_frame
  20              		.section	.text.chMBInit,"ax",%progbits
  21              		.align	2
  22              		.p2align 4,,15
  23              		.global	chMBInit
  24              		.thumb
  25              		.thumb_func
  26              		.type	chMBInit, %function
  27              	chMBInit:
  28              	.LFB7:
  29              		.file 1 "lib/ChibiOS_2.6.6/os/kernel/src/chmboxes.c"
  30              		.loc 1 72 0
  31              		.cfi_startproc
  32              		@ args = 0, pretend = 0, frame = 0
  33              		@ frame_needed = 0, uses_anonymous_args = 0
  34              	.LVL0:
  35 0000 10B5     		push	{r4, lr}
  36              		.cfi_def_cfa_offset 8
  37              		.cfi_offset 4, -8
  38              		.cfi_offset 14, -4
  39              		.loc 1 72 0
  40 0002 0B46     		mov	r3, r1
  41              		.loc 1 77 0
  42 0004 01EB8201 		add	r1, r1, r2, lsl #2
  43              	.LVL1:
  44 0008 4160     		str	r1, [r0, #4]
  45              		.loc 1 72 0
  46 000a 0446     		mov	r4, r0
  47              		.loc 1 76 0
  48 000c C360     		str	r3, [r0, #12]
  49 000e 8360     		str	r3, [r0, #8]
  50 0010 0360     		str	r3, [r0]
  51              		.loc 1 78 0
  52 0012 1146     		mov	r1, r2
  53 0014 1C30     		adds	r0, r0, #28
  54              	.LVL2:
  55 0016 FFF7FEFF 		bl	chSemInit
  56              	.LVL3:
  57              		.loc 1 79 0
ARM GAS  /var/folders/7z/kps_xzfj7sn5l5gkyq8s9db00000gn/T//ccLk9ZXD.s 			page 2


  58 001a 04F11000 		add	r0, r4, #16
  59 001e 0021     		movs	r1, #0
  60              		.loc 1 80 0
  61 0020 BDE81040 		pop	{r4, lr}
  62              		.cfi_restore 14
  63              		.cfi_restore 4
  64              		.cfi_def_cfa_offset 0
  65              	.LVL4:
  66              		.loc 1 79 0
  67 0024 FFF7FEBF 		b	chSemInit
  68              	.LVL5:
  69              		.cfi_endproc
  70              	.LFE7:
  71              		.size	chMBInit, .-chMBInit
  72 0028 AFF30080 		.section	.text.chMBReset,"ax",%progbits
  72      AFF30080 
  73              		.align	2
  74              		.p2align 4,,15
  75              		.global	chMBReset
  76              		.thumb
  77              		.thumb_func
  78              		.type	chMBReset, %function
  79              	chMBReset:
  80              	.LFB8:
  81              		.loc 1 91 0
  82              		.cfi_startproc
  83              		@ args = 0, pretend = 0, frame = 0
  84              		@ frame_needed = 0, uses_anonymous_args = 0
  85              	.LVL6:
  86 0000 10B5     		push	{r4, lr}
  87              		.cfi_def_cfa_offset 8
  88              		.cfi_offset 4, -8
  89              		.cfi_offset 14, -4
  90              		.loc 1 91 0
  91 0002 0446     		mov	r4, r0
  92              		.loc 1 95 0
  93              	@ 95 "lib/ChibiOS_2.6.6/os/kernel/src/chmboxes.c" 1
  94 0004 72B6     		cpsid   i
  95              	@ 0 "" 2
  96              		.loc 1 96 0
  97              		.thumb
  98 0006 0368     		ldr	r3, [r0]
  99              		.loc 1 97 0
 100 0008 4168     		ldr	r1, [r0, #4]
 101              		.loc 1 96 0
 102 000a C360     		str	r3, [r0, #12]
 103              		.loc 1 97 0
 104 000c C91A     		subs	r1, r1, r3
 105              		.loc 1 96 0
 106 000e 8360     		str	r3, [r0, #8]
 107              		.loc 1 97 0
 108 0010 8910     		asrs	r1, r1, #2
 109 0012 1C30     		adds	r0, r0, #28
 110              	.LVL7:
 111 0014 FFF7FEFF 		bl	chSemResetI
 112              	.LVL8:
 113              		.loc 1 98 0
ARM GAS  /var/folders/7z/kps_xzfj7sn5l5gkyq8s9db00000gn/T//ccLk9ZXD.s 			page 3


 114 0018 04F11000 		add	r0, r4, #16
 115 001c 0021     		movs	r1, #0
 116 001e FFF7FEFF 		bl	chSemResetI
 117              	.LVL9:
 118              		.loc 1 99 0
 119 0022 FFF7FEFF 		bl	chSchRescheduleS
 120              	.LVL10:
 121              		.loc 1 100 0
 122              	@ 100 "lib/ChibiOS_2.6.6/os/kernel/src/chmboxes.c" 1
 123 0026 62B6     		cpsie   i
 124              	@ 0 "" 2
 125              		.thumb
 126 0028 10BD     		pop	{r4, pc}
 127              		.cfi_endproc
 128              	.LFE8:
 129              		.size	chMBReset, .-chMBReset
 130 002a 00BFAFF3 		.section	.text.chMBPostS,"ax",%progbits
 130      0080
 131              		.align	2
 132              		.p2align 4,,15
 133              		.global	chMBPostS
 134              		.thumb
 135              		.thumb_func
 136              		.type	chMBPostS, %function
 137              	chMBPostS:
 138              	.LFB10:
 139              		.loc 1 150 0
 140              		.cfi_startproc
 141              		@ args = 0, pretend = 0, frame = 0
 142              		@ frame_needed = 0, uses_anonymous_args = 0
 143              	.LVL11:
 144 0000 70B5     		push	{r4, r5, r6, lr}
 145              		.cfi_def_cfa_offset 16
 146              		.cfi_offset 4, -16
 147              		.cfi_offset 5, -12
 148              		.cfi_offset 6, -8
 149              		.cfi_offset 14, -4
 150              		.loc 1 150 0
 151 0002 0446     		mov	r4, r0
 152 0004 0E46     		mov	r6, r1
 153              		.loc 1 156 0
 154 0006 1C30     		adds	r0, r0, #28
 155              	.LVL12:
 156 0008 1146     		mov	r1, r2
 157              	.LVL13:
 158 000a FFF7FEFF 		bl	chSemWaitTimeoutS
 159              	.LVL14:
 160              		.loc 1 157 0
 161 000e 0546     		mov	r5, r0
 162 0010 78B9     		cbnz	r0, .L6
 163              	.LVL15:
 164              	.LBB4:
 165              	.LBB5:
 166              		.loc 1 158 0
 167 0012 A268     		ldr	r2, [r4, #8]
 168              		.loc 1 159 0
 169 0014 6168     		ldr	r1, [r4, #4]
ARM GAS  /var/folders/7z/kps_xzfj7sn5l5gkyq8s9db00000gn/T//ccLk9ZXD.s 			page 4


 170              		.loc 1 158 0
 171 0016 131D     		adds	r3, r2, #4
 172              		.loc 1 159 0
 173 0018 8B42     		cmp	r3, r1
 174              		.loc 1 158 0
 175 001a A360     		str	r3, [r4, #8]
 176              		.loc 1 160 0
 177 001c 28BF     		it	cs
 178 001e 2368     		ldrcs	r3, [r4]
 179              		.loc 1 158 0
 180 0020 1660     		str	r6, [r2]
 181              		.loc 1 161 0
 182 0022 04F11000 		add	r0, r4, #16
 183              	.LVL16:
 184              		.loc 1 160 0
 185 0026 28BF     		it	cs
 186 0028 A360     		strcs	r3, [r4, #8]
 187              		.loc 1 161 0
 188 002a FFF7FEFF 		bl	chSemSignalI
 189              	.LVL17:
 190              		.loc 1 162 0
 191 002e FFF7FEFF 		bl	chSchRescheduleS
 192              	.LVL18:
 193              	.L6:
 194              	.LBE5:
 195              	.LBE4:
 196              		.loc 1 165 0
 197 0032 2846     		mov	r0, r5
 198 0034 70BD     		pop	{r4, r5, r6, pc}
 199              		.cfi_endproc
 200              	.LFE10:
 201              		.size	chMBPostS, .-chMBPostS
 202 0036 00BFAFF3 		.section	.text.chMBPost,"ax",%progbits
 202      0080AFF3 
 202      0080
 203              		.align	2
 204              		.p2align 4,,15
 205              		.global	chMBPost
 206              		.thumb
 207              		.thumb_func
 208              		.type	chMBPost, %function
 209              	chMBPost:
 210              	.LFB9:
 211              		.loc 1 122 0
 212              		.cfi_startproc
 213              		@ args = 0, pretend = 0, frame = 0
 214              		@ frame_needed = 0, uses_anonymous_args = 0
 215              	.LVL19:
 216 0000 08B5     		push	{r3, lr}
 217              		.cfi_def_cfa_offset 8
 218              		.cfi_offset 3, -8
 219              		.cfi_offset 14, -4
 220              		.loc 1 125 0
 221              	@ 125 "lib/ChibiOS_2.6.6/os/kernel/src/chmboxes.c" 1
 222 0002 72B6     		cpsid   i
 223              	@ 0 "" 2
 224              		.loc 1 126 0
ARM GAS  /var/folders/7z/kps_xzfj7sn5l5gkyq8s9db00000gn/T//ccLk9ZXD.s 			page 5


 225              		.thumb
 226 0004 FFF7FEFF 		bl	chMBPostS
 227              	.LVL20:
 228              		.loc 1 127 0
 229              	@ 127 "lib/ChibiOS_2.6.6/os/kernel/src/chmboxes.c" 1
 230 0008 62B6     		cpsie   i
 231              	@ 0 "" 2
 232              		.loc 1 129 0
 233              		.thumb
 234 000a 08BD     		pop	{r3, pc}
 235              		.cfi_endproc
 236              	.LFE9:
 237              		.size	chMBPost, .-chMBPost
 238 000c AFF30080 		.section	.text.chMBPostI,"ax",%progbits
 239              		.align	2
 240              		.p2align 4,,15
 241              		.global	chMBPostI
 242              		.thumb
 243              		.thumb_func
 244              		.type	chMBPostI, %function
 245              	chMBPostI:
 246              	.LFB11:
 247              		.loc 1 181 0
 248              		.cfi_startproc
 249              		@ args = 0, pretend = 0, frame = 0
 250              		@ frame_needed = 0, uses_anonymous_args = 0
 251              	.LVL21:
 252 0000 38B5     		push	{r3, r4, r5, lr}
 253              		.cfi_def_cfa_offset 16
 254              		.cfi_offset 3, -16
 255              		.cfi_offset 4, -12
 256              		.cfi_offset 5, -8
 257              		.cfi_offset 14, -4
 258              		.loc 1 186 0
 259 0002 436A     		ldr	r3, [r0, #36]
 260 0004 002B     		cmp	r3, #0
 261 0006 12DD     		ble	.L15
 262              		.loc 1 189 0
 263 0008 8468     		ldr	r4, [r0, #8]
 264              		.loc 1 190 0
 265 000a 4568     		ldr	r5, [r0, #4]
 266              		.loc 1 189 0
 267 000c 221D     		adds	r2, r4, #4
 268              		.loc 1 188 0
 269 000e 013B     		subs	r3, r3, #1
 270              		.loc 1 190 0
 271 0010 AA42     		cmp	r2, r5
 272              		.loc 1 188 0
 273 0012 4362     		str	r3, [r0, #36]
 274              		.loc 1 191 0
 275 0014 28BF     		it	cs
 276 0016 0368     		ldrcs	r3, [r0]
 277              		.loc 1 189 0
 278 0018 8260     		str	r2, [r0, #8]
 279 001a 2160     		str	r1, [r4]
 280              		.loc 1 192 0
 281 001c 00F11000 		add	r0, r0, #16
ARM GAS  /var/folders/7z/kps_xzfj7sn5l5gkyq8s9db00000gn/T//ccLk9ZXD.s 			page 6


 282              	.LVL22:
 283              		.loc 1 191 0
 284 0020 28BF     		it	cs
 285 0022 40F8083C 		strcs	r3, [r0, #-8]
 286              		.loc 1 192 0
 287 0026 FFF7FEFF 		bl	chSemSignalI
 288              	.LVL23:
 289              		.loc 1 193 0
 290 002a 0020     		movs	r0, #0
 291 002c 38BD     		pop	{r3, r4, r5, pc}
 292              	.LVL24:
 293              	.L15:
 294              		.loc 1 187 0
 295 002e 4FF0FF30 		mov	r0, #-1
 296              	.LVL25:
 297              		.loc 1 194 0
 298 0032 38BD     		pop	{r3, r4, r5, pc}
 299              		.cfi_endproc
 300              	.LFE11:
 301              		.size	chMBPostI, .-chMBPostI
 302 0034 AFF30080 		.section	.text.chMBPostAheadS,"ax",%progbits
 302      AFF30080 
 302      AFF30080 
 303              		.align	2
 304              		.p2align 4,,15
 305              		.global	chMBPostAheadS
 306              		.thumb
 307              		.thumb_func
 308              		.type	chMBPostAheadS, %function
 309              	chMBPostAheadS:
 310              	.LFB13:
 311              		.loc 1 243 0
 312              		.cfi_startproc
 313              		@ args = 0, pretend = 0, frame = 0
 314              		@ frame_needed = 0, uses_anonymous_args = 0
 315              	.LVL26:
 316 0000 70B5     		push	{r4, r5, r6, lr}
 317              		.cfi_def_cfa_offset 16
 318              		.cfi_offset 4, -16
 319              		.cfi_offset 5, -12
 320              		.cfi_offset 6, -8
 321              		.cfi_offset 14, -4
 322              		.loc 1 243 0
 323 0002 0446     		mov	r4, r0
 324 0004 0E46     		mov	r6, r1
 325              		.loc 1 249 0
 326 0006 1C30     		adds	r0, r0, #28
 327              	.LVL27:
 328 0008 1146     		mov	r1, r2
 329              	.LVL28:
 330 000a FFF7FEFF 		bl	chSemWaitTimeoutS
 331              	.LVL29:
 332              		.loc 1 250 0
 333 000e 0546     		mov	r5, r0
 334 0010 60B9     		cbnz	r0, .L18
 335              	.LVL30:
 336              	.LBB8:
ARM GAS  /var/folders/7z/kps_xzfj7sn5l5gkyq8s9db00000gn/T//ccLk9ZXD.s 			page 7


 337              	.LBB9:
 338              		.loc 1 251 0
 339 0012 E368     		ldr	r3, [r4, #12]
 340 0014 2268     		ldr	r2, [r4]
 341 0016 043B     		subs	r3, r3, #4
 342 0018 9342     		cmp	r3, r2
 343 001a E360     		str	r3, [r4, #12]
 344 001c 08D3     		bcc	.L21
 345              	.L19:
 346              		.loc 1 253 0
 347 001e 1E60     		str	r6, [r3]
 348              		.loc 1 254 0
 349 0020 04F11000 		add	r0, r4, #16
 350              	.LVL31:
 351 0024 FFF7FEFF 		bl	chSemSignalI
 352              	.LVL32:
 353              		.loc 1 255 0
 354 0028 FFF7FEFF 		bl	chSchRescheduleS
 355              	.LVL33:
 356              	.L18:
 357              	.LBE9:
 358              	.LBE8:
 359              		.loc 1 258 0
 360 002c 2846     		mov	r0, r5
 361 002e 70BD     		pop	{r4, r5, r6, pc}
 362              	.LVL34:
 363              	.L21:
 364              	.LBB11:
 365              	.LBB10:
 366              		.loc 1 252 0
 367 0030 6368     		ldr	r3, [r4, #4]
 368 0032 043B     		subs	r3, r3, #4
 369 0034 E360     		str	r3, [r4, #12]
 370 0036 F2E7     		b	.L19
 371              	.LBE10:
 372              	.LBE11:
 373              		.cfi_endproc
 374              	.LFE13:
 375              		.size	chMBPostAheadS, .-chMBPostAheadS
 376 0038 AFF30080 		.section	.text.chMBPostAhead,"ax",%progbits
 376      AFF30080 
 377              		.align	2
 378              		.p2align 4,,15
 379              		.global	chMBPostAhead
 380              		.thumb
 381              		.thumb_func
 382              		.type	chMBPostAhead, %function
 383              	chMBPostAhead:
 384              	.LFB12:
 385              		.loc 1 215 0
 386              		.cfi_startproc
 387              		@ args = 0, pretend = 0, frame = 0
 388              		@ frame_needed = 0, uses_anonymous_args = 0
 389              	.LVL35:
 390 0000 08B5     		push	{r3, lr}
 391              		.cfi_def_cfa_offset 8
 392              		.cfi_offset 3, -8
ARM GAS  /var/folders/7z/kps_xzfj7sn5l5gkyq8s9db00000gn/T//ccLk9ZXD.s 			page 8


 393              		.cfi_offset 14, -4
 394              		.loc 1 218 0
 395              	@ 218 "lib/ChibiOS_2.6.6/os/kernel/src/chmboxes.c" 1
 396 0002 72B6     		cpsid   i
 397              	@ 0 "" 2
 398              		.loc 1 219 0
 399              		.thumb
 400 0004 FFF7FEFF 		bl	chMBPostAheadS
 401              	.LVL36:
 402              		.loc 1 220 0
 403              	@ 220 "lib/ChibiOS_2.6.6/os/kernel/src/chmboxes.c" 1
 404 0008 62B6     		cpsie   i
 405              	@ 0 "" 2
 406              		.loc 1 222 0
 407              		.thumb
 408 000a 08BD     		pop	{r3, pc}
 409              		.cfi_endproc
 410              	.LFE12:
 411              		.size	chMBPostAhead, .-chMBPostAhead
 412 000c AFF30080 		.section	.text.chMBPostAheadI,"ax",%progbits
 413              		.align	2
 414              		.p2align 4,,15
 415              		.global	chMBPostAheadI
 416              		.thumb
 417              		.thumb_func
 418              		.type	chMBPostAheadI, %function
 419              	chMBPostAheadI:
 420              	.LFB14:
 421              		.loc 1 274 0
 422              		.cfi_startproc
 423              		@ args = 0, pretend = 0, frame = 0
 424              		@ frame_needed = 0, uses_anonymous_args = 0
 425              	.LVL37:
 426              		.loc 1 279 0
 427 0000 426A     		ldr	r2, [r0, #36]
 428 0002 002A     		cmp	r2, #0
 429 0004 11DD     		ble	.L27
 430              		.loc 1 282 0
 431 0006 C368     		ldr	r3, [r0, #12]
 432              		.loc 1 274 0
 433 0008 10B5     		push	{r4, lr}
 434              		.cfi_def_cfa_offset 8
 435              		.cfi_offset 4, -8
 436              		.cfi_offset 14, -4
 437              		.loc 1 282 0
 438 000a 0468     		ldr	r4, [r0]
 439 000c 043B     		subs	r3, r3, #4
 440              		.loc 1 281 0
 441 000e 013A     		subs	r2, r2, #1
 442              		.loc 1 282 0
 443 0010 A342     		cmp	r3, r4
 444              		.loc 1 281 0
 445 0012 4262     		str	r2, [r0, #36]
 446              		.loc 1 282 0
 447 0014 C360     		str	r3, [r0, #12]
 448 0016 02D2     		bcs	.L26
 449              		.loc 1 283 0
ARM GAS  /var/folders/7z/kps_xzfj7sn5l5gkyq8s9db00000gn/T//ccLk9ZXD.s 			page 9


 450 0018 4368     		ldr	r3, [r0, #4]
 451 001a 043B     		subs	r3, r3, #4
 452 001c C360     		str	r3, [r0, #12]
 453              	.L26:
 454              		.loc 1 284 0
 455 001e 1960     		str	r1, [r3]
 456              		.loc 1 285 0
 457 0020 1030     		adds	r0, r0, #16
 458              	.LVL38:
 459 0022 FFF7FEFF 		bl	chSemSignalI
 460              	.LVL39:
 461              		.loc 1 286 0
 462 0026 0020     		movs	r0, #0
 463 0028 10BD     		pop	{r4, pc}
 464              	.LVL40:
 465              	.L27:
 466              		.cfi_def_cfa_offset 0
 467              		.cfi_restore 4
 468              		.cfi_restore 14
 469              		.loc 1 280 0
 470 002a 4FF0FF30 		mov	r0, #-1
 471              	.LVL41:
 472 002e 7047     		bx	lr
 473              		.cfi_endproc
 474              	.LFE14:
 475              		.size	chMBPostAheadI, .-chMBPostAheadI
 476              		.section	.text.chMBFetchS,"ax",%progbits
 477              		.align	2
 478              		.p2align 4,,15
 479              		.global	chMBFetchS
 480              		.thumb
 481              		.thumb_func
 482              		.type	chMBFetchS, %function
 483              	chMBFetchS:
 484              	.LFB16:
 485              		.loc 1 336 0
 486              		.cfi_startproc
 487              		@ args = 0, pretend = 0, frame = 0
 488              		@ frame_needed = 0, uses_anonymous_args = 0
 489              	.LVL42:
 490 0000 70B5     		push	{r4, r5, r6, lr}
 491              		.cfi_def_cfa_offset 16
 492              		.cfi_offset 4, -16
 493              		.cfi_offset 5, -12
 494              		.cfi_offset 6, -8
 495              		.cfi_offset 14, -4
 496              		.loc 1 336 0
 497 0002 0446     		mov	r4, r0
 498 0004 0E46     		mov	r6, r1
 499              		.loc 1 342 0
 500 0006 1030     		adds	r0, r0, #16
 501              	.LVL43:
 502 0008 1146     		mov	r1, r2
 503              	.LVL44:
 504 000a FFF7FEFF 		bl	chSemWaitTimeoutS
 505              	.LVL45:
 506              		.loc 1 343 0
ARM GAS  /var/folders/7z/kps_xzfj7sn5l5gkyq8s9db00000gn/T//ccLk9ZXD.s 			page 10


 507 000e 0546     		mov	r5, r0
 508 0010 80B9     		cbnz	r0, .L31
 509              	.LVL46:
 510              	.LBB14:
 511              	.LBB15:
 512              		.loc 1 344 0
 513 0012 E368     		ldr	r3, [r4, #12]
 514              		.loc 1 345 0
 515 0014 6268     		ldr	r2, [r4, #4]
 516              		.loc 1 344 0
 517 0016 1968     		ldr	r1, [r3]
 518 0018 0433     		adds	r3, r3, #4
 519              		.loc 1 345 0
 520 001a 9342     		cmp	r3, r2
 521              		.loc 1 344 0
 522 001c E360     		str	r3, [r4, #12]
 523              		.loc 1 346 0
 524 001e 28BF     		it	cs
 525 0020 2368     		ldrcs	r3, [r4]
 526              		.loc 1 344 0
 527 0022 3160     		str	r1, [r6]
 528              		.loc 1 347 0
 529 0024 04F11C00 		add	r0, r4, #28
 530              	.LVL47:
 531              		.loc 1 346 0
 532 0028 28BF     		it	cs
 533 002a E360     		strcs	r3, [r4, #12]
 534              		.loc 1 347 0
 535 002c FFF7FEFF 		bl	chSemSignalI
 536              	.LVL48:
 537              		.loc 1 348 0
 538 0030 FFF7FEFF 		bl	chSchRescheduleS
 539              	.LVL49:
 540              	.L31:
 541              	.LBE15:
 542              	.LBE14:
 543              		.loc 1 351 0
 544 0034 2846     		mov	r0, r5
 545 0036 70BD     		pop	{r4, r5, r6, pc}
 546              		.cfi_endproc
 547              	.LFE16:
 548              		.size	chMBFetchS, .-chMBFetchS
 549 0038 AFF30080 		.section	.text.chMBFetch,"ax",%progbits
 549      AFF30080 
 550              		.align	2
 551              		.p2align 4,,15
 552              		.global	chMBFetch
 553              		.thumb
 554              		.thumb_func
 555              		.type	chMBFetch, %function
 556              	chMBFetch:
 557              	.LFB15:
 558              		.loc 1 308 0
 559              		.cfi_startproc
 560              		@ args = 0, pretend = 0, frame = 0
 561              		@ frame_needed = 0, uses_anonymous_args = 0
 562              	.LVL50:
ARM GAS  /var/folders/7z/kps_xzfj7sn5l5gkyq8s9db00000gn/T//ccLk9ZXD.s 			page 11


 563 0000 08B5     		push	{r3, lr}
 564              		.cfi_def_cfa_offset 8
 565              		.cfi_offset 3, -8
 566              		.cfi_offset 14, -4
 567              		.loc 1 311 0
 568              	@ 311 "lib/ChibiOS_2.6.6/os/kernel/src/chmboxes.c" 1
 569 0002 72B6     		cpsid   i
 570              	@ 0 "" 2
 571              		.loc 1 312 0
 572              		.thumb
 573 0004 FFF7FEFF 		bl	chMBFetchS
 574              	.LVL51:
 575              		.loc 1 313 0
 576              	@ 313 "lib/ChibiOS_2.6.6/os/kernel/src/chmboxes.c" 1
 577 0008 62B6     		cpsie   i
 578              	@ 0 "" 2
 579              		.loc 1 315 0
 580              		.thumb
 581 000a 08BD     		pop	{r3, pc}
 582              		.cfi_endproc
 583              	.LFE15:
 584              		.size	chMBFetch, .-chMBFetch
 585 000c AFF30080 		.section	.text.chMBFetchI,"ax",%progbits
 586              		.align	2
 587              		.p2align 4,,15
 588              		.global	chMBFetchI
 589              		.thumb
 590              		.thumb_func
 591              		.type	chMBFetchI, %function
 592              	chMBFetchI:
 593              	.LFB17:
 594              		.loc 1 367 0
 595              		.cfi_startproc
 596              		@ args = 0, pretend = 0, frame = 0
 597              		@ frame_needed = 0, uses_anonymous_args = 0
 598              	.LVL52:
 599              		.loc 1 372 0
 600 0000 8369     		ldr	r3, [r0, #24]
 601 0002 002B     		cmp	r3, #0
 602 0004 14DD     		ble	.L39
 603              		.loc 1 374 0
 604 0006 5A1E     		subs	r2, r3, #1
 605              		.loc 1 375 0
 606 0008 C368     		ldr	r3, [r0, #12]
 607              		.loc 1 367 0
 608 000a 10B5     		push	{r4, lr}
 609              		.cfi_def_cfa_offset 8
 610              		.cfi_offset 4, -8
 611              		.cfi_offset 14, -4
 612              		.loc 1 374 0
 613 000c 8261     		str	r2, [r0, #24]
 614              		.loc 1 376 0
 615 000e 4268     		ldr	r2, [r0, #4]
 616              		.loc 1 375 0
 617 0010 1C68     		ldr	r4, [r3]
 618 0012 0433     		adds	r3, r3, #4
 619              		.loc 1 376 0
ARM GAS  /var/folders/7z/kps_xzfj7sn5l5gkyq8s9db00000gn/T//ccLk9ZXD.s 			page 12


 620 0014 9342     		cmp	r3, r2
 621              		.loc 1 375 0
 622 0016 C360     		str	r3, [r0, #12]
 623              		.loc 1 377 0
 624 0018 28BF     		it	cs
 625 001a 0368     		ldrcs	r3, [r0]
 626              		.loc 1 375 0
 627 001c 0C60     		str	r4, [r1]
 628              		.loc 1 378 0
 629 001e 00F11C00 		add	r0, r0, #28
 630              	.LVL53:
 631              		.loc 1 377 0
 632 0022 28BF     		it	cs
 633 0024 40F8103C 		strcs	r3, [r0, #-16]
 634              		.loc 1 378 0
 635 0028 FFF7FEFF 		bl	chSemSignalI
 636              	.LVL54:
 637              		.loc 1 379 0
 638 002c 0020     		movs	r0, #0
 639 002e 10BD     		pop	{r4, pc}
 640              	.LVL55:
 641              	.L39:
 642              		.cfi_def_cfa_offset 0
 643              		.cfi_restore 4
 644              		.cfi_restore 14
 645              		.loc 1 373 0
 646 0030 4FF0FF30 		mov	r0, #-1
 647              	.LVL56:
 648 0034 7047     		bx	lr
 649              		.cfi_endproc
 650              	.LFE17:
 651              		.size	chMBFetchI, .-chMBFetchI
 652 0036 00BFAFF3 		.text
 652      0080AFF3 
 652      0080
 653              	.Letext0:
 654              		.file 2 "/Users/Baram/gcc-arm-none-eabi/arm-none-eabi/include/machine/_default_types.h"
 655              		.file 3 "/Users/Baram/gcc-arm-none-eabi/arm-none-eabi/include/stdint.h"
 656              		.file 4 "lib/ChibiOS_2.6.6/os/ports/GCC/ARMCMx/chtypes.h"
 657              		.file 5 "lib/ChibiOS_2.6.6/os/kernel/include/chlists.h"
 658              		.file 6 "lib/ChibiOS_2.6.6/os/kernel/include/chthreads.h"
 659              		.file 7 "lib/ChibiOS_2.6.6/os/ports/GCC/ARMCMx/chcore_v7m.h"
 660              		.file 8 "lib/ChibiOS_2.6.6/os/kernel/include/chsem.h"
 661              		.file 9 "lib/ChibiOS_2.6.6/os/kernel/include/chmtx.h"
 662              		.file 10 "lib/ChibiOS_2.6.6/os/kernel/include/chmboxes.h"
 663              		.file 11 "lib/ChibiOS_2.6.6/os/kernel/include/chschd.h"
 664              		.section	.debug_info,"",%progbits
 665              	.Ldebug_info0:
 666 0000 2F0B0000 		.4byte	0xb2f
 667 0004 0400     		.2byte	0x4
 668 0006 00000000 		.4byte	.Ldebug_abbrev0
 669 000a 04       		.byte	0x4
 670 000b 01       		.uleb128 0x1
 671 000c 1A000000 		.4byte	.LASF87
 672 0010 01       		.byte	0x1
 673 0011 15030000 		.4byte	.LASF88
 674 0015 51020000 		.4byte	.LASF89
ARM GAS  /var/folders/7z/kps_xzfj7sn5l5gkyq8s9db00000gn/T//ccLk9ZXD.s 			page 13


 675 0019 18000000 		.4byte	.Ldebug_ranges0+0x18
 676 001d 00000000 		.4byte	0
 677 0021 00000000 		.4byte	.Ldebug_line0
 678 0025 02       		.uleb128 0x2
 679 0026 04       		.byte	0x4
 680 0027 05       		.byte	0x5
 681 0028 696E7400 		.ascii	"int\000"
 682 002c 03       		.uleb128 0x3
 683 002d 04       		.byte	0x4
 684 002e 07       		.byte	0x7
 685 002f 29020000 		.4byte	.LASF0
 686 0033 03       		.uleb128 0x3
 687 0034 01       		.byte	0x1
 688 0035 06       		.byte	0x6
 689 0036 AD010000 		.4byte	.LASF1
 690 003a 04       		.uleb128 0x4
 691 003b F6030000 		.4byte	.LASF5
 692 003f 02       		.byte	0x2
 693 0040 1D       		.byte	0x1d
 694 0041 45000000 		.4byte	0x45
 695 0045 03       		.uleb128 0x3
 696 0046 01       		.byte	0x1
 697 0047 08       		.byte	0x8
 698 0048 81030000 		.4byte	.LASF2
 699 004c 03       		.uleb128 0x3
 700 004d 02       		.byte	0x2
 701 004e 05       		.byte	0x5
 702 004f A0030000 		.4byte	.LASF3
 703 0053 03       		.uleb128 0x3
 704 0054 02       		.byte	0x2
 705 0055 07       		.byte	0x7
 706 0056 97020000 		.4byte	.LASF4
 707 005a 04       		.uleb128 0x4
 708 005b 33040000 		.4byte	.LASF6
 709 005f 02       		.byte	0x2
 710 0060 3F       		.byte	0x3f
 711 0061 65000000 		.4byte	0x65
 712 0065 03       		.uleb128 0x3
 713 0066 04       		.byte	0x4
 714 0067 05       		.byte	0x5
 715 0068 D3010000 		.4byte	.LASF7
 716 006c 04       		.uleb128 0x4
 717 006d 0F020000 		.4byte	.LASF8
 718 0071 02       		.byte	0x2
 719 0072 41       		.byte	0x41
 720 0073 77000000 		.4byte	0x77
 721 0077 03       		.uleb128 0x3
 722 0078 04       		.byte	0x4
 723 0079 07       		.byte	0x7
 724 007a 3F020000 		.4byte	.LASF9
 725 007e 03       		.uleb128 0x3
 726 007f 08       		.byte	0x8
 727 0080 05       		.byte	0x5
 728 0081 9F010000 		.4byte	.LASF10
 729 0085 03       		.uleb128 0x3
 730 0086 08       		.byte	0x8
 731 0087 07       		.byte	0x7
ARM GAS  /var/folders/7z/kps_xzfj7sn5l5gkyq8s9db00000gn/T//ccLk9ZXD.s 			page 14


 732 0088 69010000 		.4byte	.LASF11
 733 008c 04       		.uleb128 0x4
 734 008d 96040000 		.4byte	.LASF12
 735 0091 03       		.byte	0x3
 736 0092 15       		.byte	0x15
 737 0093 3A000000 		.4byte	0x3a
 738 0097 04       		.uleb128 0x4
 739 0098 79030000 		.4byte	.LASF13
 740 009c 03       		.byte	0x3
 741 009d 2C       		.byte	0x2c
 742 009e 5A000000 		.4byte	0x5a
 743 00a2 04       		.uleb128 0x4
 744 00a3 ED030000 		.4byte	.LASF14
 745 00a7 03       		.byte	0x3
 746 00a8 2D       		.byte	0x2d
 747 00a9 6C000000 		.4byte	0x6c
 748 00ad 03       		.uleb128 0x3
 749 00ae 01       		.byte	0x1
 750 00af 02       		.byte	0x2
 751 00b0 73030000 		.4byte	.LASF15
 752 00b4 04       		.uleb128 0x4
 753 00b5 C6020000 		.4byte	.LASF16
 754 00b9 04       		.byte	0x4
 755 00ba 2C       		.byte	0x2c
 756 00bb 8C000000 		.4byte	0x8c
 757 00bf 04       		.uleb128 0x4
 758 00c0 DC010000 		.4byte	.LASF17
 759 00c4 04       		.byte	0x4
 760 00c5 2D       		.byte	0x2d
 761 00c6 8C000000 		.4byte	0x8c
 762 00ca 04       		.uleb128 0x4
 763 00cb 5C030000 		.4byte	.LASF18
 764 00cf 04       		.byte	0x4
 765 00d0 2E       		.byte	0x2e
 766 00d1 8C000000 		.4byte	0x8c
 767 00d5 04       		.uleb128 0x4
 768 00d6 C9010000 		.4byte	.LASF19
 769 00da 04       		.byte	0x4
 770 00db 2F       		.byte	0x2f
 771 00dc 8C000000 		.4byte	0x8c
 772 00e0 04       		.uleb128 0x4
 773 00e1 6B030000 		.4byte	.LASF20
 774 00e5 04       		.byte	0x4
 775 00e6 30       		.byte	0x30
 776 00e7 A2000000 		.4byte	0xa2
 777 00eb 04       		.uleb128 0x4
 778 00ec B5020000 		.4byte	.LASF21
 779 00f0 04       		.byte	0x4
 780 00f1 31       		.byte	0x31
 781 00f2 97000000 		.4byte	0x97
 782 00f6 04       		.uleb128 0x4
 783 00f7 DA020000 		.4byte	.LASF22
 784 00fb 04       		.byte	0x4
 785 00fc 33       		.byte	0x33
 786 00fd A2000000 		.4byte	0xa2
 787 0101 04       		.uleb128 0x4
 788 0102 1E040000 		.4byte	.LASF23
ARM GAS  /var/folders/7z/kps_xzfj7sn5l5gkyq8s9db00000gn/T//ccLk9ZXD.s 			page 15


 789 0106 04       		.byte	0x4
 790 0107 35       		.byte	0x35
 791 0108 A2000000 		.4byte	0xa2
 792 010c 04       		.uleb128 0x4
 793 010d 23020000 		.4byte	.LASF24
 794 0111 04       		.byte	0x4
 795 0112 36       		.byte	0x36
 796 0113 97000000 		.4byte	0x97
 797 0117 04       		.uleb128 0x4
 798 0118 DB030000 		.4byte	.LASF25
 799 011c 05       		.byte	0x5
 800 011d 2A       		.byte	0x2a
 801 011e 22010000 		.4byte	0x122
 802 0122 05       		.uleb128 0x5
 803 0123 DB030000 		.4byte	.LASF25
 804 0127 48       		.byte	0x48
 805 0128 06       		.byte	0x6
 806 0129 5E       		.byte	0x5e
 807 012a 1F020000 		.4byte	0x21f
 808 012e 06       		.uleb128 0x6
 809 012f C3030000 		.4byte	.LASF26
 810 0133 06       		.byte	0x6
 811 0134 5F       		.byte	0x5f
 812 0135 40020000 		.4byte	0x240
 813 0139 00       		.byte	0
 814 013a 06       		.uleb128 0x6
 815 013b 64030000 		.4byte	.LASF27
 816 013f 06       		.byte	0x6
 817 0140 61       		.byte	0x61
 818 0141 40020000 		.4byte	0x240
 819 0145 04       		.byte	0x4
 820 0146 06       		.uleb128 0x6
 821 0147 98010000 		.4byte	.LASF28
 822 014b 06       		.byte	0x6
 823 014c 63       		.byte	0x63
 824 014d E0000000 		.4byte	0xe0
 825 0151 08       		.byte	0x8
 826 0152 06       		.uleb128 0x6
 827 0153 B4040000 		.4byte	.LASF29
 828 0157 06       		.byte	0x6
 829 0158 64       		.byte	0x64
 830 0159 CA030000 		.4byte	0x3ca
 831 015d 0C       		.byte	0xc
 832 015e 06       		.uleb128 0x6
 833 015f E5010000 		.4byte	.LASF30
 834 0163 06       		.byte	0x6
 835 0164 66       		.byte	0x66
 836 0165 40020000 		.4byte	0x240
 837 0169 10       		.byte	0x10
 838 016a 06       		.uleb128 0x6
 839 016b 0D030000 		.4byte	.LASF31
 840 016f 06       		.byte	0x6
 841 0170 67       		.byte	0x67
 842 0171 40020000 		.4byte	0x240
 843 0175 14       		.byte	0x14
 844 0176 06       		.uleb128 0x6
 845 0177 A5040000 		.4byte	.LASF32
ARM GAS  /var/folders/7z/kps_xzfj7sn5l5gkyq8s9db00000gn/T//ccLk9ZXD.s 			page 16


 846 017b 06       		.byte	0x6
 847 017c 6E       		.byte	0x6e
 848 017d 00050000 		.4byte	0x500
 849 0181 18       		.byte	0x18
 850 0182 06       		.uleb128 0x6
 851 0183 AA030000 		.4byte	.LASF33
 852 0187 06       		.byte	0x6
 853 0188 79       		.byte	0x79
 854 0189 BF000000 		.4byte	0xbf
 855 018d 1C       		.byte	0x1c
 856 018e 06       		.uleb128 0x6
 857 018f CA030000 		.4byte	.LASF34
 858 0193 06       		.byte	0x6
 859 0194 7D       		.byte	0x7d
 860 0195 B4000000 		.4byte	0xb4
 861 0199 1D       		.byte	0x1d
 862 019a 06       		.uleb128 0x6
 863 019b 83040000 		.4byte	.LASF35
 864 019f 06       		.byte	0x6
 865 01a0 82       		.byte	0x82
 866 01a1 CA000000 		.4byte	0xca
 867 01a5 1E       		.byte	0x1e
 868 01a6 06       		.uleb128 0x6
 869 01a7 B2030000 		.4byte	.LASF36
 870 01ab 06       		.byte	0x6
 871 01ac 88       		.byte	0x88
 872 01ad D5000000 		.4byte	0xd5
 873 01b1 1F       		.byte	0x1f
 874 01b2 06       		.uleb128 0x6
 875 01b3 3D040000 		.4byte	.LASF37
 876 01b7 06       		.byte	0x6
 877 01b8 8F       		.byte	0x8f
 878 01b9 F2030000 		.4byte	0x3f2
 879 01bd 20       		.byte	0x20
 880 01be 07       		.uleb128 0x7
 881 01bf 705F7500 		.ascii	"p_u\000"
 882 01c3 06       		.byte	0x6
 883 01c4 B4       		.byte	0xb4
 884 01c5 CB040000 		.4byte	0x4cb
 885 01c9 24       		.byte	0x24
 886 01ca 06       		.uleb128 0x6
 887 01cb BA040000 		.4byte	.LASF38
 888 01cf 06       		.byte	0x6
 889 01d0 B9       		.byte	0xb9
 890 01d1 66020000 		.4byte	0x266
 891 01d5 28       		.byte	0x28
 892 01d6 06       		.uleb128 0x6
 893 01d7 59040000 		.4byte	.LASF39
 894 01db 06       		.byte	0x6
 895 01dc BF       		.byte	0xbf
 896 01dd 46020000 		.4byte	0x246
 897 01e1 2C       		.byte	0x2c
 898 01e2 06       		.uleb128 0x6
 899 01e3 00000000 		.4byte	.LASF40
 900 01e7 06       		.byte	0x6
 901 01e8 C3       		.byte	0xc3
 902 01e9 EB000000 		.4byte	0xeb
ARM GAS  /var/folders/7z/kps_xzfj7sn5l5gkyq8s9db00000gn/T//ccLk9ZXD.s 			page 17


 903 01ed 34       		.byte	0x34
 904 01ee 06       		.uleb128 0x6
 905 01ef E2030000 		.4byte	.LASF41
 906 01f3 06       		.byte	0x6
 907 01f4 C9       		.byte	0xc9
 908 01f5 F6000000 		.4byte	0xf6
 909 01f9 38       		.byte	0x38
 910 01fa 06       		.uleb128 0x6
 911 01fb 96030000 		.4byte	.LASF42
 912 01ff 06       		.byte	0x6
 913 0200 D0       		.byte	0xd0
 914 0201 12050000 		.4byte	0x512
 915 0205 3C       		.byte	0x3c
 916 0206 06       		.uleb128 0x6
 917 0207 28040000 		.4byte	.LASF43
 918 020b 06       		.byte	0x6
 919 020c D4       		.byte	0xd4
 920 020d E0000000 		.4byte	0xe0
 921 0211 40       		.byte	0x40
 922 0212 06       		.uleb128 0x6
 923 0213 B9010000 		.4byte	.LASF44
 924 0217 06       		.byte	0x6
 925 0218 DA       		.byte	0xda
 926 0219 7C020000 		.4byte	0x27c
 927 021d 44       		.byte	0x44
 928 021e 00       		.byte	0
 929 021f 08       		.uleb128 0x8
 930 0220 08       		.byte	0x8
 931 0221 05       		.byte	0x5
 932 0222 61       		.byte	0x61
 933 0223 40020000 		.4byte	0x240
 934 0227 06       		.uleb128 0x6
 935 0228 C3030000 		.4byte	.LASF26
 936 022c 05       		.byte	0x5
 937 022d 62       		.byte	0x62
 938 022e 40020000 		.4byte	0x240
 939 0232 00       		.byte	0
 940 0233 06       		.uleb128 0x6
 941 0234 64030000 		.4byte	.LASF27
 942 0238 05       		.byte	0x5
 943 0239 64       		.byte	0x64
 944 023a 40020000 		.4byte	0x240
 945 023e 04       		.byte	0x4
 946 023f 00       		.byte	0
 947 0240 09       		.uleb128 0x9
 948 0241 04       		.byte	0x4
 949 0242 17010000 		.4byte	0x117
 950 0246 04       		.uleb128 0x4
 951 0247 40030000 		.4byte	.LASF45
 952 024b 05       		.byte	0x5
 953 024c 66       		.byte	0x66
 954 024d 1F020000 		.4byte	0x21f
 955 0251 08       		.uleb128 0x8
 956 0252 04       		.byte	0x4
 957 0253 05       		.byte	0x5
 958 0254 6B       		.byte	0x6b
 959 0255 66020000 		.4byte	0x266
ARM GAS  /var/folders/7z/kps_xzfj7sn5l5gkyq8s9db00000gn/T//ccLk9ZXD.s 			page 18


 960 0259 06       		.uleb128 0x6
 961 025a C3030000 		.4byte	.LASF26
 962 025e 05       		.byte	0x5
 963 025f 6D       		.byte	0x6d
 964 0260 40020000 		.4byte	0x240
 965 0264 00       		.byte	0
 966 0265 00       		.byte	0
 967 0266 04       		.uleb128 0x4
 968 0267 CE020000 		.4byte	.LASF46
 969 026b 05       		.byte	0x5
 970 026c 70       		.byte	0x70
 971 026d 51020000 		.4byte	0x251
 972 0271 04       		.uleb128 0x4
 973 0272 1A020000 		.4byte	.LASF47
 974 0276 07       		.byte	0x7
 975 0277 E5       		.byte	0xe5
 976 0278 7C020000 		.4byte	0x27c
 977 027c 0A       		.uleb128 0xa
 978 027d 04       		.byte	0x4
 979 027e 0B       		.uleb128 0xb
 980 027f 52040000 		.4byte	.LASF48
 981 0283 64       		.byte	0x64
 982 0284 07       		.byte	0x7
 983 0285 0C01     		.2byte	0x10c
 984 0287 CA030000 		.4byte	0x3ca
 985 028b 0C       		.uleb128 0xc
 986 028c 73313600 		.ascii	"s16\000"
 987 0290 07       		.byte	0x7
 988 0291 0E01     		.2byte	0x10e
 989 0293 71020000 		.4byte	0x271
 990 0297 00       		.byte	0
 991 0298 0C       		.uleb128 0xc
 992 0299 73313700 		.ascii	"s17\000"
 993 029d 07       		.byte	0x7
 994 029e 0F01     		.2byte	0x10f
 995 02a0 71020000 		.4byte	0x271
 996 02a4 04       		.byte	0x4
 997 02a5 0C       		.uleb128 0xc
 998 02a6 73313800 		.ascii	"s18\000"
 999 02aa 07       		.byte	0x7
 1000 02ab 1001     		.2byte	0x110
 1001 02ad 71020000 		.4byte	0x271
 1002 02b1 08       		.byte	0x8
 1003 02b2 0C       		.uleb128 0xc
 1004 02b3 73313900 		.ascii	"s19\000"
 1005 02b7 07       		.byte	0x7
 1006 02b8 1101     		.2byte	0x111
 1007 02ba 71020000 		.4byte	0x271
 1008 02be 0C       		.byte	0xc
 1009 02bf 0C       		.uleb128 0xc
 1010 02c0 73323000 		.ascii	"s20\000"
 1011 02c4 07       		.byte	0x7
 1012 02c5 1201     		.2byte	0x112
 1013 02c7 71020000 		.4byte	0x271
 1014 02cb 10       		.byte	0x10
 1015 02cc 0C       		.uleb128 0xc
 1016 02cd 73323100 		.ascii	"s21\000"
ARM GAS  /var/folders/7z/kps_xzfj7sn5l5gkyq8s9db00000gn/T//ccLk9ZXD.s 			page 19


 1017 02d1 07       		.byte	0x7
 1018 02d2 1301     		.2byte	0x113
 1019 02d4 71020000 		.4byte	0x271
 1020 02d8 14       		.byte	0x14
 1021 02d9 0C       		.uleb128 0xc
 1022 02da 73323200 		.ascii	"s22\000"
 1023 02de 07       		.byte	0x7
 1024 02df 1401     		.2byte	0x114
 1025 02e1 71020000 		.4byte	0x271
 1026 02e5 18       		.byte	0x18
 1027 02e6 0C       		.uleb128 0xc
 1028 02e7 73323300 		.ascii	"s23\000"
 1029 02eb 07       		.byte	0x7
 1030 02ec 1501     		.2byte	0x115
 1031 02ee 71020000 		.4byte	0x271
 1032 02f2 1C       		.byte	0x1c
 1033 02f3 0C       		.uleb128 0xc
 1034 02f4 73323400 		.ascii	"s24\000"
 1035 02f8 07       		.byte	0x7
 1036 02f9 1601     		.2byte	0x116
 1037 02fb 71020000 		.4byte	0x271
 1038 02ff 20       		.byte	0x20
 1039 0300 0C       		.uleb128 0xc
 1040 0301 73323500 		.ascii	"s25\000"
 1041 0305 07       		.byte	0x7
 1042 0306 1701     		.2byte	0x117
 1043 0308 71020000 		.4byte	0x271
 1044 030c 24       		.byte	0x24
 1045 030d 0C       		.uleb128 0xc
 1046 030e 73323600 		.ascii	"s26\000"
 1047 0312 07       		.byte	0x7
 1048 0313 1801     		.2byte	0x118
 1049 0315 71020000 		.4byte	0x271
 1050 0319 28       		.byte	0x28
 1051 031a 0C       		.uleb128 0xc
 1052 031b 73323700 		.ascii	"s27\000"
 1053 031f 07       		.byte	0x7
 1054 0320 1901     		.2byte	0x119
 1055 0322 71020000 		.4byte	0x271
 1056 0326 2C       		.byte	0x2c
 1057 0327 0C       		.uleb128 0xc
 1058 0328 73323800 		.ascii	"s28\000"
 1059 032c 07       		.byte	0x7
 1060 032d 1A01     		.2byte	0x11a
 1061 032f 71020000 		.4byte	0x271
 1062 0333 30       		.byte	0x30
 1063 0334 0C       		.uleb128 0xc
 1064 0335 73323900 		.ascii	"s29\000"
 1065 0339 07       		.byte	0x7
 1066 033a 1B01     		.2byte	0x11b
 1067 033c 71020000 		.4byte	0x271
 1068 0340 34       		.byte	0x34
 1069 0341 0C       		.uleb128 0xc
 1070 0342 73333000 		.ascii	"s30\000"
 1071 0346 07       		.byte	0x7
 1072 0347 1C01     		.2byte	0x11c
 1073 0349 71020000 		.4byte	0x271
ARM GAS  /var/folders/7z/kps_xzfj7sn5l5gkyq8s9db00000gn/T//ccLk9ZXD.s 			page 20


 1074 034d 38       		.byte	0x38
 1075 034e 0C       		.uleb128 0xc
 1076 034f 73333100 		.ascii	"s31\000"
 1077 0353 07       		.byte	0x7
 1078 0354 1D01     		.2byte	0x11d
 1079 0356 71020000 		.4byte	0x271
 1080 035a 3C       		.byte	0x3c
 1081 035b 0C       		.uleb128 0xc
 1082 035c 723400   		.ascii	"r4\000"
 1083 035f 07       		.byte	0x7
 1084 0360 1F01     		.2byte	0x11f
 1085 0362 71020000 		.4byte	0x271
 1086 0366 40       		.byte	0x40
 1087 0367 0C       		.uleb128 0xc
 1088 0368 723500   		.ascii	"r5\000"
 1089 036b 07       		.byte	0x7
 1090 036c 2001     		.2byte	0x120
 1091 036e 71020000 		.4byte	0x271
 1092 0372 44       		.byte	0x44
 1093 0373 0C       		.uleb128 0xc
 1094 0374 723600   		.ascii	"r6\000"
 1095 0377 07       		.byte	0x7
 1096 0378 2101     		.2byte	0x121
 1097 037a 71020000 		.4byte	0x271
 1098 037e 48       		.byte	0x48
 1099 037f 0C       		.uleb128 0xc
 1100 0380 723700   		.ascii	"r7\000"
 1101 0383 07       		.byte	0x7
 1102 0384 2201     		.2byte	0x122
 1103 0386 71020000 		.4byte	0x271
 1104 038a 4C       		.byte	0x4c
 1105 038b 0C       		.uleb128 0xc
 1106 038c 723800   		.ascii	"r8\000"
 1107 038f 07       		.byte	0x7
 1108 0390 2301     		.2byte	0x123
 1109 0392 71020000 		.4byte	0x271
 1110 0396 50       		.byte	0x50
 1111 0397 0C       		.uleb128 0xc
 1112 0398 723900   		.ascii	"r9\000"
 1113 039b 07       		.byte	0x7
 1114 039c 2401     		.2byte	0x124
 1115 039e 71020000 		.4byte	0x271
 1116 03a2 54       		.byte	0x54
 1117 03a3 0C       		.uleb128 0xc
 1118 03a4 72313000 		.ascii	"r10\000"
 1119 03a8 07       		.byte	0x7
 1120 03a9 2501     		.2byte	0x125
 1121 03ab 71020000 		.4byte	0x271
 1122 03af 58       		.byte	0x58
 1123 03b0 0C       		.uleb128 0xc
 1124 03b1 72313100 		.ascii	"r11\000"
 1125 03b5 07       		.byte	0x7
 1126 03b6 2601     		.2byte	0x126
 1127 03b8 71020000 		.4byte	0x271
 1128 03bc 5C       		.byte	0x5c
 1129 03bd 0C       		.uleb128 0xc
 1130 03be 6C7200   		.ascii	"lr\000"
ARM GAS  /var/folders/7z/kps_xzfj7sn5l5gkyq8s9db00000gn/T//ccLk9ZXD.s 			page 21


 1131 03c1 07       		.byte	0x7
 1132 03c2 2701     		.2byte	0x127
 1133 03c4 71020000 		.4byte	0x271
 1134 03c8 60       		.byte	0x60
 1135 03c9 00       		.byte	0
 1136 03ca 0B       		.uleb128 0xb
 1137 03cb 8F020000 		.4byte	.LASF49
 1138 03cf 04       		.byte	0x4
 1139 03d0 07       		.byte	0x7
 1140 03d1 3101     		.2byte	0x131
 1141 03d3 E5030000 		.4byte	0x3e5
 1142 03d7 0C       		.uleb128 0xc
 1143 03d8 72313300 		.ascii	"r13\000"
 1144 03dc 07       		.byte	0x7
 1145 03dd 3201     		.2byte	0x132
 1146 03df E5030000 		.4byte	0x3e5
 1147 03e3 00       		.byte	0
 1148 03e4 00       		.byte	0
 1149 03e5 09       		.uleb128 0x9
 1150 03e6 04       		.byte	0x4
 1151 03e7 7E020000 		.4byte	0x27e
 1152 03eb 03       		.uleb128 0x3
 1153 03ec 04       		.byte	0x4
 1154 03ed 07       		.byte	0x7
 1155 03ee F1020000 		.4byte	.LASF50
 1156 03f2 0D       		.uleb128 0xd
 1157 03f3 01010000 		.4byte	0x101
 1158 03f7 05       		.uleb128 0x5
 1159 03f8 6E040000 		.4byte	.LASF51
 1160 03fc 0C       		.byte	0xc
 1161 03fd 08       		.byte	0x8
 1162 03fe 2C       		.byte	0x2c
 1163 03ff 1C040000 		.4byte	0x41c
 1164 0403 06       		.uleb128 0x6
 1165 0404 ED010000 		.4byte	.LASF52
 1166 0408 08       		.byte	0x8
 1167 0409 2D       		.byte	0x2d
 1168 040a 46020000 		.4byte	0x246
 1169 040e 00       		.byte	0
 1170 040f 06       		.uleb128 0x6
 1171 0410 89020000 		.4byte	.LASF53
 1172 0414 08       		.byte	0x8
 1173 0415 2F       		.byte	0x2f
 1174 0416 0C010000 		.4byte	0x10c
 1175 041a 08       		.byte	0x8
 1176 041b 00       		.byte	0
 1177 041c 04       		.uleb128 0x4
 1178 041d 6E040000 		.4byte	.LASF51
 1179 0421 08       		.byte	0x8
 1180 0422 30       		.byte	0x30
 1181 0423 F7030000 		.4byte	0x3f7
 1182 0427 05       		.uleb128 0x5
 1183 0428 E6020000 		.4byte	.LASF54
 1184 042c 10       		.byte	0x10
 1185 042d 09       		.byte	0x9
 1186 042e 2C       		.byte	0x2c
 1187 042f 58040000 		.4byte	0x458
ARM GAS  /var/folders/7z/kps_xzfj7sn5l5gkyq8s9db00000gn/T//ccLk9ZXD.s 			page 22


 1188 0433 06       		.uleb128 0x6
 1189 0434 C1010000 		.4byte	.LASF55
 1190 0438 09       		.byte	0x9
 1191 0439 2D       		.byte	0x2d
 1192 043a 46020000 		.4byte	0x246
 1193 043e 00       		.byte	0
 1194 043f 06       		.uleb128 0x6
 1195 0440 AC040000 		.4byte	.LASF56
 1196 0444 09       		.byte	0x9
 1197 0445 2F       		.byte	0x2f
 1198 0446 40020000 		.4byte	0x240
 1199 044a 08       		.byte	0x8
 1200 044b 06       		.uleb128 0x6
 1201 044c 17040000 		.4byte	.LASF57
 1202 0450 09       		.byte	0x9
 1203 0451 31       		.byte	0x31
 1204 0452 58040000 		.4byte	0x458
 1205 0456 0C       		.byte	0xc
 1206 0457 00       		.byte	0
 1207 0458 09       		.uleb128 0x9
 1208 0459 04       		.byte	0x4
 1209 045a 27040000 		.4byte	0x427
 1210 045e 04       		.uleb128 0x4
 1211 045f E6020000 		.4byte	.LASF54
 1212 0463 09       		.byte	0x9
 1213 0464 33       		.byte	0x33
 1214 0465 27040000 		.4byte	0x427
 1215 0469 08       		.uleb128 0x8
 1216 046a 28       		.byte	0x28
 1217 046b 0A       		.byte	0xa
 1218 046c 33       		.byte	0x33
 1219 046d BA040000 		.4byte	0x4ba
 1220 0471 06       		.uleb128 0x6
 1221 0472 4D030000 		.4byte	.LASF58
 1222 0476 0A       		.byte	0xa
 1223 0477 34       		.byte	0x34
 1224 0478 BA040000 		.4byte	0x4ba
 1225 047c 00       		.byte	0
 1226 047d 06       		.uleb128 0x6
 1227 047e 8F030000 		.4byte	.LASF59
 1228 0482 0A       		.byte	0xa
 1229 0483 36       		.byte	0x36
 1230 0484 BA040000 		.4byte	0x4ba
 1231 0488 04       		.byte	0x4
 1232 0489 06       		.uleb128 0x6
 1233 048a 8F010000 		.4byte	.LASF60
 1234 048e 0A       		.byte	0xa
 1235 048f 38       		.byte	0x38
 1236 0490 BA040000 		.4byte	0x4ba
 1237 0494 08       		.byte	0x8
 1238 0495 06       		.uleb128 0x6
 1239 0496 FA020000 		.4byte	.LASF61
 1240 049a 0A       		.byte	0xa
 1241 049b 39       		.byte	0x39
 1242 049c BA040000 		.4byte	0x4ba
 1243 04a0 0C       		.byte	0xc
 1244 04a1 06       		.uleb128 0x6
ARM GAS  /var/folders/7z/kps_xzfj7sn5l5gkyq8s9db00000gn/T//ccLk9ZXD.s 			page 23


 1245 04a2 78040000 		.4byte	.LASF62
 1246 04a6 0A       		.byte	0xa
 1247 04a7 3A       		.byte	0x3a
 1248 04a8 1C040000 		.4byte	0x41c
 1249 04ac 10       		.byte	0x10
 1250 04ad 06       		.uleb128 0x6
 1251 04ae 7D020000 		.4byte	.LASF63
 1252 04b2 0A       		.byte	0xa
 1253 04b3 3C       		.byte	0x3c
 1254 04b4 1C040000 		.4byte	0x41c
 1255 04b8 1C       		.byte	0x1c
 1256 04b9 00       		.byte	0
 1257 04ba 09       		.uleb128 0x9
 1258 04bb 04       		.byte	0x4
 1259 04bc EB000000 		.4byte	0xeb
 1260 04c0 04       		.uleb128 0x4
 1261 04c1 52010000 		.4byte	.LASF64
 1262 04c5 0A       		.byte	0xa
 1263 04c6 3E       		.byte	0x3e
 1264 04c7 69040000 		.4byte	0x469
 1265 04cb 0E       		.uleb128 0xe
 1266 04cc 04       		.byte	0x4
 1267 04cd 06       		.byte	0x6
 1268 04ce 96       		.byte	0x96
 1269 04cf 00050000 		.4byte	0x500
 1270 04d3 0F       		.uleb128 0xf
 1271 04d4 13000000 		.4byte	.LASF65
 1272 04d8 06       		.byte	0x6
 1273 04d9 9D       		.byte	0x9d
 1274 04da EB000000 		.4byte	0xeb
 1275 04de 0F       		.uleb128 0xf
 1276 04df F5010000 		.4byte	.LASF66
 1277 04e3 06       		.byte	0x6
 1278 04e4 A4       		.byte	0xa4
 1279 04e5 EB000000 		.4byte	0xeb
 1280 04e9 0F       		.uleb128 0xf
 1281 04ea 9E040000 		.4byte	.LASF67
 1282 04ee 06       		.byte	0x6
 1283 04ef AB       		.byte	0xab
 1284 04f0 7C020000 		.4byte	0x27c
 1285 04f4 0F       		.uleb128 0xf
 1286 04f5 BC030000 		.4byte	.LASF68
 1287 04f9 06       		.byte	0x6
 1288 04fa B2       		.byte	0xb2
 1289 04fb F6000000 		.4byte	0xf6
 1290 04ff 00       		.byte	0
 1291 0500 09       		.uleb128 0x9
 1292 0501 04       		.byte	0x4
 1293 0502 06050000 		.4byte	0x506
 1294 0506 10       		.uleb128 0x10
 1295 0507 0B050000 		.4byte	0x50b
 1296 050b 03       		.uleb128 0x3
 1297 050c 01       		.byte	0x1
 1298 050d 08       		.byte	0x8
 1299 050e 00040000 		.4byte	.LASF69
 1300 0512 09       		.uleb128 0x9
 1301 0513 04       		.byte	0x4
ARM GAS  /var/folders/7z/kps_xzfj7sn5l5gkyq8s9db00000gn/T//ccLk9ZXD.s 			page 24


 1302 0514 5E040000 		.4byte	0x45e
 1303 0518 11       		.uleb128 0x11
 1304 0519 48010000 		.4byte	.LASF71
 1305 051d 01       		.byte	0x1
 1306 051e 96       		.byte	0x96
 1307 051f EB000000 		.4byte	0xeb
 1308 0523 01       		.byte	0x1
 1309 0524 55050000 		.4byte	0x555
 1310 0528 12       		.uleb128 0x12
 1311 0529 6D627000 		.ascii	"mbp\000"
 1312 052d 01       		.byte	0x1
 1313 052e 96       		.byte	0x96
 1314 052f 55050000 		.4byte	0x555
 1315 0533 12       		.uleb128 0x12
 1316 0534 6D736700 		.ascii	"msg\000"
 1317 0538 01       		.byte	0x1
 1318 0539 96       		.byte	0x96
 1319 053a EB000000 		.4byte	0xeb
 1320 053e 13       		.uleb128 0x13
 1321 053f 57030000 		.4byte	.LASF70
 1322 0543 01       		.byte	0x1
 1323 0544 96       		.byte	0x96
 1324 0545 01010000 		.4byte	0x101
 1325 0549 14       		.uleb128 0x14
 1326 054a 13000000 		.4byte	.LASF65
 1327 054e 01       		.byte	0x1
 1328 054f 97       		.byte	0x97
 1329 0550 EB000000 		.4byte	0xeb
 1330 0554 00       		.byte	0
 1331 0555 09       		.uleb128 0x9
 1332 0556 04       		.byte	0x4
 1333 0557 C0040000 		.4byte	0x4c0
 1334 055b 11       		.uleb128 0x11
 1335 055c 80010000 		.4byte	.LASF72
 1336 0560 01       		.byte	0x1
 1337 0561 F3       		.byte	0xf3
 1338 0562 EB000000 		.4byte	0xeb
 1339 0566 01       		.byte	0x1
 1340 0567 98050000 		.4byte	0x598
 1341 056b 12       		.uleb128 0x12
 1342 056c 6D627000 		.ascii	"mbp\000"
 1343 0570 01       		.byte	0x1
 1344 0571 F3       		.byte	0xf3
 1345 0572 55050000 		.4byte	0x555
 1346 0576 12       		.uleb128 0x12
 1347 0577 6D736700 		.ascii	"msg\000"
 1348 057b 01       		.byte	0x1
 1349 057c F3       		.byte	0xf3
 1350 057d EB000000 		.4byte	0xeb
 1351 0581 13       		.uleb128 0x13
 1352 0582 57030000 		.4byte	.LASF70
 1353 0586 01       		.byte	0x1
 1354 0587 F3       		.byte	0xf3
 1355 0588 01010000 		.4byte	0x101
 1356 058c 14       		.uleb128 0x14
 1357 058d 13000000 		.4byte	.LASF65
 1358 0591 01       		.byte	0x1
ARM GAS  /var/folders/7z/kps_xzfj7sn5l5gkyq8s9db00000gn/T//ccLk9ZXD.s 			page 25


 1359 0592 F4       		.byte	0xf4
 1360 0593 EB000000 		.4byte	0xeb
 1361 0597 00       		.byte	0
 1362 0598 15       		.uleb128 0x15
 1363 0599 BB020000 		.4byte	.LASF73
 1364 059d 01       		.byte	0x1
 1365 059e 5001     		.2byte	0x150
 1366 05a0 EB000000 		.4byte	0xeb
 1367 05a4 01       		.byte	0x1
 1368 05a5 DA050000 		.4byte	0x5da
 1369 05a9 16       		.uleb128 0x16
 1370 05aa 6D627000 		.ascii	"mbp\000"
 1371 05ae 01       		.byte	0x1
 1372 05af 5001     		.2byte	0x150
 1373 05b1 55050000 		.4byte	0x555
 1374 05b5 17       		.uleb128 0x17
 1375 05b6 EC020000 		.4byte	.LASF74
 1376 05ba 01       		.byte	0x1
 1377 05bb 5001     		.2byte	0x150
 1378 05bd BA040000 		.4byte	0x4ba
 1379 05c1 17       		.uleb128 0x17
 1380 05c2 57030000 		.4byte	.LASF70
 1381 05c6 01       		.byte	0x1
 1382 05c7 5001     		.2byte	0x150
 1383 05c9 01010000 		.4byte	0x101
 1384 05cd 18       		.uleb128 0x18
 1385 05ce 13000000 		.4byte	.LASF65
 1386 05d2 01       		.byte	0x1
 1387 05d3 5101     		.2byte	0x151
 1388 05d5 EB000000 		.4byte	0xeb
 1389 05d9 00       		.byte	0
 1390 05da 19       		.uleb128 0x19
 1391 05db 36020000 		.4byte	.LASF75
 1392 05df 01       		.byte	0x1
 1393 05e0 48       		.byte	0x48
 1394 05e1 00000000 		.4byte	.LFB7
 1395 05e5 28000000 		.4byte	.LFE7-.LFB7
 1396 05e9 01       		.uleb128 0x1
 1397 05ea 9C       		.byte	0x9c
 1398 05eb 4E060000 		.4byte	0x64e
 1399 05ef 1A       		.uleb128 0x1a
 1400 05f0 6D627000 		.ascii	"mbp\000"
 1401 05f4 01       		.byte	0x1
 1402 05f5 48       		.byte	0x48
 1403 05f6 55050000 		.4byte	0x555
 1404 05fa 00000000 		.4byte	.LLST0
 1405 05fe 1A       		.uleb128 0x1a
 1406 05ff 62756600 		.ascii	"buf\000"
 1407 0603 01       		.byte	0x1
 1408 0604 48       		.byte	0x48
 1409 0605 BA040000 		.4byte	0x4ba
 1410 0609 39000000 		.4byte	.LLST1
 1411 060d 1A       		.uleb128 0x1a
 1412 060e 6E00     		.ascii	"n\000"
 1413 0610 01       		.byte	0x1
 1414 0611 48       		.byte	0x48
 1415 0612 0C010000 		.4byte	0x10c
ARM GAS  /var/folders/7z/kps_xzfj7sn5l5gkyq8s9db00000gn/T//ccLk9ZXD.s 			page 26


 1416 0616 65000000 		.4byte	.LLST2
 1417 061a 1B       		.uleb128 0x1b
 1418 061b 1A000000 		.4byte	.LVL3
 1419 061f D20A0000 		.4byte	0xad2
 1420 0623 35060000 		.4byte	0x635
 1421 0627 1C       		.uleb128 0x1c
 1422 0628 01       		.uleb128 0x1
 1423 0629 51       		.byte	0x51
 1424 062a 03       		.uleb128 0x3
 1425 062b F3       		.byte	0xf3
 1426 062c 01       		.uleb128 0x1
 1427 062d 52       		.byte	0x52
 1428 062e 1C       		.uleb128 0x1c
 1429 062f 01       		.uleb128 0x1
 1430 0630 50       		.byte	0x50
 1431 0631 02       		.uleb128 0x2
 1432 0632 74       		.byte	0x74
 1433 0633 1C       		.sleb128 28
 1434 0634 00       		.byte	0
 1435 0635 1D       		.uleb128 0x1d
 1436 0636 28000000 		.4byte	.LVL5
 1437 063a D20A0000 		.4byte	0xad2
 1438 063e 1C       		.uleb128 0x1c
 1439 063f 01       		.uleb128 0x1
 1440 0640 51       		.byte	0x51
 1441 0641 01       		.uleb128 0x1
 1442 0642 30       		.byte	0x30
 1443 0643 1C       		.uleb128 0x1c
 1444 0644 01       		.uleb128 0x1
 1445 0645 50       		.byte	0x50
 1446 0646 05       		.uleb128 0x5
 1447 0647 F3       		.byte	0xf3
 1448 0648 01       		.uleb128 0x1
 1449 0649 50       		.byte	0x50
 1450 064a 23       		.byte	0x23
 1451 064b 10       		.uleb128 0x10
 1452 064c 00       		.byte	0
 1453 064d 00       		.byte	0
 1454 064e 19       		.uleb128 0x19
 1455 064f 03030000 		.4byte	.LASF76
 1456 0653 01       		.byte	0x1
 1457 0654 5B       		.byte	0x5b
 1458 0655 00000000 		.4byte	.LFB8
 1459 0659 2A000000 		.4byte	.LFE8-.LFB8
 1460 065d 01       		.uleb128 0x1
 1461 065e 9C       		.byte	0x9c
 1462 065f A9060000 		.4byte	0x6a9
 1463 0663 1A       		.uleb128 0x1a
 1464 0664 6D627000 		.ascii	"mbp\000"
 1465 0668 01       		.byte	0x1
 1466 0669 5B       		.byte	0x5b
 1467 066a 55050000 		.4byte	0x555
 1468 066e 86000000 		.4byte	.LLST3
 1469 0672 1B       		.uleb128 0x1b
 1470 0673 18000000 		.4byte	.LVL8
 1471 0677 EE0A0000 		.4byte	0xaee
 1472 067b 86060000 		.4byte	0x686
ARM GAS  /var/folders/7z/kps_xzfj7sn5l5gkyq8s9db00000gn/T//ccLk9ZXD.s 			page 27


 1473 067f 1C       		.uleb128 0x1c
 1474 0680 01       		.uleb128 0x1
 1475 0681 50       		.byte	0x50
 1476 0682 02       		.uleb128 0x2
 1477 0683 74       		.byte	0x74
 1478 0684 1C       		.sleb128 28
 1479 0685 00       		.byte	0
 1480 0686 1B       		.uleb128 0x1b
 1481 0687 22000000 		.4byte	.LVL9
 1482 068b EE0A0000 		.4byte	0xaee
 1483 068f 9F060000 		.4byte	0x69f
 1484 0693 1C       		.uleb128 0x1c
 1485 0694 01       		.uleb128 0x1
 1486 0695 51       		.byte	0x51
 1487 0696 01       		.uleb128 0x1
 1488 0697 30       		.byte	0x30
 1489 0698 1C       		.uleb128 0x1c
 1490 0699 01       		.uleb128 0x1
 1491 069a 50       		.byte	0x50
 1492 069b 02       		.uleb128 0x2
 1493 069c 74       		.byte	0x74
 1494 069d 10       		.sleb128 16
 1495 069e 00       		.byte	0
 1496 069f 1E       		.uleb128 0x1e
 1497 06a0 26000000 		.4byte	.LVL10
 1498 06a4 040B0000 		.4byte	0xb04
 1499 06a8 00       		.byte	0
 1500 06a9 1F       		.uleb128 0x1f
 1501 06aa 18050000 		.4byte	0x518
 1502 06ae 00000000 		.4byte	.LFB10
 1503 06b2 36000000 		.4byte	.LFE10-.LFB10
 1504 06b6 01       		.uleb128 0x1
 1505 06b7 9C       		.byte	0x9c
 1506 06b8 4D070000 		.4byte	0x74d
 1507 06bc 20       		.uleb128 0x20
 1508 06bd 28050000 		.4byte	0x528
 1509 06c1 A4000000 		.4byte	.LLST4
 1510 06c5 20       		.uleb128 0x20
 1511 06c6 33050000 		.4byte	0x533
 1512 06ca C2000000 		.4byte	.LLST5
 1513 06ce 20       		.uleb128 0x20
 1514 06cf 3E050000 		.4byte	0x53e
 1515 06d3 E0000000 		.4byte	.LLST6
 1516 06d7 21       		.uleb128 0x21
 1517 06d8 49050000 		.4byte	0x549
 1518 06dc 01010000 		.4byte	.LLST7
 1519 06e0 22       		.uleb128 0x22
 1520 06e1 12000000 		.4byte	.LBB4
 1521 06e5 20000000 		.4byte	.LBE4-.LBB4
 1522 06e9 35070000 		.4byte	0x735
 1523 06ed 20       		.uleb128 0x20
 1524 06ee 3E050000 		.4byte	0x53e
 1525 06f2 1F010000 		.4byte	.LLST8
 1526 06f6 20       		.uleb128 0x20
 1527 06f7 33050000 		.4byte	0x533
 1528 06fb 35010000 		.4byte	.LLST9
 1529 06ff 20       		.uleb128 0x20
ARM GAS  /var/folders/7z/kps_xzfj7sn5l5gkyq8s9db00000gn/T//ccLk9ZXD.s 			page 28


 1530 0700 28050000 		.4byte	0x528
 1531 0704 48010000 		.4byte	.LLST10
 1532 0708 23       		.uleb128 0x23
 1533 0709 12000000 		.4byte	.LBB5
 1534 070d 20000000 		.4byte	.LBE5-.LBB5
 1535 0711 24       		.uleb128 0x24
 1536 0712 49050000 		.4byte	0x549
 1537 0716 1B       		.uleb128 0x1b
 1538 0717 2E000000 		.4byte	.LVL17
 1539 071b 0B0B0000 		.4byte	0xb0b
 1540 071f 2A070000 		.4byte	0x72a
 1541 0723 1C       		.uleb128 0x1c
 1542 0724 01       		.uleb128 0x1
 1543 0725 50       		.byte	0x50
 1544 0726 02       		.uleb128 0x2
 1545 0727 74       		.byte	0x74
 1546 0728 10       		.sleb128 16
 1547 0729 00       		.byte	0
 1548 072a 1E       		.uleb128 0x1e
 1549 072b 32000000 		.4byte	.LVL18
 1550 072f 040B0000 		.4byte	0xb04
 1551 0733 00       		.byte	0
 1552 0734 00       		.byte	0
 1553 0735 25       		.uleb128 0x25
 1554 0736 0E000000 		.4byte	.LVL14
 1555 073a 1C0B0000 		.4byte	0xb1c
 1556 073e 1C       		.uleb128 0x1c
 1557 073f 01       		.uleb128 0x1
 1558 0740 51       		.byte	0x51
 1559 0741 03       		.uleb128 0x3
 1560 0742 F3       		.byte	0xf3
 1561 0743 01       		.uleb128 0x1
 1562 0744 52       		.byte	0x52
 1563 0745 1C       		.uleb128 0x1c
 1564 0746 01       		.uleb128 0x1
 1565 0747 50       		.byte	0x50
 1566 0748 02       		.uleb128 0x2
 1567 0749 74       		.byte	0x74
 1568 074a 1C       		.sleb128 28
 1569 074b 00       		.byte	0
 1570 074c 00       		.byte	0
 1571 074d 26       		.uleb128 0x26
 1572 074e D2030000 		.4byte	.LASF77
 1573 0752 01       		.byte	0x1
 1574 0753 7A       		.byte	0x7a
 1575 0754 EB000000 		.4byte	0xeb
 1576 0758 00000000 		.4byte	.LFB9
 1577 075c 0C000000 		.4byte	.LFE9-.LFB9
 1578 0760 01       		.uleb128 0x1
 1579 0761 9C       		.byte	0x9c
 1580 0762 C0070000 		.4byte	0x7c0
 1581 0766 1A       		.uleb128 0x1a
 1582 0767 6D627000 		.ascii	"mbp\000"
 1583 076b 01       		.byte	0x1
 1584 076c 7A       		.byte	0x7a
 1585 076d 55050000 		.4byte	0x555
 1586 0771 5B010000 		.4byte	.LLST11
ARM GAS  /var/folders/7z/kps_xzfj7sn5l5gkyq8s9db00000gn/T//ccLk9ZXD.s 			page 29


 1587 0775 1A       		.uleb128 0x1a
 1588 0776 6D736700 		.ascii	"msg\000"
 1589 077a 01       		.byte	0x1
 1590 077b 7A       		.byte	0x7a
 1591 077c EB000000 		.4byte	0xeb
 1592 0780 7C010000 		.4byte	.LLST12
 1593 0784 27       		.uleb128 0x27
 1594 0785 57030000 		.4byte	.LASF70
 1595 0789 01       		.byte	0x1
 1596 078a 7A       		.byte	0x7a
 1597 078b 01010000 		.4byte	0x101
 1598 078f 9D010000 		.4byte	.LLST13
 1599 0793 28       		.uleb128 0x28
 1600 0794 13000000 		.4byte	.LASF65
 1601 0798 01       		.byte	0x1
 1602 0799 7B       		.byte	0x7b
 1603 079a EB000000 		.4byte	0xeb
 1604 079e 01       		.uleb128 0x1
 1605 079f 50       		.byte	0x50
 1606 07a0 25       		.uleb128 0x25
 1607 07a1 08000000 		.4byte	.LVL20
 1608 07a5 18050000 		.4byte	0x518
 1609 07a9 1C       		.uleb128 0x1c
 1610 07aa 01       		.uleb128 0x1
 1611 07ab 52       		.byte	0x52
 1612 07ac 03       		.uleb128 0x3
 1613 07ad F3       		.byte	0xf3
 1614 07ae 01       		.uleb128 0x1
 1615 07af 52       		.byte	0x52
 1616 07b0 1C       		.uleb128 0x1c
 1617 07b1 01       		.uleb128 0x1
 1618 07b2 51       		.byte	0x51
 1619 07b3 03       		.uleb128 0x3
 1620 07b4 F3       		.byte	0xf3
 1621 07b5 01       		.uleb128 0x1
 1622 07b6 51       		.byte	0x51
 1623 07b7 1C       		.uleb128 0x1c
 1624 07b8 01       		.uleb128 0x1
 1625 07b9 50       		.byte	0x50
 1626 07ba 03       		.uleb128 0x3
 1627 07bb F3       		.byte	0xf3
 1628 07bc 01       		.uleb128 0x1
 1629 07bd 50       		.byte	0x50
 1630 07be 00       		.byte	0
 1631 07bf 00       		.byte	0
 1632 07c0 26       		.uleb128 0x26
 1633 07c1 3E010000 		.4byte	.LASF78
 1634 07c5 01       		.byte	0x1
 1635 07c6 B5       		.byte	0xb5
 1636 07c7 EB000000 		.4byte	0xeb
 1637 07cb 00000000 		.4byte	.LFB11
 1638 07cf 34000000 		.4byte	.LFE11-.LFB11
 1639 07d3 01       		.uleb128 0x1
 1640 07d4 9C       		.byte	0x9c
 1641 07d5 0B080000 		.4byte	0x80b
 1642 07d9 1A       		.uleb128 0x1a
 1643 07da 6D627000 		.ascii	"mbp\000"
ARM GAS  /var/folders/7z/kps_xzfj7sn5l5gkyq8s9db00000gn/T//ccLk9ZXD.s 			page 30


 1644 07de 01       		.byte	0x1
 1645 07df B5       		.byte	0xb5
 1646 07e0 55050000 		.4byte	0x555
 1647 07e4 BE010000 		.4byte	.LLST14
 1648 07e8 1A       		.uleb128 0x1a
 1649 07e9 6D736700 		.ascii	"msg\000"
 1650 07ed 01       		.byte	0x1
 1651 07ee B5       		.byte	0xb5
 1652 07ef EB000000 		.4byte	0xeb
 1653 07f3 05020000 		.4byte	.LLST15
 1654 07f7 25       		.uleb128 0x25
 1655 07f8 2A000000 		.4byte	.LVL23
 1656 07fc 0B0B0000 		.4byte	0xb0b
 1657 0800 1C       		.uleb128 0x1c
 1658 0801 01       		.uleb128 0x1
 1659 0802 50       		.byte	0x50
 1660 0803 05       		.uleb128 0x5
 1661 0804 F3       		.byte	0xf3
 1662 0805 01       		.uleb128 0x1
 1663 0806 50       		.byte	0x50
 1664 0807 23       		.byte	0x23
 1665 0808 10       		.uleb128 0x10
 1666 0809 00       		.byte	0
 1667 080a 00       		.byte	0
 1668 080b 1F       		.uleb128 0x1f
 1669 080c 5B050000 		.4byte	0x55b
 1670 0810 00000000 		.4byte	.LFB13
 1671 0814 38000000 		.4byte	.LFE13-.LFB13
 1672 0818 01       		.uleb128 0x1
 1673 0819 9C       		.byte	0x9c
 1674 081a A7080000 		.4byte	0x8a7
 1675 081e 20       		.uleb128 0x20
 1676 081f 6B050000 		.4byte	0x56b
 1677 0823 31020000 		.4byte	.LLST16
 1678 0827 20       		.uleb128 0x20
 1679 0828 76050000 		.4byte	0x576
 1680 082c 4F020000 		.4byte	.LLST17
 1681 0830 20       		.uleb128 0x20
 1682 0831 81050000 		.4byte	0x581
 1683 0835 6D020000 		.4byte	.LLST18
 1684 0839 21       		.uleb128 0x21
 1685 083a 8C050000 		.4byte	0x58c
 1686 083e 8E020000 		.4byte	.LLST19
 1687 0842 29       		.uleb128 0x29
 1688 0843 00000000 		.4byte	.Ldebug_ranges0+0
 1689 0847 8F080000 		.4byte	0x88f
 1690 084b 20       		.uleb128 0x20
 1691 084c 81050000 		.4byte	0x581
 1692 0850 B7020000 		.4byte	.LLST20
 1693 0854 20       		.uleb128 0x20
 1694 0855 76050000 		.4byte	0x576
 1695 0859 DB020000 		.4byte	.LLST21
 1696 085d 20       		.uleb128 0x20
 1697 085e 6B050000 		.4byte	0x56b
 1698 0862 F9020000 		.4byte	.LLST22
 1699 0866 2A       		.uleb128 0x2a
 1700 0867 00000000 		.4byte	.Ldebug_ranges0+0
ARM GAS  /var/folders/7z/kps_xzfj7sn5l5gkyq8s9db00000gn/T//ccLk9ZXD.s 			page 31


 1701 086b 24       		.uleb128 0x24
 1702 086c 8C050000 		.4byte	0x58c
 1703 0870 1B       		.uleb128 0x1b
 1704 0871 28000000 		.4byte	.LVL32
 1705 0875 0B0B0000 		.4byte	0xb0b
 1706 0879 84080000 		.4byte	0x884
 1707 087d 1C       		.uleb128 0x1c
 1708 087e 01       		.uleb128 0x1
 1709 087f 50       		.byte	0x50
 1710 0880 02       		.uleb128 0x2
 1711 0881 74       		.byte	0x74
 1712 0882 10       		.sleb128 16
 1713 0883 00       		.byte	0
 1714 0884 1E       		.uleb128 0x1e
 1715 0885 2C000000 		.4byte	.LVL33
 1716 0889 040B0000 		.4byte	0xb04
 1717 088d 00       		.byte	0
 1718 088e 00       		.byte	0
 1719 088f 25       		.uleb128 0x25
 1720 0890 0E000000 		.4byte	.LVL29
 1721 0894 1C0B0000 		.4byte	0xb1c
 1722 0898 1C       		.uleb128 0x1c
 1723 0899 01       		.uleb128 0x1
 1724 089a 51       		.byte	0x51
 1725 089b 03       		.uleb128 0x3
 1726 089c F3       		.byte	0xf3
 1727 089d 01       		.uleb128 0x1
 1728 089e 52       		.byte	0x52
 1729 089f 1C       		.uleb128 0x1c
 1730 08a0 01       		.uleb128 0x1
 1731 08a1 50       		.byte	0x50
 1732 08a2 02       		.uleb128 0x2
 1733 08a3 74       		.byte	0x74
 1734 08a4 1C       		.sleb128 28
 1735 08a5 00       		.byte	0
 1736 08a6 00       		.byte	0
 1737 08a7 26       		.uleb128 0x26
 1738 08a8 44040000 		.4byte	.LASF79
 1739 08ac 01       		.byte	0x1
 1740 08ad D7       		.byte	0xd7
 1741 08ae EB000000 		.4byte	0xeb
 1742 08b2 00000000 		.4byte	.LFB12
 1743 08b6 0C000000 		.4byte	.LFE12-.LFB12
 1744 08ba 01       		.uleb128 0x1
 1745 08bb 9C       		.byte	0x9c
 1746 08bc 1A090000 		.4byte	0x91a
 1747 08c0 1A       		.uleb128 0x1a
 1748 08c1 6D627000 		.ascii	"mbp\000"
 1749 08c5 01       		.byte	0x1
 1750 08c6 D7       		.byte	0xd7
 1751 08c7 55050000 		.4byte	0x555
 1752 08cb 17030000 		.4byte	.LLST23
 1753 08cf 1A       		.uleb128 0x1a
 1754 08d0 6D736700 		.ascii	"msg\000"
 1755 08d4 01       		.byte	0x1
 1756 08d5 D7       		.byte	0xd7
 1757 08d6 EB000000 		.4byte	0xeb
ARM GAS  /var/folders/7z/kps_xzfj7sn5l5gkyq8s9db00000gn/T//ccLk9ZXD.s 			page 32


 1758 08da 38030000 		.4byte	.LLST24
 1759 08de 27       		.uleb128 0x27
 1760 08df 57030000 		.4byte	.LASF70
 1761 08e3 01       		.byte	0x1
 1762 08e4 D7       		.byte	0xd7
 1763 08e5 01010000 		.4byte	0x101
 1764 08e9 59030000 		.4byte	.LLST25
 1765 08ed 28       		.uleb128 0x28
 1766 08ee 13000000 		.4byte	.LASF65
 1767 08f2 01       		.byte	0x1
 1768 08f3 D8       		.byte	0xd8
 1769 08f4 EB000000 		.4byte	0xeb
 1770 08f8 01       		.uleb128 0x1
 1771 08f9 50       		.byte	0x50
 1772 08fa 25       		.uleb128 0x25
 1773 08fb 08000000 		.4byte	.LVL36
 1774 08ff 5B050000 		.4byte	0x55b
 1775 0903 1C       		.uleb128 0x1c
 1776 0904 01       		.uleb128 0x1
 1777 0905 52       		.byte	0x52
 1778 0906 03       		.uleb128 0x3
 1779 0907 F3       		.byte	0xf3
 1780 0908 01       		.uleb128 0x1
 1781 0909 52       		.byte	0x52
 1782 090a 1C       		.uleb128 0x1c
 1783 090b 01       		.uleb128 0x1
 1784 090c 51       		.byte	0x51
 1785 090d 03       		.uleb128 0x3
 1786 090e F3       		.byte	0xf3
 1787 090f 01       		.uleb128 0x1
 1788 0910 51       		.byte	0x51
 1789 0911 1C       		.uleb128 0x1c
 1790 0912 01       		.uleb128 0x1
 1791 0913 50       		.byte	0x50
 1792 0914 03       		.uleb128 0x3
 1793 0915 F3       		.byte	0xf3
 1794 0916 01       		.uleb128 0x1
 1795 0917 50       		.byte	0x50
 1796 0918 00       		.byte	0
 1797 0919 00       		.byte	0
 1798 091a 2B       		.uleb128 0x2b
 1799 091b 5A010000 		.4byte	.LASF80
 1800 091f 01       		.byte	0x1
 1801 0920 1201     		.2byte	0x112
 1802 0922 EB000000 		.4byte	0xeb
 1803 0926 00000000 		.4byte	.LFB14
 1804 092a 30000000 		.4byte	.LFE14-.LFB14
 1805 092e 01       		.uleb128 0x1
 1806 092f 9C       		.byte	0x9c
 1807 0930 68090000 		.4byte	0x968
 1808 0934 2C       		.uleb128 0x2c
 1809 0935 6D627000 		.ascii	"mbp\000"
 1810 0939 01       		.byte	0x1
 1811 093a 1201     		.2byte	0x112
 1812 093c 55050000 		.4byte	0x555
 1813 0940 7A030000 		.4byte	.LLST26
 1814 0944 2C       		.uleb128 0x2c
ARM GAS  /var/folders/7z/kps_xzfj7sn5l5gkyq8s9db00000gn/T//ccLk9ZXD.s 			page 33


 1815 0945 6D736700 		.ascii	"msg\000"
 1816 0949 01       		.byte	0x1
 1817 094a 1201     		.2byte	0x112
 1818 094c EB000000 		.4byte	0xeb
 1819 0950 C1030000 		.4byte	.LLST27
 1820 0954 25       		.uleb128 0x25
 1821 0955 26000000 		.4byte	.LVL39
 1822 0959 0B0B0000 		.4byte	0xb0b
 1823 095d 1C       		.uleb128 0x1c
 1824 095e 01       		.uleb128 0x1
 1825 095f 50       		.byte	0x50
 1826 0960 05       		.uleb128 0x5
 1827 0961 F3       		.byte	0xf3
 1828 0962 01       		.uleb128 0x1
 1829 0963 50       		.byte	0x50
 1830 0964 23       		.byte	0x23
 1831 0965 10       		.uleb128 0x10
 1832 0966 00       		.byte	0
 1833 0967 00       		.byte	0
 1834 0968 1F       		.uleb128 0x1f
 1835 0969 98050000 		.4byte	0x598
 1836 096d 00000000 		.4byte	.LFB16
 1837 0971 38000000 		.4byte	.LFE16-.LFB16
 1838 0975 01       		.uleb128 0x1
 1839 0976 9C       		.byte	0x9c
 1840 0977 0C0A0000 		.4byte	0xa0c
 1841 097b 20       		.uleb128 0x20
 1842 097c A9050000 		.4byte	0x5a9
 1843 0980 ED030000 		.4byte	.LLST28
 1844 0984 20       		.uleb128 0x20
 1845 0985 B5050000 		.4byte	0x5b5
 1846 0989 0B040000 		.4byte	.LLST29
 1847 098d 20       		.uleb128 0x20
 1848 098e C1050000 		.4byte	0x5c1
 1849 0992 29040000 		.4byte	.LLST30
 1850 0996 21       		.uleb128 0x21
 1851 0997 CD050000 		.4byte	0x5cd
 1852 099b 4A040000 		.4byte	.LLST31
 1853 099f 22       		.uleb128 0x22
 1854 09a0 12000000 		.4byte	.LBB14
 1855 09a4 22000000 		.4byte	.LBE14-.LBB14
 1856 09a8 F4090000 		.4byte	0x9f4
 1857 09ac 20       		.uleb128 0x20
 1858 09ad C1050000 		.4byte	0x5c1
 1859 09b1 68040000 		.4byte	.LLST32
 1860 09b5 20       		.uleb128 0x20
 1861 09b6 B5050000 		.4byte	0x5b5
 1862 09ba 7E040000 		.4byte	.LLST33
 1863 09be 20       		.uleb128 0x20
 1864 09bf A9050000 		.4byte	0x5a9
 1865 09c3 91040000 		.4byte	.LLST34
 1866 09c7 23       		.uleb128 0x23
 1867 09c8 12000000 		.4byte	.LBB15
 1868 09cc 22000000 		.4byte	.LBE15-.LBB15
 1869 09d0 24       		.uleb128 0x24
 1870 09d1 CD050000 		.4byte	0x5cd
 1871 09d5 1B       		.uleb128 0x1b
ARM GAS  /var/folders/7z/kps_xzfj7sn5l5gkyq8s9db00000gn/T//ccLk9ZXD.s 			page 34


 1872 09d6 30000000 		.4byte	.LVL48
 1873 09da 0B0B0000 		.4byte	0xb0b
 1874 09de E9090000 		.4byte	0x9e9
 1875 09e2 1C       		.uleb128 0x1c
 1876 09e3 01       		.uleb128 0x1
 1877 09e4 50       		.byte	0x50
 1878 09e5 02       		.uleb128 0x2
 1879 09e6 74       		.byte	0x74
 1880 09e7 1C       		.sleb128 28
 1881 09e8 00       		.byte	0
 1882 09e9 1E       		.uleb128 0x1e
 1883 09ea 34000000 		.4byte	.LVL49
 1884 09ee 040B0000 		.4byte	0xb04
 1885 09f2 00       		.byte	0
 1886 09f3 00       		.byte	0
 1887 09f4 25       		.uleb128 0x25
 1888 09f5 0E000000 		.4byte	.LVL45
 1889 09f9 1C0B0000 		.4byte	0xb1c
 1890 09fd 1C       		.uleb128 0x1c
 1891 09fe 01       		.uleb128 0x1
 1892 09ff 51       		.byte	0x51
 1893 0a00 03       		.uleb128 0x3
 1894 0a01 F3       		.byte	0xf3
 1895 0a02 01       		.uleb128 0x1
 1896 0a03 52       		.byte	0x52
 1897 0a04 1C       		.uleb128 0x1c
 1898 0a05 01       		.uleb128 0x1
 1899 0a06 50       		.byte	0x50
 1900 0a07 02       		.uleb128 0x2
 1901 0a08 74       		.byte	0x74
 1902 0a09 10       		.sleb128 16
 1903 0a0a 00       		.byte	0
 1904 0a0b 00       		.byte	0
 1905 0a0c 2B       		.uleb128 0x2b
 1906 0a0d 64040000 		.4byte	.LASF81
 1907 0a11 01       		.byte	0x1
 1908 0a12 3401     		.2byte	0x134
 1909 0a14 EB000000 		.4byte	0xeb
 1910 0a18 00000000 		.4byte	.LFB15
 1911 0a1c 0C000000 		.4byte	.LFE15-.LFB15
 1912 0a20 01       		.uleb128 0x1
 1913 0a21 9C       		.byte	0x9c
 1914 0a22 840A0000 		.4byte	0xa84
 1915 0a26 2C       		.uleb128 0x2c
 1916 0a27 6D627000 		.ascii	"mbp\000"
 1917 0a2b 01       		.byte	0x1
 1918 0a2c 3401     		.2byte	0x134
 1919 0a2e 55050000 		.4byte	0x555
 1920 0a32 A4040000 		.4byte	.LLST35
 1921 0a36 2D       		.uleb128 0x2d
 1922 0a37 EC020000 		.4byte	.LASF74
 1923 0a3b 01       		.byte	0x1
 1924 0a3c 3401     		.2byte	0x134
 1925 0a3e BA040000 		.4byte	0x4ba
 1926 0a42 C5040000 		.4byte	.LLST36
 1927 0a46 2D       		.uleb128 0x2d
 1928 0a47 57030000 		.4byte	.LASF70
ARM GAS  /var/folders/7z/kps_xzfj7sn5l5gkyq8s9db00000gn/T//ccLk9ZXD.s 			page 35


 1929 0a4b 01       		.byte	0x1
 1930 0a4c 3401     		.2byte	0x134
 1931 0a4e 01010000 		.4byte	0x101
 1932 0a52 E6040000 		.4byte	.LLST37
 1933 0a56 2E       		.uleb128 0x2e
 1934 0a57 13000000 		.4byte	.LASF65
 1935 0a5b 01       		.byte	0x1
 1936 0a5c 3501     		.2byte	0x135
 1937 0a5e EB000000 		.4byte	0xeb
 1938 0a62 01       		.uleb128 0x1
 1939 0a63 50       		.byte	0x50
 1940 0a64 25       		.uleb128 0x25
 1941 0a65 08000000 		.4byte	.LVL51
 1942 0a69 98050000 		.4byte	0x598
 1943 0a6d 1C       		.uleb128 0x1c
 1944 0a6e 01       		.uleb128 0x1
 1945 0a6f 52       		.byte	0x52
 1946 0a70 03       		.uleb128 0x3
 1947 0a71 F3       		.byte	0xf3
 1948 0a72 01       		.uleb128 0x1
 1949 0a73 52       		.byte	0x52
 1950 0a74 1C       		.uleb128 0x1c
 1951 0a75 01       		.uleb128 0x1
 1952 0a76 51       		.byte	0x51
 1953 0a77 03       		.uleb128 0x3
 1954 0a78 F3       		.byte	0xf3
 1955 0a79 01       		.uleb128 0x1
 1956 0a7a 51       		.byte	0x51
 1957 0a7b 1C       		.uleb128 0x1c
 1958 0a7c 01       		.uleb128 0x1
 1959 0a7d 50       		.byte	0x50
 1960 0a7e 03       		.uleb128 0x3
 1961 0a7f F3       		.byte	0xf3
 1962 0a80 01       		.uleb128 0x1
 1963 0a81 50       		.byte	0x50
 1964 0a82 00       		.byte	0
 1965 0a83 00       		.byte	0
 1966 0a84 2B       		.uleb128 0x2b
 1967 0a85 AA020000 		.4byte	.LASF82
 1968 0a89 01       		.byte	0x1
 1969 0a8a 6F01     		.2byte	0x16f
 1970 0a8c EB000000 		.4byte	0xeb
 1971 0a90 00000000 		.4byte	.LFB17
 1972 0a94 36000000 		.4byte	.LFE17-.LFB17
 1973 0a98 01       		.uleb128 0x1
 1974 0a99 9C       		.byte	0x9c
 1975 0a9a D20A0000 		.4byte	0xad2
 1976 0a9e 2C       		.uleb128 0x2c
 1977 0a9f 6D627000 		.ascii	"mbp\000"
 1978 0aa3 01       		.byte	0x1
 1979 0aa4 6F01     		.2byte	0x16f
 1980 0aa6 55050000 		.4byte	0x555
 1981 0aaa 07050000 		.4byte	.LLST38
 1982 0aae 2D       		.uleb128 0x2d
 1983 0aaf EC020000 		.4byte	.LASF74
 1984 0ab3 01       		.byte	0x1
 1985 0ab4 6F01     		.2byte	0x16f
ARM GAS  /var/folders/7z/kps_xzfj7sn5l5gkyq8s9db00000gn/T//ccLk9ZXD.s 			page 36


 1986 0ab6 BA040000 		.4byte	0x4ba
 1987 0aba 4E050000 		.4byte	.LLST39
 1988 0abe 25       		.uleb128 0x25
 1989 0abf 2C000000 		.4byte	.LVL54
 1990 0ac3 0B0B0000 		.4byte	0xb0b
 1991 0ac7 1C       		.uleb128 0x1c
 1992 0ac8 01       		.uleb128 0x1
 1993 0ac9 50       		.byte	0x50
 1994 0aca 05       		.uleb128 0x5
 1995 0acb F3       		.byte	0xf3
 1996 0acc 01       		.uleb128 0x1
 1997 0acd 50       		.byte	0x50
 1998 0ace 23       		.byte	0x23
 1999 0acf 1C       		.uleb128 0x1c
 2000 0ad0 00       		.byte	0
 2001 0ad1 00       		.byte	0
 2002 0ad2 2F       		.uleb128 0x2f
 2003 0ad3 C4040000 		.4byte	.LASF83
 2004 0ad7 08       		.byte	0x8
 2005 0ad8 35       		.byte	0x35
 2006 0ad9 E80A0000 		.4byte	0xae8
 2007 0add 30       		.uleb128 0x30
 2008 0ade E80A0000 		.4byte	0xae8
 2009 0ae2 30       		.uleb128 0x30
 2010 0ae3 0C010000 		.4byte	0x10c
 2011 0ae7 00       		.byte	0
 2012 0ae8 09       		.uleb128 0x9
 2013 0ae9 04       		.byte	0x4
 2014 0aea 1C040000 		.4byte	0x41c
 2015 0aee 2F       		.uleb128 0x2f
 2016 0aef 8A040000 		.4byte	.LASF84
 2017 0af3 08       		.byte	0x8
 2018 0af4 37       		.byte	0x37
 2019 0af5 040B0000 		.4byte	0xb04
 2020 0af9 30       		.uleb128 0x30
 2021 0afa E80A0000 		.4byte	0xae8
 2022 0afe 30       		.uleb128 0x30
 2023 0aff 0C010000 		.4byte	0x10c
 2024 0b03 00       		.byte	0
 2025 0b04 31       		.uleb128 0x31
 2026 0b05 FE010000 		.4byte	.LASF90
 2027 0b09 0B       		.byte	0xb
 2028 0b0a 9C       		.byte	0x9c
 2029 0b0b 2F       		.uleb128 0x2f
 2030 0b0c 06000000 		.4byte	.LASF85
 2031 0b10 08       		.byte	0x8
 2032 0b11 3D       		.byte	0x3d
 2033 0b12 1C0B0000 		.4byte	0xb1c
 2034 0b16 30       		.uleb128 0x30
 2035 0b17 E80A0000 		.4byte	0xae8
 2036 0b1b 00       		.byte	0
 2037 0b1c 32       		.uleb128 0x32
 2038 0b1d 05040000 		.4byte	.LASF86
 2039 0b21 08       		.byte	0x8
 2040 0b22 3B       		.byte	0x3b
 2041 0b23 EB000000 		.4byte	0xeb
 2042 0b27 30       		.uleb128 0x30
ARM GAS  /var/folders/7z/kps_xzfj7sn5l5gkyq8s9db00000gn/T//ccLk9ZXD.s 			page 37


 2043 0b28 E80A0000 		.4byte	0xae8
 2044 0b2c 30       		.uleb128 0x30
 2045 0b2d 01010000 		.4byte	0x101
 2046 0b31 00       		.byte	0
 2047 0b32 00       		.byte	0
 2048              		.section	.debug_abbrev,"",%progbits
 2049              	.Ldebug_abbrev0:
 2050 0000 01       		.uleb128 0x1
 2051 0001 11       		.uleb128 0x11
 2052 0002 01       		.byte	0x1
 2053 0003 25       		.uleb128 0x25
 2054 0004 0E       		.uleb128 0xe
 2055 0005 13       		.uleb128 0x13
 2056 0006 0B       		.uleb128 0xb
 2057 0007 03       		.uleb128 0x3
 2058 0008 0E       		.uleb128 0xe
 2059 0009 1B       		.uleb128 0x1b
 2060 000a 0E       		.uleb128 0xe
 2061 000b 55       		.uleb128 0x55
 2062 000c 17       		.uleb128 0x17
 2063 000d 11       		.uleb128 0x11
 2064 000e 01       		.uleb128 0x1
 2065 000f 10       		.uleb128 0x10
 2066 0010 17       		.uleb128 0x17
 2067 0011 00       		.byte	0
 2068 0012 00       		.byte	0
 2069 0013 02       		.uleb128 0x2
 2070 0014 24       		.uleb128 0x24
 2071 0015 00       		.byte	0
 2072 0016 0B       		.uleb128 0xb
 2073 0017 0B       		.uleb128 0xb
 2074 0018 3E       		.uleb128 0x3e
 2075 0019 0B       		.uleb128 0xb
 2076 001a 03       		.uleb128 0x3
 2077 001b 08       		.uleb128 0x8
 2078 001c 00       		.byte	0
 2079 001d 00       		.byte	0
 2080 001e 03       		.uleb128 0x3
 2081 001f 24       		.uleb128 0x24
 2082 0020 00       		.byte	0
 2083 0021 0B       		.uleb128 0xb
 2084 0022 0B       		.uleb128 0xb
 2085 0023 3E       		.uleb128 0x3e
 2086 0024 0B       		.uleb128 0xb
 2087 0025 03       		.uleb128 0x3
 2088 0026 0E       		.uleb128 0xe
 2089 0027 00       		.byte	0
 2090 0028 00       		.byte	0
 2091 0029 04       		.uleb128 0x4
 2092 002a 16       		.uleb128 0x16
 2093 002b 00       		.byte	0
 2094 002c 03       		.uleb128 0x3
 2095 002d 0E       		.uleb128 0xe
 2096 002e 3A       		.uleb128 0x3a
 2097 002f 0B       		.uleb128 0xb
 2098 0030 3B       		.uleb128 0x3b
 2099 0031 0B       		.uleb128 0xb
ARM GAS  /var/folders/7z/kps_xzfj7sn5l5gkyq8s9db00000gn/T//ccLk9ZXD.s 			page 38


 2100 0032 49       		.uleb128 0x49
 2101 0033 13       		.uleb128 0x13
 2102 0034 00       		.byte	0
 2103 0035 00       		.byte	0
 2104 0036 05       		.uleb128 0x5
 2105 0037 13       		.uleb128 0x13
 2106 0038 01       		.byte	0x1
 2107 0039 03       		.uleb128 0x3
 2108 003a 0E       		.uleb128 0xe
 2109 003b 0B       		.uleb128 0xb
 2110 003c 0B       		.uleb128 0xb
 2111 003d 3A       		.uleb128 0x3a
 2112 003e 0B       		.uleb128 0xb
 2113 003f 3B       		.uleb128 0x3b
 2114 0040 0B       		.uleb128 0xb
 2115 0041 01       		.uleb128 0x1
 2116 0042 13       		.uleb128 0x13
 2117 0043 00       		.byte	0
 2118 0044 00       		.byte	0
 2119 0045 06       		.uleb128 0x6
 2120 0046 0D       		.uleb128 0xd
 2121 0047 00       		.byte	0
 2122 0048 03       		.uleb128 0x3
 2123 0049 0E       		.uleb128 0xe
 2124 004a 3A       		.uleb128 0x3a
 2125 004b 0B       		.uleb128 0xb
 2126 004c 3B       		.uleb128 0x3b
 2127 004d 0B       		.uleb128 0xb
 2128 004e 49       		.uleb128 0x49
 2129 004f 13       		.uleb128 0x13
 2130 0050 38       		.uleb128 0x38
 2131 0051 0B       		.uleb128 0xb
 2132 0052 00       		.byte	0
 2133 0053 00       		.byte	0
 2134 0054 07       		.uleb128 0x7
 2135 0055 0D       		.uleb128 0xd
 2136 0056 00       		.byte	0
 2137 0057 03       		.uleb128 0x3
 2138 0058 08       		.uleb128 0x8
 2139 0059 3A       		.uleb128 0x3a
 2140 005a 0B       		.uleb128 0xb
 2141 005b 3B       		.uleb128 0x3b
 2142 005c 0B       		.uleb128 0xb
 2143 005d 49       		.uleb128 0x49
 2144 005e 13       		.uleb128 0x13
 2145 005f 38       		.uleb128 0x38
 2146 0060 0B       		.uleb128 0xb
 2147 0061 00       		.byte	0
 2148 0062 00       		.byte	0
 2149 0063 08       		.uleb128 0x8
 2150 0064 13       		.uleb128 0x13
 2151 0065 01       		.byte	0x1
 2152 0066 0B       		.uleb128 0xb
 2153 0067 0B       		.uleb128 0xb
 2154 0068 3A       		.uleb128 0x3a
 2155 0069 0B       		.uleb128 0xb
 2156 006a 3B       		.uleb128 0x3b
ARM GAS  /var/folders/7z/kps_xzfj7sn5l5gkyq8s9db00000gn/T//ccLk9ZXD.s 			page 39


 2157 006b 0B       		.uleb128 0xb
 2158 006c 01       		.uleb128 0x1
 2159 006d 13       		.uleb128 0x13
 2160 006e 00       		.byte	0
 2161 006f 00       		.byte	0
 2162 0070 09       		.uleb128 0x9
 2163 0071 0F       		.uleb128 0xf
 2164 0072 00       		.byte	0
 2165 0073 0B       		.uleb128 0xb
 2166 0074 0B       		.uleb128 0xb
 2167 0075 49       		.uleb128 0x49
 2168 0076 13       		.uleb128 0x13
 2169 0077 00       		.byte	0
 2170 0078 00       		.byte	0
 2171 0079 0A       		.uleb128 0xa
 2172 007a 0F       		.uleb128 0xf
 2173 007b 00       		.byte	0
 2174 007c 0B       		.uleb128 0xb
 2175 007d 0B       		.uleb128 0xb
 2176 007e 00       		.byte	0
 2177 007f 00       		.byte	0
 2178 0080 0B       		.uleb128 0xb
 2179 0081 13       		.uleb128 0x13
 2180 0082 01       		.byte	0x1
 2181 0083 03       		.uleb128 0x3
 2182 0084 0E       		.uleb128 0xe
 2183 0085 0B       		.uleb128 0xb
 2184 0086 0B       		.uleb128 0xb
 2185 0087 3A       		.uleb128 0x3a
 2186 0088 0B       		.uleb128 0xb
 2187 0089 3B       		.uleb128 0x3b
 2188 008a 05       		.uleb128 0x5
 2189 008b 01       		.uleb128 0x1
 2190 008c 13       		.uleb128 0x13
 2191 008d 00       		.byte	0
 2192 008e 00       		.byte	0
 2193 008f 0C       		.uleb128 0xc
 2194 0090 0D       		.uleb128 0xd
 2195 0091 00       		.byte	0
 2196 0092 03       		.uleb128 0x3
 2197 0093 08       		.uleb128 0x8
 2198 0094 3A       		.uleb128 0x3a
 2199 0095 0B       		.uleb128 0xb
 2200 0096 3B       		.uleb128 0x3b
 2201 0097 05       		.uleb128 0x5
 2202 0098 49       		.uleb128 0x49
 2203 0099 13       		.uleb128 0x13
 2204 009a 38       		.uleb128 0x38
 2205 009b 0B       		.uleb128 0xb
 2206 009c 00       		.byte	0
 2207 009d 00       		.byte	0
 2208 009e 0D       		.uleb128 0xd
 2209 009f 35       		.uleb128 0x35
 2210 00a0 00       		.byte	0
 2211 00a1 49       		.uleb128 0x49
 2212 00a2 13       		.uleb128 0x13
 2213 00a3 00       		.byte	0
ARM GAS  /var/folders/7z/kps_xzfj7sn5l5gkyq8s9db00000gn/T//ccLk9ZXD.s 			page 40


 2214 00a4 00       		.byte	0
 2215 00a5 0E       		.uleb128 0xe
 2216 00a6 17       		.uleb128 0x17
 2217 00a7 01       		.byte	0x1
 2218 00a8 0B       		.uleb128 0xb
 2219 00a9 0B       		.uleb128 0xb
 2220 00aa 3A       		.uleb128 0x3a
 2221 00ab 0B       		.uleb128 0xb
 2222 00ac 3B       		.uleb128 0x3b
 2223 00ad 0B       		.uleb128 0xb
 2224 00ae 01       		.uleb128 0x1
 2225 00af 13       		.uleb128 0x13
 2226 00b0 00       		.byte	0
 2227 00b1 00       		.byte	0
 2228 00b2 0F       		.uleb128 0xf
 2229 00b3 0D       		.uleb128 0xd
 2230 00b4 00       		.byte	0
 2231 00b5 03       		.uleb128 0x3
 2232 00b6 0E       		.uleb128 0xe
 2233 00b7 3A       		.uleb128 0x3a
 2234 00b8 0B       		.uleb128 0xb
 2235 00b9 3B       		.uleb128 0x3b
 2236 00ba 0B       		.uleb128 0xb
 2237 00bb 49       		.uleb128 0x49
 2238 00bc 13       		.uleb128 0x13
 2239 00bd 00       		.byte	0
 2240 00be 00       		.byte	0
 2241 00bf 10       		.uleb128 0x10
 2242 00c0 26       		.uleb128 0x26
 2243 00c1 00       		.byte	0
 2244 00c2 49       		.uleb128 0x49
 2245 00c3 13       		.uleb128 0x13
 2246 00c4 00       		.byte	0
 2247 00c5 00       		.byte	0
 2248 00c6 11       		.uleb128 0x11
 2249 00c7 2E       		.uleb128 0x2e
 2250 00c8 01       		.byte	0x1
 2251 00c9 3F       		.uleb128 0x3f
 2252 00ca 19       		.uleb128 0x19
 2253 00cb 03       		.uleb128 0x3
 2254 00cc 0E       		.uleb128 0xe
 2255 00cd 3A       		.uleb128 0x3a
 2256 00ce 0B       		.uleb128 0xb
 2257 00cf 3B       		.uleb128 0x3b
 2258 00d0 0B       		.uleb128 0xb
 2259 00d1 27       		.uleb128 0x27
 2260 00d2 19       		.uleb128 0x19
 2261 00d3 49       		.uleb128 0x49
 2262 00d4 13       		.uleb128 0x13
 2263 00d5 20       		.uleb128 0x20
 2264 00d6 0B       		.uleb128 0xb
 2265 00d7 01       		.uleb128 0x1
 2266 00d8 13       		.uleb128 0x13
 2267 00d9 00       		.byte	0
 2268 00da 00       		.byte	0
 2269 00db 12       		.uleb128 0x12
 2270 00dc 05       		.uleb128 0x5
ARM GAS  /var/folders/7z/kps_xzfj7sn5l5gkyq8s9db00000gn/T//ccLk9ZXD.s 			page 41


 2271 00dd 00       		.byte	0
 2272 00de 03       		.uleb128 0x3
 2273 00df 08       		.uleb128 0x8
 2274 00e0 3A       		.uleb128 0x3a
 2275 00e1 0B       		.uleb128 0xb
 2276 00e2 3B       		.uleb128 0x3b
 2277 00e3 0B       		.uleb128 0xb
 2278 00e4 49       		.uleb128 0x49
 2279 00e5 13       		.uleb128 0x13
 2280 00e6 00       		.byte	0
 2281 00e7 00       		.byte	0
 2282 00e8 13       		.uleb128 0x13
 2283 00e9 05       		.uleb128 0x5
 2284 00ea 00       		.byte	0
 2285 00eb 03       		.uleb128 0x3
 2286 00ec 0E       		.uleb128 0xe
 2287 00ed 3A       		.uleb128 0x3a
 2288 00ee 0B       		.uleb128 0xb
 2289 00ef 3B       		.uleb128 0x3b
 2290 00f0 0B       		.uleb128 0xb
 2291 00f1 49       		.uleb128 0x49
 2292 00f2 13       		.uleb128 0x13
 2293 00f3 00       		.byte	0
 2294 00f4 00       		.byte	0
 2295 00f5 14       		.uleb128 0x14
 2296 00f6 34       		.uleb128 0x34
 2297 00f7 00       		.byte	0
 2298 00f8 03       		.uleb128 0x3
 2299 00f9 0E       		.uleb128 0xe
 2300 00fa 3A       		.uleb128 0x3a
 2301 00fb 0B       		.uleb128 0xb
 2302 00fc 3B       		.uleb128 0x3b
 2303 00fd 0B       		.uleb128 0xb
 2304 00fe 49       		.uleb128 0x49
 2305 00ff 13       		.uleb128 0x13
 2306 0100 00       		.byte	0
 2307 0101 00       		.byte	0
 2308 0102 15       		.uleb128 0x15
 2309 0103 2E       		.uleb128 0x2e
 2310 0104 01       		.byte	0x1
 2311 0105 3F       		.uleb128 0x3f
 2312 0106 19       		.uleb128 0x19
 2313 0107 03       		.uleb128 0x3
 2314 0108 0E       		.uleb128 0xe
 2315 0109 3A       		.uleb128 0x3a
 2316 010a 0B       		.uleb128 0xb
 2317 010b 3B       		.uleb128 0x3b
 2318 010c 05       		.uleb128 0x5
 2319 010d 27       		.uleb128 0x27
 2320 010e 19       		.uleb128 0x19
 2321 010f 49       		.uleb128 0x49
 2322 0110 13       		.uleb128 0x13
 2323 0111 20       		.uleb128 0x20
 2324 0112 0B       		.uleb128 0xb
 2325 0113 01       		.uleb128 0x1
 2326 0114 13       		.uleb128 0x13
 2327 0115 00       		.byte	0
ARM GAS  /var/folders/7z/kps_xzfj7sn5l5gkyq8s9db00000gn/T//ccLk9ZXD.s 			page 42


 2328 0116 00       		.byte	0
 2329 0117 16       		.uleb128 0x16
 2330 0118 05       		.uleb128 0x5
 2331 0119 00       		.byte	0
 2332 011a 03       		.uleb128 0x3
 2333 011b 08       		.uleb128 0x8
 2334 011c 3A       		.uleb128 0x3a
 2335 011d 0B       		.uleb128 0xb
 2336 011e 3B       		.uleb128 0x3b
 2337 011f 05       		.uleb128 0x5
 2338 0120 49       		.uleb128 0x49
 2339 0121 13       		.uleb128 0x13
 2340 0122 00       		.byte	0
 2341 0123 00       		.byte	0
 2342 0124 17       		.uleb128 0x17
 2343 0125 05       		.uleb128 0x5
 2344 0126 00       		.byte	0
 2345 0127 03       		.uleb128 0x3
 2346 0128 0E       		.uleb128 0xe
 2347 0129 3A       		.uleb128 0x3a
 2348 012a 0B       		.uleb128 0xb
 2349 012b 3B       		.uleb128 0x3b
 2350 012c 05       		.uleb128 0x5
 2351 012d 49       		.uleb128 0x49
 2352 012e 13       		.uleb128 0x13
 2353 012f 00       		.byte	0
 2354 0130 00       		.byte	0
 2355 0131 18       		.uleb128 0x18
 2356 0132 34       		.uleb128 0x34
 2357 0133 00       		.byte	0
 2358 0134 03       		.uleb128 0x3
 2359 0135 0E       		.uleb128 0xe
 2360 0136 3A       		.uleb128 0x3a
 2361 0137 0B       		.uleb128 0xb
 2362 0138 3B       		.uleb128 0x3b
 2363 0139 05       		.uleb128 0x5
 2364 013a 49       		.uleb128 0x49
 2365 013b 13       		.uleb128 0x13
 2366 013c 00       		.byte	0
 2367 013d 00       		.byte	0
 2368 013e 19       		.uleb128 0x19
 2369 013f 2E       		.uleb128 0x2e
 2370 0140 01       		.byte	0x1
 2371 0141 3F       		.uleb128 0x3f
 2372 0142 19       		.uleb128 0x19
 2373 0143 03       		.uleb128 0x3
 2374 0144 0E       		.uleb128 0xe
 2375 0145 3A       		.uleb128 0x3a
 2376 0146 0B       		.uleb128 0xb
 2377 0147 3B       		.uleb128 0x3b
 2378 0148 0B       		.uleb128 0xb
 2379 0149 27       		.uleb128 0x27
 2380 014a 19       		.uleb128 0x19
 2381 014b 11       		.uleb128 0x11
 2382 014c 01       		.uleb128 0x1
 2383 014d 12       		.uleb128 0x12
 2384 014e 06       		.uleb128 0x6
ARM GAS  /var/folders/7z/kps_xzfj7sn5l5gkyq8s9db00000gn/T//ccLk9ZXD.s 			page 43


 2385 014f 40       		.uleb128 0x40
 2386 0150 18       		.uleb128 0x18
 2387 0151 9742     		.uleb128 0x2117
 2388 0153 19       		.uleb128 0x19
 2389 0154 01       		.uleb128 0x1
 2390 0155 13       		.uleb128 0x13
 2391 0156 00       		.byte	0
 2392 0157 00       		.byte	0
 2393 0158 1A       		.uleb128 0x1a
 2394 0159 05       		.uleb128 0x5
 2395 015a 00       		.byte	0
 2396 015b 03       		.uleb128 0x3
 2397 015c 08       		.uleb128 0x8
 2398 015d 3A       		.uleb128 0x3a
 2399 015e 0B       		.uleb128 0xb
 2400 015f 3B       		.uleb128 0x3b
 2401 0160 0B       		.uleb128 0xb
 2402 0161 49       		.uleb128 0x49
 2403 0162 13       		.uleb128 0x13
 2404 0163 02       		.uleb128 0x2
 2405 0164 17       		.uleb128 0x17
 2406 0165 00       		.byte	0
 2407 0166 00       		.byte	0
 2408 0167 1B       		.uleb128 0x1b
 2409 0168 898201   		.uleb128 0x4109
 2410 016b 01       		.byte	0x1
 2411 016c 11       		.uleb128 0x11
 2412 016d 01       		.uleb128 0x1
 2413 016e 31       		.uleb128 0x31
 2414 016f 13       		.uleb128 0x13
 2415 0170 01       		.uleb128 0x1
 2416 0171 13       		.uleb128 0x13
 2417 0172 00       		.byte	0
 2418 0173 00       		.byte	0
 2419 0174 1C       		.uleb128 0x1c
 2420 0175 8A8201   		.uleb128 0x410a
 2421 0178 00       		.byte	0
 2422 0179 02       		.uleb128 0x2
 2423 017a 18       		.uleb128 0x18
 2424 017b 9142     		.uleb128 0x2111
 2425 017d 18       		.uleb128 0x18
 2426 017e 00       		.byte	0
 2427 017f 00       		.byte	0
 2428 0180 1D       		.uleb128 0x1d
 2429 0181 898201   		.uleb128 0x4109
 2430 0184 01       		.byte	0x1
 2431 0185 11       		.uleb128 0x11
 2432 0186 01       		.uleb128 0x1
 2433 0187 9542     		.uleb128 0x2115
 2434 0189 19       		.uleb128 0x19
 2435 018a 31       		.uleb128 0x31
 2436 018b 13       		.uleb128 0x13
 2437 018c 00       		.byte	0
 2438 018d 00       		.byte	0
 2439 018e 1E       		.uleb128 0x1e
 2440 018f 898201   		.uleb128 0x4109
 2441 0192 00       		.byte	0
ARM GAS  /var/folders/7z/kps_xzfj7sn5l5gkyq8s9db00000gn/T//ccLk9ZXD.s 			page 44


 2442 0193 11       		.uleb128 0x11
 2443 0194 01       		.uleb128 0x1
 2444 0195 31       		.uleb128 0x31
 2445 0196 13       		.uleb128 0x13
 2446 0197 00       		.byte	0
 2447 0198 00       		.byte	0
 2448 0199 1F       		.uleb128 0x1f
 2449 019a 2E       		.uleb128 0x2e
 2450 019b 01       		.byte	0x1
 2451 019c 31       		.uleb128 0x31
 2452 019d 13       		.uleb128 0x13
 2453 019e 11       		.uleb128 0x11
 2454 019f 01       		.uleb128 0x1
 2455 01a0 12       		.uleb128 0x12
 2456 01a1 06       		.uleb128 0x6
 2457 01a2 40       		.uleb128 0x40
 2458 01a3 18       		.uleb128 0x18
 2459 01a4 9742     		.uleb128 0x2117
 2460 01a6 19       		.uleb128 0x19
 2461 01a7 01       		.uleb128 0x1
 2462 01a8 13       		.uleb128 0x13
 2463 01a9 00       		.byte	0
 2464 01aa 00       		.byte	0
 2465 01ab 20       		.uleb128 0x20
 2466 01ac 05       		.uleb128 0x5
 2467 01ad 00       		.byte	0
 2468 01ae 31       		.uleb128 0x31
 2469 01af 13       		.uleb128 0x13
 2470 01b0 02       		.uleb128 0x2
 2471 01b1 17       		.uleb128 0x17
 2472 01b2 00       		.byte	0
 2473 01b3 00       		.byte	0
 2474 01b4 21       		.uleb128 0x21
 2475 01b5 34       		.uleb128 0x34
 2476 01b6 00       		.byte	0
 2477 01b7 31       		.uleb128 0x31
 2478 01b8 13       		.uleb128 0x13
 2479 01b9 02       		.uleb128 0x2
 2480 01ba 17       		.uleb128 0x17
 2481 01bb 00       		.byte	0
 2482 01bc 00       		.byte	0
 2483 01bd 22       		.uleb128 0x22
 2484 01be 0B       		.uleb128 0xb
 2485 01bf 01       		.byte	0x1
 2486 01c0 11       		.uleb128 0x11
 2487 01c1 01       		.uleb128 0x1
 2488 01c2 12       		.uleb128 0x12
 2489 01c3 06       		.uleb128 0x6
 2490 01c4 01       		.uleb128 0x1
 2491 01c5 13       		.uleb128 0x13
 2492 01c6 00       		.byte	0
 2493 01c7 00       		.byte	0
 2494 01c8 23       		.uleb128 0x23
 2495 01c9 0B       		.uleb128 0xb
 2496 01ca 01       		.byte	0x1
 2497 01cb 11       		.uleb128 0x11
 2498 01cc 01       		.uleb128 0x1
ARM GAS  /var/folders/7z/kps_xzfj7sn5l5gkyq8s9db00000gn/T//ccLk9ZXD.s 			page 45


 2499 01cd 12       		.uleb128 0x12
 2500 01ce 06       		.uleb128 0x6
 2501 01cf 00       		.byte	0
 2502 01d0 00       		.byte	0
 2503 01d1 24       		.uleb128 0x24
 2504 01d2 34       		.uleb128 0x34
 2505 01d3 00       		.byte	0
 2506 01d4 31       		.uleb128 0x31
 2507 01d5 13       		.uleb128 0x13
 2508 01d6 00       		.byte	0
 2509 01d7 00       		.byte	0
 2510 01d8 25       		.uleb128 0x25
 2511 01d9 898201   		.uleb128 0x4109
 2512 01dc 01       		.byte	0x1
 2513 01dd 11       		.uleb128 0x11
 2514 01de 01       		.uleb128 0x1
 2515 01df 31       		.uleb128 0x31
 2516 01e0 13       		.uleb128 0x13
 2517 01e1 00       		.byte	0
 2518 01e2 00       		.byte	0
 2519 01e3 26       		.uleb128 0x26
 2520 01e4 2E       		.uleb128 0x2e
 2521 01e5 01       		.byte	0x1
 2522 01e6 3F       		.uleb128 0x3f
 2523 01e7 19       		.uleb128 0x19
 2524 01e8 03       		.uleb128 0x3
 2525 01e9 0E       		.uleb128 0xe
 2526 01ea 3A       		.uleb128 0x3a
 2527 01eb 0B       		.uleb128 0xb
 2528 01ec 3B       		.uleb128 0x3b
 2529 01ed 0B       		.uleb128 0xb
 2530 01ee 27       		.uleb128 0x27
 2531 01ef 19       		.uleb128 0x19
 2532 01f0 49       		.uleb128 0x49
 2533 01f1 13       		.uleb128 0x13
 2534 01f2 11       		.uleb128 0x11
 2535 01f3 01       		.uleb128 0x1
 2536 01f4 12       		.uleb128 0x12
 2537 01f5 06       		.uleb128 0x6
 2538 01f6 40       		.uleb128 0x40
 2539 01f7 18       		.uleb128 0x18
 2540 01f8 9742     		.uleb128 0x2117
 2541 01fa 19       		.uleb128 0x19
 2542 01fb 01       		.uleb128 0x1
 2543 01fc 13       		.uleb128 0x13
 2544 01fd 00       		.byte	0
 2545 01fe 00       		.byte	0
 2546 01ff 27       		.uleb128 0x27
 2547 0200 05       		.uleb128 0x5
 2548 0201 00       		.byte	0
 2549 0202 03       		.uleb128 0x3
 2550 0203 0E       		.uleb128 0xe
 2551 0204 3A       		.uleb128 0x3a
 2552 0205 0B       		.uleb128 0xb
 2553 0206 3B       		.uleb128 0x3b
 2554 0207 0B       		.uleb128 0xb
 2555 0208 49       		.uleb128 0x49
ARM GAS  /var/folders/7z/kps_xzfj7sn5l5gkyq8s9db00000gn/T//ccLk9ZXD.s 			page 46


 2556 0209 13       		.uleb128 0x13
 2557 020a 02       		.uleb128 0x2
 2558 020b 17       		.uleb128 0x17
 2559 020c 00       		.byte	0
 2560 020d 00       		.byte	0
 2561 020e 28       		.uleb128 0x28
 2562 020f 34       		.uleb128 0x34
 2563 0210 00       		.byte	0
 2564 0211 03       		.uleb128 0x3
 2565 0212 0E       		.uleb128 0xe
 2566 0213 3A       		.uleb128 0x3a
 2567 0214 0B       		.uleb128 0xb
 2568 0215 3B       		.uleb128 0x3b
 2569 0216 0B       		.uleb128 0xb
 2570 0217 49       		.uleb128 0x49
 2571 0218 13       		.uleb128 0x13
 2572 0219 02       		.uleb128 0x2
 2573 021a 18       		.uleb128 0x18
 2574 021b 00       		.byte	0
 2575 021c 00       		.byte	0
 2576 021d 29       		.uleb128 0x29
 2577 021e 0B       		.uleb128 0xb
 2578 021f 01       		.byte	0x1
 2579 0220 55       		.uleb128 0x55
 2580 0221 17       		.uleb128 0x17
 2581 0222 01       		.uleb128 0x1
 2582 0223 13       		.uleb128 0x13
 2583 0224 00       		.byte	0
 2584 0225 00       		.byte	0
 2585 0226 2A       		.uleb128 0x2a
 2586 0227 0B       		.uleb128 0xb
 2587 0228 01       		.byte	0x1
 2588 0229 55       		.uleb128 0x55
 2589 022a 17       		.uleb128 0x17
 2590 022b 00       		.byte	0
 2591 022c 00       		.byte	0
 2592 022d 2B       		.uleb128 0x2b
 2593 022e 2E       		.uleb128 0x2e
 2594 022f 01       		.byte	0x1
 2595 0230 3F       		.uleb128 0x3f
 2596 0231 19       		.uleb128 0x19
 2597 0232 03       		.uleb128 0x3
 2598 0233 0E       		.uleb128 0xe
 2599 0234 3A       		.uleb128 0x3a
 2600 0235 0B       		.uleb128 0xb
 2601 0236 3B       		.uleb128 0x3b
 2602 0237 05       		.uleb128 0x5
 2603 0238 27       		.uleb128 0x27
 2604 0239 19       		.uleb128 0x19
 2605 023a 49       		.uleb128 0x49
 2606 023b 13       		.uleb128 0x13
 2607 023c 11       		.uleb128 0x11
 2608 023d 01       		.uleb128 0x1
 2609 023e 12       		.uleb128 0x12
 2610 023f 06       		.uleb128 0x6
 2611 0240 40       		.uleb128 0x40
 2612 0241 18       		.uleb128 0x18
ARM GAS  /var/folders/7z/kps_xzfj7sn5l5gkyq8s9db00000gn/T//ccLk9ZXD.s 			page 47


 2613 0242 9742     		.uleb128 0x2117
 2614 0244 19       		.uleb128 0x19
 2615 0245 01       		.uleb128 0x1
 2616 0246 13       		.uleb128 0x13
 2617 0247 00       		.byte	0
 2618 0248 00       		.byte	0
 2619 0249 2C       		.uleb128 0x2c
 2620 024a 05       		.uleb128 0x5
 2621 024b 00       		.byte	0
 2622 024c 03       		.uleb128 0x3
 2623 024d 08       		.uleb128 0x8
 2624 024e 3A       		.uleb128 0x3a
 2625 024f 0B       		.uleb128 0xb
 2626 0250 3B       		.uleb128 0x3b
 2627 0251 05       		.uleb128 0x5
 2628 0252 49       		.uleb128 0x49
 2629 0253 13       		.uleb128 0x13
 2630 0254 02       		.uleb128 0x2
 2631 0255 17       		.uleb128 0x17
 2632 0256 00       		.byte	0
 2633 0257 00       		.byte	0
 2634 0258 2D       		.uleb128 0x2d
 2635 0259 05       		.uleb128 0x5
 2636 025a 00       		.byte	0
 2637 025b 03       		.uleb128 0x3
 2638 025c 0E       		.uleb128 0xe
 2639 025d 3A       		.uleb128 0x3a
 2640 025e 0B       		.uleb128 0xb
 2641 025f 3B       		.uleb128 0x3b
 2642 0260 05       		.uleb128 0x5
 2643 0261 49       		.uleb128 0x49
 2644 0262 13       		.uleb128 0x13
 2645 0263 02       		.uleb128 0x2
 2646 0264 17       		.uleb128 0x17
 2647 0265 00       		.byte	0
 2648 0266 00       		.byte	0
 2649 0267 2E       		.uleb128 0x2e
 2650 0268 34       		.uleb128 0x34
 2651 0269 00       		.byte	0
 2652 026a 03       		.uleb128 0x3
 2653 026b 0E       		.uleb128 0xe
 2654 026c 3A       		.uleb128 0x3a
 2655 026d 0B       		.uleb128 0xb
 2656 026e 3B       		.uleb128 0x3b
 2657 026f 05       		.uleb128 0x5
 2658 0270 49       		.uleb128 0x49
 2659 0271 13       		.uleb128 0x13
 2660 0272 02       		.uleb128 0x2
 2661 0273 18       		.uleb128 0x18
 2662 0274 00       		.byte	0
 2663 0275 00       		.byte	0
 2664 0276 2F       		.uleb128 0x2f
 2665 0277 2E       		.uleb128 0x2e
 2666 0278 01       		.byte	0x1
 2667 0279 3F       		.uleb128 0x3f
 2668 027a 19       		.uleb128 0x19
 2669 027b 03       		.uleb128 0x3
ARM GAS  /var/folders/7z/kps_xzfj7sn5l5gkyq8s9db00000gn/T//ccLk9ZXD.s 			page 48


 2670 027c 0E       		.uleb128 0xe
 2671 027d 3A       		.uleb128 0x3a
 2672 027e 0B       		.uleb128 0xb
 2673 027f 3B       		.uleb128 0x3b
 2674 0280 0B       		.uleb128 0xb
 2675 0281 27       		.uleb128 0x27
 2676 0282 19       		.uleb128 0x19
 2677 0283 3C       		.uleb128 0x3c
 2678 0284 19       		.uleb128 0x19
 2679 0285 01       		.uleb128 0x1
 2680 0286 13       		.uleb128 0x13
 2681 0287 00       		.byte	0
 2682 0288 00       		.byte	0
 2683 0289 30       		.uleb128 0x30
 2684 028a 05       		.uleb128 0x5
 2685 028b 00       		.byte	0
 2686 028c 49       		.uleb128 0x49
 2687 028d 13       		.uleb128 0x13
 2688 028e 00       		.byte	0
 2689 028f 00       		.byte	0
 2690 0290 31       		.uleb128 0x31
 2691 0291 2E       		.uleb128 0x2e
 2692 0292 00       		.byte	0
 2693 0293 3F       		.uleb128 0x3f
 2694 0294 19       		.uleb128 0x19
 2695 0295 03       		.uleb128 0x3
 2696 0296 0E       		.uleb128 0xe
 2697 0297 3A       		.uleb128 0x3a
 2698 0298 0B       		.uleb128 0xb
 2699 0299 3B       		.uleb128 0x3b
 2700 029a 0B       		.uleb128 0xb
 2701 029b 27       		.uleb128 0x27
 2702 029c 19       		.uleb128 0x19
 2703 029d 3C       		.uleb128 0x3c
 2704 029e 19       		.uleb128 0x19
 2705 029f 00       		.byte	0
 2706 02a0 00       		.byte	0
 2707 02a1 32       		.uleb128 0x32
 2708 02a2 2E       		.uleb128 0x2e
 2709 02a3 01       		.byte	0x1
 2710 02a4 3F       		.uleb128 0x3f
 2711 02a5 19       		.uleb128 0x19
 2712 02a6 03       		.uleb128 0x3
 2713 02a7 0E       		.uleb128 0xe
 2714 02a8 3A       		.uleb128 0x3a
 2715 02a9 0B       		.uleb128 0xb
 2716 02aa 3B       		.uleb128 0x3b
 2717 02ab 0B       		.uleb128 0xb
 2718 02ac 27       		.uleb128 0x27
 2719 02ad 19       		.uleb128 0x19
 2720 02ae 49       		.uleb128 0x49
 2721 02af 13       		.uleb128 0x13
 2722 02b0 3C       		.uleb128 0x3c
 2723 02b1 19       		.uleb128 0x19
 2724 02b2 00       		.byte	0
 2725 02b3 00       		.byte	0
 2726 02b4 00       		.byte	0
ARM GAS  /var/folders/7z/kps_xzfj7sn5l5gkyq8s9db00000gn/T//ccLk9ZXD.s 			page 49


 2727              		.section	.debug_loc,"",%progbits
 2728              	.Ldebug_loc0:
 2729              	.LLST0:
 2730 0000 00000000 		.4byte	.LVL0
 2731 0004 16000000 		.4byte	.LVL2
 2732 0008 0100     		.2byte	0x1
 2733 000a 50       		.byte	0x50
 2734 000b 16000000 		.4byte	.LVL2
 2735 000f 24000000 		.4byte	.LVL4
 2736 0013 0100     		.2byte	0x1
 2737 0015 54       		.byte	0x54
 2738 0016 24000000 		.4byte	.LVL4
 2739 001a 27000000 		.4byte	.LVL5-1
 2740 001e 0300     		.2byte	0x3
 2741 0020 70       		.byte	0x70
 2742 0021 70       		.sleb128 -16
 2743 0022 9F       		.byte	0x9f
 2744 0023 27000000 		.4byte	.LVL5-1
 2745 0027 28000000 		.4byte	.LFE7
 2746 002b 0400     		.2byte	0x4
 2747 002d F3       		.byte	0xf3
 2748 002e 01       		.uleb128 0x1
 2749 002f 50       		.byte	0x50
 2750 0030 9F       		.byte	0x9f
 2751 0031 00000000 		.4byte	0
 2752 0035 00000000 		.4byte	0
 2753              	.LLST1:
 2754 0039 00000000 		.4byte	.LVL0
 2755 003d 08000000 		.4byte	.LVL1
 2756 0041 0100     		.2byte	0x1
 2757 0043 51       		.byte	0x51
 2758 0044 08000000 		.4byte	.LVL1
 2759 0048 19000000 		.4byte	.LVL3-1
 2760 004c 0100     		.2byte	0x1
 2761 004e 53       		.byte	0x53
 2762 004f 19000000 		.4byte	.LVL3-1
 2763 0053 28000000 		.4byte	.LFE7
 2764 0057 0400     		.2byte	0x4
 2765 0059 F3       		.byte	0xf3
 2766 005a 01       		.uleb128 0x1
 2767 005b 51       		.byte	0x51
 2768 005c 9F       		.byte	0x9f
 2769 005d 00000000 		.4byte	0
 2770 0061 00000000 		.4byte	0
 2771              	.LLST2:
 2772 0065 00000000 		.4byte	.LVL0
 2773 0069 19000000 		.4byte	.LVL3-1
 2774 006d 0100     		.2byte	0x1
 2775 006f 52       		.byte	0x52
 2776 0070 19000000 		.4byte	.LVL3-1
 2777 0074 28000000 		.4byte	.LFE7
 2778 0078 0400     		.2byte	0x4
 2779 007a F3       		.byte	0xf3
 2780 007b 01       		.uleb128 0x1
 2781 007c 52       		.byte	0x52
 2782 007d 9F       		.byte	0x9f
 2783 007e 00000000 		.4byte	0
ARM GAS  /var/folders/7z/kps_xzfj7sn5l5gkyq8s9db00000gn/T//ccLk9ZXD.s 			page 50


 2784 0082 00000000 		.4byte	0
 2785              	.LLST3:
 2786 0086 00000000 		.4byte	.LVL6
 2787 008a 14000000 		.4byte	.LVL7
 2788 008e 0100     		.2byte	0x1
 2789 0090 50       		.byte	0x50
 2790 0091 14000000 		.4byte	.LVL7
 2791 0095 2A000000 		.4byte	.LFE8
 2792 0099 0100     		.2byte	0x1
 2793 009b 54       		.byte	0x54
 2794 009c 00000000 		.4byte	0
 2795 00a0 00000000 		.4byte	0
 2796              	.LLST4:
 2797 00a4 00000000 		.4byte	.LVL11
 2798 00a8 08000000 		.4byte	.LVL12
 2799 00ac 0100     		.2byte	0x1
 2800 00ae 50       		.byte	0x50
 2801 00af 08000000 		.4byte	.LVL12
 2802 00b3 36000000 		.4byte	.LFE10
 2803 00b7 0100     		.2byte	0x1
 2804 00b9 54       		.byte	0x54
 2805 00ba 00000000 		.4byte	0
 2806 00be 00000000 		.4byte	0
 2807              	.LLST5:
 2808 00c2 00000000 		.4byte	.LVL11
 2809 00c6 0A000000 		.4byte	.LVL13
 2810 00ca 0100     		.2byte	0x1
 2811 00cc 51       		.byte	0x51
 2812 00cd 0A000000 		.4byte	.LVL13
 2813 00d1 36000000 		.4byte	.LFE10
 2814 00d5 0100     		.2byte	0x1
 2815 00d7 56       		.byte	0x56
 2816 00d8 00000000 		.4byte	0
 2817 00dc 00000000 		.4byte	0
 2818              	.LLST6:
 2819 00e0 00000000 		.4byte	.LVL11
 2820 00e4 0D000000 		.4byte	.LVL14-1
 2821 00e8 0100     		.2byte	0x1
 2822 00ea 52       		.byte	0x52
 2823 00eb 0D000000 		.4byte	.LVL14-1
 2824 00ef 36000000 		.4byte	.LFE10
 2825 00f3 0400     		.2byte	0x4
 2826 00f5 F3       		.byte	0xf3
 2827 00f6 01       		.uleb128 0x1
 2828 00f7 52       		.byte	0x52
 2829 00f8 9F       		.byte	0x9f
 2830 00f9 00000000 		.4byte	0
 2831 00fd 00000000 		.4byte	0
 2832              	.LLST7:
 2833 0101 0E000000 		.4byte	.LVL14
 2834 0105 26000000 		.4byte	.LVL16
 2835 0109 0100     		.2byte	0x1
 2836 010b 50       		.byte	0x50
 2837 010c 26000000 		.4byte	.LVL16
 2838 0110 36000000 		.4byte	.LFE10
 2839 0114 0100     		.2byte	0x1
 2840 0116 55       		.byte	0x55
ARM GAS  /var/folders/7z/kps_xzfj7sn5l5gkyq8s9db00000gn/T//ccLk9ZXD.s 			page 51


 2841 0117 00000000 		.4byte	0
 2842 011b 00000000 		.4byte	0
 2843              	.LLST8:
 2844 011f 12000000 		.4byte	.LVL15
 2845 0123 32000000 		.4byte	.LVL18
 2846 0127 0400     		.2byte	0x4
 2847 0129 F3       		.byte	0xf3
 2848 012a 01       		.uleb128 0x1
 2849 012b 52       		.byte	0x52
 2850 012c 9F       		.byte	0x9f
 2851 012d 00000000 		.4byte	0
 2852 0131 00000000 		.4byte	0
 2853              	.LLST9:
 2854 0135 12000000 		.4byte	.LVL15
 2855 0139 32000000 		.4byte	.LVL18
 2856 013d 0100     		.2byte	0x1
 2857 013f 56       		.byte	0x56
 2858 0140 00000000 		.4byte	0
 2859 0144 00000000 		.4byte	0
 2860              	.LLST10:
 2861 0148 12000000 		.4byte	.LVL15
 2862 014c 32000000 		.4byte	.LVL18
 2863 0150 0100     		.2byte	0x1
 2864 0152 54       		.byte	0x54
 2865 0153 00000000 		.4byte	0
 2866 0157 00000000 		.4byte	0
 2867              	.LLST11:
 2868 015b 00000000 		.4byte	.LVL19
 2869 015f 07000000 		.4byte	.LVL20-1
 2870 0163 0100     		.2byte	0x1
 2871 0165 50       		.byte	0x50
 2872 0166 07000000 		.4byte	.LVL20-1
 2873 016a 0C000000 		.4byte	.LFE9
 2874 016e 0400     		.2byte	0x4
 2875 0170 F3       		.byte	0xf3
 2876 0171 01       		.uleb128 0x1
 2877 0172 50       		.byte	0x50
 2878 0173 9F       		.byte	0x9f
 2879 0174 00000000 		.4byte	0
 2880 0178 00000000 		.4byte	0
 2881              	.LLST12:
 2882 017c 00000000 		.4byte	.LVL19
 2883 0180 07000000 		.4byte	.LVL20-1
 2884 0184 0100     		.2byte	0x1
 2885 0186 51       		.byte	0x51
 2886 0187 07000000 		.4byte	.LVL20-1
 2887 018b 0C000000 		.4byte	.LFE9
 2888 018f 0400     		.2byte	0x4
 2889 0191 F3       		.byte	0xf3
 2890 0192 01       		.uleb128 0x1
 2891 0193 51       		.byte	0x51
 2892 0194 9F       		.byte	0x9f
 2893 0195 00000000 		.4byte	0
 2894 0199 00000000 		.4byte	0
 2895              	.LLST13:
 2896 019d 00000000 		.4byte	.LVL19
 2897 01a1 07000000 		.4byte	.LVL20-1
ARM GAS  /var/folders/7z/kps_xzfj7sn5l5gkyq8s9db00000gn/T//ccLk9ZXD.s 			page 52


 2898 01a5 0100     		.2byte	0x1
 2899 01a7 52       		.byte	0x52
 2900 01a8 07000000 		.4byte	.LVL20-1
 2901 01ac 0C000000 		.4byte	.LFE9
 2902 01b0 0400     		.2byte	0x4
 2903 01b2 F3       		.byte	0xf3
 2904 01b3 01       		.uleb128 0x1
 2905 01b4 52       		.byte	0x52
 2906 01b5 9F       		.byte	0x9f
 2907 01b6 00000000 		.4byte	0
 2908 01ba 00000000 		.4byte	0
 2909              	.LLST14:
 2910 01be 00000000 		.4byte	.LVL21
 2911 01c2 20000000 		.4byte	.LVL22
 2912 01c6 0100     		.2byte	0x1
 2913 01c8 50       		.byte	0x50
 2914 01c9 20000000 		.4byte	.LVL22
 2915 01cd 29000000 		.4byte	.LVL23-1
 2916 01d1 0300     		.2byte	0x3
 2917 01d3 70       		.byte	0x70
 2918 01d4 70       		.sleb128 -16
 2919 01d5 9F       		.byte	0x9f
 2920 01d6 29000000 		.4byte	.LVL23-1
 2921 01da 2E000000 		.4byte	.LVL24
 2922 01de 0400     		.2byte	0x4
 2923 01e0 F3       		.byte	0xf3
 2924 01e1 01       		.uleb128 0x1
 2925 01e2 50       		.byte	0x50
 2926 01e3 9F       		.byte	0x9f
 2927 01e4 2E000000 		.4byte	.LVL24
 2928 01e8 32000000 		.4byte	.LVL25
 2929 01ec 0100     		.2byte	0x1
 2930 01ee 50       		.byte	0x50
 2931 01ef 32000000 		.4byte	.LVL25
 2932 01f3 34000000 		.4byte	.LFE11
 2933 01f7 0400     		.2byte	0x4
 2934 01f9 F3       		.byte	0xf3
 2935 01fa 01       		.uleb128 0x1
 2936 01fb 50       		.byte	0x50
 2937 01fc 9F       		.byte	0x9f
 2938 01fd 00000000 		.4byte	0
 2939 0201 00000000 		.4byte	0
 2940              	.LLST15:
 2941 0205 00000000 		.4byte	.LVL21
 2942 0209 29000000 		.4byte	.LVL23-1
 2943 020d 0100     		.2byte	0x1
 2944 020f 51       		.byte	0x51
 2945 0210 29000000 		.4byte	.LVL23-1
 2946 0214 2E000000 		.4byte	.LVL24
 2947 0218 0400     		.2byte	0x4
 2948 021a F3       		.byte	0xf3
 2949 021b 01       		.uleb128 0x1
 2950 021c 51       		.byte	0x51
 2951 021d 9F       		.byte	0x9f
 2952 021e 2E000000 		.4byte	.LVL24
 2953 0222 34000000 		.4byte	.LFE11
 2954 0226 0100     		.2byte	0x1
ARM GAS  /var/folders/7z/kps_xzfj7sn5l5gkyq8s9db00000gn/T//ccLk9ZXD.s 			page 53


 2955 0228 51       		.byte	0x51
 2956 0229 00000000 		.4byte	0
 2957 022d 00000000 		.4byte	0
 2958              	.LLST16:
 2959 0231 00000000 		.4byte	.LVL26
 2960 0235 08000000 		.4byte	.LVL27
 2961 0239 0100     		.2byte	0x1
 2962 023b 50       		.byte	0x50
 2963 023c 08000000 		.4byte	.LVL27
 2964 0240 38000000 		.4byte	.LFE13
 2965 0244 0100     		.2byte	0x1
 2966 0246 54       		.byte	0x54
 2967 0247 00000000 		.4byte	0
 2968 024b 00000000 		.4byte	0
 2969              	.LLST17:
 2970 024f 00000000 		.4byte	.LVL26
 2971 0253 0A000000 		.4byte	.LVL28
 2972 0257 0100     		.2byte	0x1
 2973 0259 51       		.byte	0x51
 2974 025a 0A000000 		.4byte	.LVL28
 2975 025e 38000000 		.4byte	.LFE13
 2976 0262 0100     		.2byte	0x1
 2977 0264 56       		.byte	0x56
 2978 0265 00000000 		.4byte	0
 2979 0269 00000000 		.4byte	0
 2980              	.LLST18:
 2981 026d 00000000 		.4byte	.LVL26
 2982 0271 0D000000 		.4byte	.LVL29-1
 2983 0275 0100     		.2byte	0x1
 2984 0277 52       		.byte	0x52
 2985 0278 0D000000 		.4byte	.LVL29-1
 2986 027c 38000000 		.4byte	.LFE13
 2987 0280 0400     		.2byte	0x4
 2988 0282 F3       		.byte	0xf3
 2989 0283 01       		.uleb128 0x1
 2990 0284 52       		.byte	0x52
 2991 0285 9F       		.byte	0x9f
 2992 0286 00000000 		.4byte	0
 2993 028a 00000000 		.4byte	0
 2994              	.LLST19:
 2995 028e 0E000000 		.4byte	.LVL29
 2996 0292 24000000 		.4byte	.LVL31
 2997 0296 0100     		.2byte	0x1
 2998 0298 50       		.byte	0x50
 2999 0299 24000000 		.4byte	.LVL31
 3000 029d 30000000 		.4byte	.LVL34
 3001 02a1 0100     		.2byte	0x1
 3002 02a3 55       		.byte	0x55
 3003 02a4 30000000 		.4byte	.LVL34
 3004 02a8 38000000 		.4byte	.LFE13
 3005 02ac 0100     		.2byte	0x1
 3006 02ae 50       		.byte	0x50
 3007 02af 00000000 		.4byte	0
 3008 02b3 00000000 		.4byte	0
 3009              	.LLST20:
 3010 02b7 12000000 		.4byte	.LVL30
 3011 02bb 2C000000 		.4byte	.LVL33
ARM GAS  /var/folders/7z/kps_xzfj7sn5l5gkyq8s9db00000gn/T//ccLk9ZXD.s 			page 54


 3012 02bf 0400     		.2byte	0x4
 3013 02c1 F3       		.byte	0xf3
 3014 02c2 01       		.uleb128 0x1
 3015 02c3 52       		.byte	0x52
 3016 02c4 9F       		.byte	0x9f
 3017 02c5 30000000 		.4byte	.LVL34
 3018 02c9 38000000 		.4byte	.LFE13
 3019 02cd 0400     		.2byte	0x4
 3020 02cf F3       		.byte	0xf3
 3021 02d0 01       		.uleb128 0x1
 3022 02d1 52       		.byte	0x52
 3023 02d2 9F       		.byte	0x9f
 3024 02d3 00000000 		.4byte	0
 3025 02d7 00000000 		.4byte	0
 3026              	.LLST21:
 3027 02db 12000000 		.4byte	.LVL30
 3028 02df 2C000000 		.4byte	.LVL33
 3029 02e3 0100     		.2byte	0x1
 3030 02e5 56       		.byte	0x56
 3031 02e6 30000000 		.4byte	.LVL34
 3032 02ea 38000000 		.4byte	.LFE13
 3033 02ee 0100     		.2byte	0x1
 3034 02f0 56       		.byte	0x56
 3035 02f1 00000000 		.4byte	0
 3036 02f5 00000000 		.4byte	0
 3037              	.LLST22:
 3038 02f9 12000000 		.4byte	.LVL30
 3039 02fd 2C000000 		.4byte	.LVL33
 3040 0301 0100     		.2byte	0x1
 3041 0303 54       		.byte	0x54
 3042 0304 30000000 		.4byte	.LVL34
 3043 0308 38000000 		.4byte	.LFE13
 3044 030c 0100     		.2byte	0x1
 3045 030e 54       		.byte	0x54
 3046 030f 00000000 		.4byte	0
 3047 0313 00000000 		.4byte	0
 3048              	.LLST23:
 3049 0317 00000000 		.4byte	.LVL35
 3050 031b 07000000 		.4byte	.LVL36-1
 3051 031f 0100     		.2byte	0x1
 3052 0321 50       		.byte	0x50
 3053 0322 07000000 		.4byte	.LVL36-1
 3054 0326 0C000000 		.4byte	.LFE12
 3055 032a 0400     		.2byte	0x4
 3056 032c F3       		.byte	0xf3
 3057 032d 01       		.uleb128 0x1
 3058 032e 50       		.byte	0x50
 3059 032f 9F       		.byte	0x9f
 3060 0330 00000000 		.4byte	0
 3061 0334 00000000 		.4byte	0
 3062              	.LLST24:
 3063 0338 00000000 		.4byte	.LVL35
 3064 033c 07000000 		.4byte	.LVL36-1
 3065 0340 0100     		.2byte	0x1
 3066 0342 51       		.byte	0x51
 3067 0343 07000000 		.4byte	.LVL36-1
 3068 0347 0C000000 		.4byte	.LFE12
ARM GAS  /var/folders/7z/kps_xzfj7sn5l5gkyq8s9db00000gn/T//ccLk9ZXD.s 			page 55


 3069 034b 0400     		.2byte	0x4
 3070 034d F3       		.byte	0xf3
 3071 034e 01       		.uleb128 0x1
 3072 034f 51       		.byte	0x51
 3073 0350 9F       		.byte	0x9f
 3074 0351 00000000 		.4byte	0
 3075 0355 00000000 		.4byte	0
 3076              	.LLST25:
 3077 0359 00000000 		.4byte	.LVL35
 3078 035d 07000000 		.4byte	.LVL36-1
 3079 0361 0100     		.2byte	0x1
 3080 0363 52       		.byte	0x52
 3081 0364 07000000 		.4byte	.LVL36-1
 3082 0368 0C000000 		.4byte	.LFE12
 3083 036c 0400     		.2byte	0x4
 3084 036e F3       		.byte	0xf3
 3085 036f 01       		.uleb128 0x1
 3086 0370 52       		.byte	0x52
 3087 0371 9F       		.byte	0x9f
 3088 0372 00000000 		.4byte	0
 3089 0376 00000000 		.4byte	0
 3090              	.LLST26:
 3091 037a 00000000 		.4byte	.LVL37
 3092 037e 22000000 		.4byte	.LVL38
 3093 0382 0100     		.2byte	0x1
 3094 0384 50       		.byte	0x50
 3095 0385 22000000 		.4byte	.LVL38
 3096 0389 25000000 		.4byte	.LVL39-1
 3097 038d 0300     		.2byte	0x3
 3098 038f 70       		.byte	0x70
 3099 0390 70       		.sleb128 -16
 3100 0391 9F       		.byte	0x9f
 3101 0392 25000000 		.4byte	.LVL39-1
 3102 0396 2A000000 		.4byte	.LVL40
 3103 039a 0400     		.2byte	0x4
 3104 039c F3       		.byte	0xf3
 3105 039d 01       		.uleb128 0x1
 3106 039e 50       		.byte	0x50
 3107 039f 9F       		.byte	0x9f
 3108 03a0 2A000000 		.4byte	.LVL40
 3109 03a4 2E000000 		.4byte	.LVL41
 3110 03a8 0100     		.2byte	0x1
 3111 03aa 50       		.byte	0x50
 3112 03ab 2E000000 		.4byte	.LVL41
 3113 03af 30000000 		.4byte	.LFE14
 3114 03b3 0400     		.2byte	0x4
 3115 03b5 F3       		.byte	0xf3
 3116 03b6 01       		.uleb128 0x1
 3117 03b7 50       		.byte	0x50
 3118 03b8 9F       		.byte	0x9f
 3119 03b9 00000000 		.4byte	0
 3120 03bd 00000000 		.4byte	0
 3121              	.LLST27:
 3122 03c1 00000000 		.4byte	.LVL37
 3123 03c5 25000000 		.4byte	.LVL39-1
 3124 03c9 0100     		.2byte	0x1
 3125 03cb 51       		.byte	0x51
ARM GAS  /var/folders/7z/kps_xzfj7sn5l5gkyq8s9db00000gn/T//ccLk9ZXD.s 			page 56


 3126 03cc 25000000 		.4byte	.LVL39-1
 3127 03d0 2A000000 		.4byte	.LVL40
 3128 03d4 0400     		.2byte	0x4
 3129 03d6 F3       		.byte	0xf3
 3130 03d7 01       		.uleb128 0x1
 3131 03d8 51       		.byte	0x51
 3132 03d9 9F       		.byte	0x9f
 3133 03da 2A000000 		.4byte	.LVL40
 3134 03de 30000000 		.4byte	.LFE14
 3135 03e2 0100     		.2byte	0x1
 3136 03e4 51       		.byte	0x51
 3137 03e5 00000000 		.4byte	0
 3138 03e9 00000000 		.4byte	0
 3139              	.LLST28:
 3140 03ed 00000000 		.4byte	.LVL42
 3141 03f1 08000000 		.4byte	.LVL43
 3142 03f5 0100     		.2byte	0x1
 3143 03f7 50       		.byte	0x50
 3144 03f8 08000000 		.4byte	.LVL43
 3145 03fc 38000000 		.4byte	.LFE16
 3146 0400 0100     		.2byte	0x1
 3147 0402 54       		.byte	0x54
 3148 0403 00000000 		.4byte	0
 3149 0407 00000000 		.4byte	0
 3150              	.LLST29:
 3151 040b 00000000 		.4byte	.LVL42
 3152 040f 0A000000 		.4byte	.LVL44
 3153 0413 0100     		.2byte	0x1
 3154 0415 51       		.byte	0x51
 3155 0416 0A000000 		.4byte	.LVL44
 3156 041a 38000000 		.4byte	.LFE16
 3157 041e 0100     		.2byte	0x1
 3158 0420 56       		.byte	0x56
 3159 0421 00000000 		.4byte	0
 3160 0425 00000000 		.4byte	0
 3161              	.LLST30:
 3162 0429 00000000 		.4byte	.LVL42
 3163 042d 0D000000 		.4byte	.LVL45-1
 3164 0431 0100     		.2byte	0x1
 3165 0433 52       		.byte	0x52
 3166 0434 0D000000 		.4byte	.LVL45-1
 3167 0438 38000000 		.4byte	.LFE16
 3168 043c 0400     		.2byte	0x4
 3169 043e F3       		.byte	0xf3
 3170 043f 01       		.uleb128 0x1
 3171 0440 52       		.byte	0x52
 3172 0441 9F       		.byte	0x9f
 3173 0442 00000000 		.4byte	0
 3174 0446 00000000 		.4byte	0
 3175              	.LLST31:
 3176 044a 0E000000 		.4byte	.LVL45
 3177 044e 28000000 		.4byte	.LVL47
 3178 0452 0100     		.2byte	0x1
 3179 0454 50       		.byte	0x50
 3180 0455 28000000 		.4byte	.LVL47
 3181 0459 38000000 		.4byte	.LFE16
 3182 045d 0100     		.2byte	0x1
ARM GAS  /var/folders/7z/kps_xzfj7sn5l5gkyq8s9db00000gn/T//ccLk9ZXD.s 			page 57


 3183 045f 55       		.byte	0x55
 3184 0460 00000000 		.4byte	0
 3185 0464 00000000 		.4byte	0
 3186              	.LLST32:
 3187 0468 12000000 		.4byte	.LVL46
 3188 046c 34000000 		.4byte	.LVL49
 3189 0470 0400     		.2byte	0x4
 3190 0472 F3       		.byte	0xf3
 3191 0473 01       		.uleb128 0x1
 3192 0474 52       		.byte	0x52
 3193 0475 9F       		.byte	0x9f
 3194 0476 00000000 		.4byte	0
 3195 047a 00000000 		.4byte	0
 3196              	.LLST33:
 3197 047e 12000000 		.4byte	.LVL46
 3198 0482 34000000 		.4byte	.LVL49
 3199 0486 0100     		.2byte	0x1
 3200 0488 56       		.byte	0x56
 3201 0489 00000000 		.4byte	0
 3202 048d 00000000 		.4byte	0
 3203              	.LLST34:
 3204 0491 12000000 		.4byte	.LVL46
 3205 0495 34000000 		.4byte	.LVL49
 3206 0499 0100     		.2byte	0x1
 3207 049b 54       		.byte	0x54
 3208 049c 00000000 		.4byte	0
 3209 04a0 00000000 		.4byte	0
 3210              	.LLST35:
 3211 04a4 00000000 		.4byte	.LVL50
 3212 04a8 07000000 		.4byte	.LVL51-1
 3213 04ac 0100     		.2byte	0x1
 3214 04ae 50       		.byte	0x50
 3215 04af 07000000 		.4byte	.LVL51-1
 3216 04b3 0C000000 		.4byte	.LFE15
 3217 04b7 0400     		.2byte	0x4
 3218 04b9 F3       		.byte	0xf3
 3219 04ba 01       		.uleb128 0x1
 3220 04bb 50       		.byte	0x50
 3221 04bc 9F       		.byte	0x9f
 3222 04bd 00000000 		.4byte	0
 3223 04c1 00000000 		.4byte	0
 3224              	.LLST36:
 3225 04c5 00000000 		.4byte	.LVL50
 3226 04c9 07000000 		.4byte	.LVL51-1
 3227 04cd 0100     		.2byte	0x1
 3228 04cf 51       		.byte	0x51
 3229 04d0 07000000 		.4byte	.LVL51-1
 3230 04d4 0C000000 		.4byte	.LFE15
 3231 04d8 0400     		.2byte	0x4
 3232 04da F3       		.byte	0xf3
 3233 04db 01       		.uleb128 0x1
 3234 04dc 51       		.byte	0x51
 3235 04dd 9F       		.byte	0x9f
 3236 04de 00000000 		.4byte	0
 3237 04e2 00000000 		.4byte	0
 3238              	.LLST37:
 3239 04e6 00000000 		.4byte	.LVL50
ARM GAS  /var/folders/7z/kps_xzfj7sn5l5gkyq8s9db00000gn/T//ccLk9ZXD.s 			page 58


 3240 04ea 07000000 		.4byte	.LVL51-1
 3241 04ee 0100     		.2byte	0x1
 3242 04f0 52       		.byte	0x52
 3243 04f1 07000000 		.4byte	.LVL51-1
 3244 04f5 0C000000 		.4byte	.LFE15
 3245 04f9 0400     		.2byte	0x4
 3246 04fb F3       		.byte	0xf3
 3247 04fc 01       		.uleb128 0x1
 3248 04fd 52       		.byte	0x52
 3249 04fe 9F       		.byte	0x9f
 3250 04ff 00000000 		.4byte	0
 3251 0503 00000000 		.4byte	0
 3252              	.LLST38:
 3253 0507 00000000 		.4byte	.LVL52
 3254 050b 22000000 		.4byte	.LVL53
 3255 050f 0100     		.2byte	0x1
 3256 0511 50       		.byte	0x50
 3257 0512 22000000 		.4byte	.LVL53
 3258 0516 2B000000 		.4byte	.LVL54-1
 3259 051a 0300     		.2byte	0x3
 3260 051c 70       		.byte	0x70
 3261 051d 64       		.sleb128 -28
 3262 051e 9F       		.byte	0x9f
 3263 051f 2B000000 		.4byte	.LVL54-1
 3264 0523 30000000 		.4byte	.LVL55
 3265 0527 0400     		.2byte	0x4
 3266 0529 F3       		.byte	0xf3
 3267 052a 01       		.uleb128 0x1
 3268 052b 50       		.byte	0x50
 3269 052c 9F       		.byte	0x9f
 3270 052d 30000000 		.4byte	.LVL55
 3271 0531 34000000 		.4byte	.LVL56
 3272 0535 0100     		.2byte	0x1
 3273 0537 50       		.byte	0x50
 3274 0538 34000000 		.4byte	.LVL56
 3275 053c 36000000 		.4byte	.LFE17
 3276 0540 0400     		.2byte	0x4
 3277 0542 F3       		.byte	0xf3
 3278 0543 01       		.uleb128 0x1
 3279 0544 50       		.byte	0x50
 3280 0545 9F       		.byte	0x9f
 3281 0546 00000000 		.4byte	0
 3282 054a 00000000 		.4byte	0
 3283              	.LLST39:
 3284 054e 00000000 		.4byte	.LVL52
 3285 0552 2B000000 		.4byte	.LVL54-1
 3286 0556 0100     		.2byte	0x1
 3287 0558 51       		.byte	0x51
 3288 0559 2B000000 		.4byte	.LVL54-1
 3289 055d 30000000 		.4byte	.LVL55
 3290 0561 0400     		.2byte	0x4
 3291 0563 F3       		.byte	0xf3
 3292 0564 01       		.uleb128 0x1
 3293 0565 51       		.byte	0x51
 3294 0566 9F       		.byte	0x9f
 3295 0567 30000000 		.4byte	.LVL55
 3296 056b 36000000 		.4byte	.LFE17
ARM GAS  /var/folders/7z/kps_xzfj7sn5l5gkyq8s9db00000gn/T//ccLk9ZXD.s 			page 59


 3297 056f 0100     		.2byte	0x1
 3298 0571 51       		.byte	0x51
 3299 0572 00000000 		.4byte	0
 3300 0576 00000000 		.4byte	0
 3301              		.section	.debug_aranges,"",%progbits
 3302 0000 6C000000 		.4byte	0x6c
 3303 0004 0200     		.2byte	0x2
 3304 0006 00000000 		.4byte	.Ldebug_info0
 3305 000a 04       		.byte	0x4
 3306 000b 00       		.byte	0
 3307 000c 0000     		.2byte	0
 3308 000e 0000     		.2byte	0
 3309 0010 00000000 		.4byte	.LFB7
 3310 0014 28000000 		.4byte	.LFE7-.LFB7
 3311 0018 00000000 		.4byte	.LFB8
 3312 001c 2A000000 		.4byte	.LFE8-.LFB8
 3313 0020 00000000 		.4byte	.LFB10
 3314 0024 36000000 		.4byte	.LFE10-.LFB10
 3315 0028 00000000 		.4byte	.LFB9
 3316 002c 0C000000 		.4byte	.LFE9-.LFB9
 3317 0030 00000000 		.4byte	.LFB11
 3318 0034 34000000 		.4byte	.LFE11-.LFB11
 3319 0038 00000000 		.4byte	.LFB13
 3320 003c 38000000 		.4byte	.LFE13-.LFB13
 3321 0040 00000000 		.4byte	.LFB12
 3322 0044 0C000000 		.4byte	.LFE12-.LFB12
 3323 0048 00000000 		.4byte	.LFB14
 3324 004c 30000000 		.4byte	.LFE14-.LFB14
 3325 0050 00000000 		.4byte	.LFB16
 3326 0054 38000000 		.4byte	.LFE16-.LFB16
 3327 0058 00000000 		.4byte	.LFB15
 3328 005c 0C000000 		.4byte	.LFE15-.LFB15
 3329 0060 00000000 		.4byte	.LFB17
 3330 0064 36000000 		.4byte	.LFE17-.LFB17
 3331 0068 00000000 		.4byte	0
 3332 006c 00000000 		.4byte	0
 3333              		.section	.debug_ranges,"",%progbits
 3334              	.Ldebug_ranges0:
 3335 0000 12000000 		.4byte	.LBB8
 3336 0004 2C000000 		.4byte	.LBE8
 3337 0008 30000000 		.4byte	.LBB11
 3338 000c 38000000 		.4byte	.LBE11
 3339 0010 00000000 		.4byte	0
 3340 0014 00000000 		.4byte	0
 3341 0018 00000000 		.4byte	.LFB7
 3342 001c 28000000 		.4byte	.LFE7
 3343 0020 00000000 		.4byte	.LFB8
 3344 0024 2A000000 		.4byte	.LFE8
 3345 0028 00000000 		.4byte	.LFB10
 3346 002c 36000000 		.4byte	.LFE10
 3347 0030 00000000 		.4byte	.LFB9
 3348 0034 0C000000 		.4byte	.LFE9
 3349 0038 00000000 		.4byte	.LFB11
 3350 003c 34000000 		.4byte	.LFE11
 3351 0040 00000000 		.4byte	.LFB13
 3352 0044 38000000 		.4byte	.LFE13
 3353 0048 00000000 		.4byte	.LFB12
ARM GAS  /var/folders/7z/kps_xzfj7sn5l5gkyq8s9db00000gn/T//ccLk9ZXD.s 			page 60


 3354 004c 0C000000 		.4byte	.LFE12
 3355 0050 00000000 		.4byte	.LFB14
 3356 0054 30000000 		.4byte	.LFE14
 3357 0058 00000000 		.4byte	.LFB16
 3358 005c 38000000 		.4byte	.LFE16
 3359 0060 00000000 		.4byte	.LFB15
 3360 0064 0C000000 		.4byte	.LFE15
 3361 0068 00000000 		.4byte	.LFB17
 3362 006c 36000000 		.4byte	.LFE17
 3363 0070 00000000 		.4byte	0
 3364 0074 00000000 		.4byte	0
 3365              		.section	.debug_line,"",%progbits
 3366              	.Ldebug_line0:
 3367 0000 BA020000 		.section	.debug_str,"MS",%progbits,1
 3367      02008601 
 3367      00000201 
 3367      FB0E0D00 
 3367      01010101 
 3368              	.LASF40:
 3369 0000 705F6D73 		.ascii	"p_msg\000"
 3369      6700
 3370              	.LASF85:
 3371 0006 63685365 		.ascii	"chSemSignalI\000"
 3371      6D536967 
 3371      6E616C49 
 3371      00
 3372              	.LASF65:
 3373 0013 7264796D 		.ascii	"rdymsg\000"
 3373      736700
 3374              	.LASF87:
 3375 001a 474E5520 		.ascii	"GNU C 4.9.3 20150303 (release) [ARM/embedded-4_9-br"
 3375      4320342E 
 3375      392E3320 
 3375      32303135 
 3375      30333033 
 3376 004d 616E6368 		.ascii	"anch revision 221220] -mcpu=cortex-m4 -mfloat-abi=h"
 3376      20726576 
 3376      6973696F 
 3376      6E203232 
 3376      31323230 
 3377 0080 61726420 		.ascii	"ard -mfpu=fpv4-sp-d16 -mno-thumb-interwork -mthumb "
 3377      2D6D6670 
 3377      753D6670 
 3377      76342D73 
 3377      702D6431 
 3378 00b3 2D676764 		.ascii	"-ggdb -O2 -std=gnu99 -fomit-frame-pointer -falign-f"
 3378      62202D4F 
 3378      32202D73 
 3378      74643D67 
 3378      6E753939 
 3379 00e6 756E6374 		.ascii	"unctions=16 -ffunction-sections -fdata-sections -fn"
 3379      696F6E73 
 3379      3D313620 
 3379      2D666675 
 3379      6E637469 
 3380 0119 6F2D636F 		.ascii	"o-common -fsingle-precision-constant\000"
 3380      6D6D6F6E 
ARM GAS  /var/folders/7z/kps_xzfj7sn5l5gkyq8s9db00000gn/T//ccLk9ZXD.s 			page 61


 3380      202D6673 
 3380      696E676C 
 3380      652D7072 
 3381              	.LASF78:
 3382 013e 63684D42 		.ascii	"chMBPostI\000"
 3382      506F7374 
 3382      4900
 3383              	.LASF71:
 3384 0148 63684D42 		.ascii	"chMBPostS\000"
 3384      506F7374 
 3384      5300
 3385              	.LASF64:
 3386 0152 4D61696C 		.ascii	"Mailbox\000"
 3386      626F7800 
 3387              	.LASF80:
 3388 015a 63684D42 		.ascii	"chMBPostAheadI\000"
 3388      506F7374 
 3388      41686561 
 3388      644900
 3389              	.LASF11:
 3390 0169 6C6F6E67 		.ascii	"long long unsigned int\000"
 3390      206C6F6E 
 3390      6720756E 
 3390      7369676E 
 3390      65642069 
 3391              	.LASF72:
 3392 0180 63684D42 		.ascii	"chMBPostAheadS\000"
 3392      506F7374 
 3392      41686561 
 3392      645300
 3393              	.LASF60:
 3394 018f 6D625F77 		.ascii	"mb_wrptr\000"
 3394      72707472 
 3394      00
 3395              	.LASF28:
 3396 0198 705F7072 		.ascii	"p_prio\000"
 3396      696F00
 3397              	.LASF10:
 3398 019f 6C6F6E67 		.ascii	"long long int\000"
 3398      206C6F6E 
 3398      6720696E 
 3398      7400
 3399              	.LASF1:
 3400 01ad 7369676E 		.ascii	"signed char\000"
 3400      65642063 
 3400      68617200 
 3401              	.LASF44:
 3402 01b9 705F6D70 		.ascii	"p_mpool\000"
 3402      6F6F6C00 
 3403              	.LASF55:
 3404 01c1 6D5F7175 		.ascii	"m_queue\000"
 3404      65756500 
 3405              	.LASF19:
 3406 01c9 74736C69 		.ascii	"tslices_t\000"
 3406      6365735F 
 3406      7400
 3407              	.LASF7:
ARM GAS  /var/folders/7z/kps_xzfj7sn5l5gkyq8s9db00000gn/T//ccLk9ZXD.s 			page 62


 3408 01d3 6C6F6E67 		.ascii	"long int\000"
 3408      20696E74 
 3408      00
 3409              	.LASF17:
 3410 01dc 74737461 		.ascii	"tstate_t\000"
 3410      74655F74 
 3410      00
 3411              	.LASF30:
 3412 01e5 705F6E65 		.ascii	"p_newer\000"
 3412      77657200 
 3413              	.LASF52:
 3414 01ed 735F7175 		.ascii	"s_queue\000"
 3414      65756500 
 3415              	.LASF66:
 3416 01f5 65786974 		.ascii	"exitcode\000"
 3416      636F6465 
 3416      00
 3417              	.LASF90:
 3418 01fe 63685363 		.ascii	"chSchRescheduleS\000"
 3418      68526573 
 3418      63686564 
 3418      756C6553 
 3418      00
 3419              	.LASF8:
 3420 020f 5F5F7569 		.ascii	"__uint32_t\000"
 3420      6E743332 
 3420      5F7400
 3421              	.LASF47:
 3422 021a 72656761 		.ascii	"regarm_t\000"
 3422      726D5F74 
 3422      00
 3423              	.LASF24:
 3424 0223 636E745F 		.ascii	"cnt_t\000"
 3424      7400
 3425              	.LASF0:
 3426 0229 756E7369 		.ascii	"unsigned int\000"
 3426      676E6564 
 3426      20696E74 
 3426      00
 3427              	.LASF75:
 3428 0236 63684D42 		.ascii	"chMBInit\000"
 3428      496E6974 
 3428      00
 3429              	.LASF9:
 3430 023f 6C6F6E67 		.ascii	"long unsigned int\000"
 3430      20756E73 
 3430      69676E65 
 3430      6420696E 
 3430      7400
 3431              	.LASF89:
 3432 0251 2F557365 		.ascii	"/Users/Baram/oroca_bldc_dev/oroca_bldc_dev/\000"
 3432      72732F42 
 3432      6172616D 
 3432      2F6F726F 
 3432      63615F62 
 3433              	.LASF63:
 3434 027d 6D625F65 		.ascii	"mb_emptysem\000"
ARM GAS  /var/folders/7z/kps_xzfj7sn5l5gkyq8s9db00000gn/T//ccLk9ZXD.s 			page 63


 3434      6D707479 
 3434      73656D00 
 3435              	.LASF53:
 3436 0289 735F636E 		.ascii	"s_cnt\000"
 3436      7400
 3437              	.LASF49:
 3438 028f 636F6E74 		.ascii	"context\000"
 3438      65787400 
 3439              	.LASF4:
 3440 0297 73686F72 		.ascii	"short unsigned int\000"
 3440      7420756E 
 3440      7369676E 
 3440      65642069 
 3440      6E7400
 3441              	.LASF82:
 3442 02aa 63684D42 		.ascii	"chMBFetchI\000"
 3442      46657463 
 3442      684900
 3443              	.LASF21:
 3444 02b5 6D73675F 		.ascii	"msg_t\000"
 3444      7400
 3445              	.LASF73:
 3446 02bb 63684D42 		.ascii	"chMBFetchS\000"
 3446      46657463 
 3446      685300
 3447              	.LASF16:
 3448 02c6 746D6F64 		.ascii	"tmode_t\000"
 3448      655F7400 
 3449              	.LASF46:
 3450 02ce 54687265 		.ascii	"ThreadsList\000"
 3450      6164734C 
 3450      69737400 
 3451              	.LASF22:
 3452 02da 6576656E 		.ascii	"eventmask_t\000"
 3452      746D6173 
 3452      6B5F7400 
 3453              	.LASF54:
 3454 02e6 4D757465 		.ascii	"Mutex\000"
 3454      7800
 3455              	.LASF74:
 3456 02ec 6D736770 		.ascii	"msgp\000"
 3456      00
 3457              	.LASF50:
 3458 02f1 73697A65 		.ascii	"sizetype\000"
 3458      74797065 
 3458      00
 3459              	.LASF61:
 3460 02fa 6D625F72 		.ascii	"mb_rdptr\000"
 3460      64707472 
 3460      00
 3461              	.LASF76:
 3462 0303 63684D42 		.ascii	"chMBReset\000"
 3462      52657365 
 3462      7400
 3463              	.LASF31:
 3464 030d 705F6F6C 		.ascii	"p_older\000"
 3464      64657200 
ARM GAS  /var/folders/7z/kps_xzfj7sn5l5gkyq8s9db00000gn/T//ccLk9ZXD.s 			page 64


 3465              	.LASF88:
 3466 0315 6C69622F 		.ascii	"lib/ChibiOS_2.6.6/os/kernel/src/chmboxes.c\000"
 3466      43686962 
 3466      694F535F 
 3466      322E362E 
 3466      362F6F73 
 3467              	.LASF45:
 3468 0340 54687265 		.ascii	"ThreadsQueue\000"
 3468      61647351 
 3468      75657565 
 3468      00
 3469              	.LASF58:
 3470 034d 6D625F62 		.ascii	"mb_buffer\000"
 3470      75666665 
 3470      7200
 3471              	.LASF70:
 3472 0357 74696D65 		.ascii	"time\000"
 3472      00
 3473              	.LASF18:
 3474 035c 74726566 		.ascii	"trefs_t\000"
 3474      735F7400 
 3475              	.LASF27:
 3476 0364 705F7072 		.ascii	"p_prev\000"
 3476      657600
 3477              	.LASF20:
 3478 036b 74707269 		.ascii	"tprio_t\000"
 3478      6F5F7400 
 3479              	.LASF15:
 3480 0373 5F426F6F 		.ascii	"_Bool\000"
 3480      6C00
 3481              	.LASF13:
 3482 0379 696E7433 		.ascii	"int32_t\000"
 3482      325F7400 
 3483              	.LASF2:
 3484 0381 756E7369 		.ascii	"unsigned char\000"
 3484      676E6564 
 3484      20636861 
 3484      7200
 3485              	.LASF59:
 3486 038f 6D625F74 		.ascii	"mb_top\000"
 3486      6F7000
 3487              	.LASF42:
 3488 0396 705F6D74 		.ascii	"p_mtxlist\000"
 3488      786C6973 
 3488      7400
 3489              	.LASF3:
 3490 03a0 73686F72 		.ascii	"short int\000"
 3490      7420696E 
 3490      7400
 3491              	.LASF33:
 3492 03aa 705F7374 		.ascii	"p_state\000"
 3492      61746500 
 3493              	.LASF36:
 3494 03b2 705F7072 		.ascii	"p_preempt\000"
 3494      65656D70 
 3494      7400
 3495              	.LASF68:
ARM GAS  /var/folders/7z/kps_xzfj7sn5l5gkyq8s9db00000gn/T//ccLk9ZXD.s 			page 65


 3496 03bc 65776D61 		.ascii	"ewmask\000"
 3496      736B00
 3497              	.LASF26:
 3498 03c3 705F6E65 		.ascii	"p_next\000"
 3498      787400
 3499              	.LASF34:
 3500 03ca 705F666C 		.ascii	"p_flags\000"
 3500      61677300 
 3501              	.LASF77:
 3502 03d2 63684D42 		.ascii	"chMBPost\000"
 3502      506F7374 
 3502      00
 3503              	.LASF25:
 3504 03db 54687265 		.ascii	"Thread\000"
 3504      616400
 3505              	.LASF41:
 3506 03e2 705F6570 		.ascii	"p_epending\000"
 3506      656E6469 
 3506      6E6700
 3507              	.LASF14:
 3508 03ed 75696E74 		.ascii	"uint32_t\000"
 3508      33325F74 
 3508      00
 3509              	.LASF5:
 3510 03f6 5F5F7569 		.ascii	"__uint8_t\000"
 3510      6E74385F 
 3510      7400
 3511              	.LASF69:
 3512 0400 63686172 		.ascii	"char\000"
 3512      00
 3513              	.LASF86:
 3514 0405 63685365 		.ascii	"chSemWaitTimeoutS\000"
 3514      6D576169 
 3514      7454696D 
 3514      656F7574 
 3514      5300
 3515              	.LASF57:
 3516 0417 6D5F6E65 		.ascii	"m_next\000"
 3516      787400
 3517              	.LASF23:
 3518 041e 73797374 		.ascii	"systime_t\000"
 3518      696D655F 
 3518      7400
 3519              	.LASF43:
 3520 0428 705F7265 		.ascii	"p_realprio\000"
 3520      616C7072 
 3520      696F00
 3521              	.LASF6:
 3522 0433 5F5F696E 		.ascii	"__int32_t\000"
 3522      7433325F 
 3522      7400
 3523              	.LASF37:
 3524 043d 705F7469 		.ascii	"p_time\000"
 3524      6D6500
 3525              	.LASF79:
 3526 0444 63684D42 		.ascii	"chMBPostAhead\000"
 3526      506F7374 
ARM GAS  /var/folders/7z/kps_xzfj7sn5l5gkyq8s9db00000gn/T//ccLk9ZXD.s 			page 66


 3526      41686561 
 3526      6400
 3527              	.LASF48:
 3528 0452 696E7463 		.ascii	"intctx\000"
 3528      747800
 3529              	.LASF39:
 3530 0459 705F6D73 		.ascii	"p_msgqueue\000"
 3530      67717565 
 3530      756500
 3531              	.LASF81:
 3532 0464 63684D42 		.ascii	"chMBFetch\000"
 3532      46657463 
 3532      6800
 3533              	.LASF51:
 3534 046e 53656D61 		.ascii	"Semaphore\000"
 3534      70686F72 
 3534      6500
 3535              	.LASF62:
 3536 0478 6D625F66 		.ascii	"mb_fullsem\000"
 3536      756C6C73 
 3536      656D00
 3537              	.LASF35:
 3538 0483 705F7265 		.ascii	"p_refs\000"
 3538      667300
 3539              	.LASF84:
 3540 048a 63685365 		.ascii	"chSemResetI\000"
 3540      6D526573 
 3540      65744900 
 3541              	.LASF12:
 3542 0496 75696E74 		.ascii	"uint8_t\000"
 3542      385F7400 
 3543              	.LASF67:
 3544 049e 77746F62 		.ascii	"wtobjp\000"
 3544      6A7000
 3545              	.LASF32:
 3546 04a5 705F6E61 		.ascii	"p_name\000"
 3546      6D6500
 3547              	.LASF56:
 3548 04ac 6D5F6F77 		.ascii	"m_owner\000"
 3548      6E657200 
 3549              	.LASF29:
 3550 04b4 705F6374 		.ascii	"p_ctx\000"
 3550      7800
 3551              	.LASF38:
 3552 04ba 705F7761 		.ascii	"p_waiting\000"
 3552      6974696E 
 3552      6700
 3553              	.LASF83:
 3554 04c4 63685365 		.ascii	"chSemInit\000"
 3554      6D496E69 
 3554      7400
 3555              		.ident	"GCC: (GNU Tools for ARM Embedded Processors) 4.9.3 20150303 (release) [ARM/embedded-4_9-br
ARM GAS  /var/folders/7z/kps_xzfj7sn5l5gkyq8s9db00000gn/T//ccLk9ZXD.s 			page 67


DEFINED SYMBOLS
                            *ABS*:0000000000000000 chmboxes.c
/var/folders/7z/kps_xzfj7sn5l5gkyq8s9db00000gn/T//ccLk9ZXD.s:21     .text.chMBInit:0000000000000000 $t
/var/folders/7z/kps_xzfj7sn5l5gkyq8s9db00000gn/T//ccLk9ZXD.s:27     .text.chMBInit:0000000000000000 chMBInit
/var/folders/7z/kps_xzfj7sn5l5gkyq8s9db00000gn/T//ccLk9ZXD.s:73     .text.chMBReset:0000000000000000 $t
/var/folders/7z/kps_xzfj7sn5l5gkyq8s9db00000gn/T//ccLk9ZXD.s:79     .text.chMBReset:0000000000000000 chMBReset
/var/folders/7z/kps_xzfj7sn5l5gkyq8s9db00000gn/T//ccLk9ZXD.s:131    .text.chMBPostS:0000000000000000 $t
/var/folders/7z/kps_xzfj7sn5l5gkyq8s9db00000gn/T//ccLk9ZXD.s:137    .text.chMBPostS:0000000000000000 chMBPostS
/var/folders/7z/kps_xzfj7sn5l5gkyq8s9db00000gn/T//ccLk9ZXD.s:203    .text.chMBPost:0000000000000000 $t
/var/folders/7z/kps_xzfj7sn5l5gkyq8s9db00000gn/T//ccLk9ZXD.s:209    .text.chMBPost:0000000000000000 chMBPost
/var/folders/7z/kps_xzfj7sn5l5gkyq8s9db00000gn/T//ccLk9ZXD.s:239    .text.chMBPostI:0000000000000000 $t
/var/folders/7z/kps_xzfj7sn5l5gkyq8s9db00000gn/T//ccLk9ZXD.s:245    .text.chMBPostI:0000000000000000 chMBPostI
/var/folders/7z/kps_xzfj7sn5l5gkyq8s9db00000gn/T//ccLk9ZXD.s:303    .text.chMBPostAheadS:0000000000000000 $t
/var/folders/7z/kps_xzfj7sn5l5gkyq8s9db00000gn/T//ccLk9ZXD.s:309    .text.chMBPostAheadS:0000000000000000 chMBPostAheadS
/var/folders/7z/kps_xzfj7sn5l5gkyq8s9db00000gn/T//ccLk9ZXD.s:377    .text.chMBPostAhead:0000000000000000 $t
/var/folders/7z/kps_xzfj7sn5l5gkyq8s9db00000gn/T//ccLk9ZXD.s:383    .text.chMBPostAhead:0000000000000000 chMBPostAhead
/var/folders/7z/kps_xzfj7sn5l5gkyq8s9db00000gn/T//ccLk9ZXD.s:413    .text.chMBPostAheadI:0000000000000000 $t
/var/folders/7z/kps_xzfj7sn5l5gkyq8s9db00000gn/T//ccLk9ZXD.s:419    .text.chMBPostAheadI:0000000000000000 chMBPostAheadI
/var/folders/7z/kps_xzfj7sn5l5gkyq8s9db00000gn/T//ccLk9ZXD.s:477    .text.chMBFetchS:0000000000000000 $t
/var/folders/7z/kps_xzfj7sn5l5gkyq8s9db00000gn/T//ccLk9ZXD.s:483    .text.chMBFetchS:0000000000000000 chMBFetchS
/var/folders/7z/kps_xzfj7sn5l5gkyq8s9db00000gn/T//ccLk9ZXD.s:550    .text.chMBFetch:0000000000000000 $t
/var/folders/7z/kps_xzfj7sn5l5gkyq8s9db00000gn/T//ccLk9ZXD.s:556    .text.chMBFetch:0000000000000000 chMBFetch
/var/folders/7z/kps_xzfj7sn5l5gkyq8s9db00000gn/T//ccLk9ZXD.s:586    .text.chMBFetchI:0000000000000000 $t
/var/folders/7z/kps_xzfj7sn5l5gkyq8s9db00000gn/T//ccLk9ZXD.s:592    .text.chMBFetchI:0000000000000000 chMBFetchI
                     .debug_frame:0000000000000010 $d

UNDEFINED SYMBOLS
chSemInit
chSemResetI
chSchRescheduleS
chSemWaitTimeoutS
chSemSignalI
