ARM GAS  /var/folders/7z/kps_xzfj7sn5l5gkyq8s9db00000gn/T//ccSjuiiI.s 			page 1


   1              		.syntax unified
   2              		.cpu cortex-m4
   3              		.eabi_attribute 27, 1
   4              		.eabi_attribute 28, 1
   5              		.fpu fpv4-sp-d16
   6              		.eabi_attribute 20, 1
   7              		.eabi_attribute 21, 1
   8              		.eabi_attribute 23, 3
   9              		.eabi_attribute 24, 1
  10              		.eabi_attribute 25, 1
  11              		.eabi_attribute 26, 1
  12              		.eabi_attribute 30, 2
  13              		.eabi_attribute 34, 1
  14              		.eabi_attribute 18, 4
  15              		.thumb
  16              		.file	"chvt.c"
  17              		.text
  18              	.Ltext0:
  19              		.cfi_sections	.debug_frame
  20              		.section	.text._vt_init,"ax",%progbits
  21              		.align	2
  22              		.p2align 4,,15
  23              		.global	_vt_init
  24              		.thumb
  25              		.thumb_func
  26              		.type	_vt_init, %function
  27              	_vt_init:
  28              	.LFB7:
  29              		.file 1 "lib/ChibiOS_2.6.6/os/kernel/src/chvt.c"
  30              		.loc 1 50 0
  31              		.cfi_startproc
  32              		@ args = 0, pretend = 0, frame = 0
  33              		@ frame_needed = 0, uses_anonymous_args = 0
  34              		@ link register save eliminated.
  35              		.loc 1 52 0
  36 0000 044B     		ldr	r3, .L2
  37              		.loc 1 53 0
  38 0002 4FF0FF31 		mov	r1, #-1
  39              		.loc 1 54 0
  40 0006 0022     		movs	r2, #0
  41              		.loc 1 52 0
  42 0008 5B60     		str	r3, [r3, #4]
  43 000a 1B60     		str	r3, [r3]
  44              		.loc 1 53 0
  45 000c 9960     		str	r1, [r3, #8]
  46              		.loc 1 54 0
  47 000e DA60     		str	r2, [r3, #12]
  48 0010 7047     		bx	lr
  49              	.L3:
  50 0012 00BF     		.align	2
  51              	.L2:
  52 0014 00000000 		.word	.LANCHOR0
  53              		.cfi_endproc
  54              	.LFE7:
  55              		.size	_vt_init, .-_vt_init
  56 0018 AFF30080 		.section	.text.chVTSetI,"ax",%progbits
  56      AFF30080 
ARM GAS  /var/folders/7z/kps_xzfj7sn5l5gkyq8s9db00000gn/T//ccSjuiiI.s 			page 2


  57              		.align	2
  58              		.p2align 4,,15
  59              		.global	chVTSetI
  60              		.thumb
  61              		.thumb_func
  62              		.type	chVTSetI, %function
  63              	chVTSetI:
  64              	.LFB8:
  65              		.loc 1 76 0
  66              		.cfi_startproc
  67              		@ args = 0, pretend = 0, frame = 0
  68              		@ frame_needed = 0, uses_anonymous_args = 0
  69              		@ link register save eliminated.
  70              	.LVL0:
  71 0000 70B4     		push	{r4, r5, r6}
  72              		.cfi_def_cfa_offset 12
  73              		.cfi_offset 4, -12
  74              		.cfi_offset 5, -8
  75              		.cfi_offset 6, -4
  76              		.loc 1 85 0
  77 0002 0C4E     		ldr	r6, .L11
  78 0004 3468     		ldr	r4, [r6]
  79              	.LVL1:
  80              		.loc 1 86 0
  81 0006 A568     		ldr	r5, [r4, #8]
  82              		.loc 1 83 0
  83 0008 0361     		str	r3, [r0, #16]
  84              		.loc 1 86 0
  85 000a A942     		cmp	r1, r5
  86              		.loc 1 84 0
  87 000c C260     		str	r2, [r0, #12]
  88              		.loc 1 86 0
  89 000e 04D9     		bls	.L5
  90              	.L6:
  91              		.loc 1 88 0
  92 0010 2468     		ldr	r4, [r4]
  93              	.LVL2:
  94              		.loc 1 87 0
  95 0012 491B     		subs	r1, r1, r5
  96              	.LVL3:
  97              		.loc 1 86 0
  98 0014 A568     		ldr	r5, [r4, #8]
  99 0016 8D42     		cmp	r5, r1
 100 0018 FAD3     		bcc	.L6
 101              	.L5:
 102              		.loc 1 91 0
 103 001a 6368     		ldr	r3, [r4, #4]
 104              	.LVL4:
 105 001c 4360     		str	r3, [r0, #4]
 106              		.loc 1 94 0
 107 001e B442     		cmp	r4, r6
 108              		.loc 1 91 0
 109 0020 0460     		str	r4, [r0]
 110              		.loc 1 92 0
 111 0022 6060     		str	r0, [r4, #4]
 112 0024 1860     		str	r0, [r3]
 113              		.loc 1 93 0
ARM GAS  /var/folders/7z/kps_xzfj7sn5l5gkyq8s9db00000gn/T//ccSjuiiI.s 			page 3


 114 0026 8160     		str	r1, [r0, #8]
 115              		.loc 1 94 0
 116 0028 02D0     		beq	.L4
 117              		.loc 1 95 0
 118 002a A368     		ldr	r3, [r4, #8]
 119 002c 591A     		subs	r1, r3, r1
 120              	.LVL5:
 121 002e A160     		str	r1, [r4, #8]
 122              	.LVL6:
 123              	.L4:
 124              		.loc 1 96 0
 125 0030 70BC     		pop	{r4, r5, r6}
 126              		.cfi_restore 6
 127              		.cfi_restore 5
 128              		.cfi_restore 4
 129              		.cfi_def_cfa_offset 0
 130              	.LVL7:
 131 0032 7047     		bx	lr
 132              	.L12:
 133              		.align	2
 134              	.L11:
 135 0034 00000000 		.word	.LANCHOR0
 136              		.cfi_endproc
 137              	.LFE8:
 138              		.size	chVTSetI, .-chVTSetI
 139 0038 AFF30080 		.section	.text.chVTResetI,"ax",%progbits
 139      AFF30080 
 140              		.align	2
 141              		.p2align 4,,15
 142              		.global	chVTResetI
 143              		.thumb
 144              		.thumb_func
 145              		.type	chVTResetI, %function
 146              	chVTResetI:
 147              	.LFB9:
 148              		.loc 1 106 0
 149              		.cfi_startproc
 150              		@ args = 0, pretend = 0, frame = 0
 151              		@ frame_needed = 0, uses_anonymous_args = 0
 152              		@ link register save eliminated.
 153              	.LVL8:
 154              		.loc 1 114 0
 155 0000 074A     		ldr	r2, .L15
 156 0002 0368     		ldr	r3, [r0]
 157 0004 9342     		cmp	r3, r2
 158 0006 03D0     		beq	.L14
 159              		.loc 1 115 0
 160 0008 9968     		ldr	r1, [r3, #8]
 161 000a 8268     		ldr	r2, [r0, #8]
 162 000c 0A44     		add	r2, r2, r1
 163 000e 9A60     		str	r2, [r3, #8]
 164              	.L14:
 165              		.loc 1 116 0
 166 0010 4268     		ldr	r2, [r0, #4]
 167 0012 1360     		str	r3, [r2]
 168              		.loc 1 117 0
 169 0014 0168     		ldr	r1, [r0]
ARM GAS  /var/folders/7z/kps_xzfj7sn5l5gkyq8s9db00000gn/T//ccSjuiiI.s 			page 4


 170              		.loc 1 118 0
 171 0016 0023     		movs	r3, #0
 172              		.loc 1 117 0
 173 0018 4A60     		str	r2, [r1, #4]
 174              		.loc 1 118 0
 175 001a C360     		str	r3, [r0, #12]
 176 001c 7047     		bx	lr
 177              	.L16:
 178 001e 00BF     		.align	2
 179              	.L15:
 180 0020 00000000 		.word	.LANCHOR0
 181              		.cfi_endproc
 182              	.LFE9:
 183              		.size	chVTResetI, .-chVTResetI
 184              		.global	vtlist
 185 0024 AFF30080 		.section	.bss.vtlist,"aw",%nobits
 185      AFF30080 
 185      AFF30080 
 186              		.align	2
 187              		.set	.LANCHOR0,. + 0
 188              		.type	vtlist, %object
 189              		.size	vtlist, 16
 190              	vtlist:
 191 0000 00000000 		.space	16
 191      00000000 
 191      00000000 
 191      00000000 
 192              		.text
 193              	.Letext0:
 194              		.file 2 "/Users/Baram/gcc-arm-none-eabi/arm-none-eabi/include/machine/_default_types.h"
 195              		.file 3 "/Users/Baram/gcc-arm-none-eabi/arm-none-eabi/include/stdint.h"
 196              		.file 4 "lib/ChibiOS_2.6.6/os/ports/GCC/ARMCMx/chtypes.h"
 197              		.file 5 "lib/ChibiOS_2.6.6/os/kernel/include/chvt.h"