ARM GAS  /var/folders/7z/kps_xzfj7sn5l5gkyq8s9db00000gn/T//ccNlTQAL.s 			page 1


   1              		.syntax unified
   2              		.cpu cortex-m4
   3              		.eabi_attribute 27, 1
   4              		.eabi_attribute 28, 1
   5              		.fpu fpv4-sp-d16
   6              		.eabi_attribute 20, 1
   7              		.eabi_attribute 21, 1
   8              		.eabi_attribute 23, 3
   9              		.eabi_attribute 24, 1
  10              		.eabi_attribute 25, 1
  11              		.eabi_attribute 26, 1
  12              		.eabi_attribute 30, 2
  13              		.eabi_attribute 34, 1
  14              		.eabi_attribute 18, 4
  15              		.thumb
  16              		.file	"comm_can.c"
  17              		.text
  18              	.Ltext0:
  19              		.cfi_sections	.debug_frame
  20              		.section	.text.cancom_process_thread,"ax",%progbits
  21              		.align	2
  22              		.p2align 4,,15
  23              		.thumb
  24              		.thumb_func
  25              		.type	cancom_process_thread, %function
  26              	cancom_process_thread:
  27              	.LFB120:
  28              		.file 1 "src/core/comm_can.c"
  29              		.loc 1 130 0
  30              		.cfi_startproc
  31              		@ args = 0, pretend = 0, frame = 0
  32              		@ frame_needed = 0, uses_anonymous_args = 0
  33              		@ link register save eliminated.
  34              	.LVL0:
  35              		.loc 1 133 0
  36 0000 034B     		ldr	r3, .L4
  37              		.loc 1 134 0
  38 0002 044A     		ldr	r2, .L4+4
  39              		.loc 1 133 0
  40 0004 9B69     		ldr	r3, [r3, #24]
  41 0006 0449     		ldr	r1, .L4+8
  42 0008 9961     		str	r1, [r3, #24]
  43              		.loc 1 134 0
  44 000a 1360     		str	r3, [r2]
  45              	.LVL1:
  46              	.L2:
  47              		.loc 1 271 0 discriminator 1
  48 000c FEE7     		b	.L2
  49              	.L5:
  50 000e 00BF     		.align	2
  51              	.L4:
  52 0010 00000000 		.word	rlist
  53 0014 00000000 		.word	.LANCHOR0
  54 0018 00000000 		.word	.LC0
  55              		.cfi_endproc
  56              	.LFE120:
  57              		.size	cancom_process_thread, .-cancom_process_thread
ARM GAS  /var/folders/7z/kps_xzfj7sn5l5gkyq8s9db00000gn/T//ccNlTQAL.s 			page 2


  58 001c AFF30080 		.section	.text.cancom_status_thread,"ax",%progbits
  59              		.align	2
  60              		.p2align 4,,15
  61              		.thumb
  62              		.thumb_func
  63              		.type	cancom_status_thread, %function
  64              	cancom_status_thread:
  65              	.LFB121:
  66              		.loc 1 276 0
  67              		.cfi_startproc
  68              		@ Volatile: function does not return.
  69              		@ args = 0, pretend = 0, frame = 0
  70              		@ frame_needed = 0, uses_anonymous_args = 0
  71              		@ link register save eliminated.
  72              	.LVL2:
  73              		.loc 1 278 0
  74 0000 024B     		ldr	r3, .L8
  75 0002 034A     		ldr	r2, .L8+4
  76 0004 9B69     		ldr	r3, [r3, #24]
  77 0006 9A61     		str	r2, [r3, #24]
  78              	.L7:
  79              		.loc 1 299 0 discriminator 1
  80 0008 FEE7     		b	.L7
  81              	.L9:
  82 000a 00BF     		.align	2
  83              	.L8:
  84 000c 00000000 		.word	rlist
  85 0010 10000000 		.word	.LC1
  86              		.cfi_endproc
  87              	.LFE121:
  88              		.size	cancom_status_thread, .-cancom_status_thread
  89 0014 AFF30080 		.section	.text.cancom_read_thread,"ax",%progbits
  89      AFF30080 
  89      AFF30080 
  90              		.align	2
  91              		.p2align 4,,15
  92              		.thumb
  93              		.thumb_func
  94              		.type	cancom_read_thread, %function
  95              	cancom_read_thread:
  96              	.LFB119:
  97              		.loc 1 98 0
  98              		.cfi_startproc
  99              		@ args = 0, pretend = 0, frame = 40
 100              		@ frame_needed = 0, uses_anonymous_args = 0
 101              	.LVL3:
 102 0000 2DE9F043 		push	{r4, r5, r6, r7, r8, r9, lr}
 103              		.cfi_def_cfa_offset 28
 104              		.cfi_offset 4, -28
 105              		.cfi_offset 5, -24
 106              		.cfi_offset 6, -20
 107              		.cfi_offset 7, -16
 108              		.cfi_offset 8, -12
 109              		.cfi_offset 9, -8
 110              		.cfi_offset 14, -4
 111              		.loc 1 100 0
 112 0004 DFF8B880 		ldr	r8, .L24+20
ARM GAS  /var/folders/7z/kps_xzfj7sn5l5gkyq8s9db00000gn/T//ccNlTQAL.s 			page 3


 113 0008 284A     		ldr	r2, .L24
 114 000a D8F81830 		ldr	r3, [r8, #24]
 115              		.loc 1 105 0
 116 000e 2848     		ldr	r0, .L24+4
 117              	.LVL4:
 118              		.loc 1 100 0
 119 0010 9A61     		str	r2, [r3, #24]
 120              		.loc 1 98 0
 121 0012 8BB0     		sub	sp, sp, #44
 122              		.cfi_def_cfa_offset 72
 123              		.loc 1 105 0
 124 0014 01A9     		add	r1, sp, #4
 125 0016 0122     		movs	r2, #1
 126 0018 FFF7FEFF 		bl	chEvtRegisterMask
 127              	.LVL5:
 128 001c DFF8A490 		ldr	r9, .L24+24
 129              	.L12:
 130              		.loc 1 107 0
 131 0020 D8F81830 		ldr	r3, [r8, #24]
 132 0024 5B7F     		ldrb	r3, [r3, #29]	@ zero_extendqisi2
 133 0026 03F00403 		and	r3, r3, #4
 134 002a 03F0FF04 		and	r4, r3, #255
 135 002e 002B     		cmp	r3, #0
 136 0030 33D1     		bne	.L23
 137              	.LBB26:
 138              		.loc 1 108 0
 139 0032 4FF0FF30 		mov	r0, #-1
 140 0036 6421     		movs	r1, #100
 141 0038 FFF7FEFF 		bl	chEvtWaitAnyTimeout
 142              	.LVL6:
 143 003c 0028     		cmp	r0, #0
 144 003e EFD0     		beq	.L12
 145              		.loc 1 112 0
 146 0040 05AA     		add	r2, sp, #20
 147 0042 1C48     		ldr	r0, .L24+8
 148 0044 2146     		mov	r1, r4
 149 0046 2346     		mov	r3, r4
 150 0048 FFF7FEFF 		bl	canReceive
 151              	.LVL7:
 152              		.loc 1 114 0
 153 004c 0028     		cmp	r0, #0
 154 004e E7D1     		bne	.L12
 155 0050 194F     		ldr	r7, .L24+12
 156 0052 1A4E     		ldr	r6, .L24+16
 157              	.L13:
 158              	.LVL8:
 159              		.loc 1 115 0
 160 0054 D9F80050 		ldr	r5, [r9]
 161 0058 05AC     		add	r4, sp, #20
 162 005a 0FCC     		ldmia	r4!, {r0, r1, r2, r3}
 163 005c D4F800E0 		ldr	lr, [r4]
 164 0060 05EB8504 		add	r4, r5, r5, lsl #2
 165 0064 07EB8404 		add	r4, r7, r4, lsl #2
 166 0068 0FC4     		stmia	r4!, {r0, r1, r2, r3}
 167              		.loc 1 120 0
 168 006a 0121     		movs	r1, #1
 169              		.loc 1 115 0
ARM GAS  /var/folders/7z/kps_xzfj7sn5l5gkyq8s9db00000gn/T//ccNlTQAL.s 			page 4


 170 006c 0D44     		add	r5, r5, r1
 171              		.loc 1 116 0
 172 006e 642D     		cmp	r5, #100
 173              		.loc 1 117 0
 174 0070 08BF     		it	eq
 175 0072 0023     		moveq	r3, #0
 176              		.loc 1 120 0
 177 0074 3068     		ldr	r0, [r6]
 178              		.loc 1 115 0
 179 0076 C9F80050 		str	r5, [r9]
 180 007a C4F800E0 		str	lr, [r4]
 181              		.loc 1 117 0
 182 007e 08BF     		it	eq
 183 0080 C9F80030 		streq	r3, [r9]
 184              		.loc 1 120 0
 185 0084 FFF7FEFF 		bl	chEvtSignal
 186              	.LVL9:
 187              		.loc 1 122 0
 188 0088 0021     		movs	r1, #0
 189 008a 0B46     		mov	r3, r1
 190 008c 0948     		ldr	r0, .L24+8
 191 008e 05AA     		add	r2, sp, #20
 192 0090 FFF7FEFF 		bl	canReceive
 193              	.LVL10:
 194              		.loc 1 114 0
 195 0094 0028     		cmp	r0, #0
 196 0096 DDD0     		beq	.L13
 197 0098 C2E7     		b	.L12
 198              	.LVL11:
 199              	.L23:
 200              	.LBE26:
 201              		.loc 1 126 0
 202 009a 01A9     		add	r1, sp, #4
 203 009c 0448     		ldr	r0, .L24+4
 204 009e FFF7FEFF 		bl	chEvtUnregister
 205              	.LVL12:
 206              		.loc 1 128 0
 207 00a2 0020     		movs	r0, #0
 208 00a4 0BB0     		add	sp, sp, #44
 209              		.cfi_def_cfa_offset 28
 210              		@ sp needed
 211 00a6 BDE8F083 		pop	{r4, r5, r6, r7, r8, r9, pc}
 212              	.L25:
 213 00aa 00BF     		.align	2
 214              	.L24:
 215 00ac 1C000000 		.word	.LC2
 216 00b0 20000000 		.word	CAND1+32
 217 00b4 00000000 		.word	CAND1
 218 00b8 00000000 		.word	.LANCHOR2
 219 00bc 00000000 		.word	.LANCHOR0
 220 00c0 00000000 		.word	rlist
 221 00c4 00000000 		.word	.LANCHOR1
 222              		.cfi_endproc
 223              	.LFE119:
 224              		.size	cancom_read_thread, .-cancom_read_thread
 225 00c8 AFF30080 		.section	.text.comm_can_init,"ax",%progbits
 225      AFF30080 
ARM GAS  /var/folders/7z/kps_xzfj7sn5l5gkyq8s9db00000gn/T//ccNlTQAL.s 			page 5


 226              		.align	2
 227              		.p2align 4,,15
 228              		.global	comm_can_init
 229              		.thumb
 230              		.thumb_func
 231              		.type	comm_can_init, %function
 232              	comm_can_init:
 233              	.LFB118:
 234              		.loc 1 75 0
 235              		.cfi_startproc
 236              		@ args = 0, pretend = 0, frame = 0
 237              		@ frame_needed = 0, uses_anonymous_args = 0
 238              	.LVL13:
 239 0000 1E49     		ldr	r1, .L30
 240 0002 0023     		movs	r3, #0
 241              	.LBB27:
 242              		.loc 1 77 0
 243 0004 4FF0FF32 		mov	r2, #-1
 244              	.LVL14:
 245              	.L27:
 246              		.loc 1 77 0 is_stmt 0 discriminator 3
 247 0008 CA50     		str	r2, [r1, r3]
 248 000a 1433     		adds	r3, r3, #20
 249              		.loc 1 76 0 is_stmt 1 discriminator 3
 250 000c C82B     		cmp	r3, #200
 251 000e FBD1     		bne	.L27
 252              	.LBE27:
 253              		.loc 1 75 0
 254 0010 10B5     		push	{r4, lr}
 255              		.cfi_def_cfa_offset 8
 256              		.cfi_offset 4, -8
 257              		.cfi_offset 14, -4
 258              		.loc 1 81 0
 259 0012 1B4B     		ldr	r3, .L30+4
 260              		.loc 1 80 0
 261 0014 1B4A     		ldr	r2, .L30+8
 262              		.loc 1 83 0
 263 0016 1C48     		ldr	r0, .L30+12
 264              		.loc 1 75 0
 265 0018 82B0     		sub	sp, sp, #8
 266              		.cfi_def_cfa_offset 16
 267              		.loc 1 80 0
 268 001a 0024     		movs	r4, #0
 269              		.loc 1 81 0
 270 001c 1C60     		str	r4, [r3]
 271              		.loc 1 80 0
 272 001e 1460     		str	r4, [r2]
 273              		.loc 1 83 0
 274 0020 FFF7FEFF 		bl	chMtxInit
 275              	.LVL15:
 276              		.loc 1 85 0
 277 0024 1948     		ldr	r0, .L30+16
 278 0026 4FF48071 		mov	r1, #256
 279 002a 40F28A42 		movw	r2, #1162
 280 002e FFF7FEFF 		bl	_pal_lld_setgroupmode
 281              	.LVL16:
 282              		.loc 1 86 0
ARM GAS  /var/folders/7z/kps_xzfj7sn5l5gkyq8s9db00000gn/T//ccNlTQAL.s 			page 6


 283 0032 40F28A42 		movw	r2, #1162
 284 0036 1548     		ldr	r0, .L30+16
 285 0038 4FF40071 		mov	r1, #512
 286 003c FFF7FEFF 		bl	_pal_lld_setgroupmode
 287              	.LVL17:
 288              		.loc 1 88 0
 289 0040 1348     		ldr	r0, .L30+20
 290 0042 1449     		ldr	r1, .L30+24
 291 0044 FFF7FEFF 		bl	canStart
 292              	.LVL18:
 293              		.loc 1 90 0
 294 0048 0094     		str	r4, [sp]
 295 004a 134B     		ldr	r3, .L30+28
 296 004c 1348     		ldr	r0, .L30+32
 297 004e 4FF46671 		mov	r1, #920
 298 0052 4122     		movs	r2, #65
 299 0054 FFF7FEFF 		bl	chThdCreateStatic
 300              	.LVL19:
 301              		.loc 1 92 0
 302 0058 0094     		str	r4, [sp]
 303 005a 114B     		ldr	r3, .L30+36
 304 005c 1148     		ldr	r0, .L30+40
 305 005e 4FF4B361 		mov	r1, #1432
 306 0062 4022     		movs	r2, #64
 307 0064 FFF7FEFF 		bl	chThdCreateStatic
 308              	.LVL20:
 309              		.loc 1 94 0
 310 0068 0094     		str	r4, [sp]
 311 006a 0F4B     		ldr	r3, .L30+44
 312 006c 0F48     		ldr	r0, .L30+48
 313 006e 41F29811 		movw	r1, #4504
 314 0072 4022     		movs	r2, #64
 315 0074 FFF7FEFF 		bl	chThdCreateStatic
 316              	.LVL21:
 317              		.loc 1 96 0
 318 0078 02B0     		add	sp, sp, #8
 319              		.cfi_def_cfa_offset 8
 320              		@ sp needed
 321 007a 10BD     		pop	{r4, pc}
 322              	.L31:
 323              		.align	2
 324              	.L30:
 325 007c 00000000 		.word	.LANCHOR3
 326 0080 00000000 		.word	.LANCHOR1
 327 0084 00000000 		.word	.LANCHOR4
 328 0088 00000000 		.word	.LANCHOR5
 329 008c 00040240 		.word	1073873920
 330 0090 00000000 		.word	CAND1
 331 0094 00000000 		.word	.LANCHOR6
 332 0098 00000000 		.word	cancom_read_thread
 333 009c 00000000 		.word	.LANCHOR7
 334 00a0 00000000 		.word	cancom_status_thread
 335 00a4 00000000 		.word	.LANCHOR8
 336 00a8 00000000 		.word	cancom_process_thread
 337 00ac 00000000 		.word	.LANCHOR9
 338              		.cfi_endproc
 339              	.LFE118:
ARM GAS  /var/folders/7z/kps_xzfj7sn5l5gkyq8s9db00000gn/T//ccNlTQAL.s 			page 7


 340              		.size	comm_can_init, .-comm_can_init
 341              		.section	.text.comm_can_transmit,"ax",%progbits
 342              		.align	2
 343              		.p2align 4,,15
 344              		.global	comm_can_transmit
 345              		.thumb
 346              		.thumb_func
 347              		.type	comm_can_transmit, %function
 348              	comm_can_transmit:
 349              	.LFB122:
 350              		.loc 1 304 0
 351              		.cfi_startproc
 352              		@ args = 0, pretend = 0, frame = 0
 353              		@ frame_needed = 0, uses_anonymous_args = 0
 354              		@ link register save eliminated.
 355              	.LVL22:
 356 0000 7047     		bx	lr
 357              		.cfi_endproc
 358              	.LFE122:
 359              		.size	comm_can_transmit, .-comm_can_transmit
 360 0002 00BFAFF3 		.section	.text.comm_can_send_buffer,"ax",%progbits
 360      0080AFF3 
 360      0080AFF3 
 360      0080
 361              		.align	2
 362              		.p2align 4,,15
 363              		.global	comm_can_send_buffer
 364              		.thumb
 365              		.thumb_func
 366              		.type	comm_can_send_buffer, %function
 367              	comm_can_send_buffer:
 368              	.LFB123:
 369              		.loc 1 342 0
 370              		.cfi_startproc
 371              		@ args = 0, pretend = 0, frame = 8
 372              		@ frame_needed = 0, uses_anonymous_args = 0
 373              	.LVL23:
 374              		.loc 1 342 0
 375 0000 2DE9F047 		push	{r4, r5, r6, r7, r8, r9, r10, lr}
 376              		.cfi_def_cfa_offset 32
 377              		.cfi_offset 4, -32
 378              		.cfi_offset 5, -28
 379              		.cfi_offset 6, -24
 380              		.cfi_offset 7, -20
 381              		.cfi_offset 8, -16
 382              		.cfi_offset 9, -12
 383              		.cfi_offset 10, -8
 384              		.cfi_offset 14, -4
 385              		.loc 1 345 0
 386 0004 062A     		cmp	r2, #6
 387              		.loc 1 342 0
 388 0006 82B0     		sub	sp, sp, #8
 389              		.cfi_def_cfa_offset 40
 390              		.loc 1 342 0
 391 0008 1646     		mov	r6, r2
 392 000a 8846     		mov	r8, r1
 393              		.loc 1 345 0
ARM GAS  /var/folders/7z/kps_xzfj7sn5l5gkyq8s9db00000gn/T//ccNlTQAL.s 			page 8


 394 000c 48D9     		bls	.L49
 395 000e 0D46     		mov	r5, r1
 396 0010 0027     		movs	r7, #0
 397 0012 02F1070A 		add	r10, r2, #7
 398              	.LBB28:
 399              	.LBB29:
 400              	.LBB30:
 401              		.loc 1 357 0
 402 0016 40F20319 		movw	r9, #259
 403 001a 02E0     		b	.L37
 404              	.LVL24:
 405              	.L40:
 406 001c 4C45     		cmp	r4, r9
 407 001e 2746     		mov	r7, r4
 408 0020 14D0     		beq	.L36
 409              	.LVL25:
 410              	.L37:
 411              		.loc 1 364 0
 412 0022 FC1D     		adds	r4, r7, #7
 413 0024 A642     		cmp	r6, r4
 414              		.loc 1 362 0
 415 0026 8DF80070 		strb	r7, [sp]
 416              		.loc 1 364 0
 417 002a 44D3     		bcc	.L38
 418              		.loc 1 365 0
 419 002c 2968     		ldr	r1, [r5]	@ unaligned
 420 002e AA88     		ldrh	r2, [r5, #4]	@ unaligned
 421 0030 AB79     		ldrb	r3, [r5, #6]	@ zero_extendqisi2
 422 0032 CDF80110 		str	r1, [sp, #1]	@ unaligned
 423 0036 ADF80520 		strh	r2, [sp, #5]	@ unaligned
 424 003a 8DF80730 		strb	r3, [sp, #7]
 425              	.LVL26:
 426              	.L39:
 427              	.LBE30:
 428              		.loc 1 354 0 discriminator 1
 429 003e A642     		cmp	r6, r4
 430 0040 05F10705 		add	r5, r5, #7
 431 0044 EAD8     		bhi	.L40
 432              	.LBE29:
 433              	.LBB32:
 434              		.loc 1 374 0
 435 0046 BE42     		cmp	r6, r7
 436              	.LBE32:
 437              	.LBB36:
 438 0048 3C46     		mov	r4, r7
 439              	.LVL27:
 440              	.LBE36:
 441              	.LBB37:
 442 004a 20D9     		bls	.L45
 443              	.LVL28:
 444              	.L36:
 445 004c 08EB0405 		add	r5, r8, r4
 446 0050 B71D     		adds	r7, r6, #6
 447 0052 09E0     		b	.L44
 448              	.LVL29:
 449              	.L50:
 450              	.LBB33:
ARM GAS  /var/folders/7z/kps_xzfj7sn5l5gkyq8s9db00000gn/T//ccNlTQAL.s 			page 9


 451              		.loc 1 380 0
 452 0054 2A68     		ldr	r2, [r5]	@ unaligned
 453 0056 AB88     		ldrh	r3, [r5, #4]	@ unaligned
 454 0058 CDF80220 		str	r2, [sp, #2]	@ unaligned
 455              	.LBE33:
 456              		.loc 1 374 0
 457 005c A642     		cmp	r6, r4
 458              	.LBB34:
 459              		.loc 1 380 0
 460 005e ADF80630 		strh	r3, [sp, #6]	@ unaligned
 461              	.LVL30:
 462 0062 05F10605 		add	r5, r5, #6
 463              	.LBE34:
 464              		.loc 1 374 0
 465 0066 12D9     		bls	.L45
 466              	.LVL31:
 467              	.L44:
 468              	.LBB35:
 469              		.loc 1 376 0
 470 0068 230A     		lsrs	r3, r4, #8
 471              		.loc 1 377 0
 472 006a 8DF80140 		strb	r4, [sp, #1]
 473              		.loc 1 379 0
 474 006e 0634     		adds	r4, r4, #6
 475              	.LVL32:
 476 0070 3A1B     		subs	r2, r7, r4
 477 0072 A642     		cmp	r6, r4
 478              		.loc 1 376 0
 479 0074 8DF80030 		strb	r3, [sp]
 480              		.loc 1 383 0
 481 0078 2946     		mov	r1, r5
 482 007a 0DF10200 		add	r0, sp, #2
 483 007e D2B2     		uxtb	r2, r2
 484              		.loc 1 379 0
 485 0080 E8D2     		bcs	.L50
 486              		.loc 1 383 0
 487 0082 FFF7FEFF 		bl	memcpy
 488              	.LVL33:
 489              	.LBE35:
 490              		.loc 1 374 0
 491 0086 A642     		cmp	r6, r4
 492 0088 05F10605 		add	r5, r5, #6
 493 008c ECD8     		bhi	.L44
 494              	.LVL34:
 495              	.L45:
 496              	.LBE37:
 497              		.loc 1 390 0
 498 008e FFF7FEFF 		bl	app_get_configuration
 499              	.LVL35:
 500              		.loc 1 394 0
 501 0092 4046     		mov	r0, r8
 502 0094 3146     		mov	r1, r6
 503              	.LBE28:
 504              		.loc 1 400 0
 505 0096 02B0     		add	sp, sp, #8
 506              		.cfi_remember_state
 507              		.cfi_def_cfa_offset 32
ARM GAS  /var/folders/7z/kps_xzfj7sn5l5gkyq8s9db00000gn/T//ccNlTQAL.s 			page 10


 508              		@ sp needed
 509 0098 BDE8F047 		pop	{r4, r5, r6, r7, r8, r9, r10, lr}
 510              		.cfi_restore 14
 511              		.cfi_restore 10
 512              		.cfi_restore 9
 513              		.cfi_restore 8
 514              		.cfi_restore 7
 515              		.cfi_restore 6
 516              		.cfi_restore 5
 517              		.cfi_restore 4
 518              		.cfi_def_cfa_offset 0
 519              	.LVL36:
 520              	.LBB39:
 521              		.loc 1 394 0
 522 009c FFF7FEBF 		b	crc16
 523              	.LVL37:
 524              	.L49:
 525              		.cfi_restore_state
 526              	.LBE39:
 527              	.LBB40:
 528              		.loc 1 347 0
 529 00a0 FFF7FEFF 		bl	app_get_configuration
 530              	.LVL38:
 531              		.loc 1 349 0
 532 00a4 4146     		mov	r1, r8
 533 00a6 3246     		mov	r2, r6
 534 00a8 0DF10200 		add	r0, sp, #2
 535 00ac FFF7FEFF 		bl	memcpy
 536              	.LVL39:
 537              	.LBE40:
 538              		.loc 1 400 0
 539 00b0 02B0     		add	sp, sp, #8
 540              		.cfi_remember_state
 541              		.cfi_def_cfa_offset 32
 542              	.LVL40:
 543              		@ sp needed
 544 00b2 BDE8F087 		pop	{r4, r5, r6, r7, r8, r9, r10, pc}
 545              	.LVL41:
 546              	.L38:
 547              		.cfi_restore_state
 548 00b6 C4EB0A02 		rsb	r2, r4, r10
 549              	.LBB41:
 550              	.LBB38:
 551              	.LBB31:
 552              		.loc 1 368 0
 553 00ba D2B2     		uxtb	r2, r2
 554 00bc 0DF10100 		add	r0, sp, #1
 555 00c0 2946     		mov	r1, r5
 556 00c2 FFF7FEFF 		bl	memcpy
 557              	.LVL42:
 558 00c6 BAE7     		b	.L39
 559              	.LBE31:
 560              	.LBE38:
 561              	.LBE41:
 562              		.cfi_endproc
 563              	.LFE123:
 564              		.size	comm_can_send_buffer, .-comm_can_send_buffer
ARM GAS  /var/folders/7z/kps_xzfj7sn5l5gkyq8s9db00000gn/T//ccNlTQAL.s 			page 11


 565 00c8 AFF30080 		.section	.text.comm_can_set_duty,"ax",%progbits
 565      AFF30080 
 566              		.align	2
 567              		.p2align 4,,15
 568              		.global	comm_can_set_duty
 569              		.thumb
 570              		.thumb_func
 571              		.type	comm_can_set_duty, %function
 572              	comm_can_set_duty:
 573              	.LFB124:
 574              		.loc 1 402 0
 575              		.cfi_startproc
 576              		@ args = 0, pretend = 0, frame = 8
 577              		@ frame_needed = 0, uses_anonymous_args = 0
 578              	.LVL43:
 579 0000 00B5     		push	{lr}
 580              		.cfi_def_cfa_offset 4
 581              		.cfi_offset 14, -4
 582              		.loc 1 405 0
 583 0002 DFED097A 		flds	s15, .L53
 584 0006 20EE270A 		fmuls	s0, s0, s15
 585              	.LVL44:
 586              		.loc 1 402 0
 587 000a 83B0     		sub	sp, sp, #12
 588              		.cfi_def_cfa_offset 16
 589              		.loc 1 405 0
 590 000c FDEEC07A 		ftosizs	s15, s0
 591              		.loc 1 403 0
 592 0010 0023     		movs	r3, #0
 593              		.loc 1 405 0
 594 0012 17EE901A 		fmrs	r1, s15	@ int
 595 0016 01A8     		add	r0, sp, #4
 596              	.LVL45:
 597 0018 6A46     		mov	r2, sp
 598              		.loc 1 403 0
 599 001a 0093     		str	r3, [sp]
 600              		.loc 1 405 0
 601 001c FFF7FEFF 		bl	buffer_append_int32
 602              	.LVL46:
 603              		.loc 1 407 0
 604 0020 03B0     		add	sp, sp, #12
 605              		.cfi_def_cfa_offset 4
 606              	.LVL47:
 607              		@ sp needed
 608 0022 5DF804FB 		ldr	pc, [sp], #4
 609              	.LVL48:
 610              	.L54:
 611 0026 00BF     		.align	2
 612              	.L53:
 613 0028 0050C347 		.word	1203982336
 614              		.cfi_endproc
 615              	.LFE124:
 616              		.size	comm_can_set_duty, .-comm_can_set_duty
 617 002c AFF30080 		.section	.text.comm_can_set_current,"ax",%progbits
 618              		.align	2
 619              		.p2align 4,,15
 620              		.global	comm_can_set_current
ARM GAS  /var/folders/7z/kps_xzfj7sn5l5gkyq8s9db00000gn/T//ccNlTQAL.s 			page 12


 621              		.thumb
 622              		.thumb_func
 623              		.type	comm_can_set_current, %function
 624              	comm_can_set_current:
 625              	.LFB125:
 626              		.loc 1 409 0
 627              		.cfi_startproc
 628              		@ args = 0, pretend = 0, frame = 8
 629              		@ frame_needed = 0, uses_anonymous_args = 0
 630              	.LVL49:
 631 0000 00B5     		push	{lr}
 632              		.cfi_def_cfa_offset 4
 633              		.cfi_offset 14, -4
 634              		.loc 1 412 0
 635 0002 DFED097A 		flds	s15, .L57
 636 0006 20EE270A 		fmuls	s0, s0, s15
 637              	.LVL50:
 638              		.loc 1 409 0
 639 000a 83B0     		sub	sp, sp, #12
 640              		.cfi_def_cfa_offset 16
 641              		.loc 1 412 0
 642 000c FDEEC07A 		ftosizs	s15, s0
 643              		.loc 1 410 0
 644 0010 0023     		movs	r3, #0
 645              		.loc 1 412 0
 646 0012 17EE901A 		fmrs	r1, s15	@ int
 647 0016 01A8     		add	r0, sp, #4
 648              	.LVL51:
 649 0018 6A46     		mov	r2, sp
 650              		.loc 1 410 0
 651 001a 0093     		str	r3, [sp]
 652              		.loc 1 412 0
 653 001c FFF7FEFF 		bl	buffer_append_int32
 654              	.LVL52:
 655              		.loc 1 414 0
 656 0020 03B0     		add	sp, sp, #12
 657              		.cfi_def_cfa_offset 4
 658              	.LVL53:
 659              		@ sp needed
 660 0022 5DF804FB 		ldr	pc, [sp], #4
 661              	.LVL54:
 662              	.L58:
 663 0026 00BF     		.align	2
 664              	.L57:
 665 0028 00007A44 		.word	1148846080
 666              		.cfi_endproc
 667              	.LFE125:
 668              		.size	comm_can_set_current, .-comm_can_set_current
 669 002c AFF30080 		.section	.text.comm_can_set_current_brake,"ax",%progbits
 670              		.align	2
 671              		.p2align 4,,15
 672              		.global	comm_can_set_current_brake
 673              		.thumb
 674              		.thumb_func
 675              		.type	comm_can_set_current_brake, %function
 676              	comm_can_set_current_brake:
 677              	.LFB126:
ARM GAS  /var/folders/7z/kps_xzfj7sn5l5gkyq8s9db00000gn/T//ccNlTQAL.s 			page 13


 678              		.loc 1 416 0
 679              		.cfi_startproc
 680              		@ args = 0, pretend = 0, frame = 8
 681              		@ frame_needed = 0, uses_anonymous_args = 0
 682              	.LVL55:
 683 0000 00B5     		push	{lr}
 684              		.cfi_def_cfa_offset 4
 685              		.cfi_offset 14, -4
 686              		.loc 1 419 0
 687 0002 DFED097A 		flds	s15, .L61
 688 0006 20EE270A 		fmuls	s0, s0, s15
 689              	.LVL56:
 690              		.loc 1 416 0
 691 000a 83B0     		sub	sp, sp, #12
 692              		.cfi_def_cfa_offset 16
 693              		.loc 1 419 0
 694 000c FDEEC07A 		ftosizs	s15, s0
 695              		.loc 1 417 0
 696 0010 0023     		movs	r3, #0
 697              		.loc 1 419 0
 698 0012 17EE901A 		fmrs	r1, s15	@ int
 699 0016 01A8     		add	r0, sp, #4
 700              	.LVL57:
 701 0018 6A46     		mov	r2, sp
 702              		.loc 1 417 0
 703 001a 0093     		str	r3, [sp]
 704              		.loc 1 419 0
 705 001c FFF7FEFF 		bl	buffer_append_int32
 706              	.LVL58:
 707              		.loc 1 421 0
 708 0020 03B0     		add	sp, sp, #12
 709              		.cfi_def_cfa_offset 4
 710              	.LVL59:
 711              		@ sp needed
 712 0022 5DF804FB 		ldr	pc, [sp], #4
 713              	.LVL60:
 714              	.L62:
 715 0026 00BF     		.align	2
 716              	.L61:
 717 0028 00007A44 		.word	1148846080
 718              		.cfi_endproc
 719              	.LFE126:
 720              		.size	comm_can_set_current_brake, .-comm_can_set_current_brake
 721 002c AFF30080 		.section	.text.comm_can_set_rpm,"ax",%progbits
 722              		.align	2
 723              		.p2align 4,,15
 724              		.global	comm_can_set_rpm
 725              		.thumb
 726              		.thumb_func
 727              		.type	comm_can_set_rpm, %function
 728              	comm_can_set_rpm:
 729              	.LFB127:
 730              		.loc 1 423 0
 731              		.cfi_startproc
 732              		@ args = 0, pretend = 0, frame = 8
 733              		@ frame_needed = 0, uses_anonymous_args = 0
 734              	.LVL61:
ARM GAS  /var/folders/7z/kps_xzfj7sn5l5gkyq8s9db00000gn/T//ccNlTQAL.s 			page 14


 735 0000 00B5     		push	{lr}
 736              		.cfi_def_cfa_offset 4
 737              		.cfi_offset 14, -4
 738              		.loc 1 426 0
 739 0002 FDEEC07A 		ftosizs	s15, s0
 740              		.loc 1 423 0
 741 0006 83B0     		sub	sp, sp, #12
 742              		.cfi_def_cfa_offset 16
 743              		.loc 1 424 0
 744 0008 0023     		movs	r3, #0
 745              		.loc 1 426 0
 746 000a 01A8     		add	r0, sp, #4
 747              	.LVL62:
 748 000c 17EE901A 		fmrs	r1, s15	@ int
 749 0010 6A46     		mov	r2, sp
 750              		.loc 1 424 0
 751 0012 0093     		str	r3, [sp]
 752              		.loc 1 426 0
 753 0014 FFF7FEFF 		bl	buffer_append_int32
 754              	.LVL63:
 755              		.loc 1 428 0
 756 0018 03B0     		add	sp, sp, #12
 757              		.cfi_def_cfa_offset 4
 758              	.LVL64:
 759              		@ sp needed
 760 001a 5DF804FB 		ldr	pc, [sp], #4
 761              		.cfi_endproc
 762              	.LFE127:
 763              		.size	comm_can_set_rpm, .-comm_can_set_rpm
 764 001e 00BF     		.section	.text.comm_can_set_pos,"ax",%progbits
 765              		.align	2
 766              		.p2align 4,,15
 767              		.global	comm_can_set_pos
 768              		.thumb
 769              		.thumb_func
 770              		.type	comm_can_set_pos, %function
 771              	comm_can_set_pos:
 772              	.LFB128:
 773              		.loc 1 430 0
 774              		.cfi_startproc
 775              		@ args = 0, pretend = 0, frame = 8
 776              		@ frame_needed = 0, uses_anonymous_args = 0
 777              	.LVL65:
 778 0000 00B5     		push	{lr}
 779              		.cfi_def_cfa_offset 4
 780              		.cfi_offset 14, -4
 781              		.loc 1 433 0
 782 0002 DFED097A 		flds	s15, .L67
 783 0006 20EE270A 		fmuls	s0, s0, s15
 784              	.LVL66:
 785              		.loc 1 430 0
 786 000a 83B0     		sub	sp, sp, #12
 787              		.cfi_def_cfa_offset 16
 788              		.loc 1 433 0
 789 000c FDEEC07A 		ftosizs	s15, s0
 790              		.loc 1 431 0
 791 0010 0023     		movs	r3, #0
ARM GAS  /var/folders/7z/kps_xzfj7sn5l5gkyq8s9db00000gn/T//ccNlTQAL.s 			page 15


 792              		.loc 1 433 0
 793 0012 17EE901A 		fmrs	r1, s15	@ int
 794 0016 01A8     		add	r0, sp, #4
 795              	.LVL67:
 796 0018 6A46     		mov	r2, sp
 797              		.loc 1 431 0
 798 001a 0093     		str	r3, [sp]
 799              		.loc 1 433 0
 800 001c FFF7FEFF 		bl	buffer_append_int32
 801              	.LVL68:
 802              		.loc 1 435 0
 803 0020 03B0     		add	sp, sp, #12
 804              		.cfi_def_cfa_offset 4
 805              	.LVL69:
 806              		@ sp needed
 807 0022 5DF804FB 		ldr	pc, [sp], #4
 808              	.LVL70:
 809              	.L68:
 810 0026 00BF     		.align	2
 811              	.L67:
 812 0028 00247449 		.word	1232348160
 813              		.cfi_endproc
 814              	.LFE128:
 815              		.size	comm_can_set_pos, .-comm_can_set_pos
 816 002c AFF30080 		.section	.text.comm_can_get_status_msg_index,"ax",%progbits
 817              		.align	2
 818              		.p2align 4,,15
 819              		.global	comm_can_get_status_msg_index
 820              		.thumb
 821              		.thumb_func
 822              		.type	comm_can_get_status_msg_index, %function
 823              	comm_can_get_status_msg_index:
 824              	.LFB129:
 825              		.loc 1 446 0
 826              		.cfi_startproc
 827              		@ args = 0, pretend = 0, frame = 0
 828              		@ frame_needed = 0, uses_anonymous_args = 0
 829              		@ link register save eliminated.
 830              	.LVL71:
 831              		.loc 1 447 0
 832 0000 0928     		cmp	r0, #9
 833              		.loc 1 448 0
 834 0002 DDBF     		ittte	le
 835 0004 034B     		ldrle	r3, .L72
 836 0006 00EB8000 		addle	r0, r0, r0, lsl #2
 837              	.LVL72:
 838 000a 03EB8000 		addle	r0, r3, r0, lsl #2
 839              		.loc 1 450 0
 840 000e 0020     		movgt	r0, #0
 841              		.loc 1 452 0
 842 0010 7047     		bx	lr
 843              	.L73:
 844 0012 00BF     		.align	2
 845              	.L72:
 846 0014 00000000 		.word	.LANCHOR3
 847              		.cfi_endproc
 848              	.LFE129:
ARM GAS  /var/folders/7z/kps_xzfj7sn5l5gkyq8s9db00000gn/T//ccNlTQAL.s 			page 16


 849              		.size	comm_can_get_status_msg_index, .-comm_can_get_status_msg_index
 850 0018 AFF30080 		.section	.text.comm_can_get_status_msg_id,"ax",%progbits
 850      AFF30080 
 851              		.align	2
 852              		.p2align 4,,15
 853              		.global	comm_can_get_status_msg_id
 854              		.thumb
 855              		.thumb_func
 856              		.type	comm_can_get_status_msg_id, %function
 857              	comm_can_get_status_msg_id:
 858              	.LFB130:
 859              		.loc 1 463 0
 860              		.cfi_startproc
 861              		@ args = 0, pretend = 0, frame = 0
 862              		@ frame_needed = 0, uses_anonymous_args = 0
 863              		@ link register save eliminated.
 864              	.LVL73:
 865 0000 30B4     		push	{r4, r5}
 866              		.cfi_def_cfa_offset 8
 867              		.cfi_offset 4, -8
 868              		.cfi_offset 5, -4
 869              		.loc 1 463 0
 870 0002 0023     		movs	r3, #0
 871 0004 094D     		ldr	r5, .L81
 872              	.LBB42:
 873              		.loc 1 464 0
 874 0006 1A46     		mov	r2, r3
 875              	.LVL74:
 876              	.L77:
 877              		.loc 1 465 0
 878 0008 E958     		ldr	r1, [r5, r3]
 879 000a 084C     		ldr	r4, .L81
 880 000c 8142     		cmp	r1, r0
 881 000e 03F11403 		add	r3, r3, #20
 882 0012 05D0     		beq	.L80
 883              		.loc 1 464 0 discriminator 2
 884 0014 0132     		adds	r2, r2, #1
 885              	.LVL75:
 886 0016 0A2A     		cmp	r2, #10
 887 0018 F6D1     		bne	.L77
 888              	.LBE42:
 889              		.loc 1 470 0
 890 001a 0020     		movs	r0, #0
 891              	.LVL76:
 892              		.loc 1 471 0
 893 001c 30BC     		pop	{r4, r5}
 894              		.cfi_remember_state
 895              		.cfi_restore 5
 896              		.cfi_restore 4
 897              		.cfi_def_cfa_offset 0
 898 001e 7047     		bx	lr
 899              	.LVL77:
 900              	.L80:
 901              		.cfi_restore_state
 902              	.LBB43:
 903              		.loc 1 466 0
 904 0020 02EB8202 		add	r2, r2, r2, lsl #2
ARM GAS  /var/folders/7z/kps_xzfj7sn5l5gkyq8s9db00000gn/T//ccNlTQAL.s 			page 17


 905              	.LVL78:
 906 0024 04EB8200 		add	r0, r4, r2, lsl #2
 907              	.LVL79:
 908              	.LBE43:
 909              		.loc 1 471 0
 910 0028 30BC     		pop	{r4, r5}
 911              		.cfi_restore 4
 912              		.cfi_restore 5
 913              		.cfi_def_cfa_offset 0
 914 002a 7047     		bx	lr
 915              	.L82:
 916              		.align	2
 917              	.L81:
 918 002c 00000000 		.word	.LANCHOR3
 919              		.cfi_endproc
 920              	.LFE130:
 921              		.size	comm_can_get_status_msg_id, .-comm_can_get_status_msg_id
 922              		.section	.bss.cancom_process_thread_wa,"aw",%nobits
 923              		.align	3
 924              		.set	.LANCHOR9,. + 0
 925              		.type	cancom_process_thread_wa, %object
 926              		.size	cancom_process_thread_wa, 4504
 927              	cancom_process_thread_wa:
 928 0000 00000000 		.space	4504
 928      00000000 
 928      00000000 
 928      00000000 
 928      00000000 
 929              		.section	.bss.rx_frame_read,"aw",%nobits
 930              		.align	2
 931              		.set	.LANCHOR4,. + 0
 932              		.type	rx_frame_read, %object
 933              		.size	rx_frame_read, 4
 934              	rx_frame_read:
 935 0000 00000000 		.space	4
 936              		.section	.rodata.cancfg,"a",%progbits
 937              		.align	2
 938              		.set	.LANCHOR6,. + 0
 939              		.type	cancfg, %object
 940              		.size	cancfg, 8
 941              	cancfg:
 942 0000 64000000 		.word	100
 943 0004 06001800 		.word	1572870
 944              		.section	.bss.cancom_status_thread_wa,"aw",%nobits
 945              		.align	3
 946              		.set	.LANCHOR8,. + 0
 947              		.type	cancom_status_thread_wa, %object
 948              		.size	cancom_status_thread_wa, 1432
 949              	cancom_status_thread_wa:
 950 0000 00000000 		.space	1432
 950      00000000 
 950      00000000 
 950      00000000 
 950      00000000 
 951              		.section	.bss.stat_msgs,"aw",%nobits
 952              		.align	2
 953              		.set	.LANCHOR3,. + 0
ARM GAS  /var/folders/7z/kps_xzfj7sn5l5gkyq8s9db00000gn/T//ccNlTQAL.s 			page 18


 954              		.type	stat_msgs, %object
 955              		.size	stat_msgs, 200
 956              	stat_msgs:
 957 0000 00000000 		.space	200
 957      00000000 
 957      00000000 
 957      00000000 
 957      00000000 
 958              		.section	.bss.rx_frames,"aw",%nobits
 959              		.align	2
 960              		.set	.LANCHOR2,. + 0
 961              		.type	rx_frames, %object
 962              		.size	rx_frames, 2000
 963              	rx_frames:
 964 0000 00000000 		.space	2000
 964      00000000 
 964      00000000 
 964      00000000 
 964      00000000 
 965              		.section	.rodata.str1.4,"aMS",%progbits,1
 966              		.align	2
 967              	.LC0:
 968 0000 43616E63 		.ascii	"Cancom process\000"
 968      6F6D2070 
 968      726F6365 
 968      737300
 969 000f 00       		.space	1
 970              	.LC1:
 971 0010 43414E20 		.ascii	"CAN status\000"
 971      73746174 
 971      757300
 972 001b 00       		.space	1
 973              	.LC2:
 974 001c 43414E00 		.ascii	"CAN\000"
 975              		.section	.bss.can_mtx,"aw",%nobits
 976              		.align	2
 977              		.set	.LANCHOR5,. + 0
 978              		.type	can_mtx, %object
 979              		.size	can_mtx, 16
 980              	can_mtx:
 981 0000 00000000 		.space	16
 981      00000000 
 981      00000000 
 981      00000000 
 982              		.section	.bss.cancom_read_thread_wa,"aw",%nobits
 983              		.align	3
 984              		.set	.LANCHOR7,. + 0
 985              		.type	cancom_read_thread_wa, %object
 986              		.size	cancom_read_thread_wa, 920
 987              	cancom_read_thread_wa:
 988 0000 00000000 		.space	920
 988      00000000 
 988      00000000 
 988      00000000 
 988      00000000 
 989              		.section	.bss.process_tp,"aw",%nobits
 990              		.align	2
ARM GAS  /var/folders/7z/kps_xzfj7sn5l5gkyq8s9db00000gn/T//ccNlTQAL.s 			page 19


 991              		.set	.LANCHOR0,. + 0
 992              		.type	process_tp, %object
 993              		.size	process_tp, 4
 994              	process_tp:
 995 0000 00000000 		.space	4
 996              		.section	.bss.rx_frame_write,"aw",%nobits
 997              		.align	2
 998              		.set	.LANCHOR1,. + 0
 999              		.type	rx_frame_write, %object
 1000              		.size	rx_frame_write, 4
 1001              	rx_frame_write:
 1002 0000 00000000 		.space	4
 1003              		.text
 1004              	.Letext0:
 1005              		.file 2 "/Users/Baram/gcc-arm-none-eabi/lib/gcc/arm-none-eabi/4.9.3/include/stddef.h"
 1006              		.file 3 "/Users/Baram/gcc-arm-none-eabi/arm-none-eabi/include/machine/_default_types.h"
 1007              		.file 4 "/Users/Baram/gcc-arm-none-eabi/arm-none-eabi/include/stdint.h"
 1008              		.file 5 "lib/ChibiOS_2.6.6/os/ports/GCC/ARMCMx/chtypes.h"
 1009              		.file 6 "lib/ChibiOS_2.6.6/os/kernel/include/chlists.h"
 1010              		.file 7 "lib/ChibiOS_2.6.6/os/kernel/include/chthreads.h"
 1011              		.file 8 "lib/ChibiOS_2.6.6/os/ports/GCC/ARMCMx/chcore_v7m.h"
 1012              		.file 9 "lib/ChibiOS_2.6.6/os/kernel/include/chschd.h"
 1013              		.file 10 "lib/ChibiOS_2.6.6/os/kernel/include/chsem.h"
 1014              		.file 11 "lib/ChibiOS_2.6.6/os/kernel/include/chmtx.h"
 1015              		.file 12 "lib/ChibiOS_2.6.6/os/kernel/include/chevents.h"
 1016              		.file 13 "src/core/datatypes.h"
 1017              		.file 14 "lib/ChibiOS_2.6.6/os/hal/platforms/STM32F4xx/stm32f4xx.h"
 1018              		.file 15 "lib/ChibiOS_2.6.6/os/hal/platforms/STM32/GPIOv2/pal_lld.h"
 1019              		.file 16 "lib/ChibiOS_2.6.6/os/hal/include/can.h"
 1020              		.file 17 "lib/ChibiOS_2.6.6/os/hal/platforms/STM32/can_lld.h"
 1021              		.file 18 "lib/ChibiOS_2.6.6/os/ports/common/ARMCMx/CMSIS/include/core_cm4.h"
 1022              		.file 19 "src/core/crc.h"
 1023              		.file 20 "src/core/buffer.h"
 1024              		.file 21 "lib/app/app.h"