ARM GAS  /var/folders/7z/kps_xzfj7sn5l5gkyq8s9db00000gn/T//ccH1k5kA.s 			page 1


   1              		.syntax unified
   2              		.cpu cortex-m4
   3              		.eabi_attribute 27, 1
   4              		.eabi_attribute 28, 1
   5              		.fpu fpv4-sp-d16
   6              		.eabi_attribute 20, 1
   7              		.eabi_attribute 21, 1
   8              		.eabi_attribute 23, 3
   9              		.eabi_attribute 24, 1
  10              		.eabi_attribute 25, 1
  11              		.eabi_attribute 26, 1
  12              		.eabi_attribute 30, 2
  13              		.eabi_attribute 34, 1
  14              		.eabi_attribute 18, 4
  15              		.thumb
  16              		.file	"eeprom.c"
  17              		.text
  18              	.Ltext0:
  19              		.cfi_sections	.debug_frame
  20              		.section	.text.EE_VerifyPageFullWriteVariable,"ax",%progbits
  21              		.align	2
  22              		.p2align 4,,15
  23              		.thumb
  24              		.thumb_func
  25              		.type	EE_VerifyPageFullWriteVariable, %function
  26              	EE_VerifyPageFullWriteVariable:
  27              	.LFB116:
  28              		.file 1 "src/core/eeprom.c"
  29              		.loc 1 463 0
  30              		.cfi_startproc
  31              		@ args = 0, pretend = 0, frame = 0
  32              		@ frame_needed = 0, uses_anonymous_args = 0
  33              	.LVL0:
  34 0000 38B5     		push	{r3, r4, r5, lr}
  35              		.cfi_def_cfa_offset 16
  36              		.cfi_offset 3, -16
  37              		.cfi_offset 4, -12
  38              		.cfi_offset 5, -8
  39              		.cfi_offset 14, -4
  40              	.LBB4:
  41              	.LBB5:
  42              		.loc 1 398 0
  43 0002 1B4A     		ldr	r2, .L23
  44              		.loc 1 395 0
  45 0004 1B4B     		ldr	r3, .L23+4
  46 0006 1B88     		ldrh	r3, [r3]
  47              		.loc 1 398 0
  48 0008 1288     		ldrh	r2, [r2]
  49 000a 92B2     		uxth	r2, r2
  50              		.loc 1 395 0
  51 000c 9BB2     		uxth	r3, r3
  52              	.LVL1:
  53              		.loc 1 404 0
  54 000e EAB9     		cbnz	r2, .L2
  55              		.loc 1 407 0
  56 0010 4EF6EE62 		movw	r2, #61166
  57              	.LVL2:
ARM GAS  /var/folders/7z/kps_xzfj7sn5l5gkyq8s9db00000gn/T//ccH1k5kA.s 			page 2


  58              		.loc 1 421 0
  59 0014 9B1A     		subs	r3, r3, r2
  60              	.LVL3:
  61 0016 18BF     		it	ne
  62 0018 0123     		movne	r3, #1
  63              	.LVL4:
  64              	.L3:
  65              	.LBE5:
  66              	.LBE4:
  67              		.loc 1 478 0
  68 001a 03F50054 		add	r4, r3, #8192
  69              		.loc 1 481 0
  70 001e 164A     		ldr	r2, .L23+8
  71 0020 0133     		adds	r3, r3, #1
  72              		.loc 1 478 0
  73 0022 0134     		adds	r4, r4, #1
  74              		.loc 1 481 0
  75 0024 9B03     		lsls	r3, r3, #14
  76              		.loc 1 478 0
  77 0026 A403     		lsls	r4, r4, #14
  78              	.LVL5:
  79              		.loc 1 481 0
  80 0028 1A44     		add	r2, r2, r3
  81              	.LVL6:
  82              		.loc 1 484 0
  83 002a 9442     		cmp	r4, r2
  84 002c 03D3     		bcc	.L7
  85 002e 10E0     		b	.L11
  86              	.L5:
  87              		.loc 1 504 0
  88 0030 0434     		adds	r4, r4, #4
  89              	.LVL7:
  90              		.loc 1 484 0
  91 0032 A242     		cmp	r2, r4
  92 0034 0DD9     		bls	.L11
  93              	.L7:
  94              		.loc 1 487 0
  95 0036 2368     		ldr	r3, [r4]
  96 0038 0133     		adds	r3, r3, #1
  97 003a F9D1     		bne	.L5
  98 003c 0546     		mov	r5, r0
  99              		.loc 1 490 0
 100 003e 2046     		mov	r0, r4
 101              	.LVL8:
 102 0040 FFF7FEFF 		bl	FLASH_ProgramHalfWord
 103              	.LVL9:
 104              		.loc 1 492 0
 105 0044 0828     		cmp	r0, #8
 106 0046 0DD0     		beq	.L21
 107              	.LVL10:
 108              	.L19:
 109              		.loc 1 499 0
 110 0048 80B2     		uxth	r0, r0
 111              	.LVL11:
 112 004a 38BD     		pop	{r3, r4, r5, pc}
 113              	.LVL12:
 114              	.L2:
ARM GAS  /var/folders/7z/kps_xzfj7sn5l5gkyq8s9db00000gn/T//ccH1k5kA.s 			page 3


 115              	.LBB8:
 116              	.LBB6:
 117              		.loc 1 416 0
 118 004c 1BB1     		cbz	r3, .L22
 119              	.LBE6:
 120              	.LBE8:
 121              		.loc 1 474 0
 122 004e AB20     		movs	r0, #171
 123              	.LVL13:
 124 0050 38BD     		pop	{r3, r4, r5, pc}
 125              	.LVL14:
 126              	.L11:
 127              		.loc 1 509 0
 128 0052 8020     		movs	r0, #128
 129              	.LVL15:
 130 0054 38BD     		pop	{r3, r4, r5, pc}
 131              	.LVL16:
 132              	.L22:
 133              	.LBB9:
 134              	.LBB7:
 135              		.loc 1 419 0
 136 0056 4EF6EE63 		movw	r3, #61166
 137              	.LVL17:
 138              		.loc 1 421 0
 139 005a D31A     		subs	r3, r2, r3
 140 005c B3FA83F3 		clz	r3, r3
 141 0060 5B09     		lsrs	r3, r3, #5
 142 0062 DAE7     		b	.L3
 143              	.LVL18:
 144              	.L21:
 145              	.LBE7:
 146              	.LBE9:
 147              		.loc 1 497 0
 148 0064 A01C     		adds	r0, r4, #2
 149              	.LVL19:
 150 0066 2946     		mov	r1, r5
 151 0068 FFF7FEFF 		bl	FLASH_ProgramHalfWord
 152              	.LVL20:
 153 006c ECE7     		b	.L19
 154              	.L24:
 155 006e 00BF     		.align	2
 156              	.L23:
 157 0070 00800008 		.word	134250496
 158 0074 00400008 		.word	134234112
 159 0078 FE3F0008 		.word	134234110
 160              		.cfi_endproc
 161              	.LFE116:
 162              		.size	EE_VerifyPageFullWriteVariable, .-EE_VerifyPageFullWriteVariable
 163 007c AFF30080 		.section	.text.EE_Format,"ax",%progbits
 164              		.align	2
 165              		.p2align 4,,15
 166              		.thumb
 167              		.thumb_func
 168              		.type	EE_Format, %function
 169              	EE_Format:
 170              	.LFB114:
 171              		.loc 1 353 0
ARM GAS  /var/folders/7z/kps_xzfj7sn5l5gkyq8s9db00000gn/T//ccH1k5kA.s 			page 4


 172              		.cfi_startproc
 173              		@ args = 0, pretend = 0, frame = 0
 174              		@ frame_needed = 0, uses_anonymous_args = 0
 175              	.LVL21:
 176 0000 08B5     		push	{r3, lr}
 177              		.cfi_def_cfa_offset 8
 178              		.cfi_offset 3, -8
 179              		.cfi_offset 14, -4
 180              		.loc 1 357 0
 181 0002 0820     		movs	r0, #8
 182 0004 0221     		movs	r1, #2
 183 0006 FFF7FEFF 		bl	FLASH_EraseSector
 184              	.LVL22:
 185              		.loc 1 360 0
 186 000a 0828     		cmp	r0, #8
 187 000c 00D0     		beq	.L30
 188              	.L26:
 189              		.loc 1 379 0
 190 000e 08BD     		pop	{r3, pc}
 191              	.L30:
 192              		.loc 1 366 0
 193 0010 0548     		ldr	r0, .L31
 194              	.LVL23:
 195 0012 0021     		movs	r1, #0
 196 0014 FFF7FEFF 		bl	FLASH_ProgramHalfWord
 197              	.LVL24:
 198              		.loc 1 369 0
 199 0018 0828     		cmp	r0, #8
 200 001a F8D1     		bne	.L26
 201              	.LBB12:
 202              	.LBB13:
 203              		.loc 1 375 0
 204 001c 1020     		movs	r0, #16
 205              	.LVL25:
 206 001e 0221     		movs	r1, #2
 207              	.LBE13:
 208              	.LBE12:
 209              		.loc 1 379 0
 210 0020 BDE80840 		pop	{r3, lr}
 211              		.cfi_restore 14
 212              		.cfi_restore 3
 213              		.cfi_def_cfa_offset 0
 214              	.LBB15:
 215              	.LBB14:
 216              		.loc 1 375 0
 217 0024 FFF7FEBF 		b	FLASH_EraseSector
 218              	.LVL26:
 219              	.L32:
 220              		.align	2
 221              	.L31:
 222 0028 00400008 		.word	134234112
 223              	.LBE14:
 224              	.LBE15:
 225              		.cfi_endproc
 226              	.LFE114:
 227              		.size	EE_Format, .-EE_Format
 228 002c AFF30080 		.section	.text.EE_ReadVariable,"ax",%progbits
ARM GAS  /var/folders/7z/kps_xzfj7sn5l5gkyq8s9db00000gn/T//ccH1k5kA.s 			page 5


 229              		.align	2
 230              		.p2align 4,,15
 231              		.global	EE_ReadVariable
 232              		.thumb
 233              		.thumb_func
 234              		.type	EE_ReadVariable, %function
 235              	EE_ReadVariable:
 236              	.LFB112:
 237              		.loc 1 270 0
 238              		.cfi_startproc
 239              		@ args = 0, pretend = 0, frame = 0
 240              		@ frame_needed = 0, uses_anonymous_args = 0
 241              		@ link register save eliminated.
 242              	.LVL27:
 243              	.LBB18:
 244              	.LBB19:
 245              		.loc 1 395 0
 246 0000 154B     		ldr	r3, .L45
 247              		.loc 1 398 0
 248 0002 164A     		ldr	r2, .L45+4
 249              		.loc 1 395 0
 250 0004 1B88     		ldrh	r3, [r3]
 251              		.loc 1 398 0
 252 0006 1288     		ldrh	r2, [r2]
 253              		.loc 1 395 0
 254 0008 9BB2     		uxth	r3, r3
 255              	.LVL28:
 256              	.LBE19:
 257              	.LBE18:
 258              		.loc 1 270 0
 259 000a 10B4     		push	{r4}
 260              		.cfi_def_cfa_offset 4
 261              		.cfi_offset 4, -4
 262              	.LBB23:
 263              	.LBB20:
 264              		.loc 1 398 0
 265 000c 92B2     		uxth	r2, r2
 266              	.LVL29:
 267              		.loc 1 434 0
 268 000e BBB1     		cbz	r3, .L40
 269              		.loc 1 438 0
 270 0010 1AB1     		cbz	r2, .L41
 271              	.LBE20:
 272              	.LBE23:
 273              		.loc 1 281 0
 274 0012 AB20     		movs	r0, #171
 275              	.LVL30:
 276              		.loc 1 316 0
 277 0014 5DF8044B 		ldr	r4, [sp], #4
 278              		.cfi_remember_state
 279              		.cfi_restore 4
 280              		.cfi_def_cfa_offset 0
 281 0018 7047     		bx	lr
 282              	.LVL31:
 283              	.L41:
 284              		.cfi_restore_state
 285              	.LBB24:
ARM GAS  /var/folders/7z/kps_xzfj7sn5l5gkyq8s9db00000gn/T//ccH1k5kA.s 			page 6


 286              	.LBB21:
 287              		.loc 1 438 0
 288 001a 114B     		ldr	r3, .L45+8
 289              	.LVL32:
 290 001c 114C     		ldr	r4, .L45+12
 291 001e 1A46     		mov	r2, r3
 292              	.LVL33:
 293              	.L34:
 294              	.LBE21:
 295              	.LBE24:
 296              		.loc 1 294 0
 297 0020 1288     		ldrh	r2, [r2]
 298 0022 92B2     		uxth	r2, r2
 299              	.LVL34:
 300              		.loc 1 297 0
 301 0024 8242     		cmp	r2, r0
 302 0026 04D1     		bne	.L36
 303 0028 0EE0     		b	.L38
 304              	.LVL35:
 305              	.L37:
 306              		.loc 1 294 0
 307 002a 1A88     		ldrh	r2, [r3]
 308 002c 92B2     		uxth	r2, r2
 309              	.LVL36:
 310              		.loc 1 297 0
 311 002e 8242     		cmp	r2, r0
 312 0030 0AD0     		beq	.L38
 313              	.LVL37:
 314              	.L36:
 315              		.loc 1 310 0
 316 0032 043B     		subs	r3, r3, #4
 317              	.LVL38:
 318              		.loc 1 291 0
 319 0034 9C42     		cmp	r4, r3
 320 0036 F8D3     		bcc	.L37
 321              		.loc 1 272 0
 322 0038 0120     		movs	r0, #1
 323              	.LVL39:
 324              		.loc 1 316 0
 325 003a 5DF8044B 		ldr	r4, [sp], #4
 326              		.cfi_remember_state
 327              		.cfi_restore 4
 328              		.cfi_def_cfa_offset 0
 329 003e 7047     		bx	lr
 330              	.LVL40:
 331              	.L40:
 332              		.cfi_restore_state
 333              	.LBB25:
 334              	.LBB22:
 335              		.loc 1 434 0
 336 0040 094B     		ldr	r3, .L45+16
 337              	.LVL41:
 338 0042 0A4C     		ldr	r4, .L45+20
 339 0044 1A46     		mov	r2, r3
 340              	.LVL42:
 341 0046 EBE7     		b	.L34
 342              	.LVL43:
ARM GAS  /var/folders/7z/kps_xzfj7sn5l5gkyq8s9db00000gn/T//ccH1k5kA.s 			page 7


 343              	.L38:
 344              	.LBE22:
 345              	.LBE25:
 346              		.loc 1 300 0
 347 0048 33F8023C 		ldrh	r3, [r3, #-2]
 348              	.LVL44:
 349 004c 0B80     		strh	r3, [r1]	@ movhi
 350              	.LVL45:
 351              		.loc 1 303 0
 352 004e 0020     		movs	r0, #0
 353              	.LVL46:
 354              		.loc 1 316 0
 355 0050 5DF8044B 		ldr	r4, [sp], #4
 356              		.cfi_restore 4
 357              		.cfi_def_cfa_offset 0
 358 0054 7047     		bx	lr
 359              	.L46:
 360 0056 00BF     		.align	2
 361              	.L45:
 362 0058 00400008 		.word	134234112
 363 005c 00800008 		.word	134250496
 364 0060 FEBF0008 		.word	134266878
 365 0064 02800008 		.word	134250498
 366 0068 FE7F0008 		.word	134250494
 367 006c 02400008 		.word	134234114
 368              		.cfi_endproc
 369              	.LFE112:
 370              		.size	EE_ReadVariable, .-EE_ReadVariable
 371              		.section	.text.EE_Init,"ax",%progbits
 372              		.align	2
 373              		.p2align 4,,15
 374              		.global	EE_Init
 375              		.thumb
 376              		.thumb_func
 377              		.type	EE_Init, %function
 378              	EE_Init:
 379              	.LFB111:
 380              		.loc 1 55 0
 381              		.cfi_startproc
 382              		@ args = 0, pretend = 0, frame = 0
 383              		@ frame_needed = 0, uses_anonymous_args = 0
 384              	.LVL47:
 385 0000 2DE9F041 		push	{r4, r5, r6, r7, r8, lr}
 386              		.cfi_def_cfa_offset 24
 387              		.cfi_offset 4, -24
 388              		.cfi_offset 5, -20
 389              		.cfi_offset 6, -16
 390              		.cfi_offset 7, -12
 391              		.cfi_offset 8, -8
 392              		.cfi_offset 14, -4
 393              		.loc 1 63 0
 394 0004 504D     		ldr	r5, .L86
 395              		.loc 1 65 0
 396 0006 514E     		ldr	r6, .L86+4
 397              		.loc 1 63 0
 398 0008 2C88     		ldrh	r4, [r5]
 399              		.loc 1 65 0
ARM GAS  /var/folders/7z/kps_xzfj7sn5l5gkyq8s9db00000gn/T//ccH1k5kA.s 			page 8


 400 000a 3388     		ldrh	r3, [r6]
 401              		.loc 1 63 0
 402 000c A4B2     		uxth	r4, r4
 403              	.LVL48:
 404              		.loc 1 68 0
 405 000e 4EF6EE62 		movw	r2, #61166
 406 0012 9442     		cmp	r4, r2
 407              		.loc 1 65 0
 408 0014 9BB2     		uxth	r3, r3
 409              	.LVL49:
 410              		.loc 1 68 0
 411 0016 4BD0     		beq	.L49
 412 0018 4FF6FF78 		movw	r8, #65535
 413 001c 4445     		cmp	r4, r8
 414 001e 35D0     		beq	.L50
 415 0020 24B1     		cbz	r4, .L84
 416              	.L80:
 417              		.loc 1 247 0
 418 0022 FFF7FEFF 		bl	EE_Format
 419              	.LVL50:
 420 0026 80B2     		uxth	r0, r0
 421              	.LVL51:
 422              	.L53:
 423              		.loc 1 257 0
 424 0028 BDE8F081 		pop	{r4, r5, r6, r7, r8, pc}
 425              	.LVL52:
 426              	.L84:
 427              		.loc 1 182 0
 428 002c 002B     		cmp	r3, #0
 429 002e F8D0     		beq	.L80
 430              		.loc 1 192 0
 431 0030 4345     		cmp	r3, r8
 432 0032 67D0     		beq	.L82
 433 0034 464D     		ldr	r5, .L86+8
 434              		.loc 1 207 0
 435 0036 474E     		ldr	r6, .L86+12
 436              		.loc 1 214 0
 437 0038 474F     		ldr	r7, .L86+16
 438              	.LVL53:
 439              	.L62:
 440              		.loc 1 207 0
 441 003a 3388     		ldrh	r3, [r6]
 442 003c 35F8022F 		ldrh	r2, [r5, #2]!
 443              		.loc 1 214 0
 444 0040 4549     		ldr	r1, .L86+16
 445              		.loc 1 207 0
 446 0042 9BB2     		uxth	r3, r3
 447 0044 9342     		cmp	r3, r2
 448              		.loc 1 209 0
 449 0046 08BF     		it	eq
 450 0048 1FFA84F8 		uxtheq	r8, r4
 451              	.LVL54:
 452              		.loc 1 211 0
 453 004c 0FFA88F3 		sxth	r3, r8
 454 0050 9C42     		cmp	r4, r3
 455              		.loc 1 214 0
 456 0052 1046     		mov	r0, r2
ARM GAS  /var/folders/7z/kps_xzfj7sn5l5gkyq8s9db00000gn/T//ccH1k5kA.s 			page 9


 457 0054 04F10104 		add	r4, r4, #1
 458              	.LVL55:
 459              		.loc 1 211 0
 460 0058 09D0     		beq	.L61
 461              		.loc 1 214 0
 462 005a FFF7FEFF 		bl	EE_ReadVariable
 463              	.LVL56:
 464              		.loc 1 216 0
 465 005e 0128     		cmp	r0, #1
 466 0060 05D0     		beq	.L61
 467              		.loc 1 219 0
 468 0062 2888     		ldrh	r0, [r5]
 469              	.LVL57:
 470 0064 3988     		ldrh	r1, [r7]
 471 0066 FFF7FEFF 		bl	EE_VerifyPageFullWriteVariable
 472              	.LVL58:
 473              		.loc 1 221 0
 474 006a 0828     		cmp	r0, #8
 475 006c DCD1     		bne	.L53
 476              	.LVL59:
 477              	.L61:
 478              		.loc 1 205 0
 479 006e A02C     		cmp	r4, #160
 480 0070 E3D1     		bne	.L62
 481              		.loc 1 229 0
 482 0072 3648     		ldr	r0, .L86+4
 483 0074 0021     		movs	r1, #0
 484 0076 FFF7FEFF 		bl	FLASH_ProgramHalfWord
 485              	.LVL60:
 486 007a 80B2     		uxth	r0, r0
 487              	.LVL61:
 488              		.loc 1 231 0
 489 007c 0828     		cmp	r0, #8
 490 007e D3D1     		bne	.L53
 491              		.loc 1 236 0
 492 0080 0221     		movs	r1, #2
 493 0082 FFF7FEFF 		bl	FLASH_EraseSector
 494              	.LVL62:
 495 0086 80B2     		uxth	r0, r0
 496 0088 BDE8F081 		pop	{r4, r5, r6, r7, r8, pc}
 497              	.LVL63:
 498              	.L50:
 499              		.loc 1 71 0
 500 008c 002B     		cmp	r3, #0
 501 008e 53D0     		beq	.L85
 502              		.loc 1 81 0
 503 0090 9342     		cmp	r3, r2
 504 0092 C6D1     		bne	.L80
 505              		.loc 1 84 0
 506 0094 0820     		movs	r0, #8
 507 0096 0221     		movs	r1, #2
 508 0098 FFF7FEFF 		bl	FLASH_EraseSector
 509              	.LVL64:
 510 009c 80B2     		uxth	r0, r0
 511              	.LVL65:
 512              		.loc 1 86 0
 513 009e 0828     		cmp	r0, #8
ARM GAS  /var/folders/7z/kps_xzfj7sn5l5gkyq8s9db00000gn/T//ccH1k5kA.s 			page 10


 514 00a0 C2D1     		bne	.L53
 515              		.loc 1 91 0
 516 00a2 3046     		mov	r0, r6
 517              	.LVL66:
 518 00a4 0021     		movs	r1, #0
 519 00a6 FFF7FEFF 		bl	FLASH_ProgramHalfWord
 520              	.LVL67:
 521 00aa 80B2     		uxth	r0, r0
 522 00ac BDE8F081 		pop	{r4, r5, r6, r7, r8, pc}
 523              	.LVL68:
 524              	.L49:
 525              		.loc 1 111 0
 526 00b0 7BBB     		cbnz	r3, .L55
 527 00b2 274D     		ldr	r5, .L86+8
 528              		.loc 1 116 0
 529 00b4 294E     		ldr	r6, .L86+20
 530              		.loc 1 123 0
 531 00b6 284F     		ldr	r7, .L86+16
 532              		.loc 1 111 0
 533 00b8 1C46     		mov	r4, r3
 534              	.LVL69:
 535 00ba 4FF6FF78 		movw	r8, #65535
 536              	.LVL70:
 537              	.L58:
 538              		.loc 1 116 0
 539 00be 3388     		ldrh	r3, [r6]
 540 00c0 35F8022F 		ldrh	r2, [r5, #2]!
 541              		.loc 1 123 0
 542 00c4 2449     		ldr	r1, .L86+16
 543              		.loc 1 116 0
 544 00c6 9BB2     		uxth	r3, r3
 545 00c8 9342     		cmp	r3, r2
 546              		.loc 1 118 0
 547 00ca 08BF     		it	eq
 548 00cc 1FFA84F8 		uxtheq	r8, r4
 549              	.LVL71:
 550              		.loc 1 120 0
 551 00d0 0FFA88F3 		sxth	r3, r8
 552 00d4 9C42     		cmp	r4, r3
 553              		.loc 1 123 0
 554 00d6 1046     		mov	r0, r2
 555 00d8 04F10104 		add	r4, r4, #1
 556              	.LVL72:
 557              		.loc 1 120 0
 558 00dc 09D0     		beq	.L57
 559              		.loc 1 123 0
 560 00de FFF7FEFF 		bl	EE_ReadVariable
 561              	.LVL73:
 562              		.loc 1 125 0
 563 00e2 0128     		cmp	r0, #1
 564 00e4 05D0     		beq	.L57
 565              		.loc 1 128 0
 566 00e6 2888     		ldrh	r0, [r5]
 567              	.LVL74:
 568 00e8 3988     		ldrh	r1, [r7]
 569 00ea FFF7FEFF 		bl	EE_VerifyPageFullWriteVariable
 570              	.LVL75:
ARM GAS  /var/folders/7z/kps_xzfj7sn5l5gkyq8s9db00000gn/T//ccH1k5kA.s 			page 11


 571              		.loc 1 130 0
 572 00ee 0828     		cmp	r0, #8
 573 00f0 9AD1     		bne	.L53
 574              	.LVL76:
 575              	.L57:
 576              		.loc 1 114 0
 577 00f2 A02C     		cmp	r4, #160
 578 00f4 E3D1     		bne	.L58
 579              		.loc 1 138 0
 580 00f6 1448     		ldr	r0, .L86
 581 00f8 0021     		movs	r1, #0
 582 00fa FFF7FEFF 		bl	FLASH_ProgramHalfWord
 583              	.LVL77:
 584 00fe 80B2     		uxth	r0, r0
 585              	.LVL78:
 586              		.loc 1 140 0
 587 0100 0828     		cmp	r0, #8
 588 0102 91D1     		bne	.L53
 589              	.LVL79:
 590              	.L82:
 591              		.loc 1 195 0
 592 0104 0221     		movs	r1, #2
 593 0106 1020     		movs	r0, #16
 594 0108 FFF7FEFF 		bl	FLASH_EraseSector
 595              	.LVL80:
 596 010c 80B2     		uxth	r0, r0
 597 010e BDE8F081 		pop	{r4, r5, r6, r7, r8, pc}
 598              	.LVL81:
 599              	.L55:
 600              		.loc 1 152 0
 601 0112 4FF6FF72 		movw	r2, #65535
 602 0116 9342     		cmp	r3, r2
 603 0118 83D1     		bne	.L80
 604              		.loc 1 155 0
 605 011a 1020     		movs	r0, #16
 606 011c 0221     		movs	r1, #2
 607 011e FFF7FEFF 		bl	FLASH_EraseSector
 608              	.LVL82:
 609 0122 80B2     		uxth	r0, r0
 610              	.LVL83:
 611              		.loc 1 157 0
 612 0124 0828     		cmp	r0, #8
 613 0126 7FF47FAF 		bne	.L53
 614              		.loc 1 162 0
 615 012a 2846     		mov	r0, r5
 616              	.LVL84:
 617 012c 0021     		movs	r1, #0
 618 012e FFF7FEFF 		bl	FLASH_ProgramHalfWord
 619              	.LVL85:
 620 0132 80B2     		uxth	r0, r0
 621 0134 BDE8F081 		pop	{r4, r5, r6, r7, r8, pc}
 622              	.LVL86:
 623              	.L85:
 624              		.loc 1 74 0
 625 0138 0221     		movs	r1, #2
 626 013a 0820     		movs	r0, #8
 627 013c FFF7FEFF 		bl	FLASH_EraseSector
ARM GAS  /var/folders/7z/kps_xzfj7sn5l5gkyq8s9db00000gn/T//ccH1k5kA.s 			page 12


 628              	.LVL87:
 629 0140 80B2     		uxth	r0, r0
 630 0142 BDE8F081 		pop	{r4, r5, r6, r7, r8, pc}
 631              	.LVL88:
 632              	.L87:
 633 0146 00BF     		.align	2
 634              	.L86:
 635 0148 00400008 		.word	134234112
 636 014c 00800008 		.word	134250496
 637 0150 FEFFFFFF 		.word	VirtAddVarTab-2
 638 0154 06800008 		.word	134250502
 639 0158 00000000 		.word	.LANCHOR0
 640 015c 06400008 		.word	134234118
 641              		.cfi_endproc
 642              	.LFE111:
 643              		.size	EE_Init, .-EE_Init
 644              		.section	.text.EE_WriteVariable,"ax",%progbits
 645              		.align	2
 646              		.p2align 4,,15
 647              		.global	EE_WriteVariable
 648              		.thumb
 649              		.thumb_func
 650              		.type	EE_WriteVariable, %function
 651              	EE_WriteVariable:
 652              	.LFB113:
 653              		.loc 1 329 0
 654              		.cfi_startproc
 655              		@ args = 0, pretend = 0, frame = 0
 656              		@ frame_needed = 0, uses_anonymous_args = 0
 657              	.LVL89:
 658 0000 2DE9F047 		push	{r4, r5, r6, r7, r8, r9, r10, lr}
 659              		.cfi_def_cfa_offset 32
 660              		.cfi_offset 4, -32
 661              		.cfi_offset 5, -28
 662              		.cfi_offset 6, -24
 663              		.cfi_offset 7, -20
 664              		.cfi_offset 8, -16
 665              		.cfi_offset 9, -12
 666              		.cfi_offset 10, -8
 667              		.cfi_offset 14, -4
 668              		.loc 1 329 0
 669 0004 0546     		mov	r5, r0
 670 0006 0E46     		mov	r6, r1
 671              		.loc 1 333 0
 672 0008 FFF7FEFF 		bl	EE_VerifyPageFullWriteVariable
 673              	.LVL90:
 674              		.loc 1 336 0
 675 000c 8028     		cmp	r0, #128
 676              		.loc 1 333 0
 677 000e 0446     		mov	r4, r0
 678              	.LVL91:
 679              		.loc 1 336 0
 680 0010 02D0     		beq	.L107
 681              	.LVL92:
 682              	.L89:
 683              		.loc 1 344 0
 684 0012 2046     		mov	r0, r4
ARM GAS  /var/folders/7z/kps_xzfj7sn5l5gkyq8s9db00000gn/T//ccH1k5kA.s 			page 13


 685 0014 BDE8F087 		pop	{r4, r5, r6, r7, r8, r9, r10, pc}
 686              	.LVL93:
 687              	.L107:
 688              	.LBB30:
 689              	.LBB31:
 690              	.LBB32:
 691              	.LBB33:
 692              		.loc 1 395 0
 693 0018 2449     		ldr	r1, .L111
 694              		.loc 1 398 0
 695 001a 2548     		ldr	r0, .L111+4
 696              	.LVL94:
 697              		.loc 1 395 0
 698 001c 0B88     		ldrh	r3, [r1]
 699              		.loc 1 398 0
 700 001e 0288     		ldrh	r2, [r0]
 701              		.loc 1 395 0
 702 0020 9BB2     		uxth	r3, r3
 703              	.LVL95:
 704              		.loc 1 398 0
 705 0022 92B2     		uxth	r2, r2
 706              	.LVL96:
 707              		.loc 1 434 0
 708 0024 13B1     		cbz	r3, .L95
 709              		.loc 1 438 0
 710 0026 6AB1     		cbz	r2, .L108
 711              	.LBE33:
 712              	.LBE32:
 713              		.loc 1 552 0
 714 0028 AB24     		movs	r4, #171
 715 002a F2E7     		b	.L89
 716              	.L95:
 717              		.loc 1 545 0
 718 002c 0746     		mov	r7, r0
 719              		.loc 1 548 0
 720 002e 4FF00808 		mov	r8, #8
 721              	.L90:
 722              	.LVL97:
 723              		.loc 1 556 0
 724 0032 3846     		mov	r0, r7
 725 0034 4EF6EE61 		movw	r1, #61166
 726 0038 FFF7FEFF 		bl	FLASH_ProgramHalfWord
 727              	.LVL98:
 728              		.loc 1 558 0
 729 003c 0828     		cmp	r0, #8
 730 003e 05D0     		beq	.L109
 731              	.LVL99:
 732              	.L106:
 733              		.loc 1 605 0
 734 0040 84B2     		uxth	r4, r0
 735 0042 E6E7     		b	.L89
 736              	.LVL100:
 737              	.L108:
 738              		.loc 1 537 0
 739 0044 0F46     		mov	r7, r1
 740              		.loc 1 540 0
 741 0046 4FF01008 		mov	r8, #16
ARM GAS  /var/folders/7z/kps_xzfj7sn5l5gkyq8s9db00000gn/T//ccH1k5kA.s 			page 14


 742 004a F2E7     		b	.L90
 743              	.LVL101:
 744              	.L109:
 745              		.loc 1 564 0
 746 004c 3146     		mov	r1, r6
 747 004e 2846     		mov	r0, r5
 748              	.LVL102:
 749 0050 FFF7FEFF 		bl	EE_VerifyPageFullWriteVariable
 750              	.LVL103:
 751              		.loc 1 566 0
 752 0054 0828     		cmp	r0, #8
 753              		.loc 1 564 0
 754 0056 0446     		mov	r4, r0
 755              	.LVL104:
 756              		.loc 1 566 0
 757 0058 DBD1     		bne	.L89
 758 005a 164E     		ldr	r6, .L111+8
 759              	.LVL105:
 760              		.loc 1 577 0
 761 005c DFF858A0 		ldr	r10, .L111+12
 762 0060 06F5A079 		add	r9, r6, #320
 763 0064 01E0     		b	.L93
 764              	.LVL106:
 765              	.L92:
 766              		.loc 1 572 0
 767 0066 4E45     		cmp	r6, r9
 768 0068 12D0     		beq	.L110
 769              	.L93:
 770              		.loc 1 574 0
 771 006a 36F8023F 		ldrh	r3, [r6, #2]!
 772              		.loc 1 577 0
 773 006e 1249     		ldr	r1, .L111+12
 774              		.loc 1 574 0
 775 0070 9D42     		cmp	r5, r3
 776              		.loc 1 577 0
 777 0072 1846     		mov	r0, r3
 778              		.loc 1 574 0
 779 0074 F7D0     		beq	.L92
 780              		.loc 1 577 0
 781 0076 FFF7FEFF 		bl	EE_ReadVariable
 782              	.LVL107:
 783              		.loc 1 579 0
 784 007a 0128     		cmp	r0, #1
 785 007c F3D0     		beq	.L92
 786              		.loc 1 582 0
 787 007e 3088     		ldrh	r0, [r6]
 788              	.LVL108:
 789 0080 BAF80010 		ldrh	r1, [r10]
 790 0084 FFF7FEFF 		bl	EE_VerifyPageFullWriteVariable
 791              	.LVL109:
 792              		.loc 1 584 0
 793 0088 0828     		cmp	r0, #8
 794 008a ECD0     		beq	.L92
 795 008c 0446     		mov	r4, r0
 796 008e C0E7     		b	.L89
 797              	.LVL110:
 798              	.L110:
ARM GAS  /var/folders/7z/kps_xzfj7sn5l5gkyq8s9db00000gn/T//ccH1k5kA.s 			page 15


 799              		.loc 1 593 0
 800 0090 4046     		mov	r0, r8
 801 0092 0221     		movs	r1, #2
 802 0094 FFF7FEFF 		bl	FLASH_EraseSector
 803              	.LVL111:
 804              		.loc 1 595 0
 805 0098 0828     		cmp	r0, #8
 806 009a D1D1     		bne	.L106
 807              		.loc 1 601 0
 808 009c 3846     		mov	r0, r7
 809              	.LVL112:
 810 009e 0021     		movs	r1, #0
 811 00a0 FFF7FEFF 		bl	FLASH_ProgramHalfWord
 812              	.LVL113:
 813              		.loc 1 603 0
 814 00a4 0828     		cmp	r0, #8
 815 00a6 CBD1     		bne	.L106
 816 00a8 B3E7     		b	.L89
 817              	.L112:
 818 00aa 00BF     		.align	2
 819              	.L111:
 820 00ac 00400008 		.word	134234112
 821 00b0 00800008 		.word	134250496
 822 00b4 FEFFFFFF 		.word	VirtAddVarTab-2
 823 00b8 00000000 		.word	.LANCHOR0
 824              	.LBE31:
 825              	.LBE30:
 826              		.cfi_endproc
 827              	.LFE113:
 828              		.size	EE_WriteVariable, .-EE_WriteVariable
 829              		.global	DataVar
 830 00bc AFF30080 		.section	.bss.DataVar,"aw",%nobits
 831              		.align	1
 832              		.set	.LANCHOR0,. + 0
 833              		.type	DataVar, %object
 834              		.size	DataVar, 2
 835              	DataVar:
 836 0000 0000     		.space	2
 837              		.text
 838              	.Letext0:
 839              		.file 2 "/Users/Baram/gcc-arm-none-eabi/arm-none-eabi/include/machine/_default_types.h"
 840              		.file 3 "/Users/Baram/gcc-arm-none-eabi/arm-none-eabi/include/stdint.h"
 841              		.file 4 "lib/ChibiOS_2.6.6/ext/stdperiph_stm32f4/inc/stm32f4xx_flash.h"
 842              		.file 5 "lib/ChibiOS_2.6.6/os/ports/common/ARMCMx/CMSIS/include/core_cm4.h"
 843              		.section	.debug_info,"",%progbits
 844              	.Ldebug_info0:
 845 0000 88070000 		.4byte	0x788
 846 0004 0400     		.2byte	0x4
 847 0006 00000000 		.4byte	.Ldebug_abbrev0
 848 000a 04       		.byte	0x4
 849 000b 01       		.uleb128 0x1
 850 000c 98020000 		.4byte	.LASF55
 851 0010 01       		.byte	0x1
 852 0011 BE010000 		.4byte	.LASF56
 853 0015 67010000 		.4byte	.LASF57
 854 0019 60000000 		.4byte	.Ldebug_ranges0+0x60
 855 001d 00000000 		.4byte	0
ARM GAS  /var/folders/7z/kps_xzfj7sn5l5gkyq8s9db00000gn/T//ccH1k5kA.s 			page 16


 856 0021 00000000 		.4byte	.Ldebug_line0
 857 0025 02       		.uleb128 0x2
 858 0026 01       		.byte	0x1
 859 0027 06       		.byte	0x6
 860 0028 06040000 		.4byte	.LASF0
 861 002c 03       		.uleb128 0x3
 862 002d 16000000 		.4byte	.LASF2
 863 0031 02       		.byte	0x2
 864 0032 1D       		.byte	0x1d
 865 0033 37000000 		.4byte	0x37
 866 0037 02       		.uleb128 0x2
 867 0038 01       		.byte	0x1
 868 0039 08       		.byte	0x8
 869 003a B5000000 		.4byte	.LASF1
 870 003e 03       		.uleb128 0x3
 871 003f 20000000 		.4byte	.LASF3
 872 0043 02       		.byte	0x2
 873 0044 29       		.byte	0x29
 874 0045 49000000 		.4byte	0x49
 875 0049 02       		.uleb128 0x2
 876 004a 02       		.byte	0x2
 877 004b 05       		.byte	0x5
 878 004c 55000000 		.4byte	.LASF4
 879 0050 03       		.uleb128 0x3
 880 0051 A3010000 		.4byte	.LASF5
 881 0055 02       		.byte	0x2
 882 0056 2B       		.byte	0x2b
 883 0057 5B000000 		.4byte	0x5b
 884 005b 02       		.uleb128 0x2
 885 005c 02       		.byte	0x2
 886 005d 07       		.byte	0x7
 887 005e F5000000 		.4byte	.LASF6
 888 0062 03       		.uleb128 0x3
 889 0063 39000000 		.4byte	.LASF7
 890 0067 02       		.byte	0x2
 891 0068 3F       		.byte	0x3f
 892 0069 6D000000 		.4byte	0x6d
 893 006d 02       		.uleb128 0x2
 894 006e 04       		.byte	0x4
 895 006f 05       		.byte	0x5
 896 0070 FD030000 		.4byte	.LASF8
 897 0074 03       		.uleb128 0x3
 898 0075 B3010000 		.4byte	.LASF9
 899 0079 02       		.byte	0x2
 900 007a 41       		.byte	0x41
 901 007b 7F000000 		.4byte	0x7f
 902 007f 02       		.uleb128 0x2
 903 0080 04       		.byte	0x4
 904 0081 07       		.byte	0x7
 905 0082 E3000000 		.4byte	.LASF10
 906 0086 02       		.uleb128 0x2
 907 0087 08       		.byte	0x8
 908 0088 05       		.byte	0x5
 909 0089 67020000 		.4byte	.LASF11
 910 008d 02       		.uleb128 0x2
 911 008e 08       		.byte	0x8
 912 008f 07       		.byte	0x7
ARM GAS  /var/folders/7z/kps_xzfj7sn5l5gkyq8s9db00000gn/T//ccH1k5kA.s 			page 17


 913 0090 06020000 		.4byte	.LASF12
 914 0094 04       		.uleb128 0x4
 915 0095 04       		.byte	0x4
 916 0096 05       		.byte	0x5
 917 0097 696E7400 		.ascii	"int\000"
 918 009b 02       		.uleb128 0x2
 919 009c 04       		.byte	0x4
 920 009d 07       		.byte	0x7
 921 009e EF010000 		.4byte	.LASF13
 922 00a2 03       		.uleb128 0x3
 923 00a3 1D020000 		.4byte	.LASF14
 924 00a7 03       		.byte	0x3
 925 00a8 15       		.byte	0x15
 926 00a9 2C000000 		.4byte	0x2c
 927 00ad 03       		.uleb128 0x3
 928 00ae 2D020000 		.4byte	.LASF15
 929 00b2 03       		.byte	0x3
 930 00b3 20       		.byte	0x20
 931 00b4 3E000000 		.4byte	0x3e
 932 00b8 03       		.uleb128 0x3
 933 00b9 D3030000 		.4byte	.LASF16
 934 00bd 03       		.byte	0x3
 935 00be 21       		.byte	0x21
 936 00bf 50000000 		.4byte	0x50
 937 00c3 03       		.uleb128 0x3
 938 00c4 56020000 		.4byte	.LASF17
 939 00c8 03       		.byte	0x3
 940 00c9 2C       		.byte	0x2c
 941 00ca 62000000 		.4byte	0x62
 942 00ce 03       		.uleb128 0x3
 943 00cf F4030000 		.4byte	.LASF18
 944 00d3 03       		.byte	0x3
 945 00d4 2D       		.byte	0x2d
 946 00d5 74000000 		.4byte	0x74
 947 00d9 02       		.uleb128 0x2
 948 00da 04       		.byte	0x4
 949 00db 07       		.byte	0x7
 950 00dc 5E020000 		.4byte	.LASF19
 951 00e0 05       		.uleb128 0x5
 952 00e1 C3000000 		.4byte	0xc3
 953 00e5 06       		.uleb128 0x6
 954 00e6 01       		.byte	0x1
 955 00e7 04       		.byte	0x4
 956 00e8 35       		.byte	0x35
 957 00e9 1E010000 		.4byte	0x11e
 958 00ed 07       		.uleb128 0x7
 959 00ee 4A000000 		.4byte	.LASF20
 960 00f2 01       		.sleb128 1
 961 00f3 07       		.uleb128 0x7
 962 00f4 93010000 		.4byte	.LASF21
 963 00f8 02       		.sleb128 2
 964 00f9 07       		.uleb128 0x7
 965 00fa 46010000 		.4byte	.LASF22
 966 00fe 03       		.sleb128 3
 967 00ff 07       		.uleb128 0x7
 968 0100 A5000000 		.4byte	.LASF23
 969 0104 04       		.sleb128 4
ARM GAS  /var/folders/7z/kps_xzfj7sn5l5gkyq8s9db00000gn/T//ccH1k5kA.s 			page 18


 970 0105 07       		.uleb128 0x7
 971 0106 18010000 		.4byte	.LASF24
 972 010a 05       		.sleb128 5
 973 010b 07       		.uleb128 0x7
 974 010c 39040000 		.4byte	.LASF25
 975 0110 06       		.sleb128 6
 976 0111 07       		.uleb128 0x7
 977 0112 82020000 		.4byte	.LASF26
 978 0116 07       		.sleb128 7
 979 0117 07       		.uleb128 0x7
 980 0118 2A000000 		.4byte	.LASF27
 981 011c 08       		.sleb128 8
 982 011d 00       		.byte	0
 983 011e 03       		.uleb128 0x3
 984 011f 75020000 		.4byte	.LASF28
 985 0123 04       		.byte	0x4
 986 0124 3E       		.byte	0x3e
 987 0125 E5000000 		.4byte	0xe5
 988 0129 08       		.uleb128 0x8
 989 012a 41020000 		.4byte	.LASF29
 990 012e 01       		.byte	0x1
 991 012f 6001     		.2byte	0x160
 992 0131 1E010000 		.4byte	0x11e
 993 0135 01       		.byte	0x1
 994 0136 47010000 		.4byte	0x147
 995 013a 09       		.uleb128 0x9
 996 013b 35020000 		.4byte	.LASF31
 997 013f 01       		.byte	0x1
 998 0140 6201     		.2byte	0x162
 999 0142 1E010000 		.4byte	0x11e
 1000 0146 00       		.byte	0
 1001 0147 08       		.uleb128 0x8
 1002 0148 56010000 		.4byte	.LASF30
 1003 014c 01       		.byte	0x1
 1004 014d 8601     		.2byte	0x186
 1005 014f B8000000 		.4byte	0xb8
 1006 0153 01       		.byte	0x1
 1007 0154 7D010000 		.4byte	0x17d
 1008 0158 0A       		.uleb128 0xa
 1009 0159 8E000000 		.4byte	.LASF47
 1010 015d 01       		.byte	0x1
 1011 015e 8601     		.2byte	0x186
 1012 0160 A2000000 		.4byte	0xa2
 1013 0164 09       		.uleb128 0x9
 1014 0165 DC030000 		.4byte	.LASF32
 1015 0169 01       		.byte	0x1
 1016 016a 8801     		.2byte	0x188
 1017 016c B8000000 		.4byte	0xb8
 1018 0170 09       		.uleb128 0x9
 1019 0171 E8030000 		.4byte	.LASF33
 1020 0175 01       		.byte	0x1
 1021 0176 8801     		.2byte	0x188
 1022 0178 B8000000 		.4byte	0xb8
 1023 017c 00       		.byte	0
 1024 017d 0B       		.uleb128 0xb
 1025 017e D0010000 		.4byte	.LASF58
 1026 0182 01       		.byte	0x1
ARM GAS  /var/folders/7z/kps_xzfj7sn5l5gkyq8s9db00000gn/T//ccH1k5kA.s 			page 19


 1027 0183 CE01     		.2byte	0x1ce
 1028 0185 B8000000 		.4byte	0xb8
 1029 0189 00000000 		.4byte	.LFB116
 1030 018d 7C000000 		.4byte	.LFE116-.LFB116
 1031 0191 01       		.uleb128 0x1
 1032 0192 9C       		.byte	0x9c
 1033 0193 55020000 		.4byte	0x255
 1034 0197 0C       		.uleb128 0xc
 1035 0198 4D040000 		.4byte	.LASF34
 1036 019c 01       		.byte	0x1
 1037 019d CE01     		.2byte	0x1ce
 1038 019f B8000000 		.4byte	0xb8
 1039 01a3 00000000 		.4byte	.LLST0
 1040 01a7 0C       		.uleb128 0xc
 1041 01a8 AE010000 		.4byte	.LASF35
 1042 01ac 01       		.byte	0x1
 1043 01ad CE01     		.2byte	0x1ce
 1044 01af B8000000 		.4byte	0xb8
 1045 01b3 6C000000 		.4byte	.LLST1
 1046 01b7 0D       		.uleb128 0xd
 1047 01b8 35020000 		.4byte	.LASF31
 1048 01bc 01       		.byte	0x1
 1049 01bd D001     		.2byte	0x1d0
 1050 01bf 1E010000 		.4byte	0x11e
 1051 01c3 A6000000 		.4byte	.LLST2
 1052 01c7 0D       		.uleb128 0xd
 1053 01c8 FC010000 		.4byte	.LASF36
 1054 01cc 01       		.byte	0x1
 1055 01cd D101     		.2byte	0x1d1
 1056 01cf B8000000 		.4byte	0xb8
 1057 01d3 DC000000 		.4byte	.LLST3
 1058 01d7 0D       		.uleb128 0xd
 1059 01d8 CB030000 		.4byte	.LASF37
 1060 01dc 01       		.byte	0x1
 1061 01dd D201     		.2byte	0x1d2
 1062 01df CE000000 		.4byte	0xce
 1063 01e3 08010000 		.4byte	.LLST4
 1064 01e7 0D       		.uleb128 0xd
 1065 01e8 BC030000 		.4byte	.LASF38
 1066 01ec 01       		.byte	0x1
 1067 01ed D201     		.2byte	0x1d2
 1068 01ef CE000000 		.4byte	0xce
 1069 01f3 61010000 		.4byte	.LLST5
 1070 01f7 0E       		.uleb128 0xe
 1071 01f8 47010000 		.4byte	0x147
 1072 01fc 02000000 		.4byte	.LBB4
 1073 0200 00000000 		.4byte	.Ldebug_ranges0+0
 1074 0204 01       		.byte	0x1
 1075 0205 D501     		.2byte	0x1d5
 1076 0207 2A020000 		.4byte	0x22a
 1077 020b 0F       		.uleb128 0xf
 1078 020c 58010000 		.4byte	0x158
 1079 0210 01       		.byte	0x1
 1080 0211 10       		.uleb128 0x10
 1081 0212 00000000 		.4byte	.Ldebug_ranges0+0
 1082 0216 11       		.uleb128 0x11
 1083 0217 64010000 		.4byte	0x164
ARM GAS  /var/folders/7z/kps_xzfj7sn5l5gkyq8s9db00000gn/T//ccH1k5kA.s 			page 20


 1084 021b AF010000 		.4byte	.LLST6
 1085 021f 11       		.uleb128 0x11
 1086 0220 70010000 		.4byte	0x170
 1087 0224 F3010000 		.4byte	.LLST7
 1088 0228 00       		.byte	0
 1089 0229 00       		.byte	0
 1090 022a 12       		.uleb128 0x12
 1091 022b 44000000 		.4byte	.LVL9
 1092 022f 59070000 		.4byte	0x759
 1093 0233 3E020000 		.4byte	0x23e
 1094 0237 13       		.uleb128 0x13
 1095 0238 01       		.uleb128 0x1
 1096 0239 50       		.byte	0x50
 1097 023a 02       		.uleb128 0x2
 1098 023b 74       		.byte	0x74
 1099 023c 00       		.sleb128 0
 1100 023d 00       		.byte	0
 1101 023e 14       		.uleb128 0x14
 1102 023f 6C000000 		.4byte	.LVL20
 1103 0243 59070000 		.4byte	0x759
 1104 0247 13       		.uleb128 0x13
 1105 0248 01       		.uleb128 0x1
 1106 0249 51       		.byte	0x51
 1107 024a 02       		.uleb128 0x2
 1108 024b 75       		.byte	0x75
 1109 024c 00       		.sleb128 0
 1110 024d 13       		.uleb128 0x13
 1111 024e 01       		.uleb128 0x1
 1112 024f 50       		.byte	0x50
 1113 0250 02       		.uleb128 0x2
 1114 0251 74       		.byte	0x74
 1115 0252 02       		.sleb128 2
 1116 0253 00       		.byte	0
 1117 0254 00       		.byte	0
 1118 0255 15       		.uleb128 0x15
 1119 0256 29010000 		.4byte	0x129
 1120 025a 00000000 		.4byte	.LFB114
 1121 025e 2C000000 		.4byte	.LFE114-.LFB114
 1122 0262 01       		.uleb128 0x1
 1123 0263 9C       		.byte	0x9c
 1124 0264 C5020000 		.4byte	0x2c5
 1125 0268 11       		.uleb128 0x11
 1126 0269 3A010000 		.4byte	0x13a
 1127 026d 28020000 		.4byte	.LLST8
 1128 0271 16       		.uleb128 0x16
 1129 0272 20000000 		.4byte	.Ldebug_ranges0+0x20
 1130 0276 94020000 		.4byte	0x294
 1131 027a 17       		.uleb128 0x17
 1132 027b 3A010000 		.4byte	0x13a
 1133 027f 18       		.uleb128 0x18
 1134 0280 28000000 		.4byte	.LVL26
 1135 0284 74070000 		.4byte	0x774
 1136 0288 13       		.uleb128 0x13
 1137 0289 01       		.uleb128 0x1
 1138 028a 51       		.byte	0x51
 1139 028b 01       		.uleb128 0x1
 1140 028c 32       		.byte	0x32
ARM GAS  /var/folders/7z/kps_xzfj7sn5l5gkyq8s9db00000gn/T//ccH1k5kA.s 			page 21


 1141 028d 13       		.uleb128 0x13
 1142 028e 01       		.uleb128 0x1
 1143 028f 50       		.byte	0x50
 1144 0290 01       		.uleb128 0x1
 1145 0291 40       		.byte	0x40
 1146 0292 00       		.byte	0
 1147 0293 00       		.byte	0
 1148 0294 12       		.uleb128 0x12
 1149 0295 0A000000 		.4byte	.LVL22
 1150 0299 74070000 		.4byte	0x774
 1151 029d AC020000 		.4byte	0x2ac
 1152 02a1 13       		.uleb128 0x13
 1153 02a2 01       		.uleb128 0x1
 1154 02a3 51       		.byte	0x51
 1155 02a4 01       		.uleb128 0x1
 1156 02a5 32       		.byte	0x32
 1157 02a6 13       		.uleb128 0x13
 1158 02a7 01       		.uleb128 0x1
 1159 02a8 50       		.byte	0x50
 1160 02a9 01       		.uleb128 0x1
 1161 02aa 38       		.byte	0x38
 1162 02ab 00       		.byte	0
 1163 02ac 14       		.uleb128 0x14
 1164 02ad 18000000 		.4byte	.LVL24
 1165 02b1 59070000 		.4byte	0x759
 1166 02b5 13       		.uleb128 0x13
 1167 02b6 01       		.uleb128 0x1
 1168 02b7 51       		.byte	0x51
 1169 02b8 01       		.uleb128 0x1
 1170 02b9 30       		.byte	0x30
 1171 02ba 13       		.uleb128 0x13
 1172 02bb 01       		.uleb128 0x1
 1173 02bc 50       		.byte	0x50
 1174 02bd 05       		.uleb128 0x5
 1175 02be 0C       		.byte	0xc
 1176 02bf 00400008 		.4byte	0x8004000
 1177 02c3 00       		.byte	0
 1178 02c4 00       		.byte	0
 1179 02c5 19       		.uleb128 0x19
 1180 02c6 12040000 		.4byte	.LASF42
 1181 02ca 01       		.byte	0x1
 1182 02cb 0D01     		.2byte	0x10d
 1183 02cd B8000000 		.4byte	0xb8
 1184 02d1 00000000 		.4byte	.LFB112
 1185 02d5 70000000 		.4byte	.LFE112-.LFB112
 1186 02d9 01       		.uleb128 0x1
 1187 02da 9C       		.byte	0x9c
 1188 02db 7D030000 		.4byte	0x37d
 1189 02df 0C       		.uleb128 0xc
 1190 02e0 4D040000 		.4byte	.LASF34
 1191 02e4 01       		.byte	0x1
 1192 02e5 0D01     		.2byte	0x10d
 1193 02e7 B8000000 		.4byte	0xb8
 1194 02eb 52020000 		.4byte	.LLST9
 1195 02ef 1A       		.uleb128 0x1a
 1196 02f0 AE010000 		.4byte	.LASF35
 1197 02f4 01       		.byte	0x1
ARM GAS  /var/folders/7z/kps_xzfj7sn5l5gkyq8s9db00000gn/T//ccH1k5kA.s 			page 22


 1198 02f5 0D01     		.2byte	0x10d
 1199 02f7 7D030000 		.4byte	0x37d
 1200 02fb 01       		.uleb128 0x1
 1201 02fc 51       		.byte	0x51
 1202 02fd 0D       		.uleb128 0xd
 1203 02fe FC010000 		.4byte	.LASF36
 1204 0302 01       		.byte	0x1
 1205 0303 0F01     		.2byte	0x10f
 1206 0305 B8000000 		.4byte	0xb8
 1207 0309 A5020000 		.4byte	.LLST10
 1208 030d 0D       		.uleb128 0xd
 1209 030e 98000000 		.4byte	.LASF39
 1210 0312 01       		.byte	0x1
 1211 0313 1001     		.2byte	0x110
 1212 0315 B8000000 		.4byte	0xb8
 1213 0319 C5020000 		.4byte	.LLST11
 1214 031d 0D       		.uleb128 0xd
 1215 031e 4B020000 		.4byte	.LASF40
 1216 0322 01       		.byte	0x1
 1217 0323 1001     		.2byte	0x110
 1218 0325 B8000000 		.4byte	0xb8
 1219 0329 FF020000 		.4byte	.LLST12
 1220 032d 0D       		.uleb128 0xd
 1221 032e CB030000 		.4byte	.LASF37
 1222 0332 01       		.byte	0x1
 1223 0333 1101     		.2byte	0x111
 1224 0335 CE000000 		.4byte	0xce
 1225 0339 1F030000 		.4byte	.LLST13
 1226 033d 0D       		.uleb128 0xd
 1227 033e C3000000 		.4byte	.LASF41
 1228 0342 01       		.byte	0x1
 1229 0343 1101     		.2byte	0x111
 1230 0345 CE000000 		.4byte	0xce
 1231 0349 5D030000 		.4byte	.LLST14
 1232 034d 1B       		.uleb128 0x1b
 1233 034e 47010000 		.4byte	0x147
 1234 0352 00000000 		.4byte	.LBB18
 1235 0356 38000000 		.4byte	.Ldebug_ranges0+0x38
 1236 035a 01       		.byte	0x1
 1237 035b 1401     		.2byte	0x114
 1238 035d 0F       		.uleb128 0xf
 1239 035e 58010000 		.4byte	0x158
 1240 0362 00       		.byte	0
 1241 0363 10       		.uleb128 0x10
 1242 0364 38000000 		.4byte	.Ldebug_ranges0+0x38
 1243 0368 11       		.uleb128 0x11
 1244 0369 64010000 		.4byte	0x164
 1245 036d 85030000 		.4byte	.LLST15
 1246 0371 11       		.uleb128 0x11
 1247 0372 70010000 		.4byte	0x170
 1248 0376 AF030000 		.4byte	.LLST16
 1249 037a 00       		.byte	0
 1250 037b 00       		.byte	0
 1251 037c 00       		.byte	0
 1252 037d 1C       		.uleb128 0x1c
 1253 037e 04       		.byte	0x4
 1254 037f B8000000 		.4byte	0xb8
ARM GAS  /var/folders/7z/kps_xzfj7sn5l5gkyq8s9db00000gn/T//ccH1k5kA.s 			page 23


 1255 0383 1D       		.uleb128 0x1d
 1256 0384 86000000 		.4byte	.LASF43
 1257 0388 01       		.byte	0x1
 1258 0389 36       		.byte	0x36
 1259 038a B8000000 		.4byte	0xb8
 1260 038e 00000000 		.4byte	.LFB111
 1261 0392 60010000 		.4byte	.LFE111-.LFB111
 1262 0396 01       		.uleb128 0x1
 1263 0397 9C       		.byte	0x9c
 1264 0398 20050000 		.4byte	0x520
 1265 039c 1E       		.uleb128 0x1e
 1266 039d DC030000 		.4byte	.LASF32
 1267 03a1 01       		.byte	0x1
 1268 03a2 38       		.byte	0x38
 1269 03a3 B8000000 		.4byte	0xb8
 1270 03a7 D9030000 		.4byte	.LLST17
 1271 03ab 1E       		.uleb128 0x1e
 1272 03ac E8030000 		.4byte	.LASF33
 1273 03b0 01       		.byte	0x1
 1274 03b1 38       		.byte	0x38
 1275 03b2 B8000000 		.4byte	0xb8
 1276 03b6 19040000 		.4byte	.LLST18
 1277 03ba 1E       		.uleb128 0x1e
 1278 03bb 71000000 		.4byte	.LASF44
 1279 03bf 01       		.byte	0x1
 1280 03c0 39       		.byte	0x39
 1281 03c1 B8000000 		.4byte	0xb8
 1282 03c5 6F040000 		.4byte	.LLST19
 1283 03c9 1E       		.uleb128 0x1e
 1284 03ca 22040000 		.4byte	.LASF45
 1285 03ce 01       		.byte	0x1
 1286 03cf 3A       		.byte	0x3a
 1287 03d0 B8000000 		.4byte	0xb8
 1288 03d4 BD040000 		.4byte	.LLST20
 1289 03d8 1E       		.uleb128 0x1e
 1290 03d9 4B020000 		.4byte	.LASF40
 1291 03dd 01       		.byte	0x1
 1292 03de 3A       		.byte	0x3a
 1293 03df B8000000 		.4byte	0xb8
 1294 03e3 0B050000 		.4byte	.LLST21
 1295 03e7 1F       		.uleb128 0x1f
 1296 03e8 7800     		.ascii	"x\000"
 1297 03ea 01       		.byte	0x1
 1298 03eb 3B       		.byte	0x3b
 1299 03ec AD000000 		.4byte	0xad
 1300 03f0 59050000 		.4byte	.LLST22
 1301 03f4 1E       		.uleb128 0x1e
 1302 03f5 35020000 		.4byte	.LASF31
 1303 03f9 01       		.byte	0x1
 1304 03fa 3C       		.byte	0x3c
 1305 03fb B8000000 		.4byte	0xb8
 1306 03ff AB050000 		.4byte	.LLST23
 1307 0403 20       		.uleb128 0x20
 1308 0404 26000000 		.4byte	.LVL50
 1309 0408 29010000 		.4byte	0x129
 1310 040c 12       		.uleb128 0x12
 1311 040d 5E000000 		.4byte	.LVL56
ARM GAS  /var/folders/7z/kps_xzfj7sn5l5gkyq8s9db00000gn/T//ccH1k5kA.s 			page 24


 1312 0411 C5020000 		.4byte	0x2c5
 1313 0415 20040000 		.4byte	0x420
 1314 0419 13       		.uleb128 0x13
 1315 041a 01       		.uleb128 0x1
 1316 041b 51       		.byte	0x51
 1317 041c 02       		.uleb128 0x2
 1318 041d 77       		.byte	0x77
 1319 041e 00       		.sleb128 0
 1320 041f 00       		.byte	0
 1321 0420 20       		.uleb128 0x20
 1322 0421 6A000000 		.4byte	.LVL58
 1323 0425 7D010000 		.4byte	0x17d
 1324 0429 12       		.uleb128 0x12
 1325 042a 7A000000 		.4byte	.LVL60
 1326 042e 59070000 		.4byte	0x759
 1327 0432 45040000 		.4byte	0x445
 1328 0436 13       		.uleb128 0x13
 1329 0437 01       		.uleb128 0x1
 1330 0438 51       		.byte	0x51
 1331 0439 01       		.uleb128 0x1
 1332 043a 30       		.byte	0x30
 1333 043b 13       		.uleb128 0x13
 1334 043c 01       		.uleb128 0x1
 1335 043d 50       		.byte	0x50
 1336 043e 05       		.uleb128 0x5
 1337 043f 0C       		.byte	0xc
 1338 0440 00800008 		.4byte	0x8008000
 1339 0444 00       		.byte	0
 1340 0445 12       		.uleb128 0x12
 1341 0446 86000000 		.4byte	.LVL62
 1342 044a 74070000 		.4byte	0x774
 1343 044e 58040000 		.4byte	0x458
 1344 0452 13       		.uleb128 0x13
 1345 0453 01       		.uleb128 0x1
 1346 0454 51       		.byte	0x51
 1347 0455 01       		.uleb128 0x1
 1348 0456 32       		.byte	0x32
 1349 0457 00       		.byte	0
 1350 0458 12       		.uleb128 0x12
 1351 0459 9C000000 		.4byte	.LVL64
 1352 045d 74070000 		.4byte	0x774
 1353 0461 70040000 		.4byte	0x470
 1354 0465 13       		.uleb128 0x13
 1355 0466 01       		.uleb128 0x1
 1356 0467 51       		.byte	0x51
 1357 0468 01       		.uleb128 0x1
 1358 0469 32       		.byte	0x32
 1359 046a 13       		.uleb128 0x13
 1360 046b 01       		.uleb128 0x1
 1361 046c 50       		.byte	0x50
 1362 046d 01       		.uleb128 0x1
 1363 046e 38       		.byte	0x38
 1364 046f 00       		.byte	0
 1365 0470 12       		.uleb128 0x12
 1366 0471 AA000000 		.4byte	.LVL67
 1367 0475 59070000 		.4byte	0x759
 1368 0479 89040000 		.4byte	0x489
ARM GAS  /var/folders/7z/kps_xzfj7sn5l5gkyq8s9db00000gn/T//ccH1k5kA.s 			page 25


 1369 047d 13       		.uleb128 0x13
 1370 047e 01       		.uleb128 0x1
 1371 047f 51       		.byte	0x51
 1372 0480 01       		.uleb128 0x1
 1373 0481 30       		.byte	0x30
 1374 0482 13       		.uleb128 0x13
 1375 0483 01       		.uleb128 0x1
 1376 0484 50       		.byte	0x50
 1377 0485 02       		.uleb128 0x2
 1378 0486 76       		.byte	0x76
 1379 0487 00       		.sleb128 0
 1380 0488 00       		.byte	0
 1381 0489 12       		.uleb128 0x12
 1382 048a E2000000 		.4byte	.LVL73
 1383 048e C5020000 		.4byte	0x2c5
 1384 0492 9D040000 		.4byte	0x49d
 1385 0496 13       		.uleb128 0x13
 1386 0497 01       		.uleb128 0x1
 1387 0498 51       		.byte	0x51
 1388 0499 02       		.uleb128 0x2
 1389 049a 77       		.byte	0x77
 1390 049b 00       		.sleb128 0
 1391 049c 00       		.byte	0
 1392 049d 20       		.uleb128 0x20
 1393 049e EE000000 		.4byte	.LVL75
 1394 04a2 7D010000 		.4byte	0x17d
 1395 04a6 12       		.uleb128 0x12
 1396 04a7 FE000000 		.4byte	.LVL77
 1397 04ab 59070000 		.4byte	0x759
 1398 04af C2040000 		.4byte	0x4c2
 1399 04b3 13       		.uleb128 0x13
 1400 04b4 01       		.uleb128 0x1
 1401 04b5 51       		.byte	0x51
 1402 04b6 01       		.uleb128 0x1
 1403 04b7 30       		.byte	0x30
 1404 04b8 13       		.uleb128 0x13
 1405 04b9 01       		.uleb128 0x1
 1406 04ba 50       		.byte	0x50
 1407 04bb 05       		.uleb128 0x5
 1408 04bc 0C       		.byte	0xc
 1409 04bd 00400008 		.4byte	0x8004000
 1410 04c1 00       		.byte	0
 1411 04c2 12       		.uleb128 0x12
 1412 04c3 0C010000 		.4byte	.LVL80
 1413 04c7 74070000 		.4byte	0x774
 1414 04cb DA040000 		.4byte	0x4da
 1415 04cf 13       		.uleb128 0x13
 1416 04d0 01       		.uleb128 0x1
 1417 04d1 51       		.byte	0x51
 1418 04d2 01       		.uleb128 0x1
 1419 04d3 32       		.byte	0x32
 1420 04d4 13       		.uleb128 0x13
 1421 04d5 01       		.uleb128 0x1
 1422 04d6 50       		.byte	0x50
 1423 04d7 01       		.uleb128 0x1
 1424 04d8 40       		.byte	0x40
 1425 04d9 00       		.byte	0
ARM GAS  /var/folders/7z/kps_xzfj7sn5l5gkyq8s9db00000gn/T//ccH1k5kA.s 			page 26


 1426 04da 12       		.uleb128 0x12
 1427 04db 22010000 		.4byte	.LVL82
 1428 04df 74070000 		.4byte	0x774
 1429 04e3 F2040000 		.4byte	0x4f2
 1430 04e7 13       		.uleb128 0x13
 1431 04e8 01       		.uleb128 0x1
 1432 04e9 51       		.byte	0x51
 1433 04ea 01       		.uleb128 0x1
 1434 04eb 32       		.byte	0x32
 1435 04ec 13       		.uleb128 0x13
 1436 04ed 01       		.uleb128 0x1
 1437 04ee 50       		.byte	0x50
 1438 04ef 01       		.uleb128 0x1
 1439 04f0 40       		.byte	0x40
 1440 04f1 00       		.byte	0
 1441 04f2 12       		.uleb128 0x12
 1442 04f3 32010000 		.4byte	.LVL85
 1443 04f7 59070000 		.4byte	0x759
 1444 04fb 0B050000 		.4byte	0x50b
 1445 04ff 13       		.uleb128 0x13
 1446 0500 01       		.uleb128 0x1
 1447 0501 51       		.byte	0x51
 1448 0502 01       		.uleb128 0x1
 1449 0503 30       		.byte	0x30
 1450 0504 13       		.uleb128 0x13
 1451 0505 01       		.uleb128 0x1
 1452 0506 50       		.byte	0x50
 1453 0507 02       		.uleb128 0x2
 1454 0508 75       		.byte	0x75
 1455 0509 00       		.sleb128 0
 1456 050a 00       		.byte	0
 1457 050b 14       		.uleb128 0x14
 1458 050c 40010000 		.4byte	.LVL87
 1459 0510 74070000 		.4byte	0x774
 1460 0514 13       		.uleb128 0x13
 1461 0515 01       		.uleb128 0x1
 1462 0516 51       		.byte	0x51
 1463 0517 01       		.uleb128 0x1
 1464 0518 32       		.byte	0x32
 1465 0519 13       		.uleb128 0x13
 1466 051a 01       		.uleb128 0x1
 1467 051b 50       		.byte	0x50
 1468 051c 01       		.uleb128 0x1
 1469 051d 38       		.byte	0x38
 1470 051e 00       		.byte	0
 1471 051f 00       		.byte	0
 1472 0520 08       		.uleb128 0x8
 1473 0521 08010000 		.4byte	.LASF46
 1474 0525 01       		.byte	0x1
 1475 0526 0B02     		.2byte	0x20b
 1476 0528 B8000000 		.4byte	0xb8
 1477 052c 01       		.byte	0x1
 1478 052d 9E050000 		.4byte	0x59e
 1479 0531 0A       		.uleb128 0xa
 1480 0532 4D040000 		.4byte	.LASF34
 1481 0536 01       		.byte	0x1
 1482 0537 0B02     		.2byte	0x20b
ARM GAS  /var/folders/7z/kps_xzfj7sn5l5gkyq8s9db00000gn/T//ccH1k5kA.s 			page 27


 1483 0539 B8000000 		.4byte	0xb8
 1484 053d 0A       		.uleb128 0xa
 1485 053e AE010000 		.4byte	.LASF35
 1486 0542 01       		.byte	0x1
 1487 0543 0B02     		.2byte	0x20b
 1488 0545 B8000000 		.4byte	0xb8
 1489 0549 09       		.uleb128 0x9
 1490 054a 35020000 		.4byte	.LASF31
 1491 054e 01       		.byte	0x1
 1492 054f 0D02     		.2byte	0x20d
 1493 0551 1E010000 		.4byte	0x11e
 1494 0555 09       		.uleb128 0x9
 1495 0556 D4000000 		.4byte	.LASF48
 1496 055a 01       		.byte	0x1
 1497 055b 0E02     		.2byte	0x20e
 1498 055d CE000000 		.4byte	0xce
 1499 0561 09       		.uleb128 0x9
 1500 0562 2F040000 		.4byte	.LASF49
 1501 0566 01       		.byte	0x1
 1502 0567 0F02     		.2byte	0x20f
 1503 0569 B8000000 		.4byte	0xb8
 1504 056d 09       		.uleb128 0x9
 1505 056e FC010000 		.4byte	.LASF36
 1506 0572 01       		.byte	0x1
 1507 0573 1002     		.2byte	0x210
 1508 0575 B8000000 		.4byte	0xb8
 1509 0579 09       		.uleb128 0x9
 1510 057a 71000000 		.4byte	.LASF44
 1511 057e 01       		.byte	0x1
 1512 057f 1002     		.2byte	0x210
 1513 0581 B8000000 		.4byte	0xb8
 1514 0585 09       		.uleb128 0x9
 1515 0586 22040000 		.4byte	.LASF45
 1516 058a 01       		.byte	0x1
 1517 058b 1102     		.2byte	0x211
 1518 058d B8000000 		.4byte	0xb8
 1519 0591 09       		.uleb128 0x9
 1520 0592 4B020000 		.4byte	.LASF40
 1521 0596 01       		.byte	0x1
 1522 0597 1102     		.2byte	0x211
 1523 0599 B8000000 		.4byte	0xb8
 1524 059d 00       		.byte	0
 1525 059e 19       		.uleb128 0x19
 1526 059f 28010000 		.4byte	.LASF50
 1527 05a3 01       		.byte	0x1
 1528 05a4 4801     		.2byte	0x148
 1529 05a6 B8000000 		.4byte	0xb8
 1530 05aa 00000000 		.4byte	.LFB113
 1531 05ae BC000000 		.4byte	.LFE113-.LFB113
 1532 05b2 01       		.uleb128 0x1
 1533 05b3 9C       		.byte	0x9c
 1534 05b4 21070000 		.4byte	0x721
 1535 05b8 0C       		.uleb128 0xc
 1536 05b9 4D040000 		.4byte	.LASF34
 1537 05bd 01       		.byte	0x1
 1538 05be 4801     		.2byte	0x148
 1539 05c0 B8000000 		.4byte	0xb8
ARM GAS  /var/folders/7z/kps_xzfj7sn5l5gkyq8s9db00000gn/T//ccH1k5kA.s 			page 28


 1540 05c4 DF050000 		.4byte	.LLST24
 1541 05c8 0C       		.uleb128 0xc
 1542 05c9 AE010000 		.4byte	.LASF35
 1543 05cd 01       		.byte	0x1
 1544 05ce 4801     		.2byte	0x148
 1545 05d0 B8000000 		.4byte	0xb8
 1546 05d4 00060000 		.4byte	.LLST25
 1547 05d8 0D       		.uleb128 0xd
 1548 05d9 43000000 		.4byte	.LASF51
 1549 05dd 01       		.byte	0x1
 1550 05de 4A01     		.2byte	0x14a
 1551 05e0 B8000000 		.4byte	0xb8
 1552 05e4 21060000 		.4byte	.LLST26
 1553 05e8 21       		.uleb128 0x21
 1554 05e9 20050000 		.4byte	0x520
 1555 05ed 18000000 		.4byte	.LBB30
 1556 05f1 A4000000 		.4byte	.LBE30-.LBB30
 1557 05f5 01       		.byte	0x1
 1558 05f6 5301     		.2byte	0x153
 1559 05f8 0A070000 		.4byte	0x70a
 1560 05fc 22       		.uleb128 0x22
 1561 05fd 3D050000 		.4byte	0x53d
 1562 0601 56060000 		.4byte	.LLST27
 1563 0605 23       		.uleb128 0x23
 1564 0606 31050000 		.4byte	0x531
 1565 060a 01       		.uleb128 0x1
 1566 060b 55       		.byte	0x55
 1567 060c 24       		.uleb128 0x24
 1568 060d 18000000 		.4byte	.LBB31
 1569 0611 A4000000 		.4byte	.LBE31-.LBB31
 1570 0615 11       		.uleb128 0x11
 1571 0616 49050000 		.4byte	0x549
 1572 061a 74060000 		.4byte	.LLST28
 1573 061e 11       		.uleb128 0x11
 1574 061f 55050000 		.4byte	0x555
 1575 0623 C0060000 		.4byte	.LLST29
 1576 0627 11       		.uleb128 0x11
 1577 0628 61050000 		.4byte	0x561
 1578 062c FE060000 		.4byte	.LLST30
 1579 0630 25       		.uleb128 0x25
 1580 0631 6D050000 		.4byte	0x56d
 1581 0635 00       		.byte	0
 1582 0636 11       		.uleb128 0x11
 1583 0637 79050000 		.4byte	0x579
 1584 063b 34070000 		.4byte	.LLST31
 1585 063f 11       		.uleb128 0x11
 1586 0640 85050000 		.4byte	0x585
 1587 0644 54070000 		.4byte	.LLST32
 1588 0648 11       		.uleb128 0x11
 1589 0649 91050000 		.4byte	0x591
 1590 064d 8A070000 		.4byte	.LLST33
 1591 0651 21       		.uleb128 0x21
 1592 0652 47010000 		.4byte	0x147
 1593 0656 18000000 		.4byte	.LBB32
 1594 065a 10000000 		.4byte	.LBE32-.LBB32
 1595 065e 01       		.byte	0x1
 1596 065f 1402     		.2byte	0x214
ARM GAS  /var/folders/7z/kps_xzfj7sn5l5gkyq8s9db00000gn/T//ccH1k5kA.s 			page 29


 1597 0661 88060000 		.4byte	0x688
 1598 0665 0F       		.uleb128 0xf
 1599 0666 58010000 		.4byte	0x158
 1600 066a 00       		.byte	0
 1601 066b 24       		.uleb128 0x24
 1602 066c 18000000 		.4byte	.LBB33
 1603 0670 10000000 		.4byte	.LBE33-.LBB33
 1604 0674 11       		.uleb128 0x11
 1605 0675 64010000 		.4byte	0x164
 1606 0679 B5070000 		.4byte	.LLST34
 1607 067d 11       		.uleb128 0x11
 1608 067e 70010000 		.4byte	0x170
 1609 0682 DF070000 		.4byte	.LLST35
 1610 0686 00       		.byte	0
 1611 0687 00       		.byte	0
 1612 0688 12       		.uleb128 0x12
 1613 0689 3C000000 		.4byte	.LVL98
 1614 068d 59070000 		.4byte	0x759
 1615 0691 A3060000 		.4byte	0x6a3
 1616 0695 13       		.uleb128 0x13
 1617 0696 01       		.uleb128 0x1
 1618 0697 51       		.byte	0x51
 1619 0698 03       		.uleb128 0x3
 1620 0699 0B       		.byte	0xb
 1621 069a EEEE     		.2byte	0xeeee
 1622 069c 13       		.uleb128 0x13
 1623 069d 01       		.uleb128 0x1
 1624 069e 50       		.byte	0x50
 1625 069f 02       		.uleb128 0x2
 1626 06a0 77       		.byte	0x77
 1627 06a1 00       		.sleb128 0
 1628 06a2 00       		.byte	0
 1629 06a3 12       		.uleb128 0x12
 1630 06a4 54000000 		.4byte	.LVL103
 1631 06a8 7D010000 		.4byte	0x17d
 1632 06ac BD060000 		.4byte	0x6bd
 1633 06b0 13       		.uleb128 0x13
 1634 06b1 01       		.uleb128 0x1
 1635 06b2 51       		.byte	0x51
 1636 06b3 02       		.uleb128 0x2
 1637 06b4 76       		.byte	0x76
 1638 06b5 00       		.sleb128 0
 1639 06b6 13       		.uleb128 0x13
 1640 06b7 01       		.uleb128 0x1
 1641 06b8 50       		.byte	0x50
 1642 06b9 02       		.uleb128 0x2
 1643 06ba 75       		.byte	0x75
 1644 06bb 00       		.sleb128 0
 1645 06bc 00       		.byte	0
 1646 06bd 12       		.uleb128 0x12
 1647 06be 7A000000 		.4byte	.LVL107
 1648 06c2 C5020000 		.4byte	0x2c5
 1649 06c6 D1060000 		.4byte	0x6d1
 1650 06ca 13       		.uleb128 0x13
 1651 06cb 01       		.uleb128 0x1
 1652 06cc 51       		.byte	0x51
 1653 06cd 02       		.uleb128 0x2
ARM GAS  /var/folders/7z/kps_xzfj7sn5l5gkyq8s9db00000gn/T//ccH1k5kA.s 			page 30


 1654 06ce 7A       		.byte	0x7a
 1655 06cf 00       		.sleb128 0
 1656 06d0 00       		.byte	0
 1657 06d1 20       		.uleb128 0x20
 1658 06d2 88000000 		.4byte	.LVL109
 1659 06d6 7D010000 		.4byte	0x17d
 1660 06da 12       		.uleb128 0x12
 1661 06db 98000000 		.4byte	.LVL111
 1662 06df 74070000 		.4byte	0x774
 1663 06e3 F3060000 		.4byte	0x6f3
 1664 06e7 13       		.uleb128 0x13
 1665 06e8 01       		.uleb128 0x1
 1666 06e9 51       		.byte	0x51
 1667 06ea 01       		.uleb128 0x1
 1668 06eb 32       		.byte	0x32
 1669 06ec 13       		.uleb128 0x13
 1670 06ed 01       		.uleb128 0x1
 1671 06ee 50       		.byte	0x50
 1672 06ef 02       		.uleb128 0x2
 1673 06f0 78       		.byte	0x78
 1674 06f1 00       		.sleb128 0
 1675 06f2 00       		.byte	0
 1676 06f3 14       		.uleb128 0x14
 1677 06f4 A4000000 		.4byte	.LVL113
 1678 06f8 59070000 		.4byte	0x759
 1679 06fc 13       		.uleb128 0x13
 1680 06fd 01       		.uleb128 0x1
 1681 06fe 51       		.byte	0x51
 1682 06ff 01       		.uleb128 0x1
 1683 0700 30       		.byte	0x30
 1684 0701 13       		.uleb128 0x13
 1685 0702 01       		.uleb128 0x1
 1686 0703 50       		.byte	0x50
 1687 0704 02       		.uleb128 0x2
 1688 0705 77       		.byte	0x77
 1689 0706 00       		.sleb128 0
 1690 0707 00       		.byte	0
 1691 0708 00       		.byte	0
 1692 0709 00       		.byte	0
 1693 070a 14       		.uleb128 0x14
 1694 070b 0C000000 		.4byte	.LVL90
 1695 070f 7D010000 		.4byte	0x17d
 1696 0713 13       		.uleb128 0x13
 1697 0714 01       		.uleb128 0x1
 1698 0715 51       		.byte	0x51
 1699 0716 02       		.uleb128 0x2
 1700 0717 76       		.byte	0x76
 1701 0718 00       		.sleb128 0
 1702 0719 13       		.uleb128 0x13
 1703 071a 01       		.uleb128 0x1
 1704 071b 50       		.byte	0x50
 1705 071c 02       		.uleb128 0x2
 1706 071d 75       		.byte	0x75
 1707 071e 00       		.sleb128 0
 1708 071f 00       		.byte	0
 1709 0720 00       		.byte	0
 1710 0721 26       		.uleb128 0x26
ARM GAS  /var/folders/7z/kps_xzfj7sn5l5gkyq8s9db00000gn/T//ccH1k5kA.s 			page 31


 1711 0722 39010000 		.4byte	.LASF52
 1712 0726 05       		.byte	0x5
 1713 0727 9806     		.2byte	0x698
 1714 0729 E0000000 		.4byte	0xe0
 1715 072d 27       		.uleb128 0x27
 1716 072e 25020000 		.4byte	.LASF53
 1717 0732 01       		.byte	0x1
 1718 0733 23       		.byte	0x23
 1719 0734 B8000000 		.4byte	0xb8
 1720 0738 05       		.uleb128 0x5
 1721 0739 03       		.byte	0x3
 1722 073a 00000000 		.4byte	DataVar
 1723 073e 28       		.uleb128 0x28
 1724 073f B8000000 		.4byte	0xb8
 1725 0743 4E070000 		.4byte	0x74e
 1726 0747 29       		.uleb128 0x29
 1727 0748 D9000000 		.4byte	0xd9
 1728 074c 9F       		.byte	0x9f
 1729 074d 00       		.byte	0
 1730 074e 2A       		.uleb128 0x2a
 1731 074f 78000000 		.4byte	.LASF54
 1732 0753 01       		.byte	0x1
 1733 0754 26       		.byte	0x26
 1734 0755 3E070000 		.4byte	0x73e
 1735 0759 2B       		.uleb128 0x2b
 1736 075a 00000000 		.4byte	.LASF59
 1737 075e 04       		.byte	0x4
 1738 075f 2F01     		.2byte	0x12f
 1739 0761 1E010000 		.4byte	0x11e
 1740 0765 74070000 		.4byte	0x774
 1741 0769 2C       		.uleb128 0x2c
 1742 076a CE000000 		.4byte	0xce
 1743 076e 2C       		.uleb128 0x2c
 1744 076f B8000000 		.4byte	0xb8
 1745 0773 00       		.byte	0
 1746 0774 2D       		.uleb128 0x2d
 1747 0775 5F000000 		.4byte	.LASF60
 1748 0779 04       		.byte	0x4
 1749 077a 2B01     		.2byte	0x12b
 1750 077c 1E010000 		.4byte	0x11e
 1751 0780 2C       		.uleb128 0x2c
 1752 0781 CE000000 		.4byte	0xce
 1753 0785 2C       		.uleb128 0x2c
 1754 0786 A2000000 		.4byte	0xa2
 1755 078a 00       		.byte	0
 1756 078b 00       		.byte	0
 1757              		.section	.debug_abbrev,"",%progbits
 1758              	.Ldebug_abbrev0:
 1759 0000 01       		.uleb128 0x1
 1760 0001 11       		.uleb128 0x11
 1761 0002 01       		.byte	0x1
 1762 0003 25       		.uleb128 0x25
 1763 0004 0E       		.uleb128 0xe
 1764 0005 13       		.uleb128 0x13
 1765 0006 0B       		.uleb128 0xb
 1766 0007 03       		.uleb128 0x3
 1767 0008 0E       		.uleb128 0xe
ARM GAS  /var/folders/7z/kps_xzfj7sn5l5gkyq8s9db00000gn/T//ccH1k5kA.s 			page 32


 1768 0009 1B       		.uleb128 0x1b
 1769 000a 0E       		.uleb128 0xe
 1770 000b 55       		.uleb128 0x55
 1771 000c 17       		.uleb128 0x17
 1772 000d 11       		.uleb128 0x11
 1773 000e 01       		.uleb128 0x1
 1774 000f 10       		.uleb128 0x10
 1775 0010 17       		.uleb128 0x17
 1776 0011 00       		.byte	0
 1777 0012 00       		.byte	0
 1778 0013 02       		.uleb128 0x2
 1779 0014 24       		.uleb128 0x24
 1780 0015 00       		.byte	0
 1781 0016 0B       		.uleb128 0xb
 1782 0017 0B       		.uleb128 0xb
 1783 0018 3E       		.uleb128 0x3e
 1784 0019 0B       		.uleb128 0xb
 1785 001a 03       		.uleb128 0x3
 1786 001b 0E       		.uleb128 0xe
 1787 001c 00       		.byte	0
 1788 001d 00       		.byte	0
 1789 001e 03       		.uleb128 0x3
 1790 001f 16       		.uleb128 0x16
 1791 0020 00       		.byte	0
 1792 0021 03       		.uleb128 0x3
 1793 0022 0E       		.uleb128 0xe
 1794 0023 3A       		.uleb128 0x3a
 1795 0024 0B       		.uleb128 0xb
 1796 0025 3B       		.uleb128 0x3b
 1797 0026 0B       		.uleb128 0xb
 1798 0027 49       		.uleb128 0x49
 1799 0028 13       		.uleb128 0x13
 1800 0029 00       		.byte	0
 1801 002a 00       		.byte	0
 1802 002b 04       		.uleb128 0x4
 1803 002c 24       		.uleb128 0x24
 1804 002d 00       		.byte	0
 1805 002e 0B       		.uleb128 0xb
 1806 002f 0B       		.uleb128 0xb
 1807 0030 3E       		.uleb128 0x3e
 1808 0031 0B       		.uleb128 0xb
 1809 0032 03       		.uleb128 0x3
 1810 0033 08       		.uleb128 0x8
 1811 0034 00       		.byte	0
 1812 0035 00       		.byte	0
 1813 0036 05       		.uleb128 0x5
 1814 0037 35       		.uleb128 0x35
 1815 0038 00       		.byte	0
 1816 0039 49       		.uleb128 0x49
 1817 003a 13       		.uleb128 0x13
 1818 003b 00       		.byte	0
 1819 003c 00       		.byte	0
 1820 003d 06       		.uleb128 0x6
 1821 003e 04       		.uleb128 0x4
 1822 003f 01       		.byte	0x1
 1823 0040 0B       		.uleb128 0xb
 1824 0041 0B       		.uleb128 0xb
ARM GAS  /var/folders/7z/kps_xzfj7sn5l5gkyq8s9db00000gn/T//ccH1k5kA.s 			page 33


 1825 0042 3A       		.uleb128 0x3a
 1826 0043 0B       		.uleb128 0xb
 1827 0044 3B       		.uleb128 0x3b
 1828 0045 0B       		.uleb128 0xb
 1829 0046 01       		.uleb128 0x1
 1830 0047 13       		.uleb128 0x13
 1831 0048 00       		.byte	0
 1832 0049 00       		.byte	0
 1833 004a 07       		.uleb128 0x7
 1834 004b 28       		.uleb128 0x28
 1835 004c 00       		.byte	0
 1836 004d 03       		.uleb128 0x3
 1837 004e 0E       		.uleb128 0xe
 1838 004f 1C       		.uleb128 0x1c
 1839 0050 0D       		.uleb128 0xd
 1840 0051 00       		.byte	0
 1841 0052 00       		.byte	0
 1842 0053 08       		.uleb128 0x8
 1843 0054 2E       		.uleb128 0x2e
 1844 0055 01       		.byte	0x1
 1845 0056 03       		.uleb128 0x3
 1846 0057 0E       		.uleb128 0xe
 1847 0058 3A       		.uleb128 0x3a
 1848 0059 0B       		.uleb128 0xb
 1849 005a 3B       		.uleb128 0x3b
 1850 005b 05       		.uleb128 0x5
 1851 005c 27       		.uleb128 0x27
 1852 005d 19       		.uleb128 0x19
 1853 005e 49       		.uleb128 0x49
 1854 005f 13       		.uleb128 0x13
 1855 0060 20       		.uleb128 0x20
 1856 0061 0B       		.uleb128 0xb
 1857 0062 01       		.uleb128 0x1
 1858 0063 13       		.uleb128 0x13
 1859 0064 00       		.byte	0
 1860 0065 00       		.byte	0
 1861 0066 09       		.uleb128 0x9
 1862 0067 34       		.uleb128 0x34
 1863 0068 00       		.byte	0
 1864 0069 03       		.uleb128 0x3
 1865 006a 0E       		.uleb128 0xe
 1866 006b 3A       		.uleb128 0x3a
 1867 006c 0B       		.uleb128 0xb
 1868 006d 3B       		.uleb128 0x3b
 1869 006e 05       		.uleb128 0x5
 1870 006f 49       		.uleb128 0x49
 1871 0070 13       		.uleb128 0x13
 1872 0071 00       		.byte	0
 1873 0072 00       		.byte	0
 1874 0073 0A       		.uleb128 0xa
 1875 0074 05       		.uleb128 0x5
 1876 0075 00       		.byte	0
 1877 0076 03       		.uleb128 0x3
 1878 0077 0E       		.uleb128 0xe
 1879 0078 3A       		.uleb128 0x3a
 1880 0079 0B       		.uleb128 0xb
 1881 007a 3B       		.uleb128 0x3b
ARM GAS  /var/folders/7z/kps_xzfj7sn5l5gkyq8s9db00000gn/T//ccH1k5kA.s 			page 34


 1882 007b 05       		.uleb128 0x5
 1883 007c 49       		.uleb128 0x49
 1884 007d 13       		.uleb128 0x13
 1885 007e 00       		.byte	0
 1886 007f 00       		.byte	0
 1887 0080 0B       		.uleb128 0xb
 1888 0081 2E       		.uleb128 0x2e
 1889 0082 01       		.byte	0x1
 1890 0083 03       		.uleb128 0x3
 1891 0084 0E       		.uleb128 0xe
 1892 0085 3A       		.uleb128 0x3a
 1893 0086 0B       		.uleb128 0xb
 1894 0087 3B       		.uleb128 0x3b
 1895 0088 05       		.uleb128 0x5
 1896 0089 27       		.uleb128 0x27
 1897 008a 19       		.uleb128 0x19
 1898 008b 49       		.uleb128 0x49
 1899 008c 13       		.uleb128 0x13
 1900 008d 11       		.uleb128 0x11
 1901 008e 01       		.uleb128 0x1
 1902 008f 12       		.uleb128 0x12
 1903 0090 06       		.uleb128 0x6
 1904 0091 40       		.uleb128 0x40
 1905 0092 18       		.uleb128 0x18
 1906 0093 9742     		.uleb128 0x2117
 1907 0095 19       		.uleb128 0x19
 1908 0096 01       		.uleb128 0x1
 1909 0097 13       		.uleb128 0x13
 1910 0098 00       		.byte	0
 1911 0099 00       		.byte	0
 1912 009a 0C       		.uleb128 0xc
 1913 009b 05       		.uleb128 0x5
 1914 009c 00       		.byte	0
 1915 009d 03       		.uleb128 0x3
 1916 009e 0E       		.uleb128 0xe
 1917 009f 3A       		.uleb128 0x3a
 1918 00a0 0B       		.uleb128 0xb
 1919 00a1 3B       		.uleb128 0x3b
 1920 00a2 05       		.uleb128 0x5
 1921 00a3 49       		.uleb128 0x49
 1922 00a4 13       		.uleb128 0x13
 1923 00a5 02       		.uleb128 0x2
 1924 00a6 17       		.uleb128 0x17
 1925 00a7 00       		.byte	0
 1926 00a8 00       		.byte	0
 1927 00a9 0D       		.uleb128 0xd
 1928 00aa 34       		.uleb128 0x34
 1929 00ab 00       		.byte	0
 1930 00ac 03       		.uleb128 0x3
 1931 00ad 0E       		.uleb128 0xe
 1932 00ae 3A       		.uleb128 0x3a
 1933 00af 0B       		.uleb128 0xb
 1934 00b0 3B       		.uleb128 0x3b
 1935 00b1 05       		.uleb128 0x5
 1936 00b2 49       		.uleb128 0x49
 1937 00b3 13       		.uleb128 0x13
 1938 00b4 02       		.uleb128 0x2
ARM GAS  /var/folders/7z/kps_xzfj7sn5l5gkyq8s9db00000gn/T//ccH1k5kA.s 			page 35


 1939 00b5 17       		.uleb128 0x17
 1940 00b6 00       		.byte	0
 1941 00b7 00       		.byte	0
 1942 00b8 0E       		.uleb128 0xe
 1943 00b9 1D       		.uleb128 0x1d
 1944 00ba 01       		.byte	0x1
 1945 00bb 31       		.uleb128 0x31
 1946 00bc 13       		.uleb128 0x13
 1947 00bd 52       		.uleb128 0x52
 1948 00be 01       		.uleb128 0x1
 1949 00bf 55       		.uleb128 0x55
 1950 00c0 17       		.uleb128 0x17
 1951 00c1 58       		.uleb128 0x58
 1952 00c2 0B       		.uleb128 0xb
 1953 00c3 59       		.uleb128 0x59
 1954 00c4 05       		.uleb128 0x5
 1955 00c5 01       		.uleb128 0x1
 1956 00c6 13       		.uleb128 0x13
 1957 00c7 00       		.byte	0
 1958 00c8 00       		.byte	0
 1959 00c9 0F       		.uleb128 0xf
 1960 00ca 05       		.uleb128 0x5
 1961 00cb 00       		.byte	0
 1962 00cc 31       		.uleb128 0x31
 1963 00cd 13       		.uleb128 0x13
 1964 00ce 1C       		.uleb128 0x1c
 1965 00cf 0B       		.uleb128 0xb
 1966 00d0 00       		.byte	0
 1967 00d1 00       		.byte	0
 1968 00d2 10       		.uleb128 0x10
 1969 00d3 0B       		.uleb128 0xb
 1970 00d4 01       		.byte	0x1
 1971 00d5 55       		.uleb128 0x55
 1972 00d6 17       		.uleb128 0x17
 1973 00d7 00       		.byte	0
 1974 00d8 00       		.byte	0
 1975 00d9 11       		.uleb128 0x11
 1976 00da 34       		.uleb128 0x34
 1977 00db 00       		.byte	0
 1978 00dc 31       		.uleb128 0x31
 1979 00dd 13       		.uleb128 0x13
 1980 00de 02       		.uleb128 0x2
 1981 00df 17       		.uleb128 0x17
 1982 00e0 00       		.byte	0
 1983 00e1 00       		.byte	0
 1984 00e2 12       		.uleb128 0x12
 1985 00e3 898201   		.uleb128 0x4109
 1986 00e6 01       		.byte	0x1
 1987 00e7 11       		.uleb128 0x11
 1988 00e8 01       		.uleb128 0x1
 1989 00e9 31       		.uleb128 0x31
 1990 00ea 13       		.uleb128 0x13
 1991 00eb 01       		.uleb128 0x1
 1992 00ec 13       		.uleb128 0x13
 1993 00ed 00       		.byte	0
 1994 00ee 00       		.byte	0
 1995 00ef 13       		.uleb128 0x13
ARM GAS  /var/folders/7z/kps_xzfj7sn5l5gkyq8s9db00000gn/T//ccH1k5kA.s 			page 36


 1996 00f0 8A8201   		.uleb128 0x410a
 1997 00f3 00       		.byte	0
 1998 00f4 02       		.uleb128 0x2
 1999 00f5 18       		.uleb128 0x18
 2000 00f6 9142     		.uleb128 0x2111
 2001 00f8 18       		.uleb128 0x18
 2002 00f9 00       		.byte	0
 2003 00fa 00       		.byte	0
 2004 00fb 14       		.uleb128 0x14
 2005 00fc 898201   		.uleb128 0x4109
 2006 00ff 01       		.byte	0x1
 2007 0100 11       		.uleb128 0x11
 2008 0101 01       		.uleb128 0x1
 2009 0102 31       		.uleb128 0x31
 2010 0103 13       		.uleb128 0x13
 2011 0104 00       		.byte	0
 2012 0105 00       		.byte	0
 2013 0106 15       		.uleb128 0x15
 2014 0107 2E       		.uleb128 0x2e
 2015 0108 01       		.byte	0x1
 2016 0109 31       		.uleb128 0x31
 2017 010a 13       		.uleb128 0x13
 2018 010b 11       		.uleb128 0x11
 2019 010c 01       		.uleb128 0x1
 2020 010d 12       		.uleb128 0x12
 2021 010e 06       		.uleb128 0x6
 2022 010f 40       		.uleb128 0x40
 2023 0110 18       		.uleb128 0x18
 2024 0111 9742     		.uleb128 0x2117
 2025 0113 19       		.uleb128 0x19
 2026 0114 01       		.uleb128 0x1
 2027 0115 13       		.uleb128 0x13
 2028 0116 00       		.byte	0
 2029 0117 00       		.byte	0
 2030 0118 16       		.uleb128 0x16
 2031 0119 0B       		.uleb128 0xb
 2032 011a 01       		.byte	0x1
 2033 011b 55       		.uleb128 0x55
 2034 011c 17       		.uleb128 0x17
 2035 011d 01       		.uleb128 0x1
 2036 011e 13       		.uleb128 0x13
 2037 011f 00       		.byte	0
 2038 0120 00       		.byte	0
 2039 0121 17       		.uleb128 0x17
 2040 0122 34       		.uleb128 0x34
 2041 0123 00       		.byte	0
 2042 0124 31       		.uleb128 0x31
 2043 0125 13       		.uleb128 0x13
 2044 0126 00       		.byte	0
 2045 0127 00       		.byte	0
 2046 0128 18       		.uleb128 0x18
 2047 0129 898201   		.uleb128 0x4109
 2048 012c 01       		.byte	0x1
 2049 012d 11       		.uleb128 0x11
 2050 012e 01       		.uleb128 0x1
 2051 012f 9542     		.uleb128 0x2115
 2052 0131 19       		.uleb128 0x19
ARM GAS  /var/folders/7z/kps_xzfj7sn5l5gkyq8s9db00000gn/T//ccH1k5kA.s 			page 37


 2053 0132 31       		.uleb128 0x31
 2054 0133 13       		.uleb128 0x13
 2055 0134 00       		.byte	0
 2056 0135 00       		.byte	0
 2057 0136 19       		.uleb128 0x19
 2058 0137 2E       		.uleb128 0x2e
 2059 0138 01       		.byte	0x1
 2060 0139 3F       		.uleb128 0x3f
 2061 013a 19       		.uleb128 0x19
 2062 013b 03       		.uleb128 0x3
 2063 013c 0E       		.uleb128 0xe
 2064 013d 3A       		.uleb128 0x3a
 2065 013e 0B       		.uleb128 0xb
 2066 013f 3B       		.uleb128 0x3b
 2067 0140 05       		.uleb128 0x5
 2068 0141 27       		.uleb128 0x27
 2069 0142 19       		.uleb128 0x19
 2070 0143 49       		.uleb128 0x49
 2071 0144 13       		.uleb128 0x13
 2072 0145 11       		.uleb128 0x11
 2073 0146 01       		.uleb128 0x1
 2074 0147 12       		.uleb128 0x12
 2075 0148 06       		.uleb128 0x6
 2076 0149 40       		.uleb128 0x40
 2077 014a 18       		.uleb128 0x18
 2078 014b 9742     		.uleb128 0x2117
 2079 014d 19       		.uleb128 0x19
 2080 014e 01       		.uleb128 0x1
 2081 014f 13       		.uleb128 0x13
 2082 0150 00       		.byte	0
 2083 0151 00       		.byte	0
 2084 0152 1A       		.uleb128 0x1a
 2085 0153 05       		.uleb128 0x5
 2086 0154 00       		.byte	0
 2087 0155 03       		.uleb128 0x3
 2088 0156 0E       		.uleb128 0xe
 2089 0157 3A       		.uleb128 0x3a
 2090 0158 0B       		.uleb128 0xb
 2091 0159 3B       		.uleb128 0x3b
 2092 015a 05       		.uleb128 0x5
 2093 015b 49       		.uleb128 0x49
 2094 015c 13       		.uleb128 0x13
 2095 015d 02       		.uleb128 0x2
 2096 015e 18       		.uleb128 0x18
 2097 015f 00       		.byte	0
 2098 0160 00       		.byte	0
 2099 0161 1B       		.uleb128 0x1b
 2100 0162 1D       		.uleb128 0x1d
 2101 0163 01       		.byte	0x1
 2102 0164 31       		.uleb128 0x31
 2103 0165 13       		.uleb128 0x13
 2104 0166 52       		.uleb128 0x52
 2105 0167 01       		.uleb128 0x1
 2106 0168 55       		.uleb128 0x55
 2107 0169 17       		.uleb128 0x17
 2108 016a 58       		.uleb128 0x58
 2109 016b 0B       		.uleb128 0xb
ARM GAS  /var/folders/7z/kps_xzfj7sn5l5gkyq8s9db00000gn/T//ccH1k5kA.s 			page 38


 2110 016c 59       		.uleb128 0x59
 2111 016d 05       		.uleb128 0x5
 2112 016e 00       		.byte	0
 2113 016f 00       		.byte	0
 2114 0170 1C       		.uleb128 0x1c
 2115 0171 0F       		.uleb128 0xf
 2116 0172 00       		.byte	0
 2117 0173 0B       		.uleb128 0xb
 2118 0174 0B       		.uleb128 0xb
 2119 0175 49       		.uleb128 0x49
 2120 0176 13       		.uleb128 0x13
 2121 0177 00       		.byte	0
 2122 0178 00       		.byte	0
 2123 0179 1D       		.uleb128 0x1d
 2124 017a 2E       		.uleb128 0x2e
 2125 017b 01       		.byte	0x1
 2126 017c 3F       		.uleb128 0x3f
 2127 017d 19       		.uleb128 0x19
 2128 017e 03       		.uleb128 0x3
 2129 017f 0E       		.uleb128 0xe
 2130 0180 3A       		.uleb128 0x3a
 2131 0181 0B       		.uleb128 0xb
 2132 0182 3B       		.uleb128 0x3b
 2133 0183 0B       		.uleb128 0xb
 2134 0184 27       		.uleb128 0x27
 2135 0185 19       		.uleb128 0x19
 2136 0186 49       		.uleb128 0x49
 2137 0187 13       		.uleb128 0x13
 2138 0188 11       		.uleb128 0x11
 2139 0189 01       		.uleb128 0x1
 2140 018a 12       		.uleb128 0x12
 2141 018b 06       		.uleb128 0x6
 2142 018c 40       		.uleb128 0x40
 2143 018d 18       		.uleb128 0x18
 2144 018e 9742     		.uleb128 0x2117
 2145 0190 19       		.uleb128 0x19
 2146 0191 01       		.uleb128 0x1
 2147 0192 13       		.uleb128 0x13
 2148 0193 00       		.byte	0
 2149 0194 00       		.byte	0
 2150 0195 1E       		.uleb128 0x1e
 2151 0196 34       		.uleb128 0x34
 2152 0197 00       		.byte	0
 2153 0198 03       		.uleb128 0x3
 2154 0199 0E       		.uleb128 0xe
 2155 019a 3A       		.uleb128 0x3a
 2156 019b 0B       		.uleb128 0xb
 2157 019c 3B       		.uleb128 0x3b
 2158 019d 0B       		.uleb128 0xb
 2159 019e 49       		.uleb128 0x49
 2160 019f 13       		.uleb128 0x13
 2161 01a0 02       		.uleb128 0x2
 2162 01a1 17       		.uleb128 0x17
 2163 01a2 00       		.byte	0
 2164 01a3 00       		.byte	0
 2165 01a4 1F       		.uleb128 0x1f
 2166 01a5 34       		.uleb128 0x34
ARM GAS  /var/folders/7z/kps_xzfj7sn5l5gkyq8s9db00000gn/T//ccH1k5kA.s 			page 39


 2167 01a6 00       		.byte	0
 2168 01a7 03       		.uleb128 0x3
 2169 01a8 08       		.uleb128 0x8
 2170 01a9 3A       		.uleb128 0x3a
 2171 01aa 0B       		.uleb128 0xb
 2172 01ab 3B       		.uleb128 0x3b
 2173 01ac 0B       		.uleb128 0xb
 2174 01ad 49       		.uleb128 0x49
 2175 01ae 13       		.uleb128 0x13
 2176 01af 02       		.uleb128 0x2
 2177 01b0 17       		.uleb128 0x17
 2178 01b1 00       		.byte	0
 2179 01b2 00       		.byte	0
 2180 01b3 20       		.uleb128 0x20
 2181 01b4 898201   		.uleb128 0x4109
 2182 01b7 00       		.byte	0
 2183 01b8 11       		.uleb128 0x11
 2184 01b9 01       		.uleb128 0x1
 2185 01ba 31       		.uleb128 0x31
 2186 01bb 13       		.uleb128 0x13
 2187 01bc 00       		.byte	0
 2188 01bd 00       		.byte	0
 2189 01be 21       		.uleb128 0x21
 2190 01bf 1D       		.uleb128 0x1d
 2191 01c0 01       		.byte	0x1
 2192 01c1 31       		.uleb128 0x31
 2193 01c2 13       		.uleb128 0x13
 2194 01c3 11       		.uleb128 0x11
 2195 01c4 01       		.uleb128 0x1
 2196 01c5 12       		.uleb128 0x12
 2197 01c6 06       		.uleb128 0x6
 2198 01c7 58       		.uleb128 0x58
 2199 01c8 0B       		.uleb128 0xb
 2200 01c9 59       		.uleb128 0x59
 2201 01ca 05       		.uleb128 0x5
 2202 01cb 01       		.uleb128 0x1
 2203 01cc 13       		.uleb128 0x13
 2204 01cd 00       		.byte	0
 2205 01ce 00       		.byte	0
 2206 01cf 22       		.uleb128 0x22
 2207 01d0 05       		.uleb128 0x5
 2208 01d1 00       		.byte	0
 2209 01d2 31       		.uleb128 0x31
 2210 01d3 13       		.uleb128 0x13
 2211 01d4 02       		.uleb128 0x2
 2212 01d5 17       		.uleb128 0x17
 2213 01d6 00       		.byte	0
 2214 01d7 00       		.byte	0
 2215 01d8 23       		.uleb128 0x23
 2216 01d9 05       		.uleb128 0x5
 2217 01da 00       		.byte	0
 2218 01db 31       		.uleb128 0x31
 2219 01dc 13       		.uleb128 0x13
 2220 01dd 02       		.uleb128 0x2
 2221 01de 18       		.uleb128 0x18
 2222 01df 00       		.byte	0
 2223 01e0 00       		.byte	0
ARM GAS  /var/folders/7z/kps_xzfj7sn5l5gkyq8s9db00000gn/T//ccH1k5kA.s 			page 40


 2224 01e1 24       		.uleb128 0x24
 2225 01e2 0B       		.uleb128 0xb
 2226 01e3 01       		.byte	0x1
 2227 01e4 11       		.uleb128 0x11
 2228 01e5 01       		.uleb128 0x1
 2229 01e6 12       		.uleb128 0x12
 2230 01e7 06       		.uleb128 0x6
 2231 01e8 00       		.byte	0
 2232 01e9 00       		.byte	0
 2233 01ea 25       		.uleb128 0x25
 2234 01eb 34       		.uleb128 0x34
 2235 01ec 00       		.byte	0
 2236 01ed 31       		.uleb128 0x31
 2237 01ee 13       		.uleb128 0x13
 2238 01ef 1C       		.uleb128 0x1c
 2239 01f0 0B       		.uleb128 0xb
 2240 01f1 00       		.byte	0
 2241 01f2 00       		.byte	0
 2242 01f3 26       		.uleb128 0x26
 2243 01f4 34       		.uleb128 0x34
 2244 01f5 00       		.byte	0
 2245 01f6 03       		.uleb128 0x3
 2246 01f7 0E       		.uleb128 0xe
 2247 01f8 3A       		.uleb128 0x3a
 2248 01f9 0B       		.uleb128 0xb
 2249 01fa 3B       		.uleb128 0x3b
 2250 01fb 05       		.uleb128 0x5
 2251 01fc 49       		.uleb128 0x49
 2252 01fd 13       		.uleb128 0x13
 2253 01fe 3F       		.uleb128 0x3f
 2254 01ff 19       		.uleb128 0x19
 2255 0200 3C       		.uleb128 0x3c
 2256 0201 19       		.uleb128 0x19
 2257 0202 00       		.byte	0
 2258 0203 00       		.byte	0
 2259 0204 27       		.uleb128 0x27
 2260 0205 34       		.uleb128 0x34
 2261 0206 00       		.byte	0
 2262 0207 03       		.uleb128 0x3
 2263 0208 0E       		.uleb128 0xe
 2264 0209 3A       		.uleb128 0x3a
 2265 020a 0B       		.uleb128 0xb
 2266 020b 3B       		.uleb128 0x3b
 2267 020c 0B       		.uleb128 0xb
 2268 020d 49       		.uleb128 0x49
 2269 020e 13       		.uleb128 0x13
 2270 020f 3F       		.uleb128 0x3f
 2271 0210 19       		.uleb128 0x19
 2272 0211 02       		.uleb128 0x2
 2273 0212 18       		.uleb128 0x18
 2274 0213 00       		.byte	0
 2275 0214 00       		.byte	0
 2276 0215 28       		.uleb128 0x28
 2277 0216 01       		.uleb128 0x1
 2278 0217 01       		.byte	0x1
 2279 0218 49       		.uleb128 0x49
 2280 0219 13       		.uleb128 0x13
ARM GAS  /var/folders/7z/kps_xzfj7sn5l5gkyq8s9db00000gn/T//ccH1k5kA.s 			page 41


 2281 021a 01       		.uleb128 0x1
 2282 021b 13       		.uleb128 0x13
 2283 021c 00       		.byte	0
 2284 021d 00       		.byte	0
 2285 021e 29       		.uleb128 0x29
 2286 021f 21       		.uleb128 0x21
 2287 0220 00       		.byte	0
 2288 0221 49       		.uleb128 0x49
 2289 0222 13       		.uleb128 0x13
 2290 0223 2F       		.uleb128 0x2f
 2291 0224 0B       		.uleb128 0xb
 2292 0225 00       		.byte	0
 2293 0226 00       		.byte	0
 2294 0227 2A       		.uleb128 0x2a
 2295 0228 34       		.uleb128 0x34
 2296 0229 00       		.byte	0
 2297 022a 03       		.uleb128 0x3
 2298 022b 0E       		.uleb128 0xe
 2299 022c 3A       		.uleb128 0x3a
 2300 022d 0B       		.uleb128 0xb
 2301 022e 3B       		.uleb128 0x3b
 2302 022f 0B       		.uleb128 0xb
 2303 0230 49       		.uleb128 0x49
 2304 0231 13       		.uleb128 0x13
 2305 0232 3F       		.uleb128 0x3f
 2306 0233 19       		.uleb128 0x19
 2307 0234 3C       		.uleb128 0x3c
 2308 0235 19       		.uleb128 0x19
 2309 0236 00       		.byte	0
 2310 0237 00       		.byte	0
 2311 0238 2B       		.uleb128 0x2b
 2312 0239 2E       		.uleb128 0x2e
 2313 023a 01       		.byte	0x1
 2314 023b 3F       		.uleb128 0x3f
 2315 023c 19       		.uleb128 0x19
 2316 023d 03       		.uleb128 0x3
 2317 023e 0E       		.uleb128 0xe
 2318 023f 3A       		.uleb128 0x3a
 2319 0240 0B       		.uleb128 0xb
 2320 0241 3B       		.uleb128 0x3b
 2321 0242 05       		.uleb128 0x5
 2322 0243 27       		.uleb128 0x27
 2323 0244 19       		.uleb128 0x19
 2324 0245 49       		.uleb128 0x49
 2325 0246 13       		.uleb128 0x13
 2326 0247 3C       		.uleb128 0x3c
 2327 0248 19       		.uleb128 0x19
 2328 0249 01       		.uleb128 0x1
 2329 024a 13       		.uleb128 0x13
 2330 024b 00       		.byte	0
 2331 024c 00       		.byte	0
 2332 024d 2C       		.uleb128 0x2c
 2333 024e 05       		.uleb128 0x5
 2334 024f 00       		.byte	0
 2335 0250 49       		.uleb128 0x49
 2336 0251 13       		.uleb128 0x13
 2337 0252 00       		.byte	0
ARM GAS  /var/folders/7z/kps_xzfj7sn5l5gkyq8s9db00000gn/T//ccH1k5kA.s 			page 42


 2338 0253 00       		.byte	0
 2339 0254 2D       		.uleb128 0x2d
 2340 0255 2E       		.uleb128 0x2e
 2341 0256 01       		.byte	0x1
 2342 0257 3F       		.uleb128 0x3f
 2343 0258 19       		.uleb128 0x19
 2344 0259 03       		.uleb128 0x3
 2345 025a 0E       		.uleb128 0xe
 2346 025b 3A       		.uleb128 0x3a
 2347 025c 0B       		.uleb128 0xb
 2348 025d 3B       		.uleb128 0x3b
 2349 025e 05       		.uleb128 0x5
 2350 025f 27       		.uleb128 0x27
 2351 0260 19       		.uleb128 0x19
 2352 0261 49       		.uleb128 0x49
 2353 0262 13       		.uleb128 0x13
 2354 0263 3C       		.uleb128 0x3c
 2355 0264 19       		.uleb128 0x19
 2356 0265 00       		.byte	0
 2357 0266 00       		.byte	0
 2358 0267 00       		.byte	0
 2359              		.section	.debug_loc,"",%progbits
 2360              	.Ldebug_loc0:
 2361              	.LLST0:
 2362 0000 00000000 		.4byte	.LVL0
 2363 0004 40000000 		.4byte	.LVL8
 2364 0008 0100     		.2byte	0x1
 2365 000a 50       		.byte	0x50
 2366 000b 40000000 		.4byte	.LVL8
 2367 000f 4C000000 		.4byte	.LVL12
 2368 0013 0400     		.2byte	0x4
 2369 0015 F3       		.byte	0xf3
 2370 0016 01       		.uleb128 0x1
 2371 0017 50       		.byte	0x50
 2372 0018 9F       		.byte	0x9f
 2373 0019 4C000000 		.4byte	.LVL12
 2374 001d 50000000 		.4byte	.LVL13
 2375 0021 0100     		.2byte	0x1
 2376 0023 50       		.byte	0x50
 2377 0024 50000000 		.4byte	.LVL13
 2378 0028 52000000 		.4byte	.LVL14
 2379 002c 0400     		.2byte	0x4
 2380 002e F3       		.byte	0xf3
 2381 002f 01       		.uleb128 0x1
 2382 0030 50       		.byte	0x50
 2383 0031 9F       		.byte	0x9f
 2384 0032 52000000 		.4byte	.LVL14
 2385 0036 54000000 		.4byte	.LVL15
 2386 003a 0100     		.2byte	0x1
 2387 003c 50       		.byte	0x50
 2388 003d 54000000 		.4byte	.LVL15
 2389 0041 56000000 		.4byte	.LVL16
 2390 0045 0400     		.2byte	0x4
 2391 0047 F3       		.byte	0xf3
 2392 0048 01       		.uleb128 0x1
 2393 0049 50       		.byte	0x50
 2394 004a 9F       		.byte	0x9f
ARM GAS  /var/folders/7z/kps_xzfj7sn5l5gkyq8s9db00000gn/T//ccH1k5kA.s 			page 43


 2395 004b 56000000 		.4byte	.LVL16
 2396 004f 64000000 		.4byte	.LVL18
 2397 0053 0100     		.2byte	0x1
 2398 0055 50       		.byte	0x50
 2399 0056 64000000 		.4byte	.LVL18
 2400 005a 7C000000 		.4byte	.LFE116
 2401 005e 0400     		.2byte	0x4
 2402 0060 F3       		.byte	0xf3
 2403 0061 01       		.uleb128 0x1
 2404 0062 50       		.byte	0x50
 2405 0063 9F       		.byte	0x9f
 2406 0064 00000000 		.4byte	0
 2407 0068 00000000 		.4byte	0
 2408              	.LLST1:
 2409 006c 00000000 		.4byte	.LVL0
 2410 0070 43000000 		.4byte	.LVL9-1
 2411 0074 0100     		.2byte	0x1
 2412 0076 51       		.byte	0x51
 2413 0077 43000000 		.4byte	.LVL9-1
 2414 007b 4C000000 		.4byte	.LVL12
 2415 007f 0400     		.2byte	0x4
 2416 0081 F3       		.byte	0xf3
 2417 0082 01       		.uleb128 0x1
 2418 0083 51       		.byte	0x51
 2419 0084 9F       		.byte	0x9f
 2420 0085 4C000000 		.4byte	.LVL12
 2421 0089 64000000 		.4byte	.LVL18
 2422 008d 0100     		.2byte	0x1
 2423 008f 51       		.byte	0x51
 2424 0090 64000000 		.4byte	.LVL18
 2425 0094 7C000000 		.4byte	.LFE116
 2426 0098 0400     		.2byte	0x4
 2427 009a F3       		.byte	0xf3
 2428 009b 01       		.uleb128 0x1
 2429 009c 51       		.byte	0x51
 2430 009d 9F       		.byte	0x9f
 2431 009e 00000000 		.4byte	0
 2432 00a2 00000000 		.4byte	0
 2433              	.LLST2:
 2434 00a6 00000000 		.4byte	.LVL0
 2435 00aa 44000000 		.4byte	.LVL9
 2436 00ae 0200     		.2byte	0x2
 2437 00b0 38       		.byte	0x38
 2438 00b1 9F       		.byte	0x9f
 2439 00b2 44000000 		.4byte	.LVL9
 2440 00b6 4A000000 		.4byte	.LVL11
 2441 00ba 0100     		.2byte	0x1
 2442 00bc 50       		.byte	0x50
 2443 00bd 4C000000 		.4byte	.LVL12
 2444 00c1 64000000 		.4byte	.LVL18
 2445 00c5 0200     		.2byte	0x2
 2446 00c7 38       		.byte	0x38
 2447 00c8 9F       		.byte	0x9f
 2448 00c9 64000000 		.4byte	.LVL18
 2449 00cd 66000000 		.4byte	.LVL19
 2450 00d1 0100     		.2byte	0x1
 2451 00d3 50       		.byte	0x50
ARM GAS  /var/folders/7z/kps_xzfj7sn5l5gkyq8s9db00000gn/T//ccH1k5kA.s 			page 44


 2452 00d4 00000000 		.4byte	0
 2453 00d8 00000000 		.4byte	0
 2454              	.LLST3:
 2455 00dc 00000000 		.4byte	.LVL0
 2456 00e0 1A000000 		.4byte	.LVL4
 2457 00e4 0200     		.2byte	0x2
 2458 00e6 30       		.byte	0x30
 2459 00e7 9F       		.byte	0x9f
 2460 00e8 4C000000 		.4byte	.LVL12
 2461 00ec 52000000 		.4byte	.LVL14
 2462 00f0 0200     		.2byte	0x2
 2463 00f2 30       		.byte	0x30
 2464 00f3 9F       		.byte	0x9f
 2465 00f4 56000000 		.4byte	.LVL16
 2466 00f8 64000000 		.4byte	.LVL18
 2467 00fc 0200     		.2byte	0x2
 2468 00fe 30       		.byte	0x30
 2469 00ff 9F       		.byte	0x9f
 2470 0100 00000000 		.4byte	0
 2471 0104 00000000 		.4byte	0
 2472              	.LLST4:
 2473 0108 00000000 		.4byte	.LVL0
 2474 010c 28000000 		.4byte	.LVL5
 2475 0110 0600     		.2byte	0x6
 2476 0112 0C       		.byte	0xc
 2477 0113 00400008 		.4byte	0x8004000
 2478 0117 9F       		.byte	0x9f
 2479 0118 28000000 		.4byte	.LVL5
 2480 011c 4C000000 		.4byte	.LVL12
 2481 0120 0100     		.2byte	0x1
 2482 0122 54       		.byte	0x54
 2483 0123 4C000000 		.4byte	.LVL12
 2484 0127 52000000 		.4byte	.LVL14
 2485 012b 0600     		.2byte	0x6
 2486 012d 0C       		.byte	0xc
 2487 012e 00400008 		.4byte	0x8004000
 2488 0132 9F       		.byte	0x9f
 2489 0133 52000000 		.4byte	.LVL14
 2490 0137 56000000 		.4byte	.LVL16
 2491 013b 0100     		.2byte	0x1
 2492 013d 54       		.byte	0x54
 2493 013e 56000000 		.4byte	.LVL16
 2494 0142 64000000 		.4byte	.LVL18
 2495 0146 0600     		.2byte	0x6
 2496 0148 0C       		.byte	0xc
 2497 0149 00400008 		.4byte	0x8004000
 2498 014d 9F       		.byte	0x9f
 2499 014e 64000000 		.4byte	.LVL18
 2500 0152 7C000000 		.4byte	.LFE116
 2501 0156 0100     		.2byte	0x1
 2502 0158 54       		.byte	0x54
 2503 0159 00000000 		.4byte	0
 2504 015d 00000000 		.4byte	0
 2505              	.LLST5:
 2506 0161 00000000 		.4byte	.LVL0
 2507 0165 2A000000 		.4byte	.LVL6
 2508 0169 0600     		.2byte	0x6
ARM GAS  /var/folders/7z/kps_xzfj7sn5l5gkyq8s9db00000gn/T//ccH1k5kA.s 			page 45


 2509 016b 0C       		.byte	0xc
 2510 016c 00800008 		.4byte	0x8008000
 2511 0170 9F       		.byte	0x9f
 2512 0171 2A000000 		.4byte	.LVL6
 2513 0175 43000000 		.4byte	.LVL9-1
 2514 0179 0100     		.2byte	0x1
 2515 017b 52       		.byte	0x52
 2516 017c 4C000000 		.4byte	.LVL12
 2517 0180 52000000 		.4byte	.LVL14
 2518 0184 0600     		.2byte	0x6
 2519 0186 0C       		.byte	0xc
 2520 0187 00800008 		.4byte	0x8008000
 2521 018b 9F       		.byte	0x9f
 2522 018c 52000000 		.4byte	.LVL14
 2523 0190 56000000 		.4byte	.LVL16
 2524 0194 0100     		.2byte	0x1
 2525 0196 52       		.byte	0x52
 2526 0197 56000000 		.4byte	.LVL16
 2527 019b 64000000 		.4byte	.LVL18
 2528 019f 0600     		.2byte	0x6
 2529 01a1 0C       		.byte	0xc
 2530 01a2 00800008 		.4byte	0x8008000
 2531 01a6 9F       		.byte	0x9f
 2532 01a7 00000000 		.4byte	0
 2533 01ab 00000000 		.4byte	0
 2534              	.LLST6:
 2535 01af 00000000 		.4byte	.LVL0
 2536 01b3 0E000000 		.4byte	.LVL1
 2537 01b7 0200     		.2byte	0x2
 2538 01b9 36       		.byte	0x36
 2539 01ba 9F       		.byte	0x9f
 2540 01bb 0E000000 		.4byte	.LVL1
 2541 01bf 16000000 		.4byte	.LVL3
 2542 01c3 0100     		.2byte	0x1
 2543 01c5 53       		.byte	0x53
 2544 01c6 16000000 		.4byte	.LVL3
 2545 01ca 1A000000 		.4byte	.LVL4
 2546 01ce 0500     		.2byte	0x5
 2547 01d0 73       		.byte	0x73
 2548 01d1 EEDD03   		.sleb128 61166
 2549 01d4 9F       		.byte	0x9f
 2550 01d5 4C000000 		.4byte	.LVL12
 2551 01d9 52000000 		.4byte	.LVL14
 2552 01dd 0100     		.2byte	0x1
 2553 01df 53       		.byte	0x53
 2554 01e0 56000000 		.4byte	.LVL16
 2555 01e4 5A000000 		.4byte	.LVL17
 2556 01e8 0100     		.2byte	0x1
 2557 01ea 53       		.byte	0x53
 2558 01eb 00000000 		.4byte	0
 2559 01ef 00000000 		.4byte	0
 2560              	.LLST7:
 2561 01f3 00000000 		.4byte	.LVL0
 2562 01f7 0E000000 		.4byte	.LVL1
 2563 01fb 0200     		.2byte	0x2
 2564 01fd 36       		.byte	0x36
 2565 01fe 9F       		.byte	0x9f
ARM GAS  /var/folders/7z/kps_xzfj7sn5l5gkyq8s9db00000gn/T//ccH1k5kA.s 			page 46


 2566 01ff 0E000000 		.4byte	.LVL1
 2567 0203 14000000 		.4byte	.LVL2
 2568 0207 0100     		.2byte	0x1
 2569 0209 52       		.byte	0x52
 2570 020a 4C000000 		.4byte	.LVL12
 2571 020e 52000000 		.4byte	.LVL14
 2572 0212 0100     		.2byte	0x1
 2573 0214 52       		.byte	0x52
 2574 0215 56000000 		.4byte	.LVL16
 2575 0219 64000000 		.4byte	.LVL18
 2576 021d 0100     		.2byte	0x1
 2577 021f 52       		.byte	0x52
 2578 0220 00000000 		.4byte	0
 2579 0224 00000000 		.4byte	0
 2580              	.LLST8:
 2581 0228 00000000 		.4byte	.LVL21
 2582 022c 0A000000 		.4byte	.LVL22
 2583 0230 0200     		.2byte	0x2
 2584 0232 38       		.byte	0x38
 2585 0233 9F       		.byte	0x9f
 2586 0234 0A000000 		.4byte	.LVL22
 2587 0238 12000000 		.4byte	.LVL23
 2588 023c 0100     		.2byte	0x1
 2589 023e 50       		.byte	0x50
 2590 023f 18000000 		.4byte	.LVL24
 2591 0243 1E000000 		.4byte	.LVL25
 2592 0247 0100     		.2byte	0x1
 2593 0249 50       		.byte	0x50
 2594 024a 00000000 		.4byte	0
 2595 024e 00000000 		.4byte	0
 2596              	.LLST9:
 2597 0252 00000000 		.4byte	.LVL27
 2598 0256 14000000 		.4byte	.LVL30
 2599 025a 0100     		.2byte	0x1
 2600 025c 50       		.byte	0x50
 2601 025d 14000000 		.4byte	.LVL30
 2602 0261 1A000000 		.4byte	.LVL31
 2603 0265 0400     		.2byte	0x4
 2604 0267 F3       		.byte	0xf3
 2605 0268 01       		.uleb128 0x1
 2606 0269 50       		.byte	0x50
 2607 026a 9F       		.byte	0x9f
 2608 026b 1A000000 		.4byte	.LVL31
 2609 026f 3A000000 		.4byte	.LVL39
 2610 0273 0100     		.2byte	0x1
 2611 0275 50       		.byte	0x50
 2612 0276 3A000000 		.4byte	.LVL39
 2613 027a 40000000 		.4byte	.LVL40
 2614 027e 0400     		.2byte	0x4
 2615 0280 F3       		.byte	0xf3
 2616 0281 01       		.uleb128 0x1
 2617 0282 50       		.byte	0x50
 2618 0283 9F       		.byte	0x9f
 2619 0284 40000000 		.4byte	.LVL40
 2620 0288 50000000 		.4byte	.LVL46
 2621 028c 0100     		.2byte	0x1
 2622 028e 50       		.byte	0x50
ARM GAS  /var/folders/7z/kps_xzfj7sn5l5gkyq8s9db00000gn/T//ccH1k5kA.s 			page 47


 2623 028f 50000000 		.4byte	.LVL46
 2624 0293 70000000 		.4byte	.LFE112
 2625 0297 0400     		.2byte	0x4
 2626 0299 F3       		.byte	0xf3
 2627 029a 01       		.uleb128 0x1
 2628 029b 50       		.byte	0x50
 2629 029c 9F       		.byte	0x9f
 2630 029d 00000000 		.4byte	0
 2631 02a1 00000000 		.4byte	0
 2632              	.LLST10:
 2633 02a5 00000000 		.4byte	.LVL27
 2634 02a9 20000000 		.4byte	.LVL33
 2635 02ad 0200     		.2byte	0x2
 2636 02af 30       		.byte	0x30
 2637 02b0 9F       		.byte	0x9f
 2638 02b1 40000000 		.4byte	.LVL40
 2639 02b5 48000000 		.4byte	.LVL43
 2640 02b9 0200     		.2byte	0x2
 2641 02bb 30       		.byte	0x30
 2642 02bc 9F       		.byte	0x9f
 2643 02bd 00000000 		.4byte	0
 2644 02c1 00000000 		.4byte	0
 2645              	.LLST11:
 2646 02c5 00000000 		.4byte	.LVL27
 2647 02c9 24000000 		.4byte	.LVL34
 2648 02cd 0400     		.2byte	0x4
 2649 02cf 0A       		.byte	0xa
 2650 02d0 5555     		.2byte	0x5555
 2651 02d2 9F       		.byte	0x9f
 2652 02d3 24000000 		.4byte	.LVL34
 2653 02d7 2A000000 		.4byte	.LVL35
 2654 02db 0100     		.2byte	0x1
 2655 02dd 52       		.byte	0x52
 2656 02de 2E000000 		.4byte	.LVL36
 2657 02e2 32000000 		.4byte	.LVL37
 2658 02e6 0100     		.2byte	0x1
 2659 02e8 52       		.byte	0x52
 2660 02e9 40000000 		.4byte	.LVL40
 2661 02ed 48000000 		.4byte	.LVL43
 2662 02f1 0400     		.2byte	0x4
 2663 02f3 0A       		.byte	0xa
 2664 02f4 5555     		.2byte	0x5555
 2665 02f6 9F       		.byte	0x9f
 2666 02f7 00000000 		.4byte	0
 2667 02fb 00000000 		.4byte	0
 2668              	.LLST12:
 2669 02ff 00000000 		.4byte	.LVL27
 2670 0303 4E000000 		.4byte	.LVL45
 2671 0307 0200     		.2byte	0x2
 2672 0309 31       		.byte	0x31
 2673 030a 9F       		.byte	0x9f
 2674 030b 4E000000 		.4byte	.LVL45
 2675 030f 70000000 		.4byte	.LFE112
 2676 0313 0200     		.2byte	0x2
 2677 0315 30       		.byte	0x30
 2678 0316 9F       		.byte	0x9f
 2679 0317 00000000 		.4byte	0
ARM GAS  /var/folders/7z/kps_xzfj7sn5l5gkyq8s9db00000gn/T//ccH1k5kA.s 			page 48


 2680 031b 00000000 		.4byte	0
 2681              	.LLST13:
 2682 031f 00000000 		.4byte	.LVL27
 2683 0323 20000000 		.4byte	.LVL33
 2684 0327 0600     		.2byte	0x6
 2685 0329 0C       		.byte	0xc
 2686 032a 00400008 		.4byte	0x8004000
 2687 032e 9F       		.byte	0x9f
 2688 032f 20000000 		.4byte	.LVL33
 2689 0333 40000000 		.4byte	.LVL40
 2690 0337 0100     		.2byte	0x1
 2691 0339 53       		.byte	0x53
 2692 033a 40000000 		.4byte	.LVL40
 2693 033e 48000000 		.4byte	.LVL43
 2694 0342 0600     		.2byte	0x6
 2695 0344 0C       		.byte	0xc
 2696 0345 00400008 		.4byte	0x8004000
 2697 0349 9F       		.byte	0x9f
 2698 034a 48000000 		.4byte	.LVL43
 2699 034e 4C000000 		.4byte	.LVL44
 2700 0352 0100     		.2byte	0x1
 2701 0354 53       		.byte	0x53
 2702 0355 00000000 		.4byte	0
 2703 0359 00000000 		.4byte	0
 2704              	.LLST14:
 2705 035d 00000000 		.4byte	.LVL27
 2706 0361 20000000 		.4byte	.LVL33
 2707 0365 0600     		.2byte	0x6
 2708 0367 0C       		.byte	0xc
 2709 0368 00400008 		.4byte	0x8004000
 2710 036c 9F       		.byte	0x9f
 2711 036d 40000000 		.4byte	.LVL40
 2712 0371 48000000 		.4byte	.LVL43
 2713 0375 0600     		.2byte	0x6
 2714 0377 0C       		.byte	0xc
 2715 0378 00400008 		.4byte	0x8004000
 2716 037c 9F       		.byte	0x9f
 2717 037d 00000000 		.4byte	0
 2718 0381 00000000 		.4byte	0
 2719              	.LLST15:
 2720 0385 00000000 		.4byte	.LVL27
 2721 0389 0A000000 		.4byte	.LVL28
 2722 038d 0200     		.2byte	0x2
 2723 038f 36       		.byte	0x36
 2724 0390 9F       		.byte	0x9f
 2725 0391 0A000000 		.4byte	.LVL28
 2726 0395 1C000000 		.4byte	.LVL32
 2727 0399 0100     		.2byte	0x1
 2728 039b 53       		.byte	0x53
 2729 039c 40000000 		.4byte	.LVL40
 2730 03a0 42000000 		.4byte	.LVL41
 2731 03a4 0100     		.2byte	0x1
 2732 03a6 53       		.byte	0x53
 2733 03a7 00000000 		.4byte	0
 2734 03ab 00000000 		.4byte	0
 2735              	.LLST16:
 2736 03af 00000000 		.4byte	.LVL27
ARM GAS  /var/folders/7z/kps_xzfj7sn5l5gkyq8s9db00000gn/T//ccH1k5kA.s 			page 49


 2737 03b3 0E000000 		.4byte	.LVL29
 2738 03b7 0200     		.2byte	0x2
 2739 03b9 36       		.byte	0x36
 2740 03ba 9F       		.byte	0x9f
 2741 03bb 0E000000 		.4byte	.LVL29
 2742 03bf 20000000 		.4byte	.LVL33
 2743 03c3 0100     		.2byte	0x1
 2744 03c5 52       		.byte	0x52
 2745 03c6 40000000 		.4byte	.LVL40
 2746 03ca 46000000 		.4byte	.LVL42
 2747 03ce 0100     		.2byte	0x1
 2748 03d0 52       		.byte	0x52
 2749 03d1 00000000 		.4byte	0
 2750 03d5 00000000 		.4byte	0
 2751              	.LLST17:
 2752 03d9 00000000 		.4byte	.LVL47
 2753 03dd 0E000000 		.4byte	.LVL48
 2754 03e1 0200     		.2byte	0x2
 2755 03e3 36       		.byte	0x36
 2756 03e4 9F       		.byte	0x9f
 2757 03e5 0E000000 		.4byte	.LVL48
 2758 03e9 28000000 		.4byte	.LVL51
 2759 03ed 0100     		.2byte	0x1
 2760 03ef 54       		.byte	0x54
 2761 03f0 2C000000 		.4byte	.LVL52
 2762 03f4 3A000000 		.4byte	.LVL53
 2763 03f8 0100     		.2byte	0x1
 2764 03fa 54       		.byte	0x54
 2765 03fb 8C000000 		.4byte	.LVL63
 2766 03ff BA000000 		.4byte	.LVL69
 2767 0403 0100     		.2byte	0x1
 2768 0405 54       		.byte	0x54
 2769 0406 12010000 		.4byte	.LVL81
 2770 040a 46010000 		.4byte	.LVL88
 2771 040e 0100     		.2byte	0x1
 2772 0410 54       		.byte	0x54
 2773 0411 00000000 		.4byte	0
 2774 0415 00000000 		.4byte	0
 2775              	.LLST18:
 2776 0419 00000000 		.4byte	.LVL47
 2777 041d 16000000 		.4byte	.LVL49
 2778 0421 0200     		.2byte	0x2
 2779 0423 36       		.byte	0x36
 2780 0424 9F       		.byte	0x9f
 2781 0425 16000000 		.4byte	.LVL49
 2782 0429 25000000 		.4byte	.LVL50-1
 2783 042d 0100     		.2byte	0x1
 2784 042f 53       		.byte	0x53
 2785 0430 2C000000 		.4byte	.LVL52
 2786 0434 3A000000 		.4byte	.LVL53
 2787 0438 0100     		.2byte	0x1
 2788 043a 53       		.byte	0x53
 2789 043b 8C000000 		.4byte	.LVL63
 2790 043f 9B000000 		.4byte	.LVL64-1
 2791 0443 0100     		.2byte	0x1
 2792 0445 53       		.byte	0x53
 2793 0446 B0000000 		.4byte	.LVL68
ARM GAS  /var/folders/7z/kps_xzfj7sn5l5gkyq8s9db00000gn/T//ccH1k5kA.s 			page 50


 2794 044a BE000000 		.4byte	.LVL70
 2795 044e 0100     		.2byte	0x1
 2796 0450 53       		.byte	0x53
 2797 0451 12010000 		.4byte	.LVL81
 2798 0455 21010000 		.4byte	.LVL82-1
 2799 0459 0100     		.2byte	0x1
 2800 045b 53       		.byte	0x53
 2801 045c 38010000 		.4byte	.LVL86
 2802 0460 3F010000 		.4byte	.LVL87-1
 2803 0464 0100     		.2byte	0x1
 2804 0466 53       		.byte	0x53
 2805 0467 00000000 		.4byte	0
 2806 046b 00000000 		.4byte	0
 2807              	.LLST19:
 2808 046f 00000000 		.4byte	.LVL47
 2809 0473 28000000 		.4byte	.LVL51
 2810 0477 0200     		.2byte	0x2
 2811 0479 30       		.byte	0x30
 2812 047a 9F       		.byte	0x9f
 2813 047b 2C000000 		.4byte	.LVL52
 2814 047f 3A000000 		.4byte	.LVL53
 2815 0483 0200     		.2byte	0x2
 2816 0485 30       		.byte	0x30
 2817 0486 9F       		.byte	0x9f
 2818 0487 3A000000 		.4byte	.LVL53
 2819 048b 58000000 		.4byte	.LVL55
 2820 048f 0100     		.2byte	0x1
 2821 0491 54       		.byte	0x54
 2822 0492 8C000000 		.4byte	.LVL63
 2823 0496 BE000000 		.4byte	.LVL70
 2824 049a 0200     		.2byte	0x2
 2825 049c 30       		.byte	0x30
 2826 049d 9F       		.byte	0x9f
 2827 049e BE000000 		.4byte	.LVL70
 2828 04a2 DC000000 		.4byte	.LVL72
 2829 04a6 0100     		.2byte	0x1
 2830 04a8 54       		.byte	0x54
 2831 04a9 12010000 		.4byte	.LVL81
 2832 04ad 60010000 		.4byte	.LFE111
 2833 04b1 0200     		.2byte	0x2
 2834 04b3 30       		.byte	0x30
 2835 04b4 9F       		.byte	0x9f
 2836 04b5 00000000 		.4byte	0
 2837 04b9 00000000 		.4byte	0
 2838              	.LLST20:
 2839 04bd 00000000 		.4byte	.LVL47
 2840 04c1 28000000 		.4byte	.LVL51
 2841 04c5 0200     		.2byte	0x2
 2842 04c7 30       		.byte	0x30
 2843 04c8 9F       		.byte	0x9f
 2844 04c9 2C000000 		.4byte	.LVL52
 2845 04cd 3A000000 		.4byte	.LVL53
 2846 04d1 0200     		.2byte	0x2
 2847 04d3 30       		.byte	0x30
 2848 04d4 9F       		.byte	0x9f
 2849 04d5 6A000000 		.4byte	.LVL58
 2850 04d9 6E000000 		.4byte	.LVL59
ARM GAS  /var/folders/7z/kps_xzfj7sn5l5gkyq8s9db00000gn/T//ccH1k5kA.s 			page 51


 2851 04dd 0100     		.2byte	0x1
 2852 04df 50       		.byte	0x50
 2853 04e0 8C000000 		.4byte	.LVL63
 2854 04e4 BE000000 		.4byte	.LVL70
 2855 04e8 0200     		.2byte	0x2
 2856 04ea 30       		.byte	0x30
 2857 04eb 9F       		.byte	0x9f
 2858 04ec EE000000 		.4byte	.LVL75
 2859 04f0 F2000000 		.4byte	.LVL76
 2860 04f4 0100     		.2byte	0x1
 2861 04f6 50       		.byte	0x50
 2862 04f7 12010000 		.4byte	.LVL81
 2863 04fb 60010000 		.4byte	.LFE111
 2864 04ff 0200     		.2byte	0x2
 2865 0501 30       		.byte	0x30
 2866 0502 9F       		.byte	0x9f
 2867 0503 00000000 		.4byte	0
 2868 0507 00000000 		.4byte	0
 2869              	.LLST21:
 2870 050b 00000000 		.4byte	.LVL47
 2871 050f 28000000 		.4byte	.LVL51
 2872 0513 0200     		.2byte	0x2
 2873 0515 30       		.byte	0x30
 2874 0516 9F       		.byte	0x9f
 2875 0517 2C000000 		.4byte	.LVL52
 2876 051b 3A000000 		.4byte	.LVL53
 2877 051f 0200     		.2byte	0x2
 2878 0521 30       		.byte	0x30
 2879 0522 9F       		.byte	0x9f
 2880 0523 5E000000 		.4byte	.LVL56
 2881 0527 64000000 		.4byte	.LVL57
 2882 052b 0100     		.2byte	0x1
 2883 052d 50       		.byte	0x50
 2884 052e 8C000000 		.4byte	.LVL63
 2885 0532 BE000000 		.4byte	.LVL70
 2886 0536 0200     		.2byte	0x2
 2887 0538 30       		.byte	0x30
 2888 0539 9F       		.byte	0x9f
 2889 053a E2000000 		.4byte	.LVL73
 2890 053e E8000000 		.4byte	.LVL74
 2891 0542 0100     		.2byte	0x1
 2892 0544 50       		.byte	0x50
 2893 0545 12010000 		.4byte	.LVL81
 2894 0549 60010000 		.4byte	.LFE111
 2895 054d 0200     		.2byte	0x2
 2896 054f 30       		.byte	0x30
 2897 0550 9F       		.byte	0x9f
 2898 0551 00000000 		.4byte	0
 2899 0555 00000000 		.4byte	0
 2900              	.LLST22:
 2901 0559 00000000 		.4byte	.LVL47
 2902 055d 28000000 		.4byte	.LVL51
 2903 0561 0300     		.2byte	0x3
 2904 0563 09       		.byte	0x9
 2905 0564 FF       		.byte	0xff
 2906 0565 9F       		.byte	0x9f
 2907 0566 2C000000 		.4byte	.LVL52
ARM GAS  /var/folders/7z/kps_xzfj7sn5l5gkyq8s9db00000gn/T//ccH1k5kA.s 			page 52


 2908 056a 3A000000 		.4byte	.LVL53
 2909 056e 0300     		.2byte	0x3
 2910 0570 09       		.byte	0x9
 2911 0571 FF       		.byte	0xff
 2912 0572 9F       		.byte	0x9f
 2913 0573 3A000000 		.4byte	.LVL53
 2914 0577 8C000000 		.4byte	.LVL63
 2915 057b 0100     		.2byte	0x1
 2916 057d 58       		.byte	0x58
 2917 057e 8C000000 		.4byte	.LVL63
 2918 0582 BE000000 		.4byte	.LVL70
 2919 0586 0300     		.2byte	0x3
 2920 0588 09       		.byte	0x9
 2921 0589 FF       		.byte	0xff
 2922 058a 9F       		.byte	0x9f
 2923 058b BE000000 		.4byte	.LVL70
 2924 058f 04010000 		.4byte	.LVL79
 2925 0593 0100     		.2byte	0x1
 2926 0595 58       		.byte	0x58
 2927 0596 12010000 		.4byte	.LVL81
 2928 059a 60010000 		.4byte	.LFE111
 2929 059e 0300     		.2byte	0x3
 2930 05a0 09       		.byte	0x9
 2931 05a1 FF       		.byte	0xff
 2932 05a2 9F       		.byte	0x9f
 2933 05a3 00000000 		.4byte	0
 2934 05a7 00000000 		.4byte	0
 2935              	.LLST23:
 2936 05ab 7C000000 		.4byte	.LVL61
 2937 05af 85000000 		.4byte	.LVL62-1
 2938 05b3 0100     		.2byte	0x1
 2939 05b5 50       		.byte	0x50
 2940 05b6 9E000000 		.4byte	.LVL65
 2941 05ba A4000000 		.4byte	.LVL66
 2942 05be 0100     		.2byte	0x1
 2943 05c0 50       		.byte	0x50
 2944 05c1 00010000 		.4byte	.LVL78
 2945 05c5 04010000 		.4byte	.LVL79
 2946 05c9 0100     		.2byte	0x1
 2947 05cb 50       		.byte	0x50
 2948 05cc 24010000 		.4byte	.LVL83
 2949 05d0 2C010000 		.4byte	.LVL84
 2950 05d4 0100     		.2byte	0x1
 2951 05d6 50       		.byte	0x50
 2952 05d7 00000000 		.4byte	0
 2953 05db 00000000 		.4byte	0
 2954              	.LLST24:
 2955 05df 00000000 		.4byte	.LVL89
 2956 05e3 0B000000 		.4byte	.LVL90-1
 2957 05e7 0100     		.2byte	0x1
 2958 05e9 50       		.byte	0x50
 2959 05ea 0B000000 		.4byte	.LVL90-1
 2960 05ee BC000000 		.4byte	.LFE113
 2961 05f2 0400     		.2byte	0x4
 2962 05f4 F3       		.byte	0xf3
 2963 05f5 01       		.uleb128 0x1
 2964 05f6 50       		.byte	0x50
ARM GAS  /var/folders/7z/kps_xzfj7sn5l5gkyq8s9db00000gn/T//ccH1k5kA.s 			page 53


 2965 05f7 9F       		.byte	0x9f
 2966 05f8 00000000 		.4byte	0
 2967 05fc 00000000 		.4byte	0
 2968              	.LLST25:
 2969 0600 00000000 		.4byte	.LVL89
 2970 0604 0B000000 		.4byte	.LVL90-1
 2971 0608 0100     		.2byte	0x1
 2972 060a 51       		.byte	0x51
 2973 060b 0B000000 		.4byte	.LVL90-1
 2974 060f BC000000 		.4byte	.LFE113
 2975 0613 0400     		.2byte	0x4
 2976 0615 F3       		.byte	0xf3
 2977 0616 01       		.uleb128 0x1
 2978 0617 51       		.byte	0x51
 2979 0618 9F       		.byte	0x9f
 2980 0619 00000000 		.4byte	0
 2981 061d 00000000 		.4byte	0
 2982              	.LLST26:
 2983 0621 00000000 		.4byte	.LVL89
 2984 0625 10000000 		.4byte	.LVL91
 2985 0629 0200     		.2byte	0x2
 2986 062b 30       		.byte	0x30
 2987 062c 9F       		.byte	0x9f
 2988 062d 10000000 		.4byte	.LVL91
 2989 0631 12000000 		.4byte	.LVL92
 2990 0635 0100     		.2byte	0x1
 2991 0637 50       		.byte	0x50
 2992 0638 12000000 		.4byte	.LVL92
 2993 063c 18000000 		.4byte	.LVL93
 2994 0640 0100     		.2byte	0x1
 2995 0642 54       		.byte	0x54
 2996 0643 18000000 		.4byte	.LVL93
 2997 0647 1C000000 		.4byte	.LVL94
 2998 064b 0100     		.2byte	0x1
 2999 064d 50       		.byte	0x50
 3000 064e 00000000 		.4byte	0
 3001 0652 00000000 		.4byte	0
 3002              	.LLST27:
 3003 0656 18000000 		.4byte	.LVL93
 3004 065a 40000000 		.4byte	.LVL99
 3005 065e 0100     		.2byte	0x1
 3006 0660 56       		.byte	0x56
 3007 0661 44000000 		.4byte	.LVL100
 3008 0665 5C000000 		.4byte	.LVL105
 3009 0669 0100     		.2byte	0x1
 3010 066b 56       		.byte	0x56
 3011 066c 00000000 		.4byte	0
 3012 0670 00000000 		.4byte	0
 3013              	.LLST28:
 3014 0674 18000000 		.4byte	.LVL93
 3015 0678 3C000000 		.4byte	.LVL98
 3016 067c 0200     		.2byte	0x2
 3017 067e 38       		.byte	0x38
 3018 067f 9F       		.byte	0x9f
 3019 0680 3C000000 		.4byte	.LVL98
 3020 0684 44000000 		.4byte	.LVL100
 3021 0688 0100     		.2byte	0x1
ARM GAS  /var/folders/7z/kps_xzfj7sn5l5gkyq8s9db00000gn/T//ccH1k5kA.s 			page 54


 3022 068a 50       		.byte	0x50
 3023 068b 44000000 		.4byte	.LVL100
 3024 068f 4C000000 		.4byte	.LVL101
 3025 0693 0200     		.2byte	0x2
 3026 0695 38       		.byte	0x38
 3027 0696 9F       		.byte	0x9f
 3028 0697 4C000000 		.4byte	.LVL101
 3029 069b 50000000 		.4byte	.LVL102
 3030 069f 0100     		.2byte	0x1
 3031 06a1 50       		.byte	0x50
 3032 06a2 98000000 		.4byte	.LVL111
 3033 06a6 9E000000 		.4byte	.LVL112
 3034 06aa 0100     		.2byte	0x1
 3035 06ac 50       		.byte	0x50
 3036 06ad A4000000 		.4byte	.LVL113
 3037 06b1 BC000000 		.4byte	.LFE113
 3038 06b5 0100     		.2byte	0x1
 3039 06b7 50       		.byte	0x50
 3040 06b8 00000000 		.4byte	0
 3041 06bc 00000000 		.4byte	0
 3042              	.LLST29:
 3043 06c0 18000000 		.4byte	.LVL93
 3044 06c4 32000000 		.4byte	.LVL97
 3045 06c8 0600     		.2byte	0x6
 3046 06ca 0C       		.byte	0xc
 3047 06cb 00400008 		.4byte	0x8004000
 3048 06cf 9F       		.byte	0x9f
 3049 06d0 32000000 		.4byte	.LVL97
 3050 06d4 44000000 		.4byte	.LVL100
 3051 06d8 0100     		.2byte	0x1
 3052 06da 57       		.byte	0x57
 3053 06db 44000000 		.4byte	.LVL100
 3054 06df 4C000000 		.4byte	.LVL101
 3055 06e3 0600     		.2byte	0x6
 3056 06e5 0C       		.byte	0xc
 3057 06e6 00400008 		.4byte	0x8004000
 3058 06ea 9F       		.byte	0x9f
 3059 06eb 4C000000 		.4byte	.LVL101
 3060 06ef BC000000 		.4byte	.LFE113
 3061 06f3 0100     		.2byte	0x1
 3062 06f5 57       		.byte	0x57
 3063 06f6 00000000 		.4byte	0
 3064 06fa 00000000 		.4byte	0
 3065              	.LLST30:
 3066 06fe 18000000 		.4byte	.LVL93
 3067 0702 32000000 		.4byte	.LVL97
 3068 0706 0200     		.2byte	0x2
 3069 0708 30       		.byte	0x30
 3070 0709 9F       		.byte	0x9f
 3071 070a 32000000 		.4byte	.LVL97
 3072 070e 44000000 		.4byte	.LVL100
 3073 0712 0100     		.2byte	0x1
 3074 0714 58       		.byte	0x58
 3075 0715 44000000 		.4byte	.LVL100
 3076 0719 4C000000 		.4byte	.LVL101
 3077 071d 0200     		.2byte	0x2
 3078 071f 30       		.byte	0x30
ARM GAS  /var/folders/7z/kps_xzfj7sn5l5gkyq8s9db00000gn/T//ccH1k5kA.s 			page 55


 3079 0720 9F       		.byte	0x9f
 3080 0721 4C000000 		.4byte	.LVL101
 3081 0725 BC000000 		.4byte	.LFE113
 3082 0729 0100     		.2byte	0x1
 3083 072b 58       		.byte	0x58
 3084 072c 00000000 		.4byte	0
 3085 0730 00000000 		.4byte	0
 3086              	.LLST31:
 3087 0734 18000000 		.4byte	.LVL93
 3088 0738 40000000 		.4byte	.LVL99
 3089 073c 0200     		.2byte	0x2
 3090 073e 30       		.byte	0x30
 3091 073f 9F       		.byte	0x9f
 3092 0740 44000000 		.4byte	.LVL100
 3093 0744 66000000 		.4byte	.LVL106
 3094 0748 0200     		.2byte	0x2
 3095 074a 30       		.byte	0x30
 3096 074b 9F       		.byte	0x9f
 3097 074c 00000000 		.4byte	0
 3098 0750 00000000 		.4byte	0
 3099              	.LLST32:
 3100 0754 18000000 		.4byte	.LVL93
 3101 0758 40000000 		.4byte	.LVL99
 3102 075c 0200     		.2byte	0x2
 3103 075e 30       		.byte	0x30
 3104 075f 9F       		.byte	0x9f
 3105 0760 44000000 		.4byte	.LVL100
 3106 0764 58000000 		.4byte	.LVL104
 3107 0768 0200     		.2byte	0x2
 3108 076a 30       		.byte	0x30
 3109 076b 9F       		.byte	0x9f
 3110 076c 58000000 		.4byte	.LVL104
 3111 0770 66000000 		.4byte	.LVL106
 3112 0774 0100     		.2byte	0x1
 3113 0776 50       		.byte	0x50
 3114 0777 88000000 		.4byte	.LVL109
 3115 077b 90000000 		.4byte	.LVL110
 3116 077f 0100     		.2byte	0x1
 3117 0781 50       		.byte	0x50
 3118 0782 00000000 		.4byte	0
 3119 0786 00000000 		.4byte	0
 3120              	.LLST33:
 3121 078a 18000000 		.4byte	.LVL93
 3122 078e 40000000 		.4byte	.LVL99
 3123 0792 0200     		.2byte	0x2
 3124 0794 30       		.byte	0x30
 3125 0795 9F       		.byte	0x9f
 3126 0796 44000000 		.4byte	.LVL100
 3127 079a 66000000 		.4byte	.LVL106
 3128 079e 0200     		.2byte	0x2
 3129 07a0 30       		.byte	0x30
 3130 07a1 9F       		.byte	0x9f
 3131 07a2 7A000000 		.4byte	.LVL107
 3132 07a6 80000000 		.4byte	.LVL108
 3133 07aa 0100     		.2byte	0x1
 3134 07ac 50       		.byte	0x50
 3135 07ad 00000000 		.4byte	0
ARM GAS  /var/folders/7z/kps_xzfj7sn5l5gkyq8s9db00000gn/T//ccH1k5kA.s 			page 56


 3136 07b1 00000000 		.4byte	0
 3137              	.LLST34:
 3138 07b5 18000000 		.4byte	.LVL93
 3139 07b9 22000000 		.4byte	.LVL95
 3140 07bd 0200     		.2byte	0x2
 3141 07bf 36       		.byte	0x36
 3142 07c0 9F       		.byte	0x9f
 3143 07c1 22000000 		.4byte	.LVL95
 3144 07c5 3B000000 		.4byte	.LVL98-1
 3145 07c9 0100     		.2byte	0x1
 3146 07cb 53       		.byte	0x53
 3147 07cc 44000000 		.4byte	.LVL100
 3148 07d0 4C000000 		.4byte	.LVL101
 3149 07d4 0100     		.2byte	0x1
 3150 07d6 53       		.byte	0x53
 3151 07d7 00000000 		.4byte	0
 3152 07db 00000000 		.4byte	0
 3153              	.LLST35:
 3154 07df 18000000 		.4byte	.LVL93
 3155 07e3 24000000 		.4byte	.LVL96
 3156 07e7 0200     		.2byte	0x2
 3157 07e9 36       		.byte	0x36
 3158 07ea 9F       		.byte	0x9f
 3159 07eb 24000000 		.4byte	.LVL96
 3160 07ef 3B000000 		.4byte	.LVL98-1
 3161 07f3 0100     		.2byte	0x1
 3162 07f5 52       		.byte	0x52
 3163 07f6 44000000 		.4byte	.LVL100
 3164 07fa 4C000000 		.4byte	.LVL101
 3165 07fe 0100     		.2byte	0x1
 3166 0800 52       		.byte	0x52
 3167 0801 00000000 		.4byte	0
 3168 0805 00000000 		.4byte	0
 3169              		.section	.debug_aranges,"",%progbits
 3170 0000 3C000000 		.4byte	0x3c
 3171 0004 0200     		.2byte	0x2
 3172 0006 00000000 		.4byte	.Ldebug_info0
 3173 000a 04       		.byte	0x4
 3174 000b 00       		.byte	0
 3175 000c 0000     		.2byte	0
 3176 000e 0000     		.2byte	0
 3177 0010 00000000 		.4byte	.LFB116
 3178 0014 7C000000 		.4byte	.LFE116-.LFB116
 3179 0018 00000000 		.4byte	.LFB114
 3180 001c 2C000000 		.4byte	.LFE114-.LFB114
 3181 0020 00000000 		.4byte	.LFB112
 3182 0024 70000000 		.4byte	.LFE112-.LFB112
 3183 0028 00000000 		.4byte	.LFB111
 3184 002c 60010000 		.4byte	.LFE111-.LFB111
 3185 0030 00000000 		.4byte	.LFB113
 3186 0034 BC000000 		.4byte	.LFE113-.LFB113
 3187 0038 00000000 		.4byte	0
 3188 003c 00000000 		.4byte	0
 3189              		.section	.debug_ranges,"",%progbits
 3190              	.Ldebug_ranges0:
 3191 0000 02000000 		.4byte	.LBB4
 3192 0004 1A000000 		.4byte	.LBE4
ARM GAS  /var/folders/7z/kps_xzfj7sn5l5gkyq8s9db00000gn/T//ccH1k5kA.s 			page 57


 3193 0008 4C000000 		.4byte	.LBB8
 3194 000c 4E000000 		.4byte	.LBE8
 3195 0010 56000000 		.4byte	.LBB9
 3196 0014 64000000 		.4byte	.LBE9
 3197 0018 00000000 		.4byte	0
 3198 001c 00000000 		.4byte	0
 3199 0020 1C000000 		.4byte	.LBB13
 3200 0024 20000000 		.4byte	.LBE13
 3201 0028 24000000 		.4byte	.LBB14
 3202 002c 2C000000 		.4byte	.LBE14
 3203 0030 00000000 		.4byte	0
 3204 0034 00000000 		.4byte	0
 3205 0038 00000000 		.4byte	.LBB18
 3206 003c 0A000000 		.4byte	.LBE18
 3207 0040 0C000000 		.4byte	.LBB23
 3208 0044 12000000 		.4byte	.LBE23
 3209 0048 1A000000 		.4byte	.LBB24
 3210 004c 20000000 		.4byte	.LBE24
 3211 0050 40000000 		.4byte	.LBB25
 3212 0054 48000000 		.4byte	.LBE25
 3213 0058 00000000 		.4byte	0
 3214 005c 00000000 		.4byte	0
 3215 0060 00000000 		.4byte	.LFB116
 3216 0064 7C000000 		.4byte	.LFE116
 3217 0068 00000000 		.4byte	.LFB114
 3218 006c 2C000000 		.4byte	.LFE114
 3219 0070 00000000 		.4byte	.LFB112
 3220 0074 70000000 		.4byte	.LFE112
 3221 0078 00000000 		.4byte	.LFB111
 3222 007c 60010000 		.4byte	.LFE111
 3223 0080 00000000 		.4byte	.LFB113
 3224 0084 BC000000 		.4byte	.LFE113
 3225 0088 00000000 		.4byte	0
 3226 008c 00000000 		.4byte	0
 3227              		.section	.debug_line,"",%progbits
 3228              	.Ldebug_line0:
 3229 0000 B4020000 		.section	.debug_str,"MS",%progbits,1
 3229      02004001 
 3229      00000201 
 3229      FB0E0D00 
 3229      01010101 
 3230              	.LASF59:
 3231 0000 464C4153 		.ascii	"FLASH_ProgramHalfWord\000"
 3231      485F5072 
 3231      6F677261 
 3231      6D48616C 
 3231      66576F72 
 3232              	.LASF2:
 3233 0016 5F5F7569 		.ascii	"__uint8_t\000"
 3233      6E74385F 
 3233      7400
 3234              	.LASF3:
 3235 0020 5F5F696E 		.ascii	"__int16_t\000"
 3235      7431365F 
 3235      7400
 3236              	.LASF27:
 3237 002a 464C4153 		.ascii	"FLASH_COMPLETE\000"
ARM GAS  /var/folders/7z/kps_xzfj7sn5l5gkyq8s9db00000gn/T//ccH1k5kA.s 			page 58


 3237      485F434F 
 3237      4D504C45 
 3237      544500
 3238              	.LASF7:
 3239 0039 5F5F696E 		.ascii	"__int32_t\000"
 3239      7433325F 
 3239      7400
 3240              	.LASF51:
 3241 0043 53746174 		.ascii	"Status\000"
 3241      757300
 3242              	.LASF20:
 3243 004a 464C4153 		.ascii	"FLASH_BUSY\000"
 3243      485F4255 
 3243      535900
 3244              	.LASF4:
 3245 0055 73686F72 		.ascii	"short int\000"
 3245      7420696E 
 3245      7400
 3246              	.LASF60:
 3247 005f 464C4153 		.ascii	"FLASH_EraseSector\000"
 3247      485F4572 
 3247      61736553 
 3247      6563746F 
 3247      7200
 3248              	.LASF44:
 3249 0071 56617249 		.ascii	"VarIdx\000"
 3249      647800
 3250              	.LASF54:
 3251 0078 56697274 		.ascii	"VirtAddVarTab\000"
 3251      41646456 
 3251      61725461 
 3251      6200
 3252              	.LASF43:
 3253 0086 45455F49 		.ascii	"EE_Init\000"
 3253      6E697400 
 3254              	.LASF47:
 3255 008e 4F706572 		.ascii	"Operation\000"
 3255      6174696F 
 3255      6E00
 3256              	.LASF39:
 3257 0098 41646472 		.ascii	"AddressValue\000"
 3257      65737356 
 3257      616C7565 
 3257      00
 3258              	.LASF23:
 3259 00a5 464C4153 		.ascii	"FLASH_ERROR_PGA\000"
 3259      485F4552 
 3259      524F525F 
 3259      50474100 
 3260              	.LASF1:
 3261 00b5 756E7369 		.ascii	"unsigned char\000"
 3261      676E6564 
 3261      20636861 
 3261      7200
 3262              	.LASF41:
 3263 00c3 50616765 		.ascii	"PageStartAddress\000"
 3263      53746172 
ARM GAS  /var/folders/7z/kps_xzfj7sn5l5gkyq8s9db00000gn/T//ccH1k5kA.s 			page 59


 3263      74416464 
 3263      72657373 
 3263      00
 3264              	.LASF48:
 3265 00d4 4E657750 		.ascii	"NewPageAddress\000"
 3265      61676541 
 3265      64647265 
 3265      737300
 3266              	.LASF10:
 3267 00e3 6C6F6E67 		.ascii	"long unsigned int\000"
 3267      20756E73 
 3267      69676E65 
 3267      6420696E 
 3267      7400
 3268              	.LASF6:
 3269 00f5 73686F72 		.ascii	"short unsigned int\000"
 3269      7420756E 
 3269      7369676E 
 3269      65642069 
 3269      6E7400
 3270              	.LASF46:
 3271 0108 45455F50 		.ascii	"EE_PageTransfer\000"
 3271      61676554 
 3271      72616E73 
 3271      66657200 
 3272              	.LASF24:
 3273 0118 464C4153 		.ascii	"FLASH_ERROR_WRP\000"
 3273      485F4552 
 3273      524F525F 
 3273      57525000 
 3274              	.LASF50:
 3275 0128 45455F57 		.ascii	"EE_WriteVariable\000"
 3275      72697465 
 3275      56617269 
 3275      61626C65 
 3275      00
 3276              	.LASF52:
 3277 0139 49544D5F 		.ascii	"ITM_RxBuffer\000"
 3277      52784275 
 3277      66666572 
 3277      00
 3278              	.LASF22:
 3279 0146 464C4153 		.ascii	"FLASH_ERROR_PGP\000"
 3279      485F4552 
 3279      524F525F 
 3279      50475000 
 3280              	.LASF30:
 3281 0156 45455F46 		.ascii	"EE_FindValidPage\000"
 3281      696E6456 
 3281      616C6964 
 3281      50616765 
 3281      00
 3282              	.LASF57:
 3283 0167 2F557365 		.ascii	"/Users/Baram/oroca_bldc_dev/oroca_bldc_dev/\000"
 3283      72732F42 
 3283      6172616D 
 3283      2F6F726F 
ARM GAS  /var/folders/7z/kps_xzfj7sn5l5gkyq8s9db00000gn/T//ccH1k5kA.s 			page 60


 3283      63615F62 
 3284              	.LASF21:
 3285 0193 464C4153 		.ascii	"FLASH_ERROR_PGS\000"
 3285      485F4552 
 3285      524F525F 
 3285      50475300 
 3286              	.LASF5:
 3287 01a3 5F5F7569 		.ascii	"__uint16_t\000"
 3287      6E743136 
 3287      5F7400
 3288              	.LASF35:
 3289 01ae 44617461 		.ascii	"Data\000"
 3289      00
 3290              	.LASF9:
 3291 01b3 5F5F7569 		.ascii	"__uint32_t\000"
 3291      6E743332 
 3291      5F7400
 3292              	.LASF56:
 3293 01be 7372632F 		.ascii	"src/core/eeprom.c\000"
 3293      636F7265 
 3293      2F656570 
 3293      726F6D2E 
 3293      6300
 3294              	.LASF58:
 3295 01d0 45455F56 		.ascii	"EE_VerifyPageFullWriteVariable\000"
 3295      65726966 
 3295      79506167 
 3295      6546756C 
 3295      6C577269 
 3296              	.LASF13:
 3297 01ef 756E7369 		.ascii	"unsigned int\000"
 3297      676E6564 
 3297      20696E74 
 3297      00
 3298              	.LASF36:
 3299 01fc 56616C69 		.ascii	"ValidPage\000"
 3299      64506167 
 3299      6500
 3300              	.LASF12:
 3301 0206 6C6F6E67 		.ascii	"long long unsigned int\000"
 3301      206C6F6E 
 3301      6720756E 
 3301      7369676E 
 3301      65642069 
 3302              	.LASF14:
 3303 021d 75696E74 		.ascii	"uint8_t\000"
 3303      385F7400 
 3304              	.LASF53:
 3305 0225 44617461 		.ascii	"DataVar\000"
 3305      56617200 
 3306              	.LASF15:
 3307 022d 696E7431 		.ascii	"int16_t\000"
 3307      365F7400 
 3308              	.LASF31:
 3309 0235 466C6173 		.ascii	"FlashStatus\000"
 3309      68537461 
 3309      74757300 
ARM GAS  /var/folders/7z/kps_xzfj7sn5l5gkyq8s9db00000gn/T//ccH1k5kA.s 			page 61


 3310              	.LASF29:
 3311 0241 45455F46 		.ascii	"EE_Format\000"
 3311      6F726D61 
 3311      7400
 3312              	.LASF40:
 3313 024b 52656164 		.ascii	"ReadStatus\000"
 3313      53746174 
 3313      757300
 3314              	.LASF17:
 3315 0256 696E7433 		.ascii	"int32_t\000"
 3315      325F7400 
 3316              	.LASF19:
 3317 025e 73697A65 		.ascii	"sizetype\000"
 3317      74797065 
 3317      00
 3318              	.LASF11:
 3319 0267 6C6F6E67 		.ascii	"long long int\000"
 3319      206C6F6E 
 3319      6720696E 
 3319      7400
 3320              	.LASF28:
 3321 0275 464C4153 		.ascii	"FLASH_Status\000"
 3321      485F5374 
 3321      61747573 
 3321      00
 3322              	.LASF26:
 3323 0282 464C4153 		.ascii	"FLASH_ERROR_OPERATION\000"
 3323      485F4552 
 3323      524F525F 
 3323      4F504552 
 3323      4154494F 
 3324              	.LASF55:
 3325 0298 474E5520 		.ascii	"GNU C 4.9.3 20150303 (release) [ARM/embedded-4_9-br"
 3325      4320342E 
 3325      392E3320 
 3325      32303135 
 3325      30333033 
 3326 02cb 616E6368 		.ascii	"anch revision 221220] -mcpu=cortex-m4 -mfloat-abi=h"
 3326      20726576 
 3326      6973696F 
 3326      6E203232 
 3326      31323230 
 3327 02fe 61726420 		.ascii	"ard -mfpu=fpv4-sp-d16 -mno-thumb-interwork -mthumb "
 3327      2D6D6670 
 3327      753D6670 
 3327      76342D73 
 3327      702D6431 
 3328 0331 2D676764 		.ascii	"-ggdb -O2 -std=gnu99 -fomit-frame-pointer -falign-f"
 3328      62202D4F 
 3328      32202D73 
 3328      74643D67 
 3328      6E753939 
 3329 0364 756E6374 		.ascii	"unctions=16 -ffunction-sections -fdata-sections -fn"
 3329      696F6E73 
 3329      3D313620 
 3329      2D666675 
 3329      6E637469 
ARM GAS  /var/folders/7z/kps_xzfj7sn5l5gkyq8s9db00000gn/T//ccH1k5kA.s 			page 62


 3330 0397 6F2D636F 		.ascii	"o-common -fsingle-precision-constant\000"
 3330      6D6D6F6E 
 3330      202D6673 
 3330      696E676C 
 3330      652D7072 
 3331              	.LASF38:
 3332 03bc 50616765 		.ascii	"PageEndAddress\000"
 3332      456E6441 
 3332      64647265 
 3332      737300
 3333              	.LASF37:
 3334 03cb 41646472 		.ascii	"Address\000"
 3334      65737300 
 3335              	.LASF16:
 3336 03d3 75696E74 		.ascii	"uint16_t\000"
 3336      31365F74 
 3336      00
 3337              	.LASF32:
 3338 03dc 50616765 		.ascii	"PageStatus0\000"
 3338      53746174 
 3338      75733000 
 3339              	.LASF33:
 3340 03e8 50616765 		.ascii	"PageStatus1\000"
 3340      53746174 
 3340      75733100 
 3341              	.LASF18:
 3342 03f4 75696E74 		.ascii	"uint32_t\000"
 3342      33325F74 
 3342      00
 3343              	.LASF8:
 3344 03fd 6C6F6E67 		.ascii	"long int\000"
 3344      20696E74 
 3344      00
 3345              	.LASF0:
 3346 0406 7369676E 		.ascii	"signed char\000"
 3346      65642063 
 3346      68617200 
 3347              	.LASF42:
 3348 0412 45455F52 		.ascii	"EE_ReadVariable\000"
 3348      65616456 
 3348      61726961 
 3348      626C6500 
 3349              	.LASF45:
 3350 0422 45657072 		.ascii	"EepromStatus\000"
 3350      6F6D5374 
 3350      61747573 
 3350      00
 3351              	.LASF49:
 3352 042f 4F6C6450 		.ascii	"OldPageId\000"
 3352      61676549 
 3352      6400
 3353              	.LASF25:
 3354 0439 464C4153 		.ascii	"FLASH_ERROR_PROGRAM\000"
 3354      485F4552 
 3354      524F525F 
 3354      50524F47 
 3354      52414D00 
ARM GAS  /var/folders/7z/kps_xzfj7sn5l5gkyq8s9db00000gn/T//ccH1k5kA.s 			page 63


 3355              	.LASF34:
 3356 044d 56697274 		.ascii	"VirtAddress\000"
 3356      41646472 
 3356      65737300 
 3357              		.ident	"GCC: (GNU Tools for ARM Embedded Processors) 4.9.3 20150303 (release) [ARM/embedded-4_9-br
ARM GAS  /var/folders/7z/kps_xzfj7sn5l5gkyq8s9db00000gn/T//ccH1k5kA.s 			page 64


DEFINED SYMBOLS
                            *ABS*:0000000000000000 eeprom.c
/var/folders/7z/kps_xzfj7sn5l5gkyq8s9db00000gn/T//ccH1k5kA.s:21     .text.EE_VerifyPageFullWriteVariable:0000000000000000 $t
/var/folders/7z/kps_xzfj7sn5l5gkyq8s9db00000gn/T//ccH1k5kA.s:26     .text.EE_VerifyPageFullWriteVariable:0000000000000000 EE_VerifyPageFullWriteVariable
/var/folders/7z/kps_xzfj7sn5l5gkyq8s9db00000gn/T//ccH1k5kA.s:157    .text.EE_VerifyPageFullWriteVariable:0000000000000070 $d
/var/folders/7z/kps_xzfj7sn5l5gkyq8s9db00000gn/T//ccH1k5kA.s:164    .text.EE_Format:0000000000000000 $t
/var/folders/7z/kps_xzfj7sn5l5gkyq8s9db00000gn/T//ccH1k5kA.s:169    .text.EE_Format:0000000000000000 EE_Format
/var/folders/7z/kps_xzfj7sn5l5gkyq8s9db00000gn/T//ccH1k5kA.s:222    .text.EE_Format:0000000000000028 $d
/var/folders/7z/kps_xzfj7sn5l5gkyq8s9db00000gn/T//ccH1k5kA.s:229    .text.EE_ReadVariable:0000000000000000 $t
/var/folders/7z/kps_xzfj7sn5l5gkyq8s9db00000gn/T//ccH1k5kA.s:235    .text.EE_ReadVariable:0000000000000000 EE_ReadVariable
/var/folders/7z/kps_xzfj7sn5l5gkyq8s9db00000gn/T//ccH1k5kA.s:362    .text.EE_ReadVariable:0000000000000058 $d
/var/folders/7z/kps_xzfj7sn5l5gkyq8s9db00000gn/T//ccH1k5kA.s:372    .text.EE_Init:0000000000000000 $t
/var/folders/7z/kps_xzfj7sn5l5gkyq8s9db00000gn/T//ccH1k5kA.s:378    .text.EE_Init:0000000000000000 EE_Init
/var/folders/7z/kps_xzfj7sn5l5gkyq8s9db00000gn/T//ccH1k5kA.s:635    .text.EE_Init:0000000000000148 $d
/var/folders/7z/kps_xzfj7sn5l5gkyq8s9db00000gn/T//ccH1k5kA.s:645    .text.EE_WriteVariable:0000000000000000 $t
/var/folders/7z/kps_xzfj7sn5l5gkyq8s9db00000gn/T//ccH1k5kA.s:651    .text.EE_WriteVariable:0000000000000000 EE_WriteVariable
/var/folders/7z/kps_xzfj7sn5l5gkyq8s9db00000gn/T//ccH1k5kA.s:820    .text.EE_WriteVariable:00000000000000ac $d
/var/folders/7z/kps_xzfj7sn5l5gkyq8s9db00000gn/T//ccH1k5kA.s:835    .bss.DataVar:0000000000000000 DataVar
/var/folders/7z/kps_xzfj7sn5l5gkyq8s9db00000gn/T//ccH1k5kA.s:831    .bss.DataVar:0000000000000000 $d
                     .debug_frame:0000000000000010 $d
/var/folders/7z/kps_xzfj7sn5l5gkyq8s9db00000gn/T//ccH1k5kA.s:163    .text.EE_VerifyPageFullWriteVariable:000000000000007c $t
/var/folders/7z/kps_xzfj7sn5l5gkyq8s9db00000gn/T//ccH1k5kA.s:228    .text.EE_Format:000000000000002c $t
/var/folders/7z/kps_xzfj7sn5l5gkyq8s9db00000gn/T//ccH1k5kA.s:830    .text.EE_WriteVariable:00000000000000bc $t

UNDEFINED SYMBOLS
FLASH_ProgramHalfWord
FLASH_EraseSector
VirtAddVarTab
