ARM GAS  /var/folders/7z/kps_xzfj7sn5l5gkyq8s9db00000gn/T//ccuyyZBw.s 			page 1


   1              		.syntax unified
   2              		.cpu cortex-m4
   3              		.eabi_attribute 27, 1
   4              		.eabi_attribute 28, 1
   5              		.fpu fpv4-sp-d16
   6              		.eabi_attribute 20, 1
   7              		.eabi_attribute 21, 1
   8              		.eabi_attribute 23, 3
   9              		.eabi_attribute 24, 1
  10              		.eabi_attribute 25, 1
  11              		.eabi_attribute 26, 1
  12              		.eabi_attribute 30, 2
  13              		.eabi_attribute 34, 1
  14              		.eabi_attribute 18, 4
  15              		.thumb
  16              		.file	"memstreams.c"
  17              		.text
  18              	.Ltext0:
  19              		.cfi_sections	.debug_frame
  20              		.section	.text.put,"ax",%progbits
  21              		.align	2
  22              		.p2align 4,,15
  23              		.thumb
  24              		.thumb_func
  25              		.type	put, %function
  26              	put:
  27              	.LFB9:
  28              		.file 1 "lib/ChibiOS_2.6.6/os/various/memstreams.c"
  29              		.loc 1 66 0
  30              		.cfi_startproc
  31              		@ args = 0, pretend = 0, frame = 0
  32              		@ frame_needed = 0, uses_anonymous_args = 0
  33              		@ link register save eliminated.
  34              	.LVL0:
  35              		.loc 1 69 0
  36 0000 C368     		ldr	r3, [r0, #12]
  37 0002 8268     		ldr	r2, [r0, #8]
  38 0004 9A42     		cmp	r2, r3
  39 0006 06D0     		beq	.L3
  40              		.loc 1 71 0
  41 0008 4268     		ldr	r2, [r0, #4]
  42 000a D154     		strb	r1, [r2, r3]
  43              		.loc 1 72 0
  44 000c C368     		ldr	r3, [r0, #12]
  45 000e 0133     		adds	r3, r3, #1
  46 0010 C360     		str	r3, [r0, #12]
  47              		.loc 1 73 0
  48 0012 0020     		movs	r0, #0
  49              	.LVL1:
  50 0014 7047     		bx	lr
  51              	.LVL2:
  52              	.L3:
  53              		.loc 1 70 0
  54 0016 6FF00100 		mvn	r0, #1
  55              	.LVL3:
  56              		.loc 1 74 0
  57 001a 7047     		bx	lr
ARM GAS  /var/folders/7z/kps_xzfj7sn5l5gkyq8s9db00000gn/T//ccuyyZBw.s 			page 2


  58              		.cfi_endproc
  59              	.LFE9:
  60              		.size	put, .-put
  61 001c AFF30080 		.section	.text.get,"ax",%progbits
  62              		.align	2
  63              		.p2align 4,,15
  64              		.thumb
  65              		.thumb_func
  66              		.type	get, %function
  67              	get:
  68              	.LFB10:
  69              		.loc 1 76 0
  70              		.cfi_startproc
  71              		@ args = 0, pretend = 0, frame = 0
  72              		@ frame_needed = 0, uses_anonymous_args = 0
  73              		@ link register save eliminated.
  74              	.LVL4:
  75              		.loc 1 80 0
  76 0000 0369     		ldr	r3, [r0, #16]
  77 0002 C168     		ldr	r1, [r0, #12]
  78 0004 9942     		cmp	r1, r3
  79              		.loc 1 76 0
  80 0006 0246     		mov	r2, r0
  81              	.LVL5:
  82              		.loc 1 80 0
  83 0008 04D0     		beq	.L7
  84              		.loc 1 82 0
  85 000a 4168     		ldr	r1, [r0, #4]
  86 000c C85C     		ldrb	r0, [r1, r3]	@ zero_extendqisi2
  87              	.LVL6:
  88              		.loc 1 83 0
  89 000e 0133     		adds	r3, r3, #1
  90 0010 1361     		str	r3, [r2, #16]
  91              		.loc 1 84 0
  92 0012 7047     		bx	lr
  93              	.LVL7:
  94              	.L7:
  95              		.loc 1 81 0
  96 0014 6FF00100 		mvn	r0, #1
  97              	.LVL8:
  98              		.loc 1 85 0
  99 0018 7047     		bx	lr
 100              		.cfi_endproc
 101              	.LFE10:
 102              		.size	get, .-get
 103 001a 00BFAFF3 		.section	.text.reads,"ax",%progbits
 103      0080
 104              		.align	2
 105              		.p2align 4,,15
 106              		.thumb
 107              		.thumb_func
 108              		.type	reads, %function
 109              	reads:
 110              	.LFB8:
 111              		.loc 1 56 0
 112              		.cfi_startproc
 113              		@ args = 0, pretend = 0, frame = 0
ARM GAS  /var/folders/7z/kps_xzfj7sn5l5gkyq8s9db00000gn/T//ccuyyZBw.s 			page 3


 114              		@ frame_needed = 0, uses_anonymous_args = 0
 115              	.LVL9:
 116 0000 38B5     		push	{r3, r4, r5, lr}
 117              		.cfi_def_cfa_offset 16
 118              		.cfi_offset 3, -16
 119              		.cfi_offset 4, -12
 120              		.cfi_offset 5, -8
 121              		.cfi_offset 14, -4
 122              		.loc 1 56 0
 123 0002 0546     		mov	r5, r0
 124              	.LVL10:
 125              		.loc 1 61 0
 126 0004 0846     		mov	r0, r1
 127              	.LVL11:
 128              		.loc 1 59 0
 129 0006 2B69     		ldr	r3, [r5, #16]
 130 0008 EC68     		ldr	r4, [r5, #12]
 131              		.loc 1 61 0
 132 000a 6968     		ldr	r1, [r5, #4]
 133              	.LVL12:
 134              		.loc 1 59 0
 135 000c E41A     		subs	r4, r4, r3
 136 000e 9442     		cmp	r4, r2
 137 0010 28BF     		it	cs
 138 0012 1446     		movcs	r4, r2
 139              	.LVL13:
 140              		.loc 1 61 0
 141 0014 1944     		add	r1, r1, r3
 142 0016 2246     		mov	r2, r4
 143 0018 FFF7FEFF 		bl	memcpy
 144              	.LVL14:
 145              		.loc 1 62 0
 146 001c 2B69     		ldr	r3, [r5, #16]
 147 001e 2344     		add	r3, r3, r4
 148 0020 2B61     		str	r3, [r5, #16]
 149              		.loc 1 64 0
 150 0022 2046     		mov	r0, r4
 151 0024 38BD     		pop	{r3, r4, r5, pc}
 152              		.cfi_endproc
 153              	.LFE8:
 154              		.size	reads, .-reads
 155 0026 00BFAFF3 		.section	.text.writes,"ax",%progbits
 155      0080AFF3 
 155      0080
 156              		.align	2
 157              		.p2align 4,,15
 158              		.thumb
 159              		.thumb_func
 160              		.type	writes, %function
 161              	writes:
 162              	.LFB7:
 163              		.loc 1 46 0
 164              		.cfi_startproc
 165              		@ args = 0, pretend = 0, frame = 0
 166              		@ frame_needed = 0, uses_anonymous_args = 0
 167              	.LVL15:
 168 0000 38B5     		push	{r3, r4, r5, lr}
ARM GAS  /var/folders/7z/kps_xzfj7sn5l5gkyq8s9db00000gn/T//ccuyyZBw.s 			page 4


 169              		.cfi_def_cfa_offset 16
 170              		.cfi_offset 3, -16
 171              		.cfi_offset 4, -12
 172              		.cfi_offset 5, -8
 173              		.cfi_offset 14, -4
 174              		.loc 1 49 0
 175 0002 C368     		ldr	r3, [r0, #12]
 176 0004 8468     		ldr	r4, [r0, #8]
 177 0006 E41A     		subs	r4, r4, r3
 178              		.loc 1 46 0
 179 0008 0546     		mov	r5, r0
 180              	.LVL16:
 181 000a 9442     		cmp	r4, r2
 182              		.loc 1 51 0
 183 000c 4068     		ldr	r0, [r0, #4]
 184              	.LVL17:
 185 000e 28BF     		it	cs
 186 0010 1446     		movcs	r4, r2
 187              	.LVL18:
 188 0012 1844     		add	r0, r0, r3
 189 0014 2246     		mov	r2, r4
 190 0016 FFF7FEFF 		bl	memcpy
 191              	.LVL19:
 192              		.loc 1 52 0
 193 001a EB68     		ldr	r3, [r5, #12]
 194 001c 2344     		add	r3, r3, r4
 195 001e EB60     		str	r3, [r5, #12]
 196              		.loc 1 54 0
 197 0020 2046     		mov	r0, r4
 198 0022 38BD     		pop	{r3, r4, r5, pc}
 199              		.cfi_endproc
 200              	.LFE7:
 201              		.size	writes, .-writes
 202 0024 AFF30080 		.section	.text.msObjectInit,"ax",%progbits
 202      AFF30080 
 202      AFF30080 
 203              		.align	2
 204              		.p2align 4,,15
 205              		.global	msObjectInit
 206              		.thumb
 207              		.thumb_func
 208              		.type	msObjectInit, %function
 209              	msObjectInit:
 210              	.LFB11:
 211              		.loc 1 104 0
 212              		.cfi_startproc
 213              		@ args = 0, pretend = 0, frame = 0
 214              		@ frame_needed = 0, uses_anonymous_args = 0
 215              		@ link register save eliminated.
 216              	.LVL20:
 217 0000 10B4     		push	{r4}
 218              		.cfi_def_cfa_offset 4
 219              		.cfi_offset 4, -4
 220              		.loc 1 107 0
 221 0002 4160     		str	r1, [r0, #4]
 222              		.loc 1 106 0
 223 0004 044C     		ldr	r4, .L14
ARM GAS  /var/folders/7z/kps_xzfj7sn5l5gkyq8s9db00000gn/T//ccuyyZBw.s 			page 5


 224 0006 0460     		str	r4, [r0]
 225              		.loc 1 110 0
 226 0008 0021     		movs	r1, #0
 227              	.LVL21:
 228              		.loc 1 108 0
 229 000a 8260     		str	r2, [r0, #8]
 230              		.loc 1 109 0
 231 000c C360     		str	r3, [r0, #12]
 232              		.loc 1 110 0
 233 000e 0161     		str	r1, [r0, #16]
 234              		.loc 1 111 0
 235 0010 5DF8044B 		ldr	r4, [sp], #4
 236              		.cfi_restore 4
 237              		.cfi_def_cfa_offset 0
 238 0014 7047     		bx	lr
 239              	.L15:
 240 0016 00BF     		.align	2
 241              	.L14:
 242 0018 00000000 		.word	.LANCHOR0
 243              		.cfi_endproc
 244              	.LFE11:
 245              		.size	msObjectInit, .-msObjectInit
 246 001c AFF30080 		.section	.rodata.vmt,"a",%progbits
 247              		.align	2
 248              		.set	.LANCHOR0,. + 0
 249              		.type	vmt, %object
 250              		.size	vmt, 16
 251              	vmt:
 252 0000 00000000 		.word	writes
 253 0004 00000000 		.word	reads
 254 0008 00000000 		.word	put
 255 000c 00000000 		.word	get
 256              		.text
 257              	.Letext0:
 258              		.file 2 "/Users/Baram/gcc-arm-none-eabi/lib/gcc/arm-none-eabi/4.9.3/include/stddef.h"
 259              		.file 3 "/Users/Baram/gcc-arm-none-eabi/arm-none-eabi/include/machine/_default_types.h"
 260              		.file 4 "/Users/Baram/gcc-arm-none-eabi/arm-none-eabi/include/stdint.h"
 261              		.file 5 "lib/ChibiOS_2.6.6/os/ports/GCC/ARMCMx/chtypes.h"
 262              		.file 6 "lib/ChibiOS_2.6.6/os/various/memstreams.h"