ARM GAS  /var/folders/7z/kps_xzfj7sn5l5gkyq8s9db00000gn/T//ccohtrLk.s 			page 1


   1              		.syntax unified
   2              		.cpu cortex-m4
   3              		.eabi_attribute 27, 1
   4              		.eabi_attribute 28, 1
   5              		.fpu fpv4-sp-d16
   6              		.eabi_attribute 20, 1
   7              		.eabi_attribute 21, 1
   8              		.eabi_attribute 23, 3
   9              		.eabi_attribute 24, 1
  10              		.eabi_attribute 25, 1
  11              		.eabi_attribute 26, 1
  12              		.eabi_attribute 30, 2
  13              		.eabi_attribute 34, 1
  14              		.eabi_attribute 18, 4
  15              		.thumb
  16              		.file	"misc.c"
  17              		.text
  18              	.Ltext0:
  19              		.cfi_sections	.debug_frame
  20              		.section	.text.NVIC_PriorityGroupConfig,"ax",%progbits
  21              		.align	2
  22              		.p2align 4,,15
  23              		.global	NVIC_PriorityGroupConfig
  24              		.thumb
  25              		.thumb_func
  26              		.type	NVIC_PriorityGroupConfig, %function
  27              	NVIC_PriorityGroupConfig:
  28              	.LFB111:
  29              		.file 1 "lib/ChibiOS_2.6.6/ext/stdperiph_stm32f4/src/misc.c"
  30              		.loc 1 119 0
  31              		.cfi_startproc
  32              		@ args = 0, pretend = 0, frame = 0
  33              		@ frame_needed = 0, uses_anonymous_args = 0
  34              		@ link register save eliminated.
  35              	.LVL0:
  36              		.loc 1 124 0
  37 0000 40F0BF60 		orr	r0, r0, #100139008
  38              	.LVL1:
  39 0004 024B     		ldr	r3, .L2
  40 0006 40F40030 		orr	r0, r0, #131072
  41 000a D860     		str	r0, [r3, #12]
  42 000c 7047     		bx	lr
  43              	.L3:
  44 000e 00BF     		.align	2
  45              	.L2:
  46 0010 00ED00E0 		.word	-536810240
  47              		.cfi_endproc
  48              	.LFE111:
  49              		.size	NVIC_PriorityGroupConfig, .-NVIC_PriorityGroupConfig
  50 0014 AFF30080 		.section	.text.NVIC_Init,"ax",%progbits
  50      AFF30080 
  50      AFF30080 
  51              		.align	2
  52              		.p2align 4,,15
  53              		.global	NVIC_Init
  54              		.thumb
  55              		.thumb_func
ARM GAS  /var/folders/7z/kps_xzfj7sn5l5gkyq8s9db00000gn/T//ccohtrLk.s 			page 2


  56              		.type	NVIC_Init, %function
  57              	NVIC_Init:
  58              	.LFB112:
  59              		.loc 1 137 0
  60              		.cfi_startproc
  61              		@ args = 0, pretend = 0, frame = 0
  62              		@ frame_needed = 0, uses_anonymous_args = 0
  63              		@ link register save eliminated.
  64              	.LVL2:
  65              		.loc 1 145 0
  66 0000 C378     		ldrb	r3, [r0, #3]	@ zero_extendqisi2
  67 0002 5BB9     		cbnz	r3, .L10
  68              		.loc 1 166 0
  69 0004 0378     		ldrb	r3, [r0]	@ zero_extendqisi2
  70 0006 1848     		ldr	r0, .L11
  71              	.LVL3:
  72 0008 5A09     		lsrs	r2, r3, #5
  73 000a 2032     		adds	r2, r2, #32
  74              		.loc 1 167 0
  75 000c 03F01F03 		and	r3, r3, #31
  76 0010 0121     		movs	r1, #1
  77 0012 01FA03F3 		lsl	r3, r1, r3
  78              		.loc 1 166 0
  79 0016 40F82230 		str	r3, [r0, r2, lsl #2]
  80 001a 7047     		bx	lr
  81              	.LVL4:
  82              	.L10:
  83              		.loc 1 148 0
  84 001c 134B     		ldr	r3, .L11+4
  85              		.loc 1 137 0
  86 001e F0B4     		push	{r4, r5, r6, r7}
  87              		.cfi_def_cfa_offset 16
  88              		.cfi_offset 4, -16
  89              		.cfi_offset 5, -12
  90              		.cfi_offset 6, -8
  91              		.cfi_offset 7, -4
  92              		.loc 1 148 0
  93 0020 D968     		ldr	r1, [r3, #12]
  94              		.loc 1 152 0
  95 0022 4578     		ldrb	r5, [r0, #1]	@ zero_extendqisi2
  96              		.loc 1 153 0
  97 0024 8278     		ldrb	r2, [r0, #2]	@ zero_extendqisi2
  98              		.loc 1 157 0
  99 0026 0478     		ldrb	r4, [r0]	@ zero_extendqisi2
 100 0028 0F4E     		ldr	r6, .L11
 101              		.loc 1 148 0
 102 002a C943     		mvns	r1, r1
 103 002c C1F30221 		ubfx	r1, r1, #8, #3
 104              	.LVL5:
 105              		.loc 1 149 0
 106 0030 C1F10407 		rsb	r7, r1, #4
 107              		.loc 1 152 0
 108 0034 FFB2     		uxtb	r7, r7
 109              		.loc 1 150 0
 110 0036 0F23     		movs	r3, #15
 111              		.loc 1 152 0
 112 0038 BD40     		lsls	r5, r5, r7
ARM GAS  /var/folders/7z/kps_xzfj7sn5l5gkyq8s9db00000gn/T//ccohtrLk.s 			page 3


 113              		.loc 1 150 0
 114 003a 0B41     		asrs	r3, r3, r1
 115              		.loc 1 153 0
 116 003c 1340     		ands	r3, r3, r2
 117              		.loc 1 152 0
 118 003e E9B2     		uxtb	r1, r5
 119              	.LVL6:
 120              		.loc 1 153 0
 121 0040 0B43     		orrs	r3, r3, r1
 122              	.LVL7:
 123              		.loc 1 157 0
 124 0042 04F16042 		add	r2, r4, #-536870912
 125 0046 02F56142 		add	r2, r2, #57600
 126              		.loc 1 155 0
 127 004a 1B01     		lsls	r3, r3, #4
 128              	.LVL8:
 129 004c DBB2     		uxtb	r3, r3
 130              	.LVL9:
 131              		.loc 1 157 0
 132 004e 82F80033 		strb	r3, [r2, #768]
 133              		.loc 1 160 0
 134 0052 0378     		ldrb	r3, [r0]	@ zero_extendqisi2
 135              	.LVL10:
 136              		.loc 1 161 0
 137 0054 0122     		movs	r2, #1
 138              	.LVL11:
 139 0056 03F01F01 		and	r1, r3, #31
 140              		.loc 1 160 0
 141 005a 5B09     		lsrs	r3, r3, #5
 142              		.loc 1 161 0
 143 005c 8A40     		lsls	r2, r2, r1
 144              		.loc 1 160 0
 145 005e 46F82320 		str	r2, [r6, r3, lsl #2]
 146              	.LVL12:
 147              		.loc 1 169 0
 148 0062 F0BC     		pop	{r4, r5, r6, r7}
 149              		.cfi_restore 7
 150              		.cfi_restore 6
 151              		.cfi_restore 5
 152              		.cfi_restore 4
 153              		.cfi_def_cfa_offset 0
 154 0064 7047     		bx	lr
 155              	.L12:
 156 0066 00BF     		.align	2
 157              	.L11:
 158 0068 00E100E0 		.word	-536813312
 159 006c 00ED00E0 		.word	-536810240
 160              		.cfi_endproc
 161              	.LFE112:
 162              		.size	NVIC_Init, .-NVIC_Init
 163              		.section	.text.NVIC_SetVectorTable,"ax",%progbits
 164              		.align	2
 165              		.p2align 4,,15
 166              		.global	NVIC_SetVectorTable
 167              		.thumb
 168              		.thumb_func
 169              		.type	NVIC_SetVectorTable, %function
ARM GAS  /var/folders/7z/kps_xzfj7sn5l5gkyq8s9db00000gn/T//ccohtrLk.s 			page 4


 170              	NVIC_SetVectorTable:
 171              	.LFB113:
 172              		.loc 1 181 0
 173              		.cfi_startproc
 174              		@ args = 0, pretend = 0, frame = 0
 175              		@ frame_needed = 0, uses_anonymous_args = 0
 176              		@ link register save eliminated.
 177              	.LVL13:
 178              		.loc 1 186 0
 179 0000 21F06041 		bic	r1, r1, #-536870912
 180              	.LVL14:
 181 0004 21F07F01 		bic	r1, r1, #127
 182 0008 014B     		ldr	r3, .L14
 183 000a 0843     		orrs	r0, r0, r1
 184              	.LVL15:
 185 000c 9860     		str	r0, [r3, #8]
 186 000e 7047     		bx	lr
 187              	.L15:
 188              		.align	2
 189              	.L14:
 190 0010 00ED00E0 		.word	-536810240
 191              		.cfi_endproc
 192              	.LFE113:
 193              		.size	NVIC_SetVectorTable, .-NVIC_SetVectorTable
 194 0014 AFF30080 		.section	.text.NVIC_SystemLPConfig,"ax",%progbits
 194      AFF30080 
 194      AFF30080 
 195              		.align	2
 196              		.p2align 4,,15
 197              		.global	NVIC_SystemLPConfig
 198              		.thumb
 199              		.thumb_func
 200              		.type	NVIC_SystemLPConfig, %function
 201              	NVIC_SystemLPConfig:
 202              	.LFB114:
 203              		.loc 1 200 0
 204              		.cfi_startproc
 205              		@ args = 0, pretend = 0, frame = 0
 206              		@ frame_needed = 0, uses_anonymous_args = 0
 207              		@ link register save eliminated.
 208              	.LVL16:
 209              		.loc 1 207 0
 210 0000 044A     		ldr	r2, .L20
 211 0002 1369     		ldr	r3, [r2, #16]
 212              		.loc 1 205 0
 213 0004 19B9     		cbnz	r1, .L19
 214              		.loc 1 211 0
 215 0006 23EA0000 		bic	r0, r3, r0
 216              	.LVL17:
 217 000a 1061     		str	r0, [r2, #16]
 218 000c 7047     		bx	lr
 219              	.LVL18:
 220              	.L19:
 221              		.loc 1 207 0
 222 000e 1843     		orrs	r0, r0, r3
 223              	.LVL19:
 224 0010 1061     		str	r0, [r2, #16]
ARM GAS  /var/folders/7z/kps_xzfj7sn5l5gkyq8s9db00000gn/T//ccohtrLk.s 			page 5


 225 0012 7047     		bx	lr
 226              	.L21:
 227              		.align	2
 228              	.L20:
 229 0014 00ED00E0 		.word	-536810240
 230              		.cfi_endproc
 231              	.LFE114:
 232              		.size	NVIC_SystemLPConfig, .-NVIC_SystemLPConfig
 233 0018 AFF30080 		.section	.text.SysTick_CLKSourceConfig,"ax",%progbits
 233      AFF30080 
 234              		.align	2
 235              		.p2align 4,,15
 236              		.global	SysTick_CLKSourceConfig
 237              		.thumb
 238              		.thumb_func
 239              		.type	SysTick_CLKSourceConfig, %function
 240              	SysTick_CLKSourceConfig:
 241              	.LFB115:
 242              		.loc 1 224 0
 243              		.cfi_startproc
 244              		@ args = 0, pretend = 0, frame = 0
 245              		@ frame_needed = 0, uses_anonymous_args = 0
 246              		@ link register save eliminated.
 247              	.LVL20:
 248              		.loc 1 229 0
 249 0000 044A     		ldr	r2, .L25
 250 0002 1368     		ldr	r3, [r2]
 251              		.loc 1 227 0
 252 0004 0428     		cmp	r0, #4
 253              		.loc 1 229 0
 254 0006 0CBF     		ite	eq
 255 0008 43F00403 		orreq	r3, r3, #4
 256              		.loc 1 233 0
 257 000c 23F00403 		bicne	r3, r3, #4
 258 0010 1360     		str	r3, [r2]
 259 0012 7047     		bx	lr
 260              	.L26:
 261              		.align	2
 262              	.L25:
 263 0014 10E000E0 		.word	-536813552
 264              		.cfi_endproc
 265              	.LFE115:
 266              		.size	SysTick_CLKSourceConfig, .-SysTick_CLKSourceConfig
 267 0018 AFF30080 		.text
 267      AFF30080 
 268              	.Letext0:
 269              		.file 2 "/Users/Baram/gcc-arm-none-eabi/arm-none-eabi/include/machine/_default_types.h"
 270              		.file 3 "/Users/Baram/gcc-arm-none-eabi/arm-none-eabi/include/stdint.h"
 271              		.file 4 "lib/ChibiOS_2.6.6/os/ports/common/ARMCMx/CMSIS/include/core_cm4.h"
 272              		.file 5 "lib/ChibiOS_2.6.6/os/hal/platforms/STM32F4xx/stm32f4xx.h"
 273              		.file 6 "lib/ChibiOS_2.6.6/ext/stdperiph_stm32f4/inc/misc.h"