ARM GAS  /var/folders/7z/kps_xzfj7sn5l5gkyq8s9db00000gn/T//ccohtrLk.s 			page 1


   1              		.syntax unified
   2              		.cpu cortex-m4
   3              		.eabi_attribute 27, 1
   4              		.eabi_attribute 28, 1
   5              		.fpu fpv4-sp-d16
   6              		.eabi_attribute 20, 1
   7              		.eabi_attribute 21, 1
   8              		.eabi_attribute 23, 3
   9              		.eabi_attribute 24, 1
  10              		.eabi_attribute 25, 1
  11              		.eabi_attribute 26, 1
  12              		.eabi_attribute 30, 2
  13              		.eabi_attribute 34, 1
  14              		.eabi_attribute 18, 4
  15              		.thumb
  16              		.file	"misc.c"
  17              		.text
  18              	.Ltext0:
  19              		.cfi_sections	.debug_frame
  20              		.section	.text.NVIC_PriorityGroupConfig,"ax",%progbits
  21              		.align	2
  22              		.p2align 4,,15
  23              		.global	NVIC_PriorityGroupConfig
  24              		.thumb
  25              		.thumb_func
  26              		.type	NVIC_PriorityGroupConfig, %function
  27              	NVIC_PriorityGroupConfig:
  28              	.LFB111:
  29              		.file 1 "lib/ChibiOS_2.6.6/ext/stdperiph_stm32f4/src/misc.c"
  30              		.loc 1 119 0
  31              		.cfi_startproc
  32              		@ args = 0, pretend = 0, frame = 0
  33              		@ frame_needed = 0, uses_anonymous_args = 0
  34              		@ link register save eliminated.
  35              	.LVL0:
  36              		.loc 1 124 0
  37 0000 40F0BF60 		orr	r0, r0, #100139008
  38              	.LVL1:
  39 0004 024B     		ldr	r3, .L2
  40 0006 40F40030 		orr	r0, r0, #131072
  41 000a D860     		str	r0, [r3, #12]
  42 000c 7047     		bx	lr
  43              	.L3:
  44 000e 00BF     		.align	2
  45              	.L2:
  46 0010 00ED00E0 		.word	-536810240
  47              		.cfi_endproc
  48              	.LFE111:
  49              		.size	NVIC_PriorityGroupConfig, .-NVIC_PriorityGroupConfig
  50 0014 AFF30080 		.section	.text.NVIC_Init,"ax",%progbits
  50      AFF30080 
  50      AFF30080 
  51              		.align	2
  52              		.p2align 4,,15
  53              		.global	NVIC_Init
  54              		.thumb
  55              		.thumb_func
ARM GAS  /var/folders/7z/kps_xzfj7sn5l5gkyq8s9db00000gn/T//ccohtrLk.s 			page 2


  56              		.type	NVIC_Init, %function
  57              	NVIC_Init:
  58              	.LFB112:
  59              		.loc 1 137 0
  60              		.cfi_startproc
  61              		@ args = 0, pretend = 0, frame = 0
  62              		@ frame_needed = 0, uses_anonymous_args = 0
  63              		@ link register save eliminated.
  64              	.LVL2:
  65              		.loc 1 145 0
  66 0000 C378     		ldrb	r3, [r0, #3]	@ zero_extendqisi2
  67 0002 5BB9     		cbnz	r3, .L10
  68              		.loc 1 166 0
  69 0004 0378     		ldrb	r3, [r0]	@ zero_extendqisi2
  70 0006 1848     		ldr	r0, .L11
  71              	.LVL3:
  72 0008 5A09     		lsrs	r2, r3, #5
  73 000a 2032     		adds	r2, r2, #32
  74              		.loc 1 167 0
  75 000c 03F01F03 		and	r3, r3, #31
  76 0010 0121     		movs	r1, #1
  77 0012 01FA03F3 		lsl	r3, r1, r3
  78              		.loc 1 166 0
  79 0016 40F82230 		str	r3, [r0, r2, lsl #2]
  80 001a 7047     		bx	lr
  81              	.LVL4:
  82              	.L10:
  83              		.loc 1 148 0
  84 001c 134B     		ldr	r3, .L11+4
  85              		.loc 1 137 0
  86 001e F0B4     		push	{r4, r5, r6, r7}
  87              		.cfi_def_cfa_offset 16
  88              		.cfi_offset 4, -16
  89              		.cfi_offset 5, -12
  90              		.cfi_offset 6, -8
  91              		.cfi_offset 7, -4
  92              		.loc 1 148 0
  93 0020 D968     		ldr	r1, [r3, #12]
  94              		.loc 1 152 0
  95 0022 4578     		ldrb	r5, [r0, #1]	@ zero_extendqisi2
  96              		.loc 1 153 0
  97 0024 8278     		ldrb	r2, [r0, #2]	@ zero_extendqisi2
  98              		.loc 1 157 0
  99 0026 0478     		ldrb	r4, [r0]	@ zero_extendqisi2
 100 0028 0F4E     		ldr	r6, .L11
 101              		.loc 1 148 0
 102 002a C943     		mvns	r1, r1
 103 002c C1F30221 		ubfx	r1, r1, #8, #3
 104              	.LVL5:
 105              		.loc 1 149 0
 106 0030 C1F10407 		rsb	r7, r1, #4
 107              		.loc 1 152 0
 108 0034 FFB2     		uxtb	r7, r7
 109              		.loc 1 150 0
 110 0036 0F23     		movs	r3, #15
 111              		.loc 1 152 0
 112 0038 BD40     		lsls	r5, r5, r7
ARM GAS  /var/folders/7z/kps_xzfj7sn5l5gkyq8s9db00000gn/T//ccohtrLk.s 			page 3


 113              		.loc 1 150 0
 114 003a 0B41     		asrs	r3, r3, r1
 115              		.loc 1 153 0
 116 003c 1340     		ands	r3, r3, r2
 117              		.loc 1 152 0
 118 003e E9B2     		uxtb	r1, r5
 119              	.LVL6:
 120              		.loc 1 153 0
 121 0040 0B43     		orrs	r3, r3, r1
 122              	.LVL7:
 123              		.loc 1 157 0
 124 0042 04F16042 		add	r2, r4, #-536870912
 125 0046 02F56142 		add	r2, r2, #57600
 126              		.loc 1 155 0
 127 004a 1B01     		lsls	r3, r3, #4
 128              	.LVL8:
 129 004c DBB2     		uxtb	r3, r3
 130              	.LVL9:
 131              		.loc 1 157 0
 132 004e 82F80033 		strb	r3, [r2, #768]
 133              		.loc 1 160 0
 134 0052 0378     		ldrb	r3, [r0]	@ zero_extendqisi2
 135              	.LVL10:
 136              		.loc 1 161 0
 137 0054 0122     		movs	r2, #1
 138              	.LVL11:
 139 0056 03F01F01 		and	r1, r3, #31
 140              		.loc 1 160 0
 141 005a 5B09     		lsrs	r3, r3, #5
 142              		.loc 1 161 0
 143 005c 8A40     		lsls	r2, r2, r1
 144              		.loc 1 160 0
 145 005e 46F82320 		str	r2, [r6, r3, lsl #2]
 146              	.LVL12:
 147              		.loc 1 169 0
 148 0062 F0BC     		pop	{r4, r5, r6, r7}
 149              		.cfi_restore 7
 150              		.cfi_restore 6
 151              		.cfi_restore 5
 152              		.cfi_restore 4
 153              		.cfi_def_cfa_offset 0
 154 0064 7047     		bx	lr
 155              	.L12:
 156 0066 00BF     		.align	2
 157              	.L11:
 158 0068 00E100E0 		.word	-536813312
 159 006c 00ED00E0 		.word	-536810240
 160              		.cfi_endproc
 161              	.LFE112:
 162              		.size	NVIC_Init, .-NVIC_Init
 163              		.section	.text.NVIC_SetVectorTable,"ax",%progbits
 164              		.align	2
 165              		.p2align 4,,15
 166              		.global	NVIC_SetVectorTable
 167              		.thumb
 168              		.thumb_func
 169              		.type	NVIC_SetVectorTable, %function
ARM GAS  /var/folders/7z/kps_xzfj7sn5l5gkyq8s9db00000gn/T//ccohtrLk.s 			page 4


 170              	NVIC_SetVectorTable:
 171              	.LFB113:
 172              		.loc 1 181 0
 173              		.cfi_startproc
 174              		@ args = 0, pretend = 0, frame = 0
 175              		@ frame_needed = 0, uses_anonymous_args = 0
 176              		@ link register save eliminated.
 177              	.LVL13:
 178              		.loc 1 186 0
 179 0000 21F06041 		bic	r1, r1, #-536870912
 180              	.LVL14:
 181 0004 21F07F01 		bic	r1, r1, #127
 182 0008 014B     		ldr	r3, .L14
 183 000a 0843     		orrs	r0, r0, r1
 184              	.LVL15:
 185 000c 9860     		str	r0, [r3, #8]
 186 000e 7047     		bx	lr
 187              	.L15:
 188              		.align	2
 189              	.L14:
 190 0010 00ED00E0 		.word	-536810240
 191              		.cfi_endproc
 192              	.LFE113:
 193              		.size	NVIC_SetVectorTable, .-NVIC_SetVectorTable
 194 0014 AFF30080 		.section	.text.NVIC_SystemLPConfig,"ax",%progbits
 194      AFF30080 
 194      AFF30080 
 195              		.align	2
 196              		.p2align 4,,15
 197              		.global	NVIC_SystemLPConfig
 198              		.thumb
 199              		.thumb_func
 200              		.type	NVIC_SystemLPConfig, %function
 201              	NVIC_SystemLPConfig:
 202              	.LFB114:
 203              		.loc 1 200 0
 204              		.cfi_startproc
 205              		@ args = 0, pretend = 0, frame = 0
 206              		@ frame_needed = 0, uses_anonymous_args = 0
 207              		@ link register save eliminated.
 208              	.LVL16:
 209              		.loc 1 207 0
 210 0000 044A     		ldr	r2, .L20
 211 0002 1369     		ldr	r3, [r2, #16]
 212              		.loc 1 205 0
 213 0004 19B9     		cbnz	r1, .L19
 214              		.loc 1 211 0
 215 0006 23EA0000 		bic	r0, r3, r0
 216              	.LVL17:
 217 000a 1061     		str	r0, [r2, #16]
 218 000c 7047     		bx	lr
 219              	.LVL18:
 220              	.L19:
 221              		.loc 1 207 0
 222 000e 1843     		orrs	r0, r0, r3
 223              	.LVL19:
 224 0010 1061     		str	r0, [r2, #16]
ARM GAS  /var/folders/7z/kps_xzfj7sn5l5gkyq8s9db00000gn/T//ccohtrLk.s 			page 5


 225 0012 7047     		bx	lr
 226              	.L21:
 227              		.align	2
 228              	.L20:
 229 0014 00ED00E0 		.word	-536810240
 230              		.cfi_endproc
 231              	.LFE114:
 232              		.size	NVIC_SystemLPConfig, .-NVIC_SystemLPConfig
 233 0018 AFF30080 		.section	.text.SysTick_CLKSourceConfig,"ax",%progbits
 233      AFF30080 
 234              		.align	2
 235              		.p2align 4,,15
 236              		.global	SysTick_CLKSourceConfig
 237              		.thumb
 238              		.thumb_func
 239              		.type	SysTick_CLKSourceConfig, %function
 240              	SysTick_CLKSourceConfig:
 241              	.LFB115:
 242              		.loc 1 224 0
 243              		.cfi_startproc
 244              		@ args = 0, pretend = 0, frame = 0
 245              		@ frame_needed = 0, uses_anonymous_args = 0
 246              		@ link register save eliminated.
 247              	.LVL20:
 248              		.loc 1 229 0
 249 0000 044A     		ldr	r2, .L25
 250 0002 1368     		ldr	r3, [r2]
 251              		.loc 1 227 0
 252 0004 0428     		cmp	r0, #4
 253              		.loc 1 229 0
 254 0006 0CBF     		ite	eq
 255 0008 43F00403 		orreq	r3, r3, #4
 256              		.loc 1 233 0
 257 000c 23F00403 		bicne	r3, r3, #4
 258 0010 1360     		str	r3, [r2]
 259 0012 7047     		bx	lr
 260              	.L26:
 261              		.align	2
 262              	.L25:
 263 0014 10E000E0 		.word	-536813552
 264              		.cfi_endproc
 265              	.LFE115:
 266              		.size	SysTick_CLKSourceConfig, .-SysTick_CLKSourceConfig
 267 0018 AFF30080 		.text
 267      AFF30080 
 268              	.Letext0:
 269              		.file 2 "/Users/Baram/gcc-arm-none-eabi/arm-none-eabi/include/machine/_default_types.h"
 270              		.file 3 "/Users/Baram/gcc-arm-none-eabi/arm-none-eabi/include/stdint.h"
 271              		.file 4 "lib/ChibiOS_2.6.6/os/ports/common/ARMCMx/CMSIS/include/core_cm4.h"
 272              		.file 5 "lib/ChibiOS_2.6.6/os/hal/platforms/STM32F4xx/stm32f4xx.h"
 273              		.file 6 "lib/ChibiOS_2.6.6/ext/stdperiph_stm32f4/inc/misc.h"
 274              		.section	.debug_info,"",%progbits
 275              	.Ldebug_info0:
 276 0000 43050000 		.4byte	0x543
 277 0004 0400     		.2byte	0x4
 278 0006 00000000 		.4byte	.Ldebug_abbrev0
 279 000a 04       		.byte	0x4
ARM GAS  /var/folders/7z/kps_xzfj7sn5l5gkyq8s9db00000gn/T//ccohtrLk.s 			page 6


 280 000b 01       		.uleb128 0x1
 281 000c 44000000 		.4byte	.LASF71
 282 0010 01       		.byte	0x1
 283 0011 32020000 		.4byte	.LASF72
 284 0015 43040000 		.4byte	.LASF73
 285 0019 00000000 		.4byte	.Ldebug_ranges0+0
 286 001d 00000000 		.4byte	0
 287 0021 00000000 		.4byte	.Ldebug_line0
 288 0025 02       		.uleb128 0x2
 289 0026 01       		.byte	0x1
 290 0027 06       		.byte	0x6
 291 0028 97020000 		.4byte	.LASF0
 292 002c 03       		.uleb128 0x3
 293 002d 23020000 		.4byte	.LASF4
 294 0031 02       		.byte	0x2
 295 0032 1D       		.byte	0x1d
 296 0033 37000000 		.4byte	0x37
 297 0037 02       		.uleb128 0x2
 298 0038 01       		.byte	0x1
 299 0039 08       		.byte	0x8
 300 003a 6B020000 		.4byte	.LASF1
 301 003e 02       		.uleb128 0x2
 302 003f 02       		.byte	0x2
 303 0040 05       		.byte	0x5
 304 0041 91010000 		.4byte	.LASF2
 305 0045 02       		.uleb128 0x2
 306 0046 02       		.byte	0x2
 307 0047 07       		.byte	0x7
 308 0048 18030000 		.4byte	.LASF3
 309 004c 03       		.uleb128 0x3
 310 004d 08040000 		.4byte	.LASF5
 311 0051 02       		.byte	0x2
 312 0052 3F       		.byte	0x3f
 313 0053 57000000 		.4byte	0x57
 314 0057 02       		.uleb128 0x2
 315 0058 04       		.byte	0x4
 316 0059 05       		.byte	0x5
 317 005a 1A020000 		.4byte	.LASF6
 318 005e 03       		.uleb128 0x3
 319 005f B5010000 		.4byte	.LASF7
 320 0063 02       		.byte	0x2
 321 0064 41       		.byte	0x41
 322 0065 69000000 		.4byte	0x69
 323 0069 02       		.uleb128 0x2
 324 006a 04       		.byte	0x4
 325 006b 07       		.byte	0x7
 326 006c BA030000 		.4byte	.LASF8
 327 0070 02       		.uleb128 0x2
 328 0071 08       		.byte	0x8
 329 0072 05       		.byte	0x5
 330 0073 00020000 		.4byte	.LASF9
 331 0077 02       		.uleb128 0x2
 332 0078 08       		.byte	0x8
 333 0079 07       		.byte	0x7
 334 007a A3020000 		.4byte	.LASF10
 335 007e 04       		.uleb128 0x4
 336 007f 04       		.byte	0x4
ARM GAS  /var/folders/7z/kps_xzfj7sn5l5gkyq8s9db00000gn/T//ccohtrLk.s 			page 7


 337 0080 05       		.byte	0x5
 338 0081 696E7400 		.ascii	"int\000"
 339 0085 02       		.uleb128 0x2
 340 0086 04       		.byte	0x4
 341 0087 07       		.byte	0x7
 342 0088 C6020000 		.4byte	.LASF11
 343 008c 03       		.uleb128 0x3
 344 008d CB010000 		.4byte	.LASF12
 345 0091 03       		.byte	0x3
 346 0092 15       		.byte	0x15
 347 0093 2C000000 		.4byte	0x2c
 348 0097 03       		.uleb128 0x3
 349 0098 3C030000 		.4byte	.LASF13
 350 009c 03       		.byte	0x3
 351 009d 2C       		.byte	0x2c
 352 009e 4C000000 		.4byte	0x4c
 353 00a2 03       		.uleb128 0x3
 354 00a3 00000000 		.4byte	.LASF14
 355 00a7 03       		.byte	0x3
 356 00a8 2D       		.byte	0x2d
 357 00a9 5E000000 		.4byte	0x5e
 358 00ad 05       		.uleb128 0x5
 359 00ae 040E     		.2byte	0xe04
 360 00b0 04       		.byte	0x4
 361 00b1 4101     		.2byte	0x141
 362 00b3 69010000 		.4byte	0x169
 363 00b7 06       		.uleb128 0x6
 364 00b8 C6010000 		.4byte	.LASF15
 365 00bc 04       		.byte	0x4
 366 00bd 4301     		.2byte	0x143
 367 00bf 80010000 		.4byte	0x180
 368 00c3 00       		.byte	0
 369 00c4 06       		.uleb128 0x6
 370 00c5 88030000 		.4byte	.LASF16
 371 00c9 04       		.byte	0x4
 372 00ca 4401     		.2byte	0x144
 373 00cc 85010000 		.4byte	0x185
 374 00d0 20       		.byte	0x20
 375 00d1 06       		.uleb128 0x6
 376 00d2 D3020000 		.4byte	.LASF17
 377 00d6 04       		.byte	0x4
 378 00d7 4501     		.2byte	0x145
 379 00d9 95010000 		.4byte	0x195
 380 00dd 80       		.byte	0x80
 381 00de 06       		.uleb128 0x6
 382 00df F7010000 		.4byte	.LASF18
 383 00e3 04       		.byte	0x4
 384 00e4 4601     		.2byte	0x146
 385 00e6 85010000 		.4byte	0x185
 386 00ea A0       		.byte	0xa0
 387 00eb 07       		.uleb128 0x7
 388 00ec 49030000 		.4byte	.LASF19
 389 00f0 04       		.byte	0x4
 390 00f1 4701     		.2byte	0x147
 391 00f3 9A010000 		.4byte	0x19a
 392 00f7 0001     		.2byte	0x100
 393 00f9 07       		.uleb128 0x7
ARM GAS  /var/folders/7z/kps_xzfj7sn5l5gkyq8s9db00000gn/T//ccohtrLk.s 			page 8


 394 00fa 92030000 		.4byte	.LASF20
 395 00fe 04       		.byte	0x4
 396 00ff 4801     		.2byte	0x148
 397 0101 85010000 		.4byte	0x185
 398 0105 2001     		.2byte	0x120
 399 0107 07       		.uleb128 0x7
 400 0108 92020000 		.4byte	.LASF21
 401 010c 04       		.byte	0x4
 402 010d 4901     		.2byte	0x149
 403 010f 9F010000 		.4byte	0x19f
 404 0113 8001     		.2byte	0x180
 405 0115 07       		.uleb128 0x7
 406 0116 9C030000 		.4byte	.LASF22
 407 011a 04       		.byte	0x4
 408 011b 4A01     		.2byte	0x14a
 409 011d 85010000 		.4byte	0x185
 410 0121 A001     		.2byte	0x1a0
 411 0123 07       		.uleb128 0x7
 412 0124 09000000 		.4byte	.LASF23
 413 0128 04       		.byte	0x4
 414 0129 4B01     		.2byte	0x14b
 415 012b A4010000 		.4byte	0x1a4
 416 012f 0002     		.2byte	0x200
 417 0131 07       		.uleb128 0x7
 418 0132 A6030000 		.4byte	.LASF24
 419 0136 04       		.byte	0x4
 420 0137 4C01     		.2byte	0x14c
 421 0139 A9010000 		.4byte	0x1a9
 422 013d 2002     		.2byte	0x220
 423 013f 08       		.uleb128 0x8
 424 0140 495000   		.ascii	"IP\000"
 425 0143 04       		.byte	0x4
 426 0144 4D01     		.2byte	0x14d
 427 0146 C9010000 		.4byte	0x1c9
 428 014a 0003     		.2byte	0x300
 429 014c 07       		.uleb128 0x7
 430 014d B0030000 		.4byte	.LASF25
 431 0151 04       		.byte	0x4
 432 0152 4E01     		.2byte	0x14e
 433 0154 CE010000 		.4byte	0x1ce
 434 0158 F003     		.2byte	0x3f0
 435 015a 07       		.uleb128 0x7
 436 015b E5010000 		.4byte	.LASF26
 437 015f 04       		.byte	0x4
 438 0160 4F01     		.2byte	0x14f
 439 0162 DF010000 		.4byte	0x1df
 440 0166 000E     		.2byte	0xe00
 441 0168 00       		.byte	0
 442 0169 09       		.uleb128 0x9
 443 016a A2000000 		.4byte	0xa2
 444 016e 79010000 		.4byte	0x179
 445 0172 0A       		.uleb128 0xa
 446 0173 79010000 		.4byte	0x179
 447 0177 07       		.byte	0x7
 448 0178 00       		.byte	0
 449 0179 02       		.uleb128 0x2
 450 017a 04       		.byte	0x4
ARM GAS  /var/folders/7z/kps_xzfj7sn5l5gkyq8s9db00000gn/T//ccohtrLk.s 			page 9


 451 017b 07       		.byte	0x7
 452 017c 9B010000 		.4byte	.LASF27
 453 0180 0B       		.uleb128 0xb
 454 0181 69010000 		.4byte	0x169
 455 0185 09       		.uleb128 0x9
 456 0186 A2000000 		.4byte	0xa2
 457 018a 95010000 		.4byte	0x195
 458 018e 0A       		.uleb128 0xa
 459 018f 79010000 		.4byte	0x179
 460 0193 17       		.byte	0x17
 461 0194 00       		.byte	0
 462 0195 0B       		.uleb128 0xb
 463 0196 69010000 		.4byte	0x169
 464 019a 0B       		.uleb128 0xb
 465 019b 69010000 		.4byte	0x169
 466 019f 0B       		.uleb128 0xb
 467 01a0 69010000 		.4byte	0x169
 468 01a4 0B       		.uleb128 0xb
 469 01a5 69010000 		.4byte	0x169
 470 01a9 09       		.uleb128 0x9
 471 01aa A2000000 		.4byte	0xa2
 472 01ae B9010000 		.4byte	0x1b9
 473 01b2 0A       		.uleb128 0xa
 474 01b3 79010000 		.4byte	0x179
 475 01b7 37       		.byte	0x37
 476 01b8 00       		.byte	0
 477 01b9 09       		.uleb128 0x9
 478 01ba 8C000000 		.4byte	0x8c
 479 01be C9010000 		.4byte	0x1c9
 480 01c2 0A       		.uleb128 0xa
 481 01c3 79010000 		.4byte	0x179
 482 01c7 EF       		.byte	0xef
 483 01c8 00       		.byte	0
 484 01c9 0B       		.uleb128 0xb
 485 01ca B9010000 		.4byte	0x1b9
 486 01ce 09       		.uleb128 0x9
 487 01cf A2000000 		.4byte	0xa2
 488 01d3 DF010000 		.4byte	0x1df
 489 01d7 0C       		.uleb128 0xc
 490 01d8 79010000 		.4byte	0x179
 491 01dc 8302     		.2byte	0x283
 492 01de 00       		.byte	0
 493 01df 0B       		.uleb128 0xb
 494 01e0 A2000000 		.4byte	0xa2
 495 01e4 0D       		.uleb128 0xd
 496 01e5 CC030000 		.4byte	.LASF28
 497 01e9 04       		.byte	0x4
 498 01ea 5001     		.2byte	0x150
 499 01ec AD000000 		.4byte	0xad
 500 01f0 0E       		.uleb128 0xe
 501 01f1 8C       		.byte	0x8c
 502 01f2 04       		.byte	0x4
 503 01f3 6101     		.2byte	0x161
 504 01f5 0B030000 		.4byte	0x30b
 505 01f9 06       		.uleb128 0x6
 506 01fa C0010000 		.4byte	.LASF29
 507 01fe 04       		.byte	0x4
ARM GAS  /var/folders/7z/kps_xzfj7sn5l5gkyq8s9db00000gn/T//ccohtrLk.s 			page 10


 508 01ff 6301     		.2byte	0x163
 509 0201 0B030000 		.4byte	0x30b
 510 0205 00       		.byte	0
 511 0206 06       		.uleb128 0x6
 512 0207 F2010000 		.4byte	.LASF30
 513 020b 04       		.byte	0x4
 514 020c 6401     		.2byte	0x164
 515 020e DF010000 		.4byte	0x1df
 516 0212 04       		.byte	0x4
 517 0213 06       		.uleb128 0x6
 518 0214 37030000 		.4byte	.LASF31
 519 0218 04       		.byte	0x4
 520 0219 6501     		.2byte	0x165
 521 021b DF010000 		.4byte	0x1df
 522 021f 08       		.byte	0x8
 523 0220 06       		.uleb128 0x6
 524 0221 65020000 		.4byte	.LASF32
 525 0225 04       		.byte	0x4
 526 0226 6601     		.2byte	0x166
 527 0228 DF010000 		.4byte	0x1df
 528 022c 0C       		.byte	0xc
 529 022d 0F       		.uleb128 0xf
 530 022e 53435200 		.ascii	"SCR\000"
 531 0232 04       		.byte	0x4
 532 0233 6701     		.2byte	0x167
 533 0235 DF010000 		.4byte	0x1df
 534 0239 10       		.byte	0x10
 535 023a 0F       		.uleb128 0xf
 536 023b 43435200 		.ascii	"CCR\000"
 537 023f 04       		.byte	0x4
 538 0240 6801     		.2byte	0x168
 539 0242 DF010000 		.4byte	0x1df
 540 0246 14       		.byte	0x14
 541 0247 0F       		.uleb128 0xf
 542 0248 53485000 		.ascii	"SHP\000"
 543 024c 04       		.byte	0x4
 544 024d 6901     		.2byte	0x169
 545 024f 20030000 		.4byte	0x320
 546 0253 18       		.byte	0x18
 547 0254 06       		.uleb128 0x6
 548 0255 C0020000 		.4byte	.LASF33
 549 0259 04       		.byte	0x4
 550 025a 6A01     		.2byte	0x16a
 551 025c DF010000 		.4byte	0x1df
 552 0260 24       		.byte	0x24
 553 0261 06       		.uleb128 0x6
 554 0262 2D020000 		.4byte	.LASF34
 555 0266 04       		.byte	0x4
 556 0267 6B01     		.2byte	0x16b
 557 0269 DF010000 		.4byte	0x1df
 558 026d 28       		.byte	0x28
 559 026e 06       		.uleb128 0x6
 560 026f 7E030000 		.4byte	.LASF35
 561 0273 04       		.byte	0x4
 562 0274 6C01     		.2byte	0x16c
 563 0276 DF010000 		.4byte	0x1df
 564 027a 2C       		.byte	0x2c
ARM GAS  /var/folders/7z/kps_xzfj7sn5l5gkyq8s9db00000gn/T//ccohtrLk.s 			page 11


 565 027b 06       		.uleb128 0x6
 566 027c 4E030000 		.4byte	.LASF36
 567 0280 04       		.byte	0x4
 568 0281 6D01     		.2byte	0x16d
 569 0283 DF010000 		.4byte	0x1df
 570 0287 30       		.byte	0x30
 571 0288 06       		.uleb128 0x6
 572 0289 8B010000 		.4byte	.LASF37
 573 028d 04       		.byte	0x4
 574 028e 6E01     		.2byte	0x16e
 575 0290 DF010000 		.4byte	0x1df
 576 0294 34       		.byte	0x34
 577 0295 06       		.uleb128 0x6
 578 0296 15020000 		.4byte	.LASF38
 579 029a 04       		.byte	0x4
 580 029b 6F01     		.2byte	0x16f
 581 029d DF010000 		.4byte	0x1df
 582 02a1 38       		.byte	0x38
 583 02a2 06       		.uleb128 0x6
 584 02a3 24040000 		.4byte	.LASF39
 585 02a7 04       		.byte	0x4
 586 02a8 7001     		.2byte	0x170
 587 02aa DF010000 		.4byte	0x1df
 588 02ae 3C       		.byte	0x3c
 589 02af 0F       		.uleb128 0xf
 590 02b0 50465200 		.ascii	"PFR\000"
 591 02b4 04       		.byte	0x4
 592 02b5 7101     		.2byte	0x171
 593 02b7 35030000 		.4byte	0x335
 594 02bb 40       		.byte	0x40
 595 02bc 0F       		.uleb128 0xf
 596 02bd 44465200 		.ascii	"DFR\000"
 597 02c1 04       		.byte	0x4
 598 02c2 7201     		.2byte	0x172
 599 02c4 0B030000 		.4byte	0x30b
 600 02c8 48       		.byte	0x48
 601 02c9 0F       		.uleb128 0xf
 602 02ca 41445200 		.ascii	"ADR\000"
 603 02ce 04       		.byte	0x4
 604 02cf 7301     		.2byte	0x173
 605 02d1 0B030000 		.4byte	0x30b
 606 02d5 4C       		.byte	0x4c
 607 02d6 06       		.uleb128 0x6
 608 02d7 83030000 		.4byte	.LASF40
 609 02db 04       		.byte	0x4
 610 02dc 7401     		.2byte	0x174
 611 02de 4F030000 		.4byte	0x34f
 612 02e2 50       		.byte	0x50
 613 02e3 06       		.uleb128 0x6
 614 02e4 44030000 		.4byte	.LASF41
 615 02e8 04       		.byte	0x4
 616 02e9 7501     		.2byte	0x175
 617 02eb 69030000 		.4byte	0x369
 618 02ef 60       		.byte	0x60
 619 02f0 06       		.uleb128 0x6
 620 02f1 88030000 		.4byte	.LASF16
 621 02f5 04       		.byte	0x4
ARM GAS  /var/folders/7z/kps_xzfj7sn5l5gkyq8s9db00000gn/T//ccohtrLk.s 			page 12


 622 02f6 7601     		.2byte	0x176
 623 02f8 59030000 		.4byte	0x359
 624 02fc 74       		.byte	0x74
 625 02fd 06       		.uleb128 0x6
 626 02fe 6F040000 		.4byte	.LASF42
 627 0302 04       		.byte	0x4
 628 0303 7701     		.2byte	0x177
 629 0305 DF010000 		.4byte	0x1df
 630 0309 88       		.byte	0x88
 631 030a 00       		.byte	0
 632 030b 10       		.uleb128 0x10
 633 030c DF010000 		.4byte	0x1df
 634 0310 09       		.uleb128 0x9
 635 0311 8C000000 		.4byte	0x8c
 636 0315 20030000 		.4byte	0x320
 637 0319 0A       		.uleb128 0xa
 638 031a 79010000 		.4byte	0x179
 639 031e 0B       		.byte	0xb
 640 031f 00       		.byte	0
 641 0320 0B       		.uleb128 0xb
 642 0321 10030000 		.4byte	0x310
 643 0325 09       		.uleb128 0x9
 644 0326 A2000000 		.4byte	0xa2
 645 032a 35030000 		.4byte	0x335
 646 032e 0A       		.uleb128 0xa
 647 032f 79010000 		.4byte	0x179
 648 0333 01       		.byte	0x1
 649 0334 00       		.byte	0
 650 0335 10       		.uleb128 0x10
 651 0336 3A030000 		.4byte	0x33a
 652 033a 0B       		.uleb128 0xb
 653 033b 25030000 		.4byte	0x325
 654 033f 09       		.uleb128 0x9
 655 0340 A2000000 		.4byte	0xa2
 656 0344 4F030000 		.4byte	0x34f
 657 0348 0A       		.uleb128 0xa
 658 0349 79010000 		.4byte	0x179
 659 034d 03       		.byte	0x3
 660 034e 00       		.byte	0
 661 034f 10       		.uleb128 0x10
 662 0350 54030000 		.4byte	0x354
 663 0354 0B       		.uleb128 0xb
 664 0355 3F030000 		.4byte	0x33f
 665 0359 09       		.uleb128 0x9
 666 035a A2000000 		.4byte	0xa2
 667 035e 69030000 		.4byte	0x369
 668 0362 0A       		.uleb128 0xa
 669 0363 79010000 		.4byte	0x179
 670 0367 04       		.byte	0x4
 671 0368 00       		.byte	0
 672 0369 10       		.uleb128 0x10
 673 036a 6E030000 		.4byte	0x36e
 674 036e 0B       		.uleb128 0xb
 675 036f 59030000 		.4byte	0x359
 676 0373 0D       		.uleb128 0xd
 677 0374 D3010000 		.4byte	.LASF43
 678 0378 04       		.byte	0x4
ARM GAS  /var/folders/7z/kps_xzfj7sn5l5gkyq8s9db00000gn/T//ccohtrLk.s 			page 13


 679 0379 7801     		.2byte	0x178
 680 037b F0010000 		.4byte	0x1f0
 681 037f 0E       		.uleb128 0xe
 682 0380 10       		.byte	0x10
 683 0381 04       		.byte	0x4
 684 0382 6002     		.2byte	0x260
 685 0384 BD030000 		.4byte	0x3bd
 686 0388 06       		.uleb128 0x6
 687 0389 79020000 		.4byte	.LASF44
 688 038d 04       		.byte	0x4
 689 038e 6202     		.2byte	0x262
 690 0390 DF010000 		.4byte	0x1df
 691 0394 00       		.byte	0
 692 0395 06       		.uleb128 0x6
 693 0396 1F040000 		.4byte	.LASF45
 694 039a 04       		.byte	0x4
 695 039b 6302     		.2byte	0x263
 696 039d DF010000 		.4byte	0x1df
 697 03a1 04       		.byte	0x4
 698 03a2 0F       		.uleb128 0xf
 699 03a3 56414C00 		.ascii	"VAL\000"
 700 03a7 04       		.byte	0x4
 701 03a8 6402     		.2byte	0x264
 702 03aa DF010000 		.4byte	0x1df
 703 03ae 08       		.byte	0x8
 704 03af 06       		.uleb128 0x6
 705 03b0 BA020000 		.4byte	.LASF46
 706 03b4 04       		.byte	0x4
 707 03b5 6502     		.2byte	0x265
 708 03b7 0B030000 		.4byte	0x30b
 709 03bb 0C       		.byte	0xc
 710 03bc 00       		.byte	0
 711 03bd 0D       		.uleb128 0xd
 712 03be 0B030000 		.4byte	.LASF47
 713 03c2 04       		.byte	0x4
 714 03c3 6602     		.2byte	0x266
 715 03c5 7F030000 		.4byte	0x37f
 716 03c9 0B       		.uleb128 0xb
 717 03ca 97000000 		.4byte	0x97
 718 03ce 11       		.uleb128 0x11
 719 03cf 01       		.byte	0x1
 720 03d0 05       		.byte	0x5
 721 03d1 F901     		.2byte	0x1f9
 722 03d3 E4030000 		.4byte	0x3e4
 723 03d7 12       		.uleb128 0x12
 724 03d8 EA010000 		.4byte	.LASF48
 725 03dc 00       		.sleb128 0
 726 03dd 12       		.uleb128 0x12
 727 03de 75040000 		.4byte	.LASF49
 728 03e2 01       		.sleb128 1
 729 03e3 00       		.byte	0
 730 03e4 0D       		.uleb128 0xd
 731 03e5 F8030000 		.4byte	.LASF50
 732 03e9 05       		.byte	0x5
 733 03ea F901     		.2byte	0x1f9
 734 03ec CE030000 		.4byte	0x3ce
 735 03f0 13       		.uleb128 0x13
ARM GAS  /var/folders/7z/kps_xzfj7sn5l5gkyq8s9db00000gn/T//ccohtrLk.s 			page 14


 736 03f1 04       		.byte	0x4
 737 03f2 06       		.byte	0x6
 738 03f3 36       		.byte	0x36
 739 03f4 29040000 		.4byte	0x429
 740 03f8 14       		.uleb128 0x14
 741 03f9 53030000 		.4byte	.LASF51
 742 03fd 06       		.byte	0x6
 743 03fe 38       		.byte	0x38
 744 03ff 8C000000 		.4byte	0x8c
 745 0403 00       		.byte	0
 746 0404 14       		.uleb128 0x14
 747 0405 D6030000 		.4byte	.LASF52
 748 0409 06       		.byte	0x6
 749 040a 3D       		.byte	0x3d
 750 040b 8C000000 		.4byte	0x8c
 751 040f 01       		.byte	0x1
 752 0410 14       		.uleb128 0x14
 753 0411 63030000 		.4byte	.LASF53
 754 0415 06       		.byte	0x6
 755 0416 42       		.byte	0x42
 756 0417 8C000000 		.4byte	0x8c
 757 041b 02       		.byte	0x2
 758 041c 14       		.uleb128 0x14
 759 041d 1F000000 		.4byte	.LASF54
 760 0421 06       		.byte	0x6
 761 0422 47       		.byte	0x47
 762 0423 E4030000 		.4byte	0x3e4
 763 0427 03       		.byte	0x3
 764 0428 00       		.byte	0
 765 0429 03       		.uleb128 0x3
 766 042a 0E000000 		.4byte	.LASF55
 767 042e 06       		.byte	0x6
 768 042f 4A       		.byte	0x4a
 769 0430 F0030000 		.4byte	0x3f0
 770 0434 15       		.uleb128 0x15
 771 0435 7C040000 		.4byte	.LASF56
 772 0439 01       		.byte	0x1
 773 043a 76       		.byte	0x76
 774 043b 00000000 		.4byte	.LFB111
 775 043f 14000000 		.4byte	.LFE111-.LFB111
 776 0443 01       		.uleb128 0x1
 777 0444 9C       		.byte	0x9c
 778 0445 59040000 		.4byte	0x459
 779 0449 16       		.uleb128 0x16
 780 044a 78010000 		.4byte	.LASF58
 781 044e 01       		.byte	0x1
 782 044f 76       		.byte	0x76
 783 0450 A2000000 		.4byte	0xa2
 784 0454 00000000 		.4byte	.LLST0
 785 0458 00       		.byte	0
 786 0459 15       		.uleb128 0x15
 787 045a A4010000 		.4byte	.LASF57
 788 045e 01       		.byte	0x1
 789 045f 88       		.byte	0x88
 790 0460 00000000 		.4byte	.LFB112
 791 0464 70000000 		.4byte	.LFE112-.LFB112
 792 0468 01       		.uleb128 0x1
ARM GAS  /var/folders/7z/kps_xzfj7sn5l5gkyq8s9db00000gn/T//ccohtrLk.s 			page 15


 793 0469 9C       		.byte	0x9c
 794 046a AB040000 		.4byte	0x4ab
 795 046e 16       		.uleb128 0x16
 796 046f 68010000 		.4byte	.LASF59
 797 0473 01       		.byte	0x1
 798 0474 88       		.byte	0x88
 799 0475 AB040000 		.4byte	0x4ab
 800 0479 21000000 		.4byte	.LLST1
 801 047d 17       		.uleb128 0x17
 802 047e 2B030000 		.4byte	.LASF60
 803 0482 01       		.byte	0x1
 804 0483 8A       		.byte	0x8a
 805 0484 8C000000 		.4byte	0x8c
 806 0488 4D000000 		.4byte	.LLST2
 807 048c 17       		.uleb128 0x17
 808 048d AE010000 		.4byte	.LASF61
 809 0491 01       		.byte	0x1
 810 0492 8A       		.byte	0x8a
 811 0493 8C000000 		.4byte	0x8c
 812 0497 9F000000 		.4byte	.LLST3
 813 049b 17       		.uleb128 0x17
 814 049c D8020000 		.4byte	.LASF62
 815 04a0 01       		.byte	0x1
 816 04a1 8A       		.byte	0x8a
 817 04a2 8C000000 		.4byte	0x8c
 818 04a6 C2000000 		.4byte	.LLST4
 819 04aa 00       		.byte	0
 820 04ab 18       		.uleb128 0x18
 821 04ac 04       		.byte	0x4
 822 04ad 29040000 		.4byte	0x429
 823 04b1 15       		.uleb128 0x15
 824 04b2 7E020000 		.4byte	.LASF63
 825 04b6 01       		.byte	0x1
 826 04b7 B4       		.byte	0xb4
 827 04b8 00000000 		.4byte	.LFB113
 828 04bc 14000000 		.4byte	.LFE113-.LFB113
 829 04c0 01       		.uleb128 0x1
 830 04c1 9C       		.byte	0x9c
 831 04c2 E5040000 		.4byte	0x4e5
 832 04c6 16       		.uleb128 0x16
 833 04c7 12040000 		.4byte	.LASF64
 834 04cb 01       		.byte	0x1
 835 04cc B4       		.byte	0xb4
 836 04cd A2000000 		.4byte	0xa2
 837 04d1 E5000000 		.4byte	.LLST5
 838 04d5 16       		.uleb128 0x16
 839 04d6 0E020000 		.4byte	.LASF65
 840 04da 01       		.byte	0x1
 841 04db B4       		.byte	0xb4
 842 04dc A2000000 		.4byte	0xa2
 843 04e0 06010000 		.4byte	.LLST6
 844 04e4 00       		.byte	0
 845 04e5 15       		.uleb128 0x15
 846 04e6 DF020000 		.4byte	.LASF66
 847 04ea 01       		.byte	0x1
 848 04eb C7       		.byte	0xc7
 849 04ec 00000000 		.4byte	.LFB114
ARM GAS  /var/folders/7z/kps_xzfj7sn5l5gkyq8s9db00000gn/T//ccohtrLk.s 			page 16


 850 04f0 18000000 		.4byte	.LFE114-.LFB114
 851 04f4 01       		.uleb128 0x1
 852 04f5 9C       		.byte	0x9c
 853 04f6 17050000 		.4byte	0x517
 854 04fa 16       		.uleb128 0x16
 855 04fb 29040000 		.4byte	.LASF67
 856 04ff 01       		.byte	0x1
 857 0500 C7       		.byte	0xc7
 858 0501 8C000000 		.4byte	0x8c
 859 0505 27010000 		.4byte	.LLST7
 860 0509 19       		.uleb128 0x19
 861 050a DC010000 		.4byte	.LASF68
 862 050e 01       		.byte	0x1
 863 050f C7       		.byte	0xc7
 864 0510 E4030000 		.4byte	0x3e4
 865 0514 01       		.uleb128 0x1
 866 0515 51       		.byte	0x51
 867 0516 00       		.byte	0
 868 0517 15       		.uleb128 0x15
 869 0518 F3020000 		.4byte	.LASF69
 870 051c 01       		.byte	0x1
 871 051d DF       		.byte	0xdf
 872 051e 00000000 		.4byte	.LFB115
 873 0522 18000000 		.4byte	.LFE115-.LFB115
 874 0526 01       		.uleb128 0x1
 875 0527 9C       		.byte	0x9c
 876 0528 3A050000 		.4byte	0x53a
 877 052c 19       		.uleb128 0x19
 878 052d 32000000 		.4byte	.LASF70
 879 0531 01       		.byte	0x1
 880 0532 DF       		.byte	0xdf
 881 0533 A2000000 		.4byte	0xa2
 882 0537 01       		.uleb128 0x1
 883 0538 50       		.byte	0x50
 884 0539 00       		.byte	0
 885 053a 1A       		.uleb128 0x1a
 886 053b 36040000 		.4byte	.LASF74
 887 053f 04       		.byte	0x4
 888 0540 9806     		.2byte	0x698
 889 0542 C9030000 		.4byte	0x3c9
 890 0546 00       		.byte	0
 891              		.section	.debug_abbrev,"",%progbits
 892              	.Ldebug_abbrev0:
 893 0000 01       		.uleb128 0x1
 894 0001 11       		.uleb128 0x11
 895 0002 01       		.byte	0x1
 896 0003 25       		.uleb128 0x25
 897 0004 0E       		.uleb128 0xe
 898 0005 13       		.uleb128 0x13
 899 0006 0B       		.uleb128 0xb
 900 0007 03       		.uleb128 0x3
 901 0008 0E       		.uleb128 0xe
 902 0009 1B       		.uleb128 0x1b
 903 000a 0E       		.uleb128 0xe
 904 000b 55       		.uleb128 0x55
 905 000c 17       		.uleb128 0x17
 906 000d 11       		.uleb128 0x11
ARM GAS  /var/folders/7z/kps_xzfj7sn5l5gkyq8s9db00000gn/T//ccohtrLk.s 			page 17


 907 000e 01       		.uleb128 0x1
 908 000f 10       		.uleb128 0x10
 909 0010 17       		.uleb128 0x17
 910 0011 00       		.byte	0
 911 0012 00       		.byte	0
 912 0013 02       		.uleb128 0x2
 913 0014 24       		.uleb128 0x24
 914 0015 00       		.byte	0
 915 0016 0B       		.uleb128 0xb
 916 0017 0B       		.uleb128 0xb
 917 0018 3E       		.uleb128 0x3e
 918 0019 0B       		.uleb128 0xb
 919 001a 03       		.uleb128 0x3
 920 001b 0E       		.uleb128 0xe
 921 001c 00       		.byte	0
 922 001d 00       		.byte	0
 923 001e 03       		.uleb128 0x3
 924 001f 16       		.uleb128 0x16
 925 0020 00       		.byte	0
 926 0021 03       		.uleb128 0x3
 927 0022 0E       		.uleb128 0xe
 928 0023 3A       		.uleb128 0x3a
 929 0024 0B       		.uleb128 0xb
 930 0025 3B       		.uleb128 0x3b
 931 0026 0B       		.uleb128 0xb
 932 0027 49       		.uleb128 0x49
 933 0028 13       		.uleb128 0x13
 934 0029 00       		.byte	0
 935 002a 00       		.byte	0
 936 002b 04       		.uleb128 0x4
 937 002c 24       		.uleb128 0x24
 938 002d 00       		.byte	0
 939 002e 0B       		.uleb128 0xb
 940 002f 0B       		.uleb128 0xb
 941 0030 3E       		.uleb128 0x3e
 942 0031 0B       		.uleb128 0xb
 943 0032 03       		.uleb128 0x3
 944 0033 08       		.uleb128 0x8
 945 0034 00       		.byte	0
 946 0035 00       		.byte	0
 947 0036 05       		.uleb128 0x5
 948 0037 13       		.uleb128 0x13
 949 0038 01       		.byte	0x1
 950 0039 0B       		.uleb128 0xb
 951 003a 05       		.uleb128 0x5
 952 003b 3A       		.uleb128 0x3a
 953 003c 0B       		.uleb128 0xb
 954 003d 3B       		.uleb128 0x3b
 955 003e 05       		.uleb128 0x5
 956 003f 01       		.uleb128 0x1
 957 0040 13       		.uleb128 0x13
 958 0041 00       		.byte	0
 959 0042 00       		.byte	0
 960 0043 06       		.uleb128 0x6
 961 0044 0D       		.uleb128 0xd
 962 0045 00       		.byte	0
 963 0046 03       		.uleb128 0x3
ARM GAS  /var/folders/7z/kps_xzfj7sn5l5gkyq8s9db00000gn/T//ccohtrLk.s 			page 18


 964 0047 0E       		.uleb128 0xe
 965 0048 3A       		.uleb128 0x3a
 966 0049 0B       		.uleb128 0xb
 967 004a 3B       		.uleb128 0x3b
 968 004b 05       		.uleb128 0x5
 969 004c 49       		.uleb128 0x49
 970 004d 13       		.uleb128 0x13
 971 004e 38       		.uleb128 0x38
 972 004f 0B       		.uleb128 0xb
 973 0050 00       		.byte	0
 974 0051 00       		.byte	0
 975 0052 07       		.uleb128 0x7
 976 0053 0D       		.uleb128 0xd
 977 0054 00       		.byte	0
 978 0055 03       		.uleb128 0x3
 979 0056 0E       		.uleb128 0xe
 980 0057 3A       		.uleb128 0x3a
 981 0058 0B       		.uleb128 0xb
 982 0059 3B       		.uleb128 0x3b
 983 005a 05       		.uleb128 0x5
 984 005b 49       		.uleb128 0x49
 985 005c 13       		.uleb128 0x13
 986 005d 38       		.uleb128 0x38
 987 005e 05       		.uleb128 0x5
 988 005f 00       		.byte	0
 989 0060 00       		.byte	0
 990 0061 08       		.uleb128 0x8
 991 0062 0D       		.uleb128 0xd
 992 0063 00       		.byte	0
 993 0064 03       		.uleb128 0x3
 994 0065 08       		.uleb128 0x8
 995 0066 3A       		.uleb128 0x3a
 996 0067 0B       		.uleb128 0xb
 997 0068 3B       		.uleb128 0x3b
 998 0069 05       		.uleb128 0x5
 999 006a 49       		.uleb128 0x49
 1000 006b 13       		.uleb128 0x13
 1001 006c 38       		.uleb128 0x38
 1002 006d 05       		.uleb128 0x5
 1003 006e 00       		.byte	0
 1004 006f 00       		.byte	0
 1005 0070 09       		.uleb128 0x9
 1006 0071 01       		.uleb128 0x1
 1007 0072 01       		.byte	0x1
 1008 0073 49       		.uleb128 0x49
 1009 0074 13       		.uleb128 0x13
 1010 0075 01       		.uleb128 0x1
 1011 0076 13       		.uleb128 0x13
 1012 0077 00       		.byte	0
 1013 0078 00       		.byte	0
 1014 0079 0A       		.uleb128 0xa
 1015 007a 21       		.uleb128 0x21
 1016 007b 00       		.byte	0
 1017 007c 49       		.uleb128 0x49
 1018 007d 13       		.uleb128 0x13
 1019 007e 2F       		.uleb128 0x2f
 1020 007f 0B       		.uleb128 0xb
ARM GAS  /var/folders/7z/kps_xzfj7sn5l5gkyq8s9db00000gn/T//ccohtrLk.s 			page 19


 1021 0080 00       		.byte	0
 1022 0081 00       		.byte	0
 1023 0082 0B       		.uleb128 0xb
 1024 0083 35       		.uleb128 0x35
 1025 0084 00       		.byte	0
 1026 0085 49       		.uleb128 0x49
 1027 0086 13       		.uleb128 0x13
 1028 0087 00       		.byte	0
 1029 0088 00       		.byte	0
 1030 0089 0C       		.uleb128 0xc
 1031 008a 21       		.uleb128 0x21
 1032 008b 00       		.byte	0
 1033 008c 49       		.uleb128 0x49
 1034 008d 13       		.uleb128 0x13
 1035 008e 2F       		.uleb128 0x2f
 1036 008f 05       		.uleb128 0x5
 1037 0090 00       		.byte	0
 1038 0091 00       		.byte	0
 1039 0092 0D       		.uleb128 0xd
 1040 0093 16       		.uleb128 0x16
 1041 0094 00       		.byte	0
 1042 0095 03       		.uleb128 0x3
 1043 0096 0E       		.uleb128 0xe
 1044 0097 3A       		.uleb128 0x3a
 1045 0098 0B       		.uleb128 0xb
 1046 0099 3B       		.uleb128 0x3b
 1047 009a 05       		.uleb128 0x5
 1048 009b 49       		.uleb128 0x49
 1049 009c 13       		.uleb128 0x13
 1050 009d 00       		.byte	0
 1051 009e 00       		.byte	0
 1052 009f 0E       		.uleb128 0xe
 1053 00a0 13       		.uleb128 0x13
 1054 00a1 01       		.byte	0x1
 1055 00a2 0B       		.uleb128 0xb
 1056 00a3 0B       		.uleb128 0xb
 1057 00a4 3A       		.uleb128 0x3a
 1058 00a5 0B       		.uleb128 0xb
 1059 00a6 3B       		.uleb128 0x3b
 1060 00a7 05       		.uleb128 0x5
 1061 00a8 01       		.uleb128 0x1
 1062 00a9 13       		.uleb128 0x13
 1063 00aa 00       		.byte	0
 1064 00ab 00       		.byte	0
 1065 00ac 0F       		.uleb128 0xf
 1066 00ad 0D       		.uleb128 0xd
 1067 00ae 00       		.byte	0
 1068 00af 03       		.uleb128 0x3
 1069 00b0 08       		.uleb128 0x8
 1070 00b1 3A       		.uleb128 0x3a
 1071 00b2 0B       		.uleb128 0xb
 1072 00b3 3B       		.uleb128 0x3b
 1073 00b4 05       		.uleb128 0x5
 1074 00b5 49       		.uleb128 0x49
 1075 00b6 13       		.uleb128 0x13
 1076 00b7 38       		.uleb128 0x38
 1077 00b8 0B       		.uleb128 0xb
ARM GAS  /var/folders/7z/kps_xzfj7sn5l5gkyq8s9db00000gn/T//ccohtrLk.s 			page 20


 1078 00b9 00       		.byte	0
 1079 00ba 00       		.byte	0
 1080 00bb 10       		.uleb128 0x10
 1081 00bc 26       		.uleb128 0x26
 1082 00bd 00       		.byte	0
 1083 00be 49       		.uleb128 0x49
 1084 00bf 13       		.uleb128 0x13
 1085 00c0 00       		.byte	0
 1086 00c1 00       		.byte	0
 1087 00c2 11       		.uleb128 0x11
 1088 00c3 04       		.uleb128 0x4
 1089 00c4 01       		.byte	0x1
 1090 00c5 0B       		.uleb128 0xb
 1091 00c6 0B       		.uleb128 0xb
 1092 00c7 3A       		.uleb128 0x3a
 1093 00c8 0B       		.uleb128 0xb
 1094 00c9 3B       		.uleb128 0x3b
 1095 00ca 05       		.uleb128 0x5
 1096 00cb 01       		.uleb128 0x1
 1097 00cc 13       		.uleb128 0x13
 1098 00cd 00       		.byte	0
 1099 00ce 00       		.byte	0
 1100 00cf 12       		.uleb128 0x12
 1101 00d0 28       		.uleb128 0x28
 1102 00d1 00       		.byte	0
 1103 00d2 03       		.uleb128 0x3
 1104 00d3 0E       		.uleb128 0xe
 1105 00d4 1C       		.uleb128 0x1c
 1106 00d5 0D       		.uleb128 0xd
 1107 00d6 00       		.byte	0
 1108 00d7 00       		.byte	0
 1109 00d8 13       		.uleb128 0x13
 1110 00d9 13       		.uleb128 0x13
 1111 00da 01       		.byte	0x1
 1112 00db 0B       		.uleb128 0xb
 1113 00dc 0B       		.uleb128 0xb
 1114 00dd 3A       		.uleb128 0x3a
 1115 00de 0B       		.uleb128 0xb
 1116 00df 3B       		.uleb128 0x3b
 1117 00e0 0B       		.uleb128 0xb
 1118 00e1 01       		.uleb128 0x1
 1119 00e2 13       		.uleb128 0x13
 1120 00e3 00       		.byte	0
 1121 00e4 00       		.byte	0
 1122 00e5 14       		.uleb128 0x14
 1123 00e6 0D       		.uleb128 0xd
 1124 00e7 00       		.byte	0
 1125 00e8 03       		.uleb128 0x3
 1126 00e9 0E       		.uleb128 0xe
 1127 00ea 3A       		.uleb128 0x3a
 1128 00eb 0B       		.uleb128 0xb
 1129 00ec 3B       		.uleb128 0x3b
 1130 00ed 0B       		.uleb128 0xb
 1131 00ee 49       		.uleb128 0x49
 1132 00ef 13       		.uleb128 0x13
 1133 00f0 38       		.uleb128 0x38
 1134 00f1 0B       		.uleb128 0xb
ARM GAS  /var/folders/7z/kps_xzfj7sn5l5gkyq8s9db00000gn/T//ccohtrLk.s 			page 21


 1135 00f2 00       		.byte	0
 1136 00f3 00       		.byte	0
 1137 00f4 15       		.uleb128 0x15
 1138 00f5 2E       		.uleb128 0x2e
 1139 00f6 01       		.byte	0x1
 1140 00f7 3F       		.uleb128 0x3f
 1141 00f8 19       		.uleb128 0x19
 1142 00f9 03       		.uleb128 0x3
 1143 00fa 0E       		.uleb128 0xe
 1144 00fb 3A       		.uleb128 0x3a
 1145 00fc 0B       		.uleb128 0xb
 1146 00fd 3B       		.uleb128 0x3b
 1147 00fe 0B       		.uleb128 0xb
 1148 00ff 27       		.uleb128 0x27
 1149 0100 19       		.uleb128 0x19
 1150 0101 11       		.uleb128 0x11
 1151 0102 01       		.uleb128 0x1
 1152 0103 12       		.uleb128 0x12
 1153 0104 06       		.uleb128 0x6
 1154 0105 40       		.uleb128 0x40
 1155 0106 18       		.uleb128 0x18
 1156 0107 9742     		.uleb128 0x2117
 1157 0109 19       		.uleb128 0x19
 1158 010a 01       		.uleb128 0x1
 1159 010b 13       		.uleb128 0x13
 1160 010c 00       		.byte	0
 1161 010d 00       		.byte	0
 1162 010e 16       		.uleb128 0x16
 1163 010f 05       		.uleb128 0x5
 1164 0110 00       		.byte	0
 1165 0111 03       		.uleb128 0x3
 1166 0112 0E       		.uleb128 0xe
 1167 0113 3A       		.uleb128 0x3a
 1168 0114 0B       		.uleb128 0xb
 1169 0115 3B       		.uleb128 0x3b
 1170 0116 0B       		.uleb128 0xb
 1171 0117 49       		.uleb128 0x49
 1172 0118 13       		.uleb128 0x13
 1173 0119 02       		.uleb128 0x2
 1174 011a 17       		.uleb128 0x17
 1175 011b 00       		.byte	0
 1176 011c 00       		.byte	0
 1177 011d 17       		.uleb128 0x17
 1178 011e 34       		.uleb128 0x34
 1179 011f 00       		.byte	0
 1180 0120 03       		.uleb128 0x3
 1181 0121 0E       		.uleb128 0xe
 1182 0122 3A       		.uleb128 0x3a
 1183 0123 0B       		.uleb128 0xb
 1184 0124 3B       		.uleb128 0x3b
 1185 0125 0B       		.uleb128 0xb
 1186 0126 49       		.uleb128 0x49
 1187 0127 13       		.uleb128 0x13
 1188 0128 02       		.uleb128 0x2
 1189 0129 17       		.uleb128 0x17
 1190 012a 00       		.byte	0
 1191 012b 00       		.byte	0
ARM GAS  /var/folders/7z/kps_xzfj7sn5l5gkyq8s9db00000gn/T//ccohtrLk.s 			page 22


 1192 012c 18       		.uleb128 0x18
 1193 012d 0F       		.uleb128 0xf
 1194 012e 00       		.byte	0
 1195 012f 0B       		.uleb128 0xb
 1196 0130 0B       		.uleb128 0xb
 1197 0131 49       		.uleb128 0x49
 1198 0132 13       		.uleb128 0x13
 1199 0133 00       		.byte	0
 1200 0134 00       		.byte	0
 1201 0135 19       		.uleb128 0x19
 1202 0136 05       		.uleb128 0x5
 1203 0137 00       		.byte	0
 1204 0138 03       		.uleb128 0x3
 1205 0139 0E       		.uleb128 0xe
 1206 013a 3A       		.uleb128 0x3a
 1207 013b 0B       		.uleb128 0xb
 1208 013c 3B       		.uleb128 0x3b
 1209 013d 0B       		.uleb128 0xb
 1210 013e 49       		.uleb128 0x49
 1211 013f 13       		.uleb128 0x13
 1212 0140 02       		.uleb128 0x2
 1213 0141 18       		.uleb128 0x18
 1214 0142 00       		.byte	0
 1215 0143 00       		.byte	0
 1216 0144 1A       		.uleb128 0x1a
 1217 0145 34       		.uleb128 0x34
 1218 0146 00       		.byte	0
 1219 0147 03       		.uleb128 0x3
 1220 0148 0E       		.uleb128 0xe
 1221 0149 3A       		.uleb128 0x3a
 1222 014a 0B       		.uleb128 0xb
 1223 014b 3B       		.uleb128 0x3b
 1224 014c 05       		.uleb128 0x5
 1225 014d 49       		.uleb128 0x49
 1226 014e 13       		.uleb128 0x13
 1227 014f 3F       		.uleb128 0x3f
 1228 0150 19       		.uleb128 0x19
 1229 0151 3C       		.uleb128 0x3c
 1230 0152 19       		.uleb128 0x19
 1231 0153 00       		.byte	0
 1232 0154 00       		.byte	0
 1233 0155 00       		.byte	0
 1234              		.section	.debug_loc,"",%progbits
 1235              	.Ldebug_loc0:
 1236              	.LLST0:
 1237 0000 00000000 		.4byte	.LVL0
 1238 0004 04000000 		.4byte	.LVL1
 1239 0008 0100     		.2byte	0x1
 1240 000a 50       		.byte	0x50
 1241 000b 04000000 		.4byte	.LVL1
 1242 000f 14000000 		.4byte	.LFE111
 1243 0013 0400     		.2byte	0x4
 1244 0015 F3       		.byte	0xf3
 1245 0016 01       		.uleb128 0x1
 1246 0017 50       		.byte	0x50
 1247 0018 9F       		.byte	0x9f
 1248 0019 00000000 		.4byte	0
ARM GAS  /var/folders/7z/kps_xzfj7sn5l5gkyq8s9db00000gn/T//ccohtrLk.s 			page 23


 1249 001d 00000000 		.4byte	0
 1250              	.LLST1:
 1251 0021 00000000 		.4byte	.LVL2
 1252 0025 08000000 		.4byte	.LVL3
 1253 0029 0100     		.2byte	0x1
 1254 002b 50       		.byte	0x50
 1255 002c 08000000 		.4byte	.LVL3
 1256 0030 1C000000 		.4byte	.LVL4
 1257 0034 0400     		.2byte	0x4
 1258 0036 F3       		.byte	0xf3
 1259 0037 01       		.uleb128 0x1
 1260 0038 50       		.byte	0x50
 1261 0039 9F       		.byte	0x9f
 1262 003a 1C000000 		.4byte	.LVL4
 1263 003e 70000000 		.4byte	.LFE112
 1264 0042 0100     		.2byte	0x1
 1265 0044 50       		.byte	0x50
 1266 0045 00000000 		.4byte	0
 1267 0049 00000000 		.4byte	0
 1268              	.LLST2:
 1269 004d 00000000 		.4byte	.LVL2
 1270 0051 30000000 		.4byte	.LVL5
 1271 0055 0200     		.2byte	0x2
 1272 0057 30       		.byte	0x30
 1273 0058 9F       		.byte	0x9f
 1274 0059 30000000 		.4byte	.LVL5
 1275 005d 42000000 		.4byte	.LVL7
 1276 0061 0100     		.2byte	0x1
 1277 0063 51       		.byte	0x51
 1278 0064 42000000 		.4byte	.LVL7
 1279 0068 4C000000 		.4byte	.LVL8
 1280 006c 0100     		.2byte	0x1
 1281 006e 53       		.byte	0x53
 1282 006f 4E000000 		.4byte	.LVL9
 1283 0073 54000000 		.4byte	.LVL10
 1284 0077 0100     		.2byte	0x1
 1285 0079 53       		.byte	0x53
 1286 007a 54000000 		.4byte	.LVL10
 1287 007e 56000000 		.4byte	.LVL11
 1288 0082 0300     		.2byte	0x3
 1289 0084 72       		.byte	0x72
 1290 0085 8006     		.sleb128 768
 1291 0087 56000000 		.4byte	.LVL11
 1292 008b 62000000 		.4byte	.LVL12
 1293 008f 0600     		.2byte	0x6
 1294 0091 74       		.byte	0x74
 1295 0092 80C88380 		.sleb128 -536812544
 1295      7E
 1296 0097 00000000 		.4byte	0
 1297 009b 00000000 		.4byte	0
 1298              	.LLST3:
 1299 009f 00000000 		.4byte	.LVL2
 1300 00a3 30000000 		.4byte	.LVL5
 1301 00a7 0200     		.2byte	0x2
 1302 00a9 30       		.byte	0x30
 1303 00aa 9F       		.byte	0x9f
 1304 00ab 30000000 		.4byte	.LVL5
ARM GAS  /var/folders/7z/kps_xzfj7sn5l5gkyq8s9db00000gn/T//ccohtrLk.s 			page 24


 1305 00af 40000000 		.4byte	.LVL6
 1306 00b3 0500     		.2byte	0x5
 1307 00b5 34       		.byte	0x34
 1308 00b6 71       		.byte	0x71
 1309 00b7 00       		.sleb128 0
 1310 00b8 1C       		.byte	0x1c
 1311 00b9 9F       		.byte	0x9f
 1312 00ba 00000000 		.4byte	0
 1313 00be 00000000 		.4byte	0
 1314              	.LLST4:
 1315 00c2 00000000 		.4byte	.LVL2
 1316 00c6 30000000 		.4byte	.LVL5
 1317 00ca 0200     		.2byte	0x2
 1318 00cc 3F       		.byte	0x3f
 1319 00cd 9F       		.byte	0x9f
 1320 00ce 30000000 		.4byte	.LVL5
 1321 00d2 40000000 		.4byte	.LVL6
 1322 00d6 0500     		.2byte	0x5
 1323 00d8 3F       		.byte	0x3f
 1324 00d9 71       		.byte	0x71
 1325 00da 00       		.sleb128 0
 1326 00db 26       		.byte	0x26
 1327 00dc 9F       		.byte	0x9f
 1328 00dd 00000000 		.4byte	0
 1329 00e1 00000000 		.4byte	0
 1330              	.LLST5:
 1331 00e5 00000000 		.4byte	.LVL13
 1332 00e9 0C000000 		.4byte	.LVL15
 1333 00ed 0100     		.2byte	0x1
 1334 00ef 50       		.byte	0x50
 1335 00f0 0C000000 		.4byte	.LVL15
 1336 00f4 14000000 		.4byte	.LFE113
 1337 00f8 0400     		.2byte	0x4
 1338 00fa F3       		.byte	0xf3
 1339 00fb 01       		.uleb128 0x1
 1340 00fc 50       		.byte	0x50
 1341 00fd 9F       		.byte	0x9f
 1342 00fe 00000000 		.4byte	0
 1343 0102 00000000 		.4byte	0
 1344              	.LLST6:
 1345 0106 00000000 		.4byte	.LVL13
 1346 010a 04000000 		.4byte	.LVL14
 1347 010e 0100     		.2byte	0x1
 1348 0110 51       		.byte	0x51
 1349 0111 04000000 		.4byte	.LVL14
 1350 0115 14000000 		.4byte	.LFE113
 1351 0119 0400     		.2byte	0x4
 1352 011b F3       		.byte	0xf3
 1353 011c 01       		.uleb128 0x1
 1354 011d 51       		.byte	0x51
 1355 011e 9F       		.byte	0x9f
 1356 011f 00000000 		.4byte	0
 1357 0123 00000000 		.4byte	0
 1358              	.LLST7:
 1359 0127 00000000 		.4byte	.LVL16
 1360 012b 0A000000 		.4byte	.LVL17
 1361 012f 0100     		.2byte	0x1
ARM GAS  /var/folders/7z/kps_xzfj7sn5l5gkyq8s9db00000gn/T//ccohtrLk.s 			page 25


 1362 0131 50       		.byte	0x50
 1363 0132 0A000000 		.4byte	.LVL17
 1364 0136 0E000000 		.4byte	.LVL18
 1365 013a 0400     		.2byte	0x4
 1366 013c F3       		.byte	0xf3
 1367 013d 01       		.uleb128 0x1
 1368 013e 50       		.byte	0x50
 1369 013f 9F       		.byte	0x9f
 1370 0140 0E000000 		.4byte	.LVL18
 1371 0144 10000000 		.4byte	.LVL19
 1372 0148 0100     		.2byte	0x1
 1373 014a 50       		.byte	0x50
 1374 014b 10000000 		.4byte	.LVL19
 1375 014f 18000000 		.4byte	.LFE114
 1376 0153 0400     		.2byte	0x4
 1377 0155 F3       		.byte	0xf3
 1378 0156 01       		.uleb128 0x1
 1379 0157 50       		.byte	0x50
 1380 0158 9F       		.byte	0x9f
 1381 0159 00000000 		.4byte	0
 1382 015d 00000000 		.4byte	0
 1383              		.section	.debug_aranges,"",%progbits
 1384 0000 3C000000 		.4byte	0x3c
 1385 0004 0200     		.2byte	0x2
 1386 0006 00000000 		.4byte	.Ldebug_info0
 1387 000a 04       		.byte	0x4
 1388 000b 00       		.byte	0
 1389 000c 0000     		.2byte	0
 1390 000e 0000     		.2byte	0
 1391 0010 00000000 		.4byte	.LFB111
 1392 0014 14000000 		.4byte	.LFE111-.LFB111
 1393 0018 00000000 		.4byte	.LFB112
 1394 001c 70000000 		.4byte	.LFE112-.LFB112
 1395 0020 00000000 		.4byte	.LFB113
 1396 0024 14000000 		.4byte	.LFE113-.LFB113
 1397 0028 00000000 		.4byte	.LFB114
 1398 002c 18000000 		.4byte	.LFE114-.LFB114
 1399 0030 00000000 		.4byte	.LFB115
 1400 0034 18000000 		.4byte	.LFE115-.LFB115
 1401 0038 00000000 		.4byte	0
 1402 003c 00000000 		.4byte	0
 1403              		.section	.debug_ranges,"",%progbits
 1404              	.Ldebug_ranges0:
 1405 0000 00000000 		.4byte	.LFB111
 1406 0004 14000000 		.4byte	.LFE111
 1407 0008 00000000 		.4byte	.LFB112
 1408 000c 70000000 		.4byte	.LFE112
 1409 0010 00000000 		.4byte	.LFB113
 1410 0014 14000000 		.4byte	.LFE113
 1411 0018 00000000 		.4byte	.LFB114
 1412 001c 18000000 		.4byte	.LFE114
 1413 0020 00000000 		.4byte	.LFB115
 1414 0024 18000000 		.4byte	.LFE115
 1415 0028 00000000 		.4byte	0
 1416 002c 00000000 		.4byte	0
 1417              		.section	.debug_line,"",%progbits
 1418              	.Ldebug_line0:
ARM GAS  /var/folders/7z/kps_xzfj7sn5l5gkyq8s9db00000gn/T//ccohtrLk.s 			page 26


 1419 0000 1A020000 		.section	.debug_str,"MS",%progbits,1
 1419      02009201 
 1419      00000201 
 1419      FB0E0D00 
 1419      01010101 
 1420              	.LASF14:
 1421 0000 75696E74 		.ascii	"uint32_t\000"
 1421      33325F74 
 1421      00
 1422              	.LASF23:
 1423 0009 49414252 		.ascii	"IABR\000"
 1423      00
 1424              	.LASF55:
 1425 000e 4E564943 		.ascii	"NVIC_InitTypeDef\000"
 1425      5F496E69 
 1425      74547970 
 1425      65446566 
 1425      00
 1426              	.LASF54:
 1427 001f 4E564943 		.ascii	"NVIC_IRQChannelCmd\000"
 1427      5F495251 
 1427      4368616E 
 1427      6E656C43 
 1427      6D6400
 1428              	.LASF70:
 1429 0032 53797354 		.ascii	"SysTick_CLKSource\000"
 1429      69636B5F 
 1429      434C4B53 
 1429      6F757263 
 1429      6500
 1430              	.LASF71:
 1431 0044 474E5520 		.ascii	"GNU C 4.9.3 20150303 (release) [ARM/embedded-4_9-br"
 1431      4320342E 
 1431      392E3320 
 1431      32303135 
 1431      30333033 
 1432 0077 616E6368 		.ascii	"anch revision 221220] -mcpu=cortex-m4 -mfloat-abi=h"
 1432      20726576 
 1432      6973696F 
 1432      6E203232 
 1432      31323230 
 1433 00aa 61726420 		.ascii	"ard -mfpu=fpv4-sp-d16 -mno-thumb-interwork -mthumb "
 1433      2D6D6670 
 1433      753D6670 
 1433      76342D73 
 1433      702D6431 
 1434 00dd 2D676764 		.ascii	"-ggdb -O2 -std=gnu99 -fomit-frame-pointer -falign-f"
 1434      62202D4F 
 1434      32202D73 
 1434      74643D67 
 1434      6E753939 
 1435 0110 756E6374 		.ascii	"unctions=16 -ffunction-sections -fdata-sections -fn"
 1435      696F6E73 
 1435      3D313620 
 1435      2D666675 
 1435      6E637469 
 1436 0143 6F2D636F 		.ascii	"o-common -fsingle-precision-constant\000"
ARM GAS  /var/folders/7z/kps_xzfj7sn5l5gkyq8s9db00000gn/T//ccohtrLk.s 			page 27


 1436      6D6D6F6E 
 1436      202D6673 
 1436      696E676C 
 1436      652D7072 
 1437              	.LASF59:
 1438 0168 4E564943 		.ascii	"NVIC_InitStruct\000"
 1438      5F496E69 
 1438      74537472 
 1438      75637400 
 1439              	.LASF58:
 1440 0178 4E564943 		.ascii	"NVIC_PriorityGroup\000"
 1440      5F507269 
 1440      6F726974 
 1440      7947726F 
 1440      757000
 1441              	.LASF37:
 1442 018b 4D4D4641 		.ascii	"MMFAR\000"
 1442      5200
 1443              	.LASF2:
 1444 0191 73686F72 		.ascii	"short int\000"
 1444      7420696E 
 1444      7400
 1445              	.LASF27:
 1446 019b 73697A65 		.ascii	"sizetype\000"
 1446      74797065 
 1446      00
 1447              	.LASF57:
 1448 01a4 4E564943 		.ascii	"NVIC_Init\000"
 1448      5F496E69 
 1448      7400
 1449              	.LASF61:
 1450 01ae 746D7070 		.ascii	"tmppre\000"
 1450      726500
 1451              	.LASF7:
 1452 01b5 5F5F7569 		.ascii	"__uint32_t\000"
 1452      6E743332 
 1452      5F7400
 1453              	.LASF29:
 1454 01c0 43505549 		.ascii	"CPUID\000"
 1454      4400
 1455              	.LASF15:
 1456 01c6 49534552 		.ascii	"ISER\000"
 1456      00
 1457              	.LASF12:
 1458 01cb 75696E74 		.ascii	"uint8_t\000"
 1458      385F7400 
 1459              	.LASF43:
 1460 01d3 5343425F 		.ascii	"SCB_Type\000"
 1460      54797065 
 1460      00
 1461              	.LASF68:
 1462 01dc 4E657753 		.ascii	"NewState\000"
 1462      74617465 
 1462      00
 1463              	.LASF26:
 1464 01e5 53544952 		.ascii	"STIR\000"
 1464      00
ARM GAS  /var/folders/7z/kps_xzfj7sn5l5gkyq8s9db00000gn/T//ccohtrLk.s 			page 28


 1465              	.LASF48:
 1466 01ea 44495341 		.ascii	"DISABLE\000"
 1466      424C4500 
 1467              	.LASF30:
 1468 01f2 49435352 		.ascii	"ICSR\000"
 1468      00
 1469              	.LASF18:
 1470 01f7 52534552 		.ascii	"RSERVED1\000"
 1470      56454431 
 1470      00
 1471              	.LASF9:
 1472 0200 6C6F6E67 		.ascii	"long long int\000"
 1472      206C6F6E 
 1472      6720696E 
 1472      7400
 1473              	.LASF65:
 1474 020e 4F666673 		.ascii	"Offset\000"
 1474      657400
 1475              	.LASF38:
 1476 0215 42464152 		.ascii	"BFAR\000"
 1476      00
 1477              	.LASF6:
 1478 021a 6C6F6E67 		.ascii	"long int\000"
 1478      20696E74 
 1478      00
 1479              	.LASF4:
 1480 0223 5F5F7569 		.ascii	"__uint8_t\000"
 1480      6E74385F 
 1480      7400
 1481              	.LASF34:
 1482 022d 43465352 		.ascii	"CFSR\000"
 1482      00
 1483              	.LASF72:
 1484 0232 6C69622F 		.ascii	"lib/ChibiOS_2.6.6/ext/stdperiph_stm32f4/src/misc.c\000"
 1484      43686962 
 1484      694F535F 
 1484      322E362E 
 1484      362F6578 
 1485              	.LASF32:
 1486 0265 41495243 		.ascii	"AIRCR\000"
 1486      5200
 1487              	.LASF1:
 1488 026b 756E7369 		.ascii	"unsigned char\000"
 1488      676E6564 
 1488      20636861 
 1488      7200
 1489              	.LASF44:
 1490 0279 4354524C 		.ascii	"CTRL\000"
 1490      00
 1491              	.LASF63:
 1492 027e 4E564943 		.ascii	"NVIC_SetVectorTable\000"
 1492      5F536574 
 1492      56656374 
 1492      6F725461 
 1492      626C6500 
 1493              	.LASF21:
 1494 0292 49435052 		.ascii	"ICPR\000"
ARM GAS  /var/folders/7z/kps_xzfj7sn5l5gkyq8s9db00000gn/T//ccohtrLk.s 			page 29


 1494      00
 1495              	.LASF0:
 1496 0297 7369676E 		.ascii	"signed char\000"
 1496      65642063 
 1496      68617200 
 1497              	.LASF10:
 1498 02a3 6C6F6E67 		.ascii	"long long unsigned int\000"
 1498      206C6F6E 
 1498      6720756E 
 1498      7369676E 
 1498      65642069 
 1499              	.LASF46:
 1500 02ba 43414C49 		.ascii	"CALIB\000"
 1500      4200
 1501              	.LASF33:
 1502 02c0 53484353 		.ascii	"SHCSR\000"
 1502      5200
 1503              	.LASF11:
 1504 02c6 756E7369 		.ascii	"unsigned int\000"
 1504      676E6564 
 1504      20696E74 
 1504      00
 1505              	.LASF17:
 1506 02d3 49434552 		.ascii	"ICER\000"
 1506      00
 1507              	.LASF62:
 1508 02d8 746D7073 		.ascii	"tmpsub\000"
 1508      756200
 1509              	.LASF66:
 1510 02df 4E564943 		.ascii	"NVIC_SystemLPConfig\000"
 1510      5F537973 
 1510      74656D4C 
 1510      50436F6E 
 1510      66696700 
 1511              	.LASF69:
 1512 02f3 53797354 		.ascii	"SysTick_CLKSourceConfig\000"
 1512      69636B5F 
 1512      434C4B53 
 1512      6F757263 
 1512      65436F6E 
 1513              	.LASF47:
 1514 030b 53797354 		.ascii	"SysTick_Type\000"
 1514      69636B5F 
 1514      54797065 
 1514      00
 1515              	.LASF3:
 1516 0318 73686F72 		.ascii	"short unsigned int\000"
 1516      7420756E 
 1516      7369676E 
 1516      65642069 
 1516      6E7400
 1517              	.LASF60:
 1518 032b 746D7070 		.ascii	"tmppriority\000"
 1518      72696F72 
 1518      69747900 
 1519              	.LASF31:
 1520 0337 56544F52 		.ascii	"VTOR\000"
ARM GAS  /var/folders/7z/kps_xzfj7sn5l5gkyq8s9db00000gn/T//ccohtrLk.s 			page 30


 1520      00
 1521              	.LASF13:
 1522 033c 696E7433 		.ascii	"int32_t\000"
 1522      325F7400 
 1523              	.LASF41:
 1524 0344 49534152 		.ascii	"ISAR\000"
 1524      00
 1525              	.LASF19:
 1526 0349 49535052 		.ascii	"ISPR\000"
 1526      00
 1527              	.LASF36:
 1528 034e 44465352 		.ascii	"DFSR\000"
 1528      00
 1529              	.LASF51:
 1530 0353 4E564943 		.ascii	"NVIC_IRQChannel\000"
 1530      5F495251 
 1530      4368616E 
 1530      6E656C00 
 1531              	.LASF53:
 1532 0363 4E564943 		.ascii	"NVIC_IRQChannelSubPriority\000"
 1532      5F495251 
 1532      4368616E 
 1532      6E656C53 
 1532      75625072 
 1533              	.LASF35:
 1534 037e 48465352 		.ascii	"HFSR\000"
 1534      00
 1535              	.LASF40:
 1536 0383 4D4D4652 		.ascii	"MMFR\000"
 1536      00
 1537              	.LASF16:
 1538 0388 52455345 		.ascii	"RESERVED0\000"
 1538      52564544 
 1538      3000
 1539              	.LASF20:
 1540 0392 52455345 		.ascii	"RESERVED2\000"
 1540      52564544 
 1540      3200
 1541              	.LASF22:
 1542 039c 52455345 		.ascii	"RESERVED3\000"
 1542      52564544 
 1542      3300
 1543              	.LASF24:
 1544 03a6 52455345 		.ascii	"RESERVED4\000"
 1544      52564544 
 1544      3400
 1545              	.LASF25:
 1546 03b0 52455345 		.ascii	"RESERVED5\000"
 1546      52564544 
 1546      3500
 1547              	.LASF8:
 1548 03ba 6C6F6E67 		.ascii	"long unsigned int\000"
 1548      20756E73 
 1548      69676E65 
 1548      6420696E 
 1548      7400
 1549              	.LASF28:
ARM GAS  /var/folders/7z/kps_xzfj7sn5l5gkyq8s9db00000gn/T//ccohtrLk.s 			page 31


 1550 03cc 4E564943 		.ascii	"NVIC_Type\000"
 1550      5F547970 
 1550      6500
 1551              	.LASF52:
 1552 03d6 4E564943 		.ascii	"NVIC_IRQChannelPreemptionPriority\000"
 1552      5F495251 
 1552      4368616E 
 1552      6E656C50 
 1552      7265656D 
 1553              	.LASF50:
 1554 03f8 46756E63 		.ascii	"FunctionalState\000"
 1554      74696F6E 
 1554      616C5374 
 1554      61746500 
 1555              	.LASF5:
 1556 0408 5F5F696E 		.ascii	"__int32_t\000"
 1556      7433325F 
 1556      7400
 1557              	.LASF64:
 1558 0412 4E564943 		.ascii	"NVIC_VectTab\000"
 1558      5F566563 
 1558      74546162 
 1558      00
 1559              	.LASF45:
 1560 041f 4C4F4144 		.ascii	"LOAD\000"
 1560      00
 1561              	.LASF39:
 1562 0424 41465352 		.ascii	"AFSR\000"
 1562      00
 1563              	.LASF67:
 1564 0429 4C6F7750 		.ascii	"LowPowerMode\000"
 1564      6F776572 
 1564      4D6F6465 
 1564      00
 1565              	.LASF74:
 1566 0436 49544D5F 		.ascii	"ITM_RxBuffer\000"
 1566      52784275 
 1566      66666572 
 1566      00
 1567              	.LASF73:
 1568 0443 2F557365 		.ascii	"/Users/Baram/oroca_bldc_dev/oroca_bldc_dev/\000"
 1568      72732F42 
 1568      6172616D 
 1568      2F6F726F 
 1568      63615F62 
 1569              	.LASF42:
 1570 046f 43504143 		.ascii	"CPACR\000"
 1570      5200
 1571              	.LASF49:
 1572 0475 454E4142 		.ascii	"ENABLE\000"
 1572      4C4500
 1573              	.LASF56:
 1574 047c 4E564943 		.ascii	"NVIC_PriorityGroupConfig\000"
 1574      5F507269 
 1574      6F726974 
 1574      7947726F 
 1574      7570436F 
ARM GAS  /var/folders/7z/kps_xzfj7sn5l5gkyq8s9db00000gn/T//ccohtrLk.s 			page 32


 1575              		.ident	"GCC: (GNU Tools for ARM Embedded Processors) 4.9.3 20150303 (release) [ARM/embedded-4_9-br
ARM GAS  /var/folders/7z/kps_xzfj7sn5l5gkyq8s9db00000gn/T//ccohtrLk.s 			page 33


DEFINED SYMBOLS
                            *ABS*:0000000000000000 misc.c
/var/folders/7z/kps_xzfj7sn5l5gkyq8s9db00000gn/T//ccohtrLk.s:21     .text.NVIC_PriorityGroupConfig:0000000000000000 $t
/var/folders/7z/kps_xzfj7sn5l5gkyq8s9db00000gn/T//ccohtrLk.s:27     .text.NVIC_PriorityGroupConfig:0000000000000000 NVIC_PriorityGroupConfig
/var/folders/7z/kps_xzfj7sn5l5gkyq8s9db00000gn/T//ccohtrLk.s:46     .text.NVIC_PriorityGroupConfig:0000000000000010 $d
/var/folders/7z/kps_xzfj7sn5l5gkyq8s9db00000gn/T//ccohtrLk.s:51     .text.NVIC_Init:0000000000000000 $t
/var/folders/7z/kps_xzfj7sn5l5gkyq8s9db00000gn/T//ccohtrLk.s:57     .text.NVIC_Init:0000000000000000 NVIC_Init
/var/folders/7z/kps_xzfj7sn5l5gkyq8s9db00000gn/T//ccohtrLk.s:158    .text.NVIC_Init:0000000000000068 $d
/var/folders/7z/kps_xzfj7sn5l5gkyq8s9db00000gn/T//ccohtrLk.s:164    .text.NVIC_SetVectorTable:0000000000000000 $t
/var/folders/7z/kps_xzfj7sn5l5gkyq8s9db00000gn/T//ccohtrLk.s:170    .text.NVIC_SetVectorTable:0000000000000000 NVIC_SetVectorTable
/var/folders/7z/kps_xzfj7sn5l5gkyq8s9db00000gn/T//ccohtrLk.s:190    .text.NVIC_SetVectorTable:0000000000000010 $d
/var/folders/7z/kps_xzfj7sn5l5gkyq8s9db00000gn/T//ccohtrLk.s:195    .text.NVIC_SystemLPConfig:0000000000000000 $t
/var/folders/7z/kps_xzfj7sn5l5gkyq8s9db00000gn/T//ccohtrLk.s:201    .text.NVIC_SystemLPConfig:0000000000000000 NVIC_SystemLPConfig
/var/folders/7z/kps_xzfj7sn5l5gkyq8s9db00000gn/T//ccohtrLk.s:229    .text.NVIC_SystemLPConfig:0000000000000014 $d
/var/folders/7z/kps_xzfj7sn5l5gkyq8s9db00000gn/T//ccohtrLk.s:234    .text.SysTick_CLKSourceConfig:0000000000000000 $t
/var/folders/7z/kps_xzfj7sn5l5gkyq8s9db00000gn/T//ccohtrLk.s:240    .text.SysTick_CLKSourceConfig:0000000000000000 SysTick_CLKSourceConfig
/var/folders/7z/kps_xzfj7sn5l5gkyq8s9db00000gn/T//ccohtrLk.s:263    .text.SysTick_CLKSourceConfig:0000000000000014 $d
                     .debug_frame:0000000000000010 $d
/var/folders/7z/kps_xzfj7sn5l5gkyq8s9db00000gn/T//ccohtrLk.s:50     .text.NVIC_PriorityGroupConfig:0000000000000014 $t
/var/folders/7z/kps_xzfj7sn5l5gkyq8s9db00000gn/T//ccohtrLk.s:194    .text.NVIC_SetVectorTable:0000000000000014 $t
/var/folders/7z/kps_xzfj7sn5l5gkyq8s9db00000gn/T//ccohtrLk.s:233    .text.NVIC_SystemLPConfig:0000000000000018 $t
/var/folders/7z/kps_xzfj7sn5l5gkyq8s9db00000gn/T//ccohtrLk.s:267    .text.SysTick_CLKSourceConfig:0000000000000018 $t

NO UNDEFINED SYMBOLS
