ARM GAS  /var/folders/7z/kps_xzfj7sn5l5gkyq8s9db00000gn/T//cck5P0LB.s 			page 1


   1              		.syntax unified
   2              		.cpu cortex-m4
   3              		.eabi_attribute 27, 1
   4              		.eabi_attribute 28, 1
   5              		.fpu fpv4-sp-d16
   6              		.eabi_attribute 20, 1
   7              		.eabi_attribute 21, 1
   8              		.eabi_attribute 23, 3
   9              		.eabi_attribute 24, 1
  10              		.eabi_attribute 25, 1
  11              		.eabi_attribute 26, 1
  12              		.eabi_attribute 30, 2
  13              		.eabi_attribute 34, 1
  14              		.eabi_attribute 18, 4
  15              		.thumb
  16              		.file	"stm32f4xx_rtc.c"
  17              		.text
  18              	.Ltext0:
  19              		.cfi_sections	.debug_frame
  20              		.section	.text.RTC_StructInit,"ax",%progbits
  21              		.align	2
  22              		.p2align 4,,15
  23              		.global	RTC_StructInit
  24              		.thumb
  25              		.thumb_func
  26              		.type	RTC_StructInit, %function
  27              	RTC_StructInit:
  28              	.LFB113:
  29              		.file 1 "lib/ChibiOS_2.6.6/ext/stdperiph_stm32f4/src/stm32f4xx_rtc.c"
  30              		.loc 1 502 0
  31              		.cfi_startproc
  32              		@ args = 0, pretend = 0, frame = 0
  33              		@ frame_needed = 0, uses_anonymous_args = 0
  34              		@ link register save eliminated.
  35              	.LVL0:
  36              		.loc 1 510 0
  37 0000 0021     		movs	r1, #0
  38 0002 7F22     		movs	r2, #127
  39 0004 FF23     		movs	r3, #255
  40 0006 80E80E00 		stmia	r0, {r1, r2, r3}
  41 000a 7047     		bx	lr
  42              		.cfi_endproc
  43              	.LFE113:
  44              		.size	RTC_StructInit, .-RTC_StructInit
  45 000c AFF30080 		.section	.text.RTC_WriteProtectionCmd,"ax",%progbits
  46              		.align	2
  47              		.p2align 4,,15
  48              		.global	RTC_WriteProtectionCmd
  49              		.thumb
  50              		.thumb_func
  51              		.type	RTC_WriteProtectionCmd, %function
  52              	RTC_WriteProtectionCmd:
  53              	.LFB114:
  54              		.loc 1 524 0
  55              		.cfi_startproc
  56              		@ args = 0, pretend = 0, frame = 0
  57              		@ frame_needed = 0, uses_anonymous_args = 0
ARM GAS  /var/folders/7z/kps_xzfj7sn5l5gkyq8s9db00000gn/T//cck5P0LB.s 			page 2


  58              		@ link register save eliminated.
  59              	.LVL1:
  60              		.loc 1 531 0
  61 0000 044B     		ldr	r3, .L7
  62              		.loc 1 528 0
  63 0002 20B9     		cbnz	r0, .L6
  64              		.loc 1 536 0
  65 0004 CA21     		movs	r1, #202
  66              		.loc 1 537 0
  67 0006 5322     		movs	r2, #83
  68              		.loc 1 536 0
  69 0008 5962     		str	r1, [r3, #36]
  70              		.loc 1 537 0
  71 000a 5A62     		str	r2, [r3, #36]
  72 000c 7047     		bx	lr
  73              	.L6:
  74              		.loc 1 531 0
  75 000e FF22     		movs	r2, #255
  76 0010 5A62     		str	r2, [r3, #36]
  77 0012 7047     		bx	lr
  78              	.L8:
  79              		.align	2
  80              	.L7:
  81 0014 00280040 		.word	1073752064
  82              		.cfi_endproc
  83              	.LFE114:
  84              		.size	RTC_WriteProtectionCmd, .-RTC_WriteProtectionCmd
  85 0018 AFF30080 		.section	.text.RTC_EnterInitMode,"ax",%progbits
  85      AFF30080 
  86              		.align	2
  87              		.p2align 4,,15
  88              		.global	RTC_EnterInitMode
  89              		.thumb
  90              		.thumb_func
  91              		.type	RTC_EnterInitMode, %function
  92              	RTC_EnterInitMode:
  93              	.LFB115:
  94              		.loc 1 551 0
  95              		.cfi_startproc
  96              		@ args = 0, pretend = 0, frame = 8
  97              		@ frame_needed = 0, uses_anonymous_args = 0
  98              		@ link register save eliminated.
  99 0000 82B0     		sub	sp, sp, #8
 100              		.cfi_def_cfa_offset 8
 101              		.loc 1 552 0
 102 0002 0023     		movs	r3, #0
 103              		.loc 1 557 0
 104 0004 0E49     		ldr	r1, .L21
 105              		.loc 1 552 0
 106 0006 0193     		str	r3, [sp, #4]
 107              	.LVL2:
 108              		.loc 1 557 0
 109 0008 CB68     		ldr	r3, [r1, #12]
 110 000a 5B06     		lsls	r3, r3, #25
 111 000c 14D4     		bmi	.L13
 112              		.loc 1 560 0
 113 000e 4FF0FF33 		mov	r3, #-1
ARM GAS  /var/folders/7z/kps_xzfj7sn5l5gkyq8s9db00000gn/T//cck5P0LB.s 			page 3


 114 0012 CB60     		str	r3, [r1, #12]
 115 0014 00E0     		b	.L12
 116              	.LVL3:
 117              	.L20:
 118              		.loc 1 567 0 discriminator 1
 119 0016 4AB9     		cbnz	r2, .L11
 120              	.LVL4:
 121              	.L12:
 122              		.loc 1 565 0 discriminator 2
 123 0018 CA68     		ldr	r2, [r1, #12]
 124              		.loc 1 566 0 discriminator 2
 125 001a 019B     		ldr	r3, [sp, #4]
 126 001c 0133     		adds	r3, r3, #1
 127 001e 0193     		str	r3, [sp, #4]
 128              		.loc 1 567 0 discriminator 2
 129 0020 019B     		ldr	r3, [sp, #4]
 130 0022 B3F5803F 		cmp	r3, #65536
 131              		.loc 1 565 0 discriminator 2
 132 0026 02F04002 		and	r2, r2, #64
 133              	.LVL5:
 134              		.loc 1 567 0 discriminator 2
 135 002a F4D1     		bne	.L20
 136              	.L11:
 137              	.LBB80:
 138              	.LBB81:
 139              		.loc 1 569 0
 140 002c 044B     		ldr	r3, .L21
 141 002e D868     		ldr	r0, [r3, #12]
 142              		.loc 1 575 0
 143 0030 C0F38010 		ubfx	r0, r0, #6, #1
 144              	.LVL6:
 145              	.LBE81:
 146              	.LBE80:
 147              		.loc 1 584 0
 148 0034 02B0     		add	sp, sp, #8
 149              		.cfi_remember_state
 150              		.cfi_def_cfa_offset 0
 151              		@ sp needed
 152 0036 7047     		bx	lr
 153              	.LVL7:
 154              	.L13:
 155              		.cfi_restore_state
 156              		.loc 1 580 0
 157 0038 0120     		movs	r0, #1
 158              	.LVL8:
 159              		.loc 1 584 0
 160 003a 02B0     		add	sp, sp, #8
 161              		.cfi_def_cfa_offset 0
 162              		@ sp needed
 163 003c 7047     		bx	lr
 164              	.L22:
 165 003e 00BF     		.align	2
 166              	.L21:
 167 0040 00280040 		.word	1073752064
 168              		.cfi_endproc
 169              	.LFE115:
 170              		.size	RTC_EnterInitMode, .-RTC_EnterInitMode
ARM GAS  /var/folders/7z/kps_xzfj7sn5l5gkyq8s9db00000gn/T//cck5P0LB.s 			page 4


 171 0044 AFF30080 		.section	.text.RTC_Init,"ax",%progbits
 171      AFF30080 
 171      AFF30080 
 172              		.align	2
 173              		.p2align 4,,15
 174              		.global	RTC_Init
 175              		.thumb
 176              		.thumb_func
 177              		.type	RTC_Init, %function
 178              	RTC_Init:
 179              	.LFB112:
 180              		.loc 1 456 0
 181              		.cfi_startproc
 182              		@ args = 0, pretend = 0, frame = 0
 183              		@ frame_needed = 0, uses_anonymous_args = 0
 184              	.LVL9:
 185 0000 38B5     		push	{r3, r4, r5, lr}
 186              		.cfi_def_cfa_offset 16
 187              		.cfi_offset 3, -16
 188              		.cfi_offset 4, -12
 189              		.cfi_offset 5, -8
 190              		.cfi_offset 14, -4
 191              		.loc 1 465 0
 192 0002 104C     		ldr	r4, .L27
 193 0004 CA22     		movs	r2, #202
 194              		.loc 1 466 0
 195 0006 5323     		movs	r3, #83
 196              		.loc 1 465 0
 197 0008 6262     		str	r2, [r4, #36]
 198              		.loc 1 466 0
 199 000a 6362     		str	r3, [r4, #36]
 200              		.loc 1 456 0
 201 000c 0546     		mov	r5, r0
 202              		.loc 1 469 0
 203 000e FFF7FEFF 		bl	RTC_EnterInitMode
 204              	.LVL10:
 205 0012 98B1     		cbz	r0, .L24
 206              		.loc 1 476 0
 207 0014 A368     		ldr	r3, [r4, #8]
 208 0016 23F04003 		bic	r3, r3, #64
 209 001a A360     		str	r3, [r4, #8]
 210              		.loc 1 478 0
 211 001c A268     		ldr	r2, [r4, #8]
 212 001e 2B68     		ldr	r3, [r5]
 213 0020 1343     		orrs	r3, r3, r2
 214 0022 A360     		str	r3, [r4, #8]
 215              		.loc 1 481 0
 216 0024 AB68     		ldr	r3, [r5, #8]
 217 0026 2361     		str	r3, [r4, #16]
 218              		.loc 1 482 0
 219 0028 2369     		ldr	r3, [r4, #16]
 220 002a 6A68     		ldr	r2, [r5, #4]
 221 002c 43EA0243 		orr	r3, r3, r2, lsl #16
 222 0030 2361     		str	r3, [r4, #16]
 223              	.LBB82:
 224              	.LBB83:
 225              		.loc 1 598 0
ARM GAS  /var/folders/7z/kps_xzfj7sn5l5gkyq8s9db00000gn/T//cck5P0LB.s 			page 5


 226 0032 E368     		ldr	r3, [r4, #12]
 227 0034 23F08003 		bic	r3, r3, #128
 228 0038 E360     		str	r3, [r4, #12]
 229              	.LVL11:
 230              	.LBE83:
 231              	.LBE82:
 232              		.loc 1 487 0
 233 003a 0120     		movs	r0, #1
 234              	.LVL12:
 235              	.L24:
 236              		.loc 1 490 0
 237 003c 014B     		ldr	r3, .L27
 238 003e FF22     		movs	r2, #255
 239 0040 5A62     		str	r2, [r3, #36]
 240              		.loc 1 493 0
 241 0042 38BD     		pop	{r3, r4, r5, pc}
 242              	.LVL13:
 243              	.L28:
 244              		.align	2
 245              	.L27:
 246 0044 00280040 		.word	1073752064
 247              		.cfi_endproc
 248              	.LFE112:
 249              		.size	RTC_Init, .-RTC_Init
 250 0048 AFF30080 		.section	.text.RTC_ExitInitMode,"ax",%progbits
 250      AFF30080 
 251              		.align	2
 252              		.p2align 4,,15
 253              		.global	RTC_ExitInitMode
 254              		.thumb
 255              		.thumb_func
 256              		.type	RTC_ExitInitMode, %function
 257              	RTC_ExitInitMode:
 258              	.LFB116:
 259              		.loc 1 596 0
 260              		.cfi_startproc
 261              		@ args = 0, pretend = 0, frame = 0
 262              		@ frame_needed = 0, uses_anonymous_args = 0
 263              		@ link register save eliminated.
 264              		.loc 1 598 0
 265 0000 024A     		ldr	r2, .L30
 266 0002 D368     		ldr	r3, [r2, #12]
 267 0004 23F08003 		bic	r3, r3, #128
 268 0008 D360     		str	r3, [r2, #12]
 269 000a 7047     		bx	lr
 270              	.L31:
 271              		.align	2
 272              	.L30:
 273 000c 00280040 		.word	1073752064
 274              		.cfi_endproc
 275              	.LFE116:
 276              		.size	RTC_ExitInitMode, .-RTC_ExitInitMode
 277              		.section	.text.RTC_WaitForSynchro,"ax",%progbits
 278              		.align	2
 279              		.p2align 4,,15
 280              		.global	RTC_WaitForSynchro
 281              		.thumb
ARM GAS  /var/folders/7z/kps_xzfj7sn5l5gkyq8s9db00000gn/T//cck5P0LB.s 			page 6


 282              		.thumb_func
 283              		.type	RTC_WaitForSynchro, %function
 284              	RTC_WaitForSynchro:
 285              	.LFB117:
 286              		.loc 1 618 0
 287              		.cfi_startproc
 288              		@ args = 0, pretend = 0, frame = 8
 289              		@ frame_needed = 0, uses_anonymous_args = 0
 290              		@ link register save eliminated.
 291              		.loc 1 624 0
 292 0000 0F49     		ldr	r1, .L42
 293              		.loc 1 618 0
 294 0002 82B0     		sub	sp, sp, #8
 295              		.cfi_def_cfa_offset 8
 296              		.loc 1 625 0
 297 0004 5323     		movs	r3, #83
 298              		.loc 1 619 0
 299 0006 0020     		movs	r0, #0
 300              		.loc 1 624 0
 301 0008 CA22     		movs	r2, #202
 302              		.loc 1 619 0
 303 000a 0190     		str	r0, [sp, #4]
 304              	.LVL14:
 305              		.loc 1 624 0
 306 000c 4A62     		str	r2, [r1, #36]
 307              		.loc 1 625 0
 308 000e 4B62     		str	r3, [r1, #36]
 309              		.loc 1 628 0
 310 0010 CB68     		ldr	r3, [r1, #12]
 311 0012 23F0A003 		bic	r3, r3, #160
 312 0016 CB60     		str	r3, [r1, #12]
 313 0018 00E0     		b	.L34
 314              	.LVL15:
 315              	.L41:
 316              		.loc 1 635 0 discriminator 1
 317 001a 4AB9     		cbnz	r2, .L33
 318              	.LVL16:
 319              	.L34:
 320              		.loc 1 633 0 discriminator 2
 321 001c CA68     		ldr	r2, [r1, #12]
 322              		.loc 1 634 0 discriminator 2
 323 001e 019B     		ldr	r3, [sp, #4]
 324 0020 0133     		adds	r3, r3, #1
 325 0022 0193     		str	r3, [sp, #4]
 326              		.loc 1 635 0 discriminator 2
 327 0024 019B     		ldr	r3, [sp, #4]
 328 0026 B3F5003F 		cmp	r3, #131072
 329              		.loc 1 633 0 discriminator 2
 330 002a 02F02002 		and	r2, r2, #32
 331              	.LVL17:
 332              		.loc 1 635 0 discriminator 2
 333 002e F4D1     		bne	.L41
 334              	.L33:
 335              		.loc 1 637 0
 336 0030 034B     		ldr	r3, .L42
 337 0032 D868     		ldr	r0, [r3, #12]
 338              	.LVL18:
ARM GAS  /var/folders/7z/kps_xzfj7sn5l5gkyq8s9db00000gn/T//cck5P0LB.s 			page 7


 339              		.loc 1 647 0
 340 0034 FF22     		movs	r2, #255
 341              	.LVL19:
 342              		.loc 1 650 0
 343 0036 C0F34010 		ubfx	r0, r0, #5, #1
 344              	.LVL20:
 345              		.loc 1 647 0
 346 003a 5A62     		str	r2, [r3, #36]
 347              		.loc 1 650 0
 348 003c 02B0     		add	sp, sp, #8
 349              		.cfi_def_cfa_offset 0
 350              		@ sp needed
 351 003e 7047     		bx	lr
 352              	.L43:
 353              		.align	2
 354              	.L42:
 355 0040 00280040 		.word	1073752064
 356              		.cfi_endproc
 357              	.LFE117:
 358              		.size	RTC_WaitForSynchro, .-RTC_WaitForSynchro
 359 0044 AFF30080 		.section	.text.RTC_DeInit,"ax",%progbits
 359      AFF30080 
 359      AFF30080 
 360              		.align	2
 361              		.p2align 4,,15
 362              		.global	RTC_DeInit
 363              		.thumb
 364              		.thumb_func
 365              		.type	RTC_DeInit, %function
 366              	RTC_DeInit:
 367              	.LFB111:
 368              		.loc 1 374 0
 369              		.cfi_startproc
 370              		@ args = 0, pretend = 0, frame = 8
 371              		@ frame_needed = 0, uses_anonymous_args = 0
 372 0000 30B5     		push	{r4, r5, lr}
 373              		.cfi_def_cfa_offset 12
 374              		.cfi_offset 4, -12
 375              		.cfi_offset 5, -8
 376              		.cfi_offset 14, -4
 377              		.loc 1 380 0
 378 0002 204C     		ldr	r4, .L61
 379              		.loc 1 374 0
 380 0004 83B0     		sub	sp, sp, #12
 381              		.cfi_def_cfa_offset 24
 382              		.loc 1 375 0
 383 0006 0025     		movs	r5, #0
 384              		.loc 1 380 0
 385 0008 CA22     		movs	r2, #202
 386              		.loc 1 381 0
 387 000a 5323     		movs	r3, #83
 388              		.loc 1 375 0
 389 000c 0195     		str	r5, [sp, #4]
 390              	.LVL21:
 391              		.loc 1 380 0
 392 000e 6262     		str	r2, [r4, #36]
 393              		.loc 1 381 0
ARM GAS  /var/folders/7z/kps_xzfj7sn5l5gkyq8s9db00000gn/T//cck5P0LB.s 			page 8


 394 0010 6362     		str	r3, [r4, #36]
 395              		.loc 1 384 0
 396 0012 FFF7FEFF 		bl	RTC_EnterInitMode
 397              	.LVL22:
 398 0016 C0B1     		cbz	r0, .L49
 399              		.loc 1 392 0
 400 0018 42F20113 		movw	r3, #8449
 401              		.loc 1 391 0
 402 001c 2560     		str	r5, [r4]
 403              		.loc 1 392 0
 404 001e 6360     		str	r3, [r4, #4]
 405              		.loc 1 394 0
 406 0020 A368     		ldr	r3, [r4, #8]
 407 0022 03F00703 		and	r3, r3, #7
 408 0026 A360     		str	r3, [r4, #8]
 409              		.loc 1 399 0
 410 0028 2146     		mov	r1, r4
 411 002a 00E0     		b	.L48
 412              	.LVL23:
 413              	.L59:
 414              		.loc 1 401 0 discriminator 1
 415 002c 4AB9     		cbnz	r2, .L47
 416              	.LVL24:
 417              	.L48:
 418              		.loc 1 399 0 discriminator 2
 419 002e CA68     		ldr	r2, [r1, #12]
 420              		.loc 1 400 0 discriminator 2
 421 0030 019B     		ldr	r3, [sp, #4]
 422 0032 0133     		adds	r3, r3, #1
 423 0034 0193     		str	r3, [sp, #4]
 424              		.loc 1 401 0 discriminator 2
 425 0036 019B     		ldr	r3, [sp, #4]
 426 0038 B3F5803F 		cmp	r3, #65536
 427              		.loc 1 399 0 discriminator 2
 428 003c 02F00402 		and	r2, r2, #4
 429              	.LVL25:
 430              		.loc 1 401 0 discriminator 2
 431 0040 F4D1     		bne	.L59
 432              	.L47:
 433              		.loc 1 403 0
 434 0042 104B     		ldr	r3, .L61
 435 0044 DA68     		ldr	r2, [r3, #12]
 436              	.LVL26:
 437 0046 5207     		lsls	r2, r2, #29
 438 0048 05D4     		bmi	.L60
 439              	.L49:
 440              		.loc 1 386 0
 441 004a 0020     		movs	r0, #0
 442              	.L46:
 443              	.LVL27:
 444              		.loc 1 439 0
 445 004c 0D4B     		ldr	r3, .L61
 446 004e FF22     		movs	r2, #255
 447 0050 5A62     		str	r2, [r3, #36]
 448              		.loc 1 442 0
 449 0052 03B0     		add	sp, sp, #12
 450              		.cfi_remember_state
ARM GAS  /var/folders/7z/kps_xzfj7sn5l5gkyq8s9db00000gn/T//cck5P0LB.s 			page 9


 451              		.cfi_def_cfa_offset 12
 452              		@ sp needed
 453 0054 30BD     		pop	{r4, r5, pc}
 454              	.LVL28:
 455              	.L60:
 456              		.cfi_restore_state
 457              		.loc 1 410 0
 458 0056 0022     		movs	r2, #0
 459              		.loc 1 411 0
 460 0058 4FF6FF70 		movw	r0, #65535
 461              		.loc 1 412 0
 462 005c 0A49     		ldr	r1, .L61+4
 463              		.loc 1 410 0
 464 005e 9C68     		ldr	r4, [r3, #8]
 465 0060 9A60     		str	r2, [r3, #8]
 466              		.loc 1 411 0
 467 0062 5861     		str	r0, [r3, #20]
 468              		.loc 1 412 0
 469 0064 1961     		str	r1, [r3, #16]
 470              		.loc 1 413 0
 471 0066 9A61     		str	r2, [r3, #24]
 472              		.loc 1 414 0
 473 0068 DA61     		str	r2, [r3, #28]
 474              		.loc 1 415 0
 475 006a 1A62     		str	r2, [r3, #32]
 476              		.loc 1 416 0
 477 006c DA62     		str	r2, [r3, #44]
 478              		.loc 1 417 0
 479 006e DA63     		str	r2, [r3, #60]
 480              		.loc 1 418 0
 481 0070 5A64     		str	r2, [r3, #68]
 482              		.loc 1 419 0
 483 0072 9A64     		str	r2, [r3, #72]
 484              		.loc 1 422 0
 485 0074 DA60     		str	r2, [r3, #12]
 486              		.loc 1 425 0
 487 0076 1A64     		str	r2, [r3, #64]
 488              		.loc 1 427 0
 489 0078 FFF7FEFF 		bl	RTC_WaitForSynchro
 490              	.LVL29:
 491              		.loc 1 386 0
 492 007c 0030     		adds	r0, r0, #0
 493 007e 18BF     		it	ne
 494 0080 0120     		movne	r0, #1
 495 0082 E3E7     		b	.L46
 496              	.L62:
 497              		.align	2
 498              	.L61:
 499 0084 00280040 		.word	1073752064
 500 0088 FF007F00 		.word	8323327
 501              		.cfi_endproc
 502              	.LFE111:
 503              		.size	RTC_DeInit, .-RTC_DeInit
 504 008c AFF30080 		.section	.text.RTC_RefClockCmd,"ax",%progbits
 505              		.align	2
 506              		.p2align 4,,15
 507              		.global	RTC_RefClockCmd
ARM GAS  /var/folders/7z/kps_xzfj7sn5l5gkyq8s9db00000gn/T//cck5P0LB.s 			page 10


 508              		.thumb
 509              		.thumb_func
 510              		.type	RTC_RefClockCmd, %function
 511              	RTC_RefClockCmd:
 512              	.LFB118:
 513              		.loc 1 661 0
 514              		.cfi_startproc
 515              		@ args = 0, pretend = 0, frame = 0
 516              		@ frame_needed = 0, uses_anonymous_args = 0
 517              	.LVL30:
 518 0000 38B5     		push	{r3, r4, r5, lr}
 519              		.cfi_def_cfa_offset 16
 520              		.cfi_offset 3, -16
 521              		.cfi_offset 4, -12
 522              		.cfi_offset 5, -8
 523              		.cfi_offset 14, -4
 524              		.loc 1 668 0
 525 0002 0E4C     		ldr	r4, .L70
 526 0004 CA22     		movs	r2, #202
 527              		.loc 1 669 0
 528 0006 5323     		movs	r3, #83
 529              		.loc 1 668 0
 530 0008 6262     		str	r2, [r4, #36]
 531              		.loc 1 669 0
 532 000a 6362     		str	r3, [r4, #36]
 533              		.loc 1 661 0
 534 000c 0546     		mov	r5, r0
 535              		.loc 1 672 0
 536 000e FFF7FEFF 		bl	RTC_EnterInitMode
 537              	.LVL31:
 538 0012 50B1     		cbz	r0, .L64
 539              		.loc 1 681 0
 540 0014 A368     		ldr	r3, [r4, #8]
 541              		.loc 1 678 0
 542 0016 65B9     		cbnz	r5, .L69
 543              		.loc 1 686 0
 544 0018 23F01003 		bic	r3, r3, #16
 545 001c A360     		str	r3, [r4, #8]
 546              	.L66:
 547              	.LBB84:
 548              	.LBB85:
 549              		.loc 1 598 0
 550 001e 074A     		ldr	r2, .L70
 551 0020 D368     		ldr	r3, [r2, #12]
 552 0022 23F08003 		bic	r3, r3, #128
 553 0026 D360     		str	r3, [r2, #12]
 554              	.LVL32:
 555              	.LBE85:
 556              	.LBE84:
 557              		.loc 1 691 0
 558 0028 0120     		movs	r0, #1
 559              	.LVL33:
 560              	.L64:
 561              		.loc 1 695 0
 562 002a 044B     		ldr	r3, .L70
 563 002c FF22     		movs	r2, #255
 564 002e 5A62     		str	r2, [r3, #36]
ARM GAS  /var/folders/7z/kps_xzfj7sn5l5gkyq8s9db00000gn/T//cck5P0LB.s 			page 11


 565              		.loc 1 698 0
 566 0030 38BD     		pop	{r3, r4, r5, pc}
 567              	.LVL34:
 568              	.L69:
 569              		.loc 1 681 0
 570 0032 43F01003 		orr	r3, r3, #16
 571 0036 A360     		str	r3, [r4, #8]
 572 0038 F1E7     		b	.L66
 573              	.L71:
 574 003a 00BF     		.align	2
 575              	.L70:
 576 003c 00280040 		.word	1073752064
 577              		.cfi_endproc
 578              	.LFE118:
 579              		.size	RTC_RefClockCmd, .-RTC_RefClockCmd
 580              		.section	.text.RTC_BypassShadowCmd,"ax",%progbits
 581              		.align	2
 582              		.p2align 4,,15
 583              		.global	RTC_BypassShadowCmd
 584              		.thumb
 585              		.thumb_func
 586              		.type	RTC_BypassShadowCmd, %function
 587              	RTC_BypassShadowCmd:
 588              	.LFB119:
 589              		.loc 1 709 0
 590              		.cfi_startproc
 591              		@ args = 0, pretend = 0, frame = 0
 592              		@ frame_needed = 0, uses_anonymous_args = 0
 593              		@ link register save eliminated.
 594              	.LVL35:
 595              		.loc 1 714 0
 596 0000 0A4B     		ldr	r3, .L76
 597              		.loc 1 715 0
 598 0002 5322     		movs	r2, #83
 599              		.loc 1 714 0
 600 0004 CA21     		movs	r1, #202
 601 0006 5962     		str	r1, [r3, #36]
 602              		.loc 1 715 0
 603 0008 5A62     		str	r2, [r3, #36]
 604              		.loc 1 720 0
 605 000a 9A68     		ldr	r2, [r3, #8]
 606              		.loc 1 717 0
 607 000c 30B9     		cbnz	r0, .L75
 608              		.loc 1 725 0
 609 000e 02F0DF02 		and	r2, r2, #223
 610 0012 9A60     		str	r2, [r3, #8]
 611              		.loc 1 729 0
 612 0014 054B     		ldr	r3, .L76
 613 0016 FF22     		movs	r2, #255
 614 0018 5A62     		str	r2, [r3, #36]
 615 001a 7047     		bx	lr
 616              	.L75:
 617              		.loc 1 720 0
 618 001c 42F02002 		orr	r2, r2, #32
 619 0020 9A60     		str	r2, [r3, #8]
 620              		.loc 1 729 0
 621 0022 024B     		ldr	r3, .L76
ARM GAS  /var/folders/7z/kps_xzfj7sn5l5gkyq8s9db00000gn/T//cck5P0LB.s 			page 12


 622 0024 FF22     		movs	r2, #255
 623 0026 5A62     		str	r2, [r3, #36]
 624 0028 7047     		bx	lr
 625              	.L77:
 626 002a 00BF     		.align	2
 627              	.L76:
 628 002c 00280040 		.word	1073752064
 629              		.cfi_endproc
 630              	.LFE119:
 631              		.size	RTC_BypassShadowCmd, .-RTC_BypassShadowCmd
 632              		.section	.text.RTC_SetTime,"ax",%progbits
 633              		.align	2
 634              		.p2align 4,,15
 635              		.global	RTC_SetTime
 636              		.thumb
 637              		.thumb_func
 638              		.type	RTC_SetTime, %function
 639              	RTC_SetTime:
 640              	.LFB120:
 641              		.loc 1 764 0
 642              		.cfi_startproc
 643              		@ args = 0, pretend = 0, frame = 0
 644              		@ frame_needed = 0, uses_anonymous_args = 0
 645              	.LVL36:
 646 0000 70B5     		push	{r4, r5, r6, lr}
 647              		.cfi_def_cfa_offset 16
 648              		.cfi_offset 4, -16
 649              		.cfi_offset 5, -12
 650              		.cfi_offset 6, -8
 651              		.cfi_offset 14, -4
 652              		.loc 1 773 0
 653 0002 3A4B     		ldr	r3, .L103
 654              		.loc 1 771 0
 655 0004 0028     		cmp	r0, #0
 656 0006 37D1     		bne	.L79
 657              		.loc 1 773 0
 658 0008 9E68     		ldr	r6, [r3, #8]
 659 000a 16F04006 		ands	r6, r6, #64
 660 000e 5AD1     		bne	.L80
 661              		.loc 1 780 0
 662 0010 CE70     		strb	r6, [r1, #3]
 663              	.L81:
 664              		.loc 1 813 0
 665 0012 0878     		ldrb	r0, [r1]	@ zero_extendqisi2
 666              	.LVL37:
 667              	.LBB86:
 668              	.LBB87:
 669              		.loc 1 2726 0
 670 0014 0928     		cmp	r0, #9
 671 0016 4FF00005 		mov	r5, #0
 672 001a 07D9     		bls	.L92
 673              	.LVL38:
 674              	.L84:
 675              		.loc 1 2729 0
 676 001c 0A38     		subs	r0, r0, #10
 677              	.LVL39:
 678 001e C0B2     		uxtb	r0, r0
ARM GAS  /var/folders/7z/kps_xzfj7sn5l5gkyq8s9db00000gn/T//cck5P0LB.s 			page 13


 679              		.loc 1 2728 0
 680 0020 0135     		adds	r5, r5, #1
 681              	.LVL40:
 682              		.loc 1 2726 0
 683 0022 0928     		cmp	r0, #9
 684              		.loc 1 2728 0
 685 0024 EDB2     		uxtb	r5, r5
 686              	.LVL41:
 687              		.loc 1 2726 0
 688 0026 F9D8     		bhi	.L84
 689 0028 2D01     		lsls	r5, r5, #4
 690              	.LVL42:
 691 002a EDB2     		uxtb	r5, r5
 692              	.L92:
 693              	.LBE87:
 694              	.LBE86:
 695              		.loc 1 814 0
 696 002c 4A78     		ldrb	r2, [r1, #1]	@ zero_extendqisi2
 697              	.LVL43:
 698              		.loc 1 813 0
 699 002e 2843     		orrs	r0, r0, r5
 700              	.LVL44:
 701              	.LBB88:
 702              	.LBB89:
 703              		.loc 1 2726 0
 704 0030 092A     		cmp	r2, #9
 705              	.LBE89:
 706              	.LBE88:
 707              		.loc 1 813 0
 708 0032 4FEA0040 		lsl	r0, r0, #16
 709              	.LBB92:
 710              	.LBB90:
 711              		.loc 1 2726 0
 712 0036 56D9     		bls	.L93
 713 0038 0023     		movs	r3, #0
 714              	.LVL45:
 715              	.L86:
 716              		.loc 1 2729 0
 717 003a 0A3A     		subs	r2, r2, #10
 718              	.LVL46:
 719 003c D2B2     		uxtb	r2, r2
 720              		.loc 1 2728 0
 721 003e 0133     		adds	r3, r3, #1
 722              	.LVL47:
 723              		.loc 1 2726 0
 724 0040 092A     		cmp	r2, #9
 725              		.loc 1 2728 0
 726 0042 DBB2     		uxtb	r3, r3
 727              	.LVL48:
 728              		.loc 1 2726 0
 729 0044 F9D8     		bhi	.L86
 730 0046 1B01     		lsls	r3, r3, #4
 731              	.LVL49:
 732 0048 DCB2     		uxtb	r4, r3
 733              	.L85:
 734              	.LBE90:
 735              	.LBE92:
ARM GAS  /var/folders/7z/kps_xzfj7sn5l5gkyq8s9db00000gn/T//cck5P0LB.s 			page 14


 736              		.loc 1 815 0
 737 004a 8B78     		ldrb	r3, [r1, #2]	@ zero_extendqisi2
 738              	.LVL50:
 739              		.loc 1 814 0
 740 004c 2243     		orrs	r2, r2, r4
 741              	.LVL51:
 742              	.LBB93:
 743              	.LBB94:
 744              		.loc 1 2726 0
 745 004e 092B     		cmp	r3, #9
 746              	.LBE94:
 747              	.LBE93:
 748              		.loc 1 814 0
 749 0050 4FEA0221 		lsl	r1, r2, #8
 750              	.LVL52:
 751              	.LBB96:
 752              	.LBB95:
 753              		.loc 1 2726 0
 754 0054 4FF00004 		mov	r4, #0
 755 0058 07D9     		bls	.L87
 756              	.LVL53:
 757              	.L88:
 758              		.loc 1 2729 0
 759 005a 0A3B     		subs	r3, r3, #10
 760              	.LVL54:
 761 005c DBB2     		uxtb	r3, r3
 762              		.loc 1 2728 0
 763 005e 0134     		adds	r4, r4, #1
 764              	.LVL55:
 765              		.loc 1 2726 0
 766 0060 092B     		cmp	r3, #9
 767              		.loc 1 2728 0
 768 0062 E4B2     		uxtb	r4, r4
 769              	.LVL56:
 770              		.loc 1 2726 0
 771 0064 F9D8     		bhi	.L88
 772 0066 2401     		lsls	r4, r4, #4
 773              	.LVL57:
 774 0068 E4B2     		uxtb	r4, r4
 775              	.L87:
 776 006a 40EA0602 		orr	r2, r0, r6
 777 006e 0A43     		orrs	r2, r2, r1
 778              	.LBE95:
 779              	.LBE96:
 780              		.loc 1 815 0
 781 0070 2343     		orrs	r3, r3, r4
 782              	.LVL58:
 783              		.loc 1 813 0
 784 0072 42EA0304 		orr	r4, r2, r3
 785              	.LVL59:
 786 0076 0DE0     		b	.L90
 787              	.LVL60:
 788              	.L79:
 789              		.loc 1 788 0
 790 0078 9C68     		ldr	r4, [r3, #8]
 791 007a 14F04002 		ands	r2, r4, #64
 792 007e 25D1     		bne	.L82
ARM GAS  /var/folders/7z/kps_xzfj7sn5l5gkyq8s9db00000gn/T//cck5P0LB.s 			page 15


 793              		.loc 1 796 0
 794 0080 CA70     		strb	r2, [r1, #3]
 795              	.L83:
 796              		.loc 1 807 0
 797 0082 4878     		ldrb	r0, [r1, #1]	@ zero_extendqisi2
 798              	.LVL61:
 799              		.loc 1 806 0
 800 0084 0B78     		ldrb	r3, [r1]	@ zero_extendqisi2
 801              		.loc 1 808 0
 802 0086 8C78     		ldrb	r4, [r1, #2]	@ zero_extendqisi2
 803              		.loc 1 807 0
 804 0088 0102     		lsls	r1, r0, #8
 805              	.LVL62:
 806              		.loc 1 806 0
 807 008a 41EA0343 		orr	r3, r1, r3, lsl #16
 808              		.loc 1 807 0
 809 008e 2343     		orrs	r3, r3, r4
 810              		.loc 1 806 0
 811 0090 43EA0204 		orr	r4, r3, r2
 812              	.LVL63:
 813              	.L90:
 814              		.loc 1 820 0
 815 0094 154D     		ldr	r5, .L103
 816 0096 CA22     		movs	r2, #202
 817              		.loc 1 821 0
 818 0098 5323     		movs	r3, #83
 819              		.loc 1 820 0
 820 009a 6A62     		str	r2, [r5, #36]
 821              		.loc 1 821 0
 822 009c 6B62     		str	r3, [r5, #36]
 823              		.loc 1 824 0
 824 009e FFF7FEFF 		bl	RTC_EnterInitMode
 825              	.LVL64:
 826 00a2 60B1     		cbz	r0, .L89
 827              		.loc 1 831 0
 828 00a4 04F07F33 		and	r3, r4, #2139062143
 829 00a8 23F0FE43 		bic	r3, r3, #2130706432
 830 00ac 2B60     		str	r3, [r5]
 831              	.LBB97:
 832              	.LBB98:
 833              		.loc 1 598 0
 834 00ae EB68     		ldr	r3, [r5, #12]
 835 00b0 23F08003 		bic	r3, r3, #128
 836 00b4 EB60     		str	r3, [r5, #12]
 837              	.LBE98:
 838              	.LBE97:
 839              		.loc 1 837 0
 840 00b6 AB68     		ldr	r3, [r5, #8]
 841 00b8 9B06     		lsls	r3, r3, #26
 842 00ba 0AD5     		bpl	.L102
 843              		.loc 1 850 0
 844 00bc 0120     		movs	r0, #1
 845              	.L89:
 846              	.LVL65:
 847              		.loc 1 854 0
 848 00be 0B4B     		ldr	r3, .L103
 849 00c0 FF22     		movs	r2, #255
ARM GAS  /var/folders/7z/kps_xzfj7sn5l5gkyq8s9db00000gn/T//cck5P0LB.s 			page 16


 850 00c2 5A62     		str	r2, [r3, #36]
 851              		.loc 1 857 0
 852 00c4 70BD     		pop	{r4, r5, r6, pc}
 853              	.LVL66:
 854              	.L80:
 855 00c6 CE78     		ldrb	r6, [r1, #3]	@ zero_extendqisi2
 856 00c8 3604     		lsls	r6, r6, #16
 857 00ca A2E7     		b	.L81
 858              	.L82:
 859 00cc CC78     		ldrb	r4, [r1, #3]	@ zero_extendqisi2
 860 00ce 2204     		lsls	r2, r4, #16
 861 00d0 D7E7     		b	.L83
 862              	.LVL67:
 863              	.L102:
 864              		.loc 1 839 0
 865 00d2 FFF7FEFF 		bl	RTC_WaitForSynchro
 866              	.LVL68:
 867              		.loc 1 854 0
 868 00d6 054B     		ldr	r3, .L103
 869              		.loc 1 826 0
 870 00d8 0030     		adds	r0, r0, #0
 871              		.loc 1 854 0
 872 00da 4FF0FF02 		mov	r2, #255
 873              		.loc 1 826 0
 874 00de 18BF     		it	ne
 875 00e0 0120     		movne	r0, #1
 876              	.LVL69:
 877              		.loc 1 854 0
 878 00e2 5A62     		str	r2, [r3, #36]
 879              		.loc 1 857 0
 880 00e4 70BD     		pop	{r4, r5, r6, pc}
 881              	.LVL70:
 882              	.L93:
 883              	.LBB99:
 884              	.LBB91:
 885              		.loc 1 2726 0
 886 00e6 0024     		movs	r4, #0
 887 00e8 AFE7     		b	.L85
 888              	.L104:
 889 00ea 00BF     		.align	2
 890              	.L103:
 891 00ec 00280040 		.word	1073752064
 892              	.LBE91:
 893              	.LBE99:
 894              		.cfi_endproc
 895              	.LFE120:
 896              		.size	RTC_SetTime, .-RTC_SetTime
 897              		.section	.text.RTC_TimeStructInit,"ax",%progbits
 898              		.align	2
 899              		.p2align 4,,15
 900              		.global	RTC_TimeStructInit
 901              		.thumb
 902              		.thumb_func
 903              		.type	RTC_TimeStructInit, %function
 904              	RTC_TimeStructInit:
 905              	.LFB121:
 906              		.loc 1 867 0
ARM GAS  /var/folders/7z/kps_xzfj7sn5l5gkyq8s9db00000gn/T//cck5P0LB.s 			page 17


 907              		.cfi_startproc
 908              		@ args = 0, pretend = 0, frame = 0
 909              		@ frame_needed = 0, uses_anonymous_args = 0
 910              		@ link register save eliminated.
 911              	.LVL71:
 912              		.loc 1 869 0
 913 0000 0023     		movs	r3, #0
 914 0002 C370     		strb	r3, [r0, #3]
 915              		.loc 1 870 0
 916 0004 0370     		strb	r3, [r0]
 917              		.loc 1 871 0
 918 0006 4370     		strb	r3, [r0, #1]
 919              		.loc 1 872 0
 920 0008 8370     		strb	r3, [r0, #2]
 921 000a 7047     		bx	lr
 922              		.cfi_endproc
 923              	.LFE121:
 924              		.size	RTC_TimeStructInit, .-RTC_TimeStructInit
 925 000c AFF30080 		.section	.text.RTC_GetTime,"ax",%progbits
 926              		.align	2
 927              		.p2align 4,,15
 928              		.global	RTC_GetTime
 929              		.thumb
 930              		.thumb_func
 931              		.type	RTC_GetTime, %function
 932              	RTC_GetTime:
 933              	.LFB122:
 934              		.loc 1 886 0
 935              		.cfi_startproc
 936              		@ args = 0, pretend = 0, frame = 0
 937              		@ frame_needed = 0, uses_anonymous_args = 0
 938              		@ link register save eliminated.
 939              	.LVL72:
 940              		.loc 1 893 0
 941 0000 154B     		ldr	r3, .L109
 942 0002 1B68     		ldr	r3, [r3]
 943              	.LVL73:
 944              		.loc 1 899 0
 945 0004 03F48002 		and	r2, r3, #4194304
 946              		.loc 1 886 0
 947 0008 F0B4     		push	{r4, r5, r6, r7}
 948              		.cfi_def_cfa_offset 16
 949              		.cfi_offset 4, -16
 950              		.cfi_offset 5, -12
 951              		.cfi_offset 6, -8
 952              		.cfi_offset 7, -4
 953              		.loc 1 899 0
 954 000a 120C     		lsrs	r2, r2, #16
 955              		.loc 1 898 0
 956 000c 03F07F06 		and	r6, r3, #127
 957              		.loc 1 896 0
 958 0010 C3F30544 		ubfx	r4, r3, #16, #6
 959              		.loc 1 897 0
 960 0014 C3F30623 		ubfx	r3, r3, #8, #7
 961              	.LVL74:
 962              		.loc 1 899 0
 963 0018 CA70     		strb	r2, [r1, #3]
ARM GAS  /var/folders/7z/kps_xzfj7sn5l5gkyq8s9db00000gn/T//cck5P0LB.s 			page 18


 964              		.loc 1 898 0
 965 001a 8E70     		strb	r6, [r1, #2]
 966              		.loc 1 896 0
 967 001c 0C70     		strb	r4, [r1]
 968              		.loc 1 897 0
 969 001e 4B70     		strb	r3, [r1, #1]
 970              		.loc 1 902 0
 971 0020 B8B9     		cbnz	r0, .L106
 972              	.LVL75:
 973              	.LBB100:
 974              	.LBB101:
 975              		.loc 1 2743 0
 976 0022 2009     		lsrs	r0, r4, #4
 977              	.LVL76:
 978              	.LBE101:
 979              	.LBE100:
 980              	.LBB105:
 981              	.LBB106:
 982 0024 1A09     		lsrs	r2, r3, #4
 983              	.LBE106:
 984              	.LBE105:
 985              	.LBB110:
 986              	.LBB111:
 987 0026 3509     		lsrs	r5, r6, #4
 988              	.LBE111:
 989              	.LBE110:
 990              	.LBB115:
 991              	.LBB102:
 992 0028 00EB8007 		add	r7, r0, r0, lsl #2
 993              	.LBE102:
 994              	.LBE115:
 995              	.LBB116:
 996              	.LBB112:
 997 002c 05EB8505 		add	r5, r5, r5, lsl #2
 998              	.LBE112:
 999              	.LBE116:
 1000              	.LBB117:
 1001              	.LBB107:
 1002 0030 02EB8200 		add	r0, r2, r2, lsl #2
 1003              	.LBE107:
 1004              	.LBE117:
 1005              	.LBB118:
 1006              	.LBB113:
 1007              		.loc 1 2744 0
 1008 0034 06F00F06 		and	r6, r6, #15
 1009              	.LBE113:
 1010              	.LBE118:
 1011              	.LBB119:
 1012              	.LBB103:
 1013 0038 04F00F04 		and	r4, r4, #15
 1014              	.LVL77:
 1015              	.LBE103:
 1016              	.LBE119:
 1017              	.LBB120:
 1018              	.LBB108:
 1019 003c 03F00F02 		and	r2, r3, #15
 1020              	.LBE108:
ARM GAS  /var/folders/7z/kps_xzfj7sn5l5gkyq8s9db00000gn/T//cck5P0LB.s 			page 19


 1021              	.LBE120:
 1022              	.LBB121:
 1023              	.LBB114:
 1024 0040 06EB4505 		add	r5, r6, r5, lsl #1
 1025              	.LBE114:
 1026              	.LBE121:
 1027              	.LBB122:
 1028              	.LBB104:
 1029 0044 04EB4704 		add	r4, r4, r7, lsl #1
 1030              	.LBE104:
 1031              	.LBE122:
 1032              	.LBB123:
 1033              	.LBB109:
 1034 0048 02EB4003 		add	r3, r2, r0, lsl #1
 1035              	.LBE109:
 1036              	.LBE123:
 1037              		.loc 1 907 0
 1038 004c 8D70     		strb	r5, [r1, #2]
 1039              		.loc 1 905 0
 1040 004e 0C70     		strb	r4, [r1]
 1041              	.LVL78:
 1042              		.loc 1 906 0
 1043 0050 4B70     		strb	r3, [r1, #1]
 1044              	.LVL79:
 1045              	.L106:
 1046              		.loc 1 909 0
 1047 0052 F0BC     		pop	{r4, r5, r6, r7}
 1048              		.cfi_restore 7
 1049              		.cfi_restore 6
 1050              		.cfi_restore 5
 1051              		.cfi_restore 4
 1052              		.cfi_def_cfa_offset 0
 1053 0054 7047     		bx	lr
 1054              	.L110:
 1055 0056 00BF     		.align	2
 1056              	.L109:
 1057 0058 00280040 		.word	1073752064
 1058              		.cfi_endproc
 1059              	.LFE122:
 1060              		.size	RTC_GetTime, .-RTC_GetTime
 1061 005c AFF30080 		.section	.text.RTC_GetSubSecond,"ax",%progbits
 1062              		.align	2
 1063              		.p2align 4,,15
 1064              		.global	RTC_GetSubSecond
 1065              		.thumb
 1066              		.thumb_func
 1067              		.type	RTC_GetSubSecond, %function
 1068              	RTC_GetSubSecond:
 1069              	.LFB123:
 1070              		.loc 1 919 0
 1071              		.cfi_startproc
 1072              		@ args = 0, pretend = 0, frame = 0
 1073              		@ frame_needed = 0, uses_anonymous_args = 0
 1074              		@ link register save eliminated.
 1075              	.LVL80:
 1076              		.loc 1 923 0
 1077 0000 014B     		ldr	r3, .L112
ARM GAS  /var/folders/7z/kps_xzfj7sn5l5gkyq8s9db00000gn/T//cck5P0LB.s 			page 20


 1078 0002 986A     		ldr	r0, [r3, #40]
 1079              	.LVL81:
 1080              		.loc 1 926 0
 1081 0004 5B68     		ldr	r3, [r3, #4]
 1082              		.loc 1 929 0
 1083 0006 7047     		bx	lr
 1084              	.L113:
 1085              		.align	2
 1086              	.L112:
 1087 0008 00280040 		.word	1073752064
 1088              		.cfi_endproc
 1089              	.LFE123:
 1090              		.size	RTC_GetSubSecond, .-RTC_GetSubSecond
 1091 000c AFF30080 		.section	.text.RTC_SetDate,"ax",%progbits
 1092              		.align	2
 1093              		.p2align 4,,15
 1094              		.global	RTC_SetDate
 1095              		.thumb
 1096              		.thumb_func
 1097              		.type	RTC_SetDate, %function
 1098              	RTC_SetDate:
 1099              	.LFB124:
 1100              		.loc 1 944 0
 1101              		.cfi_startproc
 1102              		@ args = 0, pretend = 0, frame = 0
 1103              		@ frame_needed = 0, uses_anonymous_args = 0
 1104              	.LVL82:
 1105 0000 38B5     		push	{r3, r4, r5, lr}
 1106              		.cfi_def_cfa_offset 16
 1107              		.cfi_offset 3, -16
 1108              		.cfi_offset 4, -12
 1109              		.cfi_offset 5, -8
 1110              		.cfi_offset 14, -4
 1111              		.loc 1 951 0
 1112 0002 0028     		cmp	r0, #0
 1113 0004 3AD1     		bne	.L115
 1114              		.loc 1 951 0 is_stmt 0 discriminator 1
 1115 0006 4A78     		ldrb	r2, [r1, #1]	@ zero_extendqisi2
 1116 0008 D006     		lsls	r0, r2, #27
 1117              	.LVL83:
 1118 000a 04D5     		bpl	.L116
 1119              		.loc 1 953 0 is_stmt 1
 1120 000c 22F01002 		bic	r2, r2, #16
 1121 0010 0A32     		adds	r2, r2, #10
 1122 0012 D2B2     		uxtb	r2, r2
 1123 0014 4A70     		strb	r2, [r1, #1]
 1124              	.L116:
 1125              		.loc 1 981 0
 1126 0016 CB78     		ldrb	r3, [r1, #3]	@ zero_extendqisi2
 1127              	.LVL84:
 1128              	.LBB124:
 1129              	.LBB125:
 1130              		.loc 1 2726 0
 1131 0018 092B     		cmp	r3, #9
 1132 001a 4FF00000 		mov	r0, #0
 1133 001e 07D9     		bls	.L124
 1134              	.LVL85:
ARM GAS  /var/folders/7z/kps_xzfj7sn5l5gkyq8s9db00000gn/T//cck5P0LB.s 			page 21


 1135              	.L117:
 1136              		.loc 1 2729 0
 1137 0020 0A3B     		subs	r3, r3, #10
 1138              	.LVL86:
 1139 0022 DBB2     		uxtb	r3, r3
 1140              		.loc 1 2728 0
 1141 0024 0130     		adds	r0, r0, #1
 1142              	.LVL87:
 1143              		.loc 1 2726 0
 1144 0026 092B     		cmp	r3, #9
 1145              		.loc 1 2728 0
 1146 0028 C0B2     		uxtb	r0, r0
 1147              	.LVL88:
 1148              		.loc 1 2726 0
 1149 002a F9D8     		bhi	.L117
 1150 002c 0001     		lsls	r0, r0, #4
 1151              	.LVL89:
 1152 002e C0B2     		uxtb	r0, r0
 1153              	.L124:
 1154              	.LBE125:
 1155              	.LBE124:
 1156              		.loc 1 981 0
 1157 0030 0343     		orrs	r3, r3, r0
 1158              	.LVL90:
 1159              	.LBB126:
 1160              	.LBB127:
 1161              		.loc 1 2726 0
 1162 0032 092A     		cmp	r2, #9
 1163              	.LBE127:
 1164              	.LBE126:
 1165              		.loc 1 981 0
 1166 0034 4FEA0340 		lsl	r0, r3, #16
 1167              	.LVL91:
 1168              	.LBB130:
 1169              	.LBB128:
 1170              		.loc 1 2726 0
 1171 0038 4ED9     		bls	.L127
 1172 003a 0023     		movs	r3, #0
 1173              	.LVL92:
 1174              	.L119:
 1175              		.loc 1 2729 0
 1176 003c 0A3A     		subs	r2, r2, #10
 1177              	.LVL93:
 1178 003e D2B2     		uxtb	r2, r2
 1179              		.loc 1 2728 0
 1180 0040 0133     		adds	r3, r3, #1
 1181              	.LVL94:
 1182              		.loc 1 2726 0
 1183 0042 092A     		cmp	r2, #9
 1184              		.loc 1 2728 0
 1185 0044 DBB2     		uxtb	r3, r3
 1186              	.LVL95:
 1187              		.loc 1 2726 0
 1188 0046 F9D8     		bhi	.L119
 1189 0048 1B01     		lsls	r3, r3, #4
 1190              	.LVL96:
 1191 004a DCB2     		uxtb	r4, r3
ARM GAS  /var/folders/7z/kps_xzfj7sn5l5gkyq8s9db00000gn/T//cck5P0LB.s 			page 22


 1192              	.L118:
 1193              	.LBE128:
 1194              	.LBE130:
 1195              		.loc 1 983 0
 1196 004c 8B78     		ldrb	r3, [r1, #2]	@ zero_extendqisi2
 1197              	.LVL97:
 1198              		.loc 1 982 0
 1199 004e 2243     		orrs	r2, r2, r4
 1200              	.LVL98:
 1201              	.LBB131:
 1202              	.LBB132:
 1203              		.loc 1 2726 0
 1204 0050 092B     		cmp	r3, #9
 1205              	.LBE132:
 1206              	.LBE131:
 1207              		.loc 1 982 0
 1208 0052 4FEA0222 		lsl	r2, r2, #8
 1209              	.LBB134:
 1210              	.LBB133:
 1211              		.loc 1 2726 0
 1212 0056 4FF00004 		mov	r4, #0
 1213 005a 07D9     		bls	.L120
 1214              	.LVL99:
 1215              	.L121:
 1216              		.loc 1 2729 0
 1217 005c 0A3B     		subs	r3, r3, #10
 1218              	.LVL100:
 1219 005e DBB2     		uxtb	r3, r3
 1220              		.loc 1 2728 0
 1221 0060 0134     		adds	r4, r4, #1
 1222              	.LVL101:
 1223              		.loc 1 2726 0
 1224 0062 092B     		cmp	r3, #9
 1225              		.loc 1 2728 0
 1226 0064 E4B2     		uxtb	r4, r4
 1227              	.LVL102:
 1228              		.loc 1 2726 0
 1229 0066 F9D8     		bhi	.L121
 1230 0068 2401     		lsls	r4, r4, #4
 1231              	.LVL103:
 1232 006a E4B2     		uxtb	r4, r4
 1233              	.L120:
 1234              	.LBE133:
 1235              	.LBE134:
 1236              		.loc 1 984 0
 1237 006c 0978     		ldrb	r1, [r1]	@ zero_extendqisi2
 1238              	.LVL104:
 1239 006e 40EA4130 		orr	r0, r0, r1, lsl #13
 1240 0072 1043     		orrs	r0, r0, r2
 1241              		.loc 1 983 0
 1242 0074 2343     		orrs	r3, r3, r4
 1243              	.LVL105:
 1244              		.loc 1 981 0
 1245 0076 40EA0304 		orr	r4, r0, r3
 1246              	.LVL106:
 1247 007a 0AE0     		b	.L125
 1248              	.LVL107:
ARM GAS  /var/folders/7z/kps_xzfj7sn5l5gkyq8s9db00000gn/T//cck5P0LB.s 			page 23


 1249              	.L115:
 1250              		.loc 1 975 0
 1251 007c 4878     		ldrb	r0, [r1, #1]	@ zero_extendqisi2
 1252              	.LVL108:
 1253              		.loc 1 974 0
 1254 007e CC78     		ldrb	r4, [r1, #3]	@ zero_extendqisi2
 1255              		.loc 1 976 0
 1256 0080 8A78     		ldrb	r2, [r1, #2]	@ zero_extendqisi2
 1257              		.loc 1 977 0
 1258 0082 0D78     		ldrb	r5, [r1]	@ zero_extendqisi2
 1259              		.loc 1 975 0
 1260 0084 0102     		lsls	r1, r0, #8
 1261              	.LVL109:
 1262              		.loc 1 974 0
 1263 0086 41EA0444 		orr	r4, r1, r4, lsl #16
 1264              		.loc 1 975 0
 1265 008a 44EA0203 		orr	r3, r4, r2
 1266              		.loc 1 974 0
 1267 008e 43EA4534 		orr	r4, r3, r5, lsl #13
 1268              	.LVL110:
 1269              	.L125:
 1270              		.loc 1 988 0
 1271 0092 124D     		ldr	r5, .L137
 1272 0094 CA22     		movs	r2, #202
 1273              		.loc 1 989 0
 1274 0096 5323     		movs	r3, #83
 1275              		.loc 1 988 0
 1276 0098 6A62     		str	r2, [r5, #36]
 1277              		.loc 1 989 0
 1278 009a 6B62     		str	r3, [r5, #36]
 1279              		.loc 1 992 0
 1280 009c FFF7FEFF 		bl	RTC_EnterInitMode
 1281              	.LVL111:
 1282 00a0 60B1     		cbz	r0, .L122
 1283              		.loc 1 999 0
 1284 00a2 24F07F43 		bic	r3, r4, #-16777216
 1285 00a6 23F0C003 		bic	r3, r3, #192
 1286 00aa 6B60     		str	r3, [r5, #4]
 1287              	.LBB135:
 1288              	.LBB136:
 1289              		.loc 1 598 0
 1290 00ac EB68     		ldr	r3, [r5, #12]
 1291 00ae 23F08003 		bic	r3, r3, #128
 1292 00b2 EB60     		str	r3, [r5, #12]
 1293              	.LBE136:
 1294              	.LBE135:
 1295              		.loc 1 1005 0
 1296 00b4 AB68     		ldr	r3, [r5, #8]
 1297 00b6 9B06     		lsls	r3, r3, #26
 1298 00b8 04D5     		bpl	.L136
 1299              		.loc 1 1018 0
 1300 00ba 0120     		movs	r0, #1
 1301              	.L122:
 1302              	.LVL112:
 1303              		.loc 1 1022 0
 1304 00bc 074B     		ldr	r3, .L137
 1305 00be FF22     		movs	r2, #255
ARM GAS  /var/folders/7z/kps_xzfj7sn5l5gkyq8s9db00000gn/T//cck5P0LB.s 			page 24


 1306 00c0 5A62     		str	r2, [r3, #36]
 1307              		.loc 1 1025 0
 1308 00c2 38BD     		pop	{r3, r4, r5, pc}
 1309              	.LVL113:
 1310              	.L136:
 1311              		.loc 1 1007 0
 1312 00c4 FFF7FEFF 		bl	RTC_WaitForSynchro
 1313              	.LVL114:
 1314              		.loc 1 1022 0
 1315 00c8 044B     		ldr	r3, .L137
 1316              		.loc 1 994 0
 1317 00ca 0030     		adds	r0, r0, #0
 1318              		.loc 1 1022 0
 1319 00cc 4FF0FF02 		mov	r2, #255
 1320              		.loc 1 994 0
 1321 00d0 18BF     		it	ne
 1322 00d2 0120     		movne	r0, #1
 1323              	.LVL115:
 1324              		.loc 1 1022 0
 1325 00d4 5A62     		str	r2, [r3, #36]
 1326              		.loc 1 1025 0
 1327 00d6 38BD     		pop	{r3, r4, r5, pc}
 1328              	.LVL116:
 1329              	.L127:
 1330              	.LBB137:
 1331              	.LBB129:
 1332              		.loc 1 2726 0
 1333 00d8 0024     		movs	r4, #0
 1334 00da B7E7     		b	.L118
 1335              	.L138:
 1336              		.align	2
 1337              	.L137:
 1338 00dc 00280040 		.word	1073752064
 1339              	.LBE129:
 1340              	.LBE137:
 1341              		.cfi_endproc
 1342              	.LFE124:
 1343              		.size	RTC_SetDate, .-RTC_SetDate
 1344              		.section	.text.RTC_DateStructInit,"ax",%progbits
 1345              		.align	2
 1346              		.p2align 4,,15
 1347              		.global	RTC_DateStructInit
 1348              		.thumb
 1349              		.thumb_func
 1350              		.type	RTC_DateStructInit, %function
 1351              	RTC_DateStructInit:
 1352              	.LFB125:
 1353              		.loc 1 1035 0
 1354              		.cfi_startproc
 1355              		@ args = 0, pretend = 0, frame = 0
 1356              		@ frame_needed = 0, uses_anonymous_args = 0
 1357              		@ link register save eliminated.
 1358              	.LVL117:
 1359              		.loc 1 1037 0
 1360 0000 0123     		movs	r3, #1
 1361              		.loc 1 1040 0
 1362 0002 0022     		movs	r2, #0
ARM GAS  /var/folders/7z/kps_xzfj7sn5l5gkyq8s9db00000gn/T//cck5P0LB.s 			page 25


 1363 0004 C270     		strb	r2, [r0, #3]
 1364              		.loc 1 1037 0
 1365 0006 0370     		strb	r3, [r0]
 1366              		.loc 1 1038 0
 1367 0008 8370     		strb	r3, [r0, #2]
 1368              		.loc 1 1039 0
 1369 000a 4370     		strb	r3, [r0, #1]
 1370 000c 7047     		bx	lr
 1371              		.cfi_endproc
 1372              	.LFE125:
 1373              		.size	RTC_DateStructInit, .-RTC_DateStructInit
 1374 000e 00BF     		.section	.text.RTC_GetDate,"ax",%progbits
 1375              		.align	2
 1376              		.p2align 4,,15
 1377              		.global	RTC_GetDate
 1378              		.thumb
 1379              		.thumb_func
 1380              		.type	RTC_GetDate, %function
 1381              	RTC_GetDate:
 1382              	.LFB126:
 1383              		.loc 1 1054 0
 1384              		.cfi_startproc
 1385              		@ args = 0, pretend = 0, frame = 0
 1386              		@ frame_needed = 0, uses_anonymous_args = 0
 1387              		@ link register save eliminated.
 1388              	.LVL118:
 1389              		.loc 1 1061 0
 1390 0000 144B     		ldr	r3, .L143
 1391 0002 5B68     		ldr	r3, [r3, #4]
 1392              	.LVL119:
 1393              		.loc 1 1054 0
 1394 0004 F0B4     		push	{r4, r5, r6, r7}
 1395              		.cfi_def_cfa_offset 16
 1396              		.cfi_offset 4, -16
 1397              		.cfi_offset 5, -12
 1398              		.cfi_offset 6, -8
 1399              		.cfi_offset 7, -4
 1400              		.loc 1 1064 0
 1401 0006 C3F30742 		ubfx	r2, r3, #16, #8
 1402              		.loc 1 1066 0
 1403 000a 03F03F05 		and	r5, r3, #63
 1404              		.loc 1 1067 0
 1405 000e C3F34236 		ubfx	r6, r3, #13, #3
 1406              		.loc 1 1065 0
 1407 0012 C3F30423 		ubfx	r3, r3, #8, #5
 1408              	.LVL120:
 1409              		.loc 1 1067 0
 1410 0016 0E70     		strb	r6, [r1]
 1411              		.loc 1 1066 0
 1412 0018 8D70     		strb	r5, [r1, #2]
 1413              		.loc 1 1064 0
 1414 001a CA70     		strb	r2, [r1, #3]
 1415              		.loc 1 1065 0
 1416 001c 4B70     		strb	r3, [r1, #1]
 1417              		.loc 1 1070 0
 1418 001e B8B9     		cbnz	r0, .L140
 1419              	.LVL121:
ARM GAS  /var/folders/7z/kps_xzfj7sn5l5gkyq8s9db00000gn/T//cck5P0LB.s 			page 26


 1420              	.LBB138:
 1421              	.LBB139:
 1422              		.loc 1 2743 0
 1423 0020 1F09     		lsrs	r7, r3, #4
 1424              	.LBE139:
 1425              	.LBE138:
 1426              	.LBB143:
 1427              	.LBB144:
 1428 0022 2C09     		lsrs	r4, r5, #4
 1429              	.LBE144:
 1430              	.LBE143:
 1431              	.LBB147:
 1432              	.LBB148:
 1433 0024 1009     		lsrs	r0, r2, #4
 1434              	.LVL122:
 1435              	.LBE148:
 1436              	.LBE147:
 1437              	.LBB151:
 1438              	.LBB140:
 1439 0026 BE00     		lsls	r6, r7, #2
 1440              	.LBE140:
 1441              	.LBE151:
 1442              	.LBB152:
 1443              	.LBB145:
 1444 0028 04EB8404 		add	r4, r4, r4, lsl #2
 1445              		.loc 1 2744 0
 1446 002c 05F00F05 		and	r5, r5, #15
 1447              	.LBE145:
 1448              	.LBE152:
 1449              	.LBB153:
 1450              	.LBB141:
 1451 0030 03F00F03 		and	r3, r3, #15
 1452              		.loc 1 2743 0
 1453 0034 3E44     		add	r6, r6, r7
 1454              	.LBE141:
 1455              	.LBE153:
 1456              	.LBB154:
 1457              	.LBB149:
 1458 0036 00EB8000 		add	r0, r0, r0, lsl #2
 1459              		.loc 1 2744 0
 1460 003a 02F00F02 		and	r2, r2, #15
 1461              	.LVL123:
 1462              	.LBE149:
 1463              	.LBE154:
 1464              	.LBB155:
 1465              	.LBB146:
 1466 003e 05EB4404 		add	r4, r5, r4, lsl #1
 1467              	.LBE146:
 1468              	.LBE155:
 1469              	.LBB156:
 1470              	.LBB142:
 1471 0042 03EB4603 		add	r3, r3, r6, lsl #1
 1472              	.LBE142:
 1473              	.LBE156:
 1474              	.LBB157:
 1475              	.LBB150:
 1476 0046 02EB4002 		add	r2, r2, r0, lsl #1
ARM GAS  /var/folders/7z/kps_xzfj7sn5l5gkyq8s9db00000gn/T//cck5P0LB.s 			page 27


 1477              	.LBE150:
 1478              	.LBE157:
 1479              		.loc 1 1075 0
 1480 004a 8C70     		strb	r4, [r1, #2]
 1481              		.loc 1 1074 0
 1482 004c 4B70     		strb	r3, [r1, #1]
 1483              		.loc 1 1073 0
 1484 004e CA70     		strb	r2, [r1, #3]
 1485              	.LVL124:
 1486              	.L140:
 1487              		.loc 1 1077 0
 1488 0050 F0BC     		pop	{r4, r5, r6, r7}
 1489              		.cfi_restore 7
 1490              		.cfi_restore 6
 1491              		.cfi_restore 5
 1492              		.cfi_restore 4
 1493              		.cfi_def_cfa_offset 0
 1494 0052 7047     		bx	lr
 1495              	.L144:
 1496              		.align	2
 1497              	.L143:
 1498 0054 00280040 		.word	1073752064
 1499              		.cfi_endproc
 1500              	.LFE126:
 1501              		.size	RTC_GetDate, .-RTC_GetDate
 1502              		.section	.text.RTC_SetAlarm,"ax",%progbits
 1503              		.align	2
 1504              		.p2align 4,,15
 1505              		.global	RTC_SetAlarm
 1506              		.thumb
 1507              		.thumb_func
 1508              		.type	RTC_SetAlarm, %function
 1509              	RTC_SetAlarm:
 1510              	.LFB127:
 1511              		.loc 1 1114 0
 1512              		.cfi_startproc
 1513              		@ args = 0, pretend = 0, frame = 0
 1514              		@ frame_needed = 0, uses_anonymous_args = 0
 1515              	.LVL125:
 1516 0000 F0B5     		push	{r4, r5, r6, r7, lr}
 1517              		.cfi_def_cfa_offset 20
 1518              		.cfi_offset 4, -20
 1519              		.cfi_offset 5, -16
 1520              		.cfi_offset 6, -12
 1521              		.cfi_offset 7, -8
 1522              		.cfi_offset 14, -4
 1523              		.loc 1 1125 0
 1524 0002 414B     		ldr	r3, .L173
 1525              		.loc 1 1123 0
 1526 0004 0028     		cmp	r0, #0
 1527 0006 50D1     		bne	.L146
 1528              		.loc 1 1125 0
 1529 0008 9D68     		ldr	r5, [r3, #8]
 1530 000a 15F04005 		ands	r5, r5, #64
 1531 000e 74D1     		bne	.L147
 1532              		.loc 1 1132 0
 1533 0010 D570     		strb	r5, [r2, #3]
ARM GAS  /var/folders/7z/kps_xzfj7sn5l5gkyq8s9db00000gn/T//cck5P0LB.s 			page 28


 1534              	.L148:
 1535              		.loc 1 1189 0
 1536 0012 1378     		ldrb	r3, [r2]	@ zero_extendqisi2
 1537              	.LVL126:
 1538              	.LBB158:
 1539              	.LBB159:
 1540              		.loc 1 2726 0
 1541 0014 092B     		cmp	r3, #9
 1542 0016 98BF     		it	ls
 1543 0018 0024     		movls	r4, #0
 1544 001a 08D9     		bls	.L162
 1545 001c 0020     		movs	r0, #0
 1546              	.LVL127:
 1547              	.L151:
 1548              		.loc 1 2729 0
 1549 001e 0A3B     		subs	r3, r3, #10
 1550              	.LVL128:
 1551 0020 DBB2     		uxtb	r3, r3
 1552              		.loc 1 2728 0
 1553 0022 0130     		adds	r0, r0, #1
 1554              	.LVL129:
 1555              		.loc 1 2726 0
 1556 0024 092B     		cmp	r3, #9
 1557              		.loc 1 2728 0
 1558 0026 C0B2     		uxtb	r0, r0
 1559              	.LVL130:
 1560              		.loc 1 2726 0
 1561 0028 F9D8     		bhi	.L151
 1562 002a 0001     		lsls	r0, r0, #4
 1563              	.LVL131:
 1564 002c C4B2     		uxtb	r4, r0
 1565              	.L162:
 1566              	.LBE159:
 1567              	.LBE158:
 1568              		.loc 1 1190 0
 1569 002e 5078     		ldrb	r0, [r2, #1]	@ zero_extendqisi2
 1570              	.LVL132:
 1571              		.loc 1 1189 0
 1572 0030 2343     		orrs	r3, r3, r4
 1573              	.LVL133:
 1574              	.LBB160:
 1575              	.LBB161:
 1576              		.loc 1 2726 0
 1577 0032 0928     		cmp	r0, #9
 1578              	.LBE161:
 1579              	.LBE160:
 1580              		.loc 1 1189 0
 1581 0034 4FEA0343 		lsl	r3, r3, #16
 1582              	.LBB164:
 1583              	.LBB162:
 1584              		.loc 1 2726 0
 1585 0038 62D9     		bls	.L163
 1586 003a 0024     		movs	r4, #0
 1587              	.LVL134:
 1588              	.L153:
 1589              		.loc 1 2729 0
 1590 003c 0A38     		subs	r0, r0, #10
ARM GAS  /var/folders/7z/kps_xzfj7sn5l5gkyq8s9db00000gn/T//cck5P0LB.s 			page 29


 1591              	.LVL135:
 1592 003e C0B2     		uxtb	r0, r0
 1593              		.loc 1 2728 0
 1594 0040 0134     		adds	r4, r4, #1
 1595              	.LVL136:
 1596              		.loc 1 2726 0
 1597 0042 0928     		cmp	r0, #9
 1598              		.loc 1 2728 0
 1599 0044 E4B2     		uxtb	r4, r4
 1600              	.LVL137:
 1601              		.loc 1 2726 0
 1602 0046 F9D8     		bhi	.L153
 1603 0048 2401     		lsls	r4, r4, #4
 1604              	.LVL138:
 1605 004a E6B2     		uxtb	r6, r4
 1606              	.L152:
 1607              	.LBE162:
 1608              	.LBE164:
 1609              		.loc 1 1191 0
 1610 004c 9478     		ldrb	r4, [r2, #2]	@ zero_extendqisi2
 1611              	.LVL139:
 1612              		.loc 1 1190 0
 1613 004e 3043     		orrs	r0, r0, r6
 1614              	.LVL140:
 1615              	.LBB165:
 1616              	.LBB166:
 1617              		.loc 1 2726 0
 1618 0050 092C     		cmp	r4, #9
 1619              	.LBE166:
 1620              	.LBE165:
 1621              		.loc 1 1190 0
 1622 0052 4FEA0020 		lsl	r0, r0, #8
 1623              	.LBB169:
 1624              	.LBB167:
 1625              		.loc 1 2726 0
 1626 0056 55D9     		bls	.L164
 1627 0058 0026     		movs	r6, #0
 1628              	.LVL141:
 1629              	.L155:
 1630              		.loc 1 2729 0
 1631 005a 0A3C     		subs	r4, r4, #10
 1632              	.LVL142:
 1633 005c E4B2     		uxtb	r4, r4
 1634              		.loc 1 2728 0
 1635 005e 0136     		adds	r6, r6, #1
 1636              	.LVL143:
 1637              		.loc 1 2726 0
 1638 0060 092C     		cmp	r4, #9
 1639              		.loc 1 2728 0
 1640 0062 F6B2     		uxtb	r6, r6
 1641              	.LVL144:
 1642              		.loc 1 2726 0
 1643 0064 F9D8     		bhi	.L155
 1644 0066 3601     		lsls	r6, r6, #4
 1645              	.LVL145:
 1646 0068 F7B2     		uxtb	r7, r6
 1647              	.L154:
ARM GAS  /var/folders/7z/kps_xzfj7sn5l5gkyq8s9db00000gn/T//cck5P0LB.s 			page 30


 1648              	.LBE167:
 1649              	.LBE169:
 1650              		.loc 1 1193 0
 1651 006a 92F80CE0 		ldrb	lr, [r2, #12]	@ zero_extendqisi2
 1652              	.LVL146:
 1653              	.LBB170:
 1654              	.LBB171:
 1655              		.loc 1 2726 0
 1656 006e BEF1090F 		cmp	lr, #9
 1657              	.LBE171:
 1658              	.LBE170:
 1659              		.loc 1 1191 0
 1660 0072 44EA0704 		orr	r4, r4, r7
 1661              	.LVL147:
 1662              	.LBB173:
 1663              	.LBB172:
 1664              		.loc 1 2726 0
 1665 0076 4FF00006 		mov	r6, #0
 1666 007a 0AD9     		bls	.L156
 1667              	.LVL148:
 1668              	.L157:
 1669              		.loc 1 2729 0
 1670 007c AEF10A0E 		sub	lr, lr, #10
 1671              	.LVL149:
 1672 0080 5FFA8EFE 		uxtb	lr, lr
 1673              		.loc 1 2728 0
 1674 0084 0136     		adds	r6, r6, #1
 1675              	.LVL150:
 1676              		.loc 1 2726 0
 1677 0086 BEF1090F 		cmp	lr, #9
 1678              		.loc 1 2728 0
 1679 008a F6B2     		uxtb	r6, r6
 1680              	.LVL151:
 1681              		.loc 1 2726 0
 1682 008c F6D8     		bhi	.L157
 1683 008e 3601     		lsls	r6, r6, #4
 1684              	.LVL152:
 1685 0090 F6B2     		uxtb	r6, r6
 1686              	.L156:
 1687 0092 5768     		ldr	r7, [r2, #4]
 1688 0094 9268     		ldr	r2, [r2, #8]
 1689              	.LVL153:
 1690 0096 3A43     		orrs	r2, r2, r7
 1691 0098 1543     		orrs	r5, r5, r2
 1692 009a 2B43     		orrs	r3, r3, r5
 1693 009c 1843     		orrs	r0, r0, r3
 1694              	.LBE172:
 1695              	.LBE173:
 1696              		.loc 1 1193 0
 1697 009e 46EA0E06 		orr	r6, r6, lr
 1698 00a2 2043     		orrs	r0, r0, r4
 1699              		.loc 1 1189 0
 1700 00a4 40EA0666 		orr	r6, r0, r6, lsl #24
 1701              	.LVL154:
 1702 00a8 15E0     		b	.L160
 1703              	.LVL155:
 1704              	.L146:
ARM GAS  /var/folders/7z/kps_xzfj7sn5l5gkyq8s9db00000gn/T//cck5P0LB.s 			page 31


 1705              		.loc 1 1149 0
 1706 00aa 9E68     		ldr	r6, [r3, #8]
 1707 00ac 16F04003 		ands	r3, r6, #64
 1708 00b0 20D1     		bne	.L149
 1709              		.loc 1 1157 0
 1710 00b2 D370     		strb	r3, [r2, #3]
 1711              	.L150:
 1712 00b4 D2F804E0 		ldr	lr, [r2, #4]
 1713 00b8 9068     		ldr	r0, [r2, #8]
 1714              	.LVL156:
 1715              		.loc 1 1181 0
 1716 00ba 9478     		ldrb	r4, [r2, #2]	@ zero_extendqisi2
 1717              		.loc 1 1179 0
 1718 00bc 1778     		ldrb	r7, [r2]	@ zero_extendqisi2
 1719              		.loc 1 1180 0
 1720 00be 5578     		ldrb	r5, [r2, #1]	@ zero_extendqisi2
 1721              		.loc 1 1183 0
 1722 00c0 167B     		ldrb	r6, [r2, #12]	@ zero_extendqisi2
 1723 00c2 4EEA0000 		orr	r0, lr, r0
 1724 00c6 2043     		orrs	r0, r0, r4
 1725 00c8 40EA0742 		orr	r2, r0, r7, lsl #16
 1726              	.LVL157:
 1727 00cc 42EA0522 		orr	r2, r2, r5, lsl #8
 1728 00d0 42EA0666 		orr	r6, r2, r6, lsl #24
 1729              		.loc 1 1179 0
 1730 00d4 1E43     		orrs	r6, r6, r3
 1731              	.LVL158:
 1732              	.L160:
 1733              		.loc 1 1199 0
 1734 00d6 0C4B     		ldr	r3, .L173
 1735              		.loc 1 1200 0
 1736 00d8 5322     		movs	r2, #83
 1737              		.loc 1 1203 0
 1738 00da B1F5807F 		cmp	r1, #256
 1739              		.loc 1 1199 0
 1740 00de 4FF0CA00 		mov	r0, #202
 1741 00e2 5862     		str	r0, [r3, #36]
 1742              		.loc 1 1200 0
 1743 00e4 5A62     		str	r2, [r3, #36]
 1744              		.loc 1 1205 0
 1745 00e6 0CBF     		ite	eq
 1746 00e8 DE61     		streq	r6, [r3, #28]
 1747              		.loc 1 1209 0
 1748 00ea 1E62     		strne	r6, [r3, #32]
 1749              		.loc 1 1213 0
 1750 00ec 064B     		ldr	r3, .L173
 1751 00ee FF22     		movs	r2, #255
 1752 00f0 5A62     		str	r2, [r3, #36]
 1753 00f2 F0BD     		pop	{r4, r5, r6, r7, pc}
 1754              	.LVL159:
 1755              	.L149:
 1756 00f4 D678     		ldrb	r6, [r2, #3]	@ zero_extendqisi2
 1757 00f6 3304     		lsls	r3, r6, #16
 1758 00f8 DCE7     		b	.L150
 1759              	.L147:
 1760 00fa D578     		ldrb	r5, [r2, #3]	@ zero_extendqisi2
 1761 00fc 2D04     		lsls	r5, r5, #16
ARM GAS  /var/folders/7z/kps_xzfj7sn5l5gkyq8s9db00000gn/T//cck5P0LB.s 			page 32


 1762 00fe 88E7     		b	.L148
 1763              	.LVL160:
 1764              	.L163:
 1765              	.LBB174:
 1766              	.LBB163:
 1767              		.loc 1 2726 0
 1768 0100 0026     		movs	r6, #0
 1769 0102 A3E7     		b	.L152
 1770              	.LVL161:
 1771              	.L164:
 1772              	.LBE163:
 1773              	.LBE174:
 1774              	.LBB175:
 1775              	.LBB168:
 1776 0104 0027     		movs	r7, #0
 1777 0106 B0E7     		b	.L154
 1778              	.L174:
 1779              		.align	2
 1780              	.L173:
 1781 0108 00280040 		.word	1073752064
 1782              	.LBE168:
 1783              	.LBE175:
 1784              		.cfi_endproc
 1785              	.LFE127:
 1786              		.size	RTC_SetAlarm, .-RTC_SetAlarm
 1787 010c AFF30080 		.section	.text.RTC_AlarmStructInit,"ax",%progbits
 1788              		.align	2
 1789              		.p2align 4,,15
 1790              		.global	RTC_AlarmStructInit
 1791              		.thumb
 1792              		.thumb_func
 1793              		.type	RTC_AlarmStructInit, %function
 1794              	RTC_AlarmStructInit:
 1795              	.LFB128:
 1796              		.loc 1 1225 0
 1797              		.cfi_startproc
 1798              		@ args = 0, pretend = 0, frame = 0
 1799              		@ frame_needed = 0, uses_anonymous_args = 0
 1800              		@ link register save eliminated.
 1801              	.LVL162:
 1802              		.loc 1 1227 0
 1803 0000 0023     		movs	r3, #0
 1804              		.loc 1 1234 0
 1805 0002 0122     		movs	r2, #1
 1806 0004 0273     		strb	r2, [r0, #12]
 1807              		.loc 1 1227 0
 1808 0006 C370     		strb	r3, [r0, #3]
 1809              		.loc 1 1228 0
 1810 0008 0370     		strb	r3, [r0]
 1811              		.loc 1 1229 0
 1812 000a 4370     		strb	r3, [r0, #1]
 1813              		.loc 1 1230 0
 1814 000c 8370     		strb	r3, [r0, #2]
 1815              		.loc 1 1233 0
 1816 000e 8360     		str	r3, [r0, #8]
 1817              		.loc 1 1237 0
 1818 0010 4360     		str	r3, [r0, #4]
ARM GAS  /var/folders/7z/kps_xzfj7sn5l5gkyq8s9db00000gn/T//cck5P0LB.s 			page 33


 1819 0012 7047     		bx	lr
 1820              		.cfi_endproc
 1821              	.LFE128:
 1822              		.size	RTC_AlarmStructInit, .-RTC_AlarmStructInit
 1823 0014 AFF30080 		.section	.text.RTC_GetAlarm,"ax",%progbits
 1823      AFF30080 
 1823      AFF30080 
 1824              		.align	2
 1825              		.p2align 4,,15
 1826              		.global	RTC_GetAlarm
 1827              		.thumb
 1828              		.thumb_func
 1829              		.type	RTC_GetAlarm, %function
 1830              	RTC_GetAlarm:
 1831              	.LFB129:
 1832              		.loc 1 1255 0
 1833              		.cfi_startproc
 1834              		@ args = 0, pretend = 0, frame = 0
 1835              		@ frame_needed = 0, uses_anonymous_args = 0
 1836              	.LVL163:
 1837              		.loc 1 1265 0
 1838 0000 214B     		ldr	r3, .L181
 1839              		.loc 1 1263 0
 1840 0002 B1F5807F 		cmp	r1, #256
 1841              		.loc 1 1265 0
 1842 0006 0CBF     		ite	eq
 1843 0008 DB69     		ldreq	r3, [r3, #28]
 1844              	.LVL164:
 1845              		.loc 1 1269 0
 1846 000a 1B6A     		ldrne	r3, [r3, #32]
 1847              	.LVL165:
 1848              		.loc 1 1255 0
 1849 000c F0B5     		push	{r4, r5, r6, r7, lr}
 1850              		.cfi_def_cfa_offset 20
 1851              		.cfi_offset 4, -20
 1852              		.cfi_offset 5, -16
 1853              		.cfi_offset 6, -12
 1854              		.cfi_offset 7, -8
 1855              		.cfi_offset 14, -4
 1856              		.loc 1 1277 0
 1857 000e DEB2     		uxtb	r6, r3
 1858              		.loc 1 1279 0
 1859 0010 03F4800E 		and	lr, r3, #4194304
 1860              		.loc 1 1273 0
 1861 0014 C3F30545 		ubfx	r5, r3, #16, #6
 1862              		.loc 1 1275 0
 1863 0018 C3F30624 		ubfx	r4, r3, #8, #7
 1864              		.loc 1 1280 0
 1865 001c C3F30561 		ubfx	r1, r3, #24, #6
 1866              	.LVL166:
 1867              		.loc 1 1281 0
 1868 0020 03F0804C 		and	ip, r3, #1073741824
 1869              		.loc 1 1277 0
 1870 0024 06F07F07 		and	r7, r6, #127
 1871              		.loc 1 1279 0
 1872 0028 4FEA1E4E 		lsr	lr, lr, #16
 1873              		.loc 1 1282 0
ARM GAS  /var/folders/7z/kps_xzfj7sn5l5gkyq8s9db00000gn/T//cck5P0LB.s 			page 34


 1874 002c 03F08033 		and	r3, r3, #-2139062144
 1875              	.LVL167:
 1876              		.loc 1 1277 0
 1877 0030 9770     		strb	r7, [r2, #2]
 1878              		.loc 1 1279 0
 1879 0032 82F803E0 		strb	lr, [r2, #3]
 1880              		.loc 1 1273 0
 1881 0036 1570     		strb	r5, [r2]
 1882              		.loc 1 1275 0
 1883 0038 5470     		strb	r4, [r2, #1]
 1884              		.loc 1 1280 0
 1885 003a 1173     		strb	r1, [r2, #12]
 1886              		.loc 1 1281 0
 1887 003c C2F808C0 		str	ip, [r2, #8]
 1888              		.loc 1 1282 0
 1889 0040 5360     		str	r3, [r2, #4]
 1890              		.loc 1 1284 0
 1891 0042 00BB     		cbnz	r0, .L176
 1892              	.LVL168:
 1893              	.LBB176:
 1894              	.LBB177:
 1895              		.loc 1 2743 0
 1896 0044 4FEA151E 		lsr	lr, r5, #4
 1897              	.LBE177:
 1898              	.LBE176:
 1899              	.LBB180:
 1900              	.LBB181:
 1901 0048 2009     		lsrs	r0, r4, #4
 1902              	.LVL169:
 1903              	.LBE181:
 1904              	.LBE180:
 1905              	.LBB184:
 1906              	.LBB185:
 1907 004a 0B09     		lsrs	r3, r1, #4
 1908              	.LBE185:
 1909              	.LBE184:
 1910              	.LBB188:
 1911              	.LBB189:
 1912 004c 3F09     		lsrs	r7, r7, #4
 1913 004e 07EB8707 		add	r7, r7, r7, lsl #2
 1914              		.loc 1 2744 0
 1915 0052 06F00F06 		and	r6, r6, #15
 1916              	.LBE189:
 1917              	.LBE188:
 1918              	.LBB191:
 1919              	.LBB178:
 1920              		.loc 1 2743 0
 1921 0056 0EEB8E0E 		add	lr, lr, lr, lsl #2
 1922              		.loc 1 2744 0
 1923 005a 05F00F05 		and	r5, r5, #15
 1924              	.LVL170:
 1925              	.LBE178:
 1926              	.LBE191:
 1927              	.LBB192:
 1928              	.LBB182:
 1929              		.loc 1 2743 0
 1930 005e 00EB8000 		add	r0, r0, r0, lsl #2
ARM GAS  /var/folders/7z/kps_xzfj7sn5l5gkyq8s9db00000gn/T//cck5P0LB.s 			page 35


 1931              		.loc 1 2744 0
 1932 0062 04F00F04 		and	r4, r4, #15
 1933              	.LBE182:
 1934              	.LBE192:
 1935              	.LBB193:
 1936              	.LBB186:
 1937              		.loc 1 2743 0
 1938 0066 03EB8303 		add	r3, r3, r3, lsl #2
 1939              		.loc 1 2744 0
 1940 006a 01F00F01 		and	r1, r1, #15
 1941              	.LBE186:
 1942              	.LBE193:
 1943              	.LBB194:
 1944              	.LBB190:
 1945 006e 06EB4707 		add	r7, r6, r7, lsl #1
 1946              	.LBE190:
 1947              	.LBE194:
 1948              	.LBB195:
 1949              	.LBB179:
 1950 0072 05EB4E05 		add	r5, r5, lr, lsl #1
 1951              	.LBE179:
 1952              	.LBE195:
 1953              	.LBB196:
 1954              	.LBB183:
 1955 0076 04EB4004 		add	r4, r4, r0, lsl #1
 1956              	.LBE183:
 1957              	.LBE196:
 1958              	.LBB197:
 1959              	.LBB187:
 1960 007a 01EB4301 		add	r1, r1, r3, lsl #1
 1961              	.LBE187:
 1962              	.LBE197:
 1963              		.loc 1 1290 0
 1964 007e 9770     		strb	r7, [r2, #2]
 1965              		.loc 1 1286 0
 1966 0080 1570     		strb	r5, [r2]
 1967              	.LVL171:
 1968              		.loc 1 1288 0
 1969 0082 5470     		strb	r4, [r2, #1]
 1970              	.LVL172:
 1971              		.loc 1 1292 0
 1972 0084 1173     		strb	r1, [r2, #12]
 1973              	.L176:
 1974 0086 F0BD     		pop	{r4, r5, r6, r7, pc}
 1975              	.L182:
 1976              		.align	2
 1977              	.L181:
 1978 0088 00280040 		.word	1073752064
 1979              		.cfi_endproc
 1980              	.LFE129:
 1981              		.size	RTC_GetAlarm, .-RTC_GetAlarm
 1982 008c AFF30080 		.section	.text.RTC_AlarmCmd,"ax",%progbits
 1983              		.align	2
 1984              		.p2align 4,,15
 1985              		.global	RTC_AlarmCmd
 1986              		.thumb
 1987              		.thumb_func
ARM GAS  /var/folders/7z/kps_xzfj7sn5l5gkyq8s9db00000gn/T//cck5P0LB.s 			page 36


 1988              		.type	RTC_AlarmCmd, %function
 1989              	RTC_AlarmCmd:
 1990              	.LFB130:
 1991              		.loc 1 1309 0
 1992              		.cfi_startproc
 1993              		@ args = 0, pretend = 0, frame = 8
 1994              		@ frame_needed = 0, uses_anonymous_args = 0
 1995              		@ link register save eliminated.
 1996              	.LVL173:
 1997 0000 30B4     		push	{r4, r5}
 1998              		.cfi_def_cfa_offset 8
 1999              		.cfi_offset 4, -8
 2000              		.cfi_offset 5, -4
 2001              		.loc 1 1319 0
 2002 0002 154B     		ldr	r3, .L196
 2003              		.loc 1 1309 0
 2004 0004 82B0     		sub	sp, sp, #8
 2005              		.cfi_def_cfa_offset 16
 2006              		.loc 1 1320 0
 2007 0006 5322     		movs	r2, #83
 2008              		.loc 1 1310 0
 2009 0008 0025     		movs	r5, #0
 2010              		.loc 1 1319 0
 2011 000a CA24     		movs	r4, #202
 2012              		.loc 1 1310 0
 2013 000c 0195     		str	r5, [sp, #4]
 2014              	.LVL174:
 2015              		.loc 1 1319 0
 2016 000e 5C62     		str	r4, [r3, #36]
 2017              		.loc 1 1320 0
 2018 0010 5A62     		str	r2, [r3, #36]
 2019              		.loc 1 1325 0
 2020 0012 9A68     		ldr	r2, [r3, #8]
 2021              		.loc 1 1323 0
 2022 0014 E1B9     		cbnz	r1, .L194
 2023              		.loc 1 1332 0
 2024 0016 22EA0002 		bic	r2, r2, r0
 2025 001a 9A60     		str	r2, [r3, #8]
 2026 001c 000A     		lsrs	r0, r0, #8
 2027              	.LVL175:
 2028              		.loc 1 1337 0
 2029 001e 1946     		mov	r1, r3
 2030              	.LVL176:
 2031 0020 00E0     		b	.L187
 2032              	.LVL177:
 2033              	.L195:
 2034              		.loc 1 1339 0 discriminator 1
 2035 0022 4AB9     		cbnz	r2, .L186
 2036              	.LVL178:
 2037              	.L187:
 2038              		.loc 1 1337 0 discriminator 2
 2039 0024 CA68     		ldr	r2, [r1, #12]
 2040              		.loc 1 1338 0 discriminator 2
 2041 0026 019B     		ldr	r3, [sp, #4]
 2042 0028 0133     		adds	r3, r3, #1
 2043 002a 0193     		str	r3, [sp, #4]
 2044              		.loc 1 1339 0 discriminator 2
ARM GAS  /var/folders/7z/kps_xzfj7sn5l5gkyq8s9db00000gn/T//cck5P0LB.s 			page 37


 2045 002c 019B     		ldr	r3, [sp, #4]
 2046 002e B3F5803F 		cmp	r3, #65536
 2047              		.loc 1 1337 0 discriminator 2
 2048 0032 02EA0002 		and	r2, r2, r0
 2049              	.LVL179:
 2050              		.loc 1 1339 0 discriminator 2
 2051 0036 F4D1     		bne	.L195
 2052              	.L186:
 2053              		.loc 1 1341 0
 2054 0038 074B     		ldr	r3, .L196
 2055 003a DB68     		ldr	r3, [r3, #12]
 2056 003c 1842     		tst	r0, r3
 2057              		.loc 1 1327 0
 2058 003e 14BF     		ite	ne
 2059 0040 0120     		movne	r0, #1
 2060 0042 0020     		moveq	r0, #0
 2061              	.LVL180:
 2062              	.L185:
 2063              		.loc 1 1352 0
 2064 0044 044B     		ldr	r3, .L196
 2065 0046 FF22     		movs	r2, #255
 2066 0048 5A62     		str	r2, [r3, #36]
 2067              		.loc 1 1355 0
 2068 004a 02B0     		add	sp, sp, #8
 2069              		.cfi_remember_state
 2070              		.cfi_def_cfa_offset 8
 2071              		@ sp needed
 2072 004c 30BC     		pop	{r4, r5}
 2073              		.cfi_restore 5
 2074              		.cfi_restore 4
 2075              		.cfi_def_cfa_offset 0
 2076 004e 7047     		bx	lr
 2077              	.LVL181:
 2078              	.L194:
 2079              		.cfi_restore_state
 2080              		.loc 1 1325 0
 2081 0050 1043     		orrs	r0, r0, r2
 2082              	.LVL182:
 2083 0052 9860     		str	r0, [r3, #8]
 2084              	.LVL183:
 2085              		.loc 1 1327 0
 2086 0054 0120     		movs	r0, #1
 2087 0056 F5E7     		b	.L185
 2088              	.L197:
 2089              		.align	2
 2090              	.L196:
 2091 0058 00280040 		.word	1073752064
 2092              		.cfi_endproc
 2093              	.LFE130:
 2094              		.size	RTC_AlarmCmd, .-RTC_AlarmCmd
 2095 005c AFF30080 		.section	.text.RTC_AlarmSubSecondConfig,"ax",%progbits
 2096              		.align	2
 2097              		.p2align 4,,15
 2098              		.global	RTC_AlarmSubSecondConfig
 2099              		.thumb
 2100              		.thumb_func
 2101              		.type	RTC_AlarmSubSecondConfig, %function
ARM GAS  /var/folders/7z/kps_xzfj7sn5l5gkyq8s9db00000gn/T//cck5P0LB.s 			page 38


 2102              	RTC_AlarmSubSecondConfig:
 2103              	.LFB131:
 2104              		.loc 1 1403 0
 2105              		.cfi_startproc
 2106              		@ args = 0, pretend = 0, frame = 0
 2107              		@ frame_needed = 0, uses_anonymous_args = 0
 2108              		@ link register save eliminated.
 2109              	.LVL184:
 2110 0000 30B4     		push	{r4, r5}
 2111              		.cfi_def_cfa_offset 8
 2112              		.cfi_offset 4, -8
 2113              		.cfi_offset 5, -4
 2114              		.loc 1 1412 0
 2115 0002 084B     		ldr	r3, .L202
 2116              		.loc 1 1416 0
 2117 0004 0A43     		orrs	r2, r2, r1
 2118              	.LVL185:
 2119              		.loc 1 1412 0
 2120 0006 CA25     		movs	r5, #202
 2121              		.loc 1 1413 0
 2122 0008 5324     		movs	r4, #83
 2123              		.loc 1 1418 0
 2124 000a B0F5807F 		cmp	r0, #256
 2125              		.loc 1 1412 0
 2126 000e 5D62     		str	r5, [r3, #36]
 2127              		.loc 1 1413 0
 2128 0010 5C62     		str	r4, [r3, #36]
 2129              		.loc 1 1421 0
 2130 0012 0CBF     		ite	eq
 2131 0014 5A64     		streq	r2, [r3, #68]
 2132              		.loc 1 1426 0
 2133 0016 9A64     		strne	r2, [r3, #72]
 2134              		.loc 1 1430 0
 2135 0018 024B     		ldr	r3, .L202
 2136 001a FF22     		movs	r2, #255
 2137              	.LVL186:
 2138 001c 5A62     		str	r2, [r3, #36]
 2139              		.loc 1 1432 0
 2140 001e 30BC     		pop	{r4, r5}
 2141              		.cfi_restore 5
 2142              		.cfi_restore 4
 2143              		.cfi_def_cfa_offset 0
 2144 0020 7047     		bx	lr
 2145              	.L203:
 2146 0022 00BF     		.align	2
 2147              	.L202:
 2148 0024 00280040 		.word	1073752064
 2149              		.cfi_endproc
 2150              	.LFE131:
 2151              		.size	RTC_AlarmSubSecondConfig, .-RTC_AlarmSubSecondConfig
 2152 0028 AFF30080 		.section	.text.RTC_GetAlarmSubSecond,"ax",%progbits
 2152      AFF30080 
 2153              		.align	2
 2154              		.p2align 4,,15
 2155              		.global	RTC_GetAlarmSubSecond
 2156              		.thumb
 2157              		.thumb_func
ARM GAS  /var/folders/7z/kps_xzfj7sn5l5gkyq8s9db00000gn/T//cck5P0LB.s 			page 39


 2158              		.type	RTC_GetAlarmSubSecond, %function
 2159              	RTC_GetAlarmSubSecond:
 2160              	.LFB132:
 2161              		.loc 1 1444 0
 2162              		.cfi_startproc
 2163              		@ args = 0, pretend = 0, frame = 0
 2164              		@ frame_needed = 0, uses_anonymous_args = 0
 2165              		@ link register save eliminated.
 2166              	.LVL187:
 2167              		.loc 1 1450 0
 2168 0000 044B     		ldr	r3, .L207
 2169              		.loc 1 1448 0
 2170 0002 B0F5807F 		cmp	r0, #256
 2171              		.loc 1 1450 0
 2172 0006 0CBF     		ite	eq
 2173 0008 586C     		ldreq	r0, [r3, #68]
 2174              	.LVL188:
 2175              		.loc 1 1454 0
 2176 000a 986C     		ldrne	r0, [r3, #72]
 2177 000c C0F30E00 		ubfx	r0, r0, #0, #15
 2178              	.LVL189:
 2179              		.loc 1 1458 0
 2180 0010 7047     		bx	lr
 2181              	.L208:
 2182 0012 00BF     		.align	2
 2183              	.L207:
 2184 0014 00280040 		.word	1073752064
 2185              		.cfi_endproc
 2186              	.LFE132:
 2187              		.size	RTC_GetAlarmSubSecond, .-RTC_GetAlarmSubSecond
 2188 0018 AFF30080 		.section	.text.RTC_WakeUpClockConfig,"ax",%progbits
 2188      AFF30080 
 2189              		.align	2
 2190              		.p2align 4,,15
 2191              		.global	RTC_WakeUpClockConfig
 2192              		.thumb
 2193              		.thumb_func
 2194              		.type	RTC_WakeUpClockConfig, %function
 2195              	RTC_WakeUpClockConfig:
 2196              	.LFB133:
 2197              		.loc 1 1493 0
 2198              		.cfi_startproc
 2199              		@ args = 0, pretend = 0, frame = 0
 2200              		@ frame_needed = 0, uses_anonymous_args = 0
 2201              		@ link register save eliminated.
 2202              	.LVL190:
 2203              		.loc 1 1498 0
 2204 0000 074B     		ldr	r3, .L210
 2205 0002 CA21     		movs	r1, #202
 2206              		.loc 1 1499 0
 2207 0004 5322     		movs	r2, #83
 2208              		.loc 1 1498 0
 2209 0006 5962     		str	r1, [r3, #36]
 2210              		.loc 1 1499 0
 2211 0008 5A62     		str	r2, [r3, #36]
 2212              		.loc 1 1502 0
 2213 000a 9A68     		ldr	r2, [r3, #8]
ARM GAS  /var/folders/7z/kps_xzfj7sn5l5gkyq8s9db00000gn/T//cck5P0LB.s 			page 40


 2214 000c 22F00702 		bic	r2, r2, #7
 2215 0010 9A60     		str	r2, [r3, #8]
 2216              		.loc 1 1505 0
 2217 0012 9A68     		ldr	r2, [r3, #8]
 2218              		.loc 1 1508 0
 2219 0014 FF21     		movs	r1, #255
 2220              		.loc 1 1505 0
 2221 0016 1043     		orrs	r0, r0, r2
 2222              	.LVL191:
 2223 0018 9860     		str	r0, [r3, #8]
 2224              		.loc 1 1508 0
 2225 001a 5962     		str	r1, [r3, #36]
 2226 001c 7047     		bx	lr
 2227              	.L211:
 2228 001e 00BF     		.align	2
 2229              	.L210:
 2230 0020 00280040 		.word	1073752064
 2231              		.cfi_endproc
 2232              	.LFE133:
 2233              		.size	RTC_WakeUpClockConfig, .-RTC_WakeUpClockConfig
 2234 0024 AFF30080 		.section	.text.RTC_SetWakeUpCounter,"ax",%progbits
 2234      AFF30080 
 2234      AFF30080 
 2235              		.align	2
 2236              		.p2align 4,,15
 2237              		.global	RTC_SetWakeUpCounter
 2238              		.thumb
 2239              		.thumb_func
 2240              		.type	RTC_SetWakeUpCounter, %function
 2241              	RTC_SetWakeUpCounter:
 2242              	.LFB134:
 2243              		.loc 1 1520 0
 2244              		.cfi_startproc
 2245              		@ args = 0, pretend = 0, frame = 0
 2246              		@ frame_needed = 0, uses_anonymous_args = 0
 2247              		@ link register save eliminated.
 2248              	.LVL192:
 2249              		.loc 1 1525 0
 2250 0000 054B     		ldr	r3, .L214
 2251              		.loc 1 1520 0
 2252 0002 10B4     		push	{r4}
 2253              		.cfi_def_cfa_offset 4
 2254              		.cfi_offset 4, -4
 2255              		.loc 1 1526 0
 2256 0004 5321     		movs	r1, #83
 2257              		.loc 1 1525 0
 2258 0006 CA24     		movs	r4, #202
 2259              		.loc 1 1532 0
 2260 0008 FF22     		movs	r2, #255
 2261              		.loc 1 1525 0
 2262 000a 5C62     		str	r4, [r3, #36]
 2263              		.loc 1 1526 0
 2264 000c 5962     		str	r1, [r3, #36]
 2265              		.loc 1 1533 0
 2266 000e 5DF8044B 		ldr	r4, [sp], #4
 2267              		.cfi_restore 4
 2268              		.cfi_def_cfa_offset 0
ARM GAS  /var/folders/7z/kps_xzfj7sn5l5gkyq8s9db00000gn/T//cck5P0LB.s 			page 41


 2269              		.loc 1 1529 0
 2270 0012 5861     		str	r0, [r3, #20]
 2271              		.loc 1 1532 0
 2272 0014 5A62     		str	r2, [r3, #36]
 2273              		.loc 1 1533 0
 2274 0016 7047     		bx	lr
 2275              	.L215:
 2276              		.align	2
 2277              	.L214:
 2278 0018 00280040 		.word	1073752064
 2279              		.cfi_endproc
 2280              	.LFE134:
 2281              		.size	RTC_SetWakeUpCounter, .-RTC_SetWakeUpCounter
 2282 001c AFF30080 		.section	.text.RTC_GetWakeUpCounter,"ax",%progbits
 2283              		.align	2
 2284              		.p2align 4,,15
 2285              		.global	RTC_GetWakeUpCounter
 2286              		.thumb
 2287              		.thumb_func
 2288              		.type	RTC_GetWakeUpCounter, %function
 2289              	RTC_GetWakeUpCounter:
 2290              	.LFB135:
 2291              		.loc 1 1541 0
 2292              		.cfi_startproc
 2293              		@ args = 0, pretend = 0, frame = 0
 2294              		@ frame_needed = 0, uses_anonymous_args = 0
 2295              		@ link register save eliminated.
 2296              		.loc 1 1543 0
 2297 0000 014B     		ldr	r3, .L217
 2298 0002 5869     		ldr	r0, [r3, #20]
 2299              		.loc 1 1544 0
 2300 0004 80B2     		uxth	r0, r0
 2301 0006 7047     		bx	lr
 2302              	.L218:
 2303              		.align	2
 2304              	.L217:
 2305 0008 00280040 		.word	1073752064
 2306              		.cfi_endproc
 2307              	.LFE135:
 2308              		.size	RTC_GetWakeUpCounter, .-RTC_GetWakeUpCounter
 2309 000c AFF30080 		.section	.text.RTC_WakeUpCmd,"ax",%progbits
 2310              		.align	2
 2311              		.p2align 4,,15
 2312              		.global	RTC_WakeUpCmd
 2313              		.thumb
 2314              		.thumb_func
 2315              		.type	RTC_WakeUpCmd, %function
 2316              	RTC_WakeUpCmd:
 2317              	.LFB136:
 2318              		.loc 1 1553 0
 2319              		.cfi_startproc
 2320              		@ args = 0, pretend = 0, frame = 8
 2321              		@ frame_needed = 0, uses_anonymous_args = 0
 2322              		@ link register save eliminated.
 2323              	.LVL193:
 2324 0000 10B4     		push	{r4}
 2325              		.cfi_def_cfa_offset 4
ARM GAS  /var/folders/7z/kps_xzfj7sn5l5gkyq8s9db00000gn/T//cck5P0LB.s 			page 42


 2326              		.cfi_offset 4, -4
 2327              		.loc 1 1562 0
 2328 0002 1449     		ldr	r1, .L232
 2329              		.loc 1 1553 0
 2330 0004 83B0     		sub	sp, sp, #12
 2331              		.cfi_def_cfa_offset 16
 2332              		.loc 1 1563 0
 2333 0006 5323     		movs	r3, #83
 2334              		.loc 1 1554 0
 2335 0008 0024     		movs	r4, #0
 2336              		.loc 1 1562 0
 2337 000a CA22     		movs	r2, #202
 2338              		.loc 1 1554 0
 2339 000c 0194     		str	r4, [sp, #4]
 2340              	.LVL194:
 2341              		.loc 1 1562 0
 2342 000e 4A62     		str	r2, [r1, #36]
 2343              		.loc 1 1563 0
 2344 0010 4B62     		str	r3, [r1, #36]
 2345              		.loc 1 1568 0
 2346 0012 8B68     		ldr	r3, [r1, #8]
 2347              		.loc 1 1565 0
 2348 0014 C8B9     		cbnz	r0, .L230
 2349              		.loc 1 1574 0
 2350 0016 23F48063 		bic	r3, r3, #1024
 2351 001a 8B60     		str	r3, [r1, #8]
 2352 001c 00E0     		b	.L223
 2353              	.LVL195:
 2354              	.L231:
 2355              		.loc 1 1580 0 discriminator 1
 2356 001e 4AB9     		cbnz	r2, .L222
 2357              	.LVL196:
 2358              	.L223:
 2359              		.loc 1 1578 0 discriminator 2
 2360 0020 CA68     		ldr	r2, [r1, #12]
 2361              		.loc 1 1579 0 discriminator 2
 2362 0022 019B     		ldr	r3, [sp, #4]
 2363 0024 0133     		adds	r3, r3, #1
 2364 0026 0193     		str	r3, [sp, #4]
 2365              		.loc 1 1580 0 discriminator 2
 2366 0028 019B     		ldr	r3, [sp, #4]
 2367 002a B3F5803F 		cmp	r3, #65536
 2368              		.loc 1 1578 0 discriminator 2
 2369 002e 02F00402 		and	r2, r2, #4
 2370              	.LVL197:
 2371              		.loc 1 1580 0 discriminator 2
 2372 0032 F4D1     		bne	.L231
 2373              	.L222:
 2374              		.loc 1 1582 0
 2375 0034 074B     		ldr	r3, .L232
 2376 0036 D868     		ldr	r0, [r3, #12]
 2377              	.LVL198:
 2378              		.loc 1 1569 0
 2379 0038 C0F38000 		ubfx	r0, r0, #2, #1
 2380              	.LVL199:
 2381              	.L221:
 2382              		.loc 1 1593 0
ARM GAS  /var/folders/7z/kps_xzfj7sn5l5gkyq8s9db00000gn/T//cck5P0LB.s 			page 43


 2383 003c 054B     		ldr	r3, .L232
 2384 003e FF22     		movs	r2, #255
 2385 0040 5A62     		str	r2, [r3, #36]
 2386              		.loc 1 1596 0
 2387 0042 03B0     		add	sp, sp, #12
 2388              		.cfi_remember_state
 2389              		.cfi_def_cfa_offset 4
 2390              		@ sp needed
 2391 0044 5DF8044B 		ldr	r4, [sp], #4
 2392              		.cfi_restore 4
 2393              		.cfi_def_cfa_offset 0
 2394 0048 7047     		bx	lr
 2395              	.LVL200:
 2396              	.L230:
 2397              		.cfi_restore_state
 2398              		.loc 1 1568 0
 2399 004a 43F48063 		orr	r3, r3, #1024
 2400 004e 8B60     		str	r3, [r1, #8]
 2401              	.LVL201:
 2402              		.loc 1 1569 0
 2403 0050 0120     		movs	r0, #1
 2404              	.LVL202:
 2405 0052 F3E7     		b	.L221
 2406              	.L233:
 2407              		.align	2
 2408              	.L232:
 2409 0054 00280040 		.word	1073752064
 2410              		.cfi_endproc
 2411              	.LFE136:
 2412              		.size	RTC_WakeUpCmd, .-RTC_WakeUpCmd
 2413 0058 AFF30080 		.section	.text.RTC_DayLightSavingConfig,"ax",%progbits
 2413      AFF30080 
 2414              		.align	2
 2415              		.p2align 4,,15
 2416              		.global	RTC_DayLightSavingConfig
 2417              		.thumb
 2418              		.thumb_func
 2419              		.type	RTC_DayLightSavingConfig, %function
 2420              	RTC_DayLightSavingConfig:
 2421              	.LFB137:
 2422              		.loc 1 1630 0
 2423              		.cfi_startproc
 2424              		@ args = 0, pretend = 0, frame = 0
 2425              		@ frame_needed = 0, uses_anonymous_args = 0
 2426              		@ link register save eliminated.
 2427              	.LVL203:
 2428              		.loc 1 1636 0
 2429 0000 094B     		ldr	r3, .L236
 2430              		.loc 1 1630 0
 2431 0002 10B4     		push	{r4}
 2432              		.cfi_def_cfa_offset 4
 2433              		.cfi_offset 4, -4
 2434              		.loc 1 1637 0
 2435 0004 5322     		movs	r2, #83
 2436              		.loc 1 1636 0
 2437 0006 CA24     		movs	r4, #202
 2438 0008 5C62     		str	r4, [r3, #36]
ARM GAS  /var/folders/7z/kps_xzfj7sn5l5gkyq8s9db00000gn/T//cck5P0LB.s 			page 44


 2439              		.loc 1 1637 0
 2440 000a 5A62     		str	r2, [r3, #36]
 2441              		.loc 1 1640 0
 2442 000c 9A68     		ldr	r2, [r3, #8]
 2443              		.loc 1 1647 0
 2444 000e 5DF8044B 		ldr	r4, [sp], #4
 2445              		.cfi_restore 4
 2446              		.cfi_def_cfa_offset 0
 2447              		.loc 1 1640 0
 2448 0012 22F48022 		bic	r2, r2, #262144
 2449 0016 9A60     		str	r2, [r3, #8]
 2450              		.loc 1 1643 0
 2451 0018 9A68     		ldr	r2, [r3, #8]
 2452 001a 1143     		orrs	r1, r1, r2
 2453              	.LVL204:
 2454 001c 0843     		orrs	r0, r0, r1
 2455              	.LVL205:
 2456              		.loc 1 1646 0
 2457 001e FF22     		movs	r2, #255
 2458              		.loc 1 1643 0
 2459 0020 9860     		str	r0, [r3, #8]
 2460              		.loc 1 1646 0
 2461 0022 5A62     		str	r2, [r3, #36]
 2462              		.loc 1 1647 0
 2463 0024 7047     		bx	lr
 2464              	.L237:
 2465 0026 00BF     		.align	2
 2466              	.L236:
 2467 0028 00280040 		.word	1073752064
 2468              		.cfi_endproc
 2469              	.LFE137:
 2470              		.size	RTC_DayLightSavingConfig, .-RTC_DayLightSavingConfig
 2471 002c AFF30080 		.section	.text.RTC_GetStoreOperation,"ax",%progbits
 2472              		.align	2
 2473              		.p2align 4,,15
 2474              		.global	RTC_GetStoreOperation
 2475              		.thumb
 2476              		.thumb_func
 2477              		.type	RTC_GetStoreOperation, %function
 2478              	RTC_GetStoreOperation:
 2479              	.LFB138:
 2480              		.loc 1 1657 0
 2481              		.cfi_startproc
 2482              		@ args = 0, pretend = 0, frame = 0
 2483              		@ frame_needed = 0, uses_anonymous_args = 0
 2484              		@ link register save eliminated.
 2485              		.loc 1 1658 0
 2486 0000 024B     		ldr	r3, .L239
 2487 0002 9868     		ldr	r0, [r3, #8]
 2488              		.loc 1 1659 0
 2489 0004 00F48020 		and	r0, r0, #262144
 2490 0008 7047     		bx	lr
 2491              	.L240:
 2492 000a 00BF     		.align	2
 2493              	.L239:
 2494 000c 00280040 		.word	1073752064
 2495              		.cfi_endproc
ARM GAS  /var/folders/7z/kps_xzfj7sn5l5gkyq8s9db00000gn/T//cck5P0LB.s 			page 45


 2496              	.LFE138:
 2497              		.size	RTC_GetStoreOperation, .-RTC_GetStoreOperation
 2498              		.section	.text.RTC_OutputConfig,"ax",%progbits
 2499              		.align	2
 2500              		.p2align 4,,15
 2501              		.global	RTC_OutputConfig
 2502              		.thumb
 2503              		.thumb_func
 2504              		.type	RTC_OutputConfig, %function
 2505              	RTC_OutputConfig:
 2506              	.LFB139:
 2507              		.loc 1 1696 0
 2508              		.cfi_startproc
 2509              		@ args = 0, pretend = 0, frame = 0
 2510              		@ frame_needed = 0, uses_anonymous_args = 0
 2511              		@ link register save eliminated.
 2512              	.LVL206:
 2513              		.loc 1 1702 0
 2514 0000 094B     		ldr	r3, .L243
 2515              		.loc 1 1696 0
 2516 0002 10B4     		push	{r4}
 2517              		.cfi_def_cfa_offset 4
 2518              		.cfi_offset 4, -4
 2519              		.loc 1 1703 0
 2520 0004 5322     		movs	r2, #83
 2521              		.loc 1 1702 0
 2522 0006 CA24     		movs	r4, #202
 2523 0008 5C62     		str	r4, [r3, #36]
 2524              		.loc 1 1703 0
 2525 000a 5A62     		str	r2, [r3, #36]
 2526              		.loc 1 1706 0
 2527 000c 9A68     		ldr	r2, [r3, #8]
 2528              		.loc 1 1713 0
 2529 000e 5DF8044B 		ldr	r4, [sp], #4
 2530              		.cfi_restore 4
 2531              		.cfi_def_cfa_offset 0
 2532              		.loc 1 1706 0
 2533 0012 22F4E002 		bic	r2, r2, #7340032
 2534 0016 9A60     		str	r2, [r3, #8]
 2535              		.loc 1 1709 0
 2536 0018 9A68     		ldr	r2, [r3, #8]
 2537 001a 1143     		orrs	r1, r1, r2
 2538              	.LVL207:
 2539 001c 0843     		orrs	r0, r0, r1
 2540              	.LVL208:
 2541              		.loc 1 1712 0
 2542 001e FF22     		movs	r2, #255
 2543              		.loc 1 1709 0
 2544 0020 9860     		str	r0, [r3, #8]
 2545              		.loc 1 1712 0
 2546 0022 5A62     		str	r2, [r3, #36]
 2547              		.loc 1 1713 0
 2548 0024 7047     		bx	lr
 2549              	.L244:
 2550 0026 00BF     		.align	2
 2551              	.L243:
 2552 0028 00280040 		.word	1073752064
ARM GAS  /var/folders/7z/kps_xzfj7sn5l5gkyq8s9db00000gn/T//cck5P0LB.s 			page 46


 2553              		.cfi_endproc
 2554              	.LFE139:
 2555              		.size	RTC_OutputConfig, .-RTC_OutputConfig
 2556 002c AFF30080 		.section	.text.RTC_CoarseCalibConfig,"ax",%progbits
 2557              		.align	2
 2558              		.p2align 4,,15
 2559              		.global	RTC_CoarseCalibConfig
 2560              		.thumb
 2561              		.thumb_func
 2562              		.type	RTC_CoarseCalibConfig, %function
 2563              	RTC_CoarseCalibConfig:
 2564              	.LFB140:
 2565              		.loc 1 1750 0
 2566              		.cfi_startproc
 2567              		@ args = 0, pretend = 0, frame = 0
 2568              		@ frame_needed = 0, uses_anonymous_args = 0
 2569              	.LVL209:
 2570 0000 70B5     		push	{r4, r5, r6, lr}
 2571              		.cfi_def_cfa_offset 16
 2572              		.cfi_offset 4, -16
 2573              		.cfi_offset 5, -12
 2574              		.cfi_offset 6, -8
 2575              		.cfi_offset 14, -4
 2576              		.loc 1 1758 0
 2577 0002 0A4C     		ldr	r4, .L249
 2578 0004 CA22     		movs	r2, #202
 2579              		.loc 1 1759 0
 2580 0006 5323     		movs	r3, #83
 2581              		.loc 1 1758 0
 2582 0008 6262     		str	r2, [r4, #36]
 2583              		.loc 1 1759 0
 2584 000a 6362     		str	r3, [r4, #36]
 2585              		.loc 1 1750 0
 2586 000c 0646     		mov	r6, r0
 2587 000e 0D46     		mov	r5, r1
 2588              		.loc 1 1762 0
 2589 0010 FFF7FEFF 		bl	RTC_EnterInitMode
 2590              	.LVL210:
 2591 0014 30B1     		cbz	r0, .L246
 2592              		.loc 1 1769 0
 2593 0016 3543     		orrs	r5, r5, r6
 2594              	.LVL211:
 2595 0018 A561     		str	r5, [r4, #24]
 2596              	.LBB198:
 2597              	.LBB199:
 2598              		.loc 1 598 0
 2599 001a E368     		ldr	r3, [r4, #12]
 2600 001c 23F08003 		bic	r3, r3, #128
 2601 0020 E360     		str	r3, [r4, #12]
 2602              	.LVL212:
 2603              	.LBE199:
 2604              	.LBE198:
 2605              		.loc 1 1773 0
 2606 0022 0120     		movs	r0, #1
 2607              	.LVL213:
 2608              	.L246:
 2609              		.loc 1 1777 0
ARM GAS  /var/folders/7z/kps_xzfj7sn5l5gkyq8s9db00000gn/T//cck5P0LB.s 			page 47


 2610 0024 014B     		ldr	r3, .L249
 2611 0026 FF22     		movs	r2, #255
 2612 0028 5A62     		str	r2, [r3, #36]
 2613              		.loc 1 1780 0
 2614 002a 70BD     		pop	{r4, r5, r6, pc}
 2615              	.LVL214:
 2616              	.L250:
 2617              		.align	2
 2618              	.L249:
 2619 002c 00280040 		.word	1073752064
 2620              		.cfi_endproc
 2621              	.LFE140:
 2622              		.size	RTC_CoarseCalibConfig, .-RTC_CoarseCalibConfig
 2623              		.section	.text.RTC_CoarseCalibCmd,"ax",%progbits
 2624              		.align	2
 2625              		.p2align 4,,15
 2626              		.global	RTC_CoarseCalibCmd
 2627              		.thumb
 2628              		.thumb_func
 2629              		.type	RTC_CoarseCalibCmd, %function
 2630              	RTC_CoarseCalibCmd:
 2631              	.LFB141:
 2632              		.loc 1 1791 0
 2633              		.cfi_startproc
 2634              		@ args = 0, pretend = 0, frame = 0
 2635              		@ frame_needed = 0, uses_anonymous_args = 0
 2636              	.LVL215:
 2637 0000 38B5     		push	{r3, r4, r5, lr}
 2638              		.cfi_def_cfa_offset 16
 2639              		.cfi_offset 3, -16
 2640              		.cfi_offset 4, -12
 2641              		.cfi_offset 5, -8
 2642              		.cfi_offset 14, -4
 2643              		.loc 1 1798 0
 2644 0002 0E4C     		ldr	r4, .L258
 2645 0004 CA22     		movs	r2, #202
 2646              		.loc 1 1799 0
 2647 0006 5323     		movs	r3, #83
 2648              		.loc 1 1798 0
 2649 0008 6262     		str	r2, [r4, #36]
 2650              		.loc 1 1799 0
 2651 000a 6362     		str	r3, [r4, #36]
 2652              		.loc 1 1791 0
 2653 000c 0546     		mov	r5, r0
 2654              		.loc 1 1802 0
 2655 000e FFF7FEFF 		bl	RTC_EnterInitMode
 2656              	.LVL216:
 2657 0012 50B1     		cbz	r0, .L252
 2658              		.loc 1 1811 0
 2659 0014 A368     		ldr	r3, [r4, #8]
 2660              		.loc 1 1808 0
 2661 0016 65B9     		cbnz	r5, .L257
 2662              		.loc 1 1816 0
 2663 0018 23F08003 		bic	r3, r3, #128
 2664 001c A360     		str	r3, [r4, #8]
 2665              	.L254:
 2666              	.LBB200:
ARM GAS  /var/folders/7z/kps_xzfj7sn5l5gkyq8s9db00000gn/T//cck5P0LB.s 			page 48


 2667              	.LBB201:
 2668              		.loc 1 598 0
 2669 001e 074A     		ldr	r2, .L258
 2670 0020 D368     		ldr	r3, [r2, #12]
 2671 0022 23F08003 		bic	r3, r3, #128
 2672 0026 D360     		str	r3, [r2, #12]
 2673              	.LVL217:
 2674              	.LBE201:
 2675              	.LBE200:
 2676              		.loc 1 1821 0
 2677 0028 0120     		movs	r0, #1
 2678              	.LVL218:
 2679              	.L252:
 2680              		.loc 1 1825 0
 2681 002a 044B     		ldr	r3, .L258
 2682 002c FF22     		movs	r2, #255
 2683 002e 5A62     		str	r2, [r3, #36]
 2684              		.loc 1 1828 0
 2685 0030 38BD     		pop	{r3, r4, r5, pc}
 2686              	.LVL219:
 2687              	.L257:
 2688              		.loc 1 1811 0
 2689 0032 43F08003 		orr	r3, r3, #128
 2690 0036 A360     		str	r3, [r4, #8]
 2691 0038 F1E7     		b	.L254
 2692              	.L259:
 2693 003a 00BF     		.align	2
 2694              	.L258:
 2695 003c 00280040 		.word	1073752064
 2696              		.cfi_endproc
 2697              	.LFE141:
 2698              		.size	RTC_CoarseCalibCmd, .-RTC_CoarseCalibCmd
 2699              		.section	.text.RTC_CalibOutputCmd,"ax",%progbits
 2700              		.align	2
 2701              		.p2align 4,,15
 2702              		.global	RTC_CalibOutputCmd
 2703              		.thumb
 2704              		.thumb_func
 2705              		.type	RTC_CalibOutputCmd, %function
 2706              	RTC_CalibOutputCmd:
 2707              	.LFB142:
 2708              		.loc 1 1837 0
 2709              		.cfi_startproc
 2710              		@ args = 0, pretend = 0, frame = 0
 2711              		@ frame_needed = 0, uses_anonymous_args = 0
 2712              		@ link register save eliminated.
 2713              	.LVL220:
 2714              		.loc 1 1842 0
 2715 0000 0A4B     		ldr	r3, .L264
 2716              		.loc 1 1843 0
 2717 0002 5322     		movs	r2, #83
 2718              		.loc 1 1842 0
 2719 0004 CA21     		movs	r1, #202
 2720 0006 5962     		str	r1, [r3, #36]
 2721              		.loc 1 1843 0
 2722 0008 5A62     		str	r2, [r3, #36]
 2723              		.loc 1 1848 0
ARM GAS  /var/folders/7z/kps_xzfj7sn5l5gkyq8s9db00000gn/T//cck5P0LB.s 			page 49


 2724 000a 9A68     		ldr	r2, [r3, #8]
 2725              		.loc 1 1845 0
 2726 000c 30B9     		cbnz	r0, .L263
 2727              		.loc 1 1853 0
 2728 000e 22F40002 		bic	r2, r2, #8388608
 2729 0012 9A60     		str	r2, [r3, #8]
 2730              		.loc 1 1857 0
 2731 0014 054B     		ldr	r3, .L264
 2732 0016 FF22     		movs	r2, #255
 2733 0018 5A62     		str	r2, [r3, #36]
 2734 001a 7047     		bx	lr
 2735              	.L263:
 2736              		.loc 1 1848 0
 2737 001c 42F40002 		orr	r2, r2, #8388608
 2738 0020 9A60     		str	r2, [r3, #8]
 2739              		.loc 1 1857 0
 2740 0022 024B     		ldr	r3, .L264
 2741 0024 FF22     		movs	r2, #255
 2742 0026 5A62     		str	r2, [r3, #36]
 2743 0028 7047     		bx	lr
 2744              	.L265:
 2745 002a 00BF     		.align	2
 2746              	.L264:
 2747 002c 00280040 		.word	1073752064
 2748              		.cfi_endproc
 2749              	.LFE142:
 2750              		.size	RTC_CalibOutputCmd, .-RTC_CalibOutputCmd
 2751              		.section	.text.RTC_CalibOutputConfig,"ax",%progbits
 2752              		.align	2
 2753              		.p2align 4,,15
 2754              		.global	RTC_CalibOutputConfig
 2755              		.thumb
 2756              		.thumb_func
 2757              		.type	RTC_CalibOutputConfig, %function
 2758              	RTC_CalibOutputConfig:
 2759              	.LFB143:
 2760              		.loc 1 1869 0
 2761              		.cfi_startproc
 2762              		@ args = 0, pretend = 0, frame = 0
 2763              		@ frame_needed = 0, uses_anonymous_args = 0
 2764              		@ link register save eliminated.
 2765              	.LVL221:
 2766              		.loc 1 1874 0
 2767 0000 074B     		ldr	r3, .L267
 2768 0002 CA21     		movs	r1, #202
 2769              		.loc 1 1875 0
 2770 0004 5322     		movs	r2, #83
 2771              		.loc 1 1874 0
 2772 0006 5962     		str	r1, [r3, #36]
 2773              		.loc 1 1875 0
 2774 0008 5A62     		str	r2, [r3, #36]
 2775              		.loc 1 1878 0
 2776 000a 9A68     		ldr	r2, [r3, #8]
 2777 000c 22F40022 		bic	r2, r2, #524288
 2778 0010 9A60     		str	r2, [r3, #8]
 2779              		.loc 1 1881 0
 2780 0012 9A68     		ldr	r2, [r3, #8]
ARM GAS  /var/folders/7z/kps_xzfj7sn5l5gkyq8s9db00000gn/T//cck5P0LB.s 			page 50


 2781              		.loc 1 1884 0
 2782 0014 FF21     		movs	r1, #255
 2783              		.loc 1 1881 0
 2784 0016 1043     		orrs	r0, r0, r2
 2785              	.LVL222:
 2786 0018 9860     		str	r0, [r3, #8]
 2787              		.loc 1 1884 0
 2788 001a 5962     		str	r1, [r3, #36]
 2789 001c 7047     		bx	lr
 2790              	.L268:
 2791 001e 00BF     		.align	2
 2792              	.L267:
 2793 0020 00280040 		.word	1073752064
 2794              		.cfi_endproc
 2795              	.LFE143:
 2796              		.size	RTC_CalibOutputConfig, .-RTC_CalibOutputConfig
 2797 0024 AFF30080 		.section	.text.RTC_SmoothCalibConfig,"ax",%progbits
 2797      AFF30080 
 2797      AFF30080 
 2798              		.align	2
 2799              		.p2align 4,,15
 2800              		.global	RTC_SmoothCalibConfig
 2801              		.thumb
 2802              		.thumb_func
 2803              		.type	RTC_SmoothCalibConfig, %function
 2804              	RTC_SmoothCalibConfig:
 2805              	.LFB144:
 2806              		.loc 1 1907 0
 2807              		.cfi_startproc
 2808              		@ args = 0, pretend = 0, frame = 0
 2809              		@ frame_needed = 0, uses_anonymous_args = 0
 2810              		@ link register save eliminated.
 2811              	.LVL223:
 2812 0000 30B4     		push	{r4, r5}
 2813              		.cfi_def_cfa_offset 8
 2814              		.cfi_offset 4, -8
 2815              		.cfi_offset 5, -4
 2816              		.loc 1 1917 0
 2817 0002 114D     		ldr	r5, .L286
 2818 0004 CA24     		movs	r4, #202
 2819              		.loc 1 1918 0
 2820 0006 5323     		movs	r3, #83
 2821              		.loc 1 1917 0
 2822 0008 6C62     		str	r4, [r5, #36]
 2823              		.loc 1 1918 0
 2824 000a 6B62     		str	r3, [r5, #36]
 2825              		.loc 1 1921 0
 2826 000c EB68     		ldr	r3, [r5, #12]
 2827 000e DC03     		lsls	r4, r3, #15
 2828 0010 0AD5     		bpl	.L270
 2829              		.loc 1 1924 0
 2830 0012 EB68     		ldr	r3, [r5, #12]
 2831 0014 DB03     		lsls	r3, r3, #15
 2832 0016 07D5     		bpl	.L270
 2833 0018 4FF40033 		mov	r3, #131072
 2834 001c 01E0     		b	.L271
 2835              	.LVL224:
ARM GAS  /var/folders/7z/kps_xzfj7sn5l5gkyq8s9db00000gn/T//cck5P0LB.s 			page 51


 2836              	.L285:
 2837              		.loc 1 1924 0 is_stmt 0 discriminator 1
 2838 001e 013B     		subs	r3, r3, #1
 2839              	.LVL225:
 2840 0020 02D0     		beq	.L270
 2841              	.LVL226:
 2842              	.L271:
 2843              		.loc 1 1924 0
 2844 0022 EC68     		ldr	r4, [r5, #12]
 2845 0024 E403     		lsls	r4, r4, #15
 2846 0026 FAD4     		bmi	.L285
 2847              	.LVL227:
 2848              	.L270:
 2849              		.loc 1 1931 0 is_stmt 1
 2850 0028 074B     		ldr	r3, .L286
 2851 002a DC68     		ldr	r4, [r3, #12]
 2852 002c E403     		lsls	r4, r4, #15
 2853 002e 08D4     		bmi	.L273
 2854 0030 0A43     		orrs	r2, r2, r1
 2855              	.LVL228:
 2856              		.loc 1 1934 0
 2857 0032 1043     		orrs	r0, r0, r2
 2858              	.LVL229:
 2859 0034 D863     		str	r0, [r3, #60]
 2860              	.LVL230:
 2861              		.loc 1 1936 0
 2862 0036 0120     		movs	r0, #1
 2863              	.LVL231:
 2864              	.L272:
 2865              		.loc 1 1944 0
 2866 0038 034B     		ldr	r3, .L286
 2867 003a FF22     		movs	r2, #255
 2868 003c 5A62     		str	r2, [r3, #36]
 2869              		.loc 1 1947 0
 2870 003e 30BC     		pop	{r4, r5}
 2871              		.cfi_remember_state
 2872              		.cfi_restore 5
 2873              		.cfi_restore 4
 2874              		.cfi_def_cfa_offset 0
 2875 0040 7047     		bx	lr
 2876              	.LVL232:
 2877              	.L273:
 2878              		.cfi_restore_state
 2879              		.loc 1 1940 0
 2880 0042 0020     		movs	r0, #0
 2881              	.LVL233:
 2882 0044 F8E7     		b	.L272
 2883              	.L287:
 2884 0046 00BF     		.align	2
 2885              	.L286:
 2886 0048 00280040 		.word	1073752064
 2887              		.cfi_endproc
 2888              	.LFE144:
 2889              		.size	RTC_SmoothCalibConfig, .-RTC_SmoothCalibConfig
 2890 004c AFF30080 		.section	.text.RTC_TimeStampCmd,"ax",%progbits
 2891              		.align	2
 2892              		.p2align 4,,15
ARM GAS  /var/folders/7z/kps_xzfj7sn5l5gkyq8s9db00000gn/T//cck5P0LB.s 			page 52


 2893              		.global	RTC_TimeStampCmd
 2894              		.thumb
 2895              		.thumb_func
 2896              		.type	RTC_TimeStampCmd, %function
 2897              	RTC_TimeStampCmd:
 2898              	.LFB145:
 2899              		.loc 1 1981 0
 2900              		.cfi_startproc
 2901              		@ args = 0, pretend = 0, frame = 0
 2902              		@ frame_needed = 0, uses_anonymous_args = 0
 2903              		@ link register save eliminated.
 2904              	.LVL234:
 2905              		.loc 1 1989 0
 2906 0000 0B4B     		ldr	r3, .L293
 2907 0002 9B68     		ldr	r3, [r3, #8]
 2908 0004 23F40063 		bic	r3, r3, #2048
 2909              		.loc 1 1981 0
 2910 0008 10B4     		push	{r4}
 2911              		.cfi_def_cfa_offset 4
 2912              		.cfi_offset 4, -4
 2913              		.loc 1 1989 0
 2914 000a 23F00803 		bic	r3, r3, #8
 2915              	.LVL235:
 2916              		.loc 1 1992 0
 2917 000e 59B9     		cbnz	r1, .L292
 2918              		.loc 1 1998 0
 2919 0010 0343     		orrs	r3, r3, r0
 2920              	.LVL236:
 2921              	.L290:
 2922              		.loc 1 2002 0
 2923 0012 074A     		ldr	r2, .L293
 2924 0014 CA24     		movs	r4, #202
 2925              		.loc 1 2003 0
 2926 0016 5320     		movs	r0, #83
 2927              	.LVL237:
 2928              		.loc 1 2009 0
 2929 0018 FF21     		movs	r1, #255
 2930              	.LVL238:
 2931              		.loc 1 2002 0
 2932 001a 5462     		str	r4, [r2, #36]
 2933              		.loc 1 2003 0
 2934 001c 5062     		str	r0, [r2, #36]
 2935              		.loc 1 2010 0
 2936 001e 5DF8044B 		ldr	r4, [sp], #4
 2937              		.cfi_remember_state
 2938              		.cfi_restore 4
 2939              		.cfi_def_cfa_offset 0
 2940              		.loc 1 2006 0
 2941 0022 9360     		str	r3, [r2, #8]
 2942              		.loc 1 2009 0
 2943 0024 5162     		str	r1, [r2, #36]
 2944              		.loc 1 2010 0
 2945 0026 7047     		bx	lr
 2946              	.LVL239:
 2947              	.L292:
 2948              		.cfi_restore_state
 2949 0028 43F40063 		orr	r3, r3, #2048
ARM GAS  /var/folders/7z/kps_xzfj7sn5l5gkyq8s9db00000gn/T//cck5P0LB.s 			page 53


 2950              	.LVL240:
 2951              		.loc 1 1994 0
 2952 002c 0343     		orrs	r3, r3, r0
 2953              	.LVL241:
 2954 002e F0E7     		b	.L290
 2955              	.L294:
 2956              		.align	2
 2957              	.L293:
 2958 0030 00280040 		.word	1073752064
 2959              		.cfi_endproc
 2960              	.LFE145:
 2961              		.size	RTC_TimeStampCmd, .-RTC_TimeStampCmd
 2962 0034 AFF30080 		.section	.text.RTC_GetTimeStamp,"ax",%progbits
 2962      AFF30080 
 2962      AFF30080 
 2963              		.align	2
 2964              		.p2align 4,,15
 2965              		.global	RTC_GetTimeStamp
 2966              		.thumb
 2967              		.thumb_func
 2968              		.type	RTC_GetTimeStamp, %function
 2969              	RTC_GetTimeStamp:
 2970              	.LFB146:
 2971              		.loc 1 2026 0
 2972              		.cfi_startproc
 2973              		@ args = 0, pretend = 0, frame = 0
 2974              		@ frame_needed = 0, uses_anonymous_args = 0
 2975              	.LVL242:
 2976 0000 2DE9F041 		push	{r4, r5, r6, r7, r8, lr}
 2977              		.cfi_def_cfa_offset 24
 2978              		.cfi_offset 4, -24
 2979              		.cfi_offset 5, -20
 2980              		.cfi_offset 6, -16
 2981              		.cfi_offset 7, -12
 2982              		.cfi_offset 8, -8
 2983              		.cfi_offset 14, -4
 2984              		.loc 1 2033 0
 2985 0004 2B4C     		ldr	r4, .L298
 2986 0006 236B     		ldr	r3, [r4, #48]
 2987              	.LVL243:
 2988              		.loc 1 2034 0
 2989 0008 646B     		ldr	r4, [r4, #52]
 2990              	.LVL244:
 2991              		.loc 1 2040 0
 2992 000a 03F48005 		and	r5, r3, #4194304
 2993              		.loc 1 2037 0
 2994 000e C3F30548 		ubfx	r8, r3, #16, #6
 2995              		.loc 1 2038 0
 2996 0012 C3F3062C 		ubfx	ip, r3, #8, #7
 2997              		.loc 1 2044 0
 2998 0016 C4F30427 		ubfx	r7, r4, #8, #5
 2999              		.loc 1 2045 0
 3000 001a 04F03F06 		and	r6, r4, #63
 3001              		.loc 1 2039 0
 3002 001e 03F07F03 		and	r3, r3, #127
 3003              	.LVL245:
 3004              		.loc 1 2040 0
ARM GAS  /var/folders/7z/kps_xzfj7sn5l5gkyq8s9db00000gn/T//cck5P0LB.s 			page 54


 3005 0022 2D0C     		lsrs	r5, r5, #16
 3006              		.loc 1 2043 0
 3007 0024 4FF0000E 		mov	lr, #0
 3008              		.loc 1 2046 0
 3009 0028 C4F34234 		ubfx	r4, r4, #13, #3
 3010              	.LVL246:
 3011              		.loc 1 2037 0
 3012 002c 81F80080 		strb	r8, [r1]
 3013              		.loc 1 2038 0
 3014 0030 81F801C0 		strb	ip, [r1, #1]
 3015              		.loc 1 2039 0
 3016 0034 8B70     		strb	r3, [r1, #2]
 3017              		.loc 1 2040 0
 3018 0036 CD70     		strb	r5, [r1, #3]
 3019              		.loc 1 2043 0
 3020 0038 82F803E0 		strb	lr, [r2, #3]
 3021              		.loc 1 2044 0
 3022 003c 5770     		strb	r7, [r2, #1]
 3023              		.loc 1 2045 0
 3024 003e 9670     		strb	r6, [r2, #2]
 3025              		.loc 1 2046 0
 3026 0040 1470     		strb	r4, [r2]
 3027              		.loc 1 2049 0
 3028 0042 A8BB     		cbnz	r0, .L295
 3029              		.loc 1 2052 0
 3030 0044 0C78     		ldrb	r4, [r1]	@ zero_extendqisi2
 3031              	.LVL247:
 3032              		.loc 1 2053 0
 3033 0046 4878     		ldrb	r0, [r1, #1]	@ zero_extendqisi2
 3034              	.LVL248:
 3035              		.loc 1 2054 0
 3036 0048 8B78     		ldrb	r3, [r1, #2]	@ zero_extendqisi2
 3037              	.LVL249:
 3038              	.LBB202:
 3039              	.LBB203:
 3040              		.loc 1 2743 0
 3041 004a 2709     		lsrs	r7, r4, #4
 3042              	.LBE203:
 3043              	.LBE202:
 3044              	.LBB206:
 3045              	.LBB207:
 3046 004c 0609     		lsrs	r6, r0, #4
 3047              	.LBE207:
 3048              	.LBE206:
 3049              	.LBB211:
 3050              	.LBB212:
 3051 004e 1D09     		lsrs	r5, r3, #4
 3052              	.LBE212:
 3053              	.LBE211:
 3054              	.LBB216:
 3055              	.LBB208:
 3056 0050 06EB8606 		add	r6, r6, r6, lsl #2
 3057              	.LBE208:
 3058              	.LBE216:
 3059              	.LBB217:
 3060              	.LBB213:
 3061 0054 05EB8505 		add	r5, r5, r5, lsl #2
ARM GAS  /var/folders/7z/kps_xzfj7sn5l5gkyq8s9db00000gn/T//cck5P0LB.s 			page 55


 3062              	.LBE213:
 3063              	.LBE217:
 3064              	.LBB218:
 3065              	.LBB204:
 3066 0058 07EB8707 		add	r7, r7, r7, lsl #2
 3067              		.loc 1 2744 0
 3068 005c 04F00F04 		and	r4, r4, #15
 3069              	.LVL250:
 3070              	.LBE204:
 3071              	.LBE218:
 3072              	.LBB219:
 3073              	.LBB209:
 3074 0060 00F00F00 		and	r0, r0, #15
 3075              	.LVL251:
 3076              	.LBE209:
 3077              	.LBE219:
 3078              	.LBB220:
 3079              	.LBB214:
 3080 0064 03F00F03 		and	r3, r3, #15
 3081              	.LVL252:
 3082              	.LBE214:
 3083              	.LBE220:
 3084              	.LBB221:
 3085              	.LBB210:
 3086 0068 00EB4600 		add	r0, r0, r6, lsl #1
 3087              	.LBE210:
 3088              	.LBE221:
 3089              	.LBB222:
 3090              	.LBB215:
 3091 006c 03EB4503 		add	r3, r3, r5, lsl #1
 3092              	.LBE215:
 3093              	.LBE222:
 3094              	.LBB223:
 3095              	.LBB205:
 3096 0070 04EB4704 		add	r4, r4, r7, lsl #1
 3097              	.LBE205:
 3098              	.LBE223:
 3099              		.loc 1 2052 0
 3100 0074 0C70     		strb	r4, [r1]
 3101              	.LVL253:
 3102              		.loc 1 2053 0
 3103 0076 4870     		strb	r0, [r1, #1]
 3104              	.LVL254:
 3105              		.loc 1 2054 0
 3106 0078 8B70     		strb	r3, [r1, #2]
 3107              	.LVL255:
 3108              		.loc 1 2057 0
 3109 007a 5078     		ldrb	r0, [r2, #1]	@ zero_extendqisi2
 3110              	.LVL256:
 3111              		.loc 1 2058 0
 3112 007c 9178     		ldrb	r1, [r2, #2]	@ zero_extendqisi2
 3113              	.LVL257:
 3114              		.loc 1 2059 0
 3115 007e 1378     		ldrb	r3, [r2]	@ zero_extendqisi2
 3116              	.LVL258:
 3117              	.LBB224:
 3118              	.LBB225:
ARM GAS  /var/folders/7z/kps_xzfj7sn5l5gkyq8s9db00000gn/T//cck5P0LB.s 			page 56


 3119              		.loc 1 2743 0
 3120 0080 0609     		lsrs	r6, r0, #4
 3121              	.LBE225:
 3122              	.LBE224:
 3123              	.LBB228:
 3124              	.LBB229:
 3125 0082 0D09     		lsrs	r5, r1, #4
 3126              	.LBE229:
 3127              	.LBE228:
 3128              	.LBB232:
 3129              	.LBB233:
 3130 0084 1C09     		lsrs	r4, r3, #4
 3131              	.LBE233:
 3132              	.LBE232:
 3133              	.LBB236:
 3134              	.LBB226:
 3135 0086 06EB8606 		add	r6, r6, r6, lsl #2
 3136              		.loc 1 2744 0
 3137 008a 00F00F00 		and	r0, r0, #15
 3138              	.LVL259:
 3139              	.LBE226:
 3140              	.LBE236:
 3141              	.LBB237:
 3142              	.LBB230:
 3143              		.loc 1 2743 0
 3144 008e 05EB8505 		add	r5, r5, r5, lsl #2
 3145              		.loc 1 2744 0
 3146 0092 01F00F01 		and	r1, r1, #15
 3147              	.LVL260:
 3148              	.LBE230:
 3149              	.LBE237:
 3150              	.LBB238:
 3151              	.LBB234:
 3152              		.loc 1 2743 0
 3153 0096 04EB8404 		add	r4, r4, r4, lsl #2
 3154              		.loc 1 2744 0
 3155 009a 03F00F03 		and	r3, r3, #15
 3156              	.LVL261:
 3157              	.LBE234:
 3158              	.LBE238:
 3159              	.LBB239:
 3160              	.LBB227:
 3161 009e 00EB4600 		add	r0, r0, r6, lsl #1
 3162              	.LBE227:
 3163              	.LBE239:
 3164              	.LBB240:
 3165              	.LBB231:
 3166 00a2 01EB4501 		add	r1, r1, r5, lsl #1
 3167              	.LBE231:
 3168              	.LBE240:
 3169              	.LBB241:
 3170              	.LBB235:
 3171 00a6 03EB4403 		add	r3, r3, r4, lsl #1
 3172              	.LBE235:
 3173              	.LBE241:
 3174              		.loc 1 2057 0
 3175 00aa 5070     		strb	r0, [r2, #1]
ARM GAS  /var/folders/7z/kps_xzfj7sn5l5gkyq8s9db00000gn/T//cck5P0LB.s 			page 57


 3176              	.LVL262:
 3177              		.loc 1 2058 0
 3178 00ac 9170     		strb	r1, [r2, #2]
 3179              	.LVL263:
 3180              		.loc 1 2059 0
 3181 00ae 1370     		strb	r3, [r2]
 3182              	.LVL264:
 3183              	.L295:
 3184 00b0 BDE8F081 		pop	{r4, r5, r6, r7, r8, pc}
 3185              	.L299:
 3186              		.align	2
 3187              	.L298:
 3188 00b4 00280040 		.word	1073752064
 3189              		.cfi_endproc
 3190              	.LFE146:
 3191              		.size	RTC_GetTimeStamp, .-RTC_GetTimeStamp
 3192 00b8 AFF30080 		.section	.text.RTC_GetTimeStampSubSecond,"ax",%progbits
 3192      AFF30080 
 3193              		.align	2
 3194              		.p2align 4,,15
 3195              		.global	RTC_GetTimeStampSubSecond
 3196              		.thumb
 3197              		.thumb_func
 3198              		.type	RTC_GetTimeStampSubSecond, %function
 3199              	RTC_GetTimeStampSubSecond:
 3200              	.LFB147:
 3201              		.loc 1 2069 0
 3202              		.cfi_startproc
 3203              		@ args = 0, pretend = 0, frame = 0
 3204              		@ frame_needed = 0, uses_anonymous_args = 0
 3205              		@ link register save eliminated.
 3206              		.loc 1 2071 0
 3207 0000 014B     		ldr	r3, .L301
 3208 0002 986B     		ldr	r0, [r3, #56]
 3209              		.loc 1 2072 0
 3210 0004 7047     		bx	lr
 3211              	.L302:
 3212 0006 00BF     		.align	2
 3213              	.L301:
 3214 0008 00280040 		.word	1073752064
 3215              		.cfi_endproc
 3216              	.LFE147:
 3217              		.size	RTC_GetTimeStampSubSecond, .-RTC_GetTimeStampSubSecond
 3218 000c AFF30080 		.section	.text.RTC_TamperTriggerConfig,"ax",%progbits
 3219              		.align	2
 3220              		.p2align 4,,15
 3221              		.global	RTC_TamperTriggerConfig
 3222              		.thumb
 3223              		.thumb_func
 3224              		.type	RTC_TamperTriggerConfig, %function
 3225              	RTC_TamperTriggerConfig:
 3226              	.LFB148:
 3227              		.loc 1 2104 0
 3228              		.cfi_startproc
 3229              		@ args = 0, pretend = 0, frame = 0
 3230              		@ frame_needed = 0, uses_anonymous_args = 0
 3231              		@ link register save eliminated.
ARM GAS  /var/folders/7z/kps_xzfj7sn5l5gkyq8s9db00000gn/T//cck5P0LB.s 			page 58


 3232              	.LVL265:
 3233              		.loc 1 2112 0
 3234 0000 054A     		ldr	r2, .L307
 3235 0002 136C     		ldr	r3, [r2, #64]
 3236              		.loc 1 2109 0
 3237 0004 19B1     		cbz	r1, .L306
 3238              		.loc 1 2117 0
 3239 0006 43EA4000 		orr	r0, r3, r0, lsl #1
 3240              	.LVL266:
 3241 000a 1064     		str	r0, [r2, #64]
 3242 000c 7047     		bx	lr
 3243              	.LVL267:
 3244              	.L306:
 3245              		.loc 1 2112 0
 3246 000e 23EA4000 		bic	r0, r3, r0, lsl #1
 3247              	.LVL268:
 3248 0012 1064     		str	r0, [r2, #64]
 3249 0014 7047     		bx	lr
 3250              	.L308:
 3251 0016 00BF     		.align	2
 3252              	.L307:
 3253 0018 00280040 		.word	1073752064
 3254              		.cfi_endproc
 3255              	.LFE148:
 3256              		.size	RTC_TamperTriggerConfig, .-RTC_TamperTriggerConfig
 3257 001c AFF30080 		.section	.text.RTC_TamperCmd,"ax",%progbits
 3258              		.align	2
 3259              		.p2align 4,,15
 3260              		.global	RTC_TamperCmd
 3261              		.thumb
 3262              		.thumb_func
 3263              		.type	RTC_TamperCmd, %function
 3264              	RTC_TamperCmd:
 3265              	.LFB149:
 3266              		.loc 1 2130 0
 3267              		.cfi_startproc
 3268              		@ args = 0, pretend = 0, frame = 0
 3269              		@ frame_needed = 0, uses_anonymous_args = 0
 3270              		@ link register save eliminated.
 3271              	.LVL269:
 3272              		.loc 1 2138 0
 3273 0000 044A     		ldr	r2, .L313
 3274 0002 136C     		ldr	r3, [r2, #64]
 3275              		.loc 1 2135 0
 3276 0004 19B9     		cbnz	r1, .L312
 3277              		.loc 1 2143 0
 3278 0006 23EA0000 		bic	r0, r3, r0
 3279              	.LVL270:
 3280 000a 1064     		str	r0, [r2, #64]
 3281 000c 7047     		bx	lr
 3282              	.LVL271:
 3283              	.L312:
 3284              		.loc 1 2138 0
 3285 000e 1843     		orrs	r0, r0, r3
 3286              	.LVL272:
 3287 0010 1064     		str	r0, [r2, #64]
 3288 0012 7047     		bx	lr
ARM GAS  /var/folders/7z/kps_xzfj7sn5l5gkyq8s9db00000gn/T//cck5P0LB.s 			page 59


 3289              	.L314:
 3290              		.align	2
 3291              	.L313:
 3292 0014 00280040 		.word	1073752064
 3293              		.cfi_endproc
 3294              	.LFE149:
 3295              		.size	RTC_TamperCmd, .-RTC_TamperCmd
 3296 0018 AFF30080 		.section	.text.RTC_TamperFilterConfig,"ax",%progbits
 3296      AFF30080 
 3297              		.align	2
 3298              		.p2align 4,,15
 3299              		.global	RTC_TamperFilterConfig
 3300              		.thumb
 3301              		.thumb_func
 3302              		.type	RTC_TamperFilterConfig, %function
 3303              	RTC_TamperFilterConfig:
 3304              	.LFB150:
 3305              		.loc 1 2161 0
 3306              		.cfi_startproc
 3307              		@ args = 0, pretend = 0, frame = 0
 3308              		@ frame_needed = 0, uses_anonymous_args = 0
 3309              		@ link register save eliminated.
 3310              	.LVL273:
 3311              		.loc 1 2166 0
 3312 0000 044B     		ldr	r3, .L316
 3313 0002 1A6C     		ldr	r2, [r3, #64]
 3314 0004 22F4C052 		bic	r2, r2, #6144
 3315 0008 1A64     		str	r2, [r3, #64]
 3316              		.loc 1 2169 0
 3317 000a 1A6C     		ldr	r2, [r3, #64]
 3318 000c 1043     		orrs	r0, r0, r2
 3319              	.LVL274:
 3320 000e 1864     		str	r0, [r3, #64]
 3321 0010 7047     		bx	lr
 3322              	.L317:
 3323 0012 00BF     		.align	2
 3324              	.L316:
 3325 0014 00280040 		.word	1073752064
 3326              		.cfi_endproc
 3327              	.LFE150:
 3328              		.size	RTC_TamperFilterConfig, .-RTC_TamperFilterConfig
 3329 0018 AFF30080 		.section	.text.RTC_TamperSamplingFreqConfig,"ax",%progbits
 3329      AFF30080 
 3330              		.align	2
 3331              		.p2align 4,,15
 3332              		.global	RTC_TamperSamplingFreqConfig
 3333              		.thumb
 3334              		.thumb_func
 3335              		.type	RTC_TamperSamplingFreqConfig, %function
 3336              	RTC_TamperSamplingFreqConfig:
 3337              	.LFB151:
 3338              		.loc 1 2195 0
 3339              		.cfi_startproc
 3340              		@ args = 0, pretend = 0, frame = 0
 3341              		@ frame_needed = 0, uses_anonymous_args = 0
 3342              		@ link register save eliminated.
 3343              	.LVL275:
ARM GAS  /var/folders/7z/kps_xzfj7sn5l5gkyq8s9db00000gn/T//cck5P0LB.s 			page 60


 3344              		.loc 1 2200 0
 3345 0000 044B     		ldr	r3, .L319
 3346 0002 1A6C     		ldr	r2, [r3, #64]
 3347 0004 22F4E062 		bic	r2, r2, #1792
 3348 0008 1A64     		str	r2, [r3, #64]
 3349              		.loc 1 2203 0
 3350 000a 1A6C     		ldr	r2, [r3, #64]
 3351 000c 1043     		orrs	r0, r0, r2
 3352              	.LVL276:
 3353 000e 1864     		str	r0, [r3, #64]
 3354 0010 7047     		bx	lr
 3355              	.L320:
 3356 0012 00BF     		.align	2
 3357              	.L319:
 3358 0014 00280040 		.word	1073752064
 3359              		.cfi_endproc
 3360              	.LFE151:
 3361              		.size	RTC_TamperSamplingFreqConfig, .-RTC_TamperSamplingFreqConfig
 3362 0018 AFF30080 		.section	.text.RTC_TamperPinsPrechargeDuration,"ax",%progbits
 3362      AFF30080 
 3363              		.align	2
 3364              		.p2align 4,,15
 3365              		.global	RTC_TamperPinsPrechargeDuration
 3366              		.thumb
 3367              		.thumb_func
 3368              		.type	RTC_TamperPinsPrechargeDuration, %function
 3369              	RTC_TamperPinsPrechargeDuration:
 3370              	.LFB152:
 3371              		.loc 1 2218 0
 3372              		.cfi_startproc
 3373              		@ args = 0, pretend = 0, frame = 0
 3374              		@ frame_needed = 0, uses_anonymous_args = 0
 3375              		@ link register save eliminated.
 3376              	.LVL277:
 3377              		.loc 1 2223 0
 3378 0000 044B     		ldr	r3, .L322
 3379 0002 1A6C     		ldr	r2, [r3, #64]
 3380 0004 22F4C042 		bic	r2, r2, #24576
 3381 0008 1A64     		str	r2, [r3, #64]
 3382              		.loc 1 2226 0
 3383 000a 1A6C     		ldr	r2, [r3, #64]
 3384 000c 1043     		orrs	r0, r0, r2
 3385              	.LVL278:
 3386 000e 1864     		str	r0, [r3, #64]
 3387 0010 7047     		bx	lr
 3388              	.L323:
 3389 0012 00BF     		.align	2
 3390              	.L322:
 3391 0014 00280040 		.word	1073752064
 3392              		.cfi_endproc
 3393              	.LFE152:
 3394              		.size	RTC_TamperPinsPrechargeDuration, .-RTC_TamperPinsPrechargeDuration
 3395 0018 AFF30080 		.section	.text.RTC_TimeStampOnTamperDetectionCmd,"ax",%progbits
 3395      AFF30080 
 3396              		.align	2
 3397              		.p2align 4,,15
 3398              		.global	RTC_TimeStampOnTamperDetectionCmd
ARM GAS  /var/folders/7z/kps_xzfj7sn5l5gkyq8s9db00000gn/T//cck5P0LB.s 			page 61


 3399              		.thumb
 3400              		.thumb_func
 3401              		.type	RTC_TimeStampOnTamperDetectionCmd, %function
 3402              	RTC_TimeStampOnTamperDetectionCmd:
 3403              	.LFB153:
 3404              		.loc 1 2238 0
 3405              		.cfi_startproc
 3406              		@ args = 0, pretend = 0, frame = 0
 3407              		@ frame_needed = 0, uses_anonymous_args = 0
 3408              		@ link register save eliminated.
 3409              	.LVL279:
 3410              		.loc 1 2245 0
 3411 0000 054A     		ldr	r2, .L328
 3412 0002 136C     		ldr	r3, [r2, #64]
 3413              		.loc 1 2242 0
 3414 0004 18B9     		cbnz	r0, .L327
 3415              		.loc 1 2250 0
 3416 0006 23F08003 		bic	r3, r3, #128
 3417 000a 1364     		str	r3, [r2, #64]
 3418 000c 7047     		bx	lr
 3419              	.L327:
 3420              		.loc 1 2245 0
 3421 000e 43F08003 		orr	r3, r3, #128
 3422 0012 1364     		str	r3, [r2, #64]
 3423 0014 7047     		bx	lr
 3424              	.L329:
 3425 0016 00BF     		.align	2
 3426              	.L328:
 3427 0018 00280040 		.word	1073752064
 3428              		.cfi_endproc
 3429              	.LFE153:
 3430              		.size	RTC_TimeStampOnTamperDetectionCmd, .-RTC_TimeStampOnTamperDetectionCmd
 3431 001c AFF30080 		.section	.text.RTC_TamperPullUpCmd,"ax",%progbits
 3432              		.align	2
 3433              		.p2align 4,,15
 3434              		.global	RTC_TamperPullUpCmd
 3435              		.thumb
 3436              		.thumb_func
 3437              		.type	RTC_TamperPullUpCmd, %function
 3438              	RTC_TamperPullUpCmd:
 3439              	.LFB154:
 3440              		.loc 1 2261 0
 3441              		.cfi_startproc
 3442              		@ args = 0, pretend = 0, frame = 0
 3443              		@ frame_needed = 0, uses_anonymous_args = 0
 3444              		@ link register save eliminated.
 3445              	.LVL280:
 3446              		.loc 1 2268 0
 3447 0000 054A     		ldr	r2, .L334
 3448 0002 136C     		ldr	r3, [r2, #64]
 3449              		.loc 1 2265 0
 3450 0004 18B9     		cbnz	r0, .L333
 3451              		.loc 1 2273 0
 3452 0006 43F40043 		orr	r3, r3, #32768
 3453 000a 1364     		str	r3, [r2, #64]
 3454 000c 7047     		bx	lr
 3455              	.L333:
ARM GAS  /var/folders/7z/kps_xzfj7sn5l5gkyq8s9db00000gn/T//cck5P0LB.s 			page 62


 3456              		.loc 1 2268 0
 3457 000e 23F40043 		bic	r3, r3, #32768
 3458 0012 1364     		str	r3, [r2, #64]
 3459 0014 7047     		bx	lr
 3460              	.L335:
 3461 0016 00BF     		.align	2
 3462              	.L334:
 3463 0018 00280040 		.word	1073752064
 3464              		.cfi_endproc
 3465              	.LFE154:
 3466              		.size	RTC_TamperPullUpCmd, .-RTC_TamperPullUpCmd
 3467 001c AFF30080 		.section	.text.RTC_WriteBackupRegister,"ax",%progbits
 3468              		.align	2
 3469              		.p2align 4,,15
 3470              		.global	RTC_WriteBackupRegister
 3471              		.thumb
 3472              		.thumb_func
 3473              		.type	RTC_WriteBackupRegister, %function
 3474              	RTC_WriteBackupRegister:
 3475              	.LFB155:
 3476              		.loc 1 2302 0
 3477              		.cfi_startproc
 3478              		@ args = 0, pretend = 0, frame = 8
 3479              		@ frame_needed = 0, uses_anonymous_args = 0
 3480              		@ link register save eliminated.
 3481              	.LVL281:
 3482 0000 82B0     		sub	sp, sp, #8
 3483              		.cfi_def_cfa_offset 8
 3484              		.loc 1 2303 0
 3485 0002 0022     		movs	r2, #0
 3486              		.loc 1 2308 0
 3487 0004 054B     		ldr	r3, .L338
 3488              		.loc 1 2303 0
 3489 0006 0192     		str	r2, [sp, #4]
 3490              		.loc 1 2308 0
 3491 0008 0193     		str	r3, [sp, #4]
 3492              		.loc 1 2309 0
 3493 000a 019B     		ldr	r3, [sp, #4]
 3494 000c 03EB8000 		add	r0, r3, r0, lsl #2
 3495              	.LVL282:
 3496 0010 0190     		str	r0, [sp, #4]
 3497              		.loc 1 2312 0
 3498 0012 019B     		ldr	r3, [sp, #4]
 3499 0014 1960     		str	r1, [r3]
 3500              		.loc 1 2313 0
 3501 0016 02B0     		add	sp, sp, #8
 3502              		.cfi_def_cfa_offset 0
 3503              		@ sp needed
 3504 0018 7047     		bx	lr
 3505              	.L339:
 3506 001a 00BF     		.align	2
 3507              	.L338:
 3508 001c 50280040 		.word	1073752144
 3509              		.cfi_endproc
 3510              	.LFE155:
 3511              		.size	RTC_WriteBackupRegister, .-RTC_WriteBackupRegister
 3512              		.section	.text.RTC_ReadBackupRegister,"ax",%progbits
ARM GAS  /var/folders/7z/kps_xzfj7sn5l5gkyq8s9db00000gn/T//cck5P0LB.s 			page 63


 3513              		.align	2
 3514              		.p2align 4,,15
 3515              		.global	RTC_ReadBackupRegister
 3516              		.thumb
 3517              		.thumb_func
 3518              		.type	RTC_ReadBackupRegister, %function
 3519              	RTC_ReadBackupRegister:
 3520              	.LFB156:
 3521              		.loc 1 2323 0
 3522              		.cfi_startproc
 3523              		@ args = 0, pretend = 0, frame = 8
 3524              		@ frame_needed = 0, uses_anonymous_args = 0
 3525              		@ link register save eliminated.
 3526              	.LVL283:
 3527 0000 82B0     		sub	sp, sp, #8
 3528              		.cfi_def_cfa_offset 8
 3529              		.loc 1 2324 0
 3530 0002 0022     		movs	r2, #0
 3531              		.loc 1 2329 0
 3532 0004 054B     		ldr	r3, .L342
 3533              		.loc 1 2324 0
 3534 0006 0192     		str	r2, [sp, #4]
 3535              		.loc 1 2329 0
 3536 0008 0193     		str	r3, [sp, #4]
 3537              		.loc 1 2330 0
 3538 000a 019B     		ldr	r3, [sp, #4]
 3539 000c 03EB8000 		add	r0, r3, r0, lsl #2
 3540              	.LVL284:
 3541 0010 0190     		str	r0, [sp, #4]
 3542              		.loc 1 2333 0
 3543 0012 019B     		ldr	r3, [sp, #4]
 3544 0014 1868     		ldr	r0, [r3]
 3545              		.loc 1 2334 0
 3546 0016 02B0     		add	sp, sp, #8
 3547              		.cfi_def_cfa_offset 0
 3548              		@ sp needed
 3549 0018 7047     		bx	lr
 3550              	.L343:
 3551 001a 00BF     		.align	2
 3552              	.L342:
 3553 001c 50280040 		.word	1073752144
 3554              		.cfi_endproc
 3555              	.LFE156:
 3556              		.size	RTC_ReadBackupRegister, .-RTC_ReadBackupRegister
 3557              		.section	.text.RTC_TamperPinSelection,"ax",%progbits
 3558              		.align	2
 3559              		.p2align 4,,15
 3560              		.global	RTC_TamperPinSelection
 3561              		.thumb
 3562              		.thumb_func
 3563              		.type	RTC_TamperPinSelection, %function
 3564              	RTC_TamperPinSelection:
 3565              	.LFB157:
 3566              		.loc 1 2363 0
 3567              		.cfi_startproc
 3568              		@ args = 0, pretend = 0, frame = 0
 3569              		@ frame_needed = 0, uses_anonymous_args = 0
ARM GAS  /var/folders/7z/kps_xzfj7sn5l5gkyq8s9db00000gn/T//cck5P0LB.s 			page 64


 3570              		@ link register save eliminated.
 3571              	.LVL285:
 3572              		.loc 1 2367 0
 3573 0000 044B     		ldr	r3, .L345
 3574 0002 1A6C     		ldr	r2, [r3, #64]
 3575 0004 22F48032 		bic	r2, r2, #65536
 3576 0008 1A64     		str	r2, [r3, #64]
 3577              		.loc 1 2368 0
 3578 000a 1A6C     		ldr	r2, [r3, #64]
 3579 000c 1043     		orrs	r0, r0, r2
 3580              	.LVL286:
 3581 000e 1864     		str	r0, [r3, #64]
 3582 0010 7047     		bx	lr
 3583              	.L346:
 3584 0012 00BF     		.align	2
 3585              	.L345:
 3586 0014 00280040 		.word	1073752064
 3587              		.cfi_endproc
 3588              	.LFE157:
 3589              		.size	RTC_TamperPinSelection, .-RTC_TamperPinSelection
 3590 0018 AFF30080 		.section	.text.RTC_TimeStampPinSelection,"ax",%progbits
 3590      AFF30080 
 3591              		.align	2
 3592              		.p2align 4,,15
 3593              		.global	RTC_TimeStampPinSelection
 3594              		.thumb
 3595              		.thumb_func
 3596              		.type	RTC_TimeStampPinSelection, %function
 3597              	RTC_TimeStampPinSelection:
 3598              	.LFB158:
 3599              		.loc 1 2380 0
 3600              		.cfi_startproc
 3601              		@ args = 0, pretend = 0, frame = 0
 3602              		@ frame_needed = 0, uses_anonymous_args = 0
 3603              		@ link register save eliminated.
 3604              	.LVL287:
 3605              		.loc 1 2384 0
 3606 0000 044B     		ldr	r3, .L348
 3607 0002 1A6C     		ldr	r2, [r3, #64]
 3608 0004 22F40032 		bic	r2, r2, #131072
 3609 0008 1A64     		str	r2, [r3, #64]
 3610              		.loc 1 2385 0
 3611 000a 1A6C     		ldr	r2, [r3, #64]
 3612 000c 1043     		orrs	r0, r0, r2
 3613              	.LVL288:
 3614 000e 1864     		str	r0, [r3, #64]
 3615 0010 7047     		bx	lr
 3616              	.L349:
 3617 0012 00BF     		.align	2
 3618              	.L348:
 3619 0014 00280040 		.word	1073752064
 3620              		.cfi_endproc
 3621              	.LFE158:
 3622              		.size	RTC_TimeStampPinSelection, .-RTC_TimeStampPinSelection
 3623 0018 AFF30080 		.section	.text.RTC_OutputTypeConfig,"ax",%progbits
 3623      AFF30080 
 3624              		.align	2
ARM GAS  /var/folders/7z/kps_xzfj7sn5l5gkyq8s9db00000gn/T//cck5P0LB.s 			page 65


 3625              		.p2align 4,,15
 3626              		.global	RTC_OutputTypeConfig
 3627              		.thumb
 3628              		.thumb_func
 3629              		.type	RTC_OutputTypeConfig, %function
 3630              	RTC_OutputTypeConfig:
 3631              	.LFB159:
 3632              		.loc 1 2399 0
 3633              		.cfi_startproc
 3634              		@ args = 0, pretend = 0, frame = 0
 3635              		@ frame_needed = 0, uses_anonymous_args = 0
 3636              		@ link register save eliminated.
 3637              	.LVL289:
 3638              		.loc 1 2403 0
 3639 0000 044B     		ldr	r3, .L351
 3640 0002 1A6C     		ldr	r2, [r3, #64]
 3641 0004 22F48022 		bic	r2, r2, #262144
 3642 0008 1A64     		str	r2, [r3, #64]
 3643              		.loc 1 2404 0
 3644 000a 1A6C     		ldr	r2, [r3, #64]
 3645 000c 1043     		orrs	r0, r0, r2
 3646              	.LVL290:
 3647 000e 1864     		str	r0, [r3, #64]
 3648 0010 7047     		bx	lr
 3649              	.L352:
 3650 0012 00BF     		.align	2
 3651              	.L351:
 3652 0014 00280040 		.word	1073752064
 3653              		.cfi_endproc
 3654              	.LFE159:
 3655              		.size	RTC_OutputTypeConfig, .-RTC_OutputTypeConfig
 3656 0018 AFF30080 		.section	.text.RTC_SynchroShiftConfig,"ax",%progbits
 3656      AFF30080 
 3657              		.align	2
 3658              		.p2align 4,,15
 3659              		.global	RTC_SynchroShiftConfig
 3660              		.thumb
 3661              		.thumb_func
 3662              		.type	RTC_SynchroShiftConfig, %function
 3663              	RTC_SynchroShiftConfig:
 3664              	.LFB160:
 3665              		.loc 1 2437 0
 3666              		.cfi_startproc
 3667              		@ args = 0, pretend = 0, frame = 0
 3668              		@ frame_needed = 0, uses_anonymous_args = 0
 3669              	.LVL291:
 3670 0000 10B5     		push	{r4, lr}
 3671              		.cfi_def_cfa_offset 8
 3672              		.cfi_offset 4, -8
 3673              		.cfi_offset 14, -4
 3674              		.loc 1 2446 0
 3675 0002 184C     		ldr	r4, .L372
 3676 0004 CA22     		movs	r2, #202
 3677              		.loc 1 2447 0
 3678 0006 5323     		movs	r3, #83
 3679              		.loc 1 2446 0
 3680 0008 6262     		str	r2, [r4, #36]
ARM GAS  /var/folders/7z/kps_xzfj7sn5l5gkyq8s9db00000gn/T//cck5P0LB.s 			page 66


 3681              		.loc 1 2447 0
 3682 000a 6362     		str	r3, [r4, #36]
 3683              		.loc 1 2450 0
 3684 000c E368     		ldr	r3, [r4, #12]
 3685 000e 1A07     		lsls	r2, r3, #28
 3686 0010 0AD5     		bpl	.L354
 3687              		.loc 1 2453 0
 3688 0012 E368     		ldr	r3, [r4, #12]
 3689 0014 1B07     		lsls	r3, r3, #28
 3690 0016 07D5     		bpl	.L354
 3691 0018 4FF48053 		mov	r3, #4096
 3692 001c 01E0     		b	.L355
 3693              	.LVL292:
 3694              	.L370:
 3695              		.loc 1 2453 0 is_stmt 0 discriminator 1
 3696 001e 013B     		subs	r3, r3, #1
 3697              	.LVL293:
 3698 0020 02D0     		beq	.L354
 3699              	.LVL294:
 3700              	.L355:
 3701              		.loc 1 2453 0
 3702 0022 E268     		ldr	r2, [r4, #12]
 3703 0024 1207     		lsls	r2, r2, #28
 3704 0026 FAD4     		bmi	.L370
 3705              	.LVL295:
 3706              	.L354:
 3707              		.loc 1 2460 0 is_stmt 1
 3708 0028 0E4A     		ldr	r2, .L372
 3709 002a D368     		ldr	r3, [r2, #12]
 3710 002c 13F00803 		ands	r3, r3, #8
 3711 0030 13D1     		bne	.L357
 3712              		.loc 1 2463 0
 3713 0032 9468     		ldr	r4, [r2, #8]
 3714 0034 E406     		lsls	r4, r4, #27
 3715 0036 04D5     		bpl	.L371
 3716              		.loc 1 2484 0
 3717 0038 1846     		mov	r0, r3
 3718              	.LVL296:
 3719              		.loc 1 2488 0
 3720 003a 0A4B     		ldr	r3, .L372
 3721 003c FF22     		movs	r2, #255
 3722 003e 5A62     		str	r2, [r3, #36]
 3723              		.loc 1 2491 0
 3724 0040 10BD     		pop	{r4, pc}
 3725              	.LVL297:
 3726              	.L371:
 3727              		.loc 1 2466 0
 3728 0042 0843     		orrs	r0, r0, r1
 3729              	.LVL298:
 3730 0044 D062     		str	r0, [r2, #44]
 3731              		.loc 1 2468 0
 3732 0046 FFF7FEFF 		bl	RTC_WaitForSynchro
 3733              	.LVL299:
 3734              		.loc 1 2488 0
 3735 004a 064B     		ldr	r3, .L372
 3736              		.loc 1 2479 0
 3737 004c 0030     		adds	r0, r0, #0
ARM GAS  /var/folders/7z/kps_xzfj7sn5l5gkyq8s9db00000gn/T//cck5P0LB.s 			page 67


 3738              		.loc 1 2488 0
 3739 004e 4FF0FF02 		mov	r2, #255
 3740              		.loc 1 2479 0
 3741 0052 18BF     		it	ne
 3742 0054 0120     		movne	r0, #1
 3743              	.LVL300:
 3744              		.loc 1 2488 0
 3745 0056 5A62     		str	r2, [r3, #36]
 3746              		.loc 1 2491 0
 3747 0058 10BD     		pop	{r4, pc}
 3748              	.LVL301:
 3749              	.L357:
 3750              		.loc 1 2488 0
 3751 005a 024B     		ldr	r3, .L372
 3752 005c FF22     		movs	r2, #255
 3753              		.loc 1 2484 0
 3754 005e 0020     		movs	r0, #0
 3755              	.LVL302:
 3756              		.loc 1 2488 0
 3757 0060 5A62     		str	r2, [r3, #36]
 3758              		.loc 1 2491 0
 3759 0062 10BD     		pop	{r4, pc}
 3760              	.L373:
 3761              		.align	2
 3762              	.L372:
 3763 0064 00280040 		.word	1073752064
 3764              		.cfi_endproc
 3765              	.LFE160:
 3766              		.size	RTC_SynchroShiftConfig, .-RTC_SynchroShiftConfig
 3767              		.section	.text.RTC_ITConfig,"ax",%progbits
 3768              		.align	2
 3769              		.p2align 4,,15
 3770              		.global	RTC_ITConfig
 3771              		.thumb
 3772              		.thumb_func
 3773              		.type	RTC_ITConfig, %function
 3774              	RTC_ITConfig:
 3775              	.LFB161:
 3776              		.loc 1 2556 0
 3777              		.cfi_startproc
 3778              		@ args = 0, pretend = 0, frame = 0
 3779              		@ frame_needed = 0, uses_anonymous_args = 0
 3780              		@ link register save eliminated.
 3781              	.LVL303:
 3782              		.loc 1 2562 0
 3783 0000 114B     		ldr	r3, .L379
 3784              		.loc 1 2556 0
 3785 0002 10B4     		push	{r4}
 3786              		.cfi_def_cfa_offset 4
 3787              		.cfi_offset 4, -4
 3788              		.loc 1 2563 0
 3789 0004 5322     		movs	r2, #83
 3790              		.loc 1 2562 0
 3791 0006 CA24     		movs	r4, #202
 3792 0008 5C62     		str	r4, [r3, #36]
 3793              		.loc 1 2563 0
 3794 000a 5A62     		str	r2, [r3, #36]
ARM GAS  /var/folders/7z/kps_xzfj7sn5l5gkyq8s9db00000gn/T//cck5P0LB.s 			page 68


 3795              		.loc 1 2568 0
 3796 000c 9A68     		ldr	r2, [r3, #8]
 3797              		.loc 1 2565 0
 3798 000e 81B9     		cbnz	r1, .L378
 3799              		.loc 1 2575 0
 3800 0010 20F00401 		bic	r1, r0, #4
 3801              	.LVL304:
 3802 0014 22EA0102 		bic	r2, r2, r1
 3803 0018 9A60     		str	r2, [r3, #8]
 3804              		.loc 1 2577 0
 3805 001a 1A6C     		ldr	r2, [r3, #64]
 3806 001c 00F00400 		and	r0, r0, #4
 3807              	.LVL305:
 3808 0020 22EA0000 		bic	r0, r2, r0
 3809 0024 1864     		str	r0, [r3, #64]
 3810              	.L376:
 3811              		.loc 1 2580 0
 3812 0026 084B     		ldr	r3, .L379
 3813              		.loc 1 2581 0
 3814 0028 5DF8044B 		ldr	r4, [sp], #4
 3815              		.cfi_remember_state
 3816              		.cfi_restore 4
 3817              		.cfi_def_cfa_offset 0
 3818              		.loc 1 2580 0
 3819 002c FF22     		movs	r2, #255
 3820 002e 5A62     		str	r2, [r3, #36]
 3821              		.loc 1 2581 0
 3822 0030 7047     		bx	lr
 3823              	.LVL306:
 3824              	.L378:
 3825              		.cfi_restore_state
 3826              		.loc 1 2568 0
 3827 0032 20F00401 		bic	r1, r0, #4
 3828              	.LVL307:
 3829 0036 0A43     		orrs	r2, r2, r1
 3830 0038 9A60     		str	r2, [r3, #8]
 3831              		.loc 1 2570 0
 3832 003a 1A6C     		ldr	r2, [r3, #64]
 3833 003c 00F00400 		and	r0, r0, #4
 3834              	.LVL308:
 3835 0040 1043     		orrs	r0, r0, r2
 3836 0042 1864     		str	r0, [r3, #64]
 3837 0044 EFE7     		b	.L376
 3838              	.L380:
 3839 0046 00BF     		.align	2
 3840              	.L379:
 3841 0048 00280040 		.word	1073752064
 3842              		.cfi_endproc
 3843              	.LFE161:
 3844              		.size	RTC_ITConfig, .-RTC_ITConfig
 3845 004c AFF30080 		.section	.text.RTC_GetFlagStatus,"ax",%progbits
 3846              		.align	2
 3847              		.p2align 4,,15
 3848              		.global	RTC_GetFlagStatus
 3849              		.thumb
 3850              		.thumb_func
 3851              		.type	RTC_GetFlagStatus, %function
ARM GAS  /var/folders/7z/kps_xzfj7sn5l5gkyq8s9db00000gn/T//cck5P0LB.s 			page 69


 3852              	RTC_GetFlagStatus:
 3853              	.LFB162:
 3854              		.loc 1 2604 0
 3855              		.cfi_startproc
 3856              		@ args = 0, pretend = 0, frame = 0
 3857              		@ frame_needed = 0, uses_anonymous_args = 0
 3858              		@ link register save eliminated.
 3859              	.LVL309:
 3860              		.loc 1 2612 0
 3861 0000 044A     		ldr	r2, .L382
 3862 0002 054B     		ldr	r3, .L382+4
 3863 0004 D268     		ldr	r2, [r2, #12]
 3864              	.LVL310:
 3865 0006 1340     		ands	r3, r3, r2
 3866              	.LVL311:
 3867              		.loc 1 2615 0
 3868 0008 0342     		tst	r3, r0
 3869              		.loc 1 2624 0
 3870 000a 14BF     		ite	ne
 3871 000c 0120     		movne	r0, #1
 3872              	.LVL312:
 3873 000e 0020     		moveq	r0, #0
 3874 0010 7047     		bx	lr
 3875              	.L383:
 3876 0012 00BF     		.align	2
 3877              	.L382:
 3878 0014 00280040 		.word	1073752064
 3879 0018 7F3F0100 		.word	81791
 3880              		.cfi_endproc
 3881              	.LFE162:
 3882              		.size	RTC_GetFlagStatus, .-RTC_GetFlagStatus
 3883 001c AFF30080 		.section	.text.RTC_ClearFlag,"ax",%progbits
 3884              		.align	2
 3885              		.p2align 4,,15
 3886              		.global	RTC_ClearFlag
 3887              		.thumb
 3888              		.thumb_func
 3889              		.type	RTC_ClearFlag, %function
 3890              	RTC_ClearFlag:
 3891              	.LFB163:
 3892              		.loc 1 2640 0
 3893              		.cfi_startproc
 3894              		@ args = 0, pretend = 0, frame = 0
 3895              		@ frame_needed = 0, uses_anonymous_args = 0
 3896              		@ link register save eliminated.
 3897              	.LVL313:
 3898              		.loc 1 2645 0
 3899 0000 054A     		ldr	r2, .L385
 3900 0002 D368     		ldr	r3, [r2, #12]
 3901 0004 80B2     		uxth	r0, r0
 3902              	.LVL314:
 3903 0006 40F08000 		orr	r0, r0, #128
 3904 000a 03F08003 		and	r3, r3, #128
 3905 000e 63EA0003 		orn	r3, r3, r0
 3906 0012 D360     		str	r3, [r2, #12]
 3907 0014 7047     		bx	lr
 3908              	.L386:
ARM GAS  /var/folders/7z/kps_xzfj7sn5l5gkyq8s9db00000gn/T//cck5P0LB.s 			page 70


 3909 0016 00BF     		.align	2
 3910              	.L385:
 3911 0018 00280040 		.word	1073752064
 3912              		.cfi_endproc
 3913              	.LFE163:
 3914              		.size	RTC_ClearFlag, .-RTC_ClearFlag
 3915 001c AFF30080 		.section	.text.RTC_GetITStatus,"ax",%progbits
 3916              		.align	2
 3917              		.p2align 4,,15
 3918              		.global	RTC_GetITStatus
 3919              		.thumb
 3920              		.thumb_func
 3921              		.type	RTC_GetITStatus, %function
 3922              	RTC_GetITStatus:
 3923              	.LFB164:
 3924              		.loc 1 2660 0
 3925              		.cfi_startproc
 3926              		@ args = 0, pretend = 0, frame = 0
 3927              		@ frame_needed = 0, uses_anonymous_args = 0
 3928              		@ link register save eliminated.
 3929              	.LVL315:
 3930              		.loc 1 2668 0
 3931 0000 0949     		ldr	r1, .L390
 3932 0002 0A6C     		ldr	r2, [r1, #64]
 3933              	.LVL316:
 3934              		.loc 1 2671 0
 3935 0004 8B68     		ldr	r3, [r1, #8]
 3936              		.loc 1 2674 0
 3937 0006 C968     		ldr	r1, [r1, #12]
 3938              	.LVL317:
 3939              		.loc 1 2668 0
 3940 0008 02F00402 		and	r2, r2, #4
 3941              	.LVL318:
 3942              		.loc 1 2671 0
 3943 000c 02EAD032 		and	r2, r2, r0, lsr #15
 3944 0010 0340     		ands	r3, r3, r0
 3945              		.loc 1 2677 0
 3946 0012 1343     		orrs	r3, r2, r3
 3947 0014 06D0     		beq	.L389
 3948 0016 89B2     		uxth	r1, r1
 3949              	.LVL319:
 3950              		.loc 1 2677 0 is_stmt 0 discriminator 1
 3951 0018 11EA1013 		ands	r3, r1, r0, lsr #4
 3952              		.loc 1 2679 0 is_stmt 1 discriminator 1
 3953 001c 14BF     		ite	ne
 3954 001e 0120     		movne	r0, #1
 3955              	.LVL320:
 3956 0020 0020     		moveq	r0, #0
 3957 0022 7047     		bx	lr
 3958              	.LVL321:
 3959              	.L389:
 3960              		.loc 1 2683 0
 3961 0024 1846     		mov	r0, r3
 3962              	.LVL322:
 3963              		.loc 1 2686 0
 3964 0026 7047     		bx	lr
 3965              	.L391:
ARM GAS  /var/folders/7z/kps_xzfj7sn5l5gkyq8s9db00000gn/T//cck5P0LB.s 			page 71


 3966              		.align	2
 3967              	.L390:
 3968 0028 00280040 		.word	1073752064
 3969              		.cfi_endproc
 3970              	.LFE164:
 3971              		.size	RTC_GetITStatus, .-RTC_GetITStatus
 3972 002c AFF30080 		.section	.text.RTC_ClearITPendingBit,"ax",%progbits
 3973              		.align	2
 3974              		.p2align 4,,15
 3975              		.global	RTC_ClearITPendingBit
 3976              		.thumb
 3977              		.thumb_func
 3978              		.type	RTC_ClearITPendingBit, %function
 3979              	RTC_ClearITPendingBit:
 3980              	.LFB165:
 3981              		.loc 1 2700 0
 3982              		.cfi_startproc
 3983              		@ args = 0, pretend = 0, frame = 0
 3984              		@ frame_needed = 0, uses_anonymous_args = 0
 3985              		@ link register save eliminated.
 3986              	.LVL323:
 3987              		.loc 1 2710 0
 3988 0000 054A     		ldr	r2, .L393
 3989 0002 D368     		ldr	r3, [r2, #12]
 3990 0004 C0F30F10 		ubfx	r0, r0, #4, #16
 3991              	.LVL324:
 3992 0008 40F08000 		orr	r0, r0, #128
 3993 000c 03F08003 		and	r3, r3, #128
 3994 0010 63EA0003 		orn	r3, r3, r0
 3995 0014 D360     		str	r3, [r2, #12]
 3996 0016 7047     		bx	lr
 3997              	.L394:
 3998              		.align	2
 3999              	.L393:
 4000 0018 00280040 		.word	1073752064
 4001              		.cfi_endproc
 4002              	.LFE165:
 4003              		.size	RTC_ClearITPendingBit, .-RTC_ClearITPendingBit
 4004 001c AFF30080 		.text
 4005              	.Letext0:
 4006              		.file 2 "/Users/Baram/gcc-arm-none-eabi/arm-none-eabi/include/machine/_default_types.h"
 4007              		.file 3 "/Users/Baram/gcc-arm-none-eabi/arm-none-eabi/include/stdint.h"
 4008              		.file 4 "lib/ChibiOS_2.6.6/os/hal/platforms/STM32F4xx/stm32f4xx.h"
 4009              		.file 5 "lib/ChibiOS_2.6.6/ext/stdperiph_stm32f4/inc/stm32f4xx_rtc.h"
 4010              		.file 6 "lib/ChibiOS_2.6.6/os/ports/common/ARMCMx/CMSIS/include/core_cm4.h"