ARM GAS  /var/folders/7z/kps_xzfj7sn5l5gkyq8s9db00000gn/T//ccUy0cgF.s 			page 1


   1              		.syntax unified
   2              		.cpu cortex-m4
   3              		.eabi_attribute 27, 1
   4              		.eabi_attribute 28, 1
   5              		.fpu fpv4-sp-d16
   6              		.eabi_attribute 20, 1
   7              		.eabi_attribute 21, 1
   8              		.eabi_attribute 23, 3
   9              		.eabi_attribute 24, 1
  10              		.eabi_attribute 25, 1
  11              		.eabi_attribute 26, 1
  12              		.eabi_attribute 30, 2
  13              		.eabi_attribute 34, 1
  14              		.eabi_attribute 18, 4
  15              		.thumb
  16              		.file	"stm32f4xx_iwdg.c"
  17              		.text
  18              	.Ltext0:
  19              		.cfi_sections	.debug_frame
  20              		.section	.text.IWDG_WriteAccessCmd,"ax",%progbits
  21              		.align	2
  22              		.p2align 4,,15
  23              		.global	IWDG_WriteAccessCmd
  24              		.thumb
  25              		.thumb_func
  26              		.type	IWDG_WriteAccessCmd, %function
  27              	IWDG_WriteAccessCmd:
  28              	.LFB111:
  29              		.file 1 "lib/ChibiOS_2.6.6/ext/stdperiph_stm32f4/src/stm32f4xx_iwdg.c"
  30              		.loc 1 136 0
  31              		.cfi_startproc
  32              		@ args = 0, pretend = 0, frame = 0
  33              		@ frame_needed = 0, uses_anonymous_args = 0
  34              		@ link register save eliminated.
  35              	.LVL0:
  36              		.loc 1 139 0
  37 0000 014B     		ldr	r3, .L2
  38 0002 1860     		str	r0, [r3]
  39 0004 7047     		bx	lr
  40              	.L3:
  41 0006 00BF     		.align	2
  42              	.L2:
  43 0008 00300040 		.word	1073754112
  44              		.cfi_endproc
  45              	.LFE111:
  46              		.size	IWDG_WriteAccessCmd, .-IWDG_WriteAccessCmd
  47 000c AFF30080 		.section	.text.IWDG_SetPrescaler,"ax",%progbits
  48              		.align	2
  49              		.p2align 4,,15
  50              		.global	IWDG_SetPrescaler
  51              		.thumb
  52              		.thumb_func
  53              		.type	IWDG_SetPrescaler, %function
  54              	IWDG_SetPrescaler:
  55              	.LFB112:
  56              		.loc 1 156 0
  57              		.cfi_startproc
ARM GAS  /var/folders/7z/kps_xzfj7sn5l5gkyq8s9db00000gn/T//ccUy0cgF.s 			page 2


  58              		@ args = 0, pretend = 0, frame = 0
  59              		@ frame_needed = 0, uses_anonymous_args = 0
  60              		@ link register save eliminated.
  61              	.LVL1:
  62              		.loc 1 159 0
  63 0000 014B     		ldr	r3, .L5
  64 0002 5860     		str	r0, [r3, #4]
  65 0004 7047     		bx	lr
  66              	.L6:
  67 0006 00BF     		.align	2
  68              	.L5:
  69 0008 00300040 		.word	1073754112
  70              		.cfi_endproc
  71              	.LFE112:
  72              		.size	IWDG_SetPrescaler, .-IWDG_SetPrescaler
  73 000c AFF30080 		.section	.text.IWDG_SetReload,"ax",%progbits
  74              		.align	2
  75              		.p2align 4,,15
  76              		.global	IWDG_SetReload
  77              		.thumb
  78              		.thumb_func
  79              		.type	IWDG_SetReload, %function
  80              	IWDG_SetReload:
  81              	.LFB113:
  82              		.loc 1 169 0
  83              		.cfi_startproc
  84              		@ args = 0, pretend = 0, frame = 0
  85              		@ frame_needed = 0, uses_anonymous_args = 0
  86              		@ link register save eliminated.
  87              	.LVL2:
  88              		.loc 1 172 0
  89 0000 014B     		ldr	r3, .L8
  90 0002 9860     		str	r0, [r3, #8]
  91 0004 7047     		bx	lr
  92              	.L9:
  93 0006 00BF     		.align	2
  94              	.L8:
  95 0008 00300040 		.word	1073754112
  96              		.cfi_endproc
  97              	.LFE113:
  98              		.size	IWDG_SetReload, .-IWDG_SetReload
  99 000c AFF30080 		.section	.text.IWDG_ReloadCounter,"ax",%progbits
 100              		.align	2
 101              		.p2align 4,,15
 102              		.global	IWDG_ReloadCounter
 103              		.thumb
 104              		.thumb_func
 105              		.type	IWDG_ReloadCounter, %function
 106              	IWDG_ReloadCounter:
 107              	.LFB114:
 108              		.loc 1 182 0
 109              		.cfi_startproc
 110              		@ args = 0, pretend = 0, frame = 0
 111              		@ frame_needed = 0, uses_anonymous_args = 0
 112              		@ link register save eliminated.
 113              		.loc 1 183 0
 114 0000 024B     		ldr	r3, .L11
ARM GAS  /var/folders/7z/kps_xzfj7sn5l5gkyq8s9db00000gn/T//ccUy0cgF.s 			page 3


 115 0002 4AF6AA22 		movw	r2, #43690
 116 0006 1A60     		str	r2, [r3]
 117 0008 7047     		bx	lr
 118              	.L12:
 119 000a 00BF     		.align	2
 120              	.L11:
 121 000c 00300040 		.word	1073754112
 122              		.cfi_endproc
 123              	.LFE114:
 124              		.size	IWDG_ReloadCounter, .-IWDG_ReloadCounter
 125              		.section	.text.IWDG_Enable,"ax",%progbits
 126              		.align	2
 127              		.p2align 4,,15
 128              		.global	IWDG_Enable
 129              		.thumb
 130              		.thumb_func
 131              		.type	IWDG_Enable, %function
 132              	IWDG_Enable:
 133              	.LFB115:
 134              		.loc 1 208 0
 135              		.cfi_startproc
 136              		@ args = 0, pretend = 0, frame = 0
 137              		@ frame_needed = 0, uses_anonymous_args = 0
 138              		@ link register save eliminated.
 139              		.loc 1 209 0
 140 0000 024B     		ldr	r3, .L14
 141 0002 4CF6CC42 		movw	r2, #52428
 142 0006 1A60     		str	r2, [r3]
 143 0008 7047     		bx	lr
 144              	.L15:
 145 000a 00BF     		.align	2
 146              	.L14:
 147 000c 00300040 		.word	1073754112
 148              		.cfi_endproc
 149              	.LFE115:
 150              		.size	IWDG_Enable, .-IWDG_Enable
 151              		.section	.text.IWDG_GetFlagStatus,"ax",%progbits
 152              		.align	2
 153              		.p2align 4,,15
 154              		.global	IWDG_GetFlagStatus
 155              		.thumb
 156              		.thumb_func
 157              		.type	IWDG_GetFlagStatus, %function
 158              	IWDG_GetFlagStatus:
 159              	.LFB116:
 160              		.loc 1 237 0
 161              		.cfi_startproc
 162              		@ args = 0, pretend = 0, frame = 0
 163              		@ frame_needed = 0, uses_anonymous_args = 0
 164              		@ link register save eliminated.
 165              	.LVL3:
 166              		.loc 1 241 0
 167 0000 034B     		ldr	r3, .L17
 168 0002 DB68     		ldr	r3, [r3, #12]
 169              	.LVL4:
 170 0004 1842     		tst	r0, r3
 171              		.loc 1 251 0
ARM GAS  /var/folders/7z/kps_xzfj7sn5l5gkyq8s9db00000gn/T//ccUy0cgF.s 			page 4


 172 0006 14BF     		ite	ne
 173 0008 0120     		movne	r0, #1
 174              	.LVL5:
 175 000a 0020     		moveq	r0, #0
 176 000c 7047     		bx	lr
 177              	.L18:
 178 000e 00BF     		.align	2
 179              	.L17:
 180 0010 00300040 		.word	1073754112
 181              		.cfi_endproc
 182              	.LFE116:
 183              		.size	IWDG_GetFlagStatus, .-IWDG_GetFlagStatus
 184 0014 AFF30080 		.text
 184      AFF30080 
 184      AFF30080 
 185              	.Letext0:
 186              		.file 2 "/Users/Baram/gcc-arm-none-eabi/arm-none-eabi/include/machine/_default_types.h"
 187              		.file 3 "/Users/Baram/gcc-arm-none-eabi/arm-none-eabi/include/stdint.h"
 188              		.file 4 "lib/ChibiOS_2.6.6/os/hal/platforms/STM32F4xx/stm32f4xx.h"
 189              		.file 5 "lib/ChibiOS_2.6.6/os/ports/common/ARMCMx/CMSIS/include/core_cm4.h"
 190              		.section	.debug_info,"",%progbits
 191              	.Ldebug_info0:
 192 0000 09020000 		.4byte	0x209
 193 0004 0400     		.2byte	0x4
 194 0006 00000000 		.4byte	.Ldebug_abbrev0
 195 000a 04       		.byte	0x4
 196 000b 01       		.uleb128 0x1
 197 000c 55010000 		.4byte	.LASF30
 198 0010 01       		.byte	0x1
 199 0011 40000000 		.4byte	.LASF31
 200 0015 F6000000 		.4byte	.LASF32
 201 0019 00000000 		.4byte	.Ldebug_ranges0+0
 202 001d 00000000 		.4byte	0
 203 0021 00000000 		.4byte	.Ldebug_line0
 204 0025 02       		.uleb128 0x2
 205 0026 01       		.byte	0x1
 206 0027 06       		.byte	0x6
 207 0028 07030000 		.4byte	.LASF0
 208 002c 03       		.uleb128 0x3
 209 002d 00000000 		.4byte	.LASF3
 210 0031 02       		.byte	0x2
 211 0032 1D       		.byte	0x1d
 212 0033 37000000 		.4byte	0x37
 213 0037 02       		.uleb128 0x2
 214 0038 01       		.byte	0x1
 215 0039 08       		.byte	0x8
 216 003a 8F000000 		.4byte	.LASF1
 217 003e 02       		.uleb128 0x2
 218 003f 02       		.byte	0x2
 219 0040 05       		.byte	0x5
 220 0041 D7020000 		.4byte	.LASF2
 221 0045 03       		.uleb128 0x3
 222 0046 E1020000 		.4byte	.LASF4
 223 004a 02       		.byte	0x2
 224 004b 2B       		.byte	0x2b
 225 004c 50000000 		.4byte	0x50
 226 0050 02       		.uleb128 0x2
ARM GAS  /var/folders/7z/kps_xzfj7sn5l5gkyq8s9db00000gn/T//ccUy0cgF.s 			page 5


 227 0051 02       		.byte	0x2
 228 0052 07       		.byte	0x7
 229 0053 13030000 		.4byte	.LASF5
 230 0057 03       		.uleb128 0x3
 231 0058 1D000000 		.4byte	.LASF6
 232 005c 02       		.byte	0x2
 233 005d 3F       		.byte	0x3f
 234 005e 62000000 		.4byte	0x62
 235 0062 02       		.uleb128 0x2
 236 0063 04       		.byte	0x4
 237 0064 05       		.byte	0x5
 238 0065 FE020000 		.4byte	.LASF7
 239 0069 03       		.uleb128 0x3
 240 006a 4A010000 		.4byte	.LASF8
 241 006e 02       		.byte	0x2
 242 006f 41       		.byte	0x41
 243 0070 74000000 		.4byte	0x74
 244 0074 02       		.uleb128 0x2
 245 0075 04       		.byte	0x4
 246 0076 07       		.byte	0x7
 247 0077 CA000000 		.4byte	.LASF9
 248 007b 02       		.uleb128 0x2
 249 007c 08       		.byte	0x8
 250 007d 05       		.byte	0x5
 251 007e C9020000 		.4byte	.LASF10
 252 0082 02       		.uleb128 0x2
 253 0083 08       		.byte	0x8
 254 0084 07       		.byte	0x7
 255 0085 99020000 		.4byte	.LASF11
 256 0089 04       		.uleb128 0x4
 257 008a 04       		.byte	0x4
 258 008b 05       		.byte	0x5
 259 008c 696E7400 		.ascii	"int\000"
 260 0090 02       		.uleb128 0x2
 261 0091 04       		.byte	0x4
 262 0092 07       		.byte	0x7
 263 0093 8C020000 		.4byte	.LASF12
 264 0097 03       		.uleb128 0x3
 265 0098 B0020000 		.4byte	.LASF13
 266 009c 03       		.byte	0x3
 267 009d 15       		.byte	0x15
 268 009e 2C000000 		.4byte	0x2c
 269 00a2 03       		.uleb128 0x3
 270 00a3 EC020000 		.4byte	.LASF14
 271 00a7 03       		.byte	0x3
 272 00a8 21       		.byte	0x21
 273 00a9 45000000 		.4byte	0x45
 274 00ad 03       		.uleb128 0x3
 275 00ae B8020000 		.4byte	.LASF15
 276 00b2 03       		.byte	0x3
 277 00b3 2C       		.byte	0x2c
 278 00b4 57000000 		.4byte	0x57
 279 00b8 03       		.uleb128 0x3
 280 00b9 F5020000 		.4byte	.LASF16
 281 00bd 03       		.byte	0x3
 282 00be 2D       		.byte	0x2d
 283 00bf 69000000 		.4byte	0x69
ARM GAS  /var/folders/7z/kps_xzfj7sn5l5gkyq8s9db00000gn/T//ccUy0cgF.s 			page 6


 284 00c3 02       		.uleb128 0x2
 285 00c4 04       		.byte	0x4
 286 00c5 07       		.byte	0x7
 287 00c6 C0020000 		.4byte	.LASF17
 288 00ca 05       		.uleb128 0x5
 289 00cb B8000000 		.4byte	0xb8
 290 00cf 05       		.uleb128 0x5
 291 00d0 AD000000 		.4byte	0xad
 292 00d4 06       		.uleb128 0x6
 293 00d5 01       		.byte	0x1
 294 00d6 04       		.byte	0x4
 295 00d7 F701     		.2byte	0x1f7
 296 00d9 EA000000 		.4byte	0xea
 297 00dd 07       		.uleb128 0x7
 298 00de F0000000 		.4byte	.LASF18
 299 00e2 00       		.sleb128 0
 300 00e3 08       		.uleb128 0x8
 301 00e4 53455400 		.ascii	"SET\000"
 302 00e8 01       		.sleb128 1
 303 00e9 00       		.byte	0
 304 00ea 09       		.uleb128 0x9
 305 00eb BF000000 		.4byte	.LASF19
 306 00ef 04       		.byte	0x4
 307 00f0 F701     		.2byte	0x1f7
 308 00f2 D4000000 		.4byte	0xd4
 309 00f6 0A       		.uleb128 0xa
 310 00f7 10       		.byte	0x10
 311 00f8 04       		.byte	0x4
 312 00f9 1204     		.2byte	0x412
 313 00fb 31010000 		.4byte	0x131
 314 00ff 0B       		.uleb128 0xb
 315 0100 4B5200   		.ascii	"KR\000"
 316 0103 04       		.byte	0x4
 317 0104 1404     		.2byte	0x414
 318 0106 CA000000 		.4byte	0xca
 319 010a 00       		.byte	0
 320 010b 0B       		.uleb128 0xb
 321 010c 505200   		.ascii	"PR\000"
 322 010f 04       		.byte	0x4
 323 0110 1504     		.2byte	0x415
 324 0112 CA000000 		.4byte	0xca
 325 0116 04       		.byte	0x4
 326 0117 0B       		.uleb128 0xb
 327 0118 524C5200 		.ascii	"RLR\000"
 328 011c 04       		.byte	0x4
 329 011d 1604     		.2byte	0x416
 330 011f CA000000 		.4byte	0xca
 331 0123 08       		.byte	0x8
 332 0124 0B       		.uleb128 0xb
 333 0125 535200   		.ascii	"SR\000"
 334 0128 04       		.byte	0x4
 335 0129 1704     		.2byte	0x417
 336 012b CA000000 		.4byte	0xca
 337 012f 0C       		.byte	0xc
 338 0130 00       		.byte	0
 339 0131 09       		.uleb128 0x9
 340 0132 26030000 		.4byte	.LASF20
ARM GAS  /var/folders/7z/kps_xzfj7sn5l5gkyq8s9db00000gn/T//ccUy0cgF.s 			page 7


 341 0136 04       		.byte	0x4
 342 0137 1804     		.2byte	0x418
 343 0139 F6000000 		.4byte	0xf6
 344 013d 0C       		.uleb128 0xc
 345 013e DC000000 		.4byte	.LASF21
 346 0142 01       		.byte	0x1
 347 0143 87       		.byte	0x87
 348 0144 00000000 		.4byte	.LFB111
 349 0148 0C000000 		.4byte	.LFE111-.LFB111
 350 014c 01       		.uleb128 0x1
 351 014d 9C       		.byte	0x9c
 352 014e 60010000 		.4byte	0x160
 353 0152 0D       		.uleb128 0xd
 354 0153 39010000 		.4byte	.LASF23
 355 0157 01       		.byte	0x1
 356 0158 87       		.byte	0x87
 357 0159 A2000000 		.4byte	0xa2
 358 015d 01       		.uleb128 0x1
 359 015e 50       		.byte	0x50
 360 015f 00       		.byte	0
 361 0160 0C       		.uleb128 0xc
 362 0161 7D000000 		.4byte	.LASF22
 363 0165 01       		.byte	0x1
 364 0166 9B       		.byte	0x9b
 365 0167 00000000 		.4byte	.LFB112
 366 016b 0C000000 		.4byte	.LFE112-.LFB112
 367 016f 01       		.uleb128 0x1
 368 0170 9C       		.byte	0x9c
 369 0171 83010000 		.4byte	0x183
 370 0175 0D       		.uleb128 0xd
 371 0176 27000000 		.4byte	.LASF24
 372 017a 01       		.byte	0x1
 373 017b 9B       		.byte	0x9b
 374 017c 97000000 		.4byte	0x97
 375 0180 01       		.uleb128 0x1
 376 0181 50       		.byte	0x50
 377 0182 00       		.byte	0
 378 0183 0C       		.uleb128 0xc
 379 0184 9D000000 		.4byte	.LASF25
 380 0188 01       		.byte	0x1
 381 0189 A8       		.byte	0xa8
 382 018a 00000000 		.4byte	.LFB113
 383 018e 0C000000 		.4byte	.LFE113-.LFB113
 384 0192 01       		.uleb128 0x1
 385 0193 9C       		.byte	0x9c
 386 0194 A6010000 		.4byte	0x1a6
 387 0198 0D       		.uleb128 0xd
 388 0199 0A000000 		.4byte	.LASF26
 389 019d 01       		.byte	0x1
 390 019e A8       		.byte	0xa8
 391 019f A2000000 		.4byte	0xa2
 392 01a3 01       		.uleb128 0x1
 393 01a4 50       		.byte	0x50
 394 01a5 00       		.byte	0
 395 01a6 0E       		.uleb128 0xe
 396 01a7 AC000000 		.4byte	.LASF27
 397 01ab 01       		.byte	0x1
ARM GAS  /var/folders/7z/kps_xzfj7sn5l5gkyq8s9db00000gn/T//ccUy0cgF.s 			page 8


 398 01ac B5       		.byte	0xb5
 399 01ad 00000000 		.4byte	.LFB114
 400 01b1 10000000 		.4byte	.LFE114-.LFB114
 401 01b5 01       		.uleb128 0x1
 402 01b6 9C       		.byte	0x9c
 403 01b7 0E       		.uleb128 0xe
 404 01b8 11000000 		.4byte	.LASF28
 405 01bc 01       		.byte	0x1
 406 01bd CF       		.byte	0xcf
 407 01be 00000000 		.4byte	.LFB115
 408 01c2 10000000 		.4byte	.LFE115-.LFB115
 409 01c6 01       		.uleb128 0x1
 410 01c7 9C       		.byte	0x9c
 411 01c8 0F       		.uleb128 0xf
 412 01c9 79020000 		.4byte	.LASF33
 413 01cd 01       		.byte	0x1
 414 01ce EC       		.byte	0xec
 415 01cf EA000000 		.4byte	0xea
 416 01d3 00000000 		.4byte	.LFB116
 417 01d7 14000000 		.4byte	.LFE116-.LFB116
 418 01db 01       		.uleb128 0x1
 419 01dc 9C       		.byte	0x9c
 420 01dd 00020000 		.4byte	0x200
 421 01e1 10       		.uleb128 0x10
 422 01e2 2F010000 		.4byte	.LASF29
 423 01e6 01       		.byte	0x1
 424 01e7 EC       		.byte	0xec
 425 01e8 A2000000 		.4byte	0xa2
 426 01ec 00000000 		.4byte	.LLST0
 427 01f0 11       		.uleb128 0x11
 428 01f1 36000000 		.4byte	.LASF34
 429 01f5 01       		.byte	0x1
 430 01f6 EE       		.byte	0xee
 431 01f7 EA000000 		.4byte	0xea
 432 01fb 21000000 		.4byte	.LLST1
 433 01ff 00       		.byte	0
 434 0200 12       		.uleb128 0x12
 435 0201 22010000 		.4byte	.LASF35
 436 0205 05       		.byte	0x5
 437 0206 9806     		.2byte	0x698
 438 0208 CF000000 		.4byte	0xcf
 439 020c 00       		.byte	0
 440              		.section	.debug_abbrev,"",%progbits
 441              	.Ldebug_abbrev0:
 442 0000 01       		.uleb128 0x1
 443 0001 11       		.uleb128 0x11
 444 0002 01       		.byte	0x1
 445 0003 25       		.uleb128 0x25
 446 0004 0E       		.uleb128 0xe
 447 0005 13       		.uleb128 0x13
 448 0006 0B       		.uleb128 0xb
 449 0007 03       		.uleb128 0x3
 450 0008 0E       		.uleb128 0xe
 451 0009 1B       		.uleb128 0x1b
 452 000a 0E       		.uleb128 0xe
 453 000b 55       		.uleb128 0x55
 454 000c 17       		.uleb128 0x17
ARM GAS  /var/folders/7z/kps_xzfj7sn5l5gkyq8s9db00000gn/T//ccUy0cgF.s 			page 9


 455 000d 11       		.uleb128 0x11
 456 000e 01       		.uleb128 0x1
 457 000f 10       		.uleb128 0x10
 458 0010 17       		.uleb128 0x17
 459 0011 00       		.byte	0
 460 0012 00       		.byte	0
 461 0013 02       		.uleb128 0x2
 462 0014 24       		.uleb128 0x24
 463 0015 00       		.byte	0
 464 0016 0B       		.uleb128 0xb
 465 0017 0B       		.uleb128 0xb
 466 0018 3E       		.uleb128 0x3e
 467 0019 0B       		.uleb128 0xb
 468 001a 03       		.uleb128 0x3
 469 001b 0E       		.uleb128 0xe
 470 001c 00       		.byte	0
 471 001d 00       		.byte	0
 472 001e 03       		.uleb128 0x3
 473 001f 16       		.uleb128 0x16
 474 0020 00       		.byte	0
 475 0021 03       		.uleb128 0x3
 476 0022 0E       		.uleb128 0xe
 477 0023 3A       		.uleb128 0x3a
 478 0024 0B       		.uleb128 0xb
 479 0025 3B       		.uleb128 0x3b
 480 0026 0B       		.uleb128 0xb
 481 0027 49       		.uleb128 0x49
 482 0028 13       		.uleb128 0x13
 483 0029 00       		.byte	0
 484 002a 00       		.byte	0
 485 002b 04       		.uleb128 0x4
 486 002c 24       		.uleb128 0x24
 487 002d 00       		.byte	0
 488 002e 0B       		.uleb128 0xb
 489 002f 0B       		.uleb128 0xb
 490 0030 3E       		.uleb128 0x3e
 491 0031 0B       		.uleb128 0xb
 492 0032 03       		.uleb128 0x3
 493 0033 08       		.uleb128 0x8
 494 0034 00       		.byte	0
 495 0035 00       		.byte	0
 496 0036 05       		.uleb128 0x5
 497 0037 35       		.uleb128 0x35
 498 0038 00       		.byte	0
 499 0039 49       		.uleb128 0x49
 500 003a 13       		.uleb128 0x13
 501 003b 00       		.byte	0
 502 003c 00       		.byte	0
 503 003d 06       		.uleb128 0x6
 504 003e 04       		.uleb128 0x4
 505 003f 01       		.byte	0x1
 506 0040 0B       		.uleb128 0xb
 507 0041 0B       		.uleb128 0xb
 508 0042 3A       		.uleb128 0x3a
 509 0043 0B       		.uleb128 0xb
 510 0044 3B       		.uleb128 0x3b
 511 0045 05       		.uleb128 0x5
ARM GAS  /var/folders/7z/kps_xzfj7sn5l5gkyq8s9db00000gn/T//ccUy0cgF.s 			page 10


 512 0046 01       		.uleb128 0x1
 513 0047 13       		.uleb128 0x13
 514 0048 00       		.byte	0
 515 0049 00       		.byte	0
 516 004a 07       		.uleb128 0x7
 517 004b 28       		.uleb128 0x28
 518 004c 00       		.byte	0
 519 004d 03       		.uleb128 0x3
 520 004e 0E       		.uleb128 0xe
 521 004f 1C       		.uleb128 0x1c
 522 0050 0D       		.uleb128 0xd
 523 0051 00       		.byte	0
 524 0052 00       		.byte	0
 525 0053 08       		.uleb128 0x8
 526 0054 28       		.uleb128 0x28
 527 0055 00       		.byte	0
 528 0056 03       		.uleb128 0x3
 529 0057 08       		.uleb128 0x8
 530 0058 1C       		.uleb128 0x1c
 531 0059 0D       		.uleb128 0xd
 532 005a 00       		.byte	0
 533 005b 00       		.byte	0
 534 005c 09       		.uleb128 0x9
 535 005d 16       		.uleb128 0x16
 536 005e 00       		.byte	0
 537 005f 03       		.uleb128 0x3
 538 0060 0E       		.uleb128 0xe
 539 0061 3A       		.uleb128 0x3a
 540 0062 0B       		.uleb128 0xb
 541 0063 3B       		.uleb128 0x3b
 542 0064 05       		.uleb128 0x5
 543 0065 49       		.uleb128 0x49
 544 0066 13       		.uleb128 0x13
 545 0067 00       		.byte	0
 546 0068 00       		.byte	0
 547 0069 0A       		.uleb128 0xa
 548 006a 13       		.uleb128 0x13
 549 006b 01       		.byte	0x1
 550 006c 0B       		.uleb128 0xb
 551 006d 0B       		.uleb128 0xb
 552 006e 3A       		.uleb128 0x3a
 553 006f 0B       		.uleb128 0xb
 554 0070 3B       		.uleb128 0x3b
 555 0071 05       		.uleb128 0x5
 556 0072 01       		.uleb128 0x1
 557 0073 13       		.uleb128 0x13
 558 0074 00       		.byte	0
 559 0075 00       		.byte	0
 560 0076 0B       		.uleb128 0xb
 561 0077 0D       		.uleb128 0xd
 562 0078 00       		.byte	0
 563 0079 03       		.uleb128 0x3
 564 007a 08       		.uleb128 0x8
 565 007b 3A       		.uleb128 0x3a
 566 007c 0B       		.uleb128 0xb
 567 007d 3B       		.uleb128 0x3b
 568 007e 05       		.uleb128 0x5
ARM GAS  /var/folders/7z/kps_xzfj7sn5l5gkyq8s9db00000gn/T//ccUy0cgF.s 			page 11


 569 007f 49       		.uleb128 0x49
 570 0080 13       		.uleb128 0x13
 571 0081 38       		.uleb128 0x38
 572 0082 0B       		.uleb128 0xb
 573 0083 00       		.byte	0
 574 0084 00       		.byte	0
 575 0085 0C       		.uleb128 0xc
 576 0086 2E       		.uleb128 0x2e
 577 0087 01       		.byte	0x1
 578 0088 3F       		.uleb128 0x3f
 579 0089 19       		.uleb128 0x19
 580 008a 03       		.uleb128 0x3
 581 008b 0E       		.uleb128 0xe
 582 008c 3A       		.uleb128 0x3a
 583 008d 0B       		.uleb128 0xb
 584 008e 3B       		.uleb128 0x3b
 585 008f 0B       		.uleb128 0xb
 586 0090 27       		.uleb128 0x27
 587 0091 19       		.uleb128 0x19
 588 0092 11       		.uleb128 0x11
 589 0093 01       		.uleb128 0x1
 590 0094 12       		.uleb128 0x12
 591 0095 06       		.uleb128 0x6
 592 0096 40       		.uleb128 0x40
 593 0097 18       		.uleb128 0x18
 594 0098 9742     		.uleb128 0x2117
 595 009a 19       		.uleb128 0x19
 596 009b 01       		.uleb128 0x1
 597 009c 13       		.uleb128 0x13
 598 009d 00       		.byte	0
 599 009e 00       		.byte	0
 600 009f 0D       		.uleb128 0xd
 601 00a0 05       		.uleb128 0x5
 602 00a1 00       		.byte	0
 603 00a2 03       		.uleb128 0x3
 604 00a3 0E       		.uleb128 0xe
 605 00a4 3A       		.uleb128 0x3a
 606 00a5 0B       		.uleb128 0xb
 607 00a6 3B       		.uleb128 0x3b
 608 00a7 0B       		.uleb128 0xb
 609 00a8 49       		.uleb128 0x49
 610 00a9 13       		.uleb128 0x13
 611 00aa 02       		.uleb128 0x2
 612 00ab 18       		.uleb128 0x18
 613 00ac 00       		.byte	0
 614 00ad 00       		.byte	0
 615 00ae 0E       		.uleb128 0xe
 616 00af 2E       		.uleb128 0x2e
 617 00b0 00       		.byte	0
 618 00b1 3F       		.uleb128 0x3f
 619 00b2 19       		.uleb128 0x19
 620 00b3 03       		.uleb128 0x3
 621 00b4 0E       		.uleb128 0xe
 622 00b5 3A       		.uleb128 0x3a
 623 00b6 0B       		.uleb128 0xb
 624 00b7 3B       		.uleb128 0x3b
 625 00b8 0B       		.uleb128 0xb
ARM GAS  /var/folders/7z/kps_xzfj7sn5l5gkyq8s9db00000gn/T//ccUy0cgF.s 			page 12


 626 00b9 27       		.uleb128 0x27
 627 00ba 19       		.uleb128 0x19
 628 00bb 11       		.uleb128 0x11
 629 00bc 01       		.uleb128 0x1
 630 00bd 12       		.uleb128 0x12
 631 00be 06       		.uleb128 0x6
 632 00bf 40       		.uleb128 0x40
 633 00c0 18       		.uleb128 0x18
 634 00c1 9742     		.uleb128 0x2117
 635 00c3 19       		.uleb128 0x19
 636 00c4 00       		.byte	0
 637 00c5 00       		.byte	0
 638 00c6 0F       		.uleb128 0xf
 639 00c7 2E       		.uleb128 0x2e
 640 00c8 01       		.byte	0x1
 641 00c9 3F       		.uleb128 0x3f
 642 00ca 19       		.uleb128 0x19
 643 00cb 03       		.uleb128 0x3
 644 00cc 0E       		.uleb128 0xe
 645 00cd 3A       		.uleb128 0x3a
 646 00ce 0B       		.uleb128 0xb
 647 00cf 3B       		.uleb128 0x3b
 648 00d0 0B       		.uleb128 0xb
 649 00d1 27       		.uleb128 0x27
 650 00d2 19       		.uleb128 0x19
 651 00d3 49       		.uleb128 0x49
 652 00d4 13       		.uleb128 0x13
 653 00d5 11       		.uleb128 0x11
 654 00d6 01       		.uleb128 0x1
 655 00d7 12       		.uleb128 0x12
 656 00d8 06       		.uleb128 0x6
 657 00d9 40       		.uleb128 0x40
 658 00da 18       		.uleb128 0x18
 659 00db 9742     		.uleb128 0x2117
 660 00dd 19       		.uleb128 0x19
 661 00de 01       		.uleb128 0x1
 662 00df 13       		.uleb128 0x13
 663 00e0 00       		.byte	0
 664 00e1 00       		.byte	0
 665 00e2 10       		.uleb128 0x10
 666 00e3 05       		.uleb128 0x5
 667 00e4 00       		.byte	0
 668 00e5 03       		.uleb128 0x3
 669 00e6 0E       		.uleb128 0xe
 670 00e7 3A       		.uleb128 0x3a
 671 00e8 0B       		.uleb128 0xb
 672 00e9 3B       		.uleb128 0x3b
 673 00ea 0B       		.uleb128 0xb
 674 00eb 49       		.uleb128 0x49
 675 00ec 13       		.uleb128 0x13
 676 00ed 02       		.uleb128 0x2
 677 00ee 17       		.uleb128 0x17
 678 00ef 00       		.byte	0
 679 00f0 00       		.byte	0
 680 00f1 11       		.uleb128 0x11
 681 00f2 34       		.uleb128 0x34
 682 00f3 00       		.byte	0
ARM GAS  /var/folders/7z/kps_xzfj7sn5l5gkyq8s9db00000gn/T//ccUy0cgF.s 			page 13


 683 00f4 03       		.uleb128 0x3
 684 00f5 0E       		.uleb128 0xe
 685 00f6 3A       		.uleb128 0x3a
 686 00f7 0B       		.uleb128 0xb
 687 00f8 3B       		.uleb128 0x3b
 688 00f9 0B       		.uleb128 0xb
 689 00fa 49       		.uleb128 0x49
 690 00fb 13       		.uleb128 0x13
 691 00fc 02       		.uleb128 0x2
 692 00fd 17       		.uleb128 0x17
 693 00fe 00       		.byte	0
 694 00ff 00       		.byte	0
 695 0100 12       		.uleb128 0x12
 696 0101 34       		.uleb128 0x34
 697 0102 00       		.byte	0
 698 0103 03       		.uleb128 0x3
 699 0104 0E       		.uleb128 0xe
 700 0105 3A       		.uleb128 0x3a
 701 0106 0B       		.uleb128 0xb
 702 0107 3B       		.uleb128 0x3b
 703 0108 05       		.uleb128 0x5
 704 0109 49       		.uleb128 0x49
 705 010a 13       		.uleb128 0x13
 706 010b 3F       		.uleb128 0x3f
 707 010c 19       		.uleb128 0x19
 708 010d 3C       		.uleb128 0x3c
 709 010e 19       		.uleb128 0x19
 710 010f 00       		.byte	0
 711 0110 00       		.byte	0
 712 0111 00       		.byte	0
 713              		.section	.debug_loc,"",%progbits
 714              	.Ldebug_loc0:
 715              	.LLST0:
 716 0000 00000000 		.4byte	.LVL3
 717 0004 0A000000 		.4byte	.LVL5
 718 0008 0100     		.2byte	0x1
 719 000a 50       		.byte	0x50
 720 000b 0A000000 		.4byte	.LVL5
 721 000f 14000000 		.4byte	.LFE116
 722 0013 0400     		.2byte	0x4
 723 0015 F3       		.byte	0xf3
 724 0016 01       		.uleb128 0x1
 725 0017 50       		.byte	0x50
 726 0018 9F       		.byte	0x9f
 727 0019 00000000 		.4byte	0
 728 001d 00000000 		.4byte	0
 729              	.LLST1:
 730 0021 00000000 		.4byte	.LVL3
 731 0025 04000000 		.4byte	.LVL4
 732 0029 0200     		.2byte	0x2
 733 002b 30       		.byte	0x30
 734 002c 9F       		.byte	0x9f
 735 002d 04000000 		.4byte	.LVL4
 736 0031 0A000000 		.4byte	.LVL5
 737 0035 0C00     		.2byte	0xc
 738 0037 70       		.byte	0x70
 739 0038 00       		.sleb128 0
ARM GAS  /var/folders/7z/kps_xzfj7sn5l5gkyq8s9db00000gn/T//ccUy0cgF.s 			page 14


 740 0039 0A       		.byte	0xa
 741 003a FFFF     		.2byte	0xffff
 742 003c 1A       		.byte	0x1a
 743 003d 73       		.byte	0x73
 744 003e 00       		.sleb128 0
 745 003f 1A       		.byte	0x1a
 746 0040 30       		.byte	0x30
 747 0041 2E       		.byte	0x2e
 748 0042 9F       		.byte	0x9f
 749 0043 0A000000 		.4byte	.LVL5
 750 0047 14000000 		.4byte	.LFE116
 751 004b 0D00     		.2byte	0xd
 752 004d F3       		.byte	0xf3
 753 004e 01       		.uleb128 0x1
 754 004f 50       		.byte	0x50
 755 0050 0A       		.byte	0xa
 756 0051 FFFF     		.2byte	0xffff
 757 0053 1A       		.byte	0x1a
 758 0054 73       		.byte	0x73
 759 0055 00       		.sleb128 0
 760 0056 1A       		.byte	0x1a
 761 0057 30       		.byte	0x30
 762 0058 2E       		.byte	0x2e
 763 0059 9F       		.byte	0x9f
 764 005a 00000000 		.4byte	0
 765 005e 00000000 		.4byte	0
 766              		.section	.debug_aranges,"",%progbits
 767 0000 44000000 		.4byte	0x44
 768 0004 0200     		.2byte	0x2
 769 0006 00000000 		.4byte	.Ldebug_info0
 770 000a 04       		.byte	0x4
 771 000b 00       		.byte	0
 772 000c 0000     		.2byte	0
 773 000e 0000     		.2byte	0
 774 0010 00000000 		.4byte	.LFB111
 775 0014 0C000000 		.4byte	.LFE111-.LFB111
 776 0018 00000000 		.4byte	.LFB112
 777 001c 0C000000 		.4byte	.LFE112-.LFB112
 778 0020 00000000 		.4byte	.LFB113
 779 0024 0C000000 		.4byte	.LFE113-.LFB113
 780 0028 00000000 		.4byte	.LFB114
 781 002c 10000000 		.4byte	.LFE114-.LFB114
 782 0030 00000000 		.4byte	.LFB115
 783 0034 10000000 		.4byte	.LFE115-.LFB115
 784 0038 00000000 		.4byte	.LFB116
 785 003c 14000000 		.4byte	.LFE116-.LFB116
 786 0040 00000000 		.4byte	0
 787 0044 00000000 		.4byte	0
 788              		.section	.debug_ranges,"",%progbits
 789              	.Ldebug_ranges0:
 790 0000 00000000 		.4byte	.LFB111
 791 0004 0C000000 		.4byte	.LFE111
 792 0008 00000000 		.4byte	.LFB112
 793 000c 0C000000 		.4byte	.LFE112
 794 0010 00000000 		.4byte	.LFB113
 795 0014 0C000000 		.4byte	.LFE113
 796 0018 00000000 		.4byte	.LFB114
ARM GAS  /var/folders/7z/kps_xzfj7sn5l5gkyq8s9db00000gn/T//ccUy0cgF.s 			page 15


 797 001c 10000000 		.4byte	.LFE114
 798 0020 00000000 		.4byte	.LFB115
 799 0024 10000000 		.4byte	.LFE115
 800 0028 00000000 		.4byte	.LFB116
 801 002c 14000000 		.4byte	.LFE116
 802 0030 00000000 		.4byte	0
 803 0034 00000000 		.4byte	0
 804              		.section	.debug_line,"",%progbits
 805              	.Ldebug_line0:
 806 0000 D5010000 		.section	.debug_str,"MS",%progbits,1
 806      02006601 
 806      00000201 
 806      FB0E0D00 
 806      01010101 
 807              	.LASF3:
 808 0000 5F5F7569 		.ascii	"__uint8_t\000"
 808      6E74385F 
 808      7400
 809              	.LASF26:
 810 000a 52656C6F 		.ascii	"Reload\000"
 810      616400
 811              	.LASF28:
 812 0011 49574447 		.ascii	"IWDG_Enable\000"
 812      5F456E61 
 812      626C6500 
 813              	.LASF6:
 814 001d 5F5F696E 		.ascii	"__int32_t\000"
 814      7433325F 
 814      7400
 815              	.LASF24:
 816 0027 49574447 		.ascii	"IWDG_Prescaler\000"
 816      5F507265 
 816      7363616C 
 816      657200
 817              	.LASF34:
 818 0036 62697473 		.ascii	"bitstatus\000"
 818      74617475 
 818      7300
 819              	.LASF31:
 820 0040 6C69622F 		.ascii	"lib/ChibiOS_2.6.6/ext/stdperiph_stm32f4/src/stm32f4"
 820      43686962 
 820      694F535F 
 820      322E362E 
 820      362F6578 
 821 0073 78785F69 		.ascii	"xx_iwdg.c\000"
 821      7764672E 
 821      6300
 822              	.LASF22:
 823 007d 49574447 		.ascii	"IWDG_SetPrescaler\000"
 823      5F536574 
 823      50726573 
 823      63616C65 
 823      7200
 824              	.LASF1:
 825 008f 756E7369 		.ascii	"unsigned char\000"
 825      676E6564 
 825      20636861 
ARM GAS  /var/folders/7z/kps_xzfj7sn5l5gkyq8s9db00000gn/T//ccUy0cgF.s 			page 16


 825      7200
 826              	.LASF25:
 827 009d 49574447 		.ascii	"IWDG_SetReload\000"
 827      5F536574 
 827      52656C6F 
 827      616400
 828              	.LASF27:
 829 00ac 49574447 		.ascii	"IWDG_ReloadCounter\000"
 829      5F52656C 
 829      6F616443 
 829      6F756E74 
 829      657200
 830              	.LASF19:
 831 00bf 466C6167 		.ascii	"FlagStatus\000"
 831      53746174 
 831      757300
 832              	.LASF9:
 833 00ca 6C6F6E67 		.ascii	"long unsigned int\000"
 833      20756E73 
 833      69676E65 
 833      6420696E 
 833      7400
 834              	.LASF21:
 835 00dc 49574447 		.ascii	"IWDG_WriteAccessCmd\000"
 835      5F577269 
 835      74654163 
 835      63657373 
 835      436D6400 
 836              	.LASF18:
 837 00f0 52455345 		.ascii	"RESET\000"
 837      5400
 838              	.LASF32:
 839 00f6 2F557365 		.ascii	"/Users/Baram/oroca_bldc_dev/oroca_bldc_dev/\000"
 839      72732F42 
 839      6172616D 
 839      2F6F726F 
 839      63615F62 
 840              	.LASF35:
 841 0122 49544D5F 		.ascii	"ITM_RxBuffer\000"
 841      52784275 
 841      66666572 
 841      00
 842              	.LASF29:
 843 012f 49574447 		.ascii	"IWDG_FLAG\000"
 843      5F464C41 
 843      4700
 844              	.LASF23:
 845 0139 49574447 		.ascii	"IWDG_WriteAccess\000"
 845      5F577269 
 845      74654163 
 845      63657373 
 845      00
 846              	.LASF8:
 847 014a 5F5F7569 		.ascii	"__uint32_t\000"
 847      6E743332 
 847      5F7400
 848              	.LASF30:
ARM GAS  /var/folders/7z/kps_xzfj7sn5l5gkyq8s9db00000gn/T//ccUy0cgF.s 			page 17


 849 0155 474E5520 		.ascii	"GNU C 4.9.3 20150303 (release) [ARM/embedded-4_9-br"
 849      4320342E 
 849      392E3320 
 849      32303135 
 849      30333033 
 850 0188 616E6368 		.ascii	"anch revision 221220] -mcpu=cortex-m4 -mfloat-abi=h"
 850      20726576 
 850      6973696F 
 850      6E203232 
 850      31323230 
 851 01bb 61726420 		.ascii	"ard -mfpu=fpv4-sp-d16 -mno-thumb-interwork -mthumb "
 851      2D6D6670 
 851      753D6670 
 851      76342D73 
 851      702D6431 
 852 01ee 2D676764 		.ascii	"-ggdb -O2 -std=gnu99 -fomit-frame-pointer -falign-f"
 852      62202D4F 
 852      32202D73 
 852      74643D67 
 852      6E753939 
 853 0221 756E6374 		.ascii	"unctions=16 -ffunction-sections -fdata-sections -fn"
 853      696F6E73 
 853      3D313620 
 853      2D666675 
 853      6E637469 
 854 0254 6F2D636F 		.ascii	"o-common -fsingle-precision-constant\000"
 854      6D6D6F6E 
 854      202D6673 
 854      696E676C 
 854      652D7072 
 855              	.LASF33:
 856 0279 49574447 		.ascii	"IWDG_GetFlagStatus\000"
 856      5F476574 
 856      466C6167 
 856      53746174 
 856      757300
 857              	.LASF12:
 858 028c 756E7369 		.ascii	"unsigned int\000"
 858      676E6564 
 858      20696E74 
 858      00
 859              	.LASF11:
 860 0299 6C6F6E67 		.ascii	"long long unsigned int\000"
 860      206C6F6E 
 860      6720756E 
 860      7369676E 
 860      65642069 
 861              	.LASF13:
 862 02b0 75696E74 		.ascii	"uint8_t\000"
 862      385F7400 
 863              	.LASF15:
 864 02b8 696E7433 		.ascii	"int32_t\000"
 864      325F7400 
 865              	.LASF17:
 866 02c0 73697A65 		.ascii	"sizetype\000"
 866      74797065 
 866      00
ARM GAS  /var/folders/7z/kps_xzfj7sn5l5gkyq8s9db00000gn/T//ccUy0cgF.s 			page 18


 867              	.LASF10:
 868 02c9 6C6F6E67 		.ascii	"long long int\000"
 868      206C6F6E 
 868      6720696E 
 868      7400
 869              	.LASF2:
 870 02d7 73686F72 		.ascii	"short int\000"
 870      7420696E 
 870      7400
 871              	.LASF4:
 872 02e1 5F5F7569 		.ascii	"__uint16_t\000"
 872      6E743136 
 872      5F7400
 873              	.LASF14:
 874 02ec 75696E74 		.ascii	"uint16_t\000"
 874      31365F74 
 874      00
 875              	.LASF16:
 876 02f5 75696E74 		.ascii	"uint32_t\000"
 876      33325F74 
 876      00
 877              	.LASF7:
 878 02fe 6C6F6E67 		.ascii	"long int\000"
 878      20696E74 
 878      00
 879              	.LASF0:
 880 0307 7369676E 		.ascii	"signed char\000"
 880      65642063 
 880      68617200 
 881              	.LASF5:
 882 0313 73686F72 		.ascii	"short unsigned int\000"
 882      7420756E 
 882      7369676E 
 882      65642069 
 882      6E7400
 883              	.LASF20:
 884 0326 49574447 		.ascii	"IWDG_TypeDef\000"
 884      5F547970 
 884      65446566 
 884      00
 885              		.ident	"GCC: (GNU Tools for ARM Embedded Processors) 4.9.3 20150303 (release) [ARM/embedded-4_9-br
ARM GAS  /var/folders/7z/kps_xzfj7sn5l5gkyq8s9db00000gn/T//ccUy0cgF.s 			page 19


DEFINED SYMBOLS
                            *ABS*:0000000000000000 stm32f4xx_iwdg.c
/var/folders/7z/kps_xzfj7sn5l5gkyq8s9db00000gn/T//ccUy0cgF.s:21     .text.IWDG_WriteAccessCmd:0000000000000000 $t
/var/folders/7z/kps_xzfj7sn5l5gkyq8s9db00000gn/T//ccUy0cgF.s:27     .text.IWDG_WriteAccessCmd:0000000000000000 IWDG_WriteAccessCmd
/var/folders/7z/kps_xzfj7sn5l5gkyq8s9db00000gn/T//ccUy0cgF.s:43     .text.IWDG_WriteAccessCmd:0000000000000008 $d
/var/folders/7z/kps_xzfj7sn5l5gkyq8s9db00000gn/T//ccUy0cgF.s:48     .text.IWDG_SetPrescaler:0000000000000000 $t
/var/folders/7z/kps_xzfj7sn5l5gkyq8s9db00000gn/T//ccUy0cgF.s:54     .text.IWDG_SetPrescaler:0000000000000000 IWDG_SetPrescaler
/var/folders/7z/kps_xzfj7sn5l5gkyq8s9db00000gn/T//ccUy0cgF.s:69     .text.IWDG_SetPrescaler:0000000000000008 $d
/var/folders/7z/kps_xzfj7sn5l5gkyq8s9db00000gn/T//ccUy0cgF.s:74     .text.IWDG_SetReload:0000000000000000 $t
/var/folders/7z/kps_xzfj7sn5l5gkyq8s9db00000gn/T//ccUy0cgF.s:80     .text.IWDG_SetReload:0000000000000000 IWDG_SetReload
/var/folders/7z/kps_xzfj7sn5l5gkyq8s9db00000gn/T//ccUy0cgF.s:95     .text.IWDG_SetReload:0000000000000008 $d
/var/folders/7z/kps_xzfj7sn5l5gkyq8s9db00000gn/T//ccUy0cgF.s:100    .text.IWDG_ReloadCounter:0000000000000000 $t
/var/folders/7z/kps_xzfj7sn5l5gkyq8s9db00000gn/T//ccUy0cgF.s:106    .text.IWDG_ReloadCounter:0000000000000000 IWDG_ReloadCounter
/var/folders/7z/kps_xzfj7sn5l5gkyq8s9db00000gn/T//ccUy0cgF.s:121    .text.IWDG_ReloadCounter:000000000000000c $d
/var/folders/7z/kps_xzfj7sn5l5gkyq8s9db00000gn/T//ccUy0cgF.s:126    .text.IWDG_Enable:0000000000000000 $t
/var/folders/7z/kps_xzfj7sn5l5gkyq8s9db00000gn/T//ccUy0cgF.s:132    .text.IWDG_Enable:0000000000000000 IWDG_Enable
/var/folders/7z/kps_xzfj7sn5l5gkyq8s9db00000gn/T//ccUy0cgF.s:147    .text.IWDG_Enable:000000000000000c $d
/var/folders/7z/kps_xzfj7sn5l5gkyq8s9db00000gn/T//ccUy0cgF.s:152    .text.IWDG_GetFlagStatus:0000000000000000 $t
/var/folders/7z/kps_xzfj7sn5l5gkyq8s9db00000gn/T//ccUy0cgF.s:158    .text.IWDG_GetFlagStatus:0000000000000000 IWDG_GetFlagStatus
/var/folders/7z/kps_xzfj7sn5l5gkyq8s9db00000gn/T//ccUy0cgF.s:180    .text.IWDG_GetFlagStatus:0000000000000010 $d
                     .debug_frame:0000000000000010 $d
/var/folders/7z/kps_xzfj7sn5l5gkyq8s9db00000gn/T//ccUy0cgF.s:47     .text.IWDG_WriteAccessCmd:000000000000000c $t
/var/folders/7z/kps_xzfj7sn5l5gkyq8s9db00000gn/T//ccUy0cgF.s:73     .text.IWDG_SetPrescaler:000000000000000c $t
/var/folders/7z/kps_xzfj7sn5l5gkyq8s9db00000gn/T//ccUy0cgF.s:99     .text.IWDG_SetReload:000000000000000c $t
/var/folders/7z/kps_xzfj7sn5l5gkyq8s9db00000gn/T//ccUy0cgF.s:184    .text.IWDG_GetFlagStatus:0000000000000014 $t

NO UNDEFINED SYMBOLS
