ARM GAS  /var/folders/7z/kps_xzfj7sn5l5gkyq8s9db00000gn/T//ccUy0cgF.s 			page 1


   1              		.syntax unified
   2              		.cpu cortex-m4
   3              		.eabi_attribute 27, 1
   4              		.eabi_attribute 28, 1
   5              		.fpu fpv4-sp-d16
   6              		.eabi_attribute 20, 1
   7              		.eabi_attribute 21, 1
   8              		.eabi_attribute 23, 3
   9              		.eabi_attribute 24, 1
  10              		.eabi_attribute 25, 1
  11              		.eabi_attribute 26, 1
  12              		.eabi_attribute 30, 2
  13              		.eabi_attribute 34, 1
  14              		.eabi_attribute 18, 4
  15              		.thumb
  16              		.file	"stm32f4xx_iwdg.c"
  17              		.text
  18              	.Ltext0:
  19              		.cfi_sections	.debug_frame
  20              		.section	.text.IWDG_WriteAccessCmd,"ax",%progbits
  21              		.align	2
  22              		.p2align 4,,15
  23              		.global	IWDG_WriteAccessCmd
  24              		.thumb
  25              		.thumb_func
  26              		.type	IWDG_WriteAccessCmd, %function
  27              	IWDG_WriteAccessCmd:
  28              	.LFB111:
  29              		.file 1 "lib/ChibiOS_2.6.6/ext/stdperiph_stm32f4/src/stm32f4xx_iwdg.c"
  30              		.loc 1 136 0
  31              		.cfi_startproc
  32              		@ args = 0, pretend = 0, frame = 0
  33              		@ frame_needed = 0, uses_anonymous_args = 0
  34              		@ link register save eliminated.
  35              	.LVL0:
  36              		.loc 1 139 0
  37 0000 014B     		ldr	r3, .L2
  38 0002 1860     		str	r0, [r3]
  39 0004 7047     		bx	lr
  40              	.L3:
  41 0006 00BF     		.align	2
  42              	.L2:
  43 0008 00300040 		.word	1073754112
  44              		.cfi_endproc
  45              	.LFE111:
  46              		.size	IWDG_WriteAccessCmd, .-IWDG_WriteAccessCmd
  47 000c AFF30080 		.section	.text.IWDG_SetPrescaler,"ax",%progbits
  48              		.align	2
  49              		.p2align 4,,15
  50              		.global	IWDG_SetPrescaler
  51              		.thumb
  52              		.thumb_func
  53              		.type	IWDG_SetPrescaler, %function
  54              	IWDG_SetPrescaler:
  55              	.LFB112:
  56              		.loc 1 156 0
  57              		.cfi_startproc
ARM GAS  /var/folders/7z/kps_xzfj7sn5l5gkyq8s9db00000gn/T//ccUy0cgF.s 			page 2


  58              		@ args = 0, pretend = 0, frame = 0
  59              		@ frame_needed = 0, uses_anonymous_args = 0
  60              		@ link register save eliminated.
  61              	.LVL1:
  62              		.loc 1 159 0
  63 0000 014B     		ldr	r3, .L5
  64 0002 5860     		str	r0, [r3, #4]
  65 0004 7047     		bx	lr
  66              	.L6:
  67 0006 00BF     		.align	2
  68              	.L5:
  69 0008 00300040 		.word	1073754112
  70              		.cfi_endproc
  71              	.LFE112:
  72              		.size	IWDG_SetPrescaler, .-IWDG_SetPrescaler
  73 000c AFF30080 		.section	.text.IWDG_SetReload,"ax",%progbits
  74              		.align	2
  75              		.p2align 4,,15
  76              		.global	IWDG_SetReload
  77              		.thumb
  78              		.thumb_func
  79              		.type	IWDG_SetReload, %function
  80              	IWDG_SetReload:
  81              	.LFB113:
  82              		.loc 1 169 0
  83              		.cfi_startproc
  84              		@ args = 0, pretend = 0, frame = 0
  85              		@ frame_needed = 0, uses_anonymous_args = 0
  86              		@ link register save eliminated.
  87              	.LVL2:
  88              		.loc 1 172 0
  89 0000 014B     		ldr	r3, .L8
  90 0002 9860     		str	r0, [r3, #8]
  91 0004 7047     		bx	lr
  92              	.L9:
  93 0006 00BF     		.align	2
  94              	.L8:
  95 0008 00300040 		.word	1073754112
  96              		.cfi_endproc
  97              	.LFE113:
  98              		.size	IWDG_SetReload, .-IWDG_SetReload
  99 000c AFF30080 		.section	.text.IWDG_ReloadCounter,"ax",%progbits
 100              		.align	2
 101              		.p2align 4,,15
 102              		.global	IWDG_ReloadCounter
 103              		.thumb
 104              		.thumb_func
 105              		.type	IWDG_ReloadCounter, %function
 106              	IWDG_ReloadCounter:
 107              	.LFB114:
 108              		.loc 1 182 0
 109              		.cfi_startproc
 110              		@ args = 0, pretend = 0, frame = 0
 111              		@ frame_needed = 0, uses_anonymous_args = 0
 112              		@ link register save eliminated.
 113              		.loc 1 183 0
 114 0000 024B     		ldr	r3, .L11
ARM GAS  /var/folders/7z/kps_xzfj7sn5l5gkyq8s9db00000gn/T//ccUy0cgF.s 			page 3


 115 0002 4AF6AA22 		movw	r2, #43690
 116 0006 1A60     		str	r2, [r3]
 117 0008 7047     		bx	lr
 118              	.L12:
 119 000a 00BF     		.align	2
 120              	.L11:
 121 000c 00300040 		.word	1073754112
 122              		.cfi_endproc
 123              	.LFE114:
 124              		.size	IWDG_ReloadCounter, .-IWDG_ReloadCounter
 125              		.section	.text.IWDG_Enable,"ax",%progbits
 126              		.align	2
 127              		.p2align 4,,15
 128              		.global	IWDG_Enable
 129              		.thumb
 130              		.thumb_func
 131              		.type	IWDG_Enable, %function
 132              	IWDG_Enable:
 133              	.LFB115:
 134              		.loc 1 208 0
 135              		.cfi_startproc
 136              		@ args = 0, pretend = 0, frame = 0
 137              		@ frame_needed = 0, uses_anonymous_args = 0
 138              		@ link register save eliminated.
 139              		.loc 1 209 0
 140 0000 024B     		ldr	r3, .L14
 141 0002 4CF6CC42 		movw	r2, #52428
 142 0006 1A60     		str	r2, [r3]
 143 0008 7047     		bx	lr
 144              	.L15:
 145 000a 00BF     		.align	2
 146              	.L14:
 147 000c 00300040 		.word	1073754112
 148              		.cfi_endproc
 149              	.LFE115:
 150              		.size	IWDG_Enable, .-IWDG_Enable
 151              		.section	.text.IWDG_GetFlagStatus,"ax",%progbits
 152              		.align	2
 153              		.p2align 4,,15
 154              		.global	IWDG_GetFlagStatus
 155              		.thumb
 156              		.thumb_func
 157              		.type	IWDG_GetFlagStatus, %function
 158              	IWDG_GetFlagStatus:
 159              	.LFB116:
 160              		.loc 1 237 0
 161              		.cfi_startproc
 162              		@ args = 0, pretend = 0, frame = 0
 163              		@ frame_needed = 0, uses_anonymous_args = 0
 164              		@ link register save eliminated.
 165              	.LVL3:
 166              		.loc 1 241 0
 167 0000 034B     		ldr	r3, .L17
 168 0002 DB68     		ldr	r3, [r3, #12]
 169              	.LVL4:
 170 0004 1842     		tst	r0, r3
 171              		.loc 1 251 0
ARM GAS  /var/folders/7z/kps_xzfj7sn5l5gkyq8s9db00000gn/T//ccUy0cgF.s 			page 4


 172 0006 14BF     		ite	ne
 173 0008 0120     		movne	r0, #1
 174              	.LVL5:
 175 000a 0020     		moveq	r0, #0
 176 000c 7047     		bx	lr
 177              	.L18:
 178 000e 00BF     		.align	2
 179              	.L17:
 180 0010 00300040 		.word	1073754112
 181              		.cfi_endproc
 182              	.LFE116:
 183              		.size	IWDG_GetFlagStatus, .-IWDG_GetFlagStatus
 184 0014 AFF30080 		.text
 184      AFF30080 
 184      AFF30080 
 185              	.Letext0:
 186              		.file 2 "/Users/Baram/gcc-arm-none-eabi/arm-none-eabi/include/machine/_default_types.h"
 187              		.file 3 "/Users/Baram/gcc-arm-none-eabi/arm-none-eabi/include/stdint.h"
 188              		.file 4 "lib/ChibiOS_2.6.6/os/hal/platforms/STM32F4xx/stm32f4xx.h"
 189              		.file 5 "lib/ChibiOS_2.6.6/os/ports/common/ARMCMx/CMSIS/include/core_cm4.h"