ARM GAS  /var/folders/7z/kps_xzfj7sn5l5gkyq8s9db00000gn/T//ccuFu8Tr.s 			page 1


   1              		.syntax unified
   2              		.cpu cortex-m4
   3              		.eabi_attribute 27, 1
   4              		.eabi_attribute 28, 1
   5              		.fpu fpv4-sp-d16
   6              		.eabi_attribute 20, 1
   7              		.eabi_attribute 21, 1
   8              		.eabi_attribute 23, 3
   9              		.eabi_attribute 24, 1
  10              		.eabi_attribute 25, 1
  11              		.eabi_attribute 26, 1
  12              		.eabi_attribute 30, 2
  13              		.eabi_attribute 34, 1
  14              		.eabi_attribute 18, 4
  15              		.thumb
  16              		.file	"stm32f4xx_rcc.c"
  17              		.text
  18              	.Ltext0:
  19              		.cfi_sections	.debug_frame
  20              		.section	.text.RCC_DeInit,"ax",%progbits
  21              		.align	2
  22              		.p2align 4,,15
  23              		.global	RCC_DeInit
  24              		.thumb
  25              		.thumb_func
  26              		.type	RCC_DeInit, %function
  27              	RCC_DeInit:
  28              	.LFB111:
  29              		.file 1 "lib/ChibiOS_2.6.6/ext/stdperiph_stm32f4/src/stm32f4xx_rcc.c"
  30              		.loc 1 203 0
  31              		.cfi_startproc
  32              		@ args = 0, pretend = 0, frame = 0
  33              		@ frame_needed = 0, uses_anonymous_args = 0
  34              		@ link register save eliminated.
  35              		.loc 1 205 0
  36 0000 0A4B     		ldr	r3, .L2
  37              		.loc 1 214 0
  38 0002 0B48     		ldr	r0, .L2+4
  39              		.loc 1 205 0
  40 0004 1A68     		ldr	r2, [r3]
  41              		.loc 1 208 0
  42 0006 0021     		movs	r1, #0
  43              		.loc 1 205 0
  44 0008 42F00102 		orr	r2, r2, #1
  45 000c 1A60     		str	r2, [r3]
  46              		.loc 1 208 0
  47 000e 9960     		str	r1, [r3, #8]
  48              		.loc 1 211 0
  49 0010 1A68     		ldr	r2, [r3]
  50 0012 22F08472 		bic	r2, r2, #17301504
  51 0016 22F48032 		bic	r2, r2, #65536
  52 001a 1A60     		str	r2, [r3]
  53              		.loc 1 214 0
  54 001c 5860     		str	r0, [r3, #4]
  55              		.loc 1 217 0
  56 001e 1A68     		ldr	r2, [r3]
  57 0020 22F48022 		bic	r2, r2, #262144
ARM GAS  /var/folders/7z/kps_xzfj7sn5l5gkyq8s9db00000gn/T//ccuFu8Tr.s 			page 2


  58 0024 1A60     		str	r2, [r3]
  59              		.loc 1 220 0
  60 0026 D960     		str	r1, [r3, #12]
  61 0028 7047     		bx	lr
  62              	.L3:
  63 002a 00BF     		.align	2
  64              	.L2:
  65 002c 00380240 		.word	1073887232
  66 0030 10300024 		.word	603992080
  67              		.cfi_endproc
  68              	.LFE111:
  69              		.size	RCC_DeInit, .-RCC_DeInit
  70 0034 AFF30080 		.section	.text.RCC_HSEConfig,"ax",%progbits
  70      AFF30080 
  70      AFF30080 
  71              		.align	2
  72              		.p2align 4,,15
  73              		.global	RCC_HSEConfig
  74              		.thumb
  75              		.thumb_func
  76              		.type	RCC_HSEConfig, %function
  77              	RCC_HSEConfig:
  78              	.LFB112:
  79              		.loc 1 244 0
  80              		.cfi_startproc
  81              		@ args = 0, pretend = 0, frame = 0
  82              		@ frame_needed = 0, uses_anonymous_args = 0
  83              		@ link register save eliminated.
  84              	.LVL0:
  85              		.loc 1 249 0
  86 0000 024B     		ldr	r3, .L5
  87 0002 0022     		movs	r2, #0
  88 0004 1A70     		strb	r2, [r3]
  89              		.loc 1 252 0
  90 0006 1870     		strb	r0, [r3]
  91 0008 7047     		bx	lr
  92              	.L6:
  93 000a 00BF     		.align	2
  94              	.L5:
  95 000c 02380240 		.word	1073887234
  96              		.cfi_endproc
  97              	.LFE112:
  98              		.size	RCC_HSEConfig, .-RCC_HSEConfig
  99              		.section	.text.RCC_WaitForHSEStartUp,"ax",%progbits
 100              		.align	2
 101              		.p2align 4,,15
 102              		.global	RCC_WaitForHSEStartUp
 103              		.thumb
 104              		.thumb_func
 105              		.type	RCC_WaitForHSEStartUp, %function
 106              	RCC_WaitForHSEStartUp:
 107              	.LFB113:
 108              		.loc 1 268 0
 109              		.cfi_startproc
 110              		@ args = 0, pretend = 0, frame = 8
 111              		@ frame_needed = 0, uses_anonymous_args = 0
 112              		@ link register save eliminated.
ARM GAS  /var/folders/7z/kps_xzfj7sn5l5gkyq8s9db00000gn/T//ccuFu8Tr.s 			page 3


 113 0000 82B0     		sub	sp, sp, #8
 114              		.cfi_def_cfa_offset 8
 115              		.loc 1 269 0
 116 0002 0023     		movs	r3, #0
 117              	.LBB6:
 118              	.LBB7:
 119              		.loc 1 1704 0
 120 0004 0A4A     		ldr	r2, .L18
 121              	.LBE7:
 122              	.LBE6:
 123              		.loc 1 269 0
 124 0006 0193     		str	r3, [sp, #4]
 125              	.LVL1:
 126 0008 02E0     		b	.L11
 127              	.LVL2:
 128              	.L17:
 129              		.loc 1 277 0
 130 000a B3F5A04F 		cmp	r3, #20480
 131 000e 08D0     		beq	.L10
 132              	.LVL3:
 133              	.L11:
 134              	.LBB10:
 135              	.LBB8:
 136              		.loc 1 1704 0 discriminator 2
 137 0010 1368     		ldr	r3, [r2]
 138              	.LVL4:
 139              		.loc 1 1717 0 discriminator 2
 140 0012 13F4003F 		tst	r3, #131072
 141              	.LBE8:
 142              	.LBE10:
 143              		.loc 1 276 0 discriminator 2
 144 0016 019B     		ldr	r3, [sp, #4]
 145              	.LVL5:
 146 0018 03F10103 		add	r3, r3, #1
 147 001c 0193     		str	r3, [sp, #4]
 148              		.loc 1 277 0 discriminator 2
 149 001e 019B     		ldr	r3, [sp, #4]
 150              	.LBB11:
 151              	.LBB9:
 152              		.loc 1 1717 0 discriminator 2
 153 0020 F3D0     		beq	.L17
 154              	.L10:
 155              	.LVL6:
 156              	.LBE9:
 157              	.LBE11:
 158              	.LBB12:
 159              	.LBB13:
 160              		.loc 1 1704 0
 161 0022 034B     		ldr	r3, .L18
 162 0024 1868     		ldr	r0, [r3]
 163              	.LVL7:
 164              	.LBE13:
 165              	.LBE12:
 166              		.loc 1 287 0
 167 0026 C0F34040 		ubfx	r0, r0, #17, #1
 168              	.LVL8:
 169              		.loc 1 288 0
ARM GAS  /var/folders/7z/kps_xzfj7sn5l5gkyq8s9db00000gn/T//ccuFu8Tr.s 			page 4


 170 002a 02B0     		add	sp, sp, #8
 171              		.cfi_def_cfa_offset 0
 172              		@ sp needed
 173 002c 7047     		bx	lr
 174              	.L19:
 175 002e 00BF     		.align	2
 176              	.L18:
 177 0030 00380240 		.word	1073887232
 178              		.cfi_endproc
 179              	.LFE113:
 180              		.size	RCC_WaitForHSEStartUp, .-RCC_WaitForHSEStartUp
 181 0034 AFF30080 		.section	.text.RCC_AdjustHSICalibrationValue,"ax",%progbits
 181      AFF30080 
 181      AFF30080 
 182              		.align	2
 183              		.p2align 4,,15
 184              		.global	RCC_AdjustHSICalibrationValue
 185              		.thumb
 186              		.thumb_func
 187              		.type	RCC_AdjustHSICalibrationValue, %function
 188              	RCC_AdjustHSICalibrationValue:
 189              	.LFB114:
 190              		.loc 1 299 0
 191              		.cfi_startproc
 192              		@ args = 0, pretend = 0, frame = 0
 193              		@ frame_needed = 0, uses_anonymous_args = 0
 194              		@ link register save eliminated.
 195              	.LVL9:
 196              		.loc 1 304 0
 197 0000 034A     		ldr	r2, .L21
 198 0002 1368     		ldr	r3, [r2]
 199              	.LVL10:
 200              		.loc 1 307 0
 201 0004 23F0F803 		bic	r3, r3, #248
 202              	.LVL11:
 203              		.loc 1 310 0
 204 0008 43EAC000 		orr	r0, r3, r0, lsl #3
 205              	.LVL12:
 206              		.loc 1 313 0
 207 000c 1060     		str	r0, [r2]
 208 000e 7047     		bx	lr
 209              	.L22:
 210              		.align	2
 211              	.L21:
 212 0010 00380240 		.word	1073887232
 213              		.cfi_endproc
 214              	.LFE114:
 215              		.size	RCC_AdjustHSICalibrationValue, .-RCC_AdjustHSICalibrationValue
 216 0014 AFF30080 		.section	.text.RCC_HSICmd,"ax",%progbits
 216      AFF30080 
 216      AFF30080 
 217              		.align	2
 218              		.p2align 4,,15
 219              		.global	RCC_HSICmd
 220              		.thumb
 221              		.thumb_func
 222              		.type	RCC_HSICmd, %function
ARM GAS  /var/folders/7z/kps_xzfj7sn5l5gkyq8s9db00000gn/T//ccuFu8Tr.s 			page 5


 223              	RCC_HSICmd:
 224              	.LFB115:
 225              		.loc 1 335 0
 226              		.cfi_startproc
 227              		@ args = 0, pretend = 0, frame = 0
 228              		@ frame_needed = 0, uses_anonymous_args = 0
 229              		@ link register save eliminated.
 230              	.LVL13:
 231              		.loc 1 339 0
 232 0000 014B     		ldr	r3, .L24
 233 0002 1860     		str	r0, [r3]
 234 0004 7047     		bx	lr
 235              	.L25:
 236 0006 00BF     		.align	2
 237              	.L24:
 238 0008 00004742 		.word	1111949312
 239              		.cfi_endproc
 240              	.LFE115:
 241              		.size	RCC_HSICmd, .-RCC_HSICmd
 242 000c AFF30080 		.section	.text.RCC_LSEConfig,"ax",%progbits
 243              		.align	2
 244              		.p2align 4,,15
 245              		.global	RCC_LSEConfig
 246              		.thumb
 247              		.thumb_func
 248              		.type	RCC_LSEConfig, %function
 249              	RCC_LSEConfig:
 250              	.LFB116:
 251              		.loc 1 360 0
 252              		.cfi_startproc
 253              		@ args = 0, pretend = 0, frame = 0
 254              		@ frame_needed = 0, uses_anonymous_args = 0
 255              		@ link register save eliminated.
 256              	.LVL14:
 257              		.loc 1 366 0
 258 0000 064B     		ldr	r3, .L31
 259 0002 0022     		movs	r2, #0
 260              		.loc 1 372 0
 261 0004 0128     		cmp	r0, #1
 262              		.loc 1 366 0
 263 0006 1A70     		strb	r2, [r3]
 264              		.loc 1 369 0
 265 0008 1A70     		strb	r2, [r3]
 266              		.loc 1 372 0
 267 000a 05D0     		beq	.L28
 268 000c 0428     		cmp	r0, #4
 269 000e 02D1     		bne	.L30
 270              		.loc 1 380 0
 271 0010 0522     		movs	r2, #5
 272 0012 1A70     		strb	r2, [r3]
 273 0014 7047     		bx	lr
 274              	.L30:
 275 0016 7047     		bx	lr
 276              	.L28:
 277              		.loc 1 376 0
 278 0018 1870     		strb	r0, [r3]
 279              		.loc 1 377 0
ARM GAS  /var/folders/7z/kps_xzfj7sn5l5gkyq8s9db00000gn/T//ccuFu8Tr.s 			page 6


 280 001a 7047     		bx	lr
 281              	.L32:
 282              		.align	2
 283              	.L31:
 284 001c 70380240 		.word	1073887344
 285              		.cfi_endproc
 286              	.LFE116:
 287              		.size	RCC_LSEConfig, .-RCC_LSEConfig
 288              		.section	.text.RCC_LSICmd,"ax",%progbits
 289              		.align	2
 290              		.p2align 4,,15
 291              		.global	RCC_LSICmd
 292              		.thumb
 293              		.thumb_func
 294              		.type	RCC_LSICmd, %function
 295              	RCC_LSICmd:
 296              	.LFB117:
 297              		.loc 1 400 0
 298              		.cfi_startproc
 299              		@ args = 0, pretend = 0, frame = 0
 300              		@ frame_needed = 0, uses_anonymous_args = 0
 301              		@ link register save eliminated.
 302              	.LVL15:
 303              		.loc 1 404 0
 304 0000 014B     		ldr	r3, .L34
 305 0002 1860     		str	r0, [r3]
 306 0004 7047     		bx	lr
 307              	.L35:
 308 0006 00BF     		.align	2
 309              	.L34:
 310 0008 800E4742 		.word	1111953024
 311              		.cfi_endproc
 312              	.LFE117:
 313              		.size	RCC_LSICmd, .-RCC_LSICmd
 314 000c AFF30080 		.section	.text.RCC_PLLConfig,"ax",%progbits
 315              		.align	2
 316              		.p2align 4,,15
 317              		.global	RCC_PLLConfig
 318              		.thumb
 319              		.thumb_func
 320              		.type	RCC_PLLConfig, %function
 321              	RCC_PLLConfig:
 322              	.LFB118:
 323              		.loc 1 443 0
 324              		.cfi_startproc
 325              		@ args = 4, pretend = 0, frame = 0
 326              		@ frame_needed = 0, uses_anonymous_args = 0
 327              		@ link register save eliminated.
 328              	.LVL16:
 329 0000 30B4     		push	{r4, r5}
 330              		.cfi_def_cfa_offset 8
 331              		.cfi_offset 4, -8
 332              		.cfi_offset 5, -4
 333              		.loc 1 443 0
 334 0002 029C     		ldr	r4, [sp, #8]
 335              		.loc 1 451 0
 336 0004 064D     		ldr	r5, .L38
ARM GAS  /var/folders/7z/kps_xzfj7sn5l5gkyq8s9db00000gn/T//ccuFu8Tr.s 			page 7


 337 0006 40EA0460 		orr	r0, r0, r4, lsl #24
 338              	.LVL17:
 339 000a 0143     		orrs	r1, r1, r0
 340              	.LVL18:
 341 000c 5B08     		lsrs	r3, r3, #1
 342              	.LVL19:
 343 000e 013B     		subs	r3, r3, #1
 344 0010 41EA8212 		orr	r2, r1, r2, lsl #6
 345              	.LVL20:
 346 0014 42EA0340 		orr	r0, r2, r3, lsl #16
 347 0018 6860     		str	r0, [r5, #4]
 348              	.LVL21:
 349              		.loc 1 453 0
 350 001a 30BC     		pop	{r4, r5}
 351              		.cfi_restore 5
 352              		.cfi_restore 4
 353              		.cfi_def_cfa_offset 0
 354 001c 7047     		bx	lr
 355              	.L39:
 356 001e 00BF     		.align	2
 357              	.L38:
 358 0020 00380240 		.word	1073887232
 359              		.cfi_endproc
 360              	.LFE118:
 361              		.size	RCC_PLLConfig, .-RCC_PLLConfig
 362 0024 AFF30080 		.section	.text.RCC_PLLCmd,"ax",%progbits
 362      AFF30080 
 362      AFF30080 
 363              		.align	2
 364              		.p2align 4,,15
 365              		.global	RCC_PLLCmd
 366              		.thumb
 367              		.thumb_func
 368              		.type	RCC_PLLCmd, %function
 369              	RCC_PLLCmd:
 370              	.LFB119:
 371              		.loc 1 466 0
 372              		.cfi_startproc
 373              		@ args = 0, pretend = 0, frame = 0
 374              		@ frame_needed = 0, uses_anonymous_args = 0
 375              		@ link register save eliminated.
 376              	.LVL22:
 377              		.loc 1 469 0
 378 0000 014B     		ldr	r3, .L41
 379 0002 1860     		str	r0, [r3]
 380 0004 7047     		bx	lr
 381              	.L42:
 382 0006 00BF     		.align	2
 383              	.L41:
 384 0008 60004742 		.word	1111949408
 385              		.cfi_endproc
 386              	.LFE119:
 387              		.size	RCC_PLLCmd, .-RCC_PLLCmd
 388 000c AFF30080 		.section	.text.RCC_PLLI2SConfig,"ax",%progbits
 389              		.align	2
 390              		.p2align 4,,15
 391              		.global	RCC_PLLI2SConfig
ARM GAS  /var/folders/7z/kps_xzfj7sn5l5gkyq8s9db00000gn/T//ccuFu8Tr.s 			page 8


 392              		.thumb
 393              		.thumb_func
 394              		.type	RCC_PLLI2SConfig, %function
 395              	RCC_PLLI2SConfig:
 396              	.LFB120:
 397              		.loc 1 492 0
 398              		.cfi_startproc
 399              		@ args = 0, pretend = 0, frame = 0
 400              		@ frame_needed = 0, uses_anonymous_args = 0
 401              		@ link register save eliminated.
 402              	.LVL23:
 403              		.loc 1 497 0
 404 0000 0907     		lsls	r1, r1, #28
 405              	.LVL24:
 406 0002 034B     		ldr	r3, .L44
 407 0004 41EA8010 		orr	r0, r1, r0, lsl #6
 408              	.LVL25:
 409 0008 C3F88400 		str	r0, [r3, #132]
 410 000c 7047     		bx	lr
 411              	.L45:
 412 000e 00BF     		.align	2
 413              	.L44:
 414 0010 00380240 		.word	1073887232
 415              		.cfi_endproc
 416              	.LFE120:
 417              		.size	RCC_PLLI2SConfig, .-RCC_PLLI2SConfig
 418 0014 AFF30080 		.section	.text.RCC_PLLI2SCmd,"ax",%progbits
 418      AFF30080 
 418      AFF30080 
 419              		.align	2
 420              		.p2align 4,,15
 421              		.global	RCC_PLLI2SCmd
 422              		.thumb
 423              		.thumb_func
 424              		.type	RCC_PLLI2SCmd, %function
 425              	RCC_PLLI2SCmd:
 426              	.LFB121:
 427              		.loc 1 507 0
 428              		.cfi_startproc
 429              		@ args = 0, pretend = 0, frame = 0
 430              		@ frame_needed = 0, uses_anonymous_args = 0
 431              		@ link register save eliminated.
 432              	.LVL26:
 433              		.loc 1 510 0
 434 0000 014B     		ldr	r3, .L47
 435 0002 1860     		str	r0, [r3]
 436 0004 7047     		bx	lr
 437              	.L48:
 438 0006 00BF     		.align	2
 439              	.L47:
 440 0008 68004742 		.word	1111949416
 441              		.cfi_endproc
 442              	.LFE121:
 443              		.size	RCC_PLLI2SCmd, .-RCC_PLLI2SCmd
 444 000c AFF30080 		.section	.text.RCC_ClockSecuritySystemCmd,"ax",%progbits
 445              		.align	2
 446              		.p2align 4,,15
ARM GAS  /var/folders/7z/kps_xzfj7sn5l5gkyq8s9db00000gn/T//ccuFu8Tr.s 			page 9


 447              		.global	RCC_ClockSecuritySystemCmd
 448              		.thumb
 449              		.thumb_func
 450              		.type	RCC_ClockSecuritySystemCmd, %function
 451              	RCC_ClockSecuritySystemCmd:
 452              	.LFB122:
 453              		.loc 1 525 0
 454              		.cfi_startproc
 455              		@ args = 0, pretend = 0, frame = 0
 456              		@ frame_needed = 0, uses_anonymous_args = 0
 457              		@ link register save eliminated.
 458              	.LVL27:
 459              		.loc 1 528 0
 460 0000 014B     		ldr	r3, .L50
 461 0002 1860     		str	r0, [r3]
 462 0004 7047     		bx	lr
 463              	.L51:
 464 0006 00BF     		.align	2
 465              	.L50:
 466 0008 4C004742 		.word	1111949388
 467              		.cfi_endproc
 468              	.LFE122:
 469              		.size	RCC_ClockSecuritySystemCmd, .-RCC_ClockSecuritySystemCmd
 470 000c AFF30080 		.section	.text.RCC_MCO1Config,"ax",%progbits
 471              		.align	2
 472              		.p2align 4,,15
 473              		.global	RCC_MCO1Config
 474              		.thumb
 475              		.thumb_func
 476              		.type	RCC_MCO1Config, %function
 477              	RCC_MCO1Config:
 478              	.LFB123:
 479              		.loc 1 550 0
 480              		.cfi_startproc
 481              		@ args = 0, pretend = 0, frame = 0
 482              		@ frame_needed = 0, uses_anonymous_args = 0
 483              		@ link register save eliminated.
 484              	.LVL28:
 485              		.loc 1 557 0
 486 0000 034A     		ldr	r2, .L53
 487 0002 9368     		ldr	r3, [r2, #8]
 488              	.LVL29:
 489              		.loc 1 560 0
 490 0004 23F0EC63 		bic	r3, r3, #123731968
 491              	.LVL30:
 492 0008 1943     		orrs	r1, r1, r3
 493              	.LVL31:
 494              		.loc 1 563 0
 495 000a 0843     		orrs	r0, r0, r1
 496              	.LVL32:
 497              		.loc 1 566 0
 498 000c 9060     		str	r0, [r2, #8]
 499 000e 7047     		bx	lr
 500              	.L54:
 501              		.align	2
 502              	.L53:
 503 0010 00380240 		.word	1073887232
ARM GAS  /var/folders/7z/kps_xzfj7sn5l5gkyq8s9db00000gn/T//ccuFu8Tr.s 			page 10


 504              		.cfi_endproc
 505              	.LFE123:
 506              		.size	RCC_MCO1Config, .-RCC_MCO1Config
 507 0014 AFF30080 		.section	.text.RCC_MCO2Config,"ax",%progbits
 507      AFF30080 
 507      AFF30080 
 508              		.align	2
 509              		.p2align 4,,15
 510              		.global	RCC_MCO2Config
 511              		.thumb
 512              		.thumb_func
 513              		.type	RCC_MCO2Config, %function
 514              	RCC_MCO2Config:
 515              	.LFB124:
 516              		.loc 1 588 0
 517              		.cfi_startproc
 518              		@ args = 0, pretend = 0, frame = 0
 519              		@ frame_needed = 0, uses_anonymous_args = 0
 520              		@ link register save eliminated.
 521              	.LVL33:
 522              		.loc 1 595 0
 523 0000 034A     		ldr	r2, .L56
 524 0002 9368     		ldr	r3, [r2, #8]
 525              	.LVL34:
 526              		.loc 1 598 0
 527 0004 23F07843 		bic	r3, r3, #-134217728
 528              	.LVL35:
 529 0008 1943     		orrs	r1, r1, r3
 530              	.LVL36:
 531              		.loc 1 601 0
 532 000a 0843     		orrs	r0, r0, r1
 533              	.LVL37:
 534              		.loc 1 604 0
 535 000c 9060     		str	r0, [r2, #8]
 536 000e 7047     		bx	lr
 537              	.L57:
 538              		.align	2
 539              	.L56:
 540 0010 00380240 		.word	1073887232
 541              		.cfi_endproc
 542              	.LFE124:
 543              		.size	RCC_MCO2Config, .-RCC_MCO2Config
 544 0014 AFF30080 		.section	.text.RCC_SYSCLKConfig,"ax",%progbits
 544      AFF30080 
 544      AFF30080 
 545              		.align	2
 546              		.p2align 4,,15
 547              		.global	RCC_SYSCLKConfig
 548              		.thumb
 549              		.thumb_func
 550              		.type	RCC_SYSCLKConfig, %function
 551              	RCC_SYSCLKConfig:
 552              	.LFB125:
 553              		.loc 1 694 0
 554              		.cfi_startproc
 555              		@ args = 0, pretend = 0, frame = 0
 556              		@ frame_needed = 0, uses_anonymous_args = 0
ARM GAS  /var/folders/7z/kps_xzfj7sn5l5gkyq8s9db00000gn/T//ccuFu8Tr.s 			page 11


 557              		@ link register save eliminated.
 558              	.LVL38:
 559              		.loc 1 700 0
 560 0000 034A     		ldr	r2, .L59
 561 0002 9368     		ldr	r3, [r2, #8]
 562              	.LVL39:
 563              		.loc 1 703 0
 564 0004 23F00303 		bic	r3, r3, #3
 565              	.LVL40:
 566              		.loc 1 706 0
 567 0008 1843     		orrs	r0, r0, r3
 568              	.LVL41:
 569              		.loc 1 709 0
 570 000a 9060     		str	r0, [r2, #8]
 571 000c 7047     		bx	lr
 572              	.L60:
 573 000e 00BF     		.align	2
 574              	.L59:
 575 0010 00380240 		.word	1073887232
 576              		.cfi_endproc
 577              	.LFE125:
 578              		.size	RCC_SYSCLKConfig, .-RCC_SYSCLKConfig
 579 0014 AFF30080 		.section	.text.RCC_GetSYSCLKSource,"ax",%progbits
 579      AFF30080 
 579      AFF30080 
 580              		.align	2
 581              		.p2align 4,,15
 582              		.global	RCC_GetSYSCLKSource
 583              		.thumb
 584              		.thumb_func
 585              		.type	RCC_GetSYSCLKSource, %function
 586              	RCC_GetSYSCLKSource:
 587              	.LFB126:
 588              		.loc 1 722 0
 589              		.cfi_startproc
 590              		@ args = 0, pretend = 0, frame = 0
 591              		@ frame_needed = 0, uses_anonymous_args = 0
 592              		@ link register save eliminated.
 593              		.loc 1 723 0
 594 0000 024B     		ldr	r3, .L62
 595 0002 9868     		ldr	r0, [r3, #8]
 596              		.loc 1 724 0
 597 0004 00F00C00 		and	r0, r0, #12
 598 0008 7047     		bx	lr
 599              	.L63:
 600 000a 00BF     		.align	2
 601              	.L62:
 602 000c 00380240 		.word	1073887232
 603              		.cfi_endproc
 604              	.LFE126:
 605              		.size	RCC_GetSYSCLKSource, .-RCC_GetSYSCLKSource
 606              		.section	.text.RCC_HCLKConfig,"ax",%progbits
 607              		.align	2
 608              		.p2align 4,,15
 609              		.global	RCC_HCLKConfig
 610              		.thumb
 611              		.thumb_func
ARM GAS  /var/folders/7z/kps_xzfj7sn5l5gkyq8s9db00000gn/T//ccuFu8Tr.s 			page 12


 612              		.type	RCC_HCLKConfig, %function
 613              	RCC_HCLKConfig:
 614              	.LFB127:
 615              		.loc 1 747 0
 616              		.cfi_startproc
 617              		@ args = 0, pretend = 0, frame = 0
 618              		@ frame_needed = 0, uses_anonymous_args = 0
 619              		@ link register save eliminated.
 620              	.LVL42:
 621              		.loc 1 753 0
 622 0000 034A     		ldr	r2, .L65
 623 0002 9368     		ldr	r3, [r2, #8]
 624              	.LVL43:
 625              		.loc 1 756 0
 626 0004 23F0F003 		bic	r3, r3, #240
 627              	.LVL44:
 628              		.loc 1 759 0
 629 0008 1843     		orrs	r0, r0, r3
 630              	.LVL45:
 631              		.loc 1 762 0
 632 000a 9060     		str	r0, [r2, #8]
 633 000c 7047     		bx	lr
 634              	.L66:
 635 000e 00BF     		.align	2
 636              	.L65:
 637 0010 00380240 		.word	1073887232
 638              		.cfi_endproc
 639              	.LFE127:
 640              		.size	RCC_HCLKConfig, .-RCC_HCLKConfig
 641 0014 AFF30080 		.section	.text.RCC_PCLK1Config,"ax",%progbits
 641      AFF30080 
 641      AFF30080 
 642              		.align	2
 643              		.p2align 4,,15
 644              		.global	RCC_PCLK1Config
 645              		.thumb
 646              		.thumb_func
 647              		.type	RCC_PCLK1Config, %function
 648              	RCC_PCLK1Config:
 649              	.LFB128:
 650              		.loc 1 779 0
 651              		.cfi_startproc
 652              		@ args = 0, pretend = 0, frame = 0
 653              		@ frame_needed = 0, uses_anonymous_args = 0
 654              		@ link register save eliminated.
 655              	.LVL46:
 656              		.loc 1 785 0
 657 0000 034A     		ldr	r2, .L68
 658 0002 9368     		ldr	r3, [r2, #8]
 659              	.LVL47:
 660              		.loc 1 788 0
 661 0004 23F4E053 		bic	r3, r3, #7168
 662              	.LVL48:
 663              		.loc 1 791 0
 664 0008 1843     		orrs	r0, r0, r3
 665              	.LVL49:
 666              		.loc 1 794 0
ARM GAS  /var/folders/7z/kps_xzfj7sn5l5gkyq8s9db00000gn/T//ccuFu8Tr.s 			page 13


 667 000a 9060     		str	r0, [r2, #8]
 668 000c 7047     		bx	lr
 669              	.L69:
 670 000e 00BF     		.align	2
 671              	.L68:
 672 0010 00380240 		.word	1073887232
 673              		.cfi_endproc
 674              	.LFE128:
 675              		.size	RCC_PCLK1Config, .-RCC_PCLK1Config
 676 0014 AFF30080 		.section	.text.RCC_PCLK2Config,"ax",%progbits
 676      AFF30080 
 676      AFF30080 
 677              		.align	2
 678              		.p2align 4,,15
 679              		.global	RCC_PCLK2Config
 680              		.thumb
 681              		.thumb_func
 682              		.type	RCC_PCLK2Config, %function
 683              	RCC_PCLK2Config:
 684              	.LFB129:
 685              		.loc 1 810 0
 686              		.cfi_startproc
 687              		@ args = 0, pretend = 0, frame = 0
 688              		@ frame_needed = 0, uses_anonymous_args = 0
 689              		@ link register save eliminated.
 690              	.LVL50:
 691              		.loc 1 816 0
 692 0000 034A     		ldr	r2, .L71
 693 0002 9368     		ldr	r3, [r2, #8]
 694              	.LVL51:
 695              		.loc 1 819 0
 696 0004 23F46043 		bic	r3, r3, #57344
 697              	.LVL52:
 698              		.loc 1 822 0
 699 0008 43EAC000 		orr	r0, r3, r0, lsl #3
 700              	.LVL53:
 701              		.loc 1 825 0
 702 000c 9060     		str	r0, [r2, #8]
 703 000e 7047     		bx	lr
 704              	.L72:
 705              		.align	2
 706              	.L71:
 707 0010 00380240 		.word	1073887232
 708              		.cfi_endproc
 709              	.LFE129:
 710              		.size	RCC_PCLK2Config, .-RCC_PCLK2Config
 711 0014 AFF30080 		.section	.text.RCC_GetClocksFreq,"ax",%progbits
 711      AFF30080 
 711      AFF30080 
 712              		.align	2
 713              		.p2align 4,,15
 714              		.global	RCC_GetClocksFreq
 715              		.thumb
 716              		.thumb_func
 717              		.type	RCC_GetClocksFreq, %function
 718              	RCC_GetClocksFreq:
 719              	.LFB130:
ARM GAS  /var/folders/7z/kps_xzfj7sn5l5gkyq8s9db00000gn/T//ccuFu8Tr.s 			page 14


 720              		.loc 1 862 0
 721              		.cfi_startproc
 722              		@ args = 0, pretend = 0, frame = 0
 723              		@ frame_needed = 0, uses_anonymous_args = 0
 724              		@ link register save eliminated.
 725              	.LVL54:
 726 0000 10B4     		push	{r4}
 727              		.cfi_def_cfa_offset 4
 728              		.cfi_offset 4, -4
 729              		.loc 1 866 0
 730 0002 214C     		ldr	r4, .L85
 731 0004 A368     		ldr	r3, [r4, #8]
 732              	.LVL55:
 733 0006 03F00C03 		and	r3, r3, #12
 734              	.LVL56:
 735              		.loc 1 868 0
 736 000a 042B     		cmp	r3, #4
 737 000c 1BD0     		beq	.L75
 738 000e 082B     		cmp	r3, #8
 739 0010 1CD0     		beq	.L84
 740              		.loc 1 899 0
 741 0012 1E4B     		ldr	r3, .L85+4
 742              	.LVL57:
 743 0014 0360     		str	r3, [r0]
 744              	.LVL58:
 745              	.L78:
 746              		.loc 1 905 0
 747 0016 1C4A     		ldr	r2, .L85
 748              		.loc 1 907 0
 749 0018 1D49     		ldr	r1, .L85+8
 750              		.loc 1 905 0
 751 001a 9468     		ldr	r4, [r2, #8]
 752              	.LVL59:
 753              		.loc 1 906 0
 754 001c C4F30314 		ubfx	r4, r4, #4, #4
 755              	.LVL60:
 756              		.loc 1 907 0
 757 0020 0C5D     		ldrb	r4, [r1, r4]	@ zero_extendqisi2
 758              	.LVL61:
 759              		.loc 1 909 0
 760 0022 E340     		lsrs	r3, r3, r4
 761 0024 4360     		str	r3, [r0, #4]
 762              		.loc 1 912 0
 763 0026 9468     		ldr	r4, [r2, #8]
 764              	.LVL62:
 765              		.loc 1 913 0
 766 0028 C4F38224 		ubfx	r4, r4, #10, #3
 767              	.LVL63:
 768              		.loc 1 914 0
 769 002c 0C5D     		ldrb	r4, [r1, r4]	@ zero_extendqisi2
 770              	.LVL64:
 771              		.loc 1 916 0
 772 002e 23FA04F4 		lsr	r4, r3, r4
 773              	.LVL65:
 774 0032 8460     		str	r4, [r0, #8]
 775              		.loc 1 919 0
 776 0034 9268     		ldr	r2, [r2, #8]
ARM GAS  /var/folders/7z/kps_xzfj7sn5l5gkyq8s9db00000gn/T//ccuFu8Tr.s 			page 15


 777              	.LVL66:
 778              		.loc 1 924 0
 779 0036 5DF8044B 		ldr	r4, [sp], #4
 780              		.cfi_remember_state
 781              		.cfi_restore 4
 782              		.cfi_def_cfa_offset 0
 783              		.loc 1 920 0
 784 003a C2F34232 		ubfx	r2, r2, #13, #3
 785              	.LVL67:
 786              		.loc 1 921 0
 787 003e 8A5C     		ldrb	r2, [r1, r2]	@ zero_extendqisi2
 788              	.LVL68:
 789              		.loc 1 923 0
 790 0040 D340     		lsrs	r3, r3, r2
 791 0042 C360     		str	r3, [r0, #12]
 792              		.loc 1 924 0
 793 0044 7047     		bx	lr
 794              	.LVL69:
 795              	.L75:
 796              		.cfi_restore_state
 797              		.loc 1 874 0
 798 0046 134B     		ldr	r3, .L85+12
 799              	.LVL70:
 800 0048 0360     		str	r3, [r0]
 801              		.loc 1 875 0
 802 004a E4E7     		b	.L78
 803              	.LVL71:
 804              	.L84:
 805              		.loc 1 881 0
 806 004c 6368     		ldr	r3, [r4, #4]
 807              	.LVL72:
 808              		.loc 1 882 0
 809 004e 6168     		ldr	r1, [r4, #4]
 810              		.loc 1 884 0
 811 0050 13F4800F 		tst	r3, #4194304
 812              		.loc 1 887 0
 813 0054 6368     		ldr	r3, [r4, #4]
 814              	.LVL73:
 815 0056 18BF     		it	ne
 816 0058 0E4C     		ldrne	r4, .L85+12
 817              		.loc 1 882 0
 818 005a 01F03F02 		and	r2, r1, #63
 819              	.LVL74:
 820              		.loc 1 892 0
 821 005e 0CBF     		ite	eq
 822 0060 0A49     		ldreq	r1, .L85+4
 823              		.loc 1 887 0
 824 0062 B4FBF2F1 		udivne	r1, r4, r2
 825              		.loc 1 892 0
 826 0066 C3F38813 		ubfx	r3, r3, #6, #9
 827 006a 08BF     		it	eq
 828 006c B1FBF2F1 		udiveq	r1, r1, r2
 829 0070 01FB03F2 		mul	r2, r1, r3
 830              	.LVL75:
 831              		.loc 1 895 0
 832 0074 044B     		ldr	r3, .L85
 833 0076 5B68     		ldr	r3, [r3, #4]
ARM GAS  /var/folders/7z/kps_xzfj7sn5l5gkyq8s9db00000gn/T//ccuFu8Tr.s 			page 16


 834              	.LVL76:
 835 0078 C3F30143 		ubfx	r3, r3, #16, #2
 836              	.LVL77:
 837 007c 0133     		adds	r3, r3, #1
 838 007e 5B00     		lsls	r3, r3, #1
 839              		.loc 1 896 0
 840 0080 B2FBF3F3 		udiv	r3, r2, r3
 841 0084 0360     		str	r3, [r0]
 842              		.loc 1 897 0
 843 0086 C6E7     		b	.L78
 844              	.L86:
 845              		.align	2
 846              	.L85:
 847 0088 00380240 		.word	1073887232
 848 008c 0024F400 		.word	16000000
 849 0090 00000000 		.word	.LANCHOR0
 850 0094 00127A00 		.word	8000000
 851              		.cfi_endproc
 852              	.LFE130:
 853              		.size	RCC_GetClocksFreq, .-RCC_GetClocksFreq
 854 0098 AFF30080 		.section	.text.RCC_RTCCLKConfig,"ax",%progbits
 854      AFF30080 
 855              		.align	2
 856              		.p2align 4,,15
 857              		.global	RCC_RTCCLKConfig
 858              		.thumb
 859              		.thumb_func
 860              		.type	RCC_RTCCLKConfig, %function
 861              	RCC_RTCCLKConfig:
 862              	.LFB131:
 863              		.loc 1 987 0
 864              		.cfi_startproc
 865              		@ args = 0, pretend = 0, frame = 0
 866              		@ frame_needed = 0, uses_anonymous_args = 0
 867              		@ link register save eliminated.
 868              	.LVL78:
 869              		.loc 1 993 0
 870 0000 00F44073 		and	r3, r0, #768
 871 0004 B3F5407F 		cmp	r3, #768
 872 0008 09D1     		bne	.L88
 873              		.loc 1 995 0
 874 000a 0849     		ldr	r1, .L89
 875 000c 8B68     		ldr	r3, [r1, #8]
 876              	.LVL79:
 877              		.loc 1 1001 0
 878 000e 20F07042 		bic	r2, r0, #-268435456
 879              		.loc 1 998 0
 880 0012 23F4F813 		bic	r3, r3, #2031616
 881              	.LVL80:
 882              		.loc 1 1001 0
 883 0016 22F44072 		bic	r2, r2, #768
 884 001a 1343     		orrs	r3, r3, r2
 885              	.LVL81:
 886              		.loc 1 1004 0
 887 001c 8B60     		str	r3, [r1, #8]
 888              	.LVL82:
 889              	.L88:
ARM GAS  /var/folders/7z/kps_xzfj7sn5l5gkyq8s9db00000gn/T//ccuFu8Tr.s 			page 17


 890              		.loc 1 1008 0
 891 001e 034A     		ldr	r2, .L89
 892 0020 136F     		ldr	r3, [r2, #112]
 893 0022 C0F30B00 		ubfx	r0, r0, #0, #12
 894              	.LVL83:
 895 0026 1843     		orrs	r0, r0, r3
 896 0028 1067     		str	r0, [r2, #112]
 897 002a 7047     		bx	lr
 898              	.L90:
 899              		.align	2
 900              	.L89:
 901 002c 00380240 		.word	1073887232
 902              		.cfi_endproc
 903              	.LFE131:
 904              		.size	RCC_RTCCLKConfig, .-RCC_RTCCLKConfig
 905              		.section	.text.RCC_RTCCLKCmd,"ax",%progbits
 906              		.align	2
 907              		.p2align 4,,15
 908              		.global	RCC_RTCCLKCmd
 909              		.thumb
 910              		.thumb_func
 911              		.type	RCC_RTCCLKCmd, %function
 912              	RCC_RTCCLKCmd:
 913              	.LFB132:
 914              		.loc 1 1019 0
 915              		.cfi_startproc
 916              		@ args = 0, pretend = 0, frame = 0
 917              		@ frame_needed = 0, uses_anonymous_args = 0
 918              		@ link register save eliminated.
 919              	.LVL84:
 920              		.loc 1 1023 0
 921 0000 014B     		ldr	r3, .L92
 922 0002 1860     		str	r0, [r3]
 923 0004 7047     		bx	lr
 924              	.L93:
 925 0006 00BF     		.align	2
 926              	.L92:
 927 0008 3C0E4742 		.word	1111952956
 928              		.cfi_endproc
 929              	.LFE132:
 930              		.size	RCC_RTCCLKCmd, .-RCC_RTCCLKCmd
 931 000c AFF30080 		.section	.text.RCC_BackupResetCmd,"ax",%progbits
 932              		.align	2
 933              		.p2align 4,,15
 934              		.global	RCC_BackupResetCmd
 935              		.thumb
 936              		.thumb_func
 937              		.type	RCC_BackupResetCmd, %function
 938              	RCC_BackupResetCmd:
 939              	.LFB133:
 940              		.loc 1 1036 0
 941              		.cfi_startproc
 942              		@ args = 0, pretend = 0, frame = 0
 943              		@ frame_needed = 0, uses_anonymous_args = 0
 944              		@ link register save eliminated.
 945              	.LVL85:
 946              		.loc 1 1039 0
ARM GAS  /var/folders/7z/kps_xzfj7sn5l5gkyq8s9db00000gn/T//ccuFu8Tr.s 			page 18


 947 0000 014B     		ldr	r3, .L95
 948 0002 1860     		str	r0, [r3]
 949 0004 7047     		bx	lr
 950              	.L96:
 951 0006 00BF     		.align	2
 952              	.L95:
 953 0008 400E4742 		.word	1111952960
 954              		.cfi_endproc
 955              	.LFE133:
 956              		.size	RCC_BackupResetCmd, .-RCC_BackupResetCmd
 957 000c AFF30080 		.section	.text.RCC_I2SCLKConfig,"ax",%progbits
 958              		.align	2
 959              		.p2align 4,,15
 960              		.global	RCC_I2SCLKConfig
 961              		.thumb
 962              		.thumb_func
 963              		.type	RCC_I2SCLKConfig, %function
 964              	RCC_I2SCLKConfig:
 965              	.LFB134:
 966              		.loc 1 1053 0
 967              		.cfi_startproc
 968              		@ args = 0, pretend = 0, frame = 0
 969              		@ frame_needed = 0, uses_anonymous_args = 0
 970              		@ link register save eliminated.
 971              	.LVL86:
 972              		.loc 1 1057 0
 973 0000 014B     		ldr	r3, .L98
 974 0002 1860     		str	r0, [r3]
 975 0004 7047     		bx	lr
 976              	.L99:
 977 0006 00BF     		.align	2
 978              	.L98:
 979 0008 5C014742 		.word	1111949660
 980              		.cfi_endproc
 981              	.LFE134:
 982              		.size	RCC_I2SCLKConfig, .-RCC_I2SCLKConfig
 983 000c AFF30080 		.section	.text.RCC_AHB1PeriphClockCmd,"ax",%progbits
 984              		.align	2
 985              		.p2align 4,,15
 986              		.global	RCC_AHB1PeriphClockCmd
 987              		.thumb
 988              		.thumb_func
 989              		.type	RCC_AHB1PeriphClockCmd, %function
 990              	RCC_AHB1PeriphClockCmd:
 991              	.LFB135:
 992              		.loc 1 1092 0
 993              		.cfi_startproc
 994              		@ args = 0, pretend = 0, frame = 0
 995              		@ frame_needed = 0, uses_anonymous_args = 0
 996              		@ link register save eliminated.
 997              	.LVL87:
 998              		.loc 1 1099 0
 999 0000 044A     		ldr	r2, .L104
 1000 0002 136B     		ldr	r3, [r2, #48]
 1001              		.loc 1 1097 0
 1002 0004 19B9     		cbnz	r1, .L103
 1003              		.loc 1 1103 0
ARM GAS  /var/folders/7z/kps_xzfj7sn5l5gkyq8s9db00000gn/T//ccuFu8Tr.s 			page 19


 1004 0006 23EA0000 		bic	r0, r3, r0
 1005              	.LVL88:
 1006 000a 1063     		str	r0, [r2, #48]
 1007 000c 7047     		bx	lr
 1008              	.LVL89:
 1009              	.L103:
 1010              		.loc 1 1099 0
 1011 000e 1843     		orrs	r0, r0, r3
 1012              	.LVL90:
 1013 0010 1063     		str	r0, [r2, #48]
 1014 0012 7047     		bx	lr
 1015              	.L105:
 1016              		.align	2
 1017              	.L104:
 1018 0014 00380240 		.word	1073887232
 1019              		.cfi_endproc
 1020              	.LFE135:
 1021              		.size	RCC_AHB1PeriphClockCmd, .-RCC_AHB1PeriphClockCmd
 1022 0018 AFF30080 		.section	.text.RCC_AHB2PeriphClockCmd,"ax",%progbits
 1022      AFF30080 
 1023              		.align	2
 1024              		.p2align 4,,15
 1025              		.global	RCC_AHB2PeriphClockCmd
 1026              		.thumb
 1027              		.thumb_func
 1028              		.type	RCC_AHB2PeriphClockCmd, %function
 1029              	RCC_AHB2PeriphClockCmd:
 1030              	.LFB136:
 1031              		.loc 1 1124 0
 1032              		.cfi_startproc
 1033              		@ args = 0, pretend = 0, frame = 0
 1034              		@ frame_needed = 0, uses_anonymous_args = 0
 1035              		@ link register save eliminated.
 1036              	.LVL91:
 1037              		.loc 1 1131 0
 1038 0000 044A     		ldr	r2, .L110
 1039 0002 536B     		ldr	r3, [r2, #52]
 1040              		.loc 1 1129 0
 1041 0004 19B9     		cbnz	r1, .L109
 1042              		.loc 1 1135 0
 1043 0006 23EA0000 		bic	r0, r3, r0
 1044              	.LVL92:
 1045 000a 5063     		str	r0, [r2, #52]
 1046 000c 7047     		bx	lr
 1047              	.LVL93:
 1048              	.L109:
 1049              		.loc 1 1131 0
 1050 000e 1843     		orrs	r0, r0, r3
 1051              	.LVL94:
 1052 0010 5063     		str	r0, [r2, #52]
 1053 0012 7047     		bx	lr
 1054              	.L111:
 1055              		.align	2
 1056              	.L110:
 1057 0014 00380240 		.word	1073887232
 1058              		.cfi_endproc
 1059              	.LFE136:
ARM GAS  /var/folders/7z/kps_xzfj7sn5l5gkyq8s9db00000gn/T//ccuFu8Tr.s 			page 20


 1060              		.size	RCC_AHB2PeriphClockCmd, .-RCC_AHB2PeriphClockCmd
 1061 0018 AFF30080 		.section	.text.RCC_AHB3PeriphClockCmd,"ax",%progbits
 1061      AFF30080 
 1062              		.align	2
 1063              		.p2align 4,,15
 1064              		.global	RCC_AHB3PeriphClockCmd
 1065              		.thumb
 1066              		.thumb_func
 1067              		.type	RCC_AHB3PeriphClockCmd, %function
 1068              	RCC_AHB3PeriphClockCmd:
 1069              	.LFB137:
 1070              		.loc 1 1151 0
 1071              		.cfi_startproc
 1072              		@ args = 0, pretend = 0, frame = 0
 1073              		@ frame_needed = 0, uses_anonymous_args = 0
 1074              		@ link register save eliminated.
 1075              	.LVL95:
 1076              		.loc 1 1158 0
 1077 0000 044A     		ldr	r2, .L116
 1078 0002 936B     		ldr	r3, [r2, #56]
 1079              		.loc 1 1156 0
 1080 0004 19B9     		cbnz	r1, .L115
 1081              		.loc 1 1162 0
 1082 0006 23EA0000 		bic	r0, r3, r0
 1083              	.LVL96:
 1084 000a 9063     		str	r0, [r2, #56]
 1085 000c 7047     		bx	lr
 1086              	.LVL97:
 1087              	.L115:
 1088              		.loc 1 1158 0
 1089 000e 1843     		orrs	r0, r0, r3
 1090              	.LVL98:
 1091 0010 9063     		str	r0, [r2, #56]
 1092 0012 7047     		bx	lr
 1093              	.L117:
 1094              		.align	2
 1095              	.L116:
 1096 0014 00380240 		.word	1073887232
 1097              		.cfi_endproc
 1098              	.LFE137:
 1099              		.size	RCC_AHB3PeriphClockCmd, .-RCC_AHB3PeriphClockCmd
 1100 0018 AFF30080 		.section	.text.RCC_APB1PeriphClockCmd,"ax",%progbits
 1100      AFF30080 
 1101              		.align	2
 1102              		.p2align 4,,15
 1103              		.global	RCC_APB1PeriphClockCmd
 1104              		.thumb
 1105              		.thumb_func
 1106              		.type	RCC_APB1PeriphClockCmd, %function
 1107              	RCC_APB1PeriphClockCmd:
 1108              	.LFB138:
 1109              		.loc 1 1201 0
 1110              		.cfi_startproc
 1111              		@ args = 0, pretend = 0, frame = 0
 1112              		@ frame_needed = 0, uses_anonymous_args = 0
 1113              		@ link register save eliminated.
 1114              	.LVL99:
ARM GAS  /var/folders/7z/kps_xzfj7sn5l5gkyq8s9db00000gn/T//ccuFu8Tr.s 			page 21


 1115              		.loc 1 1208 0
 1116 0000 044A     		ldr	r2, .L122
 1117 0002 136C     		ldr	r3, [r2, #64]
 1118              		.loc 1 1206 0
 1119 0004 19B9     		cbnz	r1, .L121
 1120              		.loc 1 1212 0
 1121 0006 23EA0000 		bic	r0, r3, r0
 1122              	.LVL100:
 1123 000a 1064     		str	r0, [r2, #64]
 1124 000c 7047     		bx	lr
 1125              	.LVL101:
 1126              	.L121:
 1127              		.loc 1 1208 0
 1128 000e 1843     		orrs	r0, r0, r3
 1129              	.LVL102:
 1130 0010 1064     		str	r0, [r2, #64]
 1131 0012 7047     		bx	lr
 1132              	.L123:
 1133              		.align	2
 1134              	.L122:
 1135 0014 00380240 		.word	1073887232
 1136              		.cfi_endproc
 1137              	.LFE138:
 1138              		.size	RCC_APB1PeriphClockCmd, .-RCC_APB1PeriphClockCmd
 1139 0018 AFF30080 		.section	.text.RCC_APB2PeriphClockCmd,"ax",%progbits
 1139      AFF30080 
 1140              		.align	2
 1141              		.p2align 4,,15
 1142              		.global	RCC_APB2PeriphClockCmd
 1143              		.thumb
 1144              		.thumb_func
 1145              		.type	RCC_APB2PeriphClockCmd, %function
 1146              	RCC_APB2PeriphClockCmd:
 1147              	.LFB139:
 1148              		.loc 1 1241 0
 1149              		.cfi_startproc
 1150              		@ args = 0, pretend = 0, frame = 0
 1151              		@ frame_needed = 0, uses_anonymous_args = 0
 1152              		@ link register save eliminated.
 1153              	.LVL103:
 1154              		.loc 1 1248 0
 1155 0000 044A     		ldr	r2, .L128
 1156 0002 536C     		ldr	r3, [r2, #68]
 1157              		.loc 1 1246 0
 1158 0004 19B9     		cbnz	r1, .L127
 1159              		.loc 1 1252 0
 1160 0006 23EA0000 		bic	r0, r3, r0
 1161              	.LVL104:
 1162 000a 5064     		str	r0, [r2, #68]
 1163 000c 7047     		bx	lr
 1164              	.LVL105:
 1165              	.L127:
 1166              		.loc 1 1248 0
 1167 000e 1843     		orrs	r0, r0, r3
 1168              	.LVL106:
 1169 0010 5064     		str	r0, [r2, #68]
 1170 0012 7047     		bx	lr
ARM GAS  /var/folders/7z/kps_xzfj7sn5l5gkyq8s9db00000gn/T//ccuFu8Tr.s 			page 22


 1171              	.L129:
 1172              		.align	2
 1173              	.L128:
 1174 0014 00380240 		.word	1073887232
 1175              		.cfi_endproc
 1176              	.LFE139:
 1177              		.size	RCC_APB2PeriphClockCmd, .-RCC_APB2PeriphClockCmd
 1178 0018 AFF30080 		.section	.text.RCC_AHB1PeriphResetCmd,"ax",%progbits
 1178      AFF30080 
 1179              		.align	2
 1180              		.p2align 4,,15
 1181              		.global	RCC_AHB1PeriphResetCmd
 1182              		.thumb
 1183              		.thumb_func
 1184              		.type	RCC_AHB1PeriphResetCmd, %function
 1185              	RCC_AHB1PeriphResetCmd:
 1186              	.LFB140:
 1187              		.loc 1 1280 0
 1188              		.cfi_startproc
 1189              		@ args = 0, pretend = 0, frame = 0
 1190              		@ frame_needed = 0, uses_anonymous_args = 0
 1191              		@ link register save eliminated.
 1192              	.LVL107:
 1193              		.loc 1 1287 0
 1194 0000 044A     		ldr	r2, .L134
 1195 0002 1369     		ldr	r3, [r2, #16]
 1196              		.loc 1 1285 0
 1197 0004 19B9     		cbnz	r1, .L133
 1198              		.loc 1 1291 0
 1199 0006 23EA0000 		bic	r0, r3, r0
 1200              	.LVL108:
 1201 000a 1061     		str	r0, [r2, #16]
 1202 000c 7047     		bx	lr
 1203              	.LVL109:
 1204              	.L133:
 1205              		.loc 1 1287 0
 1206 000e 1843     		orrs	r0, r0, r3
 1207              	.LVL110:
 1208 0010 1061     		str	r0, [r2, #16]
 1209 0012 7047     		bx	lr
 1210              	.L135:
 1211              		.align	2
 1212              	.L134:
 1213 0014 00380240 		.word	1073887232
 1214              		.cfi_endproc
 1215              	.LFE140:
 1216              		.size	RCC_AHB1PeriphResetCmd, .-RCC_AHB1PeriphResetCmd
 1217 0018 AFF30080 		.section	.text.RCC_AHB2PeriphResetCmd,"ax",%progbits
 1217      AFF30080 
 1218              		.align	2
 1219              		.p2align 4,,15
 1220              		.global	RCC_AHB2PeriphResetCmd
 1221              		.thumb
 1222              		.thumb_func
 1223              		.type	RCC_AHB2PeriphResetCmd, %function
 1224              	RCC_AHB2PeriphResetCmd:
 1225              	.LFB141:
ARM GAS  /var/folders/7z/kps_xzfj7sn5l5gkyq8s9db00000gn/T//ccuFu8Tr.s 			page 23


 1226              		.loc 1 1309 0
 1227              		.cfi_startproc
 1228              		@ args = 0, pretend = 0, frame = 0
 1229              		@ frame_needed = 0, uses_anonymous_args = 0
 1230              		@ link register save eliminated.
 1231              	.LVL111:
 1232              		.loc 1 1316 0
 1233 0000 044A     		ldr	r2, .L140
 1234 0002 5369     		ldr	r3, [r2, #20]
 1235              		.loc 1 1314 0
 1236 0004 19B9     		cbnz	r1, .L139
 1237              		.loc 1 1320 0
 1238 0006 23EA0000 		bic	r0, r3, r0
 1239              	.LVL112:
 1240 000a 5061     		str	r0, [r2, #20]
 1241 000c 7047     		bx	lr
 1242              	.LVL113:
 1243              	.L139:
 1244              		.loc 1 1316 0
 1245 000e 1843     		orrs	r0, r0, r3
 1246              	.LVL114:
 1247 0010 5061     		str	r0, [r2, #20]
 1248 0012 7047     		bx	lr
 1249              	.L141:
 1250              		.align	2
 1251              	.L140:
 1252 0014 00380240 		.word	1073887232
 1253              		.cfi_endproc
 1254              	.LFE141:
 1255              		.size	RCC_AHB2PeriphResetCmd, .-RCC_AHB2PeriphResetCmd
 1256 0018 AFF30080 		.section	.text.RCC_AHB3PeriphResetCmd,"ax",%progbits
 1256      AFF30080 
 1257              		.align	2
 1258              		.p2align 4,,15
 1259              		.global	RCC_AHB3PeriphResetCmd
 1260              		.thumb
 1261              		.thumb_func
 1262              		.type	RCC_AHB3PeriphResetCmd, %function
 1263              	RCC_AHB3PeriphResetCmd:
 1264              	.LFB142:
 1265              		.loc 1 1333 0
 1266              		.cfi_startproc
 1267              		@ args = 0, pretend = 0, frame = 0
 1268              		@ frame_needed = 0, uses_anonymous_args = 0
 1269              		@ link register save eliminated.
 1270              	.LVL115:
 1271              		.loc 1 1340 0
 1272 0000 044A     		ldr	r2, .L146
 1273 0002 9369     		ldr	r3, [r2, #24]
 1274              		.loc 1 1338 0
 1275 0004 19B9     		cbnz	r1, .L145
 1276              		.loc 1 1344 0
 1277 0006 23EA0000 		bic	r0, r3, r0
 1278              	.LVL116:
 1279 000a 9061     		str	r0, [r2, #24]
 1280 000c 7047     		bx	lr
 1281              	.LVL117:
ARM GAS  /var/folders/7z/kps_xzfj7sn5l5gkyq8s9db00000gn/T//ccuFu8Tr.s 			page 24


 1282              	.L145:
 1283              		.loc 1 1340 0
 1284 000e 1843     		orrs	r0, r0, r3
 1285              	.LVL118:
 1286 0010 9061     		str	r0, [r2, #24]
 1287 0012 7047     		bx	lr
 1288              	.L147:
 1289              		.align	2
 1290              	.L146:
 1291 0014 00380240 		.word	1073887232
 1292              		.cfi_endproc
 1293              	.LFE142:
 1294              		.size	RCC_AHB3PeriphResetCmd, .-RCC_AHB3PeriphResetCmd
 1295 0018 AFF30080 		.section	.text.RCC_APB1PeriphResetCmd,"ax",%progbits
 1295      AFF30080 
 1296              		.align	2
 1297              		.p2align 4,,15
 1298              		.global	RCC_APB1PeriphResetCmd
 1299              		.thumb
 1300              		.thumb_func
 1301              		.type	RCC_APB1PeriphResetCmd, %function
 1302              	RCC_APB1PeriphResetCmd:
 1303              	.LFB143:
 1304              		.loc 1 1380 0
 1305              		.cfi_startproc
 1306              		@ args = 0, pretend = 0, frame = 0
 1307              		@ frame_needed = 0, uses_anonymous_args = 0
 1308              		@ link register save eliminated.
 1309              	.LVL119:
 1310              		.loc 1 1386 0
 1311 0000 044A     		ldr	r2, .L152
 1312 0002 136A     		ldr	r3, [r2, #32]
 1313              		.loc 1 1384 0
 1314 0004 19B9     		cbnz	r1, .L151
 1315              		.loc 1 1390 0
 1316 0006 23EA0000 		bic	r0, r3, r0
 1317              	.LVL120:
 1318 000a 1062     		str	r0, [r2, #32]
 1319 000c 7047     		bx	lr
 1320              	.LVL121:
 1321              	.L151:
 1322              		.loc 1 1386 0
 1323 000e 1843     		orrs	r0, r0, r3
 1324              	.LVL122:
 1325 0010 1062     		str	r0, [r2, #32]
 1326 0012 7047     		bx	lr
 1327              	.L153:
 1328              		.align	2
 1329              	.L152:
 1330 0014 00380240 		.word	1073887232
 1331              		.cfi_endproc
 1332              	.LFE143:
 1333              		.size	RCC_APB1PeriphResetCmd, .-RCC_APB1PeriphResetCmd
 1334 0018 AFF30080 		.section	.text.RCC_APB2PeriphResetCmd,"ax",%progbits
 1334      AFF30080 
 1335              		.align	2
 1336              		.p2align 4,,15
ARM GAS  /var/folders/7z/kps_xzfj7sn5l5gkyq8s9db00000gn/T//ccuFu8Tr.s 			page 25


 1337              		.global	RCC_APB2PeriphResetCmd
 1338              		.thumb
 1339              		.thumb_func
 1340              		.type	RCC_APB2PeriphResetCmd, %function
 1341              	RCC_APB2PeriphResetCmd:
 1342              	.LFB144:
 1343              		.loc 1 1416 0
 1344              		.cfi_startproc
 1345              		@ args = 0, pretend = 0, frame = 0
 1346              		@ frame_needed = 0, uses_anonymous_args = 0
 1347              		@ link register save eliminated.
 1348              	.LVL123:
 1349              		.loc 1 1422 0
 1350 0000 044A     		ldr	r2, .L158
 1351 0002 536A     		ldr	r3, [r2, #36]
 1352              		.loc 1 1420 0
 1353 0004 19B9     		cbnz	r1, .L157
 1354              		.loc 1 1426 0
 1355 0006 23EA0000 		bic	r0, r3, r0
 1356              	.LVL124:
 1357 000a 5062     		str	r0, [r2, #36]
 1358 000c 7047     		bx	lr
 1359              	.LVL125:
 1360              	.L157:
 1361              		.loc 1 1422 0
 1362 000e 1843     		orrs	r0, r0, r3
 1363              	.LVL126:
 1364 0010 5062     		str	r0, [r2, #36]
 1365 0012 7047     		bx	lr
 1366              	.L159:
 1367              		.align	2
 1368              	.L158:
 1369 0014 00380240 		.word	1073887232
 1370              		.cfi_endproc
 1371              	.LFE144:
 1372              		.size	RCC_APB2PeriphResetCmd, .-RCC_APB2PeriphResetCmd
 1373 0018 AFF30080 		.section	.text.RCC_AHB1PeriphClockLPModeCmd,"ax",%progbits
 1373      AFF30080 
 1374              		.align	2
 1375              		.p2align 4,,15
 1376              		.global	RCC_AHB1PeriphClockLPModeCmd
 1377              		.thumb
 1378              		.thumb_func
 1379              		.type	RCC_AHB1PeriphClockLPModeCmd, %function
 1380              	RCC_AHB1PeriphClockLPModeCmd:
 1381              	.LFB145:
 1382              		.loc 1 1462 0
 1383              		.cfi_startproc
 1384              		@ args = 0, pretend = 0, frame = 0
 1385              		@ frame_needed = 0, uses_anonymous_args = 0
 1386              		@ link register save eliminated.
 1387              	.LVL127:
 1388              		.loc 1 1468 0
 1389 0000 044A     		ldr	r2, .L164
 1390 0002 136D     		ldr	r3, [r2, #80]
 1391              		.loc 1 1466 0
 1392 0004 19B9     		cbnz	r1, .L163
ARM GAS  /var/folders/7z/kps_xzfj7sn5l5gkyq8s9db00000gn/T//ccuFu8Tr.s 			page 26


 1393              		.loc 1 1472 0
 1394 0006 23EA0000 		bic	r0, r3, r0
 1395              	.LVL128:
 1396 000a 1065     		str	r0, [r2, #80]
 1397 000c 7047     		bx	lr
 1398              	.LVL129:
 1399              	.L163:
 1400              		.loc 1 1468 0
 1401 000e 1843     		orrs	r0, r0, r3
 1402              	.LVL130:
 1403 0010 1065     		str	r0, [r2, #80]
 1404 0012 7047     		bx	lr
 1405              	.L165:
 1406              		.align	2
 1407              	.L164:
 1408 0014 00380240 		.word	1073887232
 1409              		.cfi_endproc
 1410              	.LFE145:
 1411              		.size	RCC_AHB1PeriphClockLPModeCmd, .-RCC_AHB1PeriphClockLPModeCmd
 1412 0018 AFF30080 		.section	.text.RCC_AHB2PeriphClockLPModeCmd,"ax",%progbits
 1412      AFF30080 
 1413              		.align	2
 1414              		.p2align 4,,15
 1415              		.global	RCC_AHB2PeriphClockLPModeCmd
 1416              		.thumb
 1417              		.thumb_func
 1418              		.type	RCC_AHB2PeriphClockLPModeCmd, %function
 1419              	RCC_AHB2PeriphClockLPModeCmd:
 1420              	.LFB146:
 1421              		.loc 1 1494 0
 1422              		.cfi_startproc
 1423              		@ args = 0, pretend = 0, frame = 0
 1424              		@ frame_needed = 0, uses_anonymous_args = 0
 1425              		@ link register save eliminated.
 1426              	.LVL131:
 1427              		.loc 1 1500 0
 1428 0000 044A     		ldr	r2, .L170
 1429 0002 536D     		ldr	r3, [r2, #84]
 1430              		.loc 1 1498 0
 1431 0004 19B9     		cbnz	r1, .L169
 1432              		.loc 1 1504 0
 1433 0006 23EA0000 		bic	r0, r3, r0
 1434              	.LVL132:
 1435 000a 5065     		str	r0, [r2, #84]
 1436 000c 7047     		bx	lr
 1437              	.LVL133:
 1438              	.L169:
 1439              		.loc 1 1500 0
 1440 000e 1843     		orrs	r0, r0, r3
 1441              	.LVL134:
 1442 0010 5065     		str	r0, [r2, #84]
 1443 0012 7047     		bx	lr
 1444              	.L171:
 1445              		.align	2
 1446              	.L170:
 1447 0014 00380240 		.word	1073887232
 1448              		.cfi_endproc
ARM GAS  /var/folders/7z/kps_xzfj7sn5l5gkyq8s9db00000gn/T//ccuFu8Tr.s 			page 27


 1449              	.LFE146:
 1450              		.size	RCC_AHB2PeriphClockLPModeCmd, .-RCC_AHB2PeriphClockLPModeCmd
 1451 0018 AFF30080 		.section	.text.RCC_AHB3PeriphClockLPModeCmd,"ax",%progbits
 1451      AFF30080 
 1452              		.align	2
 1453              		.p2align 4,,15
 1454              		.global	RCC_AHB3PeriphClockLPModeCmd
 1455              		.thumb
 1456              		.thumb_func
 1457              		.type	RCC_AHB3PeriphClockLPModeCmd, %function
 1458              	RCC_AHB3PeriphClockLPModeCmd:
 1459              	.LFB147:
 1460              		.loc 1 1521 0
 1461              		.cfi_startproc
 1462              		@ args = 0, pretend = 0, frame = 0
 1463              		@ frame_needed = 0, uses_anonymous_args = 0
 1464              		@ link register save eliminated.
 1465              	.LVL135:
 1466              		.loc 1 1527 0
 1467 0000 044A     		ldr	r2, .L176
 1468 0002 936D     		ldr	r3, [r2, #88]
 1469              		.loc 1 1525 0
 1470 0004 19B9     		cbnz	r1, .L175
 1471              		.loc 1 1531 0
 1472 0006 23EA0000 		bic	r0, r3, r0
 1473              	.LVL136:
 1474 000a 9065     		str	r0, [r2, #88]
 1475 000c 7047     		bx	lr
 1476              	.LVL137:
 1477              	.L175:
 1478              		.loc 1 1527 0
 1479 000e 1843     		orrs	r0, r0, r3
 1480              	.LVL138:
 1481 0010 9065     		str	r0, [r2, #88]
 1482 0012 7047     		bx	lr
 1483              	.L177:
 1484              		.align	2
 1485              	.L176:
 1486 0014 00380240 		.word	1073887232
 1487              		.cfi_endproc
 1488              	.LFE147:
 1489              		.size	RCC_AHB3PeriphClockLPModeCmd, .-RCC_AHB3PeriphClockLPModeCmd
 1490 0018 AFF30080 		.section	.text.RCC_APB1PeriphClockLPModeCmd,"ax",%progbits
 1490      AFF30080 
 1491              		.align	2
 1492              		.p2align 4,,15
 1493              		.global	RCC_APB1PeriphClockLPModeCmd
 1494              		.thumb
 1495              		.thumb_func
 1496              		.type	RCC_APB1PeriphClockLPModeCmd, %function
 1497              	RCC_APB1PeriphClockLPModeCmd:
 1498              	.LFB148:
 1499              		.loc 1 1571 0
 1500              		.cfi_startproc
 1501              		@ args = 0, pretend = 0, frame = 0
 1502              		@ frame_needed = 0, uses_anonymous_args = 0
 1503              		@ link register save eliminated.
ARM GAS  /var/folders/7z/kps_xzfj7sn5l5gkyq8s9db00000gn/T//ccuFu8Tr.s 			page 28


 1504              	.LVL139:
 1505              		.loc 1 1577 0
 1506 0000 044A     		ldr	r2, .L182
 1507 0002 136E     		ldr	r3, [r2, #96]
 1508              		.loc 1 1575 0
 1509 0004 19B9     		cbnz	r1, .L181
 1510              		.loc 1 1581 0
 1511 0006 23EA0000 		bic	r0, r3, r0
 1512              	.LVL140:
 1513 000a 1066     		str	r0, [r2, #96]
 1514 000c 7047     		bx	lr
 1515              	.LVL141:
 1516              	.L181:
 1517              		.loc 1 1577 0
 1518 000e 1843     		orrs	r0, r0, r3
 1519              	.LVL142:
 1520 0010 1066     		str	r0, [r2, #96]
 1521 0012 7047     		bx	lr
 1522              	.L183:
 1523              		.align	2
 1524              	.L182:
 1525 0014 00380240 		.word	1073887232
 1526              		.cfi_endproc
 1527              	.LFE148:
 1528              		.size	RCC_APB1PeriphClockLPModeCmd, .-RCC_APB1PeriphClockLPModeCmd
 1529 0018 AFF30080 		.section	.text.RCC_APB2PeriphClockLPModeCmd,"ax",%progbits
 1529      AFF30080 
 1530              		.align	2
 1531              		.p2align 4,,15
 1532              		.global	RCC_APB2PeriphClockLPModeCmd
 1533              		.thumb
 1534              		.thumb_func
 1535              		.type	RCC_APB2PeriphClockLPModeCmd, %function
 1536              	RCC_APB2PeriphClockLPModeCmd:
 1537              	.LFB149:
 1538              		.loc 1 1611 0
 1539              		.cfi_startproc
 1540              		@ args = 0, pretend = 0, frame = 0
 1541              		@ frame_needed = 0, uses_anonymous_args = 0
 1542              		@ link register save eliminated.
 1543              	.LVL143:
 1544              		.loc 1 1617 0
 1545 0000 044A     		ldr	r2, .L188
 1546 0002 536E     		ldr	r3, [r2, #100]
 1547              		.loc 1 1615 0
 1548 0004 19B9     		cbnz	r1, .L187
 1549              		.loc 1 1621 0
 1550 0006 23EA0000 		bic	r0, r3, r0
 1551              	.LVL144:
 1552 000a 5066     		str	r0, [r2, #100]
 1553 000c 7047     		bx	lr
 1554              	.LVL145:
 1555              	.L187:
 1556              		.loc 1 1617 0
 1557 000e 1843     		orrs	r0, r0, r3
 1558              	.LVL146:
 1559 0010 5066     		str	r0, [r2, #100]
ARM GAS  /var/folders/7z/kps_xzfj7sn5l5gkyq8s9db00000gn/T//ccuFu8Tr.s 			page 29


 1560 0012 7047     		bx	lr
 1561              	.L189:
 1562              		.align	2
 1563              	.L188:
 1564 0014 00380240 		.word	1073887232
 1565              		.cfi_endproc
 1566              	.LFE149:
 1567              		.size	RCC_APB2PeriphClockLPModeCmd, .-RCC_APB2PeriphClockLPModeCmd
 1568 0018 AFF30080 		.section	.text.RCC_ITConfig,"ax",%progbits
 1568      AFF30080 
 1569              		.align	2
 1570              		.p2align 4,,15
 1571              		.global	RCC_ITConfig
 1572              		.thumb
 1573              		.thumb_func
 1574              		.type	RCC_ITConfig, %function
 1575              	RCC_ITConfig:
 1576              	.LFB150:
 1577              		.loc 1 1656 0
 1578              		.cfi_startproc
 1579              		@ args = 0, pretend = 0, frame = 0
 1580              		@ frame_needed = 0, uses_anonymous_args = 0
 1581              		@ link register save eliminated.
 1582              	.LVL147:
 1583              		.loc 1 1663 0
 1584 0000 044A     		ldr	r2, .L194
 1585 0002 1378     		ldrb	r3, [r2]	@ zero_extendqisi2
 1586              		.loc 1 1660 0
 1587 0004 19B9     		cbnz	r1, .L193
 1588              		.loc 1 1668 0
 1589 0006 23EA0000 		bic	r0, r3, r0
 1590              	.LVL148:
 1591 000a 1070     		strb	r0, [r2]
 1592 000c 7047     		bx	lr
 1593              	.LVL149:
 1594              	.L193:
 1595              		.loc 1 1663 0
 1596 000e 1843     		orrs	r0, r0, r3
 1597              	.LVL150:
 1598 0010 1070     		strb	r0, [r2]
 1599 0012 7047     		bx	lr
 1600              	.L195:
 1601              		.align	2
 1602              	.L194:
 1603 0014 0D380240 		.word	1073887245
 1604              		.cfi_endproc
 1605              	.LFE150:
 1606              		.size	RCC_ITConfig, .-RCC_ITConfig
 1607 0018 AFF30080 		.section	.text.RCC_GetFlagStatus,"ax",%progbits
 1607      AFF30080 
 1608              		.align	2
 1609              		.p2align 4,,15
 1610              		.global	RCC_GetFlagStatus
 1611              		.thumb
 1612              		.thumb_func
 1613              		.type	RCC_GetFlagStatus, %function
 1614              	RCC_GetFlagStatus:
ARM GAS  /var/folders/7z/kps_xzfj7sn5l5gkyq8s9db00000gn/T//ccuFu8Tr.s 			page 30


 1615              	.LFB151:
 1616              		.loc 1 1692 0
 1617              		.cfi_startproc
 1618              		@ args = 0, pretend = 0, frame = 0
 1619              		@ frame_needed = 0, uses_anonymous_args = 0
 1620              		@ link register save eliminated.
 1621              	.LVL151:
 1622              		.loc 1 1701 0
 1623 0000 4309     		lsrs	r3, r0, #5
 1624              	.LVL152:
 1625              		.loc 1 1702 0
 1626 0002 012B     		cmp	r3, #1
 1627 0004 0BD0     		beq	.L200
 1628              		.loc 1 1706 0
 1629 0006 022B     		cmp	r3, #2
 1630              		.loc 1 1708 0
 1631 0008 094B     		ldr	r3, .L201
 1632              	.LVL153:
 1633 000a 0CBF     		ite	eq
 1634 000c 1A6F     		ldreq	r2, [r3, #112]
 1635              	.LVL154:
 1636              		.loc 1 1712 0
 1637 000e 5A6F     		ldrne	r2, [r3, #116]
 1638              	.LVL155:
 1639              		.loc 1 1717 0
 1640 0010 00F01F03 		and	r3, r0, #31
 1641 0014 22FA03F0 		lsr	r0, r2, r3
 1642              	.LVL156:
 1643              		.loc 1 1727 0
 1644 0018 00F00100 		and	r0, r0, #1
 1645 001c 7047     		bx	lr
 1646              	.LVL157:
 1647              	.L200:
 1648              		.loc 1 1704 0
 1649 001e 044B     		ldr	r3, .L201
 1650              	.LVL158:
 1651 0020 1A68     		ldr	r2, [r3]
 1652              	.LVL159:
 1653              		.loc 1 1717 0
 1654 0022 00F01F03 		and	r3, r0, #31
 1655 0026 22FA03F0 		lsr	r0, r2, r3
 1656              	.LVL160:
 1657              		.loc 1 1727 0
 1658 002a 00F00100 		and	r0, r0, #1
 1659 002e 7047     		bx	lr
 1660              	.L202:
 1661              		.align	2
 1662              	.L201:
 1663 0030 00380240 		.word	1073887232
 1664              		.cfi_endproc
 1665              	.LFE151:
 1666              		.size	RCC_GetFlagStatus, .-RCC_GetFlagStatus
 1667 0034 AFF30080 		.section	.text.RCC_ClearFlag,"ax",%progbits
 1667      AFF30080 
 1667      AFF30080 
 1668              		.align	2
 1669              		.p2align 4,,15
ARM GAS  /var/folders/7z/kps_xzfj7sn5l5gkyq8s9db00000gn/T//ccuFu8Tr.s 			page 31


 1670              		.global	RCC_ClearFlag
 1671              		.thumb
 1672              		.thumb_func
 1673              		.type	RCC_ClearFlag, %function
 1674              	RCC_ClearFlag:
 1675              	.LFB152:
 1676              		.loc 1 1737 0
 1677              		.cfi_startproc
 1678              		@ args = 0, pretend = 0, frame = 0
 1679              		@ frame_needed = 0, uses_anonymous_args = 0
 1680              		@ link register save eliminated.
 1681              		.loc 1 1739 0
 1682 0000 024A     		ldr	r2, .L204
 1683 0002 536F     		ldr	r3, [r2, #116]
 1684 0004 43F08073 		orr	r3, r3, #16777216
 1685 0008 5367     		str	r3, [r2, #116]
 1686 000a 7047     		bx	lr
 1687              	.L205:
 1688              		.align	2
 1689              	.L204:
 1690 000c 00380240 		.word	1073887232
 1691              		.cfi_endproc
 1692              	.LFE152:
 1693              		.size	RCC_ClearFlag, .-RCC_ClearFlag
 1694              		.section	.text.RCC_GetITStatus,"ax",%progbits
 1695              		.align	2
 1696              		.p2align 4,,15
 1697              		.global	RCC_GetITStatus
 1698              		.thumb
 1699              		.thumb_func
 1700              		.type	RCC_GetITStatus, %function
 1701              	RCC_GetITStatus:
 1702              	.LFB153:
 1703              		.loc 1 1756 0
 1704              		.cfi_startproc
 1705              		@ args = 0, pretend = 0, frame = 0
 1706              		@ frame_needed = 0, uses_anonymous_args = 0
 1707              		@ link register save eliminated.
 1708              	.LVL161:
 1709              		.loc 1 1763 0
 1710 0000 034B     		ldr	r3, .L207
 1711 0002 DB68     		ldr	r3, [r3, #12]
 1712              	.LVL162:
 1713 0004 1842     		tst	r0, r3
 1714              		.loc 1 1773 0
 1715 0006 14BF     		ite	ne
 1716 0008 0120     		movne	r0, #1
 1717              	.LVL163:
 1718 000a 0020     		moveq	r0, #0
 1719 000c 7047     		bx	lr
 1720              	.L208:
 1721 000e 00BF     		.align	2
 1722              	.L207:
 1723 0010 00380240 		.word	1073887232
 1724              		.cfi_endproc
 1725              	.LFE153:
 1726              		.size	RCC_GetITStatus, .-RCC_GetITStatus
ARM GAS  /var/folders/7z/kps_xzfj7sn5l5gkyq8s9db00000gn/T//ccuFu8Tr.s 			page 32


 1727 0014 AFF30080 		.section	.text.RCC_ClearITPendingBit,"ax",%progbits
 1727      AFF30080 
 1727      AFF30080 
 1728              		.align	2
 1729              		.p2align 4,,15
 1730              		.global	RCC_ClearITPendingBit
 1731              		.thumb
 1732              		.thumb_func
 1733              		.type	RCC_ClearITPendingBit, %function
 1734              	RCC_ClearITPendingBit:
 1735              	.LFB154:
 1736              		.loc 1 1789 0
 1737              		.cfi_startproc
 1738              		@ args = 0, pretend = 0, frame = 0
 1739              		@ frame_needed = 0, uses_anonymous_args = 0
 1740              		@ link register save eliminated.
 1741              	.LVL164:
 1742              		.loc 1 1795 0
 1743 0000 014B     		ldr	r3, .L210
 1744 0002 1870     		strb	r0, [r3]
 1745 0004 7047     		bx	lr
 1746              	.L211:
 1747 0006 00BF     		.align	2
 1748              	.L210:
 1749 0008 0E380240 		.word	1073887246
 1750              		.cfi_endproc
 1751              	.LFE154:
 1752              		.size	RCC_ClearITPendingBit, .-RCC_ClearITPendingBit
 1753 000c AFF30080 		.section	.data.APBAHBPrescTable,"aw",%progbits
 1754              		.align	2
 1755              		.set	.LANCHOR0,. + 0
 1756              		.type	APBAHBPrescTable, %object
 1757              		.size	APBAHBPrescTable, 16
 1758              	APBAHBPrescTable:
 1759 0000 00       		.byte	0
 1760 0001 00       		.byte	0
 1761 0002 00       		.byte	0
 1762 0003 00       		.byte	0
 1763 0004 01       		.byte	1
 1764 0005 02       		.byte	2
 1765 0006 03       		.byte	3
 1766 0007 04       		.byte	4
 1767 0008 01       		.byte	1
 1768 0009 02       		.byte	2
 1769 000a 03       		.byte	3
 1770 000b 04       		.byte	4
 1771 000c 06       		.byte	6
 1772 000d 07       		.byte	7
 1773 000e 08       		.byte	8
 1774 000f 09       		.byte	9
 1775              		.text
 1776              	.Letext0:
 1777              		.file 2 "/Users/Baram/gcc-arm-none-eabi/arm-none-eabi/include/machine/_default_types.h"
 1778              		.file 3 "/Users/Baram/gcc-arm-none-eabi/arm-none-eabi/include/stdint.h"
 1779              		.file 4 "lib/ChibiOS_2.6.6/os/hal/platforms/STM32F4xx/stm32f4xx.h"
 1780              		.file 5 "lib/ChibiOS_2.6.6/ext/stdperiph_stm32f4/inc/stm32f4xx_rcc.h"
 1781              		.file 6 "lib/ChibiOS_2.6.6/os/ports/common/ARMCMx/CMSIS/include/core_cm4.h"
ARM GAS  /var/folders/7z/kps_xzfj7sn5l5gkyq8s9db00000gn/T//ccuFu8Tr.s 			page 33

