ARM GAS  /var/folders/7z/kps_xzfj7sn5l5gkyq8s9db00000gn/T//cck5P0LB.s 			page 1


   1              		.syntax unified
   2              		.cpu cortex-m4
   3              		.eabi_attribute 27, 1
   4              		.eabi_attribute 28, 1
   5              		.fpu fpv4-sp-d16
   6              		.eabi_attribute 20, 1
   7              		.eabi_attribute 21, 1
   8              		.eabi_attribute 23, 3
   9              		.eabi_attribute 24, 1
  10              		.eabi_attribute 25, 1
  11              		.eabi_attribute 26, 1
  12              		.eabi_attribute 30, 2
  13              		.eabi_attribute 34, 1
  14              		.eabi_attribute 18, 4
  15              		.thumb
  16              		.file	"stm32f4xx_rtc.c"
  17              		.text
  18              	.Ltext0:
  19              		.cfi_sections	.debug_frame
  20              		.section	.text.RTC_StructInit,"ax",%progbits
  21              		.align	2
  22              		.p2align 4,,15
  23              		.global	RTC_StructInit
  24              		.thumb
  25              		.thumb_func
  26              		.type	RTC_StructInit, %function
  27              	RTC_StructInit:
  28              	.LFB113:
  29              		.file 1 "lib/ChibiOS_2.6.6/ext/stdperiph_stm32f4/src/stm32f4xx_rtc.c"
  30              		.loc 1 502 0
  31              		.cfi_startproc
  32              		@ args = 0, pretend = 0, frame = 0
  33              		@ frame_needed = 0, uses_anonymous_args = 0
  34              		@ link register save eliminated.
  35              	.LVL0:
  36              		.loc 1 510 0
  37 0000 0021     		movs	r1, #0
  38 0002 7F22     		movs	r2, #127
  39 0004 FF23     		movs	r3, #255
  40 0006 80E80E00 		stmia	r0, {r1, r2, r3}
  41 000a 7047     		bx	lr
  42              		.cfi_endproc
  43              	.LFE113:
  44              		.size	RTC_StructInit, .-RTC_StructInit
  45 000c AFF30080 		.section	.text.RTC_WriteProtectionCmd,"ax",%progbits
  46              		.align	2
  47              		.p2align 4,,15
  48              		.global	RTC_WriteProtectionCmd
  49              		.thumb
  50              		.thumb_func
  51              		.type	RTC_WriteProtectionCmd, %function
  52              	RTC_WriteProtectionCmd:
  53              	.LFB114:
  54              		.loc 1 524 0
  55              		.cfi_startproc
  56              		@ args = 0, pretend = 0, frame = 0
  57              		@ frame_needed = 0, uses_anonymous_args = 0
ARM GAS  /var/folders/7z/kps_xzfj7sn5l5gkyq8s9db00000gn/T//cck5P0LB.s 			page 2


  58              		@ link register save eliminated.
  59              	.LVL1:
  60              		.loc 1 531 0
  61 0000 044B     		ldr	r3, .L7
  62              		.loc 1 528 0
  63 0002 20B9     		cbnz	r0, .L6
  64              		.loc 1 536 0
  65 0004 CA21     		movs	r1, #202
  66              		.loc 1 537 0
  67 0006 5322     		movs	r2, #83
  68              		.loc 1 536 0
  69 0008 5962     		str	r1, [r3, #36]
  70              		.loc 1 537 0
  71 000a 5A62     		str	r2, [r3, #36]
  72 000c 7047     		bx	lr
  73              	.L6:
  74              		.loc 1 531 0
  75 000e FF22     		movs	r2, #255
  76 0010 5A62     		str	r2, [r3, #36]
  77 0012 7047     		bx	lr
  78              	.L8:
  79              		.align	2
  80              	.L7:
  81 0014 00280040 		.word	1073752064
  82              		.cfi_endproc
  83              	.LFE114:
  84              		.size	RTC_WriteProtectionCmd, .-RTC_WriteProtectionCmd
  85 0018 AFF30080 		.section	.text.RTC_EnterInitMode,"ax",%progbits
  85      AFF30080 
  86              		.align	2
  87              		.p2align 4,,15
  88              		.global	RTC_EnterInitMode
  89              		.thumb
  90              		.thumb_func
  91              		.type	RTC_EnterInitMode, %function
  92              	RTC_EnterInitMode:
  93              	.LFB115:
  94              		.loc 1 551 0
  95              		.cfi_startproc
  96              		@ args = 0, pretend = 0, frame = 8
  97              		@ frame_needed = 0, uses_anonymous_args = 0
  98              		@ link register save eliminated.
  99 0000 82B0     		sub	sp, sp, #8
 100              		.cfi_def_cfa_offset 8
 101              		.loc 1 552 0
 102 0002 0023     		movs	r3, #0
 103              		.loc 1 557 0
 104 0004 0E49     		ldr	r1, .L21
 105              		.loc 1 552 0
 106 0006 0193     		str	r3, [sp, #4]
 107              	.LVL2:
 108              		.loc 1 557 0
 109 0008 CB68     		ldr	r3, [r1, #12]
 110 000a 5B06     		lsls	r3, r3, #25
 111 000c 14D4     		bmi	.L13
 112              		.loc 1 560 0
 113 000e 4FF0FF33 		mov	r3, #-1
ARM GAS  /var/folders/7z/kps_xzfj7sn5l5gkyq8s9db00000gn/T//cck5P0LB.s 			page 3


 114 0012 CB60     		str	r3, [r1, #12]
 115 0014 00E0     		b	.L12
 116              	.LVL3:
 117              	.L20:
 118              		.loc 1 567 0 discriminator 1
 119 0016 4AB9     		cbnz	r2, .L11
 120              	.LVL4:
 121              	.L12:
 122              		.loc 1 565 0 discriminator 2
 123 0018 CA68     		ldr	r2, [r1, #12]
 124              		.loc 1 566 0 discriminator 2
 125 001a 019B     		ldr	r3, [sp, #4]
 126 001c 0133     		adds	r3, r3, #1
 127 001e 0193     		str	r3, [sp, #4]
 128              		.loc 1 567 0 discriminator 2
 129 0020 019B     		ldr	r3, [sp, #4]
 130 0022 B3F5803F 		cmp	r3, #65536
 131              		.loc 1 565 0 discriminator 2
 132 0026 02F04002 		and	r2, r2, #64
 133              	.LVL5:
 134              		.loc 1 567 0 discriminator 2
 135 002a F4D1     		bne	.L20
 136              	.L11:
 137              	.LBB80:
 138              	.LBB81:
 139              		.loc 1 569 0
 140 002c 044B     		ldr	r3, .L21
 141 002e D868     		ldr	r0, [r3, #12]
 142              		.loc 1 575 0
 143 0030 C0F38010 		ubfx	r0, r0, #6, #1
 144              	.LVL6:
 145              	.LBE81:
 146              	.LBE80:
 147              		.loc 1 584 0
 148 0034 02B0     		add	sp, sp, #8
 149              		.cfi_remember_state
 150              		.cfi_def_cfa_offset 0
 151              		@ sp needed
 152 0036 7047     		bx	lr
 153              	.LVL7:
 154              	.L13:
 155              		.cfi_restore_state
 156              		.loc 1 580 0
 157 0038 0120     		movs	r0, #1
 158              	.LVL8:
 159              		.loc 1 584 0
 160 003a 02B0     		add	sp, sp, #8
 161              		.cfi_def_cfa_offset 0
 162              		@ sp needed
 163 003c 7047     		bx	lr
 164              	.L22:
 165 003e 00BF     		.align	2
 166              	.L21:
 167 0040 00280040 		.word	1073752064
 168              		.cfi_endproc
 169              	.LFE115:
 170              		.size	RTC_EnterInitMode, .-RTC_EnterInitMode
ARM GAS  /var/folders/7z/kps_xzfj7sn5l5gkyq8s9db00000gn/T//cck5P0LB.s 			page 4


 171 0044 AFF30080 		.section	.text.RTC_Init,"ax",%progbits
 171      AFF30080 
 171      AFF30080 
 172              		.align	2
 173              		.p2align 4,,15
 174              		.global	RTC_Init
 175              		.thumb
 176              		.thumb_func
 177              		.type	RTC_Init, %function
 178              	RTC_Init:
 179              	.LFB112:
 180              		.loc 1 456 0
 181              		.cfi_startproc
 182              		@ args = 0, pretend = 0, frame = 0
 183              		@ frame_needed = 0, uses_anonymous_args = 0
 184              	.LVL9:
 185 0000 38B5     		push	{r3, r4, r5, lr}
 186              		.cfi_def_cfa_offset 16
 187              		.cfi_offset 3, -16
 188              		.cfi_offset 4, -12
 189              		.cfi_offset 5, -8
 190              		.cfi_offset 14, -4
 191              		.loc 1 465 0
 192 0002 104C     		ldr	r4, .L27
 193 0004 CA22     		movs	r2, #202
 194              		.loc 1 466 0
 195 0006 5323     		movs	r3, #83
 196              		.loc 1 465 0
 197 0008 6262     		str	r2, [r4, #36]
 198              		.loc 1 466 0
 199 000a 6362     		str	r3, [r4, #36]
 200              		.loc 1 456 0
 201 000c 0546     		mov	r5, r0
 202              		.loc 1 469 0
 203 000e FFF7FEFF 		bl	RTC_EnterInitMode
 204              	.LVL10:
 205 0012 98B1     		cbz	r0, .L24
 206              		.loc 1 476 0
 207 0014 A368     		ldr	r3, [r4, #8]
 208 0016 23F04003 		bic	r3, r3, #64
 209 001a A360     		str	r3, [r4, #8]
 210              		.loc 1 478 0
 211 001c A268     		ldr	r2, [r4, #8]
 212 001e 2B68     		ldr	r3, [r5]
 213 0020 1343     		orrs	r3, r3, r2
 214 0022 A360     		str	r3, [r4, #8]
 215              		.loc 1 481 0
 216 0024 AB68     		ldr	r3, [r5, #8]
 217 0026 2361     		str	r3, [r4, #16]
 218              		.loc 1 482 0
 219 0028 2369     		ldr	r3, [r4, #16]
 220 002a 6A68     		ldr	r2, [r5, #4]
 221 002c 43EA0243 		orr	r3, r3, r2, lsl #16
 222 0030 2361     		str	r3, [r4, #16]
 223              	.LBB82:
 224              	.LBB83:
 225              		.loc 1 598 0
ARM GAS  /var/folders/7z/kps_xzfj7sn5l5gkyq8s9db00000gn/T//cck5P0LB.s 			page 5


 226 0032 E368     		ldr	r3, [r4, #12]
 227 0034 23F08003 		bic	r3, r3, #128
 228 0038 E360     		str	r3, [r4, #12]
 229              	.LVL11:
 230              	.LBE83:
 231              	.LBE82:
 232              		.loc 1 487 0
 233 003a 0120     		movs	r0, #1
 234              	.LVL12:
 235              	.L24:
 236              		.loc 1 490 0
 237 003c 014B     		ldr	r3, .L27
 238 003e FF22     		movs	r2, #255
 239 0040 5A62     		str	r2, [r3, #36]
 240              		.loc 1 493 0
 241 0042 38BD     		pop	{r3, r4, r5, pc}
 242              	.LVL13:
 243              	.L28:
 244              		.align	2
 245              	.L27:
 246 0044 00280040 		.word	1073752064
 247              		.cfi_endproc
 248              	.LFE112:
 249              		.size	RTC_Init, .-RTC_Init
 250 0048 AFF30080 		.section	.text.RTC_ExitInitMode,"ax",%progbits
 250      AFF30080 
 251              		.align	2
 252              		.p2align 4,,15
 253              		.global	RTC_ExitInitMode
 254              		.thumb
 255              		.thumb_func
 256              		.type	RTC_ExitInitMode, %function
 257              	RTC_ExitInitMode:
 258              	.LFB116:
 259              		.loc 1 596 0
 260              		.cfi_startproc
 261              		@ args = 0, pretend = 0, frame = 0
 262              		@ frame_needed = 0, uses_anonymous_args = 0
 263              		@ link register save eliminated.
 264              		.loc 1 598 0
 265 0000 024A     		ldr	r2, .L30
 266 0002 D368     		ldr	r3, [r2, #12]
 267 0004 23F08003 		bic	r3, r3, #128
 268 0008 D360     		str	r3, [r2, #12]
 269 000a 7047     		bx	lr
 270              	.L31:
 271              		.align	2
 272              	.L30:
 273 000c 00280040 		.word	1073752064
 274              		.cfi_endproc
 275              	.LFE116:
 276              		.size	RTC_ExitInitMode, .-RTC_ExitInitMode
 277              		.section	.text.RTC_WaitForSynchro,"ax",%progbits
 278              		.align	2
 279              		.p2align 4,,15
 280              		.global	RTC_WaitForSynchro
 281              		.thumb
ARM GAS  /var/folders/7z/kps_xzfj7sn5l5gkyq8s9db00000gn/T//cck5P0LB.s 			page 6


 282              		.thumb_func
 283              		.type	RTC_WaitForSynchro, %function
 284              	RTC_WaitForSynchro:
 285              	.LFB117:
 286              		.loc 1 618 0
 287              		.cfi_startproc
 288              		@ args = 0, pretend = 0, frame = 8
 289              		@ frame_needed = 0, uses_anonymous_args = 0
 290              		@ link register save eliminated.
 291              		.loc 1 624 0
 292 0000 0F49     		ldr	r1, .L42
 293              		.loc 1 618 0
 294 0002 82B0     		sub	sp, sp, #8
 295              		.cfi_def_cfa_offset 8
 296              		.loc 1 625 0
 297 0004 5323     		movs	r3, #83
 298              		.loc 1 619 0
 299 0006 0020     		movs	r0, #0
 300              		.loc 1 624 0
 301 0008 CA22     		movs	r2, #202
 302              		.loc 1 619 0
 303 000a 0190     		str	r0, [sp, #4]
 304              	.LVL14:
 305              		.loc 1 624 0
 306 000c 4A62     		str	r2, [r1, #36]
 307              		.loc 1 625 0
 308 000e 4B62     		str	r3, [r1, #36]
 309              		.loc 1 628 0
 310 0010 CB68     		ldr	r3, [r1, #12]
 311 0012 23F0A003 		bic	r3, r3, #160
 312 0016 CB60     		str	r3, [r1, #12]
 313 0018 00E0     		b	.L34
 314              	.LVL15:
 315              	.L41:
 316              		.loc 1 635 0 discriminator 1
 317 001a 4AB9     		cbnz	r2, .L33
 318              	.LVL16:
 319              	.L34:
 320              		.loc 1 633 0 discriminator 2
 321 001c CA68     		ldr	r2, [r1, #12]
 322              		.loc 1 634 0 discriminator 2
 323 001e 019B     		ldr	r3, [sp, #4]
 324 0020 0133     		adds	r3, r3, #1
 325 0022 0193     		str	r3, [sp, #4]
 326              		.loc 1 635 0 discriminator 2
 327 0024 019B     		ldr	r3, [sp, #4]
 328 0026 B3F5003F 		cmp	r3, #131072
 329              		.loc 1 633 0 discriminator 2
 330 002a 02F02002 		and	r2, r2, #32
 331              	.LVL17:
 332              		.loc 1 635 0 discriminator 2
 333 002e F4D1     		bne	.L41
 334              	.L33:
 335              		.loc 1 637 0
 336 0030 034B     		ldr	r3, .L42
 337 0032 D868     		ldr	r0, [r3, #12]
 338              	.LVL18:
ARM GAS  /var/folders/7z/kps_xzfj7sn5l5gkyq8s9db00000gn/T//cck5P0LB.s 			page 7


 339              		.loc 1 647 0
 340 0034 FF22     		movs	r2, #255
 341              	.LVL19:
 342              		.loc 1 650 0
 343 0036 C0F34010 		ubfx	r0, r0, #5, #1
 344              	.LVL20:
 345              		.loc 1 647 0
 346 003a 5A62     		str	r2, [r3, #36]
 347              		.loc 1 650 0
 348 003c 02B0     		add	sp, sp, #8
 349              		.cfi_def_cfa_offset 0
 350              		@ sp needed
 351 003e 7047     		bx	lr
 352              	.L43:
 353              		.align	2
 354              	.L42:
 355 0040 00280040 		.word	1073752064
 356              		.cfi_endproc
 357              	.LFE117:
 358              		.size	RTC_WaitForSynchro, .-RTC_WaitForSynchro
 359 0044 AFF30080 		.section	.text.RTC_DeInit,"ax",%progbits
 359      AFF30080 
 359      AFF30080 
 360              		.align	2
 361              		.p2align 4,,15
 362              		.global	RTC_DeInit
 363              		.thumb
 364              		.thumb_func
 365              		.type	RTC_DeInit, %function
 366              	RTC_DeInit:
 367              	.LFB111:
 368              		.loc 1 374 0
 369              		.cfi_startproc
 370              		@ args = 0, pretend = 0, frame = 8
 371              		@ frame_needed = 0, uses_anonymous_args = 0
 372 0000 30B5     		push	{r4, r5, lr}
 373              		.cfi_def_cfa_offset 12
 374              		.cfi_offset 4, -12
 375              		.cfi_offset 5, -8
 376              		.cfi_offset 14, -4
 377              		.loc 1 380 0
 378 0002 204C     		ldr	r4, .L61
 379              		.loc 1 374 0
 380 0004 83B0     		sub	sp, sp, #12
 381              		.cfi_def_cfa_offset 24
 382              		.loc 1 375 0
 383 0006 0025     		movs	r5, #0
 384              		.loc 1 380 0
 385 0008 CA22     		movs	r2, #202
 386              		.loc 1 381 0
 387 000a 5323     		movs	r3, #83
 388              		.loc 1 375 0
 389 000c 0195     		str	r5, [sp, #4]
 390              	.LVL21:
 391              		.loc 1 380 0
 392 000e 6262     		str	r2, [r4, #36]
 393              		.loc 1 381 0
ARM GAS  /var/folders/7z/kps_xzfj7sn5l5gkyq8s9db00000gn/T//cck5P0LB.s 			page 8


 394 0010 6362     		str	r3, [r4, #36]
 395              		.loc 1 384 0
 396 0012 FFF7FEFF 		bl	RTC_EnterInitMode
 397              	.LVL22:
 398 0016 C0B1     		cbz	r0, .L49
 399              		.loc 1 392 0
 400 0018 42F20113 		movw	r3, #8449
 401              		.loc 1 391 0
 402 001c 2560     		str	r5, [r4]
 403              		.loc 1 392 0
 404 001e 6360     		str	r3, [r4, #4]
 405              		.loc 1 394 0
 406 0020 A368     		ldr	r3, [r4, #8]
 407 0022 03F00703 		and	r3, r3, #7
 408 0026 A360     		str	r3, [r4, #8]
 409              		.loc 1 399 0
 410 0028 2146     		mov	r1, r4
 411 002a 00E0     		b	.L48
 412              	.LVL23:
 413              	.L59:
 414              		.loc 1 401 0 discriminator 1
 415 002c 4AB9     		cbnz	r2, .L47
 416              	.LVL24:
 417              	.L48:
 418              		.loc 1 399 0 discriminator 2
 419 002e CA68     		ldr	r2, [r1, #12]
 420              		.loc 1 400 0 discriminator 2
 421 0030 019B     		ldr	r3, [sp, #4]
 422 0032 0133     		adds	r3, r3, #1
 423 0034 0193     		str	r3, [sp, #4]
 424              		.loc 1 401 0 discriminator 2
 425 0036 019B     		ldr	r3, [sp, #4]
 426 0038 B3F5803F 		cmp	r3, #65536
 427              		.loc 1 399 0 discriminator 2
 428 003c 02F00402 		and	r2, r2, #4
 429              	.LVL25:
 430              		.loc 1 401 0 discriminator 2
 431 0040 F4D1     		bne	.L59
 432              	.L47:
 433              		.loc 1 403 0
 434 0042 104B     		ldr	r3, .L61
 435 0044 DA68     		ldr	r2, [r3, #12]
 436              	.LVL26:
 437 0046 5207     		lsls	r2, r2, #29
 438 0048 05D4     		bmi	.L60
 439              	.L49:
 440              		.loc 1 386 0
 441 004a 0020     		movs	r0, #0
 442              	.L46:
 443              	.LVL27:
 444              		.loc 1 439 0
 445 004c 0D4B     		ldr	r3, .L61
 446 004e FF22     		movs	r2, #255
 447 0050 5A62     		str	r2, [r3, #36]
 448              		.loc 1 442 0
 449 0052 03B0     		add	sp, sp, #12
 450              		.cfi_remember_state
ARM GAS  /var/folders/7z/kps_xzfj7sn5l5gkyq8s9db00000gn/T//cck5P0LB.s 			page 9


 451              		.cfi_def_cfa_offset 12
 452              		@ sp needed
 453 0054 30BD     		pop	{r4, r5, pc}
 454              	.LVL28:
 455              	.L60:
 456              		.cfi_restore_state
 457              		.loc 1 410 0
 458 0056 0022     		movs	r2, #0
 459              		.loc 1 411 0
 460 0058 4FF6FF70 		movw	r0, #65535
 461              		.loc 1 412 0
 462 005c 0A49     		ldr	r1, .L61+4
 463              		.loc 1 410 0
 464 005e 9C68     		ldr	r4, [r3, #8]
 465 0060 9A60     		str	r2, [r3, #8]
 466              		.loc 1 411 0
 467 0062 5861     		str	r0, [r3, #20]
 468              		.loc 1 412 0
 469 0064 1961     		str	r1, [r3, #16]
 470              		.loc 1 413 0
 471 0066 9A61     		str	r2, [r3, #24]
 472              		.loc 1 414 0
 473 0068 DA61     		str	r2, [r3, #28]
 474              		.loc 1 415 0
 475 006a 1A62     		str	r2, [r3, #32]
 476              		.loc 1 416 0
 477 006c DA62     		str	r2, [r3, #44]
 478              		.loc 1 417 0
 479 006e DA63     		str	r2, [r3, #60]
 480              		.loc 1 418 0
 481 0070 5A64     		str	r2, [r3, #68]
 482              		.loc 1 419 0
 483 0072 9A64     		str	r2, [r3, #72]
 484              		.loc 1 422 0
 485 0074 DA60     		str	r2, [r3, #12]
 486              		.loc 1 425 0
 487 0076 1A64     		str	r2, [r3, #64]
 488              		.loc 1 427 0
 489 0078 FFF7FEFF 		bl	RTC_WaitForSynchro
 490              	.LVL29:
 491              		.loc 1 386 0
 492 007c 0030     		adds	r0, r0, #0
 493 007e 18BF     		it	ne
 494 0080 0120     		movne	r0, #1
 495 0082 E3E7     		b	.L46
 496              	.L62:
 497              		.align	2
 498              	.L61:
 499 0084 00280040 		.word	1073752064
 500 0088 FF007F00 		.word	8323327
 501              		.cfi_endproc
 502              	.LFE111:
 503              		.size	RTC_DeInit, .-RTC_DeInit
 504 008c AFF30080 		.section	.text.RTC_RefClockCmd,"ax",%progbits
 505              		.align	2
 506              		.p2align 4,,15
 507              		.global	RTC_RefClockCmd
ARM GAS  /var/folders/7z/kps_xzfj7sn5l5gkyq8s9db00000gn/T//cck5P0LB.s 			page 10


 508              		.thumb
 509              		.thumb_func
 510              		.type	RTC_RefClockCmd, %function
 511              	RTC_RefClockCmd:
 512              	.LFB118:
 513              		.loc 1 661 0
 514              		.cfi_startproc
 515              		@ args = 0, pretend = 0, frame = 0
 516              		@ frame_needed = 0, uses_anonymous_args = 0
 517              	.LVL30:
 518 0000 38B5     		push	{r3, r4, r5, lr}
 519              		.cfi_def_cfa_offset 16
 520              		.cfi_offset 3, -16
 521              		.cfi_offset 4, -12
 522              		.cfi_offset 5, -8
 523              		.cfi_offset 14, -4
 524              		.loc 1 668 0
 525 0002 0E4C     		ldr	r4, .L70
 526 0004 CA22     		movs	r2, #202
 527              		.loc 1 669 0
 528 0006 5323     		movs	r3, #83
 529              		.loc 1 668 0
 530 0008 6262     		str	r2, [r4, #36]
 531              		.loc 1 669 0
 532 000a 6362     		str	r3, [r4, #36]
 533              		.loc 1 661 0
 534 000c 0546     		mov	r5, r0
 535              		.loc 1 672 0
 536 000e FFF7FEFF 		bl	RTC_EnterInitMode
 537              	.LVL31:
 538 0012 50B1     		cbz	r0, .L64
 539              		.loc 1 681 0
 540 0014 A368     		ldr	r3, [r4, #8]
 541              		.loc 1 678 0
 542 0016 65B9     		cbnz	r5, .L69
 543              		.loc 1 686 0
 544 0018 23F01003 		bic	r3, r3, #16
 545 001c A360     		str	r3, [r4, #8]
 546              	.L66:
 547              	.LBB84:
 548              	.LBB85:
 549              		.loc 1 598 0
 550 001e 074A     		ldr	r2, .L70
 551 0020 D368     		ldr	r3, [r2, #12]
 552 0022 23F08003 		bic	r3, r3, #128
 553 0026 D360     		str	r3, [r2, #12]
 554              	.LVL32:
 555              	.LBE85:
 556              	.LBE84:
 557              		.loc 1 691 0
 558 0028 0120     		movs	r0, #1
 559              	.LVL33:
 560              	.L64:
 561              		.loc 1 695 0
 562 002a 044B     		ldr	r3, .L70
 563 002c FF22     		movs	r2, #255
 564 002e 5A62     		str	r2, [r3, #36]
ARM GAS  /var/folders/7z/kps_xzfj7sn5l5gkyq8s9db00000gn/T//cck5P0LB.s 			page 11


 565              		.loc 1 698 0
 566 0030 38BD     		pop	{r3, r4, r5, pc}
 567              	.LVL34:
 568              	.L69:
 569              		.loc 1 681 0
 570 0032 43F01003 		orr	r3, r3, #16
 571 0036 A360     		str	r3, [r4, #8]
 572 0038 F1E7     		b	.L66
 573              	.L71:
 574 003a 00BF     		.align	2
 575              	.L70:
 576 003c 00280040 		.word	1073752064
 577              		.cfi_endproc
 578              	.LFE118:
 579              		.size	RTC_RefClockCmd, .-RTC_RefClockCmd
 580              		.section	.text.RTC_BypassShadowCmd,"ax",%progbits
 581              		.align	2
 582              		.p2align 4,,15
 583              		.global	RTC_BypassShadowCmd
 584              		.thumb
 585              		.thumb_func
 586              		.type	RTC_BypassShadowCmd, %function
 587              	RTC_BypassShadowCmd:
 588              	.LFB119:
 589              		.loc 1 709 0
 590              		.cfi_startproc
 591              		@ args = 0, pretend = 0, frame = 0
 592              		@ frame_needed = 0, uses_anonymous_args = 0
 593              		@ link register save eliminated.
 594              	.LVL35:
 595              		.loc 1 714 0
 596 0000 0A4B     		ldr	r3, .L76
 597              		.loc 1 715 0
 598 0002 5322     		movs	r2, #83
 599              		.loc 1 714 0
 600 0004 CA21     		movs	r1, #202
 601 0006 5962     		str	r1, [r3, #36]
 602              		.loc 1 715 0
 603 0008 5A62     		str	r2, [r3, #36]
 604              		.loc 1 720 0
 605 000a 9A68     		ldr	r2, [r3, #8]
 606              		.loc 1 717 0
 607 000c 30B9     		cbnz	r0, .L75
 608              		.loc 1 725 0
 609 000e 02F0DF02 		and	r2, r2, #223
 610 0012 9A60     		str	r2, [r3, #8]
 611              		.loc 1 729 0
 612 0014 054B     		ldr	r3, .L76
 613 0016 FF22     		movs	r2, #255
 614 0018 5A62     		str	r2, [r3, #36]
 615 001a 7047     		bx	lr
 616              	.L75:
 617              		.loc 1 720 0
 618 001c 42F02002 		orr	r2, r2, #32
 619 0020 9A60     		str	r2, [r3, #8]
 620              		.loc 1 729 0
 621 0022 024B     		ldr	r3, .L76
ARM GAS  /var/folders/7z/kps_xzfj7sn5l5gkyq8s9db00000gn/T//cck5P0LB.s 			page 12


 622 0024 FF22     		movs	r2, #255
 623 0026 5A62     		str	r2, [r3, #36]
 624 0028 7047     		bx	lr
 625              	.L77:
 626 002a 00BF     		.align	2
 627              	.L76:
 628 002c 00280040 		.word	1073752064
 629              		.cfi_endproc
 630              	.LFE119:
 631              		.size	RTC_BypassShadowCmd, .-RTC_BypassShadowCmd
 632              		.section	.text.RTC_SetTime,"ax",%progbits
 633              		.align	2
 634              		.p2align 4,,15
 635              		.global	RTC_SetTime
 636              		.thumb
 637              		.thumb_func
 638              		.type	RTC_SetTime, %function
 639              	RTC_SetTime:
 640              	.LFB120:
 641              		.loc 1 764 0
 642              		.cfi_startproc
 643              		@ args = 0, pretend = 0, frame = 0
 644              		@ frame_needed = 0, uses_anonymous_args = 0
 645              	.LVL36:
 646 0000 70B5     		push	{r4, r5, r6, lr}
 647              		.cfi_def_cfa_offset 16
 648              		.cfi_offset 4, -16
 649              		.cfi_offset 5, -12
 650              		.cfi_offset 6, -8
 651              		.cfi_offset 14, -4
 652              		.loc 1 773 0
 653 0002 3A4B     		ldr	r3, .L103
 654              		.loc 1 771 0
 655 0004 0028     		cmp	r0, #0
 656 0006 37D1     		bne	.L79
 657              		.loc 1 773 0
 658 0008 9E68     		ldr	r6, [r3, #8]
 659 000a 16F04006 		ands	r6, r6, #64
 660 000e 5AD1     		bne	.L80
 661              		.loc 1 780 0
 662 0010 CE70     		strb	r6, [r1, #3]
 663              	.L81:
 664              		.loc 1 813 0
 665 0012 0878     		ldrb	r0, [r1]	@ zero_extendqisi2
 666              	.LVL37:
 667              	.LBB86:
 668              	.LBB87:
 669              		.loc 1 2726 0
 670 0014 0928     		cmp	r0, #9
 671 0016 4FF00005 		mov	r5, #0
 672 001a 07D9     		bls	.L92
 673              	.LVL38:
 674              	.L84:
 675              		.loc 1 2729 0
 676 001c 0A38     		subs	r0, r0, #10
 677              	.LVL39:
 678 001e C0B2     		uxtb	r0, r0
ARM GAS  /var/folders/7z/kps_xzfj7sn5l5gkyq8s9db00000gn/T//cck5P0LB.s 			page 13


 679              		.loc 1 2728 0
 680 0020 0135     		adds	r5, r5, #1
 681              	.LVL40:
 682              		.loc 1 2726 0
 683 0022 0928     		cmp	r0, #9
 684              		.loc 1 2728 0
 685 0024 EDB2     		uxtb	r5, r5
 686              	.LVL41:
 687              		.loc 1 2726 0
 688 0026 F9D8     		bhi	.L84
 689 0028 2D01     		lsls	r5, r5, #4
 690              	.LVL42:
 691 002a EDB2     		uxtb	r5, r5
 692              	.L92:
 693              	.LBE87:
 694              	.LBE86:
 695              		.loc 1 814 0
 696 002c 4A78     		ldrb	r2, [r1, #1]	@ zero_extendqisi2
 697              	.LVL43:
 698              		.loc 1 813 0
 699 002e 2843     		orrs	r0, r0, r5
 700              	.LVL44:
 701              	.LBB88:
 702              	.LBB89:
 703              		.loc 1 2726 0
 704 0030 092A     		cmp	r2, #9
 705              	.LBE89:
 706              	.LBE88:
 707              		.loc 1 813 0
 708 0032 4FEA0040 		lsl	r0, r0, #16
 709              	.LBB92:
 710              	.LBB90:
 711              		.loc 1 2726 0
 712 0036 56D9     		bls	.L93
 713 0038 0023     		movs	r3, #0
 714              	.LVL45:
 715              	.L86:
 716              		.loc 1 2729 0
 717 003a 0A3A     		subs	r2, r2, #10
 718              	.LVL46:
 719 003c D2B2     		uxtb	r2, r2
 720              		.loc 1 2728 0
 721 003e 0133     		adds	r3, r3, #1
 722              	.LVL47:
 723              		.loc 1 2726 0
 724 0040 092A     		cmp	r2, #9
 725              		.loc 1 2728 0
 726 0042 DBB2     		uxtb	r3, r3
 727              	.LVL48:
 728              		.loc 1 2726 0
 729 0044 F9D8     		bhi	.L86
 730 0046 1B01     		lsls	r3, r3, #4
 731              	.LVL49:
 732 0048 DCB2     		uxtb	r4, r3
 733              	.L85:
 734              	.LBE90:
 735              	.LBE92:
ARM GAS  /var/folders/7z/kps_xzfj7sn5l5gkyq8s9db00000gn/T//cck5P0LB.s 			page 14


 736              		.loc 1 815 0
 737 004a 8B78     		ldrb	r3, [r1, #2]	@ zero_extendqisi2
 738              	.LVL50:
 739              		.loc 1 814 0
 740 004c 2243     		orrs	r2, r2, r4
 741              	.LVL51:
 742              	.LBB93:
 743              	.LBB94:
 744              		.loc 1 2726 0
 745 004e 092B     		cmp	r3, #9
 746              	.LBE94:
 747              	.LBE93:
 748              		.loc 1 814 0
 749 0050 4FEA0221 		lsl	r1, r2, #8
 750              	.LVL52:
 751              	.LBB96:
 752              	.LBB95:
 753              		.loc 1 2726 0
 754 0054 4FF00004 		mov	r4, #0
 755 0058 07D9     		bls	.L87
 756              	.LVL53:
 757              	.L88:
 758              		.loc 1 2729 0
 759 005a 0A3B     		subs	r3, r3, #10
 760              	.LVL54:
 761 005c DBB2     		uxtb	r3, r3
 762              		.loc 1 2728 0
 763 005e 0134     		adds	r4, r4, #1
 764              	.LVL55:
 765              		.loc 1 2726 0
 766 0060 092B     		cmp	r3, #9
 767              		.loc 1 2728 0
 768 0062 E4B2     		uxtb	r4, r4
 769              	.LVL56:
 770              		.loc 1 2726 0
 771 0064 F9D8     		bhi	.L88
 772 0066 2401     		lsls	r4, r4, #4
 773              	.LVL57:
 774 0068 E4B2     		uxtb	r4, r4
 775              	.L87:
 776 006a 40EA0602 		orr	r2, r0, r6
 777 006e 0A43     		orrs	r2, r2, r1
 778              	.LBE95:
 779              	.LBE96:
 780              		.loc 1 815 0
 781 0070 2343     		orrs	r3, r3, r4
 782              	.LVL58:
 783              		.loc 1 813 0
 784 0072 42EA0304 		orr	r4, r2, r3
 785              	.LVL59:
 786 0076 0DE0     		b	.L90
 787              	.LVL60:
 788              	.L79:
 789              		.loc 1 788 0
 790 0078 9C68     		ldr	r4, [r3, #8]
 791 007a 14F04002 		ands	r2, r4, #64
 792 007e 25D1     		bne	.L82
ARM GAS  /var/folders/7z/kps_xzfj7sn5l5gkyq8s9db00000gn/T//cck5P0LB.s 			page 15


 793              		.loc 1 796 0
 794 0080 CA70     		strb	r2, [r1, #3]
 795              	.L83:
 796              		.loc 1 807 0
 797 0082 4878     		ldrb	r0, [r1, #1]	@ zero_extendqisi2
 798              	.LVL61:
 799              		.loc 1 806 0
 800 0084 0B78     		ldrb	r3, [r1]	@ zero_extendqisi2
 801              		.loc 1 808 0
 802 0086 8C78     		ldrb	r4, [r1, #2]	@ zero_extendqisi2
 803              		.loc 1 807 0
 804 0088 0102     		lsls	r1, r0, #8
 805              	.LVL62:
 806              		.loc 1 806 0
 807 008a 41EA0343 		orr	r3, r1, r3, lsl #16
 808              		.loc 1 807 0
 809 008e 2343     		orrs	r3, r3, r4
 810              		.loc 1 806 0
 811 0090 43EA0204 		orr	r4, r3, r2
 812              	.LVL63:
 813              	.L90:
 814              		.loc 1 820 0
 815 0094 154D     		ldr	r5, .L103
 816 0096 CA22     		movs	r2, #202
 817              		.loc 1 821 0
 818 0098 5323     		movs	r3, #83
 819              		.loc 1 820 0
 820 009a 6A62     		str	r2, [r5, #36]
 821              		.loc 1 821 0
 822 009c 6B62     		str	r3, [r5, #36]
 823              		.loc 1 824 0
 824 009e FFF7FEFF 		bl	RTC_EnterInitMode
 825              	.LVL64:
 826 00a2 60B1     		cbz	r0, .L89
 827              		.loc 1 831 0
 828 00a4 04F07F33 		and	r3, r4, #2139062143
 829 00a8 23F0FE43 		bic	r3, r3, #2130706432
 830 00ac 2B60     		str	r3, [r5]
 831              	.LBB97:
 832              	.LBB98:
 833              		.loc 1 598 0
 834 00ae EB68     		ldr	r3, [r5, #12]
 835 00b0 23F08003 		bic	r3, r3, #128
 836 00b4 EB60     		str	r3, [r5, #12]
 837              	.LBE98:
 838              	.LBE97:
 839              		.loc 1 837 0
 840 00b6 AB68     		ldr	r3, [r5, #8]
 841 00b8 9B06     		lsls	r3, r3, #26
 842 00ba 0AD5     		bpl	.L102
 843              		.loc 1 850 0
 844 00bc 0120     		movs	r0, #1
 845              	.L89:
 846              	.LVL65:
 847              		.loc 1 854 0
 848 00be 0B4B     		ldr	r3, .L103
 849 00c0 FF22     		movs	r2, #255
ARM GAS  /var/folders/7z/kps_xzfj7sn5l5gkyq8s9db00000gn/T//cck5P0LB.s 			page 16


 850 00c2 5A62     		str	r2, [r3, #36]
 851              		.loc 1 857 0
 852 00c4 70BD     		pop	{r4, r5, r6, pc}
 853              	.LVL66:
 854              	.L80:
 855 00c6 CE78     		ldrb	r6, [r1, #3]	@ zero_extendqisi2
 856 00c8 3604     		lsls	r6, r6, #16
 857 00ca A2E7     		b	.L81
 858              	.L82:
 859 00cc CC78     		ldrb	r4, [r1, #3]	@ zero_extendqisi2
 860 00ce 2204     		lsls	r2, r4, #16
 861 00d0 D7E7     		b	.L83
 862              	.LVL67:
 863              	.L102:
 864              		.loc 1 839 0
 865 00d2 FFF7FEFF 		bl	RTC_WaitForSynchro
 866              	.LVL68:
 867              		.loc 1 854 0
 868 00d6 054B     		ldr	r3, .L103
 869              		.loc 1 826 0
 870 00d8 0030     		adds	r0, r0, #0
 871              		.loc 1 854 0
 872 00da 4FF0FF02 		mov	r2, #255
 873              		.loc 1 826 0
 874 00de 18BF     		it	ne
 875 00e0 0120     		movne	r0, #1
 876              	.LVL69:
 877              		.loc 1 854 0
 878 00e2 5A62     		str	r2, [r3, #36]
 879              		.loc 1 857 0
 880 00e4 70BD     		pop	{r4, r5, r6, pc}
 881              	.LVL70:
 882              	.L93:
 883              	.LBB99:
 884              	.LBB91:
 885              		.loc 1 2726 0
 886 00e6 0024     		movs	r4, #0
 887 00e8 AFE7     		b	.L85
 888              	.L104:
 889 00ea 00BF     		.align	2
 890              	.L103:
 891 00ec 00280040 		.word	1073752064
 892              	.LBE91:
 893              	.LBE99:
 894              		.cfi_endproc
 895              	.LFE120:
 896              		.size	RTC_SetTime, .-RTC_SetTime
 897              		.section	.text.RTC_TimeStructInit,"ax",%progbits
 898              		.align	2
 899              		.p2align 4,,15
 900              		.global	RTC_TimeStructInit
 901              		.thumb
 902              		.thumb_func
 903              		.type	RTC_TimeStructInit, %function
 904              	RTC_TimeStructInit:
 905              	.LFB121:
 906              		.loc 1 867 0
ARM GAS  /var/folders/7z/kps_xzfj7sn5l5gkyq8s9db00000gn/T//cck5P0LB.s 			page 17


 907              		.cfi_startproc
 908              		@ args = 0, pretend = 0, frame = 0
 909              		@ frame_needed = 0, uses_anonymous_args = 0
 910              		@ link register save eliminated.
 911              	.LVL71:
 912              		.loc 1 869 0
 913 0000 0023     		movs	r3, #0
 914 0002 C370     		strb	r3, [r0, #3]
 915              		.loc 1 870 0
 916 0004 0370     		strb	r3, [r0]
 917              		.loc 1 871 0
 918 0006 4370     		strb	r3, [r0, #1]
 919              		.loc 1 872 0
 920 0008 8370     		strb	r3, [r0, #2]
 921 000a 7047     		bx	lr
 922              		.cfi_endproc
 923              	.LFE121:
 924              		.size	RTC_TimeStructInit, .-RTC_TimeStructInit
 925 000c AFF30080 		.section	.text.RTC_GetTime,"ax",%progbits
 926              		.align	2
 927              		.p2align 4,,15
 928              		.global	RTC_GetTime
 929              		.thumb
 930              		.thumb_func
 931              		.type	RTC_GetTime, %function
 932              	RTC_GetTime:
 933              	.LFB122:
 934              		.loc 1 886 0
 935              		.cfi_startproc
 936              		@ args = 0, pretend = 0, frame = 0
 937              		@ frame_needed = 0, uses_anonymous_args = 0
 938              		@ link register save eliminated.
 939              	.LVL72:
 940              		.loc 1 893 0
 941 0000 154B     		ldr	r3, .L109
 942 0002 1B68     		ldr	r3, [r3]
 943              	.LVL73:
 944              		.loc 1 899 0
 945 0004 03F48002 		and	r2, r3, #4194304
 946              		.loc 1 886 0
 947 0008 F0B4     		push	{r4, r5, r6, r7}
 948              		.cfi_def_cfa_offset 16
 949              		.cfi_offset 4, -16
 950              		.cfi_offset 5, -12
 951              		.cfi_offset 6, -8
 952              		.cfi_offset 7, -4
 953              		.loc 1 899 0
 954 000a 120C     		lsrs	r2, r2, #16
 955              		.loc 1 898 0
 956 000c 03F07F06 		and	r6, r3, #127
 957              		.loc 1 896 0
 958 0010 C3F30544 		ubfx	r4, r3, #16, #6
 959              		.loc 1 897 0
 960 0014 C3F30623 		ubfx	r3, r3, #8, #7
 961              	.LVL74:
 962              		.loc 1 899 0
 963 0018 CA70     		strb	r2, [r1, #3]
ARM GAS  /var/folders/7z/kps_xzfj7sn5l5gkyq8s9db00000gn/T//cck5P0LB.s 			page 18


 964              		.loc 1 898 0
 965 001a 8E70     		strb	r6, [r1, #2]
 966              		.loc 1 896 0
 967 001c 0C70     		strb	r4, [r1]
 968              		.loc 1 897 0
 969 001e 4B70     		strb	r3, [r1, #1]
 970              		.loc 1 902 0
 971 0020 B8B9     		cbnz	r0, .L106
 972              	.LVL75:
 973              	.LBB100:
 974              	.LBB101:
 975              		.loc 1 2743 0
 976 0022 2009     		lsrs	r0, r4, #4
 977              	.LVL76:
 978              	.LBE101:
 979              	.LBE100:
 980              	.LBB105:
 981              	.LBB106:
 982 0024 1A09     		lsrs	r2, r3, #4
 983              	.LBE106:
 984              	.LBE105:
 985              	.LBB110:
 986              	.LBB111:
 987 0026 3509     		lsrs	r5, r6, #4
 988              	.LBE111:
 989              	.LBE110:
 990              	.LBB115:
 991              	.LBB102:
 992 0028 00EB8007 		add	r7, r0, r0, lsl #2
 993              	.LBE102:
 994              	.LBE115:
 995              	.LBB116:
 996              	.LBB112:
 997 002c 05EB8505 		add	r5, r5, r5, lsl #2
 998              	.LBE112:
 999              	.LBE116:
 1000              	.LBB117:
 1001              	.LBB107:
 1002 0030 02EB8200 		add	r0, r2, r2, lsl #2
 1003              	.LBE107:
 1004              	.LBE117:
 1005              	.LBB118:
 1006              	.LBB113:
 1007              		.loc 1 2744 0
 1008 0034 06F00F06 		and	r6, r6, #15
 1009              	.LBE113:
 1010              	.LBE118:
 1011              	.LBB119:
 1012              	.LBB103:
 1013 0038 04F00F04 		and	r4, r4, #15
 1014              	.LVL77:
 1015              	.LBE103:
 1016              	.LBE119:
 1017              	.LBB120:
 1018              	.LBB108:
 1019 003c 03F00F02 		and	r2, r3, #15
 1020              	.LBE108:
ARM GAS  /var/folders/7z/kps_xzfj7sn5l5gkyq8s9db00000gn/T//cck5P0LB.s 			page 19


 1021              	.LBE120:
 1022              	.LBB121:
 1023              	.LBB114:
 1024 0040 06EB4505 		add	r5, r6, r5, lsl #1
 1025              	.LBE114:
 1026              	.LBE121:
 1027              	.LBB122:
 1028              	.LBB104:
 1029 0044 04EB4704 		add	r4, r4, r7, lsl #1
 1030              	.LBE104:
 1031              	.LBE122:
 1032              	.LBB123:
 1033              	.LBB109:
 1034 0048 02EB4003 		add	r3, r2, r0, lsl #1
 1035              	.LBE109:
 1036              	.LBE123:
 1037              		.loc 1 907 0
 1038 004c 8D70     		strb	r5, [r1, #2]
 1039              		.loc 1 905 0
 1040 004e 0C70     		strb	r4, [r1]
 1041              	.LVL78:
 1042              		.loc 1 906 0
 1043 0050 4B70     		strb	r3, [r1, #1]
 1044              	.LVL79:
 1045              	.L106:
 1046              		.loc 1 909 0
 1047 0052 F0BC     		pop	{r4, r5, r6, r7}
 1048              		.cfi_restore 7
 1049              		.cfi_restore 6
 1050              		.cfi_restore 5
 1051              		.cfi_restore 4
 1052              		.cfi_def_cfa_offset 0
 1053 0054 7047     		bx	lr
 1054              	.L110:
 1055 0056 00BF     		.align	2
 1056              	.L109:
 1057 0058 00280040 		.word	1073752064
 1058              		.cfi_endproc
 1059              	.LFE122:
 1060              		.size	RTC_GetTime, .-RTC_GetTime
 1061 005c AFF30080 		.section	.text.RTC_GetSubSecond,"ax",%progbits
 1062              		.align	2
 1063              		.p2align 4,,15
 1064              		.global	RTC_GetSubSecond
 1065              		.thumb
 1066              		.thumb_func
 1067              		.type	RTC_GetSubSecond, %function
 1068              	RTC_GetSubSecond:
 1069              	.LFB123:
 1070              		.loc 1 919 0
 1071              		.cfi_startproc
 1072              		@ args = 0, pretend = 0, frame = 0
 1073              		@ frame_needed = 0, uses_anonymous_args = 0
 1074              		@ link register save eliminated.
 1075              	.LVL80:
 1076              		.loc 1 923 0
 1077 0000 014B     		ldr	r3, .L112
ARM GAS  /var/folders/7z/kps_xzfj7sn5l5gkyq8s9db00000gn/T//cck5P0LB.s 			page 20


 1078 0002 986A     		ldr	r0, [r3, #40]
 1079              	.LVL81:
 1080              		.loc 1 926 0
 1081 0004 5B68     		ldr	r3, [r3, #4]
 1082              		.loc 1 929 0
 1083 0006 7047     		bx	lr
 1084              	.L113:
 1085              		.align	2
 1086              	.L112:
 1087 0008 00280040 		.word	1073752064
 1088              		.cfi_endproc
 1089              	.LFE123:
 1090              		.size	RTC_GetSubSecond, .-RTC_GetSubSecond
 1091 000c AFF30080 		.section	.text.RTC_SetDate,"ax",%progbits
 1092              		.align	2
 1093              		.p2align 4,,15
 1094              		.global	RTC_SetDate
 1095              		.thumb
 1096              		.thumb_func
 1097              		.type	RTC_SetDate, %function
 1098              	RTC_SetDate:
 1099              	.LFB124:
 1100              		.loc 1 944 0
 1101              		.cfi_startproc
 1102              		@ args = 0, pretend = 0, frame = 0
 1103              		@ frame_needed = 0, uses_anonymous_args = 0
 1104              	.LVL82:
 1105 0000 38B5     		push	{r3, r4, r5, lr}
 1106              		.cfi_def_cfa_offset 16
 1107              		.cfi_offset 3, -16
 1108              		.cfi_offset 4, -12
 1109              		.cfi_offset 5, -8
 1110              		.cfi_offset 14, -4
 1111              		.loc 1 951 0
 1112 0002 0028     		cmp	r0, #0
 1113 0004 3AD1     		bne	.L115
 1114              		.loc 1 951 0 is_stmt 0 discriminator 1
 1115 0006 4A78     		ldrb	r2, [r1, #1]	@ zero_extendqisi2
 1116 0008 D006     		lsls	r0, r2, #27
 1117              	.LVL83:
 1118 000a 04D5     		bpl	.L116
 1119              		.loc 1 953 0 is_stmt 1
 1120 000c 22F01002 		bic	r2, r2, #16
 1121 0010 0A32     		adds	r2, r2, #10
 1122 0012 D2B2     		uxtb	r2, r2
 1123 0014 4A70     		strb	r2, [r1, #1]
 1124              	.L116:
 1125              		.loc 1 981 0
 1126 0016 CB78     		ldrb	r3, [r1, #3]	@ zero_extendqisi2
 1127              	.LVL84:
 1128              	.LBB124:
 1129              	.LBB125:
 1130              		.loc 1 2726 0
 1131 0018 092B     		cmp	r3, #9
 1132 001a 4FF00000 		mov	r0, #0
 1133 001e 07D9     		bls	.L124
 1134              	.LVL85:
ARM GAS  /var/folders/7z/kps_xzfj7sn5l5gkyq8s9db00000gn/T//cck5P0LB.s 			page 21


 1135              	.L117:
 1136              		.loc 1 2729 0
 1137 0020 0A3B     		subs	r3, r3, #10
 1138              	.LVL86:
 1139 0022 DBB2     		uxtb	r3, r3
 1140              		.loc 1 2728 0
 1141 0024 0130     		adds	r0, r0, #1
 1142              	.LVL87:
 1143              		.loc 1 2726 0
 1144 0026 092B     		cmp	r3, #9
 1145              		.loc 1 2728 0
 1146 0028 C0B2     		uxtb	r0, r0
 1147              	.LVL88:
 1148              		.loc 1 2726 0
 1149 002a F9D8     		bhi	.L117
 1150 002c 0001     		lsls	r0, r0, #4
 1151              	.LVL89:
 1152 002e C0B2     		uxtb	r0, r0
 1153              	.L124:
 1154              	.LBE125:
 1155              	.LBE124:
 1156              		.loc 1 981 0
 1157 0030 0343     		orrs	r3, r3, r0
 1158              	.LVL90:
 1159              	.LBB126:
 1160              	.LBB127:
 1161              		.loc 1 2726 0
 1162 0032 092A     		cmp	r2, #9
 1163              	.LBE127:
 1164              	.LBE126:
 1165              		.loc 1 981 0
 1166 0034 4FEA0340 		lsl	r0, r3, #16
 1167              	.LVL91:
 1168              	.LBB130:
 1169              	.LBB128:
 1170              		.loc 1 2726 0
 1171 0038 4ED9     		bls	.L127
 1172 003a 0023     		movs	r3, #0
 1173              	.LVL92:
 1174              	.L119:
 1175              		.loc 1 2729 0
 1176 003c 0A3A     		subs	r2, r2, #10
 1177              	.LVL93:
 1178 003e D2B2     		uxtb	r2, r2
 1179              		.loc 1 2728 0
 1180 0040 0133     		adds	r3, r3, #1
 1181              	.LVL94:
 1182              		.loc 1 2726 0
 1183 0042 092A     		cmp	r2, #9
 1184              		.loc 1 2728 0
 1185 0044 DBB2     		uxtb	r3, r3
 1186              	.LVL95:
 1187              		.loc 1 2726 0
 1188 0046 F9D8     		bhi	.L119
 1189 0048 1B01     		lsls	r3, r3, #4
 1190              	.LVL96:
 1191 004a DCB2     		uxtb	r4, r3
ARM GAS  /var/folders/7z/kps_xzfj7sn5l5gkyq8s9db00000gn/T//cck5P0LB.s 			page 22


 1192              	.L118:
 1193              	.LBE128:
 1194              	.LBE130:
 1195              		.loc 1 983 0
 1196 004c 8B78     		ldrb	r3, [r1, #2]	@ zero_extendqisi2
 1197              	.LVL97:
 1198              		.loc 1 982 0
 1199 004e 2243     		orrs	r2, r2, r4
 1200              	.LVL98:
 1201              	.LBB131:
 1202              	.LBB132:
 1203              		.loc 1 2726 0
 1204 0050 092B     		cmp	r3, #9
 1205              	.LBE132:
 1206              	.LBE131:
 1207              		.loc 1 982 0
 1208 0052 4FEA0222 		lsl	r2, r2, #8
 1209              	.LBB134:
 1210              	.LBB133:
 1211              		.loc 1 2726 0
 1212 0056 4FF00004 		mov	r4, #0
 1213 005a 07D9     		bls	.L120
 1214              	.LVL99:
 1215              	.L121:
 1216              		.loc 1 2729 0
 1217 005c 0A3B     		subs	r3, r3, #10
 1218              	.LVL100:
 1219 005e DBB2     		uxtb	r3, r3
 1220              		.loc 1 2728 0
 1221 0060 0134     		adds	r4, r4, #1
 1222              	.LVL101:
 1223              		.loc 1 2726 0
 1224 0062 092B     		cmp	r3, #9
 1225              		.loc 1 2728 0
 1226 0064 E4B2     		uxtb	r4, r4
 1227              	.LVL102:
 1228              		.loc 1 2726 0
 1229 0066 F9D8     		bhi	.L121
 1230 0068 2401     		lsls	r4, r4, #4
 1231              	.LVL103:
 1232 006a E4B2     		uxtb	r4, r4
 1233              	.L120:
 1234              	.LBE133:
 1235              	.LBE134:
 1236              		.loc 1 984 0
 1237 006c 0978     		ldrb	r1, [r1]	@ zero_extendqisi2
 1238              	.LVL104:
 1239 006e 40EA4130 		orr	r0, r0, r1, lsl #13
 1240 0072 1043     		orrs	r0, r0, r2
 1241              		.loc 1 983 0
 1242 0074 2343     		orrs	r3, r3, r4
 1243              	.LVL105:
 1244              		.loc 1 981 0
 1245 0076 40EA0304 		orr	r4, r0, r3
 1246              	.LVL106:
 1247 007a 0AE0     		b	.L125
 1248              	.LVL107:
ARM GAS  /var/folders/7z/kps_xzfj7sn5l5gkyq8s9db00000gn/T//cck5P0LB.s 			page 23


 1249              	.L115:
 1250              		.loc 1 975 0
 1251 007c 4878     		ldrb	r0, [r1, #1]	@ zero_extendqisi2
 1252              	.LVL108:
 1253              		.loc 1 974 0
 1254 007e CC78     		ldrb	r4, [r1, #3]	@ zero_extendqisi2
 1255              		.loc 1 976 0
 1256 0080 8A78     		ldrb	r2, [r1, #2]	@ zero_extendqisi2
 1257              		.loc 1 977 0
 1258 0082 0D78     		ldrb	r5, [r1]	@ zero_extendqisi2
 1259              		.loc 1 975 0
 1260 0084 0102     		lsls	r1, r0, #8
 1261              	.LVL109:
 1262              		.loc 1 974 0
 1263 0086 41EA0444 		orr	r4, r1, r4, lsl #16
 1264              		.loc 1 975 0
 1265 008a 44EA0203 		orr	r3, r4, r2
 1266              		.loc 1 974 0
 1267 008e 43EA4534 		orr	r4, r3, r5, lsl #13
 1268              	.LVL110:
 1269              	.L125:
 1270              		.loc 1 988 0
 1271 0092 124D     		ldr	r5, .L137
 1272 0094 CA22     		movs	r2, #202
 1273              		.loc 1 989 0
 1274 0096 5323     		movs	r3, #83
 1275              		.loc 1 988 0
 1276 0098 6A62     		str	r2, [r5, #36]
 1277              		.loc 1 989 0
 1278 009a 6B62     		str	r3, [r5, #36]
 1279              		.loc 1 992 0
 1280 009c FFF7FEFF 		bl	RTC_EnterInitMode
 1281              	.LVL111:
 1282 00a0 60B1     		cbz	r0, .L122
 1283              		.loc 1 999 0
 1284 00a2 24F07F43 		bic	r3, r4, #-16777216
 1285 00a6 23F0C003 		bic	r3, r3, #192
 1286 00aa 6B60     		str	r3, [r5, #4]
 1287              	.LBB135:
 1288              	.LBB136:
 1289              		.loc 1 598 0
 1290 00ac EB68     		ldr	r3, [r5, #12]
 1291 00ae 23F08003 		bic	r3, r3, #128
 1292 00b2 EB60     		str	r3, [r5, #12]
 1293              	.LBE136:
 1294              	.LBE135:
 1295              		.loc 1 1005 0
 1296 00b4 AB68     		ldr	r3, [r5, #8]
 1297 00b6 9B06     		lsls	r3, r3, #26
 1298 00b8 04D5     		bpl	.L136
 1299              		.loc 1 1018 0
 1300 00ba 0120     		movs	r0, #1
 1301              	.L122:
 1302              	.LVL112:
 1303              		.loc 1 1022 0
 1304 00bc 074B     		ldr	r3, .L137
 1305 00be FF22     		movs	r2, #255
ARM GAS  /var/folders/7z/kps_xzfj7sn5l5gkyq8s9db00000gn/T//cck5P0LB.s 			page 24


 1306 00c0 5A62     		str	r2, [r3, #36]
 1307              		.loc 1 1025 0
 1308 00c2 38BD     		pop	{r3, r4, r5, pc}
 1309              	.LVL113:
 1310              	.L136:
 1311              		.loc 1 1007 0
 1312 00c4 FFF7FEFF 		bl	RTC_WaitForSynchro
 1313              	.LVL114:
 1314              		.loc 1 1022 0
 1315 00c8 044B     		ldr	r3, .L137
 1316              		.loc 1 994 0
 1317 00ca 0030     		adds	r0, r0, #0
 1318              		.loc 1 1022 0
 1319 00cc 4FF0FF02 		mov	r2, #255
 1320              		.loc 1 994 0
 1321 00d0 18BF     		it	ne
 1322 00d2 0120     		movne	r0, #1
 1323              	.LVL115:
 1324              		.loc 1 1022 0
 1325 00d4 5A62     		str	r2, [r3, #36]
 1326              		.loc 1 1025 0
 1327 00d6 38BD     		pop	{r3, r4, r5, pc}
 1328              	.LVL116:
 1329              	.L127:
 1330              	.LBB137:
 1331              	.LBB129:
 1332              		.loc 1 2726 0
 1333 00d8 0024     		movs	r4, #0
 1334 00da B7E7     		b	.L118
 1335              	.L138:
 1336              		.align	2
 1337              	.L137:
 1338 00dc 00280040 		.word	1073752064
 1339              	.LBE129:
 1340              	.LBE137:
 1341              		.cfi_endproc
 1342              	.LFE124:
 1343              		.size	RTC_SetDate, .-RTC_SetDate
 1344              		.section	.text.RTC_DateStructInit,"ax",%progbits
 1345              		.align	2
 1346              		.p2align 4,,15
 1347              		.global	RTC_DateStructInit
 1348              		.thumb
 1349              		.thumb_func
 1350              		.type	RTC_DateStructInit, %function
 1351              	RTC_DateStructInit:
 1352              	.LFB125:
 1353              		.loc 1 1035 0
 1354              		.cfi_startproc
 1355              		@ args = 0, pretend = 0, frame = 0
 1356              		@ frame_needed = 0, uses_anonymous_args = 0
 1357              		@ link register save eliminated.
 1358              	.LVL117:
 1359              		.loc 1 1037 0
 1360 0000 0123     		movs	r3, #1
 1361              		.loc 1 1040 0
 1362 0002 0022     		movs	r2, #0
ARM GAS  /var/folders/7z/kps_xzfj7sn5l5gkyq8s9db00000gn/T//cck5P0LB.s 			page 25


 1363 0004 C270     		strb	r2, [r0, #3]
 1364              		.loc 1 1037 0
 1365 0006 0370     		strb	r3, [r0]
 1366              		.loc 1 1038 0
 1367 0008 8370     		strb	r3, [r0, #2]
 1368              		.loc 1 1039 0
 1369 000a 4370     		strb	r3, [r0, #1]
 1370 000c 7047     		bx	lr
 1371              		.cfi_endproc
 1372              	.LFE125:
 1373              		.size	RTC_DateStructInit, .-RTC_DateStructInit
 1374 000e 00BF     		.section	.text.RTC_GetDate,"ax",%progbits
 1375              		.align	2
 1376              		.p2align 4,,15
 1377              		.global	RTC_GetDate
 1378              		.thumb
 1379              		.thumb_func
 1380              		.type	RTC_GetDate, %function
 1381              	RTC_GetDate:
 1382              	.LFB126:
 1383              		.loc 1 1054 0
 1384              		.cfi_startproc
 1385              		@ args = 0, pretend = 0, frame = 0
 1386              		@ frame_needed = 0, uses_anonymous_args = 0
 1387              		@ link register save eliminated.
 1388              	.LVL118:
 1389              		.loc 1 1061 0
 1390 0000 144B     		ldr	r3, .L143
 1391 0002 5B68     		ldr	r3, [r3, #4]
 1392              	.LVL119:
 1393              		.loc 1 1054 0
 1394 0004 F0B4     		push	{r4, r5, r6, r7}
 1395              		.cfi_def_cfa_offset 16
 1396              		.cfi_offset 4, -16
 1397              		.cfi_offset 5, -12
 1398              		.cfi_offset 6, -8
 1399              		.cfi_offset 7, -4
 1400              		.loc 1 1064 0
 1401 0006 C3F30742 		ubfx	r2, r3, #16, #8
 1402              		.loc 1 1066 0
 1403 000a 03F03F05 		and	r5, r3, #63
 1404              		.loc 1 1067 0
 1405 000e C3F34236 		ubfx	r6, r3, #13, #3
 1406              		.loc 1 1065 0
 1407 0012 C3F30423 		ubfx	r3, r3, #8, #5
 1408              	.LVL120:
 1409              		.loc 1 1067 0
 1410 0016 0E70     		strb	r6, [r1]
 1411              		.loc 1 1066 0
 1412 0018 8D70     		strb	r5, [r1, #2]
 1413              		.loc 1 1064 0
 1414 001a CA70     		strb	r2, [r1, #3]
 1415              		.loc 1 1065 0
 1416 001c 4B70     		strb	r3, [r1, #1]
 1417              		.loc 1 1070 0
 1418 001e B8B9     		cbnz	r0, .L140
 1419              	.LVL121:
ARM GAS  /var/folders/7z/kps_xzfj7sn5l5gkyq8s9db00000gn/T//cck5P0LB.s 			page 26


 1420              	.LBB138:
 1421              	.LBB139:
 1422              		.loc 1 2743 0
 1423 0020 1F09     		lsrs	r7, r3, #4
 1424              	.LBE139:
 1425              	.LBE138:
 1426              	.LBB143:
 1427              	.LBB144:
 1428 0022 2C09     		lsrs	r4, r5, #4
 1429              	.LBE144:
 1430              	.LBE143:
 1431              	.LBB147:
 1432              	.LBB148:
 1433 0024 1009     		lsrs	r0, r2, #4
 1434              	.LVL122:
 1435              	.LBE148:
 1436              	.LBE147:
 1437              	.LBB151:
 1438              	.LBB140:
 1439 0026 BE00     		lsls	r6, r7, #2
 1440              	.LBE140:
 1441              	.LBE151:
 1442              	.LBB152:
 1443              	.LBB145:
 1444 0028 04EB8404 		add	r4, r4, r4, lsl #2
 1445              		.loc 1 2744 0
 1446 002c 05F00F05 		and	r5, r5, #15
 1447              	.LBE145:
 1448              	.LBE152:
 1449              	.LBB153:
 1450              	.LBB141:
 1451 0030 03F00F03 		and	r3, r3, #15
 1452              		.loc 1 2743 0
 1453 0034 3E44     		add	r6, r6, r7
 1454              	.LBE141:
 1455              	.LBE153:
 1456              	.LBB154:
 1457              	.LBB149:
 1458 0036 00EB8000 		add	r0, r0, r0, lsl #2
 1459              		.loc 1 2744 0
 1460 003a 02F00F02 		and	r2, r2, #15
 1461              	.LVL123:
 1462              	.LBE149:
 1463              	.LBE154:
 1464              	.LBB155:
 1465              	.LBB146:
 1466 003e 05EB4404 		add	r4, r5, r4, lsl #1
 1467              	.LBE146:
 1468              	.LBE155:
 1469              	.LBB156:
 1470              	.LBB142:
 1471 0042 03EB4603 		add	r3, r3, r6, lsl #1
 1472              	.LBE142:
 1473              	.LBE156:
 1474              	.LBB157:
 1475              	.LBB150:
 1476 0046 02EB4002 		add	r2, r2, r0, lsl #1
ARM GAS  /var/folders/7z/kps_xzfj7sn5l5gkyq8s9db00000gn/T//cck5P0LB.s 			page 27


 1477              	.LBE150:
 1478              	.LBE157:
 1479              		.loc 1 1075 0
 1480 004a 8C70     		strb	r4, [r1, #2]
 1481              		.loc 1 1074 0
 1482 004c 4B70     		strb	r3, [r1, #1]
 1483              		.loc 1 1073 0
 1484 004e CA70     		strb	r2, [r1, #3]
 1485              	.LVL124:
 1486              	.L140:
 1487              		.loc 1 1077 0
 1488 0050 F0BC     		pop	{r4, r5, r6, r7}
 1489              		.cfi_restore 7
 1490              		.cfi_restore 6
 1491              		.cfi_restore 5
 1492              		.cfi_restore 4
 1493              		.cfi_def_cfa_offset 0
 1494 0052 7047     		bx	lr
 1495              	.L144:
 1496              		.align	2
 1497              	.L143:
 1498 0054 00280040 		.word	1073752064
 1499              		.cfi_endproc
 1500              	.LFE126:
 1501              		.size	RTC_GetDate, .-RTC_GetDate
 1502              		.section	.text.RTC_SetAlarm,"ax",%progbits
 1503              		.align	2
 1504              		.p2align 4,,15
 1505              		.global	RTC_SetAlarm
 1506              		.thumb
 1507              		.thumb_func
 1508              		.type	RTC_SetAlarm, %function
 1509              	RTC_SetAlarm:
 1510              	.LFB127:
 1511              		.loc 1 1114 0
 1512              		.cfi_startproc
 1513              		@ args = 0, pretend = 0, frame = 0
 1514              		@ frame_needed = 0, uses_anonymous_args = 0
 1515              	.LVL125:
 1516 0000 F0B5     		push	{r4, r5, r6, r7, lr}
 1517              		.cfi_def_cfa_offset 20
 1518              		.cfi_offset 4, -20
 1519              		.cfi_offset 5, -16
 1520              		.cfi_offset 6, -12
 1521              		.cfi_offset 7, -8
 1522              		.cfi_offset 14, -4
 1523              		.loc 1 1125 0
 1524 0002 414B     		ldr	r3, .L173
 1525              		.loc 1 1123 0
 1526 0004 0028     		cmp	r0, #0
 1527 0006 50D1     		bne	.L146
 1528              		.loc 1 1125 0
 1529 0008 9D68     		ldr	r5, [r3, #8]
 1530 000a 15F04005 		ands	r5, r5, #64
 1531 000e 74D1     		bne	.L147
 1532              		.loc 1 1132 0
 1533 0010 D570     		strb	r5, [r2, #3]
ARM GAS  /var/folders/7z/kps_xzfj7sn5l5gkyq8s9db00000gn/T//cck5P0LB.s 			page 28


 1534              	.L148:
 1535              		.loc 1 1189 0
 1536 0012 1378     		ldrb	r3, [r2]	@ zero_extendqisi2
 1537              	.LVL126:
 1538              	.LBB158:
 1539              	.LBB159:
 1540              		.loc 1 2726 0
 1541 0014 092B     		cmp	r3, #9
 1542 0016 98BF     		it	ls
 1543 0018 0024     		movls	r4, #0
 1544 001a 08D9     		bls	.L162
 1545 001c 0020     		movs	r0, #0
 1546              	.LVL127:
 1547              	.L151:
 1548              		.loc 1 2729 0
 1549 001e 0A3B     		subs	r3, r3, #10
 1550              	.LVL128:
 1551 0020 DBB2     		uxtb	r3, r3
 1552              		.loc 1 2728 0
 1553 0022 0130     		adds	r0, r0, #1
 1554              	.LVL129:
 1555              		.loc 1 2726 0
 1556 0024 092B     		cmp	r3, #9
 1557              		.loc 1 2728 0
 1558 0026 C0B2     		uxtb	r0, r0
 1559              	.LVL130:
 1560              		.loc 1 2726 0
 1561 0028 F9D8     		bhi	.L151
 1562 002a 0001     		lsls	r0, r0, #4
 1563              	.LVL131:
 1564 002c C4B2     		uxtb	r4, r0
 1565              	.L162:
 1566              	.LBE159:
 1567              	.LBE158:
 1568              		.loc 1 1190 0
 1569 002e 5078     		ldrb	r0, [r2, #1]	@ zero_extendqisi2
 1570              	.LVL132:
 1571              		.loc 1 1189 0
 1572 0030 2343     		orrs	r3, r3, r4
 1573              	.LVL133:
 1574              	.LBB160:
 1575              	.LBB161:
 1576              		.loc 1 2726 0
 1577 0032 0928     		cmp	r0, #9
 1578              	.LBE161:
 1579              	.LBE160:
 1580              		.loc 1 1189 0
 1581 0034 4FEA0343 		lsl	r3, r3, #16
 1582              	.LBB164:
 1583              	.LBB162:
 1584              		.loc 1 2726 0
 1585 0038 62D9     		bls	.L163
 1586 003a 0024     		movs	r4, #0
 1587              	.LVL134:
 1588              	.L153:
 1589              		.loc 1 2729 0
 1590 003c 0A38     		subs	r0, r0, #10
ARM GAS  /var/folders/7z/kps_xzfj7sn5l5gkyq8s9db00000gn/T//cck5P0LB.s 			page 29


 1591              	.LVL135:
 1592 003e C0B2     		uxtb	r0, r0
 1593              		.loc 1 2728 0
 1594 0040 0134     		adds	r4, r4, #1
 1595              	.LVL136:
 1596              		.loc 1 2726 0
 1597 0042 0928     		cmp	r0, #9
 1598              		.loc 1 2728 0
 1599 0044 E4B2     		uxtb	r4, r4
 1600              	.LVL137:
 1601              		.loc 1 2726 0
 1602 0046 F9D8     		bhi	.L153
 1603 0048 2401     		lsls	r4, r4, #4
 1604              	.LVL138:
 1605 004a E6B2     		uxtb	r6, r4
 1606              	.L152:
 1607              	.LBE162:
 1608              	.LBE164:
 1609              		.loc 1 1191 0
 1610 004c 9478     		ldrb	r4, [r2, #2]	@ zero_extendqisi2
 1611              	.LVL139:
 1612              		.loc 1 1190 0
 1613 004e 3043     		orrs	r0, r0, r6
 1614              	.LVL140:
 1615              	.LBB165:
 1616              	.LBB166:
 1617              		.loc 1 2726 0
 1618 0050 092C     		cmp	r4, #9
 1619              	.LBE166:
 1620              	.LBE165:
 1621              		.loc 1 1190 0
 1622 0052 4FEA0020 		lsl	r0, r0, #8
 1623              	.LBB169:
 1624              	.LBB167:
 1625              		.loc 1 2726 0
 1626 0056 55D9     		bls	.L164
 1627 0058 0026     		movs	r6, #0
 1628              	.LVL141:
 1629              	.L155:
 1630              		.loc 1 2729 0
 1631 005a 0A3C     		subs	r4, r4, #10
 1632              	.LVL142:
 1633 005c E4B2     		uxtb	r4, r4
 1634              		.loc 1 2728 0
 1635 005e 0136     		adds	r6, r6, #1
 1636              	.LVL143:
 1637              		.loc 1 2726 0
 1638 0060 092C     		cmp	r4, #9
 1639              		.loc 1 2728 0
 1640 0062 F6B2     		uxtb	r6, r6
 1641              	.LVL144:
 1642              		.loc 1 2726 0
 1643 0064 F9D8     		bhi	.L155
 1644 0066 3601     		lsls	r6, r6, #4
 1645              	.LVL145:
 1646 0068 F7B2     		uxtb	r7, r6
 1647              	.L154:
ARM GAS  /var/folders/7z/kps_xzfj7sn5l5gkyq8s9db00000gn/T//cck5P0LB.s 			page 30


 1648              	.LBE167:
 1649              	.LBE169:
 1650              		.loc 1 1193 0
 1651 006a 92F80CE0 		ldrb	lr, [r2, #12]	@ zero_extendqisi2
 1652              	.LVL146:
 1653              	.LBB170:
 1654              	.LBB171:
 1655              		.loc 1 2726 0
 1656 006e BEF1090F 		cmp	lr, #9
 1657              	.LBE171:
 1658              	.LBE170:
 1659              		.loc 1 1191 0
 1660 0072 44EA0704 		orr	r4, r4, r7
 1661              	.LVL147:
 1662              	.LBB173:
 1663              	.LBB172:
 1664              		.loc 1 2726 0
 1665 0076 4FF00006 		mov	r6, #0
 1666 007a 0AD9     		bls	.L156
 1667              	.LVL148:
 1668              	.L157:
 1669              		.loc 1 2729 0
 1670 007c AEF10A0E 		sub	lr, lr, #10
 1671              	.LVL149:
 1672 0080 5FFA8EFE 		uxtb	lr, lr
 1673              		.loc 1 2728 0
 1674 0084 0136     		adds	r6, r6, #1
 1675              	.LVL150:
 1676              		.loc 1 2726 0
 1677 0086 BEF1090F 		cmp	lr, #9
 1678              		.loc 1 2728 0
 1679 008a F6B2     		uxtb	r6, r6
 1680              	.LVL151:
 1681              		.loc 1 2726 0
 1682 008c F6D8     		bhi	.L157
 1683 008e 3601     		lsls	r6, r6, #4
 1684              	.LVL152:
 1685 0090 F6B2     		uxtb	r6, r6
 1686              	.L156:
 1687 0092 5768     		ldr	r7, [r2, #4]
 1688 0094 9268     		ldr	r2, [r2, #8]
 1689              	.LVL153:
 1690 0096 3A43     		orrs	r2, r2, r7
 1691 0098 1543     		orrs	r5, r5, r2
 1692 009a 2B43     		orrs	r3, r3, r5
 1693 009c 1843     		orrs	r0, r0, r3
 1694              	.LBE172:
 1695              	.LBE173:
 1696              		.loc 1 1193 0
 1697 009e 46EA0E06 		orr	r6, r6, lr
 1698 00a2 2043     		orrs	r0, r0, r4
 1699              		.loc 1 1189 0
 1700 00a4 40EA0666 		orr	r6, r0, r6, lsl #24
 1701              	.LVL154:
 1702 00a8 15E0     		b	.L160
 1703              	.LVL155:
 1704              	.L146:
ARM GAS  /var/folders/7z/kps_xzfj7sn5l5gkyq8s9db00000gn/T//cck5P0LB.s 			page 31


 1705              		.loc 1 1149 0
 1706 00aa 9E68     		ldr	r6, [r3, #8]
 1707 00ac 16F04003 		ands	r3, r6, #64
 1708 00b0 20D1     		bne	.L149
 1709              		.loc 1 1157 0
 1710 00b2 D370     		strb	r3, [r2, #3]
 1711              	.L150:
 1712 00b4 D2F804E0 		ldr	lr, [r2, #4]
 1713 00b8 9068     		ldr	r0, [r2, #8]
 1714              	.LVL156:
 1715              		.loc 1 1181 0
 1716 00ba 9478     		ldrb	r4, [r2, #2]	@ zero_extendqisi2
 1717              		.loc 1 1179 0
 1718 00bc 1778     		ldrb	r7, [r2]	@ zero_extendqisi2
 1719              		.loc 1 1180 0
 1720 00be 5578     		ldrb	r5, [r2, #1]	@ zero_extendqisi2
 1721              		.loc 1 1183 0
 1722 00c0 167B     		ldrb	r6, [r2, #12]	@ zero_extendqisi2
 1723 00c2 4EEA0000 		orr	r0, lr, r0
 1724 00c6 2043     		orrs	r0, r0, r4
 1725 00c8 40EA0742 		orr	r2, r0, r7, lsl #16
 1726              	.LVL157:
 1727 00cc 42EA0522 		orr	r2, r2, r5, lsl #8
 1728 00d0 42EA0666 		orr	r6, r2, r6, lsl #24
 1729              		.loc 1 1179 0
 1730 00d4 1E43     		orrs	r6, r6, r3
 1731              	.LVL158:
 1732              	.L160:
 1733              		.loc 1 1199 0
 1734 00d6 0C4B     		ldr	r3, .L173
 1735              		.loc 1 1200 0
 1736 00d8 5322     		movs	r2, #83
 1737              		.loc 1 1203 0
 1738 00da B1F5807F 		cmp	r1, #256
 1739              		.loc 1 1199 0
 1740 00de 4FF0CA00 		mov	r0, #202
 1741 00e2 5862     		str	r0, [r3, #36]
 1742              		.loc 1 1200 0
 1743 00e4 5A62     		str	r2, [r3, #36]
 1744              		.loc 1 1205 0
 1745 00e6 0CBF     		ite	eq
 1746 00e8 DE61     		streq	r6, [r3, #28]
 1747              		.loc 1 1209 0
 1748 00ea 1E62     		strne	r6, [r3, #32]
 1749              		.loc 1 1213 0
 1750 00ec 064B     		ldr	r3, .L173
 1751 00ee FF22     		movs	r2, #255
 1752 00f0 5A62     		str	r2, [r3, #36]
 1753 00f2 F0BD     		pop	{r4, r5, r6, r7, pc}
 1754              	.LVL159:
 1755              	.L149:
 1756 00f4 D678     		ldrb	r6, [r2, #3]	@ zero_extendqisi2
 1757 00f6 3304     		lsls	r3, r6, #16
 1758 00f8 DCE7     		b	.L150
 1759              	.L147:
 1760 00fa D578     		ldrb	r5, [r2, #3]	@ zero_extendqisi2
 1761 00fc 2D04     		lsls	r5, r5, #16
ARM GAS  /var/folders/7z/kps_xzfj7sn5l5gkyq8s9db00000gn/T//cck5P0LB.s 			page 32


 1762 00fe 88E7     		b	.L148
 1763              	.LVL160:
 1764              	.L163:
 1765              	.LBB174:
 1766              	.LBB163:
 1767              		.loc 1 2726 0
 1768 0100 0026     		movs	r6, #0
 1769 0102 A3E7     		b	.L152
 1770              	.LVL161:
 1771              	.L164:
 1772              	.LBE163:
 1773              	.LBE174:
 1774              	.LBB175:
 1775              	.LBB168:
 1776 0104 0027     		movs	r7, #0
 1777 0106 B0E7     		b	.L154
 1778              	.L174:
 1779              		.align	2
 1780              	.L173:
 1781 0108 00280040 		.word	1073752064
 1782              	.LBE168:
 1783              	.LBE175:
 1784              		.cfi_endproc
 1785              	.LFE127:
 1786              		.size	RTC_SetAlarm, .-RTC_SetAlarm
 1787 010c AFF30080 		.section	.text.RTC_AlarmStructInit,"ax",%progbits
 1788              		.align	2
 1789              		.p2align 4,,15
 1790              		.global	RTC_AlarmStructInit
 1791              		.thumb
 1792              		.thumb_func
 1793              		.type	RTC_AlarmStructInit, %function
 1794              	RTC_AlarmStructInit:
 1795              	.LFB128:
 1796              		.loc 1 1225 0
 1797              		.cfi_startproc
 1798              		@ args = 0, pretend = 0, frame = 0
 1799              		@ frame_needed = 0, uses_anonymous_args = 0
 1800              		@ link register save eliminated.
 1801              	.LVL162:
 1802              		.loc 1 1227 0
 1803 0000 0023     		movs	r3, #0
 1804              		.loc 1 1234 0
 1805 0002 0122     		movs	r2, #1
 1806 0004 0273     		strb	r2, [r0, #12]
 1807              		.loc 1 1227 0
 1808 0006 C370     		strb	r3, [r0, #3]
 1809              		.loc 1 1228 0
 1810 0008 0370     		strb	r3, [r0]
 1811              		.loc 1 1229 0
 1812 000a 4370     		strb	r3, [r0, #1]
 1813              		.loc 1 1230 0
 1814 000c 8370     		strb	r3, [r0, #2]
 1815              		.loc 1 1233 0
 1816 000e 8360     		str	r3, [r0, #8]
 1817              		.loc 1 1237 0
 1818 0010 4360     		str	r3, [r0, #4]
ARM GAS  /var/folders/7z/kps_xzfj7sn5l5gkyq8s9db00000gn/T//cck5P0LB.s 			page 33


 1819 0012 7047     		bx	lr
 1820              		.cfi_endproc
 1821              	.LFE128:
 1822              		.size	RTC_AlarmStructInit, .-RTC_AlarmStructInit
 1823 0014 AFF30080 		.section	.text.RTC_GetAlarm,"ax",%progbits
 1823      AFF30080 
 1823      AFF30080 
 1824              		.align	2
 1825              		.p2align 4,,15
 1826              		.global	RTC_GetAlarm
 1827              		.thumb
 1828              		.thumb_func
 1829              		.type	RTC_GetAlarm, %function
 1830              	RTC_GetAlarm:
 1831              	.LFB129:
 1832              		.loc 1 1255 0
 1833              		.cfi_startproc
 1834              		@ args = 0, pretend = 0, frame = 0
 1835              		@ frame_needed = 0, uses_anonymous_args = 0
 1836              	.LVL163:
 1837              		.loc 1 1265 0
 1838 0000 214B     		ldr	r3, .L181
 1839              		.loc 1 1263 0
 1840 0002 B1F5807F 		cmp	r1, #256
 1841              		.loc 1 1265 0
 1842 0006 0CBF     		ite	eq
 1843 0008 DB69     		ldreq	r3, [r3, #28]
 1844              	.LVL164:
 1845              		.loc 1 1269 0
 1846 000a 1B6A     		ldrne	r3, [r3, #32]
 1847              	.LVL165:
 1848              		.loc 1 1255 0
 1849 000c F0B5     		push	{r4, r5, r6, r7, lr}
 1850              		.cfi_def_cfa_offset 20
 1851              		.cfi_offset 4, -20
 1852              		.cfi_offset 5, -16
 1853              		.cfi_offset 6, -12
 1854              		.cfi_offset 7, -8
 1855              		.cfi_offset 14, -4
 1856              		.loc 1 1277 0
 1857 000e DEB2     		uxtb	r6, r3
 1858              		.loc 1 1279 0
 1859 0010 03F4800E 		and	lr, r3, #4194304
 1860              		.loc 1 1273 0
 1861 0014 C3F30545 		ubfx	r5, r3, #16, #6
 1862              		.loc 1 1275 0
 1863 0018 C3F30624 		ubfx	r4, r3, #8, #7
 1864              		.loc 1 1280 0
 1865 001c C3F30561 		ubfx	r1, r3, #24, #6
 1866              	.LVL166:
 1867              		.loc 1 1281 0
 1868 0020 03F0804C 		and	ip, r3, #1073741824
 1869              		.loc 1 1277 0
 1870 0024 06F07F07 		and	r7, r6, #127
 1871              		.loc 1 1279 0
 1872 0028 4FEA1E4E 		lsr	lr, lr, #16
 1873              		.loc 1 1282 0
ARM GAS  /var/folders/7z/kps_xzfj7sn5l5gkyq8s9db00000gn/T//cck5P0LB.s 			page 34


 1874 002c 03F08033 		and	r3, r3, #-2139062144
 1875              	.LVL167:
 1876              		.loc 1 1277 0
 1877 0030 9770     		strb	r7, [r2, #2]
 1878              		.loc 1 1279 0
 1879 0032 82F803E0 		strb	lr, [r2, #3]
 1880              		.loc 1 1273 0
 1881 0036 1570     		strb	r5, [r2]
 1882              		.loc 1 1275 0
 1883 0038 5470     		strb	r4, [r2, #1]
 1884              		.loc 1 1280 0
 1885 003a 1173     		strb	r1, [r2, #12]
 1886              		.loc 1 1281 0
 1887 003c C2F808C0 		str	ip, [r2, #8]
 1888              		.loc 1 1282 0
 1889 0040 5360     		str	r3, [r2, #4]
 1890              		.loc 1 1284 0
 1891 0042 00BB     		cbnz	r0, .L176
 1892              	.LVL168:
 1893              	.LBB176:
 1894              	.LBB177:
 1895              		.loc 1 2743 0
 1896 0044 4FEA151E 		lsr	lr, r5, #4
 1897              	.LBE177:
 1898              	.LBE176:
 1899              	.LBB180:
 1900              	.LBB181:
 1901 0048 2009     		lsrs	r0, r4, #4
 1902              	.LVL169:
 1903              	.LBE181:
 1904              	.LBE180:
 1905              	.LBB184:
 1906              	.LBB185:
 1907 004a 0B09     		lsrs	r3, r1, #4
 1908              	.LBE185:
 1909              	.LBE184:
 1910              	.LBB188:
 1911              	.LBB189:
 1912 004c 3F09     		lsrs	r7, r7, #4
 1913 004e 07EB8707 		add	r7, r7, r7, lsl #2
 1914              		.loc 1 2744 0
 1915 0052 06F00F06 		and	r6, r6, #15
 1916              	.LBE189:
 1917              	.LBE188:
 1918              	.LBB191:
 1919              	.LBB178:
 1920              		.loc 1 2743 0
 1921 0056 0EEB8E0E 		add	lr, lr, lr, lsl #2
 1922              		.loc 1 2744 0
 1923 005a 05F00F05 		and	r5, r5, #15
 1924              	.LVL170:
 1925              	.LBE178:
 1926              	.LBE191:
 1927              	.LBB192:
 1928              	.LBB182:
 1929              		.loc 1 2743 0
 1930 005e 00EB8000 		add	r0, r0, r0, lsl #2
ARM GAS  /var/folders/7z/kps_xzfj7sn5l5gkyq8s9db00000gn/T//cck5P0LB.s 			page 35


 1931              		.loc 1 2744 0
 1932 0062 04F00F04 		and	r4, r4, #15
 1933              	.LBE182:
 1934              	.LBE192:
 1935              	.LBB193:
 1936              	.LBB186:
 1937              		.loc 1 2743 0
 1938 0066 03EB8303 		add	r3, r3, r3, lsl #2
 1939              		.loc 1 2744 0
 1940 006a 01F00F01 		and	r1, r1, #15
 1941              	.LBE186:
 1942              	.LBE193:
 1943              	.LBB194:
 1944              	.LBB190:
 1945 006e 06EB4707 		add	r7, r6, r7, lsl #1
 1946              	.LBE190:
 1947              	.LBE194:
 1948              	.LBB195:
 1949              	.LBB179:
 1950 0072 05EB4E05 		add	r5, r5, lr, lsl #1
 1951              	.LBE179:
 1952              	.LBE195:
 1953              	.LBB196:
 1954              	.LBB183:
 1955 0076 04EB4004 		add	r4, r4, r0, lsl #1
 1956              	.LBE183:
 1957              	.LBE196:
 1958              	.LBB197:
 1959              	.LBB187:
 1960 007a 01EB4301 		add	r1, r1, r3, lsl #1
 1961              	.LBE187:
 1962              	.LBE197:
 1963              		.loc 1 1290 0
 1964 007e 9770     		strb	r7, [r2, #2]
 1965              		.loc 1 1286 0
 1966 0080 1570     		strb	r5, [r2]
 1967              	.LVL171:
 1968              		.loc 1 1288 0
 1969 0082 5470     		strb	r4, [r2, #1]
 1970              	.LVL172:
 1971              		.loc 1 1292 0
 1972 0084 1173     		strb	r1, [r2, #12]
 1973              	.L176:
 1974 0086 F0BD     		pop	{r4, r5, r6, r7, pc}
 1975              	.L182:
 1976              		.align	2
 1977              	.L181:
 1978 0088 00280040 		.word	1073752064
 1979              		.cfi_endproc
 1980              	.LFE129:
 1981              		.size	RTC_GetAlarm, .-RTC_GetAlarm
 1982 008c AFF30080 		.section	.text.RTC_AlarmCmd,"ax",%progbits
 1983              		.align	2
 1984              		.p2align 4,,15
 1985              		.global	RTC_AlarmCmd
 1986              		.thumb
 1987              		.thumb_func
ARM GAS  /var/folders/7z/kps_xzfj7sn5l5gkyq8s9db00000gn/T//cck5P0LB.s 			page 36


 1988              		.type	RTC_AlarmCmd, %function
 1989              	RTC_AlarmCmd:
 1990              	.LFB130:
 1991              		.loc 1 1309 0
 1992              		.cfi_startproc
 1993              		@ args = 0, pretend = 0, frame = 8
 1994              		@ frame_needed = 0, uses_anonymous_args = 0
 1995              		@ link register save eliminated.
 1996              	.LVL173:
 1997 0000 30B4     		push	{r4, r5}
 1998              		.cfi_def_cfa_offset 8
 1999              		.cfi_offset 4, -8
 2000              		.cfi_offset 5, -4
 2001              		.loc 1 1319 0
 2002 0002 154B     		ldr	r3, .L196
 2003              		.loc 1 1309 0
 2004 0004 82B0     		sub	sp, sp, #8
 2005              		.cfi_def_cfa_offset 16
 2006              		.loc 1 1320 0
 2007 0006 5322     		movs	r2, #83
 2008              		.loc 1 1310 0
 2009 0008 0025     		movs	r5, #0
 2010              		.loc 1 1319 0
 2011 000a CA24     		movs	r4, #202
 2012              		.loc 1 1310 0
 2013 000c 0195     		str	r5, [sp, #4]
 2014              	.LVL174:
 2015              		.loc 1 1319 0
 2016 000e 5C62     		str	r4, [r3, #36]
 2017              		.loc 1 1320 0
 2018 0010 5A62     		str	r2, [r3, #36]
 2019              		.loc 1 1325 0
 2020 0012 9A68     		ldr	r2, [r3, #8]
 2021              		.loc 1 1323 0
 2022 0014 E1B9     		cbnz	r1, .L194
 2023              		.loc 1 1332 0
 2024 0016 22EA0002 		bic	r2, r2, r0
 2025 001a 9A60     		str	r2, [r3, #8]
 2026 001c 000A     		lsrs	r0, r0, #8
 2027              	.LVL175:
 2028              		.loc 1 1337 0
 2029 001e 1946     		mov	r1, r3
 2030              	.LVL176:
 2031 0020 00E0     		b	.L187
 2032              	.LVL177:
 2033              	.L195:
 2034              		.loc 1 1339 0 discriminator 1
 2035 0022 4AB9     		cbnz	r2, .L186
 2036              	.LVL178:
 2037              	.L187:
 2038              		.loc 1 1337 0 discriminator 2
 2039 0024 CA68     		ldr	r2, [r1, #12]
 2040              		.loc 1 1338 0 discriminator 2
 2041 0026 019B     		ldr	r3, [sp, #4]
 2042 0028 0133     		adds	r3, r3, #1
 2043 002a 0193     		str	r3, [sp, #4]
 2044              		.loc 1 1339 0 discriminator 2
ARM GAS  /var/folders/7z/kps_xzfj7sn5l5gkyq8s9db00000gn/T//cck5P0LB.s 			page 37


 2045 002c 019B     		ldr	r3, [sp, #4]
 2046 002e B3F5803F 		cmp	r3, #65536
 2047              		.loc 1 1337 0 discriminator 2
 2048 0032 02EA0002 		and	r2, r2, r0
 2049              	.LVL179:
 2050              		.loc 1 1339 0 discriminator 2
 2051 0036 F4D1     		bne	.L195
 2052              	.L186:
 2053              		.loc 1 1341 0
 2054 0038 074B     		ldr	r3, .L196
 2055 003a DB68     		ldr	r3, [r3, #12]
 2056 003c 1842     		tst	r0, r3
 2057              		.loc 1 1327 0
 2058 003e 14BF     		ite	ne
 2059 0040 0120     		movne	r0, #1
 2060 0042 0020     		moveq	r0, #0
 2061              	.LVL180:
 2062              	.L185:
 2063              		.loc 1 1352 0
 2064 0044 044B     		ldr	r3, .L196
 2065 0046 FF22     		movs	r2, #255
 2066 0048 5A62     		str	r2, [r3, #36]
 2067              		.loc 1 1355 0
 2068 004a 02B0     		add	sp, sp, #8
 2069              		.cfi_remember_state
 2070              		.cfi_def_cfa_offset 8
 2071              		@ sp needed
 2072 004c 30BC     		pop	{r4, r5}
 2073              		.cfi_restore 5
 2074              		.cfi_restore 4
 2075              		.cfi_def_cfa_offset 0
 2076 004e 7047     		bx	lr
 2077              	.LVL181:
 2078              	.L194:
 2079              		.cfi_restore_state
 2080              		.loc 1 1325 0
 2081 0050 1043     		orrs	r0, r0, r2
 2082              	.LVL182:
 2083 0052 9860     		str	r0, [r3, #8]
 2084              	.LVL183:
 2085              		.loc 1 1327 0
 2086 0054 0120     		movs	r0, #1
 2087 0056 F5E7     		b	.L185
 2088              	.L197:
 2089              		.align	2
 2090              	.L196:
 2091 0058 00280040 		.word	1073752064
 2092              		.cfi_endproc
 2093              	.LFE130:
 2094              		.size	RTC_AlarmCmd, .-RTC_AlarmCmd
 2095 005c AFF30080 		.section	.text.RTC_AlarmSubSecondConfig,"ax",%progbits
 2096              		.align	2
 2097              		.p2align 4,,15
 2098              		.global	RTC_AlarmSubSecondConfig
 2099              		.thumb
 2100              		.thumb_func
 2101              		.type	RTC_AlarmSubSecondConfig, %function
ARM GAS  /var/folders/7z/kps_xzfj7sn5l5gkyq8s9db00000gn/T//cck5P0LB.s 			page 38


 2102              	RTC_AlarmSubSecondConfig:
 2103              	.LFB131:
 2104              		.loc 1 1403 0
 2105              		.cfi_startproc
 2106              		@ args = 0, pretend = 0, frame = 0
 2107              		@ frame_needed = 0, uses_anonymous_args = 0
 2108              		@ link register save eliminated.
 2109              	.LVL184:
 2110 0000 30B4     		push	{r4, r5}
 2111              		.cfi_def_cfa_offset 8
 2112              		.cfi_offset 4, -8
 2113              		.cfi_offset 5, -4
 2114              		.loc 1 1412 0
 2115 0002 084B     		ldr	r3, .L202
 2116              		.loc 1 1416 0
 2117 0004 0A43     		orrs	r2, r2, r1
 2118              	.LVL185:
 2119              		.loc 1 1412 0
 2120 0006 CA25     		movs	r5, #202
 2121              		.loc 1 1413 0
 2122 0008 5324     		movs	r4, #83
 2123              		.loc 1 1418 0
 2124 000a B0F5807F 		cmp	r0, #256
 2125              		.loc 1 1412 0
 2126 000e 5D62     		str	r5, [r3, #36]
 2127              		.loc 1 1413 0
 2128 0010 5C62     		str	r4, [r3, #36]
 2129              		.loc 1 1421 0
 2130 0012 0CBF     		ite	eq
 2131 0014 5A64     		streq	r2, [r3, #68]
 2132              		.loc 1 1426 0
 2133 0016 9A64     		strne	r2, [r3, #72]
 2134              		.loc 1 1430 0
 2135 0018 024B     		ldr	r3, .L202
 2136 001a FF22     		movs	r2, #255
 2137              	.LVL186:
 2138 001c 5A62     		str	r2, [r3, #36]
 2139              		.loc 1 1432 0
 2140 001e 30BC     		pop	{r4, r5}
 2141              		.cfi_restore 5
 2142              		.cfi_restore 4
 2143              		.cfi_def_cfa_offset 0
 2144 0020 7047     		bx	lr
 2145              	.L203:
 2146 0022 00BF     		.align	2
 2147              	.L202:
 2148 0024 00280040 		.word	1073752064
 2149              		.cfi_endproc
 2150              	.LFE131:
 2151              		.size	RTC_AlarmSubSecondConfig, .-RTC_AlarmSubSecondConfig
 2152 0028 AFF30080 		.section	.text.RTC_GetAlarmSubSecond,"ax",%progbits
 2152      AFF30080 
 2153              		.align	2
 2154              		.p2align 4,,15
 2155              		.global	RTC_GetAlarmSubSecond
 2156              		.thumb
 2157              		.thumb_func
ARM GAS  /var/folders/7z/kps_xzfj7sn5l5gkyq8s9db00000gn/T//cck5P0LB.s 			page 39


 2158              		.type	RTC_GetAlarmSubSecond, %function
 2159              	RTC_GetAlarmSubSecond:
 2160              	.LFB132:
 2161              		.loc 1 1444 0
 2162              		.cfi_startproc
 2163              		@ args = 0, pretend = 0, frame = 0
 2164              		@ frame_needed = 0, uses_anonymous_args = 0
 2165              		@ link register save eliminated.
 2166              	.LVL187:
 2167              		.loc 1 1450 0
 2168 0000 044B     		ldr	r3, .L207
 2169              		.loc 1 1448 0
 2170 0002 B0F5807F 		cmp	r0, #256
 2171              		.loc 1 1450 0
 2172 0006 0CBF     		ite	eq
 2173 0008 586C     		ldreq	r0, [r3, #68]
 2174              	.LVL188:
 2175              		.loc 1 1454 0
 2176 000a 986C     		ldrne	r0, [r3, #72]
 2177 000c C0F30E00 		ubfx	r0, r0, #0, #15
 2178              	.LVL189:
 2179              		.loc 1 1458 0
 2180 0010 7047     		bx	lr
 2181              	.L208:
 2182 0012 00BF     		.align	2
 2183              	.L207:
 2184 0014 00280040 		.word	1073752064
 2185              		.cfi_endproc
 2186              	.LFE132:
 2187              		.size	RTC_GetAlarmSubSecond, .-RTC_GetAlarmSubSecond
 2188 0018 AFF30080 		.section	.text.RTC_WakeUpClockConfig,"ax",%progbits
 2188      AFF30080 
 2189              		.align	2
 2190              		.p2align 4,,15
 2191              		.global	RTC_WakeUpClockConfig
 2192              		.thumb
 2193              		.thumb_func
 2194              		.type	RTC_WakeUpClockConfig, %function
 2195              	RTC_WakeUpClockConfig:
 2196              	.LFB133:
 2197              		.loc 1 1493 0
 2198              		.cfi_startproc
 2199              		@ args = 0, pretend = 0, frame = 0
 2200              		@ frame_needed = 0, uses_anonymous_args = 0
 2201              		@ link register save eliminated.
 2202              	.LVL190:
 2203              		.loc 1 1498 0
 2204 0000 074B     		ldr	r3, .L210
 2205 0002 CA21     		movs	r1, #202
 2206              		.loc 1 1499 0
 2207 0004 5322     		movs	r2, #83
 2208              		.loc 1 1498 0
 2209 0006 5962     		str	r1, [r3, #36]
 2210              		.loc 1 1499 0
 2211 0008 5A62     		str	r2, [r3, #36]
 2212              		.loc 1 1502 0
 2213 000a 9A68     		ldr	r2, [r3, #8]
ARM GAS  /var/folders/7z/kps_xzfj7sn5l5gkyq8s9db00000gn/T//cck5P0LB.s 			page 40


 2214 000c 22F00702 		bic	r2, r2, #7
 2215 0010 9A60     		str	r2, [r3, #8]
 2216              		.loc 1 1505 0
 2217 0012 9A68     		ldr	r2, [r3, #8]
 2218              		.loc 1 1508 0
 2219 0014 FF21     		movs	r1, #255
 2220              		.loc 1 1505 0
 2221 0016 1043     		orrs	r0, r0, r2
 2222              	.LVL191:
 2223 0018 9860     		str	r0, [r3, #8]
 2224              		.loc 1 1508 0
 2225 001a 5962     		str	r1, [r3, #36]
 2226 001c 7047     		bx	lr
 2227              	.L211:
 2228 001e 00BF     		.align	2
 2229              	.L210:
 2230 0020 00280040 		.word	1073752064
 2231              		.cfi_endproc
 2232              	.LFE133:
 2233              		.size	RTC_WakeUpClockConfig, .-RTC_WakeUpClockConfig
 2234 0024 AFF30080 		.section	.text.RTC_SetWakeUpCounter,"ax",%progbits
 2234      AFF30080 
 2234      AFF30080 
 2235              		.align	2
 2236              		.p2align 4,,15
 2237              		.global	RTC_SetWakeUpCounter
 2238              		.thumb
 2239              		.thumb_func
 2240              		.type	RTC_SetWakeUpCounter, %function
 2241              	RTC_SetWakeUpCounter:
 2242              	.LFB134:
 2243              		.loc 1 1520 0
 2244              		.cfi_startproc
 2245              		@ args = 0, pretend = 0, frame = 0
 2246              		@ frame_needed = 0, uses_anonymous_args = 0
 2247              		@ link register save eliminated.
 2248              	.LVL192:
 2249              		.loc 1 1525 0
 2250 0000 054B     		ldr	r3, .L214
 2251              		.loc 1 1520 0
 2252 0002 10B4     		push	{r4}
 2253              		.cfi_def_cfa_offset 4
 2254              		.cfi_offset 4, -4
 2255              		.loc 1 1526 0
 2256 0004 5321     		movs	r1, #83
 2257              		.loc 1 1525 0
 2258 0006 CA24     		movs	r4, #202
 2259              		.loc 1 1532 0
 2260 0008 FF22     		movs	r2, #255
 2261              		.loc 1 1525 0
 2262 000a 5C62     		str	r4, [r3, #36]
 2263              		.loc 1 1526 0
 2264 000c 5962     		str	r1, [r3, #36]
 2265              		.loc 1 1533 0
 2266 000e 5DF8044B 		ldr	r4, [sp], #4
 2267              		.cfi_restore 4
 2268              		.cfi_def_cfa_offset 0
ARM GAS  /var/folders/7z/kps_xzfj7sn5l5gkyq8s9db00000gn/T//cck5P0LB.s 			page 41


 2269              		.loc 1 1529 0
 2270 0012 5861     		str	r0, [r3, #20]
 2271              		.loc 1 1532 0
 2272 0014 5A62     		str	r2, [r3, #36]
 2273              		.loc 1 1533 0
 2274 0016 7047     		bx	lr
 2275              	.L215:
 2276              		.align	2
 2277              	.L214:
 2278 0018 00280040 		.word	1073752064
 2279              		.cfi_endproc
 2280              	.LFE134:
 2281              		.size	RTC_SetWakeUpCounter, .-RTC_SetWakeUpCounter
 2282 001c AFF30080 		.section	.text.RTC_GetWakeUpCounter,"ax",%progbits
 2283              		.align	2
 2284              		.p2align 4,,15
 2285              		.global	RTC_GetWakeUpCounter
 2286              		.thumb
 2287              		.thumb_func
 2288              		.type	RTC_GetWakeUpCounter, %function
 2289              	RTC_GetWakeUpCounter:
 2290              	.LFB135:
 2291              		.loc 1 1541 0
 2292              		.cfi_startproc
 2293              		@ args = 0, pretend = 0, frame = 0
 2294              		@ frame_needed = 0, uses_anonymous_args = 0
 2295              		@ link register save eliminated.
 2296              		.loc 1 1543 0
 2297 0000 014B     		ldr	r3, .L217
 2298 0002 5869     		ldr	r0, [r3, #20]
 2299              		.loc 1 1544 0
 2300 0004 80B2     		uxth	r0, r0
 2301 0006 7047     		bx	lr
 2302              	.L218:
 2303              		.align	2
 2304              	.L217:
 2305 0008 00280040 		.word	1073752064
 2306              		.cfi_endproc
 2307              	.LFE135:
 2308              		.size	RTC_GetWakeUpCounter, .-RTC_GetWakeUpCounter
 2309 000c AFF30080 		.section	.text.RTC_WakeUpCmd,"ax",%progbits
 2310              		.align	2
 2311              		.p2align 4,,15
 2312              		.global	RTC_WakeUpCmd
 2313              		.thumb
 2314              		.thumb_func
 2315              		.type	RTC_WakeUpCmd, %function
 2316              	RTC_WakeUpCmd:
 2317              	.LFB136:
 2318              		.loc 1 1553 0
 2319              		.cfi_startproc
 2320              		@ args = 0, pretend = 0, frame = 8
 2321              		@ frame_needed = 0, uses_anonymous_args = 0
 2322              		@ link register save eliminated.
 2323              	.LVL193:
 2324 0000 10B4     		push	{r4}
 2325              		.cfi_def_cfa_offset 4
ARM GAS  /var/folders/7z/kps_xzfj7sn5l5gkyq8s9db00000gn/T//cck5P0LB.s 			page 42


 2326              		.cfi_offset 4, -4
 2327              		.loc 1 1562 0
 2328 0002 1449     		ldr	r1, .L232
 2329              		.loc 1 1553 0
 2330 0004 83B0     		sub	sp, sp, #12
 2331              		.cfi_def_cfa_offset 16
 2332              		.loc 1 1563 0
 2333 0006 5323     		movs	r3, #83
 2334              		.loc 1 1554 0
 2335 0008 0024     		movs	r4, #0
 2336              		.loc 1 1562 0
 2337 000a CA22     		movs	r2, #202
 2338              		.loc 1 1554 0
 2339 000c 0194     		str	r4, [sp, #4]
 2340              	.LVL194:
 2341              		.loc 1 1562 0
 2342 000e 4A62     		str	r2, [r1, #36]
 2343              		.loc 1 1563 0
 2344 0010 4B62     		str	r3, [r1, #36]
 2345              		.loc 1 1568 0
 2346 0012 8B68     		ldr	r3, [r1, #8]
 2347              		.loc 1 1565 0
 2348 0014 C8B9     		cbnz	r0, .L230
 2349              		.loc 1 1574 0
 2350 0016 23F48063 		bic	r3, r3, #1024
 2351 001a 8B60     		str	r3, [r1, #8]
 2352 001c 00E0     		b	.L223
 2353              	.LVL195:
 2354              	.L231:
 2355              		.loc 1 1580 0 discriminator 1
 2356 001e 4AB9     		cbnz	r2, .L222
 2357              	.LVL196:
 2358              	.L223:
 2359              		.loc 1 1578 0 discriminator 2
 2360 0020 CA68     		ldr	r2, [r1, #12]
 2361              		.loc 1 1579 0 discriminator 2
 2362 0022 019B     		ldr	r3, [sp, #4]
 2363 0024 0133     		adds	r3, r3, #1
 2364 0026 0193     		str	r3, [sp, #4]
 2365              		.loc 1 1580 0 discriminator 2
 2366 0028 019B     		ldr	r3, [sp, #4]
 2367 002a B3F5803F 		cmp	r3, #65536
 2368              		.loc 1 1578 0 discriminator 2
 2369 002e 02F00402 		and	r2, r2, #4
 2370              	.LVL197:
 2371              		.loc 1 1580 0 discriminator 2
 2372 0032 F4D1     		bne	.L231
 2373              	.L222:
 2374              		.loc 1 1582 0
 2375 0034 074B     		ldr	r3, .L232
 2376 0036 D868     		ldr	r0, [r3, #12]
 2377              	.LVL198:
 2378              		.loc 1 1569 0
 2379 0038 C0F38000 		ubfx	r0, r0, #2, #1
 2380              	.LVL199:
 2381              	.L221:
 2382              		.loc 1 1593 0
ARM GAS  /var/folders/7z/kps_xzfj7sn5l5gkyq8s9db00000gn/T//cck5P0LB.s 			page 43


 2383 003c 054B     		ldr	r3, .L232
 2384 003e FF22     		movs	r2, #255
 2385 0040 5A62     		str	r2, [r3, #36]
 2386              		.loc 1 1596 0
 2387 0042 03B0     		add	sp, sp, #12
 2388              		.cfi_remember_state
 2389              		.cfi_def_cfa_offset 4
 2390              		@ sp needed
 2391 0044 5DF8044B 		ldr	r4, [sp], #4
 2392              		.cfi_restore 4
 2393              		.cfi_def_cfa_offset 0
 2394 0048 7047     		bx	lr
 2395              	.LVL200:
 2396              	.L230:
 2397              		.cfi_restore_state
 2398              		.loc 1 1568 0
 2399 004a 43F48063 		orr	r3, r3, #1024
 2400 004e 8B60     		str	r3, [r1, #8]
 2401              	.LVL201:
 2402              		.loc 1 1569 0
 2403 0050 0120     		movs	r0, #1
 2404              	.LVL202:
 2405 0052 F3E7     		b	.L221
 2406              	.L233:
 2407              		.align	2
 2408              	.L232:
 2409 0054 00280040 		.word	1073752064
 2410              		.cfi_endproc
 2411              	.LFE136:
 2412              		.size	RTC_WakeUpCmd, .-RTC_WakeUpCmd
 2413 0058 AFF30080 		.section	.text.RTC_DayLightSavingConfig,"ax",%progbits
 2413      AFF30080 
 2414              		.align	2
 2415              		.p2align 4,,15
 2416              		.global	RTC_DayLightSavingConfig
 2417              		.thumb
 2418              		.thumb_func
 2419              		.type	RTC_DayLightSavingConfig, %function
 2420              	RTC_DayLightSavingConfig:
 2421              	.LFB137:
 2422              		.loc 1 1630 0
 2423              		.cfi_startproc
 2424              		@ args = 0, pretend = 0, frame = 0
 2425              		@ frame_needed = 0, uses_anonymous_args = 0
 2426              		@ link register save eliminated.
 2427              	.LVL203:
 2428              		.loc 1 1636 0
 2429 0000 094B     		ldr	r3, .L236
 2430              		.loc 1 1630 0
 2431 0002 10B4     		push	{r4}
 2432              		.cfi_def_cfa_offset 4
 2433              		.cfi_offset 4, -4
 2434              		.loc 1 1637 0
 2435 0004 5322     		movs	r2, #83
 2436              		.loc 1 1636 0
 2437 0006 CA24     		movs	r4, #202
 2438 0008 5C62     		str	r4, [r3, #36]
ARM GAS  /var/folders/7z/kps_xzfj7sn5l5gkyq8s9db00000gn/T//cck5P0LB.s 			page 44


 2439              		.loc 1 1637 0
 2440 000a 5A62     		str	r2, [r3, #36]
 2441              		.loc 1 1640 0
 2442 000c 9A68     		ldr	r2, [r3, #8]
 2443              		.loc 1 1647 0
 2444 000e 5DF8044B 		ldr	r4, [sp], #4
 2445              		.cfi_restore 4
 2446              		.cfi_def_cfa_offset 0
 2447              		.loc 1 1640 0
 2448 0012 22F48022 		bic	r2, r2, #262144
 2449 0016 9A60     		str	r2, [r3, #8]
 2450              		.loc 1 1643 0
 2451 0018 9A68     		ldr	r2, [r3, #8]
 2452 001a 1143     		orrs	r1, r1, r2
 2453              	.LVL204:
 2454 001c 0843     		orrs	r0, r0, r1
 2455              	.LVL205:
 2456              		.loc 1 1646 0
 2457 001e FF22     		movs	r2, #255
 2458              		.loc 1 1643 0
 2459 0020 9860     		str	r0, [r3, #8]
 2460              		.loc 1 1646 0
 2461 0022 5A62     		str	r2, [r3, #36]
 2462              		.loc 1 1647 0
 2463 0024 7047     		bx	lr
 2464              	.L237:
 2465 0026 00BF     		.align	2
 2466              	.L236:
 2467 0028 00280040 		.word	1073752064
 2468              		.cfi_endproc
 2469              	.LFE137:
 2470              		.size	RTC_DayLightSavingConfig, .-RTC_DayLightSavingConfig
 2471 002c AFF30080 		.section	.text.RTC_GetStoreOperation,"ax",%progbits
 2472              		.align	2
 2473              		.p2align 4,,15
 2474              		.global	RTC_GetStoreOperation
 2475              		.thumb
 2476              		.thumb_func
 2477              		.type	RTC_GetStoreOperation, %function
 2478              	RTC_GetStoreOperation:
 2479              	.LFB138:
 2480              		.loc 1 1657 0
 2481              		.cfi_startproc
 2482              		@ args = 0, pretend = 0, frame = 0
 2483              		@ frame_needed = 0, uses_anonymous_args = 0
 2484              		@ link register save eliminated.
 2485              		.loc 1 1658 0
 2486 0000 024B     		ldr	r3, .L239
 2487 0002 9868     		ldr	r0, [r3, #8]
 2488              		.loc 1 1659 0
 2489 0004 00F48020 		and	r0, r0, #262144
 2490 0008 7047     		bx	lr
 2491              	.L240:
 2492 000a 00BF     		.align	2
 2493              	.L239:
 2494 000c 00280040 		.word	1073752064
 2495              		.cfi_endproc
ARM GAS  /var/folders/7z/kps_xzfj7sn5l5gkyq8s9db00000gn/T//cck5P0LB.s 			page 45


 2496              	.LFE138:
 2497              		.size	RTC_GetStoreOperation, .-RTC_GetStoreOperation
 2498              		.section	.text.RTC_OutputConfig,"ax",%progbits
 2499              		.align	2
 2500              		.p2align 4,,15
 2501              		.global	RTC_OutputConfig
 2502              		.thumb
 2503              		.thumb_func
 2504              		.type	RTC_OutputConfig, %function
 2505              	RTC_OutputConfig:
 2506              	.LFB139:
 2507              		.loc 1 1696 0
 2508              		.cfi_startproc
 2509              		@ args = 0, pretend = 0, frame = 0
 2510              		@ frame_needed = 0, uses_anonymous_args = 0
 2511              		@ link register save eliminated.
 2512              	.LVL206:
 2513              		.loc 1 1702 0
 2514 0000 094B     		ldr	r3, .L243
 2515              		.loc 1 1696 0
 2516 0002 10B4     		push	{r4}
 2517              		.cfi_def_cfa_offset 4
 2518              		.cfi_offset 4, -4
 2519              		.loc 1 1703 0
 2520 0004 5322     		movs	r2, #83
 2521              		.loc 1 1702 0
 2522 0006 CA24     		movs	r4, #202
 2523 0008 5C62     		str	r4, [r3, #36]
 2524              		.loc 1 1703 0
 2525 000a 5A62     		str	r2, [r3, #36]
 2526              		.loc 1 1706 0
 2527 000c 9A68     		ldr	r2, [r3, #8]
 2528              		.loc 1 1713 0
 2529 000e 5DF8044B 		ldr	r4, [sp], #4
 2530              		.cfi_restore 4
 2531              		.cfi_def_cfa_offset 0
 2532              		.loc 1 1706 0
 2533 0012 22F4E002 		bic	r2, r2, #7340032
 2534 0016 9A60     		str	r2, [r3, #8]
 2535              		.loc 1 1709 0
 2536 0018 9A68     		ldr	r2, [r3, #8]
 2537 001a 1143     		orrs	r1, r1, r2
 2538              	.LVL207:
 2539 001c 0843     		orrs	r0, r0, r1
 2540              	.LVL208:
 2541              		.loc 1 1712 0
 2542 001e FF22     		movs	r2, #255
 2543              		.loc 1 1709 0
 2544 0020 9860     		str	r0, [r3, #8]
 2545              		.loc 1 1712 0
 2546 0022 5A62     		str	r2, [r3, #36]
 2547              		.loc 1 1713 0
 2548 0024 7047     		bx	lr
 2549              	.L244:
 2550 0026 00BF     		.align	2
 2551              	.L243:
 2552 0028 00280040 		.word	1073752064
ARM GAS  /var/folders/7z/kps_xzfj7sn5l5gkyq8s9db00000gn/T//cck5P0LB.s 			page 46


 2553              		.cfi_endproc
 2554              	.LFE139:
 2555              		.size	RTC_OutputConfig, .-RTC_OutputConfig
 2556 002c AFF30080 		.section	.text.RTC_CoarseCalibConfig,"ax",%progbits
 2557              		.align	2
 2558              		.p2align 4,,15
 2559              		.global	RTC_CoarseCalibConfig
 2560              		.thumb
 2561              		.thumb_func
 2562              		.type	RTC_CoarseCalibConfig, %function
 2563              	RTC_CoarseCalibConfig:
 2564              	.LFB140:
 2565              		.loc 1 1750 0
 2566              		.cfi_startproc
 2567              		@ args = 0, pretend = 0, frame = 0
 2568              		@ frame_needed = 0, uses_anonymous_args = 0
 2569              	.LVL209:
 2570 0000 70B5     		push	{r4, r5, r6, lr}
 2571              		.cfi_def_cfa_offset 16
 2572              		.cfi_offset 4, -16
 2573              		.cfi_offset 5, -12
 2574              		.cfi_offset 6, -8
 2575              		.cfi_offset 14, -4
 2576              		.loc 1 1758 0
 2577 0002 0A4C     		ldr	r4, .L249
 2578 0004 CA22     		movs	r2, #202
 2579              		.loc 1 1759 0
 2580 0006 5323     		movs	r3, #83
 2581              		.loc 1 1758 0
 2582 0008 6262     		str	r2, [r4, #36]
 2583              		.loc 1 1759 0
 2584 000a 6362     		str	r3, [r4, #36]
 2585              		.loc 1 1750 0
 2586 000c 0646     		mov	r6, r0
 2587 000e 0D46     		mov	r5, r1
 2588              		.loc 1 1762 0
 2589 0010 FFF7FEFF 		bl	RTC_EnterInitMode
 2590              	.LVL210:
 2591 0014 30B1     		cbz	r0, .L246
 2592              		.loc 1 1769 0
 2593 0016 3543     		orrs	r5, r5, r6
 2594              	.LVL211:
 2595 0018 A561     		str	r5, [r4, #24]
 2596              	.LBB198:
 2597              	.LBB199:
 2598              		.loc 1 598 0
 2599 001a E368     		ldr	r3, [r4, #12]
 2600 001c 23F08003 		bic	r3, r3, #128
 2601 0020 E360     		str	r3, [r4, #12]
 2602              	.LVL212:
 2603              	.LBE199:
 2604              	.LBE198:
 2605              		.loc 1 1773 0
 2606 0022 0120     		movs	r0, #1
 2607              	.LVL213:
 2608              	.L246:
 2609              		.loc 1 1777 0
ARM GAS  /var/folders/7z/kps_xzfj7sn5l5gkyq8s9db00000gn/T//cck5P0LB.s 			page 47


 2610 0024 014B     		ldr	r3, .L249
 2611 0026 FF22     		movs	r2, #255
 2612 0028 5A62     		str	r2, [r3, #36]
 2613              		.loc 1 1780 0
 2614 002a 70BD     		pop	{r4, r5, r6, pc}
 2615              	.LVL214:
 2616              	.L250:
 2617              		.align	2
 2618              	.L249:
 2619 002c 00280040 		.word	1073752064
 2620              		.cfi_endproc
 2621              	.LFE140:
 2622              		.size	RTC_CoarseCalibConfig, .-RTC_CoarseCalibConfig
 2623              		.section	.text.RTC_CoarseCalibCmd,"ax",%progbits
 2624              		.align	2
 2625              		.p2align 4,,15
 2626              		.global	RTC_CoarseCalibCmd
 2627              		.thumb
 2628              		.thumb_func
 2629              		.type	RTC_CoarseCalibCmd, %function
 2630              	RTC_CoarseCalibCmd:
 2631              	.LFB141:
 2632              		.loc 1 1791 0
 2633              		.cfi_startproc
 2634              		@ args = 0, pretend = 0, frame = 0
 2635              		@ frame_needed = 0, uses_anonymous_args = 0
 2636              	.LVL215:
 2637 0000 38B5     		push	{r3, r4, r5, lr}
 2638              		.cfi_def_cfa_offset 16
 2639              		.cfi_offset 3, -16
 2640              		.cfi_offset 4, -12
 2641              		.cfi_offset 5, -8
 2642              		.cfi_offset 14, -4
 2643              		.loc 1 1798 0
 2644 0002 0E4C     		ldr	r4, .L258
 2645 0004 CA22     		movs	r2, #202
 2646              		.loc 1 1799 0
 2647 0006 5323     		movs	r3, #83
 2648              		.loc 1 1798 0
 2649 0008 6262     		str	r2, [r4, #36]
 2650              		.loc 1 1799 0
 2651 000a 6362     		str	r3, [r4, #36]
 2652              		.loc 1 1791 0
 2653 000c 0546     		mov	r5, r0
 2654              		.loc 1 1802 0
 2655 000e FFF7FEFF 		bl	RTC_EnterInitMode
 2656              	.LVL216:
 2657 0012 50B1     		cbz	r0, .L252
 2658              		.loc 1 1811 0
 2659 0014 A368     		ldr	r3, [r4, #8]
 2660              		.loc 1 1808 0
 2661 0016 65B9     		cbnz	r5, .L257
 2662              		.loc 1 1816 0
 2663 0018 23F08003 		bic	r3, r3, #128
 2664 001c A360     		str	r3, [r4, #8]
 2665              	.L254:
 2666              	.LBB200:
ARM GAS  /var/folders/7z/kps_xzfj7sn5l5gkyq8s9db00000gn/T//cck5P0LB.s 			page 48


 2667              	.LBB201:
 2668              		.loc 1 598 0
 2669 001e 074A     		ldr	r2, .L258
 2670 0020 D368     		ldr	r3, [r2, #12]
 2671 0022 23F08003 		bic	r3, r3, #128
 2672 0026 D360     		str	r3, [r2, #12]
 2673              	.LVL217:
 2674              	.LBE201:
 2675              	.LBE200:
 2676              		.loc 1 1821 0
 2677 0028 0120     		movs	r0, #1
 2678              	.LVL218:
 2679              	.L252:
 2680              		.loc 1 1825 0
 2681 002a 044B     		ldr	r3, .L258
 2682 002c FF22     		movs	r2, #255
 2683 002e 5A62     		str	r2, [r3, #36]
 2684              		.loc 1 1828 0
 2685 0030 38BD     		pop	{r3, r4, r5, pc}
 2686              	.LVL219:
 2687              	.L257:
 2688              		.loc 1 1811 0
 2689 0032 43F08003 		orr	r3, r3, #128
 2690 0036 A360     		str	r3, [r4, #8]
 2691 0038 F1E7     		b	.L254
 2692              	.L259:
 2693 003a 00BF     		.align	2
 2694              	.L258:
 2695 003c 00280040 		.word	1073752064
 2696              		.cfi_endproc
 2697              	.LFE141:
 2698              		.size	RTC_CoarseCalibCmd, .-RTC_CoarseCalibCmd
 2699              		.section	.text.RTC_CalibOutputCmd,"ax",%progbits
 2700              		.align	2
 2701              		.p2align 4,,15
 2702              		.global	RTC_CalibOutputCmd
 2703              		.thumb
 2704              		.thumb_func
 2705              		.type	RTC_CalibOutputCmd, %function
 2706              	RTC_CalibOutputCmd:
 2707              	.LFB142:
 2708              		.loc 1 1837 0
 2709              		.cfi_startproc
 2710              		@ args = 0, pretend = 0, frame = 0
 2711              		@ frame_needed = 0, uses_anonymous_args = 0
 2712              		@ link register save eliminated.
 2713              	.LVL220:
 2714              		.loc 1 1842 0
 2715 0000 0A4B     		ldr	r3, .L264
 2716              		.loc 1 1843 0
 2717 0002 5322     		movs	r2, #83
 2718              		.loc 1 1842 0
 2719 0004 CA21     		movs	r1, #202
 2720 0006 5962     		str	r1, [r3, #36]
 2721              		.loc 1 1843 0
 2722 0008 5A62     		str	r2, [r3, #36]
 2723              		.loc 1 1848 0
ARM GAS  /var/folders/7z/kps_xzfj7sn5l5gkyq8s9db00000gn/T//cck5P0LB.s 			page 49


 2724 000a 9A68     		ldr	r2, [r3, #8]
 2725              		.loc 1 1845 0
 2726 000c 30B9     		cbnz	r0, .L263
 2727              		.loc 1 1853 0
 2728 000e 22F40002 		bic	r2, r2, #8388608
 2729 0012 9A60     		str	r2, [r3, #8]
 2730              		.loc 1 1857 0
 2731 0014 054B     		ldr	r3, .L264
 2732 0016 FF22     		movs	r2, #255
 2733 0018 5A62     		str	r2, [r3, #36]
 2734 001a 7047     		bx	lr
 2735              	.L263:
 2736              		.loc 1 1848 0
 2737 001c 42F40002 		orr	r2, r2, #8388608
 2738 0020 9A60     		str	r2, [r3, #8]
 2739              		.loc 1 1857 0
 2740 0022 024B     		ldr	r3, .L264
 2741 0024 FF22     		movs	r2, #255
 2742 0026 5A62     		str	r2, [r3, #36]
 2743 0028 7047     		bx	lr
 2744              	.L265:
 2745 002a 00BF     		.align	2
 2746              	.L264:
 2747 002c 00280040 		.word	1073752064
 2748              		.cfi_endproc
 2749              	.LFE142:
 2750              		.size	RTC_CalibOutputCmd, .-RTC_CalibOutputCmd
 2751              		.section	.text.RTC_CalibOutputConfig,"ax",%progbits
 2752              		.align	2
 2753              		.p2align 4,,15
 2754              		.global	RTC_CalibOutputConfig
 2755              		.thumb
 2756              		.thumb_func
 2757              		.type	RTC_CalibOutputConfig, %function
 2758              	RTC_CalibOutputConfig:
 2759              	.LFB143:
 2760              		.loc 1 1869 0
 2761              		.cfi_startproc
 2762              		@ args = 0, pretend = 0, frame = 0
 2763              		@ frame_needed = 0, uses_anonymous_args = 0
 2764              		@ link register save eliminated.
 2765              	.LVL221:
 2766              		.loc 1 1874 0
 2767 0000 074B     		ldr	r3, .L267
 2768 0002 CA21     		movs	r1, #202
 2769              		.loc 1 1875 0
 2770 0004 5322     		movs	r2, #83
 2771              		.loc 1 1874 0
 2772 0006 5962     		str	r1, [r3, #36]
 2773              		.loc 1 1875 0
 2774 0008 5A62     		str	r2, [r3, #36]
 2775              		.loc 1 1878 0
 2776 000a 9A68     		ldr	r2, [r3, #8]
 2777 000c 22F40022 		bic	r2, r2, #524288
 2778 0010 9A60     		str	r2, [r3, #8]
 2779              		.loc 1 1881 0
 2780 0012 9A68     		ldr	r2, [r3, #8]
ARM GAS  /var/folders/7z/kps_xzfj7sn5l5gkyq8s9db00000gn/T//cck5P0LB.s 			page 50


 2781              		.loc 1 1884 0
 2782 0014 FF21     		movs	r1, #255
 2783              		.loc 1 1881 0
 2784 0016 1043     		orrs	r0, r0, r2
 2785              	.LVL222:
 2786 0018 9860     		str	r0, [r3, #8]
 2787              		.loc 1 1884 0
 2788 001a 5962     		str	r1, [r3, #36]
 2789 001c 7047     		bx	lr
 2790              	.L268:
 2791 001e 00BF     		.align	2
 2792              	.L267:
 2793 0020 00280040 		.word	1073752064
 2794              		.cfi_endproc
 2795              	.LFE143:
 2796              		.size	RTC_CalibOutputConfig, .-RTC_CalibOutputConfig
 2797 0024 AFF30080 		.section	.text.RTC_SmoothCalibConfig,"ax",%progbits
 2797      AFF30080 
 2797      AFF30080 
 2798              		.align	2
 2799              		.p2align 4,,15
 2800              		.global	RTC_SmoothCalibConfig
 2801              		.thumb
 2802              		.thumb_func
 2803              		.type	RTC_SmoothCalibConfig, %function
 2804              	RTC_SmoothCalibConfig:
 2805              	.LFB144:
 2806              		.loc 1 1907 0
 2807              		.cfi_startproc
 2808              		@ args = 0, pretend = 0, frame = 0
 2809              		@ frame_needed = 0, uses_anonymous_args = 0
 2810              		@ link register save eliminated.
 2811              	.LVL223:
 2812 0000 30B4     		push	{r4, r5}
 2813              		.cfi_def_cfa_offset 8
 2814              		.cfi_offset 4, -8
 2815              		.cfi_offset 5, -4
 2816              		.loc 1 1917 0
 2817 0002 114D     		ldr	r5, .L286
 2818 0004 CA24     		movs	r4, #202
 2819              		.loc 1 1918 0
 2820 0006 5323     		movs	r3, #83
 2821              		.loc 1 1917 0
 2822 0008 6C62     		str	r4, [r5, #36]
 2823              		.loc 1 1918 0
 2824 000a 6B62     		str	r3, [r5, #36]
 2825              		.loc 1 1921 0
 2826 000c EB68     		ldr	r3, [r5, #12]
 2827 000e DC03     		lsls	r4, r3, #15
 2828 0010 0AD5     		bpl	.L270
 2829              		.loc 1 1924 0
 2830 0012 EB68     		ldr	r3, [r5, #12]
 2831 0014 DB03     		lsls	r3, r3, #15
 2832 0016 07D5     		bpl	.L270
 2833 0018 4FF40033 		mov	r3, #131072
 2834 001c 01E0     		b	.L271
 2835              	.LVL224:
ARM GAS  /var/folders/7z/kps_xzfj7sn5l5gkyq8s9db00000gn/T//cck5P0LB.s 			page 51


 2836              	.L285:
 2837              		.loc 1 1924 0 is_stmt 0 discriminator 1
 2838 001e 013B     		subs	r3, r3, #1
 2839              	.LVL225:
 2840 0020 02D0     		beq	.L270
 2841              	.LVL226:
 2842              	.L271:
 2843              		.loc 1 1924 0
 2844 0022 EC68     		ldr	r4, [r5, #12]
 2845 0024 E403     		lsls	r4, r4, #15
 2846 0026 FAD4     		bmi	.L285
 2847              	.LVL227:
 2848              	.L270:
 2849              		.loc 1 1931 0 is_stmt 1
 2850 0028 074B     		ldr	r3, .L286
 2851 002a DC68     		ldr	r4, [r3, #12]
 2852 002c E403     		lsls	r4, r4, #15
 2853 002e 08D4     		bmi	.L273
 2854 0030 0A43     		orrs	r2, r2, r1
 2855              	.LVL228:
 2856              		.loc 1 1934 0
 2857 0032 1043     		orrs	r0, r0, r2
 2858              	.LVL229:
 2859 0034 D863     		str	r0, [r3, #60]
 2860              	.LVL230:
 2861              		.loc 1 1936 0
 2862 0036 0120     		movs	r0, #1
 2863              	.LVL231:
 2864              	.L272:
 2865              		.loc 1 1944 0
 2866 0038 034B     		ldr	r3, .L286
 2867 003a FF22     		movs	r2, #255
 2868 003c 5A62     		str	r2, [r3, #36]
 2869              		.loc 1 1947 0
 2870 003e 30BC     		pop	{r4, r5}
 2871              		.cfi_remember_state
 2872              		.cfi_restore 5
 2873              		.cfi_restore 4
 2874              		.cfi_def_cfa_offset 0
 2875 0040 7047     		bx	lr
 2876              	.LVL232:
 2877              	.L273:
 2878              		.cfi_restore_state
 2879              		.loc 1 1940 0
 2880 0042 0020     		movs	r0, #0
 2881              	.LVL233:
 2882 0044 F8E7     		b	.L272
 2883              	.L287:
 2884 0046 00BF     		.align	2
 2885              	.L286:
 2886 0048 00280040 		.word	1073752064
 2887              		.cfi_endproc
 2888              	.LFE144:
 2889              		.size	RTC_SmoothCalibConfig, .-RTC_SmoothCalibConfig
 2890 004c AFF30080 		.section	.text.RTC_TimeStampCmd,"ax",%progbits
 2891              		.align	2
 2892              		.p2align 4,,15
ARM GAS  /var/folders/7z/kps_xzfj7sn5l5gkyq8s9db00000gn/T//cck5P0LB.s 			page 52


 2893              		.global	RTC_TimeStampCmd
 2894              		.thumb
 2895              		.thumb_func
 2896              		.type	RTC_TimeStampCmd, %function
 2897              	RTC_TimeStampCmd:
 2898              	.LFB145:
 2899              		.loc 1 1981 0
 2900              		.cfi_startproc
 2901              		@ args = 0, pretend = 0, frame = 0
 2902              		@ frame_needed = 0, uses_anonymous_args = 0
 2903              		@ link register save eliminated.
 2904              	.LVL234:
 2905              		.loc 1 1989 0
 2906 0000 0B4B     		ldr	r3, .L293
 2907 0002 9B68     		ldr	r3, [r3, #8]
 2908 0004 23F40063 		bic	r3, r3, #2048
 2909              		.loc 1 1981 0
 2910 0008 10B4     		push	{r4}
 2911              		.cfi_def_cfa_offset 4
 2912              		.cfi_offset 4, -4
 2913              		.loc 1 1989 0
 2914 000a 23F00803 		bic	r3, r3, #8
 2915              	.LVL235:
 2916              		.loc 1 1992 0
 2917 000e 59B9     		cbnz	r1, .L292
 2918              		.loc 1 1998 0
 2919 0010 0343     		orrs	r3, r3, r0
 2920              	.LVL236:
 2921              	.L290:
 2922              		.loc 1 2002 0
 2923 0012 074A     		ldr	r2, .L293
 2924 0014 CA24     		movs	r4, #202
 2925              		.loc 1 2003 0
 2926 0016 5320     		movs	r0, #83
 2927              	.LVL237:
 2928              		.loc 1 2009 0
 2929 0018 FF21     		movs	r1, #255
 2930              	.LVL238:
 2931              		.loc 1 2002 0
 2932 001a 5462     		str	r4, [r2, #36]
 2933              		.loc 1 2003 0
 2934 001c 5062     		str	r0, [r2, #36]
 2935              		.loc 1 2010 0
 2936 001e 5DF8044B 		ldr	r4, [sp], #4
 2937              		.cfi_remember_state
 2938              		.cfi_restore 4
 2939              		.cfi_def_cfa_offset 0
 2940              		.loc 1 2006 0
 2941 0022 9360     		str	r3, [r2, #8]
 2942              		.loc 1 2009 0
 2943 0024 5162     		str	r1, [r2, #36]
 2944              		.loc 1 2010 0
 2945 0026 7047     		bx	lr
 2946              	.LVL239:
 2947              	.L292:
 2948              		.cfi_restore_state
 2949 0028 43F40063 		orr	r3, r3, #2048
ARM GAS  /var/folders/7z/kps_xzfj7sn5l5gkyq8s9db00000gn/T//cck5P0LB.s 			page 53


 2950              	.LVL240:
 2951              		.loc 1 1994 0
 2952 002c 0343     		orrs	r3, r3, r0
 2953              	.LVL241:
 2954 002e F0E7     		b	.L290
 2955              	.L294:
 2956              		.align	2
 2957              	.L293:
 2958 0030 00280040 		.word	1073752064
 2959              		.cfi_endproc
 2960              	.LFE145:
 2961              		.size	RTC_TimeStampCmd, .-RTC_TimeStampCmd
 2962 0034 AFF30080 		.section	.text.RTC_GetTimeStamp,"ax",%progbits
 2962      AFF30080 
 2962      AFF30080 
 2963              		.align	2
 2964              		.p2align 4,,15
 2965              		.global	RTC_GetTimeStamp
 2966              		.thumb
 2967              		.thumb_func
 2968              		.type	RTC_GetTimeStamp, %function
 2969              	RTC_GetTimeStamp:
 2970              	.LFB146:
 2971              		.loc 1 2026 0
 2972              		.cfi_startproc
 2973              		@ args = 0, pretend = 0, frame = 0
 2974              		@ frame_needed = 0, uses_anonymous_args = 0
 2975              	.LVL242:
 2976 0000 2DE9F041 		push	{r4, r5, r6, r7, r8, lr}
 2977              		.cfi_def_cfa_offset 24
 2978              		.cfi_offset 4, -24
 2979              		.cfi_offset 5, -20
 2980              		.cfi_offset 6, -16
 2981              		.cfi_offset 7, -12
 2982              		.cfi_offset 8, -8
 2983              		.cfi_offset 14, -4
 2984              		.loc 1 2033 0
 2985 0004 2B4C     		ldr	r4, .L298
 2986 0006 236B     		ldr	r3, [r4, #48]
 2987              	.LVL243:
 2988              		.loc 1 2034 0
 2989 0008 646B     		ldr	r4, [r4, #52]
 2990              	.LVL244:
 2991              		.loc 1 2040 0
 2992 000a 03F48005 		and	r5, r3, #4194304
 2993              		.loc 1 2037 0
 2994 000e C3F30548 		ubfx	r8, r3, #16, #6
 2995              		.loc 1 2038 0
 2996 0012 C3F3062C 		ubfx	ip, r3, #8, #7
 2997              		.loc 1 2044 0
 2998 0016 C4F30427 		ubfx	r7, r4, #8, #5
 2999              		.loc 1 2045 0
 3000 001a 04F03F06 		and	r6, r4, #63
 3001              		.loc 1 2039 0
 3002 001e 03F07F03 		and	r3, r3, #127
 3003              	.LVL245:
 3004              		.loc 1 2040 0
ARM GAS  /var/folders/7z/kps_xzfj7sn5l5gkyq8s9db00000gn/T//cck5P0LB.s 			page 54


 3005 0022 2D0C     		lsrs	r5, r5, #16
 3006              		.loc 1 2043 0
 3007 0024 4FF0000E 		mov	lr, #0
 3008              		.loc 1 2046 0
 3009 0028 C4F34234 		ubfx	r4, r4, #13, #3
 3010              	.LVL246:
 3011              		.loc 1 2037 0
 3012 002c 81F80080 		strb	r8, [r1]
 3013              		.loc 1 2038 0
 3014 0030 81F801C0 		strb	ip, [r1, #1]
 3015              		.loc 1 2039 0
 3016 0034 8B70     		strb	r3, [r1, #2]
 3017              		.loc 1 2040 0
 3018 0036 CD70     		strb	r5, [r1, #3]
 3019              		.loc 1 2043 0
 3020 0038 82F803E0 		strb	lr, [r2, #3]
 3021              		.loc 1 2044 0
 3022 003c 5770     		strb	r7, [r2, #1]
 3023              		.loc 1 2045 0
 3024 003e 9670     		strb	r6, [r2, #2]
 3025              		.loc 1 2046 0
 3026 0040 1470     		strb	r4, [r2]
 3027              		.loc 1 2049 0
 3028 0042 A8BB     		cbnz	r0, .L295
 3029              		.loc 1 2052 0
 3030 0044 0C78     		ldrb	r4, [r1]	@ zero_extendqisi2
 3031              	.LVL247:
 3032              		.loc 1 2053 0
 3033 0046 4878     		ldrb	r0, [r1, #1]	@ zero_extendqisi2
 3034              	.LVL248:
 3035              		.loc 1 2054 0
 3036 0048 8B78     		ldrb	r3, [r1, #2]	@ zero_extendqisi2
 3037              	.LVL249:
 3038              	.LBB202:
 3039              	.LBB203:
 3040              		.loc 1 2743 0
 3041 004a 2709     		lsrs	r7, r4, #4
 3042              	.LBE203:
 3043              	.LBE202:
 3044              	.LBB206:
 3045              	.LBB207:
 3046 004c 0609     		lsrs	r6, r0, #4
 3047              	.LBE207:
 3048              	.LBE206:
 3049              	.LBB211:
 3050              	.LBB212:
 3051 004e 1D09     		lsrs	r5, r3, #4
 3052              	.LBE212:
 3053              	.LBE211:
 3054              	.LBB216:
 3055              	.LBB208:
 3056 0050 06EB8606 		add	r6, r6, r6, lsl #2
 3057              	.LBE208:
 3058              	.LBE216:
 3059              	.LBB217:
 3060              	.LBB213:
 3061 0054 05EB8505 		add	r5, r5, r5, lsl #2
ARM GAS  /var/folders/7z/kps_xzfj7sn5l5gkyq8s9db00000gn/T//cck5P0LB.s 			page 55


 3062              	.LBE213:
 3063              	.LBE217:
 3064              	.LBB218:
 3065              	.LBB204:
 3066 0058 07EB8707 		add	r7, r7, r7, lsl #2
 3067              		.loc 1 2744 0
 3068 005c 04F00F04 		and	r4, r4, #15
 3069              	.LVL250:
 3070              	.LBE204:
 3071              	.LBE218:
 3072              	.LBB219:
 3073              	.LBB209:
 3074 0060 00F00F00 		and	r0, r0, #15
 3075              	.LVL251:
 3076              	.LBE209:
 3077              	.LBE219:
 3078              	.LBB220:
 3079              	.LBB214:
 3080 0064 03F00F03 		and	r3, r3, #15
 3081              	.LVL252:
 3082              	.LBE214:
 3083              	.LBE220:
 3084              	.LBB221:
 3085              	.LBB210:
 3086 0068 00EB4600 		add	r0, r0, r6, lsl #1
 3087              	.LBE210:
 3088              	.LBE221:
 3089              	.LBB222:
 3090              	.LBB215:
 3091 006c 03EB4503 		add	r3, r3, r5, lsl #1
 3092              	.LBE215:
 3093              	.LBE222:
 3094              	.LBB223:
 3095              	.LBB205:
 3096 0070 04EB4704 		add	r4, r4, r7, lsl #1
 3097              	.LBE205:
 3098              	.LBE223:
 3099              		.loc 1 2052 0
 3100 0074 0C70     		strb	r4, [r1]
 3101              	.LVL253:
 3102              		.loc 1 2053 0
 3103 0076 4870     		strb	r0, [r1, #1]
 3104              	.LVL254:
 3105              		.loc 1 2054 0
 3106 0078 8B70     		strb	r3, [r1, #2]
 3107              	.LVL255:
 3108              		.loc 1 2057 0
 3109 007a 5078     		ldrb	r0, [r2, #1]	@ zero_extendqisi2
 3110              	.LVL256:
 3111              		.loc 1 2058 0
 3112 007c 9178     		ldrb	r1, [r2, #2]	@ zero_extendqisi2
 3113              	.LVL257:
 3114              		.loc 1 2059 0
 3115 007e 1378     		ldrb	r3, [r2]	@ zero_extendqisi2
 3116              	.LVL258:
 3117              	.LBB224:
 3118              	.LBB225:
ARM GAS  /var/folders/7z/kps_xzfj7sn5l5gkyq8s9db00000gn/T//cck5P0LB.s 			page 56


 3119              		.loc 1 2743 0
 3120 0080 0609     		lsrs	r6, r0, #4
 3121              	.LBE225:
 3122              	.LBE224:
 3123              	.LBB228:
 3124              	.LBB229:
 3125 0082 0D09     		lsrs	r5, r1, #4
 3126              	.LBE229:
 3127              	.LBE228:
 3128              	.LBB232:
 3129              	.LBB233:
 3130 0084 1C09     		lsrs	r4, r3, #4
 3131              	.LBE233:
 3132              	.LBE232:
 3133              	.LBB236:
 3134              	.LBB226:
 3135 0086 06EB8606 		add	r6, r6, r6, lsl #2
 3136              		.loc 1 2744 0
 3137 008a 00F00F00 		and	r0, r0, #15
 3138              	.LVL259:
 3139              	.LBE226:
 3140              	.LBE236:
 3141              	.LBB237:
 3142              	.LBB230:
 3143              		.loc 1 2743 0
 3144 008e 05EB8505 		add	r5, r5, r5, lsl #2
 3145              		.loc 1 2744 0
 3146 0092 01F00F01 		and	r1, r1, #15
 3147              	.LVL260:
 3148              	.LBE230:
 3149              	.LBE237:
 3150              	.LBB238:
 3151              	.LBB234:
 3152              		.loc 1 2743 0
 3153 0096 04EB8404 		add	r4, r4, r4, lsl #2
 3154              		.loc 1 2744 0
 3155 009a 03F00F03 		and	r3, r3, #15
 3156              	.LVL261:
 3157              	.LBE234:
 3158              	.LBE238:
 3159              	.LBB239:
 3160              	.LBB227:
 3161 009e 00EB4600 		add	r0, r0, r6, lsl #1
 3162              	.LBE227:
 3163              	.LBE239:
 3164              	.LBB240:
 3165              	.LBB231:
 3166 00a2 01EB4501 		add	r1, r1, r5, lsl #1
 3167              	.LBE231:
 3168              	.LBE240:
 3169              	.LBB241:
 3170              	.LBB235:
 3171 00a6 03EB4403 		add	r3, r3, r4, lsl #1
 3172              	.LBE235:
 3173              	.LBE241:
 3174              		.loc 1 2057 0
 3175 00aa 5070     		strb	r0, [r2, #1]
ARM GAS  /var/folders/7z/kps_xzfj7sn5l5gkyq8s9db00000gn/T//cck5P0LB.s 			page 57


 3176              	.LVL262:
 3177              		.loc 1 2058 0
 3178 00ac 9170     		strb	r1, [r2, #2]
 3179              	.LVL263:
 3180              		.loc 1 2059 0
 3181 00ae 1370     		strb	r3, [r2]
 3182              	.LVL264:
 3183              	.L295:
 3184 00b0 BDE8F081 		pop	{r4, r5, r6, r7, r8, pc}
 3185              	.L299:
 3186              		.align	2
 3187              	.L298:
 3188 00b4 00280040 		.word	1073752064
 3189              		.cfi_endproc
 3190              	.LFE146:
 3191              		.size	RTC_GetTimeStamp, .-RTC_GetTimeStamp
 3192 00b8 AFF30080 		.section	.text.RTC_GetTimeStampSubSecond,"ax",%progbits
 3192      AFF30080 
 3193              		.align	2
 3194              		.p2align 4,,15
 3195              		.global	RTC_GetTimeStampSubSecond
 3196              		.thumb
 3197              		.thumb_func
 3198              		.type	RTC_GetTimeStampSubSecond, %function
 3199              	RTC_GetTimeStampSubSecond:
 3200              	.LFB147:
 3201              		.loc 1 2069 0
 3202              		.cfi_startproc
 3203              		@ args = 0, pretend = 0, frame = 0
 3204              		@ frame_needed = 0, uses_anonymous_args = 0
 3205              		@ link register save eliminated.
 3206              		.loc 1 2071 0
 3207 0000 014B     		ldr	r3, .L301
 3208 0002 986B     		ldr	r0, [r3, #56]
 3209              		.loc 1 2072 0
 3210 0004 7047     		bx	lr
 3211              	.L302:
 3212 0006 00BF     		.align	2
 3213              	.L301:
 3214 0008 00280040 		.word	1073752064
 3215              		.cfi_endproc
 3216              	.LFE147:
 3217              		.size	RTC_GetTimeStampSubSecond, .-RTC_GetTimeStampSubSecond
 3218 000c AFF30080 		.section	.text.RTC_TamperTriggerConfig,"ax",%progbits
 3219              		.align	2
 3220              		.p2align 4,,15
 3221              		.global	RTC_TamperTriggerConfig
 3222              		.thumb
 3223              		.thumb_func
 3224              		.type	RTC_TamperTriggerConfig, %function
 3225              	RTC_TamperTriggerConfig:
 3226              	.LFB148:
 3227              		.loc 1 2104 0
 3228              		.cfi_startproc
 3229              		@ args = 0, pretend = 0, frame = 0
 3230              		@ frame_needed = 0, uses_anonymous_args = 0
 3231              		@ link register save eliminated.
ARM GAS  /var/folders/7z/kps_xzfj7sn5l5gkyq8s9db00000gn/T//cck5P0LB.s 			page 58


 3232              	.LVL265:
 3233              		.loc 1 2112 0
 3234 0000 054A     		ldr	r2, .L307
 3235 0002 136C     		ldr	r3, [r2, #64]
 3236              		.loc 1 2109 0
 3237 0004 19B1     		cbz	r1, .L306
 3238              		.loc 1 2117 0
 3239 0006 43EA4000 		orr	r0, r3, r0, lsl #1
 3240              	.LVL266:
 3241 000a 1064     		str	r0, [r2, #64]
 3242 000c 7047     		bx	lr
 3243              	.LVL267:
 3244              	.L306:
 3245              		.loc 1 2112 0
 3246 000e 23EA4000 		bic	r0, r3, r0, lsl #1
 3247              	.LVL268:
 3248 0012 1064     		str	r0, [r2, #64]
 3249 0014 7047     		bx	lr
 3250              	.L308:
 3251 0016 00BF     		.align	2
 3252              	.L307:
 3253 0018 00280040 		.word	1073752064
 3254              		.cfi_endproc
 3255              	.LFE148:
 3256              		.size	RTC_TamperTriggerConfig, .-RTC_TamperTriggerConfig
 3257 001c AFF30080 		.section	.text.RTC_TamperCmd,"ax",%progbits
 3258              		.align	2
 3259              		.p2align 4,,15
 3260              		.global	RTC_TamperCmd
 3261              		.thumb
 3262              		.thumb_func
 3263              		.type	RTC_TamperCmd, %function
 3264              	RTC_TamperCmd:
 3265              	.LFB149:
 3266              		.loc 1 2130 0
 3267              		.cfi_startproc
 3268              		@ args = 0, pretend = 0, frame = 0
 3269              		@ frame_needed = 0, uses_anonymous_args = 0
 3270              		@ link register save eliminated.
 3271              	.LVL269:
 3272              		.loc 1 2138 0
 3273 0000 044A     		ldr	r2, .L313
 3274 0002 136C     		ldr	r3, [r2, #64]
 3275              		.loc 1 2135 0
 3276 0004 19B9     		cbnz	r1, .L312
 3277              		.loc 1 2143 0
 3278 0006 23EA0000 		bic	r0, r3, r0
 3279              	.LVL270:
 3280 000a 1064     		str	r0, [r2, #64]
 3281 000c 7047     		bx	lr
 3282              	.LVL271:
 3283              	.L312:
 3284              		.loc 1 2138 0
 3285 000e 1843     		orrs	r0, r0, r3
 3286              	.LVL272:
 3287 0010 1064     		str	r0, [r2, #64]
 3288 0012 7047     		bx	lr
ARM GAS  /var/folders/7z/kps_xzfj7sn5l5gkyq8s9db00000gn/T//cck5P0LB.s 			page 59


 3289              	.L314:
 3290              		.align	2
 3291              	.L313:
 3292 0014 00280040 		.word	1073752064
 3293              		.cfi_endproc
 3294              	.LFE149:
 3295              		.size	RTC_TamperCmd, .-RTC_TamperCmd
 3296 0018 AFF30080 		.section	.text.RTC_TamperFilterConfig,"ax",%progbits
 3296      AFF30080 
 3297              		.align	2
 3298              		.p2align 4,,15
 3299              		.global	RTC_TamperFilterConfig
 3300              		.thumb
 3301              		.thumb_func
 3302              		.type	RTC_TamperFilterConfig, %function
 3303              	RTC_TamperFilterConfig:
 3304              	.LFB150:
 3305              		.loc 1 2161 0
 3306              		.cfi_startproc
 3307              		@ args = 0, pretend = 0, frame = 0
 3308              		@ frame_needed = 0, uses_anonymous_args = 0
 3309              		@ link register save eliminated.
 3310              	.LVL273:
 3311              		.loc 1 2166 0
 3312 0000 044B     		ldr	r3, .L316
 3313 0002 1A6C     		ldr	r2, [r3, #64]
 3314 0004 22F4C052 		bic	r2, r2, #6144
 3315 0008 1A64     		str	r2, [r3, #64]
 3316              		.loc 1 2169 0
 3317 000a 1A6C     		ldr	r2, [r3, #64]
 3318 000c 1043     		orrs	r0, r0, r2
 3319              	.LVL274:
 3320 000e 1864     		str	r0, [r3, #64]
 3321 0010 7047     		bx	lr
 3322              	.L317:
 3323 0012 00BF     		.align	2
 3324              	.L316:
 3325 0014 00280040 		.word	1073752064
 3326              		.cfi_endproc
 3327              	.LFE150:
 3328              		.size	RTC_TamperFilterConfig, .-RTC_TamperFilterConfig
 3329 0018 AFF30080 		.section	.text.RTC_TamperSamplingFreqConfig,"ax",%progbits
 3329      AFF30080 
 3330              		.align	2
 3331              		.p2align 4,,15
 3332              		.global	RTC_TamperSamplingFreqConfig
 3333              		.thumb
 3334              		.thumb_func
 3335              		.type	RTC_TamperSamplingFreqConfig, %function
 3336              	RTC_TamperSamplingFreqConfig:
 3337              	.LFB151:
 3338              		.loc 1 2195 0
 3339              		.cfi_startproc
 3340              		@ args = 0, pretend = 0, frame = 0
 3341              		@ frame_needed = 0, uses_anonymous_args = 0
 3342              		@ link register save eliminated.
 3343              	.LVL275:
ARM GAS  /var/folders/7z/kps_xzfj7sn5l5gkyq8s9db00000gn/T//cck5P0LB.s 			page 60


 3344              		.loc 1 2200 0
 3345 0000 044B     		ldr	r3, .L319
 3346 0002 1A6C     		ldr	r2, [r3, #64]
 3347 0004 22F4E062 		bic	r2, r2, #1792
 3348 0008 1A64     		str	r2, [r3, #64]
 3349              		.loc 1 2203 0
 3350 000a 1A6C     		ldr	r2, [r3, #64]
 3351 000c 1043     		orrs	r0, r0, r2
 3352              	.LVL276:
 3353 000e 1864     		str	r0, [r3, #64]
 3354 0010 7047     		bx	lr
 3355              	.L320:
 3356 0012 00BF     		.align	2
 3357              	.L319:
 3358 0014 00280040 		.word	1073752064
 3359              		.cfi_endproc
 3360              	.LFE151:
 3361              		.size	RTC_TamperSamplingFreqConfig, .-RTC_TamperSamplingFreqConfig
 3362 0018 AFF30080 		.section	.text.RTC_TamperPinsPrechargeDuration,"ax",%progbits
 3362      AFF30080 
 3363              		.align	2
 3364              		.p2align 4,,15
 3365              		.global	RTC_TamperPinsPrechargeDuration
 3366              		.thumb
 3367              		.thumb_func
 3368              		.type	RTC_TamperPinsPrechargeDuration, %function
 3369              	RTC_TamperPinsPrechargeDuration:
 3370              	.LFB152:
 3371              		.loc 1 2218 0
 3372              		.cfi_startproc
 3373              		@ args = 0, pretend = 0, frame = 0
 3374              		@ frame_needed = 0, uses_anonymous_args = 0
 3375              		@ link register save eliminated.
 3376              	.LVL277:
 3377              		.loc 1 2223 0
 3378 0000 044B     		ldr	r3, .L322
 3379 0002 1A6C     		ldr	r2, [r3, #64]
 3380 0004 22F4C042 		bic	r2, r2, #24576
 3381 0008 1A64     		str	r2, [r3, #64]
 3382              		.loc 1 2226 0
 3383 000a 1A6C     		ldr	r2, [r3, #64]
 3384 000c 1043     		orrs	r0, r0, r2
 3385              	.LVL278:
 3386 000e 1864     		str	r0, [r3, #64]
 3387 0010 7047     		bx	lr
 3388              	.L323:
 3389 0012 00BF     		.align	2
 3390              	.L322:
 3391 0014 00280040 		.word	1073752064
 3392              		.cfi_endproc
 3393              	.LFE152:
 3394              		.size	RTC_TamperPinsPrechargeDuration, .-RTC_TamperPinsPrechargeDuration
 3395 0018 AFF30080 		.section	.text.RTC_TimeStampOnTamperDetectionCmd,"ax",%progbits
 3395      AFF30080 
 3396              		.align	2
 3397              		.p2align 4,,15
 3398              		.global	RTC_TimeStampOnTamperDetectionCmd
ARM GAS  /var/folders/7z/kps_xzfj7sn5l5gkyq8s9db00000gn/T//cck5P0LB.s 			page 61


 3399              		.thumb
 3400              		.thumb_func
 3401              		.type	RTC_TimeStampOnTamperDetectionCmd, %function
 3402              	RTC_TimeStampOnTamperDetectionCmd:
 3403              	.LFB153:
 3404              		.loc 1 2238 0
 3405              		.cfi_startproc
 3406              		@ args = 0, pretend = 0, frame = 0
 3407              		@ frame_needed = 0, uses_anonymous_args = 0
 3408              		@ link register save eliminated.
 3409              	.LVL279:
 3410              		.loc 1 2245 0
 3411 0000 054A     		ldr	r2, .L328
 3412 0002 136C     		ldr	r3, [r2, #64]
 3413              		.loc 1 2242 0
 3414 0004 18B9     		cbnz	r0, .L327
 3415              		.loc 1 2250 0
 3416 0006 23F08003 		bic	r3, r3, #128
 3417 000a 1364     		str	r3, [r2, #64]
 3418 000c 7047     		bx	lr
 3419              	.L327:
 3420              		.loc 1 2245 0
 3421 000e 43F08003 		orr	r3, r3, #128
 3422 0012 1364     		str	r3, [r2, #64]
 3423 0014 7047     		bx	lr
 3424              	.L329:
 3425 0016 00BF     		.align	2
 3426              	.L328:
 3427 0018 00280040 		.word	1073752064
 3428              		.cfi_endproc
 3429              	.LFE153:
 3430              		.size	RTC_TimeStampOnTamperDetectionCmd, .-RTC_TimeStampOnTamperDetectionCmd
 3431 001c AFF30080 		.section	.text.RTC_TamperPullUpCmd,"ax",%progbits
 3432              		.align	2
 3433              		.p2align 4,,15
 3434              		.global	RTC_TamperPullUpCmd
 3435              		.thumb
 3436              		.thumb_func
 3437              		.type	RTC_TamperPullUpCmd, %function
 3438              	RTC_TamperPullUpCmd:
 3439              	.LFB154:
 3440              		.loc 1 2261 0
 3441              		.cfi_startproc
 3442              		@ args = 0, pretend = 0, frame = 0
 3443              		@ frame_needed = 0, uses_anonymous_args = 0
 3444              		@ link register save eliminated.
 3445              	.LVL280:
 3446              		.loc 1 2268 0
 3447 0000 054A     		ldr	r2, .L334
 3448 0002 136C     		ldr	r3, [r2, #64]
 3449              		.loc 1 2265 0
 3450 0004 18B9     		cbnz	r0, .L333
 3451              		.loc 1 2273 0
 3452 0006 43F40043 		orr	r3, r3, #32768
 3453 000a 1364     		str	r3, [r2, #64]
 3454 000c 7047     		bx	lr
 3455              	.L333:
ARM GAS  /var/folders/7z/kps_xzfj7sn5l5gkyq8s9db00000gn/T//cck5P0LB.s 			page 62


 3456              		.loc 1 2268 0
 3457 000e 23F40043 		bic	r3, r3, #32768
 3458 0012 1364     		str	r3, [r2, #64]
 3459 0014 7047     		bx	lr
 3460              	.L335:
 3461 0016 00BF     		.align	2
 3462              	.L334:
 3463 0018 00280040 		.word	1073752064
 3464              		.cfi_endproc
 3465              	.LFE154:
 3466              		.size	RTC_TamperPullUpCmd, .-RTC_TamperPullUpCmd
 3467 001c AFF30080 		.section	.text.RTC_WriteBackupRegister,"ax",%progbits
 3468              		.align	2
 3469              		.p2align 4,,15
 3470              		.global	RTC_WriteBackupRegister
 3471              		.thumb
 3472              		.thumb_func
 3473              		.type	RTC_WriteBackupRegister, %function
 3474              	RTC_WriteBackupRegister:
 3475              	.LFB155:
 3476              		.loc 1 2302 0
 3477              		.cfi_startproc
 3478              		@ args = 0, pretend = 0, frame = 8
 3479              		@ frame_needed = 0, uses_anonymous_args = 0
 3480              		@ link register save eliminated.
 3481              	.LVL281:
 3482 0000 82B0     		sub	sp, sp, #8
 3483              		.cfi_def_cfa_offset 8
 3484              		.loc 1 2303 0
 3485 0002 0022     		movs	r2, #0
 3486              		.loc 1 2308 0
 3487 0004 054B     		ldr	r3, .L338
 3488              		.loc 1 2303 0
 3489 0006 0192     		str	r2, [sp, #4]
 3490              		.loc 1 2308 0
 3491 0008 0193     		str	r3, [sp, #4]
 3492              		.loc 1 2309 0
 3493 000a 019B     		ldr	r3, [sp, #4]
 3494 000c 03EB8000 		add	r0, r3, r0, lsl #2
 3495              	.LVL282:
 3496 0010 0190     		str	r0, [sp, #4]
 3497              		.loc 1 2312 0
 3498 0012 019B     		ldr	r3, [sp, #4]
 3499 0014 1960     		str	r1, [r3]
 3500              		.loc 1 2313 0
 3501 0016 02B0     		add	sp, sp, #8
 3502              		.cfi_def_cfa_offset 0
 3503              		@ sp needed
 3504 0018 7047     		bx	lr
 3505              	.L339:
 3506 001a 00BF     		.align	2
 3507              	.L338:
 3508 001c 50280040 		.word	1073752144
 3509              		.cfi_endproc
 3510              	.LFE155:
 3511              		.size	RTC_WriteBackupRegister, .-RTC_WriteBackupRegister
 3512              		.section	.text.RTC_ReadBackupRegister,"ax",%progbits
ARM GAS  /var/folders/7z/kps_xzfj7sn5l5gkyq8s9db00000gn/T//cck5P0LB.s 			page 63


 3513              		.align	2
 3514              		.p2align 4,,15
 3515              		.global	RTC_ReadBackupRegister
 3516              		.thumb
 3517              		.thumb_func
 3518              		.type	RTC_ReadBackupRegister, %function
 3519              	RTC_ReadBackupRegister:
 3520              	.LFB156:
 3521              		.loc 1 2323 0
 3522              		.cfi_startproc
 3523              		@ args = 0, pretend = 0, frame = 8
 3524              		@ frame_needed = 0, uses_anonymous_args = 0
 3525              		@ link register save eliminated.
 3526              	.LVL283:
 3527 0000 82B0     		sub	sp, sp, #8
 3528              		.cfi_def_cfa_offset 8
 3529              		.loc 1 2324 0
 3530 0002 0022     		movs	r2, #0
 3531              		.loc 1 2329 0
 3532 0004 054B     		ldr	r3, .L342
 3533              		.loc 1 2324 0
 3534 0006 0192     		str	r2, [sp, #4]
 3535              		.loc 1 2329 0
 3536 0008 0193     		str	r3, [sp, #4]
 3537              		.loc 1 2330 0
 3538 000a 019B     		ldr	r3, [sp, #4]
 3539 000c 03EB8000 		add	r0, r3, r0, lsl #2
 3540              	.LVL284:
 3541 0010 0190     		str	r0, [sp, #4]
 3542              		.loc 1 2333 0
 3543 0012 019B     		ldr	r3, [sp, #4]
 3544 0014 1868     		ldr	r0, [r3]
 3545              		.loc 1 2334 0
 3546 0016 02B0     		add	sp, sp, #8
 3547              		.cfi_def_cfa_offset 0
 3548              		@ sp needed
 3549 0018 7047     		bx	lr
 3550              	.L343:
 3551 001a 00BF     		.align	2
 3552              	.L342:
 3553 001c 50280040 		.word	1073752144
 3554              		.cfi_endproc
 3555              	.LFE156:
 3556              		.size	RTC_ReadBackupRegister, .-RTC_ReadBackupRegister
 3557              		.section	.text.RTC_TamperPinSelection,"ax",%progbits
 3558              		.align	2
 3559              		.p2align 4,,15
 3560              		.global	RTC_TamperPinSelection
 3561              		.thumb
 3562              		.thumb_func
 3563              		.type	RTC_TamperPinSelection, %function
 3564              	RTC_TamperPinSelection:
 3565              	.LFB157:
 3566              		.loc 1 2363 0
 3567              		.cfi_startproc
 3568              		@ args = 0, pretend = 0, frame = 0
 3569              		@ frame_needed = 0, uses_anonymous_args = 0
ARM GAS  /var/folders/7z/kps_xzfj7sn5l5gkyq8s9db00000gn/T//cck5P0LB.s 			page 64


 3570              		@ link register save eliminated.
 3571              	.LVL285:
 3572              		.loc 1 2367 0
 3573 0000 044B     		ldr	r3, .L345
 3574 0002 1A6C     		ldr	r2, [r3, #64]
 3575 0004 22F48032 		bic	r2, r2, #65536
 3576 0008 1A64     		str	r2, [r3, #64]
 3577              		.loc 1 2368 0
 3578 000a 1A6C     		ldr	r2, [r3, #64]
 3579 000c 1043     		orrs	r0, r0, r2
 3580              	.LVL286:
 3581 000e 1864     		str	r0, [r3, #64]
 3582 0010 7047     		bx	lr
 3583              	.L346:
 3584 0012 00BF     		.align	2
 3585              	.L345:
 3586 0014 00280040 		.word	1073752064
 3587              		.cfi_endproc
 3588              	.LFE157:
 3589              		.size	RTC_TamperPinSelection, .-RTC_TamperPinSelection
 3590 0018 AFF30080 		.section	.text.RTC_TimeStampPinSelection,"ax",%progbits
 3590      AFF30080 
 3591              		.align	2
 3592              		.p2align 4,,15
 3593              		.global	RTC_TimeStampPinSelection
 3594              		.thumb
 3595              		.thumb_func
 3596              		.type	RTC_TimeStampPinSelection, %function
 3597              	RTC_TimeStampPinSelection:
 3598              	.LFB158:
 3599              		.loc 1 2380 0
 3600              		.cfi_startproc
 3601              		@ args = 0, pretend = 0, frame = 0
 3602              		@ frame_needed = 0, uses_anonymous_args = 0
 3603              		@ link register save eliminated.
 3604              	.LVL287:
 3605              		.loc 1 2384 0
 3606 0000 044B     		ldr	r3, .L348
 3607 0002 1A6C     		ldr	r2, [r3, #64]
 3608 0004 22F40032 		bic	r2, r2, #131072
 3609 0008 1A64     		str	r2, [r3, #64]
 3610              		.loc 1 2385 0
 3611 000a 1A6C     		ldr	r2, [r3, #64]
 3612 000c 1043     		orrs	r0, r0, r2
 3613              	.LVL288:
 3614 000e 1864     		str	r0, [r3, #64]
 3615 0010 7047     		bx	lr
 3616              	.L349:
 3617 0012 00BF     		.align	2
 3618              	.L348:
 3619 0014 00280040 		.word	1073752064
 3620              		.cfi_endproc
 3621              	.LFE158:
 3622              		.size	RTC_TimeStampPinSelection, .-RTC_TimeStampPinSelection
 3623 0018 AFF30080 		.section	.text.RTC_OutputTypeConfig,"ax",%progbits
 3623      AFF30080 
 3624              		.align	2
ARM GAS  /var/folders/7z/kps_xzfj7sn5l5gkyq8s9db00000gn/T//cck5P0LB.s 			page 65


 3625              		.p2align 4,,15
 3626              		.global	RTC_OutputTypeConfig
 3627              		.thumb
 3628              		.thumb_func
 3629              		.type	RTC_OutputTypeConfig, %function
 3630              	RTC_OutputTypeConfig:
 3631              	.LFB159:
 3632              		.loc 1 2399 0
 3633              		.cfi_startproc
 3634              		@ args = 0, pretend = 0, frame = 0
 3635              		@ frame_needed = 0, uses_anonymous_args = 0
 3636              		@ link register save eliminated.
 3637              	.LVL289:
 3638              		.loc 1 2403 0
 3639 0000 044B     		ldr	r3, .L351
 3640 0002 1A6C     		ldr	r2, [r3, #64]
 3641 0004 22F48022 		bic	r2, r2, #262144
 3642 0008 1A64     		str	r2, [r3, #64]
 3643              		.loc 1 2404 0
 3644 000a 1A6C     		ldr	r2, [r3, #64]
 3645 000c 1043     		orrs	r0, r0, r2
 3646              	.LVL290:
 3647 000e 1864     		str	r0, [r3, #64]
 3648 0010 7047     		bx	lr
 3649              	.L352:
 3650 0012 00BF     		.align	2
 3651              	.L351:
 3652 0014 00280040 		.word	1073752064
 3653              		.cfi_endproc
 3654              	.LFE159:
 3655              		.size	RTC_OutputTypeConfig, .-RTC_OutputTypeConfig
 3656 0018 AFF30080 		.section	.text.RTC_SynchroShiftConfig,"ax",%progbits
 3656      AFF30080 
 3657              		.align	2
 3658              		.p2align 4,,15
 3659              		.global	RTC_SynchroShiftConfig
 3660              		.thumb
 3661              		.thumb_func
 3662              		.type	RTC_SynchroShiftConfig, %function
 3663              	RTC_SynchroShiftConfig:
 3664              	.LFB160:
 3665              		.loc 1 2437 0
 3666              		.cfi_startproc
 3667              		@ args = 0, pretend = 0, frame = 0
 3668              		@ frame_needed = 0, uses_anonymous_args = 0
 3669              	.LVL291:
 3670 0000 10B5     		push	{r4, lr}
 3671              		.cfi_def_cfa_offset 8
 3672              		.cfi_offset 4, -8
 3673              		.cfi_offset 14, -4
 3674              		.loc 1 2446 0
 3675 0002 184C     		ldr	r4, .L372
 3676 0004 CA22     		movs	r2, #202
 3677              		.loc 1 2447 0
 3678 0006 5323     		movs	r3, #83
 3679              		.loc 1 2446 0
 3680 0008 6262     		str	r2, [r4, #36]
ARM GAS  /var/folders/7z/kps_xzfj7sn5l5gkyq8s9db00000gn/T//cck5P0LB.s 			page 66


 3681              		.loc 1 2447 0
 3682 000a 6362     		str	r3, [r4, #36]
 3683              		.loc 1 2450 0
 3684 000c E368     		ldr	r3, [r4, #12]
 3685 000e 1A07     		lsls	r2, r3, #28
 3686 0010 0AD5     		bpl	.L354
 3687              		.loc 1 2453 0
 3688 0012 E368     		ldr	r3, [r4, #12]
 3689 0014 1B07     		lsls	r3, r3, #28
 3690 0016 07D5     		bpl	.L354
 3691 0018 4FF48053 		mov	r3, #4096
 3692 001c 01E0     		b	.L355
 3693              	.LVL292:
 3694              	.L370:
 3695              		.loc 1 2453 0 is_stmt 0 discriminator 1
 3696 001e 013B     		subs	r3, r3, #1
 3697              	.LVL293:
 3698 0020 02D0     		beq	.L354
 3699              	.LVL294:
 3700              	.L355:
 3701              		.loc 1 2453 0
 3702 0022 E268     		ldr	r2, [r4, #12]
 3703 0024 1207     		lsls	r2, r2, #28
 3704 0026 FAD4     		bmi	.L370
 3705              	.LVL295:
 3706              	.L354:
 3707              		.loc 1 2460 0 is_stmt 1
 3708 0028 0E4A     		ldr	r2, .L372
 3709 002a D368     		ldr	r3, [r2, #12]
 3710 002c 13F00803 		ands	r3, r3, #8
 3711 0030 13D1     		bne	.L357
 3712              		.loc 1 2463 0
 3713 0032 9468     		ldr	r4, [r2, #8]
 3714 0034 E406     		lsls	r4, r4, #27
 3715 0036 04D5     		bpl	.L371
 3716              		.loc 1 2484 0
 3717 0038 1846     		mov	r0, r3
 3718              	.LVL296:
 3719              		.loc 1 2488 0
 3720 003a 0A4B     		ldr	r3, .L372
 3721 003c FF22     		movs	r2, #255
 3722 003e 5A62     		str	r2, [r3, #36]
 3723              		.loc 1 2491 0
 3724 0040 10BD     		pop	{r4, pc}
 3725              	.LVL297:
 3726              	.L371:
 3727              		.loc 1 2466 0
 3728 0042 0843     		orrs	r0, r0, r1
 3729              	.LVL298:
 3730 0044 D062     		str	r0, [r2, #44]
 3731              		.loc 1 2468 0
 3732 0046 FFF7FEFF 		bl	RTC_WaitForSynchro
 3733              	.LVL299:
 3734              		.loc 1 2488 0
 3735 004a 064B     		ldr	r3, .L372
 3736              		.loc 1 2479 0
 3737 004c 0030     		adds	r0, r0, #0
ARM GAS  /var/folders/7z/kps_xzfj7sn5l5gkyq8s9db00000gn/T//cck5P0LB.s 			page 67


 3738              		.loc 1 2488 0
 3739 004e 4FF0FF02 		mov	r2, #255
 3740              		.loc 1 2479 0
 3741 0052 18BF     		it	ne
 3742 0054 0120     		movne	r0, #1
 3743              	.LVL300:
 3744              		.loc 1 2488 0
 3745 0056 5A62     		str	r2, [r3, #36]
 3746              		.loc 1 2491 0
 3747 0058 10BD     		pop	{r4, pc}
 3748              	.LVL301:
 3749              	.L357:
 3750              		.loc 1 2488 0
 3751 005a 024B     		ldr	r3, .L372
 3752 005c FF22     		movs	r2, #255
 3753              		.loc 1 2484 0
 3754 005e 0020     		movs	r0, #0
 3755              	.LVL302:
 3756              		.loc 1 2488 0
 3757 0060 5A62     		str	r2, [r3, #36]
 3758              		.loc 1 2491 0
 3759 0062 10BD     		pop	{r4, pc}
 3760              	.L373:
 3761              		.align	2
 3762              	.L372:
 3763 0064 00280040 		.word	1073752064
 3764              		.cfi_endproc
 3765              	.LFE160:
 3766              		.size	RTC_SynchroShiftConfig, .-RTC_SynchroShiftConfig
 3767              		.section	.text.RTC_ITConfig,"ax",%progbits
 3768              		.align	2
 3769              		.p2align 4,,15
 3770              		.global	RTC_ITConfig
 3771              		.thumb
 3772              		.thumb_func
 3773              		.type	RTC_ITConfig, %function
 3774              	RTC_ITConfig:
 3775              	.LFB161:
 3776              		.loc 1 2556 0
 3777              		.cfi_startproc
 3778              		@ args = 0, pretend = 0, frame = 0
 3779              		@ frame_needed = 0, uses_anonymous_args = 0
 3780              		@ link register save eliminated.
 3781              	.LVL303:
 3782              		.loc 1 2562 0
 3783 0000 114B     		ldr	r3, .L379
 3784              		.loc 1 2556 0
 3785 0002 10B4     		push	{r4}
 3786              		.cfi_def_cfa_offset 4
 3787              		.cfi_offset 4, -4
 3788              		.loc 1 2563 0
 3789 0004 5322     		movs	r2, #83
 3790              		.loc 1 2562 0
 3791 0006 CA24     		movs	r4, #202
 3792 0008 5C62     		str	r4, [r3, #36]
 3793              		.loc 1 2563 0
 3794 000a 5A62     		str	r2, [r3, #36]
ARM GAS  /var/folders/7z/kps_xzfj7sn5l5gkyq8s9db00000gn/T//cck5P0LB.s 			page 68


 3795              		.loc 1 2568 0
 3796 000c 9A68     		ldr	r2, [r3, #8]
 3797              		.loc 1 2565 0
 3798 000e 81B9     		cbnz	r1, .L378
 3799              		.loc 1 2575 0
 3800 0010 20F00401 		bic	r1, r0, #4
 3801              	.LVL304:
 3802 0014 22EA0102 		bic	r2, r2, r1
 3803 0018 9A60     		str	r2, [r3, #8]
 3804              		.loc 1 2577 0
 3805 001a 1A6C     		ldr	r2, [r3, #64]
 3806 001c 00F00400 		and	r0, r0, #4
 3807              	.LVL305:
 3808 0020 22EA0000 		bic	r0, r2, r0
 3809 0024 1864     		str	r0, [r3, #64]
 3810              	.L376:
 3811              		.loc 1 2580 0
 3812 0026 084B     		ldr	r3, .L379
 3813              		.loc 1 2581 0
 3814 0028 5DF8044B 		ldr	r4, [sp], #4
 3815              		.cfi_remember_state
 3816              		.cfi_restore 4
 3817              		.cfi_def_cfa_offset 0
 3818              		.loc 1 2580 0
 3819 002c FF22     		movs	r2, #255
 3820 002e 5A62     		str	r2, [r3, #36]
 3821              		.loc 1 2581 0
 3822 0030 7047     		bx	lr
 3823              	.LVL306:
 3824              	.L378:
 3825              		.cfi_restore_state
 3826              		.loc 1 2568 0
 3827 0032 20F00401 		bic	r1, r0, #4
 3828              	.LVL307:
 3829 0036 0A43     		orrs	r2, r2, r1
 3830 0038 9A60     		str	r2, [r3, #8]
 3831              		.loc 1 2570 0
 3832 003a 1A6C     		ldr	r2, [r3, #64]
 3833 003c 00F00400 		and	r0, r0, #4
 3834              	.LVL308:
 3835 0040 1043     		orrs	r0, r0, r2
 3836 0042 1864     		str	r0, [r3, #64]
 3837 0044 EFE7     		b	.L376
 3838              	.L380:
 3839 0046 00BF     		.align	2
 3840              	.L379:
 3841 0048 00280040 		.word	1073752064
 3842              		.cfi_endproc
 3843              	.LFE161:
 3844              		.size	RTC_ITConfig, .-RTC_ITConfig
 3845 004c AFF30080 		.section	.text.RTC_GetFlagStatus,"ax",%progbits
 3846              		.align	2
 3847              		.p2align 4,,15
 3848              		.global	RTC_GetFlagStatus
 3849              		.thumb
 3850              		.thumb_func
 3851              		.type	RTC_GetFlagStatus, %function
ARM GAS  /var/folders/7z/kps_xzfj7sn5l5gkyq8s9db00000gn/T//cck5P0LB.s 			page 69


 3852              	RTC_GetFlagStatus:
 3853              	.LFB162:
 3854              		.loc 1 2604 0
 3855              		.cfi_startproc
 3856              		@ args = 0, pretend = 0, frame = 0
 3857              		@ frame_needed = 0, uses_anonymous_args = 0
 3858              		@ link register save eliminated.
 3859              	.LVL309:
 3860              		.loc 1 2612 0
 3861 0000 044A     		ldr	r2, .L382
 3862 0002 054B     		ldr	r3, .L382+4
 3863 0004 D268     		ldr	r2, [r2, #12]
 3864              	.LVL310:
 3865 0006 1340     		ands	r3, r3, r2
 3866              	.LVL311:
 3867              		.loc 1 2615 0
 3868 0008 0342     		tst	r3, r0
 3869              		.loc 1 2624 0
 3870 000a 14BF     		ite	ne
 3871 000c 0120     		movne	r0, #1
 3872              	.LVL312:
 3873 000e 0020     		moveq	r0, #0
 3874 0010 7047     		bx	lr
 3875              	.L383:
 3876 0012 00BF     		.align	2
 3877              	.L382:
 3878 0014 00280040 		.word	1073752064
 3879 0018 7F3F0100 		.word	81791
 3880              		.cfi_endproc
 3881              	.LFE162:
 3882              		.size	RTC_GetFlagStatus, .-RTC_GetFlagStatus
 3883 001c AFF30080 		.section	.text.RTC_ClearFlag,"ax",%progbits
 3884              		.align	2
 3885              		.p2align 4,,15
 3886              		.global	RTC_ClearFlag
 3887              		.thumb
 3888              		.thumb_func
 3889              		.type	RTC_ClearFlag, %function
 3890              	RTC_ClearFlag:
 3891              	.LFB163:
 3892              		.loc 1 2640 0
 3893              		.cfi_startproc
 3894              		@ args = 0, pretend = 0, frame = 0
 3895              		@ frame_needed = 0, uses_anonymous_args = 0
 3896              		@ link register save eliminated.
 3897              	.LVL313:
 3898              		.loc 1 2645 0
 3899 0000 054A     		ldr	r2, .L385
 3900 0002 D368     		ldr	r3, [r2, #12]
 3901 0004 80B2     		uxth	r0, r0
 3902              	.LVL314:
 3903 0006 40F08000 		orr	r0, r0, #128
 3904 000a 03F08003 		and	r3, r3, #128
 3905 000e 63EA0003 		orn	r3, r3, r0
 3906 0012 D360     		str	r3, [r2, #12]
 3907 0014 7047     		bx	lr
 3908              	.L386:
ARM GAS  /var/folders/7z/kps_xzfj7sn5l5gkyq8s9db00000gn/T//cck5P0LB.s 			page 70


 3909 0016 00BF     		.align	2
 3910              	.L385:
 3911 0018 00280040 		.word	1073752064
 3912              		.cfi_endproc
 3913              	.LFE163:
 3914              		.size	RTC_ClearFlag, .-RTC_ClearFlag
 3915 001c AFF30080 		.section	.text.RTC_GetITStatus,"ax",%progbits
 3916              		.align	2
 3917              		.p2align 4,,15
 3918              		.global	RTC_GetITStatus
 3919              		.thumb
 3920              		.thumb_func
 3921              		.type	RTC_GetITStatus, %function
 3922              	RTC_GetITStatus:
 3923              	.LFB164:
 3924              		.loc 1 2660 0
 3925              		.cfi_startproc
 3926              		@ args = 0, pretend = 0, frame = 0
 3927              		@ frame_needed = 0, uses_anonymous_args = 0
 3928              		@ link register save eliminated.
 3929              	.LVL315:
 3930              		.loc 1 2668 0
 3931 0000 0949     		ldr	r1, .L390
 3932 0002 0A6C     		ldr	r2, [r1, #64]
 3933              	.LVL316:
 3934              		.loc 1 2671 0
 3935 0004 8B68     		ldr	r3, [r1, #8]
 3936              		.loc 1 2674 0
 3937 0006 C968     		ldr	r1, [r1, #12]
 3938              	.LVL317:
 3939              		.loc 1 2668 0
 3940 0008 02F00402 		and	r2, r2, #4
 3941              	.LVL318:
 3942              		.loc 1 2671 0
 3943 000c 02EAD032 		and	r2, r2, r0, lsr #15
 3944 0010 0340     		ands	r3, r3, r0
 3945              		.loc 1 2677 0
 3946 0012 1343     		orrs	r3, r2, r3
 3947 0014 06D0     		beq	.L389
 3948 0016 89B2     		uxth	r1, r1
 3949              	.LVL319:
 3950              		.loc 1 2677 0 is_stmt 0 discriminator 1
 3951 0018 11EA1013 		ands	r3, r1, r0, lsr #4
 3952              		.loc 1 2679 0 is_stmt 1 discriminator 1
 3953 001c 14BF     		ite	ne
 3954 001e 0120     		movne	r0, #1
 3955              	.LVL320:
 3956 0020 0020     		moveq	r0, #0
 3957 0022 7047     		bx	lr
 3958              	.LVL321:
 3959              	.L389:
 3960              		.loc 1 2683 0
 3961 0024 1846     		mov	r0, r3
 3962              	.LVL322:
 3963              		.loc 1 2686 0
 3964 0026 7047     		bx	lr
 3965              	.L391:
ARM GAS  /var/folders/7z/kps_xzfj7sn5l5gkyq8s9db00000gn/T//cck5P0LB.s 			page 71


 3966              		.align	2
 3967              	.L390:
 3968 0028 00280040 		.word	1073752064
 3969              		.cfi_endproc
 3970              	.LFE164:
 3971              		.size	RTC_GetITStatus, .-RTC_GetITStatus
 3972 002c AFF30080 		.section	.text.RTC_ClearITPendingBit,"ax",%progbits
 3973              		.align	2
 3974              		.p2align 4,,15
 3975              		.global	RTC_ClearITPendingBit
 3976              		.thumb
 3977              		.thumb_func
 3978              		.type	RTC_ClearITPendingBit, %function
 3979              	RTC_ClearITPendingBit:
 3980              	.LFB165:
 3981              		.loc 1 2700 0
 3982              		.cfi_startproc
 3983              		@ args = 0, pretend = 0, frame = 0
 3984              		@ frame_needed = 0, uses_anonymous_args = 0
 3985              		@ link register save eliminated.
 3986              	.LVL323:
 3987              		.loc 1 2710 0
 3988 0000 054A     		ldr	r2, .L393
 3989 0002 D368     		ldr	r3, [r2, #12]
 3990 0004 C0F30F10 		ubfx	r0, r0, #4, #16
 3991              	.LVL324:
 3992 0008 40F08000 		orr	r0, r0, #128
 3993 000c 03F08003 		and	r3, r3, #128
 3994 0010 63EA0003 		orn	r3, r3, r0
 3995 0014 D360     		str	r3, [r2, #12]
 3996 0016 7047     		bx	lr
 3997              	.L394:
 3998              		.align	2
 3999              	.L393:
 4000 0018 00280040 		.word	1073752064
 4001              		.cfi_endproc
 4002              	.LFE165:
 4003              		.size	RTC_ClearITPendingBit, .-RTC_ClearITPendingBit
 4004 001c AFF30080 		.text
 4005              	.Letext0:
 4006              		.file 2 "/Users/Baram/gcc-arm-none-eabi/arm-none-eabi/include/machine/_default_types.h"
 4007              		.file 3 "/Users/Baram/gcc-arm-none-eabi/arm-none-eabi/include/stdint.h"
 4008              		.file 4 "lib/ChibiOS_2.6.6/os/hal/platforms/STM32F4xx/stm32f4xx.h"
 4009              		.file 5 "lib/ChibiOS_2.6.6/ext/stdperiph_stm32f4/inc/stm32f4xx_rtc.h"
 4010              		.file 6 "lib/ChibiOS_2.6.6/os/ports/common/ARMCMx/CMSIS/include/core_cm4.h"
 4011              		.section	.debug_info,"",%progbits
 4012              	.Ldebug_info0:
 4013 0000 52160000 		.4byte	0x1652
 4014 0004 0400     		.2byte	0x4
 4015 0006 00000000 		.4byte	.Ldebug_abbrev0
 4016 000a 04       		.byte	0x4
 4017 000b 01       		.uleb128 0x1
 4018 000c 9D070000 		.4byte	.LASF189
 4019 0010 01       		.byte	0x1
 4020 0011 5A060000 		.4byte	.LASF190
 4021 0015 FE030000 		.4byte	.LASF191
 4022 0019 F0020000 		.4byte	.Ldebug_ranges0+0x2f0
ARM GAS  /var/folders/7z/kps_xzfj7sn5l5gkyq8s9db00000gn/T//cck5P0LB.s 			page 72


 4023 001d 00000000 		.4byte	0
 4024 0021 00000000 		.4byte	.Ldebug_line0
 4025 0025 02       		.uleb128 0x2
 4026 0026 01       		.byte	0x1
 4027 0027 06       		.byte	0x6
 4028 0028 6D010000 		.4byte	.LASF0
 4029 002c 03       		.uleb128 0x3
 4030 002d 76000000 		.4byte	.LASF4
 4031 0031 02       		.byte	0x2
 4032 0032 1D       		.byte	0x1d
 4033 0033 37000000 		.4byte	0x37
 4034 0037 02       		.uleb128 0x2
 4035 0038 01       		.byte	0x1
 4036 0039 08       		.byte	0x8
 4037 003a 04070000 		.4byte	.LASF1
 4038 003e 02       		.uleb128 0x2
 4039 003f 02       		.byte	0x2
 4040 0040 05       		.byte	0x5
 4041 0041 73070000 		.4byte	.LASF2
 4042 0045 02       		.uleb128 0x2
 4043 0046 02       		.byte	0x2
 4044 0047 07       		.byte	0x7
 4045 0048 F6090000 		.4byte	.LASF3
 4046 004c 03       		.uleb128 0x3
 4047 004d C3090000 		.4byte	.LASF5
 4048 0051 02       		.byte	0x2
 4049 0052 3F       		.byte	0x3f
 4050 0053 57000000 		.4byte	0x57
 4051 0057 02       		.uleb128 0x2
 4052 0058 04       		.byte	0x4
 4053 0059 05       		.byte	0x5
 4054 005a E2010000 		.4byte	.LASF6
 4055 005e 03       		.uleb128 0x3
 4056 005f B3020000 		.4byte	.LASF7
 4057 0063 02       		.byte	0x2
 4058 0064 41       		.byte	0x41
 4059 0065 69000000 		.4byte	0x69
 4060 0069 02       		.uleb128 0x2
 4061 006a 04       		.byte	0x4
 4062 006b 07       		.byte	0x7
 4063 006c D1030000 		.4byte	.LASF8
 4064 0070 02       		.uleb128 0x2
 4065 0071 08       		.byte	0x8
 4066 0072 05       		.byte	0x5
 4067 0073 5F010000 		.4byte	.LASF9
 4068 0077 02       		.uleb128 0x2
 4069 0078 08       		.byte	0x8
 4070 0079 07       		.byte	0x7
 4071 007a D0000000 		.4byte	.LASF10
 4072 007e 04       		.uleb128 0x4
 4073 007f 04       		.byte	0x4
 4074 0080 05       		.byte	0x5
 4075 0081 696E7400 		.ascii	"int\000"
 4076 0085 02       		.uleb128 0x2
 4077 0086 04       		.byte	0x4
 4078 0087 07       		.byte	0x7
 4079 0088 73090000 		.4byte	.LASF11
ARM GAS  /var/folders/7z/kps_xzfj7sn5l5gkyq8s9db00000gn/T//cck5P0LB.s 			page 73


 4080 008c 03       		.uleb128 0x3
 4081 008d ED0A0000 		.4byte	.LASF12
 4082 0091 03       		.byte	0x3
 4083 0092 15       		.byte	0x15
 4084 0093 2C000000 		.4byte	0x2c
 4085 0097 03       		.uleb128 0x3
 4086 0098 FC060000 		.4byte	.LASF13
 4087 009c 03       		.byte	0x3
 4088 009d 2C       		.byte	0x2c
 4089 009e 4C000000 		.4byte	0x4c
 4090 00a2 03       		.uleb128 0x3
 4091 00a3 FC080000 		.4byte	.LASF14
 4092 00a7 03       		.byte	0x3
 4093 00a8 2D       		.byte	0x2d
 4094 00a9 5E000000 		.4byte	0x5e
 4095 00ad 02       		.uleb128 0x2
 4096 00ae 04       		.byte	0x4
 4097 00af 07       		.byte	0x7
 4098 00b0 5F050000 		.4byte	.LASF15
 4099 00b4 05       		.uleb128 0x5
 4100 00b5 A2000000 		.4byte	0xa2
 4101 00b9 05       		.uleb128 0x5
 4102 00ba 97000000 		.4byte	0x97
 4103 00be 06       		.uleb128 0x6
 4104 00bf 01       		.byte	0x1
 4105 00c0 04       		.byte	0x4
 4106 00c1 F701     		.2byte	0x1f7
 4107 00c3 D4000000 		.4byte	0xd4
 4108 00c7 07       		.uleb128 0x7
 4109 00c8 7B030000 		.4byte	.LASF16
 4110 00cc 00       		.sleb128 0
 4111 00cd 08       		.uleb128 0x8
 4112 00ce 53455400 		.ascii	"SET\000"
 4113 00d2 01       		.sleb128 1
 4114 00d3 00       		.byte	0
 4115 00d4 09       		.uleb128 0x9
 4116 00d5 48000000 		.4byte	.LASF17
 4117 00d9 04       		.byte	0x4
 4118 00da F701     		.2byte	0x1f7
 4119 00dc BE000000 		.4byte	0xbe
 4120 00e0 09       		.uleb128 0x9
 4121 00e1 44030000 		.4byte	.LASF18
 4122 00e5 04       		.byte	0x4
 4123 00e6 F701     		.2byte	0x1f7
 4124 00e8 BE000000 		.4byte	0xbe
 4125 00ec 06       		.uleb128 0x6
 4126 00ed 01       		.byte	0x1
 4127 00ee 04       		.byte	0x4
 4128 00ef F901     		.2byte	0x1f9
 4129 00f1 02010000 		.4byte	0x102
 4130 00f5 07       		.uleb128 0x7
 4131 00f6 C1000000 		.4byte	.LASF19
 4132 00fa 00       		.sleb128 0
 4133 00fb 07       		.uleb128 0x7
 4134 00fc 3E020000 		.4byte	.LASF20
 4135 0100 01       		.sleb128 1
 4136 0101 00       		.byte	0
ARM GAS  /var/folders/7z/kps_xzfj7sn5l5gkyq8s9db00000gn/T//cck5P0LB.s 			page 74


 4137 0102 09       		.uleb128 0x9
 4138 0103 B1050000 		.4byte	.LASF21
 4139 0107 04       		.byte	0x4
 4140 0108 F901     		.2byte	0x1f9
 4141 010a EC000000 		.4byte	0xec
 4142 010e 06       		.uleb128 0x6
 4143 010f 01       		.byte	0x1
 4144 0110 04       		.byte	0x4
 4145 0111 FC01     		.2byte	0x1fc
 4146 0113 24010000 		.4byte	0x124
 4147 0117 07       		.uleb128 0x7
 4148 0118 68050000 		.4byte	.LASF22
 4149 011c 00       		.sleb128 0
 4150 011d 07       		.uleb128 0x7
 4151 011e FA0A0000 		.4byte	.LASF23
 4152 0122 01       		.sleb128 1
 4153 0123 00       		.byte	0
 4154 0124 09       		.uleb128 0x9
 4155 0125 CC020000 		.4byte	.LASF24
 4156 0129 04       		.byte	0x4
 4157 012a FC01     		.2byte	0x1fc
 4158 012c 0E010000 		.4byte	0x10e
 4159 0130 0A       		.uleb128 0xa
 4160 0131 A0       		.byte	0xa0
 4161 0132 04       		.byte	0x4
 4162 0133 8104     		.2byte	0x481
 4163 0135 3F030000 		.4byte	0x33f
 4164 0139 0B       		.uleb128 0xb
 4165 013a 545200   		.ascii	"TR\000"
 4166 013d 04       		.byte	0x4
 4167 013e 8304     		.2byte	0x483
 4168 0140 B4000000 		.4byte	0xb4
 4169 0144 00       		.byte	0
 4170 0145 0B       		.uleb128 0xb
 4171 0146 445200   		.ascii	"DR\000"
 4172 0149 04       		.byte	0x4
 4173 014a 8404     		.2byte	0x484
 4174 014c B4000000 		.4byte	0xb4
 4175 0150 04       		.byte	0x4
 4176 0151 0B       		.uleb128 0xb
 4177 0152 435200   		.ascii	"CR\000"
 4178 0155 04       		.byte	0x4
 4179 0156 8504     		.2byte	0x485
 4180 0158 B4000000 		.4byte	0xb4
 4181 015c 08       		.byte	0x8
 4182 015d 0B       		.uleb128 0xb
 4183 015e 49535200 		.ascii	"ISR\000"
 4184 0162 04       		.byte	0x4
 4185 0163 8604     		.2byte	0x486
 4186 0165 B4000000 		.4byte	0xb4
 4187 0169 0C       		.byte	0xc
 4188 016a 0C       		.uleb128 0xc
 4189 016b 86030000 		.4byte	.LASF25
 4190 016f 04       		.byte	0x4
 4191 0170 8704     		.2byte	0x487
 4192 0172 B4000000 		.4byte	0xb4
 4193 0176 10       		.byte	0x10
ARM GAS  /var/folders/7z/kps_xzfj7sn5l5gkyq8s9db00000gn/T//cck5P0LB.s 			page 75


 4194 0177 0C       		.uleb128 0xc
 4195 0178 27090000 		.4byte	.LASF26
 4196 017c 04       		.byte	0x4
 4197 017d 8804     		.2byte	0x488
 4198 017f B4000000 		.4byte	0xb4
 4199 0183 14       		.byte	0x14
 4200 0184 0C       		.uleb128 0xc
 4201 0185 00000000 		.4byte	.LASF27
 4202 0189 04       		.byte	0x4
 4203 018a 8904     		.2byte	0x489
 4204 018c B4000000 		.4byte	0xb4
 4205 0190 18       		.byte	0x18
 4206 0191 0C       		.uleb128 0xc
 4207 0192 22060000 		.4byte	.LASF28
 4208 0196 04       		.byte	0x4
 4209 0197 8A04     		.2byte	0x48a
 4210 0199 B4000000 		.4byte	0xb4
 4211 019d 1C       		.byte	0x1c
 4212 019e 0C       		.uleb128 0xc
 4213 019f E2080000 		.4byte	.LASF29
 4214 01a3 04       		.byte	0x4
 4215 01a4 8B04     		.2byte	0x48b
 4216 01a6 B4000000 		.4byte	0xb4
 4217 01aa 20       		.byte	0x20
 4218 01ab 0B       		.uleb128 0xb
 4219 01ac 57505200 		.ascii	"WPR\000"
 4220 01b0 04       		.byte	0x4
 4221 01b1 8C04     		.2byte	0x48c
 4222 01b3 B4000000 		.4byte	0xb4
 4223 01b7 24       		.byte	0x24
 4224 01b8 0B       		.uleb128 0xb
 4225 01b9 53535200 		.ascii	"SSR\000"
 4226 01bd 04       		.byte	0x4
 4227 01be 8D04     		.2byte	0x48d
 4228 01c0 B4000000 		.4byte	0xb4
 4229 01c4 28       		.byte	0x28
 4230 01c5 0C       		.uleb128 0xc
 4231 01c6 870A0000 		.4byte	.LASF30
 4232 01ca 04       		.byte	0x4
 4233 01cb 8E04     		.2byte	0x48e
 4234 01cd B4000000 		.4byte	0xb4
 4235 01d1 2C       		.byte	0x2c
 4236 01d2 0C       		.uleb128 0xc
 4237 01d3 B1040000 		.4byte	.LASF31
 4238 01d7 04       		.byte	0x4
 4239 01d8 8F04     		.2byte	0x48f
 4240 01da B4000000 		.4byte	0xb4
 4241 01de 30       		.byte	0x30
 4242 01df 0C       		.uleb128 0xc
 4243 01e0 81030000 		.4byte	.LASF32
 4244 01e4 04       		.byte	0x4
 4245 01e5 9004     		.2byte	0x490
 4246 01e7 B4000000 		.4byte	0xb4
 4247 01eb 34       		.byte	0x34
 4248 01ec 0C       		.uleb128 0xc
 4249 01ed A5010000 		.4byte	.LASF33
 4250 01f1 04       		.byte	0x4
ARM GAS  /var/folders/7z/kps_xzfj7sn5l5gkyq8s9db00000gn/T//cck5P0LB.s 			page 76


 4251 01f2 9104     		.2byte	0x491
 4252 01f4 B4000000 		.4byte	0xb4
 4253 01f8 38       		.byte	0x38
 4254 01f9 0C       		.uleb128 0xc
 4255 01fa D8020000 		.4byte	.LASF34
 4256 01fe 04       		.byte	0x4
 4257 01ff 9204     		.2byte	0x492
 4258 0201 B4000000 		.4byte	0xb4
 4259 0205 3C       		.byte	0x3c
 4260 0206 0C       		.uleb128 0xc
 4261 0207 7A040000 		.4byte	.LASF35
 4262 020b 04       		.byte	0x4
 4263 020c 9304     		.2byte	0x493
 4264 020e B4000000 		.4byte	0xb4
 4265 0212 40       		.byte	0x40
 4266 0213 0C       		.uleb128 0xc
 4267 0214 4D030000 		.4byte	.LASF36
 4268 0218 04       		.byte	0x4
 4269 0219 9404     		.2byte	0x494
 4270 021b B4000000 		.4byte	0xb4
 4271 021f 44       		.byte	0x44
 4272 0220 0C       		.uleb128 0xc
 4273 0221 13020000 		.4byte	.LASF37
 4274 0225 04       		.byte	0x4
 4275 0226 9504     		.2byte	0x495
 4276 0228 B4000000 		.4byte	0xb4
 4277 022c 48       		.byte	0x48
 4278 022d 0C       		.uleb128 0xc
 4279 022e 620A0000 		.4byte	.LASF38
 4280 0232 04       		.byte	0x4
 4281 0233 9604     		.2byte	0x496
 4282 0235 A2000000 		.4byte	0xa2
 4283 0239 4C       		.byte	0x4c
 4284 023a 0C       		.uleb128 0xc
 4285 023b C1080000 		.4byte	.LASF39
 4286 023f 04       		.byte	0x4
 4287 0240 9704     		.2byte	0x497
 4288 0242 B4000000 		.4byte	0xb4
 4289 0246 50       		.byte	0x50
 4290 0247 0C       		.uleb128 0xc
 4291 0248 E3090000 		.4byte	.LASF40
 4292 024c 04       		.byte	0x4
 4293 024d 9804     		.2byte	0x498
 4294 024f B4000000 		.4byte	0xb4
 4295 0253 54       		.byte	0x54
 4296 0254 0C       		.uleb128 0xc
 4297 0255 720B0000 		.4byte	.LASF41
 4298 0259 04       		.byte	0x4
 4299 025a 9904     		.2byte	0x499
 4300 025c B4000000 		.4byte	0xb4
 4301 0260 58       		.byte	0x58
 4302 0261 0C       		.uleb128 0xc
 4303 0262 99000000 		.4byte	.LASF42
 4304 0266 04       		.byte	0x4
 4305 0267 9A04     		.2byte	0x49a
 4306 0269 B4000000 		.4byte	0xb4
 4307 026d 5C       		.byte	0x5c
ARM GAS  /var/folders/7z/kps_xzfj7sn5l5gkyq8s9db00000gn/T//cck5P0LB.s 			page 77


 4308 026e 0C       		.uleb128 0xc
 4309 026f 0D020000 		.4byte	.LASF43
 4310 0273 04       		.byte	0x4
 4311 0274 9B04     		.2byte	0x49b
 4312 0276 B4000000 		.4byte	0xb4
 4313 027a 60       		.byte	0x60
 4314 027b 0C       		.uleb128 0xc
 4315 027c 9C030000 		.4byte	.LASF44
 4316 0280 04       		.byte	0x4
 4317 0281 9C04     		.2byte	0x49c
 4318 0283 B4000000 		.4byte	0xb4
 4319 0287 64       		.byte	0x64
 4320 0288 0C       		.uleb128 0xc
 4321 0289 E5040000 		.4byte	.LASF45
 4322 028d 04       		.byte	0x4
 4323 028e 9D04     		.2byte	0x49d
 4324 0290 B4000000 		.4byte	0xb4
 4325 0294 68       		.byte	0x68
 4326 0295 0C       		.uleb128 0xc
 4327 0296 39060000 		.4byte	.LASF46
 4328 029a 04       		.byte	0x4
 4329 029b 9E04     		.2byte	0x49e
 4330 029d B4000000 		.4byte	0xb4
 4331 02a1 6C       		.byte	0x6c
 4332 02a2 0C       		.uleb128 0xc
 4333 02a3 E9090000 		.4byte	.LASF47
 4334 02a7 04       		.byte	0x4
 4335 02a8 9F04     		.2byte	0x49f
 4336 02aa B4000000 		.4byte	0xb4
 4337 02ae 70       		.byte	0x70
 4338 02af 0C       		.uleb128 0xc
 4339 02b0 810A0000 		.4byte	.LASF48
 4340 02b4 04       		.byte	0x4
 4341 02b5 A004     		.2byte	0x4a0
 4342 02b7 B4000000 		.4byte	0xb4
 4343 02bb 74       		.byte	0x74
 4344 02bc 0C       		.uleb128 0xc
 4345 02bd AA040000 		.4byte	.LASF49
 4346 02c1 04       		.byte	0x4
 4347 02c2 A104     		.2byte	0x4a1
 4348 02c4 B4000000 		.4byte	0xb4
 4349 02c8 78       		.byte	0x78
 4350 02c9 0C       		.uleb128 0xc
 4351 02ca E3050000 		.4byte	.LASF50
 4352 02ce 04       		.byte	0x4
 4353 02cf A204     		.2byte	0x4a2
 4354 02d1 B4000000 		.4byte	0xb4
 4355 02d5 7C       		.byte	0x7c
 4356 02d6 0C       		.uleb128 0xc
 4357 02d7 CF080000 		.4byte	.LASF51
 4358 02db 04       		.byte	0x4
 4359 02dc A304     		.2byte	0x4a3
 4360 02de B4000000 		.4byte	0xb4
 4361 02e2 80       		.byte	0x80
 4362 02e3 0C       		.uleb128 0xc
 4363 02e4 EF090000 		.4byte	.LASF52
 4364 02e8 04       		.byte	0x4
ARM GAS  /var/folders/7z/kps_xzfj7sn5l5gkyq8s9db00000gn/T//cck5P0LB.s 			page 78


 4365 02e9 A404     		.2byte	0x4a4
 4366 02eb B4000000 		.4byte	0xb4
 4367 02ef 84       		.byte	0x84
 4368 02f0 0C       		.uleb128 0xc
 4369 02f1 A30B0000 		.4byte	.LASF53
 4370 02f5 04       		.byte	0x4
 4371 02f6 A504     		.2byte	0x4a5
 4372 02f8 B4000000 		.4byte	0xb4
 4373 02fc 88       		.byte	0x88
 4374 02fd 0C       		.uleb128 0xc
 4375 02fe C9000000 		.4byte	.LASF54
 4376 0302 04       		.byte	0x4
 4377 0303 A604     		.2byte	0x4a6
 4378 0305 B4000000 		.4byte	0xb4
 4379 0309 8C       		.byte	0x8c
 4380 030a 0C       		.uleb128 0xc
 4381 030b 37020000 		.4byte	.LASF55
 4382 030f 04       		.byte	0x4
 4383 0310 A704     		.2byte	0x4a7
 4384 0312 B4000000 		.4byte	0xb4
 4385 0316 90       		.byte	0x90
 4386 0317 0C       		.uleb128 0xc
 4387 0318 CA030000 		.4byte	.LASF56
 4388 031c 04       		.byte	0x4
 4389 031d A804     		.2byte	0x4a8
 4390 031f B4000000 		.4byte	0xb4
 4391 0323 94       		.byte	0x94
 4392 0324 0C       		.uleb128 0xc
 4393 0325 10050000 		.4byte	.LASF57
 4394 0329 04       		.byte	0x4
 4395 032a A904     		.2byte	0x4a9
 4396 032c B4000000 		.4byte	0xb4
 4397 0330 98       		.byte	0x98
 4398 0331 0C       		.uleb128 0xc
 4399 0332 96060000 		.4byte	.LASF58
 4400 0336 04       		.byte	0x4
 4401 0337 AA04     		.2byte	0x4aa
 4402 0339 B4000000 		.4byte	0xb4
 4403 033d 9C       		.byte	0x9c
 4404 033e 00       		.byte	0
 4405 033f 09       		.uleb128 0x9
 4406 0340 34010000 		.4byte	.LASF59
 4407 0344 04       		.byte	0x4
 4408 0345 AB04     		.2byte	0x4ab
 4409 0347 30010000 		.4byte	0x130
 4410 034b 0D       		.uleb128 0xd
 4411 034c 0C       		.byte	0xc
 4412 034d 05       		.byte	0x5
 4413 034e 35       		.byte	0x35
 4414 034f 78030000 		.4byte	0x378
 4415 0353 0E       		.uleb128 0xe
 4416 0354 90050000 		.4byte	.LASF60
 4417 0358 05       		.byte	0x5
 4418 0359 37       		.byte	0x37
 4419 035a A2000000 		.4byte	0xa2
 4420 035e 00       		.byte	0
 4421 035f 0E       		.uleb128 0xe
ARM GAS  /var/folders/7z/kps_xzfj7sn5l5gkyq8s9db00000gn/T//cck5P0LB.s 			page 79


 4422 0360 EB040000 		.4byte	.LASF61
 4423 0364 05       		.byte	0x5
 4424 0365 3A       		.byte	0x3a
 4425 0366 A2000000 		.4byte	0xa2
 4426 036a 04       		.byte	0x4
 4427 036b 0E       		.uleb128 0xe
 4428 036c 300A0000 		.4byte	.LASF62
 4429 0370 05       		.byte	0x5
 4430 0371 3D       		.byte	0x3d
 4431 0372 A2000000 		.4byte	0xa2
 4432 0376 08       		.byte	0x8
 4433 0377 00       		.byte	0
 4434 0378 03       		.uleb128 0x3
 4435 0379 560B0000 		.4byte	.LASF63
 4436 037d 05       		.byte	0x5
 4437 037e 3F       		.byte	0x3f
 4438 037f 4B030000 		.4byte	0x34b
 4439 0383 0D       		.uleb128 0xd
 4440 0384 04       		.byte	0x4
 4441 0385 05       		.byte	0x5
 4442 0386 44       		.byte	0x44
 4443 0387 BC030000 		.4byte	0x3bc
 4444 038b 0E       		.uleb128 0xe
 4445 038c F4010000 		.4byte	.LASF64
 4446 0390 05       		.byte	0x5
 4447 0391 46       		.byte	0x46
 4448 0392 8C000000 		.4byte	0x8c
 4449 0396 00       		.byte	0
 4450 0397 0E       		.uleb128 0xe
 4451 0398 D6080000 		.4byte	.LASF65
 4452 039c 05       		.byte	0x5
 4453 039d 4B       		.byte	0x4b
 4454 039e 8C000000 		.4byte	0x8c
 4455 03a2 01       		.byte	0x1
 4456 03a3 0E       		.uleb128 0xe
 4457 03a4 5F040000 		.4byte	.LASF66
 4458 03a8 05       		.byte	0x5
 4459 03a9 4E       		.byte	0x4e
 4460 03aa 8C000000 		.4byte	0x8c
 4461 03ae 02       		.byte	0x2
 4462 03af 0E       		.uleb128 0xe
 4463 03b0 CD090000 		.4byte	.LASF67
 4464 03b4 05       		.byte	0x5
 4465 03b5 51       		.byte	0x51
 4466 03b6 8C000000 		.4byte	0x8c
 4467 03ba 03       		.byte	0x3
 4468 03bb 00       		.byte	0
 4469 03bc 03       		.uleb128 0x3
 4470 03bd FC050000 		.4byte	.LASF68
 4471 03c1 05       		.byte	0x5
 4472 03c2 53       		.byte	0x53
 4473 03c3 83030000 		.4byte	0x383
 4474 03c7 0D       		.uleb128 0xd
 4475 03c8 04       		.byte	0x4
 4476 03c9 05       		.byte	0x5
 4477 03ca 58       		.byte	0x58
 4478 03cb 00040000 		.4byte	0x400
ARM GAS  /var/folders/7z/kps_xzfj7sn5l5gkyq8s9db00000gn/T//cck5P0LB.s 			page 80


 4479 03cf 0E       		.uleb128 0xe
 4480 03d0 E3030000 		.4byte	.LASF69
 4481 03d4 05       		.byte	0x5
 4482 03d5 5A       		.byte	0x5a
 4483 03d6 8C000000 		.4byte	0x8c
 4484 03da 00       		.byte	0
 4485 03db 0E       		.uleb128 0xe
 4486 03dc 580A0000 		.4byte	.LASF70
 4487 03e0 05       		.byte	0x5
 4488 03e1 5D       		.byte	0x5d
 4489 03e2 8C000000 		.4byte	0x8c
 4490 03e6 01       		.byte	0x1
 4491 03e7 0E       		.uleb128 0xe
 4492 03e8 DC040000 		.4byte	.LASF71
 4493 03ec 05       		.byte	0x5
 4494 03ed 60       		.byte	0x60
 4495 03ee 8C000000 		.4byte	0x8c
 4496 03f2 02       		.byte	0x2
 4497 03f3 0E       		.uleb128 0xe
 4498 03f4 C20A0000 		.4byte	.LASF72
 4499 03f8 05       		.byte	0x5
 4500 03f9 63       		.byte	0x63
 4501 03fa 8C000000 		.4byte	0x8c
 4502 03fe 03       		.byte	0x3
 4503 03ff 00       		.byte	0
 4504 0400 03       		.uleb128 0x3
 4505 0401 29060000 		.4byte	.LASF73
 4506 0405 05       		.byte	0x5
 4507 0406 65       		.byte	0x65
 4508 0407 C7030000 		.4byte	0x3c7
 4509 040b 0D       		.uleb128 0xd
 4510 040c 10       		.byte	0x10
 4511 040d 05       		.byte	0x5
 4512 040e 6A       		.byte	0x6a
 4513 040f 44040000 		.4byte	0x444
 4514 0413 0E       		.uleb128 0xe
 4515 0414 D5090000 		.4byte	.LASF74
 4516 0418 05       		.byte	0x5
 4517 0419 6C       		.byte	0x6c
 4518 041a BC030000 		.4byte	0x3bc
 4519 041e 00       		.byte	0
 4520 041f 0E       		.uleb128 0xe
 4521 0420 4C060000 		.4byte	.LASF75
 4522 0424 05       		.byte	0x5
 4523 0425 6E       		.byte	0x6e
 4524 0426 A2000000 		.4byte	0xa2
 4525 042a 04       		.byte	0x4
 4526 042b 0E       		.uleb128 0xe
 4527 042c 400A0000 		.4byte	.LASF76
 4528 0430 05       		.byte	0x5
 4529 0431 71       		.byte	0x71
 4530 0432 A2000000 		.4byte	0xa2
 4531 0436 08       		.byte	0x8
 4532 0437 0E       		.uleb128 0xe
 4533 0438 6C0A0000 		.4byte	.LASF77
 4534 043c 05       		.byte	0x5
 4535 043d 74       		.byte	0x74
ARM GAS  /var/folders/7z/kps_xzfj7sn5l5gkyq8s9db00000gn/T//cck5P0LB.s 			page 81


 4536 043e 8C000000 		.4byte	0x8c
 4537 0442 0C       		.byte	0xc
 4538 0443 00       		.byte	0
 4539 0444 03       		.uleb128 0x3
 4540 0445 16010000 		.4byte	.LASF78
 4541 0449 05       		.byte	0x5
 4542 044a 79       		.byte	0x79
 4543 044b 0B040000 		.4byte	0x40b
 4544 044f 0F       		.uleb128 0xf
 4545 0450 79010000 		.4byte	.LASF192
 4546 0454 01       		.byte	0x1
 4547 0455 2602     		.2byte	0x226
 4548 0457 24010000 		.4byte	0x124
 4549 045b 01       		.byte	0x1
 4550 045c 85040000 		.4byte	0x485
 4551 0460 10       		.uleb128 0x10
 4552 0461 35040000 		.4byte	.LASF79
 4553 0465 01       		.byte	0x1
 4554 0466 2802     		.2byte	0x228
 4555 0468 B4000000 		.4byte	0xb4
 4556 046c 10       		.uleb128 0x10
 4557 046d BB0A0000 		.4byte	.LASF80
 4558 0471 01       		.byte	0x1
 4559 0472 2902     		.2byte	0x229
 4560 0474 24010000 		.4byte	0x124
 4561 0478 10       		.uleb128 0x10
 4562 0479 2A040000 		.4byte	.LASF81
 4563 047d 01       		.byte	0x1
 4564 047e 2A02     		.2byte	0x22a
 4565 0480 A2000000 		.4byte	0xa2
 4566 0484 00       		.byte	0
 4567 0485 11       		.uleb128 0x11
 4568 0486 B9030000 		.4byte	.LASF193
 4569 048a 01       		.byte	0x1
 4570 048b 5302     		.2byte	0x253
 4571 048d 01       		.byte	0x1
 4572 048e 12       		.uleb128 0x12
 4573 048f 020B0000 		.4byte	.LASF82
 4574 0493 01       		.byte	0x1
 4575 0494 B40A     		.2byte	0xab4
 4576 0496 8C000000 		.4byte	0x8c
 4577 049a 01       		.byte	0x1
 4578 049b B8040000 		.4byte	0x4b8
 4579 049f 13       		.uleb128 0x13
 4580 04a0 E70A0000 		.4byte	.LASF84
 4581 04a4 01       		.byte	0x1
 4582 04a5 B40A     		.2byte	0xab4
 4583 04a7 8C000000 		.4byte	0x8c
 4584 04ab 14       		.uleb128 0x14
 4585 04ac 746D7000 		.ascii	"tmp\000"
 4586 04b0 01       		.byte	0x1
 4587 04b1 B60A     		.2byte	0xab6
 4588 04b3 8C000000 		.4byte	0x8c
 4589 04b7 00       		.byte	0
 4590 04b8 12       		.uleb128 0x12
 4591 04b9 CB0A0000 		.4byte	.LASF83
 4592 04bd 01       		.byte	0x1
ARM GAS  /var/folders/7z/kps_xzfj7sn5l5gkyq8s9db00000gn/T//cck5P0LB.s 			page 82


 4593 04be A20A     		.2byte	0xaa2
 4594 04c0 8C000000 		.4byte	0x8c
 4595 04c4 01       		.byte	0x1
 4596 04c5 E2040000 		.4byte	0x4e2
 4597 04c9 13       		.uleb128 0x13
 4598 04ca E70A0000 		.4byte	.LASF84
 4599 04ce 01       		.byte	0x1
 4600 04cf A20A     		.2byte	0xaa2
 4601 04d1 8C000000 		.4byte	0x8c
 4602 04d5 10       		.uleb128 0x10
 4603 04d6 C7080000 		.4byte	.LASF85
 4604 04da 01       		.byte	0x1
 4605 04db A40A     		.2byte	0xaa4
 4606 04dd 8C000000 		.4byte	0x8c
 4607 04e1 00       		.byte	0
 4608 04e2 15       		.uleb128 0x15
 4609 04e3 5B020000 		.4byte	.LASF86
 4610 04e7 01       		.byte	0x1
 4611 04e8 F501     		.2byte	0x1f5
 4612 04ea 00000000 		.4byte	.LFB113
 4613 04ee 0C000000 		.4byte	.LFE113-.LFB113
 4614 04f2 01       		.uleb128 0x1
 4615 04f3 9C       		.byte	0x9c
 4616 04f4 07050000 		.4byte	0x507
 4617 04f8 16       		.uleb128 0x16
 4618 04f9 FE010000 		.4byte	.LASF88
 4619 04fd 01       		.byte	0x1
 4620 04fe F501     		.2byte	0x1f5
 4621 0500 07050000 		.4byte	0x507
 4622 0504 01       		.uleb128 0x1
 4623 0505 50       		.byte	0x50
 4624 0506 00       		.byte	0
 4625 0507 17       		.uleb128 0x17
 4626 0508 04       		.byte	0x4
 4627 0509 78030000 		.4byte	0x378
 4628 050d 15       		.uleb128 0x15
 4629 050e 8E0A0000 		.4byte	.LASF87
 4630 0512 01       		.byte	0x1
 4631 0513 0B02     		.2byte	0x20b
 4632 0515 00000000 		.4byte	.LFB114
 4633 0519 18000000 		.4byte	.LFE114-.LFB114
 4634 051d 01       		.uleb128 0x1
 4635 051e 9C       		.byte	0x9c
 4636 051f 32050000 		.4byte	0x532
 4637 0523 16       		.uleb128 0x16
 4638 0524 07000000 		.4byte	.LASF89
 4639 0528 01       		.byte	0x1
 4640 0529 0B02     		.2byte	0x20b
 4641 052b 02010000 		.4byte	0x102
 4642 052f 01       		.uleb128 0x1
 4643 0530 50       		.byte	0x50
 4644 0531 00       		.byte	0
 4645 0532 18       		.uleb128 0x18
 4646 0533 4F040000 		.4byte	0x44f
 4647 0537 00000000 		.4byte	.LFB115
 4648 053b 44000000 		.4byte	.LFE115-.LFB115
 4649 053f 01       		.uleb128 0x1
ARM GAS  /var/folders/7z/kps_xzfj7sn5l5gkyq8s9db00000gn/T//cck5P0LB.s 			page 83


 4650 0540 9C       		.byte	0x9c
 4651 0541 79050000 		.4byte	0x579
 4652 0545 19       		.uleb128 0x19
 4653 0546 60040000 		.4byte	0x460
 4654 054a 02       		.uleb128 0x2
 4655 054b 91       		.byte	0x91
 4656 054c 7C       		.sleb128 -4
 4657 054d 1A       		.uleb128 0x1a
 4658 054e 6C040000 		.4byte	0x46c
 4659 0552 00000000 		.4byte	.LLST0
 4660 0556 1A       		.uleb128 0x1a
 4661 0557 78040000 		.4byte	0x478
 4662 055b 36000000 		.4byte	.LLST1
 4663 055f 1B       		.uleb128 0x1b
 4664 0560 2C000000 		.4byte	.LBB81
 4665 0564 08000000 		.4byte	.LBE81-.LBB81
 4666 0568 1C       		.uleb128 0x1c
 4667 0569 60040000 		.4byte	0x460
 4668 056d 1C       		.uleb128 0x1c
 4669 056e 6C040000 		.4byte	0x46c
 4670 0572 1C       		.uleb128 0x1c
 4671 0573 78040000 		.4byte	0x478
 4672 0577 00       		.byte	0
 4673 0578 00       		.byte	0
 4674 0579 1D       		.uleb128 0x1d
 4675 057a 9F000000 		.4byte	.LASF90
 4676 057e 01       		.byte	0x1
 4677 057f C701     		.2byte	0x1c7
 4678 0581 24010000 		.4byte	0x124
 4679 0585 00000000 		.4byte	.LFB112
 4680 0589 48000000 		.4byte	.LFE112-.LFB112
 4681 058d 01       		.uleb128 0x1
 4682 058e 9C       		.byte	0x9c
 4683 058f CD050000 		.4byte	0x5cd
 4684 0593 1E       		.uleb128 0x1e
 4685 0594 FE010000 		.4byte	.LASF88
 4686 0598 01       		.byte	0x1
 4687 0599 C701     		.2byte	0x1c7
 4688 059b 07050000 		.4byte	0x507
 4689 059f 6C000000 		.4byte	.LLST2
 4690 05a3 1F       		.uleb128 0x1f
 4691 05a4 BB0A0000 		.4byte	.LASF80
 4692 05a8 01       		.byte	0x1
 4693 05a9 C901     		.2byte	0x1c9
 4694 05ab 24010000 		.4byte	0x124
 4695 05af 98000000 		.4byte	.LLST3
 4696 05b3 20       		.uleb128 0x20
 4697 05b4 85040000 		.4byte	0x485
 4698 05b8 32000000 		.4byte	.LBB82
 4699 05bc 08000000 		.4byte	.LBE82-.LBB82
 4700 05c0 01       		.byte	0x1
 4701 05c1 E501     		.2byte	0x1e5
 4702 05c3 21       		.uleb128 0x21
 4703 05c4 12000000 		.4byte	.LVL10
 4704 05c8 4F040000 		.4byte	0x44f
 4705 05cc 00       		.byte	0
 4706 05cd 22       		.uleb128 0x22
ARM GAS  /var/folders/7z/kps_xzfj7sn5l5gkyq8s9db00000gn/T//cck5P0LB.s 			page 84


 4707 05ce 85040000 		.4byte	0x485
 4708 05d2 00000000 		.4byte	.LFB116
 4709 05d6 10000000 		.4byte	.LFE116-.LFB116
 4710 05da 01       		.uleb128 0x1
 4711 05db 9C       		.byte	0x9c
 4712 05dc 1D       		.uleb128 0x1d
 4713 05dd E9080000 		.4byte	.LASF91
 4714 05e1 01       		.byte	0x1
 4715 05e2 6902     		.2byte	0x269
 4716 05e4 24010000 		.4byte	0x124
 4717 05e8 00000000 		.4byte	.LFB117
 4718 05ec 44000000 		.4byte	.LFE117-.LFB117
 4719 05f0 01       		.uleb128 0x1
 4720 05f1 9C       		.byte	0x9c
 4721 05f2 26060000 		.4byte	0x626
 4722 05f6 23       		.uleb128 0x23
 4723 05f7 6B040000 		.4byte	.LASF92
 4724 05fb 01       		.byte	0x1
 4725 05fc 6B02     		.2byte	0x26b
 4726 05fe B4000000 		.4byte	0xb4
 4727 0602 02       		.uleb128 0x2
 4728 0603 91       		.byte	0x91
 4729 0604 7C       		.sleb128 -4
 4730 0605 1F       		.uleb128 0x1f
 4731 0606 BB0A0000 		.4byte	.LASF80
 4732 060a 01       		.byte	0x1
 4733 060b 6C02     		.2byte	0x26c
 4734 060d 24010000 		.4byte	0x124
 4735 0611 C3000000 		.4byte	.LLST4
 4736 0615 1F       		.uleb128 0x1f
 4737 0616 330B0000 		.4byte	.LASF93
 4738 061a 01       		.byte	0x1
 4739 061b 6D02     		.2byte	0x26d
 4740 061d A2000000 		.4byte	0xa2
 4741 0621 E9000000 		.4byte	.LLST5
 4742 0625 00       		.byte	0
 4743 0626 1D       		.uleb128 0x1d
 4744 0627 68070000 		.4byte	.LASF94
 4745 062b 01       		.byte	0x1
 4746 062c 7501     		.2byte	0x175
 4747 062e 24010000 		.4byte	0x124
 4748 0632 00000000 		.4byte	.LFB111
 4749 0636 8C000000 		.4byte	.LFE111-.LFB111
 4750 063a 01       		.uleb128 0x1
 4751 063b 9C       		.byte	0x9c
 4752 063c 82060000 		.4byte	0x682
 4753 0640 23       		.uleb128 0x23
 4754 0641 41040000 		.4byte	.LASF95
 4755 0645 01       		.byte	0x1
 4756 0646 7701     		.2byte	0x177
 4757 0648 B4000000 		.4byte	0xb4
 4758 064c 02       		.uleb128 0x2
 4759 064d 91       		.byte	0x91
 4760 064e 6C       		.sleb128 -20
 4761 064f 1F       		.uleb128 0x1f
 4762 0650 8B010000 		.4byte	.LASF96
 4763 0654 01       		.byte	0x1
ARM GAS  /var/folders/7z/kps_xzfj7sn5l5gkyq8s9db00000gn/T//cck5P0LB.s 			page 85


 4764 0655 7801     		.2byte	0x178
 4765 0657 A2000000 		.4byte	0xa2
 4766 065b 13010000 		.4byte	.LLST6
 4767 065f 1F       		.uleb128 0x1f
 4768 0660 BB0A0000 		.4byte	.LASF80
 4769 0664 01       		.byte	0x1
 4770 0665 7901     		.2byte	0x179
 4771 0667 24010000 		.4byte	0x124
 4772 066b 3D010000 		.4byte	.LLST7
 4773 066f 21       		.uleb128 0x21
 4774 0670 16000000 		.4byte	.LVL22
 4775 0674 4F040000 		.4byte	0x44f
 4776 0678 21       		.uleb128 0x21
 4777 0679 7C000000 		.4byte	.LVL29
 4778 067d DC050000 		.4byte	0x5dc
 4779 0681 00       		.byte	0
 4780 0682 1D       		.uleb128 0x1d
 4781 0683 D2060000 		.4byte	.LASF97
 4782 0687 01       		.byte	0x1
 4783 0688 9402     		.2byte	0x294
 4784 068a 24010000 		.4byte	0x124
 4785 068e 00000000 		.4byte	.LFB118
 4786 0692 40000000 		.4byte	.LFE118-.LFB118
 4787 0696 01       		.uleb128 0x1
 4788 0697 9C       		.byte	0x9c
 4789 0698 D6060000 		.4byte	0x6d6
 4790 069c 1E       		.uleb128 0x1e
 4791 069d 07000000 		.4byte	.LASF89
 4792 06a1 01       		.byte	0x1
 4793 06a2 9402     		.2byte	0x294
 4794 06a4 02010000 		.4byte	0x102
 4795 06a8 68010000 		.4byte	.LLST8
 4796 06ac 1F       		.uleb128 0x1f
 4797 06ad BB0A0000 		.4byte	.LASF80
 4798 06b1 01       		.byte	0x1
 4799 06b2 9602     		.2byte	0x296
 4800 06b4 24010000 		.4byte	0x124
 4801 06b8 89010000 		.4byte	.LLST9
 4802 06bc 20       		.uleb128 0x20
 4803 06bd 85040000 		.4byte	0x485
 4804 06c1 1E000000 		.4byte	.LBB84
 4805 06c5 0A000000 		.4byte	.LBE84-.LBB84
 4806 06c9 01       		.byte	0x1
 4807 06ca B102     		.2byte	0x2b1
 4808 06cc 21       		.uleb128 0x21
 4809 06cd 12000000 		.4byte	.LVL31
 4810 06d1 4F040000 		.4byte	0x44f
 4811 06d5 00       		.byte	0
 4812 06d6 15       		.uleb128 0x15
 4813 06d7 FC040000 		.4byte	.LASF98
 4814 06db 01       		.byte	0x1
 4815 06dc C402     		.2byte	0x2c4
 4816 06de 00000000 		.4byte	.LFB119
 4817 06e2 30000000 		.4byte	.LFE119-.LFB119
 4818 06e6 01       		.uleb128 0x1
 4819 06e7 9C       		.byte	0x9c
 4820 06e8 FB060000 		.4byte	0x6fb
ARM GAS  /var/folders/7z/kps_xzfj7sn5l5gkyq8s9db00000gn/T//cck5P0LB.s 			page 86


 4821 06ec 16       		.uleb128 0x16
 4822 06ed 07000000 		.4byte	.LASF89
 4823 06f1 01       		.byte	0x1
 4824 06f2 C402     		.2byte	0x2c4
 4825 06f4 02010000 		.4byte	0x102
 4826 06f8 01       		.uleb128 0x1
 4827 06f9 50       		.byte	0x50
 4828 06fa 00       		.byte	0
 4829 06fb 1D       		.uleb128 0x1d
 4830 06fc FD000000 		.4byte	.LASF99
 4831 0700 01       		.byte	0x1
 4832 0701 FB02     		.2byte	0x2fb
 4833 0703 24010000 		.4byte	0x124
 4834 0707 00000000 		.4byte	.LFB120
 4835 070b F0000000 		.4byte	.LFE120-.LFB120
 4836 070f 01       		.uleb128 0x1
 4837 0710 9C       		.byte	0x9c
 4838 0711 03080000 		.4byte	0x803
 4839 0715 1E       		.uleb128 0x1e
 4840 0716 80090000 		.4byte	.LASF100
 4841 071a 01       		.byte	0x1
 4842 071b FB02     		.2byte	0x2fb
 4843 071d A2000000 		.4byte	0xa2
 4844 0721 C0010000 		.4byte	.LLST10
 4845 0725 1E       		.uleb128 0x1e
 4846 0726 7C020000 		.4byte	.LASF101
 4847 072a 01       		.byte	0x1
 4848 072b FB02     		.2byte	0x2fb
 4849 072d 03080000 		.4byte	0x803
 4850 0731 13020000 		.4byte	.LLST11
 4851 0735 1F       		.uleb128 0x1f
 4852 0736 AB010000 		.4byte	.LASF102
 4853 073a 01       		.byte	0x1
 4854 073b FD02     		.2byte	0x2fd
 4855 073d A2000000 		.4byte	0xa2
 4856 0741 71020000 		.4byte	.LLST12
 4857 0745 1F       		.uleb128 0x1f
 4858 0746 BB0A0000 		.4byte	.LASF80
 4859 074a 01       		.byte	0x1
 4860 074b FE02     		.2byte	0x2fe
 4861 074d 24010000 		.4byte	0x124
 4862 0751 CA020000 		.4byte	.LLST13
 4863 0755 24       		.uleb128 0x24
 4864 0756 B8040000 		.4byte	0x4b8
 4865 075a 14000000 		.4byte	.LBB86
 4866 075e 18000000 		.4byte	.LBE86-.LBB86
 4867 0762 01       		.byte	0x1
 4868 0763 2D03     		.2byte	0x32d
 4869 0765 86070000 		.4byte	0x786
 4870 0769 25       		.uleb128 0x25
 4871 076a C9040000 		.4byte	0x4c9
 4872 076e 0C030000 		.4byte	.LLST14
 4873 0772 1B       		.uleb128 0x1b
 4874 0773 14000000 		.4byte	.LBB87
 4875 0777 18000000 		.4byte	.LBE87-.LBB87
 4876 077b 1A       		.uleb128 0x1a
 4877 077c D5040000 		.4byte	0x4d5
ARM GAS  /var/folders/7z/kps_xzfj7sn5l5gkyq8s9db00000gn/T//cck5P0LB.s 			page 87


 4878 0780 2A030000 		.4byte	.LLST15
 4879 0784 00       		.byte	0
 4880 0785 00       		.byte	0
 4881 0786 26       		.uleb128 0x26
 4882 0787 B8040000 		.4byte	0x4b8
 4883 078b 30000000 		.4byte	.LBB88
 4884 078f 00000000 		.4byte	.Ldebug_ranges0+0
 4885 0793 01       		.byte	0x1
 4886 0794 2E03     		.2byte	0x32e
 4887 0796 B3070000 		.4byte	0x7b3
 4888 079a 25       		.uleb128 0x25
 4889 079b C9040000 		.4byte	0x4c9
 4890 079f 54030000 		.4byte	.LLST16
 4891 07a3 27       		.uleb128 0x27
 4892 07a4 00000000 		.4byte	.Ldebug_ranges0+0
 4893 07a8 1A       		.uleb128 0x1a
 4894 07a9 D5040000 		.4byte	0x4d5
 4895 07ad 7D030000 		.4byte	.LLST17
 4896 07b1 00       		.byte	0
 4897 07b2 00       		.byte	0
 4898 07b3 26       		.uleb128 0x26
 4899 07b4 B8040000 		.4byte	0x4b8
 4900 07b8 4E000000 		.4byte	.LBB93
 4901 07bc 20000000 		.4byte	.Ldebug_ranges0+0x20
 4902 07c0 01       		.byte	0x1
 4903 07c1 2F03     		.2byte	0x32f
 4904 07c3 E0070000 		.4byte	0x7e0
 4905 07c7 25       		.uleb128 0x25
 4906 07c8 C9040000 		.4byte	0x4c9
 4907 07cc B3030000 		.4byte	.LLST18
 4908 07d0 27       		.uleb128 0x27
 4909 07d1 20000000 		.4byte	.Ldebug_ranges0+0x20
 4910 07d5 1A       		.uleb128 0x1a
 4911 07d6 D5040000 		.4byte	0x4d5
 4912 07da D1030000 		.4byte	.LLST19
 4913 07de 00       		.byte	0
 4914 07df 00       		.byte	0
 4915 07e0 20       		.uleb128 0x20
 4916 07e1 85040000 		.4byte	0x485
 4917 07e5 AE000000 		.4byte	.LBB97
 4918 07e9 08000000 		.4byte	.LBE97-.LBB97
 4919 07ed 01       		.byte	0x1
 4920 07ee 4203     		.2byte	0x342
 4921 07f0 21       		.uleb128 0x21
 4922 07f1 A2000000 		.4byte	.LVL64
 4923 07f5 4F040000 		.4byte	0x44f
 4924 07f9 21       		.uleb128 0x21
 4925 07fa D6000000 		.4byte	.LVL68
 4926 07fe DC050000 		.4byte	0x5dc
 4927 0802 00       		.byte	0
 4928 0803 17       		.uleb128 0x17
 4929 0804 04       		.byte	0x4
 4930 0805 BC030000 		.4byte	0x3bc
 4931 0809 15       		.uleb128 0x15
 4932 080a 17050000 		.4byte	.LASF103
 4933 080e 01       		.byte	0x1
 4934 080f 6203     		.2byte	0x362
ARM GAS  /var/folders/7z/kps_xzfj7sn5l5gkyq8s9db00000gn/T//cck5P0LB.s 			page 88


 4935 0811 00000000 		.4byte	.LFB121
 4936 0815 0C000000 		.4byte	.LFE121-.LFB121
 4937 0819 01       		.uleb128 0x1
 4938 081a 9C       		.byte	0x9c
 4939 081b 2E080000 		.4byte	0x82e
 4940 081f 16       		.uleb128 0x16
 4941 0820 7C020000 		.4byte	.LASF101
 4942 0824 01       		.byte	0x1
 4943 0825 6203     		.2byte	0x362
 4944 0827 03080000 		.4byte	0x803
 4945 082b 01       		.uleb128 0x1
 4946 082c 50       		.byte	0x50
 4947 082d 00       		.byte	0
 4948 082e 15       		.uleb128 0x15
 4949 082f E2060000 		.4byte	.LASF104
 4950 0833 01       		.byte	0x1
 4951 0834 7503     		.2byte	0x375
 4952 0836 00000000 		.4byte	.LFB122
 4953 083a 5C000000 		.4byte	.LFE122-.LFB122
 4954 083e 01       		.uleb128 0x1
 4955 083f 9C       		.byte	0x9c
 4956 0840 E6080000 		.4byte	0x8e6
 4957 0844 1E       		.uleb128 0x1e
 4958 0845 80090000 		.4byte	.LASF100
 4959 0849 01       		.byte	0x1
 4960 084a 7503     		.2byte	0x375
 4961 084c A2000000 		.4byte	0xa2
 4962 0850 FB030000 		.4byte	.LLST20
 4963 0854 16       		.uleb128 0x16
 4964 0855 7C020000 		.4byte	.LASF101
 4965 0859 01       		.byte	0x1
 4966 085a 7503     		.2byte	0x375
 4967 085c 03080000 		.4byte	0x803
 4968 0860 01       		.uleb128 0x1
 4969 0861 51       		.byte	0x51
 4970 0862 1F       		.uleb128 0x1f
 4971 0863 AB010000 		.4byte	.LASF102
 4972 0867 01       		.byte	0x1
 4973 0868 7703     		.2byte	0x377
 4974 086a A2000000 		.4byte	0xa2
 4975 086e 1C040000 		.4byte	.LLST21
 4976 0872 26       		.uleb128 0x26
 4977 0873 8E040000 		.4byte	0x48e
 4978 0877 22000000 		.4byte	.LBB100
 4979 087b 38000000 		.4byte	.Ldebug_ranges0+0x38
 4980 087f 01       		.byte	0x1
 4981 0880 8903     		.2byte	0x389
 4982 0882 9F080000 		.4byte	0x89f
 4983 0886 25       		.uleb128 0x25
 4984 0887 9F040000 		.4byte	0x49f
 4985 088b 43040000 		.4byte	.LLST22
 4986 088f 27       		.uleb128 0x27
 4987 0890 38000000 		.4byte	.Ldebug_ranges0+0x38
 4988 0894 1A       		.uleb128 0x1a
 4989 0895 AB040000 		.4byte	0x4ab
 4990 0899 62040000 		.4byte	.LLST23
 4991 089d 00       		.byte	0
ARM GAS  /var/folders/7z/kps_xzfj7sn5l5gkyq8s9db00000gn/T//cck5P0LB.s 			page 89


 4992 089e 00       		.byte	0
 4993 089f 26       		.uleb128 0x26
 4994 08a0 8E040000 		.4byte	0x48e
 4995 08a4 24000000 		.4byte	.LBB105
 4996 08a8 60000000 		.4byte	.Ldebug_ranges0+0x60
 4997 08ac 01       		.byte	0x1
 4998 08ad 8A03     		.2byte	0x38a
 4999 08af C4080000 		.4byte	0x8c4
 5000 08b3 28       		.uleb128 0x28
 5001 08b4 9F040000 		.4byte	0x49f
 5002 08b8 27       		.uleb128 0x27
 5003 08b9 60000000 		.4byte	.Ldebug_ranges0+0x60
 5004 08bd 1C       		.uleb128 0x1c
 5005 08be AB040000 		.4byte	0x4ab
 5006 08c2 00       		.byte	0
 5007 08c3 00       		.byte	0
 5008 08c4 29       		.uleb128 0x29
 5009 08c5 8E040000 		.4byte	0x48e
 5010 08c9 26000000 		.4byte	.LBB110
 5011 08cd 88000000 		.4byte	.Ldebug_ranges0+0x88
 5012 08d1 01       		.byte	0x1
 5013 08d2 8B03     		.2byte	0x38b
 5014 08d4 28       		.uleb128 0x28
 5015 08d5 9F040000 		.4byte	0x49f
 5016 08d9 27       		.uleb128 0x27
 5017 08da 88000000 		.4byte	.Ldebug_ranges0+0x88
 5018 08de 1C       		.uleb128 0x1c
 5019 08df AB040000 		.4byte	0x4ab
 5020 08e3 00       		.byte	0
 5021 08e4 00       		.byte	0
 5022 08e5 00       		.byte	0
 5023 08e6 1D       		.uleb128 0x1d
 5024 08e7 920B0000 		.4byte	.LASF105
 5025 08eb 01       		.byte	0x1
 5026 08ec 9603     		.2byte	0x396
 5027 08ee A2000000 		.4byte	0xa2
 5028 08f2 00000000 		.4byte	.LFB123
 5029 08f6 0C000000 		.4byte	.LFE123-.LFB123
 5030 08fa 01       		.uleb128 0x1
 5031 08fb 9C       		.byte	0x9c
 5032 08fc 11090000 		.4byte	0x911
 5033 0900 1F       		.uleb128 0x1f
 5034 0901 AB010000 		.4byte	.LASF102
 5035 0905 01       		.byte	0x1
 5036 0906 9803     		.2byte	0x398
 5037 0908 A2000000 		.4byte	0xa2
 5038 090c 8E040000 		.4byte	.LLST24
 5039 0910 00       		.byte	0
 5040 0911 1D       		.uleb128 0x1d
 5041 0912 45020000 		.4byte	.LASF106
 5042 0916 01       		.byte	0x1
 5043 0917 AF03     		.2byte	0x3af
 5044 0919 24010000 		.4byte	0x124
 5045 091d 00000000 		.4byte	.LFB124
 5046 0921 E0000000 		.4byte	.LFE124-.LFB124
 5047 0925 01       		.uleb128 0x1
 5048 0926 9C       		.byte	0x9c
ARM GAS  /var/folders/7z/kps_xzfj7sn5l5gkyq8s9db00000gn/T//cck5P0LB.s 			page 90


 5049 0927 190A0000 		.4byte	0xa19
 5050 092b 1E       		.uleb128 0x1e
 5051 092c 80090000 		.4byte	.LASF100
 5052 0930 01       		.byte	0x1
 5053 0931 AF03     		.2byte	0x3af
 5054 0933 A2000000 		.4byte	0xa2
 5055 0937 AD040000 		.4byte	.LLST25
 5056 093b 1E       		.uleb128 0x1e
 5057 093c 2A050000 		.4byte	.LASF107
 5058 0940 01       		.byte	0x1
 5059 0941 AF03     		.2byte	0x3af
 5060 0943 190A0000 		.4byte	0xa19
 5061 0947 E7040000 		.4byte	.LLST26
 5062 094b 1F       		.uleb128 0x1f
 5063 094c AB010000 		.4byte	.LASF102
 5064 0950 01       		.byte	0x1
 5065 0951 B103     		.2byte	0x3b1
 5066 0953 A2000000 		.4byte	0xa2
 5067 0957 2C050000 		.4byte	.LLST27
 5068 095b 1F       		.uleb128 0x1f
 5069 095c BB0A0000 		.4byte	.LASF80
 5070 0960 01       		.byte	0x1
 5071 0961 B203     		.2byte	0x3b2
 5072 0963 24010000 		.4byte	0x124
 5073 0967 6E050000 		.4byte	.LLST28
 5074 096b 24       		.uleb128 0x24
 5075 096c B8040000 		.4byte	0x4b8
 5076 0970 18000000 		.4byte	.LBB124
 5077 0974 18000000 		.4byte	.LBE124-.LBB124
 5078 0978 01       		.byte	0x1
 5079 0979 D503     		.2byte	0x3d5
 5080 097b 9C090000 		.4byte	0x99c
 5081 097f 25       		.uleb128 0x25
 5082 0980 C9040000 		.4byte	0x4c9
 5083 0984 B0050000 		.4byte	.LLST29
 5084 0988 1B       		.uleb128 0x1b
 5085 0989 18000000 		.4byte	.LBB125
 5086 098d 18000000 		.4byte	.LBE125-.LBB125
 5087 0991 1A       		.uleb128 0x1a
 5088 0992 D5040000 		.4byte	0x4d5
 5089 0996 CE050000 		.4byte	.LLST30
 5090 099a 00       		.byte	0
 5091 099b 00       		.byte	0
 5092 099c 26       		.uleb128 0x26
 5093 099d B8040000 		.4byte	0x4b8
 5094 09a1 32000000 		.4byte	.LBB126
 5095 09a5 B0000000 		.4byte	.Ldebug_ranges0+0xb0
 5096 09a9 01       		.byte	0x1
 5097 09aa D603     		.2byte	0x3d6
 5098 09ac C9090000 		.4byte	0x9c9
 5099 09b0 25       		.uleb128 0x25
 5100 09b1 C9040000 		.4byte	0x4c9
 5101 09b5 F8050000 		.4byte	.LLST31
 5102 09b9 27       		.uleb128 0x27
 5103 09ba B0000000 		.4byte	.Ldebug_ranges0+0xb0
 5104 09be 1A       		.uleb128 0x1a
 5105 09bf D5040000 		.4byte	0x4d5
ARM GAS  /var/folders/7z/kps_xzfj7sn5l5gkyq8s9db00000gn/T//cck5P0LB.s 			page 91


 5106 09c3 21060000 		.4byte	.LLST32
 5107 09c7 00       		.byte	0
 5108 09c8 00       		.byte	0
 5109 09c9 26       		.uleb128 0x26
 5110 09ca B8040000 		.4byte	0x4b8
 5111 09ce 50000000 		.4byte	.LBB131
 5112 09d2 D0000000 		.4byte	.Ldebug_ranges0+0xd0
 5113 09d6 01       		.byte	0x1
 5114 09d7 D703     		.2byte	0x3d7
 5115 09d9 F6090000 		.4byte	0x9f6
 5116 09dd 25       		.uleb128 0x25
 5117 09de C9040000 		.4byte	0x4c9
 5118 09e2 57060000 		.4byte	.LLST33
 5119 09e6 27       		.uleb128 0x27
 5120 09e7 D0000000 		.4byte	.Ldebug_ranges0+0xd0
 5121 09eb 1A       		.uleb128 0x1a
 5122 09ec D5040000 		.4byte	0x4d5
 5123 09f0 75060000 		.4byte	.LLST34
 5124 09f4 00       		.byte	0
 5125 09f5 00       		.byte	0
 5126 09f6 20       		.uleb128 0x20
 5127 09f7 85040000 		.4byte	0x485
 5128 09fb AC000000 		.4byte	.LBB135
 5129 09ff 08000000 		.4byte	.LBE135-.LBB135
 5130 0a03 01       		.byte	0x1
 5131 0a04 EA03     		.2byte	0x3ea
 5132 0a06 21       		.uleb128 0x21
 5133 0a07 A0000000 		.4byte	.LVL111
 5134 0a0b 4F040000 		.4byte	0x44f
 5135 0a0f 21       		.uleb128 0x21
 5136 0a10 C8000000 		.4byte	.LVL114
 5137 0a14 DC050000 		.4byte	0x5dc
 5138 0a18 00       		.byte	0
 5139 0a19 17       		.uleb128 0x17
 5140 0a1a 04       		.byte	0x4
 5141 0a1b 00040000 		.4byte	0x400
 5142 0a1f 15       		.uleb128 0x15
 5143 0a20 1C020000 		.4byte	.LASF108
 5144 0a24 01       		.byte	0x1
 5145 0a25 0A04     		.2byte	0x40a
 5146 0a27 00000000 		.4byte	.LFB125
 5147 0a2b 0E000000 		.4byte	.LFE125-.LFB125
 5148 0a2f 01       		.uleb128 0x1
 5149 0a30 9C       		.byte	0x9c
 5150 0a31 440A0000 		.4byte	0xa44
 5151 0a35 16       		.uleb128 0x16
 5152 0a36 2A050000 		.4byte	.LASF107
 5153 0a3a 01       		.byte	0x1
 5154 0a3b 0A04     		.2byte	0x40a
 5155 0a3d 190A0000 		.4byte	0xa19
 5156 0a41 01       		.uleb128 0x1
 5157 0a42 50       		.byte	0x50
 5158 0a43 00       		.byte	0
 5159 0a44 15       		.uleb128 0x15
 5160 0a45 53090000 		.4byte	.LASF109
 5161 0a49 01       		.byte	0x1
 5162 0a4a 1D04     		.2byte	0x41d
ARM GAS  /var/folders/7z/kps_xzfj7sn5l5gkyq8s9db00000gn/T//cck5P0LB.s 			page 92


 5163 0a4c 00000000 		.4byte	.LFB126
 5164 0a50 58000000 		.4byte	.LFE126-.LFB126
 5165 0a54 01       		.uleb128 0x1
 5166 0a55 9C       		.byte	0x9c
 5167 0a56 FC0A0000 		.4byte	0xafc
 5168 0a5a 1E       		.uleb128 0x1e
 5169 0a5b 80090000 		.4byte	.LASF100
 5170 0a5f 01       		.byte	0x1
 5171 0a60 1D04     		.2byte	0x41d
 5172 0a62 A2000000 		.4byte	0xa2
 5173 0a66 9F060000 		.4byte	.LLST35
 5174 0a6a 16       		.uleb128 0x16
 5175 0a6b 2A050000 		.4byte	.LASF107
 5176 0a6f 01       		.byte	0x1
 5177 0a70 1D04     		.2byte	0x41d
 5178 0a72 190A0000 		.4byte	0xa19
 5179 0a76 01       		.uleb128 0x1
 5180 0a77 51       		.byte	0x51
 5181 0a78 1F       		.uleb128 0x1f
 5182 0a79 AB010000 		.4byte	.LASF102
 5183 0a7d 01       		.byte	0x1
 5184 0a7e 1F04     		.2byte	0x41f
 5185 0a80 A2000000 		.4byte	0xa2
 5186 0a84 C0060000 		.4byte	.LLST36
 5187 0a88 26       		.uleb128 0x26
 5188 0a89 8E040000 		.4byte	0x48e
 5189 0a8d 20000000 		.4byte	.LBB138
 5190 0a91 E8000000 		.4byte	.Ldebug_ranges0+0xe8
 5191 0a95 01       		.byte	0x1
 5192 0a96 3204     		.2byte	0x432
 5193 0a98 AD0A0000 		.4byte	0xaad
 5194 0a9c 28       		.uleb128 0x28
 5195 0a9d 9F040000 		.4byte	0x49f
 5196 0aa1 27       		.uleb128 0x27
 5197 0aa2 E8000000 		.4byte	.Ldebug_ranges0+0xe8
 5198 0aa6 1C       		.uleb128 0x1c
 5199 0aa7 AB040000 		.4byte	0x4ab
 5200 0aab 00       		.byte	0
 5201 0aac 00       		.byte	0
 5202 0aad 26       		.uleb128 0x26
 5203 0aae 8E040000 		.4byte	0x48e
 5204 0ab2 22000000 		.4byte	.LBB143
 5205 0ab6 10010000 		.4byte	.Ldebug_ranges0+0x110
 5206 0aba 01       		.byte	0x1
 5207 0abb 3304     		.2byte	0x433
 5208 0abd D20A0000 		.4byte	0xad2
 5209 0ac1 28       		.uleb128 0x28
 5210 0ac2 9F040000 		.4byte	0x49f
 5211 0ac6 27       		.uleb128 0x27
 5212 0ac7 10010000 		.4byte	.Ldebug_ranges0+0x110
 5213 0acb 1C       		.uleb128 0x1c
 5214 0acc AB040000 		.4byte	0x4ab
 5215 0ad0 00       		.byte	0
 5216 0ad1 00       		.byte	0
 5217 0ad2 29       		.uleb128 0x29
 5218 0ad3 8E040000 		.4byte	0x48e
 5219 0ad7 24000000 		.4byte	.LBB147
ARM GAS  /var/folders/7z/kps_xzfj7sn5l5gkyq8s9db00000gn/T//cck5P0LB.s 			page 93


 5220 0adb 30010000 		.4byte	.Ldebug_ranges0+0x130
 5221 0adf 01       		.byte	0x1
 5222 0ae0 3104     		.2byte	0x431
 5223 0ae2 25       		.uleb128 0x25
 5224 0ae3 9F040000 		.4byte	0x49f
 5225 0ae7 E7060000 		.4byte	.LLST37
 5226 0aeb 27       		.uleb128 0x27
 5227 0aec 30010000 		.4byte	.Ldebug_ranges0+0x130
 5228 0af0 1A       		.uleb128 0x1a
 5229 0af1 AB040000 		.4byte	0x4ab
 5230 0af5 06070000 		.4byte	.LLST38
 5231 0af9 00       		.byte	0
 5232 0afa 00       		.byte	0
 5233 0afb 00       		.byte	0
 5234 0afc 15       		.uleb128 0x15
 5235 0afd 3F060000 		.4byte	.LASF110
 5236 0b01 01       		.byte	0x1
 5237 0b02 5904     		.2byte	0x459
 5238 0b04 00000000 		.4byte	.LFB127
 5239 0b08 0C010000 		.4byte	.LFE127-.LFB127
 5240 0b0c 01       		.uleb128 0x1
 5241 0b0d 9C       		.byte	0x9c
 5242 0b0e 050C0000 		.4byte	0xc05
 5243 0b12 1E       		.uleb128 0x1e
 5244 0b13 80090000 		.4byte	.LASF100
 5245 0b17 01       		.byte	0x1
 5246 0b18 5904     		.2byte	0x459
 5247 0b1a A2000000 		.4byte	0xa2
 5248 0b1e 32070000 		.4byte	.LLST39
 5249 0b22 16       		.uleb128 0x16
 5250 0b23 51020000 		.4byte	.LASF111
 5251 0b27 01       		.byte	0x1
 5252 0b28 5904     		.2byte	0x459
 5253 0b2a A2000000 		.4byte	0xa2
 5254 0b2e 01       		.uleb128 0x1
 5255 0b2f 51       		.byte	0x51
 5256 0b30 1E       		.uleb128 0x1e
 5257 0b31 66000000 		.4byte	.LASF112
 5258 0b35 01       		.byte	0x1
 5259 0b36 5904     		.2byte	0x459
 5260 0b38 050C0000 		.4byte	0xc05
 5261 0b3c 85070000 		.4byte	.LLST40
 5262 0b40 1F       		.uleb128 0x1f
 5263 0b41 AB010000 		.4byte	.LASF102
 5264 0b45 01       		.byte	0x1
 5265 0b46 5B04     		.2byte	0x45b
 5266 0b48 A2000000 		.4byte	0xa2
 5267 0b4c CA070000 		.4byte	.LLST41
 5268 0b50 24       		.uleb128 0x24
 5269 0b51 B8040000 		.4byte	0x4b8
 5270 0b55 14000000 		.4byte	.LBB158
 5271 0b59 1A000000 		.4byte	.LBE158-.LBB158
 5272 0b5d 01       		.byte	0x1
 5273 0b5e A504     		.2byte	0x4a5
 5274 0b60 810B0000 		.4byte	0xb81
 5275 0b64 25       		.uleb128 0x25
 5276 0b65 C9040000 		.4byte	0x4c9
ARM GAS  /var/folders/7z/kps_xzfj7sn5l5gkyq8s9db00000gn/T//cck5P0LB.s 			page 94


 5277 0b69 0C080000 		.4byte	.LLST42
 5278 0b6d 1B       		.uleb128 0x1b
 5279 0b6e 14000000 		.4byte	.LBB159
 5280 0b72 1A000000 		.4byte	.LBE159-.LBB159
 5281 0b76 1A       		.uleb128 0x1a
 5282 0b77 D5040000 		.4byte	0x4d5
 5283 0b7b 2A080000 		.4byte	.LLST43
 5284 0b7f 00       		.byte	0
 5285 0b80 00       		.byte	0
 5286 0b81 26       		.uleb128 0x26
 5287 0b82 B8040000 		.4byte	0x4b8
 5288 0b86 32000000 		.4byte	.LBB160
 5289 0b8a 50010000 		.4byte	.Ldebug_ranges0+0x150
 5290 0b8e 01       		.byte	0x1
 5291 0b8f A604     		.2byte	0x4a6
 5292 0b91 AE0B0000 		.4byte	0xbae
 5293 0b95 25       		.uleb128 0x25
 5294 0b96 C9040000 		.4byte	0x4c9
 5295 0b9a 54080000 		.4byte	.LLST44
 5296 0b9e 27       		.uleb128 0x27
 5297 0b9f 50010000 		.4byte	.Ldebug_ranges0+0x150
 5298 0ba3 1A       		.uleb128 0x1a
 5299 0ba4 D5040000 		.4byte	0x4d5
 5300 0ba8 7D080000 		.4byte	.LLST45
 5301 0bac 00       		.byte	0
 5302 0bad 00       		.byte	0
 5303 0bae 26       		.uleb128 0x26
 5304 0baf B8040000 		.4byte	0x4b8
 5305 0bb3 50000000 		.4byte	.LBB165
 5306 0bb7 70010000 		.4byte	.Ldebug_ranges0+0x170
 5307 0bbb 01       		.byte	0x1
 5308 0bbc A704     		.2byte	0x4a7
 5309 0bbe DB0B0000 		.4byte	0xbdb
 5310 0bc2 25       		.uleb128 0x25
 5311 0bc3 C9040000 		.4byte	0x4c9
 5312 0bc7 B3080000 		.4byte	.LLST46
 5313 0bcb 27       		.uleb128 0x27
 5314 0bcc 70010000 		.4byte	.Ldebug_ranges0+0x170
 5315 0bd0 1A       		.uleb128 0x1a
 5316 0bd1 D5040000 		.4byte	0x4d5
 5317 0bd5 DC080000 		.4byte	.LLST47
 5318 0bd9 00       		.byte	0
 5319 0bda 00       		.byte	0
 5320 0bdb 29       		.uleb128 0x29
 5321 0bdc B8040000 		.4byte	0x4b8
 5322 0be0 6E000000 		.4byte	.LBB170
 5323 0be4 90010000 		.4byte	.Ldebug_ranges0+0x190
 5324 0be8 01       		.byte	0x1
 5325 0be9 A904     		.2byte	0x4a9
 5326 0beb 25       		.uleb128 0x25
 5327 0bec C9040000 		.4byte	0x4c9
 5328 0bf0 12090000 		.4byte	.LLST48
 5329 0bf4 27       		.uleb128 0x27
 5330 0bf5 90010000 		.4byte	.Ldebug_ranges0+0x190
 5331 0bf9 1A       		.uleb128 0x1a
 5332 0bfa D5040000 		.4byte	0x4d5
 5333 0bfe 30090000 		.4byte	.LLST49
ARM GAS  /var/folders/7z/kps_xzfj7sn5l5gkyq8s9db00000gn/T//cck5P0LB.s 			page 95


 5334 0c02 00       		.byte	0
 5335 0c03 00       		.byte	0
 5336 0c04 00       		.byte	0
 5337 0c05 17       		.uleb128 0x17
 5338 0c06 04       		.byte	0x4
 5339 0c07 44040000 		.4byte	0x444
 5340 0c0b 15       		.uleb128 0x15
 5341 0c0c 5F090000 		.4byte	.LASF113
 5342 0c10 01       		.byte	0x1
 5343 0c11 C804     		.2byte	0x4c8
 5344 0c13 00000000 		.4byte	.LFB128
 5345 0c17 14000000 		.4byte	.LFE128-.LFB128
 5346 0c1b 01       		.uleb128 0x1
 5347 0c1c 9C       		.byte	0x9c
 5348 0c1d 300C0000 		.4byte	0xc30
 5349 0c21 16       		.uleb128 0x16
 5350 0c22 66000000 		.4byte	.LASF112
 5351 0c26 01       		.byte	0x1
 5352 0c27 C804     		.2byte	0x4c8
 5353 0c29 050C0000 		.4byte	0xc05
 5354 0c2d 01       		.uleb128 0x1
 5355 0c2e 50       		.byte	0x50
 5356 0c2f 00       		.byte	0
 5357 0c30 15       		.uleb128 0x15
 5358 0c31 DA0A0000 		.4byte	.LASF114
 5359 0c35 01       		.byte	0x1
 5360 0c36 E604     		.2byte	0x4e6
 5361 0c38 00000000 		.4byte	.LFB129
 5362 0c3c 8C000000 		.4byte	.LFE129-.LFB129
 5363 0c40 01       		.uleb128 0x1
 5364 0c41 9C       		.byte	0x9c
 5365 0c42 1D0D0000 		.4byte	0xd1d
 5366 0c46 1E       		.uleb128 0x1e
 5367 0c47 80090000 		.4byte	.LASF100
 5368 0c4b 01       		.byte	0x1
 5369 0c4c E604     		.2byte	0x4e6
 5370 0c4e A2000000 		.4byte	0xa2
 5371 0c52 5A090000 		.4byte	.LLST50
 5372 0c56 1E       		.uleb128 0x1e
 5373 0c57 51020000 		.4byte	.LASF111
 5374 0c5b 01       		.byte	0x1
 5375 0c5c E604     		.2byte	0x4e6
 5376 0c5e A2000000 		.4byte	0xa2
 5377 0c62 7B090000 		.4byte	.LLST51
 5378 0c66 16       		.uleb128 0x16
 5379 0c67 66000000 		.4byte	.LASF112
 5380 0c6b 01       		.byte	0x1
 5381 0c6c E604     		.2byte	0x4e6
 5382 0c6e 050C0000 		.4byte	0xc05
 5383 0c72 01       		.uleb128 0x1
 5384 0c73 52       		.byte	0x52
 5385 0c74 1F       		.uleb128 0x1f
 5386 0c75 AB010000 		.4byte	.LASF102
 5387 0c79 01       		.byte	0x1
 5388 0c7a E804     		.2byte	0x4e8
 5389 0c7c A2000000 		.4byte	0xa2
 5390 0c80 9C090000 		.4byte	.LLST52
ARM GAS  /var/folders/7z/kps_xzfj7sn5l5gkyq8s9db00000gn/T//cck5P0LB.s 			page 96


 5391 0c84 26       		.uleb128 0x26
 5392 0c85 8E040000 		.4byte	0x48e
 5393 0c89 44000000 		.4byte	.LBB176
 5394 0c8d A8010000 		.4byte	.Ldebug_ranges0+0x1a8
 5395 0c91 01       		.byte	0x1
 5396 0c92 0605     		.2byte	0x506
 5397 0c94 B10C0000 		.4byte	0xcb1
 5398 0c98 25       		.uleb128 0x25
 5399 0c99 9F040000 		.4byte	0x49f
 5400 0c9d BB090000 		.4byte	.LLST53
 5401 0ca1 27       		.uleb128 0x27
 5402 0ca2 A8010000 		.4byte	.Ldebug_ranges0+0x1a8
 5403 0ca6 1A       		.uleb128 0x1a
 5404 0ca7 AB040000 		.4byte	0x4ab
 5405 0cab DA090000 		.4byte	.LLST54
 5406 0caf 00       		.byte	0
 5407 0cb0 00       		.byte	0
 5408 0cb1 26       		.uleb128 0x26
 5409 0cb2 8E040000 		.4byte	0x48e
 5410 0cb6 48000000 		.4byte	.LBB180
 5411 0cba C8010000 		.4byte	.Ldebug_ranges0+0x1c8
 5412 0cbe 01       		.byte	0x1
 5413 0cbf 0805     		.2byte	0x508
 5414 0cc1 D60C0000 		.4byte	0xcd6
 5415 0cc5 28       		.uleb128 0x28
 5416 0cc6 9F040000 		.4byte	0x49f
 5417 0cca 27       		.uleb128 0x27
 5418 0ccb C8010000 		.4byte	.Ldebug_ranges0+0x1c8
 5419 0ccf 1C       		.uleb128 0x1c
 5420 0cd0 AB040000 		.4byte	0x4ab
 5421 0cd4 00       		.byte	0
 5422 0cd5 00       		.byte	0
 5423 0cd6 26       		.uleb128 0x26
 5424 0cd7 8E040000 		.4byte	0x48e
 5425 0cdb 4A000000 		.4byte	.LBB184
 5426 0cdf E8010000 		.4byte	.Ldebug_ranges0+0x1e8
 5427 0ce3 01       		.byte	0x1
 5428 0ce4 0C05     		.2byte	0x50c
 5429 0ce6 FB0C0000 		.4byte	0xcfb
 5430 0cea 28       		.uleb128 0x28
 5431 0ceb 9F040000 		.4byte	0x49f
 5432 0cef 27       		.uleb128 0x27
 5433 0cf0 E8010000 		.4byte	.Ldebug_ranges0+0x1e8
 5434 0cf4 1C       		.uleb128 0x1c
 5435 0cf5 AB040000 		.4byte	0x4ab
 5436 0cf9 00       		.byte	0
 5437 0cfa 00       		.byte	0
 5438 0cfb 29       		.uleb128 0x29
 5439 0cfc 8E040000 		.4byte	0x48e
 5440 0d00 4C000000 		.4byte	.LBB188
 5441 0d04 08020000 		.4byte	.Ldebug_ranges0+0x208
 5442 0d08 01       		.byte	0x1
 5443 0d09 0A05     		.2byte	0x50a
 5444 0d0b 28       		.uleb128 0x28
 5445 0d0c 9F040000 		.4byte	0x49f
 5446 0d10 27       		.uleb128 0x27
 5447 0d11 08020000 		.4byte	.Ldebug_ranges0+0x208
ARM GAS  /var/folders/7z/kps_xzfj7sn5l5gkyq8s9db00000gn/T//cck5P0LB.s 			page 97


 5448 0d15 1C       		.uleb128 0x1c
 5449 0d16 AB040000 		.4byte	0x4ab
 5450 0d1a 00       		.byte	0
 5451 0d1b 00       		.byte	0
 5452 0d1c 00       		.byte	0
 5453 0d1d 1D       		.uleb128 0x1d
 5454 0d1e B5060000 		.4byte	.LASF115
 5455 0d22 01       		.byte	0x1
 5456 0d23 1C05     		.2byte	0x51c
 5457 0d25 24010000 		.4byte	0x124
 5458 0d29 00000000 		.4byte	.LFB130
 5459 0d2d 5C000000 		.4byte	.LFE130-.LFB130
 5460 0d31 01       		.uleb128 0x1
 5461 0d32 9C       		.byte	0x9c
 5462 0d33 870D0000 		.4byte	0xd87
 5463 0d37 1E       		.uleb128 0x1e
 5464 0d38 51020000 		.4byte	.LASF111
 5465 0d3c 01       		.byte	0x1
 5466 0d3d 1C05     		.2byte	0x51c
 5467 0d3f A2000000 		.4byte	0xa2
 5468 0d43 060A0000 		.4byte	.LLST55
 5469 0d47 1E       		.uleb128 0x1e
 5470 0d48 07000000 		.4byte	.LASF89
 5471 0d4c 01       		.byte	0x1
 5472 0d4d 1C05     		.2byte	0x51c
 5473 0d4f 02010000 		.4byte	0x102
 5474 0d53 400A0000 		.4byte	.LLST56
 5475 0d57 23       		.uleb128 0x23
 5476 0d58 B6090000 		.4byte	.LASF116
 5477 0d5c 01       		.byte	0x1
 5478 0d5d 1E05     		.2byte	0x51e
 5479 0d5f B4000000 		.4byte	0xb4
 5480 0d63 02       		.uleb128 0x2
 5481 0d64 91       		.byte	0x91
 5482 0d65 74       		.sleb128 -12
 5483 0d66 1F       		.uleb128 0x1f
 5484 0d67 660B0000 		.4byte	.LASF117
 5485 0d6b 01       		.byte	0x1
 5486 0d6c 1F05     		.2byte	0x51f
 5487 0d6e A2000000 		.4byte	0xa2
 5488 0d72 6C0A0000 		.4byte	.LLST57
 5489 0d76 1F       		.uleb128 0x1f
 5490 0d77 BB0A0000 		.4byte	.LASF80
 5491 0d7b 01       		.byte	0x1
 5492 0d7c 2005     		.2byte	0x520
 5493 0d7e 24010000 		.4byte	0x124
 5494 0d82 A20A0000 		.4byte	.LLST58
 5495 0d86 00       		.byte	0
 5496 0d87 15       		.uleb128 0x15
 5497 0d88 80000000 		.4byte	.LASF118
 5498 0d8c 01       		.byte	0x1
 5499 0d8d 7A05     		.2byte	0x57a
 5500 0d8f 00000000 		.4byte	.LFB131
 5501 0d93 28000000 		.4byte	.LFE131-.LFB131
 5502 0d97 01       		.uleb128 0x1
 5503 0d98 9C       		.byte	0x9c
 5504 0d99 DA0D0000 		.4byte	0xdda
ARM GAS  /var/folders/7z/kps_xzfj7sn5l5gkyq8s9db00000gn/T//cck5P0LB.s 			page 98


 5505 0d9d 16       		.uleb128 0x16
 5506 0d9e 51020000 		.4byte	.LASF111
 5507 0da2 01       		.byte	0x1
 5508 0da3 7A05     		.2byte	0x57a
 5509 0da5 A2000000 		.4byte	0xa2
 5510 0da9 01       		.uleb128 0x1
 5511 0daa 50       		.byte	0x50
 5512 0dab 16       		.uleb128 0x16
 5513 0dac 56030000 		.4byte	.LASF119
 5514 0db0 01       		.byte	0x1
 5515 0db1 7A05     		.2byte	0x57a
 5516 0db3 A2000000 		.4byte	0xa2
 5517 0db7 01       		.uleb128 0x1
 5518 0db8 51       		.byte	0x51
 5519 0db9 1E       		.uleb128 0x1e
 5520 0dba 1E000000 		.4byte	.LASF120
 5521 0dbe 01       		.byte	0x1
 5522 0dbf 7A05     		.2byte	0x57a
 5523 0dc1 A2000000 		.4byte	0xa2
 5524 0dc5 D90A0000 		.4byte	.LLST59
 5525 0dc9 1F       		.uleb128 0x1f
 5526 0dca AB010000 		.4byte	.LASF102
 5527 0dce 01       		.byte	0x1
 5528 0dcf 7C05     		.2byte	0x57c
 5529 0dd1 A2000000 		.4byte	0xa2
 5530 0dd5 FA0A0000 		.4byte	.LLST60
 5531 0dd9 00       		.byte	0
 5532 0dda 1D       		.uleb128 0x1d
 5533 0ddb 0C060000 		.4byte	.LASF121
 5534 0ddf 01       		.byte	0x1
 5535 0de0 A305     		.2byte	0x5a3
 5536 0de2 A2000000 		.4byte	0xa2
 5537 0de6 00000000 		.4byte	.LFB132
 5538 0dea 18000000 		.4byte	.LFE132-.LFB132
 5539 0dee 01       		.uleb128 0x1
 5540 0def 9C       		.byte	0x9c
 5541 0df0 150E0000 		.4byte	0xe15
 5542 0df4 1E       		.uleb128 0x1e
 5543 0df5 51020000 		.4byte	.LASF111
 5544 0df9 01       		.byte	0x1
 5545 0dfa A305     		.2byte	0x5a3
 5546 0dfc A2000000 		.4byte	0xa2
 5547 0e00 2A0B0000 		.4byte	.LLST61
 5548 0e04 1F       		.uleb128 0x1f
 5549 0e05 AB010000 		.4byte	.LASF102
 5550 0e09 01       		.byte	0x1
 5551 0e0a A505     		.2byte	0x5a5
 5552 0e0c A2000000 		.4byte	0xa2
 5553 0e10 4B0B0000 		.4byte	.LLST62
 5554 0e14 00       		.byte	0
 5555 0e15 15       		.uleb128 0x15
 5556 0e16 49050000 		.4byte	.LASF122
 5557 0e1a 01       		.byte	0x1
 5558 0e1b D405     		.2byte	0x5d4
 5559 0e1d 00000000 		.4byte	.LFB133
 5560 0e21 24000000 		.4byte	.LFE133-.LFB133
 5561 0e25 01       		.uleb128 0x1
ARM GAS  /var/folders/7z/kps_xzfj7sn5l5gkyq8s9db00000gn/T//cck5P0LB.s 			page 99


 5562 0e26 9C       		.byte	0x9c
 5563 0e27 3C0E0000 		.4byte	0xe3c
 5564 0e2b 1E       		.uleb128 0x1e
 5565 0e2c C2060000 		.4byte	.LASF123
 5566 0e30 01       		.byte	0x1
 5567 0e31 D405     		.2byte	0x5d4
 5568 0e33 A2000000 		.4byte	0xa2
 5569 0e37 6A0B0000 		.4byte	.LLST63
 5570 0e3b 00       		.byte	0
 5571 0e3c 15       		.uleb128 0x15
 5572 0e3d 410B0000 		.4byte	.LASF124
 5573 0e41 01       		.byte	0x1
 5574 0e42 EF05     		.2byte	0x5ef
 5575 0e44 00000000 		.4byte	.LFB134
 5576 0e48 1C000000 		.4byte	.LFE134-.LFB134
 5577 0e4c 01       		.uleb128 0x1
 5578 0e4d 9C       		.byte	0x9c
 5579 0e4e 610E0000 		.4byte	0xe61
 5580 0e52 16       		.uleb128 0x16
 5581 0e53 EA050000 		.4byte	.LASF125
 5582 0e57 01       		.byte	0x1
 5583 0e58 EF05     		.2byte	0x5ef
 5584 0e5a A2000000 		.4byte	0xa2
 5585 0e5e 01       		.uleb128 0x1
 5586 0e5f 50       		.byte	0x50
 5587 0e60 00       		.byte	0
 5588 0e61 2A       		.uleb128 0x2a
 5589 0e62 C7040000 		.4byte	.LASF130
 5590 0e66 01       		.byte	0x1
 5591 0e67 0406     		.2byte	0x604
 5592 0e69 A2000000 		.4byte	0xa2
 5593 0e6d 00000000 		.4byte	.LFB135
 5594 0e71 0C000000 		.4byte	.LFE135-.LFB135
 5595 0e75 01       		.uleb128 0x1
 5596 0e76 9C       		.byte	0x9c
 5597 0e77 1D       		.uleb128 0x1d
 5598 0e78 97010000 		.4byte	.LASF126
 5599 0e7c 01       		.byte	0x1
 5600 0e7d 1006     		.2byte	0x610
 5601 0e7f 24010000 		.4byte	0x124
 5602 0e83 00000000 		.4byte	.LFB136
 5603 0e87 58000000 		.4byte	.LFE136-.LFB136
 5604 0e8b 01       		.uleb128 0x1
 5605 0e8c 9C       		.byte	0x9c
 5606 0e8d D10E0000 		.4byte	0xed1
 5607 0e91 1E       		.uleb128 0x1e
 5608 0e92 07000000 		.4byte	.LASF89
 5609 0e96 01       		.byte	0x1
 5610 0e97 1006     		.2byte	0x610
 5611 0e99 02010000 		.4byte	0x102
 5612 0e9d 8B0B0000 		.4byte	.LLST64
 5613 0ea1 23       		.uleb128 0x23
 5614 0ea2 41040000 		.4byte	.LASF95
 5615 0ea6 01       		.byte	0x1
 5616 0ea7 1206     		.2byte	0x612
 5617 0ea9 B4000000 		.4byte	0xb4
 5618 0ead 02       		.uleb128 0x2
ARM GAS  /var/folders/7z/kps_xzfj7sn5l5gkyq8s9db00000gn/T//cck5P0LB.s 			page 100


 5619 0eae 91       		.byte	0x91
 5620 0eaf 74       		.sleb128 -12
 5621 0eb0 1F       		.uleb128 0x1f
 5622 0eb1 8B010000 		.4byte	.LASF96
 5623 0eb5 01       		.byte	0x1
 5624 0eb6 1306     		.2byte	0x613
 5625 0eb8 A2000000 		.4byte	0xa2
 5626 0ebc C50B0000 		.4byte	.LLST65
 5627 0ec0 1F       		.uleb128 0x1f
 5628 0ec1 BB0A0000 		.4byte	.LASF80
 5629 0ec5 01       		.byte	0x1
 5630 0ec6 1406     		.2byte	0x614
 5631 0ec8 24010000 		.4byte	0x124
 5632 0ecc FB0B0000 		.4byte	.LLST66
 5633 0ed0 00       		.byte	0
 5634 0ed1 15       		.uleb128 0x15
 5635 0ed2 A8000000 		.4byte	.LASF127
 5636 0ed6 01       		.byte	0x1
 5637 0ed7 5D06     		.2byte	0x65d
 5638 0ed9 00000000 		.4byte	.LFB137
 5639 0edd 2C000000 		.4byte	.LFE137-.LFB137
 5640 0ee1 01       		.uleb128 0x1
 5641 0ee2 9C       		.byte	0x9c
 5642 0ee3 080F0000 		.4byte	0xf08
 5643 0ee7 1E       		.uleb128 0x1e
 5644 0ee8 53000000 		.4byte	.LASF128
 5645 0eec 01       		.byte	0x1
 5646 0eed 5D06     		.2byte	0x65d
 5647 0eef A2000000 		.4byte	0xa2
 5648 0ef3 320C0000 		.4byte	.LLST67
 5649 0ef7 1E       		.uleb128 0x1e
 5650 0ef8 4C040000 		.4byte	.LASF129
 5651 0efc 01       		.byte	0x1
 5652 0efd 5D06     		.2byte	0x65d
 5653 0eff A2000000 		.4byte	0xa2
 5654 0f03 530C0000 		.4byte	.LLST68
 5655 0f07 00       		.byte	0
 5656 0f08 2A       		.uleb128 0x2a
 5657 0f09 E7000000 		.4byte	.LASF131
 5658 0f0d 01       		.byte	0x1
 5659 0f0e 7806     		.2byte	0x678
 5660 0f10 A2000000 		.4byte	0xa2
 5661 0f14 00000000 		.4byte	.LFB138
 5662 0f18 10000000 		.4byte	.LFE138-.LFB138
 5663 0f1c 01       		.uleb128 0x1
 5664 0f1d 9C       		.byte	0x9c
 5665 0f1e 15       		.uleb128 0x15
 5666 0f1f B6040000 		.4byte	.LASF132
 5667 0f23 01       		.byte	0x1
 5668 0f24 9F06     		.2byte	0x69f
 5669 0f26 00000000 		.4byte	.LFB139
 5670 0f2a 2C000000 		.4byte	.LFE139-.LFB139
 5671 0f2e 01       		.uleb128 0x1
 5672 0f2f 9C       		.byte	0x9c
 5673 0f30 550F0000 		.4byte	0xf55
 5674 0f34 1E       		.uleb128 0x1e
 5675 0f35 8B040000 		.4byte	.LASF133
ARM GAS  /var/folders/7z/kps_xzfj7sn5l5gkyq8s9db00000gn/T//cck5P0LB.s 			page 101


 5676 0f39 01       		.byte	0x1
 5677 0f3a 9F06     		.2byte	0x69f
 5678 0f3c A2000000 		.4byte	0xa2
 5679 0f40 740C0000 		.4byte	.LLST69
 5680 0f44 1E       		.uleb128 0x1e
 5681 0f45 12070000 		.4byte	.LASF134
 5682 0f49 01       		.byte	0x1
 5683 0f4a 9F06     		.2byte	0x69f
 5684 0f4c A2000000 		.4byte	0xa2
 5685 0f50 950C0000 		.4byte	.LLST70
 5686 0f54 00       		.byte	0
 5687 0f55 1D       		.uleb128 0x1d
 5688 0f56 A50A0000 		.4byte	.LASF135
 5689 0f5a 01       		.byte	0x1
 5690 0f5b D506     		.2byte	0x6d5
 5691 0f5d 24010000 		.4byte	0x124
 5692 0f61 00000000 		.4byte	.LFB140
 5693 0f65 30000000 		.4byte	.LFE140-.LFB140
 5694 0f69 01       		.uleb128 0x1
 5695 0f6a 9C       		.byte	0x9c
 5696 0f6b B90F0000 		.4byte	0xfb9
 5697 0f6f 1E       		.uleb128 0x1e
 5698 0f70 EE060000 		.4byte	.LASF136
 5699 0f74 01       		.byte	0x1
 5700 0f75 D506     		.2byte	0x6d5
 5701 0f77 A2000000 		.4byte	0xa2
 5702 0f7b B60C0000 		.4byte	.LLST71
 5703 0f7f 1E       		.uleb128 0x1e
 5704 0f80 E70A0000 		.4byte	.LASF84
 5705 0f84 01       		.byte	0x1
 5706 0f85 D506     		.2byte	0x6d5
 5707 0f87 A2000000 		.4byte	0xa2
 5708 0f8b E20C0000 		.4byte	.LLST72
 5709 0f8f 1F       		.uleb128 0x1f
 5710 0f90 BB0A0000 		.4byte	.LASF80
 5711 0f94 01       		.byte	0x1
 5712 0f95 D706     		.2byte	0x6d7
 5713 0f97 24010000 		.4byte	0x124
 5714 0f9b 0E0D0000 		.4byte	.LLST73
 5715 0f9f 20       		.uleb128 0x20
 5716 0fa0 85040000 		.4byte	0x485
 5717 0fa4 1A000000 		.4byte	.LBB198
 5718 0fa8 08000000 		.4byte	.LBE198-.LBB198
 5719 0fac 01       		.byte	0x1
 5720 0fad EB06     		.2byte	0x6eb
 5721 0faf 21       		.uleb128 0x21
 5722 0fb0 14000000 		.4byte	.LVL210
 5723 0fb4 4F040000 		.4byte	0x44f
 5724 0fb8 00       		.byte	0
 5725 0fb9 1D       		.uleb128 0x1d
 5726 0fba 35000000 		.4byte	.LASF137
 5727 0fbe 01       		.byte	0x1
 5728 0fbf FE06     		.2byte	0x6fe
 5729 0fc1 24010000 		.4byte	0x124
 5730 0fc5 00000000 		.4byte	.LFB141
 5731 0fc9 40000000 		.4byte	.LFE141-.LFB141
 5732 0fcd 01       		.uleb128 0x1
ARM GAS  /var/folders/7z/kps_xzfj7sn5l5gkyq8s9db00000gn/T//cck5P0LB.s 			page 102


 5733 0fce 9C       		.byte	0x9c
 5734 0fcf 0D100000 		.4byte	0x100d
 5735 0fd3 1E       		.uleb128 0x1e
 5736 0fd4 07000000 		.4byte	.LASF89
 5737 0fd8 01       		.byte	0x1
 5738 0fd9 FE06     		.2byte	0x6fe
 5739 0fdb 02010000 		.4byte	0x102
 5740 0fdf 390D0000 		.4byte	.LLST74
 5741 0fe3 1F       		.uleb128 0x1f
 5742 0fe4 BB0A0000 		.4byte	.LASF80
 5743 0fe8 01       		.byte	0x1
 5744 0fe9 0007     		.2byte	0x700
 5745 0feb 24010000 		.4byte	0x124
 5746 0fef 5A0D0000 		.4byte	.LLST75
 5747 0ff3 20       		.uleb128 0x20
 5748 0ff4 85040000 		.4byte	0x485
 5749 0ff8 1E000000 		.4byte	.LBB200
 5750 0ffc 0A000000 		.4byte	.LBE200-.LBB200
 5751 1000 01       		.byte	0x1
 5752 1001 1B07     		.2byte	0x71b
 5753 1003 21       		.uleb128 0x21
 5754 1004 12000000 		.4byte	.LVL216
 5755 1008 4F040000 		.4byte	0x44f
 5756 100c 00       		.byte	0
 5757 100d 15       		.uleb128 0x15
 5758 100e 110B0000 		.4byte	.LASF138
 5759 1012 01       		.byte	0x1
 5760 1013 2C07     		.2byte	0x72c
 5761 1015 00000000 		.4byte	.LFB142
 5762 1019 30000000 		.4byte	.LFE142-.LFB142
 5763 101d 01       		.uleb128 0x1
 5764 101e 9C       		.byte	0x9c
 5765 101f 32100000 		.4byte	0x1032
 5766 1023 16       		.uleb128 0x16
 5767 1024 07000000 		.4byte	.LASF89
 5768 1028 01       		.byte	0x1
 5769 1029 2C07     		.2byte	0x72c
 5770 102b 02010000 		.4byte	0x102
 5771 102f 01       		.uleb128 0x1
 5772 1030 50       		.byte	0x50
 5773 1031 00       		.byte	0
 5774 1032 15       		.uleb128 0x15
 5775 1033 B2010000 		.4byte	.LASF139
 5776 1037 01       		.byte	0x1
 5777 1038 4C07     		.2byte	0x74c
 5778 103a 00000000 		.4byte	.LFB143
 5779 103e 24000000 		.4byte	.LFE143-.LFB143
 5780 1042 01       		.uleb128 0x1
 5781 1043 9C       		.byte	0x9c
 5782 1044 59100000 		.4byte	0x1059
 5783 1048 1E       		.uleb128 0x1e
 5784 1049 39050000 		.4byte	.LASF140
 5785 104d 01       		.byte	0x1
 5786 104e 4C07     		.2byte	0x74c
 5787 1050 A2000000 		.4byte	0xa2
 5788 1054 910D0000 		.4byte	.LLST76
 5789 1058 00       		.byte	0
ARM GAS  /var/folders/7z/kps_xzfj7sn5l5gkyq8s9db00000gn/T//cck5P0LB.s 			page 103


 5790 1059 1D       		.uleb128 0x1d
 5791 105a F90B0000 		.4byte	.LASF141
 5792 105e 01       		.byte	0x1
 5793 105f 7007     		.2byte	0x770
 5794 1061 24010000 		.4byte	0x124
 5795 1065 00000000 		.4byte	.LFB144
 5796 1069 4C000000 		.4byte	.LFE144-.LFB144
 5797 106d 01       		.uleb128 0x1
 5798 106e 9C       		.byte	0x9c
 5799 106f C2100000 		.4byte	0x10c2
 5800 1073 1E       		.uleb128 0x1e
 5801 1074 0E030000 		.4byte	.LASF142
 5802 1078 01       		.byte	0x1
 5803 1079 7007     		.2byte	0x770
 5804 107b A2000000 		.4byte	0xa2
 5805 107f B20D0000 		.4byte	.LLST77
 5806 1083 16       		.uleb128 0x16
 5807 1084 C8010000 		.4byte	.LASF143
 5808 1088 01       		.byte	0x1
 5809 1089 7107     		.2byte	0x771
 5810 108b A2000000 		.4byte	0xa2
 5811 108f 01       		.uleb128 0x1
 5812 1090 51       		.byte	0x51
 5813 1091 1E       		.uleb128 0x1e
 5814 1092 24030000 		.4byte	.LASF144
 5815 1096 01       		.byte	0x1
 5816 1097 7207     		.2byte	0x772
 5817 1099 A2000000 		.4byte	0xa2
 5818 109d EC0D0000 		.4byte	.LLST78
 5819 10a1 1F       		.uleb128 0x1f
 5820 10a2 BB0A0000 		.4byte	.LASF80
 5821 10a6 01       		.byte	0x1
 5822 10a7 7407     		.2byte	0x774
 5823 10a9 24010000 		.4byte	0x124
 5824 10ad 180E0000 		.4byte	.LLST79
 5825 10b1 1F       		.uleb128 0x1f
 5826 10b2 09010000 		.4byte	.LASF145
 5827 10b6 01       		.byte	0x1
 5828 10b7 7507     		.2byte	0x775
 5829 10b9 A2000000 		.4byte	0xa2
 5830 10bd 4F0E0000 		.4byte	.LLST80
 5831 10c1 00       		.byte	0
 5832 10c2 15       		.uleb128 0x15
 5833 10c3 40010000 		.4byte	.LASF146
 5834 10c7 01       		.byte	0x1
 5835 10c8 BC07     		.2byte	0x7bc
 5836 10ca 00000000 		.4byte	.LFB145
 5837 10ce 34000000 		.4byte	.LFE145-.LFB145
 5838 10d2 01       		.uleb128 0x1
 5839 10d3 9C       		.byte	0x9c
 5840 10d4 09110000 		.4byte	0x1109
 5841 10d8 1E       		.uleb128 0x1e
 5842 10d9 090A0000 		.4byte	.LASF147
 5843 10dd 01       		.byte	0x1
 5844 10de BC07     		.2byte	0x7bc
 5845 10e0 A2000000 		.4byte	0xa2
 5846 10e4 9A0E0000 		.4byte	.LLST81
ARM GAS  /var/folders/7z/kps_xzfj7sn5l5gkyq8s9db00000gn/T//cck5P0LB.s 			page 104


 5847 10e8 1E       		.uleb128 0x1e
 5848 10e9 07000000 		.4byte	.LASF89
 5849 10ed 01       		.byte	0x1
 5850 10ee BC07     		.2byte	0x7bc
 5851 10f0 02010000 		.4byte	0x102
 5852 10f4 C60E0000 		.4byte	.LLST82
 5853 10f8 1F       		.uleb128 0x1f
 5854 10f9 AB010000 		.4byte	.LASF102
 5855 10fd 01       		.byte	0x1
 5856 10fe BE07     		.2byte	0x7be
 5857 1100 A2000000 		.4byte	0xa2
 5858 1104 F20E0000 		.4byte	.LLST83
 5859 1108 00       		.byte	0
 5860 1109 15       		.uleb128 0x15
 5861 110a 8B030000 		.4byte	.LASF148
 5862 110e 01       		.byte	0x1
 5863 110f E807     		.2byte	0x7e8
 5864 1111 00000000 		.4byte	.LFB146
 5865 1115 B8000000 		.4byte	.LFE146-.LFB146
 5866 1119 01       		.uleb128 0x1
 5867 111a 9C       		.byte	0x9c
 5868 111b 78120000 		.4byte	0x1278
 5869 111f 1E       		.uleb128 0x1e
 5870 1120 80090000 		.4byte	.LASF100
 5871 1124 01       		.byte	0x1
 5872 1125 E807     		.2byte	0x7e8
 5873 1127 A2000000 		.4byte	0xa2
 5874 112b 1C0F0000 		.4byte	.LLST84
 5875 112f 1E       		.uleb128 0x1e
 5876 1130 96040000 		.4byte	.LASF149
 5877 1134 01       		.byte	0x1
 5878 1135 E807     		.2byte	0x7e8
 5879 1137 03080000 		.4byte	0x803
 5880 113b 3D0F0000 		.4byte	.LLST85
 5881 113f 16       		.uleb128 0x16
 5882 1140 3C070000 		.4byte	.LASF150
 5883 1144 01       		.byte	0x1
 5884 1145 E907     		.2byte	0x7e9
 5885 1147 190A0000 		.4byte	0xa19
 5886 114b 01       		.uleb128 0x1
 5887 114c 52       		.byte	0x52
 5888 114d 1F       		.uleb128 0x1f
 5889 114e 2F020000 		.4byte	.LASF151
 5890 1152 01       		.byte	0x1
 5891 1153 EB07     		.2byte	0x7eb
 5892 1155 A2000000 		.4byte	0xa2
 5893 1159 5E0F0000 		.4byte	.LLST86
 5894 115d 1F       		.uleb128 0x1f
 5895 115e 6E050000 		.4byte	.LASF152
 5896 1162 01       		.byte	0x1
 5897 1163 EB07     		.2byte	0x7eb
 5898 1165 A2000000 		.4byte	0xa2
 5899 1169 850F0000 		.4byte	.LLST87
 5900 116d 26       		.uleb128 0x26
 5901 116e 8E040000 		.4byte	0x48e
 5902 1172 4A000000 		.4byte	.LBB202
 5903 1176 20020000 		.4byte	.Ldebug_ranges0+0x220
ARM GAS  /var/folders/7z/kps_xzfj7sn5l5gkyq8s9db00000gn/T//cck5P0LB.s 			page 105


 5904 117a 01       		.byte	0x1
 5905 117b 0408     		.2byte	0x804
 5906 117d 9A110000 		.4byte	0x119a
 5907 1181 25       		.uleb128 0x25
 5908 1182 9F040000 		.4byte	0x49f
 5909 1186 AC0F0000 		.4byte	.LLST88
 5910 118a 27       		.uleb128 0x27
 5911 118b 20020000 		.4byte	.Ldebug_ranges0+0x220
 5912 118f 1A       		.uleb128 0x1a
 5913 1190 AB040000 		.4byte	0x4ab
 5914 1194 CB0F0000 		.4byte	.LLST89
 5915 1198 00       		.byte	0
 5916 1199 00       		.byte	0
 5917 119a 26       		.uleb128 0x26
 5918 119b 8E040000 		.4byte	0x48e
 5919 119f 4C000000 		.4byte	.LBB206
 5920 11a3 40020000 		.4byte	.Ldebug_ranges0+0x240
 5921 11a7 01       		.byte	0x1
 5922 11a8 0508     		.2byte	0x805
 5923 11aa C7110000 		.4byte	0x11c7
 5924 11ae 25       		.uleb128 0x25
 5925 11af 9F040000 		.4byte	0x49f
 5926 11b3 F70F0000 		.4byte	.LLST90
 5927 11b7 27       		.uleb128 0x27
 5928 11b8 40020000 		.4byte	.Ldebug_ranges0+0x240
 5929 11bc 1A       		.uleb128 0x1a
 5930 11bd AB040000 		.4byte	0x4ab
 5931 11c1 16100000 		.4byte	.LLST91
 5932 11c5 00       		.byte	0
 5933 11c6 00       		.byte	0
 5934 11c7 26       		.uleb128 0x26
 5935 11c8 8E040000 		.4byte	0x48e
 5936 11cc 4E000000 		.4byte	.LBB211
 5937 11d0 68020000 		.4byte	.Ldebug_ranges0+0x268
 5938 11d4 01       		.byte	0x1
 5939 11d5 0608     		.2byte	0x806
 5940 11d7 F4110000 		.4byte	0x11f4
 5941 11db 25       		.uleb128 0x25
 5942 11dc 9F040000 		.4byte	0x49f
 5943 11e0 42100000 		.4byte	.LLST92
 5944 11e4 27       		.uleb128 0x27
 5945 11e5 68020000 		.4byte	.Ldebug_ranges0+0x268
 5946 11e9 1A       		.uleb128 0x1a
 5947 11ea AB040000 		.4byte	0x4ab
 5948 11ee 61100000 		.4byte	.LLST93
 5949 11f2 00       		.byte	0
 5950 11f3 00       		.byte	0
 5951 11f4 26       		.uleb128 0x26
 5952 11f5 8E040000 		.4byte	0x48e
 5953 11f9 80000000 		.4byte	.LBB224
 5954 11fd 90020000 		.4byte	.Ldebug_ranges0+0x290
 5955 1201 01       		.byte	0x1
 5956 1202 0908     		.2byte	0x809
 5957 1204 21120000 		.4byte	0x1221
 5958 1208 25       		.uleb128 0x25
 5959 1209 9F040000 		.4byte	0x49f
 5960 120d 8D100000 		.4byte	.LLST94
ARM GAS  /var/folders/7z/kps_xzfj7sn5l5gkyq8s9db00000gn/T//cck5P0LB.s 			page 106


 5961 1211 27       		.uleb128 0x27
 5962 1212 90020000 		.4byte	.Ldebug_ranges0+0x290
 5963 1216 1A       		.uleb128 0x1a
 5964 1217 AB040000 		.4byte	0x4ab
 5965 121b AC100000 		.4byte	.LLST95
 5966 121f 00       		.byte	0
 5967 1220 00       		.byte	0
 5968 1221 26       		.uleb128 0x26
 5969 1222 8E040000 		.4byte	0x48e
 5970 1226 82000000 		.4byte	.LBB228
 5971 122a B0020000 		.4byte	.Ldebug_ranges0+0x2b0
 5972 122e 01       		.byte	0x1
 5973 122f 0A08     		.2byte	0x80a
 5974 1231 4E120000 		.4byte	0x124e
 5975 1235 25       		.uleb128 0x25
 5976 1236 9F040000 		.4byte	0x49f
 5977 123a D8100000 		.4byte	.LLST96
 5978 123e 27       		.uleb128 0x27
 5979 123f B0020000 		.4byte	.Ldebug_ranges0+0x2b0
 5980 1243 1A       		.uleb128 0x1a
 5981 1244 AB040000 		.4byte	0x4ab
 5982 1248 F7100000 		.4byte	.LLST97
 5983 124c 00       		.byte	0
 5984 124d 00       		.byte	0
 5985 124e 29       		.uleb128 0x29
 5986 124f 8E040000 		.4byte	0x48e
 5987 1253 84000000 		.4byte	.LBB232
 5988 1257 D0020000 		.4byte	.Ldebug_ranges0+0x2d0
 5989 125b 01       		.byte	0x1
 5990 125c 0B08     		.2byte	0x80b
 5991 125e 25       		.uleb128 0x25
 5992 125f 9F040000 		.4byte	0x49f
 5993 1263 23110000 		.4byte	.LLST98
 5994 1267 27       		.uleb128 0x27
 5995 1268 D0020000 		.4byte	.Ldebug_ranges0+0x2d0
 5996 126c 1A       		.uleb128 0x1a
 5997 126d AB040000 		.4byte	0x4ab
 5998 1271 42110000 		.4byte	.LLST99
 5999 1275 00       		.byte	0
 6000 1276 00       		.byte	0
 6001 1277 00       		.byte	0
 6002 1278 2A       		.uleb128 0x2a
 6003 1279 76050000 		.4byte	.LASF153
 6004 127d 01       		.byte	0x1
 6005 127e 1408     		.2byte	0x814
 6006 1280 A2000000 		.4byte	0xa2
 6007 1284 00000000 		.4byte	.LFB147
 6008 1288 0C000000 		.4byte	.LFE147-.LFB147
 6009 128c 01       		.uleb128 0x1
 6010 128d 9C       		.byte	0x9c
 6011 128e 15       		.uleb128 0x15
 6012 128f 9D060000 		.4byte	.LASF154
 6013 1293 01       		.byte	0x1
 6014 1294 3708     		.2byte	0x837
 6015 1296 00000000 		.4byte	.LFB148
 6016 129a 1C000000 		.4byte	.LFE148-.LFB148
 6017 129e 01       		.uleb128 0x1
ARM GAS  /var/folders/7z/kps_xzfj7sn5l5gkyq8s9db00000gn/T//cck5P0LB.s 			page 107


 6018 129f 9C       		.byte	0x9c
 6019 12a0 C3120000 		.4byte	0x12c3
 6020 12a4 1E       		.uleb128 0x1e
 6021 12a5 80040000 		.4byte	.LASF155
 6022 12a9 01       		.byte	0x1
 6023 12aa 3708     		.2byte	0x837
 6024 12ac A2000000 		.4byte	0xa2
 6025 12b0 6E110000 		.4byte	.LLST100
 6026 12b4 16       		.uleb128 0x16
 6027 12b5 9F050000 		.4byte	.LASF156
 6028 12b9 01       		.byte	0x1
 6029 12ba 3708     		.2byte	0x837
 6030 12bc A2000000 		.4byte	0xa2
 6031 12c0 01       		.uleb128 0x1
 6032 12c1 51       		.byte	0x51
 6033 12c2 00       		.byte	0
 6034 12c3 15       		.uleb128 0x15
 6035 12c4 51010000 		.4byte	.LASF157
 6036 12c8 01       		.byte	0x1
 6037 12c9 5108     		.2byte	0x851
 6038 12cb 00000000 		.4byte	.LFB149
 6039 12cf 18000000 		.4byte	.LFE149-.LFB149
 6040 12d3 01       		.uleb128 0x1
 6041 12d4 9C       		.byte	0x9c
 6042 12d5 F8120000 		.4byte	0x12f8
 6043 12d9 1E       		.uleb128 0x1e
 6044 12da 80040000 		.4byte	.LASF155
 6045 12de 01       		.byte	0x1
 6046 12df 5108     		.2byte	0x851
 6047 12e1 A2000000 		.4byte	0xa2
 6048 12e5 A8110000 		.4byte	.LLST101
 6049 12e9 16       		.uleb128 0x16
 6050 12ea 07000000 		.4byte	.LASF89
 6051 12ee 01       		.byte	0x1
 6052 12ef 5108     		.2byte	0x851
 6053 12f1 02010000 		.4byte	0x102
 6054 12f5 01       		.uleb128 0x1
 6055 12f6 51       		.byte	0x51
 6056 12f7 00       		.byte	0
 6057 12f8 15       		.uleb128 0x15
 6058 12f9 ED020000 		.4byte	.LASF158
 6059 12fd 01       		.byte	0x1
 6060 12fe 7008     		.2byte	0x870
 6061 1300 00000000 		.4byte	.LFB150
 6062 1304 18000000 		.4byte	.LFE150-.LFB150
 6063 1308 01       		.uleb128 0x1
 6064 1309 9C       		.byte	0x9c
 6065 130a 1F130000 		.4byte	0x131f
 6066 130e 1E       		.uleb128 0x1e
 6067 130f 42090000 		.4byte	.LASF159
 6068 1313 01       		.byte	0x1
 6069 1314 7008     		.2byte	0x870
 6070 1316 A2000000 		.4byte	0xa2
 6071 131a E2110000 		.4byte	.LLST102
 6072 131e 00       		.byte	0
 6073 131f 15       		.uleb128 0x15
 6074 1320 DC0B0000 		.4byte	.LASF160
ARM GAS  /var/folders/7z/kps_xzfj7sn5l5gkyq8s9db00000gn/T//cck5P0LB.s 			page 108


 6075 1324 01       		.byte	0x1
 6076 1325 9208     		.2byte	0x892
 6077 1327 00000000 		.4byte	.LFB151
 6078 132b 18000000 		.4byte	.LFE151-.LFB151
 6079 132f 01       		.uleb128 0x1
 6080 1330 9C       		.byte	0x9c
 6081 1331 46130000 		.4byte	0x1346
 6082 1335 1E       		.uleb128 0x1e
 6083 1336 25070000 		.4byte	.LASF161
 6084 133a 01       		.byte	0x1
 6085 133b 9208     		.2byte	0x892
 6086 133d A2000000 		.4byte	0xa2
 6087 1341 03120000 		.4byte	.LLST103
 6088 1345 00       		.byte	0
 6089 1346 15       		.uleb128 0x15
 6090 1347 7D070000 		.4byte	.LASF162
 6091 134b 01       		.byte	0x1
 6092 134c A908     		.2byte	0x8a9
 6093 134e 00000000 		.4byte	.LFB152
 6094 1352 18000000 		.4byte	.LFE152-.LFB152
 6095 1356 01       		.uleb128 0x1
 6096 1357 9C       		.byte	0x9c
 6097 1358 6D130000 		.4byte	0x136d
 6098 135c 1E       		.uleb128 0x1e
 6099 135d 8B090000 		.4byte	.LASF163
 6100 1361 01       		.byte	0x1
 6101 1362 A908     		.2byte	0x8a9
 6102 1364 A2000000 		.4byte	0xa2
 6103 1368 24120000 		.4byte	.LLST104
 6104 136c 00       		.byte	0
 6105 136d 15       		.uleb128 0x15
 6106 136e C1050000 		.4byte	.LASF164
 6107 1372 01       		.byte	0x1
 6108 1373 BD08     		.2byte	0x8bd
 6109 1375 00000000 		.4byte	.LFB153
 6110 1379 1C000000 		.4byte	.LFE153-.LFB153
 6111 137d 01       		.uleb128 0x1
 6112 137e 9C       		.byte	0x9c
 6113 137f 92130000 		.4byte	0x1392
 6114 1383 16       		.uleb128 0x16
 6115 1384 07000000 		.4byte	.LASF89
 6116 1388 01       		.byte	0x1
 6117 1389 BD08     		.2byte	0x8bd
 6118 138b 02010000 		.4byte	0x102
 6119 138f 01       		.uleb128 0x1
 6120 1390 50       		.byte	0x50
 6121 1391 00       		.byte	0
 6122 1392 15       		.uleb128 0x15
 6123 1393 BB0B0000 		.4byte	.LASF165
 6124 1397 01       		.byte	0x1
 6125 1398 D408     		.2byte	0x8d4
 6126 139a 00000000 		.4byte	.LFB154
 6127 139e 1C000000 		.4byte	.LFE154-.LFB154
 6128 13a2 01       		.uleb128 0x1
 6129 13a3 9C       		.byte	0x9c
 6130 13a4 B7130000 		.4byte	0x13b7
 6131 13a8 16       		.uleb128 0x16
ARM GAS  /var/folders/7z/kps_xzfj7sn5l5gkyq8s9db00000gn/T//cck5P0LB.s 			page 109


 6132 13a9 07000000 		.4byte	.LASF89
 6133 13ad 01       		.byte	0x1
 6134 13ae D408     		.2byte	0x8d4
 6135 13b0 02010000 		.4byte	0x102
 6136 13b4 01       		.uleb128 0x1
 6137 13b5 50       		.byte	0x50
 6138 13b6 00       		.byte	0
 6139 13b7 15       		.uleb128 0x15
 6140 13b8 50070000 		.4byte	.LASF166
 6141 13bc 01       		.byte	0x1
 6142 13bd FD08     		.2byte	0x8fd
 6143 13bf 00000000 		.4byte	.LFB155
 6144 13c3 20000000 		.4byte	.LFE155-.LFB155
 6145 13c7 01       		.uleb128 0x1
 6146 13c8 9C       		.byte	0x9c
 6147 13c9 FB130000 		.4byte	0x13fb
 6148 13cd 1E       		.uleb128 0x1e
 6149 13ce 05090000 		.4byte	.LASF167
 6150 13d2 01       		.byte	0x1
 6151 13d3 FD08     		.2byte	0x8fd
 6152 13d5 A2000000 		.4byte	0xa2
 6153 13d9 45120000 		.4byte	.LLST105
 6154 13dd 16       		.uleb128 0x16
 6155 13de F50A0000 		.4byte	.LASF168
 6156 13e2 01       		.byte	0x1
 6157 13e3 FD08     		.2byte	0x8fd
 6158 13e5 A2000000 		.4byte	0xa2
 6159 13e9 01       		.uleb128 0x1
 6160 13ea 51       		.byte	0x51
 6161 13eb 2B       		.uleb128 0x2b
 6162 13ec 746D7000 		.ascii	"tmp\000"
 6163 13f0 01       		.byte	0x1
 6164 13f1 FF08     		.2byte	0x8ff
 6165 13f3 B4000000 		.4byte	0xb4
 6166 13f7 02       		.uleb128 0x2
 6167 13f8 91       		.byte	0x91
 6168 13f9 7C       		.sleb128 -4
 6169 13fa 00       		.byte	0
 6170 13fb 1D       		.uleb128 0x1d
 6171 13fc A2030000 		.4byte	.LASF169
 6172 1400 01       		.byte	0x1
 6173 1401 1209     		.2byte	0x912
 6174 1403 A2000000 		.4byte	0xa2
 6175 1407 00000000 		.4byte	.LFB156
 6176 140b 20000000 		.4byte	.LFE156-.LFB156
 6177 140f 01       		.uleb128 0x1
 6178 1410 9C       		.byte	0x9c
 6179 1411 35140000 		.4byte	0x1435
 6180 1415 1E       		.uleb128 0x1e
 6181 1416 05090000 		.4byte	.LASF167
 6182 141a 01       		.byte	0x1
 6183 141b 1209     		.2byte	0x912
 6184 141d A2000000 		.4byte	0xa2
 6185 1421 66120000 		.4byte	.LLST106
 6186 1425 2B       		.uleb128 0x2b
 6187 1426 746D7000 		.ascii	"tmp\000"
 6188 142a 01       		.byte	0x1
ARM GAS  /var/folders/7z/kps_xzfj7sn5l5gkyq8s9db00000gn/T//cck5P0LB.s 			page 110


 6189 142b 1409     		.2byte	0x914
 6190 142d B4000000 		.4byte	0xb4
 6191 1431 02       		.uleb128 0x2
 6192 1432 91       		.byte	0x91
 6193 1433 7C       		.sleb128 -4
 6194 1434 00       		.byte	0
 6195 1435 15       		.uleb128 0x15
 6196 1436 10090000 		.4byte	.LASF170
 6197 143a 01       		.byte	0x1
 6198 143b 3A09     		.2byte	0x93a
 6199 143d 00000000 		.4byte	.LFB157
 6200 1441 18000000 		.4byte	.LFE157-.LFB157
 6201 1445 01       		.uleb128 0x1
 6202 1446 9C       		.byte	0x9c
 6203 1447 5C140000 		.4byte	0x145c
 6204 144b 1E       		.uleb128 0x1e
 6205 144c BE020000 		.4byte	.LASF171
 6206 1450 01       		.byte	0x1
 6207 1451 3A09     		.2byte	0x93a
 6208 1453 A2000000 		.4byte	0xa2
 6209 1457 87120000 		.4byte	.LLST107
 6210 145b 00       		.byte	0
 6211 145c 15       		.uleb128 0x15
 6212 145d 780B0000 		.4byte	.LASF172
 6213 1461 01       		.byte	0x1
 6214 1462 4B09     		.2byte	0x94b
 6215 1464 00000000 		.4byte	.LFB158
 6216 1468 18000000 		.4byte	.LFE158-.LFB158
 6217 146c 01       		.uleb128 0x1
 6218 146d 9C       		.byte	0x9c
 6219 146e 83140000 		.4byte	0x1483
 6220 1472 1E       		.uleb128 0x1e
 6221 1473 8B020000 		.4byte	.LASF173
 6222 1477 01       		.byte	0x1
 6223 1478 4B09     		.2byte	0x94b
 6224 147a A2000000 		.4byte	0xa2
 6225 147e A8120000 		.4byte	.LLST108
 6226 1482 00       		.byte	0
 6227 1483 15       		.uleb128 0x15
 6228 1484 1B0A0000 		.4byte	.LASF174
 6229 1488 01       		.byte	0x1
 6230 1489 5E09     		.2byte	0x95e
 6231 148b 00000000 		.4byte	.LFB159
 6232 148f 18000000 		.4byte	.LFE159-.LFB159
 6233 1493 01       		.uleb128 0x1
 6234 1494 9C       		.byte	0x9c
 6235 1495 AA140000 		.4byte	0x14aa
 6236 1499 1E       		.uleb128 0x1e
 6237 149a 240B0000 		.4byte	.LASF175
 6238 149e 01       		.byte	0x1
 6239 149f 5E09     		.2byte	0x95e
 6240 14a1 A2000000 		.4byte	0xa2
 6241 14a5 C9120000 		.4byte	.LLST109
 6242 14a9 00       		.byte	0
 6243 14aa 1D       		.uleb128 0x1d
 6244 14ab 9C020000 		.4byte	.LASF176
 6245 14af 01       		.byte	0x1
ARM GAS  /var/folders/7z/kps_xzfj7sn5l5gkyq8s9db00000gn/T//cck5P0LB.s 			page 111


 6246 14b0 8409     		.2byte	0x984
 6247 14b2 24010000 		.4byte	0x124
 6248 14b6 00000000 		.4byte	.LFB160
 6249 14ba 68000000 		.4byte	.LFE160-.LFB160
 6250 14be 01       		.uleb128 0x1
 6251 14bf 9C       		.byte	0x9c
 6252 14c0 0E150000 		.4byte	0x150e
 6253 14c4 1E       		.uleb128 0x1e
 6254 14c5 A7090000 		.4byte	.LASF177
 6255 14c9 01       		.byte	0x1
 6256 14ca 8409     		.2byte	0x984
 6257 14cc A2000000 		.4byte	0xa2
 6258 14d0 EA120000 		.4byte	.LLST110
 6259 14d4 1E       		.uleb128 0x1e
 6260 14d5 EF030000 		.4byte	.LASF178
 6261 14d9 01       		.byte	0x1
 6262 14da 8409     		.2byte	0x984
 6263 14dc A2000000 		.4byte	0xa2
 6264 14e0 3D130000 		.4byte	.LLST111
 6265 14e4 1F       		.uleb128 0x1f
 6266 14e5 BB0A0000 		.4byte	.LASF80
 6267 14e9 01       		.byte	0x1
 6268 14ea 8609     		.2byte	0x986
 6269 14ec 24010000 		.4byte	0x124
 6270 14f0 69130000 		.4byte	.LLST112
 6271 14f4 1F       		.uleb128 0x1f
 6272 14f5 B10B0000 		.4byte	.LASF179
 6273 14f9 01       		.byte	0x1
 6274 14fa 8709     		.2byte	0x987
 6275 14fc A2000000 		.4byte	0xa2
 6276 1500 B6130000 		.4byte	.LLST113
 6277 1504 21       		.uleb128 0x21
 6278 1505 4A000000 		.4byte	.LVL299
 6279 1509 DC050000 		.4byte	0x5dc
 6280 150d 00       		.byte	0
 6281 150e 15       		.uleb128 0x15
 6282 150f 6E030000 		.4byte	.LASF180
 6283 1513 01       		.byte	0x1
 6284 1514 FB09     		.2byte	0x9fb
 6285 1516 00000000 		.4byte	.LFB161
 6286 151a 4C000000 		.4byte	.LFE161-.LFB161
 6287 151e 01       		.uleb128 0x1
 6288 151f 9C       		.byte	0x9c
 6289 1520 45150000 		.4byte	0x1545
 6290 1524 1E       		.uleb128 0x1e
 6291 1525 AA0B0000 		.4byte	.LASF181
 6292 1529 01       		.byte	0x1
 6293 152a FB09     		.2byte	0x9fb
 6294 152c A2000000 		.4byte	0xa2
 6295 1530 FD130000 		.4byte	.LLST114
 6296 1534 1E       		.uleb128 0x1e
 6297 1535 07000000 		.4byte	.LASF89
 6298 1539 01       		.byte	0x1
 6299 153a FB09     		.2byte	0x9fb
 6300 153c 02010000 		.4byte	0x102
 6301 1540 37140000 		.4byte	.LLST115
 6302 1544 00       		.byte	0
ARM GAS  /var/folders/7z/kps_xzfj7sn5l5gkyq8s9db00000gn/T//cck5P0LB.s 			page 112


 6303 1545 1D       		.uleb128 0x1d
 6304 1546 6A020000 		.4byte	.LASF182
 6305 154a 01       		.byte	0x1
 6306 154b 2B0A     		.2byte	0xa2b
 6307 154d D4000000 		.4byte	0xd4
 6308 1551 00000000 		.4byte	.LFB162
 6309 1555 1C000000 		.4byte	.LFE162-.LFB162
 6310 1559 01       		.uleb128 0x1
 6311 155a 9C       		.byte	0x9c
 6312 155b 90150000 		.4byte	0x1590
 6313 155f 1E       		.uleb128 0x1e
 6314 1560 EB010000 		.4byte	.LASF183
 6315 1564 01       		.byte	0x1
 6316 1565 2B0A     		.2byte	0xa2b
 6317 1567 A2000000 		.4byte	0xa2
 6318 156b 71140000 		.4byte	.LLST116
 6319 156f 1F       		.uleb128 0x1f
 6320 1570 04030000 		.4byte	.LASF184
 6321 1574 01       		.byte	0x1
 6322 1575 2D0A     		.2byte	0xa2d
 6323 1577 D4000000 		.4byte	0xd4
 6324 157b 92140000 		.4byte	.LLST117
 6325 157f 1F       		.uleb128 0x1f
 6326 1580 AB010000 		.4byte	.LASF102
 6327 1584 01       		.byte	0x1
 6328 1585 2E0A     		.2byte	0xa2e
 6329 1587 A2000000 		.4byte	0xa2
 6330 158b D7140000 		.4byte	.LLST118
 6331 158f 00       		.byte	0
 6332 1590 15       		.uleb128 0x15
 6333 1591 10000000 		.4byte	.LASF185
 6334 1595 01       		.byte	0x1
 6335 1596 4F0A     		.2byte	0xa4f
 6336 1598 00000000 		.4byte	.LFB163
 6337 159c 1C000000 		.4byte	.LFE163-.LFB163
 6338 15a0 01       		.uleb128 0x1
 6339 15a1 9C       		.byte	0x9c
 6340 15a2 B7150000 		.4byte	0x15b7
 6341 15a6 1E       		.uleb128 0x1e
 6342 15a7 EB010000 		.4byte	.LASF183
 6343 15ab 01       		.byte	0x1
 6344 15ac 4F0A     		.2byte	0xa4f
 6345 15ae A2000000 		.4byte	0xa2
 6346 15b2 09150000 		.4byte	.LLST119
 6347 15b6 00       		.byte	0
 6348 15b7 1D       		.uleb128 0x1d
 6349 15b8 DD020000 		.4byte	.LASF186
 6350 15bc 01       		.byte	0x1
 6351 15bd 630A     		.2byte	0xa63
 6352 15bf E0000000 		.4byte	0xe0
 6353 15c3 00000000 		.4byte	.LFB164
 6354 15c7 2C000000 		.4byte	.LFE164-.LFB164
 6355 15cb 01       		.uleb128 0x1
 6356 15cc 9C       		.byte	0x9c
 6357 15cd 12160000 		.4byte	0x1612
 6358 15d1 1E       		.uleb128 0x1e
 6359 15d2 AA0B0000 		.4byte	.LASF181
ARM GAS  /var/folders/7z/kps_xzfj7sn5l5gkyq8s9db00000gn/T//cck5P0LB.s 			page 113


 6360 15d6 01       		.byte	0x1
 6361 15d7 630A     		.2byte	0xa63
 6362 15d9 A2000000 		.4byte	0xa2
 6363 15dd 2A150000 		.4byte	.LLST120
 6364 15e1 1F       		.uleb128 0x1f
 6365 15e2 04030000 		.4byte	.LASF184
 6366 15e6 01       		.byte	0x1
 6367 15e7 650A     		.2byte	0xa65
 6368 15e9 E0000000 		.4byte	0xe0
 6369 15ed 64150000 		.4byte	.LLST121
 6370 15f1 1F       		.uleb128 0x1f
 6371 15f2 AB010000 		.4byte	.LASF102
 6372 15f6 01       		.byte	0x1
 6373 15f7 660A     		.2byte	0xa66
 6374 15f9 A2000000 		.4byte	0xa2
 6375 15fd 83150000 		.4byte	.LLST122
 6376 1601 1F       		.uleb128 0x1f
 6377 1602 CF0B0000 		.4byte	.LASF187
 6378 1606 01       		.byte	0x1
 6379 1607 660A     		.2byte	0xa66
 6380 1609 A2000000 		.4byte	0xa2
 6381 160d DD150000 		.4byte	.LLST123
 6382 1611 00       		.byte	0
 6383 1612 15       		.uleb128 0x15
 6384 1613 2C090000 		.4byte	.LASF188
 6385 1617 01       		.byte	0x1
 6386 1618 8B0A     		.2byte	0xa8b
 6387 161a 00000000 		.4byte	.LFB165
 6388 161e 1C000000 		.4byte	.LFE165-.LFB165
 6389 1622 01       		.uleb128 0x1
 6390 1623 9C       		.byte	0x9c
 6391 1624 49160000 		.4byte	0x1649
 6392 1628 1E       		.uleb128 0x1e
 6393 1629 AA0B0000 		.4byte	.LASF181
 6394 162d 01       		.byte	0x1
 6395 162e 8B0A     		.2byte	0xa8b
 6396 1630 A2000000 		.4byte	0xa2
 6397 1634 0B160000 		.4byte	.LLST124
 6398 1638 1F       		.uleb128 0x1f
 6399 1639 AB010000 		.4byte	.LASF102
 6400 163d 01       		.byte	0x1
 6401 163e 8D0A     		.2byte	0xa8d
 6402 1640 A2000000 		.4byte	0xa2
 6403 1644 2C160000 		.4byte	.LLST125
 6404 1648 00       		.byte	0
 6405 1649 2C       		.uleb128 0x2c
 6406 164a 27010000 		.4byte	.LASF194
 6407 164e 06       		.byte	0x6
 6408 164f 9806     		.2byte	0x698
 6409 1651 B9000000 		.4byte	0xb9
 6410 1655 00       		.byte	0
 6411              		.section	.debug_abbrev,"",%progbits
 6412              	.Ldebug_abbrev0:
 6413 0000 01       		.uleb128 0x1
 6414 0001 11       		.uleb128 0x11
 6415 0002 01       		.byte	0x1
 6416 0003 25       		.uleb128 0x25
ARM GAS  /var/folders/7z/kps_xzfj7sn5l5gkyq8s9db00000gn/T//cck5P0LB.s 			page 114


 6417 0004 0E       		.uleb128 0xe
 6418 0005 13       		.uleb128 0x13
 6419 0006 0B       		.uleb128 0xb
 6420 0007 03       		.uleb128 0x3
 6421 0008 0E       		.uleb128 0xe
 6422 0009 1B       		.uleb128 0x1b
 6423 000a 0E       		.uleb128 0xe
 6424 000b 55       		.uleb128 0x55
 6425 000c 17       		.uleb128 0x17
 6426 000d 11       		.uleb128 0x11
 6427 000e 01       		.uleb128 0x1
 6428 000f 10       		.uleb128 0x10
 6429 0010 17       		.uleb128 0x17
 6430 0011 00       		.byte	0
 6431 0012 00       		.byte	0
 6432 0013 02       		.uleb128 0x2
 6433 0014 24       		.uleb128 0x24
 6434 0015 00       		.byte	0
 6435 0016 0B       		.uleb128 0xb
 6436 0017 0B       		.uleb128 0xb
 6437 0018 3E       		.uleb128 0x3e
 6438 0019 0B       		.uleb128 0xb
 6439 001a 03       		.uleb128 0x3
 6440 001b 0E       		.uleb128 0xe
 6441 001c 00       		.byte	0
 6442 001d 00       		.byte	0
 6443 001e 03       		.uleb128 0x3
 6444 001f 16       		.uleb128 0x16
 6445 0020 00       		.byte	0
 6446 0021 03       		.uleb128 0x3
 6447 0022 0E       		.uleb128 0xe
 6448 0023 3A       		.uleb128 0x3a
 6449 0024 0B       		.uleb128 0xb
 6450 0025 3B       		.uleb128 0x3b
 6451 0026 0B       		.uleb128 0xb
 6452 0027 49       		.uleb128 0x49
 6453 0028 13       		.uleb128 0x13
 6454 0029 00       		.byte	0
 6455 002a 00       		.byte	0
 6456 002b 04       		.uleb128 0x4
 6457 002c 24       		.uleb128 0x24
 6458 002d 00       		.byte	0
 6459 002e 0B       		.uleb128 0xb
 6460 002f 0B       		.uleb128 0xb
 6461 0030 3E       		.uleb128 0x3e
 6462 0031 0B       		.uleb128 0xb
 6463 0032 03       		.uleb128 0x3
 6464 0033 08       		.uleb128 0x8
 6465 0034 00       		.byte	0
 6466 0035 00       		.byte	0
 6467 0036 05       		.uleb128 0x5
 6468 0037 35       		.uleb128 0x35
 6469 0038 00       		.byte	0
 6470 0039 49       		.uleb128 0x49
 6471 003a 13       		.uleb128 0x13
 6472 003b 00       		.byte	0
 6473 003c 00       		.byte	0
ARM GAS  /var/folders/7z/kps_xzfj7sn5l5gkyq8s9db00000gn/T//cck5P0LB.s 			page 115


 6474 003d 06       		.uleb128 0x6
 6475 003e 04       		.uleb128 0x4
 6476 003f 01       		.byte	0x1
 6477 0040 0B       		.uleb128 0xb
 6478 0041 0B       		.uleb128 0xb
 6479 0042 3A       		.uleb128 0x3a
 6480 0043 0B       		.uleb128 0xb
 6481 0044 3B       		.uleb128 0x3b
 6482 0045 05       		.uleb128 0x5
 6483 0046 01       		.uleb128 0x1
 6484 0047 13       		.uleb128 0x13
 6485 0048 00       		.byte	0
 6486 0049 00       		.byte	0
 6487 004a 07       		.uleb128 0x7
 6488 004b 28       		.uleb128 0x28
 6489 004c 00       		.byte	0
 6490 004d 03       		.uleb128 0x3
 6491 004e 0E       		.uleb128 0xe
 6492 004f 1C       		.uleb128 0x1c
 6493 0050 0D       		.uleb128 0xd
 6494 0051 00       		.byte	0
 6495 0052 00       		.byte	0
 6496 0053 08       		.uleb128 0x8
 6497 0054 28       		.uleb128 0x28
 6498 0055 00       		.byte	0
 6499 0056 03       		.uleb128 0x3
 6500 0057 08       		.uleb128 0x8
 6501 0058 1C       		.uleb128 0x1c
 6502 0059 0D       		.uleb128 0xd
 6503 005a 00       		.byte	0
 6504 005b 00       		.byte	0
 6505 005c 09       		.uleb128 0x9
 6506 005d 16       		.uleb128 0x16
 6507 005e 00       		.byte	0
 6508 005f 03       		.uleb128 0x3
 6509 0060 0E       		.uleb128 0xe
 6510 0061 3A       		.uleb128 0x3a
 6511 0062 0B       		.uleb128 0xb
 6512 0063 3B       		.uleb128 0x3b
 6513 0064 05       		.uleb128 0x5
 6514 0065 49       		.uleb128 0x49
 6515 0066 13       		.uleb128 0x13
 6516 0067 00       		.byte	0
 6517 0068 00       		.byte	0
 6518 0069 0A       		.uleb128 0xa
 6519 006a 13       		.uleb128 0x13
 6520 006b 01       		.byte	0x1
 6521 006c 0B       		.uleb128 0xb
 6522 006d 0B       		.uleb128 0xb
 6523 006e 3A       		.uleb128 0x3a
 6524 006f 0B       		.uleb128 0xb
 6525 0070 3B       		.uleb128 0x3b
 6526 0071 05       		.uleb128 0x5
 6527 0072 01       		.uleb128 0x1
 6528 0073 13       		.uleb128 0x13
 6529 0074 00       		.byte	0
 6530 0075 00       		.byte	0
ARM GAS  /var/folders/7z/kps_xzfj7sn5l5gkyq8s9db00000gn/T//cck5P0LB.s 			page 116


 6531 0076 0B       		.uleb128 0xb
 6532 0077 0D       		.uleb128 0xd
 6533 0078 00       		.byte	0
 6534 0079 03       		.uleb128 0x3
 6535 007a 08       		.uleb128 0x8
 6536 007b 3A       		.uleb128 0x3a
 6537 007c 0B       		.uleb128 0xb
 6538 007d 3B       		.uleb128 0x3b
 6539 007e 05       		.uleb128 0x5
 6540 007f 49       		.uleb128 0x49
 6541 0080 13       		.uleb128 0x13
 6542 0081 38       		.uleb128 0x38
 6543 0082 0B       		.uleb128 0xb
 6544 0083 00       		.byte	0
 6545 0084 00       		.byte	0
 6546 0085 0C       		.uleb128 0xc
 6547 0086 0D       		.uleb128 0xd
 6548 0087 00       		.byte	0
 6549 0088 03       		.uleb128 0x3
 6550 0089 0E       		.uleb128 0xe
 6551 008a 3A       		.uleb128 0x3a
 6552 008b 0B       		.uleb128 0xb
 6553 008c 3B       		.uleb128 0x3b
 6554 008d 05       		.uleb128 0x5
 6555 008e 49       		.uleb128 0x49
 6556 008f 13       		.uleb128 0x13
 6557 0090 38       		.uleb128 0x38
 6558 0091 0B       		.uleb128 0xb
 6559 0092 00       		.byte	0
 6560 0093 00       		.byte	0
 6561 0094 0D       		.uleb128 0xd
 6562 0095 13       		.uleb128 0x13
 6563 0096 01       		.byte	0x1
 6564 0097 0B       		.uleb128 0xb
 6565 0098 0B       		.uleb128 0xb
 6566 0099 3A       		.uleb128 0x3a
 6567 009a 0B       		.uleb128 0xb
 6568 009b 3B       		.uleb128 0x3b
 6569 009c 0B       		.uleb128 0xb
 6570 009d 01       		.uleb128 0x1
 6571 009e 13       		.uleb128 0x13
 6572 009f 00       		.byte	0
 6573 00a0 00       		.byte	0
 6574 00a1 0E       		.uleb128 0xe
 6575 00a2 0D       		.uleb128 0xd
 6576 00a3 00       		.byte	0
 6577 00a4 03       		.uleb128 0x3
 6578 00a5 0E       		.uleb128 0xe
 6579 00a6 3A       		.uleb128 0x3a
 6580 00a7 0B       		.uleb128 0xb
 6581 00a8 3B       		.uleb128 0x3b
 6582 00a9 0B       		.uleb128 0xb
 6583 00aa 49       		.uleb128 0x49
 6584 00ab 13       		.uleb128 0x13
 6585 00ac 38       		.uleb128 0x38
 6586 00ad 0B       		.uleb128 0xb
 6587 00ae 00       		.byte	0
ARM GAS  /var/folders/7z/kps_xzfj7sn5l5gkyq8s9db00000gn/T//cck5P0LB.s 			page 117


 6588 00af 00       		.byte	0
 6589 00b0 0F       		.uleb128 0xf
 6590 00b1 2E       		.uleb128 0x2e
 6591 00b2 01       		.byte	0x1
 6592 00b3 3F       		.uleb128 0x3f
 6593 00b4 19       		.uleb128 0x19
 6594 00b5 03       		.uleb128 0x3
 6595 00b6 0E       		.uleb128 0xe
 6596 00b7 3A       		.uleb128 0x3a
 6597 00b8 0B       		.uleb128 0xb
 6598 00b9 3B       		.uleb128 0x3b
 6599 00ba 05       		.uleb128 0x5
 6600 00bb 27       		.uleb128 0x27
 6601 00bc 19       		.uleb128 0x19
 6602 00bd 49       		.uleb128 0x49
 6603 00be 13       		.uleb128 0x13
 6604 00bf 20       		.uleb128 0x20
 6605 00c0 0B       		.uleb128 0xb
 6606 00c1 01       		.uleb128 0x1
 6607 00c2 13       		.uleb128 0x13
 6608 00c3 00       		.byte	0
 6609 00c4 00       		.byte	0
 6610 00c5 10       		.uleb128 0x10
 6611 00c6 34       		.uleb128 0x34
 6612 00c7 00       		.byte	0
 6613 00c8 03       		.uleb128 0x3
 6614 00c9 0E       		.uleb128 0xe
 6615 00ca 3A       		.uleb128 0x3a
 6616 00cb 0B       		.uleb128 0xb
 6617 00cc 3B       		.uleb128 0x3b
 6618 00cd 05       		.uleb128 0x5
 6619 00ce 49       		.uleb128 0x49
 6620 00cf 13       		.uleb128 0x13
 6621 00d0 00       		.byte	0
 6622 00d1 00       		.byte	0
 6623 00d2 11       		.uleb128 0x11
 6624 00d3 2E       		.uleb128 0x2e
 6625 00d4 00       		.byte	0
 6626 00d5 3F       		.uleb128 0x3f
 6627 00d6 19       		.uleb128 0x19
 6628 00d7 03       		.uleb128 0x3
 6629 00d8 0E       		.uleb128 0xe
 6630 00d9 3A       		.uleb128 0x3a
 6631 00da 0B       		.uleb128 0xb
 6632 00db 3B       		.uleb128 0x3b
 6633 00dc 05       		.uleb128 0x5
 6634 00dd 27       		.uleb128 0x27
 6635 00de 19       		.uleb128 0x19
 6636 00df 20       		.uleb128 0x20
 6637 00e0 0B       		.uleb128 0xb
 6638 00e1 00       		.byte	0
 6639 00e2 00       		.byte	0
 6640 00e3 12       		.uleb128 0x12
 6641 00e4 2E       		.uleb128 0x2e
 6642 00e5 01       		.byte	0x1
 6643 00e6 03       		.uleb128 0x3
 6644 00e7 0E       		.uleb128 0xe
ARM GAS  /var/folders/7z/kps_xzfj7sn5l5gkyq8s9db00000gn/T//cck5P0LB.s 			page 118


 6645 00e8 3A       		.uleb128 0x3a
 6646 00e9 0B       		.uleb128 0xb
 6647 00ea 3B       		.uleb128 0x3b
 6648 00eb 05       		.uleb128 0x5
 6649 00ec 27       		.uleb128 0x27
 6650 00ed 19       		.uleb128 0x19
 6651 00ee 49       		.uleb128 0x49
 6652 00ef 13       		.uleb128 0x13
 6653 00f0 20       		.uleb128 0x20
 6654 00f1 0B       		.uleb128 0xb
 6655 00f2 01       		.uleb128 0x1
 6656 00f3 13       		.uleb128 0x13
 6657 00f4 00       		.byte	0
 6658 00f5 00       		.byte	0
 6659 00f6 13       		.uleb128 0x13
 6660 00f7 05       		.uleb128 0x5
 6661 00f8 00       		.byte	0
 6662 00f9 03       		.uleb128 0x3
 6663 00fa 0E       		.uleb128 0xe
 6664 00fb 3A       		.uleb128 0x3a
 6665 00fc 0B       		.uleb128 0xb
 6666 00fd 3B       		.uleb128 0x3b
 6667 00fe 05       		.uleb128 0x5
 6668 00ff 49       		.uleb128 0x49
 6669 0100 13       		.uleb128 0x13
 6670 0101 00       		.byte	0
 6671 0102 00       		.byte	0
 6672 0103 14       		.uleb128 0x14
 6673 0104 34       		.uleb128 0x34
 6674 0105 00       		.byte	0
 6675 0106 03       		.uleb128 0x3
 6676 0107 08       		.uleb128 0x8
 6677 0108 3A       		.uleb128 0x3a
 6678 0109 0B       		.uleb128 0xb
 6679 010a 3B       		.uleb128 0x3b
 6680 010b 05       		.uleb128 0x5
 6681 010c 49       		.uleb128 0x49
 6682 010d 13       		.uleb128 0x13
 6683 010e 00       		.byte	0
 6684 010f 00       		.byte	0
 6685 0110 15       		.uleb128 0x15
 6686 0111 2E       		.uleb128 0x2e
 6687 0112 01       		.byte	0x1
 6688 0113 3F       		.uleb128 0x3f
 6689 0114 19       		.uleb128 0x19
 6690 0115 03       		.uleb128 0x3
 6691 0116 0E       		.uleb128 0xe
 6692 0117 3A       		.uleb128 0x3a
 6693 0118 0B       		.uleb128 0xb
 6694 0119 3B       		.uleb128 0x3b
 6695 011a 05       		.uleb128 0x5
 6696 011b 27       		.uleb128 0x27
 6697 011c 19       		.uleb128 0x19
 6698 011d 11       		.uleb128 0x11
 6699 011e 01       		.uleb128 0x1
 6700 011f 12       		.uleb128 0x12
 6701 0120 06       		.uleb128 0x6
ARM GAS  /var/folders/7z/kps_xzfj7sn5l5gkyq8s9db00000gn/T//cck5P0LB.s 			page 119


 6702 0121 40       		.uleb128 0x40
 6703 0122 18       		.uleb128 0x18
 6704 0123 9742     		.uleb128 0x2117
 6705 0125 19       		.uleb128 0x19
 6706 0126 01       		.uleb128 0x1
 6707 0127 13       		.uleb128 0x13
 6708 0128 00       		.byte	0
 6709 0129 00       		.byte	0
 6710 012a 16       		.uleb128 0x16
 6711 012b 05       		.uleb128 0x5
 6712 012c 00       		.byte	0
 6713 012d 03       		.uleb128 0x3
 6714 012e 0E       		.uleb128 0xe
 6715 012f 3A       		.uleb128 0x3a
 6716 0130 0B       		.uleb128 0xb
 6717 0131 3B       		.uleb128 0x3b
 6718 0132 05       		.uleb128 0x5
 6719 0133 49       		.uleb128 0x49
 6720 0134 13       		.uleb128 0x13
 6721 0135 02       		.uleb128 0x2
 6722 0136 18       		.uleb128 0x18
 6723 0137 00       		.byte	0
 6724 0138 00       		.byte	0
 6725 0139 17       		.uleb128 0x17
 6726 013a 0F       		.uleb128 0xf
 6727 013b 00       		.byte	0
 6728 013c 0B       		.uleb128 0xb
 6729 013d 0B       		.uleb128 0xb
 6730 013e 49       		.uleb128 0x49
 6731 013f 13       		.uleb128 0x13
 6732 0140 00       		.byte	0
 6733 0141 00       		.byte	0
 6734 0142 18       		.uleb128 0x18
 6735 0143 2E       		.uleb128 0x2e
 6736 0144 01       		.byte	0x1
 6737 0145 31       		.uleb128 0x31
 6738 0146 13       		.uleb128 0x13
 6739 0147 11       		.uleb128 0x11
 6740 0148 01       		.uleb128 0x1
 6741 0149 12       		.uleb128 0x12
 6742 014a 06       		.uleb128 0x6
 6743 014b 40       		.uleb128 0x40
 6744 014c 18       		.uleb128 0x18
 6745 014d 9742     		.uleb128 0x2117
 6746 014f 19       		.uleb128 0x19
 6747 0150 01       		.uleb128 0x1
 6748 0151 13       		.uleb128 0x13
 6749 0152 00       		.byte	0
 6750 0153 00       		.byte	0
 6751 0154 19       		.uleb128 0x19
 6752 0155 34       		.uleb128 0x34
 6753 0156 00       		.byte	0
 6754 0157 31       		.uleb128 0x31
 6755 0158 13       		.uleb128 0x13
 6756 0159 02       		.uleb128 0x2
 6757 015a 18       		.uleb128 0x18
 6758 015b 00       		.byte	0
ARM GAS  /var/folders/7z/kps_xzfj7sn5l5gkyq8s9db00000gn/T//cck5P0LB.s 			page 120


 6759 015c 00       		.byte	0
 6760 015d 1A       		.uleb128 0x1a
 6761 015e 34       		.uleb128 0x34
 6762 015f 00       		.byte	0
 6763 0160 31       		.uleb128 0x31
 6764 0161 13       		.uleb128 0x13
 6765 0162 02       		.uleb128 0x2
 6766 0163 17       		.uleb128 0x17
 6767 0164 00       		.byte	0
 6768 0165 00       		.byte	0
 6769 0166 1B       		.uleb128 0x1b
 6770 0167 0B       		.uleb128 0xb
 6771 0168 01       		.byte	0x1
 6772 0169 11       		.uleb128 0x11
 6773 016a 01       		.uleb128 0x1
 6774 016b 12       		.uleb128 0x12
 6775 016c 06       		.uleb128 0x6
 6776 016d 00       		.byte	0
 6777 016e 00       		.byte	0
 6778 016f 1C       		.uleb128 0x1c
 6779 0170 34       		.uleb128 0x34
 6780 0171 00       		.byte	0
 6781 0172 31       		.uleb128 0x31
 6782 0173 13       		.uleb128 0x13
 6783 0174 00       		.byte	0
 6784 0175 00       		.byte	0
 6785 0176 1D       		.uleb128 0x1d
 6786 0177 2E       		.uleb128 0x2e
 6787 0178 01       		.byte	0x1
 6788 0179 3F       		.uleb128 0x3f
 6789 017a 19       		.uleb128 0x19
 6790 017b 03       		.uleb128 0x3
 6791 017c 0E       		.uleb128 0xe
 6792 017d 3A       		.uleb128 0x3a
 6793 017e 0B       		.uleb128 0xb
 6794 017f 3B       		.uleb128 0x3b
 6795 0180 05       		.uleb128 0x5
 6796 0181 27       		.uleb128 0x27
 6797 0182 19       		.uleb128 0x19
 6798 0183 49       		.uleb128 0x49
 6799 0184 13       		.uleb128 0x13
 6800 0185 11       		.uleb128 0x11
 6801 0186 01       		.uleb128 0x1
 6802 0187 12       		.uleb128 0x12
 6803 0188 06       		.uleb128 0x6
 6804 0189 40       		.uleb128 0x40
 6805 018a 18       		.uleb128 0x18
 6806 018b 9742     		.uleb128 0x2117
 6807 018d 19       		.uleb128 0x19
 6808 018e 01       		.uleb128 0x1
 6809 018f 13       		.uleb128 0x13
 6810 0190 00       		.byte	0
 6811 0191 00       		.byte	0
 6812 0192 1E       		.uleb128 0x1e
 6813 0193 05       		.uleb128 0x5
 6814 0194 00       		.byte	0
 6815 0195 03       		.uleb128 0x3
ARM GAS  /var/folders/7z/kps_xzfj7sn5l5gkyq8s9db00000gn/T//cck5P0LB.s 			page 121


 6816 0196 0E       		.uleb128 0xe
 6817 0197 3A       		.uleb128 0x3a
 6818 0198 0B       		.uleb128 0xb
 6819 0199 3B       		.uleb128 0x3b
 6820 019a 05       		.uleb128 0x5
 6821 019b 49       		.uleb128 0x49
 6822 019c 13       		.uleb128 0x13
 6823 019d 02       		.uleb128 0x2
 6824 019e 17       		.uleb128 0x17
 6825 019f 00       		.byte	0
 6826 01a0 00       		.byte	0
 6827 01a1 1F       		.uleb128 0x1f
 6828 01a2 34       		.uleb128 0x34
 6829 01a3 00       		.byte	0
 6830 01a4 03       		.uleb128 0x3
 6831 01a5 0E       		.uleb128 0xe
 6832 01a6 3A       		.uleb128 0x3a
 6833 01a7 0B       		.uleb128 0xb
 6834 01a8 3B       		.uleb128 0x3b
 6835 01a9 05       		.uleb128 0x5
 6836 01aa 49       		.uleb128 0x49
 6837 01ab 13       		.uleb128 0x13
 6838 01ac 02       		.uleb128 0x2
 6839 01ad 17       		.uleb128 0x17
 6840 01ae 00       		.byte	0
 6841 01af 00       		.byte	0
 6842 01b0 20       		.uleb128 0x20
 6843 01b1 1D       		.uleb128 0x1d
 6844 01b2 00       		.byte	0
 6845 01b3 31       		.uleb128 0x31
 6846 01b4 13       		.uleb128 0x13
 6847 01b5 11       		.uleb128 0x11
 6848 01b6 01       		.uleb128 0x1
 6849 01b7 12       		.uleb128 0x12
 6850 01b8 06       		.uleb128 0x6
 6851 01b9 58       		.uleb128 0x58
 6852 01ba 0B       		.uleb128 0xb
 6853 01bb 59       		.uleb128 0x59
 6854 01bc 05       		.uleb128 0x5
 6855 01bd 00       		.byte	0
 6856 01be 00       		.byte	0
 6857 01bf 21       		.uleb128 0x21
 6858 01c0 898201   		.uleb128 0x4109
 6859 01c3 00       		.byte	0
 6860 01c4 11       		.uleb128 0x11
 6861 01c5 01       		.uleb128 0x1
 6862 01c6 31       		.uleb128 0x31
 6863 01c7 13       		.uleb128 0x13
 6864 01c8 00       		.byte	0
 6865 01c9 00       		.byte	0
 6866 01ca 22       		.uleb128 0x22
 6867 01cb 2E       		.uleb128 0x2e
 6868 01cc 00       		.byte	0
 6869 01cd 31       		.uleb128 0x31
 6870 01ce 13       		.uleb128 0x13
 6871 01cf 11       		.uleb128 0x11
 6872 01d0 01       		.uleb128 0x1
ARM GAS  /var/folders/7z/kps_xzfj7sn5l5gkyq8s9db00000gn/T//cck5P0LB.s 			page 122


 6873 01d1 12       		.uleb128 0x12
 6874 01d2 06       		.uleb128 0x6
 6875 01d3 40       		.uleb128 0x40
 6876 01d4 18       		.uleb128 0x18
 6877 01d5 9742     		.uleb128 0x2117
 6878 01d7 19       		.uleb128 0x19
 6879 01d8 00       		.byte	0
 6880 01d9 00       		.byte	0
 6881 01da 23       		.uleb128 0x23
 6882 01db 34       		.uleb128 0x34
 6883 01dc 00       		.byte	0
 6884 01dd 03       		.uleb128 0x3
 6885 01de 0E       		.uleb128 0xe
 6886 01df 3A       		.uleb128 0x3a
 6887 01e0 0B       		.uleb128 0xb
 6888 01e1 3B       		.uleb128 0x3b
 6889 01e2 05       		.uleb128 0x5
 6890 01e3 49       		.uleb128 0x49
 6891 01e4 13       		.uleb128 0x13
 6892 01e5 02       		.uleb128 0x2
 6893 01e6 18       		.uleb128 0x18
 6894 01e7 00       		.byte	0
 6895 01e8 00       		.byte	0
 6896 01e9 24       		.uleb128 0x24
 6897 01ea 1D       		.uleb128 0x1d
 6898 01eb 01       		.byte	0x1
 6899 01ec 31       		.uleb128 0x31
 6900 01ed 13       		.uleb128 0x13
 6901 01ee 11       		.uleb128 0x11
 6902 01ef 01       		.uleb128 0x1
 6903 01f0 12       		.uleb128 0x12
 6904 01f1 06       		.uleb128 0x6
 6905 01f2 58       		.uleb128 0x58
 6906 01f3 0B       		.uleb128 0xb
 6907 01f4 59       		.uleb128 0x59
 6908 01f5 05       		.uleb128 0x5
 6909 01f6 01       		.uleb128 0x1
 6910 01f7 13       		.uleb128 0x13
 6911 01f8 00       		.byte	0
 6912 01f9 00       		.byte	0
 6913 01fa 25       		.uleb128 0x25
 6914 01fb 05       		.uleb128 0x5
 6915 01fc 00       		.byte	0
 6916 01fd 31       		.uleb128 0x31
 6917 01fe 13       		.uleb128 0x13
 6918 01ff 02       		.uleb128 0x2
 6919 0200 17       		.uleb128 0x17
 6920 0201 00       		.byte	0
 6921 0202 00       		.byte	0
 6922 0203 26       		.uleb128 0x26
 6923 0204 1D       		.uleb128 0x1d
 6924 0205 01       		.byte	0x1
 6925 0206 31       		.uleb128 0x31
 6926 0207 13       		.uleb128 0x13
 6927 0208 52       		.uleb128 0x52
 6928 0209 01       		.uleb128 0x1
 6929 020a 55       		.uleb128 0x55
ARM GAS  /var/folders/7z/kps_xzfj7sn5l5gkyq8s9db00000gn/T//cck5P0LB.s 			page 123


 6930 020b 17       		.uleb128 0x17
 6931 020c 58       		.uleb128 0x58
 6932 020d 0B       		.uleb128 0xb
 6933 020e 59       		.uleb128 0x59
 6934 020f 05       		.uleb128 0x5
 6935 0210 01       		.uleb128 0x1
 6936 0211 13       		.uleb128 0x13
 6937 0212 00       		.byte	0
 6938 0213 00       		.byte	0
 6939 0214 27       		.uleb128 0x27
 6940 0215 0B       		.uleb128 0xb
 6941 0216 01       		.byte	0x1
 6942 0217 55       		.uleb128 0x55
 6943 0218 17       		.uleb128 0x17
 6944 0219 00       		.byte	0
 6945 021a 00       		.byte	0
 6946 021b 28       		.uleb128 0x28
 6947 021c 05       		.uleb128 0x5
 6948 021d 00       		.byte	0
 6949 021e 31       		.uleb128 0x31
 6950 021f 13       		.uleb128 0x13
 6951 0220 00       		.byte	0
 6952 0221 00       		.byte	0
 6953 0222 29       		.uleb128 0x29
 6954 0223 1D       		.uleb128 0x1d
 6955 0224 01       		.byte	0x1
 6956 0225 31       		.uleb128 0x31
 6957 0226 13       		.uleb128 0x13
 6958 0227 52       		.uleb128 0x52
 6959 0228 01       		.uleb128 0x1
 6960 0229 55       		.uleb128 0x55
 6961 022a 17       		.uleb128 0x17
 6962 022b 58       		.uleb128 0x58
 6963 022c 0B       		.uleb128 0xb
 6964 022d 59       		.uleb128 0x59
 6965 022e 05       		.uleb128 0x5
 6966 022f 00       		.byte	0
 6967 0230 00       		.byte	0
 6968 0231 2A       		.uleb128 0x2a
 6969 0232 2E       		.uleb128 0x2e
 6970 0233 00       		.byte	0
 6971 0234 3F       		.uleb128 0x3f
 6972 0235 19       		.uleb128 0x19
 6973 0236 03       		.uleb128 0x3
 6974 0237 0E       		.uleb128 0xe
 6975 0238 3A       		.uleb128 0x3a
 6976 0239 0B       		.uleb128 0xb
 6977 023a 3B       		.uleb128 0x3b
 6978 023b 05       		.uleb128 0x5
 6979 023c 27       		.uleb128 0x27
 6980 023d 19       		.uleb128 0x19
 6981 023e 49       		.uleb128 0x49
 6982 023f 13       		.uleb128 0x13
 6983 0240 11       		.uleb128 0x11
 6984 0241 01       		.uleb128 0x1
 6985 0242 12       		.uleb128 0x12
 6986 0243 06       		.uleb128 0x6
ARM GAS  /var/folders/7z/kps_xzfj7sn5l5gkyq8s9db00000gn/T//cck5P0LB.s 			page 124


 6987 0244 40       		.uleb128 0x40
 6988 0245 18       		.uleb128 0x18
 6989 0246 9742     		.uleb128 0x2117
 6990 0248 19       		.uleb128 0x19
 6991 0249 00       		.byte	0
 6992 024a 00       		.byte	0
 6993 024b 2B       		.uleb128 0x2b
 6994 024c 34       		.uleb128 0x34
 6995 024d 00       		.byte	0
 6996 024e 03       		.uleb128 0x3
 6997 024f 08       		.uleb128 0x8
 6998 0250 3A       		.uleb128 0x3a
 6999 0251 0B       		.uleb128 0xb
 7000 0252 3B       		.uleb128 0x3b
 7001 0253 05       		.uleb128 0x5
 7002 0254 49       		.uleb128 0x49
 7003 0255 13       		.uleb128 0x13
 7004 0256 02       		.uleb128 0x2
 7005 0257 18       		.uleb128 0x18
 7006 0258 00       		.byte	0
 7007 0259 00       		.byte	0
 7008 025a 2C       		.uleb128 0x2c
 7009 025b 34       		.uleb128 0x34
 7010 025c 00       		.byte	0
 7011 025d 03       		.uleb128 0x3
 7012 025e 0E       		.uleb128 0xe
 7013 025f 3A       		.uleb128 0x3a
 7014 0260 0B       		.uleb128 0xb
 7015 0261 3B       		.uleb128 0x3b
 7016 0262 05       		.uleb128 0x5
 7017 0263 49       		.uleb128 0x49
 7018 0264 13       		.uleb128 0x13
 7019 0265 3F       		.uleb128 0x3f
 7020 0266 19       		.uleb128 0x19
 7021 0267 3C       		.uleb128 0x3c
 7022 0268 19       		.uleb128 0x19
 7023 0269 00       		.byte	0
 7024 026a 00       		.byte	0
 7025 026b 00       		.byte	0
 7026              		.section	.debug_loc,"",%progbits
 7027              	.Ldebug_loc0:
 7028              	.LLST0:
 7029 0000 08000000 		.4byte	.LVL2
 7030 0004 34000000 		.4byte	.LVL6
 7031 0008 0200     		.2byte	0x2
 7032 000a 30       		.byte	0x30
 7033 000b 9F       		.byte	0x9f
 7034 000c 34000000 		.4byte	.LVL6
 7035 0010 38000000 		.4byte	.LVL7
 7036 0014 0100     		.2byte	0x1
 7037 0016 50       		.byte	0x50
 7038 0017 38000000 		.4byte	.LVL7
 7039 001b 3A000000 		.4byte	.LVL8
 7040 001f 0200     		.2byte	0x2
 7041 0021 30       		.byte	0x30
 7042 0022 9F       		.byte	0x9f
 7043 0023 3A000000 		.4byte	.LVL8
ARM GAS  /var/folders/7z/kps_xzfj7sn5l5gkyq8s9db00000gn/T//cck5P0LB.s 			page 125


 7044 0027 44000000 		.4byte	.LFE115
 7045 002b 0100     		.2byte	0x1
 7046 002d 50       		.byte	0x50
 7047 002e 00000000 		.4byte	0
 7048 0032 00000000 		.4byte	0
 7049              	.LLST1:
 7050 0036 08000000 		.4byte	.LVL2
 7051 003a 16000000 		.4byte	.LVL3
 7052 003e 0200     		.2byte	0x2
 7053 0040 30       		.byte	0x30
 7054 0041 9F       		.byte	0x9f
 7055 0042 16000000 		.4byte	.LVL3
 7056 0046 18000000 		.4byte	.LVL4
 7057 004a 0100     		.2byte	0x1
 7058 004c 52       		.byte	0x52
 7059 004d 2A000000 		.4byte	.LVL5
 7060 0051 38000000 		.4byte	.LVL7
 7061 0055 0100     		.2byte	0x1
 7062 0057 52       		.byte	0x52
 7063 0058 38000000 		.4byte	.LVL7
 7064 005c 44000000 		.4byte	.LFE115
 7065 0060 0200     		.2byte	0x2
 7066 0062 30       		.byte	0x30
 7067 0063 9F       		.byte	0x9f
 7068 0064 00000000 		.4byte	0
 7069 0068 00000000 		.4byte	0
 7070              	.LLST2:
 7071 006c 00000000 		.4byte	.LVL9
 7072 0070 11000000 		.4byte	.LVL10-1
 7073 0074 0100     		.2byte	0x1
 7074 0076 50       		.byte	0x50
 7075 0077 11000000 		.4byte	.LVL10-1
 7076 007b 44000000 		.4byte	.LVL13
 7077 007f 0100     		.2byte	0x1
 7078 0081 55       		.byte	0x55
 7079 0082 44000000 		.4byte	.LVL13
 7080 0086 48000000 		.4byte	.LFE112
 7081 008a 0400     		.2byte	0x4
 7082 008c F3       		.byte	0xf3
 7083 008d 01       		.uleb128 0x1
 7084 008e 50       		.byte	0x50
 7085 008f 9F       		.byte	0x9f
 7086 0090 00000000 		.4byte	0
 7087 0094 00000000 		.4byte	0
 7088              	.LLST3:
 7089 0098 00000000 		.4byte	.LVL9
 7090 009c 3A000000 		.4byte	.LVL11
 7091 00a0 0200     		.2byte	0x2
 7092 00a2 30       		.byte	0x30
 7093 00a3 9F       		.byte	0x9f
 7094 00a4 3A000000 		.4byte	.LVL11
 7095 00a8 3C000000 		.4byte	.LVL12
 7096 00ac 0200     		.2byte	0x2
 7097 00ae 31       		.byte	0x31
 7098 00af 9F       		.byte	0x9f
 7099 00b0 3C000000 		.4byte	.LVL12
 7100 00b4 48000000 		.4byte	.LFE112
ARM GAS  /var/folders/7z/kps_xzfj7sn5l5gkyq8s9db00000gn/T//cck5P0LB.s 			page 126


 7101 00b8 0100     		.2byte	0x1
 7102 00ba 50       		.byte	0x50
 7103 00bb 00000000 		.4byte	0
 7104 00bf 00000000 		.4byte	0
 7105              	.LLST4:
 7106 00c3 0C000000 		.4byte	.LVL14
 7107 00c7 34000000 		.4byte	.LVL18
 7108 00cb 0200     		.2byte	0x2
 7109 00cd 30       		.byte	0x30
 7110 00ce 9F       		.byte	0x9f
 7111 00cf 34000000 		.4byte	.LVL18
 7112 00d3 3A000000 		.4byte	.LVL20
 7113 00d7 0800     		.2byte	0x8
 7114 00d9 70       		.byte	0x70
 7115 00da 00       		.sleb128 0
 7116 00db 08       		.byte	0x8
 7117 00dc 20       		.byte	0x20
 7118 00dd 1A       		.byte	0x1a
 7119 00de 30       		.byte	0x30
 7120 00df 2E       		.byte	0x2e
 7121 00e0 9F       		.byte	0x9f
 7122 00e1 00000000 		.4byte	0
 7123 00e5 00000000 		.4byte	0
 7124              	.LLST5:
 7125 00e9 0C000000 		.4byte	.LVL14
 7126 00ed 1A000000 		.4byte	.LVL15
 7127 00f1 0200     		.2byte	0x2
 7128 00f3 30       		.byte	0x30
 7129 00f4 9F       		.byte	0x9f
 7130 00f5 1A000000 		.4byte	.LVL15
 7131 00f9 1C000000 		.4byte	.LVL16
 7132 00fd 0100     		.2byte	0x1
 7133 00ff 52       		.byte	0x52
 7134 0100 2E000000 		.4byte	.LVL17
 7135 0104 36000000 		.4byte	.LVL19
 7136 0108 0100     		.2byte	0x1
 7137 010a 52       		.byte	0x52
 7138 010b 00000000 		.4byte	0
 7139 010f 00000000 		.4byte	0
 7140              	.LLST6:
 7141 0113 0E000000 		.4byte	.LVL21
 7142 0117 2C000000 		.4byte	.LVL23
 7143 011b 0200     		.2byte	0x2
 7144 011d 30       		.byte	0x30
 7145 011e 9F       		.byte	0x9f
 7146 011f 2C000000 		.4byte	.LVL23
 7147 0123 2E000000 		.4byte	.LVL24
 7148 0127 0100     		.2byte	0x1
 7149 0129 52       		.byte	0x52
 7150 012a 40000000 		.4byte	.LVL25
 7151 012e 46000000 		.4byte	.LVL26
 7152 0132 0100     		.2byte	0x1
 7153 0134 52       		.byte	0x52
 7154 0135 00000000 		.4byte	0
 7155 0139 00000000 		.4byte	0
 7156              	.LLST7:
 7157 013d 0E000000 		.4byte	.LVL21
ARM GAS  /var/folders/7z/kps_xzfj7sn5l5gkyq8s9db00000gn/T//cck5P0LB.s 			page 127


 7158 0141 4C000000 		.4byte	.LVL27
 7159 0145 0200     		.2byte	0x2
 7160 0147 30       		.byte	0x30
 7161 0148 9F       		.byte	0x9f
 7162 0149 4C000000 		.4byte	.LVL27
 7163 014d 56000000 		.4byte	.LVL28
 7164 0151 0100     		.2byte	0x1
 7165 0153 50       		.byte	0x50
 7166 0154 56000000 		.4byte	.LVL28
 7167 0158 8C000000 		.4byte	.LFE111
 7168 015c 0200     		.2byte	0x2
 7169 015e 30       		.byte	0x30
 7170 015f 9F       		.byte	0x9f
 7171 0160 00000000 		.4byte	0
 7172 0164 00000000 		.4byte	0
 7173              	.LLST8:
 7174 0168 00000000 		.4byte	.LVL30
 7175 016c 11000000 		.4byte	.LVL31-1
 7176 0170 0100     		.2byte	0x1
 7177 0172 50       		.byte	0x50
 7178 0173 11000000 		.4byte	.LVL31-1
 7179 0177 40000000 		.4byte	.LFE118
 7180 017b 0400     		.2byte	0x4
 7181 017d F3       		.byte	0xf3
 7182 017e 01       		.uleb128 0x1
 7183 017f 50       		.byte	0x50
 7184 0180 9F       		.byte	0x9f
 7185 0181 00000000 		.4byte	0
 7186 0185 00000000 		.4byte	0
 7187              	.LLST9:
 7188 0189 00000000 		.4byte	.LVL30
 7189 018d 28000000 		.4byte	.LVL32
 7190 0191 0200     		.2byte	0x2
 7191 0193 30       		.byte	0x30
 7192 0194 9F       		.byte	0x9f
 7193 0195 28000000 		.4byte	.LVL32
 7194 0199 2A000000 		.4byte	.LVL33
 7195 019d 0200     		.2byte	0x2
 7196 019f 31       		.byte	0x31
 7197 01a0 9F       		.byte	0x9f
 7198 01a1 2A000000 		.4byte	.LVL33
 7199 01a5 32000000 		.4byte	.LVL34
 7200 01a9 0100     		.2byte	0x1
 7201 01ab 50       		.byte	0x50
 7202 01ac 32000000 		.4byte	.LVL34
 7203 01b0 40000000 		.4byte	.LFE118
 7204 01b4 0200     		.2byte	0x2
 7205 01b6 30       		.byte	0x30
 7206 01b7 9F       		.byte	0x9f
 7207 01b8 00000000 		.4byte	0
 7208 01bc 00000000 		.4byte	0
 7209              	.LLST10:
 7210 01c0 00000000 		.4byte	.LVL36
 7211 01c4 14000000 		.4byte	.LVL37
 7212 01c8 0100     		.2byte	0x1
 7213 01ca 50       		.byte	0x50
 7214 01cb 14000000 		.4byte	.LVL37
ARM GAS  /var/folders/7z/kps_xzfj7sn5l5gkyq8s9db00000gn/T//cck5P0LB.s 			page 128


 7215 01cf 78000000 		.4byte	.LVL60
 7216 01d3 0400     		.2byte	0x4
 7217 01d5 F3       		.byte	0xf3
 7218 01d6 01       		.uleb128 0x1
 7219 01d7 50       		.byte	0x50
 7220 01d8 9F       		.byte	0x9f
 7221 01d9 78000000 		.4byte	.LVL60
 7222 01dd 84000000 		.4byte	.LVL61
 7223 01e1 0100     		.2byte	0x1
 7224 01e3 50       		.byte	0x50
 7225 01e4 84000000 		.4byte	.LVL61
 7226 01e8 C6000000 		.4byte	.LVL66
 7227 01ec 0400     		.2byte	0x4
 7228 01ee F3       		.byte	0xf3
 7229 01ef 01       		.uleb128 0x1
 7230 01f0 50       		.byte	0x50
 7231 01f1 9F       		.byte	0x9f
 7232 01f2 C6000000 		.4byte	.LVL66
 7233 01f6 D2000000 		.4byte	.LVL67
 7234 01fa 0100     		.2byte	0x1
 7235 01fc 50       		.byte	0x50
 7236 01fd D2000000 		.4byte	.LVL67
 7237 0201 F0000000 		.4byte	.LFE120
 7238 0205 0400     		.2byte	0x4
 7239 0207 F3       		.byte	0xf3
 7240 0208 01       		.uleb128 0x1
 7241 0209 50       		.byte	0x50
 7242 020a 9F       		.byte	0x9f
 7243 020b 00000000 		.4byte	0
 7244 020f 00000000 		.4byte	0
 7245              	.LLST11:
 7246 0213 00000000 		.4byte	.LVL36
 7247 0217 54000000 		.4byte	.LVL52
 7248 021b 0100     		.2byte	0x1
 7249 021d 51       		.byte	0x51
 7250 021e 54000000 		.4byte	.LVL52
 7251 0222 78000000 		.4byte	.LVL60
 7252 0226 0400     		.2byte	0x4
 7253 0228 F3       		.byte	0xf3
 7254 0229 01       		.uleb128 0x1
 7255 022a 51       		.byte	0x51
 7256 022b 9F       		.byte	0x9f
 7257 022c 78000000 		.4byte	.LVL60
 7258 0230 8A000000 		.4byte	.LVL62
 7259 0234 0100     		.2byte	0x1
 7260 0236 51       		.byte	0x51
 7261 0237 8A000000 		.4byte	.LVL62
 7262 023b C6000000 		.4byte	.LVL66
 7263 023f 0400     		.2byte	0x4
 7264 0241 F3       		.byte	0xf3
 7265 0242 01       		.uleb128 0x1
 7266 0243 51       		.byte	0x51
 7267 0244 9F       		.byte	0x9f
 7268 0245 C6000000 		.4byte	.LVL66
 7269 0249 D2000000 		.4byte	.LVL67
 7270 024d 0100     		.2byte	0x1
 7271 024f 51       		.byte	0x51
ARM GAS  /var/folders/7z/kps_xzfj7sn5l5gkyq8s9db00000gn/T//cck5P0LB.s 			page 129


 7272 0250 D2000000 		.4byte	.LVL67
 7273 0254 E6000000 		.4byte	.LVL70
 7274 0258 0400     		.2byte	0x4
 7275 025a F3       		.byte	0xf3
 7276 025b 01       		.uleb128 0x1
 7277 025c 51       		.byte	0x51
 7278 025d 9F       		.byte	0x9f
 7279 025e E6000000 		.4byte	.LVL70
 7280 0262 F0000000 		.4byte	.LFE120
 7281 0266 0100     		.2byte	0x1
 7282 0268 51       		.byte	0x51
 7283 0269 00000000 		.4byte	0
 7284 026d 00000000 		.4byte	0
 7285              	.LLST12:
 7286 0271 00000000 		.4byte	.LVL36
 7287 0275 76000000 		.4byte	.LVL59
 7288 0279 0200     		.2byte	0x2
 7289 027b 30       		.byte	0x30
 7290 027c 9F       		.byte	0x9f
 7291 027d 76000000 		.4byte	.LVL59
 7292 0281 78000000 		.4byte	.LVL60
 7293 0285 0100     		.2byte	0x1
 7294 0287 54       		.byte	0x54
 7295 0288 78000000 		.4byte	.LVL60
 7296 028c 94000000 		.4byte	.LVL63
 7297 0290 0200     		.2byte	0x2
 7298 0292 30       		.byte	0x30
 7299 0293 9F       		.byte	0x9f
 7300 0294 94000000 		.4byte	.LVL63
 7301 0298 C6000000 		.4byte	.LVL66
 7302 029c 0100     		.2byte	0x1
 7303 029e 54       		.byte	0x54
 7304 029f C6000000 		.4byte	.LVL66
 7305 02a3 D2000000 		.4byte	.LVL67
 7306 02a7 0200     		.2byte	0x2
 7307 02a9 30       		.byte	0x30
 7308 02aa 9F       		.byte	0x9f
 7309 02ab D2000000 		.4byte	.LVL67
 7310 02af E6000000 		.4byte	.LVL70
 7311 02b3 0100     		.2byte	0x1
 7312 02b5 54       		.byte	0x54
 7313 02b6 E6000000 		.4byte	.LVL70
 7314 02ba F0000000 		.4byte	.LFE120
 7315 02be 0200     		.2byte	0x2
 7316 02c0 30       		.byte	0x30
 7317 02c1 9F       		.byte	0x9f
 7318 02c2 00000000 		.4byte	0
 7319 02c6 00000000 		.4byte	0
 7320              	.LLST13:
 7321 02ca 00000000 		.4byte	.LVL36
 7322 02ce BE000000 		.4byte	.LVL65
 7323 02d2 0200     		.2byte	0x2
 7324 02d4 30       		.byte	0x30
 7325 02d5 9F       		.byte	0x9f
 7326 02d6 BE000000 		.4byte	.LVL65
 7327 02da C6000000 		.4byte	.LVL66
 7328 02de 0100     		.2byte	0x1
ARM GAS  /var/folders/7z/kps_xzfj7sn5l5gkyq8s9db00000gn/T//cck5P0LB.s 			page 130


 7329 02e0 50       		.byte	0x50
 7330 02e1 C6000000 		.4byte	.LVL66
 7331 02e5 E2000000 		.4byte	.LVL69
 7332 02e9 0200     		.2byte	0x2
 7333 02eb 30       		.byte	0x30
 7334 02ec 9F       		.byte	0x9f
 7335 02ed E2000000 		.4byte	.LVL69
 7336 02f1 E6000000 		.4byte	.LVL70
 7337 02f5 0100     		.2byte	0x1
 7338 02f7 50       		.byte	0x50
 7339 02f8 E6000000 		.4byte	.LVL70
 7340 02fc F0000000 		.4byte	.LFE120
 7341 0300 0200     		.2byte	0x2
 7342 0302 30       		.byte	0x30
 7343 0303 9F       		.byte	0x9f
 7344 0304 00000000 		.4byte	0
 7345 0308 00000000 		.4byte	0
 7346              	.LLST14:
 7347 030c 14000000 		.4byte	.LVL37
 7348 0310 1E000000 		.4byte	.LVL39
 7349 0314 0100     		.2byte	0x1
 7350 0316 50       		.byte	0x50
 7351 0317 26000000 		.4byte	.LVL41
 7352 031b 30000000 		.4byte	.LVL44
 7353 031f 0100     		.2byte	0x1
 7354 0321 50       		.byte	0x50
 7355 0322 00000000 		.4byte	0
 7356 0326 00000000 		.4byte	0
 7357              	.LLST15:
 7358 032a 14000000 		.4byte	.LVL37
 7359 032e 1C000000 		.4byte	.LVL38
 7360 0332 0200     		.2byte	0x2
 7361 0334 30       		.byte	0x30
 7362 0335 9F       		.byte	0x9f
 7363 0336 1C000000 		.4byte	.LVL38
 7364 033a 22000000 		.4byte	.LVL40
 7365 033e 0100     		.2byte	0x1
 7366 0340 55       		.byte	0x55
 7367 0341 26000000 		.4byte	.LVL41
 7368 0345 2A000000 		.4byte	.LVL42
 7369 0349 0100     		.2byte	0x1
 7370 034b 55       		.byte	0x55
 7371 034c 00000000 		.4byte	0
 7372 0350 00000000 		.4byte	0
 7373              	.LLST16:
 7374 0354 2E000000 		.4byte	.LVL43
 7375 0358 3C000000 		.4byte	.LVL46
 7376 035c 0100     		.2byte	0x1
 7377 035e 52       		.byte	0x52
 7378 035f 44000000 		.4byte	.LVL48
 7379 0363 4E000000 		.4byte	.LVL51
 7380 0367 0100     		.2byte	0x1
 7381 0369 52       		.byte	0x52
 7382 036a E6000000 		.4byte	.LVL70
 7383 036e F0000000 		.4byte	.LFE120
 7384 0372 0100     		.2byte	0x1
 7385 0374 52       		.byte	0x52
ARM GAS  /var/folders/7z/kps_xzfj7sn5l5gkyq8s9db00000gn/T//cck5P0LB.s 			page 131


 7386 0375 00000000 		.4byte	0
 7387 0379 00000000 		.4byte	0
 7388              	.LLST17:
 7389 037d 2E000000 		.4byte	.LVL43
 7390 0381 3A000000 		.4byte	.LVL45
 7391 0385 0200     		.2byte	0x2
 7392 0387 30       		.byte	0x30
 7393 0388 9F       		.byte	0x9f
 7394 0389 3A000000 		.4byte	.LVL45
 7395 038d 40000000 		.4byte	.LVL47
 7396 0391 0100     		.2byte	0x1
 7397 0393 53       		.byte	0x53
 7398 0394 44000000 		.4byte	.LVL48
 7399 0398 48000000 		.4byte	.LVL49
 7400 039c 0100     		.2byte	0x1
 7401 039e 53       		.byte	0x53
 7402 039f E6000000 		.4byte	.LVL70
 7403 03a3 F0000000 		.4byte	.LFE120
 7404 03a7 0200     		.2byte	0x2
 7405 03a9 30       		.byte	0x30
 7406 03aa 9F       		.byte	0x9f
 7407 03ab 00000000 		.4byte	0
 7408 03af 00000000 		.4byte	0
 7409              	.LLST18:
 7410 03b3 4C000000 		.4byte	.LVL50
 7411 03b7 5C000000 		.4byte	.LVL54
 7412 03bb 0100     		.2byte	0x1
 7413 03bd 53       		.byte	0x53
 7414 03be 64000000 		.4byte	.LVL56
 7415 03c2 72000000 		.4byte	.LVL58
 7416 03c6 0100     		.2byte	0x1
 7417 03c8 53       		.byte	0x53
 7418 03c9 00000000 		.4byte	0
 7419 03cd 00000000 		.4byte	0
 7420              	.LLST19:
 7421 03d1 4C000000 		.4byte	.LVL50
 7422 03d5 5A000000 		.4byte	.LVL53
 7423 03d9 0200     		.2byte	0x2
 7424 03db 30       		.byte	0x30
 7425 03dc 9F       		.byte	0x9f
 7426 03dd 5A000000 		.4byte	.LVL53
 7427 03e1 60000000 		.4byte	.LVL55
 7428 03e5 0100     		.2byte	0x1
 7429 03e7 54       		.byte	0x54
 7430 03e8 64000000 		.4byte	.LVL56
 7431 03ec 68000000 		.4byte	.LVL57
 7432 03f0 0100     		.2byte	0x1
 7433 03f2 54       		.byte	0x54
 7434 03f3 00000000 		.4byte	0
 7435 03f7 00000000 		.4byte	0
 7436              	.LLST20:
 7437 03fb 00000000 		.4byte	.LVL72
 7438 03ff 24000000 		.4byte	.LVL76
 7439 0403 0100     		.2byte	0x1
 7440 0405 50       		.byte	0x50
 7441 0406 24000000 		.4byte	.LVL76
 7442 040a 5C000000 		.4byte	.LFE122
ARM GAS  /var/folders/7z/kps_xzfj7sn5l5gkyq8s9db00000gn/T//cck5P0LB.s 			page 132


 7443 040e 0400     		.2byte	0x4
 7444 0410 F3       		.byte	0xf3
 7445 0411 01       		.uleb128 0x1
 7446 0412 50       		.byte	0x50
 7447 0413 9F       		.byte	0x9f
 7448 0414 00000000 		.4byte	0
 7449 0418 00000000 		.4byte	0
 7450              	.LLST21:
 7451 041c 00000000 		.4byte	.LVL72
 7452 0420 04000000 		.4byte	.LVL73
 7453 0424 0200     		.2byte	0x2
 7454 0426 30       		.byte	0x30
 7455 0427 9F       		.byte	0x9f
 7456 0428 04000000 		.4byte	.LVL73
 7457 042c 18000000 		.4byte	.LVL74
 7458 0430 0900     		.2byte	0x9
 7459 0432 73       		.byte	0x73
 7460 0433 00       		.sleb128 0
 7461 0434 0C       		.byte	0xc
 7462 0435 7F7F7F00 		.4byte	0x7f7f7f
 7463 0439 1A       		.byte	0x1a
 7464 043a 9F       		.byte	0x9f
 7465 043b 00000000 		.4byte	0
 7466 043f 00000000 		.4byte	0
 7467              	.LLST22:
 7468 0443 22000000 		.4byte	.LVL75
 7469 0447 3C000000 		.4byte	.LVL77
 7470 044b 0100     		.2byte	0x1
 7471 044d 54       		.byte	0x54
 7472 044e 3C000000 		.4byte	.LVL77
 7473 0452 50000000 		.4byte	.LVL78
 7474 0456 0200     		.2byte	0x2
 7475 0458 71       		.byte	0x71
 7476 0459 00       		.sleb128 0
 7477 045a 00000000 		.4byte	0
 7478 045e 00000000 		.4byte	0
 7479              	.LLST23:
 7480 0462 22000000 		.4byte	.LVL75
 7481 0466 3C000000 		.4byte	.LVL77
 7482 046a 0700     		.2byte	0x7
 7483 046c 74       		.byte	0x74
 7484 046d 00       		.sleb128 0
 7485 046e 34       		.byte	0x34
 7486 046f 25       		.byte	0x25
 7487 0470 3A       		.byte	0x3a
 7488 0471 1E       		.byte	0x1e
 7489 0472 9F       		.byte	0x9f
 7490 0473 3C000000 		.4byte	.LVL77
 7491 0477 50000000 		.4byte	.LVL78
 7492 047b 0900     		.2byte	0x9
 7493 047d 71       		.byte	0x71
 7494 047e 00       		.sleb128 0
 7495 047f 94       		.byte	0x94
 7496 0480 01       		.byte	0x1
 7497 0481 34       		.byte	0x34
 7498 0482 25       		.byte	0x25
 7499 0483 3A       		.byte	0x3a
ARM GAS  /var/folders/7z/kps_xzfj7sn5l5gkyq8s9db00000gn/T//cck5P0LB.s 			page 133


 7500 0484 1E       		.byte	0x1e
 7501 0485 9F       		.byte	0x9f
 7502 0486 00000000 		.4byte	0
 7503 048a 00000000 		.4byte	0
 7504              	.LLST24:
 7505 048e 00000000 		.4byte	.LVL80
 7506 0492 04000000 		.4byte	.LVL81
 7507 0496 0200     		.2byte	0x2
 7508 0498 30       		.byte	0x30
 7509 0499 9F       		.byte	0x9f
 7510 049a 04000000 		.4byte	.LVL81
 7511 049e 0C000000 		.4byte	.LFE123
 7512 04a2 0100     		.2byte	0x1
 7513 04a4 50       		.byte	0x50
 7514 04a5 00000000 		.4byte	0
 7515 04a9 00000000 		.4byte	0
 7516              	.LLST25:
 7517 04ad 00000000 		.4byte	.LVL82
 7518 04b1 0A000000 		.4byte	.LVL83
 7519 04b5 0100     		.2byte	0x1
 7520 04b7 50       		.byte	0x50
 7521 04b8 0A000000 		.4byte	.LVL83
 7522 04bc 7C000000 		.4byte	.LVL107
 7523 04c0 0400     		.2byte	0x4
 7524 04c2 F3       		.byte	0xf3
 7525 04c3 01       		.uleb128 0x1
 7526 04c4 50       		.byte	0x50
 7527 04c5 9F       		.byte	0x9f
 7528 04c6 7C000000 		.4byte	.LVL107
 7529 04ca 7E000000 		.4byte	.LVL108
 7530 04ce 0100     		.2byte	0x1
 7531 04d0 50       		.byte	0x50
 7532 04d1 7E000000 		.4byte	.LVL108
 7533 04d5 E0000000 		.4byte	.LFE124
 7534 04d9 0400     		.2byte	0x4
 7535 04db F3       		.byte	0xf3
 7536 04dc 01       		.uleb128 0x1
 7537 04dd 50       		.byte	0x50
 7538 04de 9F       		.byte	0x9f
 7539 04df 00000000 		.4byte	0
 7540 04e3 00000000 		.4byte	0
 7541              	.LLST26:
 7542 04e7 00000000 		.4byte	.LVL82
 7543 04eb 6E000000 		.4byte	.LVL104
 7544 04ef 0100     		.2byte	0x1
 7545 04f1 51       		.byte	0x51
 7546 04f2 6E000000 		.4byte	.LVL104
 7547 04f6 7C000000 		.4byte	.LVL107
 7548 04fa 0400     		.2byte	0x4
 7549 04fc F3       		.byte	0xf3
 7550 04fd 01       		.uleb128 0x1
 7551 04fe 51       		.byte	0x51
 7552 04ff 9F       		.byte	0x9f
 7553 0500 7C000000 		.4byte	.LVL107
 7554 0504 86000000 		.4byte	.LVL109
 7555 0508 0100     		.2byte	0x1
 7556 050a 51       		.byte	0x51
ARM GAS  /var/folders/7z/kps_xzfj7sn5l5gkyq8s9db00000gn/T//cck5P0LB.s 			page 134


 7557 050b 86000000 		.4byte	.LVL109
 7558 050f D8000000 		.4byte	.LVL116
 7559 0513 0400     		.2byte	0x4
 7560 0515 F3       		.byte	0xf3
 7561 0516 01       		.uleb128 0x1
 7562 0517 51       		.byte	0x51
 7563 0518 9F       		.byte	0x9f
 7564 0519 D8000000 		.4byte	.LVL116
 7565 051d E0000000 		.4byte	.LFE124
 7566 0521 0100     		.2byte	0x1
 7567 0523 51       		.byte	0x51
 7568 0524 00000000 		.4byte	0
 7569 0528 00000000 		.4byte	0
 7570              	.LLST27:
 7571 052c 00000000 		.4byte	.LVL82
 7572 0530 7A000000 		.4byte	.LVL106
 7573 0534 0200     		.2byte	0x2
 7574 0536 30       		.byte	0x30
 7575 0537 9F       		.byte	0x9f
 7576 0538 7A000000 		.4byte	.LVL106
 7577 053c 7C000000 		.4byte	.LVL107
 7578 0540 0100     		.2byte	0x1
 7579 0542 54       		.byte	0x54
 7580 0543 7C000000 		.4byte	.LVL107
 7581 0547 92000000 		.4byte	.LVL110
 7582 054b 0200     		.2byte	0x2
 7583 054d 30       		.byte	0x30
 7584 054e 9F       		.byte	0x9f
 7585 054f 92000000 		.4byte	.LVL110
 7586 0553 D8000000 		.4byte	.LVL116
 7587 0557 0100     		.2byte	0x1
 7588 0559 54       		.byte	0x54
 7589 055a D8000000 		.4byte	.LVL116
 7590 055e E0000000 		.4byte	.LFE124
 7591 0562 0200     		.2byte	0x2
 7592 0564 30       		.byte	0x30
 7593 0565 9F       		.byte	0x9f
 7594 0566 00000000 		.4byte	0
 7595 056a 00000000 		.4byte	0
 7596              	.LLST28:
 7597 056e 00000000 		.4byte	.LVL82
 7598 0572 BC000000 		.4byte	.LVL112
 7599 0576 0200     		.2byte	0x2
 7600 0578 30       		.byte	0x30
 7601 0579 9F       		.byte	0x9f
 7602 057a BC000000 		.4byte	.LVL112
 7603 057e C4000000 		.4byte	.LVL113
 7604 0582 0100     		.2byte	0x1
 7605 0584 50       		.byte	0x50
 7606 0585 C4000000 		.4byte	.LVL113
 7607 0589 D4000000 		.4byte	.LVL115
 7608 058d 0200     		.2byte	0x2
 7609 058f 30       		.byte	0x30
 7610 0590 9F       		.byte	0x9f
 7611 0591 D4000000 		.4byte	.LVL115
 7612 0595 D8000000 		.4byte	.LVL116
 7613 0599 0100     		.2byte	0x1
ARM GAS  /var/folders/7z/kps_xzfj7sn5l5gkyq8s9db00000gn/T//cck5P0LB.s 			page 135


 7614 059b 50       		.byte	0x50
 7615 059c D8000000 		.4byte	.LVL116
 7616 05a0 E0000000 		.4byte	.LFE124
 7617 05a4 0200     		.2byte	0x2
 7618 05a6 30       		.byte	0x30
 7619 05a7 9F       		.byte	0x9f
 7620 05a8 00000000 		.4byte	0
 7621 05ac 00000000 		.4byte	0
 7622              	.LLST29:
 7623 05b0 18000000 		.4byte	.LVL84
 7624 05b4 22000000 		.4byte	.LVL86
 7625 05b8 0100     		.2byte	0x1
 7626 05ba 53       		.byte	0x53
 7627 05bb 2A000000 		.4byte	.LVL88
 7628 05bf 32000000 		.4byte	.LVL90
 7629 05c3 0100     		.2byte	0x1
 7630 05c5 53       		.byte	0x53
 7631 05c6 00000000 		.4byte	0
 7632 05ca 00000000 		.4byte	0
 7633              	.LLST30:
 7634 05ce 18000000 		.4byte	.LVL84
 7635 05d2 20000000 		.4byte	.LVL85
 7636 05d6 0200     		.2byte	0x2
 7637 05d8 30       		.byte	0x30
 7638 05d9 9F       		.byte	0x9f
 7639 05da 20000000 		.4byte	.LVL85
 7640 05de 26000000 		.4byte	.LVL87
 7641 05e2 0100     		.2byte	0x1
 7642 05e4 50       		.byte	0x50
 7643 05e5 2A000000 		.4byte	.LVL88
 7644 05e9 2E000000 		.4byte	.LVL89
 7645 05ed 0100     		.2byte	0x1
 7646 05ef 50       		.byte	0x50
 7647 05f0 00000000 		.4byte	0
 7648 05f4 00000000 		.4byte	0
 7649              	.LLST31:
 7650 05f8 38000000 		.4byte	.LVL91
 7651 05fc 3E000000 		.4byte	.LVL93
 7652 0600 0100     		.2byte	0x1
 7653 0602 52       		.byte	0x52
 7654 0603 46000000 		.4byte	.LVL95
 7655 0607 50000000 		.4byte	.LVL98
 7656 060b 0100     		.2byte	0x1
 7657 060d 52       		.byte	0x52
 7658 060e D8000000 		.4byte	.LVL116
 7659 0612 E0000000 		.4byte	.LFE124
 7660 0616 0100     		.2byte	0x1
 7661 0618 52       		.byte	0x52
 7662 0619 00000000 		.4byte	0
 7663 061d 00000000 		.4byte	0
 7664              	.LLST32:
 7665 0621 38000000 		.4byte	.LVL91
 7666 0625 3C000000 		.4byte	.LVL92
 7667 0629 0200     		.2byte	0x2
 7668 062b 30       		.byte	0x30
 7669 062c 9F       		.byte	0x9f
 7670 062d 3C000000 		.4byte	.LVL92
ARM GAS  /var/folders/7z/kps_xzfj7sn5l5gkyq8s9db00000gn/T//cck5P0LB.s 			page 136


 7671 0631 42000000 		.4byte	.LVL94
 7672 0635 0100     		.2byte	0x1
 7673 0637 53       		.byte	0x53
 7674 0638 46000000 		.4byte	.LVL95
 7675 063c 4A000000 		.4byte	.LVL96
 7676 0640 0100     		.2byte	0x1
 7677 0642 53       		.byte	0x53
 7678 0643 D8000000 		.4byte	.LVL116
 7679 0647 E0000000 		.4byte	.LFE124
 7680 064b 0200     		.2byte	0x2
 7681 064d 30       		.byte	0x30
 7682 064e 9F       		.byte	0x9f
 7683 064f 00000000 		.4byte	0
 7684 0653 00000000 		.4byte	0
 7685              	.LLST33:
 7686 0657 4E000000 		.4byte	.LVL97
 7687 065b 5E000000 		.4byte	.LVL100
 7688 065f 0100     		.2byte	0x1
 7689 0661 53       		.byte	0x53
 7690 0662 66000000 		.4byte	.LVL102
 7691 0666 76000000 		.4byte	.LVL105
 7692 066a 0100     		.2byte	0x1
 7693 066c 53       		.byte	0x53
 7694 066d 00000000 		.4byte	0
 7695 0671 00000000 		.4byte	0
 7696              	.LLST34:
 7697 0675 4E000000 		.4byte	.LVL97
 7698 0679 5C000000 		.4byte	.LVL99
 7699 067d 0200     		.2byte	0x2
 7700 067f 30       		.byte	0x30
 7701 0680 9F       		.byte	0x9f
 7702 0681 5C000000 		.4byte	.LVL99
 7703 0685 62000000 		.4byte	.LVL101
 7704 0689 0100     		.2byte	0x1
 7705 068b 54       		.byte	0x54
 7706 068c 66000000 		.4byte	.LVL102
 7707 0690 6A000000 		.4byte	.LVL103
 7708 0694 0100     		.2byte	0x1
 7709 0696 54       		.byte	0x54
 7710 0697 00000000 		.4byte	0
 7711 069b 00000000 		.4byte	0
 7712              	.LLST35:
 7713 069f 00000000 		.4byte	.LVL118
 7714 06a3 26000000 		.4byte	.LVL122
 7715 06a7 0100     		.2byte	0x1
 7716 06a9 50       		.byte	0x50
 7717 06aa 26000000 		.4byte	.LVL122
 7718 06ae 58000000 		.4byte	.LFE126
 7719 06b2 0400     		.2byte	0x4
 7720 06b4 F3       		.byte	0xf3
 7721 06b5 01       		.uleb128 0x1
 7722 06b6 50       		.byte	0x50
 7723 06b7 9F       		.byte	0x9f
 7724 06b8 00000000 		.4byte	0
 7725 06bc 00000000 		.4byte	0
 7726              	.LLST36:
 7727 06c0 00000000 		.4byte	.LVL118
ARM GAS  /var/folders/7z/kps_xzfj7sn5l5gkyq8s9db00000gn/T//cck5P0LB.s 			page 137


 7728 06c4 04000000 		.4byte	.LVL119
 7729 06c8 0200     		.2byte	0x2
 7730 06ca 30       		.byte	0x30
 7731 06cb 9F       		.byte	0x9f
 7732 06cc 04000000 		.4byte	.LVL119
 7733 06d0 16000000 		.4byte	.LVL120
 7734 06d4 0900     		.2byte	0x9
 7735 06d6 73       		.byte	0x73
 7736 06d7 00       		.sleb128 0
 7737 06d8 0C       		.byte	0xc
 7738 06d9 3FFFFF00 		.4byte	0xffff3f
 7739 06dd 1A       		.byte	0x1a
 7740 06de 9F       		.byte	0x9f
 7741 06df 00000000 		.4byte	0
 7742 06e3 00000000 		.4byte	0
 7743              	.LLST37:
 7744 06e7 20000000 		.4byte	.LVL121
 7745 06eb 3E000000 		.4byte	.LVL123
 7746 06ef 0100     		.2byte	0x1
 7747 06f1 52       		.byte	0x52
 7748 06f2 3E000000 		.4byte	.LVL123
 7749 06f6 50000000 		.4byte	.LVL124
 7750 06fa 0200     		.2byte	0x2
 7751 06fc 71       		.byte	0x71
 7752 06fd 03       		.sleb128 3
 7753 06fe 00000000 		.4byte	0
 7754 0702 00000000 		.4byte	0
 7755              	.LLST38:
 7756 0706 20000000 		.4byte	.LVL121
 7757 070a 3E000000 		.4byte	.LVL123
 7758 070e 0700     		.2byte	0x7
 7759 0710 72       		.byte	0x72
 7760 0711 00       		.sleb128 0
 7761 0712 34       		.byte	0x34
 7762 0713 25       		.byte	0x25
 7763 0714 3A       		.byte	0x3a
 7764 0715 1E       		.byte	0x1e
 7765 0716 9F       		.byte	0x9f
 7766 0717 3E000000 		.4byte	.LVL123
 7767 071b 50000000 		.4byte	.LVL124
 7768 071f 0900     		.2byte	0x9
 7769 0721 71       		.byte	0x71
 7770 0722 03       		.sleb128 3
 7771 0723 94       		.byte	0x94
 7772 0724 01       		.byte	0x1
 7773 0725 34       		.byte	0x34
 7774 0726 25       		.byte	0x25
 7775 0727 3A       		.byte	0x3a
 7776 0728 1E       		.byte	0x1e
 7777 0729 9F       		.byte	0x9f
 7778 072a 00000000 		.4byte	0
 7779 072e 00000000 		.4byte	0
 7780              	.LLST39:
 7781 0732 00000000 		.4byte	.LVL125
 7782 0736 1E000000 		.4byte	.LVL127
 7783 073a 0100     		.2byte	0x1
 7784 073c 50       		.byte	0x50
ARM GAS  /var/folders/7z/kps_xzfj7sn5l5gkyq8s9db00000gn/T//cck5P0LB.s 			page 138


 7785 073d 1E000000 		.4byte	.LVL127
 7786 0741 AA000000 		.4byte	.LVL155
 7787 0745 0400     		.2byte	0x4
 7788 0747 F3       		.byte	0xf3
 7789 0748 01       		.uleb128 0x1
 7790 0749 50       		.byte	0x50
 7791 074a 9F       		.byte	0x9f
 7792 074b AA000000 		.4byte	.LVL155
 7793 074f BA000000 		.4byte	.LVL156
 7794 0753 0100     		.2byte	0x1
 7795 0755 50       		.byte	0x50
 7796 0756 BA000000 		.4byte	.LVL156
 7797 075a F4000000 		.4byte	.LVL159
 7798 075e 0400     		.2byte	0x4
 7799 0760 F3       		.byte	0xf3
 7800 0761 01       		.uleb128 0x1
 7801 0762 50       		.byte	0x50
 7802 0763 9F       		.byte	0x9f
 7803 0764 F4000000 		.4byte	.LVL159
 7804 0768 00010000 		.4byte	.LVL160
 7805 076c 0100     		.2byte	0x1
 7806 076e 50       		.byte	0x50
 7807 076f 00010000 		.4byte	.LVL160
 7808 0773 0C010000 		.4byte	.LFE127
 7809 0777 0400     		.2byte	0x4
 7810 0779 F3       		.byte	0xf3
 7811 077a 01       		.uleb128 0x1
 7812 077b 50       		.byte	0x50
 7813 077c 9F       		.byte	0x9f
 7814 077d 00000000 		.4byte	0
 7815 0781 00000000 		.4byte	0
 7816              	.LLST40:
 7817 0785 00000000 		.4byte	.LVL125
 7818 0789 96000000 		.4byte	.LVL153
 7819 078d 0100     		.2byte	0x1
 7820 078f 52       		.byte	0x52
 7821 0790 96000000 		.4byte	.LVL153
 7822 0794 AA000000 		.4byte	.LVL155
 7823 0798 0400     		.2byte	0x4
 7824 079a F3       		.byte	0xf3
 7825 079b 01       		.uleb128 0x1
 7826 079c 52       		.byte	0x52
 7827 079d 9F       		.byte	0x9f
 7828 079e AA000000 		.4byte	.LVL155
 7829 07a2 CC000000 		.4byte	.LVL157
 7830 07a6 0100     		.2byte	0x1
 7831 07a8 52       		.byte	0x52
 7832 07a9 CC000000 		.4byte	.LVL157
 7833 07ad F4000000 		.4byte	.LVL159
 7834 07b1 0400     		.2byte	0x4
 7835 07b3 F3       		.byte	0xf3
 7836 07b4 01       		.uleb128 0x1
 7837 07b5 52       		.byte	0x52
 7838 07b6 9F       		.byte	0x9f
 7839 07b7 F4000000 		.4byte	.LVL159
 7840 07bb 0C010000 		.4byte	.LFE127
 7841 07bf 0100     		.2byte	0x1
ARM GAS  /var/folders/7z/kps_xzfj7sn5l5gkyq8s9db00000gn/T//cck5P0LB.s 			page 139


 7842 07c1 52       		.byte	0x52
 7843 07c2 00000000 		.4byte	0
 7844 07c6 00000000 		.4byte	0
 7845              	.LLST41:
 7846 07ca 00000000 		.4byte	.LVL125
 7847 07ce A8000000 		.4byte	.LVL154
 7848 07d2 0200     		.2byte	0x2
 7849 07d4 30       		.byte	0x30
 7850 07d5 9F       		.byte	0x9f
 7851 07d6 A8000000 		.4byte	.LVL154
 7852 07da AA000000 		.4byte	.LVL155
 7853 07de 0100     		.2byte	0x1
 7854 07e0 56       		.byte	0x56
 7855 07e1 AA000000 		.4byte	.LVL155
 7856 07e5 D6000000 		.4byte	.LVL158
 7857 07e9 0200     		.2byte	0x2
 7858 07eb 30       		.byte	0x30
 7859 07ec 9F       		.byte	0x9f
 7860 07ed D6000000 		.4byte	.LVL158
 7861 07f1 F4000000 		.4byte	.LVL159
 7862 07f5 0100     		.2byte	0x1
 7863 07f7 56       		.byte	0x56
 7864 07f8 F4000000 		.4byte	.LVL159
 7865 07fc 0C010000 		.4byte	.LFE127
 7866 0800 0200     		.2byte	0x2
 7867 0802 30       		.byte	0x30
 7868 0803 9F       		.byte	0x9f
 7869 0804 00000000 		.4byte	0
 7870 0808 00000000 		.4byte	0
 7871              	.LLST42:
 7872 080c 14000000 		.4byte	.LVL126
 7873 0810 20000000 		.4byte	.LVL128
 7874 0814 0100     		.2byte	0x1
 7875 0816 53       		.byte	0x53
 7876 0817 28000000 		.4byte	.LVL130
 7877 081b 32000000 		.4byte	.LVL133
 7878 081f 0100     		.2byte	0x1
 7879 0821 53       		.byte	0x53
 7880 0822 00000000 		.4byte	0
 7881 0826 00000000 		.4byte	0
 7882              	.LLST43:
 7883 082a 14000000 		.4byte	.LVL126
 7884 082e 1E000000 		.4byte	.LVL127
 7885 0832 0200     		.2byte	0x2
 7886 0834 30       		.byte	0x30
 7887 0835 9F       		.byte	0x9f
 7888 0836 1E000000 		.4byte	.LVL127
 7889 083a 24000000 		.4byte	.LVL129
 7890 083e 0100     		.2byte	0x1
 7891 0840 50       		.byte	0x50
 7892 0841 28000000 		.4byte	.LVL130
 7893 0845 2C000000 		.4byte	.LVL131
 7894 0849 0100     		.2byte	0x1
 7895 084b 50       		.byte	0x50
 7896 084c 00000000 		.4byte	0
 7897 0850 00000000 		.4byte	0
 7898              	.LLST44:
ARM GAS  /var/folders/7z/kps_xzfj7sn5l5gkyq8s9db00000gn/T//cck5P0LB.s 			page 140


 7899 0854 30000000 		.4byte	.LVL132
 7900 0858 3E000000 		.4byte	.LVL135
 7901 085c 0100     		.2byte	0x1
 7902 085e 50       		.byte	0x50
 7903 085f 46000000 		.4byte	.LVL137
 7904 0863 50000000 		.4byte	.LVL140
 7905 0867 0100     		.2byte	0x1
 7906 0869 50       		.byte	0x50
 7907 086a 00010000 		.4byte	.LVL160
 7908 086e 04010000 		.4byte	.LVL161
 7909 0872 0100     		.2byte	0x1
 7910 0874 50       		.byte	0x50
 7911 0875 00000000 		.4byte	0
 7912 0879 00000000 		.4byte	0
 7913              	.LLST45:
 7914 087d 30000000 		.4byte	.LVL132
 7915 0881 3C000000 		.4byte	.LVL134
 7916 0885 0200     		.2byte	0x2
 7917 0887 30       		.byte	0x30
 7918 0888 9F       		.byte	0x9f
 7919 0889 3C000000 		.4byte	.LVL134
 7920 088d 42000000 		.4byte	.LVL136
 7921 0891 0100     		.2byte	0x1
 7922 0893 54       		.byte	0x54
 7923 0894 46000000 		.4byte	.LVL137
 7924 0898 4A000000 		.4byte	.LVL138
 7925 089c 0100     		.2byte	0x1
 7926 089e 54       		.byte	0x54
 7927 089f 00010000 		.4byte	.LVL160
 7928 08a3 04010000 		.4byte	.LVL161
 7929 08a7 0200     		.2byte	0x2
 7930 08a9 30       		.byte	0x30
 7931 08aa 9F       		.byte	0x9f
 7932 08ab 00000000 		.4byte	0
 7933 08af 00000000 		.4byte	0
 7934              	.LLST46:
 7935 08b3 4E000000 		.4byte	.LVL139
 7936 08b7 5C000000 		.4byte	.LVL142
 7937 08bb 0100     		.2byte	0x1
 7938 08bd 54       		.byte	0x54
 7939 08be 64000000 		.4byte	.LVL144
 7940 08c2 76000000 		.4byte	.LVL147
 7941 08c6 0100     		.2byte	0x1
 7942 08c8 54       		.byte	0x54
 7943 08c9 04010000 		.4byte	.LVL161
 7944 08cd 0C010000 		.4byte	.LFE127
 7945 08d1 0100     		.2byte	0x1
 7946 08d3 54       		.byte	0x54
 7947 08d4 00000000 		.4byte	0
 7948 08d8 00000000 		.4byte	0
 7949              	.LLST47:
 7950 08dc 4E000000 		.4byte	.LVL139
 7951 08e0 5A000000 		.4byte	.LVL141
 7952 08e4 0200     		.2byte	0x2
 7953 08e6 30       		.byte	0x30
 7954 08e7 9F       		.byte	0x9f
 7955 08e8 5A000000 		.4byte	.LVL141
ARM GAS  /var/folders/7z/kps_xzfj7sn5l5gkyq8s9db00000gn/T//cck5P0LB.s 			page 141


 7956 08ec 60000000 		.4byte	.LVL143
 7957 08f0 0100     		.2byte	0x1
 7958 08f2 56       		.byte	0x56
 7959 08f3 64000000 		.4byte	.LVL144
 7960 08f7 68000000 		.4byte	.LVL145
 7961 08fb 0100     		.2byte	0x1
 7962 08fd 56       		.byte	0x56
 7963 08fe 04010000 		.4byte	.LVL161
 7964 0902 0C010000 		.4byte	.LFE127
 7965 0906 0200     		.2byte	0x2
 7966 0908 30       		.byte	0x30
 7967 0909 9F       		.byte	0x9f
 7968 090a 00000000 		.4byte	0
 7969 090e 00000000 		.4byte	0
 7970              	.LLST48:
 7971 0912 6E000000 		.4byte	.LVL146
 7972 0916 80000000 		.4byte	.LVL149
 7973 091a 0100     		.2byte	0x1
 7974 091c 5E       		.byte	0x5e
 7975 091d 8C000000 		.4byte	.LVL151
 7976 0921 AA000000 		.4byte	.LVL155
 7977 0925 0100     		.2byte	0x1
 7978 0927 5E       		.byte	0x5e
 7979 0928 00000000 		.4byte	0
 7980 092c 00000000 		.4byte	0
 7981              	.LLST49:
 7982 0930 6E000000 		.4byte	.LVL146
 7983 0934 7C000000 		.4byte	.LVL148
 7984 0938 0200     		.2byte	0x2
 7985 093a 30       		.byte	0x30
 7986 093b 9F       		.byte	0x9f
 7987 093c 7C000000 		.4byte	.LVL148
 7988 0940 86000000 		.4byte	.LVL150
 7989 0944 0100     		.2byte	0x1
 7990 0946 56       		.byte	0x56
 7991 0947 8C000000 		.4byte	.LVL151
 7992 094b 90000000 		.4byte	.LVL152
 7993 094f 0100     		.2byte	0x1
 7994 0951 56       		.byte	0x56
 7995 0952 00000000 		.4byte	0
 7996 0956 00000000 		.4byte	0
 7997              	.LLST50:
 7998 095a 00000000 		.4byte	.LVL163
 7999 095e 4A000000 		.4byte	.LVL169
 8000 0962 0100     		.2byte	0x1
 8001 0964 50       		.byte	0x50
 8002 0965 4A000000 		.4byte	.LVL169
 8003 0969 8C000000 		.4byte	.LFE129
 8004 096d 0400     		.2byte	0x4
 8005 096f F3       		.byte	0xf3
 8006 0970 01       		.uleb128 0x1
 8007 0971 50       		.byte	0x50
 8008 0972 9F       		.byte	0x9f
 8009 0973 00000000 		.4byte	0
 8010 0977 00000000 		.4byte	0
 8011              	.LLST51:
 8012 097b 00000000 		.4byte	.LVL163
ARM GAS  /var/folders/7z/kps_xzfj7sn5l5gkyq8s9db00000gn/T//cck5P0LB.s 			page 142


 8013 097f 20000000 		.4byte	.LVL166
 8014 0983 0100     		.2byte	0x1
 8015 0985 51       		.byte	0x51
 8016 0986 20000000 		.4byte	.LVL166
 8017 098a 8C000000 		.4byte	.LFE129
 8018 098e 0400     		.2byte	0x4
 8019 0990 F3       		.byte	0xf3
 8020 0991 01       		.uleb128 0x1
 8021 0992 51       		.byte	0x51
 8022 0993 9F       		.byte	0x9f
 8023 0994 00000000 		.4byte	0
 8024 0998 00000000 		.4byte	0
 8025              	.LLST52:
 8026 099c 00000000 		.4byte	.LVL163
 8027 09a0 0A000000 		.4byte	.LVL164
 8028 09a4 0200     		.2byte	0x2
 8029 09a6 30       		.byte	0x30
 8030 09a7 9F       		.byte	0x9f
 8031 09a8 0A000000 		.4byte	.LVL164
 8032 09ac 30000000 		.4byte	.LVL167
 8033 09b0 0100     		.2byte	0x1
 8034 09b2 53       		.byte	0x53
 8035 09b3 00000000 		.4byte	0
 8036 09b7 00000000 		.4byte	0
 8037              	.LLST53:
 8038 09bb 44000000 		.4byte	.LVL168
 8039 09bf 5E000000 		.4byte	.LVL170
 8040 09c3 0100     		.2byte	0x1
 8041 09c5 55       		.byte	0x55
 8042 09c6 5E000000 		.4byte	.LVL170
 8043 09ca 82000000 		.4byte	.LVL171
 8044 09ce 0200     		.2byte	0x2
 8045 09d0 72       		.byte	0x72
 8046 09d1 00       		.sleb128 0
 8047 09d2 00000000 		.4byte	0
 8048 09d6 00000000 		.4byte	0
 8049              	.LLST54:
 8050 09da 44000000 		.4byte	.LVL168
 8051 09de 5E000000 		.4byte	.LVL170
 8052 09e2 0700     		.2byte	0x7
 8053 09e4 75       		.byte	0x75
 8054 09e5 00       		.sleb128 0
 8055 09e6 34       		.byte	0x34
 8056 09e7 25       		.byte	0x25
 8057 09e8 3A       		.byte	0x3a
 8058 09e9 1E       		.byte	0x1e
 8059 09ea 9F       		.byte	0x9f
 8060 09eb 5E000000 		.4byte	.LVL170
 8061 09ef 82000000 		.4byte	.LVL171
 8062 09f3 0900     		.2byte	0x9
 8063 09f5 72       		.byte	0x72
 8064 09f6 00       		.sleb128 0
 8065 09f7 94       		.byte	0x94
 8066 09f8 01       		.byte	0x1
 8067 09f9 34       		.byte	0x34
 8068 09fa 25       		.byte	0x25
 8069 09fb 3A       		.byte	0x3a
ARM GAS  /var/folders/7z/kps_xzfj7sn5l5gkyq8s9db00000gn/T//cck5P0LB.s 			page 143


 8070 09fc 1E       		.byte	0x1e
 8071 09fd 9F       		.byte	0x9f
 8072 09fe 00000000 		.4byte	0
 8073 0a02 00000000 		.4byte	0
 8074              	.LLST55:
 8075 0a06 00000000 		.4byte	.LVL173
 8076 0a0a 1E000000 		.4byte	.LVL175
 8077 0a0e 0100     		.2byte	0x1
 8078 0a10 50       		.byte	0x50
 8079 0a11 1E000000 		.4byte	.LVL175
 8080 0a15 50000000 		.4byte	.LVL181
 8081 0a19 0400     		.2byte	0x4
 8082 0a1b F3       		.byte	0xf3
 8083 0a1c 01       		.uleb128 0x1
 8084 0a1d 50       		.byte	0x50
 8085 0a1e 9F       		.byte	0x9f
 8086 0a1f 50000000 		.4byte	.LVL181
 8087 0a23 52000000 		.4byte	.LVL182
 8088 0a27 0100     		.2byte	0x1
 8089 0a29 50       		.byte	0x50
 8090 0a2a 52000000 		.4byte	.LVL182
 8091 0a2e 5C000000 		.4byte	.LFE130
 8092 0a32 0400     		.2byte	0x4
 8093 0a34 F3       		.byte	0xf3
 8094 0a35 01       		.uleb128 0x1
 8095 0a36 50       		.byte	0x50
 8096 0a37 9F       		.byte	0x9f
 8097 0a38 00000000 		.4byte	0
 8098 0a3c 00000000 		.4byte	0
 8099              	.LLST56:
 8100 0a40 00000000 		.4byte	.LVL173
 8101 0a44 20000000 		.4byte	.LVL176
 8102 0a48 0100     		.2byte	0x1
 8103 0a4a 51       		.byte	0x51
 8104 0a4b 20000000 		.4byte	.LVL176
 8105 0a4f 50000000 		.4byte	.LVL181
 8106 0a53 0400     		.2byte	0x4
 8107 0a55 F3       		.byte	0xf3
 8108 0a56 01       		.uleb128 0x1
 8109 0a57 51       		.byte	0x51
 8110 0a58 9F       		.byte	0x9f
 8111 0a59 50000000 		.4byte	.LVL181
 8112 0a5d 5C000000 		.4byte	.LFE130
 8113 0a61 0100     		.2byte	0x1
 8114 0a63 51       		.byte	0x51
 8115 0a64 00000000 		.4byte	0
 8116 0a68 00000000 		.4byte	0
 8117              	.LLST57:
 8118 0a6c 0E000000 		.4byte	.LVL174
 8119 0a70 22000000 		.4byte	.LVL177
 8120 0a74 0200     		.2byte	0x2
 8121 0a76 30       		.byte	0x30
 8122 0a77 9F       		.byte	0x9f
 8123 0a78 22000000 		.4byte	.LVL177
 8124 0a7c 24000000 		.4byte	.LVL178
 8125 0a80 0100     		.2byte	0x1
 8126 0a82 52       		.byte	0x52
ARM GAS  /var/folders/7z/kps_xzfj7sn5l5gkyq8s9db00000gn/T//cck5P0LB.s 			page 144


 8127 0a83 36000000 		.4byte	.LVL179
 8128 0a87 44000000 		.4byte	.LVL180
 8129 0a8b 0100     		.2byte	0x1
 8130 0a8d 52       		.byte	0x52
 8131 0a8e 50000000 		.4byte	.LVL181
 8132 0a92 5C000000 		.4byte	.LFE130
 8133 0a96 0200     		.2byte	0x2
 8134 0a98 30       		.byte	0x30
 8135 0a99 9F       		.byte	0x9f
 8136 0a9a 00000000 		.4byte	0
 8137 0a9e 00000000 		.4byte	0
 8138              	.LLST58:
 8139 0aa2 0E000000 		.4byte	.LVL174
 8140 0aa6 44000000 		.4byte	.LVL180
 8141 0aaa 0200     		.2byte	0x2
 8142 0aac 30       		.byte	0x30
 8143 0aad 9F       		.byte	0x9f
 8144 0aae 44000000 		.4byte	.LVL180
 8145 0ab2 50000000 		.4byte	.LVL181
 8146 0ab6 0100     		.2byte	0x1
 8147 0ab8 50       		.byte	0x50
 8148 0ab9 50000000 		.4byte	.LVL181
 8149 0abd 54000000 		.4byte	.LVL183
 8150 0ac1 0200     		.2byte	0x2
 8151 0ac3 30       		.byte	0x30
 8152 0ac4 9F       		.byte	0x9f
 8153 0ac5 54000000 		.4byte	.LVL183
 8154 0ac9 5C000000 		.4byte	.LFE130
 8155 0acd 0200     		.2byte	0x2
 8156 0acf 31       		.byte	0x31
 8157 0ad0 9F       		.byte	0x9f
 8158 0ad1 00000000 		.4byte	0
 8159 0ad5 00000000 		.4byte	0
 8160              	.LLST59:
 8161 0ad9 00000000 		.4byte	.LVL184
 8162 0add 06000000 		.4byte	.LVL185
 8163 0ae1 0100     		.2byte	0x1
 8164 0ae3 52       		.byte	0x52
 8165 0ae4 06000000 		.4byte	.LVL185
 8166 0ae8 28000000 		.4byte	.LFE131
 8167 0aec 0400     		.2byte	0x4
 8168 0aee F3       		.byte	0xf3
 8169 0aef 01       		.uleb128 0x1
 8170 0af0 52       		.byte	0x52
 8171 0af1 9F       		.byte	0x9f
 8172 0af2 00000000 		.4byte	0
 8173 0af6 00000000 		.4byte	0
 8174              	.LLST60:
 8175 0afa 00000000 		.4byte	.LVL184
 8176 0afe 06000000 		.4byte	.LVL185
 8177 0b02 0200     		.2byte	0x2
 8178 0b04 30       		.byte	0x30
 8179 0b05 9F       		.byte	0x9f
 8180 0b06 06000000 		.4byte	.LVL185
 8181 0b0a 1C000000 		.4byte	.LVL186
 8182 0b0e 0100     		.2byte	0x1
 8183 0b10 52       		.byte	0x52
ARM GAS  /var/folders/7z/kps_xzfj7sn5l5gkyq8s9db00000gn/T//cck5P0LB.s 			page 145


 8184 0b11 1C000000 		.4byte	.LVL186
 8185 0b15 28000000 		.4byte	.LFE131
 8186 0b19 0700     		.2byte	0x7
 8187 0b1b F3       		.byte	0xf3
 8188 0b1c 01       		.uleb128 0x1
 8189 0b1d 52       		.byte	0x52
 8190 0b1e 71       		.byte	0x71
 8191 0b1f 00       		.sleb128 0
 8192 0b20 21       		.byte	0x21
 8193 0b21 9F       		.byte	0x9f
 8194 0b22 00000000 		.4byte	0
 8195 0b26 00000000 		.4byte	0
 8196              	.LLST61:
 8197 0b2a 00000000 		.4byte	.LVL187
 8198 0b2e 0A000000 		.4byte	.LVL188
 8199 0b32 0100     		.2byte	0x1
 8200 0b34 50       		.byte	0x50
 8201 0b35 0A000000 		.4byte	.LVL188
 8202 0b39 18000000 		.4byte	.LFE132
 8203 0b3d 0400     		.2byte	0x4
 8204 0b3f F3       		.byte	0xf3
 8205 0b40 01       		.uleb128 0x1
 8206 0b41 50       		.byte	0x50
 8207 0b42 9F       		.byte	0x9f
 8208 0b43 00000000 		.4byte	0
 8209 0b47 00000000 		.4byte	0
 8210              	.LLST62:
 8211 0b4b 00000000 		.4byte	.LVL187
 8212 0b4f 10000000 		.4byte	.LVL189
 8213 0b53 0200     		.2byte	0x2
 8214 0b55 30       		.byte	0x30
 8215 0b56 9F       		.byte	0x9f
 8216 0b57 10000000 		.4byte	.LVL189
 8217 0b5b 18000000 		.4byte	.LFE132
 8218 0b5f 0100     		.2byte	0x1
 8219 0b61 50       		.byte	0x50
 8220 0b62 00000000 		.4byte	0
 8221 0b66 00000000 		.4byte	0
 8222              	.LLST63:
 8223 0b6a 00000000 		.4byte	.LVL190
 8224 0b6e 18000000 		.4byte	.LVL191
 8225 0b72 0100     		.2byte	0x1
 8226 0b74 50       		.byte	0x50
 8227 0b75 18000000 		.4byte	.LVL191
 8228 0b79 24000000 		.4byte	.LFE133
 8229 0b7d 0400     		.2byte	0x4
 8230 0b7f F3       		.byte	0xf3
 8231 0b80 01       		.uleb128 0x1
 8232 0b81 50       		.byte	0x50
 8233 0b82 9F       		.byte	0x9f
 8234 0b83 00000000 		.4byte	0
 8235 0b87 00000000 		.4byte	0
 8236              	.LLST64:
 8237 0b8b 00000000 		.4byte	.LVL193
 8238 0b8f 38000000 		.4byte	.LVL198
 8239 0b93 0100     		.2byte	0x1
 8240 0b95 50       		.byte	0x50
ARM GAS  /var/folders/7z/kps_xzfj7sn5l5gkyq8s9db00000gn/T//cck5P0LB.s 			page 146


 8241 0b96 38000000 		.4byte	.LVL198
 8242 0b9a 4A000000 		.4byte	.LVL200
 8243 0b9e 0400     		.2byte	0x4
 8244 0ba0 F3       		.byte	0xf3
 8245 0ba1 01       		.uleb128 0x1
 8246 0ba2 50       		.byte	0x50
 8247 0ba3 9F       		.byte	0x9f
 8248 0ba4 4A000000 		.4byte	.LVL200
 8249 0ba8 52000000 		.4byte	.LVL202
 8250 0bac 0100     		.2byte	0x1
 8251 0bae 50       		.byte	0x50
 8252 0baf 52000000 		.4byte	.LVL202
 8253 0bb3 58000000 		.4byte	.LFE136
 8254 0bb7 0400     		.2byte	0x4
 8255 0bb9 F3       		.byte	0xf3
 8256 0bba 01       		.uleb128 0x1
 8257 0bbb 50       		.byte	0x50
 8258 0bbc 9F       		.byte	0x9f
 8259 0bbd 00000000 		.4byte	0
 8260 0bc1 00000000 		.4byte	0
 8261              	.LLST65:
 8262 0bc5 0E000000 		.4byte	.LVL194
 8263 0bc9 1E000000 		.4byte	.LVL195
 8264 0bcd 0200     		.2byte	0x2
 8265 0bcf 30       		.byte	0x30
 8266 0bd0 9F       		.byte	0x9f
 8267 0bd1 1E000000 		.4byte	.LVL195
 8268 0bd5 20000000 		.4byte	.LVL196
 8269 0bd9 0100     		.2byte	0x1
 8270 0bdb 52       		.byte	0x52
 8271 0bdc 32000000 		.4byte	.LVL197
 8272 0be0 3C000000 		.4byte	.LVL199
 8273 0be4 0100     		.2byte	0x1
 8274 0be6 52       		.byte	0x52
 8275 0be7 4A000000 		.4byte	.LVL200
 8276 0beb 58000000 		.4byte	.LFE136
 8277 0bef 0200     		.2byte	0x2
 8278 0bf1 30       		.byte	0x30
 8279 0bf2 9F       		.byte	0x9f
 8280 0bf3 00000000 		.4byte	0
 8281 0bf7 00000000 		.4byte	0
 8282              	.LLST66:
 8283 0bfb 0E000000 		.4byte	.LVL194
 8284 0bff 3C000000 		.4byte	.LVL199
 8285 0c03 0200     		.2byte	0x2
 8286 0c05 30       		.byte	0x30
 8287 0c06 9F       		.byte	0x9f
 8288 0c07 3C000000 		.4byte	.LVL199
 8289 0c0b 4A000000 		.4byte	.LVL200
 8290 0c0f 0100     		.2byte	0x1
 8291 0c11 50       		.byte	0x50
 8292 0c12 4A000000 		.4byte	.LVL200
 8293 0c16 50000000 		.4byte	.LVL201
 8294 0c1a 0200     		.2byte	0x2
 8295 0c1c 30       		.byte	0x30
 8296 0c1d 9F       		.byte	0x9f
 8297 0c1e 50000000 		.4byte	.LVL201
ARM GAS  /var/folders/7z/kps_xzfj7sn5l5gkyq8s9db00000gn/T//cck5P0LB.s 			page 147


 8298 0c22 58000000 		.4byte	.LFE136
 8299 0c26 0200     		.2byte	0x2
 8300 0c28 31       		.byte	0x31
 8301 0c29 9F       		.byte	0x9f
 8302 0c2a 00000000 		.4byte	0
 8303 0c2e 00000000 		.4byte	0
 8304              	.LLST67:
 8305 0c32 00000000 		.4byte	.LVL203
 8306 0c36 1E000000 		.4byte	.LVL205
 8307 0c3a 0100     		.2byte	0x1
 8308 0c3c 50       		.byte	0x50
 8309 0c3d 1E000000 		.4byte	.LVL205
 8310 0c41 2C000000 		.4byte	.LFE137
 8311 0c45 0400     		.2byte	0x4
 8312 0c47 F3       		.byte	0xf3
 8313 0c48 01       		.uleb128 0x1
 8314 0c49 50       		.byte	0x50
 8315 0c4a 9F       		.byte	0x9f
 8316 0c4b 00000000 		.4byte	0
 8317 0c4f 00000000 		.4byte	0
 8318              	.LLST68:
 8319 0c53 00000000 		.4byte	.LVL203
 8320 0c57 1C000000 		.4byte	.LVL204
 8321 0c5b 0100     		.2byte	0x1
 8322 0c5d 51       		.byte	0x51
 8323 0c5e 1C000000 		.4byte	.LVL204
 8324 0c62 2C000000 		.4byte	.LFE137
 8325 0c66 0400     		.2byte	0x4
 8326 0c68 F3       		.byte	0xf3
 8327 0c69 01       		.uleb128 0x1
 8328 0c6a 51       		.byte	0x51
 8329 0c6b 9F       		.byte	0x9f
 8330 0c6c 00000000 		.4byte	0
 8331 0c70 00000000 		.4byte	0
 8332              	.LLST69:
 8333 0c74 00000000 		.4byte	.LVL206
 8334 0c78 1E000000 		.4byte	.LVL208
 8335 0c7c 0100     		.2byte	0x1
 8336 0c7e 50       		.byte	0x50
 8337 0c7f 1E000000 		.4byte	.LVL208
 8338 0c83 2C000000 		.4byte	.LFE139
 8339 0c87 0400     		.2byte	0x4
 8340 0c89 F3       		.byte	0xf3
 8341 0c8a 01       		.uleb128 0x1
 8342 0c8b 50       		.byte	0x50
 8343 0c8c 9F       		.byte	0x9f
 8344 0c8d 00000000 		.4byte	0
 8345 0c91 00000000 		.4byte	0
 8346              	.LLST70:
 8347 0c95 00000000 		.4byte	.LVL206
 8348 0c99 1C000000 		.4byte	.LVL207
 8349 0c9d 0100     		.2byte	0x1
 8350 0c9f 51       		.byte	0x51
 8351 0ca0 1C000000 		.4byte	.LVL207
 8352 0ca4 2C000000 		.4byte	.LFE139
 8353 0ca8 0400     		.2byte	0x4
 8354 0caa F3       		.byte	0xf3
ARM GAS  /var/folders/7z/kps_xzfj7sn5l5gkyq8s9db00000gn/T//cck5P0LB.s 			page 148


 8355 0cab 01       		.uleb128 0x1
 8356 0cac 51       		.byte	0x51
 8357 0cad 9F       		.byte	0x9f
 8358 0cae 00000000 		.4byte	0
 8359 0cb2 00000000 		.4byte	0
 8360              	.LLST71:
 8361 0cb6 00000000 		.4byte	.LVL209
 8362 0cba 13000000 		.4byte	.LVL210-1
 8363 0cbe 0100     		.2byte	0x1
 8364 0cc0 50       		.byte	0x50
 8365 0cc1 13000000 		.4byte	.LVL210-1
 8366 0cc5 2C000000 		.4byte	.LVL214
 8367 0cc9 0100     		.2byte	0x1
 8368 0ccb 56       		.byte	0x56
 8369 0ccc 2C000000 		.4byte	.LVL214
 8370 0cd0 30000000 		.4byte	.LFE140
 8371 0cd4 0400     		.2byte	0x4
 8372 0cd6 F3       		.byte	0xf3
 8373 0cd7 01       		.uleb128 0x1
 8374 0cd8 50       		.byte	0x50
 8375 0cd9 9F       		.byte	0x9f
 8376 0cda 00000000 		.4byte	0
 8377 0cde 00000000 		.4byte	0
 8378              	.LLST72:
 8379 0ce2 00000000 		.4byte	.LVL209
 8380 0ce6 13000000 		.4byte	.LVL210-1
 8381 0cea 0100     		.2byte	0x1
 8382 0cec 51       		.byte	0x51
 8383 0ced 13000000 		.4byte	.LVL210-1
 8384 0cf1 18000000 		.4byte	.LVL211
 8385 0cf5 0100     		.2byte	0x1
 8386 0cf7 55       		.byte	0x55
 8387 0cf8 18000000 		.4byte	.LVL211
 8388 0cfc 30000000 		.4byte	.LFE140
 8389 0d00 0400     		.2byte	0x4
 8390 0d02 F3       		.byte	0xf3
 8391 0d03 01       		.uleb128 0x1
 8392 0d04 51       		.byte	0x51
 8393 0d05 9F       		.byte	0x9f
 8394 0d06 00000000 		.4byte	0
 8395 0d0a 00000000 		.4byte	0
 8396              	.LLST73:
 8397 0d0e 00000000 		.4byte	.LVL209
 8398 0d12 22000000 		.4byte	.LVL212
 8399 0d16 0200     		.2byte	0x2
 8400 0d18 30       		.byte	0x30
 8401 0d19 9F       		.byte	0x9f
 8402 0d1a 22000000 		.4byte	.LVL212
 8403 0d1e 24000000 		.4byte	.LVL213
 8404 0d22 0200     		.2byte	0x2
 8405 0d24 31       		.byte	0x31
 8406 0d25 9F       		.byte	0x9f
 8407 0d26 24000000 		.4byte	.LVL213
 8408 0d2a 30000000 		.4byte	.LFE140
 8409 0d2e 0100     		.2byte	0x1
 8410 0d30 50       		.byte	0x50
 8411 0d31 00000000 		.4byte	0
ARM GAS  /var/folders/7z/kps_xzfj7sn5l5gkyq8s9db00000gn/T//cck5P0LB.s 			page 149


 8412 0d35 00000000 		.4byte	0
 8413              	.LLST74:
 8414 0d39 00000000 		.4byte	.LVL215
 8415 0d3d 11000000 		.4byte	.LVL216-1
 8416 0d41 0100     		.2byte	0x1
 8417 0d43 50       		.byte	0x50
 8418 0d44 11000000 		.4byte	.LVL216-1
 8419 0d48 40000000 		.4byte	.LFE141
 8420 0d4c 0400     		.2byte	0x4
 8421 0d4e F3       		.byte	0xf3
 8422 0d4f 01       		.uleb128 0x1
 8423 0d50 50       		.byte	0x50
 8424 0d51 9F       		.byte	0x9f
 8425 0d52 00000000 		.4byte	0
 8426 0d56 00000000 		.4byte	0
 8427              	.LLST75:
 8428 0d5a 00000000 		.4byte	.LVL215
 8429 0d5e 28000000 		.4byte	.LVL217
 8430 0d62 0200     		.2byte	0x2
 8431 0d64 30       		.byte	0x30
 8432 0d65 9F       		.byte	0x9f
 8433 0d66 28000000 		.4byte	.LVL217
 8434 0d6a 2A000000 		.4byte	.LVL218
 8435 0d6e 0200     		.2byte	0x2
 8436 0d70 31       		.byte	0x31
 8437 0d71 9F       		.byte	0x9f
 8438 0d72 2A000000 		.4byte	.LVL218
 8439 0d76 32000000 		.4byte	.LVL219
 8440 0d7a 0100     		.2byte	0x1
 8441 0d7c 50       		.byte	0x50
 8442 0d7d 32000000 		.4byte	.LVL219
 8443 0d81 40000000 		.4byte	.LFE141
 8444 0d85 0200     		.2byte	0x2
 8445 0d87 30       		.byte	0x30
 8446 0d88 9F       		.byte	0x9f
 8447 0d89 00000000 		.4byte	0
 8448 0d8d 00000000 		.4byte	0
 8449              	.LLST76:
 8450 0d91 00000000 		.4byte	.LVL221
 8451 0d95 18000000 		.4byte	.LVL222
 8452 0d99 0100     		.2byte	0x1
 8453 0d9b 50       		.byte	0x50
 8454 0d9c 18000000 		.4byte	.LVL222
 8455 0da0 24000000 		.4byte	.LFE143
 8456 0da4 0400     		.2byte	0x4
 8457 0da6 F3       		.byte	0xf3
 8458 0da7 01       		.uleb128 0x1
 8459 0da8 50       		.byte	0x50
 8460 0da9 9F       		.byte	0x9f
 8461 0daa 00000000 		.4byte	0
 8462 0dae 00000000 		.4byte	0
 8463              	.LLST77:
 8464 0db2 00000000 		.4byte	.LVL223
 8465 0db6 34000000 		.4byte	.LVL229
 8466 0dba 0100     		.2byte	0x1
 8467 0dbc 50       		.byte	0x50
 8468 0dbd 34000000 		.4byte	.LVL229
ARM GAS  /var/folders/7z/kps_xzfj7sn5l5gkyq8s9db00000gn/T//cck5P0LB.s 			page 150


 8469 0dc1 42000000 		.4byte	.LVL232
 8470 0dc5 0400     		.2byte	0x4
 8471 0dc7 F3       		.byte	0xf3
 8472 0dc8 01       		.uleb128 0x1
 8473 0dc9 50       		.byte	0x50
 8474 0dca 9F       		.byte	0x9f
 8475 0dcb 42000000 		.4byte	.LVL232
 8476 0dcf 44000000 		.4byte	.LVL233
 8477 0dd3 0100     		.2byte	0x1
 8478 0dd5 50       		.byte	0x50
 8479 0dd6 44000000 		.4byte	.LVL233
 8480 0dda 4C000000 		.4byte	.LFE144
 8481 0dde 0400     		.2byte	0x4
 8482 0de0 F3       		.byte	0xf3
 8483 0de1 01       		.uleb128 0x1
 8484 0de2 50       		.byte	0x50
 8485 0de3 9F       		.byte	0x9f
 8486 0de4 00000000 		.4byte	0
 8487 0de8 00000000 		.4byte	0
 8488              	.LLST78:
 8489 0dec 00000000 		.4byte	.LVL223
 8490 0df0 32000000 		.4byte	.LVL228
 8491 0df4 0100     		.2byte	0x1
 8492 0df6 52       		.byte	0x52
 8493 0df7 32000000 		.4byte	.LVL228
 8494 0dfb 42000000 		.4byte	.LVL232
 8495 0dff 0400     		.2byte	0x4
 8496 0e01 F3       		.byte	0xf3
 8497 0e02 01       		.uleb128 0x1
 8498 0e03 52       		.byte	0x52
 8499 0e04 9F       		.byte	0x9f
 8500 0e05 42000000 		.4byte	.LVL232
 8501 0e09 4C000000 		.4byte	.LFE144
 8502 0e0d 0100     		.2byte	0x1
 8503 0e0f 52       		.byte	0x52
 8504 0e10 00000000 		.4byte	0
 8505 0e14 00000000 		.4byte	0
 8506              	.LLST79:
 8507 0e18 00000000 		.4byte	.LVL223
 8508 0e1c 36000000 		.4byte	.LVL230
 8509 0e20 0200     		.2byte	0x2
 8510 0e22 30       		.byte	0x30
 8511 0e23 9F       		.byte	0x9f
 8512 0e24 36000000 		.4byte	.LVL230
 8513 0e28 38000000 		.4byte	.LVL231
 8514 0e2c 0200     		.2byte	0x2
 8515 0e2e 31       		.byte	0x31
 8516 0e2f 9F       		.byte	0x9f
 8517 0e30 38000000 		.4byte	.LVL231
 8518 0e34 42000000 		.4byte	.LVL232
 8519 0e38 0100     		.2byte	0x1
 8520 0e3a 50       		.byte	0x50
 8521 0e3b 42000000 		.4byte	.LVL232
 8522 0e3f 4C000000 		.4byte	.LFE144
 8523 0e43 0200     		.2byte	0x2
 8524 0e45 30       		.byte	0x30
 8525 0e46 9F       		.byte	0x9f
ARM GAS  /var/folders/7z/kps_xzfj7sn5l5gkyq8s9db00000gn/T//cck5P0LB.s 			page 151


 8526 0e47 00000000 		.4byte	0
 8527 0e4b 00000000 		.4byte	0
 8528              	.LLST80:
 8529 0e4f 00000000 		.4byte	.LVL223
 8530 0e53 1E000000 		.4byte	.LVL224
 8531 0e57 0200     		.2byte	0x2
 8532 0e59 30       		.byte	0x30
 8533 0e5a 9F       		.byte	0x9f
 8534 0e5b 1E000000 		.4byte	.LVL224
 8535 0e5f 20000000 		.4byte	.LVL225
 8536 0e63 0900     		.2byte	0x9
 8537 0e65 0C       		.byte	0xc
 8538 0e66 01000200 		.4byte	0x20001
 8539 0e6a 73       		.byte	0x73
 8540 0e6b 00       		.sleb128 0
 8541 0e6c 1C       		.byte	0x1c
 8542 0e6d 9F       		.byte	0x9f
 8543 0e6e 20000000 		.4byte	.LVL225
 8544 0e72 22000000 		.4byte	.LVL226
 8545 0e76 0700     		.2byte	0x7
 8546 0e78 40       		.byte	0x40
 8547 0e79 3D       		.byte	0x3d
 8548 0e7a 24       		.byte	0x24
 8549 0e7b 73       		.byte	0x73
 8550 0e7c 00       		.sleb128 0
 8551 0e7d 1C       		.byte	0x1c
 8552 0e7e 9F       		.byte	0x9f
 8553 0e7f 22000000 		.4byte	.LVL226
 8554 0e83 28000000 		.4byte	.LVL227
 8555 0e87 0900     		.2byte	0x9
 8556 0e89 0C       		.byte	0xc
 8557 0e8a 01000200 		.4byte	0x20001
 8558 0e8e 73       		.byte	0x73
 8559 0e8f 00       		.sleb128 0
 8560 0e90 1C       		.byte	0x1c
 8561 0e91 9F       		.byte	0x9f
 8562 0e92 00000000 		.4byte	0
 8563 0e96 00000000 		.4byte	0
 8564              	.LLST81:
 8565 0e9a 00000000 		.4byte	.LVL234
 8566 0e9e 18000000 		.4byte	.LVL237
 8567 0ea2 0100     		.2byte	0x1
 8568 0ea4 50       		.byte	0x50
 8569 0ea5 18000000 		.4byte	.LVL237
 8570 0ea9 28000000 		.4byte	.LVL239
 8571 0ead 0400     		.2byte	0x4
 8572 0eaf F3       		.byte	0xf3
 8573 0eb0 01       		.uleb128 0x1
 8574 0eb1 50       		.byte	0x50
 8575 0eb2 9F       		.byte	0x9f
 8576 0eb3 28000000 		.4byte	.LVL239
 8577 0eb7 34000000 		.4byte	.LFE145
 8578 0ebb 0100     		.2byte	0x1
 8579 0ebd 50       		.byte	0x50
 8580 0ebe 00000000 		.4byte	0
 8581 0ec2 00000000 		.4byte	0
 8582              	.LLST82:
ARM GAS  /var/folders/7z/kps_xzfj7sn5l5gkyq8s9db00000gn/T//cck5P0LB.s 			page 152


 8583 0ec6 00000000 		.4byte	.LVL234
 8584 0eca 1A000000 		.4byte	.LVL238
 8585 0ece 0100     		.2byte	0x1
 8586 0ed0 51       		.byte	0x51
 8587 0ed1 1A000000 		.4byte	.LVL238
 8588 0ed5 28000000 		.4byte	.LVL239
 8589 0ed9 0400     		.2byte	0x4
 8590 0edb F3       		.byte	0xf3
 8591 0edc 01       		.uleb128 0x1
 8592 0edd 51       		.byte	0x51
 8593 0ede 9F       		.byte	0x9f
 8594 0edf 28000000 		.4byte	.LVL239
 8595 0ee3 34000000 		.4byte	.LFE145
 8596 0ee7 0100     		.2byte	0x1
 8597 0ee9 51       		.byte	0x51
 8598 0eea 00000000 		.4byte	0
 8599 0eee 00000000 		.4byte	0
 8600              	.LLST83:
 8601 0ef2 00000000 		.4byte	.LVL234
 8602 0ef6 0E000000 		.4byte	.LVL235
 8603 0efa 0200     		.2byte	0x2
 8604 0efc 30       		.byte	0x30
 8605 0efd 9F       		.byte	0x9f
 8606 0efe 0E000000 		.4byte	.LVL235
 8607 0f02 2C000000 		.4byte	.LVL240
 8608 0f06 0100     		.2byte	0x1
 8609 0f08 53       		.byte	0x53
 8610 0f09 2E000000 		.4byte	.LVL241
 8611 0f0d 34000000 		.4byte	.LFE145
 8612 0f11 0100     		.2byte	0x1
 8613 0f13 53       		.byte	0x53
 8614 0f14 00000000 		.4byte	0
 8615 0f18 00000000 		.4byte	0
 8616              	.LLST84:
 8617 0f1c 00000000 		.4byte	.LVL242
 8618 0f20 48000000 		.4byte	.LVL248
 8619 0f24 0100     		.2byte	0x1
 8620 0f26 50       		.byte	0x50
 8621 0f27 48000000 		.4byte	.LVL248
 8622 0f2b B8000000 		.4byte	.LFE146
 8623 0f2f 0400     		.2byte	0x4
 8624 0f31 F3       		.byte	0xf3
 8625 0f32 01       		.uleb128 0x1
 8626 0f33 50       		.byte	0x50
 8627 0f34 9F       		.byte	0x9f
 8628 0f35 00000000 		.4byte	0
 8629 0f39 00000000 		.4byte	0
 8630              	.LLST85:
 8631 0f3d 00000000 		.4byte	.LVL242
 8632 0f41 7E000000 		.4byte	.LVL257
 8633 0f45 0100     		.2byte	0x1
 8634 0f47 51       		.byte	0x51
 8635 0f48 7E000000 		.4byte	.LVL257
 8636 0f4c B8000000 		.4byte	.LFE146
 8637 0f50 0400     		.2byte	0x4
 8638 0f52 F3       		.byte	0xf3
 8639 0f53 01       		.uleb128 0x1
ARM GAS  /var/folders/7z/kps_xzfj7sn5l5gkyq8s9db00000gn/T//cck5P0LB.s 			page 153


 8640 0f54 51       		.byte	0x51
 8641 0f55 9F       		.byte	0x9f
 8642 0f56 00000000 		.4byte	0
 8643 0f5a 00000000 		.4byte	0
 8644              	.LLST86:
 8645 0f5e 00000000 		.4byte	.LVL242
 8646 0f62 08000000 		.4byte	.LVL243
 8647 0f66 0200     		.2byte	0x2
 8648 0f68 30       		.byte	0x30
 8649 0f69 9F       		.byte	0x9f
 8650 0f6a 08000000 		.4byte	.LVL243
 8651 0f6e 22000000 		.4byte	.LVL245
 8652 0f72 0900     		.2byte	0x9
 8653 0f74 73       		.byte	0x73
 8654 0f75 00       		.sleb128 0
 8655 0f76 0C       		.byte	0xc
 8656 0f77 7F7F7F00 		.4byte	0x7f7f7f
 8657 0f7b 1A       		.byte	0x1a
 8658 0f7c 9F       		.byte	0x9f
 8659 0f7d 00000000 		.4byte	0
 8660 0f81 00000000 		.4byte	0
 8661              	.LLST87:
 8662 0f85 00000000 		.4byte	.LVL242
 8663 0f89 0A000000 		.4byte	.LVL244
 8664 0f8d 0200     		.2byte	0x2
 8665 0f8f 30       		.byte	0x30
 8666 0f90 9F       		.byte	0x9f
 8667 0f91 0A000000 		.4byte	.LVL244
 8668 0f95 2C000000 		.4byte	.LVL246
 8669 0f99 0900     		.2byte	0x9
 8670 0f9b 74       		.byte	0x74
 8671 0f9c 00       		.sleb128 0
 8672 0f9d 0C       		.byte	0xc
 8673 0f9e 3FFFFF00 		.4byte	0xffff3f
 8674 0fa2 1A       		.byte	0x1a
 8675 0fa3 9F       		.byte	0x9f
 8676 0fa4 00000000 		.4byte	0
 8677 0fa8 00000000 		.4byte	0
 8678              	.LLST88:
 8679 0fac 46000000 		.4byte	.LVL247
 8680 0fb0 60000000 		.4byte	.LVL250
 8681 0fb4 0100     		.2byte	0x1
 8682 0fb6 54       		.byte	0x54
 8683 0fb7 60000000 		.4byte	.LVL250
 8684 0fbb 76000000 		.4byte	.LVL253
 8685 0fbf 0200     		.2byte	0x2
 8686 0fc1 71       		.byte	0x71
 8687 0fc2 00       		.sleb128 0
 8688 0fc3 00000000 		.4byte	0
 8689 0fc7 00000000 		.4byte	0
 8690              	.LLST89:
 8691 0fcb 46000000 		.4byte	.LVL247
 8692 0fcf 60000000 		.4byte	.LVL250
 8693 0fd3 0700     		.2byte	0x7
 8694 0fd5 74       		.byte	0x74
 8695 0fd6 00       		.sleb128 0
 8696 0fd7 34       		.byte	0x34
ARM GAS  /var/folders/7z/kps_xzfj7sn5l5gkyq8s9db00000gn/T//cck5P0LB.s 			page 154


 8697 0fd8 25       		.byte	0x25
 8698 0fd9 3A       		.byte	0x3a
 8699 0fda 1E       		.byte	0x1e
 8700 0fdb 9F       		.byte	0x9f
 8701 0fdc 60000000 		.4byte	.LVL250
 8702 0fe0 76000000 		.4byte	.LVL253
 8703 0fe4 0900     		.2byte	0x9
 8704 0fe6 71       		.byte	0x71
 8705 0fe7 00       		.sleb128 0
 8706 0fe8 94       		.byte	0x94
 8707 0fe9 01       		.byte	0x1
 8708 0fea 34       		.byte	0x34
 8709 0feb 25       		.byte	0x25
 8710 0fec 3A       		.byte	0x3a
 8711 0fed 1E       		.byte	0x1e
 8712 0fee 9F       		.byte	0x9f
 8713 0fef 00000000 		.4byte	0
 8714 0ff3 00000000 		.4byte	0
 8715              	.LLST90:
 8716 0ff7 48000000 		.4byte	.LVL248
 8717 0ffb 64000000 		.4byte	.LVL251
 8718 0fff 0100     		.2byte	0x1
 8719 1001 50       		.byte	0x50
 8720 1002 64000000 		.4byte	.LVL251
 8721 1006 78000000 		.4byte	.LVL254
 8722 100a 0200     		.2byte	0x2
 8723 100c 71       		.byte	0x71
 8724 100d 01       		.sleb128 1
 8725 100e 00000000 		.4byte	0
 8726 1012 00000000 		.4byte	0
 8727              	.LLST91:
 8728 1016 48000000 		.4byte	.LVL248
 8729 101a 64000000 		.4byte	.LVL251
 8730 101e 0700     		.2byte	0x7
 8731 1020 70       		.byte	0x70
 8732 1021 00       		.sleb128 0
 8733 1022 34       		.byte	0x34
 8734 1023 25       		.byte	0x25
 8735 1024 3A       		.byte	0x3a
 8736 1025 1E       		.byte	0x1e
 8737 1026 9F       		.byte	0x9f
 8738 1027 64000000 		.4byte	.LVL251
 8739 102b 78000000 		.4byte	.LVL254
 8740 102f 0900     		.2byte	0x9
 8741 1031 71       		.byte	0x71
 8742 1032 01       		.sleb128 1
 8743 1033 94       		.byte	0x94
 8744 1034 01       		.byte	0x1
 8745 1035 34       		.byte	0x34
 8746 1036 25       		.byte	0x25
 8747 1037 3A       		.byte	0x3a
 8748 1038 1E       		.byte	0x1e
 8749 1039 9F       		.byte	0x9f
 8750 103a 00000000 		.4byte	0
 8751 103e 00000000 		.4byte	0
 8752              	.LLST92:
 8753 1042 4A000000 		.4byte	.LVL249
ARM GAS  /var/folders/7z/kps_xzfj7sn5l5gkyq8s9db00000gn/T//cck5P0LB.s 			page 155


 8754 1046 68000000 		.4byte	.LVL252
 8755 104a 0100     		.2byte	0x1
 8756 104c 53       		.byte	0x53
 8757 104d 68000000 		.4byte	.LVL252
 8758 1051 7A000000 		.4byte	.LVL255
 8759 1055 0200     		.2byte	0x2
 8760 1057 71       		.byte	0x71
 8761 1058 02       		.sleb128 2
 8762 1059 00000000 		.4byte	0
 8763 105d 00000000 		.4byte	0
 8764              	.LLST93:
 8765 1061 4A000000 		.4byte	.LVL249
 8766 1065 68000000 		.4byte	.LVL252
 8767 1069 0700     		.2byte	0x7
 8768 106b 73       		.byte	0x73
 8769 106c 00       		.sleb128 0
 8770 106d 34       		.byte	0x34
 8771 106e 25       		.byte	0x25
 8772 106f 3A       		.byte	0x3a
 8773 1070 1E       		.byte	0x1e
 8774 1071 9F       		.byte	0x9f
 8775 1072 68000000 		.4byte	.LVL252
 8776 1076 7A000000 		.4byte	.LVL255
 8777 107a 0900     		.2byte	0x9
 8778 107c 71       		.byte	0x71
 8779 107d 02       		.sleb128 2
 8780 107e 94       		.byte	0x94
 8781 107f 01       		.byte	0x1
 8782 1080 34       		.byte	0x34
 8783 1081 25       		.byte	0x25
 8784 1082 3A       		.byte	0x3a
 8785 1083 1E       		.byte	0x1e
 8786 1084 9F       		.byte	0x9f
 8787 1085 00000000 		.4byte	0
 8788 1089 00000000 		.4byte	0
 8789              	.LLST94:
 8790 108d 7C000000 		.4byte	.LVL256
 8791 1091 8E000000 		.4byte	.LVL259
 8792 1095 0100     		.2byte	0x1
 8793 1097 50       		.byte	0x50
 8794 1098 8E000000 		.4byte	.LVL259
 8795 109c AC000000 		.4byte	.LVL262
 8796 10a0 0200     		.2byte	0x2
 8797 10a2 72       		.byte	0x72
 8798 10a3 01       		.sleb128 1
 8799 10a4 00000000 		.4byte	0
 8800 10a8 00000000 		.4byte	0
 8801              	.LLST95:
 8802 10ac 7C000000 		.4byte	.LVL256
 8803 10b0 8E000000 		.4byte	.LVL259
 8804 10b4 0700     		.2byte	0x7
 8805 10b6 70       		.byte	0x70
 8806 10b7 00       		.sleb128 0
 8807 10b8 34       		.byte	0x34
 8808 10b9 25       		.byte	0x25
 8809 10ba 3A       		.byte	0x3a
 8810 10bb 1E       		.byte	0x1e
ARM GAS  /var/folders/7z/kps_xzfj7sn5l5gkyq8s9db00000gn/T//cck5P0LB.s 			page 156


 8811 10bc 9F       		.byte	0x9f
 8812 10bd 8E000000 		.4byte	.LVL259
 8813 10c1 AC000000 		.4byte	.LVL262
 8814 10c5 0900     		.2byte	0x9
 8815 10c7 72       		.byte	0x72
 8816 10c8 01       		.sleb128 1
 8817 10c9 94       		.byte	0x94
 8818 10ca 01       		.byte	0x1
 8819 10cb 34       		.byte	0x34
 8820 10cc 25       		.byte	0x25
 8821 10cd 3A       		.byte	0x3a
 8822 10ce 1E       		.byte	0x1e
 8823 10cf 9F       		.byte	0x9f
 8824 10d0 00000000 		.4byte	0
 8825 10d4 00000000 		.4byte	0
 8826              	.LLST96:
 8827 10d8 7E000000 		.4byte	.LVL257
 8828 10dc 96000000 		.4byte	.LVL260
 8829 10e0 0100     		.2byte	0x1
 8830 10e2 51       		.byte	0x51
 8831 10e3 96000000 		.4byte	.LVL260
 8832 10e7 AE000000 		.4byte	.LVL263
 8833 10eb 0200     		.2byte	0x2
 8834 10ed 72       		.byte	0x72
 8835 10ee 02       		.sleb128 2
 8836 10ef 00000000 		.4byte	0
 8837 10f3 00000000 		.4byte	0
 8838              	.LLST97:
 8839 10f7 7E000000 		.4byte	.LVL257
 8840 10fb 96000000 		.4byte	.LVL260
 8841 10ff 0700     		.2byte	0x7
 8842 1101 71       		.byte	0x71
 8843 1102 00       		.sleb128 0
 8844 1103 34       		.byte	0x34
 8845 1104 25       		.byte	0x25
 8846 1105 3A       		.byte	0x3a
 8847 1106 1E       		.byte	0x1e
 8848 1107 9F       		.byte	0x9f
 8849 1108 96000000 		.4byte	.LVL260
 8850 110c AE000000 		.4byte	.LVL263
 8851 1110 0900     		.2byte	0x9
 8852 1112 72       		.byte	0x72
 8853 1113 02       		.sleb128 2
 8854 1114 94       		.byte	0x94
 8855 1115 01       		.byte	0x1
 8856 1116 34       		.byte	0x34
 8857 1117 25       		.byte	0x25
 8858 1118 3A       		.byte	0x3a
 8859 1119 1E       		.byte	0x1e
 8860 111a 9F       		.byte	0x9f
 8861 111b 00000000 		.4byte	0
 8862 111f 00000000 		.4byte	0
 8863              	.LLST98:
 8864 1123 80000000 		.4byte	.LVL258
 8865 1127 9E000000 		.4byte	.LVL261
 8866 112b 0100     		.2byte	0x1
 8867 112d 53       		.byte	0x53
ARM GAS  /var/folders/7z/kps_xzfj7sn5l5gkyq8s9db00000gn/T//cck5P0LB.s 			page 157


 8868 112e 9E000000 		.4byte	.LVL261
 8869 1132 B0000000 		.4byte	.LVL264
 8870 1136 0200     		.2byte	0x2
 8871 1138 72       		.byte	0x72
 8872 1139 00       		.sleb128 0
 8873 113a 00000000 		.4byte	0
 8874 113e 00000000 		.4byte	0
 8875              	.LLST99:
 8876 1142 80000000 		.4byte	.LVL258
 8877 1146 9E000000 		.4byte	.LVL261
 8878 114a 0700     		.2byte	0x7
 8879 114c 73       		.byte	0x73
 8880 114d 00       		.sleb128 0
 8881 114e 34       		.byte	0x34
 8882 114f 25       		.byte	0x25
 8883 1150 3A       		.byte	0x3a
 8884 1151 1E       		.byte	0x1e
 8885 1152 9F       		.byte	0x9f
 8886 1153 9E000000 		.4byte	.LVL261
 8887 1157 B0000000 		.4byte	.LVL264
 8888 115b 0900     		.2byte	0x9
 8889 115d 72       		.byte	0x72
 8890 115e 00       		.sleb128 0
 8891 115f 94       		.byte	0x94
 8892 1160 01       		.byte	0x1
 8893 1161 34       		.byte	0x34
 8894 1162 25       		.byte	0x25
 8895 1163 3A       		.byte	0x3a
 8896 1164 1E       		.byte	0x1e
 8897 1165 9F       		.byte	0x9f
 8898 1166 00000000 		.4byte	0
 8899 116a 00000000 		.4byte	0
 8900              	.LLST100:
 8901 116e 00000000 		.4byte	.LVL265
 8902 1172 0A000000 		.4byte	.LVL266
 8903 1176 0100     		.2byte	0x1
 8904 1178 50       		.byte	0x50
 8905 1179 0A000000 		.4byte	.LVL266
 8906 117d 0E000000 		.4byte	.LVL267
 8907 1181 0400     		.2byte	0x4
 8908 1183 F3       		.byte	0xf3
 8909 1184 01       		.uleb128 0x1
 8910 1185 50       		.byte	0x50
 8911 1186 9F       		.byte	0x9f
 8912 1187 0E000000 		.4byte	.LVL267
 8913 118b 12000000 		.4byte	.LVL268
 8914 118f 0100     		.2byte	0x1
 8915 1191 50       		.byte	0x50
 8916 1192 12000000 		.4byte	.LVL268
 8917 1196 1C000000 		.4byte	.LFE148
 8918 119a 0400     		.2byte	0x4
 8919 119c F3       		.byte	0xf3
 8920 119d 01       		.uleb128 0x1
 8921 119e 50       		.byte	0x50
 8922 119f 9F       		.byte	0x9f
 8923 11a0 00000000 		.4byte	0
 8924 11a4 00000000 		.4byte	0
ARM GAS  /var/folders/7z/kps_xzfj7sn5l5gkyq8s9db00000gn/T//cck5P0LB.s 			page 158


 8925              	.LLST101:
 8926 11a8 00000000 		.4byte	.LVL269
 8927 11ac 0A000000 		.4byte	.LVL270
 8928 11b0 0100     		.2byte	0x1
 8929 11b2 50       		.byte	0x50
 8930 11b3 0A000000 		.4byte	.LVL270
 8931 11b7 0E000000 		.4byte	.LVL271
 8932 11bb 0400     		.2byte	0x4
 8933 11bd F3       		.byte	0xf3
 8934 11be 01       		.uleb128 0x1
 8935 11bf 50       		.byte	0x50
 8936 11c0 9F       		.byte	0x9f
 8937 11c1 0E000000 		.4byte	.LVL271
 8938 11c5 10000000 		.4byte	.LVL272
 8939 11c9 0100     		.2byte	0x1
 8940 11cb 50       		.byte	0x50
 8941 11cc 10000000 		.4byte	.LVL272
 8942 11d0 18000000 		.4byte	.LFE149
 8943 11d4 0400     		.2byte	0x4
 8944 11d6 F3       		.byte	0xf3
 8945 11d7 01       		.uleb128 0x1
 8946 11d8 50       		.byte	0x50
 8947 11d9 9F       		.byte	0x9f
 8948 11da 00000000 		.4byte	0
 8949 11de 00000000 		.4byte	0
 8950              	.LLST102:
 8951 11e2 00000000 		.4byte	.LVL273
 8952 11e6 0E000000 		.4byte	.LVL274
 8953 11ea 0100     		.2byte	0x1
 8954 11ec 50       		.byte	0x50
 8955 11ed 0E000000 		.4byte	.LVL274
 8956 11f1 18000000 		.4byte	.LFE150
 8957 11f5 0400     		.2byte	0x4
 8958 11f7 F3       		.byte	0xf3
 8959 11f8 01       		.uleb128 0x1
 8960 11f9 50       		.byte	0x50
 8961 11fa 9F       		.byte	0x9f
 8962 11fb 00000000 		.4byte	0
 8963 11ff 00000000 		.4byte	0
 8964              	.LLST103:
 8965 1203 00000000 		.4byte	.LVL275
 8966 1207 0E000000 		.4byte	.LVL276
 8967 120b 0100     		.2byte	0x1
 8968 120d 50       		.byte	0x50
 8969 120e 0E000000 		.4byte	.LVL276
 8970 1212 18000000 		.4byte	.LFE151
 8971 1216 0400     		.2byte	0x4
 8972 1218 F3       		.byte	0xf3
 8973 1219 01       		.uleb128 0x1
 8974 121a 50       		.byte	0x50
 8975 121b 9F       		.byte	0x9f
 8976 121c 00000000 		.4byte	0
 8977 1220 00000000 		.4byte	0
 8978              	.LLST104:
 8979 1224 00000000 		.4byte	.LVL277
 8980 1228 0E000000 		.4byte	.LVL278
 8981 122c 0100     		.2byte	0x1
ARM GAS  /var/folders/7z/kps_xzfj7sn5l5gkyq8s9db00000gn/T//cck5P0LB.s 			page 159


 8982 122e 50       		.byte	0x50
 8983 122f 0E000000 		.4byte	.LVL278
 8984 1233 18000000 		.4byte	.LFE152
 8985 1237 0400     		.2byte	0x4
 8986 1239 F3       		.byte	0xf3
 8987 123a 01       		.uleb128 0x1
 8988 123b 50       		.byte	0x50
 8989 123c 9F       		.byte	0x9f
 8990 123d 00000000 		.4byte	0
 8991 1241 00000000 		.4byte	0
 8992              	.LLST105:
 8993 1245 00000000 		.4byte	.LVL281
 8994 1249 10000000 		.4byte	.LVL282
 8995 124d 0100     		.2byte	0x1
 8996 124f 50       		.byte	0x50
 8997 1250 10000000 		.4byte	.LVL282
 8998 1254 20000000 		.4byte	.LFE155
 8999 1258 0400     		.2byte	0x4
 9000 125a F3       		.byte	0xf3
 9001 125b 01       		.uleb128 0x1
 9002 125c 50       		.byte	0x50
 9003 125d 9F       		.byte	0x9f
 9004 125e 00000000 		.4byte	0
 9005 1262 00000000 		.4byte	0
 9006              	.LLST106:
 9007 1266 00000000 		.4byte	.LVL283
 9008 126a 10000000 		.4byte	.LVL284
 9009 126e 0100     		.2byte	0x1
 9010 1270 50       		.byte	0x50
 9011 1271 10000000 		.4byte	.LVL284
 9012 1275 20000000 		.4byte	.LFE156
 9013 1279 0400     		.2byte	0x4
 9014 127b F3       		.byte	0xf3
 9015 127c 01       		.uleb128 0x1
 9016 127d 50       		.byte	0x50
 9017 127e 9F       		.byte	0x9f
 9018 127f 00000000 		.4byte	0
 9019 1283 00000000 		.4byte	0
 9020              	.LLST107:
 9021 1287 00000000 		.4byte	.LVL285
 9022 128b 0E000000 		.4byte	.LVL286
 9023 128f 0100     		.2byte	0x1
 9024 1291 50       		.byte	0x50
 9025 1292 0E000000 		.4byte	.LVL286
 9026 1296 18000000 		.4byte	.LFE157
 9027 129a 0400     		.2byte	0x4
 9028 129c F3       		.byte	0xf3
 9029 129d 01       		.uleb128 0x1
 9030 129e 50       		.byte	0x50
 9031 129f 9F       		.byte	0x9f
 9032 12a0 00000000 		.4byte	0
 9033 12a4 00000000 		.4byte	0
 9034              	.LLST108:
 9035 12a8 00000000 		.4byte	.LVL287
 9036 12ac 0E000000 		.4byte	.LVL288
 9037 12b0 0100     		.2byte	0x1
 9038 12b2 50       		.byte	0x50
ARM GAS  /var/folders/7z/kps_xzfj7sn5l5gkyq8s9db00000gn/T//cck5P0LB.s 			page 160


 9039 12b3 0E000000 		.4byte	.LVL288
 9040 12b7 18000000 		.4byte	.LFE158
 9041 12bb 0400     		.2byte	0x4
 9042 12bd F3       		.byte	0xf3
 9043 12be 01       		.uleb128 0x1
 9044 12bf 50       		.byte	0x50
 9045 12c0 9F       		.byte	0x9f
 9046 12c1 00000000 		.4byte	0
 9047 12c5 00000000 		.4byte	0
 9048              	.LLST109:
 9049 12c9 00000000 		.4byte	.LVL289
 9050 12cd 0E000000 		.4byte	.LVL290
 9051 12d1 0100     		.2byte	0x1
 9052 12d3 50       		.byte	0x50
 9053 12d4 0E000000 		.4byte	.LVL290
 9054 12d8 18000000 		.4byte	.LFE159
 9055 12dc 0400     		.2byte	0x4
 9056 12de F3       		.byte	0xf3
 9057 12df 01       		.uleb128 0x1
 9058 12e0 50       		.byte	0x50
 9059 12e1 9F       		.byte	0x9f
 9060 12e2 00000000 		.4byte	0
 9061 12e6 00000000 		.4byte	0
 9062              	.LLST110:
 9063 12ea 00000000 		.4byte	.LVL291
 9064 12ee 3A000000 		.4byte	.LVL296
 9065 12f2 0100     		.2byte	0x1
 9066 12f4 50       		.byte	0x50
 9067 12f5 3A000000 		.4byte	.LVL296
 9068 12f9 42000000 		.4byte	.LVL297
 9069 12fd 0400     		.2byte	0x4
 9070 12ff F3       		.byte	0xf3
 9071 1300 01       		.uleb128 0x1
 9072 1301 50       		.byte	0x50
 9073 1302 9F       		.byte	0x9f
 9074 1303 42000000 		.4byte	.LVL297
 9075 1307 44000000 		.4byte	.LVL298
 9076 130b 0100     		.2byte	0x1
 9077 130d 50       		.byte	0x50
 9078 130e 44000000 		.4byte	.LVL298
 9079 1312 5A000000 		.4byte	.LVL301
 9080 1316 0400     		.2byte	0x4
 9081 1318 F3       		.byte	0xf3
 9082 1319 01       		.uleb128 0x1
 9083 131a 50       		.byte	0x50
 9084 131b 9F       		.byte	0x9f
 9085 131c 5A000000 		.4byte	.LVL301
 9086 1320 60000000 		.4byte	.LVL302
 9087 1324 0100     		.2byte	0x1
 9088 1326 50       		.byte	0x50
 9089 1327 60000000 		.4byte	.LVL302
 9090 132b 68000000 		.4byte	.LFE160
 9091 132f 0400     		.2byte	0x4
 9092 1331 F3       		.byte	0xf3
 9093 1332 01       		.uleb128 0x1
 9094 1333 50       		.byte	0x50
 9095 1334 9F       		.byte	0x9f
ARM GAS  /var/folders/7z/kps_xzfj7sn5l5gkyq8s9db00000gn/T//cck5P0LB.s 			page 161


 9096 1335 00000000 		.4byte	0
 9097 1339 00000000 		.4byte	0
 9098              	.LLST111:
 9099 133d 00000000 		.4byte	.LVL291
 9100 1341 49000000 		.4byte	.LVL299-1
 9101 1345 0100     		.2byte	0x1
 9102 1347 51       		.byte	0x51
 9103 1348 49000000 		.4byte	.LVL299-1
 9104 134c 5A000000 		.4byte	.LVL301
 9105 1350 0400     		.2byte	0x4
 9106 1352 F3       		.byte	0xf3
 9107 1353 01       		.uleb128 0x1
 9108 1354 51       		.byte	0x51
 9109 1355 9F       		.byte	0x9f
 9110 1356 5A000000 		.4byte	.LVL301
 9111 135a 68000000 		.4byte	.LFE160
 9112 135e 0100     		.2byte	0x1
 9113 1360 51       		.byte	0x51
 9114 1361 00000000 		.4byte	0
 9115 1365 00000000 		.4byte	0
 9116              	.LLST112:
 9117 1369 00000000 		.4byte	.LVL291
 9118 136d 3A000000 		.4byte	.LVL296
 9119 1371 0200     		.2byte	0x2
 9120 1373 30       		.byte	0x30
 9121 1374 9F       		.byte	0x9f
 9122 1375 3A000000 		.4byte	.LVL296
 9123 1379 42000000 		.4byte	.LVL297
 9124 137d 0100     		.2byte	0x1
 9125 137f 50       		.byte	0x50
 9126 1380 42000000 		.4byte	.LVL297
 9127 1384 56000000 		.4byte	.LVL300
 9128 1388 0200     		.2byte	0x2
 9129 138a 30       		.byte	0x30
 9130 138b 9F       		.byte	0x9f
 9131 138c 56000000 		.4byte	.LVL300
 9132 1390 5A000000 		.4byte	.LVL301
 9133 1394 0100     		.2byte	0x1
 9134 1396 50       		.byte	0x50
 9135 1397 5A000000 		.4byte	.LVL301
 9136 139b 60000000 		.4byte	.LVL302
 9137 139f 0200     		.2byte	0x2
 9138 13a1 30       		.byte	0x30
 9139 13a2 9F       		.byte	0x9f
 9140 13a3 60000000 		.4byte	.LVL302
 9141 13a7 68000000 		.4byte	.LFE160
 9142 13ab 0100     		.2byte	0x1
 9143 13ad 50       		.byte	0x50
 9144 13ae 00000000 		.4byte	0
 9145 13b2 00000000 		.4byte	0
 9146              	.LLST113:
 9147 13b6 00000000 		.4byte	.LVL291
 9148 13ba 1E000000 		.4byte	.LVL292
 9149 13be 0200     		.2byte	0x2
 9150 13c0 30       		.byte	0x30
 9151 13c1 9F       		.byte	0x9f
 9152 13c2 1E000000 		.4byte	.LVL292
ARM GAS  /var/folders/7z/kps_xzfj7sn5l5gkyq8s9db00000gn/T//cck5P0LB.s 			page 162


 9153 13c6 20000000 		.4byte	.LVL293
 9154 13ca 0700     		.2byte	0x7
 9155 13cc 0A       		.byte	0xa
 9156 13cd 0110     		.2byte	0x1001
 9157 13cf 73       		.byte	0x73
 9158 13d0 00       		.sleb128 0
 9159 13d1 1C       		.byte	0x1c
 9160 13d2 9F       		.byte	0x9f
 9161 13d3 20000000 		.4byte	.LVL293
 9162 13d7 22000000 		.4byte	.LVL294
 9163 13db 0700     		.2byte	0x7
 9164 13dd 0A       		.byte	0xa
 9165 13de 0010     		.2byte	0x1000
 9166 13e0 73       		.byte	0x73
 9167 13e1 00       		.sleb128 0
 9168 13e2 1C       		.byte	0x1c
 9169 13e3 9F       		.byte	0x9f
 9170 13e4 22000000 		.4byte	.LVL294
 9171 13e8 28000000 		.4byte	.LVL295
 9172 13ec 0700     		.2byte	0x7
 9173 13ee 0A       		.byte	0xa
 9174 13ef 0110     		.2byte	0x1001
 9175 13f1 73       		.byte	0x73
 9176 13f2 00       		.sleb128 0
 9177 13f3 1C       		.byte	0x1c
 9178 13f4 9F       		.byte	0x9f
 9179 13f5 00000000 		.4byte	0
 9180 13f9 00000000 		.4byte	0
 9181              	.LLST114:
 9182 13fd 00000000 		.4byte	.LVL303
 9183 1401 20000000 		.4byte	.LVL305
 9184 1405 0100     		.2byte	0x1
 9185 1407 50       		.byte	0x50
 9186 1408 20000000 		.4byte	.LVL305
 9187 140c 32000000 		.4byte	.LVL306
 9188 1410 0400     		.2byte	0x4
 9189 1412 F3       		.byte	0xf3
 9190 1413 01       		.uleb128 0x1
 9191 1414 50       		.byte	0x50
 9192 1415 9F       		.byte	0x9f
 9193 1416 32000000 		.4byte	.LVL306
 9194 141a 40000000 		.4byte	.LVL308
 9195 141e 0100     		.2byte	0x1
 9196 1420 50       		.byte	0x50
 9197 1421 40000000 		.4byte	.LVL308
 9198 1425 4C000000 		.4byte	.LFE161
 9199 1429 0400     		.2byte	0x4
 9200 142b F3       		.byte	0xf3
 9201 142c 01       		.uleb128 0x1
 9202 142d 50       		.byte	0x50
 9203 142e 9F       		.byte	0x9f
 9204 142f 00000000 		.4byte	0
 9205 1433 00000000 		.4byte	0
 9206              	.LLST115:
 9207 1437 00000000 		.4byte	.LVL303
 9208 143b 14000000 		.4byte	.LVL304
 9209 143f 0100     		.2byte	0x1
ARM GAS  /var/folders/7z/kps_xzfj7sn5l5gkyq8s9db00000gn/T//cck5P0LB.s 			page 163


 9210 1441 51       		.byte	0x51
 9211 1442 14000000 		.4byte	.LVL304
 9212 1446 32000000 		.4byte	.LVL306
 9213 144a 0400     		.2byte	0x4
 9214 144c F3       		.byte	0xf3
 9215 144d 01       		.uleb128 0x1
 9216 144e 51       		.byte	0x51
 9217 144f 9F       		.byte	0x9f
 9218 1450 32000000 		.4byte	.LVL306
 9219 1454 36000000 		.4byte	.LVL307
 9220 1458 0100     		.2byte	0x1
 9221 145a 51       		.byte	0x51
 9222 145b 36000000 		.4byte	.LVL307
 9223 145f 4C000000 		.4byte	.LFE161
 9224 1463 0400     		.2byte	0x4
 9225 1465 F3       		.byte	0xf3
 9226 1466 01       		.uleb128 0x1
 9227 1467 51       		.byte	0x51
 9228 1468 9F       		.byte	0x9f
 9229 1469 00000000 		.4byte	0
 9230 146d 00000000 		.4byte	0
 9231              	.LLST116:
 9232 1471 00000000 		.4byte	.LVL309
 9233 1475 0E000000 		.4byte	.LVL312
 9234 1479 0100     		.2byte	0x1
 9235 147b 50       		.byte	0x50
 9236 147c 0E000000 		.4byte	.LVL312
 9237 1480 1C000000 		.4byte	.LFE162
 9238 1484 0400     		.2byte	0x4
 9239 1486 F3       		.byte	0xf3
 9240 1487 01       		.uleb128 0x1
 9241 1488 50       		.byte	0x50
 9242 1489 9F       		.byte	0x9f
 9243 148a 00000000 		.4byte	0
 9244 148e 00000000 		.4byte	0
 9245              	.LLST117:
 9246 1492 00000000 		.4byte	.LVL309
 9247 1496 06000000 		.4byte	.LVL310
 9248 149a 0200     		.2byte	0x2
 9249 149c 30       		.byte	0x30
 9250 149d 9F       		.byte	0x9f
 9251 149e 06000000 		.4byte	.LVL310
 9252 14a2 0E000000 		.4byte	.LVL312
 9253 14a6 0E00     		.2byte	0xe
 9254 14a8 72       		.byte	0x72
 9255 14a9 00       		.sleb128 0
 9256 14aa 70       		.byte	0x70
 9257 14ab 00       		.sleb128 0
 9258 14ac 1A       		.byte	0x1a
 9259 14ad 0C       		.byte	0xc
 9260 14ae 7F3F0100 		.4byte	0x13f7f
 9261 14b2 1A       		.byte	0x1a
 9262 14b3 30       		.byte	0x30
 9263 14b4 2E       		.byte	0x2e
 9264 14b5 9F       		.byte	0x9f
 9265 14b6 0E000000 		.4byte	.LVL312
 9266 14ba 1C000000 		.4byte	.LFE162
ARM GAS  /var/folders/7z/kps_xzfj7sn5l5gkyq8s9db00000gn/T//cck5P0LB.s 			page 164


 9267 14be 0F00     		.2byte	0xf
 9268 14c0 72       		.byte	0x72
 9269 14c1 00       		.sleb128 0
 9270 14c2 F3       		.byte	0xf3
 9271 14c3 01       		.uleb128 0x1
 9272 14c4 50       		.byte	0x50
 9273 14c5 1A       		.byte	0x1a
 9274 14c6 0C       		.byte	0xc
 9275 14c7 7F3F0100 		.4byte	0x13f7f
 9276 14cb 1A       		.byte	0x1a
 9277 14cc 30       		.byte	0x30
 9278 14cd 2E       		.byte	0x2e
 9279 14ce 9F       		.byte	0x9f
 9280 14cf 00000000 		.4byte	0
 9281 14d3 00000000 		.4byte	0
 9282              	.LLST118:
 9283 14d7 00000000 		.4byte	.LVL309
 9284 14db 06000000 		.4byte	.LVL310
 9285 14df 0200     		.2byte	0x2
 9286 14e1 30       		.byte	0x30
 9287 14e2 9F       		.byte	0x9f
 9288 14e3 06000000 		.4byte	.LVL310
 9289 14e7 08000000 		.4byte	.LVL311
 9290 14eb 0900     		.2byte	0x9
 9291 14ed 72       		.byte	0x72
 9292 14ee 00       		.sleb128 0
 9293 14ef 0C       		.byte	0xc
 9294 14f0 7F3F0100 		.4byte	0x13f7f
 9295 14f4 1A       		.byte	0x1a
 9296 14f5 9F       		.byte	0x9f
 9297 14f6 08000000 		.4byte	.LVL311
 9298 14fa 1C000000 		.4byte	.LFE162
 9299 14fe 0100     		.2byte	0x1
 9300 1500 53       		.byte	0x53
 9301 1501 00000000 		.4byte	0
 9302 1505 00000000 		.4byte	0
 9303              	.LLST119:
 9304 1509 00000000 		.4byte	.LVL313
 9305 150d 06000000 		.4byte	.LVL314
 9306 1511 0100     		.2byte	0x1
 9307 1513 50       		.byte	0x50
 9308 1514 06000000 		.4byte	.LVL314
 9309 1518 1C000000 		.4byte	.LFE163
 9310 151c 0400     		.2byte	0x4
 9311 151e F3       		.byte	0xf3
 9312 151f 01       		.uleb128 0x1
 9313 1520 50       		.byte	0x50
 9314 1521 9F       		.byte	0x9f
 9315 1522 00000000 		.4byte	0
 9316 1526 00000000 		.4byte	0
 9317              	.LLST120:
 9318 152a 00000000 		.4byte	.LVL315
 9319 152e 20000000 		.4byte	.LVL320
 9320 1532 0100     		.2byte	0x1
 9321 1534 50       		.byte	0x50
 9322 1535 20000000 		.4byte	.LVL320
 9323 1539 24000000 		.4byte	.LVL321
ARM GAS  /var/folders/7z/kps_xzfj7sn5l5gkyq8s9db00000gn/T//cck5P0LB.s 			page 165


 9324 153d 0400     		.2byte	0x4
 9325 153f F3       		.byte	0xf3
 9326 1540 01       		.uleb128 0x1
 9327 1541 50       		.byte	0x50
 9328 1542 9F       		.byte	0x9f
 9329 1543 24000000 		.4byte	.LVL321
 9330 1547 26000000 		.4byte	.LVL322
 9331 154b 0100     		.2byte	0x1
 9332 154d 50       		.byte	0x50
 9333 154e 26000000 		.4byte	.LVL322
 9334 1552 2C000000 		.4byte	.LFE164
 9335 1556 0400     		.2byte	0x4
 9336 1558 F3       		.byte	0xf3
 9337 1559 01       		.uleb128 0x1
 9338 155a 50       		.byte	0x50
 9339 155b 9F       		.byte	0x9f
 9340 155c 00000000 		.4byte	0
 9341 1560 00000000 		.4byte	0
 9342              	.LLST121:
 9343 1564 00000000 		.4byte	.LVL315
 9344 1568 26000000 		.4byte	.LVL322
 9345 156c 0200     		.2byte	0x2
 9346 156e 30       		.byte	0x30
 9347 156f 9F       		.byte	0x9f
 9348 1570 26000000 		.4byte	.LVL322
 9349 1574 2C000000 		.4byte	.LFE164
 9350 1578 0100     		.2byte	0x1
 9351 157a 50       		.byte	0x50
 9352 157b 00000000 		.4byte	0
 9353 157f 00000000 		.4byte	0
 9354              	.LLST122:
 9355 1583 00000000 		.4byte	.LVL315
 9356 1587 04000000 		.4byte	.LVL316
 9357 158b 0200     		.2byte	0x2
 9358 158d 30       		.byte	0x30
 9359 158e 9F       		.byte	0x9f
 9360 158f 04000000 		.4byte	.LVL316
 9361 1593 08000000 		.4byte	.LVL317
 9362 1597 0500     		.2byte	0x5
 9363 1599 72       		.byte	0x72
 9364 159a 00       		.sleb128 0
 9365 159b 34       		.byte	0x34
 9366 159c 1A       		.byte	0x1a
 9367 159d 9F       		.byte	0x9f
 9368 159e 08000000 		.4byte	.LVL317
 9369 15a2 18000000 		.4byte	.LVL319
 9370 15a6 0800     		.2byte	0x8
 9371 15a8 70       		.byte	0x70
 9372 15a9 00       		.sleb128 0
 9373 15aa 34       		.byte	0x34
 9374 15ab 25       		.byte	0x25
 9375 15ac 71       		.byte	0x71
 9376 15ad 00       		.sleb128 0
 9377 15ae 1A       		.byte	0x1a
 9378 15af 9F       		.byte	0x9f
 9379 15b0 24000000 		.4byte	.LVL321
 9380 15b4 26000000 		.4byte	.LVL322
ARM GAS  /var/folders/7z/kps_xzfj7sn5l5gkyq8s9db00000gn/T//cck5P0LB.s 			page 166


 9381 15b8 0800     		.2byte	0x8
 9382 15ba 70       		.byte	0x70
 9383 15bb 00       		.sleb128 0
 9384 15bc 34       		.byte	0x34
 9385 15bd 25       		.byte	0x25
 9386 15be 71       		.byte	0x71
 9387 15bf 00       		.sleb128 0
 9388 15c0 1A       		.byte	0x1a
 9389 15c1 9F       		.byte	0x9f
 9390 15c2 26000000 		.4byte	.LVL322
 9391 15c6 2C000000 		.4byte	.LFE164
 9392 15ca 0900     		.2byte	0x9
 9393 15cc F3       		.byte	0xf3
 9394 15cd 01       		.uleb128 0x1
 9395 15ce 50       		.byte	0x50
 9396 15cf 34       		.byte	0x34
 9397 15d0 25       		.byte	0x25
 9398 15d1 71       		.byte	0x71
 9399 15d2 00       		.sleb128 0
 9400 15d3 1A       		.byte	0x1a
 9401 15d4 9F       		.byte	0x9f
 9402 15d5 00000000 		.4byte	0
 9403 15d9 00000000 		.4byte	0
 9404              	.LLST123:
 9405 15dd 00000000 		.4byte	.LVL315
 9406 15e1 08000000 		.4byte	.LVL317
 9407 15e5 0200     		.2byte	0x2
 9408 15e7 30       		.byte	0x30
 9409 15e8 9F       		.byte	0x9f
 9410 15e9 08000000 		.4byte	.LVL317
 9411 15ed 0C000000 		.4byte	.LVL318
 9412 15f1 1000     		.2byte	0x10
 9413 15f3 70       		.byte	0x70
 9414 15f4 00       		.sleb128 0
 9415 15f5 3F       		.byte	0x3f
 9416 15f6 25       		.byte	0x25
 9417 15f7 72       		.byte	0x72
 9418 15f8 00       		.sleb128 0
 9419 15f9 1A       		.byte	0x1a
 9420 15fa 34       		.byte	0x34
 9421 15fb 1A       		.byte	0x1a
 9422 15fc 70       		.byte	0x70
 9423 15fd 00       		.sleb128 0
 9424 15fe 73       		.byte	0x73
 9425 15ff 00       		.sleb128 0
 9426 1600 1A       		.byte	0x1a
 9427 1601 21       		.byte	0x21
 9428 1602 9F       		.byte	0x9f
 9429 1603 00000000 		.4byte	0
 9430 1607 00000000 		.4byte	0
 9431              	.LLST124:
 9432 160b 00000000 		.4byte	.LVL323
 9433 160f 08000000 		.4byte	.LVL324
 9434 1613 0100     		.2byte	0x1
 9435 1615 50       		.byte	0x50
 9436 1616 08000000 		.4byte	.LVL324
 9437 161a 1C000000 		.4byte	.LFE165
ARM GAS  /var/folders/7z/kps_xzfj7sn5l5gkyq8s9db00000gn/T//cck5P0LB.s 			page 167


 9438 161e 0400     		.2byte	0x4
 9439 1620 F3       		.byte	0xf3
 9440 1621 01       		.uleb128 0x1
 9441 1622 50       		.byte	0x50
 9442 1623 9F       		.byte	0x9f
 9443 1624 00000000 		.4byte	0
 9444 1628 00000000 		.4byte	0
 9445              	.LLST125:
 9446 162c 00000000 		.4byte	.LVL323
 9447 1630 08000000 		.4byte	.LVL324
 9448 1634 0500     		.2byte	0x5
 9449 1636 70       		.byte	0x70
 9450 1637 00       		.sleb128 0
 9451 1638 34       		.byte	0x34
 9452 1639 25       		.byte	0x25
 9453 163a 9F       		.byte	0x9f
 9454 163b 08000000 		.4byte	.LVL324
 9455 163f 1C000000 		.4byte	.LFE165
 9456 1643 0600     		.2byte	0x6
 9457 1645 F3       		.byte	0xf3
 9458 1646 01       		.uleb128 0x1
 9459 1647 50       		.byte	0x50
 9460 1648 34       		.byte	0x34
 9461 1649 25       		.byte	0x25
 9462 164a 9F       		.byte	0x9f
 9463 164b 00000000 		.4byte	0
 9464 164f 00000000 		.4byte	0
 9465              		.section	.debug_aranges,"",%progbits
 9466 0000 CC010000 		.4byte	0x1cc
 9467 0004 0200     		.2byte	0x2
 9468 0006 00000000 		.4byte	.Ldebug_info0
 9469 000a 04       		.byte	0x4
 9470 000b 00       		.byte	0
 9471 000c 0000     		.2byte	0
 9472 000e 0000     		.2byte	0
 9473 0010 00000000 		.4byte	.LFB113
 9474 0014 0C000000 		.4byte	.LFE113-.LFB113
 9475 0018 00000000 		.4byte	.LFB114
 9476 001c 18000000 		.4byte	.LFE114-.LFB114
 9477 0020 00000000 		.4byte	.LFB115
 9478 0024 44000000 		.4byte	.LFE115-.LFB115
 9479 0028 00000000 		.4byte	.LFB112
 9480 002c 48000000 		.4byte	.LFE112-.LFB112
 9481 0030 00000000 		.4byte	.LFB116
 9482 0034 10000000 		.4byte	.LFE116-.LFB116
 9483 0038 00000000 		.4byte	.LFB117
 9484 003c 44000000 		.4byte	.LFE117-.LFB117
 9485 0040 00000000 		.4byte	.LFB111
 9486 0044 8C000000 		.4byte	.LFE111-.LFB111
 9487 0048 00000000 		.4byte	.LFB118
 9488 004c 40000000 		.4byte	.LFE118-.LFB118
 9489 0050 00000000 		.4byte	.LFB119
 9490 0054 30000000 		.4byte	.LFE119-.LFB119
 9491 0058 00000000 		.4byte	.LFB120
 9492 005c F0000000 		.4byte	.LFE120-.LFB120
 9493 0060 00000000 		.4byte	.LFB121
 9494 0064 0C000000 		.4byte	.LFE121-.LFB121
ARM GAS  /var/folders/7z/kps_xzfj7sn5l5gkyq8s9db00000gn/T//cck5P0LB.s 			page 168


 9495 0068 00000000 		.4byte	.LFB122
 9496 006c 5C000000 		.4byte	.LFE122-.LFB122
 9497 0070 00000000 		.4byte	.LFB123
 9498 0074 0C000000 		.4byte	.LFE123-.LFB123
 9499 0078 00000000 		.4byte	.LFB124
 9500 007c E0000000 		.4byte	.LFE124-.LFB124
 9501 0080 00000000 		.4byte	.LFB125
 9502 0084 0E000000 		.4byte	.LFE125-.LFB125
 9503 0088 00000000 		.4byte	.LFB126
 9504 008c 58000000 		.4byte	.LFE126-.LFB126
 9505 0090 00000000 		.4byte	.LFB127
 9506 0094 0C010000 		.4byte	.LFE127-.LFB127
 9507 0098 00000000 		.4byte	.LFB128
 9508 009c 14000000 		.4byte	.LFE128-.LFB128
 9509 00a0 00000000 		.4byte	.LFB129
 9510 00a4 8C000000 		.4byte	.LFE129-.LFB129
 9511 00a8 00000000 		.4byte	.LFB130
 9512 00ac 5C000000 		.4byte	.LFE130-.LFB130
 9513 00b0 00000000 		.4byte	.LFB131
 9514 00b4 28000000 		.4byte	.LFE131-.LFB131
 9515 00b8 00000000 		.4byte	.LFB132
 9516 00bc 18000000 		.4byte	.LFE132-.LFB132
 9517 00c0 00000000 		.4byte	.LFB133
 9518 00c4 24000000 		.4byte	.LFE133-.LFB133
 9519 00c8 00000000 		.4byte	.LFB134
 9520 00cc 1C000000 		.4byte	.LFE134-.LFB134
 9521 00d0 00000000 		.4byte	.LFB135
 9522 00d4 0C000000 		.4byte	.LFE135-.LFB135
 9523 00d8 00000000 		.4byte	.LFB136
 9524 00dc 58000000 		.4byte	.LFE136-.LFB136
 9525 00e0 00000000 		.4byte	.LFB137
 9526 00e4 2C000000 		.4byte	.LFE137-.LFB137
 9527 00e8 00000000 		.4byte	.LFB138
 9528 00ec 10000000 		.4byte	.LFE138-.LFB138
 9529 00f0 00000000 		.4byte	.LFB139
 9530 00f4 2C000000 		.4byte	.LFE139-.LFB139
 9531 00f8 00000000 		.4byte	.LFB140
 9532 00fc 30000000 		.4byte	.LFE140-.LFB140
 9533 0100 00000000 		.4byte	.LFB141
 9534 0104 40000000 		.4byte	.LFE141-.LFB141
 9535 0108 00000000 		.4byte	.LFB142
 9536 010c 30000000 		.4byte	.LFE142-.LFB142
 9537 0110 00000000 		.4byte	.LFB143
 9538 0114 24000000 		.4byte	.LFE143-.LFB143
 9539 0118 00000000 		.4byte	.LFB144
 9540 011c 4C000000 		.4byte	.LFE144-.LFB144
 9541 0120 00000000 		.4byte	.LFB145
 9542 0124 34000000 		.4byte	.LFE145-.LFB145
 9543 0128 00000000 		.4byte	.LFB146
 9544 012c B8000000 		.4byte	.LFE146-.LFB146
 9545 0130 00000000 		.4byte	.LFB147
 9546 0134 0C000000 		.4byte	.LFE147-.LFB147
 9547 0138 00000000 		.4byte	.LFB148
 9548 013c 1C000000 		.4byte	.LFE148-.LFB148
 9549 0140 00000000 		.4byte	.LFB149
 9550 0144 18000000 		.4byte	.LFE149-.LFB149
 9551 0148 00000000 		.4byte	.LFB150
ARM GAS  /var/folders/7z/kps_xzfj7sn5l5gkyq8s9db00000gn/T//cck5P0LB.s 			page 169


 9552 014c 18000000 		.4byte	.LFE150-.LFB150
 9553 0150 00000000 		.4byte	.LFB151
 9554 0154 18000000 		.4byte	.LFE151-.LFB151
 9555 0158 00000000 		.4byte	.LFB152
 9556 015c 18000000 		.4byte	.LFE152-.LFB152
 9557 0160 00000000 		.4byte	.LFB153
 9558 0164 1C000000 		.4byte	.LFE153-.LFB153
 9559 0168 00000000 		.4byte	.LFB154
 9560 016c 1C000000 		.4byte	.LFE154-.LFB154
 9561 0170 00000000 		.4byte	.LFB155
 9562 0174 20000000 		.4byte	.LFE155-.LFB155
 9563 0178 00000000 		.4byte	.LFB156
 9564 017c 20000000 		.4byte	.LFE156-.LFB156
 9565 0180 00000000 		.4byte	.LFB157
 9566 0184 18000000 		.4byte	.LFE157-.LFB157
 9567 0188 00000000 		.4byte	.LFB158
 9568 018c 18000000 		.4byte	.LFE158-.LFB158
 9569 0190 00000000 		.4byte	.LFB159
 9570 0194 18000000 		.4byte	.LFE159-.LFB159
 9571 0198 00000000 		.4byte	.LFB160
 9572 019c 68000000 		.4byte	.LFE160-.LFB160
 9573 01a0 00000000 		.4byte	.LFB161
 9574 01a4 4C000000 		.4byte	.LFE161-.LFB161
 9575 01a8 00000000 		.4byte	.LFB162
 9576 01ac 1C000000 		.4byte	.LFE162-.LFB162
 9577 01b0 00000000 		.4byte	.LFB163
 9578 01b4 1C000000 		.4byte	.LFE163-.LFB163
 9579 01b8 00000000 		.4byte	.LFB164
 9580 01bc 2C000000 		.4byte	.LFE164-.LFB164
 9581 01c0 00000000 		.4byte	.LFB165
 9582 01c4 1C000000 		.4byte	.LFE165-.LFB165
 9583 01c8 00000000 		.4byte	0
 9584 01cc 00000000 		.4byte	0
 9585              		.section	.debug_ranges,"",%progbits
 9586              	.Ldebug_ranges0:
 9587 0000 30000000 		.4byte	.LBB88
 9588 0004 32000000 		.4byte	.LBE88
 9589 0008 36000000 		.4byte	.LBB92
 9590 000c 4A000000 		.4byte	.LBE92
 9591 0010 E6000000 		.4byte	.LBB99
 9592 0014 F0000000 		.4byte	.LBE99
 9593 0018 00000000 		.4byte	0
 9594 001c 00000000 		.4byte	0
 9595 0020 4E000000 		.4byte	.LBB93
 9596 0024 50000000 		.4byte	.LBE93
 9597 0028 54000000 		.4byte	.LBB96
 9598 002c 70000000 		.4byte	.LBE96
 9599 0030 00000000 		.4byte	0
 9600 0034 00000000 		.4byte	0
 9601 0038 22000000 		.4byte	.LBB100
 9602 003c 24000000 		.4byte	.LBE100
 9603 0040 28000000 		.4byte	.LBB115
 9604 0044 2C000000 		.4byte	.LBE115
 9605 0048 38000000 		.4byte	.LBB119
 9606 004c 3C000000 		.4byte	.LBE119
 9607 0050 44000000 		.4byte	.LBB122
 9608 0054 48000000 		.4byte	.LBE122
ARM GAS  /var/folders/7z/kps_xzfj7sn5l5gkyq8s9db00000gn/T//cck5P0LB.s 			page 170


 9609 0058 00000000 		.4byte	0
 9610 005c 00000000 		.4byte	0
 9611 0060 24000000 		.4byte	.LBB105
 9612 0064 26000000 		.4byte	.LBE105
 9613 0068 30000000 		.4byte	.LBB117
 9614 006c 34000000 		.4byte	.LBE117
 9615 0070 3C000000 		.4byte	.LBB120
 9616 0074 40000000 		.4byte	.LBE120
 9617 0078 48000000 		.4byte	.LBB123
 9618 007c 4C000000 		.4byte	.LBE123
 9619 0080 00000000 		.4byte	0
 9620 0084 00000000 		.4byte	0
 9621 0088 26000000 		.4byte	.LBB110
 9622 008c 28000000 		.4byte	.LBE110
 9623 0090 2C000000 		.4byte	.LBB116
 9624 0094 30000000 		.4byte	.LBE116
 9625 0098 34000000 		.4byte	.LBB118
 9626 009c 38000000 		.4byte	.LBE118
 9627 00a0 40000000 		.4byte	.LBB121
 9628 00a4 44000000 		.4byte	.LBE121
 9629 00a8 00000000 		.4byte	0
 9630 00ac 00000000 		.4byte	0
 9631 00b0 32000000 		.4byte	.LBB126
 9632 00b4 34000000 		.4byte	.LBE126
 9633 00b8 38000000 		.4byte	.LBB130
 9634 00bc 4C000000 		.4byte	.LBE130
 9635 00c0 D8000000 		.4byte	.LBB137
 9636 00c4 E0000000 		.4byte	.LBE137
 9637 00c8 00000000 		.4byte	0
 9638 00cc 00000000 		.4byte	0
 9639 00d0 50000000 		.4byte	.LBB131
 9640 00d4 52000000 		.4byte	.LBE131
 9641 00d8 56000000 		.4byte	.LBB134
 9642 00dc 6C000000 		.4byte	.LBE134
 9643 00e0 00000000 		.4byte	0
 9644 00e4 00000000 		.4byte	0
 9645 00e8 20000000 		.4byte	.LBB138
 9646 00ec 22000000 		.4byte	.LBE138
 9647 00f0 26000000 		.4byte	.LBB151
 9648 00f4 28000000 		.4byte	.LBE151
 9649 00f8 30000000 		.4byte	.LBB153
 9650 00fc 36000000 		.4byte	.LBE153
 9651 0100 42000000 		.4byte	.LBB156
 9652 0104 46000000 		.4byte	.LBE156
 9653 0108 00000000 		.4byte	0
 9654 010c 00000000 		.4byte	0
 9655 0110 22000000 		.4byte	.LBB143
 9656 0114 24000000 		.4byte	.LBE143
 9657 0118 28000000 		.4byte	.LBB152
 9658 011c 30000000 		.4byte	.LBE152
 9659 0120 3E000000 		.4byte	.LBB155
 9660 0124 42000000 		.4byte	.LBE155
 9661 0128 00000000 		.4byte	0
 9662 012c 00000000 		.4byte	0
 9663 0130 24000000 		.4byte	.LBB147
 9664 0134 26000000 		.4byte	.LBE147
 9665 0138 36000000 		.4byte	.LBB154
ARM GAS  /var/folders/7z/kps_xzfj7sn5l5gkyq8s9db00000gn/T//cck5P0LB.s 			page 171


 9666 013c 3E000000 		.4byte	.LBE154
 9667 0140 46000000 		.4byte	.LBB157
 9668 0144 4A000000 		.4byte	.LBE157
 9669 0148 00000000 		.4byte	0
 9670 014c 00000000 		.4byte	0
 9671 0150 32000000 		.4byte	.LBB160
 9672 0154 34000000 		.4byte	.LBE160
 9673 0158 38000000 		.4byte	.LBB164
 9674 015c 4C000000 		.4byte	.LBE164
 9675 0160 00010000 		.4byte	.LBB174
 9676 0164 04010000 		.4byte	.LBE174
 9677 0168 00000000 		.4byte	0
 9678 016c 00000000 		.4byte	0
 9679 0170 50000000 		.4byte	.LBB165
 9680 0174 52000000 		.4byte	.LBE165
 9681 0178 56000000 		.4byte	.LBB169
 9682 017c 6A000000 		.4byte	.LBE169
 9683 0180 04010000 		.4byte	.LBB175
 9684 0184 0C010000 		.4byte	.LBE175
 9685 0188 00000000 		.4byte	0
 9686 018c 00000000 		.4byte	0
 9687 0190 6E000000 		.4byte	.LBB170
 9688 0194 72000000 		.4byte	.LBE170
 9689 0198 76000000 		.4byte	.LBB173
 9690 019c 9E000000 		.4byte	.LBE173
 9691 01a0 00000000 		.4byte	0
 9692 01a4 00000000 		.4byte	0
 9693 01a8 44000000 		.4byte	.LBB176
 9694 01ac 48000000 		.4byte	.LBE176
 9695 01b0 56000000 		.4byte	.LBB191
 9696 01b4 5E000000 		.4byte	.LBE191
 9697 01b8 72000000 		.4byte	.LBB195
 9698 01bc 76000000 		.4byte	.LBE195
 9699 01c0 00000000 		.4byte	0
 9700 01c4 00000000 		.4byte	0
 9701 01c8 48000000 		.4byte	.LBB180
 9702 01cc 4A000000 		.4byte	.LBE180
 9703 01d0 5E000000 		.4byte	.LBB192
 9704 01d4 66000000 		.4byte	.LBE192
 9705 01d8 76000000 		.4byte	.LBB196
 9706 01dc 7A000000 		.4byte	.LBE196
 9707 01e0 00000000 		.4byte	0
 9708 01e4 00000000 		.4byte	0
 9709 01e8 4A000000 		.4byte	.LBB184
 9710 01ec 4C000000 		.4byte	.LBE184
 9711 01f0 66000000 		.4byte	.LBB193
 9712 01f4 6E000000 		.4byte	.LBE193
 9713 01f8 7A000000 		.4byte	.LBB197
 9714 01fc 7E000000 		.4byte	.LBE197
 9715 0200 00000000 		.4byte	0
 9716 0204 00000000 		.4byte	0
 9717 0208 4C000000 		.4byte	.LBB188
 9718 020c 56000000 		.4byte	.LBE188
 9719 0210 6E000000 		.4byte	.LBB194
 9720 0214 72000000 		.4byte	.LBE194
 9721 0218 00000000 		.4byte	0
 9722 021c 00000000 		.4byte	0
ARM GAS  /var/folders/7z/kps_xzfj7sn5l5gkyq8s9db00000gn/T//cck5P0LB.s 			page 172


 9723 0220 4A000000 		.4byte	.LBB202
 9724 0224 4C000000 		.4byte	.LBE202
 9725 0228 58000000 		.4byte	.LBB218
 9726 022c 60000000 		.4byte	.LBE218
 9727 0230 70000000 		.4byte	.LBB223
 9728 0234 74000000 		.4byte	.LBE223
 9729 0238 00000000 		.4byte	0
 9730 023c 00000000 		.4byte	0
 9731 0240 4C000000 		.4byte	.LBB206
 9732 0244 4E000000 		.4byte	.LBE206
 9733 0248 50000000 		.4byte	.LBB216
 9734 024c 54000000 		.4byte	.LBE216
 9735 0250 60000000 		.4byte	.LBB219
 9736 0254 64000000 		.4byte	.LBE219
 9737 0258 68000000 		.4byte	.LBB221
 9738 025c 6C000000 		.4byte	.LBE221
 9739 0260 00000000 		.4byte	0
 9740 0264 00000000 		.4byte	0
 9741 0268 4E000000 		.4byte	.LBB211
 9742 026c 50000000 		.4byte	.LBE211
 9743 0270 54000000 		.4byte	.LBB217
 9744 0274 58000000 		.4byte	.LBE217
 9745 0278 64000000 		.4byte	.LBB220
 9746 027c 68000000 		.4byte	.LBE220
 9747 0280 6C000000 		.4byte	.LBB222
 9748 0284 70000000 		.4byte	.LBE222
 9749 0288 00000000 		.4byte	0
 9750 028c 00000000 		.4byte	0
 9751 0290 80000000 		.4byte	.LBB224
 9752 0294 82000000 		.4byte	.LBE224
 9753 0298 86000000 		.4byte	.LBB236
 9754 029c 8E000000 		.4byte	.LBE236
 9755 02a0 9E000000 		.4byte	.LBB239
 9756 02a4 A2000000 		.4byte	.LBE239
 9757 02a8 00000000 		.4byte	0
 9758 02ac 00000000 		.4byte	0
 9759 02b0 82000000 		.4byte	.LBB228
 9760 02b4 84000000 		.4byte	.LBE228
 9761 02b8 8E000000 		.4byte	.LBB237
 9762 02bc 96000000 		.4byte	.LBE237
 9763 02c0 A2000000 		.4byte	.LBB240
 9764 02c4 A6000000 		.4byte	.LBE240
 9765 02c8 00000000 		.4byte	0
 9766 02cc 00000000 		.4byte	0
 9767 02d0 84000000 		.4byte	.LBB232
 9768 02d4 86000000 		.4byte	.LBE232
 9769 02d8 96000000 		.4byte	.LBB238
 9770 02dc 9E000000 		.4byte	.LBE238
 9771 02e0 A6000000 		.4byte	.LBB241
 9772 02e4 AA000000 		.4byte	.LBE241
 9773 02e8 00000000 		.4byte	0
 9774 02ec 00000000 		.4byte	0
 9775 02f0 00000000 		.4byte	.LFB113
 9776 02f4 0C000000 		.4byte	.LFE113
 9777 02f8 00000000 		.4byte	.LFB114
 9778 02fc 18000000 		.4byte	.LFE114
 9779 0300 00000000 		.4byte	.LFB115
ARM GAS  /var/folders/7z/kps_xzfj7sn5l5gkyq8s9db00000gn/T//cck5P0LB.s 			page 173


 9780 0304 44000000 		.4byte	.LFE115
 9781 0308 00000000 		.4byte	.LFB112
 9782 030c 48000000 		.4byte	.LFE112
 9783 0310 00000000 		.4byte	.LFB116
 9784 0314 10000000 		.4byte	.LFE116
 9785 0318 00000000 		.4byte	.LFB117
 9786 031c 44000000 		.4byte	.LFE117
 9787 0320 00000000 		.4byte	.LFB111
 9788 0324 8C000000 		.4byte	.LFE111
 9789 0328 00000000 		.4byte	.LFB118
 9790 032c 40000000 		.4byte	.LFE118
 9791 0330 00000000 		.4byte	.LFB119
 9792 0334 30000000 		.4byte	.LFE119
 9793 0338 00000000 		.4byte	.LFB120
 9794 033c F0000000 		.4byte	.LFE120
 9795 0340 00000000 		.4byte	.LFB121
 9796 0344 0C000000 		.4byte	.LFE121
 9797 0348 00000000 		.4byte	.LFB122
 9798 034c 5C000000 		.4byte	.LFE122
 9799 0350 00000000 		.4byte	.LFB123
 9800 0354 0C000000 		.4byte	.LFE123
 9801 0358 00000000 		.4byte	.LFB124
 9802 035c E0000000 		.4byte	.LFE124
 9803 0360 00000000 		.4byte	.LFB125
 9804 0364 0E000000 		.4byte	.LFE125
 9805 0368 00000000 		.4byte	.LFB126
 9806 036c 58000000 		.4byte	.LFE126
 9807 0370 00000000 		.4byte	.LFB127
 9808 0374 0C010000 		.4byte	.LFE127
 9809 0378 00000000 		.4byte	.LFB128
 9810 037c 14000000 		.4byte	.LFE128
 9811 0380 00000000 		.4byte	.LFB129
 9812 0384 8C000000 		.4byte	.LFE129
 9813 0388 00000000 		.4byte	.LFB130
 9814 038c 5C000000 		.4byte	.LFE130
 9815 0390 00000000 		.4byte	.LFB131
 9816 0394 28000000 		.4byte	.LFE131
 9817 0398 00000000 		.4byte	.LFB132
 9818 039c 18000000 		.4byte	.LFE132
 9819 03a0 00000000 		.4byte	.LFB133
 9820 03a4 24000000 		.4byte	.LFE133
 9821 03a8 00000000 		.4byte	.LFB134
 9822 03ac 1C000000 		.4byte	.LFE134
 9823 03b0 00000000 		.4byte	.LFB135
 9824 03b4 0C000000 		.4byte	.LFE135
 9825 03b8 00000000 		.4byte	.LFB136
 9826 03bc 58000000 		.4byte	.LFE136
 9827 03c0 00000000 		.4byte	.LFB137
 9828 03c4 2C000000 		.4byte	.LFE137
 9829 03c8 00000000 		.4byte	.LFB138
 9830 03cc 10000000 		.4byte	.LFE138
 9831 03d0 00000000 		.4byte	.LFB139
 9832 03d4 2C000000 		.4byte	.LFE139
 9833 03d8 00000000 		.4byte	.LFB140
 9834 03dc 30000000 		.4byte	.LFE140
 9835 03e0 00000000 		.4byte	.LFB141
 9836 03e4 40000000 		.4byte	.LFE141
ARM GAS  /var/folders/7z/kps_xzfj7sn5l5gkyq8s9db00000gn/T//cck5P0LB.s 			page 174


 9837 03e8 00000000 		.4byte	.LFB142
 9838 03ec 30000000 		.4byte	.LFE142
 9839 03f0 00000000 		.4byte	.LFB143
 9840 03f4 24000000 		.4byte	.LFE143
 9841 03f8 00000000 		.4byte	.LFB144
 9842 03fc 4C000000 		.4byte	.LFE144
 9843 0400 00000000 		.4byte	.LFB145
 9844 0404 34000000 		.4byte	.LFE145
 9845 0408 00000000 		.4byte	.LFB146
 9846 040c B8000000 		.4byte	.LFE146
 9847 0410 00000000 		.4byte	.LFB147
 9848 0414 0C000000 		.4byte	.LFE147
 9849 0418 00000000 		.4byte	.LFB148
 9850 041c 1C000000 		.4byte	.LFE148
 9851 0420 00000000 		.4byte	.LFB149
 9852 0424 18000000 		.4byte	.LFE149
 9853 0428 00000000 		.4byte	.LFB150
 9854 042c 18000000 		.4byte	.LFE150
 9855 0430 00000000 		.4byte	.LFB151
 9856 0434 18000000 		.4byte	.LFE151
 9857 0438 00000000 		.4byte	.LFB152
 9858 043c 18000000 		.4byte	.LFE152
 9859 0440 00000000 		.4byte	.LFB153
 9860 0444 1C000000 		.4byte	.LFE153
 9861 0448 00000000 		.4byte	.LFB154
 9862 044c 1C000000 		.4byte	.LFE154
 9863 0450 00000000 		.4byte	.LFB155
 9864 0454 20000000 		.4byte	.LFE155
 9865 0458 00000000 		.4byte	.LFB156
 9866 045c 20000000 		.4byte	.LFE156
 9867 0460 00000000 		.4byte	.LFB157
 9868 0464 18000000 		.4byte	.LFE157
 9869 0468 00000000 		.4byte	.LFB158
 9870 046c 18000000 		.4byte	.LFE158
 9871 0470 00000000 		.4byte	.LFB159
 9872 0474 18000000 		.4byte	.LFE159
 9873 0478 00000000 		.4byte	.LFB160
 9874 047c 68000000 		.4byte	.LFE160
 9875 0480 00000000 		.4byte	.LFB161
 9876 0484 4C000000 		.4byte	.LFE161
 9877 0488 00000000 		.4byte	.LFB162
 9878 048c 1C000000 		.4byte	.LFE162
 9879 0490 00000000 		.4byte	.LFB163
 9880 0494 1C000000 		.4byte	.LFE163
 9881 0498 00000000 		.4byte	.LFB164
 9882 049c 2C000000 		.4byte	.LFE164
 9883 04a0 00000000 		.4byte	.LFB165
 9884 04a4 1C000000 		.4byte	.LFE165
 9885 04a8 00000000 		.4byte	0
 9886 04ac 00000000 		.4byte	0
 9887              		.section	.debug_line,"",%progbits
 9888              	.Ldebug_line0:
 9889 0000 0F0A0000 		.section	.debug_str,"MS",%progbits,1
 9889      0200A401 
 9889      00000201 
 9889      FB0E0D00 
 9889      01010101 
ARM GAS  /var/folders/7z/kps_xzfj7sn5l5gkyq8s9db00000gn/T//cck5P0LB.s 			page 175


 9890              	.LASF27:
 9891 0000 43414C49 		.ascii	"CALIBR\000"
 9891      425200
 9892              	.LASF89:
 9893 0007 4E657753 		.ascii	"NewState\000"
 9893      74617465 
 9893      00
 9894              	.LASF185:
 9895 0010 5254435F 		.ascii	"RTC_ClearFlag\000"
 9895      436C6561 
 9895      72466C61 
 9895      6700
 9896              	.LASF120:
 9897 001e 5254435F 		.ascii	"RTC_AlarmSubSecondMask\000"
 9897      416C6172 
 9897      6D537562 
 9897      5365636F 
 9897      6E644D61 
 9898              	.LASF137:
 9899 0035 5254435F 		.ascii	"RTC_CoarseCalibCmd\000"
 9899      436F6172 
 9899      73654361 
 9899      6C696243 
 9899      6D6400
 9900              	.LASF17:
 9901 0048 466C6167 		.ascii	"FlagStatus\000"
 9901      53746174 
 9901      757300
 9902              	.LASF128:
 9903 0053 5254435F 		.ascii	"RTC_DayLightSaving\000"
 9903      4461794C 
 9903      69676874 
 9903      53617669 
 9903      6E6700
 9904              	.LASF112:
 9905 0066 5254435F 		.ascii	"RTC_AlarmStruct\000"
 9905      416C6172 
 9905      6D537472 
 9905      75637400 
 9906              	.LASF4:
 9907 0076 5F5F7569 		.ascii	"__uint8_t\000"
 9907      6E74385F 
 9907      7400
 9908              	.LASF118:
 9909 0080 5254435F 		.ascii	"RTC_AlarmSubSecondConfig\000"
 9909      416C6172 
 9909      6D537562 
 9909      5365636F 
 9909      6E64436F 
 9910              	.LASF42:
 9911 0099 424B5033 		.ascii	"BKP3R\000"
 9911      5200
 9912              	.LASF90:
 9913 009f 5254435F 		.ascii	"RTC_Init\000"
 9913      496E6974 
 9913      00
 9914              	.LASF127:
ARM GAS  /var/folders/7z/kps_xzfj7sn5l5gkyq8s9db00000gn/T//cck5P0LB.s 			page 176


 9915 00a8 5254435F 		.ascii	"RTC_DayLightSavingConfig\000"
 9915      4461794C 
 9915      69676874 
 9915      53617669 
 9915      6E67436F 
 9916              	.LASF19:
 9917 00c1 44495341 		.ascii	"DISABLE\000"
 9917      424C4500 
 9918              	.LASF54:
 9919 00c9 424B5031 		.ascii	"BKP15R\000"
 9919      355200
 9920              	.LASF10:
 9921 00d0 6C6F6E67 		.ascii	"long long unsigned int\000"
 9921      206C6F6E 
 9921      6720756E 
 9921      7369676E 
 9921      65642069 
 9922              	.LASF131:
 9923 00e7 5254435F 		.ascii	"RTC_GetStoreOperation\000"
 9923      47657453 
 9923      746F7265 
 9923      4F706572 
 9923      6174696F 
 9924              	.LASF99:
 9925 00fd 5254435F 		.ascii	"RTC_SetTime\000"
 9925      53657454 
 9925      696D6500 
 9926              	.LASF145:
 9927 0109 72656361 		.ascii	"recalpfcount\000"
 9927      6C706663 
 9927      6F756E74 
 9927      00
 9928              	.LASF78:
 9929 0116 5254435F 		.ascii	"RTC_AlarmTypeDef\000"
 9929      416C6172 
 9929      6D547970 
 9929      65446566 
 9929      00
 9930              	.LASF194:
 9931 0127 49544D5F 		.ascii	"ITM_RxBuffer\000"
 9931      52784275 
 9931      66666572 
 9931      00
 9932              	.LASF59:
 9933 0134 5254435F 		.ascii	"RTC_TypeDef\000"
 9933      54797065 
 9933      44656600 
 9934              	.LASF146:
 9935 0140 5254435F 		.ascii	"RTC_TimeStampCmd\000"
 9935      54696D65 
 9935      5374616D 
 9935      70436D64 
 9935      00
 9936              	.LASF157:
 9937 0151 5254435F 		.ascii	"RTC_TamperCmd\000"
 9937      54616D70 
 9937      6572436D 
ARM GAS  /var/folders/7z/kps_xzfj7sn5l5gkyq8s9db00000gn/T//cck5P0LB.s 			page 177


 9937      6400
 9938              	.LASF9:
 9939 015f 6C6F6E67 		.ascii	"long long int\000"
 9939      206C6F6E 
 9939      6720696E 
 9939      7400
 9940              	.LASF0:
 9941 016d 7369676E 		.ascii	"signed char\000"
 9941      65642063 
 9941      68617200 
 9942              	.LASF192:
 9943 0179 5254435F 		.ascii	"RTC_EnterInitMode\000"
 9943      456E7465 
 9943      72496E69 
 9943      744D6F64 
 9943      6500
 9944              	.LASF96:
 9945 018b 77757477 		.ascii	"wutwfstatus\000"
 9945      66737461 
 9945      74757300 
 9946              	.LASF126:
 9947 0197 5254435F 		.ascii	"RTC_WakeUpCmd\000"
 9947      57616B65 
 9947      5570436D 
 9947      6400
 9948              	.LASF33:
 9949 01a5 54535353 		.ascii	"TSSSR\000"
 9949      5200
 9950              	.LASF102:
 9951 01ab 746D7072 		.ascii	"tmpreg\000"
 9951      656700
 9952              	.LASF139:
 9953 01b2 5254435F 		.ascii	"RTC_CalibOutputConfig\000"
 9953      43616C69 
 9953      624F7574 
 9953      70757443 
 9953      6F6E6669 
 9954              	.LASF143:
 9955 01c8 5254435F 		.ascii	"RTC_SmoothCalibPlusPulses\000"
 9955      536D6F6F 
 9955      74684361 
 9955      6C696250 
 9955      6C757350 
 9956              	.LASF6:
 9957 01e2 6C6F6E67 		.ascii	"long int\000"
 9957      20696E74 
 9957      00
 9958              	.LASF183:
 9959 01eb 5254435F 		.ascii	"RTC_FLAG\000"
 9959      464C4147 
 9959      00
 9960              	.LASF64:
 9961 01f4 5254435F 		.ascii	"RTC_Hours\000"
 9961      486F7572 
 9961      7300
 9962              	.LASF88:
 9963 01fe 5254435F 		.ascii	"RTC_InitStruct\000"
ARM GAS  /var/folders/7z/kps_xzfj7sn5l5gkyq8s9db00000gn/T//cck5P0LB.s 			page 178


 9963      496E6974 
 9963      53747275 
 9963      637400
 9964              	.LASF43:
 9965 020d 424B5034 		.ascii	"BKP4R\000"
 9965      5200
 9966              	.LASF37:
 9967 0213 414C524D 		.ascii	"ALRMBSSR\000"
 9967      42535352 
 9967      00
 9968              	.LASF108:
 9969 021c 5254435F 		.ascii	"RTC_DateStructInit\000"
 9969      44617465 
 9969      53747275 
 9969      6374496E 
 9969      697400
 9970              	.LASF151:
 9971 022f 746D7074 		.ascii	"tmptime\000"
 9971      696D6500 
 9972              	.LASF55:
 9973 0237 424B5031 		.ascii	"BKP16R\000"
 9973      365200
 9974              	.LASF20:
 9975 023e 454E4142 		.ascii	"ENABLE\000"
 9975      4C4500
 9976              	.LASF106:
 9977 0245 5254435F 		.ascii	"RTC_SetDate\000"
 9977      53657444 
 9977      61746500 
 9978              	.LASF111:
 9979 0251 5254435F 		.ascii	"RTC_Alarm\000"
 9979      416C6172 
 9979      6D00
 9980              	.LASF86:
 9981 025b 5254435F 		.ascii	"RTC_StructInit\000"
 9981      53747275 
 9981      6374496E 
 9981      697400
 9982              	.LASF182:
 9983 026a 5254435F 		.ascii	"RTC_GetFlagStatus\000"
 9983      47657446 
 9983      6C616753 
 9983      74617475 
 9983      7300
 9984              	.LASF101:
 9985 027c 5254435F 		.ascii	"RTC_TimeStruct\000"
 9985      54696D65 
 9985      53747275 
 9985      637400
 9986              	.LASF173:
 9987 028b 5254435F 		.ascii	"RTC_TimeStampPin\000"
 9987      54696D65 
 9987      5374616D 
 9987      7050696E 
 9987      00
 9988              	.LASF176:
 9989 029c 5254435F 		.ascii	"RTC_SynchroShiftConfig\000"
ARM GAS  /var/folders/7z/kps_xzfj7sn5l5gkyq8s9db00000gn/T//cck5P0LB.s 			page 179


 9989      53796E63 
 9989      68726F53 
 9989      68696674 
 9989      436F6E66 
 9990              	.LASF7:
 9991 02b3 5F5F7569 		.ascii	"__uint32_t\000"
 9991      6E743332 
 9991      5F7400
 9992              	.LASF171:
 9993 02be 5254435F 		.ascii	"RTC_TamperPin\000"
 9993      54616D70 
 9993      65725069 
 9993      6E00
 9994              	.LASF24:
 9995 02cc 4572726F 		.ascii	"ErrorStatus\000"
 9995      72537461 
 9995      74757300 
 9996              	.LASF34:
 9997 02d8 43414C52 		.ascii	"CALR\000"
 9997      00
 9998              	.LASF186:
 9999 02dd 5254435F 		.ascii	"RTC_GetITStatus\000"
 9999      47657449 
 9999      54537461 
 9999      74757300 
 10000              	.LASF158:
 10001 02ed 5254435F 		.ascii	"RTC_TamperFilterConfig\000"
 10001      54616D70 
 10001      65724669 
 10001      6C746572 
 10001      436F6E66 
 10002              	.LASF184:
 10003 0304 62697473 		.ascii	"bitstatus\000"
 10003      74617475 
 10003      7300
 10004              	.LASF142:
 10005 030e 5254435F 		.ascii	"RTC_SmoothCalibPeriod\000"
 10005      536D6F6F 
 10005      74684361 
 10005      6C696250 
 10005      6572696F 
 10006              	.LASF144:
 10007 0324 5254435F 		.ascii	"RTC_SmouthCalibMinusPulsesValue\000"
 10007      536D6F75 
 10007      74684361 
 10007      6C69624D 
 10007      696E7573 
 10008              	.LASF18:
 10009 0344 49545374 		.ascii	"ITStatus\000"
 10009      61747573 
 10009      00
 10010              	.LASF36:
 10011 034d 414C524D 		.ascii	"ALRMASSR\000"
 10011      41535352 
 10011      00
 10012              	.LASF119:
 10013 0356 5254435F 		.ascii	"RTC_AlarmSubSecondValue\000"
ARM GAS  /var/folders/7z/kps_xzfj7sn5l5gkyq8s9db00000gn/T//cck5P0LB.s 			page 180


 10013      416C6172 
 10013      6D537562 
 10013      5365636F 
 10013      6E645661 
 10014              	.LASF180:
 10015 036e 5254435F 		.ascii	"RTC_ITConfig\000"
 10015      4954436F 
 10015      6E666967 
 10015      00
 10016              	.LASF16:
 10017 037b 52455345 		.ascii	"RESET\000"
 10017      5400
 10018              	.LASF32:
 10019 0381 54534452 		.ascii	"TSDR\000"
 10019      00
 10020              	.LASF25:
 10021 0386 50524552 		.ascii	"PRER\000"
 10021      00
 10022              	.LASF148:
 10023 038b 5254435F 		.ascii	"RTC_GetTimeStamp\000"
 10023      47657454 
 10023      696D6553 
 10023      74616D70 
 10023      00
 10024              	.LASF44:
 10025 039c 424B5035 		.ascii	"BKP5R\000"
 10025      5200
 10026              	.LASF169:
 10027 03a2 5254435F 		.ascii	"RTC_ReadBackupRegister\000"
 10027      52656164 
 10027      4261636B 
 10027      75705265 
 10027      67697374 
 10028              	.LASF193:
 10029 03b9 5254435F 		.ascii	"RTC_ExitInitMode\000"
 10029      45786974 
 10029      496E6974 
 10029      4D6F6465 
 10029      00
 10030              	.LASF56:
 10031 03ca 424B5031 		.ascii	"BKP17R\000"
 10031      375200
 10032              	.LASF8:
 10033 03d1 6C6F6E67 		.ascii	"long unsigned int\000"
 10033      20756E73 
 10033      69676E65 
 10033      6420696E 
 10033      7400
 10034              	.LASF69:
 10035 03e3 5254435F 		.ascii	"RTC_WeekDay\000"
 10035      5765656B 
 10035      44617900 
 10036              	.LASF178:
 10037 03ef 5254435F 		.ascii	"RTC_ShiftSubFS\000"
 10037      53686966 
 10037      74537562 
 10037      465300
ARM GAS  /var/folders/7z/kps_xzfj7sn5l5gkyq8s9db00000gn/T//cck5P0LB.s 			page 181


 10038              	.LASF191:
 10039 03fe 2F557365 		.ascii	"/Users/Baram/oroca_bldc_dev/oroca_bldc_dev/\000"
 10039      72732F42 
 10039      6172616D 
 10039      2F6F726F 
 10039      63615F62 
 10040              	.LASF81:
 10041 042a 696E6974 		.ascii	"initstatus\000"
 10041      73746174 
 10041      757300
 10042              	.LASF79:
 10043 0435 696E6974 		.ascii	"initcounter\000"
 10043      636F756E 
 10043      74657200 
 10044              	.LASF95:
 10045 0441 77757463 		.ascii	"wutcounter\000"
 10045      6F756E74 
 10045      657200
 10046              	.LASF129:
 10047 044c 5254435F 		.ascii	"RTC_StoreOperation\000"
 10047      53746F72 
 10047      654F7065 
 10047      72617469 
 10047      6F6E00
 10048              	.LASF66:
 10049 045f 5254435F 		.ascii	"RTC_Seconds\000"
 10049      5365636F 
 10049      6E647300 
 10050              	.LASF92:
 10051 046b 73796E63 		.ascii	"synchrocounter\000"
 10051      68726F63 
 10051      6F756E74 
 10051      657200
 10052              	.LASF35:
 10053 047a 54414643 		.ascii	"TAFCR\000"
 10053      5200
 10054              	.LASF155:
 10055 0480 5254435F 		.ascii	"RTC_Tamper\000"
 10055      54616D70 
 10055      657200
 10056              	.LASF133:
 10057 048b 5254435F 		.ascii	"RTC_Output\000"
 10057      4F757470 
 10057      757400
 10058              	.LASF149:
 10059 0496 5254435F 		.ascii	"RTC_StampTimeStruct\000"
 10059      5374616D 
 10059      7054696D 
 10059      65537472 
 10059      75637400 
 10060              	.LASF49:
 10061 04aa 424B5031 		.ascii	"BKP10R\000"
 10061      305200
 10062              	.LASF31:
 10063 04b1 54535452 		.ascii	"TSTR\000"
 10063      00
 10064              	.LASF132:
ARM GAS  /var/folders/7z/kps_xzfj7sn5l5gkyq8s9db00000gn/T//cck5P0LB.s 			page 182


 10065 04b6 5254435F 		.ascii	"RTC_OutputConfig\000"
 10065      4F757470 
 10065      7574436F 
 10065      6E666967 
 10065      00
 10066              	.LASF130:
 10067 04c7 5254435F 		.ascii	"RTC_GetWakeUpCounter\000"
 10067      47657457 
 10067      616B6555 
 10067      70436F75 
 10067      6E746572 
 10068              	.LASF71:
 10069 04dc 5254435F 		.ascii	"RTC_Date\000"
 10069      44617465 
 10069      00
 10070              	.LASF45:
 10071 04e5 424B5036 		.ascii	"BKP6R\000"
 10071      5200
 10072              	.LASF61:
 10073 04eb 5254435F 		.ascii	"RTC_AsynchPrediv\000"
 10073      4173796E 
 10073      63685072 
 10073      65646976 
 10073      00
 10074              	.LASF98:
 10075 04fc 5254435F 		.ascii	"RTC_BypassShadowCmd\000"
 10075      42797061 
 10075      73735368 
 10075      61646F77 
 10075      436D6400 
 10076              	.LASF57:
 10077 0510 424B5031 		.ascii	"BKP18R\000"
 10077      385200
 10078              	.LASF103:
 10079 0517 5254435F 		.ascii	"RTC_TimeStructInit\000"
 10079      54696D65 
 10079      53747275 
 10079      6374496E 
 10079      697400
 10080              	.LASF107:
 10081 052a 5254435F 		.ascii	"RTC_DateStruct\000"
 10081      44617465 
 10081      53747275 
 10081      637400
 10082              	.LASF140:
 10083 0539 5254435F 		.ascii	"RTC_CalibOutput\000"
 10083      43616C69 
 10083      624F7574 
 10083      70757400 
 10084              	.LASF122:
 10085 0549 5254435F 		.ascii	"RTC_WakeUpClockConfig\000"
 10085      57616B65 
 10085      5570436C 
 10085      6F636B43 
 10085      6F6E6669 
 10086              	.LASF15:
 10087 055f 73697A65 		.ascii	"sizetype\000"
ARM GAS  /var/folders/7z/kps_xzfj7sn5l5gkyq8s9db00000gn/T//cck5P0LB.s 			page 183


 10087      74797065 
 10087      00
 10088              	.LASF22:
 10089 0568 4552524F 		.ascii	"ERROR\000"
 10089      5200
 10090              	.LASF152:
 10091 056e 746D7064 		.ascii	"tmpdate\000"
 10091      61746500 
 10092              	.LASF153:
 10093 0576 5254435F 		.ascii	"RTC_GetTimeStampSubSecond\000"
 10093      47657454 
 10093      696D6553 
 10093      74616D70 
 10093      53756253 
 10094              	.LASF60:
 10095 0590 5254435F 		.ascii	"RTC_HourFormat\000"
 10095      486F7572 
 10095      466F726D 
 10095      617400
 10096              	.LASF156:
 10097 059f 5254435F 		.ascii	"RTC_TamperTrigger\000"
 10097      54616D70 
 10097      65725472 
 10097      69676765 
 10097      7200
 10098              	.LASF21:
 10099 05b1 46756E63 		.ascii	"FunctionalState\000"
 10099      74696F6E 
 10099      616C5374 
 10099      61746500 
 10100              	.LASF164:
 10101 05c1 5254435F 		.ascii	"RTC_TimeStampOnTamperDetectionCmd\000"
 10101      54696D65 
 10101      5374616D 
 10101      704F6E54 
 10101      616D7065 
 10102              	.LASF50:
 10103 05e3 424B5031 		.ascii	"BKP11R\000"
 10103      315200
 10104              	.LASF125:
 10105 05ea 5254435F 		.ascii	"RTC_WakeUpCounter\000"
 10105      57616B65 
 10105      5570436F 
 10105      756E7465 
 10105      7200
 10106              	.LASF68:
 10107 05fc 5254435F 		.ascii	"RTC_TimeTypeDef\000"
 10107      54696D65 
 10107      54797065 
 10107      44656600 
 10108              	.LASF121:
 10109 060c 5254435F 		.ascii	"RTC_GetAlarmSubSecond\000"
 10109      47657441 
 10109      6C61726D 
 10109      53756253 
 10109      65636F6E 
 10110              	.LASF28:
ARM GAS  /var/folders/7z/kps_xzfj7sn5l5gkyq8s9db00000gn/T//cck5P0LB.s 			page 184


 10111 0622 414C524D 		.ascii	"ALRMAR\000"
 10111      415200
 10112              	.LASF73:
 10113 0629 5254435F 		.ascii	"RTC_DateTypeDef\000"
 10113      44617465 
 10113      54797065 
 10113      44656600 
 10114              	.LASF46:
 10115 0639 424B5037 		.ascii	"BKP7R\000"
 10115      5200
 10116              	.LASF110:
 10117 063f 5254435F 		.ascii	"RTC_SetAlarm\000"
 10117      53657441 
 10117      6C61726D 
 10117      00
 10118              	.LASF75:
 10119 064c 5254435F 		.ascii	"RTC_AlarmMask\000"
 10119      416C6172 
 10119      6D4D6173 
 10119      6B00
 10120              	.LASF190:
 10121 065a 6C69622F 		.ascii	"lib/ChibiOS_2.6.6/ext/stdperiph_stm32f4/src/stm32f4"
 10121      43686962 
 10121      694F535F 
 10121      322E362E 
 10121      362F6578 
 10122 068d 78785F72 		.ascii	"xx_rtc.c\000"
 10122      74632E63 
 10122      00
 10123              	.LASF58:
 10124 0696 424B5031 		.ascii	"BKP19R\000"
 10124      395200
 10125              	.LASF154:
 10126 069d 5254435F 		.ascii	"RTC_TamperTriggerConfig\000"
 10126      54616D70 
 10126      65725472 
 10126      69676765 
 10126      72436F6E 
 10127              	.LASF115:
 10128 06b5 5254435F 		.ascii	"RTC_AlarmCmd\000"
 10128      416C6172 
 10128      6D436D64 
 10128      00
 10129              	.LASF123:
 10130 06c2 5254435F 		.ascii	"RTC_WakeUpClock\000"
 10130      57616B65 
 10130      5570436C 
 10130      6F636B00 
 10131              	.LASF97:
 10132 06d2 5254435F 		.ascii	"RTC_RefClockCmd\000"
 10132      52656643 
 10132      6C6F636B 
 10132      436D6400 
 10133              	.LASF104:
 10134 06e2 5254435F 		.ascii	"RTC_GetTime\000"
 10134      47657454 
 10134      696D6500 
ARM GAS  /var/folders/7z/kps_xzfj7sn5l5gkyq8s9db00000gn/T//cck5P0LB.s 			page 185


 10135              	.LASF136:
 10136 06ee 5254435F 		.ascii	"RTC_CalibSign\000"
 10136      43616C69 
 10136      62536967 
 10136      6E00
 10137              	.LASF13:
 10138 06fc 696E7433 		.ascii	"int32_t\000"
 10138      325F7400 
 10139              	.LASF1:
 10140 0704 756E7369 		.ascii	"unsigned char\000"
 10140      676E6564 
 10140      20636861 
 10140      7200
 10141              	.LASF134:
 10142 0712 5254435F 		.ascii	"RTC_OutputPolarity\000"
 10142      4F757470 
 10142      7574506F 
 10142      6C617269 
 10142      747900
 10143              	.LASF161:
 10144 0725 5254435F 		.ascii	"RTC_TamperSamplingFreq\000"
 10144      54616D70 
 10144      65725361 
 10144      6D706C69 
 10144      6E674672 
 10145              	.LASF150:
 10146 073c 5254435F 		.ascii	"RTC_StampDateStruct\000"
 10146      5374616D 
 10146      70446174 
 10146      65537472 
 10146      75637400 
 10147              	.LASF166:
 10148 0750 5254435F 		.ascii	"RTC_WriteBackupRegister\000"
 10148      57726974 
 10148      65426163 
 10148      6B757052 
 10148      65676973 
 10149              	.LASF94:
 10150 0768 5254435F 		.ascii	"RTC_DeInit\000"
 10150      4465496E 
 10150      697400
 10151              	.LASF2:
 10152 0773 73686F72 		.ascii	"short int\000"
 10152      7420696E 
 10152      7400
 10153              	.LASF162:
 10154 077d 5254435F 		.ascii	"RTC_TamperPinsPrechargeDuration\000"
 10154      54616D70 
 10154      65725069 
 10154      6E735072 
 10154      65636861 
 10155              	.LASF189:
 10156 079d 474E5520 		.ascii	"GNU C 4.9.3 20150303 (release) [ARM/embedded-4_9-br"
 10156      4320342E 
 10156      392E3320 
 10156      32303135 
 10156      30333033 
ARM GAS  /var/folders/7z/kps_xzfj7sn5l5gkyq8s9db00000gn/T//cck5P0LB.s 			page 186


 10157 07d0 616E6368 		.ascii	"anch revision 221220] -mcpu=cortex-m4 -mfloat-abi=h"
 10157      20726576 
 10157      6973696F 
 10157      6E203232 
 10157      31323230 
 10158 0803 61726420 		.ascii	"ard -mfpu=fpv4-sp-d16 -mno-thumb-interwork -mthumb "
 10158      2D6D6670 
 10158      753D6670 
 10158      76342D73 
 10158      702D6431 
 10159 0836 2D676764 		.ascii	"-ggdb -O2 -std=gnu99 -fomit-frame-pointer -falign-f"
 10159      62202D4F 
 10159      32202D73 
 10159      74643D67 
 10159      6E753939 
 10160 0869 756E6374 		.ascii	"unctions=16 -ffunction-sections -fdata-sections -fn"
 10160      696F6E73 
 10160      3D313620 
 10160      2D666675 
 10160      6E637469 
 10161 089c 6F2D636F 		.ascii	"o-common -fsingle-precision-constant\000"
 10161      6D6D6F6E 
 10161      202D6673 
 10161      696E676C 
 10161      652D7072 
 10162              	.LASF39:
 10163 08c1 424B5030 		.ascii	"BKP0R\000"
 10163      5200
 10164              	.LASF85:
 10165 08c7 62636468 		.ascii	"bcdhigh\000"
 10165      69676800 
 10166              	.LASF51:
 10167 08cf 424B5031 		.ascii	"BKP12R\000"
 10167      325200
 10168              	.LASF65:
 10169 08d6 5254435F 		.ascii	"RTC_Minutes\000"
 10169      4D696E75 
 10169      74657300 
 10170              	.LASF29:
 10171 08e2 414C524D 		.ascii	"ALRMBR\000"
 10171      425200
 10172              	.LASF91:
 10173 08e9 5254435F 		.ascii	"RTC_WaitForSynchro\000"
 10173      57616974 
 10173      466F7253 
 10173      796E6368 
 10173      726F00
 10174              	.LASF14:
 10175 08fc 75696E74 		.ascii	"uint32_t\000"
 10175      33325F74 
 10175      00
 10176              	.LASF167:
 10177 0905 5254435F 		.ascii	"RTC_BKP_DR\000"
 10177      424B505F 
 10177      445200
 10178              	.LASF170:
 10179 0910 5254435F 		.ascii	"RTC_TamperPinSelection\000"
ARM GAS  /var/folders/7z/kps_xzfj7sn5l5gkyq8s9db00000gn/T//cck5P0LB.s 			page 187


 10179      54616D70 
 10179      65725069 
 10179      6E53656C 
 10179      65637469 
 10180              	.LASF26:
 10181 0927 57555452 		.ascii	"WUTR\000"
 10181      00
 10182              	.LASF188:
 10183 092c 5254435F 		.ascii	"RTC_ClearITPendingBit\000"
 10183      436C6561 
 10183      72495450 
 10183      656E6469 
 10183      6E674269 
 10184              	.LASF159:
 10185 0942 5254435F 		.ascii	"RTC_TamperFilter\000"
 10185      54616D70 
 10185      65724669 
 10185      6C746572 
 10185      00
 10186              	.LASF109:
 10187 0953 5254435F 		.ascii	"RTC_GetDate\000"
 10187      47657444 
 10187      61746500 
 10188              	.LASF113:
 10189 095f 5254435F 		.ascii	"RTC_AlarmStructInit\000"
 10189      416C6172 
 10189      6D537472 
 10189      75637449 
 10189      6E697400 
 10190              	.LASF11:
 10191 0973 756E7369 		.ascii	"unsigned int\000"
 10191      676E6564 
 10191      20696E74 
 10191      00
 10192              	.LASF100:
 10193 0980 5254435F 		.ascii	"RTC_Format\000"
 10193      466F726D 
 10193      617400
 10194              	.LASF163:
 10195 098b 5254435F 		.ascii	"RTC_TamperPrechargeDuration\000"
 10195      54616D70 
 10195      65725072 
 10195      65636861 
 10195      72676544 
 10196              	.LASF177:
 10197 09a7 5254435F 		.ascii	"RTC_ShiftAdd1S\000"
 10197      53686966 
 10197      74416464 
 10197      315300
 10198              	.LASF116:
 10199 09b6 616C6172 		.ascii	"alarmcounter\000"
 10199      6D636F75 
 10199      6E746572 
 10199      00
 10200              	.LASF5:
 10201 09c3 5F5F696E 		.ascii	"__int32_t\000"
 10201      7433325F 
ARM GAS  /var/folders/7z/kps_xzfj7sn5l5gkyq8s9db00000gn/T//cck5P0LB.s 			page 188


 10201      7400
 10202              	.LASF67:
 10203 09cd 5254435F 		.ascii	"RTC_H12\000"
 10203      48313200 
 10204              	.LASF74:
 10205 09d5 5254435F 		.ascii	"RTC_AlarmTime\000"
 10205      416C6172 
 10205      6D54696D 
 10205      6500
 10206              	.LASF40:
 10207 09e3 424B5031 		.ascii	"BKP1R\000"
 10207      5200
 10208              	.LASF47:
 10209 09e9 424B5038 		.ascii	"BKP8R\000"
 10209      5200
 10210              	.LASF52:
 10211 09ef 424B5031 		.ascii	"BKP13R\000"
 10211      335200
 10212              	.LASF3:
 10213 09f6 73686F72 		.ascii	"short unsigned int\000"
 10213      7420756E 
 10213      7369676E 
 10213      65642069 
 10213      6E7400
 10214              	.LASF147:
 10215 0a09 5254435F 		.ascii	"RTC_TimeStampEdge\000"
 10215      54696D65 
 10215      5374616D 
 10215      70456467 
 10215      6500
 10216              	.LASF174:
 10217 0a1b 5254435F 		.ascii	"RTC_OutputTypeConfig\000"
 10217      4F757470 
 10217      75745479 
 10217      7065436F 
 10217      6E666967 
 10218              	.LASF62:
 10219 0a30 5254435F 		.ascii	"RTC_SynchPrediv\000"
 10219      53796E63 
 10219      68507265 
 10219      64697600 
 10220              	.LASF76:
 10221 0a40 5254435F 		.ascii	"RTC_AlarmDateWeekDaySel\000"
 10221      416C6172 
 10221      6D446174 
 10221      65576565 
 10221      6B446179 
 10222              	.LASF70:
 10223 0a58 5254435F 		.ascii	"RTC_Month\000"
 10223      4D6F6E74 
 10223      6800
 10224              	.LASF38:
 10225 0a62 52455345 		.ascii	"RESERVED7\000"
 10225      52564544 
 10225      3700
 10226              	.LASF77:
 10227 0a6c 5254435F 		.ascii	"RTC_AlarmDateWeekDay\000"
ARM GAS  /var/folders/7z/kps_xzfj7sn5l5gkyq8s9db00000gn/T//cck5P0LB.s 			page 189


 10227      416C6172 
 10227      6D446174 
 10227      65576565 
 10227      6B446179 
 10228              	.LASF48:
 10229 0a81 424B5039 		.ascii	"BKP9R\000"
 10229      5200
 10230              	.LASF30:
 10231 0a87 53484946 		.ascii	"SHIFTR\000"
 10231      545200
 10232              	.LASF87:
 10233 0a8e 5254435F 		.ascii	"RTC_WriteProtectionCmd\000"
 10233      57726974 
 10233      6550726F 
 10233      74656374 
 10233      696F6E43 
 10234              	.LASF135:
 10235 0aa5 5254435F 		.ascii	"RTC_CoarseCalibConfig\000"
 10235      436F6172 
 10235      73654361 
 10235      6C696243 
 10235      6F6E6669 
 10236              	.LASF80:
 10237 0abb 73746174 		.ascii	"status\000"
 10237      757300
 10238              	.LASF72:
 10239 0ac2 5254435F 		.ascii	"RTC_Year\000"
 10239      59656172 
 10239      00
 10240              	.LASF83:
 10241 0acb 5254435F 		.ascii	"RTC_ByteToBcd2\000"
 10241      42797465 
 10241      546F4263 
 10241      643200
 10242              	.LASF114:
 10243 0ada 5254435F 		.ascii	"RTC_GetAlarm\000"
 10243      47657441 
 10243      6C61726D 
 10243      00
 10244              	.LASF84:
 10245 0ae7 56616C75 		.ascii	"Value\000"
 10245      6500
 10246              	.LASF12:
 10247 0aed 75696E74 		.ascii	"uint8_t\000"
 10247      385F7400 
 10248              	.LASF168:
 10249 0af5 44617461 		.ascii	"Data\000"
 10249      00
 10250              	.LASF23:
 10251 0afa 53554343 		.ascii	"SUCCESS\000"
 10251      45535300 
 10252              	.LASF82:
 10253 0b02 5254435F 		.ascii	"RTC_Bcd2ToByte\000"
 10253      42636432 
 10253      546F4279 
 10253      746500
 10254              	.LASF138:
ARM GAS  /var/folders/7z/kps_xzfj7sn5l5gkyq8s9db00000gn/T//cck5P0LB.s 			page 190


 10255 0b11 5254435F 		.ascii	"RTC_CalibOutputCmd\000"
 10255      43616C69 
 10255      624F7574 
 10255      70757443 
 10255      6D6400
 10256              	.LASF175:
 10257 0b24 5254435F 		.ascii	"RTC_OutputType\000"
 10257      4F757470 
 10257      75745479 
 10257      706500
 10258              	.LASF93:
 10259 0b33 73796E63 		.ascii	"synchrostatus\000"
 10259      68726F73 
 10259      74617475 
 10259      7300
 10260              	.LASF124:
 10261 0b41 5254435F 		.ascii	"RTC_SetWakeUpCounter\000"
 10261      53657457 
 10261      616B6555 
 10261      70436F75 
 10261      6E746572 
 10262              	.LASF63:
 10263 0b56 5254435F 		.ascii	"RTC_InitTypeDef\000"
 10263      496E6974 
 10263      54797065 
 10263      44656600 
 10264              	.LASF117:
 10265 0b66 616C6172 		.ascii	"alarmstatus\000"
 10265      6D737461 
 10265      74757300 
 10266              	.LASF41:
 10267 0b72 424B5032 		.ascii	"BKP2R\000"
 10267      5200
 10268              	.LASF172:
 10269 0b78 5254435F 		.ascii	"RTC_TimeStampPinSelection\000"
 10269      54696D65 
 10269      5374616D 
 10269      7050696E 
 10269      53656C65 
 10270              	.LASF105:
 10271 0b92 5254435F 		.ascii	"RTC_GetSubSecond\000"
 10271      47657453 
 10271      75625365 
 10271      636F6E64 
 10271      00
 10272              	.LASF53:
 10273 0ba3 424B5031 		.ascii	"BKP14R\000"
 10273      345200
 10274              	.LASF181:
 10275 0baa 5254435F 		.ascii	"RTC_IT\000"
 10275      495400
 10276              	.LASF179:
 10277 0bb1 73687066 		.ascii	"shpfcount\000"
 10277      636F756E 
 10277      7400
 10278              	.LASF165:
 10279 0bbb 5254435F 		.ascii	"RTC_TamperPullUpCmd\000"
ARM GAS  /var/folders/7z/kps_xzfj7sn5l5gkyq8s9db00000gn/T//cck5P0LB.s 			page 191


 10279      54616D70 
 10279      65725075 
 10279      6C6C5570 
 10279      436D6400 
 10280              	.LASF187:
 10281 0bcf 656E6162 		.ascii	"enablestatus\000"
 10281      6C657374 
 10281      61747573 
 10281      00
 10282              	.LASF160:
 10283 0bdc 5254435F 		.ascii	"RTC_TamperSamplingFreqConfig\000"
 10283      54616D70 
 10283      65725361 
 10283      6D706C69 
 10283      6E674672 
 10284              	.LASF141:
 10285 0bf9 5254435F 		.ascii	"RTC_SmoothCalibConfig\000"
 10285      536D6F6F 
 10285      74684361 
 10285      6C696243 
 10285      6F6E6669 
 10286              		.ident	"GCC: (GNU Tools for ARM Embedded Processors) 4.9.3 20150303 (release) [ARM/embedded-4_9-br
ARM GAS  /var/folders/7z/kps_xzfj7sn5l5gkyq8s9db00000gn/T//cck5P0LB.s 			page 192


DEFINED SYMBOLS
                            *ABS*:0000000000000000 stm32f4xx_rtc.c
/var/folders/7z/kps_xzfj7sn5l5gkyq8s9db00000gn/T//cck5P0LB.s:21     .text.RTC_StructInit:0000000000000000 $t
/var/folders/7z/kps_xzfj7sn5l5gkyq8s9db00000gn/T//cck5P0LB.s:27     .text.RTC_StructInit:0000000000000000 RTC_StructInit
/var/folders/7z/kps_xzfj7sn5l5gkyq8s9db00000gn/T//cck5P0LB.s:46     .text.RTC_WriteProtectionCmd:0000000000000000 $t
/var/folders/7z/kps_xzfj7sn5l5gkyq8s9db00000gn/T//cck5P0LB.s:52     .text.RTC_WriteProtectionCmd:0000000000000000 RTC_WriteProtectionCmd
/var/folders/7z/kps_xzfj7sn5l5gkyq8s9db00000gn/T//cck5P0LB.s:81     .text.RTC_WriteProtectionCmd:0000000000000014 $d
/var/folders/7z/kps_xzfj7sn5l5gkyq8s9db00000gn/T//cck5P0LB.s:86     .text.RTC_EnterInitMode:0000000000000000 $t
/var/folders/7z/kps_xzfj7sn5l5gkyq8s9db00000gn/T//cck5P0LB.s:92     .text.RTC_EnterInitMode:0000000000000000 RTC_EnterInitMode
/var/folders/7z/kps_xzfj7sn5l5gkyq8s9db00000gn/T//cck5P0LB.s:167    .text.RTC_EnterInitMode:0000000000000040 $d
/var/folders/7z/kps_xzfj7sn5l5gkyq8s9db00000gn/T//cck5P0LB.s:172    .text.RTC_Init:0000000000000000 $t
/var/folders/7z/kps_xzfj7sn5l5gkyq8s9db00000gn/T//cck5P0LB.s:178    .text.RTC_Init:0000000000000000 RTC_Init
/var/folders/7z/kps_xzfj7sn5l5gkyq8s9db00000gn/T//cck5P0LB.s:246    .text.RTC_Init:0000000000000044 $d
/var/folders/7z/kps_xzfj7sn5l5gkyq8s9db00000gn/T//cck5P0LB.s:251    .text.RTC_ExitInitMode:0000000000000000 $t
/var/folders/7z/kps_xzfj7sn5l5gkyq8s9db00000gn/T//cck5P0LB.s:257    .text.RTC_ExitInitMode:0000000000000000 RTC_ExitInitMode
/var/folders/7z/kps_xzfj7sn5l5gkyq8s9db00000gn/T//cck5P0LB.s:273    .text.RTC_ExitInitMode:000000000000000c $d
/var/folders/7z/kps_xzfj7sn5l5gkyq8s9db00000gn/T//cck5P0LB.s:278    .text.RTC_WaitForSynchro:0000000000000000 $t
/var/folders/7z/kps_xzfj7sn5l5gkyq8s9db00000gn/T//cck5P0LB.s:284    .text.RTC_WaitForSynchro:0000000000000000 RTC_WaitForSynchro
/var/folders/7z/kps_xzfj7sn5l5gkyq8s9db00000gn/T//cck5P0LB.s:355    .text.RTC_WaitForSynchro:0000000000000040 $d
/var/folders/7z/kps_xzfj7sn5l5gkyq8s9db00000gn/T//cck5P0LB.s:360    .text.RTC_DeInit:0000000000000000 $t
/var/folders/7z/kps_xzfj7sn5l5gkyq8s9db00000gn/T//cck5P0LB.s:366    .text.RTC_DeInit:0000000000000000 RTC_DeInit
/var/folders/7z/kps_xzfj7sn5l5gkyq8s9db00000gn/T//cck5P0LB.s:499    .text.RTC_DeInit:0000000000000084 $d
/var/folders/7z/kps_xzfj7sn5l5gkyq8s9db00000gn/T//cck5P0LB.s:505    .text.RTC_RefClockCmd:0000000000000000 $t
/var/folders/7z/kps_xzfj7sn5l5gkyq8s9db00000gn/T//cck5P0LB.s:511    .text.RTC_RefClockCmd:0000000000000000 RTC_RefClockCmd
/var/folders/7z/kps_xzfj7sn5l5gkyq8s9db00000gn/T//cck5P0LB.s:576    .text.RTC_RefClockCmd:000000000000003c $d
/var/folders/7z/kps_xzfj7sn5l5gkyq8s9db00000gn/T//cck5P0LB.s:581    .text.RTC_BypassShadowCmd:0000000000000000 $t
/var/folders/7z/kps_xzfj7sn5l5gkyq8s9db00000gn/T//cck5P0LB.s:587    .text.RTC_BypassShadowCmd:0000000000000000 RTC_BypassShadowCmd
/var/folders/7z/kps_xzfj7sn5l5gkyq8s9db00000gn/T//cck5P0LB.s:628    .text.RTC_BypassShadowCmd:000000000000002c $d
/var/folders/7z/kps_xzfj7sn5l5gkyq8s9db00000gn/T//cck5P0LB.s:633    .text.RTC_SetTime:0000000000000000 $t
/var/folders/7z/kps_xzfj7sn5l5gkyq8s9db00000gn/T//cck5P0LB.s:639    .text.RTC_SetTime:0000000000000000 RTC_SetTime
/var/folders/7z/kps_xzfj7sn5l5gkyq8s9db00000gn/T//cck5P0LB.s:891    .text.RTC_SetTime:00000000000000ec $d
/var/folders/7z/kps_xzfj7sn5l5gkyq8s9db00000gn/T//cck5P0LB.s:898    .text.RTC_TimeStructInit:0000000000000000 $t
/var/folders/7z/kps_xzfj7sn5l5gkyq8s9db00000gn/T//cck5P0LB.s:904    .text.RTC_TimeStructInit:0000000000000000 RTC_TimeStructInit
/var/folders/7z/kps_xzfj7sn5l5gkyq8s9db00000gn/T//cck5P0LB.s:926    .text.RTC_GetTime:0000000000000000 $t
/var/folders/7z/kps_xzfj7sn5l5gkyq8s9db00000gn/T//cck5P0LB.s:932    .text.RTC_GetTime:0000000000000000 RTC_GetTime
/var/folders/7z/kps_xzfj7sn5l5gkyq8s9db00000gn/T//cck5P0LB.s:1057   .text.RTC_GetTime:0000000000000058 $d
/var/folders/7z/kps_xzfj7sn5l5gkyq8s9db00000gn/T//cck5P0LB.s:1062   .text.RTC_GetSubSecond:0000000000000000 $t
/var/folders/7z/kps_xzfj7sn5l5gkyq8s9db00000gn/T//cck5P0LB.s:1068   .text.RTC_GetSubSecond:0000000000000000 RTC_GetSubSecond
/var/folders/7z/kps_xzfj7sn5l5gkyq8s9db00000gn/T//cck5P0LB.s:1087   .text.RTC_GetSubSecond:0000000000000008 $d
/var/folders/7z/kps_xzfj7sn5l5gkyq8s9db00000gn/T//cck5P0LB.s:1092   .text.RTC_SetDate:0000000000000000 $t
/var/folders/7z/kps_xzfj7sn5l5gkyq8s9db00000gn/T//cck5P0LB.s:1098   .text.RTC_SetDate:0000000000000000 RTC_SetDate
/var/folders/7z/kps_xzfj7sn5l5gkyq8s9db00000gn/T//cck5P0LB.s:1338   .text.RTC_SetDate:00000000000000dc $d
/var/folders/7z/kps_xzfj7sn5l5gkyq8s9db00000gn/T//cck5P0LB.s:1345   .text.RTC_DateStructInit:0000000000000000 $t
/var/folders/7z/kps_xzfj7sn5l5gkyq8s9db00000gn/T//cck5P0LB.s:1351   .text.RTC_DateStructInit:0000000000000000 RTC_DateStructInit
/var/folders/7z/kps_xzfj7sn5l5gkyq8s9db00000gn/T//cck5P0LB.s:1375   .text.RTC_GetDate:0000000000000000 $t
/var/folders/7z/kps_xzfj7sn5l5gkyq8s9db00000gn/T//cck5P0LB.s:1381   .text.RTC_GetDate:0000000000000000 RTC_GetDate
/var/folders/7z/kps_xzfj7sn5l5gkyq8s9db00000gn/T//cck5P0LB.s:1498   .text.RTC_GetDate:0000000000000054 $d
/var/folders/7z/kps_xzfj7sn5l5gkyq8s9db00000gn/T//cck5P0LB.s:1503   .text.RTC_SetAlarm:0000000000000000 $t
/var/folders/7z/kps_xzfj7sn5l5gkyq8s9db00000gn/T//cck5P0LB.s:1509   .text.RTC_SetAlarm:0000000000000000 RTC_SetAlarm
/var/folders/7z/kps_xzfj7sn5l5gkyq8s9db00000gn/T//cck5P0LB.s:1781   .text.RTC_SetAlarm:0000000000000108 $d
/var/folders/7z/kps_xzfj7sn5l5gkyq8s9db00000gn/T//cck5P0LB.s:1788   .text.RTC_AlarmStructInit:0000000000000000 $t
/var/folders/7z/kps_xzfj7sn5l5gkyq8s9db00000gn/T//cck5P0LB.s:1794   .text.RTC_AlarmStructInit:0000000000000000 RTC_AlarmStructInit
/var/folders/7z/kps_xzfj7sn5l5gkyq8s9db00000gn/T//cck5P0LB.s:1824   .text.RTC_GetAlarm:0000000000000000 $t
/var/folders/7z/kps_xzfj7sn5l5gkyq8s9db00000gn/T//cck5P0LB.s:1830   .text.RTC_GetAlarm:0000000000000000 RTC_GetAlarm
/var/folders/7z/kps_xzfj7sn5l5gkyq8s9db00000gn/T//cck5P0LB.s:1978   .text.RTC_GetAlarm:0000000000000088 $d
/var/folders/7z/kps_xzfj7sn5l5gkyq8s9db00000gn/T//cck5P0LB.s:1983   .text.RTC_AlarmCmd:0000000000000000 $t
/var/folders/7z/kps_xzfj7sn5l5gkyq8s9db00000gn/T//cck5P0LB.s:1989   .text.RTC_AlarmCmd:0000000000000000 RTC_AlarmCmd
ARM GAS  /var/folders/7z/kps_xzfj7sn5l5gkyq8s9db00000gn/T//cck5P0LB.s 			page 193


/var/folders/7z/kps_xzfj7sn5l5gkyq8s9db00000gn/T//cck5P0LB.s:2091   .text.RTC_AlarmCmd:0000000000000058 $d
/var/folders/7z/kps_xzfj7sn5l5gkyq8s9db00000gn/T//cck5P0LB.s:2096   .text.RTC_AlarmSubSecondConfig:0000000000000000 $t
/var/folders/7z/kps_xzfj7sn5l5gkyq8s9db00000gn/T//cck5P0LB.s:2102   .text.RTC_AlarmSubSecondConfig:0000000000000000 RTC_AlarmSubSecondConfig
/var/folders/7z/kps_xzfj7sn5l5gkyq8s9db00000gn/T//cck5P0LB.s:2148   .text.RTC_AlarmSubSecondConfig:0000000000000024 $d
/var/folders/7z/kps_xzfj7sn5l5gkyq8s9db00000gn/T//cck5P0LB.s:2153   .text.RTC_GetAlarmSubSecond:0000000000000000 $t
/var/folders/7z/kps_xzfj7sn5l5gkyq8s9db00000gn/T//cck5P0LB.s:2159   .text.RTC_GetAlarmSubSecond:0000000000000000 RTC_GetAlarmSubSecond
/var/folders/7z/kps_xzfj7sn5l5gkyq8s9db00000gn/T//cck5P0LB.s:2184   .text.RTC_GetAlarmSubSecond:0000000000000014 $d
/var/folders/7z/kps_xzfj7sn5l5gkyq8s9db00000gn/T//cck5P0LB.s:2189   .text.RTC_WakeUpClockConfig:0000000000000000 $t
/var/folders/7z/kps_xzfj7sn5l5gkyq8s9db00000gn/T//cck5P0LB.s:2195   .text.RTC_WakeUpClockConfig:0000000000000000 RTC_WakeUpClockConfig
/var/folders/7z/kps_xzfj7sn5l5gkyq8s9db00000gn/T//cck5P0LB.s:2230   .text.RTC_WakeUpClockConfig:0000000000000020 $d
/var/folders/7z/kps_xzfj7sn5l5gkyq8s9db00000gn/T//cck5P0LB.s:2235   .text.RTC_SetWakeUpCounter:0000000000000000 $t
/var/folders/7z/kps_xzfj7sn5l5gkyq8s9db00000gn/T//cck5P0LB.s:2241   .text.RTC_SetWakeUpCounter:0000000000000000 RTC_SetWakeUpCounter
/var/folders/7z/kps_xzfj7sn5l5gkyq8s9db00000gn/T//cck5P0LB.s:2278   .text.RTC_SetWakeUpCounter:0000000000000018 $d
/var/folders/7z/kps_xzfj7sn5l5gkyq8s9db00000gn/T//cck5P0LB.s:2283   .text.RTC_GetWakeUpCounter:0000000000000000 $t
/var/folders/7z/kps_xzfj7sn5l5gkyq8s9db00000gn/T//cck5P0LB.s:2289   .text.RTC_GetWakeUpCounter:0000000000000000 RTC_GetWakeUpCounter
/var/folders/7z/kps_xzfj7sn5l5gkyq8s9db00000gn/T//cck5P0LB.s:2305   .text.RTC_GetWakeUpCounter:0000000000000008 $d
/var/folders/7z/kps_xzfj7sn5l5gkyq8s9db00000gn/T//cck5P0LB.s:2310   .text.RTC_WakeUpCmd:0000000000000000 $t
/var/folders/7z/kps_xzfj7sn5l5gkyq8s9db00000gn/T//cck5P0LB.s:2316   .text.RTC_WakeUpCmd:0000000000000000 RTC_WakeUpCmd
/var/folders/7z/kps_xzfj7sn5l5gkyq8s9db00000gn/T//cck5P0LB.s:2409   .text.RTC_WakeUpCmd:0000000000000054 $d
/var/folders/7z/kps_xzfj7sn5l5gkyq8s9db00000gn/T//cck5P0LB.s:2414   .text.RTC_DayLightSavingConfig:0000000000000000 $t
/var/folders/7z/kps_xzfj7sn5l5gkyq8s9db00000gn/T//cck5P0LB.s:2420   .text.RTC_DayLightSavingConfig:0000000000000000 RTC_DayLightSavingConfig
/var/folders/7z/kps_xzfj7sn5l5gkyq8s9db00000gn/T//cck5P0LB.s:2467   .text.RTC_DayLightSavingConfig:0000000000000028 $d
/var/folders/7z/kps_xzfj7sn5l5gkyq8s9db00000gn/T//cck5P0LB.s:2472   .text.RTC_GetStoreOperation:0000000000000000 $t
/var/folders/7z/kps_xzfj7sn5l5gkyq8s9db00000gn/T//cck5P0LB.s:2478   .text.RTC_GetStoreOperation:0000000000000000 RTC_GetStoreOperation
/var/folders/7z/kps_xzfj7sn5l5gkyq8s9db00000gn/T//cck5P0LB.s:2494   .text.RTC_GetStoreOperation:000000000000000c $d
/var/folders/7z/kps_xzfj7sn5l5gkyq8s9db00000gn/T//cck5P0LB.s:2499   .text.RTC_OutputConfig:0000000000000000 $t
/var/folders/7z/kps_xzfj7sn5l5gkyq8s9db00000gn/T//cck5P0LB.s:2505   .text.RTC_OutputConfig:0000000000000000 RTC_OutputConfig
/var/folders/7z/kps_xzfj7sn5l5gkyq8s9db00000gn/T//cck5P0LB.s:2552   .text.RTC_OutputConfig:0000000000000028 $d
/var/folders/7z/kps_xzfj7sn5l5gkyq8s9db00000gn/T//cck5P0LB.s:2557   .text.RTC_CoarseCalibConfig:0000000000000000 $t
/var/folders/7z/kps_xzfj7sn5l5gkyq8s9db00000gn/T//cck5P0LB.s:2563   .text.RTC_CoarseCalibConfig:0000000000000000 RTC_CoarseCalibConfig
/var/folders/7z/kps_xzfj7sn5l5gkyq8s9db00000gn/T//cck5P0LB.s:2619   .text.RTC_CoarseCalibConfig:000000000000002c $d
/var/folders/7z/kps_xzfj7sn5l5gkyq8s9db00000gn/T//cck5P0LB.s:2624   .text.RTC_CoarseCalibCmd:0000000000000000 $t
/var/folders/7z/kps_xzfj7sn5l5gkyq8s9db00000gn/T//cck5P0LB.s:2630   .text.RTC_CoarseCalibCmd:0000000000000000 RTC_CoarseCalibCmd
/var/folders/7z/kps_xzfj7sn5l5gkyq8s9db00000gn/T//cck5P0LB.s:2695   .text.RTC_CoarseCalibCmd:000000000000003c $d
/var/folders/7z/kps_xzfj7sn5l5gkyq8s9db00000gn/T//cck5P0LB.s:2700   .text.RTC_CalibOutputCmd:0000000000000000 $t
/var/folders/7z/kps_xzfj7sn5l5gkyq8s9db00000gn/T//cck5P0LB.s:2706   .text.RTC_CalibOutputCmd:0000000000000000 RTC_CalibOutputCmd
/var/folders/7z/kps_xzfj7sn5l5gkyq8s9db00000gn/T//cck5P0LB.s:2747   .text.RTC_CalibOutputCmd:000000000000002c $d
/var/folders/7z/kps_xzfj7sn5l5gkyq8s9db00000gn/T//cck5P0LB.s:2752   .text.RTC_CalibOutputConfig:0000000000000000 $t
/var/folders/7z/kps_xzfj7sn5l5gkyq8s9db00000gn/T//cck5P0LB.s:2758   .text.RTC_CalibOutputConfig:0000000000000000 RTC_CalibOutputConfig
/var/folders/7z/kps_xzfj7sn5l5gkyq8s9db00000gn/T//cck5P0LB.s:2793   .text.RTC_CalibOutputConfig:0000000000000020 $d
/var/folders/7z/kps_xzfj7sn5l5gkyq8s9db00000gn/T//cck5P0LB.s:2798   .text.RTC_SmoothCalibConfig:0000000000000000 $t
/var/folders/7z/kps_xzfj7sn5l5gkyq8s9db00000gn/T//cck5P0LB.s:2804   .text.RTC_SmoothCalibConfig:0000000000000000 RTC_SmoothCalibConfig
/var/folders/7z/kps_xzfj7sn5l5gkyq8s9db00000gn/T//cck5P0LB.s:2886   .text.RTC_SmoothCalibConfig:0000000000000048 $d
/var/folders/7z/kps_xzfj7sn5l5gkyq8s9db00000gn/T//cck5P0LB.s:2891   .text.RTC_TimeStampCmd:0000000000000000 $t
/var/folders/7z/kps_xzfj7sn5l5gkyq8s9db00000gn/T//cck5P0LB.s:2897   .text.RTC_TimeStampCmd:0000000000000000 RTC_TimeStampCmd
/var/folders/7z/kps_xzfj7sn5l5gkyq8s9db00000gn/T//cck5P0LB.s:2958   .text.RTC_TimeStampCmd:0000000000000030 $d
/var/folders/7z/kps_xzfj7sn5l5gkyq8s9db00000gn/T//cck5P0LB.s:2963   .text.RTC_GetTimeStamp:0000000000000000 $t
/var/folders/7z/kps_xzfj7sn5l5gkyq8s9db00000gn/T//cck5P0LB.s:2969   .text.RTC_GetTimeStamp:0000000000000000 RTC_GetTimeStamp
/var/folders/7z/kps_xzfj7sn5l5gkyq8s9db00000gn/T//cck5P0LB.s:3188   .text.RTC_GetTimeStamp:00000000000000b4 $d
/var/folders/7z/kps_xzfj7sn5l5gkyq8s9db00000gn/T//cck5P0LB.s:3193   .text.RTC_GetTimeStampSubSecond:0000000000000000 $t
/var/folders/7z/kps_xzfj7sn5l5gkyq8s9db00000gn/T//cck5P0LB.s:3199   .text.RTC_GetTimeStampSubSecond:0000000000000000 RTC_GetTimeStampSubSecond
/var/folders/7z/kps_xzfj7sn5l5gkyq8s9db00000gn/T//cck5P0LB.s:3214   .text.RTC_GetTimeStampSubSecond:0000000000000008 $d
/var/folders/7z/kps_xzfj7sn5l5gkyq8s9db00000gn/T//cck5P0LB.s:3219   .text.RTC_TamperTriggerConfig:0000000000000000 $t
/var/folders/7z/kps_xzfj7sn5l5gkyq8s9db00000gn/T//cck5P0LB.s:3225   .text.RTC_TamperTriggerConfig:0000000000000000 RTC_TamperTriggerConfig
/var/folders/7z/kps_xzfj7sn5l5gkyq8s9db00000gn/T//cck5P0LB.s:3253   .text.RTC_TamperTriggerConfig:0000000000000018 $d
/var/folders/7z/kps_xzfj7sn5l5gkyq8s9db00000gn/T//cck5P0LB.s:3258   .text.RTC_TamperCmd:0000000000000000 $t
/var/folders/7z/kps_xzfj7sn5l5gkyq8s9db00000gn/T//cck5P0LB.s:3264   .text.RTC_TamperCmd:0000000000000000 RTC_TamperCmd
ARM GAS  /var/folders/7z/kps_xzfj7sn5l5gkyq8s9db00000gn/T//cck5P0LB.s 			page 194


/var/folders/7z/kps_xzfj7sn5l5gkyq8s9db00000gn/T//cck5P0LB.s:3292   .text.RTC_TamperCmd:0000000000000014 $d
/var/folders/7z/kps_xzfj7sn5l5gkyq8s9db00000gn/T//cck5P0LB.s:3297   .text.RTC_TamperFilterConfig:0000000000000000 $t
/var/folders/7z/kps_xzfj7sn5l5gkyq8s9db00000gn/T//cck5P0LB.s:3303   .text.RTC_TamperFilterConfig:0000000000000000 RTC_TamperFilterConfig
/var/folders/7z/kps_xzfj7sn5l5gkyq8s9db00000gn/T//cck5P0LB.s:3325   .text.RTC_TamperFilterConfig:0000000000000014 $d
/var/folders/7z/kps_xzfj7sn5l5gkyq8s9db00000gn/T//cck5P0LB.s:3330   .text.RTC_TamperSamplingFreqConfig:0000000000000000 $t
/var/folders/7z/kps_xzfj7sn5l5gkyq8s9db00000gn/T//cck5P0LB.s:3336   .text.RTC_TamperSamplingFreqConfig:0000000000000000 RTC_TamperSamplingFreqConfig
/var/folders/7z/kps_xzfj7sn5l5gkyq8s9db00000gn/T//cck5P0LB.s:3358   .text.RTC_TamperSamplingFreqConfig:0000000000000014 $d
/var/folders/7z/kps_xzfj7sn5l5gkyq8s9db00000gn/T//cck5P0LB.s:3363   .text.RTC_TamperPinsPrechargeDuration:0000000000000000 $t
/var/folders/7z/kps_xzfj7sn5l5gkyq8s9db00000gn/T//cck5P0LB.s:3369   .text.RTC_TamperPinsPrechargeDuration:0000000000000000 RTC_TamperPinsPrechargeDuration
/var/folders/7z/kps_xzfj7sn5l5gkyq8s9db00000gn/T//cck5P0LB.s:3391   .text.RTC_TamperPinsPrechargeDuration:0000000000000014 $d
/var/folders/7z/kps_xzfj7sn5l5gkyq8s9db00000gn/T//cck5P0LB.s:3396   .text.RTC_TimeStampOnTamperDetectionCmd:0000000000000000 $t
/var/folders/7z/kps_xzfj7sn5l5gkyq8s9db00000gn/T//cck5P0LB.s:3402   .text.RTC_TimeStampOnTamperDetectionCmd:0000000000000000 RTC_TimeStampOnTamperDetectionCmd
/var/folders/7z/kps_xzfj7sn5l5gkyq8s9db00000gn/T//cck5P0LB.s:3427   .text.RTC_TimeStampOnTamperDetectionCmd:0000000000000018 $d
/var/folders/7z/kps_xzfj7sn5l5gkyq8s9db00000gn/T//cck5P0LB.s:3432   .text.RTC_TamperPullUpCmd:0000000000000000 $t
/var/folders/7z/kps_xzfj7sn5l5gkyq8s9db00000gn/T//cck5P0LB.s:3438   .text.RTC_TamperPullUpCmd:0000000000000000 RTC_TamperPullUpCmd
/var/folders/7z/kps_xzfj7sn5l5gkyq8s9db00000gn/T//cck5P0LB.s:3463   .text.RTC_TamperPullUpCmd:0000000000000018 $d
/var/folders/7z/kps_xzfj7sn5l5gkyq8s9db00000gn/T//cck5P0LB.s:3468   .text.RTC_WriteBackupRegister:0000000000000000 $t
/var/folders/7z/kps_xzfj7sn5l5gkyq8s9db00000gn/T//cck5P0LB.s:3474   .text.RTC_WriteBackupRegister:0000000000000000 RTC_WriteBackupRegister
/var/folders/7z/kps_xzfj7sn5l5gkyq8s9db00000gn/T//cck5P0LB.s:3508   .text.RTC_WriteBackupRegister:000000000000001c $d
/var/folders/7z/kps_xzfj7sn5l5gkyq8s9db00000gn/T//cck5P0LB.s:3513   .text.RTC_ReadBackupRegister:0000000000000000 $t
/var/folders/7z/kps_xzfj7sn5l5gkyq8s9db00000gn/T//cck5P0LB.s:3519   .text.RTC_ReadBackupRegister:0000000000000000 RTC_ReadBackupRegister
/var/folders/7z/kps_xzfj7sn5l5gkyq8s9db00000gn/T//cck5P0LB.s:3553   .text.RTC_ReadBackupRegister:000000000000001c $d
/var/folders/7z/kps_xzfj7sn5l5gkyq8s9db00000gn/T//cck5P0LB.s:3558   .text.RTC_TamperPinSelection:0000000000000000 $t
/var/folders/7z/kps_xzfj7sn5l5gkyq8s9db00000gn/T//cck5P0LB.s:3564   .text.RTC_TamperPinSelection:0000000000000000 RTC_TamperPinSelection
/var/folders/7z/kps_xzfj7sn5l5gkyq8s9db00000gn/T//cck5P0LB.s:3586   .text.RTC_TamperPinSelection:0000000000000014 $d
/var/folders/7z/kps_xzfj7sn5l5gkyq8s9db00000gn/T//cck5P0LB.s:3591   .text.RTC_TimeStampPinSelection:0000000000000000 $t
/var/folders/7z/kps_xzfj7sn5l5gkyq8s9db00000gn/T//cck5P0LB.s:3597   .text.RTC_TimeStampPinSelection:0000000000000000 RTC_TimeStampPinSelection
/var/folders/7z/kps_xzfj7sn5l5gkyq8s9db00000gn/T//cck5P0LB.s:3619   .text.RTC_TimeStampPinSelection:0000000000000014 $d
/var/folders/7z/kps_xzfj7sn5l5gkyq8s9db00000gn/T//cck5P0LB.s:3624   .text.RTC_OutputTypeConfig:0000000000000000 $t
/var/folders/7z/kps_xzfj7sn5l5gkyq8s9db00000gn/T//cck5P0LB.s:3630   .text.RTC_OutputTypeConfig:0000000000000000 RTC_OutputTypeConfig
/var/folders/7z/kps_xzfj7sn5l5gkyq8s9db00000gn/T//cck5P0LB.s:3652   .text.RTC_OutputTypeConfig:0000000000000014 $d
/var/folders/7z/kps_xzfj7sn5l5gkyq8s9db00000gn/T//cck5P0LB.s:3657   .text.RTC_SynchroShiftConfig:0000000000000000 $t
/var/folders/7z/kps_xzfj7sn5l5gkyq8s9db00000gn/T//cck5P0LB.s:3663   .text.RTC_SynchroShiftConfig:0000000000000000 RTC_SynchroShiftConfig
/var/folders/7z/kps_xzfj7sn5l5gkyq8s9db00000gn/T//cck5P0LB.s:3763   .text.RTC_SynchroShiftConfig:0000000000000064 $d
/var/folders/7z/kps_xzfj7sn5l5gkyq8s9db00000gn/T//cck5P0LB.s:3768   .text.RTC_ITConfig:0000000000000000 $t
/var/folders/7z/kps_xzfj7sn5l5gkyq8s9db00000gn/T//cck5P0LB.s:3774   .text.RTC_ITConfig:0000000000000000 RTC_ITConfig
/var/folders/7z/kps_xzfj7sn5l5gkyq8s9db00000gn/T//cck5P0LB.s:3841   .text.RTC_ITConfig:0000000000000048 $d
/var/folders/7z/kps_xzfj7sn5l5gkyq8s9db00000gn/T//cck5P0LB.s:3846   .text.RTC_GetFlagStatus:0000000000000000 $t
/var/folders/7z/kps_xzfj7sn5l5gkyq8s9db00000gn/T//cck5P0LB.s:3852   .text.RTC_GetFlagStatus:0000000000000000 RTC_GetFlagStatus
/var/folders/7z/kps_xzfj7sn5l5gkyq8s9db00000gn/T//cck5P0LB.s:3878   .text.RTC_GetFlagStatus:0000000000000014 $d
/var/folders/7z/kps_xzfj7sn5l5gkyq8s9db00000gn/T//cck5P0LB.s:3884   .text.RTC_ClearFlag:0000000000000000 $t
/var/folders/7z/kps_xzfj7sn5l5gkyq8s9db00000gn/T//cck5P0LB.s:3890   .text.RTC_ClearFlag:0000000000000000 RTC_ClearFlag
/var/folders/7z/kps_xzfj7sn5l5gkyq8s9db00000gn/T//cck5P0LB.s:3911   .text.RTC_ClearFlag:0000000000000018 $d
/var/folders/7z/kps_xzfj7sn5l5gkyq8s9db00000gn/T//cck5P0LB.s:3916   .text.RTC_GetITStatus:0000000000000000 $t
/var/folders/7z/kps_xzfj7sn5l5gkyq8s9db00000gn/T//cck5P0LB.s:3922   .text.RTC_GetITStatus:0000000000000000 RTC_GetITStatus
/var/folders/7z/kps_xzfj7sn5l5gkyq8s9db00000gn/T//cck5P0LB.s:3968   .text.RTC_GetITStatus:0000000000000028 $d
/var/folders/7z/kps_xzfj7sn5l5gkyq8s9db00000gn/T//cck5P0LB.s:3973   .text.RTC_ClearITPendingBit:0000000000000000 $t
/var/folders/7z/kps_xzfj7sn5l5gkyq8s9db00000gn/T//cck5P0LB.s:3979   .text.RTC_ClearITPendingBit:0000000000000000 RTC_ClearITPendingBit
/var/folders/7z/kps_xzfj7sn5l5gkyq8s9db00000gn/T//cck5P0LB.s:4000   .text.RTC_ClearITPendingBit:0000000000000018 $d
                     .debug_frame:0000000000000010 $d
/var/folders/7z/kps_xzfj7sn5l5gkyq8s9db00000gn/T//cck5P0LB.s:85     .text.RTC_WriteProtectionCmd:0000000000000018 $t
/var/folders/7z/kps_xzfj7sn5l5gkyq8s9db00000gn/T//cck5P0LB.s:171    .text.RTC_EnterInitMode:0000000000000044 $t
/var/folders/7z/kps_xzfj7sn5l5gkyq8s9db00000gn/T//cck5P0LB.s:250    .text.RTC_Init:0000000000000048 $t
/var/folders/7z/kps_xzfj7sn5l5gkyq8s9db00000gn/T//cck5P0LB.s:359    .text.RTC_WaitForSynchro:0000000000000044 $t
/var/folders/7z/kps_xzfj7sn5l5gkyq8s9db00000gn/T//cck5P0LB.s:504    .text.RTC_DeInit:000000000000008c $t
/var/folders/7z/kps_xzfj7sn5l5gkyq8s9db00000gn/T//cck5P0LB.s:1061   .text.RTC_GetTime:000000000000005c $t
/var/folders/7z/kps_xzfj7sn5l5gkyq8s9db00000gn/T//cck5P0LB.s:1091   .text.RTC_GetSubSecond:000000000000000c $t
ARM GAS  /var/folders/7z/kps_xzfj7sn5l5gkyq8s9db00000gn/T//cck5P0LB.s 			page 195


/var/folders/7z/kps_xzfj7sn5l5gkyq8s9db00000gn/T//cck5P0LB.s:10286  .text.RTC_GetDate:0000000000000058 $t
/var/folders/7z/kps_xzfj7sn5l5gkyq8s9db00000gn/T//cck5P0LB.s:1787   .text.RTC_SetAlarm:000000000000010c $t
/var/folders/7z/kps_xzfj7sn5l5gkyq8s9db00000gn/T//cck5P0LB.s:1982   .text.RTC_GetAlarm:000000000000008c $t
/var/folders/7z/kps_xzfj7sn5l5gkyq8s9db00000gn/T//cck5P0LB.s:2095   .text.RTC_AlarmCmd:000000000000005c $t
/var/folders/7z/kps_xzfj7sn5l5gkyq8s9db00000gn/T//cck5P0LB.s:2152   .text.RTC_AlarmSubSecondConfig:0000000000000028 $t
/var/folders/7z/kps_xzfj7sn5l5gkyq8s9db00000gn/T//cck5P0LB.s:2188   .text.RTC_GetAlarmSubSecond:0000000000000018 $t
/var/folders/7z/kps_xzfj7sn5l5gkyq8s9db00000gn/T//cck5P0LB.s:2234   .text.RTC_WakeUpClockConfig:0000000000000024 $t
/var/folders/7z/kps_xzfj7sn5l5gkyq8s9db00000gn/T//cck5P0LB.s:2282   .text.RTC_SetWakeUpCounter:000000000000001c $t
/var/folders/7z/kps_xzfj7sn5l5gkyq8s9db00000gn/T//cck5P0LB.s:2309   .text.RTC_GetWakeUpCounter:000000000000000c $t
/var/folders/7z/kps_xzfj7sn5l5gkyq8s9db00000gn/T//cck5P0LB.s:2413   .text.RTC_WakeUpCmd:0000000000000058 $t
/var/folders/7z/kps_xzfj7sn5l5gkyq8s9db00000gn/T//cck5P0LB.s:2471   .text.RTC_DayLightSavingConfig:000000000000002c $t
/var/folders/7z/kps_xzfj7sn5l5gkyq8s9db00000gn/T//cck5P0LB.s:2556   .text.RTC_OutputConfig:000000000000002c $t
/var/folders/7z/kps_xzfj7sn5l5gkyq8s9db00000gn/T//cck5P0LB.s:2797   .text.RTC_CalibOutputConfig:0000000000000024 $t
/var/folders/7z/kps_xzfj7sn5l5gkyq8s9db00000gn/T//cck5P0LB.s:2890   .text.RTC_SmoothCalibConfig:000000000000004c $t
/var/folders/7z/kps_xzfj7sn5l5gkyq8s9db00000gn/T//cck5P0LB.s:2962   .text.RTC_TimeStampCmd:0000000000000034 $t
/var/folders/7z/kps_xzfj7sn5l5gkyq8s9db00000gn/T//cck5P0LB.s:3192   .text.RTC_GetTimeStamp:00000000000000b8 $t
/var/folders/7z/kps_xzfj7sn5l5gkyq8s9db00000gn/T//cck5P0LB.s:3218   .text.RTC_GetTimeStampSubSecond:000000000000000c $t
/var/folders/7z/kps_xzfj7sn5l5gkyq8s9db00000gn/T//cck5P0LB.s:3257   .text.RTC_TamperTriggerConfig:000000000000001c $t
/var/folders/7z/kps_xzfj7sn5l5gkyq8s9db00000gn/T//cck5P0LB.s:3296   .text.RTC_TamperCmd:0000000000000018 $t
/var/folders/7z/kps_xzfj7sn5l5gkyq8s9db00000gn/T//cck5P0LB.s:3329   .text.RTC_TamperFilterConfig:0000000000000018 $t
/var/folders/7z/kps_xzfj7sn5l5gkyq8s9db00000gn/T//cck5P0LB.s:3362   .text.RTC_TamperSamplingFreqConfig:0000000000000018 $t
/var/folders/7z/kps_xzfj7sn5l5gkyq8s9db00000gn/T//cck5P0LB.s:3395   .text.RTC_TamperPinsPrechargeDuration:0000000000000018 $t
/var/folders/7z/kps_xzfj7sn5l5gkyq8s9db00000gn/T//cck5P0LB.s:3431   .text.RTC_TimeStampOnTamperDetectionCmd:000000000000001c $t
/var/folders/7z/kps_xzfj7sn5l5gkyq8s9db00000gn/T//cck5P0LB.s:3467   .text.RTC_TamperPullUpCmd:000000000000001c $t
/var/folders/7z/kps_xzfj7sn5l5gkyq8s9db00000gn/T//cck5P0LB.s:3590   .text.RTC_TamperPinSelection:0000000000000018 $t
/var/folders/7z/kps_xzfj7sn5l5gkyq8s9db00000gn/T//cck5P0LB.s:3623   .text.RTC_TimeStampPinSelection:0000000000000018 $t
/var/folders/7z/kps_xzfj7sn5l5gkyq8s9db00000gn/T//cck5P0LB.s:3656   .text.RTC_OutputTypeConfig:0000000000000018 $t
/var/folders/7z/kps_xzfj7sn5l5gkyq8s9db00000gn/T//cck5P0LB.s:10286  .text.RTC_SynchroShiftConfig:0000000000000068 $t
/var/folders/7z/kps_xzfj7sn5l5gkyq8s9db00000gn/T//cck5P0LB.s:3845   .text.RTC_ITConfig:000000000000004c $t
/var/folders/7z/kps_xzfj7sn5l5gkyq8s9db00000gn/T//cck5P0LB.s:3883   .text.RTC_GetFlagStatus:000000000000001c $t
/var/folders/7z/kps_xzfj7sn5l5gkyq8s9db00000gn/T//cck5P0LB.s:3915   .text.RTC_ClearFlag:000000000000001c $t
/var/folders/7z/kps_xzfj7sn5l5gkyq8s9db00000gn/T//cck5P0LB.s:3972   .text.RTC_GetITStatus:000000000000002c $t
/var/folders/7z/kps_xzfj7sn5l5gkyq8s9db00000gn/T//cck5P0LB.s:4004   .text.RTC_ClearITPendingBit:000000000000001c $t

NO UNDEFINED SYMBOLS
