
build/oroca_bldc.elf:     file format elf32-littlearm


Disassembly of section .text:

0800c000 <Reset_Handler>:
 800c000:	b672      	cpsid	i
 800c002:	4833      	ldr	r0, [pc, #204]	; (800c0d0 <endfiniloop+0x4>)
 800c004:	f380 8809 	msr	PSP, r0
 800c008:	f240 0000 	movw	r0, #0
 800c00c:	f2cc 0000 	movt	r0, #49152	; 0xc000
 800c010:	f64e 7134 	movw	r1, #61236	; 0xef34
 800c014:	f2ce 0100 	movt	r1, #57344	; 0xe000
 800c018:	6008      	str	r0, [r1, #0]
 800c01a:	f3bf 8f4f 	dsb	sy
 800c01e:	f3bf 8f6f 	isb	sy
 800c022:	f240 0000 	movw	r0, #0
 800c026:	f2c0 00f0 	movt	r0, #240	; 0xf0
 800c02a:	f64e 5188 	movw	r1, #60808	; 0xed88
 800c02e:	f2ce 0100 	movt	r1, #57344	; 0xe000
 800c032:	6008      	str	r0, [r1, #0]
 800c034:	f3bf 8f4f 	dsb	sy
 800c038:	f3bf 8f6f 	isb	sy
 800c03c:	f04f 0000 	mov.w	r0, #0
 800c040:	eee1 0a10 	vmsr	fpscr, r0
 800c044:	f64e 713c 	movw	r1, #61244	; 0xef3c
 800c048:	f2ce 0100 	movt	r1, #57344	; 0xe000
 800c04c:	6008      	str	r0, [r1, #0]
 800c04e:	2006      	movs	r0, #6
 800c050:	f380 8814 	msr	CONTROL, r0
 800c054:	f3bf 8f6f 	isb	sy
 800c058:	f000 fe5a 	bl	800cd10 <__core_init>
 800c05c:	f004 fd90 	bl	8010b80 <__early_init>
 800c060:	f04f 3055 	mov.w	r0, #1431655765	; 0x55555555
 800c064:	491b      	ldr	r1, [pc, #108]	; (800c0d4 <endfiniloop+0x8>)
 800c066:	4a1c      	ldr	r2, [pc, #112]	; (800c0d8 <endfiniloop+0xc>)

0800c068 <msloop>:
 800c068:	4291      	cmp	r1, r2
 800c06a:	bf3c      	itt	cc
 800c06c:	f841 0b04 	strcc.w	r0, [r1], #4
 800c070:	e7fa      	bcc.n	800c068 <msloop>
 800c072:	491a      	ldr	r1, [pc, #104]	; (800c0dc <endfiniloop+0x10>)
 800c074:	4a16      	ldr	r2, [pc, #88]	; (800c0d0 <endfiniloop+0x4>)

0800c076 <psloop>:
 800c076:	4291      	cmp	r1, r2
 800c078:	bf3c      	itt	cc
 800c07a:	f841 0b04 	strcc.w	r0, [r1], #4
 800c07e:	e7fa      	bcc.n	800c076 <psloop>
 800c080:	4917      	ldr	r1, [pc, #92]	; (800c0e0 <endfiniloop+0x14>)
 800c082:	4a18      	ldr	r2, [pc, #96]	; (800c0e4 <endfiniloop+0x18>)
 800c084:	4b18      	ldr	r3, [pc, #96]	; (800c0e8 <endfiniloop+0x1c>)

0800c086 <dloop>:
 800c086:	429a      	cmp	r2, r3
 800c088:	bf3e      	ittt	cc
 800c08a:	f851 0b04 	ldrcc.w	r0, [r1], #4
 800c08e:	f842 0b04 	strcc.w	r0, [r2], #4
 800c092:	e7f8      	bcc.n	800c086 <dloop>
 800c094:	2000      	movs	r0, #0
 800c096:	4915      	ldr	r1, [pc, #84]	; (800c0ec <endfiniloop+0x20>)
 800c098:	4a15      	ldr	r2, [pc, #84]	; (800c0f0 <endfiniloop+0x24>)

0800c09a <bloop>:
 800c09a:	4291      	cmp	r1, r2
 800c09c:	bf3c      	itt	cc
 800c09e:	f841 0b04 	strcc.w	r0, [r1], #4
 800c0a2:	e7fa      	bcc.n	800c09a <bloop>
 800c0a4:	f000 fe3c 	bl	800cd20 <__late_init>
 800c0a8:	4c12      	ldr	r4, [pc, #72]	; (800c0f4 <endfiniloop+0x28>)
 800c0aa:	4d13      	ldr	r5, [pc, #76]	; (800c0f8 <endfiniloop+0x2c>)

0800c0ac <initloop>:
 800c0ac:	42ac      	cmp	r4, r5
 800c0ae:	da03      	bge.n	800c0b8 <endinitloop>
 800c0b0:	f854 1b04 	ldr.w	r1, [r4], #4
 800c0b4:	4788      	blx	r1
 800c0b6:	e7f9      	b.n	800c0ac <initloop>

0800c0b8 <endinitloop>:
 800c0b8:	f008 fcca 	bl	8014a50 <main>
 800c0bc:	4c0f      	ldr	r4, [pc, #60]	; (800c0fc <endfiniloop+0x30>)
 800c0be:	4d10      	ldr	r5, [pc, #64]	; (800c100 <endfiniloop+0x34>)

0800c0c0 <finiloop>:
 800c0c0:	42ac      	cmp	r4, r5
 800c0c2:	da03      	bge.n	800c0cc <endfiniloop>
 800c0c4:	f854 1b04 	ldr.w	r1, [r4], #4
 800c0c8:	4788      	blx	r1
 800c0ca:	e7f9      	b.n	800c0c0 <finiloop>

0800c0cc <endfiniloop>:
 800c0cc:	f000 be30 	b.w	800cd30 <__default_exit>
 800c0d0:	20000800 	.word	0x20000800
 800c0d4:	20000000 	.word	0x20000000
 800c0d8:	20000400 	.word	0x20000400
 800c0dc:	20000400 	.word	0x20000400
 800c0e0:	08017bd8 	.word	0x08017bd8
 800c0e4:	20000800 	.word	0x20000800
 800c0e8:	20000c90 	.word	0x20000c90
 800c0ec:	20000c90 	.word	0x20000c90
 800c0f0:	2000aed8 	.word	0x2000aed8
 800c0f4:	0800c000 	.word	0x0800c000
 800c0f8:	0800c000 	.word	0x0800c000
 800c0fc:	0800c000 	.word	0x0800c000
 800c100:	0800c000 	.word	0x0800c000
	...

0800c110 <_port_switch>:
 800c110:	e92d 4ff0 	stmdb	sp!, {r4, r5, r6, r7, r8, r9, sl, fp, lr}
 800c114:	ed2d 8a10 	vpush	{s16-s31}
 800c118:	f8c1 d00c 	str.w	sp, [r1, #12]
 800c11c:	f8d0 d00c 	ldr.w	sp, [r0, #12]
 800c120:	ecbd 8a10 	vpop	{s16-s31}
 800c124:	e8bd 8ff0 	ldmia.w	sp!, {r4, r5, r6, r7, r8, r9, sl, fp, pc}

0800c128 <_port_thread_start>:
 800c128:	2300      	movs	r3, #0
 800c12a:	f383 8811 	msr	BASEPRI, r3
 800c12e:	4628      	mov	r0, r5
 800c130:	47a0      	blx	r4
 800c132:	2000      	movs	r0, #0
 800c134:	f001 f8fc 	bl	800d330 <chThdExit>

0800c138 <_port_switch_from_isr>:
 800c138:	f001 f832 	bl	800d1a0 <chSchDoReschedule>

0800c13c <_port_exit_from_isr>:
 800c13c:	df00      	svc	0
 800c13e:	e7fe      	b.n	800c13e <_port_exit_from_isr+0x2>

0800c140 <__aeabi_drsub>:
 800c140:	f081 4100 	eor.w	r1, r1, #2147483648	; 0x80000000
 800c144:	e002      	b.n	800c14c <__adddf3>
 800c146:	bf00      	nop

0800c148 <__aeabi_dsub>:
 800c148:	f083 4300 	eor.w	r3, r3, #2147483648	; 0x80000000

0800c14c <__adddf3>:
 800c14c:	b530      	push	{r4, r5, lr}
 800c14e:	ea4f 0441 	mov.w	r4, r1, lsl #1
 800c152:	ea4f 0543 	mov.w	r5, r3, lsl #1
 800c156:	ea94 0f05 	teq	r4, r5
 800c15a:	bf08      	it	eq
 800c15c:	ea90 0f02 	teqeq	r0, r2
 800c160:	bf1f      	itttt	ne
 800c162:	ea54 0c00 	orrsne.w	ip, r4, r0
 800c166:	ea55 0c02 	orrsne.w	ip, r5, r2
 800c16a:	ea7f 5c64 	mvnsne.w	ip, r4, asr #21
 800c16e:	ea7f 5c65 	mvnsne.w	ip, r5, asr #21
 800c172:	f000 80e2 	beq.w	800c33a <__adddf3+0x1ee>
 800c176:	ea4f 5454 	mov.w	r4, r4, lsr #21
 800c17a:	ebd4 5555 	rsbs	r5, r4, r5, lsr #21
 800c17e:	bfb8      	it	lt
 800c180:	426d      	neglt	r5, r5
 800c182:	dd0c      	ble.n	800c19e <__adddf3+0x52>
 800c184:	442c      	add	r4, r5
 800c186:	ea80 0202 	eor.w	r2, r0, r2
 800c18a:	ea81 0303 	eor.w	r3, r1, r3
 800c18e:	ea82 0000 	eor.w	r0, r2, r0
 800c192:	ea83 0101 	eor.w	r1, r3, r1
 800c196:	ea80 0202 	eor.w	r2, r0, r2
 800c19a:	ea81 0303 	eor.w	r3, r1, r3
 800c19e:	2d36      	cmp	r5, #54	; 0x36
 800c1a0:	bf88      	it	hi
 800c1a2:	bd30      	pophi	{r4, r5, pc}
 800c1a4:	f011 4f00 	tst.w	r1, #2147483648	; 0x80000000
 800c1a8:	ea4f 3101 	mov.w	r1, r1, lsl #12
 800c1ac:	f44f 1c80 	mov.w	ip, #1048576	; 0x100000
 800c1b0:	ea4c 3111 	orr.w	r1, ip, r1, lsr #12
 800c1b4:	d002      	beq.n	800c1bc <__adddf3+0x70>
 800c1b6:	4240      	negs	r0, r0
 800c1b8:	eb61 0141 	sbc.w	r1, r1, r1, lsl #1
 800c1bc:	f013 4f00 	tst.w	r3, #2147483648	; 0x80000000
 800c1c0:	ea4f 3303 	mov.w	r3, r3, lsl #12
 800c1c4:	ea4c 3313 	orr.w	r3, ip, r3, lsr #12
 800c1c8:	d002      	beq.n	800c1d0 <__adddf3+0x84>
 800c1ca:	4252      	negs	r2, r2
 800c1cc:	eb63 0343 	sbc.w	r3, r3, r3, lsl #1
 800c1d0:	ea94 0f05 	teq	r4, r5
 800c1d4:	f000 80a7 	beq.w	800c326 <__adddf3+0x1da>
 800c1d8:	f1a4 0401 	sub.w	r4, r4, #1
 800c1dc:	f1d5 0e20 	rsbs	lr, r5, #32
 800c1e0:	db0d      	blt.n	800c1fe <__adddf3+0xb2>
 800c1e2:	fa02 fc0e 	lsl.w	ip, r2, lr
 800c1e6:	fa22 f205 	lsr.w	r2, r2, r5
 800c1ea:	1880      	adds	r0, r0, r2
 800c1ec:	f141 0100 	adc.w	r1, r1, #0
 800c1f0:	fa03 f20e 	lsl.w	r2, r3, lr
 800c1f4:	1880      	adds	r0, r0, r2
 800c1f6:	fa43 f305 	asr.w	r3, r3, r5
 800c1fa:	4159      	adcs	r1, r3
 800c1fc:	e00e      	b.n	800c21c <__adddf3+0xd0>
 800c1fe:	f1a5 0520 	sub.w	r5, r5, #32
 800c202:	f10e 0e20 	add.w	lr, lr, #32
 800c206:	2a01      	cmp	r2, #1
 800c208:	fa03 fc0e 	lsl.w	ip, r3, lr
 800c20c:	bf28      	it	cs
 800c20e:	f04c 0c02 	orrcs.w	ip, ip, #2
 800c212:	fa43 f305 	asr.w	r3, r3, r5
 800c216:	18c0      	adds	r0, r0, r3
 800c218:	eb51 71e3 	adcs.w	r1, r1, r3, asr #31
 800c21c:	f001 4500 	and.w	r5, r1, #2147483648	; 0x80000000
 800c220:	d507      	bpl.n	800c232 <__adddf3+0xe6>
 800c222:	f04f 0e00 	mov.w	lr, #0
 800c226:	f1dc 0c00 	rsbs	ip, ip, #0
 800c22a:	eb7e 0000 	sbcs.w	r0, lr, r0
 800c22e:	eb6e 0101 	sbc.w	r1, lr, r1
 800c232:	f5b1 1f80 	cmp.w	r1, #1048576	; 0x100000
 800c236:	d31b      	bcc.n	800c270 <__adddf3+0x124>
 800c238:	f5b1 1f00 	cmp.w	r1, #2097152	; 0x200000
 800c23c:	d30c      	bcc.n	800c258 <__adddf3+0x10c>
 800c23e:	0849      	lsrs	r1, r1, #1
 800c240:	ea5f 0030 	movs.w	r0, r0, rrx
 800c244:	ea4f 0c3c 	mov.w	ip, ip, rrx
 800c248:	f104 0401 	add.w	r4, r4, #1
 800c24c:	ea4f 5244 	mov.w	r2, r4, lsl #21
 800c250:	f512 0f80 	cmn.w	r2, #4194304	; 0x400000
 800c254:	f080 809a 	bcs.w	800c38c <__adddf3+0x240>
 800c258:	f1bc 4f00 	cmp.w	ip, #2147483648	; 0x80000000
 800c25c:	bf08      	it	eq
 800c25e:	ea5f 0c50 	movseq.w	ip, r0, lsr #1
 800c262:	f150 0000 	adcs.w	r0, r0, #0
 800c266:	eb41 5104 	adc.w	r1, r1, r4, lsl #20
 800c26a:	ea41 0105 	orr.w	r1, r1, r5
 800c26e:	bd30      	pop	{r4, r5, pc}
 800c270:	ea5f 0c4c 	movs.w	ip, ip, lsl #1
 800c274:	4140      	adcs	r0, r0
 800c276:	eb41 0101 	adc.w	r1, r1, r1
 800c27a:	f411 1f80 	tst.w	r1, #1048576	; 0x100000
 800c27e:	f1a4 0401 	sub.w	r4, r4, #1
 800c282:	d1e9      	bne.n	800c258 <__adddf3+0x10c>
 800c284:	f091 0f00 	teq	r1, #0
 800c288:	bf04      	itt	eq
 800c28a:	4601      	moveq	r1, r0
 800c28c:	2000      	moveq	r0, #0
 800c28e:	fab1 f381 	clz	r3, r1
 800c292:	bf08      	it	eq
 800c294:	3320      	addeq	r3, #32
 800c296:	f1a3 030b 	sub.w	r3, r3, #11
 800c29a:	f1b3 0220 	subs.w	r2, r3, #32
 800c29e:	da0c      	bge.n	800c2ba <__adddf3+0x16e>
 800c2a0:	320c      	adds	r2, #12
 800c2a2:	dd08      	ble.n	800c2b6 <__adddf3+0x16a>
 800c2a4:	f102 0c14 	add.w	ip, r2, #20
 800c2a8:	f1c2 020c 	rsb	r2, r2, #12
 800c2ac:	fa01 f00c 	lsl.w	r0, r1, ip
 800c2b0:	fa21 f102 	lsr.w	r1, r1, r2
 800c2b4:	e00c      	b.n	800c2d0 <__adddf3+0x184>
 800c2b6:	f102 0214 	add.w	r2, r2, #20
 800c2ba:	bfd8      	it	le
 800c2bc:	f1c2 0c20 	rsble	ip, r2, #32
 800c2c0:	fa01 f102 	lsl.w	r1, r1, r2
 800c2c4:	fa20 fc0c 	lsr.w	ip, r0, ip
 800c2c8:	bfdc      	itt	le
 800c2ca:	ea41 010c 	orrle.w	r1, r1, ip
 800c2ce:	4090      	lslle	r0, r2
 800c2d0:	1ae4      	subs	r4, r4, r3
 800c2d2:	bfa2      	ittt	ge
 800c2d4:	eb01 5104 	addge.w	r1, r1, r4, lsl #20
 800c2d8:	4329      	orrge	r1, r5
 800c2da:	bd30      	popge	{r4, r5, pc}
 800c2dc:	ea6f 0404 	mvn.w	r4, r4
 800c2e0:	3c1f      	subs	r4, #31
 800c2e2:	da1c      	bge.n	800c31e <__adddf3+0x1d2>
 800c2e4:	340c      	adds	r4, #12
 800c2e6:	dc0e      	bgt.n	800c306 <__adddf3+0x1ba>
 800c2e8:	f104 0414 	add.w	r4, r4, #20
 800c2ec:	f1c4 0220 	rsb	r2, r4, #32
 800c2f0:	fa20 f004 	lsr.w	r0, r0, r4
 800c2f4:	fa01 f302 	lsl.w	r3, r1, r2
 800c2f8:	ea40 0003 	orr.w	r0, r0, r3
 800c2fc:	fa21 f304 	lsr.w	r3, r1, r4
 800c300:	ea45 0103 	orr.w	r1, r5, r3
 800c304:	bd30      	pop	{r4, r5, pc}
 800c306:	f1c4 040c 	rsb	r4, r4, #12
 800c30a:	f1c4 0220 	rsb	r2, r4, #32
 800c30e:	fa20 f002 	lsr.w	r0, r0, r2
 800c312:	fa01 f304 	lsl.w	r3, r1, r4
 800c316:	ea40 0003 	orr.w	r0, r0, r3
 800c31a:	4629      	mov	r1, r5
 800c31c:	bd30      	pop	{r4, r5, pc}
 800c31e:	fa21 f004 	lsr.w	r0, r1, r4
 800c322:	4629      	mov	r1, r5
 800c324:	bd30      	pop	{r4, r5, pc}
 800c326:	f094 0f00 	teq	r4, #0
 800c32a:	f483 1380 	eor.w	r3, r3, #1048576	; 0x100000
 800c32e:	bf06      	itte	eq
 800c330:	f481 1180 	eoreq.w	r1, r1, #1048576	; 0x100000
 800c334:	3401      	addeq	r4, #1
 800c336:	3d01      	subne	r5, #1
 800c338:	e74e      	b.n	800c1d8 <__adddf3+0x8c>
 800c33a:	ea7f 5c64 	mvns.w	ip, r4, asr #21
 800c33e:	bf18      	it	ne
 800c340:	ea7f 5c65 	mvnsne.w	ip, r5, asr #21
 800c344:	d029      	beq.n	800c39a <__adddf3+0x24e>
 800c346:	ea94 0f05 	teq	r4, r5
 800c34a:	bf08      	it	eq
 800c34c:	ea90 0f02 	teqeq	r0, r2
 800c350:	d005      	beq.n	800c35e <__adddf3+0x212>
 800c352:	ea54 0c00 	orrs.w	ip, r4, r0
 800c356:	bf04      	itt	eq
 800c358:	4619      	moveq	r1, r3
 800c35a:	4610      	moveq	r0, r2
 800c35c:	bd30      	pop	{r4, r5, pc}
 800c35e:	ea91 0f03 	teq	r1, r3
 800c362:	bf1e      	ittt	ne
 800c364:	2100      	movne	r1, #0
 800c366:	2000      	movne	r0, #0
 800c368:	bd30      	popne	{r4, r5, pc}
 800c36a:	ea5f 5c54 	movs.w	ip, r4, lsr #21
 800c36e:	d105      	bne.n	800c37c <__adddf3+0x230>
 800c370:	0040      	lsls	r0, r0, #1
 800c372:	4149      	adcs	r1, r1
 800c374:	bf28      	it	cs
 800c376:	f041 4100 	orrcs.w	r1, r1, #2147483648	; 0x80000000
 800c37a:	bd30      	pop	{r4, r5, pc}
 800c37c:	f514 0480 	adds.w	r4, r4, #4194304	; 0x400000
 800c380:	bf3c      	itt	cc
 800c382:	f501 1180 	addcc.w	r1, r1, #1048576	; 0x100000
 800c386:	bd30      	popcc	{r4, r5, pc}
 800c388:	f001 4500 	and.w	r5, r1, #2147483648	; 0x80000000
 800c38c:	f045 41fe 	orr.w	r1, r5, #2130706432	; 0x7f000000
 800c390:	f441 0170 	orr.w	r1, r1, #15728640	; 0xf00000
 800c394:	f04f 0000 	mov.w	r0, #0
 800c398:	bd30      	pop	{r4, r5, pc}
 800c39a:	ea7f 5c64 	mvns.w	ip, r4, asr #21
 800c39e:	bf1a      	itte	ne
 800c3a0:	4619      	movne	r1, r3
 800c3a2:	4610      	movne	r0, r2
 800c3a4:	ea7f 5c65 	mvnseq.w	ip, r5, asr #21
 800c3a8:	bf1c      	itt	ne
 800c3aa:	460b      	movne	r3, r1
 800c3ac:	4602      	movne	r2, r0
 800c3ae:	ea50 3401 	orrs.w	r4, r0, r1, lsl #12
 800c3b2:	bf06      	itte	eq
 800c3b4:	ea52 3503 	orrseq.w	r5, r2, r3, lsl #12
 800c3b8:	ea91 0f03 	teqeq	r1, r3
 800c3bc:	f441 2100 	orrne.w	r1, r1, #524288	; 0x80000
 800c3c0:	bd30      	pop	{r4, r5, pc}
 800c3c2:	bf00      	nop

0800c3c4 <__aeabi_ui2d>:
 800c3c4:	f090 0f00 	teq	r0, #0
 800c3c8:	bf04      	itt	eq
 800c3ca:	2100      	moveq	r1, #0
 800c3cc:	4770      	bxeq	lr
 800c3ce:	b530      	push	{r4, r5, lr}
 800c3d0:	f44f 6480 	mov.w	r4, #1024	; 0x400
 800c3d4:	f104 0432 	add.w	r4, r4, #50	; 0x32
 800c3d8:	f04f 0500 	mov.w	r5, #0
 800c3dc:	f04f 0100 	mov.w	r1, #0
 800c3e0:	e750      	b.n	800c284 <__adddf3+0x138>
 800c3e2:	bf00      	nop

0800c3e4 <__aeabi_i2d>:
 800c3e4:	f090 0f00 	teq	r0, #0
 800c3e8:	bf04      	itt	eq
 800c3ea:	2100      	moveq	r1, #0
 800c3ec:	4770      	bxeq	lr
 800c3ee:	b530      	push	{r4, r5, lr}
 800c3f0:	f44f 6480 	mov.w	r4, #1024	; 0x400
 800c3f4:	f104 0432 	add.w	r4, r4, #50	; 0x32
 800c3f8:	f010 4500 	ands.w	r5, r0, #2147483648	; 0x80000000
 800c3fc:	bf48      	it	mi
 800c3fe:	4240      	negmi	r0, r0
 800c400:	f04f 0100 	mov.w	r1, #0
 800c404:	e73e      	b.n	800c284 <__adddf3+0x138>
 800c406:	bf00      	nop

0800c408 <__aeabi_f2d>:
 800c408:	0042      	lsls	r2, r0, #1
 800c40a:	ea4f 01e2 	mov.w	r1, r2, asr #3
 800c40e:	ea4f 0131 	mov.w	r1, r1, rrx
 800c412:	ea4f 7002 	mov.w	r0, r2, lsl #28
 800c416:	bf1f      	itttt	ne
 800c418:	f012 437f 	andsne.w	r3, r2, #4278190080	; 0xff000000
 800c41c:	f093 4f7f 	teqne	r3, #4278190080	; 0xff000000
 800c420:	f081 5160 	eorne.w	r1, r1, #939524096	; 0x38000000
 800c424:	4770      	bxne	lr
 800c426:	f032 427f 	bics.w	r2, r2, #4278190080	; 0xff000000
 800c42a:	bf08      	it	eq
 800c42c:	4770      	bxeq	lr
 800c42e:	f093 4f7f 	teq	r3, #4278190080	; 0xff000000
 800c432:	bf04      	itt	eq
 800c434:	f441 2100 	orreq.w	r1, r1, #524288	; 0x80000
 800c438:	4770      	bxeq	lr
 800c43a:	b530      	push	{r4, r5, lr}
 800c43c:	f44f 7460 	mov.w	r4, #896	; 0x380
 800c440:	f001 4500 	and.w	r5, r1, #2147483648	; 0x80000000
 800c444:	f021 4100 	bic.w	r1, r1, #2147483648	; 0x80000000
 800c448:	e71c      	b.n	800c284 <__adddf3+0x138>
 800c44a:	bf00      	nop

0800c44c <__aeabi_ul2d>:
 800c44c:	ea50 0201 	orrs.w	r2, r0, r1
 800c450:	bf08      	it	eq
 800c452:	4770      	bxeq	lr
 800c454:	b530      	push	{r4, r5, lr}
 800c456:	f04f 0500 	mov.w	r5, #0
 800c45a:	e00a      	b.n	800c472 <__aeabi_l2d+0x16>

0800c45c <__aeabi_l2d>:
 800c45c:	ea50 0201 	orrs.w	r2, r0, r1
 800c460:	bf08      	it	eq
 800c462:	4770      	bxeq	lr
 800c464:	b530      	push	{r4, r5, lr}
 800c466:	f011 4500 	ands.w	r5, r1, #2147483648	; 0x80000000
 800c46a:	d502      	bpl.n	800c472 <__aeabi_l2d+0x16>
 800c46c:	4240      	negs	r0, r0
 800c46e:	eb61 0141 	sbc.w	r1, r1, r1, lsl #1
 800c472:	f44f 6480 	mov.w	r4, #1024	; 0x400
 800c476:	f104 0432 	add.w	r4, r4, #50	; 0x32
 800c47a:	ea5f 5c91 	movs.w	ip, r1, lsr #22
 800c47e:	f43f aed8 	beq.w	800c232 <__adddf3+0xe6>
 800c482:	f04f 0203 	mov.w	r2, #3
 800c486:	ea5f 0cdc 	movs.w	ip, ip, lsr #3
 800c48a:	bf18      	it	ne
 800c48c:	3203      	addne	r2, #3
 800c48e:	ea5f 0cdc 	movs.w	ip, ip, lsr #3
 800c492:	bf18      	it	ne
 800c494:	3203      	addne	r2, #3
 800c496:	eb02 02dc 	add.w	r2, r2, ip, lsr #3
 800c49a:	f1c2 0320 	rsb	r3, r2, #32
 800c49e:	fa00 fc03 	lsl.w	ip, r0, r3
 800c4a2:	fa20 f002 	lsr.w	r0, r0, r2
 800c4a6:	fa01 fe03 	lsl.w	lr, r1, r3
 800c4aa:	ea40 000e 	orr.w	r0, r0, lr
 800c4ae:	fa21 f102 	lsr.w	r1, r1, r2
 800c4b2:	4414      	add	r4, r2
 800c4b4:	e6bd      	b.n	800c232 <__adddf3+0xe6>
 800c4b6:	bf00      	nop
	...

0800c4c0 <__aeabi_dmul>:
 800c4c0:	b570      	push	{r4, r5, r6, lr}
 800c4c2:	f04f 0cff 	mov.w	ip, #255	; 0xff
 800c4c6:	f44c 6ce0 	orr.w	ip, ip, #1792	; 0x700
 800c4ca:	ea1c 5411 	ands.w	r4, ip, r1, lsr #20
 800c4ce:	bf1d      	ittte	ne
 800c4d0:	ea1c 5513 	andsne.w	r5, ip, r3, lsr #20
 800c4d4:	ea94 0f0c 	teqne	r4, ip
 800c4d8:	ea95 0f0c 	teqne	r5, ip
 800c4dc:	f000 f8de 	bleq	800c69c <__aeabi_dmul+0x1dc>
 800c4e0:	442c      	add	r4, r5
 800c4e2:	ea81 0603 	eor.w	r6, r1, r3
 800c4e6:	ea21 514c 	bic.w	r1, r1, ip, lsl #21
 800c4ea:	ea23 534c 	bic.w	r3, r3, ip, lsl #21
 800c4ee:	ea50 3501 	orrs.w	r5, r0, r1, lsl #12
 800c4f2:	bf18      	it	ne
 800c4f4:	ea52 3503 	orrsne.w	r5, r2, r3, lsl #12
 800c4f8:	f441 1180 	orr.w	r1, r1, #1048576	; 0x100000
 800c4fc:	f443 1380 	orr.w	r3, r3, #1048576	; 0x100000
 800c500:	d038      	beq.n	800c574 <__aeabi_dmul+0xb4>
 800c502:	fba0 ce02 	umull	ip, lr, r0, r2
 800c506:	f04f 0500 	mov.w	r5, #0
 800c50a:	fbe1 e502 	umlal	lr, r5, r1, r2
 800c50e:	f006 4200 	and.w	r2, r6, #2147483648	; 0x80000000
 800c512:	fbe0 e503 	umlal	lr, r5, r0, r3
 800c516:	f04f 0600 	mov.w	r6, #0
 800c51a:	fbe1 5603 	umlal	r5, r6, r1, r3
 800c51e:	f09c 0f00 	teq	ip, #0
 800c522:	bf18      	it	ne
 800c524:	f04e 0e01 	orrne.w	lr, lr, #1
 800c528:	f1a4 04ff 	sub.w	r4, r4, #255	; 0xff
 800c52c:	f5b6 7f00 	cmp.w	r6, #512	; 0x200
 800c530:	f564 7440 	sbc.w	r4, r4, #768	; 0x300
 800c534:	d204      	bcs.n	800c540 <__aeabi_dmul+0x80>
 800c536:	ea5f 0e4e 	movs.w	lr, lr, lsl #1
 800c53a:	416d      	adcs	r5, r5
 800c53c:	eb46 0606 	adc.w	r6, r6, r6
 800c540:	ea42 21c6 	orr.w	r1, r2, r6, lsl #11
 800c544:	ea41 5155 	orr.w	r1, r1, r5, lsr #21
 800c548:	ea4f 20c5 	mov.w	r0, r5, lsl #11
 800c54c:	ea40 505e 	orr.w	r0, r0, lr, lsr #21
 800c550:	ea4f 2ece 	mov.w	lr, lr, lsl #11
 800c554:	f1b4 0cfd 	subs.w	ip, r4, #253	; 0xfd
 800c558:	bf88      	it	hi
 800c55a:	f5bc 6fe0 	cmphi.w	ip, #1792	; 0x700
 800c55e:	d81e      	bhi.n	800c59e <__aeabi_dmul+0xde>
 800c560:	f1be 4f00 	cmp.w	lr, #2147483648	; 0x80000000
 800c564:	bf08      	it	eq
 800c566:	ea5f 0e50 	movseq.w	lr, r0, lsr #1
 800c56a:	f150 0000 	adcs.w	r0, r0, #0
 800c56e:	eb41 5104 	adc.w	r1, r1, r4, lsl #20
 800c572:	bd70      	pop	{r4, r5, r6, pc}
 800c574:	f006 4600 	and.w	r6, r6, #2147483648	; 0x80000000
 800c578:	ea46 0101 	orr.w	r1, r6, r1
 800c57c:	ea40 0002 	orr.w	r0, r0, r2
 800c580:	ea81 0103 	eor.w	r1, r1, r3
 800c584:	ebb4 045c 	subs.w	r4, r4, ip, lsr #1
 800c588:	bfc2      	ittt	gt
 800c58a:	ebd4 050c 	rsbsgt	r5, r4, ip
 800c58e:	ea41 5104 	orrgt.w	r1, r1, r4, lsl #20
 800c592:	bd70      	popgt	{r4, r5, r6, pc}
 800c594:	f441 1180 	orr.w	r1, r1, #1048576	; 0x100000
 800c598:	f04f 0e00 	mov.w	lr, #0
 800c59c:	3c01      	subs	r4, #1
 800c59e:	f300 80ab 	bgt.w	800c6f8 <__aeabi_dmul+0x238>
 800c5a2:	f114 0f36 	cmn.w	r4, #54	; 0x36
 800c5a6:	bfde      	ittt	le
 800c5a8:	2000      	movle	r0, #0
 800c5aa:	f001 4100 	andle.w	r1, r1, #2147483648	; 0x80000000
 800c5ae:	bd70      	pople	{r4, r5, r6, pc}
 800c5b0:	f1c4 0400 	rsb	r4, r4, #0
 800c5b4:	3c20      	subs	r4, #32
 800c5b6:	da35      	bge.n	800c624 <__aeabi_dmul+0x164>
 800c5b8:	340c      	adds	r4, #12
 800c5ba:	dc1b      	bgt.n	800c5f4 <__aeabi_dmul+0x134>
 800c5bc:	f104 0414 	add.w	r4, r4, #20
 800c5c0:	f1c4 0520 	rsb	r5, r4, #32
 800c5c4:	fa00 f305 	lsl.w	r3, r0, r5
 800c5c8:	fa20 f004 	lsr.w	r0, r0, r4
 800c5cc:	fa01 f205 	lsl.w	r2, r1, r5
 800c5d0:	ea40 0002 	orr.w	r0, r0, r2
 800c5d4:	f001 4200 	and.w	r2, r1, #2147483648	; 0x80000000
 800c5d8:	f021 4100 	bic.w	r1, r1, #2147483648	; 0x80000000
 800c5dc:	eb10 70d3 	adds.w	r0, r0, r3, lsr #31
 800c5e0:	fa21 f604 	lsr.w	r6, r1, r4
 800c5e4:	eb42 0106 	adc.w	r1, r2, r6
 800c5e8:	ea5e 0e43 	orrs.w	lr, lr, r3, lsl #1
 800c5ec:	bf08      	it	eq
 800c5ee:	ea20 70d3 	biceq.w	r0, r0, r3, lsr #31
 800c5f2:	bd70      	pop	{r4, r5, r6, pc}
 800c5f4:	f1c4 040c 	rsb	r4, r4, #12
 800c5f8:	f1c4 0520 	rsb	r5, r4, #32
 800c5fc:	fa00 f304 	lsl.w	r3, r0, r4
 800c600:	fa20 f005 	lsr.w	r0, r0, r5
 800c604:	fa01 f204 	lsl.w	r2, r1, r4
 800c608:	ea40 0002 	orr.w	r0, r0, r2
 800c60c:	f001 4100 	and.w	r1, r1, #2147483648	; 0x80000000
 800c610:	eb10 70d3 	adds.w	r0, r0, r3, lsr #31
 800c614:	f141 0100 	adc.w	r1, r1, #0
 800c618:	ea5e 0e43 	orrs.w	lr, lr, r3, lsl #1
 800c61c:	bf08      	it	eq
 800c61e:	ea20 70d3 	biceq.w	r0, r0, r3, lsr #31
 800c622:	bd70      	pop	{r4, r5, r6, pc}
 800c624:	f1c4 0520 	rsb	r5, r4, #32
 800c628:	fa00 f205 	lsl.w	r2, r0, r5
 800c62c:	ea4e 0e02 	orr.w	lr, lr, r2
 800c630:	fa20 f304 	lsr.w	r3, r0, r4
 800c634:	fa01 f205 	lsl.w	r2, r1, r5
 800c638:	ea43 0302 	orr.w	r3, r3, r2
 800c63c:	fa21 f004 	lsr.w	r0, r1, r4
 800c640:	f001 4100 	and.w	r1, r1, #2147483648	; 0x80000000
 800c644:	fa21 f204 	lsr.w	r2, r1, r4
 800c648:	ea20 0002 	bic.w	r0, r0, r2
 800c64c:	eb00 70d3 	add.w	r0, r0, r3, lsr #31
 800c650:	ea5e 0e43 	orrs.w	lr, lr, r3, lsl #1
 800c654:	bf08      	it	eq
 800c656:	ea20 70d3 	biceq.w	r0, r0, r3, lsr #31
 800c65a:	bd70      	pop	{r4, r5, r6, pc}
 800c65c:	f094 0f00 	teq	r4, #0
 800c660:	d10f      	bne.n	800c682 <__aeabi_dmul+0x1c2>
 800c662:	f001 4600 	and.w	r6, r1, #2147483648	; 0x80000000
 800c666:	0040      	lsls	r0, r0, #1
 800c668:	eb41 0101 	adc.w	r1, r1, r1
 800c66c:	f411 1f80 	tst.w	r1, #1048576	; 0x100000
 800c670:	bf08      	it	eq
 800c672:	3c01      	subeq	r4, #1
 800c674:	d0f7      	beq.n	800c666 <__aeabi_dmul+0x1a6>
 800c676:	ea41 0106 	orr.w	r1, r1, r6
 800c67a:	f095 0f00 	teq	r5, #0
 800c67e:	bf18      	it	ne
 800c680:	4770      	bxne	lr
 800c682:	f003 4600 	and.w	r6, r3, #2147483648	; 0x80000000
 800c686:	0052      	lsls	r2, r2, #1
 800c688:	eb43 0303 	adc.w	r3, r3, r3
 800c68c:	f413 1f80 	tst.w	r3, #1048576	; 0x100000
 800c690:	bf08      	it	eq
 800c692:	3d01      	subeq	r5, #1
 800c694:	d0f7      	beq.n	800c686 <__aeabi_dmul+0x1c6>
 800c696:	ea43 0306 	orr.w	r3, r3, r6
 800c69a:	4770      	bx	lr
 800c69c:	ea94 0f0c 	teq	r4, ip
 800c6a0:	ea0c 5513 	and.w	r5, ip, r3, lsr #20
 800c6a4:	bf18      	it	ne
 800c6a6:	ea95 0f0c 	teqne	r5, ip
 800c6aa:	d00c      	beq.n	800c6c6 <__aeabi_dmul+0x206>
 800c6ac:	ea50 0641 	orrs.w	r6, r0, r1, lsl #1
 800c6b0:	bf18      	it	ne
 800c6b2:	ea52 0643 	orrsne.w	r6, r2, r3, lsl #1
 800c6b6:	d1d1      	bne.n	800c65c <__aeabi_dmul+0x19c>
 800c6b8:	ea81 0103 	eor.w	r1, r1, r3
 800c6bc:	f001 4100 	and.w	r1, r1, #2147483648	; 0x80000000
 800c6c0:	f04f 0000 	mov.w	r0, #0
 800c6c4:	bd70      	pop	{r4, r5, r6, pc}
 800c6c6:	ea50 0641 	orrs.w	r6, r0, r1, lsl #1
 800c6ca:	bf06      	itte	eq
 800c6cc:	4610      	moveq	r0, r2
 800c6ce:	4619      	moveq	r1, r3
 800c6d0:	ea52 0643 	orrsne.w	r6, r2, r3, lsl #1
 800c6d4:	d019      	beq.n	800c70a <__aeabi_dmul+0x24a>
 800c6d6:	ea94 0f0c 	teq	r4, ip
 800c6da:	d102      	bne.n	800c6e2 <__aeabi_dmul+0x222>
 800c6dc:	ea50 3601 	orrs.w	r6, r0, r1, lsl #12
 800c6e0:	d113      	bne.n	800c70a <__aeabi_dmul+0x24a>
 800c6e2:	ea95 0f0c 	teq	r5, ip
 800c6e6:	d105      	bne.n	800c6f4 <__aeabi_dmul+0x234>
 800c6e8:	ea52 3603 	orrs.w	r6, r2, r3, lsl #12
 800c6ec:	bf1c      	itt	ne
 800c6ee:	4610      	movne	r0, r2
 800c6f0:	4619      	movne	r1, r3
 800c6f2:	d10a      	bne.n	800c70a <__aeabi_dmul+0x24a>
 800c6f4:	ea81 0103 	eor.w	r1, r1, r3
 800c6f8:	f001 4100 	and.w	r1, r1, #2147483648	; 0x80000000
 800c6fc:	f041 41fe 	orr.w	r1, r1, #2130706432	; 0x7f000000
 800c700:	f441 0170 	orr.w	r1, r1, #15728640	; 0xf00000
 800c704:	f04f 0000 	mov.w	r0, #0
 800c708:	bd70      	pop	{r4, r5, r6, pc}
 800c70a:	f041 41fe 	orr.w	r1, r1, #2130706432	; 0x7f000000
 800c70e:	f441 0178 	orr.w	r1, r1, #16252928	; 0xf80000
 800c712:	bd70      	pop	{r4, r5, r6, pc}

0800c714 <__aeabi_ddiv>:
 800c714:	b570      	push	{r4, r5, r6, lr}
 800c716:	f04f 0cff 	mov.w	ip, #255	; 0xff
 800c71a:	f44c 6ce0 	orr.w	ip, ip, #1792	; 0x700
 800c71e:	ea1c 5411 	ands.w	r4, ip, r1, lsr #20
 800c722:	bf1d      	ittte	ne
 800c724:	ea1c 5513 	andsne.w	r5, ip, r3, lsr #20
 800c728:	ea94 0f0c 	teqne	r4, ip
 800c72c:	ea95 0f0c 	teqne	r5, ip
 800c730:	f000 f8a7 	bleq	800c882 <__aeabi_ddiv+0x16e>
 800c734:	eba4 0405 	sub.w	r4, r4, r5
 800c738:	ea81 0e03 	eor.w	lr, r1, r3
 800c73c:	ea52 3503 	orrs.w	r5, r2, r3, lsl #12
 800c740:	ea4f 3101 	mov.w	r1, r1, lsl #12
 800c744:	f000 8088 	beq.w	800c858 <__aeabi_ddiv+0x144>
 800c748:	ea4f 3303 	mov.w	r3, r3, lsl #12
 800c74c:	f04f 5580 	mov.w	r5, #268435456	; 0x10000000
 800c750:	ea45 1313 	orr.w	r3, r5, r3, lsr #4
 800c754:	ea43 6312 	orr.w	r3, r3, r2, lsr #24
 800c758:	ea4f 2202 	mov.w	r2, r2, lsl #8
 800c75c:	ea45 1511 	orr.w	r5, r5, r1, lsr #4
 800c760:	ea45 6510 	orr.w	r5, r5, r0, lsr #24
 800c764:	ea4f 2600 	mov.w	r6, r0, lsl #8
 800c768:	f00e 4100 	and.w	r1, lr, #2147483648	; 0x80000000
 800c76c:	429d      	cmp	r5, r3
 800c76e:	bf08      	it	eq
 800c770:	4296      	cmpeq	r6, r2
 800c772:	f144 04fd 	adc.w	r4, r4, #253	; 0xfd
 800c776:	f504 7440 	add.w	r4, r4, #768	; 0x300
 800c77a:	d202      	bcs.n	800c782 <__aeabi_ddiv+0x6e>
 800c77c:	085b      	lsrs	r3, r3, #1
 800c77e:	ea4f 0232 	mov.w	r2, r2, rrx
 800c782:	1ab6      	subs	r6, r6, r2
 800c784:	eb65 0503 	sbc.w	r5, r5, r3
 800c788:	085b      	lsrs	r3, r3, #1
 800c78a:	ea4f 0232 	mov.w	r2, r2, rrx
 800c78e:	f44f 1080 	mov.w	r0, #1048576	; 0x100000
 800c792:	f44f 2c00 	mov.w	ip, #524288	; 0x80000
 800c796:	ebb6 0e02 	subs.w	lr, r6, r2
 800c79a:	eb75 0e03 	sbcs.w	lr, r5, r3
 800c79e:	bf22      	ittt	cs
 800c7a0:	1ab6      	subcs	r6, r6, r2
 800c7a2:	4675      	movcs	r5, lr
 800c7a4:	ea40 000c 	orrcs.w	r0, r0, ip
 800c7a8:	085b      	lsrs	r3, r3, #1
 800c7aa:	ea4f 0232 	mov.w	r2, r2, rrx
 800c7ae:	ebb6 0e02 	subs.w	lr, r6, r2
 800c7b2:	eb75 0e03 	sbcs.w	lr, r5, r3
 800c7b6:	bf22      	ittt	cs
 800c7b8:	1ab6      	subcs	r6, r6, r2
 800c7ba:	4675      	movcs	r5, lr
 800c7bc:	ea40 005c 	orrcs.w	r0, r0, ip, lsr #1
 800c7c0:	085b      	lsrs	r3, r3, #1
 800c7c2:	ea4f 0232 	mov.w	r2, r2, rrx
 800c7c6:	ebb6 0e02 	subs.w	lr, r6, r2
 800c7ca:	eb75 0e03 	sbcs.w	lr, r5, r3
 800c7ce:	bf22      	ittt	cs
 800c7d0:	1ab6      	subcs	r6, r6, r2
 800c7d2:	4675      	movcs	r5, lr
 800c7d4:	ea40 009c 	orrcs.w	r0, r0, ip, lsr #2
 800c7d8:	085b      	lsrs	r3, r3, #1
 800c7da:	ea4f 0232 	mov.w	r2, r2, rrx
 800c7de:	ebb6 0e02 	subs.w	lr, r6, r2
 800c7e2:	eb75 0e03 	sbcs.w	lr, r5, r3
 800c7e6:	bf22      	ittt	cs
 800c7e8:	1ab6      	subcs	r6, r6, r2
 800c7ea:	4675      	movcs	r5, lr
 800c7ec:	ea40 00dc 	orrcs.w	r0, r0, ip, lsr #3
 800c7f0:	ea55 0e06 	orrs.w	lr, r5, r6
 800c7f4:	d018      	beq.n	800c828 <__aeabi_ddiv+0x114>
 800c7f6:	ea4f 1505 	mov.w	r5, r5, lsl #4
 800c7fa:	ea45 7516 	orr.w	r5, r5, r6, lsr #28
 800c7fe:	ea4f 1606 	mov.w	r6, r6, lsl #4
 800c802:	ea4f 03c3 	mov.w	r3, r3, lsl #3
 800c806:	ea43 7352 	orr.w	r3, r3, r2, lsr #29
 800c80a:	ea4f 02c2 	mov.w	r2, r2, lsl #3
 800c80e:	ea5f 1c1c 	movs.w	ip, ip, lsr #4
 800c812:	d1c0      	bne.n	800c796 <__aeabi_ddiv+0x82>
 800c814:	f411 1f80 	tst.w	r1, #1048576	; 0x100000
 800c818:	d10b      	bne.n	800c832 <__aeabi_ddiv+0x11e>
 800c81a:	ea41 0100 	orr.w	r1, r1, r0
 800c81e:	f04f 0000 	mov.w	r0, #0
 800c822:	f04f 4c00 	mov.w	ip, #2147483648	; 0x80000000
 800c826:	e7b6      	b.n	800c796 <__aeabi_ddiv+0x82>
 800c828:	f411 1f80 	tst.w	r1, #1048576	; 0x100000
 800c82c:	bf04      	itt	eq
 800c82e:	4301      	orreq	r1, r0
 800c830:	2000      	moveq	r0, #0
 800c832:	f1b4 0cfd 	subs.w	ip, r4, #253	; 0xfd
 800c836:	bf88      	it	hi
 800c838:	f5bc 6fe0 	cmphi.w	ip, #1792	; 0x700
 800c83c:	f63f aeaf 	bhi.w	800c59e <__aeabi_dmul+0xde>
 800c840:	ebb5 0c03 	subs.w	ip, r5, r3
 800c844:	bf04      	itt	eq
 800c846:	ebb6 0c02 	subseq.w	ip, r6, r2
 800c84a:	ea5f 0c50 	movseq.w	ip, r0, lsr #1
 800c84e:	f150 0000 	adcs.w	r0, r0, #0
 800c852:	eb41 5104 	adc.w	r1, r1, r4, lsl #20
 800c856:	bd70      	pop	{r4, r5, r6, pc}
 800c858:	f00e 4e00 	and.w	lr, lr, #2147483648	; 0x80000000
 800c85c:	ea4e 3111 	orr.w	r1, lr, r1, lsr #12
 800c860:	eb14 045c 	adds.w	r4, r4, ip, lsr #1
 800c864:	bfc2      	ittt	gt
 800c866:	ebd4 050c 	rsbsgt	r5, r4, ip
 800c86a:	ea41 5104 	orrgt.w	r1, r1, r4, lsl #20
 800c86e:	bd70      	popgt	{r4, r5, r6, pc}
 800c870:	f441 1180 	orr.w	r1, r1, #1048576	; 0x100000
 800c874:	f04f 0e00 	mov.w	lr, #0
 800c878:	3c01      	subs	r4, #1
 800c87a:	e690      	b.n	800c59e <__aeabi_dmul+0xde>
 800c87c:	ea45 0e06 	orr.w	lr, r5, r6
 800c880:	e68d      	b.n	800c59e <__aeabi_dmul+0xde>
 800c882:	ea0c 5513 	and.w	r5, ip, r3, lsr #20
 800c886:	ea94 0f0c 	teq	r4, ip
 800c88a:	bf08      	it	eq
 800c88c:	ea95 0f0c 	teqeq	r5, ip
 800c890:	f43f af3b 	beq.w	800c70a <__aeabi_dmul+0x24a>
 800c894:	ea94 0f0c 	teq	r4, ip
 800c898:	d10a      	bne.n	800c8b0 <__aeabi_ddiv+0x19c>
 800c89a:	ea50 3401 	orrs.w	r4, r0, r1, lsl #12
 800c89e:	f47f af34 	bne.w	800c70a <__aeabi_dmul+0x24a>
 800c8a2:	ea95 0f0c 	teq	r5, ip
 800c8a6:	f47f af25 	bne.w	800c6f4 <__aeabi_dmul+0x234>
 800c8aa:	4610      	mov	r0, r2
 800c8ac:	4619      	mov	r1, r3
 800c8ae:	e72c      	b.n	800c70a <__aeabi_dmul+0x24a>
 800c8b0:	ea95 0f0c 	teq	r5, ip
 800c8b4:	d106      	bne.n	800c8c4 <__aeabi_ddiv+0x1b0>
 800c8b6:	ea52 3503 	orrs.w	r5, r2, r3, lsl #12
 800c8ba:	f43f aefd 	beq.w	800c6b8 <__aeabi_dmul+0x1f8>
 800c8be:	4610      	mov	r0, r2
 800c8c0:	4619      	mov	r1, r3
 800c8c2:	e722      	b.n	800c70a <__aeabi_dmul+0x24a>
 800c8c4:	ea50 0641 	orrs.w	r6, r0, r1, lsl #1
 800c8c8:	bf18      	it	ne
 800c8ca:	ea52 0643 	orrsne.w	r6, r2, r3, lsl #1
 800c8ce:	f47f aec5 	bne.w	800c65c <__aeabi_dmul+0x19c>
 800c8d2:	ea50 0441 	orrs.w	r4, r0, r1, lsl #1
 800c8d6:	f47f af0d 	bne.w	800c6f4 <__aeabi_dmul+0x234>
 800c8da:	ea52 0543 	orrs.w	r5, r2, r3, lsl #1
 800c8de:	f47f aeeb 	bne.w	800c6b8 <__aeabi_dmul+0x1f8>
 800c8e2:	e712      	b.n	800c70a <__aeabi_dmul+0x24a>
	...

0800c8f0 <__gedf2>:
 800c8f0:	f04f 3cff 	mov.w	ip, #4294967295
 800c8f4:	e006      	b.n	800c904 <__cmpdf2+0x4>
 800c8f6:	bf00      	nop

0800c8f8 <__ledf2>:
 800c8f8:	f04f 0c01 	mov.w	ip, #1
 800c8fc:	e002      	b.n	800c904 <__cmpdf2+0x4>
 800c8fe:	bf00      	nop

0800c900 <__cmpdf2>:
 800c900:	f04f 0c01 	mov.w	ip, #1
 800c904:	f84d cd04 	str.w	ip, [sp, #-4]!
 800c908:	ea4f 0c41 	mov.w	ip, r1, lsl #1
 800c90c:	ea7f 5c6c 	mvns.w	ip, ip, asr #21
 800c910:	ea4f 0c43 	mov.w	ip, r3, lsl #1
 800c914:	bf18      	it	ne
 800c916:	ea7f 5c6c 	mvnsne.w	ip, ip, asr #21
 800c91a:	d01b      	beq.n	800c954 <__cmpdf2+0x54>
 800c91c:	b001      	add	sp, #4
 800c91e:	ea50 0c41 	orrs.w	ip, r0, r1, lsl #1
 800c922:	bf0c      	ite	eq
 800c924:	ea52 0c43 	orrseq.w	ip, r2, r3, lsl #1
 800c928:	ea91 0f03 	teqne	r1, r3
 800c92c:	bf02      	ittt	eq
 800c92e:	ea90 0f02 	teqeq	r0, r2
 800c932:	2000      	moveq	r0, #0
 800c934:	4770      	bxeq	lr
 800c936:	f110 0f00 	cmn.w	r0, #0
 800c93a:	ea91 0f03 	teq	r1, r3
 800c93e:	bf58      	it	pl
 800c940:	4299      	cmppl	r1, r3
 800c942:	bf08      	it	eq
 800c944:	4290      	cmpeq	r0, r2
 800c946:	bf2c      	ite	cs
 800c948:	17d8      	asrcs	r0, r3, #31
 800c94a:	ea6f 70e3 	mvncc.w	r0, r3, asr #31
 800c94e:	f040 0001 	orr.w	r0, r0, #1
 800c952:	4770      	bx	lr
 800c954:	ea4f 0c41 	mov.w	ip, r1, lsl #1
 800c958:	ea7f 5c6c 	mvns.w	ip, ip, asr #21
 800c95c:	d102      	bne.n	800c964 <__cmpdf2+0x64>
 800c95e:	ea50 3c01 	orrs.w	ip, r0, r1, lsl #12
 800c962:	d107      	bne.n	800c974 <__cmpdf2+0x74>
 800c964:	ea4f 0c43 	mov.w	ip, r3, lsl #1
 800c968:	ea7f 5c6c 	mvns.w	ip, ip, asr #21
 800c96c:	d1d6      	bne.n	800c91c <__cmpdf2+0x1c>
 800c96e:	ea52 3c03 	orrs.w	ip, r2, r3, lsl #12
 800c972:	d0d3      	beq.n	800c91c <__cmpdf2+0x1c>
 800c974:	f85d 0b04 	ldr.w	r0, [sp], #4
 800c978:	4770      	bx	lr
 800c97a:	bf00      	nop

0800c97c <__aeabi_cdrcmple>:
 800c97c:	4684      	mov	ip, r0
 800c97e:	4610      	mov	r0, r2
 800c980:	4662      	mov	r2, ip
 800c982:	468c      	mov	ip, r1
 800c984:	4619      	mov	r1, r3
 800c986:	4663      	mov	r3, ip
 800c988:	e000      	b.n	800c98c <__aeabi_cdcmpeq>
 800c98a:	bf00      	nop

0800c98c <__aeabi_cdcmpeq>:
 800c98c:	b501      	push	{r0, lr}
 800c98e:	f7ff ffb7 	bl	800c900 <__cmpdf2>
 800c992:	2800      	cmp	r0, #0
 800c994:	bf48      	it	mi
 800c996:	f110 0f00 	cmnmi.w	r0, #0
 800c99a:	bd01      	pop	{r0, pc}

0800c99c <__aeabi_dcmpeq>:
 800c99c:	f84d ed08 	str.w	lr, [sp, #-8]!
 800c9a0:	f7ff fff4 	bl	800c98c <__aeabi_cdcmpeq>
 800c9a4:	bf0c      	ite	eq
 800c9a6:	2001      	moveq	r0, #1
 800c9a8:	2000      	movne	r0, #0
 800c9aa:	f85d fb08 	ldr.w	pc, [sp], #8
 800c9ae:	bf00      	nop

0800c9b0 <__aeabi_dcmplt>:
 800c9b0:	f84d ed08 	str.w	lr, [sp, #-8]!
 800c9b4:	f7ff ffea 	bl	800c98c <__aeabi_cdcmpeq>
 800c9b8:	bf34      	ite	cc
 800c9ba:	2001      	movcc	r0, #1
 800c9bc:	2000      	movcs	r0, #0
 800c9be:	f85d fb08 	ldr.w	pc, [sp], #8
 800c9c2:	bf00      	nop

0800c9c4 <__aeabi_dcmple>:
 800c9c4:	f84d ed08 	str.w	lr, [sp, #-8]!
 800c9c8:	f7ff ffe0 	bl	800c98c <__aeabi_cdcmpeq>
 800c9cc:	bf94      	ite	ls
 800c9ce:	2001      	movls	r0, #1
 800c9d0:	2000      	movhi	r0, #0
 800c9d2:	f85d fb08 	ldr.w	pc, [sp], #8
 800c9d6:	bf00      	nop

0800c9d8 <__aeabi_dcmpge>:
 800c9d8:	f84d ed08 	str.w	lr, [sp, #-8]!
 800c9dc:	f7ff ffce 	bl	800c97c <__aeabi_cdrcmple>
 800c9e0:	bf94      	ite	ls
 800c9e2:	2001      	movls	r0, #1
 800c9e4:	2000      	movhi	r0, #0
 800c9e6:	f85d fb08 	ldr.w	pc, [sp], #8
 800c9ea:	bf00      	nop

0800c9ec <__aeabi_dcmpgt>:
 800c9ec:	f84d ed08 	str.w	lr, [sp, #-8]!
 800c9f0:	f7ff ffc4 	bl	800c97c <__aeabi_cdrcmple>
 800c9f4:	bf34      	ite	cc
 800c9f6:	2001      	movcc	r0, #1
 800c9f8:	2000      	movcs	r0, #0
 800c9fa:	f85d fb08 	ldr.w	pc, [sp], #8
 800c9fe:	bf00      	nop

0800ca00 <__aeabi_d2iz>:
 800ca00:	ea4f 0241 	mov.w	r2, r1, lsl #1
 800ca04:	f512 1200 	adds.w	r2, r2, #2097152	; 0x200000
 800ca08:	d215      	bcs.n	800ca36 <__aeabi_d2iz+0x36>
 800ca0a:	d511      	bpl.n	800ca30 <__aeabi_d2iz+0x30>
 800ca0c:	f46f 7378 	mvn.w	r3, #992	; 0x3e0
 800ca10:	ebb3 5262 	subs.w	r2, r3, r2, asr #21
 800ca14:	d912      	bls.n	800ca3c <__aeabi_d2iz+0x3c>
 800ca16:	ea4f 23c1 	mov.w	r3, r1, lsl #11
 800ca1a:	f043 4300 	orr.w	r3, r3, #2147483648	; 0x80000000
 800ca1e:	ea43 5350 	orr.w	r3, r3, r0, lsr #21
 800ca22:	f011 4f00 	tst.w	r1, #2147483648	; 0x80000000
 800ca26:	fa23 f002 	lsr.w	r0, r3, r2
 800ca2a:	bf18      	it	ne
 800ca2c:	4240      	negne	r0, r0
 800ca2e:	4770      	bx	lr
 800ca30:	f04f 0000 	mov.w	r0, #0
 800ca34:	4770      	bx	lr
 800ca36:	ea50 3001 	orrs.w	r0, r0, r1, lsl #12
 800ca3a:	d105      	bne.n	800ca48 <__aeabi_d2iz+0x48>
 800ca3c:	f011 4000 	ands.w	r0, r1, #2147483648	; 0x80000000
 800ca40:	bf08      	it	eq
 800ca42:	f06f 4000 	mvneq.w	r0, #2147483648	; 0x80000000
 800ca46:	4770      	bx	lr
 800ca48:	f04f 0000 	mov.w	r0, #0
 800ca4c:	4770      	bx	lr
 800ca4e:	bf00      	nop

0800ca50 <__aeabi_d2f>:
 800ca50:	ea4f 0241 	mov.w	r2, r1, lsl #1
 800ca54:	f1b2 43e0 	subs.w	r3, r2, #1879048192	; 0x70000000
 800ca58:	bf24      	itt	cs
 800ca5a:	f5b3 1c00 	subscs.w	ip, r3, #2097152	; 0x200000
 800ca5e:	f1dc 5cfe 	rsbscs	ip, ip, #532676608	; 0x1fc00000
 800ca62:	d90d      	bls.n	800ca80 <__aeabi_d2f+0x30>
 800ca64:	f001 4c00 	and.w	ip, r1, #2147483648	; 0x80000000
 800ca68:	ea4f 02c0 	mov.w	r2, r0, lsl #3
 800ca6c:	ea4c 7050 	orr.w	r0, ip, r0, lsr #29
 800ca70:	f1b2 4f00 	cmp.w	r2, #2147483648	; 0x80000000
 800ca74:	eb40 0083 	adc.w	r0, r0, r3, lsl #2
 800ca78:	bf08      	it	eq
 800ca7a:	f020 0001 	biceq.w	r0, r0, #1
 800ca7e:	4770      	bx	lr
 800ca80:	f011 4f80 	tst.w	r1, #1073741824	; 0x40000000
 800ca84:	d121      	bne.n	800caca <__aeabi_d2f+0x7a>
 800ca86:	f113 7238 	adds.w	r2, r3, #48234496	; 0x2e00000
 800ca8a:	bfbc      	itt	lt
 800ca8c:	f001 4000 	andlt.w	r0, r1, #2147483648	; 0x80000000
 800ca90:	4770      	bxlt	lr
 800ca92:	f441 1180 	orr.w	r1, r1, #1048576	; 0x100000
 800ca96:	ea4f 5252 	mov.w	r2, r2, lsr #21
 800ca9a:	f1c2 0218 	rsb	r2, r2, #24
 800ca9e:	f1c2 0c20 	rsb	ip, r2, #32
 800caa2:	fa10 f30c 	lsls.w	r3, r0, ip
 800caa6:	fa20 f002 	lsr.w	r0, r0, r2
 800caaa:	bf18      	it	ne
 800caac:	f040 0001 	orrne.w	r0, r0, #1
 800cab0:	ea4f 23c1 	mov.w	r3, r1, lsl #11
 800cab4:	ea4f 23d3 	mov.w	r3, r3, lsr #11
 800cab8:	fa03 fc0c 	lsl.w	ip, r3, ip
 800cabc:	ea40 000c 	orr.w	r0, r0, ip
 800cac0:	fa23 f302 	lsr.w	r3, r3, r2
 800cac4:	ea4f 0343 	mov.w	r3, r3, lsl #1
 800cac8:	e7cc      	b.n	800ca64 <__aeabi_d2f+0x14>
 800caca:	ea7f 5362 	mvns.w	r3, r2, asr #21
 800cace:	d107      	bne.n	800cae0 <__aeabi_d2f+0x90>
 800cad0:	ea50 3301 	orrs.w	r3, r0, r1, lsl #12
 800cad4:	bf1e      	ittt	ne
 800cad6:	f04f 40fe 	movne.w	r0, #2130706432	; 0x7f000000
 800cada:	f440 0040 	orrne.w	r0, r0, #12582912	; 0xc00000
 800cade:	4770      	bxne	lr
 800cae0:	f001 4000 	and.w	r0, r1, #2147483648	; 0x80000000
 800cae4:	f040 40fe 	orr.w	r0, r0, #2130706432	; 0x7f000000
 800cae8:	f440 0000 	orr.w	r0, r0, #8388608	; 0x800000
 800caec:	4770      	bx	lr
 800caee:	bf00      	nop

0800caf0 <memcpy>:
 800caf0:	4684      	mov	ip, r0
 800caf2:	ea41 0300 	orr.w	r3, r1, r0
 800caf6:	f013 0303 	ands.w	r3, r3, #3
 800cafa:	d16d      	bne.n	800cbd8 <memcpy+0xe8>
 800cafc:	3a40      	subs	r2, #64	; 0x40
 800cafe:	d341      	bcc.n	800cb84 <memcpy+0x94>
 800cb00:	f851 3b04 	ldr.w	r3, [r1], #4
 800cb04:	f840 3b04 	str.w	r3, [r0], #4
 800cb08:	f851 3b04 	ldr.w	r3, [r1], #4
 800cb0c:	f840 3b04 	str.w	r3, [r0], #4
 800cb10:	f851 3b04 	ldr.w	r3, [r1], #4
 800cb14:	f840 3b04 	str.w	r3, [r0], #4
 800cb18:	f851 3b04 	ldr.w	r3, [r1], #4
 800cb1c:	f840 3b04 	str.w	r3, [r0], #4
 800cb20:	f851 3b04 	ldr.w	r3, [r1], #4
 800cb24:	f840 3b04 	str.w	r3, [r0], #4
 800cb28:	f851 3b04 	ldr.w	r3, [r1], #4
 800cb2c:	f840 3b04 	str.w	r3, [r0], #4
 800cb30:	f851 3b04 	ldr.w	r3, [r1], #4
 800cb34:	f840 3b04 	str.w	r3, [r0], #4
 800cb38:	f851 3b04 	ldr.w	r3, [r1], #4
 800cb3c:	f840 3b04 	str.w	r3, [r0], #4
 800cb40:	f851 3b04 	ldr.w	r3, [r1], #4
 800cb44:	f840 3b04 	str.w	r3, [r0], #4
 800cb48:	f851 3b04 	ldr.w	r3, [r1], #4
 800cb4c:	f840 3b04 	str.w	r3, [r0], #4
 800cb50:	f851 3b04 	ldr.w	r3, [r1], #4
 800cb54:	f840 3b04 	str.w	r3, [r0], #4
 800cb58:	f851 3b04 	ldr.w	r3, [r1], #4
 800cb5c:	f840 3b04 	str.w	r3, [r0], #4
 800cb60:	f851 3b04 	ldr.w	r3, [r1], #4
 800cb64:	f840 3b04 	str.w	r3, [r0], #4
 800cb68:	f851 3b04 	ldr.w	r3, [r1], #4
 800cb6c:	f840 3b04 	str.w	r3, [r0], #4
 800cb70:	f851 3b04 	ldr.w	r3, [r1], #4
 800cb74:	f840 3b04 	str.w	r3, [r0], #4
 800cb78:	f851 3b04 	ldr.w	r3, [r1], #4
 800cb7c:	f840 3b04 	str.w	r3, [r0], #4
 800cb80:	3a40      	subs	r2, #64	; 0x40
 800cb82:	d2bd      	bcs.n	800cb00 <memcpy+0x10>
 800cb84:	3230      	adds	r2, #48	; 0x30
 800cb86:	d311      	bcc.n	800cbac <memcpy+0xbc>
 800cb88:	f851 3b04 	ldr.w	r3, [r1], #4
 800cb8c:	f840 3b04 	str.w	r3, [r0], #4
 800cb90:	f851 3b04 	ldr.w	r3, [r1], #4
 800cb94:	f840 3b04 	str.w	r3, [r0], #4
 800cb98:	f851 3b04 	ldr.w	r3, [r1], #4
 800cb9c:	f840 3b04 	str.w	r3, [r0], #4
 800cba0:	f851 3b04 	ldr.w	r3, [r1], #4
 800cba4:	f840 3b04 	str.w	r3, [r0], #4
 800cba8:	3a10      	subs	r2, #16
 800cbaa:	d2ed      	bcs.n	800cb88 <memcpy+0x98>
 800cbac:	320c      	adds	r2, #12
 800cbae:	d305      	bcc.n	800cbbc <memcpy+0xcc>
 800cbb0:	f851 3b04 	ldr.w	r3, [r1], #4
 800cbb4:	f840 3b04 	str.w	r3, [r0], #4
 800cbb8:	3a04      	subs	r2, #4
 800cbba:	d2f9      	bcs.n	800cbb0 <memcpy+0xc0>
 800cbbc:	3204      	adds	r2, #4
 800cbbe:	d008      	beq.n	800cbd2 <memcpy+0xe2>
 800cbc0:	07d2      	lsls	r2, r2, #31
 800cbc2:	bf1c      	itt	ne
 800cbc4:	f811 3b01 	ldrbne.w	r3, [r1], #1
 800cbc8:	f800 3b01 	strbne.w	r3, [r0], #1
 800cbcc:	d301      	bcc.n	800cbd2 <memcpy+0xe2>
 800cbce:	880b      	ldrh	r3, [r1, #0]
 800cbd0:	8003      	strh	r3, [r0, #0]
 800cbd2:	4660      	mov	r0, ip
 800cbd4:	4770      	bx	lr
 800cbd6:	bf00      	nop
 800cbd8:	2a08      	cmp	r2, #8
 800cbda:	d313      	bcc.n	800cc04 <memcpy+0x114>
 800cbdc:	078b      	lsls	r3, r1, #30
 800cbde:	d08d      	beq.n	800cafc <memcpy+0xc>
 800cbe0:	f010 0303 	ands.w	r3, r0, #3
 800cbe4:	d08a      	beq.n	800cafc <memcpy+0xc>
 800cbe6:	f1c3 0304 	rsb	r3, r3, #4
 800cbea:	1ad2      	subs	r2, r2, r3
 800cbec:	07db      	lsls	r3, r3, #31
 800cbee:	bf1c      	itt	ne
 800cbf0:	f811 3b01 	ldrbne.w	r3, [r1], #1
 800cbf4:	f800 3b01 	strbne.w	r3, [r0], #1
 800cbf8:	d380      	bcc.n	800cafc <memcpy+0xc>
 800cbfa:	f831 3b02 	ldrh.w	r3, [r1], #2
 800cbfe:	f820 3b02 	strh.w	r3, [r0], #2
 800cc02:	e77b      	b.n	800cafc <memcpy+0xc>
 800cc04:	3a04      	subs	r2, #4
 800cc06:	d3d9      	bcc.n	800cbbc <memcpy+0xcc>
 800cc08:	3a01      	subs	r2, #1
 800cc0a:	f811 3b01 	ldrb.w	r3, [r1], #1
 800cc0e:	f800 3b01 	strb.w	r3, [r0], #1
 800cc12:	d2f9      	bcs.n	800cc08 <memcpy+0x118>
 800cc14:	780b      	ldrb	r3, [r1, #0]
 800cc16:	7003      	strb	r3, [r0, #0]
 800cc18:	784b      	ldrb	r3, [r1, #1]
 800cc1a:	7043      	strb	r3, [r0, #1]
 800cc1c:	788b      	ldrb	r3, [r1, #2]
 800cc1e:	7083      	strb	r3, [r0, #2]
 800cc20:	4660      	mov	r0, ip
 800cc22:	4770      	bx	lr
	...

0800cc30 <strlen>:
 800cc30:	f890 f000 	pld	[r0]
 800cc34:	e96d 4502 	strd	r4, r5, [sp, #-8]!
 800cc38:	f020 0107 	bic.w	r1, r0, #7
 800cc3c:	f06f 0c00 	mvn.w	ip, #0
 800cc40:	f010 0407 	ands.w	r4, r0, #7
 800cc44:	f891 f020 	pld	[r1, #32]
 800cc48:	f040 8049 	bne.w	800ccde <strlen+0xae>
 800cc4c:	f04f 0400 	mov.w	r4, #0
 800cc50:	f06f 0007 	mvn.w	r0, #7
 800cc54:	e9d1 2300 	ldrd	r2, r3, [r1]
 800cc58:	f891 f040 	pld	[r1, #64]	; 0x40
 800cc5c:	f100 0008 	add.w	r0, r0, #8
 800cc60:	fa82 f24c 	uadd8	r2, r2, ip
 800cc64:	faa4 f28c 	sel	r2, r4, ip
 800cc68:	fa83 f34c 	uadd8	r3, r3, ip
 800cc6c:	faa2 f38c 	sel	r3, r2, ip
 800cc70:	bb4b      	cbnz	r3, 800ccc6 <strlen+0x96>
 800cc72:	e9d1 2302 	ldrd	r2, r3, [r1, #8]
 800cc76:	fa82 f24c 	uadd8	r2, r2, ip
 800cc7a:	f100 0008 	add.w	r0, r0, #8
 800cc7e:	faa4 f28c 	sel	r2, r4, ip
 800cc82:	fa83 f34c 	uadd8	r3, r3, ip
 800cc86:	faa2 f38c 	sel	r3, r2, ip
 800cc8a:	b9e3      	cbnz	r3, 800ccc6 <strlen+0x96>
 800cc8c:	e9d1 2304 	ldrd	r2, r3, [r1, #16]
 800cc90:	fa82 f24c 	uadd8	r2, r2, ip
 800cc94:	f100 0008 	add.w	r0, r0, #8
 800cc98:	faa4 f28c 	sel	r2, r4, ip
 800cc9c:	fa83 f34c 	uadd8	r3, r3, ip
 800cca0:	faa2 f38c 	sel	r3, r2, ip
 800cca4:	b97b      	cbnz	r3, 800ccc6 <strlen+0x96>
 800cca6:	e9d1 2306 	ldrd	r2, r3, [r1, #24]
 800ccaa:	f101 0120 	add.w	r1, r1, #32
 800ccae:	fa82 f24c 	uadd8	r2, r2, ip
 800ccb2:	f100 0008 	add.w	r0, r0, #8
 800ccb6:	faa4 f28c 	sel	r2, r4, ip
 800ccba:	fa83 f34c 	uadd8	r3, r3, ip
 800ccbe:	faa2 f38c 	sel	r3, r2, ip
 800ccc2:	2b00      	cmp	r3, #0
 800ccc4:	d0c6      	beq.n	800cc54 <strlen+0x24>
 800ccc6:	2a00      	cmp	r2, #0
 800ccc8:	bf04      	itt	eq
 800ccca:	3004      	addeq	r0, #4
 800cccc:	461a      	moveq	r2, r3
 800ccce:	ba12      	rev	r2, r2
 800ccd0:	fab2 f282 	clz	r2, r2
 800ccd4:	e8fd 4502 	ldrd	r4, r5, [sp], #8
 800ccd8:	eb00 00d2 	add.w	r0, r0, r2, lsr #3
 800ccdc:	4770      	bx	lr
 800ccde:	e9d1 2300 	ldrd	r2, r3, [r1]
 800cce2:	f004 0503 	and.w	r5, r4, #3
 800cce6:	f1c4 0000 	rsb	r0, r4, #0
 800ccea:	ea4f 05c5 	mov.w	r5, r5, lsl #3
 800ccee:	f014 0f04 	tst.w	r4, #4
 800ccf2:	f891 f040 	pld	[r1, #64]	; 0x40
 800ccf6:	fa0c f505 	lsl.w	r5, ip, r5
 800ccfa:	ea62 0205 	orn	r2, r2, r5
 800ccfe:	bf1c      	itt	ne
 800cd00:	ea63 0305 	ornne	r3, r3, r5
 800cd04:	4662      	movne	r2, ip
 800cd06:	f04f 0400 	mov.w	r4, #0
 800cd0a:	e7a9      	b.n	800cc60 <strlen+0x30>
 800cd0c:	0000      	movs	r0, r0
	...

0800cd10 <__core_init>:
 800cd10:	4770      	bx	lr
 800cd12:	bf00      	nop
	...

0800cd20 <__late_init>:
 800cd20:	4770      	bx	lr
 800cd22:	bf00      	nop
	...

0800cd30 <__default_exit>:
 800cd30:	e7fe      	b.n	800cd30 <__default_exit>
 800cd32:	bf00      	nop
	...

0800cd40 <_unhandled_exception>:
 800cd40:	e7fe      	b.n	800cd40 <_unhandled_exception>
 800cd42:	bf00      	nop
	...

0800cd50 <_idle_thread>:
 800cd50:	e7fe      	b.n	800cd50 <_idle_thread>
 800cd52:	bf00      	nop
	...

0800cd60 <chSysInit>:
 800cd60:	4b20      	ldr	r3, [pc, #128]	; (800cde4 <chSysInit+0x84>)
 800cd62:	4a21      	ldr	r2, [pc, #132]	; (800cde8 <chSysInit+0x88>)
 800cd64:	4821      	ldr	r0, [pc, #132]	; (800cdec <chSysInit+0x8c>)
 800cd66:	b530      	push	{r4, r5, lr}
 800cd68:	2400      	movs	r4, #0
 800cd6a:	609c      	str	r4, [r3, #8]
 800cd6c:	68d9      	ldr	r1, [r3, #12]
 800cd6e:	f64f 05ff 	movw	r5, #63743	; 0xf8ff
 800cd72:	4029      	ands	r1, r5
 800cd74:	430a      	orrs	r2, r1
 800cd76:	60da      	str	r2, [r3, #12]
 800cd78:	68c2      	ldr	r2, [r0, #12]
 800cd7a:	491d      	ldr	r1, [pc, #116]	; (800cdf0 <chSysInit+0x90>)
 800cd7c:	4d1d      	ldr	r5, [pc, #116]	; (800cdf4 <chSysInit+0x94>)
 800cd7e:	f042 7280 	orr.w	r2, r2, #16777216	; 0x1000000
 800cd82:	60c2      	str	r2, [r0, #12]
 800cd84:	680a      	ldr	r2, [r1, #0]
 800cd86:	f042 0201 	orr.w	r2, r2, #1
 800cd8a:	600a      	str	r2, [r1, #0]
 800cd8c:	2010      	movs	r0, #16
 800cd8e:	2220      	movs	r2, #32
 800cd90:	b083      	sub	sp, #12
 800cd92:	77d8      	strb	r0, [r3, #31]
 800cd94:	f883 2022 	strb.w	r2, [r3, #34]	; 0x22
 800cd98:	f000 f902 	bl	800cfa0 <_scheduler_init>
 800cd9c:	f000 f880 	bl	800cea0 <_vt_init>
 800cda0:	f000 fb5e 	bl	800d460 <_tm_init>
 800cda4:	f000 fe0c 	bl	800d9c0 <_core_init>
 800cda8:	f000 fe42 	bl	800da30 <_heap_init>
 800cdac:	4628      	mov	r0, r5
 800cdae:	2140      	movs	r1, #64	; 0x40
 800cdb0:	f000 fa06 	bl	800d1c0 <_thread_init>
 800cdb4:	f1a5 0330 	sub.w	r3, r5, #48	; 0x30
 800cdb8:	2201      	movs	r2, #1
 800cdba:	6198      	str	r0, [r3, #24]
 800cdbc:	7702      	strb	r2, [r0, #28]
 800cdbe:	f384 8811 	msr	BASEPRI, r4
 800cdc2:	b662      	cpsie	i
 800cdc4:	699b      	ldr	r3, [r3, #24]
 800cdc6:	490c      	ldr	r1, [pc, #48]	; (800cdf8 <chSysInit+0x98>)
 800cdc8:	6199      	str	r1, [r3, #24]
 800cdca:	f105 0050 	add.w	r0, r5, #80	; 0x50
 800cdce:	9400      	str	r4, [sp, #0]
 800cdd0:	4b0a      	ldr	r3, [pc, #40]	; (800cdfc <chSysInit+0x9c>)
 800cdd2:	f44f 71ec 	mov.w	r1, #472	; 0x1d8
 800cdd6:	f000 fa43 	bl	800d260 <chThdCreateStatic>
 800cdda:	4b09      	ldr	r3, [pc, #36]	; (800ce00 <chSysInit+0xa0>)
 800cddc:	6183      	str	r3, [r0, #24]
 800cdde:	b003      	add	sp, #12
 800cde0:	bd30      	pop	{r4, r5, pc}
 800cde2:	bf00      	nop
 800cde4:	e000ed00 	.word	0xe000ed00
 800cde8:	05fa0300 	.word	0x05fa0300
 800cdec:	e000edf0 	.word	0xe000edf0
 800cdf0:	e0001000 	.word	0xe0001000
 800cdf4:	20000cc0 	.word	0x20000cc0
 800cdf8:	08016a90 	.word	0x08016a90
 800cdfc:	0800cd51 	.word	0x0800cd51
 800ce00:	08016a80 	.word	0x08016a80
	...

0800ce10 <chSysHalt>:
 800ce10:	b672      	cpsid	i
 800ce12:	4b01      	ldr	r3, [pc, #4]	; (800ce18 <chSysHalt+0x8>)
 800ce14:	62d8      	str	r0, [r3, #44]	; 0x2c
 800ce16:	e7fe      	b.n	800ce16 <chSysHalt+0x6>
 800ce18:	20000c90 	.word	0x20000c90
 800ce1c:	00000000 	.word	0x00000000

0800ce20 <chSysTimerHandlerI>:
 800ce20:	b5f8      	push	{r3, r4, r5, r6, r7, lr}
 800ce22:	4c13      	ldr	r4, [pc, #76]	; (800ce70 <chSysTimerHandlerI+0x50>)
 800ce24:	69a2      	ldr	r2, [r4, #24]
 800ce26:	7fd3      	ldrb	r3, [r2, #31]
 800ce28:	b10b      	cbz	r3, 800ce2e <chSysTimerHandlerI+0xe>
 800ce2a:	3b01      	subs	r3, #1
 800ce2c:	77d3      	strb	r3, [r2, #31]
 800ce2e:	6a11      	ldr	r1, [r2, #32]
 800ce30:	69e3      	ldr	r3, [r4, #28]
 800ce32:	4e10      	ldr	r6, [pc, #64]	; (800ce74 <chSysTimerHandlerI+0x54>)
 800ce34:	3101      	adds	r1, #1
 800ce36:	6211      	str	r1, [r2, #32]
 800ce38:	6aa2      	ldr	r2, [r4, #40]	; 0x28
 800ce3a:	42b3      	cmp	r3, r6
 800ce3c:	f102 0201 	add.w	r2, r2, #1
 800ce40:	62a2      	str	r2, [r4, #40]	; 0x28
 800ce42:	d013      	beq.n	800ce6c <chSysTimerHandlerI+0x4c>
 800ce44:	689d      	ldr	r5, [r3, #8]
 800ce46:	3d01      	subs	r5, #1
 800ce48:	609d      	str	r5, [r3, #8]
 800ce4a:	b97d      	cbnz	r5, 800ce6c <chSysTimerHandlerI+0x4c>
 800ce4c:	2720      	movs	r7, #32
 800ce4e:	681a      	ldr	r2, [r3, #0]
 800ce50:	68d9      	ldr	r1, [r3, #12]
 800ce52:	60dd      	str	r5, [r3, #12]
 800ce54:	6056      	str	r6, [r2, #4]
 800ce56:	61e2      	str	r2, [r4, #28]
 800ce58:	f385 8811 	msr	BASEPRI, r5
 800ce5c:	6918      	ldr	r0, [r3, #16]
 800ce5e:	4788      	blx	r1
 800ce60:	f387 8811 	msr	BASEPRI, r7
 800ce64:	69e3      	ldr	r3, [r4, #28]
 800ce66:	689a      	ldr	r2, [r3, #8]
 800ce68:	2a00      	cmp	r2, #0
 800ce6a:	d0f0      	beq.n	800ce4e <chSysTimerHandlerI+0x2e>
 800ce6c:	bdf8      	pop	{r3, r4, r5, r6, r7, pc}
 800ce6e:	bf00      	nop
 800ce70:	20000c90 	.word	0x20000c90
 800ce74:	20000cac 	.word	0x20000cac
	...

0800ce80 <chSysPolledDelayX>:
 800ce80:	4a03      	ldr	r2, [pc, #12]	; (800ce90 <chSysPolledDelayX+0x10>)
 800ce82:	6851      	ldr	r1, [r2, #4]
 800ce84:	6853      	ldr	r3, [r2, #4]
 800ce86:	1a5b      	subs	r3, r3, r1
 800ce88:	4298      	cmp	r0, r3
 800ce8a:	d8fb      	bhi.n	800ce84 <chSysPolledDelayX+0x4>
 800ce8c:	4770      	bx	lr
 800ce8e:	bf00      	nop
 800ce90:	e0001000 	.word	0xe0001000
	...

0800cea0 <_vt_init>:
 800cea0:	4b05      	ldr	r3, [pc, #20]	; (800ceb8 <_vt_init+0x18>)
 800cea2:	f04f 30ff 	mov.w	r0, #4294967295
 800cea6:	2100      	movs	r1, #0
 800cea8:	f103 021c 	add.w	r2, r3, #28
 800ceac:	6258      	str	r0, [r3, #36]	; 0x24
 800ceae:	6299      	str	r1, [r3, #40]	; 0x28
 800ceb0:	e9c3 2207 	strd	r2, r2, [r3, #28]
 800ceb4:	4770      	bx	lr
 800ceb6:	bf00      	nop
 800ceb8:	20000c90 	.word	0x20000c90
 800cebc:	00000000 	.word	0x00000000

0800cec0 <chVTDoSetI>:
 800cec0:	b430      	push	{r4, r5}
 800cec2:	4d0d      	ldr	r5, [pc, #52]	; (800cef8 <chVTDoSetI+0x38>)
 800cec4:	69ec      	ldr	r4, [r5, #28]
 800cec6:	6103      	str	r3, [r0, #16]
 800cec8:	68a3      	ldr	r3, [r4, #8]
 800ceca:	60c2      	str	r2, [r0, #12]
 800cecc:	4299      	cmp	r1, r3
 800cece:	d904      	bls.n	800ceda <chVTDoSetI+0x1a>
 800ced0:	6824      	ldr	r4, [r4, #0]
 800ced2:	1ac9      	subs	r1, r1, r3
 800ced4:	68a3      	ldr	r3, [r4, #8]
 800ced6:	428b      	cmp	r3, r1
 800ced8:	d3fa      	bcc.n	800ced0 <chVTDoSetI+0x10>
 800ceda:	6863      	ldr	r3, [r4, #4]
 800cedc:	e9c0 4300 	strd	r4, r3, [r0]
 800cee0:	6018      	str	r0, [r3, #0]
 800cee2:	6060      	str	r0, [r4, #4]
 800cee4:	6081      	str	r1, [r0, #8]
 800cee6:	68a3      	ldr	r3, [r4, #8]
 800cee8:	f04f 32ff 	mov.w	r2, #4294967295
 800ceec:	1a59      	subs	r1, r3, r1
 800ceee:	60a1      	str	r1, [r4, #8]
 800cef0:	626a      	str	r2, [r5, #36]	; 0x24
 800cef2:	bc30      	pop	{r4, r5}
 800cef4:	4770      	bx	lr
 800cef6:	bf00      	nop
 800cef8:	20000c90 	.word	0x20000c90
 800cefc:	00000000 	.word	0x00000000

0800cf00 <chVTDoResetI>:
 800cf00:	6803      	ldr	r3, [r0, #0]
 800cf02:	6841      	ldr	r1, [r0, #4]
 800cf04:	689a      	ldr	r2, [r3, #8]
 800cf06:	b430      	push	{r4, r5}
 800cf08:	6885      	ldr	r5, [r0, #8]
 800cf0a:	4c06      	ldr	r4, [pc, #24]	; (800cf24 <chVTDoResetI+0x24>)
 800cf0c:	442a      	add	r2, r5
 800cf0e:	609a      	str	r2, [r3, #8]
 800cf10:	600b      	str	r3, [r1, #0]
 800cf12:	6805      	ldr	r5, [r0, #0]
 800cf14:	2200      	movs	r2, #0
 800cf16:	f04f 33ff 	mov.w	r3, #4294967295
 800cf1a:	6069      	str	r1, [r5, #4]
 800cf1c:	60c2      	str	r2, [r0, #12]
 800cf1e:	6263      	str	r3, [r4, #36]	; 0x24
 800cf20:	bc30      	pop	{r4, r5}
 800cf22:	4770      	bx	lr
 800cf24:	20000c90 	.word	0x20000c90
	...

0800cf30 <wakeup>:
 800cf30:	2320      	movs	r3, #32
 800cf32:	f383 8811 	msr	BASEPRI, r3
 800cf36:	7f03      	ldrb	r3, [r0, #28]
 800cf38:	2b07      	cmp	r3, #7
 800cf3a:	d80e      	bhi.n	800cf5a <wakeup+0x2a>
 800cf3c:	e8df f003 	tbb	[pc, r3]
 800cf40:	240d0d28 	.word	0x240d0d28
 800cf44:	080d0408 	.word	0x080d0408
 800cf48:	6a42      	ldr	r2, [r0, #36]	; 0x24
 800cf4a:	6893      	ldr	r3, [r2, #8]
 800cf4c:	3301      	adds	r3, #1
 800cf4e:	6093      	str	r3, [r2, #8]
 800cf50:	e9d0 2300 	ldrd	r2, r3, [r0]
 800cf54:	601a      	str	r2, [r3, #0]
 800cf56:	6802      	ldr	r2, [r0, #0]
 800cf58:	6053      	str	r3, [r2, #4]
 800cf5a:	b410      	push	{r4}
 800cf5c:	2200      	movs	r2, #0
 800cf5e:	f04f 34ff 	mov.w	r4, #4294967295
 800cf62:	6881      	ldr	r1, [r0, #8]
 800cf64:	4b0c      	ldr	r3, [pc, #48]	; (800cf98 <wakeup+0x68>)
 800cf66:	6244      	str	r4, [r0, #36]	; 0x24
 800cf68:	7702      	strb	r2, [r0, #28]
 800cf6a:	681b      	ldr	r3, [r3, #0]
 800cf6c:	689a      	ldr	r2, [r3, #8]
 800cf6e:	428a      	cmp	r2, r1
 800cf70:	d2fb      	bcs.n	800cf6a <wakeup+0x3a>
 800cf72:	685a      	ldr	r2, [r3, #4]
 800cf74:	2100      	movs	r1, #0
 800cf76:	e9c0 3200 	strd	r3, r2, [r0]
 800cf7a:	6010      	str	r0, [r2, #0]
 800cf7c:	6058      	str	r0, [r3, #4]
 800cf7e:	f381 8811 	msr	BASEPRI, r1
 800cf82:	f85d 4b04 	ldr.w	r4, [sp], #4
 800cf86:	4770      	bx	lr
 800cf88:	6a43      	ldr	r3, [r0, #36]	; 0x24
 800cf8a:	2200      	movs	r2, #0
 800cf8c:	601a      	str	r2, [r3, #0]
 800cf8e:	e7e4      	b.n	800cf5a <wakeup+0x2a>
 800cf90:	2300      	movs	r3, #0
 800cf92:	f383 8811 	msr	BASEPRI, r3
 800cf96:	4770      	bx	lr
 800cf98:	20000c90 	.word	0x20000c90
 800cf9c:	00000000 	.word	0x00000000

0800cfa0 <_scheduler_init>:
 800cfa0:	4b03      	ldr	r3, [pc, #12]	; (800cfb0 <_scheduler_init+0x10>)
 800cfa2:	2200      	movs	r2, #0
 800cfa4:	e9c3 3300 	strd	r3, r3, [r3]
 800cfa8:	e9c3 3304 	strd	r3, r3, [r3, #16]
 800cfac:	609a      	str	r2, [r3, #8]
 800cfae:	4770      	bx	lr
 800cfb0:	20000c90 	.word	0x20000c90
	...

0800cfc0 <chSchReadyI>:
 800cfc0:	4601      	mov	r1, r0
 800cfc2:	2200      	movs	r2, #0
 800cfc4:	4b06      	ldr	r3, [pc, #24]	; (800cfe0 <chSchReadyI+0x20>)
 800cfc6:	6880      	ldr	r0, [r0, #8]
 800cfc8:	770a      	strb	r2, [r1, #28]
 800cfca:	681b      	ldr	r3, [r3, #0]
 800cfcc:	689a      	ldr	r2, [r3, #8]
 800cfce:	4282      	cmp	r2, r0
 800cfd0:	d2fb      	bcs.n	800cfca <chSchReadyI+0xa>
 800cfd2:	685a      	ldr	r2, [r3, #4]
 800cfd4:	4608      	mov	r0, r1
 800cfd6:	e9c1 3200 	strd	r3, r2, [r1]
 800cfda:	6011      	str	r1, [r2, #0]
 800cfdc:	6059      	str	r1, [r3, #4]
 800cfde:	4770      	bx	lr
 800cfe0:	20000c90 	.word	0x20000c90
	...

0800cff0 <chSchGoSleepS>:
 800cff0:	4b08      	ldr	r3, [pc, #32]	; (800d014 <chSchGoSleepS+0x24>)
 800cff2:	6999      	ldr	r1, [r3, #24]
 800cff4:	681a      	ldr	r2, [r3, #0]
 800cff6:	b410      	push	{r4}
 800cff8:	7708      	strb	r0, [r1, #28]
 800cffa:	2004      	movs	r0, #4
 800cffc:	77c8      	strb	r0, [r1, #31]
 800cffe:	6810      	ldr	r0, [r2, #0]
 800d000:	6018      	str	r0, [r3, #0]
 800d002:	2401      	movs	r4, #1
 800d004:	6043      	str	r3, [r0, #4]
 800d006:	7714      	strb	r4, [r2, #28]
 800d008:	4610      	mov	r0, r2
 800d00a:	f85d 4b04 	ldr.w	r4, [sp], #4
 800d00e:	619a      	str	r2, [r3, #24]
 800d010:	f7ff b87e 	b.w	800c110 <_port_switch>
 800d014:	20000c90 	.word	0x20000c90
	...

0800d020 <chSchGoSleepTimeoutS>:
 800d020:	b530      	push	{r4, r5, lr}
 800d022:	1c4b      	adds	r3, r1, #1
 800d024:	b087      	sub	sp, #28
 800d026:	d012      	beq.n	800d04e <chSchGoSleepTimeoutS+0x2e>
 800d028:	4c0c      	ldr	r4, [pc, #48]	; (800d05c <chSchGoSleepTimeoutS+0x3c>)
 800d02a:	4a0d      	ldr	r2, [pc, #52]	; (800d060 <chSchGoSleepTimeoutS+0x40>)
 800d02c:	69a3      	ldr	r3, [r4, #24]
 800d02e:	4605      	mov	r5, r0
 800d030:	a801      	add	r0, sp, #4
 800d032:	f7ff ff45 	bl	800cec0 <chVTDoSetI>
 800d036:	4628      	mov	r0, r5
 800d038:	f7ff ffda 	bl	800cff0 <chSchGoSleepS>
 800d03c:	9b04      	ldr	r3, [sp, #16]
 800d03e:	b113      	cbz	r3, 800d046 <chSchGoSleepTimeoutS+0x26>
 800d040:	a801      	add	r0, sp, #4
 800d042:	f7ff ff5d 	bl	800cf00 <chVTDoResetI>
 800d046:	69a3      	ldr	r3, [r4, #24]
 800d048:	6a58      	ldr	r0, [r3, #36]	; 0x24
 800d04a:	b007      	add	sp, #28
 800d04c:	bd30      	pop	{r4, r5, pc}
 800d04e:	4c03      	ldr	r4, [pc, #12]	; (800d05c <chSchGoSleepTimeoutS+0x3c>)
 800d050:	f7ff ffce 	bl	800cff0 <chSchGoSleepS>
 800d054:	69a3      	ldr	r3, [r4, #24]
 800d056:	6a58      	ldr	r0, [r3, #36]	; 0x24
 800d058:	b007      	add	sp, #28
 800d05a:	bd30      	pop	{r4, r5, pc}
 800d05c:	20000c90 	.word	0x20000c90
 800d060:	0800cf31 	.word	0x0800cf31
	...

0800d070 <chSchWakeupS>:
 800d070:	4b14      	ldr	r3, [pc, #80]	; (800d0c4 <chSchWakeupS+0x54>)
 800d072:	b470      	push	{r4, r5, r6}
 800d074:	699e      	ldr	r6, [r3, #24]
 800d076:	6885      	ldr	r5, [r0, #8]
 800d078:	4604      	mov	r4, r0
 800d07a:	68b0      	ldr	r0, [r6, #8]
 800d07c:	6261      	str	r1, [r4, #36]	; 0x24
 800d07e:	4285      	cmp	r5, r0
 800d080:	f04f 0200 	mov.w	r2, #0
 800d084:	d80b      	bhi.n	800d09e <chSchWakeupS+0x2e>
 800d086:	7722      	strb	r2, [r4, #28]
 800d088:	681b      	ldr	r3, [r3, #0]
 800d08a:	689a      	ldr	r2, [r3, #8]
 800d08c:	4295      	cmp	r5, r2
 800d08e:	d9fb      	bls.n	800d088 <chSchWakeupS+0x18>
 800d090:	685a      	ldr	r2, [r3, #4]
 800d092:	e9c4 3200 	strd	r3, r2, [r4]
 800d096:	6014      	str	r4, [r2, #0]
 800d098:	605c      	str	r4, [r3, #4]
 800d09a:	bc70      	pop	{r4, r5, r6}
 800d09c:	4770      	bx	lr
 800d09e:	7732      	strb	r2, [r6, #28]
 800d0a0:	461a      	mov	r2, r3
 800d0a2:	6812      	ldr	r2, [r2, #0]
 800d0a4:	6891      	ldr	r1, [r2, #8]
 800d0a6:	4288      	cmp	r0, r1
 800d0a8:	d9fb      	bls.n	800d0a2 <chSchWakeupS+0x32>
 800d0aa:	6851      	ldr	r1, [r2, #4]
 800d0ac:	6071      	str	r1, [r6, #4]
 800d0ae:	2001      	movs	r0, #1
 800d0b0:	6032      	str	r2, [r6, #0]
 800d0b2:	600e      	str	r6, [r1, #0]
 800d0b4:	6056      	str	r6, [r2, #4]
 800d0b6:	7720      	strb	r0, [r4, #28]
 800d0b8:	4631      	mov	r1, r6
 800d0ba:	4620      	mov	r0, r4
 800d0bc:	619c      	str	r4, [r3, #24]
 800d0be:	bc70      	pop	{r4, r5, r6}
 800d0c0:	f7ff b826 	b.w	800c110 <_port_switch>
 800d0c4:	20000c90 	.word	0x20000c90
	...

0800d0d0 <chSchIsPreemptionRequired>:
 800d0d0:	4a08      	ldr	r2, [pc, #32]	; (800d0f4 <chSchIsPreemptionRequired+0x24>)
 800d0d2:	6993      	ldr	r3, [r2, #24]
 800d0d4:	6811      	ldr	r1, [r2, #0]
 800d0d6:	7fda      	ldrb	r2, [r3, #31]
 800d0d8:	6888      	ldr	r0, [r1, #8]
 800d0da:	689b      	ldr	r3, [r3, #8]
 800d0dc:	b922      	cbnz	r2, 800d0e8 <chSchIsPreemptionRequired+0x18>
 800d0de:	4298      	cmp	r0, r3
 800d0e0:	bf34      	ite	cc
 800d0e2:	2000      	movcc	r0, #0
 800d0e4:	2001      	movcs	r0, #1
 800d0e6:	4770      	bx	lr
 800d0e8:	4298      	cmp	r0, r3
 800d0ea:	bf94      	ite	ls
 800d0ec:	2000      	movls	r0, #0
 800d0ee:	2001      	movhi	r0, #1
 800d0f0:	4770      	bx	lr
 800d0f2:	bf00      	nop
 800d0f4:	20000c90 	.word	0x20000c90
	...

0800d100 <chSchDoRescheduleBehind>:
 800d100:	4b0d      	ldr	r3, [pc, #52]	; (800d138 <chSchDoRescheduleBehind+0x38>)
 800d102:	6818      	ldr	r0, [r3, #0]
 800d104:	b470      	push	{r4, r5, r6}
 800d106:	6802      	ldr	r2, [r0, #0]
 800d108:	699c      	ldr	r4, [r3, #24]
 800d10a:	601a      	str	r2, [r3, #0]
 800d10c:	68a1      	ldr	r1, [r4, #8]
 800d10e:	6053      	str	r3, [r2, #4]
 800d110:	2601      	movs	r6, #1
 800d112:	2504      	movs	r5, #4
 800d114:	2200      	movs	r2, #0
 800d116:	7706      	strb	r6, [r0, #28]
 800d118:	6198      	str	r0, [r3, #24]
 800d11a:	77e5      	strb	r5, [r4, #31]
 800d11c:	7722      	strb	r2, [r4, #28]
 800d11e:	681b      	ldr	r3, [r3, #0]
 800d120:	689a      	ldr	r2, [r3, #8]
 800d122:	4291      	cmp	r1, r2
 800d124:	d9fb      	bls.n	800d11e <chSchDoRescheduleBehind+0x1e>
 800d126:	685a      	ldr	r2, [r3, #4]
 800d128:	4621      	mov	r1, r4
 800d12a:	e9c4 3200 	strd	r3, r2, [r4]
 800d12e:	6014      	str	r4, [r2, #0]
 800d130:	605c      	str	r4, [r3, #4]
 800d132:	bc70      	pop	{r4, r5, r6}
 800d134:	f7fe bfec 	b.w	800c110 <_port_switch>
 800d138:	20000c90 	.word	0x20000c90
 800d13c:	00000000 	.word	0x00000000

0800d140 <chSchDoRescheduleAhead>:
 800d140:	4b0c      	ldr	r3, [pc, #48]	; (800d174 <chSchDoRescheduleAhead+0x34>)
 800d142:	6818      	ldr	r0, [r3, #0]
 800d144:	b430      	push	{r4, r5}
 800d146:	6802      	ldr	r2, [r0, #0]
 800d148:	699c      	ldr	r4, [r3, #24]
 800d14a:	601a      	str	r2, [r3, #0]
 800d14c:	68a1      	ldr	r1, [r4, #8]
 800d14e:	6053      	str	r3, [r2, #4]
 800d150:	2501      	movs	r5, #1
 800d152:	2200      	movs	r2, #0
 800d154:	7705      	strb	r5, [r0, #28]
 800d156:	6198      	str	r0, [r3, #24]
 800d158:	7722      	strb	r2, [r4, #28]
 800d15a:	681b      	ldr	r3, [r3, #0]
 800d15c:	689a      	ldr	r2, [r3, #8]
 800d15e:	4291      	cmp	r1, r2
 800d160:	d3fb      	bcc.n	800d15a <chSchDoRescheduleAhead+0x1a>
 800d162:	685a      	ldr	r2, [r3, #4]
 800d164:	4621      	mov	r1, r4
 800d166:	e9c4 3200 	strd	r3, r2, [r4]
 800d16a:	6014      	str	r4, [r2, #0]
 800d16c:	605c      	str	r4, [r3, #4]
 800d16e:	bc30      	pop	{r4, r5}
 800d170:	f7fe bfce 	b.w	800c110 <_port_switch>
 800d174:	20000c90 	.word	0x20000c90
	...

0800d180 <chSchRescheduleS>:
 800d180:	4b04      	ldr	r3, [pc, #16]	; (800d194 <chSchRescheduleS+0x14>)
 800d182:	681a      	ldr	r2, [r3, #0]
 800d184:	699b      	ldr	r3, [r3, #24]
 800d186:	6892      	ldr	r2, [r2, #8]
 800d188:	689b      	ldr	r3, [r3, #8]
 800d18a:	429a      	cmp	r2, r3
 800d18c:	d800      	bhi.n	800d190 <chSchRescheduleS+0x10>
 800d18e:	4770      	bx	lr
 800d190:	f7ff bfd6 	b.w	800d140 <chSchDoRescheduleAhead>
 800d194:	20000c90 	.word	0x20000c90
	...

0800d1a0 <chSchDoReschedule>:
 800d1a0:	4b03      	ldr	r3, [pc, #12]	; (800d1b0 <chSchDoReschedule+0x10>)
 800d1a2:	699b      	ldr	r3, [r3, #24]
 800d1a4:	7fdb      	ldrb	r3, [r3, #31]
 800d1a6:	b10b      	cbz	r3, 800d1ac <chSchDoReschedule+0xc>
 800d1a8:	f7ff bfca 	b.w	800d140 <chSchDoRescheduleAhead>
 800d1ac:	f7ff bfa8 	b.w	800d100 <chSchDoRescheduleBehind>
 800d1b0:	20000c90 	.word	0x20000c90
	...

0800d1c0 <_thread_init>:
 800d1c0:	b470      	push	{r4, r5, r6}
 800d1c2:	4c0e      	ldr	r4, [pc, #56]	; (800d1fc <_thread_init+0x3c>)
 800d1c4:	6401      	str	r1, [r0, #64]	; 0x40
 800d1c6:	2204      	movs	r2, #4
 800d1c8:	6965      	ldr	r5, [r4, #20]
 800d1ca:	77c2      	strb	r2, [r0, #31]
 800d1cc:	6081      	str	r1, [r0, #8]
 800d1ce:	2200      	movs	r2, #0
 800d1d0:	2101      	movs	r1, #1
 800d1d2:	2602      	movs	r6, #2
 800d1d4:	7781      	strb	r1, [r0, #30]
 800d1d6:	e9c0 220e 	strd	r2, r2, [r0, #56]	; 0x38
 800d1da:	6202      	str	r2, [r0, #32]
 800d1dc:	6182      	str	r2, [r0, #24]
 800d1de:	f100 0128 	add.w	r1, r0, #40	; 0x28
 800d1e2:	f100 022c 	add.w	r2, r0, #44	; 0x2c
 800d1e6:	6145      	str	r5, [r0, #20]
 800d1e8:	6104      	str	r4, [r0, #16]
 800d1ea:	8386      	strh	r6, [r0, #28]
 800d1ec:	6128      	str	r0, [r5, #16]
 800d1ee:	6160      	str	r0, [r4, #20]
 800d1f0:	e9c0 120a 	strd	r1, r2, [r0, #40]	; 0x28
 800d1f4:	6302      	str	r2, [r0, #48]	; 0x30
 800d1f6:	bc70      	pop	{r4, r5, r6}
 800d1f8:	4770      	bx	lr
 800d1fa:	bf00      	nop
 800d1fc:	20000c90 	.word	0x20000c90

0800d200 <chThdCreateI>:
 800d200:	b4f0      	push	{r4, r5, r6, r7}
 800d202:	4e12      	ldr	r6, [pc, #72]	; (800d24c <chThdCreateI+0x4c>)
 800d204:	9d04      	ldr	r5, [sp, #16]
 800d206:	6977      	ldr	r7, [r6, #20]
 800d208:	3964      	subs	r1, #100	; 0x64
 800d20a:	4401      	add	r1, r0
 800d20c:	60c1      	str	r1, [r0, #12]
 800d20e:	e9c1 3510 	strd	r3, r5, [r1, #64]	; 0x40
 800d212:	4b0f      	ldr	r3, [pc, #60]	; (800d250 <chThdCreateI+0x50>)
 800d214:	660b      	str	r3, [r1, #96]	; 0x60
 800d216:	6082      	str	r2, [r0, #8]
 800d218:	2102      	movs	r1, #2
 800d21a:	2304      	movs	r3, #4
 800d21c:	6402      	str	r2, [r0, #64]	; 0x40
 800d21e:	2201      	movs	r2, #1
 800d220:	8381      	strh	r1, [r0, #28]
 800d222:	77c3      	strb	r3, [r0, #31]
 800d224:	7782      	strb	r2, [r0, #30]
 800d226:	2300      	movs	r3, #0
 800d228:	f100 0128 	add.w	r1, r0, #40	; 0x28
 800d22c:	f100 022c 	add.w	r2, r0, #44	; 0x2c
 800d230:	e9c0 6704 	strd	r6, r7, [r0, #16]
 800d234:	e9c0 330e 	strd	r3, r3, [r0, #56]	; 0x38
 800d238:	6203      	str	r3, [r0, #32]
 800d23a:	6183      	str	r3, [r0, #24]
 800d23c:	6138      	str	r0, [r7, #16]
 800d23e:	6170      	str	r0, [r6, #20]
 800d240:	6281      	str	r1, [r0, #40]	; 0x28
 800d242:	e9c0 220b 	strd	r2, r2, [r0, #44]	; 0x2c
 800d246:	bcf0      	pop	{r4, r5, r6, r7}
 800d248:	4770      	bx	lr
 800d24a:	bf00      	nop
 800d24c:	20000c90 	.word	0x20000c90
 800d250:	0800c129 	.word	0x0800c129
	...

0800d260 <chThdCreateStatic>:
 800d260:	b5f8      	push	{r3, r4, r5, r6, r7, lr}
 800d262:	461d      	mov	r5, r3
 800d264:	4604      	mov	r4, r0
 800d266:	2320      	movs	r3, #32
 800d268:	f383 8811 	msr	BASEPRI, r3
 800d26c:	3964      	subs	r1, #100	; 0x64
 800d26e:	4401      	add	r1, r0
 800d270:	4e13      	ldr	r6, [pc, #76]	; (800d2c0 <chThdCreateStatic+0x60>)
 800d272:	4b14      	ldr	r3, [pc, #80]	; (800d2c4 <chThdCreateStatic+0x64>)
 800d274:	6977      	ldr	r7, [r6, #20]
 800d276:	60c1      	str	r1, [r0, #12]
 800d278:	640d      	str	r5, [r1, #64]	; 0x40
 800d27a:	9d06      	ldr	r5, [sp, #24]
 800d27c:	644d      	str	r5, [r1, #68]	; 0x44
 800d27e:	660b      	str	r3, [r1, #96]	; 0x60
 800d280:	2502      	movs	r5, #2
 800d282:	2304      	movs	r3, #4
 800d284:	6082      	str	r2, [r0, #8]
 800d286:	6402      	str	r2, [r0, #64]	; 0x40
 800d288:	8385      	strh	r5, [r0, #28]
 800d28a:	77c3      	strb	r3, [r0, #31]
 800d28c:	2500      	movs	r5, #0
 800d28e:	f100 032c 	add.w	r3, r0, #44	; 0x2c
 800d292:	f100 0228 	add.w	r2, r0, #40	; 0x28
 800d296:	2101      	movs	r1, #1
 800d298:	7781      	strb	r1, [r0, #30]
 800d29a:	e9c0 6704 	strd	r6, r7, [r0, #16]
 800d29e:	e9c0 550e 	strd	r5, r5, [r0, #56]	; 0x38
 800d2a2:	6205      	str	r5, [r0, #32]
 800d2a4:	6185      	str	r5, [r0, #24]
 800d2a6:	4629      	mov	r1, r5
 800d2a8:	6138      	str	r0, [r7, #16]
 800d2aa:	e9c0 230a 	strd	r2, r3, [r0, #40]	; 0x28
 800d2ae:	6303      	str	r3, [r0, #48]	; 0x30
 800d2b0:	6170      	str	r0, [r6, #20]
 800d2b2:	f7ff fedd 	bl	800d070 <chSchWakeupS>
 800d2b6:	f385 8811 	msr	BASEPRI, r5
 800d2ba:	4620      	mov	r0, r4
 800d2bc:	bdf8      	pop	{r3, r4, r5, r6, r7, pc}
 800d2be:	bf00      	nop
 800d2c0:	20000c90 	.word	0x20000c90
 800d2c4:	0800c129 	.word	0x0800c129
	...

0800d2d0 <chThdSleep>:
 800d2d0:	b508      	push	{r3, lr}
 800d2d2:	4601      	mov	r1, r0
 800d2d4:	2320      	movs	r3, #32
 800d2d6:	f383 8811 	msr	BASEPRI, r3
 800d2da:	2008      	movs	r0, #8
 800d2dc:	f7ff fea0 	bl	800d020 <chSchGoSleepTimeoutS>
 800d2e0:	2300      	movs	r3, #0
 800d2e2:	f383 8811 	msr	BASEPRI, r3
 800d2e6:	bd08      	pop	{r3, pc}
	...

0800d2f0 <chThdExitS>:
 800d2f0:	b538      	push	{r3, r4, r5, lr}
 800d2f2:	4b0e      	ldr	r3, [pc, #56]	; (800d32c <chThdExitS+0x3c>)
 800d2f4:	699c      	ldr	r4, [r3, #24]
 800d2f6:	6aa3      	ldr	r3, [r4, #40]	; 0x28
 800d2f8:	6260      	str	r0, [r4, #36]	; 0x24
 800d2fa:	f104 0528 	add.w	r5, r4, #40	; 0x28
 800d2fe:	42ab      	cmp	r3, r5
 800d300:	d007      	beq.n	800d312 <chThdExitS+0x22>
 800d302:	681a      	ldr	r2, [r3, #0]
 800d304:	62a2      	str	r2, [r4, #40]	; 0x28
 800d306:	4618      	mov	r0, r3
 800d308:	f7ff fe5a 	bl	800cfc0 <chSchReadyI>
 800d30c:	6aa3      	ldr	r3, [r4, #40]	; 0x28
 800d30e:	42ab      	cmp	r3, r5
 800d310:	d1f7      	bne.n	800d302 <chThdExitS+0x12>
 800d312:	7f63      	ldrb	r3, [r4, #29]
 800d314:	079b      	lsls	r3, r3, #30
 800d316:	d104      	bne.n	800d322 <chThdExitS+0x32>
 800d318:	e9d4 2304 	ldrd	r2, r3, [r4, #16]
 800d31c:	611a      	str	r2, [r3, #16]
 800d31e:	6922      	ldr	r2, [r4, #16]
 800d320:	6153      	str	r3, [r2, #20]
 800d322:	200f      	movs	r0, #15
 800d324:	e8bd 4038 	ldmia.w	sp!, {r3, r4, r5, lr}
 800d328:	f7ff be62 	b.w	800cff0 <chSchGoSleepS>
 800d32c:	20000c90 	.word	0x20000c90

0800d330 <chThdExit>:
 800d330:	2320      	movs	r3, #32
 800d332:	f383 8811 	msr	BASEPRI, r3
 800d336:	f7ff bfdb 	b.w	800d2f0 <chThdExitS>
 800d33a:	bf00      	nop
 800d33c:	0000      	movs	r0, r0
	...

0800d340 <chThdSuspendS>:
 800d340:	b510      	push	{r4, lr}
 800d342:	4c05      	ldr	r4, [pc, #20]	; (800d358 <chThdSuspendS+0x18>)
 800d344:	69a3      	ldr	r3, [r4, #24]
 800d346:	6003      	str	r3, [r0, #0]
 800d348:	4602      	mov	r2, r0
 800d34a:	625a      	str	r2, [r3, #36]	; 0x24
 800d34c:	2003      	movs	r0, #3
 800d34e:	f7ff fe4f 	bl	800cff0 <chSchGoSleepS>
 800d352:	69a3      	ldr	r3, [r4, #24]
 800d354:	6a58      	ldr	r0, [r3, #36]	; 0x24
 800d356:	bd10      	pop	{r4, pc}
 800d358:	20000c90 	.word	0x20000c90
 800d35c:	00000000 	.word	0x00000000

0800d360 <chThdSuspendTimeoutS>:
 800d360:	4b05      	ldr	r3, [pc, #20]	; (800d378 <chThdSuspendTimeoutS+0x18>)
 800d362:	4602      	mov	r2, r0
 800d364:	699b      	ldr	r3, [r3, #24]
 800d366:	b121      	cbz	r1, 800d372 <chThdSuspendTimeoutS+0x12>
 800d368:	6003      	str	r3, [r0, #0]
 800d36a:	2003      	movs	r0, #3
 800d36c:	625a      	str	r2, [r3, #36]	; 0x24
 800d36e:	f7ff be57 	b.w	800d020 <chSchGoSleepTimeoutS>
 800d372:	f04f 30ff 	mov.w	r0, #4294967295
 800d376:	4770      	bx	lr
 800d378:	20000c90 	.word	0x20000c90
 800d37c:	00000000 	.word	0x00000000

0800d380 <chThdResumeI>:
 800d380:	6803      	ldr	r3, [r0, #0]
 800d382:	b12b      	cbz	r3, 800d390 <chThdResumeI+0x10>
 800d384:	2200      	movs	r2, #0
 800d386:	6002      	str	r2, [r0, #0]
 800d388:	4618      	mov	r0, r3
 800d38a:	6259      	str	r1, [r3, #36]	; 0x24
 800d38c:	f7ff be18 	b.w	800cfc0 <chSchReadyI>
 800d390:	4770      	bx	lr
 800d392:	bf00      	nop
	...

0800d3a0 <chThdEnqueueTimeoutS>:
 800d3a0:	b169      	cbz	r1, 800d3be <chThdEnqueueTimeoutS+0x1e>
 800d3a2:	4b08      	ldr	r3, [pc, #32]	; (800d3c4 <chThdEnqueueTimeoutS+0x24>)
 800d3a4:	b410      	push	{r4}
 800d3a6:	4602      	mov	r2, r0
 800d3a8:	6844      	ldr	r4, [r0, #4]
 800d3aa:	699b      	ldr	r3, [r3, #24]
 800d3ac:	2004      	movs	r0, #4
 800d3ae:	e9c3 2400 	strd	r2, r4, [r3]
 800d3b2:	6023      	str	r3, [r4, #0]
 800d3b4:	6053      	str	r3, [r2, #4]
 800d3b6:	f85d 4b04 	ldr.w	r4, [sp], #4
 800d3ba:	f7ff be31 	b.w	800d020 <chSchGoSleepTimeoutS>
 800d3be:	f04f 30ff 	mov.w	r0, #4294967295
 800d3c2:	4770      	bx	lr
 800d3c4:	20000c90 	.word	0x20000c90
	...

0800d3d0 <chThdDequeueAllI>:
 800d3d0:	b538      	push	{r3, r4, r5, lr}
 800d3d2:	6803      	ldr	r3, [r0, #0]
 800d3d4:	4298      	cmp	r0, r3
 800d3d6:	d00b      	beq.n	800d3f0 <chThdDequeueAllI+0x20>
 800d3d8:	4604      	mov	r4, r0
 800d3da:	460d      	mov	r5, r1
 800d3dc:	681a      	ldr	r2, [r3, #0]
 800d3de:	6022      	str	r2, [r4, #0]
 800d3e0:	4618      	mov	r0, r3
 800d3e2:	6054      	str	r4, [r2, #4]
 800d3e4:	625d      	str	r5, [r3, #36]	; 0x24
 800d3e6:	f7ff fdeb 	bl	800cfc0 <chSchReadyI>
 800d3ea:	6823      	ldr	r3, [r4, #0]
 800d3ec:	429c      	cmp	r4, r3
 800d3ee:	d1f5      	bne.n	800d3dc <chThdDequeueAllI+0xc>
 800d3f0:	bd38      	pop	{r3, r4, r5, pc}
 800d3f2:	bf00      	nop
	...

0800d400 <chTMStartMeasurementX>:
 800d400:	4b01      	ldr	r3, [pc, #4]	; (800d408 <chTMStartMeasurementX+0x8>)
 800d402:	685b      	ldr	r3, [r3, #4]
 800d404:	6083      	str	r3, [r0, #8]
 800d406:	4770      	bx	lr
 800d408:	e0001000 	.word	0xe0001000
 800d40c:	00000000 	.word	0x00000000

0800d410 <chTMStopMeasurementX>:
 800d410:	4b0f      	ldr	r3, [pc, #60]	; (800d450 <chTMStopMeasurementX+0x40>)
 800d412:	4a10      	ldr	r2, [pc, #64]	; (800d454 <chTMStopMeasurementX+0x44>)
 800d414:	685b      	ldr	r3, [r3, #4]
 800d416:	68c1      	ldr	r1, [r0, #12]
 800d418:	b4f0      	push	{r4, r5, r6, r7}
 800d41a:	6884      	ldr	r4, [r0, #8]
 800d41c:	6f96      	ldr	r6, [r2, #120]	; 0x78
 800d41e:	6842      	ldr	r2, [r0, #4]
 800d420:	1b1b      	subs	r3, r3, r4
 800d422:	e9d0 4504 	ldrd	r4, r5, [r0, #16]
 800d426:	1b9b      	subs	r3, r3, r6
 800d428:	18e6      	adds	r6, r4, r3
 800d42a:	f145 0700 	adc.w	r7, r5, #0
 800d42e:	3101      	adds	r1, #1
 800d430:	4293      	cmp	r3, r2
 800d432:	e9c0 3102 	strd	r3, r1, [r0, #8]
 800d436:	e9c0 6704 	strd	r6, r7, [r0, #16]
 800d43a:	d805      	bhi.n	800d448 <chTMStopMeasurementX+0x38>
 800d43c:	6802      	ldr	r2, [r0, #0]
 800d43e:	4293      	cmp	r3, r2
 800d440:	bf38      	it	cc
 800d442:	6003      	strcc	r3, [r0, #0]
 800d444:	bcf0      	pop	{r4, r5, r6, r7}
 800d446:	4770      	bx	lr
 800d448:	6043      	str	r3, [r0, #4]
 800d44a:	bcf0      	pop	{r4, r5, r6, r7}
 800d44c:	4770      	bx	lr
 800d44e:	bf00      	nop
 800d450:	e0001000 	.word	0xe0001000
 800d454:	20000c90 	.word	0x20000c90
	...

0800d460 <_tm_init>:
 800d460:	b510      	push	{r4, lr}
 800d462:	4c0c      	ldr	r4, [pc, #48]	; (800d494 <_tm_init+0x34>)
 800d464:	b086      	sub	sp, #24
 800d466:	2300      	movs	r3, #0
 800d468:	f04f 31ff 	mov.w	r1, #4294967295
 800d46c:	2200      	movs	r2, #0
 800d46e:	4668      	mov	r0, sp
 800d470:	67a3      	str	r3, [r4, #120]	; 0x78
 800d472:	e9cd 3301 	strd	r3, r3, [sp, #4]
 800d476:	9303      	str	r3, [sp, #12]
 800d478:	2300      	movs	r3, #0
 800d47a:	e9cd 2304 	strd	r2, r3, [sp, #16]
 800d47e:	9100      	str	r1, [sp, #0]
 800d480:	f7ff ffbe 	bl	800d400 <chTMStartMeasurementX>
 800d484:	4668      	mov	r0, sp
 800d486:	f7ff ffc3 	bl	800d410 <chTMStopMeasurementX>
 800d48a:	9b02      	ldr	r3, [sp, #8]
 800d48c:	67a3      	str	r3, [r4, #120]	; 0x78
 800d48e:	b006      	add	sp, #24
 800d490:	bd10      	pop	{r4, pc}
 800d492:	bf00      	nop
 800d494:	20000c90 	.word	0x20000c90
	...

0800d4a0 <chMtxObjectInit>:
 800d4a0:	2300      	movs	r3, #0
 800d4a2:	e9c0 0000 	strd	r0, r0, [r0]
 800d4a6:	6083      	str	r3, [r0, #8]
 800d4a8:	4770      	bx	lr
 800d4aa:	bf00      	nop
 800d4ac:	0000      	movs	r0, r0
	...

0800d4b0 <chMtxLockS>:
 800d4b0:	b5f8      	push	{r3, r4, r5, r6, r7, lr}
 800d4b2:	4a36      	ldr	r2, [pc, #216]	; (800d58c <chMtxLockS+0xdc>)
 800d4b4:	6883      	ldr	r3, [r0, #8]
 800d4b6:	6995      	ldr	r5, [r2, #24]
 800d4b8:	2b00      	cmp	r3, #0
 800d4ba:	d03f      	beq.n	800d53c <chMtxLockS+0x8c>
 800d4bc:	68a9      	ldr	r1, [r5, #8]
 800d4be:	689a      	ldr	r2, [r3, #8]
 800d4c0:	4291      	cmp	r1, r2
 800d4c2:	4604      	mov	r4, r0
 800d4c4:	d906      	bls.n	800d4d4 <chMtxLockS+0x24>
 800d4c6:	7f1a      	ldrb	r2, [r3, #28]
 800d4c8:	6099      	str	r1, [r3, #8]
 800d4ca:	2a06      	cmp	r2, #6
 800d4cc:	d03b      	beq.n	800d546 <chMtxLockS+0x96>
 800d4ce:	2a07      	cmp	r2, #7
 800d4d0:	d015      	beq.n	800d4fe <chMtxLockS+0x4e>
 800d4d2:	b342      	cbz	r2, 800d526 <chMtxLockS+0x76>
 800d4d4:	4626      	mov	r6, r4
 800d4d6:	4623      	mov	r3, r4
 800d4d8:	e003      	b.n	800d4e2 <chMtxLockS+0x32>
 800d4da:	6899      	ldr	r1, [r3, #8]
 800d4dc:	68aa      	ldr	r2, [r5, #8]
 800d4de:	4291      	cmp	r1, r2
 800d4e0:	d32a      	bcc.n	800d538 <chMtxLockS+0x88>
 800d4e2:	681b      	ldr	r3, [r3, #0]
 800d4e4:	429c      	cmp	r4, r3
 800d4e6:	d1f8      	bne.n	800d4da <chMtxLockS+0x2a>
 800d4e8:	6873      	ldr	r3, [r6, #4]
 800d4ea:	2006      	movs	r0, #6
 800d4ec:	e9c5 6300 	strd	r6, r3, [r5]
 800d4f0:	601d      	str	r5, [r3, #0]
 800d4f2:	6075      	str	r5, [r6, #4]
 800d4f4:	626c      	str	r4, [r5, #36]	; 0x24
 800d4f6:	e8bd 40f8 	ldmia.w	sp!, {r3, r4, r5, r6, r7, lr}
 800d4fa:	f7ff bd79 	b.w	800cff0 <chSchGoSleepS>
 800d4fe:	e9d3 0200 	ldrd	r0, r2, [r3]
 800d502:	6010      	str	r0, [r2, #0]
 800d504:	6a5e      	ldr	r6, [r3, #36]	; 0x24
 800d506:	6818      	ldr	r0, [r3, #0]
 800d508:	6042      	str	r2, [r0, #4]
 800d50a:	4632      	mov	r2, r6
 800d50c:	e002      	b.n	800d514 <chMtxLockS+0x64>
 800d50e:	6890      	ldr	r0, [r2, #8]
 800d510:	4288      	cmp	r0, r1
 800d512:	d332      	bcc.n	800d57a <chMtxLockS+0xca>
 800d514:	6812      	ldr	r2, [r2, #0]
 800d516:	4296      	cmp	r6, r2
 800d518:	d1f9      	bne.n	800d50e <chMtxLockS+0x5e>
 800d51a:	6872      	ldr	r2, [r6, #4]
 800d51c:	e9c3 6200 	strd	r6, r2, [r3]
 800d520:	6013      	str	r3, [r2, #0]
 800d522:	6073      	str	r3, [r6, #4]
 800d524:	e7d6      	b.n	800d4d4 <chMtxLockS+0x24>
 800d526:	e9d3 1200 	ldrd	r1, r2, [r3]
 800d52a:	6011      	str	r1, [r2, #0]
 800d52c:	6819      	ldr	r1, [r3, #0]
 800d52e:	4618      	mov	r0, r3
 800d530:	604a      	str	r2, [r1, #4]
 800d532:	f7ff fd45 	bl	800cfc0 <chSchReadyI>
 800d536:	e7cd      	b.n	800d4d4 <chMtxLockS+0x24>
 800d538:	461e      	mov	r6, r3
 800d53a:	e7d5      	b.n	800d4e8 <chMtxLockS+0x38>
 800d53c:	6beb      	ldr	r3, [r5, #60]	; 0x3c
 800d53e:	e9c0 5302 	strd	r5, r3, [r0, #8]
 800d542:	63e8      	str	r0, [r5, #60]	; 0x3c
 800d544:	bdf8      	pop	{r3, r4, r5, r6, r7, pc}
 800d546:	e9d3 0200 	ldrd	r0, r2, [r3]
 800d54a:	6010      	str	r0, [r2, #0]
 800d54c:	6a5e      	ldr	r6, [r3, #36]	; 0x24
 800d54e:	6818      	ldr	r0, [r3, #0]
 800d550:	4637      	mov	r7, r6
 800d552:	6042      	str	r2, [r0, #4]
 800d554:	4632      	mov	r2, r6
 800d556:	e002      	b.n	800d55e <chMtxLockS+0xae>
 800d558:	6890      	ldr	r0, [r2, #8]
 800d55a:	4288      	cmp	r0, r1
 800d55c:	d314      	bcc.n	800d588 <chMtxLockS+0xd8>
 800d55e:	6812      	ldr	r2, [r2, #0]
 800d560:	4296      	cmp	r6, r2
 800d562:	d1f9      	bne.n	800d558 <chMtxLockS+0xa8>
 800d564:	687a      	ldr	r2, [r7, #4]
 800d566:	68a9      	ldr	r1, [r5, #8]
 800d568:	e9c3 7200 	strd	r7, r2, [r3]
 800d56c:	6013      	str	r3, [r2, #0]
 800d56e:	607b      	str	r3, [r7, #4]
 800d570:	68b3      	ldr	r3, [r6, #8]
 800d572:	689a      	ldr	r2, [r3, #8]
 800d574:	428a      	cmp	r2, r1
 800d576:	d3a6      	bcc.n	800d4c6 <chMtxLockS+0x16>
 800d578:	e7ac      	b.n	800d4d4 <chMtxLockS+0x24>
 800d57a:	4616      	mov	r6, r2
 800d57c:	6872      	ldr	r2, [r6, #4]
 800d57e:	e9c3 6200 	strd	r6, r2, [r3]
 800d582:	6013      	str	r3, [r2, #0]
 800d584:	6073      	str	r3, [r6, #4]
 800d586:	e7a5      	b.n	800d4d4 <chMtxLockS+0x24>
 800d588:	4617      	mov	r7, r2
 800d58a:	e7eb      	b.n	800d564 <chMtxLockS+0xb4>
 800d58c:	20000c90 	.word	0x20000c90

0800d590 <chMtxLock>:
 800d590:	b508      	push	{r3, lr}
 800d592:	2320      	movs	r3, #32
 800d594:	f383 8811 	msr	BASEPRI, r3
 800d598:	f7ff ff8a 	bl	800d4b0 <chMtxLockS>
 800d59c:	2300      	movs	r3, #0
 800d59e:	f383 8811 	msr	BASEPRI, r3
 800d5a2:	bd08      	pop	{r3, pc}
	...

0800d5b0 <chMtxUnlock>:
 800d5b0:	4b17      	ldr	r3, [pc, #92]	; (800d610 <chMtxUnlock+0x60>)
 800d5b2:	b570      	push	{r4, r5, r6, lr}
 800d5b4:	699d      	ldr	r5, [r3, #24]
 800d5b6:	2320      	movs	r3, #32
 800d5b8:	f383 8811 	msr	BASEPRI, r3
 800d5bc:	6804      	ldr	r4, [r0, #0]
 800d5be:	68c3      	ldr	r3, [r0, #12]
 800d5c0:	63eb      	str	r3, [r5, #60]	; 0x3c
 800d5c2:	4284      	cmp	r4, r0
 800d5c4:	d01d      	beq.n	800d602 <chMtxUnlock+0x52>
 800d5c6:	6c29      	ldr	r1, [r5, #64]	; 0x40
 800d5c8:	b14b      	cbz	r3, 800d5de <chMtxUnlock+0x2e>
 800d5ca:	681a      	ldr	r2, [r3, #0]
 800d5cc:	4293      	cmp	r3, r2
 800d5ce:	d003      	beq.n	800d5d8 <chMtxUnlock+0x28>
 800d5d0:	6892      	ldr	r2, [r2, #8]
 800d5d2:	4291      	cmp	r1, r2
 800d5d4:	bf38      	it	cc
 800d5d6:	4611      	movcc	r1, r2
 800d5d8:	68db      	ldr	r3, [r3, #12]
 800d5da:	2b00      	cmp	r3, #0
 800d5dc:	d1f5      	bne.n	800d5ca <chMtxUnlock+0x1a>
 800d5de:	4603      	mov	r3, r0
 800d5e0:	6822      	ldr	r2, [r4, #0]
 800d5e2:	6be6      	ldr	r6, [r4, #60]	; 0x3c
 800d5e4:	60a9      	str	r1, [r5, #8]
 800d5e6:	4620      	mov	r0, r4
 800d5e8:	601a      	str	r2, [r3, #0]
 800d5ea:	6053      	str	r3, [r2, #4]
 800d5ec:	e9c3 4602 	strd	r4, r6, [r3, #8]
 800d5f0:	63e3      	str	r3, [r4, #60]	; 0x3c
 800d5f2:	f7ff fce5 	bl	800cfc0 <chSchReadyI>
 800d5f6:	f7ff fdc3 	bl	800d180 <chSchRescheduleS>
 800d5fa:	2300      	movs	r3, #0
 800d5fc:	f383 8811 	msr	BASEPRI, r3
 800d600:	bd70      	pop	{r4, r5, r6, pc}
 800d602:	2300      	movs	r3, #0
 800d604:	60a3      	str	r3, [r4, #8]
 800d606:	2300      	movs	r3, #0
 800d608:	f383 8811 	msr	BASEPRI, r3
 800d60c:	bd70      	pop	{r4, r5, r6, pc}
 800d60e:	bf00      	nop
 800d610:	20000c90 	.word	0x20000c90
	...

0800d620 <chEvtRegisterMaskWithFlags>:
 800d620:	b430      	push	{r4, r5}
 800d622:	2420      	movs	r4, #32
 800d624:	f384 8811 	msr	BASEPRI, r4
 800d628:	4d06      	ldr	r5, [pc, #24]	; (800d644 <chEvtRegisterMaskWithFlags+0x24>)
 800d62a:	6804      	ldr	r4, [r0, #0]
 800d62c:	69ad      	ldr	r5, [r5, #24]
 800d62e:	600c      	str	r4, [r1, #0]
 800d630:	2400      	movs	r4, #0
 800d632:	6001      	str	r1, [r0, #0]
 800d634:	e9c1 5201 	strd	r5, r2, [r1, #4]
 800d638:	e9c1 4303 	strd	r4, r3, [r1, #12]
 800d63c:	f384 8811 	msr	BASEPRI, r4
 800d640:	bc30      	pop	{r4, r5}
 800d642:	4770      	bx	lr
 800d644:	20000c90 	.word	0x20000c90
	...

0800d650 <chEvtUnregister>:
 800d650:	2320      	movs	r3, #32
 800d652:	f383 8811 	msr	BASEPRI, r3
 800d656:	4602      	mov	r2, r0
 800d658:	e002      	b.n	800d660 <chEvtUnregister+0x10>
 800d65a:	428b      	cmp	r3, r1
 800d65c:	d007      	beq.n	800d66e <chEvtUnregister+0x1e>
 800d65e:	461a      	mov	r2, r3
 800d660:	6813      	ldr	r3, [r2, #0]
 800d662:	4283      	cmp	r3, r0
 800d664:	d1f9      	bne.n	800d65a <chEvtUnregister+0xa>
 800d666:	2300      	movs	r3, #0
 800d668:	f383 8811 	msr	BASEPRI, r3
 800d66c:	4770      	bx	lr
 800d66e:	680b      	ldr	r3, [r1, #0]
 800d670:	6013      	str	r3, [r2, #0]
 800d672:	2300      	movs	r3, #0
 800d674:	f383 8811 	msr	BASEPRI, r3
 800d678:	4770      	bx	lr
 800d67a:	bf00      	nop
 800d67c:	0000      	movs	r0, r0
	...

0800d680 <chEvtSignalI>:
 800d680:	6b83      	ldr	r3, [r0, #56]	; 0x38
 800d682:	7f02      	ldrb	r2, [r0, #28]
 800d684:	4319      	orrs	r1, r3
 800d686:	2a0a      	cmp	r2, #10
 800d688:	6381      	str	r1, [r0, #56]	; 0x38
 800d68a:	d009      	beq.n	800d6a0 <chEvtSignalI+0x20>
 800d68c:	2a0b      	cmp	r2, #11
 800d68e:	d000      	beq.n	800d692 <chEvtSignalI+0x12>
 800d690:	4770      	bx	lr
 800d692:	6a43      	ldr	r3, [r0, #36]	; 0x24
 800d694:	438b      	bics	r3, r1
 800d696:	d1fb      	bne.n	800d690 <chEvtSignalI+0x10>
 800d698:	2300      	movs	r3, #0
 800d69a:	6243      	str	r3, [r0, #36]	; 0x24
 800d69c:	f7ff bc90 	b.w	800cfc0 <chSchReadyI>
 800d6a0:	6a43      	ldr	r3, [r0, #36]	; 0x24
 800d6a2:	4219      	tst	r1, r3
 800d6a4:	d1f8      	bne.n	800d698 <chEvtSignalI+0x18>
 800d6a6:	4770      	bx	lr
	...

0800d6b0 <chEvtBroadcastFlagsI>:
 800d6b0:	b570      	push	{r4, r5, r6, lr}
 800d6b2:	6804      	ldr	r4, [r0, #0]
 800d6b4:	42a0      	cmp	r0, r4
 800d6b6:	d00f      	beq.n	800d6d8 <chEvtBroadcastFlagsI+0x28>
 800d6b8:	4606      	mov	r6, r0
 800d6ba:	460d      	mov	r5, r1
 800d6bc:	68e3      	ldr	r3, [r4, #12]
 800d6be:	432b      	orrs	r3, r5
 800d6c0:	60e3      	str	r3, [r4, #12]
 800d6c2:	b115      	cbz	r5, 800d6ca <chEvtBroadcastFlagsI+0x1a>
 800d6c4:	6922      	ldr	r2, [r4, #16]
 800d6c6:	4213      	tst	r3, r2
 800d6c8:	d003      	beq.n	800d6d2 <chEvtBroadcastFlagsI+0x22>
 800d6ca:	e9d4 0101 	ldrd	r0, r1, [r4, #4]
 800d6ce:	f7ff ffd7 	bl	800d680 <chEvtSignalI>
 800d6d2:	6824      	ldr	r4, [r4, #0]
 800d6d4:	42a6      	cmp	r6, r4
 800d6d6:	d1f1      	bne.n	800d6bc <chEvtBroadcastFlagsI+0xc>
 800d6d8:	bd70      	pop	{r4, r5, r6, pc}
 800d6da:	bf00      	nop
 800d6dc:	0000      	movs	r0, r0
	...

0800d6e0 <chEvtSignal>:
 800d6e0:	b508      	push	{r3, lr}
 800d6e2:	2320      	movs	r3, #32
 800d6e4:	f383 8811 	msr	BASEPRI, r3
 800d6e8:	f7ff ffca 	bl	800d680 <chEvtSignalI>
 800d6ec:	f7ff fd48 	bl	800d180 <chSchRescheduleS>
 800d6f0:	2300      	movs	r3, #0
 800d6f2:	f383 8811 	msr	BASEPRI, r3
 800d6f6:	bd08      	pop	{r3, pc}
	...

0800d700 <chEvtWaitAny>:
 800d700:	b538      	push	{r3, r4, r5, lr}
 800d702:	4b0c      	ldr	r3, [pc, #48]	; (800d734 <chEvtWaitAny+0x34>)
 800d704:	699d      	ldr	r5, [r3, #24]
 800d706:	2320      	movs	r3, #32
 800d708:	f383 8811 	msr	BASEPRI, r3
 800d70c:	6bab      	ldr	r3, [r5, #56]	; 0x38
 800d70e:	ea13 0400 	ands.w	r4, r3, r0
 800d712:	d106      	bne.n	800d722 <chEvtWaitAny+0x22>
 800d714:	4604      	mov	r4, r0
 800d716:	6268      	str	r0, [r5, #36]	; 0x24
 800d718:	200a      	movs	r0, #10
 800d71a:	f7ff fc69 	bl	800cff0 <chSchGoSleepS>
 800d71e:	6bab      	ldr	r3, [r5, #56]	; 0x38
 800d720:	401c      	ands	r4, r3
 800d722:	ea23 0304 	bic.w	r3, r3, r4
 800d726:	63ab      	str	r3, [r5, #56]	; 0x38
 800d728:	2300      	movs	r3, #0
 800d72a:	f383 8811 	msr	BASEPRI, r3
 800d72e:	4620      	mov	r0, r4
 800d730:	bd38      	pop	{r3, r4, r5, pc}
 800d732:	bf00      	nop
 800d734:	20000c90 	.word	0x20000c90
	...

0800d740 <chEvtWaitAnyTimeout>:
 800d740:	4b10      	ldr	r3, [pc, #64]	; (800d784 <chEvtWaitAnyTimeout+0x44>)
 800d742:	b570      	push	{r4, r5, r6, lr}
 800d744:	699e      	ldr	r6, [r3, #24]
 800d746:	2320      	movs	r3, #32
 800d748:	f383 8811 	msr	BASEPRI, r3
 800d74c:	6bb3      	ldr	r3, [r6, #56]	; 0x38
 800d74e:	ea13 0500 	ands.w	r5, r3, r0
 800d752:	d10e      	bne.n	800d772 <chEvtWaitAnyTimeout+0x32>
 800d754:	b919      	cbnz	r1, 800d75e <chEvtWaitAnyTimeout+0x1e>
 800d756:	f385 8811 	msr	BASEPRI, r5
 800d75a:	4628      	mov	r0, r5
 800d75c:	bd70      	pop	{r4, r5, r6, pc}
 800d75e:	6270      	str	r0, [r6, #36]	; 0x24
 800d760:	4604      	mov	r4, r0
 800d762:	200a      	movs	r0, #10
 800d764:	f7ff fc5c 	bl	800d020 <chSchGoSleepTimeoutS>
 800d768:	2800      	cmp	r0, #0
 800d76a:	dbf4      	blt.n	800d756 <chEvtWaitAnyTimeout+0x16>
 800d76c:	6bb3      	ldr	r3, [r6, #56]	; 0x38
 800d76e:	ea03 0504 	and.w	r5, r3, r4
 800d772:	ea23 0305 	bic.w	r3, r3, r5
 800d776:	63b3      	str	r3, [r6, #56]	; 0x38
 800d778:	2300      	movs	r3, #0
 800d77a:	f383 8811 	msr	BASEPRI, r3
 800d77e:	4628      	mov	r0, r5
 800d780:	bd70      	pop	{r4, r5, r6, pc}
 800d782:	bf00      	nop
 800d784:	20000c90 	.word	0x20000c90
	...

0800d790 <chIQObjectInit>:
 800d790:	b430      	push	{r4, r5}
 800d792:	9c02      	ldr	r4, [sp, #8]
 800d794:	6204      	str	r4, [r0, #32]
 800d796:	2500      	movs	r5, #0
 800d798:	440a      	add	r2, r1
 800d79a:	6085      	str	r5, [r0, #8]
 800d79c:	6102      	str	r2, [r0, #16]
 800d79e:	e9c0 0000 	strd	r0, r0, [r0]
 800d7a2:	60c1      	str	r1, [r0, #12]
 800d7a4:	e9c0 1105 	strd	r1, r1, [r0, #20]
 800d7a8:	61c3      	str	r3, [r0, #28]
 800d7aa:	bc30      	pop	{r4, r5}
 800d7ac:	4770      	bx	lr
 800d7ae:	bf00      	nop

0800d7b0 <chIQResetI>:
 800d7b0:	68c2      	ldr	r2, [r0, #12]
 800d7b2:	2100      	movs	r1, #0
 800d7b4:	6081      	str	r1, [r0, #8]
 800d7b6:	e9c0 2205 	strd	r2, r2, [r0, #20]
 800d7ba:	f06f 0101 	mvn.w	r1, #1
 800d7be:	f7ff be07 	b.w	800d3d0 <chThdDequeueAllI>
 800d7c2:	bf00      	nop
	...

0800d7d0 <chIQGetTimeout>:
 800d7d0:	b570      	push	{r4, r5, r6, lr}
 800d7d2:	2320      	movs	r3, #32
 800d7d4:	460e      	mov	r6, r1
 800d7d6:	4604      	mov	r4, r0
 800d7d8:	f383 8811 	msr	BASEPRI, r3
 800d7dc:	69c3      	ldr	r3, [r0, #28]
 800d7de:	b12b      	cbz	r3, 800d7ec <chIQGetTimeout+0x1c>
 800d7e0:	4798      	blx	r3
 800d7e2:	e003      	b.n	800d7ec <chIQGetTimeout+0x1c>
 800d7e4:	f7ff fddc 	bl	800d3a0 <chThdEnqueueTimeoutS>
 800d7e8:	2800      	cmp	r0, #0
 800d7ea:	db15      	blt.n	800d818 <chIQGetTimeout+0x48>
 800d7ec:	68a5      	ldr	r5, [r4, #8]
 800d7ee:	4631      	mov	r1, r6
 800d7f0:	4620      	mov	r0, r4
 800d7f2:	2d00      	cmp	r5, #0
 800d7f4:	d0f6      	beq.n	800d7e4 <chIQGetTimeout+0x14>
 800d7f6:	69a1      	ldr	r1, [r4, #24]
 800d7f8:	68a3      	ldr	r3, [r4, #8]
 800d7fa:	6925      	ldr	r5, [r4, #16]
 800d7fc:	1c4a      	adds	r2, r1, #1
 800d7fe:	3b01      	subs	r3, #1
 800d800:	42aa      	cmp	r2, r5
 800d802:	60a3      	str	r3, [r4, #8]
 800d804:	61a2      	str	r2, [r4, #24]
 800d806:	bf28      	it	cs
 800d808:	68e3      	ldrcs	r3, [r4, #12]
 800d80a:	7808      	ldrb	r0, [r1, #0]
 800d80c:	bf28      	it	cs
 800d80e:	61a3      	strcs	r3, [r4, #24]
 800d810:	2300      	movs	r3, #0
 800d812:	f383 8811 	msr	BASEPRI, r3
 800d816:	bd70      	pop	{r4, r5, r6, pc}
 800d818:	f385 8811 	msr	BASEPRI, r5
 800d81c:	bd70      	pop	{r4, r5, r6, pc}
 800d81e:	bf00      	nop

0800d820 <chIQReadTimeout>:
 800d820:	e92d 4ff0 	stmdb	sp!, {r4, r5, r6, r7, r8, r9, sl, fp, lr}
 800d824:	4604      	mov	r4, r0
 800d826:	b083      	sub	sp, #12
 800d828:	4689      	mov	r9, r1
 800d82a:	4693      	mov	fp, r2
 800d82c:	461d      	mov	r5, r3
 800d82e:	f8d0 801c 	ldr.w	r8, [r0, #28]
 800d832:	2720      	movs	r7, #32
 800d834:	f387 8811 	msr	BASEPRI, r7
 800d838:	2600      	movs	r6, #0
 800d83a:	9701      	str	r7, [sp, #4]
 800d83c:	46b2      	mov	sl, r6
 800d83e:	f1b8 0f00 	cmp.w	r8, #0
 800d842:	d005      	beq.n	800d850 <chIQReadTimeout+0x30>
 800d844:	4620      	mov	r0, r4
 800d846:	47c0      	blx	r8
 800d848:	e002      	b.n	800d850 <chIQReadTimeout+0x30>
 800d84a:	f7ff fda9 	bl	800d3a0 <chThdEnqueueTimeoutS>
 800d84e:	b9e0      	cbnz	r0, 800d88a <chIQReadTimeout+0x6a>
 800d850:	68a7      	ldr	r7, [r4, #8]
 800d852:	4629      	mov	r1, r5
 800d854:	4620      	mov	r0, r4
 800d856:	2f00      	cmp	r7, #0
 800d858:	d0f7      	beq.n	800d84a <chIQReadTimeout+0x2a>
 800d85a:	69a2      	ldr	r2, [r4, #24]
 800d85c:	68a3      	ldr	r3, [r4, #8]
 800d85e:	1c51      	adds	r1, r2, #1
 800d860:	3b01      	subs	r3, #1
 800d862:	61a1      	str	r1, [r4, #24]
 800d864:	60a3      	str	r3, [r4, #8]
 800d866:	7813      	ldrb	r3, [r2, #0]
 800d868:	f809 3b01 	strb.w	r3, [r9], #1
 800d86c:	6923      	ldr	r3, [r4, #16]
 800d86e:	69a2      	ldr	r2, [r4, #24]
 800d870:	429a      	cmp	r2, r3
 800d872:	bf24      	itt	cs
 800d874:	68e3      	ldrcs	r3, [r4, #12]
 800d876:	61a3      	strcs	r3, [r4, #24]
 800d878:	f38a 8811 	msr	BASEPRI, sl
 800d87c:	3601      	adds	r6, #1
 800d87e:	45b3      	cmp	fp, r6
 800d880:	d005      	beq.n	800d88e <chIQReadTimeout+0x6e>
 800d882:	9b01      	ldr	r3, [sp, #4]
 800d884:	f383 8811 	msr	BASEPRI, r3
 800d888:	e7d9      	b.n	800d83e <chIQReadTimeout+0x1e>
 800d88a:	f387 8811 	msr	BASEPRI, r7
 800d88e:	4630      	mov	r0, r6
 800d890:	b003      	add	sp, #12
 800d892:	e8bd 8ff0 	ldmia.w	sp!, {r4, r5, r6, r7, r8, r9, sl, fp, pc}
 800d896:	bf00      	nop
	...

0800d8a0 <chOQObjectInit>:
 800d8a0:	b430      	push	{r4, r5}
 800d8a2:	9c02      	ldr	r4, [sp, #8]
 800d8a4:	6082      	str	r2, [r0, #8]
 800d8a6:	188d      	adds	r5, r1, r2
 800d8a8:	e9c0 1503 	strd	r1, r5, [r0, #12]
 800d8ac:	e9c0 3407 	strd	r3, r4, [r0, #28]
 800d8b0:	e9c0 0000 	strd	r0, r0, [r0]
 800d8b4:	e9c0 1105 	strd	r1, r1, [r0, #20]
 800d8b8:	bc30      	pop	{r4, r5}
 800d8ba:	4770      	bx	lr
 800d8bc:	0000      	movs	r0, r0
	...

0800d8c0 <chOQResetI>:
 800d8c0:	b410      	push	{r4}
 800d8c2:	e9d0 4203 	ldrd	r4, r2, [r0, #12]
 800d8c6:	1b12      	subs	r2, r2, r4
 800d8c8:	6184      	str	r4, [r0, #24]
 800d8ca:	6144      	str	r4, [r0, #20]
 800d8cc:	f06f 0101 	mvn.w	r1, #1
 800d8d0:	6082      	str	r2, [r0, #8]
 800d8d2:	f85d 4b04 	ldr.w	r4, [sp], #4
 800d8d6:	f7ff bd7b 	b.w	800d3d0 <chThdDequeueAllI>
 800d8da:	bf00      	nop
 800d8dc:	0000      	movs	r0, r0
	...

0800d8e0 <chOQPutTimeout>:
 800d8e0:	b5f8      	push	{r3, r4, r5, r6, r7, lr}
 800d8e2:	4604      	mov	r4, r0
 800d8e4:	460f      	mov	r7, r1
 800d8e6:	4616      	mov	r6, r2
 800d8e8:	2320      	movs	r3, #32
 800d8ea:	f383 8811 	msr	BASEPRI, r3
 800d8ee:	e003      	b.n	800d8f8 <chOQPutTimeout+0x18>
 800d8f0:	f7ff fd56 	bl	800d3a0 <chThdEnqueueTimeoutS>
 800d8f4:	2800      	cmp	r0, #0
 800d8f6:	db18      	blt.n	800d92a <chOQPutTimeout+0x4a>
 800d8f8:	68a5      	ldr	r5, [r4, #8]
 800d8fa:	4631      	mov	r1, r6
 800d8fc:	4620      	mov	r0, r4
 800d8fe:	2d00      	cmp	r5, #0
 800d900:	d0f6      	beq.n	800d8f0 <chOQPutTimeout+0x10>
 800d902:	6962      	ldr	r2, [r4, #20]
 800d904:	68a3      	ldr	r3, [r4, #8]
 800d906:	1c51      	adds	r1, r2, #1
 800d908:	3b01      	subs	r3, #1
 800d90a:	6161      	str	r1, [r4, #20]
 800d90c:	60a3      	str	r3, [r4, #8]
 800d90e:	7017      	strb	r7, [r2, #0]
 800d910:	e9d4 3204 	ldrd	r3, r2, [r4, #16]
 800d914:	429a      	cmp	r2, r3
 800d916:	bf24      	itt	cs
 800d918:	68e3      	ldrcs	r3, [r4, #12]
 800d91a:	6163      	strcs	r3, [r4, #20]
 800d91c:	69e3      	ldr	r3, [r4, #28]
 800d91e:	b103      	cbz	r3, 800d922 <chOQPutTimeout+0x42>
 800d920:	4798      	blx	r3
 800d922:	2000      	movs	r0, #0
 800d924:	f380 8811 	msr	BASEPRI, r0
 800d928:	bdf8      	pop	{r3, r4, r5, r6, r7, pc}
 800d92a:	f385 8811 	msr	BASEPRI, r5
 800d92e:	bdf8      	pop	{r3, r4, r5, r6, r7, pc}

0800d930 <chOQWriteTimeout>:
 800d930:	e92d 4ff0 	stmdb	sp!, {r4, r5, r6, r7, r8, r9, sl, fp, lr}
 800d934:	b083      	sub	sp, #12
 800d936:	4604      	mov	r4, r0
 800d938:	460d      	mov	r5, r1
 800d93a:	4616      	mov	r6, r2
 800d93c:	9301      	str	r3, [sp, #4]
 800d93e:	f8d0 801c 	ldr.w	r8, [r0, #28]
 800d942:	f04f 0920 	mov.w	r9, #32
 800d946:	f389 8811 	msr	BASEPRI, r9
 800d94a:	2700      	movs	r7, #0
 800d94c:	46ba      	mov	sl, r7
 800d94e:	68a3      	ldr	r3, [r4, #8]
 800d950:	f105 0b01 	add.w	fp, r5, #1
 800d954:	4620      	mov	r0, r4
 800d956:	b303      	cbz	r3, 800d99a <chOQWriteTimeout+0x6a>
 800d958:	6961      	ldr	r1, [r4, #20]
 800d95a:	68a3      	ldr	r3, [r4, #8]
 800d95c:	1c4a      	adds	r2, r1, #1
 800d95e:	3b01      	subs	r3, #1
 800d960:	6162      	str	r2, [r4, #20]
 800d962:	60a3      	str	r3, [r4, #8]
 800d964:	782b      	ldrb	r3, [r5, #0]
 800d966:	700b      	strb	r3, [r1, #0]
 800d968:	e9d4 3104 	ldrd	r3, r1, [r4, #16]
 800d96c:	4299      	cmp	r1, r3
 800d96e:	bf24      	itt	cs
 800d970:	68e3      	ldrcs	r3, [r4, #12]
 800d972:	6163      	strcs	r3, [r4, #20]
 800d974:	f1b8 0f00 	cmp.w	r8, #0
 800d978:	d000      	beq.n	800d97c <chOQWriteTimeout+0x4c>
 800d97a:	47c0      	blx	r8
 800d97c:	f38a 8811 	msr	BASEPRI, sl
 800d980:	3e01      	subs	r6, #1
 800d982:	f107 0701 	add.w	r7, r7, #1
 800d986:	d012      	beq.n	800d9ae <chOQWriteTimeout+0x7e>
 800d988:	f389 8811 	msr	BASEPRI, r9
 800d98c:	68a3      	ldr	r3, [r4, #8]
 800d98e:	465d      	mov	r5, fp
 800d990:	f105 0b01 	add.w	fp, r5, #1
 800d994:	4620      	mov	r0, r4
 800d996:	2b00      	cmp	r3, #0
 800d998:	d1de      	bne.n	800d958 <chOQWriteTimeout+0x28>
 800d99a:	9901      	ldr	r1, [sp, #4]
 800d99c:	9300      	str	r3, [sp, #0]
 800d99e:	4620      	mov	r0, r4
 800d9a0:	f7ff fcfe 	bl	800d3a0 <chThdEnqueueTimeoutS>
 800d9a4:	9b00      	ldr	r3, [sp, #0]
 800d9a6:	2800      	cmp	r0, #0
 800d9a8:	d0d1      	beq.n	800d94e <chOQWriteTimeout+0x1e>
 800d9aa:	f383 8811 	msr	BASEPRI, r3
 800d9ae:	4638      	mov	r0, r7
 800d9b0:	b003      	add	sp, #12
 800d9b2:	e8bd 8ff0 	ldmia.w	sp!, {r4, r5, r6, r7, r8, r9, sl, fp, pc}
 800d9b6:	bf00      	nop
	...

0800d9c0 <_core_init>:
 800d9c0:	4a05      	ldr	r2, [pc, #20]	; (800d9d8 <_core_init+0x18>)
 800d9c2:	4b06      	ldr	r3, [pc, #24]	; (800d9dc <_core_init+0x1c>)
 800d9c4:	4806      	ldr	r0, [pc, #24]	; (800d9e0 <_core_init+0x20>)
 800d9c6:	4907      	ldr	r1, [pc, #28]	; (800d9e4 <_core_init+0x24>)
 800d9c8:	f022 0207 	bic.w	r2, r2, #7
 800d9cc:	f023 0307 	bic.w	r3, r3, #7
 800d9d0:	6002      	str	r2, [r0, #0]
 800d9d2:	600b      	str	r3, [r1, #0]
 800d9d4:	4770      	bx	lr
 800d9d6:	bf00      	nop
 800d9d8:	2000aedf 	.word	0x2000aedf
 800d9dc:	20020000 	.word	0x20020000
 800d9e0:	20000eec 	.word	0x20000eec
 800d9e4:	20000ee8 	.word	0x20000ee8
	...

0800d9f0 <chCoreAlloc>:
 800d9f0:	4603      	mov	r3, r0
 800d9f2:	2220      	movs	r2, #32
 800d9f4:	f382 8811 	msr	BASEPRI, r2
 800d9f8:	4908      	ldr	r1, [pc, #32]	; (800da1c <chCoreAlloc+0x2c>)
 800d9fa:	4a09      	ldr	r2, [pc, #36]	; (800da20 <chCoreAlloc+0x30>)
 800d9fc:	6808      	ldr	r0, [r1, #0]
 800d9fe:	6812      	ldr	r2, [r2, #0]
 800da00:	3307      	adds	r3, #7
 800da02:	f023 0307 	bic.w	r3, r3, #7
 800da06:	1a12      	subs	r2, r2, r0
 800da08:	4293      	cmp	r3, r2
 800da0a:	bf9a      	itte	ls
 800da0c:	181b      	addls	r3, r3, r0
 800da0e:	600b      	strls	r3, [r1, #0]
 800da10:	2000      	movhi	r0, #0
 800da12:	2300      	movs	r3, #0
 800da14:	f383 8811 	msr	BASEPRI, r3
 800da18:	4770      	bx	lr
 800da1a:	bf00      	nop
 800da1c:	20000eec 	.word	0x20000eec
 800da20:	20000ee8 	.word	0x20000ee8
	...

0800da30 <_heap_init>:
 800da30:	4b04      	ldr	r3, [pc, #16]	; (800da44 <_heap_init+0x14>)
 800da32:	4a05      	ldr	r2, [pc, #20]	; (800da48 <_heap_init+0x18>)
 800da34:	601a      	str	r2, [r3, #0]
 800da36:	f103 0010 	add.w	r0, r3, #16
 800da3a:	2200      	movs	r2, #0
 800da3c:	e9c3 2202 	strd	r2, r2, [r3, #8]
 800da40:	f7ff bd2e 	b.w	800d4a0 <chMtxObjectInit>
 800da44:	20000ef0 	.word	0x20000ef0
 800da48:	0800d9f1 	.word	0x0800d9f1
 800da4c:	00000000 	.word	0x00000000

0800da50 <SVC_Handler>:
 800da50:	b480      	push	{r7}
 800da52:	4a09      	ldr	r2, [pc, #36]	; (800da78 <SVC_Handler+0x28>)
 800da54:	6853      	ldr	r3, [r2, #4]
 800da56:	f023 0301 	bic.w	r3, r3, #1
 800da5a:	af00      	add	r7, sp, #0
 800da5c:	6053      	str	r3, [r2, #4]
 800da5e:	f3ef 8309 	mrs	r3, PSP
 800da62:	3368      	adds	r3, #104	; 0x68
 800da64:	f383 8809 	msr	PSP, r3
 800da68:	2300      	movs	r3, #0
 800da6a:	f383 8811 	msr	BASEPRI, r3
 800da6e:	46bd      	mov	sp, r7
 800da70:	f85d 7b04 	ldr.w	r7, [sp], #4
 800da74:	4770      	bx	lr
 800da76:	bf00      	nop
 800da78:	e000ef30 	.word	0xe000ef30
 800da7c:	00000000 	.word	0x00000000

0800da80 <_port_irq_epilogue>:
 800da80:	b598      	push	{r3, r4, r7, lr}
 800da82:	2320      	movs	r3, #32
 800da84:	af00      	add	r7, sp, #0
 800da86:	f383 8811 	msr	BASEPRI, r3
 800da8a:	4b11      	ldr	r3, [pc, #68]	; (800dad0 <_port_irq_epilogue+0x50>)
 800da8c:	685b      	ldr	r3, [r3, #4]
 800da8e:	f413 6300 	ands.w	r3, r3, #2048	; 0x800
 800da92:	d102      	bne.n	800da9a <_port_irq_epilogue+0x1a>
 800da94:	f383 8811 	msr	BASEPRI, r3
 800da98:	bd98      	pop	{r3, r4, r7, pc}
 800da9a:	eef1 3a10 	vmrs	r3, fpscr
 800da9e:	f3ef 8409 	mrs	r4, PSP
 800daa2:	4b0c      	ldr	r3, [pc, #48]	; (800dad4 <_port_irq_epilogue+0x54>)
 800daa4:	f04f 7280 	mov.w	r2, #16777216	; 0x1000000
 800daa8:	68db      	ldr	r3, [r3, #12]
 800daaa:	f844 3c08 	str.w	r3, [r4, #-8]
 800daae:	f844 2c4c 	str.w	r2, [r4, #-76]
 800dab2:	f1a4 0368 	sub.w	r3, r4, #104	; 0x68
 800dab6:	f383 8809 	msr	PSP, r3
 800daba:	f7ff fb09 	bl	800d0d0 <chSchIsPreemptionRequired>
 800dabe:	b118      	cbz	r0, 800dac8 <_port_irq_epilogue+0x48>
 800dac0:	4b05      	ldr	r3, [pc, #20]	; (800dad8 <_port_irq_epilogue+0x58>)
 800dac2:	f844 3c50 	str.w	r3, [r4, #-80]
 800dac6:	bd98      	pop	{r3, r4, r7, pc}
 800dac8:	4b04      	ldr	r3, [pc, #16]	; (800dadc <_port_irq_epilogue+0x5c>)
 800daca:	f844 3c50 	str.w	r3, [r4, #-80]
 800dace:	bd98      	pop	{r3, r4, r7, pc}
 800dad0:	e000ed00 	.word	0xe000ed00
 800dad4:	e000ef30 	.word	0xe000ef30
 800dad8:	0800c139 	.word	0x0800c139
 800dadc:	0800c13c 	.word	0x0800c13c

0800dae0 <halInit>:
 800dae0:	b508      	push	{r3, lr}
 800dae2:	f001 f895 	bl	800ec10 <hal_lld_init>
 800dae6:	480b      	ldr	r0, [pc, #44]	; (800db14 <halInit+0x34>)
 800dae8:	f001 fb52 	bl	800f190 <_pal_lld_init>
 800daec:	f000 f818 	bl	800db20 <canInit>
 800daf0:	f000 f876 	bl	800dbe0 <i2cInit>
 800daf4:	f000 f8ec 	bl	800dcd0 <icuInit>
 800daf8:	f000 fae2 	bl	800e0c0 <spiInit>
 800dafc:	f000 faf8 	bl	800e0f0 <uartInit>
 800db00:	f000 fb16 	bl	800e130 <usbInit>
 800db04:	f000 f9cc 	bl	800dea0 <sduInit>
 800db08:	f003 f842 	bl	8010b90 <boardInit>
 800db0c:	e8bd 4008 	ldmia.w	sp!, {r3, lr}
 800db10:	f000 bae6 	b.w	800e0e0 <stInit>
 800db14:	08016c20 	.word	0x08016c20
	...

0800db20 <canInit>:
 800db20:	f001 ba6e 	b.w	800f000 <can_lld_init>
	...

0800db30 <canObjectInit>:
 800db30:	b430      	push	{r4, r5}
 800db32:	2100      	movs	r1, #0
 800db34:	2401      	movs	r4, #1
 800db36:	f100 0218 	add.w	r2, r0, #24
 800db3a:	f100 031c 	add.w	r3, r0, #28
 800db3e:	f100 0520 	add.w	r5, r0, #32
 800db42:	7004      	strb	r4, [r0, #0]
 800db44:	6041      	str	r1, [r0, #4]
 800db46:	f100 0424 	add.w	r4, r0, #36	; 0x24
 800db4a:	f100 0128 	add.w	r1, r0, #40	; 0x28
 800db4e:	6182      	str	r2, [r0, #24]
 800db50:	61c3      	str	r3, [r0, #28]
 800db52:	f100 0208 	add.w	r2, r0, #8
 800db56:	f100 0310 	add.w	r3, r0, #16
 800db5a:	e9c0 5408 	strd	r5, r4, [r0, #32]
 800db5e:	6281      	str	r1, [r0, #40]	; 0x28
 800db60:	e9c0 2202 	strd	r2, r2, [r0, #8]
 800db64:	e9c0 3304 	strd	r3, r3, [r0, #16]
 800db68:	bc30      	pop	{r4, r5}
 800db6a:	4770      	bx	lr
 800db6c:	0000      	movs	r0, r0
	...

0800db70 <canStart>:
 800db70:	b510      	push	{r4, lr}
 800db72:	2320      	movs	r3, #32
 800db74:	4604      	mov	r4, r0
 800db76:	f383 8811 	msr	BASEPRI, r3
 800db7a:	2302      	movs	r3, #2
 800db7c:	7003      	strb	r3, [r0, #0]
 800db7e:	6041      	str	r1, [r0, #4]
 800db80:	f001 fa56 	bl	800f030 <can_lld_start>
 800db84:	2303      	movs	r3, #3
 800db86:	7023      	strb	r3, [r4, #0]
 800db88:	2300      	movs	r3, #0
 800db8a:	f383 8811 	msr	BASEPRI, r3
 800db8e:	bd10      	pop	{r4, pc}

0800db90 <canReceive>:
 800db90:	e92d 41f0 	stmdb	sp!, {r4, r5, r6, r7, r8, lr}
 800db94:	461f      	mov	r7, r3
 800db96:	4604      	mov	r4, r0
 800db98:	460d      	mov	r5, r1
 800db9a:	4690      	mov	r8, r2
 800db9c:	2320      	movs	r3, #32
 800db9e:	f383 8811 	msr	BASEPRI, r3
 800dba2:	f100 0610 	add.w	r6, r0, #16
 800dba6:	7823      	ldrb	r3, [r4, #0]
 800dba8:	2b04      	cmp	r3, #4
 800dbaa:	4629      	mov	r1, r5
 800dbac:	4620      	mov	r0, r4
 800dbae:	d002      	beq.n	800dbb6 <canReceive+0x26>
 800dbb0:	f001 fa76 	bl	800f0a0 <can_lld_is_rx_nonempty>
 800dbb4:	b950      	cbnz	r0, 800dbcc <canReceive+0x3c>
 800dbb6:	4639      	mov	r1, r7
 800dbb8:	4630      	mov	r0, r6
 800dbba:	f7ff fbf1 	bl	800d3a0 <chThdEnqueueTimeoutS>
 800dbbe:	2800      	cmp	r0, #0
 800dbc0:	d0f1      	beq.n	800dba6 <canReceive+0x16>
 800dbc2:	2300      	movs	r3, #0
 800dbc4:	f383 8811 	msr	BASEPRI, r3
 800dbc8:	e8bd 81f0 	ldmia.w	sp!, {r4, r5, r6, r7, r8, pc}
 800dbcc:	4620      	mov	r0, r4
 800dbce:	4642      	mov	r2, r8
 800dbd0:	4629      	mov	r1, r5
 800dbd2:	f001 fa85 	bl	800f0e0 <can_lld_receive>
 800dbd6:	2000      	movs	r0, #0
 800dbd8:	f380 8811 	msr	BASEPRI, r0
 800dbdc:	e8bd 81f0 	ldmia.w	sp!, {r4, r5, r6, r7, r8, pc}

0800dbe0 <i2cInit>:
 800dbe0:	f001 bd56 	b.w	800f690 <i2c_lld_init>
	...

0800dbf0 <i2cObjectInit>:
 800dbf0:	2201      	movs	r2, #1
 800dbf2:	2300      	movs	r3, #0
 800dbf4:	7002      	strb	r2, [r0, #0]
 800dbf6:	6043      	str	r3, [r0, #4]
 800dbf8:	300c      	adds	r0, #12
 800dbfa:	f7ff bc51 	b.w	800d4a0 <chMtxObjectInit>
 800dbfe:	bf00      	nop

0800dc00 <i2cStart>:
 800dc00:	b510      	push	{r4, lr}
 800dc02:	2320      	movs	r3, #32
 800dc04:	4604      	mov	r4, r0
 800dc06:	f383 8811 	msr	BASEPRI, r3
 800dc0a:	6041      	str	r1, [r0, #4]
 800dc0c:	f001 fd58 	bl	800f6c0 <i2c_lld_start>
 800dc10:	2302      	movs	r3, #2
 800dc12:	7023      	strb	r3, [r4, #0]
 800dc14:	2300      	movs	r3, #0
 800dc16:	f383 8811 	msr	BASEPRI, r3
 800dc1a:	bd10      	pop	{r4, pc}
 800dc1c:	0000      	movs	r0, r0
	...

0800dc20 <i2cStop>:
 800dc20:	b510      	push	{r4, lr}
 800dc22:	2320      	movs	r3, #32
 800dc24:	4604      	mov	r4, r0
 800dc26:	f383 8811 	msr	BASEPRI, r3
 800dc2a:	f001 fe01 	bl	800f830 <i2c_lld_stop>
 800dc2e:	2301      	movs	r3, #1
 800dc30:	7023      	strb	r3, [r4, #0]
 800dc32:	2300      	movs	r3, #0
 800dc34:	f383 8811 	msr	BASEPRI, r3
 800dc38:	bd10      	pop	{r4, pc}
 800dc3a:	bf00      	nop
 800dc3c:	0000      	movs	r0, r0
	...

0800dc40 <i2cMasterTransmitTimeout>:
 800dc40:	b5f0      	push	{r4, r5, r6, r7, lr}
 800dc42:	b085      	sub	sp, #20
 800dc44:	4604      	mov	r4, r0
 800dc46:	e9dd 670b 	ldrd	r6, r7, [sp, #44]	; 0x2c
 800dc4a:	f04f 0c20 	mov.w	ip, #32
 800dc4e:	f38c 8811 	msr	BASEPRI, ip
 800dc52:	f04f 0c03 	mov.w	ip, #3
 800dc56:	e9cd 6701 	strd	r6, r7, [sp, #4]
 800dc5a:	2500      	movs	r5, #0
 800dc5c:	9e0a      	ldr	r6, [sp, #40]	; 0x28
 800dc5e:	9600      	str	r6, [sp, #0]
 800dc60:	6085      	str	r5, [r0, #8]
 800dc62:	f880 c000 	strb.w	ip, [r0]
 800dc66:	f001 fe6b 	bl	800f940 <i2c_lld_master_transmit_timeout>
 800dc6a:	1c43      	adds	r3, r0, #1
 800dc6c:	bf0c      	ite	eq
 800dc6e:	2305      	moveq	r3, #5
 800dc70:	2302      	movne	r3, #2
 800dc72:	7023      	strb	r3, [r4, #0]
 800dc74:	2300      	movs	r3, #0
 800dc76:	f383 8811 	msr	BASEPRI, r3
 800dc7a:	b005      	add	sp, #20
 800dc7c:	bdf0      	pop	{r4, r5, r6, r7, pc}
 800dc7e:	bf00      	nop

0800dc80 <i2cMasterReceiveTimeout>:
 800dc80:	b5f0      	push	{r4, r5, r6, r7, lr}
 800dc82:	b083      	sub	sp, #12
 800dc84:	4604      	mov	r4, r0
 800dc86:	9f08      	ldr	r7, [sp, #32]
 800dc88:	2520      	movs	r5, #32
 800dc8a:	f385 8811 	msr	BASEPRI, r5
 800dc8e:	2600      	movs	r6, #0
 800dc90:	2504      	movs	r5, #4
 800dc92:	9700      	str	r7, [sp, #0]
 800dc94:	6086      	str	r6, [r0, #8]
 800dc96:	7005      	strb	r5, [r0, #0]
 800dc98:	f001 fe12 	bl	800f8c0 <i2c_lld_master_receive_timeout>
 800dc9c:	1c43      	adds	r3, r0, #1
 800dc9e:	bf0c      	ite	eq
 800dca0:	2305      	moveq	r3, #5
 800dca2:	2302      	movne	r3, #2
 800dca4:	7023      	strb	r3, [r4, #0]
 800dca6:	2300      	movs	r3, #0
 800dca8:	f383 8811 	msr	BASEPRI, r3
 800dcac:	b003      	add	sp, #12
 800dcae:	bdf0      	pop	{r4, r5, r6, r7, pc}

0800dcb0 <i2cAcquireBus>:
 800dcb0:	300c      	adds	r0, #12
 800dcb2:	f7ff bc6d 	b.w	800d590 <chMtxLock>
 800dcb6:	bf00      	nop
	...

0800dcc0 <i2cReleaseBus>:
 800dcc0:	300c      	adds	r0, #12
 800dcc2:	f7ff bc75 	b.w	800d5b0 <chMtxUnlock>
 800dcc6:	bf00      	nop
	...

0800dcd0 <icuInit>:
 800dcd0:	f002 bcce 	b.w	8010670 <icu_lld_init>
	...

0800dce0 <icuObjectInit>:
 800dce0:	2201      	movs	r2, #1
 800dce2:	2300      	movs	r3, #0
 800dce4:	7002      	strb	r2, [r0, #0]
 800dce6:	6043      	str	r3, [r0, #4]
 800dce8:	4770      	bx	lr
 800dcea:	bf00      	nop
 800dcec:	0000      	movs	r0, r0
	...

0800dcf0 <icuStart>:
 800dcf0:	b510      	push	{r4, lr}
 800dcf2:	2320      	movs	r3, #32
 800dcf4:	4604      	mov	r4, r0
 800dcf6:	f383 8811 	msr	BASEPRI, r3
 800dcfa:	6041      	str	r1, [r0, #4]
 800dcfc:	f002 fcc8 	bl	8010690 <icu_lld_start>
 800dd00:	2302      	movs	r3, #2
 800dd02:	7023      	strb	r3, [r4, #0]
 800dd04:	2300      	movs	r3, #0
 800dd06:	f383 8811 	msr	BASEPRI, r3
 800dd0a:	bd10      	pop	{r4, pc}
 800dd0c:	0000      	movs	r0, r0
	...

0800dd10 <icuStartCapture>:
 800dd10:	b510      	push	{r4, lr}
 800dd12:	2320      	movs	r3, #32
 800dd14:	4604      	mov	r4, r0
 800dd16:	f383 8811 	msr	BASEPRI, r3
 800dd1a:	f002 fd19 	bl	8010750 <icu_lld_start_capture>
 800dd1e:	2303      	movs	r3, #3
 800dd20:	7023      	strb	r3, [r4, #0]
 800dd22:	2300      	movs	r3, #0
 800dd24:	f383 8811 	msr	BASEPRI, r3
 800dd28:	bd10      	pop	{r4, pc}
 800dd2a:	bf00      	nop
 800dd2c:	0000      	movs	r0, r0
	...

0800dd30 <icuEnableNotifications>:
 800dd30:	b508      	push	{r3, lr}
 800dd32:	2320      	movs	r3, #32
 800dd34:	f383 8811 	msr	BASEPRI, r3
 800dd38:	f002 fd1a 	bl	8010770 <icu_lld_enable_notifications>
 800dd3c:	2300      	movs	r3, #0
 800dd3e:	f383 8811 	msr	BASEPRI, r3
 800dd42:	bd08      	pop	{r3, pc}
	...

0800dd50 <onotify>:
 800dd50:	b510      	push	{r4, lr}
 800dd52:	6a04      	ldr	r4, [r0, #32]
 800dd54:	f8d4 2254 	ldr.w	r2, [r4, #596]	; 0x254
 800dd58:	6813      	ldr	r3, [r2, #0]
 800dd5a:	7819      	ldrb	r1, [r3, #0]
 800dd5c:	2904      	cmp	r1, #4
 800dd5e:	d000      	beq.n	800dd62 <onotify+0x12>
 800dd60:	bd10      	pop	{r4, pc}
 800dd62:	7a21      	ldrb	r1, [r4, #8]
 800dd64:	2902      	cmp	r1, #2
 800dd66:	d1fb      	bne.n	800dd60 <onotify+0x10>
 800dd68:	7911      	ldrb	r1, [r2, #4]
 800dd6a:	891a      	ldrh	r2, [r3, #8]
 800dd6c:	2301      	movs	r3, #1
 800dd6e:	408b      	lsls	r3, r1
 800dd70:	401a      	ands	r2, r3
 800dd72:	d1f5      	bne.n	800dd60 <onotify+0x10>
 800dd74:	e9d4 030f 	ldrd	r0, r3, [r4, #60]	; 0x3c
 800dd78:	6ba1      	ldr	r1, [r4, #56]	; 0x38
 800dd7a:	1a1b      	subs	r3, r3, r0
 800dd7c:	1a5b      	subs	r3, r3, r1
 800dd7e:	d0ef      	beq.n	800dd60 <onotify+0x10>
 800dd80:	f382 8811 	msr	BASEPRI, r2
 800dd84:	f8d4 2254 	ldr.w	r2, [r4, #596]	; 0x254
 800dd88:	7911      	ldrb	r1, [r2, #4]
 800dd8a:	6810      	ldr	r0, [r2, #0]
 800dd8c:	f104 0230 	add.w	r2, r4, #48	; 0x30
 800dd90:	f000 fa26 	bl	800e1e0 <usbPrepareQueuedTransmit>
 800dd94:	2320      	movs	r3, #32
 800dd96:	f383 8811 	msr	BASEPRI, r3
 800dd9a:	f8d4 3254 	ldr.w	r3, [r4, #596]	; 0x254
 800dd9e:	e8bd 4010 	ldmia.w	sp!, {r4, lr}
 800dda2:	7919      	ldrb	r1, [r3, #4]
 800dda4:	6818      	ldr	r0, [r3, #0]
 800dda6:	f000 ba43 	b.w	800e230 <usbStartTransmitI>
 800ddaa:	bf00      	nop
 800ddac:	0000      	movs	r0, r0
	...

0800ddb0 <inotify>:
 800ddb0:	b538      	push	{r3, r4, r5, lr}
 800ddb2:	6a04      	ldr	r4, [r0, #32]
 800ddb4:	f8d4 2254 	ldr.w	r2, [r4, #596]	; 0x254
 800ddb8:	6813      	ldr	r3, [r2, #0]
 800ddba:	7819      	ldrb	r1, [r3, #0]
 800ddbc:	2904      	cmp	r1, #4
 800ddbe:	d000      	beq.n	800ddc2 <inotify+0x12>
 800ddc0:	bd38      	pop	{r3, r4, r5, pc}
 800ddc2:	7a21      	ldrb	r1, [r4, #8]
 800ddc4:	2902      	cmp	r1, #2
 800ddc6:	d1fb      	bne.n	800ddc0 <inotify+0x10>
 800ddc8:	7950      	ldrb	r0, [r2, #5]
 800ddca:	8959      	ldrh	r1, [r3, #10]
 800ddcc:	2201      	movs	r2, #1
 800ddce:	4082      	lsls	r2, r0
 800ddd0:	400a      	ands	r2, r1
 800ddd2:	d1f5      	bne.n	800ddc0 <inotify+0x10>
 800ddd4:	eb03 0380 	add.w	r3, r3, r0, lsl #2
 800ddd8:	69a1      	ldr	r1, [r4, #24]
 800ddda:	69e0      	ldr	r0, [r4, #28]
 800dddc:	68db      	ldr	r3, [r3, #12]
 800ddde:	6965      	ldr	r5, [r4, #20]
 800dde0:	8a5b      	ldrh	r3, [r3, #18]
 800dde2:	1a41      	subs	r1, r0, r1
 800dde4:	1b49      	subs	r1, r1, r5
 800dde6:	428b      	cmp	r3, r1
 800dde8:	d8ea      	bhi.n	800ddc0 <inotify+0x10>
 800ddea:	f382 8811 	msr	BASEPRI, r2
 800ddee:	fbb1 f1f3 	udiv	r1, r1, r3
 800ddf2:	f8d4 2254 	ldr.w	r2, [r4, #596]	; 0x254
 800ddf6:	fb03 f301 	mul.w	r3, r3, r1
 800ddfa:	6810      	ldr	r0, [r2, #0]
 800ddfc:	7951      	ldrb	r1, [r2, #5]
 800ddfe:	f104 020c 	add.w	r2, r4, #12
 800de02:	f000 f9dd 	bl	800e1c0 <usbPrepareQueuedReceive>
 800de06:	2320      	movs	r3, #32
 800de08:	f383 8811 	msr	BASEPRI, r3
 800de0c:	f8d4 3254 	ldr.w	r3, [r4, #596]	; 0x254
 800de10:	7959      	ldrb	r1, [r3, #5]
 800de12:	6818      	ldr	r0, [r3, #0]
 800de14:	e8bd 4038 	ldmia.w	sp!, {r3, r4, r5, lr}
 800de18:	f000 b9f2 	b.w	800e200 <usbStartReceiveI>
 800de1c:	0000      	movs	r0, r0
	...

0800de20 <readt>:
 800de20:	300c      	adds	r0, #12
 800de22:	f7ff bcfd 	b.w	800d820 <chIQReadTimeout>
 800de26:	bf00      	nop
	...

0800de30 <read>:
 800de30:	300c      	adds	r0, #12
 800de32:	f04f 33ff 	mov.w	r3, #4294967295
 800de36:	f7ff bcf3 	b.w	800d820 <chIQReadTimeout>
 800de3a:	bf00      	nop
 800de3c:	0000      	movs	r0, r0
	...

0800de40 <writet>:
 800de40:	3030      	adds	r0, #48	; 0x30
 800de42:	f7ff bd75 	b.w	800d930 <chOQWriteTimeout>
 800de46:	bf00      	nop
	...

0800de50 <write>:
 800de50:	3030      	adds	r0, #48	; 0x30
 800de52:	f04f 33ff 	mov.w	r3, #4294967295
 800de56:	f7ff bd6b 	b.w	800d930 <chOQWriteTimeout>
 800de5a:	bf00      	nop
 800de5c:	0000      	movs	r0, r0
	...

0800de60 <gett>:
 800de60:	300c      	adds	r0, #12
 800de62:	f7ff bcb5 	b.w	800d7d0 <chIQGetTimeout>
 800de66:	bf00      	nop
	...

0800de70 <get>:
 800de70:	300c      	adds	r0, #12
 800de72:	f04f 31ff 	mov.w	r1, #4294967295
 800de76:	f7ff bcab 	b.w	800d7d0 <chIQGetTimeout>
 800de7a:	bf00      	nop
 800de7c:	0000      	movs	r0, r0
	...

0800de80 <putt>:
 800de80:	3030      	adds	r0, #48	; 0x30
 800de82:	f7ff bd2d 	b.w	800d8e0 <chOQPutTimeout>
 800de86:	bf00      	nop
	...

0800de90 <put>:
 800de90:	3030      	adds	r0, #48	; 0x30
 800de92:	f04f 32ff 	mov.w	r2, #4294967295
 800de96:	f7ff bd23 	b.w	800d8e0 <chOQPutTimeout>
 800de9a:	bf00      	nop
 800de9c:	0000      	movs	r0, r0
	...

0800dea0 <sduInit>:
 800dea0:	4770      	bx	lr
 800dea2:	bf00      	nop
	...

0800deb0 <sduObjectInit>:
 800deb0:	b510      	push	{r4, lr}
 800deb2:	4603      	mov	r3, r0
 800deb4:	4a0e      	ldr	r2, [pc, #56]	; (800def0 <sduObjectInit+0x40>)
 800deb6:	f843 2b04 	str.w	r2, [r3], #4
 800deba:	b082      	sub	sp, #8
 800debc:	2201      	movs	r2, #1
 800debe:	4604      	mov	r4, r0
 800dec0:	9000      	str	r0, [sp, #0]
 800dec2:	f100 0154 	add.w	r1, r0, #84	; 0x54
 800dec6:	6043      	str	r3, [r0, #4]
 800dec8:	7202      	strb	r2, [r0, #8]
 800deca:	4b0a      	ldr	r3, [pc, #40]	; (800def4 <sduObjectInit+0x44>)
 800decc:	300c      	adds	r0, #12
 800dece:	f44f 7280 	mov.w	r2, #256	; 0x100
 800ded2:	f7ff fc5d 	bl	800d790 <chIQObjectInit>
 800ded6:	9400      	str	r4, [sp, #0]
 800ded8:	f504 71aa 	add.w	r1, r4, #340	; 0x154
 800dedc:	f104 0030 	add.w	r0, r4, #48	; 0x30
 800dee0:	4b05      	ldr	r3, [pc, #20]	; (800def8 <sduObjectInit+0x48>)
 800dee2:	f44f 7280 	mov.w	r2, #256	; 0x100
 800dee6:	f7ff fcdb 	bl	800d8a0 <chOQObjectInit>
 800deea:	b002      	add	sp, #8
 800deec:	bd10      	pop	{r4, pc}
 800deee:	bf00      	nop
 800def0:	08016ab0 	.word	0x08016ab0
 800def4:	0800ddb1 	.word	0x0800ddb1
 800def8:	0800dd51 	.word	0x0800dd51
 800defc:	00000000 	.word	0x00000000

0800df00 <sduStart>:
 800df00:	680b      	ldr	r3, [r1, #0]
 800df02:	2220      	movs	r2, #32
 800df04:	f382 8811 	msr	BASEPRI, r2
 800df08:	790a      	ldrb	r2, [r1, #4]
 800df0a:	eb03 0282 	add.w	r2, r3, r2, lsl #2
 800df0e:	6190      	str	r0, [r2, #24]
 800df10:	794a      	ldrb	r2, [r1, #5]
 800df12:	3209      	adds	r2, #9
 800df14:	f843 0022 	str.w	r0, [r3, r2, lsl #2]
 800df18:	798a      	ldrb	r2, [r1, #6]
 800df1a:	b112      	cbz	r2, 800df22 <sduStart+0x22>
 800df1c:	eb03 0382 	add.w	r3, r3, r2, lsl #2
 800df20:	6198      	str	r0, [r3, #24]
 800df22:	2302      	movs	r3, #2
 800df24:	7203      	strb	r3, [r0, #8]
 800df26:	f8c0 1254 	str.w	r1, [r0, #596]	; 0x254
 800df2a:	2300      	movs	r3, #0
 800df2c:	f383 8811 	msr	BASEPRI, r3
 800df30:	4770      	bx	lr
 800df32:	bf00      	nop
	...

0800df40 <sduConfigureHookI>:
 800df40:	b570      	push	{r4, r5, r6, lr}
 800df42:	f8d0 3254 	ldr.w	r3, [r0, #596]	; 0x254
 800df46:	f100 060c 	add.w	r6, r0, #12
 800df4a:	4604      	mov	r4, r0
 800df4c:	4630      	mov	r0, r6
 800df4e:	681d      	ldr	r5, [r3, #0]
 800df50:	f7ff fc2e 	bl	800d7b0 <chIQResetI>
 800df54:	f104 0030 	add.w	r0, r4, #48	; 0x30
 800df58:	f7ff fcb2 	bl	800d8c0 <chOQResetI>
 800df5c:	1d20      	adds	r0, r4, #4
 800df5e:	2101      	movs	r1, #1
 800df60:	f7ff fba6 	bl	800d6b0 <chEvtBroadcastFlagsI>
 800df64:	f8d4 3254 	ldr.w	r3, [r4, #596]	; 0x254
 800df68:	7959      	ldrb	r1, [r3, #5]
 800df6a:	eb05 0381 	add.w	r3, r5, r1, lsl #2
 800df6e:	4628      	mov	r0, r5
 800df70:	68db      	ldr	r3, [r3, #12]
 800df72:	4632      	mov	r2, r6
 800df74:	8a5b      	ldrh	r3, [r3, #18]
 800df76:	f000 f923 	bl	800e1c0 <usbPrepareQueuedReceive>
 800df7a:	f8d4 3254 	ldr.w	r3, [r4, #596]	; 0x254
 800df7e:	4628      	mov	r0, r5
 800df80:	7959      	ldrb	r1, [r3, #5]
 800df82:	e8bd 4070 	ldmia.w	sp!, {r4, r5, r6, lr}
 800df86:	f000 b93b 	b.w	800e200 <usbStartReceiveI>
 800df8a:	bf00      	nop
 800df8c:	0000      	movs	r0, r0
	...

0800df90 <sduRequestsHook>:
 800df90:	f890 3044 	ldrb.w	r3, [r0, #68]	; 0x44
 800df94:	f003 0360 	and.w	r3, r3, #96	; 0x60
 800df98:	2b20      	cmp	r3, #32
 800df9a:	d001      	beq.n	800dfa0 <sduRequestsHook+0x10>
 800df9c:	2000      	movs	r0, #0
 800df9e:	4770      	bx	lr
 800dfa0:	f890 3045 	ldrb.w	r3, [r0, #69]	; 0x45
 800dfa4:	2b20      	cmp	r3, #32
 800dfa6:	d3f9      	bcc.n	800df9c <sduRequestsHook+0xc>
 800dfa8:	2b21      	cmp	r3, #33	; 0x21
 800dfaa:	d807      	bhi.n	800dfbc <sduRequestsHook+0x2c>
 800dfac:	4b07      	ldr	r3, [pc, #28]	; (800dfcc <sduRequestsHook+0x3c>)
 800dfae:	6383      	str	r3, [r0, #56]	; 0x38
 800dfb0:	2207      	movs	r2, #7
 800dfb2:	2300      	movs	r3, #0
 800dfb4:	e9c0 230f 	strd	r2, r3, [r0, #60]	; 0x3c
 800dfb8:	2001      	movs	r0, #1
 800dfba:	4770      	bx	lr
 800dfbc:	2b22      	cmp	r3, #34	; 0x22
 800dfbe:	d1ed      	bne.n	800df9c <sduRequestsHook+0xc>
 800dfc0:	2300      	movs	r3, #0
 800dfc2:	e9c0 330e 	strd	r3, r3, [r0, #56]	; 0x38
 800dfc6:	6403      	str	r3, [r0, #64]	; 0x40
 800dfc8:	2001      	movs	r0, #1
 800dfca:	4770      	bx	lr
 800dfcc:	20000800 	.word	0x20000800

0800dfd0 <sduDataTransmitted>:
 800dfd0:	b5f8      	push	{r3, r4, r5, r6, r7, lr}
 800dfd2:	eb00 0381 	add.w	r3, r0, r1, lsl #2
 800dfd6:	699c      	ldr	r4, [r3, #24]
 800dfd8:	b34c      	cbz	r4, 800e02e <sduDataTransmitted+0x5e>
 800dfda:	460e      	mov	r6, r1
 800dfdc:	4605      	mov	r5, r0
 800dfde:	2720      	movs	r7, #32
 800dfe0:	f387 8811 	msr	BASEPRI, r7
 800dfe4:	2108      	movs	r1, #8
 800dfe6:	1d20      	adds	r0, r4, #4
 800dfe8:	f7ff fb62 	bl	800d6b0 <chEvtBroadcastFlagsI>
 800dfec:	e9d4 130f 	ldrd	r1, r3, [r4, #60]	; 0x3c
 800dff0:	6ba2      	ldr	r2, [r4, #56]	; 0x38
 800dff2:	1a5b      	subs	r3, r3, r1
 800dff4:	1a9b      	subs	r3, r3, r2
 800dff6:	d11b      	bne.n	800e030 <sduDataTransmitted+0x60>
 800dff8:	eb05 0386 	add.w	r3, r5, r6, lsl #2
 800dffc:	68db      	ldr	r3, [r3, #12]
 800dffe:	695a      	ldr	r2, [r3, #20]
 800e000:	6852      	ldr	r2, [r2, #4]
 800e002:	b18a      	cbz	r2, 800e028 <sduDataTransmitted+0x58>
 800e004:	8a1b      	ldrh	r3, [r3, #16]
 800e006:	3b01      	subs	r3, #1
 800e008:	4013      	ands	r3, r2
 800e00a:	d10d      	bne.n	800e028 <sduDataTransmitted+0x58>
 800e00c:	f383 8811 	msr	BASEPRI, r3
 800e010:	f104 0230 	add.w	r2, r4, #48	; 0x30
 800e014:	4631      	mov	r1, r6
 800e016:	4628      	mov	r0, r5
 800e018:	f000 f8e2 	bl	800e1e0 <usbPrepareQueuedTransmit>
 800e01c:	f387 8811 	msr	BASEPRI, r7
 800e020:	4631      	mov	r1, r6
 800e022:	4628      	mov	r0, r5
 800e024:	f000 f904 	bl	800e230 <usbStartTransmitI>
 800e028:	2300      	movs	r3, #0
 800e02a:	f383 8811 	msr	BASEPRI, r3
 800e02e:	bdf8      	pop	{r3, r4, r5, r6, r7, pc}
 800e030:	2200      	movs	r2, #0
 800e032:	f382 8811 	msr	BASEPRI, r2
 800e036:	e7eb      	b.n	800e010 <sduDataTransmitted+0x40>
	...

0800e040 <sduDataReceived>:
 800e040:	f101 0309 	add.w	r3, r1, #9
 800e044:	e92d 41f0 	stmdb	sp!, {r4, r5, r6, r7, r8, lr}
 800e048:	f850 4023 	ldr.w	r4, [r0, r3, lsl #2]
 800e04c:	b1bc      	cbz	r4, 800e07e <sduDataReceived+0x3e>
 800e04e:	4607      	mov	r7, r0
 800e050:	460e      	mov	r6, r1
 800e052:	f04f 0820 	mov.w	r8, #32
 800e056:	f388 8811 	msr	BASEPRI, r8
 800e05a:	2104      	movs	r1, #4
 800e05c:	1860      	adds	r0, r4, r1
 800e05e:	f7ff fb27 	bl	800d6b0 <chEvtBroadcastFlagsI>
 800e062:	eb07 0386 	add.w	r3, r7, r6, lsl #2
 800e066:	69e5      	ldr	r5, [r4, #28]
 800e068:	68d9      	ldr	r1, [r3, #12]
 800e06a:	69a2      	ldr	r2, [r4, #24]
 800e06c:	6963      	ldr	r3, [r4, #20]
 800e06e:	8a49      	ldrh	r1, [r1, #18]
 800e070:	1aaa      	subs	r2, r5, r2
 800e072:	1ad2      	subs	r2, r2, r3
 800e074:	4291      	cmp	r1, r2
 800e076:	d904      	bls.n	800e082 <sduDataReceived+0x42>
 800e078:	2300      	movs	r3, #0
 800e07a:	f383 8811 	msr	BASEPRI, r3
 800e07e:	e8bd 81f0 	ldmia.w	sp!, {r4, r5, r6, r7, r8, pc}
 800e082:	2300      	movs	r3, #0
 800e084:	f383 8811 	msr	BASEPRI, r3
 800e088:	fbb2 f3f1 	udiv	r3, r2, r1
 800e08c:	4638      	mov	r0, r7
 800e08e:	fb01 f303 	mul.w	r3, r1, r3
 800e092:	f104 020c 	add.w	r2, r4, #12
 800e096:	4631      	mov	r1, r6
 800e098:	f000 f892 	bl	800e1c0 <usbPrepareQueuedReceive>
 800e09c:	f388 8811 	msr	BASEPRI, r8
 800e0a0:	4631      	mov	r1, r6
 800e0a2:	4638      	mov	r0, r7
 800e0a4:	f000 f8ac 	bl	800e200 <usbStartReceiveI>
 800e0a8:	e7e6      	b.n	800e078 <sduDataReceived+0x38>
 800e0aa:	bf00      	nop
 800e0ac:	0000      	movs	r0, r0
	...

0800e0b0 <sduInterruptTransmitted>:
 800e0b0:	4770      	bx	lr
 800e0b2:	bf00      	nop
	...

0800e0c0 <spiInit>:
 800e0c0:	f002 ba5e 	b.w	8010580 <spi_lld_init>
	...

0800e0d0 <spiObjectInit>:
 800e0d0:	2201      	movs	r2, #1
 800e0d2:	2300      	movs	r3, #0
 800e0d4:	7002      	strb	r2, [r0, #0]
 800e0d6:	e9c0 3301 	strd	r3, r3, [r0, #4]
 800e0da:	300c      	adds	r0, #12
 800e0dc:	f7ff b9e0 	b.w	800d4a0 <chMtxObjectInit>

0800e0e0 <stInit>:
 800e0e0:	f002 bb76 	b.w	80107d0 <st_lld_init>
	...

0800e0f0 <uartInit>:
 800e0f0:	f002 bc76 	b.w	80109e0 <uart_lld_init>
	...

0800e100 <uartObjectInit>:
 800e100:	2300      	movs	r3, #0
 800e102:	2201      	movs	r2, #1
 800e104:	7002      	strb	r2, [r0, #0]
 800e106:	7043      	strb	r3, [r0, #1]
 800e108:	7083      	strb	r3, [r0, #2]
 800e10a:	6043      	str	r3, [r0, #4]
 800e10c:	4770      	bx	lr
 800e10e:	bf00      	nop

0800e110 <uartStart>:
 800e110:	b510      	push	{r4, lr}
 800e112:	2320      	movs	r3, #32
 800e114:	4604      	mov	r4, r0
 800e116:	f383 8811 	msr	BASEPRI, r3
 800e11a:	6041      	str	r1, [r0, #4]
 800e11c:	f002 fc88 	bl	8010a30 <uart_lld_start>
 800e120:	2302      	movs	r3, #2
 800e122:	7023      	strb	r3, [r4, #0]
 800e124:	2300      	movs	r3, #0
 800e126:	f383 8811 	msr	BASEPRI, r3
 800e12a:	bd10      	pop	{r4, pc}
 800e12c:	0000      	movs	r0, r0
	...

0800e130 <usbInit>:
 800e130:	f001 be56 	b.w	800fde0 <usb_lld_init>
	...

0800e140 <usbObjectInit>:
 800e140:	2300      	movs	r3, #0
 800e142:	2201      	movs	r2, #1
 800e144:	7002      	strb	r2, [r0, #0]
 800e146:	61c3      	str	r3, [r0, #28]
 800e148:	6283      	str	r3, [r0, #40]	; 0x28
 800e14a:	6203      	str	r3, [r0, #32]
 800e14c:	62c3      	str	r3, [r0, #44]	; 0x2c
 800e14e:	6243      	str	r3, [r0, #36]	; 0x24
 800e150:	6303      	str	r3, [r0, #48]	; 0x30
 800e152:	e9c0 3301 	strd	r3, r3, [r0, #4]
 800e156:	4770      	bx	lr
	...

0800e160 <usbStart>:
 800e160:	b538      	push	{r3, r4, r5, lr}
 800e162:	4604      	mov	r4, r0
 800e164:	2320      	movs	r3, #32
 800e166:	f383 8811 	msr	BASEPRI, r3
 800e16a:	2500      	movs	r5, #0
 800e16c:	6041      	str	r1, [r0, #4]
 800e16e:	e9c0 5503 	strd	r5, r5, [r0, #12]
 800e172:	e9c0 5505 	strd	r5, r5, [r0, #20]
 800e176:	f001 fe4b 	bl	800fe10 <usb_lld_start>
 800e17a:	2302      	movs	r3, #2
 800e17c:	7023      	strb	r3, [r4, #0]
 800e17e:	f385 8811 	msr	BASEPRI, r5
 800e182:	bd38      	pop	{r3, r4, r5, pc}
	...

0800e190 <usbInitEndpointI>:
 800e190:	6953      	ldr	r3, [r2, #20]
 800e192:	b410      	push	{r4}
 800e194:	b12b      	cbz	r3, 800e1a2 <usbInitEndpointI+0x12>
 800e196:	2400      	movs	r4, #0
 800e198:	601c      	str	r4, [r3, #0]
 800e19a:	605c      	str	r4, [r3, #4]
 800e19c:	609c      	str	r4, [r3, #8]
 800e19e:	60dc      	str	r4, [r3, #12]
 800e1a0:	611c      	str	r4, [r3, #16]
 800e1a2:	6993      	ldr	r3, [r2, #24]
 800e1a4:	b12b      	cbz	r3, 800e1b2 <usbInitEndpointI+0x22>
 800e1a6:	2400      	movs	r4, #0
 800e1a8:	601c      	str	r4, [r3, #0]
 800e1aa:	605c      	str	r4, [r3, #4]
 800e1ac:	609c      	str	r4, [r3, #8]
 800e1ae:	60dc      	str	r4, [r3, #12]
 800e1b0:	611c      	str	r4, [r3, #16]
 800e1b2:	eb00 0381 	add.w	r3, r0, r1, lsl #2
 800e1b6:	f85d 4b04 	ldr.w	r4, [sp], #4
 800e1ba:	60da      	str	r2, [r3, #12]
 800e1bc:	f001 bf10 	b.w	800ffe0 <usb_lld_init_endpoint>

0800e1c0 <usbPrepareQueuedReceive>:
 800e1c0:	b430      	push	{r4, r5}
 800e1c2:	eb00 0481 	add.w	r4, r0, r1, lsl #2
 800e1c6:	2501      	movs	r5, #1
 800e1c8:	68e4      	ldr	r4, [r4, #12]
 800e1ca:	69a4      	ldr	r4, [r4, #24]
 800e1cc:	60e2      	str	r2, [r4, #12]
 800e1ce:	2200      	movs	r2, #0
 800e1d0:	6063      	str	r3, [r4, #4]
 800e1d2:	7025      	strb	r5, [r4, #0]
 800e1d4:	60a2      	str	r2, [r4, #8]
 800e1d6:	bc30      	pop	{r4, r5}
 800e1d8:	f001 bfea 	b.w	80101b0 <usb_lld_prepare_receive>
 800e1dc:	0000      	movs	r0, r0
	...

0800e1e0 <usbPrepareQueuedTransmit>:
 800e1e0:	b430      	push	{r4, r5}
 800e1e2:	eb00 0481 	add.w	r4, r0, r1, lsl #2
 800e1e6:	2501      	movs	r5, #1
 800e1e8:	68e4      	ldr	r4, [r4, #12]
 800e1ea:	6964      	ldr	r4, [r4, #20]
 800e1ec:	60e2      	str	r2, [r4, #12]
 800e1ee:	2200      	movs	r2, #0
 800e1f0:	6063      	str	r3, [r4, #4]
 800e1f2:	7025      	strb	r5, [r4, #0]
 800e1f4:	60a2      	str	r2, [r4, #8]
 800e1f6:	bc30      	pop	{r4, r5}
 800e1f8:	f002 b84a 	b.w	8010290 <usb_lld_prepare_transmit>
 800e1fc:	0000      	movs	r0, r0
	...

0800e200 <usbStartReceiveI>:
 800e200:	2201      	movs	r2, #1
 800e202:	b570      	push	{r4, r5, r6, lr}
 800e204:	fa02 f301 	lsl.w	r3, r2, r1
 800e208:	8944      	ldrh	r4, [r0, #10]
 800e20a:	b29b      	uxth	r3, r3
 800e20c:	ea14 0603 	ands.w	r6, r4, r3
 800e210:	d001      	beq.n	800e216 <usbStartReceiveI+0x16>
 800e212:	4610      	mov	r0, r2
 800e214:	bd70      	pop	{r4, r5, r6, pc}
 800e216:	4323      	orrs	r3, r4
 800e218:	8143      	strh	r3, [r0, #10]
 800e21a:	f002 f949 	bl	80104b0 <usb_lld_start_out>
 800e21e:	4630      	mov	r0, r6
 800e220:	bd70      	pop	{r4, r5, r6, pc}
 800e222:	bf00      	nop
	...

0800e230 <usbStartTransmitI>:
 800e230:	2201      	movs	r2, #1
 800e232:	b570      	push	{r4, r5, r6, lr}
 800e234:	fa02 f301 	lsl.w	r3, r2, r1
 800e238:	8904      	ldrh	r4, [r0, #8]
 800e23a:	b29b      	uxth	r3, r3
 800e23c:	ea14 0603 	ands.w	r6, r4, r3
 800e240:	d001      	beq.n	800e246 <usbStartTransmitI+0x16>
 800e242:	4610      	mov	r0, r2
 800e244:	bd70      	pop	{r4, r5, r6, pc}
 800e246:	4323      	orrs	r3, r4
 800e248:	8103      	strh	r3, [r0, #8]
 800e24a:	f002 f941 	bl	80104d0 <usb_lld_start_in>
 800e24e:	4630      	mov	r0, r6
 800e250:	bd70      	pop	{r4, r5, r6, pc}
 800e252:	bf00      	nop
	...

0800e260 <_usb_reset>:
 800e260:	2200      	movs	r2, #0
 800e262:	2102      	movs	r1, #2
 800e264:	7001      	strb	r1, [r0, #0]
 800e266:	64c2      	str	r2, [r0, #76]	; 0x4c
 800e268:	e9c0 2202 	strd	r2, r2, [r0, #8]
 800e26c:	e9c0 2204 	strd	r2, r2, [r0, #16]
 800e270:	6182      	str	r2, [r0, #24]
 800e272:	f880 2034 	strb.w	r2, [r0, #52]	; 0x34
 800e276:	f001 be43 	b.w	800ff00 <usb_lld_reset>
 800e27a:	bf00      	nop
 800e27c:	0000      	movs	r0, r0
	...

0800e280 <_usb_ep0setup>:
 800e280:	b570      	push	{r4, r5, r6, lr}
 800e282:	2300      	movs	r3, #0
 800e284:	4604      	mov	r4, r0
 800e286:	f880 3034 	strb.w	r3, [r0, #52]	; 0x34
 800e28a:	f100 0244 	add.w	r2, r0, #68	; 0x44
 800e28e:	f001 ff7f 	bl	8010190 <usb_lld_read_setup>
 800e292:	6863      	ldr	r3, [r4, #4]
 800e294:	689b      	ldr	r3, [r3, #8]
 800e296:	2b00      	cmp	r3, #0
 800e298:	d033      	beq.n	800e302 <_usb_ep0setup+0x82>
 800e29a:	4620      	mov	r0, r4
 800e29c:	4798      	blx	r3
 800e29e:	b380      	cbz	r0, 800e302 <_usb_ep0setup+0x82>
 800e2a0:	6be1      	ldr	r1, [r4, #60]	; 0x3c
 800e2a2:	f894 3044 	ldrb.w	r3, [r4, #68]	; 0x44
 800e2a6:	f894 004b 	ldrb.w	r0, [r4, #75]	; 0x4b
 800e2aa:	f894 204a 	ldrb.w	r2, [r4, #74]	; 0x4a
 800e2ae:	ea42 2200 	orr.w	r2, r2, r0, lsl #8
 800e2b2:	428a      	cmp	r2, r1
 800e2b4:	bf2c      	ite	cs
 800e2b6:	460a      	movcs	r2, r1
 800e2b8:	63e2      	strcc	r2, [r4, #60]	; 0x3c
 800e2ba:	0618      	lsls	r0, r3, #24
 800e2bc:	68e1      	ldr	r1, [r4, #12]
 800e2be:	f100 8099 	bmi.w	800e3f4 <_usb_ep0setup+0x174>
 800e2c2:	2a00      	cmp	r2, #0
 800e2c4:	d07b      	beq.n	800e3be <_usb_ep0setup+0x13e>
 800e2c6:	698b      	ldr	r3, [r1, #24]
 800e2c8:	6ba0      	ldr	r0, [r4, #56]	; 0x38
 800e2ca:	2100      	movs	r1, #0
 800e2cc:	2504      	movs	r5, #4
 800e2ce:	f884 5034 	strb.w	r5, [r4, #52]	; 0x34
 800e2d2:	60d8      	str	r0, [r3, #12]
 800e2d4:	605a      	str	r2, [r3, #4]
 800e2d6:	7019      	strb	r1, [r3, #0]
 800e2d8:	6099      	str	r1, [r3, #8]
 800e2da:	4620      	mov	r0, r4
 800e2dc:	f001 ff68 	bl	80101b0 <usb_lld_prepare_receive>
 800e2e0:	2320      	movs	r3, #32
 800e2e2:	f383 8811 	msr	BASEPRI, r3
 800e2e6:	8963      	ldrh	r3, [r4, #10]
 800e2e8:	f013 0101 	ands.w	r1, r3, #1
 800e2ec:	d105      	bne.n	800e2fa <_usb_ep0setup+0x7a>
 800e2ee:	f043 0301 	orr.w	r3, r3, #1
 800e2f2:	8163      	strh	r3, [r4, #10]
 800e2f4:	4620      	mov	r0, r4
 800e2f6:	f002 f8db 	bl	80104b0 <usb_lld_start_out>
 800e2fa:	2300      	movs	r3, #0
 800e2fc:	f383 8811 	msr	BASEPRI, r3
 800e300:	bd70      	pop	{r4, r5, r6, pc}
 800e302:	f894 3044 	ldrb.w	r3, [r4, #68]	; 0x44
 800e306:	f013 0560 	ands.w	r5, r3, #96	; 0x60
 800e30a:	4618      	mov	r0, r3
 800e30c:	d011      	beq.n	800e332 <_usb_ep0setup+0xb2>
 800e30e:	2100      	movs	r1, #0
 800e310:	4620      	mov	r0, r4
 800e312:	f002 f905 	bl	8010520 <usb_lld_stall_in>
 800e316:	2100      	movs	r1, #0
 800e318:	4620      	mov	r0, r4
 800e31a:	f002 f8f1 	bl	8010500 <usb_lld_stall_out>
 800e31e:	6863      	ldr	r3, [r4, #4]
 800e320:	681b      	ldr	r3, [r3, #0]
 800e322:	b113      	cbz	r3, 800e32a <_usb_ep0setup+0xaa>
 800e324:	2105      	movs	r1, #5
 800e326:	4620      	mov	r0, r4
 800e328:	4798      	blx	r3
 800e32a:	2306      	movs	r3, #6
 800e32c:	f884 3034 	strb.w	r3, [r4, #52]	; 0x34
 800e330:	bd70      	pop	{r4, r5, r6, pc}
 800e332:	f894 1045 	ldrb.w	r1, [r4, #69]	; 0x45
 800e336:	f003 027f 	and.w	r2, r3, #127	; 0x7f
 800e33a:	ea42 2201 	orr.w	r2, r2, r1, lsl #8
 800e33e:	f5b2 7f40 	cmp.w	r2, #768	; 0x300
 800e342:	f000 8114 	beq.w	800e56e <_usb_ep0setup+0x2ee>
 800e346:	d917      	bls.n	800e378 <_usb_ep0setup+0xf8>
 800e348:	f5b2 6fc0 	cmp.w	r2, #1536	; 0x600
 800e34c:	f000 80f6 	beq.w	800e53c <_usb_ep0setup+0x2bc>
 800e350:	f240 8099 	bls.w	800e486 <_usb_ep0setup+0x206>
 800e354:	f5b2 6f10 	cmp.w	r2, #2304	; 0x900
 800e358:	d073      	beq.n	800e442 <_usb_ep0setup+0x1c2>
 800e35a:	f640 4102 	movw	r1, #3074	; 0xc02
 800e35e:	428a      	cmp	r2, r1
 800e360:	f000 80d2 	beq.w	800e508 <_usb_ep0setup+0x288>
 800e364:	f5b2 6f00 	cmp.w	r2, #2048	; 0x800
 800e368:	d1d1      	bne.n	800e30e <_usb_ep0setup+0x8e>
 800e36a:	f104 024f 	add.w	r2, r4, #79	; 0x4f
 800e36e:	2101      	movs	r1, #1
 800e370:	6425      	str	r5, [r4, #64]	; 0x40
 800e372:	e9c4 210e 	strd	r2, r1, [r4, #56]	; 0x38
 800e376:	e796      	b.n	800e2a6 <_usb_ep0setup+0x26>
 800e378:	2a02      	cmp	r2, #2
 800e37a:	f000 80ab 	beq.w	800e4d4 <_usb_ep0setup+0x254>
 800e37e:	f240 80a1 	bls.w	800e4c4 <_usb_ep0setup+0x244>
 800e382:	f5b2 7f80 	cmp.w	r2, #256	; 0x100
 800e386:	d06f      	beq.n	800e468 <_usb_ep0setup+0x1e8>
 800e388:	f5b2 7f81 	cmp.w	r2, #258	; 0x102
 800e38c:	d1bf      	bne.n	800e30e <_usb_ep0setup+0x8e>
 800e38e:	f894 3046 	ldrb.w	r3, [r4, #70]	; 0x46
 800e392:	2b00      	cmp	r3, #0
 800e394:	d1bb      	bne.n	800e30e <_usb_ep0setup+0x8e>
 800e396:	f894 3048 	ldrb.w	r3, [r4, #72]	; 0x48
 800e39a:	f013 010f 	ands.w	r1, r3, #15
 800e39e:	d007      	beq.n	800e3b0 <_usb_ep0setup+0x130>
 800e3a0:	061e      	lsls	r6, r3, #24
 800e3a2:	4620      	mov	r0, r4
 800e3a4:	f100 80fb 	bmi.w	800e59e <_usb_ep0setup+0x31e>
 800e3a8:	f002 f8ca 	bl	8010540 <usb_lld_clear_out>
 800e3ac:	f894 0044 	ldrb.w	r0, [r4, #68]	; 0x44
 800e3b0:	2300      	movs	r3, #0
 800e3b2:	e9c4 330e 	strd	r3, r3, [r4, #56]	; 0x38
 800e3b6:	6423      	str	r3, [r4, #64]	; 0x40
 800e3b8:	0603      	lsls	r3, r0, #24
 800e3ba:	68e1      	ldr	r1, [r4, #12]
 800e3bc:	d436      	bmi.n	800e42c <_usb_ep0setup+0x1ac>
 800e3be:	694a      	ldr	r2, [r1, #20]
 800e3c0:	2300      	movs	r3, #0
 800e3c2:	2105      	movs	r1, #5
 800e3c4:	f884 1034 	strb.w	r1, [r4, #52]	; 0x34
 800e3c8:	4620      	mov	r0, r4
 800e3ca:	4619      	mov	r1, r3
 800e3cc:	7013      	strb	r3, [r2, #0]
 800e3ce:	60d3      	str	r3, [r2, #12]
 800e3d0:	e9c2 3301 	strd	r3, r3, [r2, #4]
 800e3d4:	f001 ff5c 	bl	8010290 <usb_lld_prepare_transmit>
 800e3d8:	2320      	movs	r3, #32
 800e3da:	f383 8811 	msr	BASEPRI, r3
 800e3de:	8923      	ldrh	r3, [r4, #8]
 800e3e0:	f013 0101 	ands.w	r1, r3, #1
 800e3e4:	d189      	bne.n	800e2fa <_usb_ep0setup+0x7a>
 800e3e6:	f043 0301 	orr.w	r3, r3, #1
 800e3ea:	8123      	strh	r3, [r4, #8]
 800e3ec:	4620      	mov	r0, r4
 800e3ee:	f002 f86f 	bl	80104d0 <usb_lld_start_in>
 800e3f2:	e782      	b.n	800e2fa <_usb_ep0setup+0x7a>
 800e3f4:	b1d2      	cbz	r2, 800e42c <_usb_ep0setup+0x1ac>
 800e3f6:	694b      	ldr	r3, [r1, #20]
 800e3f8:	6ba0      	ldr	r0, [r4, #56]	; 0x38
 800e3fa:	2100      	movs	r1, #0
 800e3fc:	2501      	movs	r5, #1
 800e3fe:	f884 5034 	strb.w	r5, [r4, #52]	; 0x34
 800e402:	60d8      	str	r0, [r3, #12]
 800e404:	605a      	str	r2, [r3, #4]
 800e406:	7019      	strb	r1, [r3, #0]
 800e408:	6099      	str	r1, [r3, #8]
 800e40a:	4620      	mov	r0, r4
 800e40c:	f001 ff40 	bl	8010290 <usb_lld_prepare_transmit>
 800e410:	2320      	movs	r3, #32
 800e412:	f383 8811 	msr	BASEPRI, r3
 800e416:	8923      	ldrh	r3, [r4, #8]
 800e418:	ea13 0105 	ands.w	r1, r3, r5
 800e41c:	f47f af6d 	bne.w	800e2fa <_usb_ep0setup+0x7a>
 800e420:	432b      	orrs	r3, r5
 800e422:	8123      	strh	r3, [r4, #8]
 800e424:	4620      	mov	r0, r4
 800e426:	f002 f853 	bl	80104d0 <usb_lld_start_in>
 800e42a:	e766      	b.n	800e2fa <_usb_ep0setup+0x7a>
 800e42c:	698a      	ldr	r2, [r1, #24]
 800e42e:	2300      	movs	r3, #0
 800e430:	2103      	movs	r1, #3
 800e432:	f884 1034 	strb.w	r1, [r4, #52]	; 0x34
 800e436:	4619      	mov	r1, r3
 800e438:	7013      	strb	r3, [r2, #0]
 800e43a:	60d3      	str	r3, [r2, #12]
 800e43c:	e9c2 3301 	strd	r3, r3, [r2, #4]
 800e440:	e74b      	b.n	800e2da <_usb_ep0setup+0x5a>
 800e442:	f894 3046 	ldrb.w	r3, [r4, #70]	; 0x46
 800e446:	f884 304f 	strb.w	r3, [r4, #79]	; 0x4f
 800e44a:	2b00      	cmp	r3, #0
 800e44c:	f040 809e 	bne.w	800e58c <_usb_ep0setup+0x30c>
 800e450:	2303      	movs	r3, #3
 800e452:	7023      	strb	r3, [r4, #0]
 800e454:	6863      	ldr	r3, [r4, #4]
 800e456:	681b      	ldr	r3, [r3, #0]
 800e458:	2b00      	cmp	r3, #0
 800e45a:	d0a9      	beq.n	800e3b0 <_usb_ep0setup+0x130>
 800e45c:	4620      	mov	r0, r4
 800e45e:	2102      	movs	r1, #2
 800e460:	4798      	blx	r3
 800e462:	f894 0044 	ldrb.w	r0, [r4, #68]	; 0x44
 800e466:	e7a3      	b.n	800e3b0 <_usb_ep0setup+0x130>
 800e468:	f894 3046 	ldrb.w	r3, [r4, #70]	; 0x46
 800e46c:	2b01      	cmp	r3, #1
 800e46e:	f47f af4e 	bne.w	800e30e <_usb_ep0setup+0x8e>
 800e472:	f8b4 304c 	ldrh.w	r3, [r4, #76]	; 0x4c
 800e476:	63a5      	str	r5, [r4, #56]	; 0x38
 800e478:	f023 0302 	bic.w	r3, r3, #2
 800e47c:	e9c4 550f 	strd	r5, r5, [r4, #60]	; 0x3c
 800e480:	f8a4 304c 	strh.w	r3, [r4, #76]	; 0x4c
 800e484:	e798      	b.n	800e3b8 <_usb_ep0setup+0x138>
 800e486:	f240 3302 	movw	r3, #770	; 0x302
 800e48a:	429a      	cmp	r2, r3
 800e48c:	d043      	beq.n	800e516 <_usb_ep0setup+0x296>
 800e48e:	f5b2 6fa0 	cmp.w	r2, #1280	; 0x500
 800e492:	f47f af3c 	bne.w	800e30e <_usb_ep0setup+0x8e>
 800e496:	f8b4 3044 	ldrh.w	r3, [r4, #68]	; 0x44
 800e49a:	f5b3 6fa0 	cmp.w	r3, #1280	; 0x500
 800e49e:	d187      	bne.n	800e3b0 <_usb_ep0setup+0x130>
 800e4a0:	f894 3046 	ldrb.w	r3, [r4, #70]	; 0x46
 800e4a4:	f884 304e 	strb.w	r3, [r4, #78]	; 0x4e
 800e4a8:	4620      	mov	r0, r4
 800e4aa:	f001 fd89 	bl	800ffc0 <usb_lld_set_address>
 800e4ae:	6863      	ldr	r3, [r4, #4]
 800e4b0:	681b      	ldr	r3, [r3, #0]
 800e4b2:	b113      	cbz	r3, 800e4ba <_usb_ep0setup+0x23a>
 800e4b4:	2101      	movs	r1, #1
 800e4b6:	4620      	mov	r0, r4
 800e4b8:	4798      	blx	r3
 800e4ba:	2303      	movs	r3, #3
 800e4bc:	f894 0044 	ldrb.w	r0, [r4, #68]	; 0x44
 800e4c0:	7023      	strb	r3, [r4, #0]
 800e4c2:	e775      	b.n	800e3b0 <_usb_ep0setup+0x130>
 800e4c4:	b9ea      	cbnz	r2, 800e502 <_usb_ep0setup+0x282>
 800e4c6:	f104 004c 	add.w	r0, r4, #76	; 0x4c
 800e4ca:	2102      	movs	r1, #2
 800e4cc:	6422      	str	r2, [r4, #64]	; 0x40
 800e4ce:	e9c4 010e 	strd	r0, r1, [r4, #56]	; 0x38
 800e4d2:	e6e8      	b.n	800e2a6 <_usb_ep0setup+0x26>
 800e4d4:	f894 3048 	ldrb.w	r3, [r4, #72]	; 0x48
 800e4d8:	f003 010f 	and.w	r1, r3, #15
 800e4dc:	061b      	lsls	r3, r3, #24
 800e4de:	4620      	mov	r0, r4
 800e4e0:	d457      	bmi.n	800e592 <_usb_ep0setup+0x312>
 800e4e2:	f001 fe35 	bl	8010150 <usb_lld_get_status_out>
 800e4e6:	2801      	cmp	r0, #1
 800e4e8:	d057      	beq.n	800e59a <_usb_ep0setup+0x31a>
 800e4ea:	2802      	cmp	r0, #2
 800e4ec:	f47f af0f 	bne.w	800e30e <_usb_ep0setup+0x8e>
 800e4f0:	4b30      	ldr	r3, [pc, #192]	; (800e5b4 <_usb_ep0setup+0x334>)
 800e4f2:	63a3      	str	r3, [r4, #56]	; 0x38
 800e4f4:	2102      	movs	r1, #2
 800e4f6:	2300      	movs	r3, #0
 800e4f8:	e9c4 130f 	strd	r1, r3, [r4, #60]	; 0x3c
 800e4fc:	f894 3044 	ldrb.w	r3, [r4, #68]	; 0x44
 800e500:	e6d1      	b.n	800e2a6 <_usb_ep0setup+0x26>
 800e502:	2a01      	cmp	r2, #1
 800e504:	f47f af03 	bne.w	800e30e <_usb_ep0setup+0x8e>
 800e508:	4a2b      	ldr	r2, [pc, #172]	; (800e5b8 <_usb_ep0setup+0x338>)
 800e50a:	63a2      	str	r2, [r4, #56]	; 0x38
 800e50c:	2102      	movs	r1, #2
 800e50e:	2200      	movs	r2, #0
 800e510:	e9c4 120f 	strd	r1, r2, [r4, #60]	; 0x3c
 800e514:	e6c7      	b.n	800e2a6 <_usb_ep0setup+0x26>
 800e516:	f894 3046 	ldrb.w	r3, [r4, #70]	; 0x46
 800e51a:	2b00      	cmp	r3, #0
 800e51c:	f47f aef7 	bne.w	800e30e <_usb_ep0setup+0x8e>
 800e520:	f894 3048 	ldrb.w	r3, [r4, #72]	; 0x48
 800e524:	f013 010f 	ands.w	r1, r3, #15
 800e528:	f43f af42 	beq.w	800e3b0 <_usb_ep0setup+0x130>
 800e52c:	061d      	lsls	r5, r3, #24
 800e52e:	4620      	mov	r0, r4
 800e530:	d43a      	bmi.n	800e5a8 <_usb_ep0setup+0x328>
 800e532:	f001 ffe5 	bl	8010500 <usb_lld_stall_out>
 800e536:	f894 0044 	ldrb.w	r0, [r4, #68]	; 0x44
 800e53a:	e739      	b.n	800e3b0 <_usb_ep0setup+0x130>
 800e53c:	f894 0049 	ldrb.w	r0, [r4, #73]	; 0x49
 800e540:	6861      	ldr	r1, [r4, #4]
 800e542:	f894 3048 	ldrb.w	r3, [r4, #72]	; 0x48
 800e546:	684e      	ldr	r6, [r1, #4]
 800e548:	f894 2046 	ldrb.w	r2, [r4, #70]	; 0x46
 800e54c:	f894 1047 	ldrb.w	r1, [r4, #71]	; 0x47
 800e550:	ea43 2300 	orr.w	r3, r3, r0, lsl #8
 800e554:	4620      	mov	r0, r4
 800e556:	47b0      	blx	r6
 800e558:	2800      	cmp	r0, #0
 800e55a:	f43f aed8 	beq.w	800e30e <_usb_ep0setup+0x8e>
 800e55e:	e9d0 1300 	ldrd	r1, r3, [r0]
 800e562:	6425      	str	r5, [r4, #64]	; 0x40
 800e564:	e9c4 310e 	strd	r3, r1, [r4, #56]	; 0x38
 800e568:	f894 3044 	ldrb.w	r3, [r4, #68]	; 0x44
 800e56c:	e69b      	b.n	800e2a6 <_usb_ep0setup+0x26>
 800e56e:	f894 3046 	ldrb.w	r3, [r4, #70]	; 0x46
 800e572:	2b01      	cmp	r3, #1
 800e574:	f47f aecb 	bne.w	800e30e <_usb_ep0setup+0x8e>
 800e578:	f8b4 304c 	ldrh.w	r3, [r4, #76]	; 0x4c
 800e57c:	63a5      	str	r5, [r4, #56]	; 0x38
 800e57e:	f043 0302 	orr.w	r3, r3, #2
 800e582:	e9c4 550f 	strd	r5, r5, [r4, #60]	; 0x3c
 800e586:	f8a4 304c 	strh.w	r3, [r4, #76]	; 0x4c
 800e58a:	e715      	b.n	800e3b8 <_usb_ep0setup+0x138>
 800e58c:	2304      	movs	r3, #4
 800e58e:	7023      	strb	r3, [r4, #0]
 800e590:	e760      	b.n	800e454 <_usb_ep0setup+0x1d4>
 800e592:	f001 fded 	bl	8010170 <usb_lld_get_status_in>
 800e596:	2801      	cmp	r0, #1
 800e598:	d1a7      	bne.n	800e4ea <_usb_ep0setup+0x26a>
 800e59a:	4b08      	ldr	r3, [pc, #32]	; (800e5bc <_usb_ep0setup+0x33c>)
 800e59c:	e7a9      	b.n	800e4f2 <_usb_ep0setup+0x272>
 800e59e:	f001 ffdf 	bl	8010560 <usb_lld_clear_in>
 800e5a2:	f894 0044 	ldrb.w	r0, [r4, #68]	; 0x44
 800e5a6:	e703      	b.n	800e3b0 <_usb_ep0setup+0x130>
 800e5a8:	f001 ffba 	bl	8010520 <usb_lld_stall_in>
 800e5ac:	f894 0044 	ldrb.w	r0, [r4, #68]	; 0x44
 800e5b0:	e6fe      	b.n	800e3b0 <_usb_ep0setup+0x130>
 800e5b2:	bf00      	nop
 800e5b4:	08016ad0 	.word	0x08016ad0
 800e5b8:	08016af0 	.word	0x08016af0
 800e5bc:	08016ae0 	.word	0x08016ae0

0800e5c0 <_usb_ep0in>:
 800e5c0:	f890 3034 	ldrb.w	r3, [r0, #52]	; 0x34
 800e5c4:	b510      	push	{r4, lr}
 800e5c6:	4604      	mov	r4, r0
 800e5c8:	2b06      	cmp	r3, #6
 800e5ca:	d823      	bhi.n	800e614 <_usb_ep0in+0x54>
 800e5cc:	e8df f003 	tbb	[pc, r3]
 800e5d0:	58042a58 	.word	0x58042a58
 800e5d4:	2358      	.short	0x2358
 800e5d6:	58          	.byte	0x58
 800e5d7:	00          	.byte	0x00
 800e5d8:	68c3      	ldr	r3, [r0, #12]
 800e5da:	699a      	ldr	r2, [r3, #24]
 800e5dc:	2103      	movs	r1, #3
 800e5de:	2300      	movs	r3, #0
 800e5e0:	f884 1034 	strb.w	r1, [r4, #52]	; 0x34
 800e5e4:	4620      	mov	r0, r4
 800e5e6:	4619      	mov	r1, r3
 800e5e8:	7013      	strb	r3, [r2, #0]
 800e5ea:	60d3      	str	r3, [r2, #12]
 800e5ec:	e9c2 3301 	strd	r3, r3, [r2, #4]
 800e5f0:	f001 fdde 	bl	80101b0 <usb_lld_prepare_receive>
 800e5f4:	2320      	movs	r3, #32
 800e5f6:	f383 8811 	msr	BASEPRI, r3
 800e5fa:	8963      	ldrh	r3, [r4, #10]
 800e5fc:	f013 0101 	ands.w	r1, r3, #1
 800e600:	d105      	bne.n	800e60e <_usb_ep0in+0x4e>
 800e602:	f043 0301 	orr.w	r3, r3, #1
 800e606:	8163      	strh	r3, [r4, #10]
 800e608:	4620      	mov	r0, r4
 800e60a:	f001 ff51 	bl	80104b0 <usb_lld_start_out>
 800e60e:	2300      	movs	r3, #0
 800e610:	f383 8811 	msr	BASEPRI, r3
 800e614:	bd10      	pop	{r4, pc}
 800e616:	6c03      	ldr	r3, [r0, #64]	; 0x40
 800e618:	b103      	cbz	r3, 800e61c <_usb_ep0in+0x5c>
 800e61a:	4798      	blx	r3
 800e61c:	2300      	movs	r3, #0
 800e61e:	f884 3034 	strb.w	r3, [r4, #52]	; 0x34
 800e622:	bd10      	pop	{r4, pc}
 800e624:	f890 004b 	ldrb.w	r0, [r0, #75]	; 0x4b
 800e628:	f894 204a 	ldrb.w	r2, [r4, #74]	; 0x4a
 800e62c:	6be1      	ldr	r1, [r4, #60]	; 0x3c
 800e62e:	68e3      	ldr	r3, [r4, #12]
 800e630:	ea42 2200 	orr.w	r2, r2, r0, lsl #8
 800e634:	4291      	cmp	r1, r2
 800e636:	d2d0      	bcs.n	800e5da <_usb_ep0in+0x1a>
 800e638:	8a18      	ldrh	r0, [r3, #16]
 800e63a:	fbb1 f2f0 	udiv	r2, r1, r0
 800e63e:	fb00 1212 	mls	r2, r0, r2, r1
 800e642:	2a00      	cmp	r2, #0
 800e644:	d1c9      	bne.n	800e5da <_usb_ep0in+0x1a>
 800e646:	695b      	ldr	r3, [r3, #20]
 800e648:	4611      	mov	r1, r2
 800e64a:	701a      	strb	r2, [r3, #0]
 800e64c:	60da      	str	r2, [r3, #12]
 800e64e:	e9c3 2201 	strd	r2, r2, [r3, #4]
 800e652:	4620      	mov	r0, r4
 800e654:	f001 fe1c 	bl	8010290 <usb_lld_prepare_transmit>
 800e658:	2320      	movs	r3, #32
 800e65a:	f383 8811 	msr	BASEPRI, r3
 800e65e:	8923      	ldrh	r3, [r4, #8]
 800e660:	f013 0101 	ands.w	r1, r3, #1
 800e664:	d105      	bne.n	800e672 <_usb_ep0in+0xb2>
 800e666:	f043 0301 	orr.w	r3, r3, #1
 800e66a:	8123      	strh	r3, [r4, #8]
 800e66c:	4620      	mov	r0, r4
 800e66e:	f001 ff2f 	bl	80104d0 <usb_lld_start_in>
 800e672:	2300      	movs	r3, #0
 800e674:	f383 8811 	msr	BASEPRI, r3
 800e678:	2302      	movs	r3, #2
 800e67a:	f884 3034 	strb.w	r3, [r4, #52]	; 0x34
 800e67e:	bd10      	pop	{r4, pc}
 800e680:	2100      	movs	r1, #0
 800e682:	f001 ff4d 	bl	8010520 <usb_lld_stall_in>
 800e686:	2100      	movs	r1, #0
 800e688:	4620      	mov	r0, r4
 800e68a:	f001 ff39 	bl	8010500 <usb_lld_stall_out>
 800e68e:	6863      	ldr	r3, [r4, #4]
 800e690:	681b      	ldr	r3, [r3, #0]
 800e692:	b113      	cbz	r3, 800e69a <_usb_ep0in+0xda>
 800e694:	2105      	movs	r1, #5
 800e696:	4620      	mov	r0, r4
 800e698:	4798      	blx	r3
 800e69a:	2306      	movs	r3, #6
 800e69c:	f884 3034 	strb.w	r3, [r4, #52]	; 0x34
 800e6a0:	bd10      	pop	{r4, pc}
 800e6a2:	bf00      	nop
	...

0800e6b0 <_usb_ep0out>:
 800e6b0:	f890 2034 	ldrb.w	r2, [r0, #52]	; 0x34
 800e6b4:	2a06      	cmp	r2, #6
 800e6b6:	d814      	bhi.n	800e6e2 <_usb_ep0out+0x32>
 800e6b8:	2301      	movs	r3, #1
 800e6ba:	4093      	lsls	r3, r2
 800e6bc:	f013 0f67 	tst.w	r3, #103	; 0x67
 800e6c0:	b510      	push	{r4, lr}
 800e6c2:	4604      	mov	r4, r0
 800e6c4:	d127      	bne.n	800e716 <_usb_ep0out+0x66>
 800e6c6:	f013 0208 	ands.w	r2, r3, #8
 800e6ca:	d00b      	beq.n	800e6e4 <_usb_ep0out+0x34>
 800e6cc:	68c3      	ldr	r3, [r0, #12]
 800e6ce:	699b      	ldr	r3, [r3, #24]
 800e6d0:	689b      	ldr	r3, [r3, #8]
 800e6d2:	b92b      	cbnz	r3, 800e6e0 <_usb_ep0out+0x30>
 800e6d4:	6c03      	ldr	r3, [r0, #64]	; 0x40
 800e6d6:	b103      	cbz	r3, 800e6da <_usb_ep0out+0x2a>
 800e6d8:	4798      	blx	r3
 800e6da:	2300      	movs	r3, #0
 800e6dc:	f884 3034 	strb.w	r3, [r4, #52]	; 0x34
 800e6e0:	bd10      	pop	{r4, pc}
 800e6e2:	4770      	bx	lr
 800e6e4:	06db      	lsls	r3, r3, #27
 800e6e6:	d5fb      	bpl.n	800e6e0 <_usb_ep0out+0x30>
 800e6e8:	68c3      	ldr	r3, [r0, #12]
 800e6ea:	695b      	ldr	r3, [r3, #20]
 800e6ec:	2105      	movs	r1, #5
 800e6ee:	f880 1034 	strb.w	r1, [r0, #52]	; 0x34
 800e6f2:	701a      	strb	r2, [r3, #0]
 800e6f4:	60da      	str	r2, [r3, #12]
 800e6f6:	e9c3 2201 	strd	r2, r2, [r3, #4]
 800e6fa:	4611      	mov	r1, r2
 800e6fc:	f001 fdc8 	bl	8010290 <usb_lld_prepare_transmit>
 800e700:	2320      	movs	r3, #32
 800e702:	f383 8811 	msr	BASEPRI, r3
 800e706:	8923      	ldrh	r3, [r4, #8]
 800e708:	f013 0101 	ands.w	r1, r3, #1
 800e70c:	d014      	beq.n	800e738 <_usb_ep0out+0x88>
 800e70e:	2300      	movs	r3, #0
 800e710:	f383 8811 	msr	BASEPRI, r3
 800e714:	bd10      	pop	{r4, pc}
 800e716:	2100      	movs	r1, #0
 800e718:	f001 ff02 	bl	8010520 <usb_lld_stall_in>
 800e71c:	2100      	movs	r1, #0
 800e71e:	4620      	mov	r0, r4
 800e720:	f001 feee 	bl	8010500 <usb_lld_stall_out>
 800e724:	6863      	ldr	r3, [r4, #4]
 800e726:	681b      	ldr	r3, [r3, #0]
 800e728:	b113      	cbz	r3, 800e730 <_usb_ep0out+0x80>
 800e72a:	2105      	movs	r1, #5
 800e72c:	4620      	mov	r0, r4
 800e72e:	4798      	blx	r3
 800e730:	2306      	movs	r3, #6
 800e732:	f884 3034 	strb.w	r3, [r4, #52]	; 0x34
 800e736:	bd10      	pop	{r4, pc}
 800e738:	f043 0301 	orr.w	r3, r3, #1
 800e73c:	8123      	strh	r3, [r4, #8]
 800e73e:	4620      	mov	r0, r4
 800e740:	f001 fec6 	bl	80104d0 <usb_lld_start_in>
 800e744:	e7e3      	b.n	800e70e <_usb_ep0out+0x5e>
 800e746:	bf00      	nop
	...

0800e750 <nvicEnableVector>:
 800e750:	0943      	lsrs	r3, r0, #5
 800e752:	b410      	push	{r4}
 800e754:	009b      	lsls	r3, r3, #2
 800e756:	f100 4460 	add.w	r4, r0, #3758096384	; 0xe0000000
 800e75a:	f504 4461 	add.w	r4, r4, #57600	; 0xe100
 800e75e:	f103 4360 	add.w	r3, r3, #3758096384	; 0xe0000000
 800e762:	0109      	lsls	r1, r1, #4
 800e764:	f503 4361 	add.w	r3, r3, #57600	; 0xe100
 800e768:	f000 001f 	and.w	r0, r0, #31
 800e76c:	2201      	movs	r2, #1
 800e76e:	b2c9      	uxtb	r1, r1
 800e770:	f884 1300 	strb.w	r1, [r4, #768]	; 0x300
 800e774:	fa02 f000 	lsl.w	r0, r2, r0
 800e778:	f8c3 0180 	str.w	r0, [r3, #384]	; 0x180
 800e77c:	f85d 4b04 	ldr.w	r4, [sp], #4
 800e780:	6018      	str	r0, [r3, #0]
 800e782:	4770      	bx	lr
	...

0800e790 <nvicDisableVector>:
 800e790:	4908      	ldr	r1, [pc, #32]	; (800e7b4 <nvicDisableVector+0x24>)
 800e792:	0943      	lsrs	r3, r0, #5
 800e794:	b410      	push	{r4}
 800e796:	3320      	adds	r3, #32
 800e798:	f000 041f 	and.w	r4, r0, #31
 800e79c:	2201      	movs	r2, #1
 800e79e:	4408      	add	r0, r1
 800e7a0:	40a2      	lsls	r2, r4
 800e7a2:	2400      	movs	r4, #0
 800e7a4:	f841 2023 	str.w	r2, [r1, r3, lsl #2]
 800e7a8:	f880 4300 	strb.w	r4, [r0, #768]	; 0x300
 800e7ac:	f85d 4b04 	ldr.w	r4, [sp], #4
 800e7b0:	4770      	bx	lr
 800e7b2:	bf00      	nop
 800e7b4:	e000e100 	.word	0xe000e100
	...

0800e7c0 <nvicSetSystemHandlerPriority>:
 800e7c0:	f100 4060 	add.w	r0, r0, #3758096384	; 0xe0000000
 800e7c4:	f500 406d 	add.w	r0, r0, #60672	; 0xed00
 800e7c8:	0109      	lsls	r1, r1, #4
 800e7ca:	b2c9      	uxtb	r1, r1
 800e7cc:	7601      	strb	r1, [r0, #24]
 800e7ce:	4770      	bx	lr

0800e7d0 <Vector6C>:
 800e7d0:	b508      	push	{r3, lr}
 800e7d2:	4b07      	ldr	r3, [pc, #28]	; (800e7f0 <Vector6C+0x20>)
 800e7d4:	4a07      	ldr	r2, [pc, #28]	; (800e7f4 <Vector6C+0x24>)
 800e7d6:	6819      	ldr	r1, [r3, #0]
 800e7d8:	f001 013d 	and.w	r1, r1, #61	; 0x3d
 800e7dc:	6099      	str	r1, [r3, #8]
 800e7de:	6813      	ldr	r3, [r2, #0]
 800e7e0:	b10b      	cbz	r3, 800e7e6 <Vector6C+0x16>
 800e7e2:	6850      	ldr	r0, [r2, #4]
 800e7e4:	4798      	blx	r3
 800e7e6:	e8bd 4008 	ldmia.w	sp!, {r3, lr}
 800e7ea:	f7ff b949 	b.w	800da80 <_port_irq_epilogue>
 800e7ee:	bf00      	nop
 800e7f0:	40026000 	.word	0x40026000
 800e7f4:	20000f10 	.word	0x20000f10
	...

0800e800 <Vector70>:
 800e800:	4b08      	ldr	r3, [pc, #32]	; (800e824 <Vector70+0x24>)
 800e802:	4809      	ldr	r0, [pc, #36]	; (800e828 <Vector70+0x28>)
 800e804:	6819      	ldr	r1, [r3, #0]
 800e806:	6882      	ldr	r2, [r0, #8]
 800e808:	0989      	lsrs	r1, r1, #6
 800e80a:	f001 013d 	and.w	r1, r1, #61	; 0x3d
 800e80e:	b510      	push	{r4, lr}
 800e810:	018c      	lsls	r4, r1, #6
 800e812:	609c      	str	r4, [r3, #8]
 800e814:	b10a      	cbz	r2, 800e81a <Vector70+0x1a>
 800e816:	68c0      	ldr	r0, [r0, #12]
 800e818:	4790      	blx	r2
 800e81a:	e8bd 4010 	ldmia.w	sp!, {r4, lr}
 800e81e:	f7ff b92f 	b.w	800da80 <_port_irq_epilogue>
 800e822:	bf00      	nop
 800e824:	40026000 	.word	0x40026000
 800e828:	20000f10 	.word	0x20000f10
 800e82c:	00000000 	.word	0x00000000

0800e830 <Vector74>:
 800e830:	4b08      	ldr	r3, [pc, #32]	; (800e854 <Vector74+0x24>)
 800e832:	4809      	ldr	r0, [pc, #36]	; (800e858 <Vector74+0x28>)
 800e834:	6819      	ldr	r1, [r3, #0]
 800e836:	6902      	ldr	r2, [r0, #16]
 800e838:	0c09      	lsrs	r1, r1, #16
 800e83a:	f001 013d 	and.w	r1, r1, #61	; 0x3d
 800e83e:	b510      	push	{r4, lr}
 800e840:	040c      	lsls	r4, r1, #16
 800e842:	609c      	str	r4, [r3, #8]
 800e844:	b10a      	cbz	r2, 800e84a <Vector74+0x1a>
 800e846:	6940      	ldr	r0, [r0, #20]
 800e848:	4790      	blx	r2
 800e84a:	e8bd 4010 	ldmia.w	sp!, {r4, lr}
 800e84e:	f7ff b917 	b.w	800da80 <_port_irq_epilogue>
 800e852:	bf00      	nop
 800e854:	40026000 	.word	0x40026000
 800e858:	20000f10 	.word	0x20000f10
 800e85c:	00000000 	.word	0x00000000

0800e860 <Vector78>:
 800e860:	4b08      	ldr	r3, [pc, #32]	; (800e884 <Vector78+0x24>)
 800e862:	4809      	ldr	r0, [pc, #36]	; (800e888 <Vector78+0x28>)
 800e864:	6819      	ldr	r1, [r3, #0]
 800e866:	6982      	ldr	r2, [r0, #24]
 800e868:	0d89      	lsrs	r1, r1, #22
 800e86a:	f001 013d 	and.w	r1, r1, #61	; 0x3d
 800e86e:	b510      	push	{r4, lr}
 800e870:	058c      	lsls	r4, r1, #22
 800e872:	609c      	str	r4, [r3, #8]
 800e874:	b10a      	cbz	r2, 800e87a <Vector78+0x1a>
 800e876:	69c0      	ldr	r0, [r0, #28]
 800e878:	4790      	blx	r2
 800e87a:	e8bd 4010 	ldmia.w	sp!, {r4, lr}
 800e87e:	f7ff b8ff 	b.w	800da80 <_port_irq_epilogue>
 800e882:	bf00      	nop
 800e884:	40026000 	.word	0x40026000
 800e888:	20000f10 	.word	0x20000f10
 800e88c:	00000000 	.word	0x00000000

0800e890 <Vector7C>:
 800e890:	b508      	push	{r3, lr}
 800e892:	4b07      	ldr	r3, [pc, #28]	; (800e8b0 <Vector7C+0x20>)
 800e894:	4807      	ldr	r0, [pc, #28]	; (800e8b4 <Vector7C+0x24>)
 800e896:	6859      	ldr	r1, [r3, #4]
 800e898:	6a02      	ldr	r2, [r0, #32]
 800e89a:	f001 013d 	and.w	r1, r1, #61	; 0x3d
 800e89e:	60d9      	str	r1, [r3, #12]
 800e8a0:	b10a      	cbz	r2, 800e8a6 <Vector7C+0x16>
 800e8a2:	6a40      	ldr	r0, [r0, #36]	; 0x24
 800e8a4:	4790      	blx	r2
 800e8a6:	e8bd 4008 	ldmia.w	sp!, {r3, lr}
 800e8aa:	f7ff b8e9 	b.w	800da80 <_port_irq_epilogue>
 800e8ae:	bf00      	nop
 800e8b0:	40026000 	.word	0x40026000
 800e8b4:	20000f10 	.word	0x20000f10
	...

0800e8c0 <Vector80>:
 800e8c0:	4b08      	ldr	r3, [pc, #32]	; (800e8e4 <Vector80+0x24>)
 800e8c2:	4809      	ldr	r0, [pc, #36]	; (800e8e8 <Vector80+0x28>)
 800e8c4:	6859      	ldr	r1, [r3, #4]
 800e8c6:	6a82      	ldr	r2, [r0, #40]	; 0x28
 800e8c8:	0989      	lsrs	r1, r1, #6
 800e8ca:	f001 013d 	and.w	r1, r1, #61	; 0x3d
 800e8ce:	b510      	push	{r4, lr}
 800e8d0:	018c      	lsls	r4, r1, #6
 800e8d2:	60dc      	str	r4, [r3, #12]
 800e8d4:	b10a      	cbz	r2, 800e8da <Vector80+0x1a>
 800e8d6:	6ac0      	ldr	r0, [r0, #44]	; 0x2c
 800e8d8:	4790      	blx	r2
 800e8da:	e8bd 4010 	ldmia.w	sp!, {r4, lr}
 800e8de:	f7ff b8cf 	b.w	800da80 <_port_irq_epilogue>
 800e8e2:	bf00      	nop
 800e8e4:	40026000 	.word	0x40026000
 800e8e8:	20000f10 	.word	0x20000f10
 800e8ec:	00000000 	.word	0x00000000

0800e8f0 <Vector84>:
 800e8f0:	4b08      	ldr	r3, [pc, #32]	; (800e914 <Vector84+0x24>)
 800e8f2:	4809      	ldr	r0, [pc, #36]	; (800e918 <Vector84+0x28>)
 800e8f4:	6859      	ldr	r1, [r3, #4]
 800e8f6:	6b02      	ldr	r2, [r0, #48]	; 0x30
 800e8f8:	0c09      	lsrs	r1, r1, #16
 800e8fa:	f001 013d 	and.w	r1, r1, #61	; 0x3d
 800e8fe:	b510      	push	{r4, lr}
 800e900:	040c      	lsls	r4, r1, #16
 800e902:	60dc      	str	r4, [r3, #12]
 800e904:	b10a      	cbz	r2, 800e90a <Vector84+0x1a>
 800e906:	6b40      	ldr	r0, [r0, #52]	; 0x34
 800e908:	4790      	blx	r2
 800e90a:	e8bd 4010 	ldmia.w	sp!, {r4, lr}
 800e90e:	f7ff b8b7 	b.w	800da80 <_port_irq_epilogue>
 800e912:	bf00      	nop
 800e914:	40026000 	.word	0x40026000
 800e918:	20000f10 	.word	0x20000f10
 800e91c:	00000000 	.word	0x00000000

0800e920 <VectorFC>:
 800e920:	4b08      	ldr	r3, [pc, #32]	; (800e944 <VectorFC+0x24>)
 800e922:	4809      	ldr	r0, [pc, #36]	; (800e948 <VectorFC+0x28>)
 800e924:	6859      	ldr	r1, [r3, #4]
 800e926:	6b82      	ldr	r2, [r0, #56]	; 0x38
 800e928:	0d89      	lsrs	r1, r1, #22
 800e92a:	f001 013d 	and.w	r1, r1, #61	; 0x3d
 800e92e:	b510      	push	{r4, lr}
 800e930:	058c      	lsls	r4, r1, #22
 800e932:	60dc      	str	r4, [r3, #12]
 800e934:	b10a      	cbz	r2, 800e93a <VectorFC+0x1a>
 800e936:	6bc0      	ldr	r0, [r0, #60]	; 0x3c
 800e938:	4790      	blx	r2
 800e93a:	e8bd 4010 	ldmia.w	sp!, {r4, lr}
 800e93e:	f7ff b89f 	b.w	800da80 <_port_irq_epilogue>
 800e942:	bf00      	nop
 800e944:	40026000 	.word	0x40026000
 800e948:	20000f10 	.word	0x20000f10
 800e94c:	00000000 	.word	0x00000000

0800e950 <Vector120>:
 800e950:	b508      	push	{r3, lr}
 800e952:	4b07      	ldr	r3, [pc, #28]	; (800e970 <Vector120+0x20>)
 800e954:	4807      	ldr	r0, [pc, #28]	; (800e974 <Vector120+0x24>)
 800e956:	6819      	ldr	r1, [r3, #0]
 800e958:	6c02      	ldr	r2, [r0, #64]	; 0x40
 800e95a:	f001 013d 	and.w	r1, r1, #61	; 0x3d
 800e95e:	6099      	str	r1, [r3, #8]
 800e960:	b10a      	cbz	r2, 800e966 <Vector120+0x16>
 800e962:	6c40      	ldr	r0, [r0, #68]	; 0x44
 800e964:	4790      	blx	r2
 800e966:	e8bd 4008 	ldmia.w	sp!, {r3, lr}
 800e96a:	f7ff b889 	b.w	800da80 <_port_irq_epilogue>
 800e96e:	bf00      	nop
 800e970:	40026400 	.word	0x40026400
 800e974:	20000f10 	.word	0x20000f10
	...

0800e980 <Vector124>:
 800e980:	4b08      	ldr	r3, [pc, #32]	; (800e9a4 <Vector124+0x24>)
 800e982:	4809      	ldr	r0, [pc, #36]	; (800e9a8 <Vector124+0x28>)
 800e984:	6819      	ldr	r1, [r3, #0]
 800e986:	6c82      	ldr	r2, [r0, #72]	; 0x48
 800e988:	0989      	lsrs	r1, r1, #6
 800e98a:	f001 013d 	and.w	r1, r1, #61	; 0x3d
 800e98e:	b510      	push	{r4, lr}
 800e990:	018c      	lsls	r4, r1, #6
 800e992:	609c      	str	r4, [r3, #8]
 800e994:	b10a      	cbz	r2, 800e99a <Vector124+0x1a>
 800e996:	6cc0      	ldr	r0, [r0, #76]	; 0x4c
 800e998:	4790      	blx	r2
 800e99a:	e8bd 4010 	ldmia.w	sp!, {r4, lr}
 800e99e:	f7ff b86f 	b.w	800da80 <_port_irq_epilogue>
 800e9a2:	bf00      	nop
 800e9a4:	40026400 	.word	0x40026400
 800e9a8:	20000f10 	.word	0x20000f10
 800e9ac:	00000000 	.word	0x00000000

0800e9b0 <Vector128>:
 800e9b0:	4b08      	ldr	r3, [pc, #32]	; (800e9d4 <Vector128+0x24>)
 800e9b2:	4809      	ldr	r0, [pc, #36]	; (800e9d8 <Vector128+0x28>)
 800e9b4:	6819      	ldr	r1, [r3, #0]
 800e9b6:	6d02      	ldr	r2, [r0, #80]	; 0x50
 800e9b8:	0c09      	lsrs	r1, r1, #16
 800e9ba:	f001 013d 	and.w	r1, r1, #61	; 0x3d
 800e9be:	b510      	push	{r4, lr}
 800e9c0:	040c      	lsls	r4, r1, #16
 800e9c2:	609c      	str	r4, [r3, #8]
 800e9c4:	b10a      	cbz	r2, 800e9ca <Vector128+0x1a>
 800e9c6:	6d40      	ldr	r0, [r0, #84]	; 0x54
 800e9c8:	4790      	blx	r2
 800e9ca:	e8bd 4010 	ldmia.w	sp!, {r4, lr}
 800e9ce:	f7ff b857 	b.w	800da80 <_port_irq_epilogue>
 800e9d2:	bf00      	nop
 800e9d4:	40026400 	.word	0x40026400
 800e9d8:	20000f10 	.word	0x20000f10
 800e9dc:	00000000 	.word	0x00000000

0800e9e0 <Vector12C>:
 800e9e0:	4b08      	ldr	r3, [pc, #32]	; (800ea04 <Vector12C+0x24>)
 800e9e2:	4809      	ldr	r0, [pc, #36]	; (800ea08 <Vector12C+0x28>)
 800e9e4:	6819      	ldr	r1, [r3, #0]
 800e9e6:	6d82      	ldr	r2, [r0, #88]	; 0x58
 800e9e8:	0d89      	lsrs	r1, r1, #22
 800e9ea:	f001 013d 	and.w	r1, r1, #61	; 0x3d
 800e9ee:	b510      	push	{r4, lr}
 800e9f0:	058c      	lsls	r4, r1, #22
 800e9f2:	609c      	str	r4, [r3, #8]
 800e9f4:	b10a      	cbz	r2, 800e9fa <Vector12C+0x1a>
 800e9f6:	6dc0      	ldr	r0, [r0, #92]	; 0x5c
 800e9f8:	4790      	blx	r2
 800e9fa:	e8bd 4010 	ldmia.w	sp!, {r4, lr}
 800e9fe:	f7ff b83f 	b.w	800da80 <_port_irq_epilogue>
 800ea02:	bf00      	nop
 800ea04:	40026400 	.word	0x40026400
 800ea08:	20000f10 	.word	0x20000f10
 800ea0c:	00000000 	.word	0x00000000

0800ea10 <Vector130>:
 800ea10:	b508      	push	{r3, lr}
 800ea12:	4b07      	ldr	r3, [pc, #28]	; (800ea30 <Vector130+0x20>)
 800ea14:	4807      	ldr	r0, [pc, #28]	; (800ea34 <Vector130+0x24>)
 800ea16:	6859      	ldr	r1, [r3, #4]
 800ea18:	6e02      	ldr	r2, [r0, #96]	; 0x60
 800ea1a:	f001 013d 	and.w	r1, r1, #61	; 0x3d
 800ea1e:	60d9      	str	r1, [r3, #12]
 800ea20:	b10a      	cbz	r2, 800ea26 <Vector130+0x16>
 800ea22:	6e40      	ldr	r0, [r0, #100]	; 0x64
 800ea24:	4790      	blx	r2
 800ea26:	e8bd 4008 	ldmia.w	sp!, {r3, lr}
 800ea2a:	f7ff b829 	b.w	800da80 <_port_irq_epilogue>
 800ea2e:	bf00      	nop
 800ea30:	40026400 	.word	0x40026400
 800ea34:	20000f10 	.word	0x20000f10
	...

0800ea40 <Vector150>:
 800ea40:	4b08      	ldr	r3, [pc, #32]	; (800ea64 <Vector150+0x24>)
 800ea42:	4809      	ldr	r0, [pc, #36]	; (800ea68 <Vector150+0x28>)
 800ea44:	6859      	ldr	r1, [r3, #4]
 800ea46:	6e82      	ldr	r2, [r0, #104]	; 0x68
 800ea48:	0989      	lsrs	r1, r1, #6
 800ea4a:	f001 013d 	and.w	r1, r1, #61	; 0x3d
 800ea4e:	b510      	push	{r4, lr}
 800ea50:	018c      	lsls	r4, r1, #6
 800ea52:	60dc      	str	r4, [r3, #12]
 800ea54:	b10a      	cbz	r2, 800ea5a <Vector150+0x1a>
 800ea56:	6ec0      	ldr	r0, [r0, #108]	; 0x6c
 800ea58:	4790      	blx	r2
 800ea5a:	e8bd 4010 	ldmia.w	sp!, {r4, lr}
 800ea5e:	f7ff b80f 	b.w	800da80 <_port_irq_epilogue>
 800ea62:	bf00      	nop
 800ea64:	40026400 	.word	0x40026400
 800ea68:	20000f10 	.word	0x20000f10
 800ea6c:	00000000 	.word	0x00000000

0800ea70 <Vector154>:
 800ea70:	4b08      	ldr	r3, [pc, #32]	; (800ea94 <Vector154+0x24>)
 800ea72:	4809      	ldr	r0, [pc, #36]	; (800ea98 <Vector154+0x28>)
 800ea74:	6859      	ldr	r1, [r3, #4]
 800ea76:	6f02      	ldr	r2, [r0, #112]	; 0x70
 800ea78:	0c09      	lsrs	r1, r1, #16
 800ea7a:	f001 013d 	and.w	r1, r1, #61	; 0x3d
 800ea7e:	b510      	push	{r4, lr}
 800ea80:	040c      	lsls	r4, r1, #16
 800ea82:	60dc      	str	r4, [r3, #12]
 800ea84:	b10a      	cbz	r2, 800ea8a <Vector154+0x1a>
 800ea86:	6f40      	ldr	r0, [r0, #116]	; 0x74
 800ea88:	4790      	blx	r2
 800ea8a:	e8bd 4010 	ldmia.w	sp!, {r4, lr}
 800ea8e:	f7fe bff7 	b.w	800da80 <_port_irq_epilogue>
 800ea92:	bf00      	nop
 800ea94:	40026400 	.word	0x40026400
 800ea98:	20000f10 	.word	0x20000f10
 800ea9c:	00000000 	.word	0x00000000

0800eaa0 <Vector158>:
 800eaa0:	4b08      	ldr	r3, [pc, #32]	; (800eac4 <Vector158+0x24>)
 800eaa2:	4809      	ldr	r0, [pc, #36]	; (800eac8 <Vector158+0x28>)
 800eaa4:	6859      	ldr	r1, [r3, #4]
 800eaa6:	6f82      	ldr	r2, [r0, #120]	; 0x78
 800eaa8:	0d89      	lsrs	r1, r1, #22
 800eaaa:	f001 013d 	and.w	r1, r1, #61	; 0x3d
 800eaae:	b510      	push	{r4, lr}
 800eab0:	058c      	lsls	r4, r1, #22
 800eab2:	60dc      	str	r4, [r3, #12]
 800eab4:	b10a      	cbz	r2, 800eaba <Vector158+0x1a>
 800eab6:	6fc0      	ldr	r0, [r0, #124]	; 0x7c
 800eab8:	4790      	blx	r2
 800eaba:	e8bd 4010 	ldmia.w	sp!, {r4, lr}
 800eabe:	f7fe bfdf 	b.w	800da80 <_port_irq_epilogue>
 800eac2:	bf00      	nop
 800eac4:	40026400 	.word	0x40026400
 800eac8:	20000f10 	.word	0x20000f10
 800eacc:	00000000 	.word	0x00000000

0800ead0 <dmaInit>:
 800ead0:	490e      	ldr	r1, [pc, #56]	; (800eb0c <dmaInit+0x3c>)
 800ead2:	4a0f      	ldr	r2, [pc, #60]	; (800eb10 <dmaInit+0x40>)
 800ead4:	480f      	ldr	r0, [pc, #60]	; (800eb14 <dmaInit+0x44>)
 800ead6:	2300      	movs	r3, #0
 800ead8:	b410      	push	{r4}
 800eada:	600b      	str	r3, [r1, #0]
 800eadc:	4c0e      	ldr	r4, [pc, #56]	; (800eb18 <dmaInit+0x48>)
 800eade:	4619      	mov	r1, r3
 800eae0:	e001      	b.n	800eae6 <dmaInit+0x16>
 800eae2:	f852 0c0c 	ldr.w	r0, [r2, #-12]
 800eae6:	6001      	str	r1, [r0, #0]
 800eae8:	f844 1033 	str.w	r1, [r4, r3, lsl #3]
 800eaec:	3301      	adds	r3, #1
 800eaee:	2b10      	cmp	r3, #16
 800eaf0:	f102 020c 	add.w	r2, r2, #12
 800eaf4:	d1f5      	bne.n	800eae2 <dmaInit+0x12>
 800eaf6:	4909      	ldr	r1, [pc, #36]	; (800eb1c <dmaInit+0x4c>)
 800eaf8:	4a09      	ldr	r2, [pc, #36]	; (800eb20 <dmaInit+0x50>)
 800eafa:	f85d 4b04 	ldr.w	r4, [sp], #4
 800eafe:	f04f 33ff 	mov.w	r3, #4294967295
 800eb02:	608b      	str	r3, [r1, #8]
 800eb04:	60cb      	str	r3, [r1, #12]
 800eb06:	6093      	str	r3, [r2, #8]
 800eb08:	60d3      	str	r3, [r2, #12]
 800eb0a:	4770      	bx	lr
 800eb0c:	20000f90 	.word	0x20000f90
 800eb10:	08016b0c 	.word	0x08016b0c
 800eb14:	40026010 	.word	0x40026010
 800eb18:	20000f10 	.word	0x20000f10
 800eb1c:	40026000 	.word	0x40026000
 800eb20:	40026400 	.word	0x40026400
	...

0800eb30 <dmaStreamAllocate>:
 800eb30:	b5f8      	push	{r3, r4, r5, r6, r7, lr}
 800eb32:	4f20      	ldr	r7, [pc, #128]	; (800ebb4 <dmaStreamAllocate+0x84>)
 800eb34:	7a46      	ldrb	r6, [r0, #9]
 800eb36:	f8d7 c000 	ldr.w	ip, [r7]
 800eb3a:	2401      	movs	r4, #1
 800eb3c:	fa04 f506 	lsl.w	r5, r4, r6
 800eb40:	ea15 0f0c 	tst.w	r5, ip
 800eb44:	d133      	bne.n	800ebae <dmaStreamAllocate+0x7e>
 800eb46:	4c1c      	ldr	r4, [pc, #112]	; (800ebb8 <dmaStreamAllocate+0x88>)
 800eb48:	ea45 050c 	orr.w	r5, r5, ip
 800eb4c:	eb04 0cc6 	add.w	ip, r4, r6, lsl #3
 800eb50:	f015 0fff 	tst.w	r5, #255	; 0xff
 800eb54:	603d      	str	r5, [r7, #0]
 800eb56:	f844 2036 	str.w	r2, [r4, r6, lsl #3]
 800eb5a:	f8cc 3004 	str.w	r3, [ip, #4]
 800eb5e:	d004      	beq.n	800eb6a <dmaStreamAllocate+0x3a>
 800eb60:	4c16      	ldr	r4, [pc, #88]	; (800ebbc <dmaStreamAllocate+0x8c>)
 800eb62:	6b23      	ldr	r3, [r4, #48]	; 0x30
 800eb64:	f443 1300 	orr.w	r3, r3, #2097152	; 0x200000
 800eb68:	6323      	str	r3, [r4, #48]	; 0x30
 800eb6a:	f415 4f7f 	tst.w	r5, #65280	; 0xff00
 800eb6e:	d116      	bne.n	800eb9e <dmaStreamAllocate+0x6e>
 800eb70:	6805      	ldr	r5, [r0, #0]
 800eb72:	682b      	ldr	r3, [r5, #0]
 800eb74:	f023 031f 	bic.w	r3, r3, #31
 800eb78:	602b      	str	r3, [r5, #0]
 800eb7a:	682c      	ldr	r4, [r5, #0]
 800eb7c:	f014 0401 	ands.w	r4, r4, #1
 800eb80:	d1fb      	bne.n	800eb7a <dmaStreamAllocate+0x4a>
 800eb82:	7a07      	ldrb	r7, [r0, #8]
 800eb84:	6846      	ldr	r6, [r0, #4]
 800eb86:	233d      	movs	r3, #61	; 0x3d
 800eb88:	40bb      	lsls	r3, r7
 800eb8a:	2721      	movs	r7, #33	; 0x21
 800eb8c:	6033      	str	r3, [r6, #0]
 800eb8e:	602c      	str	r4, [r5, #0]
 800eb90:	616f      	str	r7, [r5, #20]
 800eb92:	b152      	cbz	r2, 800ebaa <dmaStreamAllocate+0x7a>
 800eb94:	7a80      	ldrb	r0, [r0, #10]
 800eb96:	f7ff fddb 	bl	800e750 <nvicEnableVector>
 800eb9a:	4620      	mov	r0, r4
 800eb9c:	bdf8      	pop	{r3, r4, r5, r6, r7, pc}
 800eb9e:	4c07      	ldr	r4, [pc, #28]	; (800ebbc <dmaStreamAllocate+0x8c>)
 800eba0:	6b23      	ldr	r3, [r4, #48]	; 0x30
 800eba2:	f443 0380 	orr.w	r3, r3, #4194304	; 0x400000
 800eba6:	6323      	str	r3, [r4, #48]	; 0x30
 800eba8:	e7e2      	b.n	800eb70 <dmaStreamAllocate+0x40>
 800ebaa:	4610      	mov	r0, r2
 800ebac:	bdf8      	pop	{r3, r4, r5, r6, r7, pc}
 800ebae:	4620      	mov	r0, r4
 800ebb0:	bdf8      	pop	{r3, r4, r5, r6, r7, pc}
 800ebb2:	bf00      	nop
 800ebb4:	20000f90 	.word	0x20000f90
 800ebb8:	20000f10 	.word	0x20000f10
 800ebbc:	40023800 	.word	0x40023800

0800ebc0 <dmaStreamRelease>:
 800ebc0:	b510      	push	{r4, lr}
 800ebc2:	4604      	mov	r4, r0
 800ebc4:	7a80      	ldrb	r0, [r0, #10]
 800ebc6:	f7ff fde3 	bl	800e790 <nvicDisableVector>
 800ebca:	490c      	ldr	r1, [pc, #48]	; (800ebfc <dmaStreamRelease+0x3c>)
 800ebcc:	7a60      	ldrb	r0, [r4, #9]
 800ebce:	680b      	ldr	r3, [r1, #0]
 800ebd0:	2201      	movs	r2, #1
 800ebd2:	4082      	lsls	r2, r0
 800ebd4:	ea23 0302 	bic.w	r3, r3, r2
 800ebd8:	f013 0fff 	tst.w	r3, #255	; 0xff
 800ebdc:	600b      	str	r3, [r1, #0]
 800ebde:	d104      	bne.n	800ebea <dmaStreamRelease+0x2a>
 800ebe0:	4907      	ldr	r1, [pc, #28]	; (800ec00 <dmaStreamRelease+0x40>)
 800ebe2:	6b0a      	ldr	r2, [r1, #48]	; 0x30
 800ebe4:	f422 1200 	bic.w	r2, r2, #2097152	; 0x200000
 800ebe8:	630a      	str	r2, [r1, #48]	; 0x30
 800ebea:	f413 4f7f 	tst.w	r3, #65280	; 0xff00
 800ebee:	d104      	bne.n	800ebfa <dmaStreamRelease+0x3a>
 800ebf0:	4a03      	ldr	r2, [pc, #12]	; (800ec00 <dmaStreamRelease+0x40>)
 800ebf2:	6b13      	ldr	r3, [r2, #48]	; 0x30
 800ebf4:	f423 0380 	bic.w	r3, r3, #4194304	; 0x400000
 800ebf8:	6313      	str	r3, [r2, #48]	; 0x30
 800ebfa:	bd10      	pop	{r4, pc}
 800ebfc:	20000f90 	.word	0x20000f90
 800ec00:	40023800 	.word	0x40023800
	...

0800ec10 <hal_lld_init>:
 800ec10:	4b17      	ldr	r3, [pc, #92]	; (800ec70 <hal_lld_init+0x60>)
 800ec12:	f04f 31ff 	mov.w	r1, #4294967295
 800ec16:	691a      	ldr	r2, [r3, #16]
 800ec18:	2200      	movs	r2, #0
 800ec1a:	b410      	push	{r4}
 800ec1c:	6119      	str	r1, [r3, #16]
 800ec1e:	611a      	str	r2, [r3, #16]
 800ec20:	6958      	ldr	r0, [r3, #20]
 800ec22:	6159      	str	r1, [r3, #20]
 800ec24:	615a      	str	r2, [r3, #20]
 800ec26:	6a18      	ldr	r0, [r3, #32]
 800ec28:	4c12      	ldr	r4, [pc, #72]	; (800ec74 <hal_lld_init+0x64>)
 800ec2a:	f060 5080 	orn	r0, r0, #268435456	; 0x10000000
 800ec2e:	6218      	str	r0, [r3, #32]
 800ec30:	621a      	str	r2, [r3, #32]
 800ec32:	6a58      	ldr	r0, [r3, #36]	; 0x24
 800ec34:	6259      	str	r1, [r3, #36]	; 0x24
 800ec36:	625a      	str	r2, [r3, #36]	; 0x24
 800ec38:	6c19      	ldr	r1, [r3, #64]	; 0x40
 800ec3a:	f041 5180 	orr.w	r1, r1, #268435456	; 0x10000000
 800ec3e:	6419      	str	r1, [r3, #64]	; 0x40
 800ec40:	6821      	ldr	r1, [r4, #0]
 800ec42:	f441 7180 	orr.w	r1, r1, #256	; 0x100
 800ec46:	6021      	str	r1, [r4, #0]
 800ec48:	6f19      	ldr	r1, [r3, #112]	; 0x70
 800ec4a:	f401 7140 	and.w	r1, r1, #768	; 0x300
 800ec4e:	f5b1 7f00 	cmp.w	r1, #512	; 0x200
 800ec52:	d003      	beq.n	800ec5c <hal_lld_init+0x4c>
 800ec54:	f44f 3180 	mov.w	r1, #65536	; 0x10000
 800ec58:	6719      	str	r1, [r3, #112]	; 0x70
 800ec5a:	671a      	str	r2, [r3, #112]	; 0x70
 800ec5c:	4a05      	ldr	r2, [pc, #20]	; (800ec74 <hal_lld_init+0x64>)
 800ec5e:	f85d 4b04 	ldr.w	r4, [sp], #4
 800ec62:	6853      	ldr	r3, [r2, #4]
 800ec64:	f423 7300 	bic.w	r3, r3, #512	; 0x200
 800ec68:	6053      	str	r3, [r2, #4]
 800ec6a:	f7ff bf31 	b.w	800ead0 <dmaInit>
 800ec6e:	bf00      	nop
 800ec70:	40023800 	.word	0x40023800
 800ec74:	40007000 	.word	0x40007000
	...

0800ec80 <stm32_clock_init>:
 800ec80:	4b2a      	ldr	r3, [pc, #168]	; (800ed2c <stm32_clock_init+0xac>)
 800ec82:	4a2b      	ldr	r2, [pc, #172]	; (800ed30 <stm32_clock_init+0xb0>)
 800ec84:	f04f 5080 	mov.w	r0, #268435456	; 0x10000000
 800ec88:	f44f 4140 	mov.w	r1, #49152	; 0xc000
 800ec8c:	6418      	str	r0, [r3, #64]	; 0x40
 800ec8e:	6011      	str	r1, [r2, #0]
 800ec90:	681a      	ldr	r2, [r3, #0]
 800ec92:	f042 0201 	orr.w	r2, r2, #1
 800ec96:	601a      	str	r2, [r3, #0]
 800ec98:	681a      	ldr	r2, [r3, #0]
 800ec9a:	0792      	lsls	r2, r2, #30
 800ec9c:	d5fc      	bpl.n	800ec98 <stm32_clock_init+0x18>
 800ec9e:	6899      	ldr	r1, [r3, #8]
 800eca0:	4a22      	ldr	r2, [pc, #136]	; (800ed2c <stm32_clock_init+0xac>)
 800eca2:	f021 0103 	bic.w	r1, r1, #3
 800eca6:	6099      	str	r1, [r3, #8]
 800eca8:	6899      	ldr	r1, [r3, #8]
 800ecaa:	6099      	str	r1, [r3, #8]
 800ecac:	6893      	ldr	r3, [r2, #8]
 800ecae:	f013 030c 	ands.w	r3, r3, #12
 800ecb2:	d1fb      	bne.n	800ecac <stm32_clock_init+0x2c>
 800ecb4:	6810      	ldr	r0, [r2, #0]
 800ecb6:	491d      	ldr	r1, [pc, #116]	; (800ed2c <stm32_clock_init+0xac>)
 800ecb8:	f000 00f9 	and.w	r0, r0, #249	; 0xf9
 800ecbc:	6010      	str	r0, [r2, #0]
 800ecbe:	6093      	str	r3, [r2, #8]
 800ecc0:	6813      	ldr	r3, [r2, #0]
 800ecc2:	f443 3380 	orr.w	r3, r3, #65536	; 0x10000
 800ecc6:	6013      	str	r3, [r2, #0]
 800ecc8:	680b      	ldr	r3, [r1, #0]
 800ecca:	0398      	lsls	r0, r3, #14
 800eccc:	d5fc      	bpl.n	800ecc8 <stm32_clock_init+0x48>
 800ecce:	6f4b      	ldr	r3, [r1, #116]	; 0x74
 800ecd0:	4a16      	ldr	r2, [pc, #88]	; (800ed2c <stm32_clock_init+0xac>)
 800ecd2:	f043 0301 	orr.w	r3, r3, #1
 800ecd6:	674b      	str	r3, [r1, #116]	; 0x74
 800ecd8:	6f53      	ldr	r3, [r2, #116]	; 0x74
 800ecda:	0799      	lsls	r1, r3, #30
 800ecdc:	d5fc      	bpl.n	800ecd8 <stm32_clock_init+0x58>
 800ecde:	4b15      	ldr	r3, [pc, #84]	; (800ed34 <stm32_clock_init+0xb4>)
 800ece0:	6053      	str	r3, [r2, #4]
 800ece2:	6813      	ldr	r3, [r2, #0]
 800ece4:	4912      	ldr	r1, [pc, #72]	; (800ed30 <stm32_clock_init+0xb0>)
 800ece6:	f043 7380 	orr.w	r3, r3, #16777216	; 0x1000000
 800ecea:	6013      	str	r3, [r2, #0]
 800ecec:	684b      	ldr	r3, [r1, #4]
 800ecee:	045a      	lsls	r2, r3, #17
 800ecf0:	d5fc      	bpl.n	800ecec <stm32_clock_init+0x6c>
 800ecf2:	490e      	ldr	r1, [pc, #56]	; (800ed2c <stm32_clock_init+0xac>)
 800ecf4:	680b      	ldr	r3, [r1, #0]
 800ecf6:	019b      	lsls	r3, r3, #6
 800ecf8:	d5fc      	bpl.n	800ecf4 <stm32_clock_init+0x74>
 800ecfa:	4b0f      	ldr	r3, [pc, #60]	; (800ed38 <stm32_clock_init+0xb8>)
 800ecfc:	4a0f      	ldr	r2, [pc, #60]	; (800ed3c <stm32_clock_init+0xbc>)
 800ecfe:	608a      	str	r2, [r1, #8]
 800ed00:	f240 7205 	movw	r2, #1797	; 0x705
 800ed04:	601a      	str	r2, [r3, #0]
 800ed06:	688b      	ldr	r3, [r1, #8]
 800ed08:	4a08      	ldr	r2, [pc, #32]	; (800ed2c <stm32_clock_init+0xac>)
 800ed0a:	f043 0302 	orr.w	r3, r3, #2
 800ed0e:	608b      	str	r3, [r1, #8]
 800ed10:	6893      	ldr	r3, [r2, #8]
 800ed12:	f003 030c 	and.w	r3, r3, #12
 800ed16:	2b08      	cmp	r3, #8
 800ed18:	d1fa      	bne.n	800ed10 <stm32_clock_init+0x90>
 800ed1a:	6c53      	ldr	r3, [r2, #68]	; 0x44
 800ed1c:	f443 4380 	orr.w	r3, r3, #16384	; 0x4000
 800ed20:	6453      	str	r3, [r2, #68]	; 0x44
 800ed22:	6e53      	ldr	r3, [r2, #100]	; 0x64
 800ed24:	f443 4380 	orr.w	r3, r3, #16384	; 0x4000
 800ed28:	6653      	str	r3, [r2, #100]	; 0x64
 800ed2a:	4770      	bx	lr
 800ed2c:	40023800 	.word	0x40023800
 800ed30:	40007000 	.word	0x40007000
 800ed34:	07405408 	.word	0x07405408
 800ed38:	40023c00 	.word	0x40023c00
 800ed3c:	38089400 	.word	0x38089400

0800ed40 <can_lld_set_filters>:
 800ed40:	b4f0      	push	{r4, r5, r6, r7}
 800ed42:	4d44      	ldr	r5, [pc, #272]	; (800ee54 <can_lld_set_filters+0x114>)
 800ed44:	4c44      	ldr	r4, [pc, #272]	; (800ee58 <can_lld_set_filters+0x118>)
 800ed46:	6c2b      	ldr	r3, [r5, #64]	; 0x40
 800ed48:	f043 7300 	orr.w	r3, r3, #33554432	; 0x2000000
 800ed4c:	642b      	str	r3, [r5, #64]	; 0x40
 800ed4e:	f8d4 3200 	ldr.w	r3, [r4, #512]	; 0x200
 800ed52:	0c1b      	lsrs	r3, r3, #16
 800ed54:	041b      	lsls	r3, r3, #16
 800ed56:	f043 0301 	orr.w	r3, r3, #1
 800ed5a:	ea43 2300 	orr.w	r3, r3, r0, lsl #8
 800ed5e:	f8c4 3200 	str.w	r3, [r4, #512]	; 0x200
 800ed62:	2900      	cmp	r1, #0
 800ed64:	d05b      	beq.n	800ee1e <can_lld_set_filters+0xde>
 800ed66:	2300      	movs	r3, #0
 800ed68:	f8c4 321c 	str.w	r3, [r4, #540]	; 0x21c
 800ed6c:	4618      	mov	r0, r3
 800ed6e:	f8c4 3204 	str.w	r3, [r4, #516]	; 0x204
 800ed72:	f8c4 320c 	str.w	r3, [r4, #524]	; 0x20c
 800ed76:	f8c4 3214 	str.w	r3, [r4, #532]	; 0x214
 800ed7a:	461c      	mov	r4, r3
 800ed7c:	00c3      	lsls	r3, r0, #3
 800ed7e:	f103 4380 	add.w	r3, r3, #1073741824	; 0x40000000
 800ed82:	f503 43c8 	add.w	r3, r3, #25600	; 0x6400
 800ed86:	3001      	adds	r0, #1
 800ed88:	281c      	cmp	r0, #28
 800ed8a:	f8c3 4240 	str.w	r4, [r3, #576]	; 0x240
 800ed8e:	f8c3 4244 	str.w	r4, [r3, #580]	; 0x244
 800ed92:	d1f3      	bne.n	800ed7c <can_lld_set_filters+0x3c>
 800ed94:	4d30      	ldr	r5, [pc, #192]	; (800ee58 <can_lld_set_filters+0x118>)
 800ed96:	2600      	movs	r6, #0
 800ed98:	2701      	movs	r7, #1
 800ed9a:	6810      	ldr	r0, [r2, #0]
 800ed9c:	7914      	ldrb	r4, [r2, #4]
 800ed9e:	00c3      	lsls	r3, r0, #3
 800eda0:	f103 4380 	add.w	r3, r3, #1073741824	; 0x40000000
 800eda4:	f014 0f01 	tst.w	r4, #1
 800eda8:	f503 43c8 	add.w	r3, r3, #25600	; 0x6400
 800edac:	f106 0601 	add.w	r6, r6, #1
 800edb0:	fa07 f000 	lsl.w	r0, r7, r0
 800edb4:	d005      	beq.n	800edc2 <can_lld_set_filters+0x82>
 800edb6:	f8d5 c204 	ldr.w	ip, [r5, #516]	; 0x204
 800edba:	ea4c 0c00 	orr.w	ip, ip, r0
 800edbe:	f8c5 c204 	str.w	ip, [r5, #516]	; 0x204
 800edc2:	f014 0f02 	tst.w	r4, #2
 800edc6:	d005      	beq.n	800edd4 <can_lld_set_filters+0x94>
 800edc8:	f8d5 c20c 	ldr.w	ip, [r5, #524]	; 0x20c
 800edcc:	ea4c 0c00 	orr.w	ip, ip, r0
 800edd0:	f8c5 c20c 	str.w	ip, [r5, #524]	; 0x20c
 800edd4:	0764      	lsls	r4, r4, #29
 800edd6:	d504      	bpl.n	800ede2 <can_lld_set_filters+0xa2>
 800edd8:	f8d5 4214 	ldr.w	r4, [r5, #532]	; 0x214
 800eddc:	4304      	orrs	r4, r0
 800edde:	f8c5 4214 	str.w	r4, [r5, #532]	; 0x214
 800ede2:	6894      	ldr	r4, [r2, #8]
 800ede4:	f8c3 4240 	str.w	r4, [r3, #576]	; 0x240
 800ede8:	68d4      	ldr	r4, [r2, #12]
 800edea:	f8c3 4244 	str.w	r4, [r3, #580]	; 0x244
 800edee:	f8d5 321c 	ldr.w	r3, [r5, #540]	; 0x21c
 800edf2:	42b1      	cmp	r1, r6
 800edf4:	ea40 0003 	orr.w	r0, r0, r3
 800edf8:	f102 0210 	add.w	r2, r2, #16
 800edfc:	f8c5 021c 	str.w	r0, [r5, #540]	; 0x21c
 800ee00:	d1cb      	bne.n	800ed9a <can_lld_set_filters+0x5a>
 800ee02:	4915      	ldr	r1, [pc, #84]	; (800ee58 <can_lld_set_filters+0x118>)
 800ee04:	4a13      	ldr	r2, [pc, #76]	; (800ee54 <can_lld_set_filters+0x114>)
 800ee06:	f8d1 3200 	ldr.w	r3, [r1, #512]	; 0x200
 800ee0a:	f023 0301 	bic.w	r3, r3, #1
 800ee0e:	f8c1 3200 	str.w	r3, [r1, #512]	; 0x200
 800ee12:	6c13      	ldr	r3, [r2, #64]	; 0x40
 800ee14:	f023 7300 	bic.w	r3, r3, #33554432	; 0x2000000
 800ee18:	6413      	str	r3, [r2, #64]	; 0x40
 800ee1a:	bcf0      	pop	{r4, r5, r6, r7}
 800ee1c:	4770      	bx	lr
 800ee1e:	00c2      	lsls	r2, r0, #3
 800ee20:	f102 4280 	add.w	r2, r2, #1073741824	; 0x40000000
 800ee24:	2301      	movs	r3, #1
 800ee26:	f502 42c8 	add.w	r2, r2, #25600	; 0x6400
 800ee2a:	4083      	lsls	r3, r0
 800ee2c:	f043 0301 	orr.w	r3, r3, #1
 800ee30:	f8c4 1240 	str.w	r1, [r4, #576]	; 0x240
 800ee34:	f8c4 1244 	str.w	r1, [r4, #580]	; 0x244
 800ee38:	f8c2 1240 	str.w	r1, [r2, #576]	; 0x240
 800ee3c:	f8c2 1244 	str.w	r1, [r2, #580]	; 0x244
 800ee40:	f8c4 1204 	str.w	r1, [r4, #516]	; 0x204
 800ee44:	f8c4 1214 	str.w	r1, [r4, #532]	; 0x214
 800ee48:	f8c4 320c 	str.w	r3, [r4, #524]	; 0x20c
 800ee4c:	f8c4 321c 	str.w	r3, [r4, #540]	; 0x21c
 800ee50:	e7d7      	b.n	800ee02 <can_lld_set_filters+0xc2>
 800ee52:	bf00      	nop
 800ee54:	40023800 	.word	0x40023800
 800ee58:	40006400 	.word	0x40006400
 800ee5c:	00000000 	.word	0x00000000

0800ee60 <Vector8C>:
 800ee60:	b510      	push	{r4, lr}
 800ee62:	4c0c      	ldr	r4, [pc, #48]	; (800ee94 <Vector8C+0x34>)
 800ee64:	490c      	ldr	r1, [pc, #48]	; (800ee98 <Vector8C+0x38>)
 800ee66:	6ae2      	ldr	r2, [r4, #44]	; 0x2c
 800ee68:	2320      	movs	r3, #32
 800ee6a:	6091      	str	r1, [r2, #8]
 800ee6c:	f383 8811 	msr	BASEPRI, r3
 800ee70:	2100      	movs	r1, #0
 800ee72:	f104 0008 	add.w	r0, r4, #8
 800ee76:	f7fe faab 	bl	800d3d0 <chThdDequeueAllI>
 800ee7a:	f104 001c 	add.w	r0, r4, #28
 800ee7e:	2101      	movs	r1, #1
 800ee80:	f7fe fc16 	bl	800d6b0 <chEvtBroadcastFlagsI>
 800ee84:	2300      	movs	r3, #0
 800ee86:	f383 8811 	msr	BASEPRI, r3
 800ee8a:	e8bd 4010 	ldmia.w	sp!, {r4, lr}
 800ee8e:	f7fe bdf7 	b.w	800da80 <_port_irq_epilogue>
 800ee92:	bf00      	nop
 800ee94:	20000f94 	.word	0x20000f94
 800ee98:	00010101 	.word	0x00010101
 800ee9c:	00000000 	.word	0x00000000

0800eea0 <Vector90>:
 800eea0:	b538      	push	{r3, r4, r5, lr}
 800eea2:	4c16      	ldr	r4, [pc, #88]	; (800eefc <Vector90+0x5c>)
 800eea4:	6ae3      	ldr	r3, [r4, #44]	; 0x2c
 800eea6:	68dd      	ldr	r5, [r3, #12]
 800eea8:	07aa      	lsls	r2, r5, #30
 800eeaa:	d111      	bne.n	800eed0 <Vector90+0x30>
 800eeac:	06eb      	lsls	r3, r5, #27
 800eeae:	d50b      	bpl.n	800eec8 <Vector90+0x28>
 800eeb0:	6ae3      	ldr	r3, [r4, #44]	; 0x2c
 800eeb2:	2110      	movs	r1, #16
 800eeb4:	60d9      	str	r1, [r3, #12]
 800eeb6:	2320      	movs	r3, #32
 800eeb8:	f383 8811 	msr	BASEPRI, r3
 800eebc:	4810      	ldr	r0, [pc, #64]	; (800ef00 <Vector90+0x60>)
 800eebe:	f7fe fbf7 	bl	800d6b0 <chEvtBroadcastFlagsI>
 800eec2:	2300      	movs	r3, #0
 800eec4:	f383 8811 	msr	BASEPRI, r3
 800eec8:	e8bd 4038 	ldmia.w	sp!, {r3, r4, r5, lr}
 800eecc:	f7fe bdd8 	b.w	800da80 <_port_irq_epilogue>
 800eed0:	695a      	ldr	r2, [r3, #20]
 800eed2:	f022 0202 	bic.w	r2, r2, #2
 800eed6:	615a      	str	r2, [r3, #20]
 800eed8:	2320      	movs	r3, #32
 800eeda:	f383 8811 	msr	BASEPRI, r3
 800eede:	2100      	movs	r1, #0
 800eee0:	f104 0010 	add.w	r0, r4, #16
 800eee4:	f7fe fa74 	bl	800d3d0 <chThdDequeueAllI>
 800eee8:	f104 0018 	add.w	r0, r4, #24
 800eeec:	2101      	movs	r1, #1
 800eeee:	f7fe fbdf 	bl	800d6b0 <chEvtBroadcastFlagsI>
 800eef2:	2300      	movs	r3, #0
 800eef4:	f383 8811 	msr	BASEPRI, r3
 800eef8:	e7d8      	b.n	800eeac <Vector90+0xc>
 800eefa:	bf00      	nop
 800eefc:	20000f94 	.word	0x20000f94
 800ef00:	20000fb4 	.word	0x20000fb4
	...

0800ef10 <Vector94>:
 800ef10:	b538      	push	{r3, r4, r5, lr}
 800ef12:	4c16      	ldr	r4, [pc, #88]	; (800ef6c <Vector94+0x5c>)
 800ef14:	6ae3      	ldr	r3, [r4, #44]	; 0x2c
 800ef16:	691d      	ldr	r5, [r3, #16]
 800ef18:	07aa      	lsls	r2, r5, #30
 800ef1a:	d111      	bne.n	800ef40 <Vector94+0x30>
 800ef1c:	06eb      	lsls	r3, r5, #27
 800ef1e:	d50b      	bpl.n	800ef38 <Vector94+0x28>
 800ef20:	6ae3      	ldr	r3, [r4, #44]	; 0x2c
 800ef22:	2110      	movs	r1, #16
 800ef24:	6119      	str	r1, [r3, #16]
 800ef26:	2320      	movs	r3, #32
 800ef28:	f383 8811 	msr	BASEPRI, r3
 800ef2c:	4810      	ldr	r0, [pc, #64]	; (800ef70 <Vector94+0x60>)
 800ef2e:	f7fe fbbf 	bl	800d6b0 <chEvtBroadcastFlagsI>
 800ef32:	2300      	movs	r3, #0
 800ef34:	f383 8811 	msr	BASEPRI, r3
 800ef38:	e8bd 4038 	ldmia.w	sp!, {r3, r4, r5, lr}
 800ef3c:	f7fe bda0 	b.w	800da80 <_port_irq_epilogue>
 800ef40:	695a      	ldr	r2, [r3, #20]
 800ef42:	f022 0210 	bic.w	r2, r2, #16
 800ef46:	615a      	str	r2, [r3, #20]
 800ef48:	2320      	movs	r3, #32
 800ef4a:	f383 8811 	msr	BASEPRI, r3
 800ef4e:	2100      	movs	r1, #0
 800ef50:	f104 0010 	add.w	r0, r4, #16
 800ef54:	f7fe fa3c 	bl	800d3d0 <chThdDequeueAllI>
 800ef58:	f104 0018 	add.w	r0, r4, #24
 800ef5c:	2102      	movs	r1, #2
 800ef5e:	f7fe fba7 	bl	800d6b0 <chEvtBroadcastFlagsI>
 800ef62:	2300      	movs	r3, #0
 800ef64:	f383 8811 	msr	BASEPRI, r3
 800ef68:	e7d8      	b.n	800ef1c <Vector94+0xc>
 800ef6a:	bf00      	nop
 800ef6c:	20000f94 	.word	0x20000f94
 800ef70:	20000fb4 	.word	0x20000fb4
	...

0800ef80 <Vector98>:
 800ef80:	b538      	push	{r3, r4, r5, lr}
 800ef82:	4d1b      	ldr	r5, [pc, #108]	; (800eff0 <Vector98+0x70>)
 800ef84:	6aeb      	ldr	r3, [r5, #44]	; 0x2c
 800ef86:	685c      	ldr	r4, [r3, #4]
 800ef88:	221c      	movs	r2, #28
 800ef8a:	605a      	str	r2, [r3, #4]
 800ef8c:	0722      	lsls	r2, r4, #28
 800ef8e:	d41d      	bmi.n	800efcc <Vector98+0x4c>
 800ef90:	0763      	lsls	r3, r4, #29
 800ef92:	d517      	bpl.n	800efc4 <Vector98+0x44>
 800ef94:	6aea      	ldr	r2, [r5, #44]	; 0x2c
 800ef96:	6993      	ldr	r3, [r2, #24]
 800ef98:	6991      	ldr	r1, [r2, #24]
 800ef9a:	f021 0170 	bic.w	r1, r1, #112	; 0x70
 800ef9e:	6191      	str	r1, [r2, #24]
 800efa0:	f013 0f70 	tst.w	r3, #112	; 0x70
 800efa4:	f003 0107 	and.w	r1, r3, #7
 800efa8:	bf18      	it	ne
 800efaa:	f041 0108 	orrne.w	r1, r1, #8
 800efae:	2220      	movs	r2, #32
 800efb0:	f382 8811 	msr	BASEPRI, r2
 800efb4:	480f      	ldr	r0, [pc, #60]	; (800eff4 <Vector98+0x74>)
 800efb6:	ea41 4103 	orr.w	r1, r1, r3, lsl #16
 800efba:	f7fe fb79 	bl	800d6b0 <chEvtBroadcastFlagsI>
 800efbe:	2300      	movs	r3, #0
 800efc0:	f383 8811 	msr	BASEPRI, r3
 800efc4:	e8bd 4038 	ldmia.w	sp!, {r3, r4, r5, lr}
 800efc8:	f7fe bd5a 	b.w	800da80 <_port_irq_epilogue>
 800efcc:	681a      	ldr	r2, [r3, #0]
 800efce:	4628      	mov	r0, r5
 800efd0:	f022 0202 	bic.w	r2, r2, #2
 800efd4:	2103      	movs	r1, #3
 800efd6:	f800 1b28 	strb.w	r1, [r0], #40
 800efda:	2120      	movs	r1, #32
 800efdc:	601a      	str	r2, [r3, #0]
 800efde:	f381 8811 	msr	BASEPRI, r1
 800efe2:	2100      	movs	r1, #0
 800efe4:	f7fe fb64 	bl	800d6b0 <chEvtBroadcastFlagsI>
 800efe8:	2300      	movs	r3, #0
 800efea:	f383 8811 	msr	BASEPRI, r3
 800efee:	e7cf      	b.n	800ef90 <Vector98+0x10>
 800eff0:	20000f94 	.word	0x20000f94
 800eff4:	20000fb4 	.word	0x20000fb4
	...

0800f000 <can_lld_init>:
 800f000:	b510      	push	{r4, lr}
 800f002:	4c06      	ldr	r4, [pc, #24]	; (800f01c <can_lld_init+0x1c>)
 800f004:	4620      	mov	r0, r4
 800f006:	f7fe fd93 	bl	800db30 <canObjectInit>
 800f00a:	2200      	movs	r2, #0
 800f00c:	4b04      	ldr	r3, [pc, #16]	; (800f020 <can_lld_init+0x20>)
 800f00e:	62e3      	str	r3, [r4, #44]	; 0x2c
 800f010:	4611      	mov	r1, r2
 800f012:	200e      	movs	r0, #14
 800f014:	e8bd 4010 	ldmia.w	sp!, {r4, lr}
 800f018:	f7ff be92 	b.w	800ed40 <can_lld_set_filters>
 800f01c:	20000f94 	.word	0x20000f94
 800f020:	40006400 	.word	0x40006400
	...

0800f030 <can_lld_start>:
 800f030:	4b18      	ldr	r3, [pc, #96]	; (800f094 <can_lld_start+0x64>)
 800f032:	4298      	cmp	r0, r3
 800f034:	b510      	push	{r4, lr}
 800f036:	4604      	mov	r4, r0
 800f038:	d015      	beq.n	800f066 <can_lld_start+0x36>
 800f03a:	6ae3      	ldr	r3, [r4, #44]	; 0x2c
 800f03c:	2201      	movs	r2, #1
 800f03e:	601a      	str	r2, [r3, #0]
 800f040:	685a      	ldr	r2, [r3, #4]
 800f042:	07d1      	lsls	r1, r2, #31
 800f044:	d407      	bmi.n	800f056 <can_lld_start+0x26>
 800f046:	2101      	movs	r1, #1
 800f048:	2008      	movs	r0, #8
 800f04a:	f7fd ffe9 	bl	800d020 <chSchGoSleepTimeoutS>
 800f04e:	6ae3      	ldr	r3, [r4, #44]	; 0x2c
 800f050:	685a      	ldr	r2, [r3, #4]
 800f052:	07d2      	lsls	r2, r2, #31
 800f054:	d5f7      	bpl.n	800f046 <can_lld_start+0x16>
 800f056:	6862      	ldr	r2, [r4, #4]
 800f058:	490f      	ldr	r1, [pc, #60]	; (800f098 <can_lld_start+0x68>)
 800f05a:	e9d2 2000 	ldrd	r2, r0, [r2]
 800f05e:	61d8      	str	r0, [r3, #28]
 800f060:	601a      	str	r2, [r3, #0]
 800f062:	6159      	str	r1, [r3, #20]
 800f064:	bd10      	pop	{r4, pc}
 800f066:	210b      	movs	r1, #11
 800f068:	2013      	movs	r0, #19
 800f06a:	f7ff fb71 	bl	800e750 <nvicEnableVector>
 800f06e:	210b      	movs	r1, #11
 800f070:	2014      	movs	r0, #20
 800f072:	f7ff fb6d 	bl	800e750 <nvicEnableVector>
 800f076:	210b      	movs	r1, #11
 800f078:	2015      	movs	r0, #21
 800f07a:	f7ff fb69 	bl	800e750 <nvicEnableVector>
 800f07e:	210b      	movs	r1, #11
 800f080:	2016      	movs	r0, #22
 800f082:	f7ff fb65 	bl	800e750 <nvicEnableVector>
 800f086:	4a05      	ldr	r2, [pc, #20]	; (800f09c <can_lld_start+0x6c>)
 800f088:	6c13      	ldr	r3, [r2, #64]	; 0x40
 800f08a:	f043 7300 	orr.w	r3, r3, #33554432	; 0x2000000
 800f08e:	6413      	str	r3, [r2, #64]	; 0x40
 800f090:	e7d3      	b.n	800f03a <can_lld_start+0xa>
 800f092:	bf00      	nop
 800f094:	20000f94 	.word	0x20000f94
 800f098:	00018f5b 	.word	0x00018f5b
 800f09c:	40023800 	.word	0x40023800

0800f0a0 <can_lld_is_rx_nonempty>:
 800f0a0:	2901      	cmp	r1, #1
 800f0a2:	d011      	beq.n	800f0c8 <can_lld_is_rx_nonempty+0x28>
 800f0a4:	d30a      	bcc.n	800f0bc <can_lld_is_rx_nonempty+0x1c>
 800f0a6:	2902      	cmp	r1, #2
 800f0a8:	d106      	bne.n	800f0b8 <can_lld_is_rx_nonempty+0x18>
 800f0aa:	6ac3      	ldr	r3, [r0, #44]	; 0x2c
 800f0ac:	6918      	ldr	r0, [r3, #16]
 800f0ae:	f010 0003 	ands.w	r0, r0, #3
 800f0b2:	bf18      	it	ne
 800f0b4:	2001      	movne	r0, #1
 800f0b6:	4770      	bx	lr
 800f0b8:	2000      	movs	r0, #0
 800f0ba:	4770      	bx	lr
 800f0bc:	6ac3      	ldr	r3, [r0, #44]	; 0x2c
 800f0be:	68da      	ldr	r2, [r3, #12]
 800f0c0:	0792      	lsls	r2, r2, #30
 800f0c2:	d0f3      	beq.n	800f0ac <can_lld_is_rx_nonempty+0xc>
 800f0c4:	2001      	movs	r0, #1
 800f0c6:	4770      	bx	lr
 800f0c8:	6ac3      	ldr	r3, [r0, #44]	; 0x2c
 800f0ca:	68d8      	ldr	r0, [r3, #12]
 800f0cc:	f010 0003 	ands.w	r0, r0, #3
 800f0d0:	bf18      	it	ne
 800f0d2:	2001      	movne	r0, #1
 800f0d4:	4770      	bx	lr
 800f0d6:	bf00      	nop
	...

0800f0e0 <can_lld_receive>:
 800f0e0:	b430      	push	{r4, r5}
 800f0e2:	2900      	cmp	r1, #0
 800f0e4:	d12f      	bne.n	800f146 <can_lld_receive+0x66>
 800f0e6:	6ac3      	ldr	r3, [r0, #44]	; 0x2c
 800f0e8:	68d9      	ldr	r1, [r3, #12]
 800f0ea:	0788      	lsls	r0, r1, #30
 800f0ec:	d044      	beq.n	800f178 <can_lld_receive+0x98>
 800f0ee:	f8d3 01b0 	ldr.w	r0, [r3, #432]	; 0x1b0
 800f0f2:	f8d3 11b4 	ldr.w	r1, [r3, #436]	; 0x1b4
 800f0f6:	f8d3 41b8 	ldr.w	r4, [r3, #440]	; 0x1b8
 800f0fa:	f8d3 51bc 	ldr.w	r5, [r3, #444]	; 0x1bc
 800f0fe:	60d4      	str	r4, [r2, #12]
 800f100:	2420      	movs	r4, #32
 800f102:	6115      	str	r5, [r2, #16]
 800f104:	60dc      	str	r4, [r3, #12]
 800f106:	68dc      	ldr	r4, [r3, #12]
 800f108:	07a5      	lsls	r5, r4, #30
 800f10a:	d103      	bne.n	800f114 <can_lld_receive+0x34>
 800f10c:	695c      	ldr	r4, [r3, #20]
 800f10e:	f044 0402 	orr.w	r4, r4, #2
 800f112:	615c      	str	r4, [r3, #20]
 800f114:	7913      	ldrb	r3, [r2, #4]
 800f116:	0844      	lsrs	r4, r0, #1
 800f118:	f364 1304 	bfi	r3, r4, #4, #1
 800f11c:	0884      	lsrs	r4, r0, #2
 800f11e:	f364 1345 	bfi	r3, r4, #5, #1
 800f122:	7113      	strb	r3, [r2, #4]
 800f124:	069b      	lsls	r3, r3, #26
 800f126:	d52b      	bpl.n	800f180 <can_lld_receive+0xa0>
 800f128:	6893      	ldr	r3, [r2, #8]
 800f12a:	08c0      	lsrs	r0, r0, #3
 800f12c:	f360 031c 	bfi	r3, r0, #0, #29
 800f130:	6093      	str	r3, [r2, #8]
 800f132:	7913      	ldrb	r3, [r2, #4]
 800f134:	0a08      	lsrs	r0, r1, #8
 800f136:	f361 0303 	bfi	r3, r1, #0, #4
 800f13a:	0c09      	lsrs	r1, r1, #16
 800f13c:	7113      	strb	r3, [r2, #4]
 800f13e:	7010      	strb	r0, [r2, #0]
 800f140:	8051      	strh	r1, [r2, #2]
 800f142:	bc30      	pop	{r4, r5}
 800f144:	4770      	bx	lr
 800f146:	2901      	cmp	r1, #1
 800f148:	d020      	beq.n	800f18c <can_lld_receive+0xac>
 800f14a:	2902      	cmp	r1, #2
 800f14c:	d1f9      	bne.n	800f142 <can_lld_receive+0x62>
 800f14e:	6ac3      	ldr	r3, [r0, #44]	; 0x2c
 800f150:	f8d3 01c0 	ldr.w	r0, [r3, #448]	; 0x1c0
 800f154:	f8d3 11c4 	ldr.w	r1, [r3, #452]	; 0x1c4
 800f158:	f8d3 41c8 	ldr.w	r4, [r3, #456]	; 0x1c8
 800f15c:	f8d3 51cc 	ldr.w	r5, [r3, #460]	; 0x1cc
 800f160:	60d4      	str	r4, [r2, #12]
 800f162:	2420      	movs	r4, #32
 800f164:	6115      	str	r5, [r2, #16]
 800f166:	611c      	str	r4, [r3, #16]
 800f168:	691c      	ldr	r4, [r3, #16]
 800f16a:	07a4      	lsls	r4, r4, #30
 800f16c:	d1d2      	bne.n	800f114 <can_lld_receive+0x34>
 800f16e:	695c      	ldr	r4, [r3, #20]
 800f170:	f044 0410 	orr.w	r4, r4, #16
 800f174:	615c      	str	r4, [r3, #20]
 800f176:	e7cd      	b.n	800f114 <can_lld_receive+0x34>
 800f178:	6919      	ldr	r1, [r3, #16]
 800f17a:	0789      	lsls	r1, r1, #30
 800f17c:	d1e8      	bne.n	800f150 <can_lld_receive+0x70>
 800f17e:	e7e0      	b.n	800f142 <can_lld_receive+0x62>
 800f180:	8913      	ldrh	r3, [r2, #8]
 800f182:	0d40      	lsrs	r0, r0, #21
 800f184:	f360 030a 	bfi	r3, r0, #0, #11
 800f188:	8113      	strh	r3, [r2, #8]
 800f18a:	e7d2      	b.n	800f132 <can_lld_receive+0x52>
 800f18c:	6ac3      	ldr	r3, [r0, #44]	; 0x2c
 800f18e:	e7ae      	b.n	800f0ee <can_lld_receive+0xe>

0800f190 <_pal_lld_init>:
 800f190:	4968      	ldr	r1, [pc, #416]	; (800f334 <_pal_lld_init+0x1a4>)
 800f192:	4a69      	ldr	r2, [pc, #420]	; (800f338 <_pal_lld_init+0x1a8>)
 800f194:	4b69      	ldr	r3, [pc, #420]	; (800f33c <_pal_lld_init+0x1ac>)
 800f196:	b470      	push	{r4, r5, r6}
 800f198:	6b0d      	ldr	r5, [r1, #48]	; 0x30
 800f19a:	f240 16ff 	movw	r6, #511	; 0x1ff
 800f19e:	4335      	orrs	r5, r6
 800f1a0:	630d      	str	r5, [r1, #48]	; 0x30
 800f1a2:	6d0c      	ldr	r4, [r1, #80]	; 0x50
 800f1a4:	4334      	orrs	r4, r6
 800f1a6:	650c      	str	r4, [r1, #80]	; 0x50
 800f1a8:	6841      	ldr	r1, [r0, #4]
 800f1aa:	6051      	str	r1, [r2, #4]
 800f1ac:	6881      	ldr	r1, [r0, #8]
 800f1ae:	6091      	str	r1, [r2, #8]
 800f1b0:	68c1      	ldr	r1, [r0, #12]
 800f1b2:	60d1      	str	r1, [r2, #12]
 800f1b4:	6901      	ldr	r1, [r0, #16]
 800f1b6:	6151      	str	r1, [r2, #20]
 800f1b8:	6941      	ldr	r1, [r0, #20]
 800f1ba:	6211      	str	r1, [r2, #32]
 800f1bc:	6981      	ldr	r1, [r0, #24]
 800f1be:	6251      	str	r1, [r2, #36]	; 0x24
 800f1c0:	6801      	ldr	r1, [r0, #0]
 800f1c2:	6011      	str	r1, [r2, #0]
 800f1c4:	6a02      	ldr	r2, [r0, #32]
 800f1c6:	605a      	str	r2, [r3, #4]
 800f1c8:	6a42      	ldr	r2, [r0, #36]	; 0x24
 800f1ca:	609a      	str	r2, [r3, #8]
 800f1cc:	6a82      	ldr	r2, [r0, #40]	; 0x28
 800f1ce:	60da      	str	r2, [r3, #12]
 800f1d0:	6ac2      	ldr	r2, [r0, #44]	; 0x2c
 800f1d2:	615a      	str	r2, [r3, #20]
 800f1d4:	6b02      	ldr	r2, [r0, #48]	; 0x30
 800f1d6:	621a      	str	r2, [r3, #32]
 800f1d8:	6b42      	ldr	r2, [r0, #52]	; 0x34
 800f1da:	625a      	str	r2, [r3, #36]	; 0x24
 800f1dc:	69c2      	ldr	r2, [r0, #28]
 800f1de:	601a      	str	r2, [r3, #0]
 800f1e0:	6bc2      	ldr	r2, [r0, #60]	; 0x3c
 800f1e2:	f8c3 2404 	str.w	r2, [r3, #1028]	; 0x404
 800f1e6:	6c02      	ldr	r2, [r0, #64]	; 0x40
 800f1e8:	f8c3 2408 	str.w	r2, [r3, #1032]	; 0x408
 800f1ec:	6c42      	ldr	r2, [r0, #68]	; 0x44
 800f1ee:	f8c3 240c 	str.w	r2, [r3, #1036]	; 0x40c
 800f1f2:	6c82      	ldr	r2, [r0, #72]	; 0x48
 800f1f4:	f8c3 2414 	str.w	r2, [r3, #1044]	; 0x414
 800f1f8:	6cc2      	ldr	r2, [r0, #76]	; 0x4c
 800f1fa:	f8c3 2420 	str.w	r2, [r3, #1056]	; 0x420
 800f1fe:	6d02      	ldr	r2, [r0, #80]	; 0x50
 800f200:	f8c3 2424 	str.w	r2, [r3, #1060]	; 0x424
 800f204:	6b82      	ldr	r2, [r0, #56]	; 0x38
 800f206:	f8c3 2400 	str.w	r2, [r3, #1024]	; 0x400
 800f20a:	f503 6300 	add.w	r3, r3, #2048	; 0x800
 800f20e:	6d82      	ldr	r2, [r0, #88]	; 0x58
 800f210:	605a      	str	r2, [r3, #4]
 800f212:	6dc2      	ldr	r2, [r0, #92]	; 0x5c
 800f214:	609a      	str	r2, [r3, #8]
 800f216:	6e02      	ldr	r2, [r0, #96]	; 0x60
 800f218:	60da      	str	r2, [r3, #12]
 800f21a:	6e42      	ldr	r2, [r0, #100]	; 0x64
 800f21c:	615a      	str	r2, [r3, #20]
 800f21e:	6e82      	ldr	r2, [r0, #104]	; 0x68
 800f220:	621a      	str	r2, [r3, #32]
 800f222:	6ec2      	ldr	r2, [r0, #108]	; 0x6c
 800f224:	625a      	str	r2, [r3, #36]	; 0x24
 800f226:	6d42      	ldr	r2, [r0, #84]	; 0x54
 800f228:	601a      	str	r2, [r3, #0]
 800f22a:	6f42      	ldr	r2, [r0, #116]	; 0x74
 800f22c:	f8c3 2404 	str.w	r2, [r3, #1028]	; 0x404
 800f230:	6f82      	ldr	r2, [r0, #120]	; 0x78
 800f232:	f8c3 2408 	str.w	r2, [r3, #1032]	; 0x408
 800f236:	6fc2      	ldr	r2, [r0, #124]	; 0x7c
 800f238:	f8c3 240c 	str.w	r2, [r3, #1036]	; 0x40c
 800f23c:	f8d0 2080 	ldr.w	r2, [r0, #128]	; 0x80
 800f240:	f8c3 2414 	str.w	r2, [r3, #1044]	; 0x414
 800f244:	f8d0 2084 	ldr.w	r2, [r0, #132]	; 0x84
 800f248:	f8c3 2420 	str.w	r2, [r3, #1056]	; 0x420
 800f24c:	f8d0 2088 	ldr.w	r2, [r0, #136]	; 0x88
 800f250:	f8c3 2424 	str.w	r2, [r3, #1060]	; 0x424
 800f254:	6f02      	ldr	r2, [r0, #112]	; 0x70
 800f256:	f8c3 2400 	str.w	r2, [r3, #1024]	; 0x400
 800f25a:	f8d0 2090 	ldr.w	r2, [r0, #144]	; 0x90
 800f25e:	f8c3 2804 	str.w	r2, [r3, #2052]	; 0x804
 800f262:	f8d0 2094 	ldr.w	r2, [r0, #148]	; 0x94
 800f266:	f8c3 2808 	str.w	r2, [r3, #2056]	; 0x808
 800f26a:	f8d0 2098 	ldr.w	r2, [r0, #152]	; 0x98
 800f26e:	f8c3 280c 	str.w	r2, [r3, #2060]	; 0x80c
 800f272:	f8d0 209c 	ldr.w	r2, [r0, #156]	; 0x9c
 800f276:	f8c3 2814 	str.w	r2, [r3, #2068]	; 0x814
 800f27a:	f8d0 20a0 	ldr.w	r2, [r0, #160]	; 0xa0
 800f27e:	f8c3 2820 	str.w	r2, [r3, #2080]	; 0x820
 800f282:	f8d0 20a4 	ldr.w	r2, [r0, #164]	; 0xa4
 800f286:	f8c3 2824 	str.w	r2, [r3, #2084]	; 0x824
 800f28a:	f8d0 208c 	ldr.w	r2, [r0, #140]	; 0x8c
 800f28e:	f8c3 2800 	str.w	r2, [r3, #2048]	; 0x800
 800f292:	f503 6340 	add.w	r3, r3, #3072	; 0xc00
 800f296:	f8d0 20ac 	ldr.w	r2, [r0, #172]	; 0xac
 800f29a:	605a      	str	r2, [r3, #4]
 800f29c:	f8d0 20b0 	ldr.w	r2, [r0, #176]	; 0xb0
 800f2a0:	609a      	str	r2, [r3, #8]
 800f2a2:	f8d0 20b4 	ldr.w	r2, [r0, #180]	; 0xb4
 800f2a6:	60da      	str	r2, [r3, #12]
 800f2a8:	f8d0 20b8 	ldr.w	r2, [r0, #184]	; 0xb8
 800f2ac:	615a      	str	r2, [r3, #20]
 800f2ae:	f8d0 20bc 	ldr.w	r2, [r0, #188]	; 0xbc
 800f2b2:	621a      	str	r2, [r3, #32]
 800f2b4:	f8d0 20c0 	ldr.w	r2, [r0, #192]	; 0xc0
 800f2b8:	625a      	str	r2, [r3, #36]	; 0x24
 800f2ba:	f8d0 20a8 	ldr.w	r2, [r0, #168]	; 0xa8
 800f2be:	601a      	str	r2, [r3, #0]
 800f2c0:	f8d0 20c8 	ldr.w	r2, [r0, #200]	; 0xc8
 800f2c4:	f8c3 2404 	str.w	r2, [r3, #1028]	; 0x404
 800f2c8:	f8d0 20cc 	ldr.w	r2, [r0, #204]	; 0xcc
 800f2cc:	f8c3 2408 	str.w	r2, [r3, #1032]	; 0x408
 800f2d0:	f8d0 20d0 	ldr.w	r2, [r0, #208]	; 0xd0
 800f2d4:	f8c3 240c 	str.w	r2, [r3, #1036]	; 0x40c
 800f2d8:	f8d0 20d4 	ldr.w	r2, [r0, #212]	; 0xd4
 800f2dc:	f8c3 2414 	str.w	r2, [r3, #1044]	; 0x414
 800f2e0:	f8d0 20d8 	ldr.w	r2, [r0, #216]	; 0xd8
 800f2e4:	f8c3 2420 	str.w	r2, [r3, #1056]	; 0x420
 800f2e8:	f8d0 20dc 	ldr.w	r2, [r0, #220]	; 0xdc
 800f2ec:	f8c3 2424 	str.w	r2, [r3, #1060]	; 0x424
 800f2f0:	f8d0 20c4 	ldr.w	r2, [r0, #196]	; 0xc4
 800f2f4:	f8c3 2400 	str.w	r2, [r3, #1024]	; 0x400
 800f2f8:	f8d0 20e4 	ldr.w	r2, [r0, #228]	; 0xe4
 800f2fc:	f8c3 2804 	str.w	r2, [r3, #2052]	; 0x804
 800f300:	f8d0 20e8 	ldr.w	r2, [r0, #232]	; 0xe8
 800f304:	f8c3 2808 	str.w	r2, [r3, #2056]	; 0x808
 800f308:	f8d0 20ec 	ldr.w	r2, [r0, #236]	; 0xec
 800f30c:	f8c3 280c 	str.w	r2, [r3, #2060]	; 0x80c
 800f310:	f8d0 20f0 	ldr.w	r2, [r0, #240]	; 0xf0
 800f314:	f8c3 2814 	str.w	r2, [r3, #2068]	; 0x814
 800f318:	f8d0 20f4 	ldr.w	r2, [r0, #244]	; 0xf4
 800f31c:	f8c3 2820 	str.w	r2, [r3, #2080]	; 0x820
 800f320:	f8d0 20f8 	ldr.w	r2, [r0, #248]	; 0xf8
 800f324:	f8c3 2824 	str.w	r2, [r3, #2084]	; 0x824
 800f328:	f8d0 20e0 	ldr.w	r2, [r0, #224]	; 0xe0
 800f32c:	f8c3 2800 	str.w	r2, [r3, #2048]	; 0x800
 800f330:	bc70      	pop	{r4, r5, r6}
 800f332:	4770      	bx	lr
 800f334:	40023800 	.word	0x40023800
 800f338:	40020000 	.word	0x40020000
 800f33c:	40020400 	.word	0x40020400

0800f340 <_pal_lld_setgroupmode>:
 800f340:	e92d 4ff0 	stmdb	sp!, {r4, r5, r6, r7, r8, r9, sl, fp, lr}
 800f344:	f002 0c03 	and.w	ip, r2, #3
 800f348:	f3c2 0780 	ubfx	r7, r2, #2, #1
 800f34c:	f3c2 06c1 	ubfx	r6, r2, #3, #2
 800f350:	f3c2 1541 	ubfx	r5, r2, #5, #2
 800f354:	2400      	movs	r4, #0
 800f356:	f3c2 12c3 	ubfx	r2, r2, #7, #4
 800f35a:	f04f 0e0f 	mov.w	lr, #15
 800f35e:	f04f 0901 	mov.w	r9, #1
 800f362:	f04f 0803 	mov.w	r8, #3
 800f366:	e030      	b.n	800f3ca <_pal_lld_setgroupmode+0x8a>
 800f368:	f8d0 b020 	ldr.w	fp, [r0, #32]
 800f36c:	ea0b 0a0a 	and.w	sl, fp, sl
 800f370:	ea4a 0303 	orr.w	r3, sl, r3
 800f374:	6203      	str	r3, [r0, #32]
 800f376:	6843      	ldr	r3, [r0, #4]
 800f378:	fa09 fa04 	lsl.w	sl, r9, r4
 800f37c:	ea23 030a 	bic.w	r3, r3, sl
 800f380:	433b      	orrs	r3, r7
 800f382:	6043      	str	r3, [r0, #4]
 800f384:	0063      	lsls	r3, r4, #1
 800f386:	f8d0 a008 	ldr.w	sl, [r0, #8]
 800f38a:	fa08 f303 	lsl.w	r3, r8, r3
 800f38e:	43db      	mvns	r3, r3
 800f390:	ea0a 0a03 	and.w	sl, sl, r3
 800f394:	ea4a 0a06 	orr.w	sl, sl, r6
 800f398:	f8c0 a008 	str.w	sl, [r0, #8]
 800f39c:	f8d0 a00c 	ldr.w	sl, [r0, #12]
 800f3a0:	ea03 0a0a 	and.w	sl, r3, sl
 800f3a4:	ea4a 0a05 	orr.w	sl, sl, r5
 800f3a8:	f8c0 a00c 	str.w	sl, [r0, #12]
 800f3ac:	f8d0 a000 	ldr.w	sl, [r0]
 800f3b0:	ea03 030a 	and.w	r3, r3, sl
 800f3b4:	ea43 030c 	orr.w	r3, r3, ip
 800f3b8:	6003      	str	r3, [r0, #0]
 800f3ba:	0849      	lsrs	r1, r1, #1
 800f3bc:	d01b      	beq.n	800f3f6 <_pal_lld_setgroupmode+0xb6>
 800f3be:	007f      	lsls	r7, r7, #1
 800f3c0:	00b6      	lsls	r6, r6, #2
 800f3c2:	00ad      	lsls	r5, r5, #2
 800f3c4:	ea4f 0c8c 	mov.w	ip, ip, lsl #2
 800f3c8:	3401      	adds	r4, #1
 800f3ca:	f004 0307 	and.w	r3, r4, #7
 800f3ce:	009b      	lsls	r3, r3, #2
 800f3d0:	fa0e fa03 	lsl.w	sl, lr, r3
 800f3d4:	f011 0f01 	tst.w	r1, #1
 800f3d8:	fa02 f303 	lsl.w	r3, r2, r3
 800f3dc:	ea6f 0a0a 	mvn.w	sl, sl
 800f3e0:	d0eb      	beq.n	800f3ba <_pal_lld_setgroupmode+0x7a>
 800f3e2:	2c07      	cmp	r4, #7
 800f3e4:	d9c0      	bls.n	800f368 <_pal_lld_setgroupmode+0x28>
 800f3e6:	f8d0 b024 	ldr.w	fp, [r0, #36]	; 0x24
 800f3ea:	ea0b 0a0a 	and.w	sl, fp, sl
 800f3ee:	ea4a 0303 	orr.w	r3, sl, r3
 800f3f2:	6243      	str	r3, [r0, #36]	; 0x24
 800f3f4:	e7bf      	b.n	800f376 <_pal_lld_setgroupmode+0x36>
 800f3f6:	e8bd 8ff0 	ldmia.w	sp!, {r4, r5, r6, r7, r8, r9, sl, fp, pc}
 800f3fa:	bf00      	nop
 800f3fc:	0000      	movs	r0, r0
	...

0800f400 <i2c_lld_serve_tx_end_irq>:
 800f400:	f011 0f0c 	tst.w	r1, #12
 800f404:	b538      	push	{r3, r4, r5, lr}
 800f406:	4605      	mov	r5, r0
 800f408:	6b44      	ldr	r4, [r0, #52]	; 0x34
 800f40a:	d112      	bne.n	800f432 <i2c_lld_serve_tx_end_irq+0x32>
 800f40c:	6b29      	ldr	r1, [r5, #48]	; 0x30
 800f40e:	680a      	ldr	r2, [r1, #0]
 800f410:	6813      	ldr	r3, [r2, #0]
 800f412:	f023 031f 	bic.w	r3, r3, #31
 800f416:	6013      	str	r3, [r2, #0]
 800f418:	6813      	ldr	r3, [r2, #0]
 800f41a:	07db      	lsls	r3, r3, #31
 800f41c:	d4fc      	bmi.n	800f418 <i2c_lld_serve_tx_end_irq+0x18>
 800f41e:	7a08      	ldrb	r0, [r1, #8]
 800f420:	684a      	ldr	r2, [r1, #4]
 800f422:	233d      	movs	r3, #61	; 0x3d
 800f424:	4083      	lsls	r3, r0
 800f426:	6013      	str	r3, [r2, #0]
 800f428:	6863      	ldr	r3, [r4, #4]
 800f42a:	f443 7300 	orr.w	r3, r3, #512	; 0x200
 800f42e:	6063      	str	r3, [r4, #4]
 800f430:	bd38      	pop	{r3, r4, r5, pc}
 800f432:	4802      	ldr	r0, [pc, #8]	; (800f43c <i2c_lld_serve_tx_end_irq+0x3c>)
 800f434:	f7fd fcec 	bl	800ce10 <chSysHalt>
 800f438:	e7e8      	b.n	800f40c <i2c_lld_serve_tx_end_irq+0xc>
 800f43a:	bf00      	nop
 800f43c:	08016bc0 	.word	0x08016bc0

0800f440 <i2c_lld_serve_rx_end_irq>:
 800f440:	f011 0f0c 	tst.w	r1, #12
 800f444:	b570      	push	{r4, r5, r6, lr}
 800f446:	4606      	mov	r6, r0
 800f448:	6b45      	ldr	r5, [r0, #52]	; 0x34
 800f44a:	d125      	bne.n	800f498 <i2c_lld_serve_rx_end_irq+0x58>
 800f44c:	6af2      	ldr	r2, [r6, #44]	; 0x2c
 800f44e:	6813      	ldr	r3, [r2, #0]
 800f450:	6819      	ldr	r1, [r3, #0]
 800f452:	f021 011f 	bic.w	r1, r1, #31
 800f456:	6019      	str	r1, [r3, #0]
 800f458:	681c      	ldr	r4, [r3, #0]
 800f45a:	f014 0401 	ands.w	r4, r4, #1
 800f45e:	d1fb      	bne.n	800f458 <i2c_lld_serve_rx_end_irq+0x18>
 800f460:	7a11      	ldrb	r1, [r2, #8]
 800f462:	6852      	ldr	r2, [r2, #4]
 800f464:	233d      	movs	r3, #61	; 0x3d
 800f466:	408b      	lsls	r3, r1
 800f468:	6013      	str	r3, [r2, #0]
 800f46a:	686b      	ldr	r3, [r5, #4]
 800f46c:	f423 5380 	bic.w	r3, r3, #4096	; 0x1000
 800f470:	606b      	str	r3, [r5, #4]
 800f472:	682b      	ldr	r3, [r5, #0]
 800f474:	f423 6380 	bic.w	r3, r3, #1024	; 0x400
 800f478:	602b      	str	r3, [r5, #0]
 800f47a:	682b      	ldr	r3, [r5, #0]
 800f47c:	f443 7300 	orr.w	r3, r3, #512	; 0x200
 800f480:	602b      	str	r3, [r5, #0]
 800f482:	2320      	movs	r3, #32
 800f484:	f383 8811 	msr	BASEPRI, r3
 800f488:	f106 001c 	add.w	r0, r6, #28
 800f48c:	4621      	mov	r1, r4
 800f48e:	f7fd ff77 	bl	800d380 <chThdResumeI>
 800f492:	f384 8811 	msr	BASEPRI, r4
 800f496:	bd70      	pop	{r4, r5, r6, pc}
 800f498:	4801      	ldr	r0, [pc, #4]	; (800f4a0 <i2c_lld_serve_rx_end_irq+0x60>)
 800f49a:	f7fd fcb9 	bl	800ce10 <chSysHalt>
 800f49e:	e7d5      	b.n	800f44c <i2c_lld_serve_rx_end_irq+0xc>
 800f4a0:	08016bc0 	.word	0x08016bc0
	...

0800f4b0 <VectorC4>:
 800f4b0:	4839      	ldr	r0, [pc, #228]	; (800f598 <VectorC4+0xe8>)
 800f4b2:	4a3a      	ldr	r2, [pc, #232]	; (800f59c <VectorC4+0xec>)
 800f4b4:	b570      	push	{r4, r5, r6, lr}
 800f4b6:	6b44      	ldr	r4, [r0, #52]	; 0x34
 800f4b8:	69a3      	ldr	r3, [r4, #24]
 800f4ba:	6965      	ldr	r5, [r4, #20]
 800f4bc:	ea45 4303 	orr.w	r3, r5, r3, lsl #16
 800f4c0:	f023 437f 	bic.w	r3, r3, #4278190080	; 0xff000000
 800f4c4:	4293      	cmp	r3, r2
 800f4c6:	d050      	beq.n	800f56a <VectorC4+0xba>
 800f4c8:	d822      	bhi.n	800f510 <VectorC4+0x60>
 800f4ca:	3a07      	subs	r2, #7
 800f4cc:	4293      	cmp	r3, r2
 800f4ce:	d040      	beq.n	800f552 <VectorC4+0xa2>
 800f4d0:	3201      	adds	r2, #1
 800f4d2:	4293      	cmp	r3, r2
 800f4d4:	d114      	bne.n	800f500 <VectorC4+0x50>
 800f4d6:	6862      	ldr	r2, [r4, #4]
 800f4d8:	6ac3      	ldr	r3, [r0, #44]	; 0x2c
 800f4da:	f422 7200 	bic.w	r2, r2, #512	; 0x200
 800f4de:	681b      	ldr	r3, [r3, #0]
 800f4e0:	6062      	str	r2, [r4, #4]
 800f4e2:	681a      	ldr	r2, [r3, #0]
 800f4e4:	f042 0201 	orr.w	r2, r2, #1
 800f4e8:	601a      	str	r2, [r3, #0]
 800f4ea:	6862      	ldr	r2, [r4, #4]
 800f4ec:	f442 5280 	orr.w	r2, r2, #4096	; 0x1000
 800f4f0:	6062      	str	r2, [r4, #4]
 800f4f2:	685b      	ldr	r3, [r3, #4]
 800f4f4:	2b01      	cmp	r3, #1
 800f4f6:	d803      	bhi.n	800f500 <VectorC4+0x50>
 800f4f8:	6823      	ldr	r3, [r4, #0]
 800f4fa:	f423 6380 	bic.w	r3, r3, #1024	; 0x400
 800f4fe:	6023      	str	r3, [r4, #0]
 800f500:	f015 0f0a 	tst.w	r5, #10
 800f504:	bf18      	it	ne
 800f506:	69a3      	ldrne	r3, [r4, #24]
 800f508:	e8bd 4070 	ldmia.w	sp!, {r4, r5, r6, lr}
 800f50c:	f7fe bab8 	b.w	800da80 <_port_irq_epilogue>
 800f510:	4a23      	ldr	r2, [pc, #140]	; (800f5a0 <VectorC4+0xf0>)
 800f512:	4293      	cmp	r3, r2
 800f514:	d012      	beq.n	800f53c <VectorC4+0x8c>
 800f516:	3202      	adds	r2, #2
 800f518:	4293      	cmp	r3, r2
 800f51a:	d1f1      	bne.n	800f500 <VectorC4+0x50>
 800f51c:	6ac3      	ldr	r3, [r0, #44]	; 0x2c
 800f51e:	681b      	ldr	r3, [r3, #0]
 800f520:	685e      	ldr	r6, [r3, #4]
 800f522:	b33e      	cbz	r6, 800f574 <VectorC4+0xc4>
 800f524:	6823      	ldr	r3, [r4, #0]
 800f526:	8c02      	ldrh	r2, [r0, #32]
 800f528:	f443 63a0 	orr.w	r3, r3, #1280	; 0x500
 800f52c:	f042 0201 	orr.w	r2, r2, #1
 800f530:	8402      	strh	r2, [r0, #32]
 800f532:	6023      	str	r3, [r4, #0]
 800f534:	e8bd 4070 	ldmia.w	sp!, {r4, r5, r6, lr}
 800f538:	f7fe baa2 	b.w	800da80 <_port_irq_epilogue>
 800f53c:	6863      	ldr	r3, [r4, #4]
 800f53e:	6b02      	ldr	r2, [r0, #48]	; 0x30
 800f540:	f423 7300 	bic.w	r3, r3, #512	; 0x200
 800f544:	6812      	ldr	r2, [r2, #0]
 800f546:	6063      	str	r3, [r4, #4]
 800f548:	6813      	ldr	r3, [r2, #0]
 800f54a:	f043 0301 	orr.w	r3, r3, #1
 800f54e:	6013      	str	r3, [r2, #0]
 800f550:	e7d6      	b.n	800f500 <VectorC4+0x50>
 800f552:	8c03      	ldrh	r3, [r0, #32]
 800f554:	0a1a      	lsrs	r2, r3, #8
 800f556:	d00b      	beq.n	800f570 <VectorC4+0xc0>
 800f558:	f003 0301 	and.w	r3, r3, #1
 800f55c:	f043 03f0 	orr.w	r3, r3, #240	; 0xf0
 800f560:	f002 0206 	and.w	r2, r2, #6
 800f564:	4313      	orrs	r3, r2
 800f566:	6123      	str	r3, [r4, #16]
 800f568:	e7ca      	b.n	800f500 <VectorC4+0x50>
 800f56a:	8c03      	ldrh	r3, [r0, #32]
 800f56c:	f3c3 0347 	ubfx	r3, r3, #1, #8
 800f570:	6123      	str	r3, [r4, #16]
 800f572:	e7c5      	b.n	800f500 <VectorC4+0x50>
 800f574:	6863      	ldr	r3, [r4, #4]
 800f576:	f423 7300 	bic.w	r3, r3, #512	; 0x200
 800f57a:	6063      	str	r3, [r4, #4]
 800f57c:	6823      	ldr	r3, [r4, #0]
 800f57e:	f443 7300 	orr.w	r3, r3, #512	; 0x200
 800f582:	6023      	str	r3, [r4, #0]
 800f584:	2320      	movs	r3, #32
 800f586:	f383 8811 	msr	BASEPRI, r3
 800f58a:	301c      	adds	r0, #28
 800f58c:	4631      	mov	r1, r6
 800f58e:	f7fd fef7 	bl	800d380 <chThdResumeI>
 800f592:	f386 8811 	msr	BASEPRI, r6
 800f596:	e7b3      	b.n	800f500 <VectorC4+0x50>
 800f598:	20000fc4 	.word	0x20000fc4
 800f59c:	00030008 	.word	0x00030008
 800f5a0:	00070082 	.word	0x00070082
	...

0800f5b0 <VectorC8>:
 800f5b0:	4834      	ldr	r0, [pc, #208]	; (800f684 <VectorC8+0xd4>)
 800f5b2:	b5f8      	push	{r3, r4, r5, r6, r7, lr}
 800f5b4:	e9d0 750c 	ldrd	r7, r5, [r0, #48]	; 0x30
 800f5b8:	696c      	ldr	r4, [r5, #20]
 800f5ba:	683a      	ldr	r2, [r7, #0]
 800f5bc:	f404 435f 	and.w	r3, r4, #57088	; 0xdf00
 800f5c0:	43db      	mvns	r3, r3
 800f5c2:	616b      	str	r3, [r5, #20]
 800f5c4:	6813      	ldr	r3, [r2, #0]
 800f5c6:	f023 031f 	bic.w	r3, r3, #31
 800f5ca:	6013      	str	r3, [r2, #0]
 800f5cc:	b2a1      	uxth	r1, r4
 800f5ce:	6813      	ldr	r3, [r2, #0]
 800f5d0:	07db      	lsls	r3, r3, #31
 800f5d2:	d4fc      	bmi.n	800f5ce <VectorC8+0x1e>
 800f5d4:	7a3a      	ldrb	r2, [r7, #8]
 800f5d6:	6ac6      	ldr	r6, [r0, #44]	; 0x2c
 800f5d8:	687f      	ldr	r7, [r7, #4]
 800f5da:	233d      	movs	r3, #61	; 0x3d
 800f5dc:	4093      	lsls	r3, r2
 800f5de:	6832      	ldr	r2, [r6, #0]
 800f5e0:	603b      	str	r3, [r7, #0]
 800f5e2:	6813      	ldr	r3, [r2, #0]
 800f5e4:	f023 031f 	bic.w	r3, r3, #31
 800f5e8:	6013      	str	r3, [r2, #0]
 800f5ea:	6813      	ldr	r3, [r2, #0]
 800f5ec:	07df      	lsls	r7, r3, #31
 800f5ee:	d4fc      	bmi.n	800f5ea <VectorC8+0x3a>
 800f5f0:	7a37      	ldrb	r7, [r6, #8]
 800f5f2:	6872      	ldr	r2, [r6, #4]
 800f5f4:	233d      	movs	r3, #61	; 0x3d
 800f5f6:	40bb      	lsls	r3, r7
 800f5f8:	6013      	str	r3, [r2, #0]
 800f5fa:	f411 7380 	ands.w	r3, r1, #256	; 0x100
 800f5fe:	bf18      	it	ne
 800f600:	2301      	movne	r3, #1
 800f602:	058a      	lsls	r2, r1, #22
 800f604:	6083      	str	r3, [r0, #8]
 800f606:	bf44      	itt	mi
 800f608:	f043 0302 	orrmi.w	r3, r3, #2
 800f60c:	6083      	strmi	r3, [r0, #8]
 800f60e:	054f      	lsls	r7, r1, #21
 800f610:	d50a      	bpl.n	800f628 <VectorC8+0x78>
 800f612:	686a      	ldr	r2, [r5, #4]
 800f614:	f422 7200 	bic.w	r2, r2, #512	; 0x200
 800f618:	606a      	str	r2, [r5, #4]
 800f61a:	682a      	ldr	r2, [r5, #0]
 800f61c:	f043 0304 	orr.w	r3, r3, #4
 800f620:	f442 7200 	orr.w	r2, r2, #512	; 0x200
 800f624:	602a      	str	r2, [r5, #0]
 800f626:	6083      	str	r3, [r0, #8]
 800f628:	050e      	lsls	r6, r1, #20
 800f62a:	bf44      	itt	mi
 800f62c:	f043 0308 	orrmi.w	r3, r3, #8
 800f630:	6083      	strmi	r3, [r0, #8]
 800f632:	044d      	lsls	r5, r1, #17
 800f634:	bf44      	itt	mi
 800f636:	f043 0320 	orrmi.w	r3, r3, #32
 800f63a:	6083      	strmi	r3, [r0, #8]
 800f63c:	04ca      	lsls	r2, r1, #19
 800f63e:	b224      	sxth	r4, r4
 800f640:	d513      	bpl.n	800f66a <VectorC8+0xba>
 800f642:	f043 0310 	orr.w	r3, r3, #16
 800f646:	2c00      	cmp	r4, #0
 800f648:	6083      	str	r3, [r0, #8]
 800f64a:	db16      	blt.n	800f67a <VectorC8+0xca>
 800f64c:	2320      	movs	r3, #32
 800f64e:	f383 8811 	msr	BASEPRI, r3
 800f652:	f06f 0101 	mvn.w	r1, #1
 800f656:	480c      	ldr	r0, [pc, #48]	; (800f688 <VectorC8+0xd8>)
 800f658:	f7fd fe92 	bl	800d380 <chThdResumeI>
 800f65c:	2300      	movs	r3, #0
 800f65e:	f383 8811 	msr	BASEPRI, r3
 800f662:	e8bd 40f8 	ldmia.w	sp!, {r3, r4, r5, r6, r7, lr}
 800f666:	f7fe ba0b 	b.w	800da80 <_port_irq_epilogue>
 800f66a:	2c00      	cmp	r4, #0
 800f66c:	db05      	blt.n	800f67a <VectorC8+0xca>
 800f66e:	2b00      	cmp	r3, #0
 800f670:	d1ec      	bne.n	800f64c <VectorC8+0x9c>
 800f672:	e8bd 40f8 	ldmia.w	sp!, {r3, r4, r5, r6, r7, lr}
 800f676:	f7fe ba03 	b.w	800da80 <_port_irq_epilogue>
 800f67a:	f043 0340 	orr.w	r3, r3, #64	; 0x40
 800f67e:	6083      	str	r3, [r0, #8]
 800f680:	e7e4      	b.n	800f64c <VectorC8+0x9c>
 800f682:	bf00      	nop
 800f684:	20000fc4 	.word	0x20000fc4
 800f688:	20000fe0 	.word	0x20000fe0
 800f68c:	00000000 	.word	0x00000000

0800f690 <i2c_lld_init>:
 800f690:	b510      	push	{r4, lr}
 800f692:	4c07      	ldr	r4, [pc, #28]	; (800f6b0 <i2c_lld_init+0x20>)
 800f694:	4620      	mov	r0, r4
 800f696:	f7fe faab 	bl	800dbf0 <i2cObjectInit>
 800f69a:	4b06      	ldr	r3, [pc, #24]	; (800f6b4 <i2c_lld_init+0x24>)
 800f69c:	4a06      	ldr	r2, [pc, #24]	; (800f6b8 <i2c_lld_init+0x28>)
 800f69e:	6362      	str	r2, [r4, #52]	; 0x34
 800f6a0:	2100      	movs	r1, #0
 800f6a2:	f103 023c 	add.w	r2, r3, #60	; 0x3c
 800f6a6:	61e1      	str	r1, [r4, #28]
 800f6a8:	e9c4 320b 	strd	r3, r2, [r4, #44]	; 0x2c
 800f6ac:	bd10      	pop	{r4, pc}
 800f6ae:	bf00      	nop
 800f6b0:	20000fc4 	.word	0x20000fc4
 800f6b4:	08016b18 	.word	0x08016b18
 800f6b8:	40005800 	.word	0x40005800
 800f6bc:	00000000 	.word	0x00000000

0800f6c0 <i2c_lld_start>:
 800f6c0:	b5f8      	push	{r3, r4, r5, r6, r7, lr}
 800f6c2:	7803      	ldrb	r3, [r0, #0]
 800f6c4:	6b45      	ldr	r5, [r0, #52]	; 0x34
 800f6c6:	f240 4256 	movw	r2, #1110	; 0x456
 800f6ca:	6282      	str	r2, [r0, #40]	; 0x28
 800f6cc:	2b01      	cmp	r3, #1
 800f6ce:	f240 4216 	movw	r2, #1046	; 0x416
 800f6d2:	4604      	mov	r4, r0
 800f6d4:	6242      	str	r2, [r0, #36]	; 0x24
 800f6d6:	d03c      	beq.n	800f752 <i2c_lld_start+0x92>
 800f6d8:	462b      	mov	r3, r5
 800f6da:	e9d4 120b 	ldrd	r1, r2, [r4, #44]	; 0x2c
 800f6de:	6860      	ldr	r0, [r4, #4]
 800f6e0:	680f      	ldr	r7, [r1, #0]
 800f6e2:	f8d2 c000 	ldr.w	ip, [r2]
 800f6e6:	6841      	ldr	r1, [r0, #4]
 800f6e8:	4e46      	ldr	r6, [pc, #280]	; (800f804 <i2c_lld_start+0x144>)
 800f6ea:	f105 0210 	add.w	r2, r5, #16
 800f6ee:	60ba      	str	r2, [r7, #8]
 800f6f0:	f44f 6410 	mov.w	r4, #2304	; 0x900
 800f6f4:	f8cc 2008 	str.w	r2, [ip, #8]
 800f6f8:	f44f 4700 	mov.w	r7, #32768	; 0x8000
 800f6fc:	2200      	movs	r2, #0
 800f6fe:	602f      	str	r7, [r5, #0]
 800f700:	602a      	str	r2, [r5, #0]
 800f702:	606c      	str	r4, [r5, #4]
 800f704:	685c      	ldr	r4, [r3, #4]
 800f706:	f64f 77c0 	movw	r7, #65472	; 0xffc0
 800f70a:	403c      	ands	r4, r7
 800f70c:	7a07      	ldrb	r7, [r0, #8]
 800f70e:	605c      	str	r4, [r3, #4]
 800f710:	685c      	ldr	r4, [r3, #4]
 800f712:	42b1      	cmp	r1, r6
 800f714:	f044 042a 	orr.w	r4, r4, #42	; 0x2a
 800f718:	605c      	str	r4, [r3, #4]
 800f71a:	dd49      	ble.n	800f7b0 <i2c_lld_start+0xf0>
 800f71c:	4c3a      	ldr	r4, [pc, #232]	; (800f808 <i2c_lld_start+0x148>)
 800f71e:	42a1      	cmp	r1, r4
 800f720:	dc07      	bgt.n	800f732 <i2c_lld_start+0x72>
 800f722:	2f02      	cmp	r7, #2
 800f724:	d056      	beq.n	800f7d4 <i2c_lld_start+0x114>
 800f726:	2f03      	cmp	r7, #3
 800f728:	d05f      	beq.n	800f7ea <i2c_lld_start+0x12a>
 800f72a:	f648 72ff 	movw	r2, #36863	; 0x8fff
 800f72e:	210d      	movs	r1, #13
 800f730:	6219      	str	r1, [r3, #32]
 800f732:	61da      	str	r2, [r3, #28]
 800f734:	7801      	ldrb	r1, [r0, #0]
 800f736:	681a      	ldr	r2, [r3, #0]
 800f738:	2902      	cmp	r1, #2
 800f73a:	b292      	uxth	r2, r2
 800f73c:	d044      	beq.n	800f7c8 <i2c_lld_start+0x108>
 800f73e:	2903      	cmp	r1, #3
 800f740:	d03f      	beq.n	800f7c2 <i2c_lld_start+0x102>
 800f742:	2901      	cmp	r1, #1
 800f744:	d030      	beq.n	800f7a8 <i2c_lld_start+0xe8>
 800f746:	601a      	str	r2, [r3, #0]
 800f748:	682b      	ldr	r3, [r5, #0]
 800f74a:	f043 0301 	orr.w	r3, r3, #1
 800f74e:	602b      	str	r3, [r5, #0]
 800f750:	bdf8      	pop	{r3, r4, r5, r6, r7, pc}
 800f752:	4b2e      	ldr	r3, [pc, #184]	; (800f80c <i2c_lld_start+0x14c>)
 800f754:	4298      	cmp	r0, r3
 800f756:	d1bf      	bne.n	800f6d8 <i2c_lld_start+0x18>
 800f758:	4e2d      	ldr	r6, [pc, #180]	; (800f810 <i2c_lld_start+0x150>)
 800f75a:	6ac0      	ldr	r0, [r0, #44]	; 0x2c
 800f75c:	6a33      	ldr	r3, [r6, #32]
 800f75e:	4a2d      	ldr	r2, [pc, #180]	; (800f814 <i2c_lld_start+0x154>)
 800f760:	f443 0380 	orr.w	r3, r3, #4194304	; 0x400000
 800f764:	2100      	movs	r1, #0
 800f766:	6233      	str	r3, [r6, #32]
 800f768:	4623      	mov	r3, r4
 800f76a:	6231      	str	r1, [r6, #32]
 800f76c:	2105      	movs	r1, #5
 800f76e:	f7ff f9df 	bl	800eb30 <dmaStreamAllocate>
 800f772:	4a29      	ldr	r2, [pc, #164]	; (800f818 <i2c_lld_start+0x158>)
 800f774:	6b20      	ldr	r0, [r4, #48]	; 0x30
 800f776:	4623      	mov	r3, r4
 800f778:	2105      	movs	r1, #5
 800f77a:	f7ff f9d9 	bl	800eb30 <dmaStreamAllocate>
 800f77e:	6c33      	ldr	r3, [r6, #64]	; 0x40
 800f780:	f443 0380 	orr.w	r3, r3, #4194304	; 0x400000
 800f784:	6433      	str	r3, [r6, #64]	; 0x40
 800f786:	2105      	movs	r1, #5
 800f788:	2021      	movs	r0, #33	; 0x21
 800f78a:	f7fe ffe1 	bl	800e750 <nvicEnableVector>
 800f78e:	2105      	movs	r1, #5
 800f790:	2022      	movs	r0, #34	; 0x22
 800f792:	f7fe ffdd 	bl	800e750 <nvicEnableVector>
 800f796:	6a61      	ldr	r1, [r4, #36]	; 0x24
 800f798:	4820      	ldr	r0, [pc, #128]	; (800f81c <i2c_lld_start+0x15c>)
 800f79a:	6aa2      	ldr	r2, [r4, #40]	; 0x28
 800f79c:	6b63      	ldr	r3, [r4, #52]	; 0x34
 800f79e:	4301      	orrs	r1, r0
 800f7a0:	4302      	orrs	r2, r0
 800f7a2:	e9c4 1209 	strd	r1, r2, [r4, #36]	; 0x24
 800f7a6:	e798      	b.n	800f6da <i2c_lld_start+0x1a>
 800f7a8:	f022 020a 	bic.w	r2, r2, #10
 800f7ac:	b292      	uxth	r2, r2
 800f7ae:	e7ca      	b.n	800f746 <i2c_lld_start+0x86>
 800f7b0:	242b      	movs	r4, #43	; 0x2b
 800f7b2:	0049      	lsls	r1, r1, #1
 800f7b4:	4a1a      	ldr	r2, [pc, #104]	; (800f820 <i2c_lld_start+0x160>)
 800f7b6:	621c      	str	r4, [r3, #32]
 800f7b8:	fbb2 f2f1 	udiv	r2, r2, r1
 800f7bc:	f3c2 020b 	ubfx	r2, r2, #0, #12
 800f7c0:	e7b7      	b.n	800f732 <i2c_lld_start+0x72>
 800f7c2:	f042 020a 	orr.w	r2, r2, #10
 800f7c6:	e7be      	b.n	800f746 <i2c_lld_start+0x86>
 800f7c8:	f022 0208 	bic.w	r2, r2, #8
 800f7cc:	b292      	uxth	r2, r2
 800f7ce:	f042 0202 	orr.w	r2, r2, #2
 800f7d2:	e7b8      	b.n	800f746 <i2c_lld_start+0x86>
 800f7d4:	eb01 0141 	add.w	r1, r1, r1, lsl #1
 800f7d8:	4a11      	ldr	r2, [pc, #68]	; (800f820 <i2c_lld_start+0x160>)
 800f7da:	fbb2 f2f1 	udiv	r2, r2, r1
 800f7de:	ea6f 4242 	mvn.w	r2, r2, lsl #17
 800f7e2:	ea6f 4252 	mvn.w	r2, r2, lsr #17
 800f7e6:	b292      	uxth	r2, r2
 800f7e8:	e7a1      	b.n	800f72e <i2c_lld_start+0x6e>
 800f7ea:	eb01 0281 	add.w	r2, r1, r1, lsl #2
 800f7ee:	eb02 0182 	add.w	r1, r2, r2, lsl #2
 800f7f2:	4a0b      	ldr	r2, [pc, #44]	; (800f820 <i2c_lld_start+0x160>)
 800f7f4:	fbb2 f2f1 	udiv	r2, r2, r1
 800f7f8:	ea6f 4282 	mvn.w	r2, r2, lsl #18
 800f7fc:	ea6f 4292 	mvn.w	r2, r2, lsr #18
 800f800:	b292      	uxth	r2, r2
 800f802:	e794      	b.n	800f72e <i2c_lld_start+0x6e>
 800f804:	000186a0 	.word	0x000186a0
 800f808:	00061a80 	.word	0x00061a80
 800f80c:	20000fc4 	.word	0x20000fc4
 800f810:	40023800 	.word	0x40023800
 800f814:	0800f441 	.word	0x0800f441
 800f818:	0800f401 	.word	0x0800f401
 800f81c:	0e030000 	.word	0x0e030000
 800f820:	0280de80 	.word	0x0280de80
	...

0800f830 <i2c_lld_stop>:
 800f830:	b538      	push	{r3, r4, r5, lr}
 800f832:	7803      	ldrb	r3, [r0, #0]
 800f834:	2b01      	cmp	r3, #1
 800f836:	d02d      	beq.n	800f894 <i2c_lld_stop+0x64>
 800f838:	e9d0 130c 	ldrd	r1, r3, [r0, #48]	; 0x30
 800f83c:	2400      	movs	r4, #0
 800f83e:	680a      	ldr	r2, [r1, #0]
 800f840:	f44f 4500 	mov.w	r5, #32768	; 0x8000
 800f844:	601d      	str	r5, [r3, #0]
 800f846:	601c      	str	r4, [r3, #0]
 800f848:	605c      	str	r4, [r3, #4]
 800f84a:	615c      	str	r4, [r3, #20]
 800f84c:	6813      	ldr	r3, [r2, #0]
 800f84e:	f023 031f 	bic.w	r3, r3, #31
 800f852:	6013      	str	r3, [r2, #0]
 800f854:	6813      	ldr	r3, [r2, #0]
 800f856:	07dc      	lsls	r4, r3, #31
 800f858:	d4fc      	bmi.n	800f854 <i2c_lld_stop+0x24>
 800f85a:	7a0a      	ldrb	r2, [r1, #8]
 800f85c:	6ac5      	ldr	r5, [r0, #44]	; 0x2c
 800f85e:	684c      	ldr	r4, [r1, #4]
 800f860:	233d      	movs	r3, #61	; 0x3d
 800f862:	4093      	lsls	r3, r2
 800f864:	682a      	ldr	r2, [r5, #0]
 800f866:	6023      	str	r3, [r4, #0]
 800f868:	6813      	ldr	r3, [r2, #0]
 800f86a:	f023 031f 	bic.w	r3, r3, #31
 800f86e:	6013      	str	r3, [r2, #0]
 800f870:	6813      	ldr	r3, [r2, #0]
 800f872:	07db      	lsls	r3, r3, #31
 800f874:	d4fc      	bmi.n	800f870 <i2c_lld_stop+0x40>
 800f876:	4604      	mov	r4, r0
 800f878:	7a28      	ldrb	r0, [r5, #8]
 800f87a:	686a      	ldr	r2, [r5, #4]
 800f87c:	233d      	movs	r3, #61	; 0x3d
 800f87e:	4083      	lsls	r3, r0
 800f880:	6013      	str	r3, [r2, #0]
 800f882:	4608      	mov	r0, r1
 800f884:	f7ff f99c 	bl	800ebc0 <dmaStreamRelease>
 800f888:	6ae0      	ldr	r0, [r4, #44]	; 0x2c
 800f88a:	f7ff f999 	bl	800ebc0 <dmaStreamRelease>
 800f88e:	4b08      	ldr	r3, [pc, #32]	; (800f8b0 <i2c_lld_stop+0x80>)
 800f890:	429c      	cmp	r4, r3
 800f892:	d000      	beq.n	800f896 <i2c_lld_stop+0x66>
 800f894:	bd38      	pop	{r3, r4, r5, pc}
 800f896:	2021      	movs	r0, #33	; 0x21
 800f898:	f7fe ff7a 	bl	800e790 <nvicDisableVector>
 800f89c:	2022      	movs	r0, #34	; 0x22
 800f89e:	f7fe ff77 	bl	800e790 <nvicDisableVector>
 800f8a2:	4a04      	ldr	r2, [pc, #16]	; (800f8b4 <i2c_lld_stop+0x84>)
 800f8a4:	6c13      	ldr	r3, [r2, #64]	; 0x40
 800f8a6:	f423 0380 	bic.w	r3, r3, #4194304	; 0x400000
 800f8aa:	6413      	str	r3, [r2, #64]	; 0x40
 800f8ac:	bd38      	pop	{r3, r4, r5, pc}
 800f8ae:	bf00      	nop
 800f8b0:	20000fc4 	.word	0x20000fc4
 800f8b4:	40023800 	.word	0x40023800
	...

0800f8c0 <i2c_lld_master_receive_timeout>:
 800f8c0:	0049      	lsls	r1, r1, #1
 800f8c2:	b4f0      	push	{r4, r5, r6, r7}
 800f8c4:	f041 0101 	orr.w	r1, r1, #1
 800f8c8:	2500      	movs	r5, #0
 800f8ca:	8401      	strh	r1, [r0, #32]
 800f8cc:	6b44      	ldr	r4, [r0, #52]	; 0x34
 800f8ce:	6085      	str	r5, [r0, #8]
 800f8d0:	f8dd c010 	ldr.w	ip, [sp, #16]
 800f8d4:	f385 8811 	msr	BASEPRI, r5
 800f8d8:	6ac6      	ldr	r6, [r0, #44]	; 0x2c
 800f8da:	6a41      	ldr	r1, [r0, #36]	; 0x24
 800f8dc:	6837      	ldr	r7, [r6, #0]
 800f8de:	4e14      	ldr	r6, [pc, #80]	; (800f930 <i2c_lld_master_receive_timeout+0x70>)
 800f8e0:	6039      	str	r1, [r7, #0]
 800f8e2:	60fa      	str	r2, [r7, #12]
 800f8e4:	607b      	str	r3, [r7, #4]
 800f8e6:	462a      	mov	r2, r5
 800f8e8:	6ab7      	ldr	r7, [r6, #40]	; 0x28
 800f8ea:	2520      	movs	r5, #32
 800f8ec:	e001      	b.n	800f8f2 <i2c_lld_master_receive_timeout+0x32>
 800f8ee:	f382 8811 	msr	BASEPRI, r2
 800f8f2:	f385 8811 	msr	BASEPRI, r5
 800f8f6:	69a3      	ldr	r3, [r4, #24]
 800f8f8:	0799      	lsls	r1, r3, #30
 800f8fa:	d402      	bmi.n	800f902 <i2c_lld_master_receive_timeout+0x42>
 800f8fc:	6823      	ldr	r3, [r4, #0]
 800f8fe:	059b      	lsls	r3, r3, #22
 800f900:	d508      	bpl.n	800f914 <i2c_lld_master_receive_timeout+0x54>
 800f902:	6ab3      	ldr	r3, [r6, #40]	; 0x28
 800f904:	1bdb      	subs	r3, r3, r7
 800f906:	f5b3 7ffa 	cmp.w	r3, #500	; 0x1f4
 800f90a:	d3f0      	bcc.n	800f8ee <i2c_lld_master_receive_timeout+0x2e>
 800f90c:	f04f 30ff 	mov.w	r0, #4294967295
 800f910:	bcf0      	pop	{r4, r5, r6, r7}
 800f912:	4770      	bx	lr
 800f914:	6863      	ldr	r3, [r4, #4]
 800f916:	f443 7300 	orr.w	r3, r3, #512	; 0x200
 800f91a:	6063      	str	r3, [r4, #4]
 800f91c:	6823      	ldr	r3, [r4, #0]
 800f91e:	f443 63a0 	orr.w	r3, r3, #1280	; 0x500
 800f922:	6023      	str	r3, [r4, #0]
 800f924:	4661      	mov	r1, ip
 800f926:	301c      	adds	r0, #28
 800f928:	bcf0      	pop	{r4, r5, r6, r7}
 800f92a:	f7fd bd19 	b.w	800d360 <chThdSuspendTimeoutS>
 800f92e:	bf00      	nop
 800f930:	20000c90 	.word	0x20000c90
	...

0800f940 <i2c_lld_master_transmit_timeout>:
 800f940:	e92d 43f0 	stmdb	sp!, {r4, r5, r6, r7, r8, r9, lr}
 800f944:	0049      	lsls	r1, r1, #1
 800f946:	2500      	movs	r5, #0
 800f948:	4616      	mov	r6, r2
 800f94a:	8401      	strh	r1, [r0, #32]
 800f94c:	469e      	mov	lr, r3
 800f94e:	6b44      	ldr	r4, [r0, #52]	; 0x34
 800f950:	6085      	str	r5, [r0, #8]
 800f952:	e9dd 2807 	ldrd	r2, r8, [sp, #28]
 800f956:	f8dd c024 	ldr.w	ip, [sp, #36]	; 0x24
 800f95a:	f385 8811 	msr	BASEPRI, r5
 800f95e:	e9d0 710b 	ldrd	r7, r1, [r0, #44]	; 0x2c
 800f962:	6809      	ldr	r1, [r1, #0]
 800f964:	683f      	ldr	r7, [r7, #0]
 800f966:	6a83      	ldr	r3, [r0, #40]	; 0x28
 800f968:	600b      	str	r3, [r1, #0]
 800f96a:	f8d0 9024 	ldr.w	r9, [r0, #36]	; 0x24
 800f96e:	60ce      	str	r6, [r1, #12]
 800f970:	4e16      	ldr	r6, [pc, #88]	; (800f9cc <i2c_lld_master_transmit_timeout+0x8c>)
 800f972:	f8c1 e004 	str.w	lr, [r1, #4]
 800f976:	f8c7 9000 	str.w	r9, [r7]
 800f97a:	60fa      	str	r2, [r7, #12]
 800f97c:	f8c7 8004 	str.w	r8, [r7, #4]
 800f980:	462a      	mov	r2, r5
 800f982:	6ab7      	ldr	r7, [r6, #40]	; 0x28
 800f984:	2520      	movs	r5, #32
 800f986:	e001      	b.n	800f98c <i2c_lld_master_transmit_timeout+0x4c>
 800f988:	f382 8811 	msr	BASEPRI, r2
 800f98c:	f385 8811 	msr	BASEPRI, r5
 800f990:	69a3      	ldr	r3, [r4, #24]
 800f992:	0799      	lsls	r1, r3, #30
 800f994:	d402      	bmi.n	800f99c <i2c_lld_master_transmit_timeout+0x5c>
 800f996:	6823      	ldr	r3, [r4, #0]
 800f998:	059b      	lsls	r3, r3, #22
 800f99a:	d508      	bpl.n	800f9ae <i2c_lld_master_transmit_timeout+0x6e>
 800f99c:	6ab3      	ldr	r3, [r6, #40]	; 0x28
 800f99e:	1bdb      	subs	r3, r3, r7
 800f9a0:	f5b3 7ffa 	cmp.w	r3, #500	; 0x1f4
 800f9a4:	d3f0      	bcc.n	800f988 <i2c_lld_master_transmit_timeout+0x48>
 800f9a6:	f04f 30ff 	mov.w	r0, #4294967295
 800f9aa:	e8bd 83f0 	ldmia.w	sp!, {r4, r5, r6, r7, r8, r9, pc}
 800f9ae:	6863      	ldr	r3, [r4, #4]
 800f9b0:	f443 7300 	orr.w	r3, r3, #512	; 0x200
 800f9b4:	6063      	str	r3, [r4, #4]
 800f9b6:	6823      	ldr	r3, [r4, #0]
 800f9b8:	f443 7380 	orr.w	r3, r3, #256	; 0x100
 800f9bc:	6023      	str	r3, [r4, #0]
 800f9be:	4661      	mov	r1, ip
 800f9c0:	301c      	adds	r0, #28
 800f9c2:	e8bd 43f0 	ldmia.w	sp!, {r4, r5, r6, r7, r8, r9, lr}
 800f9c6:	f7fd bccb 	b.w	800d360 <chThdSuspendTimeoutS>
 800f9ca:	bf00      	nop
 800f9cc:	20000c90 	.word	0x20000c90

0800f9d0 <usb_lld_pump>:
 800f9d0:	e92d 4ff0 	stmdb	sp!, {r4, r5, r6, r7, r8, r9, sl, fp, lr}
 800f9d4:	4bb8      	ldr	r3, [pc, #736]	; (800fcb8 <usb_lld_pump+0x2e8>)
 800f9d6:	49b9      	ldr	r1, [pc, #740]	; (800fcbc <usb_lld_pump+0x2ec>)
 800f9d8:	699a      	ldr	r2, [r3, #24]
 800f9da:	6d05      	ldr	r5, [r0, #80]	; 0x50
 800f9dc:	6191      	str	r1, [r2, #24]
 800f9de:	b087      	sub	sp, #28
 800f9e0:	2320      	movs	r3, #32
 800f9e2:	f383 8811 	msr	BASEPRI, r3
 800f9e6:	9300      	str	r3, [sp, #0]
 800f9e8:	f100 0360 	add.w	r3, r0, #96	; 0x60
 800f9ec:	46a9      	mov	r9, r5
 800f9ee:	9305      	str	r3, [sp, #20]
 800f9f0:	4605      	mov	r5, r0
 800f9f2:	782b      	ldrb	r3, [r5, #0]
 800f9f4:	2b01      	cmp	r3, #1
 800f9f6:	d005      	beq.n	800fa04 <usb_lld_pump+0x34>
 800f9f8:	6deb      	ldr	r3, [r5, #92]	; 0x5c
 800f9fa:	b963      	cbnz	r3, 800fa16 <usb_lld_pump+0x46>
 800f9fc:	f8d9 3014 	ldr.w	r3, [r9, #20]
 800fa00:	06db      	lsls	r3, r3, #27
 800fa02:	d408      	bmi.n	800fa16 <usb_lld_pump+0x46>
 800fa04:	f8d9 3018 	ldr.w	r3, [r9, #24]
 800fa08:	9805      	ldr	r0, [sp, #20]
 800fa0a:	f043 0310 	orr.w	r3, r3, #16
 800fa0e:	f8c9 3018 	str.w	r3, [r9, #24]
 800fa12:	f7fd fc95 	bl	800d340 <chThdSuspendS>
 800fa16:	2300      	movs	r3, #0
 800fa18:	f383 8811 	msr	BASEPRI, r3
 800fa1c:	469a      	mov	sl, r3
 800fa1e:	f8d9 3014 	ldr.w	r3, [r9, #20]
 800fa22:	f013 0310 	ands.w	r3, r3, #16
 800fa26:	d058      	beq.n	800fada <usb_lld_pump+0x10a>
 800fa28:	6d2a      	ldr	r2, [r5, #80]	; 0x50
 800fa2a:	6a13      	ldr	r3, [r2, #32]
 800fa2c:	f403 11f0 	and.w	r1, r3, #1966080	; 0x1e0000
 800fa30:	f5b1 2f80 	cmp.w	r1, #262144	; 0x40000
 800fa34:	d024      	beq.n	800fa80 <usb_lld_pump+0xb0>
 800fa36:	f5b1 2f40 	cmp.w	r1, #786432	; 0xc0000
 800fa3a:	d1f0      	bne.n	800fa1e <usb_lld_pump+0x4e>
 800fa3c:	f003 010f 	and.w	r1, r3, #15
 800fa40:	eb05 0181 	add.w	r1, r5, r1, lsl #2
 800fa44:	f3c3 130a 	ubfx	r3, r3, #4, #11
 800fa48:	68c9      	ldr	r1, [r1, #12]
 800fa4a:	3303      	adds	r3, #3
 800fa4c:	089b      	lsrs	r3, r3, #2
 800fa4e:	6a0c      	ldr	r4, [r1, #32]
 800fa50:	d0e5      	beq.n	800fa1e <usb_lld_pump+0x4e>
 800fa52:	f502 5280 	add.w	r2, r2, #4096	; 0x1000
 800fa56:	2102      	movs	r1, #2
 800fa58:	6816      	ldr	r6, [r2, #0]
 800fa5a:	1e58      	subs	r0, r3, #1
 800fa5c:	b149      	cbz	r1, 800fa72 <usb_lld_pump+0xa2>
 800fa5e:	4603      	mov	r3, r0
 800fa60:	f844 6b04 	str.w	r6, [r4], #4
 800fa64:	3901      	subs	r1, #1
 800fa66:	2b00      	cmp	r3, #0
 800fa68:	d0d9      	beq.n	800fa1e <usb_lld_pump+0x4e>
 800fa6a:	6816      	ldr	r6, [r2, #0]
 800fa6c:	1e58      	subs	r0, r3, #1
 800fa6e:	2900      	cmp	r1, #0
 800fa70:	d1f5      	bne.n	800fa5e <usb_lld_pump+0x8e>
 800fa72:	2800      	cmp	r0, #0
 800fa74:	d0d3      	beq.n	800fa1e <usb_lld_pump+0x4e>
 800fa76:	3b02      	subs	r3, #2
 800fa78:	6810      	ldr	r0, [r2, #0]
 800fa7a:	2b00      	cmp	r3, #0
 800fa7c:	d1f5      	bne.n	800fa6a <usb_lld_pump+0x9a>
 800fa7e:	e7ce      	b.n	800fa1e <usb_lld_pump+0x4e>
 800fa80:	f003 060f 	and.w	r6, r3, #15
 800fa84:	eb05 0686 	add.w	r6, r5, r6, lsl #2
 800fa88:	f3c3 140a 	ubfx	r4, r3, #4, #11
 800fa8c:	68f3      	ldr	r3, [r6, #12]
 800fa8e:	699f      	ldr	r7, [r3, #24]
 800fa90:	783b      	ldrb	r3, [r7, #0]
 800fa92:	68f8      	ldr	r0, [r7, #12]
 800fa94:	2b00      	cmp	r3, #0
 800fa96:	d13b      	bne.n	800fb10 <usb_lld_pump+0x140>
 800fa98:	e9d7 1c01 	ldrd	r1, ip, [r7, #4]
 800fa9c:	1cce      	adds	r6, r1, #3
 800fa9e:	1ce1      	adds	r1, r4, #3
 800faa0:	eba6 060c 	sub.w	r6, r6, ip
 800faa4:	0889      	lsrs	r1, r1, #2
 800faa6:	ea4f 0696 	mov.w	r6, r6, lsr #2
 800faaa:	d00d      	beq.n	800fac8 <usb_lld_pump+0xf8>
 800faac:	f502 5280 	add.w	r2, r2, #4096	; 0x1000
 800fab0:	4686      	mov	lr, r0
 800fab2:	4690      	mov	r8, r2
 800fab4:	f8d8 2000 	ldr.w	r2, [r8]
 800fab8:	1e4b      	subs	r3, r1, #1
 800faba:	b30e      	cbz	r6, 800fb00 <usb_lld_pump+0x130>
 800fabc:	4619      	mov	r1, r3
 800fabe:	f84e 2b04 	str.w	r2, [lr], #4
 800fac2:	3e01      	subs	r6, #1
 800fac4:	2900      	cmp	r1, #0
 800fac6:	d1f5      	bne.n	800fab4 <usb_lld_pump+0xe4>
 800fac8:	4420      	add	r0, r4
 800faca:	60f8      	str	r0, [r7, #12]
 800facc:	f8d9 3014 	ldr.w	r3, [r9, #20]
 800fad0:	4464      	add	r4, ip
 800fad2:	f013 0310 	ands.w	r3, r3, #16
 800fad6:	60bc      	str	r4, [r7, #8]
 800fad8:	d1a6      	bne.n	800fa28 <usb_lld_pump+0x58>
 800fada:	2601      	movs	r6, #1
 800fadc:	6dea      	ldr	r2, [r5, #92]	; 0x5c
 800fade:	fa06 f60a 	lsl.w	r6, r6, sl
 800fae2:	4216      	tst	r6, r2
 800fae4:	d150      	bne.n	800fb88 <usb_lld_pump+0x1b8>
 800fae6:	f10a 0301 	add.w	r3, sl, #1
 800faea:	9302      	str	r3, [sp, #8]
 800faec:	6d6b      	ldr	r3, [r5, #84]	; 0x54
 800faee:	f89d a008 	ldrb.w	sl, [sp, #8]
 800faf2:	689b      	ldr	r3, [r3, #8]
 800faf4:	459a      	cmp	sl, r3
 800faf6:	d992      	bls.n	800fa1e <usb_lld_pump+0x4e>
 800faf8:	9b00      	ldr	r3, [sp, #0]
 800fafa:	f383 8811 	msr	BASEPRI, r3
 800fafe:	e778      	b.n	800f9f2 <usb_lld_pump+0x22>
 800fb00:	2b00      	cmp	r3, #0
 800fb02:	d0e1      	beq.n	800fac8 <usb_lld_pump+0xf8>
 800fb04:	3902      	subs	r1, #2
 800fb06:	f8d8 3000 	ldr.w	r3, [r8]
 800fb0a:	2900      	cmp	r1, #0
 800fb0c:	d1d2      	bne.n	800fab4 <usb_lld_pump+0xe4>
 800fb0e:	e7db      	b.n	800fac8 <usb_lld_pump+0xf8>
 800fb10:	b33c      	cbz	r4, 800fb62 <usb_lld_pump+0x192>
 800fb12:	6941      	ldr	r1, [r0, #20]
 800fb14:	f502 5280 	add.w	r2, r2, #4096	; 0x1000
 800fb18:	46a4      	mov	ip, r4
 800fb1a:	f1bc 0f03 	cmp.w	ip, #3
 800fb1e:	d907      	bls.n	800fb30 <usb_lld_pump+0x160>
 800fb20:	6903      	ldr	r3, [r0, #16]
 800fb22:	428b      	cmp	r3, r1
 800fb24:	d804      	bhi.n	800fb30 <usb_lld_pump+0x160>
 800fb26:	68c1      	ldr	r1, [r0, #12]
 800fb28:	6141      	str	r1, [r0, #20]
 800fb2a:	f1bc 0f03 	cmp.w	ip, #3
 800fb2e:	d8f7      	bhi.n	800fb20 <usb_lld_pump+0x150>
 800fb30:	f8d2 e000 	ldr.w	lr, [r2]
 800fb34:	2300      	movs	r3, #0
 800fb36:	fa2e f703 	lsr.w	r7, lr, r3
 800fb3a:	f101 0801 	add.w	r8, r1, #1
 800fb3e:	f8c0 8014 	str.w	r8, [r0, #20]
 800fb42:	700f      	strb	r7, [r1, #0]
 800fb44:	e9d0 1704 	ldrd	r1, r7, [r0, #16]
 800fb48:	428f      	cmp	r7, r1
 800fb4a:	bf24      	itt	cs
 800fb4c:	68c1      	ldrcs	r1, [r0, #12]
 800fb4e:	6141      	strcs	r1, [r0, #20]
 800fb50:	f1bc 0c01 	subs.w	ip, ip, #1
 800fb54:	f103 0308 	add.w	r3, r3, #8
 800fb58:	d003      	beq.n	800fb62 <usb_lld_pump+0x192>
 800fb5a:	2b20      	cmp	r3, #32
 800fb5c:	6941      	ldr	r1, [r0, #20]
 800fb5e:	d1ea      	bne.n	800fb36 <usb_lld_pump+0x166>
 800fb60:	e7db      	b.n	800fb1a <usb_lld_pump+0x14a>
 800fb62:	9b00      	ldr	r3, [sp, #0]
 800fb64:	f383 8811 	msr	BASEPRI, r3
 800fb68:	6883      	ldr	r3, [r0, #8]
 800fb6a:	4423      	add	r3, r4
 800fb6c:	6083      	str	r3, [r0, #8]
 800fb6e:	2100      	movs	r1, #0
 800fb70:	f7fd fc2e 	bl	800d3d0 <chThdDequeueAllI>
 800fb74:	f7fd fb04 	bl	800d180 <chSchRescheduleS>
 800fb78:	2300      	movs	r3, #0
 800fb7a:	f383 8811 	msr	BASEPRI, r3
 800fb7e:	68f3      	ldr	r3, [r6, #12]
 800fb80:	699f      	ldr	r7, [r3, #24]
 800fb82:	f8d7 c008 	ldr.w	ip, [r7, #8]
 800fb86:	e7a1      	b.n	800facc <usb_lld_pump+0xfc>
 800fb88:	9a00      	ldr	r2, [sp, #0]
 800fb8a:	f382 8811 	msr	BASEPRI, r2
 800fb8e:	f8d9 1008 	ldr.w	r1, [r9, #8]
 800fb92:	6dea      	ldr	r2, [r5, #92]	; 0x5c
 800fb94:	f021 0101 	bic.w	r1, r1, #1
 800fb98:	ea22 0206 	bic.w	r2, r2, r6
 800fb9c:	f8c9 1008 	str.w	r1, [r9, #8]
 800fba0:	65ea      	str	r2, [r5, #92]	; 0x5c
 800fba2:	f383 8811 	msr	BASEPRI, r3
 800fba6:	eb05 038a 	add.w	r3, r5, sl, lsl #2
 800fbaa:	461f      	mov	r7, r3
 800fbac:	68d9      	ldr	r1, [r3, #12]
 800fbae:	694a      	ldr	r2, [r1, #20]
 800fbb0:	e9d2 3001 	ldrd	r3, r0, [r2, #4]
 800fbb4:	4298      	cmp	r0, r3
 800fbb6:	f080 80b6 	bcs.w	800fd26 <usb_lld_pump+0x356>
 800fbba:	f8d5 e050 	ldr.w	lr, [r5, #80]	; 0x50
 800fbbe:	8a0c      	ldrh	r4, [r1, #16]
 800fbc0:	ea4f 184a 	mov.w	r8, sl, lsl #5
 800fbc4:	eb0e 0c08 	add.w	ip, lr, r8
 800fbc8:	1a1b      	subs	r3, r3, r0
 800fbca:	f8dc 0918 	ldr.w	r0, [ip, #2328]	; 0x918
 800fbce:	429c      	cmp	r4, r3
 800fbd0:	bf28      	it	cs
 800fbd2:	461c      	movcs	r4, r3
 800fbd4:	b283      	uxth	r3, r0
 800fbd6:	ebb4 0f83 	cmp.w	r4, r3, lsl #2
 800fbda:	f200 80b1 	bhi.w	800fd40 <usb_lld_pump+0x370>
 800fbde:	f10a 0301 	add.w	r3, sl, #1
 800fbe2:	9302      	str	r3, [sp, #8]
 800fbe4:	031b      	lsls	r3, r3, #12
 800fbe6:	e9cd 9603 	strd	r9, r6, [sp, #12]
 800fbea:	9301      	str	r3, [sp, #4]
 800fbec:	46b9      	mov	r9, r7
 800fbee:	9e01      	ldr	r6, [sp, #4]
 800fbf0:	7813      	ldrb	r3, [r2, #0]
 800fbf2:	68d0      	ldr	r0, [r2, #12]
 800fbf4:	44b6      	add	lr, r6
 800fbf6:	2b00      	cmp	r3, #0
 800fbf8:	d07e      	beq.n	800fcf8 <usb_lld_pump+0x328>
 800fbfa:	b1fc      	cbz	r4, 800fc3c <usb_lld_pump+0x26c>
 800fbfc:	f8d0 b010 	ldr.w	fp, [r0, #16]
 800fc00:	4622      	mov	r2, r4
 800fc02:	0897      	lsrs	r7, r2, #2
 800fc04:	6983      	ldr	r3, [r0, #24]
 800fc06:	d05e      	beq.n	800fcc6 <usb_lld_pump+0x2f6>
 800fc08:	ebbb 0103 	subs.w	r1, fp, r3
 800fc0c:	bf48      	it	mi
 800fc0e:	3103      	addmi	r1, #3
 800fc10:	108e      	asrs	r6, r1, #2
 800fc12:	42be      	cmp	r6, r7
 800fc14:	bf28      	it	cs
 800fc16:	463e      	movcs	r6, r7
 800fc18:	00b1      	lsls	r1, r6, #2
 800fc1a:	1a52      	subs	r2, r2, r1
 800fc1c:	2e00      	cmp	r6, #0
 800fc1e:	d07c      	beq.n	800fd1a <usb_lld_pump+0x34a>
 800fc20:	4419      	add	r1, r3
 800fc22:	f853 6b04 	ldr.w	r6, [r3], #4
 800fc26:	f8ce 6000 	str.w	r6, [lr]
 800fc2a:	428b      	cmp	r3, r1
 800fc2c:	d1f9      	bne.n	800fc22 <usb_lld_pump+0x252>
 800fc2e:	4559      	cmp	r1, fp
 800fc30:	6181      	str	r1, [r0, #24]
 800fc32:	d345      	bcc.n	800fcc0 <usb_lld_pump+0x2f0>
 800fc34:	68c3      	ldr	r3, [r0, #12]
 800fc36:	6183      	str	r3, [r0, #24]
 800fc38:	2a00      	cmp	r2, #0
 800fc3a:	d1e2      	bne.n	800fc02 <usb_lld_pump+0x232>
 800fc3c:	9b00      	ldr	r3, [sp, #0]
 800fc3e:	f383 8811 	msr	BASEPRI, r3
 800fc42:	6883      	ldr	r3, [r0, #8]
 800fc44:	4423      	add	r3, r4
 800fc46:	6083      	str	r3, [r0, #8]
 800fc48:	2100      	movs	r1, #0
 800fc4a:	f7fd fbc1 	bl	800d3d0 <chThdDequeueAllI>
 800fc4e:	f7fd fa97 	bl	800d180 <chSchRescheduleS>
 800fc52:	2300      	movs	r3, #0
 800fc54:	f383 8811 	msr	BASEPRI, r3
 800fc58:	f8d9 100c 	ldr.w	r1, [r9, #12]
 800fc5c:	694a      	ldr	r2, [r1, #20]
 800fc5e:	e9d2 0301 	ldrd	r0, r3, [r2, #4]
 800fc62:	441c      	add	r4, r3
 800fc64:	42a0      	cmp	r0, r4
 800fc66:	6094      	str	r4, [r2, #8]
 800fc68:	d959      	bls.n	800fd1e <usb_lld_pump+0x34e>
 800fc6a:	f8d5 e050 	ldr.w	lr, [r5, #80]	; 0x50
 800fc6e:	f8b1 c010 	ldrh.w	ip, [r1, #16]
 800fc72:	eb0e 0a08 	add.w	sl, lr, r8
 800fc76:	1b04      	subs	r4, r0, r4
 800fc78:	f8da 3918 	ldr.w	r3, [sl, #2328]	; 0x918
 800fc7c:	4564      	cmp	r4, ip
 800fc7e:	bf28      	it	cs
 800fc80:	4664      	movcs	r4, ip
 800fc82:	b29b      	uxth	r3, r3
 800fc84:	ebb4 0f83 	cmp.w	r4, r3, lsl #2
 800fc88:	d9b1      	bls.n	800fbee <usb_lld_pump+0x21e>
 800fc8a:	e9dd 9603 	ldrd	r9, r6, [sp, #12]
 800fc8e:	2200      	movs	r2, #0
 800fc90:	9b00      	ldr	r3, [sp, #0]
 800fc92:	f383 8811 	msr	BASEPRI, r3
 800fc96:	f8d9 3008 	ldr.w	r3, [r9, #8]
 800fc9a:	f043 0301 	orr.w	r3, r3, #1
 800fc9e:	f8c9 3008 	str.w	r3, [r9, #8]
 800fca2:	b922      	cbnz	r2, 800fcae <usb_lld_pump+0x2de>
 800fca4:	f8d9 3834 	ldr.w	r3, [r9, #2100]	; 0x834
 800fca8:	431e      	orrs	r6, r3
 800fcaa:	f8c9 6834 	str.w	r6, [r9, #2100]	; 0x834
 800fcae:	2300      	movs	r3, #0
 800fcb0:	f383 8811 	msr	BASEPRI, r3
 800fcb4:	e71a      	b.n	800faec <usb_lld_pump+0x11c>
 800fcb6:	bf00      	nop
 800fcb8:	20000c90 	.word	0x20000c90
 800fcbc:	08016c10 	.word	0x08016c10
 800fcc0:	2a00      	cmp	r2, #0
 800fcc2:	d0bb      	beq.n	800fc3c <usb_lld_pump+0x26c>
 800fcc4:	460b      	mov	r3, r1
 800fcc6:	2100      	movs	r1, #0
 800fcc8:	460e      	mov	r6, r1
 800fcca:	1c5f      	adds	r7, r3, #1
 800fccc:	6187      	str	r7, [r0, #24]
 800fcce:	781b      	ldrb	r3, [r3, #0]
 800fcd0:	455f      	cmp	r7, fp
 800fcd2:	fa03 f301 	lsl.w	r3, r3, r1
 800fcd6:	ea46 0603 	orr.w	r6, r6, r3
 800fcda:	bf24      	itt	cs
 800fcdc:	68c3      	ldrcs	r3, [r0, #12]
 800fcde:	6183      	strcs	r3, [r0, #24]
 800fce0:	3a01      	subs	r2, #1
 800fce2:	d004      	beq.n	800fcee <usb_lld_pump+0x31e>
 800fce4:	2918      	cmp	r1, #24
 800fce6:	d002      	beq.n	800fcee <usb_lld_pump+0x31e>
 800fce8:	3108      	adds	r1, #8
 800fcea:	6983      	ldr	r3, [r0, #24]
 800fcec:	e7ed      	b.n	800fcca <usb_lld_pump+0x2fa>
 800fcee:	f8ce 6000 	str.w	r6, [lr]
 800fcf2:	2a00      	cmp	r2, #0
 800fcf4:	d185      	bne.n	800fc02 <usb_lld_pump+0x232>
 800fcf6:	e7a1      	b.n	800fc3c <usb_lld_pump+0x26c>
 800fcf8:	1ce3      	adds	r3, r4, #3
 800fcfa:	089b      	lsrs	r3, r3, #2
 800fcfc:	d00a      	beq.n	800fd14 <usb_lld_pump+0x344>
 800fcfe:	eb00 0183 	add.w	r1, r0, r3, lsl #2
 800fd02:	4603      	mov	r3, r0
 800fd04:	f853 6b04 	ldr.w	r6, [r3], #4
 800fd08:	f8ce 6000 	str.w	r6, [lr]
 800fd0c:	428b      	cmp	r3, r1
 800fd0e:	d1f9      	bne.n	800fd04 <usb_lld_pump+0x334>
 800fd10:	f8d9 100c 	ldr.w	r1, [r9, #12]
 800fd14:	4420      	add	r0, r4
 800fd16:	60d0      	str	r0, [r2, #12]
 800fd18:	e7a0      	b.n	800fc5c <usb_lld_pump+0x28c>
 800fd1a:	4619      	mov	r1, r3
 800fd1c:	e787      	b.n	800fc2e <usb_lld_pump+0x25e>
 800fd1e:	e9dd 9603 	ldrd	r9, r6, [sp, #12]
 800fd22:	2201      	movs	r2, #1
 800fd24:	e7b4      	b.n	800fc90 <usb_lld_pump+0x2c0>
 800fd26:	9b00      	ldr	r3, [sp, #0]
 800fd28:	f383 8811 	msr	BASEPRI, r3
 800fd2c:	f8d9 3008 	ldr.w	r3, [r9, #8]
 800fd30:	f10a 0201 	add.w	r2, sl, #1
 800fd34:	f043 0301 	orr.w	r3, r3, #1
 800fd38:	9202      	str	r2, [sp, #8]
 800fd3a:	f8c9 3008 	str.w	r3, [r9, #8]
 800fd3e:	e7b6      	b.n	800fcae <usb_lld_pump+0x2de>
 800fd40:	9b00      	ldr	r3, [sp, #0]
 800fd42:	f383 8811 	msr	BASEPRI, r3
 800fd46:	f8d9 3008 	ldr.w	r3, [r9, #8]
 800fd4a:	f10a 0201 	add.w	r2, sl, #1
 800fd4e:	f043 0301 	orr.w	r3, r3, #1
 800fd52:	9202      	str	r2, [sp, #8]
 800fd54:	f8c9 3008 	str.w	r3, [r9, #8]
 800fd58:	e7a4      	b.n	800fca4 <usb_lld_pump+0x2d4>
 800fd5a:	bf00      	nop
 800fd5c:	0000      	movs	r0, r0
	...

0800fd60 <otg_disable_ep.isra.0>:
 800fd60:	688b      	ldr	r3, [r1, #8]
 800fd62:	b5f0      	push	{r4, r5, r6, r7, lr}
 800fd64:	2400      	movs	r4, #0
 800fd66:	f103 0c01 	add.w	ip, r3, #1
 800fd6a:	4625      	mov	r5, r4
 800fd6c:	f04f 4e80 	mov.w	lr, #1073741824	; 0x40000000
 800fd70:	f04f 36ff 	mov.w	r6, #4294967295
 800fd74:	e014      	b.n	800fda0 <otg_disable_ep.isra.0+0x40>
 800fd76:	f8c2 5900 	str.w	r5, [r2, #2304]	; 0x900
 800fd7a:	18c1      	adds	r1, r0, r3
 800fd7c:	f8c1 5910 	str.w	r5, [r1, #2320]	; 0x910
 800fd80:	f8c1 6908 	str.w	r6, [r1, #2312]	; 0x908
 800fd84:	f8d2 7b00 	ldr.w	r7, [r2, #2816]	; 0xb00
 800fd88:	2f00      	cmp	r7, #0
 800fd8a:	db17      	blt.n	800fdbc <otg_disable_ep.isra.0+0x5c>
 800fd8c:	f8c2 5b00 	str.w	r5, [r2, #2816]	; 0xb00
 800fd90:	4403      	add	r3, r0
 800fd92:	3401      	adds	r4, #1
 800fd94:	4564      	cmp	r4, ip
 800fd96:	f8c3 5b10 	str.w	r5, [r3, #2832]	; 0xb10
 800fd9a:	f8c3 6b08 	str.w	r6, [r3, #2824]	; 0xb08
 800fd9e:	d014      	beq.n	800fdca <otg_disable_ep.isra.0+0x6a>
 800fda0:	0163      	lsls	r3, r4, #5
 800fda2:	18c2      	adds	r2, r0, r3
 800fda4:	f8d2 1900 	ldr.w	r1, [r2, #2304]	; 0x900
 800fda8:	2900      	cmp	r1, #0
 800fdaa:	dae4      	bge.n	800fd76 <otg_disable_ep.isra.0+0x16>
 800fdac:	f8c2 e900 	str.w	lr, [r2, #2304]	; 0x900
 800fdb0:	4617      	mov	r7, r2
 800fdb2:	f8d7 1908 	ldr.w	r1, [r7, #2312]	; 0x908
 800fdb6:	0789      	lsls	r1, r1, #30
 800fdb8:	d5fb      	bpl.n	800fdb2 <otg_disable_ep.isra.0+0x52>
 800fdba:	e7de      	b.n	800fd7a <otg_disable_ep.isra.0+0x1a>
 800fdbc:	f8c2 eb00 	str.w	lr, [r2, #2816]	; 0xb00
 800fdc0:	f8d1 2b08 	ldr.w	r2, [r1, #2824]	; 0xb08
 800fdc4:	06d2      	lsls	r2, r2, #27
 800fdc6:	d5fb      	bpl.n	800fdc0 <otg_disable_ep.isra.0+0x60>
 800fdc8:	e7e2      	b.n	800fd90 <otg_disable_ep.isra.0+0x30>
 800fdca:	f04f 1301 	mov.w	r3, #65537	; 0x10001
 800fdce:	f8c0 381c 	str.w	r3, [r0, #2076]	; 0x81c
 800fdd2:	bdf0      	pop	{r4, r5, r6, r7, pc}
	...

0800fde0 <usb_lld_init>:
 800fde0:	b510      	push	{r4, lr}
 800fde2:	4c06      	ldr	r4, [pc, #24]	; (800fdfc <usb_lld_init+0x1c>)
 800fde4:	4620      	mov	r0, r4
 800fde6:	f7fe f9ab 	bl	800e140 <usbObjectInit>
 800fdea:	f04f 43a0 	mov.w	r3, #1342177280	; 0x50000000
 800fdee:	4a04      	ldr	r2, [pc, #16]	; (800fe00 <usb_lld_init+0x20>)
 800fdf0:	6523      	str	r3, [r4, #80]	; 0x50
 800fdf2:	2300      	movs	r3, #0
 800fdf4:	6562      	str	r2, [r4, #84]	; 0x54
 800fdf6:	e9c4 3318 	strd	r3, r3, [r4, #96]	; 0x60
 800fdfa:	bd10      	pop	{r4, pc}
 800fdfc:	20001000 	.word	0x20001000
 800fe00:	08016c00 	.word	0x08016c00
	...

0800fe10 <usb_lld_start>:
 800fe10:	7803      	ldrb	r3, [r0, #0]
 800fe12:	2b01      	cmp	r3, #1
 800fe14:	d000      	beq.n	800fe18 <usb_lld_start+0x8>
 800fe16:	4770      	bx	lr
 800fe18:	b570      	push	{r4, r5, r6, lr}
 800fe1a:	4b31      	ldr	r3, [pc, #196]	; (800fee0 <usb_lld_start+0xd0>)
 800fe1c:	6d06      	ldr	r6, [r0, #80]	; 0x50
 800fe1e:	4298      	cmp	r0, r3
 800fe20:	b082      	sub	sp, #8
 800fe22:	4605      	mov	r5, r0
 800fe24:	d03b      	beq.n	800fe9e <usb_lld_start+0x8e>
 800fe26:	4634      	mov	r4, r6
 800fe28:	2300      	movs	r3, #0
 800fe2a:	4a2e      	ldr	r2, [pc, #184]	; (800fee4 <usb_lld_start+0xd4>)
 800fe2c:	65eb      	str	r3, [r5, #92]	; 0x5c
 800fe2e:	492e      	ldr	r1, [pc, #184]	; (800fee8 <usb_lld_start+0xd8>)
 800fe30:	60f2      	str	r2, [r6, #12]
 800fe32:	f44f 1234 	mov.w	r2, #2949120	; 0x2d0000
 800fe36:	f8c6 1800 	str.w	r1, [r6, #2048]	; 0x800
 800fe3a:	2020      	movs	r0, #32
 800fe3c:	f8c6 3e00 	str.w	r3, [r6, #3584]	; 0xe00
 800fe40:	63b2      	str	r2, [r6, #56]	; 0x38
 800fe42:	f7fd f81d 	bl	800ce80 <chSysPolledDelayX>
 800fe46:	2301      	movs	r3, #1
 800fe48:	6123      	str	r3, [r4, #16]
 800fe4a:	6923      	ldr	r3, [r4, #16]
 800fe4c:	07db      	lsls	r3, r3, #31
 800fe4e:	d4fc      	bmi.n	800fe4a <usb_lld_start+0x3a>
 800fe50:	200c      	movs	r0, #12
 800fe52:	f7fd f815 	bl	800ce80 <chSysPolledDelayX>
 800fe56:	6923      	ldr	r3, [r4, #16]
 800fe58:	2b00      	cmp	r3, #0
 800fe5a:	dafc      	bge.n	800fe56 <usb_lld_start+0x46>
 800fe5c:	2400      	movs	r4, #0
 800fe5e:	60b4      	str	r4, [r6, #8]
 800fe60:	e9d5 0114 	ldrd	r0, r1, [r5, #80]	; 0x50
 800fe64:	f7ff ff7c 	bl	800fd60 <otg_disable_ep.isra.0>
 800fe68:	686b      	ldr	r3, [r5, #4]
 800fe6a:	f8c6 4810 	str.w	r4, [r6, #2064]	; 0x810
 800fe6e:	68db      	ldr	r3, [r3, #12]
 800fe70:	f8c6 4814 	str.w	r4, [r6, #2068]	; 0x814
 800fe74:	f8c6 481c 	str.w	r4, [r6, #2076]	; 0x81c
 800fe78:	b16b      	cbz	r3, 800fe96 <usb_lld_start+0x86>
 800fe7a:	f243 0308 	movw	r3, #12296	; 0x3008
 800fe7e:	61b3      	str	r3, [r6, #24]
 800fe80:	6e6b      	ldr	r3, [r5, #100]	; 0x64
 800fe82:	f04f 32ff 	mov.w	r2, #4294967295
 800fe86:	6172      	str	r2, [r6, #20]
 800fe88:	b1d3      	cbz	r3, 800fec0 <usb_lld_start+0xb0>
 800fe8a:	68b3      	ldr	r3, [r6, #8]
 800fe8c:	f043 0301 	orr.w	r3, r3, #1
 800fe90:	60b3      	str	r3, [r6, #8]
 800fe92:	b002      	add	sp, #8
 800fe94:	bd70      	pop	{r4, r5, r6, pc}
 800fe96:	f44f 5340 	mov.w	r3, #12288	; 0x3000
 800fe9a:	61b3      	str	r3, [r6, #24]
 800fe9c:	e7f0      	b.n	800fe80 <usb_lld_start+0x70>
 800fe9e:	4b13      	ldr	r3, [pc, #76]	; (800feec <usb_lld_start+0xdc>)
 800fea0:	6b5a      	ldr	r2, [r3, #52]	; 0x34
 800fea2:	f042 0280 	orr.w	r2, r2, #128	; 0x80
 800fea6:	635a      	str	r2, [r3, #52]	; 0x34
 800fea8:	695a      	ldr	r2, [r3, #20]
 800feaa:	2000      	movs	r0, #0
 800feac:	f042 0280 	orr.w	r2, r2, #128	; 0x80
 800feb0:	615a      	str	r2, [r3, #20]
 800feb2:	210e      	movs	r1, #14
 800feb4:	6158      	str	r0, [r3, #20]
 800feb6:	2043      	movs	r0, #67	; 0x43
 800feb8:	f7fe fc4a 	bl	800e750 <nvicEnableVector>
 800febc:	6d2c      	ldr	r4, [r5, #80]	; 0x50
 800febe:	e7b3      	b.n	800fe28 <usb_lld_start+0x18>
 800fec0:	4b0b      	ldr	r3, [pc, #44]	; (800fef0 <usb_lld_start+0xe0>)
 800fec2:	9500      	str	r5, [sp, #0]
 800fec4:	2202      	movs	r2, #2
 800fec6:	f44f 7106 	mov.w	r1, #536	; 0x218
 800feca:	f105 0068 	add.w	r0, r5, #104	; 0x68
 800fece:	f7fd f997 	bl	800d200 <chThdCreateI>
 800fed2:	6668      	str	r0, [r5, #100]	; 0x64
 800fed4:	f7fd f874 	bl	800cfc0 <chSchReadyI>
 800fed8:	f7fd f952 	bl	800d180 <chSchRescheduleS>
 800fedc:	e7d5      	b.n	800fe8a <usb_lld_start+0x7a>
 800fede:	bf00      	nop
 800fee0:	20001000 	.word	0x20001000
 800fee4:	40001440 	.word	0x40001440
 800fee8:	02200003 	.word	0x02200003
 800feec:	40023800 	.word	0x40023800
 800fef0:	0800f9d1 	.word	0x0800f9d1
	...

0800ff00 <usb_lld_reset>:
 800ff00:	b5f8      	push	{r3, r4, r5, r6, r7, lr}
 800ff02:	6d05      	ldr	r5, [r0, #80]	; 0x50
 800ff04:	2320      	movs	r3, #32
 800ff06:	4606      	mov	r6, r0
 800ff08:	612b      	str	r3, [r5, #16]
 800ff0a:	692c      	ldr	r4, [r5, #16]
 800ff0c:	f014 0420 	ands.w	r4, r4, #32
 800ff10:	d1fb      	bne.n	800ff0a <usb_lld_reset+0xa>
 800ff12:	200c      	movs	r0, #12
 800ff14:	f7fc ffb4 	bl	800ce80 <chSysPolledDelayX>
 800ff18:	6d77      	ldr	r7, [r6, #84]	; 0x54
 800ff1a:	68ba      	ldr	r2, [r7, #8]
 800ff1c:	4623      	mov	r3, r4
 800ff1e:	f04f 6000 	mov.w	r0, #134217728	; 0x8000000
 800ff22:	1c54      	adds	r4, r2, #1
 800ff24:	21ff      	movs	r1, #255	; 0xff
 800ff26:	eb05 1243 	add.w	r2, r5, r3, lsl #5
 800ff2a:	3301      	adds	r3, #1
 800ff2c:	429c      	cmp	r4, r3
 800ff2e:	f8c2 0900 	str.w	r0, [r2, #2304]	; 0x900
 800ff32:	f8c2 0b00 	str.w	r0, [r2, #2816]	; 0xb00
 800ff36:	f8c2 1908 	str.w	r1, [r2, #2312]	; 0x908
 800ff3a:	f8c2 1b08 	str.w	r1, [r2, #2824]	; 0xb08
 800ff3e:	d1f2      	bne.n	800ff26 <usb_lld_reset+0x26>
 800ff40:	683b      	ldr	r3, [r7, #0]
 800ff42:	f04f 1201 	mov.w	r2, #65537	; 0x10001
 800ff46:	f04f 31ff 	mov.w	r1, #4294967295
 800ff4a:	f8c5 1818 	str.w	r1, [r5, #2072]	; 0x818
 800ff4e:	f8c5 281c 	str.w	r2, [r5, #2076]	; 0x81c
 800ff52:	65b3      	str	r3, [r6, #88]	; 0x58
 800ff54:	683b      	ldr	r3, [r7, #0]
 800ff56:	6d32      	ldr	r2, [r6, #80]	; 0x50
 800ff58:	626b      	str	r3, [r5, #36]	; 0x24
 800ff5a:	2310      	movs	r3, #16
 800ff5c:	6113      	str	r3, [r2, #16]
 800ff5e:	6914      	ldr	r4, [r2, #16]
 800ff60:	f014 0410 	ands.w	r4, r4, #16
 800ff64:	d1fb      	bne.n	800ff5e <usb_lld_reset+0x5e>
 800ff66:	200c      	movs	r0, #12
 800ff68:	f7fc ff8a 	bl	800ce80 <chSysPolledDelayX>
 800ff6c:	f8d5 3800 	ldr.w	r3, [r5, #2048]	; 0x800
 800ff70:	4a10      	ldr	r2, [pc, #64]	; (800ffb4 <usb_lld_reset+0xb4>)
 800ff72:	4911      	ldr	r1, [pc, #68]	; (800ffb8 <usb_lld_reset+0xb8>)
 800ff74:	f423 63fe 	bic.w	r3, r3, #2032	; 0x7f0
 800ff78:	f8c5 3800 	str.w	r3, [r5, #2048]	; 0x800
 800ff7c:	69ab      	ldr	r3, [r5, #24]
 800ff7e:	f443 2340 	orr.w	r3, r3, #786432	; 0xc0000
 800ff82:	f043 0310 	orr.w	r3, r3, #16
 800ff86:	61ab      	str	r3, [r5, #24]
 800ff88:	2309      	movs	r3, #9
 800ff8a:	f8c5 3810 	str.w	r3, [r5, #2064]	; 0x810
 800ff8e:	f8c5 3814 	str.w	r3, [r5, #2068]	; 0x814
 800ff92:	60f1      	str	r1, [r6, #12]
 800ff94:	f8c5 4b10 	str.w	r4, [r5, #2832]	; 0xb10
 800ff98:	f8c5 2b00 	str.w	r2, [r5, #2816]	; 0xb00
 800ff9c:	f8c5 4910 	str.w	r4, [r5, #2320]	; 0x910
 800ffa0:	f8c5 2900 	str.w	r2, [r5, #2304]	; 0x900
 800ffa4:	6db3      	ldr	r3, [r6, #88]	; 0x58
 800ffa6:	f103 0210 	add.w	r2, r3, #16
 800ffaa:	f443 1380 	orr.w	r3, r3, #1048576	; 0x100000
 800ffae:	65b2      	str	r2, [r6, #88]	; 0x58
 800ffb0:	62ab      	str	r3, [r5, #40]	; 0x28
 800ffb2:	bdf8      	pop	{r3, r4, r5, r6, r7, pc}
 800ffb4:	10008040 	.word	0x10008040
 800ffb8:	08016bd0 	.word	0x08016bd0
 800ffbc:	00000000 	.word	0x00000000

0800ffc0 <usb_lld_set_address>:
 800ffc0:	6d02      	ldr	r2, [r0, #80]	; 0x50
 800ffc2:	f890 104e 	ldrb.w	r1, [r0, #78]	; 0x4e
 800ffc6:	f8d2 3800 	ldr.w	r3, [r2, #2048]	; 0x800
 800ffca:	f423 63fe 	bic.w	r3, r3, #2032	; 0x7f0
 800ffce:	ea43 1301 	orr.w	r3, r3, r1, lsl #4
 800ffd2:	f8c2 3800 	str.w	r3, [r2, #2048]	; 0x800
 800ffd6:	4770      	bx	lr
	...

0800ffe0 <usb_lld_init_endpoint>:
 800ffe0:	e92d 43f8 	stmdb	sp!, {r3, r4, r5, r6, r7, r8, r9, lr}
 800ffe4:	fa0f f881 	sxth.w	r8, r1
 800ffe8:	eb00 0788 	add.w	r7, r0, r8, lsl #2
 800ffec:	460d      	mov	r5, r1
 800ffee:	68fb      	ldr	r3, [r7, #12]
 800fff0:	681a      	ldr	r2, [r3, #0]
 800fff2:	f002 0203 	and.w	r2, r2, #3
 800fff6:	2a02      	cmp	r2, #2
 800fff8:	f000 8097 	beq.w	801012a <usb_lld_init_endpoint+0x14a>
 800fffc:	2a03      	cmp	r2, #3
 800fffe:	f000 8091 	beq.w	8010124 <usb_lld_init_endpoint+0x144>
 8010002:	4c4b      	ldr	r4, [pc, #300]	; (8010130 <usb_lld_init_endpoint+0x150>)
 8010004:	494b      	ldr	r1, [pc, #300]	; (8010134 <usb_lld_init_endpoint+0x154>)
 8010006:	2a01      	cmp	r2, #1
 8010008:	bf0c      	ite	eq
 801000a:	46a1      	moveq	r9, r4
 801000c:	4689      	movne	r9, r1
 801000e:	6d04      	ldr	r4, [r0, #80]	; 0x50
 8010010:	68de      	ldr	r6, [r3, #12]
 8010012:	0169      	lsls	r1, r5, #5
 8010014:	1862      	adds	r2, r4, r1
 8010016:	f04f 0c00 	mov.w	ip, #0
 801001a:	f8c2 cb10 	str.w	ip, [r2, #2832]	; 0xb10
 801001e:	f105 0210 	add.w	r2, r5, #16
 8010022:	f04f 0c01 	mov.w	ip, #1
 8010026:	fa0c f202 	lsl.w	r2, ip, r2
 801002a:	2e00      	cmp	r6, #0
 801002c:	d04b      	beq.n	80100c6 <usb_lld_init_endpoint+0xe6>
 801002e:	f8b3 c012 	ldrh.w	ip, [r3, #18]
 8010032:	f105 0658 	add.w	r6, r5, #88	; 0x58
 8010036:	0176      	lsls	r6, r6, #5
 8010038:	ea4c 0c09 	orr.w	ip, ip, r9
 801003c:	f844 c006 	str.w	ip, [r4, r6]
 8010040:	f8d4 681c 	ldr.w	r6, [r4, #2076]	; 0x81c
 8010044:	4332      	orrs	r2, r6
 8010046:	f8c4 281c 	str.w	r2, [r4, #2076]	; 0x81c
 801004a:	1866      	adds	r6, r4, r1
 801004c:	f8d3 c008 	ldr.w	ip, [r3, #8]
 8010050:	2200      	movs	r2, #0
 8010052:	01a9      	lsls	r1, r5, #6
 8010054:	f8c6 2910 	str.w	r2, [r6, #2320]	; 0x910
 8010058:	f041 0120 	orr.w	r1, r1, #32
 801005c:	1e6a      	subs	r2, r5, #1
 801005e:	f1bc 0f00 	cmp.w	ip, #0
 8010062:	d03f      	beq.n	80100e4 <usb_lld_init_endpoint+0x104>
 8010064:	f8b3 c01c 	ldrh.w	ip, [r3, #28]
 8010068:	8a1e      	ldrh	r6, [r3, #16]
 801006a:	f1bc 0f01 	cmp.w	ip, #1
 801006e:	ea4f 0396 	mov.w	r3, r6, lsr #2
 8010072:	f102 0240 	add.w	r2, r2, #64	; 0x40
 8010076:	6d86      	ldr	r6, [r0, #88]	; 0x58
 8010078:	bf88      	it	hi
 801007a:	fb0c f303 	mulhi.w	r3, ip, r3
 801007e:	eb04 0282 	add.w	r2, r4, r2, lsl #2
 8010082:	eb03 0c06 	add.w	ip, r3, r6
 8010086:	ea46 4303 	orr.w	r3, r6, r3, lsl #16
 801008a:	f8c0 c058 	str.w	ip, [r0, #88]	; 0x58
 801008e:	6053      	str	r3, [r2, #4]
 8010090:	6121      	str	r1, [r4, #16]
 8010092:	6923      	ldr	r3, [r4, #16]
 8010094:	069a      	lsls	r2, r3, #26
 8010096:	d4fc      	bmi.n	8010092 <usb_lld_init_endpoint+0xb2>
 8010098:	200c      	movs	r0, #12
 801009a:	f7fc fef1 	bl	800ce80 <chSysPolledDelayX>
 801009e:	68fb      	ldr	r3, [r7, #12]
 80100a0:	8a1a      	ldrh	r2, [r3, #16]
 80100a2:	f105 0348 	add.w	r3, r5, #72	; 0x48
 80100a6:	ea42 5285 	orr.w	r2, r2, r5, lsl #22
 80100aa:	015b      	lsls	r3, r3, #5
 80100ac:	ea42 0209 	orr.w	r2, r2, r9
 80100b0:	50e2      	str	r2, [r4, r3]
 80100b2:	2101      	movs	r1, #1
 80100b4:	f8d4 381c 	ldr.w	r3, [r4, #2076]	; 0x81c
 80100b8:	fa01 f505 	lsl.w	r5, r1, r5
 80100bc:	431d      	orrs	r5, r3
 80100be:	f8c4 581c 	str.w	r5, [r4, #2076]	; 0x81c
 80100c2:	e8bd 83f8 	ldmia.w	sp!, {r3, r4, r5, r6, r7, r8, r9, pc}
 80100c6:	eb04 1c48 	add.w	ip, r4, r8, lsl #5
 80100ca:	f8dc 6b00 	ldr.w	r6, [ip, #2816]	; 0xb00
 80100ce:	f426 4600 	bic.w	r6, r6, #32768	; 0x8000
 80100d2:	f8cc 6b00 	str.w	r6, [ip, #2816]	; 0xb00
 80100d6:	f8d4 681c 	ldr.w	r6, [r4, #2076]	; 0x81c
 80100da:	ea26 0202 	bic.w	r2, r6, r2
 80100de:	f8c4 281c 	str.w	r2, [r4, #2076]	; 0x81c
 80100e2:	e7b2      	b.n	801004a <usb_lld_init_endpoint+0x6a>
 80100e4:	f105 033f 	add.w	r3, r5, #63	; 0x3f
 80100e8:	eb04 0383 	add.w	r3, r4, r3, lsl #2
 80100ec:	4a12      	ldr	r2, [pc, #72]	; (8010138 <usb_lld_init_endpoint+0x158>)
 80100ee:	605a      	str	r2, [r3, #4]
 80100f0:	6121      	str	r1, [r4, #16]
 80100f2:	6923      	ldr	r3, [r4, #16]
 80100f4:	069b      	lsls	r3, r3, #26
 80100f6:	d4fc      	bmi.n	80100f2 <usb_lld_init_endpoint+0x112>
 80100f8:	eb04 1848 	add.w	r8, r4, r8, lsl #5
 80100fc:	200c      	movs	r0, #12
 80100fe:	f7fc febf 	bl	800ce80 <chSysPolledDelayX>
 8010102:	f8d8 3900 	ldr.w	r3, [r8, #2304]	; 0x900
 8010106:	f423 4300 	bic.w	r3, r3, #32768	; 0x8000
 801010a:	f8c8 3900 	str.w	r3, [r8, #2304]	; 0x900
 801010e:	f8d4 381c 	ldr.w	r3, [r4, #2076]	; 0x81c
 8010112:	2101      	movs	r1, #1
 8010114:	fa01 f505 	lsl.w	r5, r1, r5
 8010118:	ea23 0505 	bic.w	r5, r3, r5
 801011c:	f8c4 581c 	str.w	r5, [r4, #2076]	; 0x81c
 8010120:	e8bd 83f8 	ldmia.w	sp!, {r3, r4, r5, r6, r7, r8, r9, pc}
 8010124:	f8df 9014 	ldr.w	r9, [pc, #20]	; 801013c <usb_lld_init_endpoint+0x15c>
 8010128:	e771      	b.n	801000e <usb_lld_init_endpoint+0x2e>
 801012a:	f8df 9014 	ldr.w	r9, [pc, #20]	; 8010140 <usb_lld_init_endpoint+0x160>
 801012e:	e76e      	b.n	801000e <usb_lld_init_endpoint+0x2e>
 8010130:	10048000 	.word	0x10048000
 8010134:	10008000 	.word	0x10008000
 8010138:	02000400 	.word	0x02000400
 801013c:	100c8000 	.word	0x100c8000
 8010140:	10088000 	.word	0x10088000
	...

08010150 <usb_lld_get_status_out>:
 8010150:	3158      	adds	r1, #88	; 0x58
 8010152:	6d03      	ldr	r3, [r0, #80]	; 0x50
 8010154:	0149      	lsls	r1, r1, #5
 8010156:	585b      	ldr	r3, [r3, r1]
 8010158:	f413 4000 	ands.w	r0, r3, #32768	; 0x8000
 801015c:	d004      	beq.n	8010168 <usb_lld_get_status_out+0x18>
 801015e:	f413 1f00 	tst.w	r3, #2097152	; 0x200000
 8010162:	bf14      	ite	ne
 8010164:	2001      	movne	r0, #1
 8010166:	2002      	moveq	r0, #2
 8010168:	4770      	bx	lr
 801016a:	bf00      	nop
 801016c:	0000      	movs	r0, r0
	...

08010170 <usb_lld_get_status_in>:
 8010170:	3148      	adds	r1, #72	; 0x48
 8010172:	6d03      	ldr	r3, [r0, #80]	; 0x50
 8010174:	0149      	lsls	r1, r1, #5
 8010176:	585b      	ldr	r3, [r3, r1]
 8010178:	f413 4000 	ands.w	r0, r3, #32768	; 0x8000
 801017c:	d004      	beq.n	8010188 <usb_lld_get_status_in+0x18>
 801017e:	f413 1f00 	tst.w	r3, #2097152	; 0x200000
 8010182:	bf14      	ite	ne
 8010184:	2001      	movne	r0, #1
 8010186:	2002      	moveq	r0, #2
 8010188:	4770      	bx	lr
 801018a:	bf00      	nop
 801018c:	0000      	movs	r0, r0
	...

08010190 <usb_lld_read_setup>:
 8010190:	eb00 0181 	add.w	r1, r0, r1, lsl #2
 8010194:	68cb      	ldr	r3, [r1, #12]
 8010196:	6a1b      	ldr	r3, [r3, #32]
 8010198:	6819      	ldr	r1, [r3, #0]
 801019a:	685b      	ldr	r3, [r3, #4]
 801019c:	6053      	str	r3, [r2, #4]
 801019e:	6011      	str	r1, [r2, #0]
 80101a0:	4770      	bx	lr
 80101a2:	bf00      	nop
	...

080101b0 <usb_lld_prepare_receive>:
 80101b0:	eb00 0381 	add.w	r3, r0, r1, lsl #2
 80101b4:	b470      	push	{r4, r5, r6}
 80101b6:	68de      	ldr	r6, [r3, #12]
 80101b8:	69b5      	ldr	r5, [r6, #24]
 80101ba:	686a      	ldr	r2, [r5, #4]
 80101bc:	612a      	str	r2, [r5, #16]
 80101be:	b929      	cbnz	r1, 80101cc <usb_lld_prepare_receive+0x1c>
 80101c0:	2a40      	cmp	r2, #64	; 0x40
 80101c2:	d903      	bls.n	80101cc <usb_lld_prepare_receive+0x1c>
 80101c4:	2240      	movs	r2, #64	; 0x40
 80101c6:	4c09      	ldr	r4, [pc, #36]	; (80101ec <usb_lld_prepare_receive+0x3c>)
 80101c8:	606a      	str	r2, [r5, #4]
 80101ca:	e001      	b.n	80101d0 <usb_lld_prepare_receive+0x20>
 80101cc:	f042 44c0 	orr.w	r4, r2, #1610612736	; 0x60000000
 80101d0:	8a75      	ldrh	r5, [r6, #18]
 80101d2:	6d00      	ldr	r0, [r0, #80]	; 0x50
 80101d4:	1e6b      	subs	r3, r5, #1
 80101d6:	eb00 1141 	add.w	r1, r0, r1, lsl #5
 80101da:	4413      	add	r3, r2
 80101dc:	fbb3 f3f5 	udiv	r3, r3, r5
 80101e0:	ea44 43c3 	orr.w	r3, r4, r3, lsl #19
 80101e4:	f8c1 3b10 	str.w	r3, [r1, #2832]	; 0xb10
 80101e8:	bc70      	pop	{r4, r5, r6}
 80101ea:	4770      	bx	lr
 80101ec:	60000040 	.word	0x60000040

080101f0 <otg_epout_handler.constprop.7>:
 80101f0:	e92d 41f0 	stmdb	sp!, {r4, r5, r6, r7, r8, lr}
 80101f4:	4e24      	ldr	r6, [pc, #144]	; (8010288 <otg_epout_handler.constprop.7+0x98>)
 80101f6:	6d37      	ldr	r7, [r6, #80]	; 0x50
 80101f8:	eb07 1340 	add.w	r3, r7, r0, lsl #5
 80101fc:	4605      	mov	r5, r0
 80101fe:	f8d3 4b08 	ldr.w	r4, [r3, #2824]	; 0xb08
 8010202:	f8c3 4b08 	str.w	r4, [r3, #2824]	; 0xb08
 8010206:	0720      	lsls	r0, r4, #28
 8010208:	d50a      	bpl.n	8010220 <otg_epout_handler.constprop.7+0x30>
 801020a:	f8d7 3814 	ldr.w	r3, [r7, #2068]	; 0x814
 801020e:	0719      	lsls	r1, r3, #28
 8010210:	d506      	bpl.n	8010220 <otg_epout_handler.constprop.7+0x30>
 8010212:	eb06 0385 	add.w	r3, r6, r5, lsl #2
 8010216:	4629      	mov	r1, r5
 8010218:	68db      	ldr	r3, [r3, #12]
 801021a:	4630      	mov	r0, r6
 801021c:	685b      	ldr	r3, [r3, #4]
 801021e:	4798      	blx	r3
 8010220:	07e2      	lsls	r2, r4, #31
 8010222:	d52e      	bpl.n	8010282 <otg_epout_handler.constprop.7+0x92>
 8010224:	f8d7 3814 	ldr.w	r3, [r7, #2068]	; 0x814
 8010228:	07db      	lsls	r3, r3, #31
 801022a:	d52a      	bpl.n	8010282 <otg_epout_handler.constprop.7+0x92>
 801022c:	eb06 0385 	add.w	r3, r6, r5, lsl #2
 8010230:	68d9      	ldr	r1, [r3, #12]
 8010232:	698b      	ldr	r3, [r1, #24]
 8010234:	6858      	ldr	r0, [r3, #4]
 8010236:	691a      	ldr	r2, [r3, #16]
 8010238:	4290      	cmp	r0, r2
 801023a:	d30c      	bcc.n	8010256 <otg_epout_handler.constprop.7+0x66>
 801023c:	8973      	ldrh	r3, [r6, #10]
 801023e:	68cc      	ldr	r4, [r1, #12]
 8010240:	4811      	ldr	r0, [pc, #68]	; (8010288 <otg_epout_handler.constprop.7+0x98>)
 8010242:	2201      	movs	r2, #1
 8010244:	40aa      	lsls	r2, r5
 8010246:	ea23 0302 	bic.w	r3, r3, r2
 801024a:	8173      	strh	r3, [r6, #10]
 801024c:	4629      	mov	r1, r5
 801024e:	4623      	mov	r3, r4
 8010250:	e8bd 41f0 	ldmia.w	sp!, {r4, r5, r6, r7, r8, lr}
 8010254:	4718      	bx	r3
 8010256:	1a12      	subs	r2, r2, r0
 8010258:	2400      	movs	r4, #0
 801025a:	e9c3 2401 	strd	r2, r4, [r3, #4]
 801025e:	4629      	mov	r1, r5
 8010260:	4809      	ldr	r0, [pc, #36]	; (8010288 <otg_epout_handler.constprop.7+0x98>)
 8010262:	f7ff ffa5 	bl	80101b0 <usb_lld_prepare_receive>
 8010266:	2320      	movs	r3, #32
 8010268:	f383 8811 	msr	BASEPRI, r3
 801026c:	6d33      	ldr	r3, [r6, #80]	; 0x50
 801026e:	eb03 1545 	add.w	r5, r3, r5, lsl #5
 8010272:	f8d5 3b00 	ldr.w	r3, [r5, #2816]	; 0xb00
 8010276:	f043 6380 	orr.w	r3, r3, #67108864	; 0x4000000
 801027a:	f8c5 3b00 	str.w	r3, [r5, #2816]	; 0xb00
 801027e:	f384 8811 	msr	BASEPRI, r4
 8010282:	e8bd 81f0 	ldmia.w	sp!, {r4, r5, r6, r7, r8, pc}
 8010286:	bf00      	nop
 8010288:	20001000 	.word	0x20001000
 801028c:	00000000 	.word	0x00000000

08010290 <usb_lld_prepare_transmit>:
 8010290:	eb00 0381 	add.w	r3, r0, r1, lsl #2
 8010294:	b410      	push	{r4}
 8010296:	68dc      	ldr	r4, [r3, #12]
 8010298:	6d02      	ldr	r2, [r0, #80]	; 0x50
 801029a:	6960      	ldr	r0, [r4, #20]
 801029c:	6843      	ldr	r3, [r0, #4]
 801029e:	6103      	str	r3, [r0, #16]
 80102a0:	b19b      	cbz	r3, 80102ca <usb_lld_prepare_transmit+0x3a>
 80102a2:	b169      	cbz	r1, 80102c0 <usb_lld_prepare_transmit+0x30>
 80102a4:	8a20      	ldrh	r0, [r4, #16]
 80102a6:	f85d 4b04 	ldr.w	r4, [sp], #4
 80102aa:	eb02 1241 	add.w	r2, r2, r1, lsl #5
 80102ae:	1e41      	subs	r1, r0, #1
 80102b0:	4419      	add	r1, r3
 80102b2:	fbb1 f1f0 	udiv	r1, r1, r0
 80102b6:	ea43 43c1 	orr.w	r3, r3, r1, lsl #19
 80102ba:	f8c2 3910 	str.w	r3, [r2, #2320]	; 0x910
 80102be:	4770      	bx	lr
 80102c0:	2b40      	cmp	r3, #64	; 0x40
 80102c2:	bf84      	itt	hi
 80102c4:	2340      	movhi	r3, #64	; 0x40
 80102c6:	6043      	strhi	r3, [r0, #4]
 80102c8:	e7ec      	b.n	80102a4 <usb_lld_prepare_transmit+0x14>
 80102ca:	eb02 1241 	add.w	r2, r2, r1, lsl #5
 80102ce:	f44f 2300 	mov.w	r3, #524288	; 0x80000
 80102d2:	f8c2 3910 	str.w	r3, [r2, #2320]	; 0x910
 80102d6:	f85d 4b04 	ldr.w	r4, [sp], #4
 80102da:	4770      	bx	lr
 80102dc:	0000      	movs	r0, r0
	...

080102e0 <otg_epin_handler.constprop.8>:
 80102e0:	e92d 41f0 	stmdb	sp!, {r4, r5, r6, r7, r8, lr}
 80102e4:	4e30      	ldr	r6, [pc, #192]	; (80103a8 <otg_epin_handler.constprop.8+0xc8>)
 80102e6:	6d35      	ldr	r5, [r6, #80]	; 0x50
 80102e8:	eb05 1340 	add.w	r3, r5, r0, lsl #5
 80102ec:	4607      	mov	r7, r0
 80102ee:	f8d3 4908 	ldr.w	r4, [r3, #2312]	; 0x908
 80102f2:	f8c3 4908 	str.w	r4, [r3, #2312]	; 0x908
 80102f6:	07e1      	lsls	r1, r4, #31
 80102f8:	d516      	bpl.n	8010328 <otg_epin_handler.constprop.8+0x48>
 80102fa:	f8d5 3810 	ldr.w	r3, [r5, #2064]	; 0x810
 80102fe:	07da      	lsls	r2, r3, #31
 8010300:	d512      	bpl.n	8010328 <otg_epin_handler.constprop.8+0x48>
 8010302:	eb06 0380 	add.w	r3, r6, r0, lsl #2
 8010306:	68d9      	ldr	r1, [r3, #12]
 8010308:	694b      	ldr	r3, [r1, #20]
 801030a:	6858      	ldr	r0, [r3, #4]
 801030c:	691a      	ldr	r2, [r3, #16]
 801030e:	4290      	cmp	r0, r2
 8010310:	d32a      	bcc.n	8010368 <otg_epin_handler.constprop.8+0x88>
 8010312:	8933      	ldrh	r3, [r6, #8]
 8010314:	f8d1 8008 	ldr.w	r8, [r1, #8]
 8010318:	2201      	movs	r2, #1
 801031a:	40ba      	lsls	r2, r7
 801031c:	ea23 0302 	bic.w	r3, r3, r2
 8010320:	8133      	strh	r3, [r6, #8]
 8010322:	4639      	mov	r1, r7
 8010324:	4630      	mov	r0, r6
 8010326:	47c0      	blx	r8
 8010328:	0623      	lsls	r3, r4, #24
 801032a:	d506      	bpl.n	801033a <otg_epin_handler.constprop.8+0x5a>
 801032c:	2301      	movs	r3, #1
 801032e:	f8d5 2834 	ldr.w	r2, [r5, #2100]	; 0x834
 8010332:	fa03 f707 	lsl.w	r7, r3, r7
 8010336:	4217      	tst	r7, r2
 8010338:	d101      	bne.n	801033e <otg_epin_handler.constprop.8+0x5e>
 801033a:	e8bd 81f0 	ldmia.w	sp!, {r4, r5, r6, r7, r8, pc}
 801033e:	2320      	movs	r3, #32
 8010340:	f383 8811 	msr	BASEPRI, r3
 8010344:	f8d5 2834 	ldr.w	r2, [r5, #2100]	; 0x834
 8010348:	6df3      	ldr	r3, [r6, #92]	; 0x5c
 801034a:	4818      	ldr	r0, [pc, #96]	; (80103ac <otg_epin_handler.constprop.8+0xcc>)
 801034c:	ea22 0207 	bic.w	r2, r2, r7
 8010350:	f8c5 2834 	str.w	r2, [r5, #2100]	; 0x834
 8010354:	431f      	orrs	r7, r3
 8010356:	2100      	movs	r1, #0
 8010358:	65f7      	str	r7, [r6, #92]	; 0x5c
 801035a:	f7fd f811 	bl	800d380 <chThdResumeI>
 801035e:	2300      	movs	r3, #0
 8010360:	f383 8811 	msr	BASEPRI, r3
 8010364:	e8bd 81f0 	ldmia.w	sp!, {r4, r5, r6, r7, r8, pc}
 8010368:	1a12      	subs	r2, r2, r0
 801036a:	f04f 0800 	mov.w	r8, #0
 801036e:	e9c3 2801 	strd	r2, r8, [r3, #4]
 8010372:	4639      	mov	r1, r7
 8010374:	4630      	mov	r0, r6
 8010376:	f7ff ff8b 	bl	8010290 <usb_lld_prepare_transmit>
 801037a:	2320      	movs	r3, #32
 801037c:	f383 8811 	msr	BASEPRI, r3
 8010380:	6d32      	ldr	r2, [r6, #80]	; 0x50
 8010382:	eb02 1047 	add.w	r0, r2, r7, lsl #5
 8010386:	2301      	movs	r3, #1
 8010388:	f8d0 1900 	ldr.w	r1, [r0, #2304]	; 0x900
 801038c:	f041 4104 	orr.w	r1, r1, #2214592512	; 0x84000000
 8010390:	f8c0 1900 	str.w	r1, [r0, #2304]	; 0x900
 8010394:	f8d2 1834 	ldr.w	r1, [r2, #2100]	; 0x834
 8010398:	40bb      	lsls	r3, r7
 801039a:	430b      	orrs	r3, r1
 801039c:	f8c2 3834 	str.w	r3, [r2, #2100]	; 0x834
 80103a0:	f388 8811 	msr	BASEPRI, r8
 80103a4:	e7c0      	b.n	8010328 <otg_epin_handler.constprop.8+0x48>
 80103a6:	bf00      	nop
 80103a8:	20001000 	.word	0x20001000
 80103ac:	20001060 	.word	0x20001060

080103b0 <Vector14C>:
 80103b0:	b570      	push	{r4, r5, r6, lr}
 80103b2:	4d3a      	ldr	r5, [pc, #232]	; (801049c <Vector14C+0xec>)
 80103b4:	6d2e      	ldr	r6, [r5, #80]	; 0x50
 80103b6:	6974      	ldr	r4, [r6, #20]
 80103b8:	69b3      	ldr	r3, [r6, #24]
 80103ba:	401c      	ands	r4, r3
 80103bc:	04e1      	lsls	r1, r4, #19
 80103be:	6174      	str	r4, [r6, #20]
 80103c0:	d426      	bmi.n	8010410 <Vector14C+0x60>
 80103c2:	04a2      	lsls	r2, r4, #18
 80103c4:	bf48      	it	mi
 80103c6:	f8d6 3808 	ldrmi.w	r3, [r6, #2056]	; 0x808
 80103ca:	0723      	lsls	r3, r4, #28
 80103cc:	d504      	bpl.n	80103d8 <Vector14C+0x28>
 80103ce:	686b      	ldr	r3, [r5, #4]
 80103d0:	68db      	ldr	r3, [r3, #12]
 80103d2:	b10b      	cbz	r3, 80103d8 <Vector14C+0x28>
 80103d4:	4831      	ldr	r0, [pc, #196]	; (801049c <Vector14C+0xec>)
 80103d6:	4798      	blx	r3
 80103d8:	06e5      	lsls	r5, r4, #27
 80103da:	d424      	bmi.n	8010426 <Vector14C+0x76>
 80103dc:	0360      	lsls	r0, r4, #13
 80103de:	f8d6 5818 	ldr.w	r5, [r6, #2072]	; 0x818
 80103e2:	d507      	bpl.n	80103f4 <Vector14C+0x44>
 80103e4:	07e9      	lsls	r1, r5, #31
 80103e6:	d44f      	bmi.n	8010488 <Vector14C+0xd8>
 80103e8:	07aa      	lsls	r2, r5, #30
 80103ea:	d442      	bmi.n	8010472 <Vector14C+0xc2>
 80103ec:	076b      	lsls	r3, r5, #29
 80103ee:	d445      	bmi.n	801047c <Vector14C+0xcc>
 80103f0:	072e      	lsls	r6, r5, #28
 80103f2:	d44f      	bmi.n	8010494 <Vector14C+0xe4>
 80103f4:	0324      	lsls	r4, r4, #12
 80103f6:	d507      	bpl.n	8010408 <Vector14C+0x58>
 80103f8:	03e8      	lsls	r0, r5, #15
 80103fa:	d42a      	bmi.n	8010452 <Vector14C+0xa2>
 80103fc:	03a9      	lsls	r1, r5, #14
 80103fe:	d42d      	bmi.n	801045c <Vector14C+0xac>
 8010400:	036a      	lsls	r2, r5, #13
 8010402:	d430      	bmi.n	8010466 <Vector14C+0xb6>
 8010404:	032b      	lsls	r3, r5, #12
 8010406:	d41d      	bmi.n	8010444 <Vector14C+0x94>
 8010408:	e8bd 4070 	ldmia.w	sp!, {r4, r5, r6, lr}
 801040c:	f7fd bb38 	b.w	800da80 <_port_irq_epilogue>
 8010410:	4628      	mov	r0, r5
 8010412:	f7fd ff25 	bl	800e260 <_usb_reset>
 8010416:	686b      	ldr	r3, [r5, #4]
 8010418:	681b      	ldr	r3, [r3, #0]
 801041a:	2b00      	cmp	r3, #0
 801041c:	d0d1      	beq.n	80103c2 <Vector14C+0x12>
 801041e:	2100      	movs	r1, #0
 8010420:	4628      	mov	r0, r5
 8010422:	4798      	blx	r3
 8010424:	e7cd      	b.n	80103c2 <Vector14C+0x12>
 8010426:	2320      	movs	r3, #32
 8010428:	f383 8811 	msr	BASEPRI, r3
 801042c:	69b3      	ldr	r3, [r6, #24]
 801042e:	481c      	ldr	r0, [pc, #112]	; (80104a0 <Vector14C+0xf0>)
 8010430:	f023 0310 	bic.w	r3, r3, #16
 8010434:	61b3      	str	r3, [r6, #24]
 8010436:	2100      	movs	r1, #0
 8010438:	f7fc ffa2 	bl	800d380 <chThdResumeI>
 801043c:	2300      	movs	r3, #0
 801043e:	f383 8811 	msr	BASEPRI, r3
 8010442:	e7cb      	b.n	80103dc <Vector14C+0x2c>
 8010444:	2003      	movs	r0, #3
 8010446:	f7ff fed3 	bl	80101f0 <otg_epout_handler.constprop.7>
 801044a:	e8bd 4070 	ldmia.w	sp!, {r4, r5, r6, lr}
 801044e:	f7fd bb17 	b.w	800da80 <_port_irq_epilogue>
 8010452:	2000      	movs	r0, #0
 8010454:	f7ff fecc 	bl	80101f0 <otg_epout_handler.constprop.7>
 8010458:	03a9      	lsls	r1, r5, #14
 801045a:	d5d1      	bpl.n	8010400 <Vector14C+0x50>
 801045c:	2001      	movs	r0, #1
 801045e:	f7ff fec7 	bl	80101f0 <otg_epout_handler.constprop.7>
 8010462:	036a      	lsls	r2, r5, #13
 8010464:	d5ce      	bpl.n	8010404 <Vector14C+0x54>
 8010466:	2002      	movs	r0, #2
 8010468:	f7ff fec2 	bl	80101f0 <otg_epout_handler.constprop.7>
 801046c:	032b      	lsls	r3, r5, #12
 801046e:	d5cb      	bpl.n	8010408 <Vector14C+0x58>
 8010470:	e7e8      	b.n	8010444 <Vector14C+0x94>
 8010472:	2001      	movs	r0, #1
 8010474:	f7ff ff34 	bl	80102e0 <otg_epin_handler.constprop.8>
 8010478:	076b      	lsls	r3, r5, #29
 801047a:	d5b9      	bpl.n	80103f0 <Vector14C+0x40>
 801047c:	2002      	movs	r0, #2
 801047e:	f7ff ff2f 	bl	80102e0 <otg_epin_handler.constprop.8>
 8010482:	072e      	lsls	r6, r5, #28
 8010484:	d5b6      	bpl.n	80103f4 <Vector14C+0x44>
 8010486:	e005      	b.n	8010494 <Vector14C+0xe4>
 8010488:	2000      	movs	r0, #0
 801048a:	f7ff ff29 	bl	80102e0 <otg_epin_handler.constprop.8>
 801048e:	07aa      	lsls	r2, r5, #30
 8010490:	d5ac      	bpl.n	80103ec <Vector14C+0x3c>
 8010492:	e7ee      	b.n	8010472 <Vector14C+0xc2>
 8010494:	2003      	movs	r0, #3
 8010496:	f7ff ff23 	bl	80102e0 <otg_epin_handler.constprop.8>
 801049a:	e7ab      	b.n	80103f4 <Vector14C+0x44>
 801049c:	20001000 	.word	0x20001000
 80104a0:	20001060 	.word	0x20001060
	...

080104b0 <usb_lld_start_out>:
 80104b0:	6d03      	ldr	r3, [r0, #80]	; 0x50
 80104b2:	eb03 1141 	add.w	r1, r3, r1, lsl #5
 80104b6:	f8d1 3b00 	ldr.w	r3, [r1, #2816]	; 0xb00
 80104ba:	f043 6380 	orr.w	r3, r3, #67108864	; 0x4000000
 80104be:	f8c1 3b00 	str.w	r3, [r1, #2816]	; 0xb00
 80104c2:	4770      	bx	lr
	...

080104d0 <usb_lld_start_in>:
 80104d0:	6d02      	ldr	r2, [r0, #80]	; 0x50
 80104d2:	b410      	push	{r4}
 80104d4:	eb02 1441 	add.w	r4, r2, r1, lsl #5
 80104d8:	2301      	movs	r3, #1
 80104da:	f8d4 0900 	ldr.w	r0, [r4, #2304]	; 0x900
 80104de:	f040 4004 	orr.w	r0, r0, #2214592512	; 0x84000000
 80104e2:	f8c4 0900 	str.w	r0, [r4, #2304]	; 0x900
 80104e6:	f8d2 0834 	ldr.w	r0, [r2, #2100]	; 0x834
 80104ea:	f85d 4b04 	ldr.w	r4, [sp], #4
 80104ee:	fa03 f101 	lsl.w	r1, r3, r1
 80104f2:	4301      	orrs	r1, r0
 80104f4:	f8c2 1834 	str.w	r1, [r2, #2100]	; 0x834
 80104f8:	4770      	bx	lr
 80104fa:	bf00      	nop
 80104fc:	0000      	movs	r0, r0
	...

08010500 <usb_lld_stall_out>:
 8010500:	6d03      	ldr	r3, [r0, #80]	; 0x50
 8010502:	eb03 1141 	add.w	r1, r3, r1, lsl #5
 8010506:	f8d1 3b00 	ldr.w	r3, [r1, #2816]	; 0xb00
 801050a:	f443 1300 	orr.w	r3, r3, #2097152	; 0x200000
 801050e:	f8c1 3b00 	str.w	r3, [r1, #2816]	; 0xb00
 8010512:	4770      	bx	lr
	...

08010520 <usb_lld_stall_in>:
 8010520:	6d03      	ldr	r3, [r0, #80]	; 0x50
 8010522:	eb03 1141 	add.w	r1, r3, r1, lsl #5
 8010526:	f8d1 3900 	ldr.w	r3, [r1, #2304]	; 0x900
 801052a:	f443 1300 	orr.w	r3, r3, #2097152	; 0x200000
 801052e:	f8c1 3900 	str.w	r3, [r1, #2304]	; 0x900
 8010532:	4770      	bx	lr
	...

08010540 <usb_lld_clear_out>:
 8010540:	6d03      	ldr	r3, [r0, #80]	; 0x50
 8010542:	eb03 1141 	add.w	r1, r3, r1, lsl #5
 8010546:	f8d1 3b00 	ldr.w	r3, [r1, #2816]	; 0xb00
 801054a:	f423 1300 	bic.w	r3, r3, #2097152	; 0x200000
 801054e:	f8c1 3b00 	str.w	r3, [r1, #2816]	; 0xb00
 8010552:	4770      	bx	lr
	...

08010560 <usb_lld_clear_in>:
 8010560:	6d03      	ldr	r3, [r0, #80]	; 0x50
 8010562:	eb03 1141 	add.w	r1, r3, r1, lsl #5
 8010566:	f8d1 3900 	ldr.w	r3, [r1, #2304]	; 0x900
 801056a:	f423 1300 	bic.w	r3, r3, #2097152	; 0x200000
 801056e:	f8c1 3900 	str.w	r3, [r1, #2304]	; 0x900
 8010572:	4770      	bx	lr
	...

08010580 <spi_lld_init>:
 8010580:	b510      	push	{r4, lr}
 8010582:	4c0a      	ldr	r4, [pc, #40]	; (80105ac <spi_lld_init+0x2c>)
 8010584:	4b0a      	ldr	r3, [pc, #40]	; (80105b0 <spi_lld_init+0x30>)
 8010586:	f64f 72ff 	movw	r2, #65535	; 0xffff
 801058a:	4620      	mov	r0, r4
 801058c:	801a      	strh	r2, [r3, #0]
 801058e:	f7fd fd9f 	bl	800e0d0 <spiObjectInit>
 8010592:	4b08      	ldr	r3, [pc, #32]	; (80105b4 <spi_lld_init+0x34>)
 8010594:	4808      	ldr	r0, [pc, #32]	; (80105b8 <spi_lld_init+0x38>)
 8010596:	4909      	ldr	r1, [pc, #36]	; (80105bc <spi_lld_init+0x3c>)
 8010598:	4a09      	ldr	r2, [pc, #36]	; (80105c0 <spi_lld_init+0x40>)
 801059a:	61e0      	str	r0, [r4, #28]
 801059c:	f103 0024 	add.w	r0, r3, #36	; 0x24
 80105a0:	e9c4 3008 	strd	r3, r0, [r4, #32]
 80105a4:	e9c4 120a 	strd	r1, r2, [r4, #40]	; 0x28
 80105a8:	bd10      	pop	{r4, pc}
 80105aa:	bf00      	nop
 80105ac:	2000129c 	.word	0x2000129c
 80105b0:	200012cc 	.word	0x200012cc
 80105b4:	08016b60 	.word	0x08016b60
 80105b8:	40013000 	.word	0x40013000
 80105bc:	06010016 	.word	0x06010016
 80105c0:	06010046 	.word	0x06010046
	...

080105d0 <VectorB4>:
 80105d0:	b5f8      	push	{r3, r4, r5, r6, r7, lr}
 80105d2:	4d26      	ldr	r5, [pc, #152]	; (801066c <VectorB4+0x9c>)
 80105d4:	68eb      	ldr	r3, [r5, #12]
 80105d6:	6869      	ldr	r1, [r5, #4]
 80105d8:	691c      	ldr	r4, [r3, #16]
 80105da:	68da      	ldr	r2, [r3, #12]
 80105dc:	7d08      	ldrb	r0, [r1, #20]
 80105de:	4014      	ands	r4, r2
 80105e0:	b2e2      	uxtb	r2, r4
 80105e2:	43d2      	mvns	r2, r2
 80105e4:	611a      	str	r2, [r3, #16]
 80105e6:	f004 0602 	and.w	r6, r4, #2
 80105ea:	b988      	cbnz	r0, 8010610 <VectorB4+0x40>
 80105ec:	0762      	lsls	r2, r4, #29
 80105ee:	d530      	bpl.n	8010652 <VectorB4+0x82>
 80105f0:	782b      	ldrb	r3, [r5, #0]
 80105f2:	2b04      	cmp	r3, #4
 80105f4:	d029      	beq.n	801064a <VectorB4+0x7a>
 80105f6:	b99e      	cbnz	r6, 8010620 <VectorB4+0x50>
 80105f8:	07e3      	lsls	r3, r4, #31
 80105fa:	d505      	bpl.n	8010608 <VectorB4+0x38>
 80105fc:	686b      	ldr	r3, [r5, #4]
 80105fe:	481b      	ldr	r0, [pc, #108]	; (801066c <VectorB4+0x9c>)
 8010600:	691b      	ldr	r3, [r3, #16]
 8010602:	4798      	blx	r3
 8010604:	2303      	movs	r3, #3
 8010606:	702b      	strb	r3, [r5, #0]
 8010608:	e8bd 40f8 	ldmia.w	sp!, {r3, r4, r5, r6, r7, lr}
 801060c:	f7fd ba38 	b.w	800da80 <_port_irq_epilogue>
 8010610:	f004 0704 	and.w	r7, r4, #4
 8010614:	b15e      	cbz	r6, 801062e <VectorB4+0x5e>
 8010616:	782b      	ldrb	r3, [r5, #0]
 8010618:	2b04      	cmp	r3, #4
 801061a:	d004      	beq.n	8010626 <VectorB4+0x56>
 801061c:	2f00      	cmp	r7, #0
 801061e:	d0eb      	beq.n	80105f8 <VectorB4+0x28>
 8010620:	2304      	movs	r3, #4
 8010622:	702b      	strb	r3, [r5, #0]
 8010624:	e7e8      	b.n	80105f8 <VectorB4+0x28>
 8010626:	688b      	ldr	r3, [r1, #8]
 8010628:	b1e3      	cbz	r3, 8010664 <VectorB4+0x94>
 801062a:	4628      	mov	r0, r5
 801062c:	4798      	blx	r3
 801062e:	2f00      	cmp	r7, #0
 8010630:	d0e2      	beq.n	80105f8 <VectorB4+0x28>
 8010632:	782b      	ldrb	r3, [r5, #0]
 8010634:	2b04      	cmp	r3, #4
 8010636:	d1f3      	bne.n	8010620 <VectorB4+0x50>
 8010638:	6869      	ldr	r1, [r5, #4]
 801063a:	68cb      	ldr	r3, [r1, #12]
 801063c:	2b00      	cmp	r3, #0
 801063e:	d0ef      	beq.n	8010620 <VectorB4+0x50>
 8010640:	480a      	ldr	r0, [pc, #40]	; (801066c <VectorB4+0x9c>)
 8010642:	4798      	blx	r3
 8010644:	2304      	movs	r3, #4
 8010646:	702b      	strb	r3, [r5, #0]
 8010648:	e7d6      	b.n	80105f8 <VectorB4+0x28>
 801064a:	688b      	ldr	r3, [r1, #8]
 801064c:	b13b      	cbz	r3, 801065e <VectorB4+0x8e>
 801064e:	4628      	mov	r0, r5
 8010650:	4798      	blx	r3
 8010652:	2e00      	cmp	r6, #0
 8010654:	d0d0      	beq.n	80105f8 <VectorB4+0x28>
 8010656:	782b      	ldrb	r3, [r5, #0]
 8010658:	2b04      	cmp	r3, #4
 801065a:	d1e1      	bne.n	8010620 <VectorB4+0x50>
 801065c:	e7ec      	b.n	8010638 <VectorB4+0x68>
 801065e:	2e00      	cmp	r6, #0
 8010660:	d0ca      	beq.n	80105f8 <VectorB4+0x28>
 8010662:	e7ea      	b.n	801063a <VectorB4+0x6a>
 8010664:	2f00      	cmp	r7, #0
 8010666:	d0c7      	beq.n	80105f8 <VectorB4+0x28>
 8010668:	e7e7      	b.n	801063a <VectorB4+0x6a>
 801066a:	bf00      	nop
 801066c:	200012d0 	.word	0x200012d0

08010670 <icu_lld_init>:
 8010670:	b510      	push	{r4, lr}
 8010672:	4c03      	ldr	r4, [pc, #12]	; (8010680 <icu_lld_init+0x10>)
 8010674:	4620      	mov	r0, r4
 8010676:	f7fd fb33 	bl	800dce0 <icuObjectInit>
 801067a:	4b02      	ldr	r3, [pc, #8]	; (8010684 <icu_lld_init+0x14>)
 801067c:	60e3      	str	r3, [r4, #12]
 801067e:	bd10      	pop	{r4, pc}
 8010680:	200012d0 	.word	0x200012d0
 8010684:	40000400 	.word	0x40000400
	...

08010690 <icu_lld_start>:
 8010690:	7803      	ldrb	r3, [r0, #0]
 8010692:	2b01      	cmp	r3, #1
 8010694:	b570      	push	{r4, r5, r6, lr}
 8010696:	4604      	mov	r4, r0
 8010698:	d03a      	beq.n	8010710 <icu_lld_start+0x80>
 801069a:	68c3      	ldr	r3, [r0, #12]
 801069c:	2200      	movs	r2, #0
 801069e:	601a      	str	r2, [r3, #0]
 80106a0:	635a      	str	r2, [r3, #52]	; 0x34
 80106a2:	639a      	str	r2, [r3, #56]	; 0x38
 80106a4:	625a      	str	r2, [r3, #36]	; 0x24
 80106a6:	e9d4 1201 	ldrd	r1, r2, [r4, #4]
 80106aa:	6988      	ldr	r0, [r1, #24]
 80106ac:	7d0d      	ldrb	r5, [r1, #20]
 80106ae:	f020 00ff 	bic.w	r0, r0, #255	; 0xff
 80106b2:	2600      	movs	r6, #0
 80106b4:	611e      	str	r6, [r3, #16]
 80106b6:	60d8      	str	r0, [r3, #12]
 80106b8:	6848      	ldr	r0, [r1, #4]
 80106ba:	fbb2 f2f0 	udiv	r2, r2, r0
 80106be:	f64f 70ff 	movw	r0, #65535	; 0xffff
 80106c2:	3a01      	subs	r2, #1
 80106c4:	629a      	str	r2, [r3, #40]	; 0x28
 80106c6:	780a      	ldrb	r2, [r1, #0]
 80106c8:	62d8      	str	r0, [r3, #44]	; 0x2c
 80106ca:	b96d      	cbnz	r5, 80106e8 <icu_lld_start+0x58>
 80106cc:	f240 2001 	movw	r0, #513	; 0x201
 80106d0:	2154      	movs	r1, #84	; 0x54
 80106d2:	6198      	str	r0, [r3, #24]
 80106d4:	6099      	str	r1, [r3, #8]
 80106d6:	b1c2      	cbz	r2, 801070a <icu_lld_start+0x7a>
 80106d8:	2213      	movs	r2, #19
 80106da:	621a      	str	r2, [r3, #32]
 80106dc:	f103 0238 	add.w	r2, r3, #56	; 0x38
 80106e0:	3334      	adds	r3, #52	; 0x34
 80106e2:	e9c4 2304 	strd	r2, r3, [r4, #16]
 80106e6:	bd70      	pop	{r4, r5, r6, pc}
 80106e8:	f44f 7081 	mov.w	r0, #258	; 0x102
 80106ec:	2164      	movs	r1, #100	; 0x64
 80106ee:	6198      	str	r0, [r3, #24]
 80106f0:	6099      	str	r1, [r3, #8]
 80106f2:	b13a      	cbz	r2, 8010704 <icu_lld_start+0x74>
 80106f4:	2231      	movs	r2, #49	; 0x31
 80106f6:	621a      	str	r2, [r3, #32]
 80106f8:	f103 0234 	add.w	r2, r3, #52	; 0x34
 80106fc:	3338      	adds	r3, #56	; 0x38
 80106fe:	e9c4 2304 	strd	r2, r3, [r4, #16]
 8010702:	bd70      	pop	{r4, r5, r6, pc}
 8010704:	2213      	movs	r2, #19
 8010706:	621a      	str	r2, [r3, #32]
 8010708:	e7f6      	b.n	80106f8 <icu_lld_start+0x68>
 801070a:	2231      	movs	r2, #49	; 0x31
 801070c:	621a      	str	r2, [r3, #32]
 801070e:	e7e5      	b.n	80106dc <icu_lld_start+0x4c>
 8010710:	4b0b      	ldr	r3, [pc, #44]	; (8010740 <icu_lld_start+0xb0>)
 8010712:	4298      	cmp	r0, r3
 8010714:	d001      	beq.n	801071a <icu_lld_start+0x8a>
 8010716:	68e3      	ldr	r3, [r4, #12]
 8010718:	e7c5      	b.n	80106a6 <icu_lld_start+0x16>
 801071a:	4b0a      	ldr	r3, [pc, #40]	; (8010744 <icu_lld_start+0xb4>)
 801071c:	6c1a      	ldr	r2, [r3, #64]	; 0x40
 801071e:	f042 0202 	orr.w	r2, r2, #2
 8010722:	641a      	str	r2, [r3, #64]	; 0x40
 8010724:	6a1a      	ldr	r2, [r3, #32]
 8010726:	2000      	movs	r0, #0
 8010728:	f042 0202 	orr.w	r2, r2, #2
 801072c:	621a      	str	r2, [r3, #32]
 801072e:	2107      	movs	r1, #7
 8010730:	6218      	str	r0, [r3, #32]
 8010732:	201d      	movs	r0, #29
 8010734:	f7fe f80c 	bl	800e750 <nvicEnableVector>
 8010738:	4b03      	ldr	r3, [pc, #12]	; (8010748 <icu_lld_start+0xb8>)
 801073a:	60a3      	str	r3, [r4, #8]
 801073c:	e7eb      	b.n	8010716 <icu_lld_start+0x86>
 801073e:	bf00      	nop
 8010740:	200012d0 	.word	0x200012d0
 8010744:	40023800 	.word	0x40023800
 8010748:	0501bd00 	.word	0x0501bd00
 801074c:	00000000 	.word	0x00000000

08010750 <icu_lld_start_capture>:
 8010750:	68c3      	ldr	r3, [r0, #12]
 8010752:	695a      	ldr	r2, [r3, #20]
 8010754:	2000      	movs	r0, #0
 8010756:	f042 0201 	orr.w	r2, r2, #1
 801075a:	2105      	movs	r1, #5
 801075c:	615a      	str	r2, [r3, #20]
 801075e:	6118      	str	r0, [r3, #16]
 8010760:	6019      	str	r1, [r3, #0]
 8010762:	4770      	bx	lr
	...

08010770 <icu_lld_enable_notifications>:
 8010770:	68c2      	ldr	r2, [r0, #12]
 8010772:	68d3      	ldr	r3, [r2, #12]
 8010774:	b410      	push	{r4}
 8010776:	f013 04ff 	ands.w	r4, r3, #255	; 0xff
 801077a:	d10c      	bne.n	8010796 <icu_lld_enable_notifications+0x26>
 801077c:	6841      	ldr	r1, [r0, #4]
 801077e:	6114      	str	r4, [r2, #16]
 8010780:	7d0c      	ldrb	r4, [r1, #20]
 8010782:	6888      	ldr	r0, [r1, #8]
 8010784:	b954      	cbnz	r4, 801079c <icu_lld_enable_notifications+0x2c>
 8010786:	b170      	cbz	r0, 80107a6 <icu_lld_enable_notifications+0x36>
 8010788:	f043 0306 	orr.w	r3, r3, #6
 801078c:	6909      	ldr	r1, [r1, #16]
 801078e:	b109      	cbz	r1, 8010794 <icu_lld_enable_notifications+0x24>
 8010790:	f043 0301 	orr.w	r3, r3, #1
 8010794:	60d3      	str	r3, [r2, #12]
 8010796:	f85d 4b04 	ldr.w	r4, [sp], #4
 801079a:	4770      	bx	lr
 801079c:	2800      	cmp	r0, #0
 801079e:	d1f3      	bne.n	8010788 <icu_lld_enable_notifications+0x18>
 80107a0:	f043 0304 	orr.w	r3, r3, #4
 80107a4:	e7f2      	b.n	801078c <icu_lld_enable_notifications+0x1c>
 80107a6:	f043 0302 	orr.w	r3, r3, #2
 80107aa:	e7ef      	b.n	801078c <icu_lld_enable_notifications+0x1c>
 80107ac:	0000      	movs	r0, r0
	...

080107b0 <SysTick_Handler>:
 80107b0:	b508      	push	{r3, lr}
 80107b2:	2320      	movs	r3, #32
 80107b4:	f383 8811 	msr	BASEPRI, r3
 80107b8:	f7fc fb32 	bl	800ce20 <chSysTimerHandlerI>
 80107bc:	2300      	movs	r3, #0
 80107be:	f383 8811 	msr	BASEPRI, r3
 80107c2:	e8bd 4008 	ldmia.w	sp!, {r3, lr}
 80107c6:	f7fd b95b 	b.w	800da80 <_port_irq_epilogue>
 80107ca:	bf00      	nop
 80107cc:	0000      	movs	r0, r0
	...

080107d0 <st_lld_init>:
 80107d0:	4b05      	ldr	r3, [pc, #20]	; (80107e8 <st_lld_init+0x18>)
 80107d2:	f244 119f 	movw	r1, #16799	; 0x419f
 80107d6:	2000      	movs	r0, #0
 80107d8:	2207      	movs	r2, #7
 80107da:	6059      	str	r1, [r3, #4]
 80107dc:	6098      	str	r0, [r3, #8]
 80107de:	2108      	movs	r1, #8
 80107e0:	200b      	movs	r0, #11
 80107e2:	601a      	str	r2, [r3, #0]
 80107e4:	f7fd bfec 	b.w	800e7c0 <nvicSetSystemHandlerPriority>
 80107e8:	e000e010 	.word	0xe000e010
 80107ec:	00000000 	.word	0x00000000

080107f0 <usart_stop>:
 80107f0:	6901      	ldr	r1, [r0, #16]
 80107f2:	680a      	ldr	r2, [r1, #0]
 80107f4:	6813      	ldr	r3, [r2, #0]
 80107f6:	f023 031f 	bic.w	r3, r3, #31
 80107fa:	b430      	push	{r4, r5}
 80107fc:	6013      	str	r3, [r2, #0]
 80107fe:	6813      	ldr	r3, [r2, #0]
 8010800:	07db      	lsls	r3, r3, #31
 8010802:	d4fc      	bmi.n	80107fe <usart_stop+0xe>
 8010804:	7a0d      	ldrb	r5, [r1, #8]
 8010806:	6944      	ldr	r4, [r0, #20]
 8010808:	6849      	ldr	r1, [r1, #4]
 801080a:	6822      	ldr	r2, [r4, #0]
 801080c:	233d      	movs	r3, #61	; 0x3d
 801080e:	40ab      	lsls	r3, r5
 8010810:	600b      	str	r3, [r1, #0]
 8010812:	6813      	ldr	r3, [r2, #0]
 8010814:	f023 031f 	bic.w	r3, r3, #31
 8010818:	6013      	str	r3, [r2, #0]
 801081a:	6813      	ldr	r3, [r2, #0]
 801081c:	f013 0301 	ands.w	r3, r3, #1
 8010820:	d1fb      	bne.n	801081a <usart_stop+0x2a>
 8010822:	7a25      	ldrb	r5, [r4, #8]
 8010824:	6882      	ldr	r2, [r0, #8]
 8010826:	6860      	ldr	r0, [r4, #4]
 8010828:	213d      	movs	r1, #61	; 0x3d
 801082a:	40a9      	lsls	r1, r5
 801082c:	6001      	str	r1, [r0, #0]
 801082e:	bc30      	pop	{r4, r5}
 8010830:	60d3      	str	r3, [r2, #12]
 8010832:	6113      	str	r3, [r2, #16]
 8010834:	6153      	str	r3, [r2, #20]
 8010836:	4770      	bx	lr
	...

08010840 <serve_usart_irq>:
 8010840:	e92d 41f0 	stmdb	sp!, {r4, r5, r6, r7, r8, lr}
 8010844:	6884      	ldr	r4, [r0, #8]
 8010846:	68e7      	ldr	r7, [r4, #12]
 8010848:	6826      	ldr	r6, [r4, #0]
 801084a:	6862      	ldr	r2, [r4, #4]
 801084c:	f240 130f 	movw	r3, #271	; 0x10f
 8010850:	421e      	tst	r6, r3
 8010852:	4605      	mov	r5, r0
 8010854:	d01d      	beq.n	8010892 <serve_usart_irq+0x52>
 8010856:	6843      	ldr	r3, [r0, #4]
 8010858:	691a      	ldr	r2, [r3, #16]
 801085a:	f46f 7380 	mvn.w	r3, #256	; 0x100
 801085e:	6023      	str	r3, [r4, #0]
 8010860:	b1ba      	cbz	r2, 8010892 <serve_usart_irq+0x52>
 8010862:	b2b3      	uxth	r3, r6
 8010864:	f013 0f08 	tst.w	r3, #8
 8010868:	bf0c      	ite	eq
 801086a:	2100      	moveq	r1, #0
 801086c:	2110      	movne	r1, #16
 801086e:	07d8      	lsls	r0, r3, #31
 8010870:	bf48      	it	mi
 8010872:	f041 0104 	orrmi.w	r1, r1, #4
 8010876:	0798      	lsls	r0, r3, #30
 8010878:	bf48      	it	mi
 801087a:	f041 0108 	orrmi.w	r1, r1, #8
 801087e:	0758      	lsls	r0, r3, #29
 8010880:	bf48      	it	mi
 8010882:	f041 0120 	orrmi.w	r1, r1, #32
 8010886:	05d8      	lsls	r0, r3, #23
 8010888:	bf48      	it	mi
 801088a:	f041 0140 	orrmi.w	r1, r1, #64	; 0x40
 801088e:	4628      	mov	r0, r5
 8010890:	4790      	blx	r2
 8010892:	0672      	lsls	r2, r6, #25
 8010894:	d50e      	bpl.n	80108b4 <serve_usart_irq+0x74>
 8010896:	067b      	lsls	r3, r7, #25
 8010898:	d50c      	bpl.n	80108b4 <serve_usart_irq+0x74>
 801089a:	686b      	ldr	r3, [r5, #4]
 801089c:	685b      	ldr	r3, [r3, #4]
 801089e:	f027 0740 	bic.w	r7, r7, #64	; 0x40
 80108a2:	f06f 0240 	mvn.w	r2, #64	; 0x40
 80108a6:	6022      	str	r2, [r4, #0]
 80108a8:	60e7      	str	r7, [r4, #12]
 80108aa:	b11b      	cbz	r3, 80108b4 <serve_usart_irq+0x74>
 80108ac:	4628      	mov	r0, r5
 80108ae:	e8bd 41f0 	ldmia.w	sp!, {r4, r5, r6, r7, r8, lr}
 80108b2:	4718      	bx	r3
 80108b4:	e8bd 81f0 	ldmia.w	sp!, {r4, r5, r6, r7, r8, pc}
	...

080108c0 <uart_lld_serve_tx_end_irq>:
 80108c0:	f011 0f0c 	tst.w	r1, #12
 80108c4:	b538      	push	{r3, r4, r5, lr}
 80108c6:	4604      	mov	r4, r0
 80108c8:	d11b      	bne.n	8010902 <uart_lld_serve_tx_end_irq+0x42>
 80108ca:	6961      	ldr	r1, [r4, #20]
 80108cc:	680a      	ldr	r2, [r1, #0]
 80108ce:	6813      	ldr	r3, [r2, #0]
 80108d0:	f023 031f 	bic.w	r3, r3, #31
 80108d4:	6013      	str	r3, [r2, #0]
 80108d6:	6813      	ldr	r3, [r2, #0]
 80108d8:	07db      	lsls	r3, r3, #31
 80108da:	d4fc      	bmi.n	80108d6 <uart_lld_serve_tx_end_irq+0x16>
 80108dc:	6863      	ldr	r3, [r4, #4]
 80108de:	7a0d      	ldrb	r5, [r1, #8]
 80108e0:	6848      	ldr	r0, [r1, #4]
 80108e2:	681a      	ldr	r2, [r3, #0]
 80108e4:	233d      	movs	r3, #61	; 0x3d
 80108e6:	40ab      	lsls	r3, r5
 80108e8:	2102      	movs	r1, #2
 80108ea:	6003      	str	r3, [r0, #0]
 80108ec:	7061      	strb	r1, [r4, #1]
 80108ee:	b12a      	cbz	r2, 80108fc <uart_lld_serve_tx_end_irq+0x3c>
 80108f0:	4620      	mov	r0, r4
 80108f2:	4790      	blx	r2
 80108f4:	7863      	ldrb	r3, [r4, #1]
 80108f6:	2b02      	cmp	r3, #2
 80108f8:	d000      	beq.n	80108fc <uart_lld_serve_tx_end_irq+0x3c>
 80108fa:	bd38      	pop	{r3, r4, r5, pc}
 80108fc:	2300      	movs	r3, #0
 80108fe:	7063      	strb	r3, [r4, #1]
 8010900:	bd38      	pop	{r3, r4, r5, pc}
 8010902:	4802      	ldr	r0, [pc, #8]	; (801090c <uart_lld_serve_tx_end_irq+0x4c>)
 8010904:	f7fc fa84 	bl	800ce10 <chSysHalt>
 8010908:	e7df      	b.n	80108ca <uart_lld_serve_tx_end_irq+0xa>
 801090a:	bf00      	nop
 801090c:	08016bc0 	.word	0x08016bc0

08010910 <uart_lld_serve_rx_end_irq>:
 8010910:	f011 0f0c 	tst.w	r1, #12
 8010914:	e92d 41f0 	stmdb	sp!, {r4, r5, r6, r7, r8, lr}
 8010918:	4604      	mov	r4, r0
 801091a:	d13a      	bne.n	8010992 <uart_lld_serve_rx_end_irq+0x82>
 801091c:	78a3      	ldrb	r3, [r4, #2]
 801091e:	6861      	ldr	r1, [r4, #4]
 8010920:	b93b      	cbnz	r3, 8010932 <uart_lld_serve_rx_end_irq+0x22>
 8010922:	68cb      	ldr	r3, [r1, #12]
 8010924:	2b00      	cmp	r3, #0
 8010926:	d032      	beq.n	801098e <uart_lld_serve_rx_end_irq+0x7e>
 8010928:	8b21      	ldrh	r1, [r4, #24]
 801092a:	4620      	mov	r0, r4
 801092c:	e8bd 41f0 	ldmia.w	sp!, {r4, r5, r6, r7, r8, lr}
 8010930:	4718      	bx	r3
 8010932:	6920      	ldr	r0, [r4, #16]
 8010934:	6802      	ldr	r2, [r0, #0]
 8010936:	6813      	ldr	r3, [r2, #0]
 8010938:	f023 031f 	bic.w	r3, r3, #31
 801093c:	6013      	str	r3, [r2, #0]
 801093e:	6813      	ldr	r3, [r2, #0]
 8010940:	07db      	lsls	r3, r3, #31
 8010942:	d4fc      	bmi.n	801093e <uart_lld_serve_rx_end_irq+0x2e>
 8010944:	7a07      	ldrb	r7, [r0, #8]
 8010946:	6846      	ldr	r6, [r0, #4]
 8010948:	688d      	ldr	r5, [r1, #8]
 801094a:	233d      	movs	r3, #61	; 0x3d
 801094c:	40bb      	lsls	r3, r7
 801094e:	2002      	movs	r0, #2
 8010950:	6033      	str	r3, [r6, #0]
 8010952:	70a0      	strb	r0, [r4, #2]
 8010954:	b13d      	cbz	r5, 8010966 <uart_lld_serve_rx_end_irq+0x56>
 8010956:	4620      	mov	r0, r4
 8010958:	47a8      	blx	r5
 801095a:	78a3      	ldrb	r3, [r4, #2]
 801095c:	2b02      	cmp	r3, #2
 801095e:	d116      	bne.n	801098e <uart_lld_serve_rx_end_irq+0x7e>
 8010960:	6923      	ldr	r3, [r4, #16]
 8010962:	6861      	ldr	r1, [r4, #4]
 8010964:	681a      	ldr	r2, [r3, #0]
 8010966:	68cb      	ldr	r3, [r1, #12]
 8010968:	68e1      	ldr	r1, [r4, #12]
 801096a:	2b00      	cmp	r3, #0
 801096c:	bf14      	ite	ne
 801096e:	f44f 7388 	movne.w	r3, #272	; 0x110
 8010972:	f44f 7380 	moveq.w	r3, #256	; 0x100
 8010976:	430b      	orrs	r3, r1
 8010978:	2500      	movs	r5, #0
 801097a:	2101      	movs	r1, #1
 801097c:	f104 0018 	add.w	r0, r4, #24
 8010980:	70a5      	strb	r5, [r4, #2]
 8010982:	60d0      	str	r0, [r2, #12]
 8010984:	6051      	str	r1, [r2, #4]
 8010986:	6013      	str	r3, [r2, #0]
 8010988:	6813      	ldr	r3, [r2, #0]
 801098a:	430b      	orrs	r3, r1
 801098c:	6013      	str	r3, [r2, #0]
 801098e:	e8bd 81f0 	ldmia.w	sp!, {r4, r5, r6, r7, r8, pc}
 8010992:	4802      	ldr	r0, [pc, #8]	; (801099c <uart_lld_serve_rx_end_irq+0x8c>)
 8010994:	f7fc fa3c 	bl	800ce10 <chSysHalt>
 8010998:	e7c0      	b.n	801091c <uart_lld_serve_rx_end_irq+0xc>
 801099a:	bf00      	nop
 801099c:	08016bc0 	.word	0x08016bc0

080109a0 <VectorDC>:
 80109a0:	b508      	push	{r3, lr}
 80109a2:	4803      	ldr	r0, [pc, #12]	; (80109b0 <VectorDC+0x10>)
 80109a4:	f7ff ff4c 	bl	8010840 <serve_usart_irq>
 80109a8:	e8bd 4008 	ldmia.w	sp!, {r3, lr}
 80109ac:	f7fd b868 	b.w	800da80 <_port_irq_epilogue>
 80109b0:	200012e8 	.word	0x200012e8
	...

080109c0 <Vector15C>:
 80109c0:	b508      	push	{r3, lr}
 80109c2:	4803      	ldr	r0, [pc, #12]	; (80109d0 <Vector15C+0x10>)
 80109c4:	f7ff ff3c 	bl	8010840 <serve_usart_irq>
 80109c8:	e8bd 4008 	ldmia.w	sp!, {r3, lr}
 80109cc:	f7fd b858 	b.w	800da80 <_port_irq_epilogue>
 80109d0:	20001304 	.word	0x20001304
	...

080109e0 <uart_lld_init>:
 80109e0:	b570      	push	{r4, r5, r6, lr}
 80109e2:	4d0c      	ldr	r5, [pc, #48]	; (8010a14 <uart_lld_init+0x34>)
 80109e4:	4c0c      	ldr	r4, [pc, #48]	; (8010a18 <uart_lld_init+0x38>)
 80109e6:	4e0d      	ldr	r6, [pc, #52]	; (8010a1c <uart_lld_init+0x3c>)
 80109e8:	4628      	mov	r0, r5
 80109ea:	f7fd fb89 	bl	800e100 <uartObjectInit>
 80109ee:	4b0c      	ldr	r3, [pc, #48]	; (8010a20 <uart_lld_init+0x40>)
 80109f0:	60ab      	str	r3, [r5, #8]
 80109f2:	2206      	movs	r2, #6
 80109f4:	f104 0318 	add.w	r3, r4, #24
 80109f8:	4630      	mov	r0, r6
 80109fa:	e9c5 2403 	strd	r2, r4, [r5, #12]
 80109fe:	616b      	str	r3, [r5, #20]
 8010a00:	f7fd fb7e 	bl	800e100 <uartObjectInit>
 8010a04:	4b07      	ldr	r3, [pc, #28]	; (8010a24 <uart_lld_init+0x44>)
 8010a06:	60b3      	str	r3, [r6, #8]
 8010a08:	f104 036c 	add.w	r3, r4, #108	; 0x6c
 8010a0c:	34a8      	adds	r4, #168	; 0xa8
 8010a0e:	e9c6 3404 	strd	r3, r4, [r6, #16]
 8010a12:	bd70      	pop	{r4, r5, r6, pc}
 8010a14:	200012e8 	.word	0x200012e8
 8010a18:	08016b0c 	.word	0x08016b0c
 8010a1c:	20001304 	.word	0x20001304
 8010a20:	40004800 	.word	0x40004800
 8010a24:	40011400 	.word	0x40011400
	...

08010a30 <uart_lld_start>:
 8010a30:	b5f8      	push	{r3, r4, r5, r6, r7, lr}
 8010a32:	7803      	ldrb	r3, [r0, #0]
 8010a34:	2b01      	cmp	r3, #1
 8010a36:	4604      	mov	r4, r0
 8010a38:	d040      	beq.n	8010abc <uart_lld_start+0x8c>
 8010a3a:	6885      	ldr	r5, [r0, #8]
 8010a3c:	2300      	movs	r3, #0
 8010a3e:	70a3      	strb	r3, [r4, #2]
 8010a40:	7063      	strb	r3, [r4, #1]
 8010a42:	4620      	mov	r0, r4
 8010a44:	f7ff fed4 	bl	80107f0 <usart_stop>
 8010a48:	4b44      	ldr	r3, [pc, #272]	; (8010b5c <uart_lld_start+0x12c>)
 8010a4a:	68a2      	ldr	r2, [r4, #8]
 8010a4c:	429a      	cmp	r2, r3
 8010a4e:	6863      	ldr	r3, [r4, #4]
 8010a50:	d008      	beq.n	8010a64 <uart_lld_start+0x34>
 8010a52:	4843      	ldr	r0, [pc, #268]	; (8010b60 <uart_lld_start+0x130>)
 8010a54:	6959      	ldr	r1, [r3, #20]
 8010a56:	4282      	cmp	r2, r0
 8010a58:	d005      	beq.n	8010a66 <uart_lld_start+0x36>
 8010a5a:	4a42      	ldr	r2, [pc, #264]	; (8010b64 <uart_lld_start+0x134>)
 8010a5c:	fbb2 f2f1 	udiv	r2, r2, r1
 8010a60:	60aa      	str	r2, [r5, #8]
 8010a62:	e004      	b.n	8010a6e <uart_lld_start+0x3e>
 8010a64:	6959      	ldr	r1, [r3, #20]
 8010a66:	4a40      	ldr	r2, [pc, #256]	; (8010b68 <uart_lld_start+0x138>)
 8010a68:	fbb2 f2f1 	udiv	r2, r2, r1
 8010a6c:	60aa      	str	r2, [r5, #8]
 8010a6e:	68d9      	ldr	r1, [r3, #12]
 8010a70:	8b5e      	ldrh	r6, [r3, #26]
 8010a72:	8b1a      	ldrh	r2, [r3, #24]
 8010a74:	8b98      	ldrh	r0, [r3, #28]
 8010a76:	682b      	ldr	r3, [r5, #0]
 8010a78:	686b      	ldr	r3, [r5, #4]
 8010a7a:	e9d4 7303 	ldrd	r7, r3, [r4, #12]
 8010a7e:	2900      	cmp	r1, #0
 8010a80:	f04f 0100 	mov.w	r1, #0
 8010a84:	681b      	ldr	r3, [r3, #0]
 8010a86:	6029      	str	r1, [r5, #0]
 8010a88:	f040 00c1 	orr.w	r0, r0, #193	; 0xc1
 8010a8c:	f442 5204 	orr.w	r2, r2, #8448	; 0x2100
 8010a90:	f046 0640 	orr.w	r6, r6, #64	; 0x40
 8010a94:	bf14      	ite	ne
 8010a96:	f44f 7188 	movne.w	r1, #272	; 0x110
 8010a9a:	f44f 7180 	moveq.w	r1, #256	; 0x100
 8010a9e:	612e      	str	r6, [r5, #16]
 8010aa0:	f042 020c 	orr.w	r2, r2, #12
 8010aa4:	6168      	str	r0, [r5, #20]
 8010aa6:	3418      	adds	r4, #24
 8010aa8:	2001      	movs	r0, #1
 8010aaa:	4339      	orrs	r1, r7
 8010aac:	60ea      	str	r2, [r5, #12]
 8010aae:	60dc      	str	r4, [r3, #12]
 8010ab0:	6058      	str	r0, [r3, #4]
 8010ab2:	6019      	str	r1, [r3, #0]
 8010ab4:	681a      	ldr	r2, [r3, #0]
 8010ab6:	4302      	orrs	r2, r0
 8010ab8:	601a      	str	r2, [r3, #0]
 8010aba:	bdf8      	pop	{r3, r4, r5, r6, r7, pc}
 8010abc:	4b2b      	ldr	r3, [pc, #172]	; (8010b6c <uart_lld_start+0x13c>)
 8010abe:	4298      	cmp	r0, r3
 8010ac0:	d032      	beq.n	8010b28 <uart_lld_start+0xf8>
 8010ac2:	4b2b      	ldr	r3, [pc, #172]	; (8010b70 <uart_lld_start+0x140>)
 8010ac4:	4298      	cmp	r0, r3
 8010ac6:	d015      	beq.n	8010af4 <uart_lld_start+0xc4>
 8010ac8:	6863      	ldr	r3, [r4, #4]
 8010aca:	8b1b      	ldrh	r3, [r3, #24]
 8010acc:	f403 53a0 	and.w	r3, r3, #5120	; 0x1400
 8010ad0:	f5b3 5f80 	cmp.w	r3, #4096	; 0x1000
 8010ad4:	d103      	bne.n	8010ade <uart_lld_start+0xae>
 8010ad6:	68e3      	ldr	r3, [r4, #12]
 8010ad8:	f443 5320 	orr.w	r3, r3, #10240	; 0x2800
 8010adc:	60e3      	str	r3, [r4, #12]
 8010ade:	e9d4 2304 	ldrd	r2, r3, [r4, #16]
 8010ae2:	68a5      	ldr	r5, [r4, #8]
 8010ae4:	6810      	ldr	r0, [r2, #0]
 8010ae6:	6819      	ldr	r1, [r3, #0]
 8010ae8:	2200      	movs	r2, #0
 8010aea:	1d2b      	adds	r3, r5, #4
 8010aec:	6083      	str	r3, [r0, #8]
 8010aee:	608b      	str	r3, [r1, #8]
 8010af0:	8322      	strh	r2, [r4, #24]
 8010af2:	e7a3      	b.n	8010a3c <uart_lld_start+0xc>
 8010af4:	4603      	mov	r3, r0
 8010af6:	4a1f      	ldr	r2, [pc, #124]	; (8010b74 <uart_lld_start+0x144>)
 8010af8:	6900      	ldr	r0, [r0, #16]
 8010afa:	210c      	movs	r1, #12
 8010afc:	f7fe f818 	bl	800eb30 <dmaStreamAllocate>
 8010b00:	4623      	mov	r3, r4
 8010b02:	4a1d      	ldr	r2, [pc, #116]	; (8010b78 <uart_lld_start+0x148>)
 8010b04:	6960      	ldr	r0, [r4, #20]
 8010b06:	210c      	movs	r1, #12
 8010b08:	f7fe f812 	bl	800eb30 <dmaStreamAllocate>
 8010b0c:	4a1b      	ldr	r2, [pc, #108]	; (8010b7c <uart_lld_start+0x14c>)
 8010b0e:	6c53      	ldr	r3, [r2, #68]	; 0x44
 8010b10:	f043 0320 	orr.w	r3, r3, #32
 8010b14:	6453      	str	r3, [r2, #68]	; 0x44
 8010b16:	210c      	movs	r1, #12
 8010b18:	2047      	movs	r0, #71	; 0x47
 8010b1a:	f7fd fe19 	bl	800e750 <nvicEnableVector>
 8010b1e:	68e3      	ldr	r3, [r4, #12]
 8010b20:	f043 6320 	orr.w	r3, r3, #167772160	; 0xa000000
 8010b24:	60e3      	str	r3, [r4, #12]
 8010b26:	e7cf      	b.n	8010ac8 <uart_lld_start+0x98>
 8010b28:	4603      	mov	r3, r0
 8010b2a:	4a12      	ldr	r2, [pc, #72]	; (8010b74 <uart_lld_start+0x144>)
 8010b2c:	6900      	ldr	r0, [r0, #16]
 8010b2e:	210c      	movs	r1, #12
 8010b30:	f7fd fffe 	bl	800eb30 <dmaStreamAllocate>
 8010b34:	4623      	mov	r3, r4
 8010b36:	4a10      	ldr	r2, [pc, #64]	; (8010b78 <uart_lld_start+0x148>)
 8010b38:	6960      	ldr	r0, [r4, #20]
 8010b3a:	210c      	movs	r1, #12
 8010b3c:	f7fd fff8 	bl	800eb30 <dmaStreamAllocate>
 8010b40:	4a0e      	ldr	r2, [pc, #56]	; (8010b7c <uart_lld_start+0x14c>)
 8010b42:	6c13      	ldr	r3, [r2, #64]	; 0x40
 8010b44:	f443 2380 	orr.w	r3, r3, #262144	; 0x40000
 8010b48:	6413      	str	r3, [r2, #64]	; 0x40
 8010b4a:	210c      	movs	r1, #12
 8010b4c:	2027      	movs	r0, #39	; 0x27
 8010b4e:	f7fd fdff 	bl	800e750 <nvicEnableVector>
 8010b52:	68e3      	ldr	r3, [r4, #12]
 8010b54:	f043 6300 	orr.w	r3, r3, #134217728	; 0x8000000
 8010b58:	60e3      	str	r3, [r4, #12]
 8010b5a:	e7b5      	b.n	8010ac8 <uart_lld_start+0x98>
 8010b5c:	40011000 	.word	0x40011000
 8010b60:	40011400 	.word	0x40011400
 8010b64:	0280de80 	.word	0x0280de80
 8010b68:	0501bd00 	.word	0x0501bd00
 8010b6c:	200012e8 	.word	0x200012e8
 8010b70:	20001304 	.word	0x20001304
 8010b74:	08010911 	.word	0x08010911
 8010b78:	080108c1 	.word	0x080108c1
 8010b7c:	40023800 	.word	0x40023800

08010b80 <__early_init>:
 8010b80:	f7fe b87e 	b.w	800ec80 <stm32_clock_init>
	...

08010b90 <boardInit>:
 8010b90:	4770      	bx	lr
 8010b92:	bf00      	nop
	...

08010ba0 <chvprintf>:
 8010ba0:	e92d 4ff0 	stmdb	sp!, {r4, r5, r6, r7, r8, r9, sl, fp, lr}
 8010ba4:	ed2d 8b02 	vpush	{d8}
 8010ba8:	4606      	mov	r6, r0
 8010baa:	b091      	sub	sp, #68	; 0x44
 8010bac:	4689      	mov	r9, r1
 8010bae:	4692      	mov	sl, r2
 8010bb0:	f04f 0b00 	mov.w	fp, #0
 8010bb4:	f899 1000 	ldrb.w	r1, [r9]
 8010bb8:	f109 0201 	add.w	r2, r9, #1
 8010bbc:	b171      	cbz	r1, 8010bdc <chvprintf+0x3c>
 8010bbe:	2925      	cmp	r1, #37	; 0x25
 8010bc0:	d012      	beq.n	8010be8 <chvprintf+0x48>
 8010bc2:	6833      	ldr	r3, [r6, #0]
 8010bc4:	4691      	mov	r9, r2
 8010bc6:	689b      	ldr	r3, [r3, #8]
 8010bc8:	4630      	mov	r0, r6
 8010bca:	4798      	blx	r3
 8010bcc:	f899 1000 	ldrb.w	r1, [r9]
 8010bd0:	f10b 0b01 	add.w	fp, fp, #1
 8010bd4:	f109 0201 	add.w	r2, r9, #1
 8010bd8:	2900      	cmp	r1, #0
 8010bda:	d1f0      	bne.n	8010bbe <chvprintf+0x1e>
 8010bdc:	4658      	mov	r0, fp
 8010bde:	b011      	add	sp, #68	; 0x44
 8010be0:	ecbd 8b02 	vpop	{d8}
 8010be4:	e8bd 8ff0 	ldmia.w	sp!, {r4, r5, r6, r7, r8, r9, sl, fp, pc}
 8010be8:	f899 1001 	ldrb.w	r1, [r9, #1]
 8010bec:	292d      	cmp	r1, #45	; 0x2d
 8010bee:	bf03      	ittte	eq
 8010bf0:	f899 1002 	ldrbeq.w	r1, [r9, #2]
 8010bf4:	f109 0202 	addeq.w	r2, r9, #2
 8010bf8:	2301      	moveq	r3, #1
 8010bfa:	2300      	movne	r3, #0
 8010bfc:	2930      	cmp	r1, #48	; 0x30
 8010bfe:	bf08      	it	eq
 8010c00:	7851      	ldrbeq	r1, [r2, #1]
 8010c02:	9302      	str	r3, [sp, #8]
 8010c04:	bf06      	itte	eq
 8010c06:	3201      	addeq	r2, #1
 8010c08:	2730      	moveq	r7, #48	; 0x30
 8010c0a:	2720      	movne	r7, #32
 8010c0c:	3201      	adds	r2, #1
 8010c0e:	2400      	movs	r4, #0
 8010c10:	e007      	b.n	8010c22 <chvprintf+0x82>
 8010c12:	f89a 3000 	ldrb.w	r3, [sl]
 8010c16:	f10a 0a04 	add.w	sl, sl, #4
 8010c1a:	f812 1b01 	ldrb.w	r1, [r2], #1
 8010c1e:	eb03 0440 	add.w	r4, r3, r0, lsl #1
 8010c22:	f1a1 0330 	sub.w	r3, r1, #48	; 0x30
 8010c26:	b2db      	uxtb	r3, r3
 8010c28:	2b09      	cmp	r3, #9
 8010c2a:	4615      	mov	r5, r2
 8010c2c:	eb04 0084 	add.w	r0, r4, r4, lsl #2
 8010c30:	d9f3      	bls.n	8010c1a <chvprintf+0x7a>
 8010c32:	292a      	cmp	r1, #42	; 0x2a
 8010c34:	d0ed      	beq.n	8010c12 <chvprintf+0x72>
 8010c36:	292e      	cmp	r1, #46	; 0x2e
 8010c38:	f04f 0800 	mov.w	r8, #0
 8010c3c:	d04a      	beq.n	8010cd4 <chvprintf+0x134>
 8010c3e:	f001 03df 	and.w	r3, r1, #223	; 0xdf
 8010c42:	2b4c      	cmp	r3, #76	; 0x4c
 8010c44:	f105 0901 	add.w	r9, r5, #1
 8010c48:	d050      	beq.n	8010cec <chvprintf+0x14c>
 8010c4a:	f1a1 0341 	sub.w	r3, r1, #65	; 0x41
 8010c4e:	f1a1 0244 	sub.w	r2, r1, #68	; 0x44
 8010c52:	b2db      	uxtb	r3, r3
 8010c54:	2a34      	cmp	r2, #52	; 0x34
 8010c56:	f200 81d3 	bhi.w	8011000 <chvprintf+0x460>
 8010c5a:	e8df f012 	tbh	[pc, r2, lsl #1]
 8010c5e:	021e      	.short	0x021e
 8010c60:	01d101d1 	.word	0x01d101d1
 8010c64:	01d101d1 	.word	0x01d101d1
 8010c68:	01d1021e 	.word	0x01d1021e
 8010c6c:	01d101d1 	.word	0x01d101d1
 8010c70:	01d101d1 	.word	0x01d101d1
 8010c74:	01d101cd 	.word	0x01d101cd
 8010c78:	01d101d1 	.word	0x01d101d1
 8010c7c:	01d101d1 	.word	0x01d101d1
 8010c80:	01d10197 	.word	0x01d10197
 8010c84:	022701d1 	.word	0x022701d1
 8010c88:	01d101d1 	.word	0x01d101d1
 8010c8c:	01d101d1 	.word	0x01d101d1
 8010c90:	01d101d1 	.word	0x01d101d1
 8010c94:	01d101d1 	.word	0x01d101d1
 8010c98:	01d101d1 	.word	0x01d101d1
 8010c9c:	021e014e 	.word	0x021e014e
 8010ca0:	00aa01d1 	.word	0x00aa01d1
 8010ca4:	01d101d1 	.word	0x01d101d1
 8010ca8:	01d1021e 	.word	0x01d1021e
 8010cac:	01d101d1 	.word	0x01d101d1
 8010cb0:	01d101d1 	.word	0x01d101d1
 8010cb4:	01d101cd 	.word	0x01d101cd
 8010cb8:	01d101d1 	.word	0x01d101d1
 8010cbc:	01d10088 	.word	0x01d10088
 8010cc0:	01d10197 	.word	0x01d10197
 8010cc4:	022701d1 	.word	0x022701d1
 8010cc8:	f89a 3000 	ldrb.w	r3, [sl]
 8010ccc:	f10a 0a04 	add.w	sl, sl, #4
 8010cd0:	eb03 0842 	add.w	r8, r3, r2, lsl #1
 8010cd4:	f815 1b01 	ldrb.w	r1, [r5], #1
 8010cd8:	f1a1 0330 	sub.w	r3, r1, #48	; 0x30
 8010cdc:	b2db      	uxtb	r3, r3
 8010cde:	2b09      	cmp	r3, #9
 8010ce0:	eb08 0288 	add.w	r2, r8, r8, lsl #2
 8010ce4:	d9f4      	bls.n	8010cd0 <chvprintf+0x130>
 8010ce6:	292a      	cmp	r1, #42	; 0x2a
 8010ce8:	d0ee      	beq.n	8010cc8 <chvprintf+0x128>
 8010cea:	e7a8      	b.n	8010c3e <chvprintf+0x9e>
 8010cec:	782b      	ldrb	r3, [r5, #0]
 8010cee:	b3db      	cbz	r3, 8010d68 <chvprintf+0x1c8>
 8010cf0:	f1a3 0244 	sub.w	r2, r3, #68	; 0x44
 8010cf4:	2a34      	cmp	r2, #52	; 0x34
 8010cf6:	f200 8185 	bhi.w	8011004 <chvprintf+0x464>
 8010cfa:	e8df f012 	tbh	[pc, r2, lsl #1]
 8010cfe:	01a2      	.short	0x01a2
 8010d00:	01830183 	.word	0x01830183
 8010d04:	01830183 	.word	0x01830183
 8010d08:	018301a2 	.word	0x018301a2
 8010d0c:	01830183 	.word	0x01830183
 8010d10:	01830183 	.word	0x01830183
 8010d14:	0183017e 	.word	0x0183017e
 8010d18:	01830183 	.word	0x01830183
 8010d1c:	01830183 	.word	0x01830183
 8010d20:	01830148 	.word	0x01830148
 8010d24:	019f0183 	.word	0x019f0183
 8010d28:	01830183 	.word	0x01830183
 8010d2c:	01830183 	.word	0x01830183
 8010d30:	01830183 	.word	0x01830183
 8010d34:	01830183 	.word	0x01830183
 8010d38:	01830183 	.word	0x01830183
 8010d3c:	01a200ff 	.word	0x01a200ff
 8010d40:	005b0183 	.word	0x005b0183
 8010d44:	01830183 	.word	0x01830183
 8010d48:	018301a2 	.word	0x018301a2
 8010d4c:	01830183 	.word	0x01830183
 8010d50:	01830183 	.word	0x01830183
 8010d54:	0183017e 	.word	0x0183017e
 8010d58:	01830183 	.word	0x01830183
 8010d5c:	01830039 	.word	0x01830039
 8010d60:	01830148 	.word	0x01830148
 8010d64:	019f0183 	.word	0x019f0183
 8010d68:	460b      	mov	r3, r1
 8010d6a:	46a9      	mov	r9, r5
 8010d6c:	e7c0      	b.n	8010cf0 <chvprintf+0x150>
 8010d6e:	46a9      	mov	r9, r5
 8010d70:	f8da 5000 	ldr.w	r5, [sl]
 8010d74:	f10a 0a04 	add.w	sl, sl, #4
 8010d78:	2d00      	cmp	r5, #0
 8010d7a:	f000 81a6 	beq.w	80110ca <chvprintf+0x52a>
 8010d7e:	782b      	ldrb	r3, [r5, #0]
 8010d80:	4629      	mov	r1, r5
 8010d82:	f1b8 0f00 	cmp.w	r8, #0
 8010d86:	f040 81bf 	bne.w	8011108 <chvprintf+0x568>
 8010d8a:	2b00      	cmp	r3, #0
 8010d8c:	f000 81cc 	beq.w	8011128 <chvprintf+0x588>
 8010d90:	f647 78fe 	movw	r8, #32766	; 0x7ffe
 8010d94:	462b      	mov	r3, r5
 8010d96:	e002      	b.n	8010d9e <chvprintf+0x1fe>
 8010d98:	f1b8 0801 	subs.w	r8, r8, #1
 8010d9c:	d403      	bmi.n	8010da6 <chvprintf+0x206>
 8010d9e:	f813 2f01 	ldrb.w	r2, [r3, #1]!
 8010da2:	2a00      	cmp	r2, #0
 8010da4:	d1f8      	bne.n	8010d98 <chvprintf+0x1f8>
 8010da6:	1a5b      	subs	r3, r3, r1
 8010da8:	1ae4      	subs	r4, r4, r3
 8010daa:	3b01      	subs	r3, #1
 8010dac:	9301      	str	r3, [sp, #4]
 8010dae:	2720      	movs	r7, #32
 8010db0:	e0af      	b.n	8010f12 <chvprintf+0x372>
 8010db2:	46a9      	mov	r9, r5
 8010db4:	f10a 0a07 	add.w	sl, sl, #7
 8010db8:	f02a 0a07 	bic.w	sl, sl, #7
 8010dbc:	e9da 0100 	ldrd	r0, r1, [sl]
 8010dc0:	f7fb fe46 	bl	800ca50 <__aeabi_d2f>
 8010dc4:	ee08 0a10 	vmov	s16, r0
 8010dc8:	eeb5 8ac0 	vcmpe.f32	s16, #0.0
 8010dcc:	eef1 fa10 	vmrs	APSR_nzcv, fpscr
 8010dd0:	f10a 0a08 	add.w	sl, sl, #8
 8010dd4:	f100 816e 	bmi.w	80110b4 <chvprintf+0x514>
 8010dd8:	ab0a      	add	r3, sp, #40	; 0x28
 8010dda:	9303      	str	r3, [sp, #12]
 8010ddc:	9301      	str	r3, [sp, #4]
 8010dde:	ee18 0a10 	vmov	r0, s16
 8010de2:	f7fb fb11 	bl	800c408 <__aeabi_f2d>
 8010de6:	f108 38ff 	add.w	r8, r8, #4294967295
 8010dea:	f1b8 0f08 	cmp.w	r8, #8
 8010dee:	e9cd 0104 	strd	r0, r1, [sp, #16]
 8010df2:	f200 8173 	bhi.w	80110dc <chvprintf+0x53c>
 8010df6:	4bc0      	ldr	r3, [pc, #768]	; (80110f8 <chvprintf+0x558>)
 8010df8:	f853 5028 	ldr.w	r5, [r3, r8, lsl #2]
 8010dfc:	4628      	mov	r0, r5
 8010dfe:	f7fb fae1 	bl	800c3c4 <__aeabi_ui2d>
 8010e02:	4bbe      	ldr	r3, [pc, #760]	; (80110fc <chvprintf+0x55c>)
 8010e04:	e9cd 0106 	strd	r0, r1, [sp, #24]
 8010e08:	fba3 3505 	umull	r3, r5, r3, r5
 8010e0c:	08eb      	lsrs	r3, r5, #3
 8010e0e:	9309      	str	r3, [sp, #36]	; 0x24
 8010e10:	461d      	mov	r5, r3
 8010e12:	eefd 7ac8 	vcvt.s32.f32	s15, s16
 8010e16:	9b01      	ldr	r3, [sp, #4]
 8010e18:	f8df e2e0 	ldr.w	lr, [pc, #736]	; 80110fc <chvprintf+0x55c>
 8010e1c:	edcd 7a08 	vstr	s15, [sp, #32]
 8010e20:	f103 080b 	add.w	r8, r3, #11
 8010e24:	ee17 1a90 	vmov	r1, s15
 8010e28:	4642      	mov	r2, r8
 8010e2a:	fbae 0301 	umull	r0, r3, lr, r1
 8010e2e:	08db      	lsrs	r3, r3, #3
 8010e30:	eb03 0c83 	add.w	ip, r3, r3, lsl #2
 8010e34:	4618      	mov	r0, r3
 8010e36:	eba1 034c 	sub.w	r3, r1, ip, lsl #1
 8010e3a:	3330      	adds	r3, #48	; 0x30
 8010e3c:	b2db      	uxtb	r3, r3
 8010e3e:	f802 3d01 	strb.w	r3, [r2, #-1]!
 8010e42:	4601      	mov	r1, r0
 8010e44:	2800      	cmp	r0, #0
 8010e46:	d1f0      	bne.n	8010e2a <chvprintf+0x28a>
 8010e48:	9901      	ldr	r1, [sp, #4]
 8010e4a:	eba8 0802 	sub.w	r8, r8, r2
 8010e4e:	4608      	mov	r0, r1
 8010e50:	4440      	add	r0, r8
 8010e52:	e001      	b.n	8010e58 <chvprintf+0x2b8>
 8010e54:	f812 3f01 	ldrb.w	r3, [r2, #1]!
 8010e58:	f801 3b01 	strb.w	r3, [r1], #1
 8010e5c:	4281      	cmp	r1, r0
 8010e5e:	d1f9      	bne.n	8010e54 <chvprintf+0x2b4>
 8010e60:	9a01      	ldr	r2, [sp, #4]
 8010e62:	9808      	ldr	r0, [sp, #32]
 8010e64:	232e      	movs	r3, #46	; 0x2e
 8010e66:	f108 38ff 	add.w	r8, r8, #4294967295
 8010e6a:	4442      	add	r2, r8
 8010e6c:	700b      	strb	r3, [r1, #0]
 8010e6e:	9201      	str	r2, [sp, #4]
 8010e70:	f7fb fab8 	bl	800c3e4 <__aeabi_i2d>
 8010e74:	4602      	mov	r2, r0
 8010e76:	460b      	mov	r3, r1
 8010e78:	e9dd 0104 	ldrd	r0, r1, [sp, #16]
 8010e7c:	f7fb f964 	bl	800c148 <__aeabi_dsub>
 8010e80:	e9dd 2306 	ldrd	r2, r3, [sp, #24]
 8010e84:	f7fb fb1c 	bl	800c4c0 <__aeabi_dmul>
 8010e88:	f7fb fdba 	bl	800ca00 <__aeabi_d2iz>
 8010e8c:	9b01      	ldr	r3, [sp, #4]
 8010e8e:	9a09      	ldr	r2, [sp, #36]	; 0x24
 8010e90:	499a      	ldr	r1, [pc, #616]	; (80110fc <chvprintf+0x55c>)
 8010e92:	f103 080d 	add.w	r8, r3, #13
 8010e96:	3302      	adds	r3, #2
 8010e98:	2a00      	cmp	r2, #0
 8010e9a:	bf08      	it	eq
 8010e9c:	4605      	moveq	r5, r0
 8010e9e:	9308      	str	r3, [sp, #32]
 8010ea0:	4642      	mov	r2, r8
 8010ea2:	fba1 c300 	umull	ip, r3, r1, r0
 8010ea6:	08db      	lsrs	r3, r3, #3
 8010ea8:	eb03 0e83 	add.w	lr, r3, r3, lsl #2
 8010eac:	469c      	mov	ip, r3
 8010eae:	eba0 034e 	sub.w	r3, r0, lr, lsl #1
 8010eb2:	3330      	adds	r3, #48	; 0x30
 8010eb4:	fba1 0505 	umull	r0, r5, r1, r5
 8010eb8:	b2db      	uxtb	r3, r3
 8010eba:	08ed      	lsrs	r5, r5, #3
 8010ebc:	f802 3d01 	strb.w	r3, [r2, #-1]!
 8010ec0:	4660      	mov	r0, ip
 8010ec2:	d1ee      	bne.n	8010ea2 <chvprintf+0x302>
 8010ec4:	eba8 0802 	sub.w	r8, r8, r2
 8010ec8:	9901      	ldr	r1, [sp, #4]
 8010eca:	f108 0002 	add.w	r0, r8, #2
 8010ece:	4401      	add	r1, r0
 8010ed0:	4608      	mov	r0, r1
 8010ed2:	9908      	ldr	r1, [sp, #32]
 8010ed4:	e001      	b.n	8010eda <chvprintf+0x33a>
 8010ed6:	f812 3f01 	ldrb.w	r3, [r2, #1]!
 8010eda:	f801 3b01 	strb.w	r3, [r1], #1
 8010ede:	4281      	cmp	r1, r0
 8010ee0:	d1f9      	bne.n	8010ed6 <chvprintf+0x336>
 8010ee2:	9b08      	ldr	r3, [sp, #32]
 8010ee4:	9d03      	ldr	r5, [sp, #12]
 8010ee6:	4443      	add	r3, r8
 8010ee8:	4698      	mov	r8, r3
 8010eea:	eba8 0805 	sub.w	r8, r8, r5
 8010eee:	f108 33ff 	add.w	r3, r8, #4294967295
 8010ef2:	eba4 0408 	sub.w	r4, r4, r8
 8010ef6:	9301      	str	r3, [sp, #4]
 8010ef8:	e00b      	b.n	8010f12 <chvprintf+0x372>
 8010efa:	46a9      	mov	r9, r5
 8010efc:	ad10      	add	r5, sp, #64	; 0x40
 8010efe:	f8da 3000 	ldr.w	r3, [sl]
 8010f02:	f805 3d18 	strb.w	r3, [r5, #-24]!
 8010f06:	2300      	movs	r3, #0
 8010f08:	3c01      	subs	r4, #1
 8010f0a:	f10a 0a04 	add.w	sl, sl, #4
 8010f0e:	9301      	str	r3, [sp, #4]
 8010f10:	2720      	movs	r7, #32
 8010f12:	2c00      	cmp	r4, #0
 8010f14:	db6a      	blt.n	8010fec <chvprintf+0x44c>
 8010f16:	9b02      	ldr	r3, [sp, #8]
 8010f18:	2b00      	cmp	r3, #0
 8010f1a:	d17b      	bne.n	8011014 <chvprintf+0x474>
 8010f1c:	4263      	negs	r3, r4
 8010f1e:	2c00      	cmp	r4, #0
 8010f20:	d077      	beq.n	8011012 <chvprintf+0x472>
 8010f22:	7829      	ldrb	r1, [r5, #0]
 8010f24:	6832      	ldr	r2, [r6, #0]
 8010f26:	292d      	cmp	r1, #45	; 0x2d
 8010f28:	6892      	ldr	r2, [r2, #8]
 8010f2a:	d077      	beq.n	801101c <chvprintf+0x47c>
 8010f2c:	4698      	mov	r8, r3
 8010f2e:	e001      	b.n	8010f34 <chvprintf+0x394>
 8010f30:	6833      	ldr	r3, [r6, #0]
 8010f32:	689a      	ldr	r2, [r3, #8]
 8010f34:	4639      	mov	r1, r7
 8010f36:	4630      	mov	r0, r6
 8010f38:	4790      	blx	r2
 8010f3a:	f118 0801 	adds.w	r8, r8, #1
 8010f3e:	d1f7      	bne.n	8010f30 <chvprintf+0x390>
 8010f40:	9a01      	ldr	r2, [sp, #4]
 8010f42:	2a00      	cmp	r2, #0
 8010f44:	4643      	mov	r3, r8
 8010f46:	44a3      	add	fp, r4
 8010f48:	f6ff ae34 	blt.w	8010bb4 <chvprintf+0x14>
 8010f4c:	461c      	mov	r4, r3
 8010f4e:	f8dd 8004 	ldr.w	r8, [sp, #4]
 8010f52:	6833      	ldr	r3, [r6, #0]
 8010f54:	f815 1b01 	ldrb.w	r1, [r5], #1
 8010f58:	689b      	ldr	r3, [r3, #8]
 8010f5a:	f108 38ff 	add.w	r8, r8, #4294967295
 8010f5e:	4630      	mov	r0, r6
 8010f60:	4798      	blx	r3
 8010f62:	f1b8 3fff 	cmp.w	r8, #4294967295
 8010f66:	d1f4      	bne.n	8010f52 <chvprintf+0x3b2>
 8010f68:	9b01      	ldr	r3, [sp, #4]
 8010f6a:	f10b 0b01 	add.w	fp, fp, #1
 8010f6e:	445b      	add	r3, fp
 8010f70:	469b      	mov	fp, r3
 8010f72:	2c00      	cmp	r4, #0
 8010f74:	f43f ae1e 	beq.w	8010bb4 <chvprintf+0x14>
 8010f78:	4625      	mov	r5, r4
 8010f7a:	6833      	ldr	r3, [r6, #0]
 8010f7c:	4639      	mov	r1, r7
 8010f7e:	689b      	ldr	r3, [r3, #8]
 8010f80:	4630      	mov	r0, r6
 8010f82:	4798      	blx	r3
 8010f84:	3d01      	subs	r5, #1
 8010f86:	d1f8      	bne.n	8010f7a <chvprintf+0x3da>
 8010f88:	44a3      	add	fp, r4
 8010f8a:	e613      	b.n	8010bb4 <chvprintf+0x14>
 8010f8c:	46a9      	mov	r9, r5
 8010f8e:	f04f 0c0a 	mov.w	ip, #10
 8010f92:	f85a 2b04 	ldr.w	r2, [sl], #4
 8010f96:	f10d 0133 	add.w	r1, sp, #51	; 0x33
 8010f9a:	e000      	b.n	8010f9e <chvprintf+0x3fe>
 8010f9c:	4601      	mov	r1, r0
 8010f9e:	fbb2 f5fc 	udiv	r5, r2, ip
 8010fa2:	fb0c 2215 	mls	r2, ip, r5, r2
 8010fa6:	f102 0330 	add.w	r3, r2, #48	; 0x30
 8010faa:	2b39      	cmp	r3, #57	; 0x39
 8010fac:	bfc8      	it	gt
 8010fae:	f102 0337 	addgt.w	r3, r2, #55	; 0x37
 8010fb2:	b2db      	uxtb	r3, r3
 8010fb4:	f801 3c01 	strb.w	r3, [r1, #-1]
 8010fb8:	1e48      	subs	r0, r1, #1
 8010fba:	462a      	mov	r2, r5
 8010fbc:	2d00      	cmp	r5, #0
 8010fbe:	d1ed      	bne.n	8010f9c <chvprintf+0x3fc>
 8010fc0:	f10d 0533 	add.w	r5, sp, #51	; 0x33
 8010fc4:	aa0a      	add	r2, sp, #40	; 0x28
 8010fc6:	eba5 0800 	sub.w	r8, r5, r0
 8010fca:	9203      	str	r2, [sp, #12]
 8010fcc:	4440      	add	r0, r8
 8010fce:	e001      	b.n	8010fd4 <chvprintf+0x434>
 8010fd0:	f811 3b01 	ldrb.w	r3, [r1], #1
 8010fd4:	f802 3b01 	strb.w	r3, [r2], #1
 8010fd8:	4281      	cmp	r1, r0
 8010fda:	d1f9      	bne.n	8010fd0 <chvprintf+0x430>
 8010fdc:	eba4 0408 	sub.w	r4, r4, r8
 8010fe0:	f108 33ff 	add.w	r3, r8, #4294967295
 8010fe4:	2c00      	cmp	r4, #0
 8010fe6:	9301      	str	r3, [sp, #4]
 8010fe8:	9d03      	ldr	r5, [sp, #12]
 8010fea:	da94      	bge.n	8010f16 <chvprintf+0x376>
 8010fec:	9b01      	ldr	r3, [sp, #4]
 8010fee:	2b00      	cmp	r3, #0
 8010ff0:	f6ff ade0 	blt.w	8010bb4 <chvprintf+0x14>
 8010ff4:	2400      	movs	r4, #0
 8010ff6:	e7aa      	b.n	8010f4e <chvprintf+0x3ae>
 8010ff8:	46a9      	mov	r9, r5
 8010ffa:	f04f 0c08 	mov.w	ip, #8
 8010ffe:	e7c8      	b.n	8010f92 <chvprintf+0x3f2>
 8011000:	460b      	mov	r3, r1
 8011002:	46a9      	mov	r9, r5
 8011004:	ad10      	add	r5, sp, #64	; 0x40
 8011006:	3c01      	subs	r4, #1
 8011008:	f805 3d18 	strb.w	r3, [r5, #-24]!
 801100c:	2300      	movs	r3, #0
 801100e:	9301      	str	r3, [sp, #4]
 8011010:	e77f      	b.n	8010f12 <chvprintf+0x372>
 8011012:	461c      	mov	r4, r3
 8011014:	9b01      	ldr	r3, [sp, #4]
 8011016:	2b00      	cmp	r3, #0
 8011018:	da99      	bge.n	8010f4e <chvprintf+0x3ae>
 801101a:	e7aa      	b.n	8010f72 <chvprintf+0x3d2>
 801101c:	2f30      	cmp	r7, #48	; 0x30
 801101e:	d185      	bne.n	8010f2c <chvprintf+0x38c>
 8011020:	4630      	mov	r0, r6
 8011022:	9302      	str	r3, [sp, #8]
 8011024:	4790      	blx	r2
 8011026:	9b01      	ldr	r3, [sp, #4]
 8011028:	6832      	ldr	r2, [r6, #0]
 801102a:	3b01      	subs	r3, #1
 801102c:	9301      	str	r3, [sp, #4]
 801102e:	9b02      	ldr	r3, [sp, #8]
 8011030:	6892      	ldr	r2, [r2, #8]
 8011032:	f10b 0b01 	add.w	fp, fp, #1
 8011036:	3501      	adds	r5, #1
 8011038:	4698      	mov	r8, r3
 801103a:	e77b      	b.n	8010f34 <chvprintf+0x394>
 801103c:	f04f 0c10 	mov.w	ip, #16
 8011040:	e7a7      	b.n	8010f92 <chvprintf+0x3f2>
 8011042:	f10a 0204 	add.w	r2, sl, #4
 8011046:	f8da 1000 	ldr.w	r1, [sl]
 801104a:	4692      	mov	sl, r2
 801104c:	2900      	cmp	r1, #0
 801104e:	db62      	blt.n	8011116 <chvprintf+0x576>
 8011050:	ad0a      	add	r5, sp, #40	; 0x28
 8011052:	9503      	str	r5, [sp, #12]
 8011054:	f105 020b 	add.w	r2, r5, #11
 8011058:	f8df 80a0 	ldr.w	r8, [pc, #160]	; 80110fc <chvprintf+0x55c>
 801105c:	4610      	mov	r0, r2
 801105e:	fba8 c301 	umull	ip, r3, r8, r1
 8011062:	08db      	lsrs	r3, r3, #3
 8011064:	eb03 0e83 	add.w	lr, r3, r3, lsl #2
 8011068:	469c      	mov	ip, r3
 801106a:	eba1 034e 	sub.w	r3, r1, lr, lsl #1
 801106e:	3330      	adds	r3, #48	; 0x30
 8011070:	b2db      	uxtb	r3, r3
 8011072:	4661      	mov	r1, ip
 8011074:	f800 3d01 	strb.w	r3, [r0, #-1]!
 8011078:	2900      	cmp	r1, #0
 801107a:	d1f0      	bne.n	801105e <chvprintf+0x4be>
 801107c:	1a12      	subs	r2, r2, r0
 801107e:	442a      	add	r2, r5
 8011080:	e001      	b.n	8011086 <chvprintf+0x4e6>
 8011082:	f810 3f01 	ldrb.w	r3, [r0, #1]!
 8011086:	f805 3b01 	strb.w	r3, [r5], #1
 801108a:	42aa      	cmp	r2, r5
 801108c:	d1f9      	bne.n	8011082 <chvprintf+0x4e2>
 801108e:	9d03      	ldr	r5, [sp, #12]
 8011090:	1b52      	subs	r2, r2, r5
 8011092:	1e53      	subs	r3, r2, #1
 8011094:	1aa4      	subs	r4, r4, r2
 8011096:	9301      	str	r3, [sp, #4]
 8011098:	e73b      	b.n	8010f12 <chvprintf+0x372>
 801109a:	4652      	mov	r2, sl
 801109c:	2b19      	cmp	r3, #25
 801109e:	f852 1b04 	ldr.w	r1, [r2], #4
 80110a2:	46a9      	mov	r9, r5
 80110a4:	bf88      	it	hi
 80110a6:	4692      	movhi	sl, r2
 80110a8:	d8d0      	bhi.n	801104c <chvprintf+0x4ac>
 80110aa:	e7cc      	b.n	8011046 <chvprintf+0x4a6>
 80110ac:	46a9      	mov	r9, r5
 80110ae:	f04f 0c10 	mov.w	ip, #16
 80110b2:	e76e      	b.n	8010f92 <chvprintf+0x3f2>
 80110b4:	232d      	movs	r3, #45	; 0x2d
 80110b6:	f88d 3028 	strb.w	r3, [sp, #40]	; 0x28
 80110ba:	f10d 0329 	add.w	r3, sp, #41	; 0x29
 80110be:	9301      	str	r3, [sp, #4]
 80110c0:	ab0a      	add	r3, sp, #40	; 0x28
 80110c2:	eeb1 8a48 	vneg.f32	s16, s16
 80110c6:	9303      	str	r3, [sp, #12]
 80110c8:	e689      	b.n	8010dde <chvprintf+0x23e>
 80110ca:	490d      	ldr	r1, [pc, #52]	; (8011100 <chvprintf+0x560>)
 80110cc:	460d      	mov	r5, r1
 80110ce:	f1b8 0f00 	cmp.w	r8, #0
 80110d2:	f43f ae5d 	beq.w	8010d90 <chvprintf+0x1f0>
 80110d6:	f108 38ff 	add.w	r8, r8, #4294967295
 80110da:	e65b      	b.n	8010d94 <chvprintf+0x1f4>
 80110dc:	ed9f 7b04 	vldr	d7, [pc, #16]	; 80110f0 <chvprintf+0x550>
 80110e0:	4d08      	ldr	r5, [pc, #32]	; (8011104 <chvprintf+0x564>)
 80110e2:	9509      	str	r5, [sp, #36]	; 0x24
 80110e4:	ed8d 7b06 	vstr	d7, [sp, #24]
 80110e8:	e693      	b.n	8010e12 <chvprintf+0x272>
 80110ea:	bf00      	nop
 80110ec:	f3af 8000 	nop.w
 80110f0:	00000000 	.word	0x00000000
 80110f4:	41cdcd65 	.word	0x41cdcd65
 80110f8:	08016d30 	.word	0x08016d30
 80110fc:	cccccccd 	.word	0xcccccccd
 8011100:	08016d20 	.word	0x08016d20
 8011104:	05f5e100 	.word	0x05f5e100
 8011108:	2b00      	cmp	r3, #0
 801110a:	d1e4      	bne.n	80110d6 <chvprintf+0x536>
 801110c:	f04f 33ff 	mov.w	r3, #4294967295
 8011110:	9301      	str	r3, [sp, #4]
 8011112:	2720      	movs	r7, #32
 8011114:	e6fd      	b.n	8010f12 <chvprintf+0x372>
 8011116:	232d      	movs	r3, #45	; 0x2d
 8011118:	f88d 3028 	strb.w	r3, [sp, #40]	; 0x28
 801111c:	ab0a      	add	r3, sp, #40	; 0x28
 801111e:	4249      	negs	r1, r1
 8011120:	f10d 0529 	add.w	r5, sp, #41	; 0x29
 8011124:	9303      	str	r3, [sp, #12]
 8011126:	e795      	b.n	8011054 <chvprintf+0x4b4>
 8011128:	f04f 33ff 	mov.w	r3, #4294967295
 801112c:	9301      	str	r3, [sp, #4]
 801112e:	2720      	movs	r7, #32
 8011130:	e6f1      	b.n	8010f16 <chvprintf+0x376>
 8011132:	bf00      	nop
	...

08011140 <hw_init_gpio>:
 8011140:	2101      	movs	r1, #1
 8011142:	b5f8      	push	{r3, r4, r5, r6, r7, lr}
 8011144:	4608      	mov	r0, r1
 8011146:	4d48      	ldr	r5, [pc, #288]	; (8011268 <hw_init_gpio+0x128>)
 8011148:	4e48      	ldr	r6, [pc, #288]	; (801126c <hw_init_gpio+0x12c>)
 801114a:	4c49      	ldr	r4, [pc, #292]	; (8011270 <hw_init_gpio+0x130>)
 801114c:	f003 ff00 	bl	8014f50 <RCC_AHB1PeriphClockCmd>
 8011150:	2101      	movs	r1, #1
 8011152:	2002      	movs	r0, #2
 8011154:	f003 fefc 	bl	8014f50 <RCC_AHB1PeriphClockCmd>
 8011158:	2101      	movs	r1, #1
 801115a:	2004      	movs	r0, #4
 801115c:	f003 fef8 	bl	8014f50 <RCC_AHB1PeriphClockCmd>
 8011160:	4628      	mov	r0, r5
 8011162:	2219      	movs	r2, #25
 8011164:	2140      	movs	r1, #64	; 0x40
 8011166:	f7fe f8eb 	bl	800f340 <_pal_lld_setgroupmode>
 801116a:	f44f 6780 	mov.w	r7, #1024	; 0x400
 801116e:	4628      	mov	r0, r5
 8011170:	2219      	movs	r2, #25
 8011172:	2180      	movs	r1, #128	; 0x80
 8011174:	f7fe f8e4 	bl	800f340 <_pal_lld_setgroupmode>
 8011178:	4630      	mov	r0, r6
 801117a:	4639      	mov	r1, r7
 801117c:	2219      	movs	r2, #25
 801117e:	f7fe f8df 	bl	800f340 <_pal_lld_setgroupmode>
 8011182:	4628      	mov	r0, r5
 8011184:	8377      	strh	r7, [r6, #26]
 8011186:	2219      	movs	r2, #25
 8011188:	f44f 5180 	mov.w	r1, #4096	; 0x1000
 801118c:	f7fe f8d8 	bl	800f340 <_pal_lld_setgroupmode>
 8011190:	4620      	mov	r0, r4
 8011192:	229a      	movs	r2, #154	; 0x9a
 8011194:	f44f 7180 	mov.w	r1, #256	; 0x100
 8011198:	f7fe f8d2 	bl	800f340 <_pal_lld_setgroupmode>
 801119c:	4620      	mov	r0, r4
 801119e:	229a      	movs	r2, #154	; 0x9a
 80111a0:	f44f 7100 	mov.w	r1, #512	; 0x200
 80111a4:	f7fe f8cc 	bl	800f340 <_pal_lld_setgroupmode>
 80111a8:	4639      	mov	r1, r7
 80111aa:	4620      	mov	r0, r4
 80111ac:	229a      	movs	r2, #154	; 0x9a
 80111ae:	f7fe f8c7 	bl	800f340 <_pal_lld_setgroupmode>
 80111b2:	4628      	mov	r0, r5
 80111b4:	229a      	movs	r2, #154	; 0x9a
 80111b6:	f44f 5100 	mov.w	r1, #8192	; 0x2000
 80111ba:	f7fe f8c1 	bl	800f340 <_pal_lld_setgroupmode>
 80111be:	4628      	mov	r0, r5
 80111c0:	229a      	movs	r2, #154	; 0x9a
 80111c2:	f44f 4180 	mov.w	r1, #16384	; 0x4000
 80111c6:	f7fe f8bb 	bl	800f340 <_pal_lld_setgroupmode>
 80111ca:	4628      	mov	r0, r5
 80111cc:	229a      	movs	r2, #154	; 0x9a
 80111ce:	f44f 4100 	mov.w	r1, #32768	; 0x8000
 80111d2:	f7fe f8b5 	bl	800f340 <_pal_lld_setgroupmode>
 80111d6:	4630      	mov	r0, r6
 80111d8:	2220      	movs	r2, #32
 80111da:	f44f 5180 	mov.w	r1, #4096	; 0x1000
 80111de:	f7fe f8af 	bl	800f340 <_pal_lld_setgroupmode>
 80111e2:	4620      	mov	r0, r4
 80111e4:	2203      	movs	r2, #3
 80111e6:	2101      	movs	r1, #1
 80111e8:	f7fe f8aa 	bl	800f340 <_pal_lld_setgroupmode>
 80111ec:	4620      	mov	r0, r4
 80111ee:	2203      	movs	r2, #3
 80111f0:	2102      	movs	r1, #2
 80111f2:	f7fe f8a5 	bl	800f340 <_pal_lld_setgroupmode>
 80111f6:	4620      	mov	r0, r4
 80111f8:	2203      	movs	r2, #3
 80111fa:	2104      	movs	r1, #4
 80111fc:	f7fe f8a0 	bl	800f340 <_pal_lld_setgroupmode>
 8011200:	4620      	mov	r0, r4
 8011202:	2203      	movs	r2, #3
 8011204:	2108      	movs	r1, #8
 8011206:	f7fe f89b 	bl	800f340 <_pal_lld_setgroupmode>
 801120a:	4620      	mov	r0, r4
 801120c:	2203      	movs	r2, #3
 801120e:	2110      	movs	r1, #16
 8011210:	f7fe f896 	bl	800f340 <_pal_lld_setgroupmode>
 8011214:	4620      	mov	r0, r4
 8011216:	2203      	movs	r2, #3
 8011218:	2120      	movs	r1, #32
 801121a:	f7fe f891 	bl	800f340 <_pal_lld_setgroupmode>
 801121e:	4620      	mov	r0, r4
 8011220:	2203      	movs	r2, #3
 8011222:	2140      	movs	r1, #64	; 0x40
 8011224:	f7fe f88c 	bl	800f340 <_pal_lld_setgroupmode>
 8011228:	4628      	mov	r0, r5
 801122a:	2203      	movs	r2, #3
 801122c:	2101      	movs	r1, #1
 801122e:	f7fe f887 	bl	800f340 <_pal_lld_setgroupmode>
 8011232:	4628      	mov	r0, r5
 8011234:	2203      	movs	r2, #3
 8011236:	2102      	movs	r1, #2
 8011238:	f7fe f882 	bl	800f340 <_pal_lld_setgroupmode>
 801123c:	4630      	mov	r0, r6
 801123e:	2203      	movs	r2, #3
 8011240:	2101      	movs	r1, #1
 8011242:	f7fe f87d 	bl	800f340 <_pal_lld_setgroupmode>
 8011246:	4630      	mov	r0, r6
 8011248:	2203      	movs	r2, #3
 801124a:	2102      	movs	r1, #2
 801124c:	f7fe f878 	bl	800f340 <_pal_lld_setgroupmode>
 8011250:	4630      	mov	r0, r6
 8011252:	2203      	movs	r2, #3
 8011254:	2104      	movs	r1, #4
 8011256:	f7fe f873 	bl	800f340 <_pal_lld_setgroupmode>
 801125a:	4630      	mov	r0, r6
 801125c:	2203      	movs	r2, #3
 801125e:	2108      	movs	r1, #8
 8011260:	e8bd 40f8 	ldmia.w	sp!, {r3, r4, r5, r6, r7, lr}
 8011264:	f7fe b86c 	b.w	800f340 <_pal_lld_setgroupmode>
 8011268:	40020400 	.word	0x40020400
 801126c:	40020800 	.word	0x40020800
 8011270:	40020000 	.word	0x40020000
	...

08011280 <hw_setup_adc_channels>:
 8011280:	b570      	push	{r4, r5, r6, lr}
 8011282:	4d32      	ldr	r5, [pc, #200]	; (801134c <hw_setup_adc_channels+0xcc>)
 8011284:	4c32      	ldr	r4, [pc, #200]	; (8011350 <hw_setup_adc_channels+0xd0>)
 8011286:	4e33      	ldr	r6, [pc, #204]	; (8011354 <hw_setup_adc_channels+0xd4>)
 8011288:	2301      	movs	r3, #1
 801128a:	4628      	mov	r0, r5
 801128c:	461a      	mov	r2, r3
 801128e:	2100      	movs	r1, #0
 8011290:	f003 fc9e 	bl	8014bd0 <ADC_RegularChannelConfig>
 8011294:	4628      	mov	r0, r5
 8011296:	2301      	movs	r3, #1
 8011298:	2202      	movs	r2, #2
 801129a:	2108      	movs	r1, #8
 801129c:	f003 fc98 	bl	8014bd0 <ADC_RegularChannelConfig>
 80112a0:	4628      	mov	r0, r5
 80112a2:	2301      	movs	r3, #1
 80112a4:	2203      	movs	r2, #3
 80112a6:	2111      	movs	r1, #17
 80112a8:	f003 fc92 	bl	8014bd0 <ADC_RegularChannelConfig>
 80112ac:	2204      	movs	r2, #4
 80112ae:	4628      	mov	r0, r5
 80112b0:	4611      	mov	r1, r2
 80112b2:	2301      	movs	r3, #1
 80112b4:	f003 fc8c 	bl	8014bd0 <ADC_RegularChannelConfig>
 80112b8:	2301      	movs	r3, #1
 80112ba:	4620      	mov	r0, r4
 80112bc:	461a      	mov	r2, r3
 80112be:	4619      	mov	r1, r3
 80112c0:	f003 fc86 	bl	8014bd0 <ADC_RegularChannelConfig>
 80112c4:	4620      	mov	r0, r4
 80112c6:	2301      	movs	r3, #1
 80112c8:	2202      	movs	r2, #2
 80112ca:	2109      	movs	r1, #9
 80112cc:	f003 fc80 	bl	8014bd0 <ADC_RegularChannelConfig>
 80112d0:	4620      	mov	r0, r4
 80112d2:	2301      	movs	r3, #1
 80112d4:	2203      	movs	r2, #3
 80112d6:	2106      	movs	r1, #6
 80112d8:	f003 fc7a 	bl	8014bd0 <ADC_RegularChannelConfig>
 80112dc:	4620      	mov	r0, r4
 80112de:	2301      	movs	r3, #1
 80112e0:	2204      	movs	r2, #4
 80112e2:	2105      	movs	r1, #5
 80112e4:	f003 fc74 	bl	8014bd0 <ADC_RegularChannelConfig>
 80112e8:	2301      	movs	r3, #1
 80112ea:	4630      	mov	r0, r6
 80112ec:	461a      	mov	r2, r3
 80112ee:	2102      	movs	r1, #2
 80112f0:	f003 fc6e 	bl	8014bd0 <ADC_RegularChannelConfig>
 80112f4:	4630      	mov	r0, r6
 80112f6:	2301      	movs	r3, #1
 80112f8:	2202      	movs	r2, #2
 80112fa:	2103      	movs	r1, #3
 80112fc:	f003 fc68 	bl	8014bd0 <ADC_RegularChannelConfig>
 8011300:	4630      	mov	r0, r6
 8011302:	2301      	movs	r3, #1
 8011304:	2203      	movs	r2, #3
 8011306:	210c      	movs	r1, #12
 8011308:	f003 fc62 	bl	8014bd0 <ADC_RegularChannelConfig>
 801130c:	4630      	mov	r0, r6
 801130e:	2301      	movs	r3, #1
 8011310:	2204      	movs	r2, #4
 8011312:	2103      	movs	r1, #3
 8011314:	f003 fc5c 	bl	8014bd0 <ADC_RegularChannelConfig>
 8011318:	2301      	movs	r3, #1
 801131a:	4628      	mov	r0, r5
 801131c:	461a      	mov	r2, r3
 801131e:	2109      	movs	r1, #9
 8011320:	f003 fcae 	bl	8014c80 <ADC_InjectedChannelConfig>
 8011324:	4628      	mov	r0, r5
 8011326:	2301      	movs	r3, #1
 8011328:	2202      	movs	r2, #2
 801132a:	2108      	movs	r1, #8
 801132c:	f003 fca8 	bl	8014c80 <ADC_InjectedChannelConfig>
 8011330:	2301      	movs	r3, #1
 8011332:	4620      	mov	r0, r4
 8011334:	461a      	mov	r2, r3
 8011336:	2108      	movs	r1, #8
 8011338:	f003 fca2 	bl	8014c80 <ADC_InjectedChannelConfig>
 801133c:	4620      	mov	r0, r4
 801133e:	2301      	movs	r3, #1
 8011340:	2202      	movs	r2, #2
 8011342:	2109      	movs	r1, #9
 8011344:	e8bd 4070 	ldmia.w	sp!, {r4, r5, r6, lr}
 8011348:	f003 bc9a 	b.w	8014c80 <ADC_InjectedChannelConfig>
 801134c:	40012000 	.word	0x40012000
 8011350:	40012100 	.word	0x40012100
 8011354:	40012200 	.word	0x40012200
	...

08011360 <hw_start_i2c>:
 8011360:	b510      	push	{r4, lr}
 8011362:	4c0f      	ldr	r4, [pc, #60]	; (80113a0 <hw_start_i2c+0x40>)
 8011364:	480f      	ldr	r0, [pc, #60]	; (80113a4 <hw_start_i2c+0x44>)
 8011366:	f7fc fca3 	bl	800dcb0 <i2cAcquireBus>
 801136a:	7823      	ldrb	r3, [r4, #0]
 801136c:	b99b      	cbnz	r3, 8011396 <hw_start_i2c+0x36>
 801136e:	f240 222e 	movw	r2, #558	; 0x22e
 8011372:	f44f 6180 	mov.w	r1, #1024	; 0x400
 8011376:	480c      	ldr	r0, [pc, #48]	; (80113a8 <hw_start_i2c+0x48>)
 8011378:	f7fd ffe2 	bl	800f340 <_pal_lld_setgroupmode>
 801137c:	f240 222e 	movw	r2, #558	; 0x22e
 8011380:	f44f 6100 	mov.w	r1, #2048	; 0x800
 8011384:	4808      	ldr	r0, [pc, #32]	; (80113a8 <hw_start_i2c+0x48>)
 8011386:	f7fd ffdb 	bl	800f340 <_pal_lld_setgroupmode>
 801138a:	4908      	ldr	r1, [pc, #32]	; (80113ac <hw_start_i2c+0x4c>)
 801138c:	4805      	ldr	r0, [pc, #20]	; (80113a4 <hw_start_i2c+0x44>)
 801138e:	f7fc fc37 	bl	800dc00 <i2cStart>
 8011392:	2301      	movs	r3, #1
 8011394:	7023      	strb	r3, [r4, #0]
 8011396:	4803      	ldr	r0, [pc, #12]	; (80113a4 <hw_start_i2c+0x44>)
 8011398:	e8bd 4010 	ldmia.w	sp!, {r4, lr}
 801139c:	f7fc bc90 	b.w	800dcc0 <i2cReleaseBus>
 80113a0:	20001320 	.word	0x20001320
 80113a4:	20000fc4 	.word	0x20000fc4
 80113a8:	40020400 	.word	0x40020400
 80113ac:	08016d60 	.word	0x08016d60

080113b0 <hw_stop_i2c>:
 80113b0:	b510      	push	{r4, lr}
 80113b2:	4c0e      	ldr	r4, [pc, #56]	; (80113ec <hw_stop_i2c+0x3c>)
 80113b4:	480e      	ldr	r0, [pc, #56]	; (80113f0 <hw_stop_i2c+0x40>)
 80113b6:	f7fc fc7b 	bl	800dcb0 <i2cAcquireBus>
 80113ba:	7823      	ldrb	r3, [r4, #0]
 80113bc:	b183      	cbz	r3, 80113e0 <hw_stop_i2c+0x30>
 80113be:	2200      	movs	r2, #0
 80113c0:	f44f 6180 	mov.w	r1, #1024	; 0x400
 80113c4:	480b      	ldr	r0, [pc, #44]	; (80113f4 <hw_stop_i2c+0x44>)
 80113c6:	f7fd ffbb 	bl	800f340 <_pal_lld_setgroupmode>
 80113ca:	2200      	movs	r2, #0
 80113cc:	f44f 6100 	mov.w	r1, #2048	; 0x800
 80113d0:	4808      	ldr	r0, [pc, #32]	; (80113f4 <hw_stop_i2c+0x44>)
 80113d2:	f7fd ffb5 	bl	800f340 <_pal_lld_setgroupmode>
 80113d6:	4806      	ldr	r0, [pc, #24]	; (80113f0 <hw_stop_i2c+0x40>)
 80113d8:	f7fc fc22 	bl	800dc20 <i2cStop>
 80113dc:	2300      	movs	r3, #0
 80113de:	7023      	strb	r3, [r4, #0]
 80113e0:	4803      	ldr	r0, [pc, #12]	; (80113f0 <hw_stop_i2c+0x40>)
 80113e2:	e8bd 4010 	ldmia.w	sp!, {r4, lr}
 80113e6:	f7fc bc6b 	b.w	800dcc0 <i2cReleaseBus>
 80113ea:	bf00      	nop
 80113ec:	20001320 	.word	0x20001320
 80113f0:	20000fc4 	.word	0x20000fc4
 80113f4:	40020400 	.word	0x40020400
	...

08011400 <hw_try_restore_i2c>:
 8011400:	b5f8      	push	{r3, r4, r5, r6, r7, lr}
 8011402:	4b28      	ldr	r3, [pc, #160]	; (80114a4 <hw_try_restore_i2c+0xa4>)
 8011404:	781b      	ldrb	r3, [r3, #0]
 8011406:	b903      	cbnz	r3, 801140a <hw_try_restore_i2c+0xa>
 8011408:	bdf8      	pop	{r3, r4, r5, r6, r7, pc}
 801140a:	4d27      	ldr	r5, [pc, #156]	; (80114a8 <hw_try_restore_i2c+0xa8>)
 801140c:	4827      	ldr	r0, [pc, #156]	; (80114ac <hw_try_restore_i2c+0xac>)
 801140e:	f7fc fc4f 	bl	800dcb0 <i2cAcquireBus>
 8011412:	4628      	mov	r0, r5
 8011414:	222c      	movs	r2, #44	; 0x2c
 8011416:	f44f 6180 	mov.w	r1, #1024	; 0x400
 801141a:	f7fd ff91 	bl	800f340 <_pal_lld_setgroupmode>
 801141e:	4628      	mov	r0, r5
 8011420:	222c      	movs	r2, #44	; 0x2c
 8011422:	f44f 6100 	mov.w	r1, #2048	; 0x800
 8011426:	f7fd ff8b 	bl	800f340 <_pal_lld_setgroupmode>
 801142a:	f44f 6680 	mov.w	r6, #1024	; 0x400
 801142e:	f44f 6300 	mov.w	r3, #2048	; 0x800
 8011432:	832e      	strh	r6, [r5, #24]
 8011434:	2001      	movs	r0, #1
 8011436:	832b      	strh	r3, [r5, #24]
 8011438:	f7fb ff4a 	bl	800d2d0 <chThdSleep>
 801143c:	4637      	mov	r7, r6
 801143e:	2410      	movs	r4, #16
 8011440:	2001      	movs	r0, #1
 8011442:	836f      	strh	r7, [r5, #26]
 8011444:	f7fb ff44 	bl	800d2d0 <chThdSleep>
 8011448:	832e      	strh	r6, [r5, #24]
 801144a:	2001      	movs	r0, #1
 801144c:	f7fb ff40 	bl	800d2d0 <chThdSleep>
 8011450:	3c01      	subs	r4, #1
 8011452:	d1f5      	bne.n	8011440 <hw_try_restore_i2c+0x40>
 8011454:	f44f 6700 	mov.w	r7, #2048	; 0x800
 8011458:	836f      	strh	r7, [r5, #26]
 801145a:	2001      	movs	r0, #1
 801145c:	f7fb ff38 	bl	800d2d0 <chThdSleep>
 8011460:	836e      	strh	r6, [r5, #26]
 8011462:	2001      	movs	r0, #1
 8011464:	f7fb ff34 	bl	800d2d0 <chThdSleep>
 8011468:	832e      	strh	r6, [r5, #24]
 801146a:	2001      	movs	r0, #1
 801146c:	f7fb ff30 	bl	800d2d0 <chThdSleep>
 8011470:	4c0e      	ldr	r4, [pc, #56]	; (80114ac <hw_try_restore_i2c+0xac>)
 8011472:	832f      	strh	r7, [r5, #24]
 8011474:	f240 222e 	movw	r2, #558	; 0x22e
 8011478:	f44f 6180 	mov.w	r1, #1024	; 0x400
 801147c:	480a      	ldr	r0, [pc, #40]	; (80114a8 <hw_try_restore_i2c+0xa8>)
 801147e:	f7fd ff5f 	bl	800f340 <_pal_lld_setgroupmode>
 8011482:	4639      	mov	r1, r7
 8011484:	f240 222e 	movw	r2, #558	; 0x22e
 8011488:	4807      	ldr	r0, [pc, #28]	; (80114a8 <hw_try_restore_i2c+0xa8>)
 801148a:	f7fd ff59 	bl	800f340 <_pal_lld_setgroupmode>
 801148e:	2301      	movs	r3, #1
 8011490:	4620      	mov	r0, r4
 8011492:	4907      	ldr	r1, [pc, #28]	; (80114b0 <hw_try_restore_i2c+0xb0>)
 8011494:	7023      	strb	r3, [r4, #0]
 8011496:	f7fc fbb3 	bl	800dc00 <i2cStart>
 801149a:	4620      	mov	r0, r4
 801149c:	e8bd 40f8 	ldmia.w	sp!, {r3, r4, r5, r6, r7, lr}
 80114a0:	f7fc bc0e 	b.w	800dcc0 <i2cReleaseBus>
 80114a4:	20001320 	.word	0x20001320
 80114a8:	40020400 	.word	0x40020400
 80114ac:	20000fc4 	.word	0x20000fc4
 80114b0:	08016d60 	.word	0x08016d60
	...

080114c0 <CalcPI>:
 80114c0:	edd0 5a07 	vldr	s11, [r0, #28]
 80114c4:	ed90 6a06 	vldr	s12, [r0, #24]
 80114c8:	edd0 7a00 	vldr	s15, [r0]
 80114cc:	ed90 7a01 	vldr	s14, [r0, #4]
 80114d0:	edd0 6a04 	vldr	s13, [r0, #16]
 80114d4:	ee36 6a65 	vsub.f32	s12, s12, s11
 80114d8:	eef0 5a67 	vmov.f32	s11, s15
 80114dc:	eee7 5a06 	vfma.f32	s11, s14, s12
 80114e0:	eef4 6ae5 	vcmpe.f32	s13, s11
 80114e4:	eef1 fa10 	vmrs	APSR_nzcv, fpscr
 80114e8:	eeb0 7a65 	vmov.f32	s14, s11
 80114ec:	d40b      	bmi.n	8011506 <CalcPI+0x46>
 80114ee:	edd0 6a05 	vldr	s13, [r0, #20]
 80114f2:	eef4 6ae5 	vcmpe.f32	s13, s11
 80114f6:	eef1 fa10 	vmrs	APSR_nzcv, fpscr
 80114fa:	dc04      	bgt.n	8011506 <CalcPI+0x46>
 80114fc:	eef0 6a65 	vmov.f32	s13, s11
 8011500:	edc0 5a08 	vstr	s11, [r0, #32]
 8011504:	e001      	b.n	801150a <CalcPI+0x4a>
 8011506:	edc0 6a08 	vstr	s13, [r0, #32]
 801150a:	ed90 5a02 	vldr	s10, [r0, #8]
 801150e:	edd0 5a03 	vldr	s11, [r0, #12]
 8011512:	eee5 7a06 	vfma.f32	s15, s10, s12
 8011516:	ee37 7a66 	vsub.f32	s14, s14, s13
 801151a:	eee5 7ac7 	vfms.f32	s15, s11, s14
 801151e:	edc0 7a00 	vstr	s15, [r0]
 8011522:	4770      	bx	lr
	...

08011530 <DoControl>:
 8011530:	b510      	push	{r4, lr}
 8011532:	4b1b      	ldr	r3, [pc, #108]	; (80115a0 <DoControl+0x70>)
 8011534:	4c1b      	ldr	r4, [pc, #108]	; (80115a4 <DoControl+0x74>)
 8011536:	ed2d 8b02 	vpush	{d8}
 801153a:	69e1      	ldr	r1, [r4, #28]
 801153c:	61d9      	str	r1, [r3, #28]
 801153e:	2200      	movs	r2, #0
 8011540:	4618      	mov	r0, r3
 8011542:	619a      	str	r2, [r3, #24]
 8011544:	f7ff ffbc 	bl	80114c0 <CalcPI>
 8011548:	edd3 7a08 	vldr	s15, [r3, #32]
 801154c:	ed9f 0a16 	vldr	s0, [pc, #88]	; 80115a8 <DoControl+0x78>
 8011550:	edc4 7a09 	vstr	s15, [r4, #36]	; 0x24
 8011554:	ee67 7aa7 	vmul.f32	s15, s15, s15
 8011558:	4b14      	ldr	r3, [pc, #80]	; (80115ac <DoControl+0x7c>)
 801155a:	ee30 0a67 	vsub.f32	s0, s0, s15
 801155e:	edc3 7a00 	vstr	s15, [r3]
 8011562:	eeb5 0a40 	vcmp.f32	s0, #0.0
 8011566:	eef1 fa10 	vmrs	APSR_nzcv, fpscr
 801156a:	eeb1 8ac0 	vsqrt.f32	s16, s0
 801156e:	d413      	bmi.n	8011598 <DoControl+0x68>
 8011570:	4b0f      	ldr	r3, [pc, #60]	; (80115b0 <DoControl+0x80>)
 8011572:	4a10      	ldr	r2, [pc, #64]	; (80115b4 <DoControl+0x84>)
 8011574:	4618      	mov	r0, r3
 8011576:	6891      	ldr	r1, [r2, #8]
 8011578:	6a22      	ldr	r2, [r4, #32]
 801157a:	6199      	str	r1, [r3, #24]
 801157c:	61da      	str	r2, [r3, #28]
 801157e:	eef1 7a48 	vneg.f32	s15, s16
 8011582:	ed83 8a04 	vstr	s16, [r3, #16]
 8011586:	edc3 7a05 	vstr	s15, [r3, #20]
 801158a:	f7ff ff99 	bl	80114c0 <CalcPI>
 801158e:	ecbd 8b02 	vpop	{d8}
 8011592:	6a1b      	ldr	r3, [r3, #32]
 8011594:	62a3      	str	r3, [r4, #40]	; 0x28
 8011596:	bd10      	pop	{r4, pc}
 8011598:	f004 fb0a 	bl	8015bb0 <sqrtf>
 801159c:	e7e8      	b.n	8011570 <DoControl+0x40>
 801159e:	bf00      	nop
 80115a0:	2000135c 	.word	0x2000135c
 80115a4:	200013ec 	.word	0x200013ec
 80115a8:	3f670a3d 	.word	0x3f670a3d
 80115ac:	20001468 	.word	0x20001468
 80115b0:	200013a4 	.word	0x200013a4
 80115b4:	2000133c 	.word	0x2000133c
	...

080115c0 <SetupControlParameters>:
 80115c0:	b470      	push	{r4, r5, r6}
 80115c2:	4816      	ldr	r0, [pc, #88]	; (801161c <SetupControlParameters+0x5c>)
 80115c4:	4c16      	ldr	r4, [pc, #88]	; (8011620 <SetupControlParameters+0x60>)
 80115c6:	4917      	ldr	r1, [pc, #92]	; (8011624 <SetupControlParameters+0x64>)
 80115c8:	4a17      	ldr	r2, [pc, #92]	; (8011628 <SetupControlParameters+0x68>)
 80115ca:	4d18      	ldr	r5, [pc, #96]	; (801162c <SetupControlParameters+0x6c>)
 80115cc:	4e18      	ldr	r6, [pc, #96]	; (8011630 <SetupControlParameters+0x70>)
 80115ce:	6061      	str	r1, [r4, #4]
 80115d0:	2300      	movs	r3, #0
 80115d2:	6041      	str	r1, [r0, #4]
 80115d4:	60a2      	str	r2, [r4, #8]
 80115d6:	4917      	ldr	r1, [pc, #92]	; (8011634 <SetupControlParameters+0x74>)
 80115d8:	6082      	str	r2, [r0, #8]
 80115da:	4a17      	ldr	r2, [pc, #92]	; (8011638 <SetupControlParameters+0x78>)
 80115dc:	60c5      	str	r5, [r0, #12]
 80115de:	6105      	str	r5, [r0, #16]
 80115e0:	6146      	str	r6, [r0, #20]
 80115e2:	6003      	str	r3, [r0, #0]
 80115e4:	6203      	str	r3, [r0, #32]
 80115e6:	4815      	ldr	r0, [pc, #84]	; (801163c <SetupControlParameters+0x7c>)
 80115e8:	60e5      	str	r5, [r4, #12]
 80115ea:	6125      	str	r5, [r4, #16]
 80115ec:	6166      	str	r6, [r4, #20]
 80115ee:	6023      	str	r3, [r4, #0]
 80115f0:	4e13      	ldr	r6, [pc, #76]	; (8011640 <SetupControlParameters+0x80>)
 80115f2:	6223      	str	r3, [r4, #32]
 80115f4:	600b      	str	r3, [r1, #0]
 80115f6:	4c13      	ldr	r4, [pc, #76]	; (8011644 <SetupControlParameters+0x84>)
 80115f8:	620b      	str	r3, [r1, #32]
 80115fa:	6048      	str	r0, [r1, #4]
 80115fc:	6013      	str	r3, [r2, #0]
 80115fe:	4812      	ldr	r0, [pc, #72]	; (8011648 <SetupControlParameters+0x88>)
 8011600:	6213      	str	r3, [r2, #32]
 8011602:	f04f 4380 	mov.w	r3, #1073741824	; 0x40000000
 8011606:	60cd      	str	r5, [r1, #12]
 8011608:	60d5      	str	r5, [r2, #12]
 801160a:	6096      	str	r6, [r2, #8]
 801160c:	610c      	str	r4, [r1, #16]
 801160e:	6114      	str	r4, [r2, #16]
 8011610:	608b      	str	r3, [r1, #8]
 8011612:	6053      	str	r3, [r2, #4]
 8011614:	6148      	str	r0, [r1, #20]
 8011616:	6150      	str	r0, [r2, #20]
 8011618:	bc70      	pop	{r4, r5, r6}
 801161a:	4770      	bx	lr
 801161c:	200013a4 	.word	0x200013a4
 8011620:	2000135c 	.word	0x2000135c
 8011624:	3ca3d70a 	.word	0x3ca3d70a
 8011628:	3d4ccccd 	.word	0x3d4ccccd
 801162c:	3f7fff58 	.word	0x3f7fff58
 8011630:	bf7fff58 	.word	0xbf7fff58
 8011634:	200013c8 	.word	0x200013c8
 8011638:	20001380 	.word	0x20001380
 801163c:	41400000 	.word	0x41400000
 8011640:	3c23d70a 	.word	0x3c23d70a
 8011644:	3f733333 	.word	0x3f733333
 8011648:	bf733333 	.word	0xbf733333
 801164c:	00000000 	.word	0x00000000

08011650 <mcpwm_init>:
 8011650:	e92d 4ff0 	stmdb	sp!, {r4, r5, r6, r7, r8, r9, sl, fp, lr}
 8011654:	4ccd      	ldr	r4, [pc, #820]	; (801198c <mcpwm_init+0x33c>)
 8011656:	4fce      	ldr	r7, [pc, #824]	; (8011990 <mcpwm_init+0x340>)
 8011658:	f8df a384 	ldr.w	sl, [pc, #900]	; 80119e0 <mcpwm_init+0x390>
 801165c:	f8df 9384 	ldr.w	r9, [pc, #900]	; 80119e4 <mcpwm_init+0x394>
 8011660:	b0a9      	sub	sp, #164	; 0xa4
 8011662:	f001 ff8d 	bl	8013580 <utils_sys_lock_cnt>
 8011666:	4bcb      	ldr	r3, [pc, #812]	; (8011994 <mcpwm_init+0x344>)
 8011668:	2500      	movs	r5, #0
 801166a:	4620      	mov	r0, r4
 801166c:	701d      	strb	r5, [r3, #0]
 801166e:	f003 fcbf 	bl	8014ff0 <TIM_DeInit>
 8011672:	4638      	mov	r0, r7
 8011674:	f003 fcbc 	bl	8014ff0 <TIM_DeInit>
 8011678:	2101      	movs	r1, #1
 801167a:	6265      	str	r5, [r4, #36]	; 0x24
 801167c:	4608      	mov	r0, r1
 801167e:	627d      	str	r5, [r7, #36]	; 0x24
 8011680:	2601      	movs	r6, #1
 8011682:	f003 fc85 	bl	8014f90 <RCC_APB2PeriphClockCmd>
 8011686:	4620      	mov	r0, r4
 8011688:	a903      	add	r1, sp, #12
 801168a:	f44f 1200 	mov.w	r2, #2097152	; 0x200000
 801168e:	9203      	str	r2, [sp, #12]
 8011690:	f8ad 5014 	strh.w	r5, [sp, #20]
 8011694:	f8da 2000 	ldr.w	r2, [sl]
 8011698:	f88d 6016 	strb.w	r6, [sp, #22]
 801169c:	4bbe      	ldr	r3, [pc, #760]	; (8011998 <mcpwm_init+0x348>)
 801169e:	fb93 f3f2 	sdiv	r3, r3, r2
 80116a2:	9304      	str	r3, [sp, #16]
 80116a4:	f003 fd84 	bl	80151b0 <TIM_TimeBaseInit>
 80116a8:	6ae3      	ldr	r3, [r4, #44]	; 0x2c
 80116aa:	4abc      	ldr	r2, [pc, #752]	; (801199c <mcpwm_init+0x34c>)
 80116ac:	920e      	str	r2, [sp, #56]	; 0x38
 80116ae:	40f3      	lsrs	r3, r6
 80116b0:	f04f 0804 	mov.w	r8, #4
 80116b4:	4620      	mov	r0, r4
 80116b6:	a90e      	add	r1, sp, #56	; 0x38
 80116b8:	e9cd 3510 	strd	r3, r5, [sp, #64]	; 0x40
 80116bc:	4bb8      	ldr	r3, [pc, #736]	; (80119a0 <mcpwm_init+0x350>)
 80116be:	9312      	str	r3, [sp, #72]	; 0x48
 80116c0:	f8ad 803c 	strh.w	r8, [sp, #60]	; 0x3c
 80116c4:	f003 fde4 	bl	8015290 <TIM_OC1Init>
 80116c8:	a90e      	add	r1, sp, #56	; 0x38
 80116ca:	4620      	mov	r0, r4
 80116cc:	f003 fe18 	bl	8015300 <TIM_OC2Init>
 80116d0:	a90e      	add	r1, sp, #56	; 0x38
 80116d2:	4620      	mov	r0, r4
 80116d4:	f003 fe5c 	bl	8015390 <TIM_OC3Init>
 80116d8:	a90e      	add	r1, sp, #56	; 0x38
 80116da:	4620      	mov	r0, r4
 80116dc:	f003 fea0 	bl	8015420 <TIM_OC4Init>
 80116e0:	4620      	mov	r0, r4
 80116e2:	2108      	movs	r1, #8
 80116e4:	f003 fed4 	bl	8015490 <TIM_OC1PreloadConfig>
 80116e8:	4620      	mov	r0, r4
 80116ea:	2108      	movs	r1, #8
 80116ec:	f003 fed8 	bl	80154a0 <TIM_OC2PreloadConfig>
 80116f0:	4620      	mov	r0, r4
 80116f2:	2108      	movs	r1, #8
 80116f4:	f003 fee4 	bl	80154c0 <TIM_OC3PreloadConfig>
 80116f8:	4620      	mov	r0, r4
 80116fa:	2108      	movs	r1, #8
 80116fc:	f003 fee8 	bl	80154d0 <TIM_OC4PreloadConfig>
 8011700:	f44f 03a0 	mov.w	r3, #5242880	; 0x500000
 8011704:	f04f 2208 	mov.w	r2, #134219776	; 0x8000800
 8011708:	e9cd 2306 	strd	r2, r3, [sp, #24]
 801170c:	4620      	mov	r0, r4
 801170e:	f04f 5200 	mov.w	r2, #536870912	; 0x20000000
 8011712:	a906      	add	r1, sp, #24
 8011714:	9208      	str	r2, [sp, #32]
 8011716:	f8ad 5024 	strh.w	r5, [sp, #36]	; 0x24
 801171a:	f003 fee9 	bl	80154f0 <TIM_BDTRConfig>
 801171e:	4631      	mov	r1, r6
 8011720:	4620      	mov	r0, r4
 8011722:	f003 ff0d 	bl	8015540 <TIM_CCPreloadControl>
 8011726:	4631      	mov	r1, r6
 8011728:	4620      	mov	r0, r4
 801172a:	f003 fd91 	bl	8015250 <TIM_ARRPreloadConfig>
 801172e:	4631      	mov	r1, r6
 8011730:	489c      	ldr	r0, [pc, #624]	; (80119a4 <mcpwm_init+0x354>)
 8011732:	f003 fc0d 	bl	8014f50 <RCC_AHB1PeriphClockCmd>
 8011736:	4631      	mov	r1, r6
 8011738:	f44f 60e0 	mov.w	r0, #1792	; 0x700
 801173c:	f003 fc28 	bl	8014f90 <RCC_APB2PeriphClockCmd>
 8011740:	462b      	mov	r3, r5
 8011742:	4a99      	ldr	r2, [pc, #612]	; (80119a8 <mcpwm_init+0x358>)
 8011744:	4899      	ldr	r0, [pc, #612]	; (80119ac <mcpwm_init+0x35c>)
 8011746:	2103      	movs	r1, #3
 8011748:	f7fd f9f2 	bl	800eb30 <dmaStreamAllocate>
 801174c:	4a98      	ldr	r2, [pc, #608]	; (80119b0 <mcpwm_init+0x360>)
 801174e:	921b      	str	r2, [sp, #108]	; 0x6c
 8011750:	4b98      	ldr	r3, [pc, #608]	; (80119b4 <mcpwm_init+0x364>)
 8011752:	931a      	str	r3, [sp, #104]	; 0x68
 8011754:	220c      	movs	r2, #12
 8011756:	f44f 6b80 	mov.w	fp, #1024	; 0x400
 801175a:	f44f 6300 	mov.w	r3, #2048	; 0x800
 801175e:	921d      	str	r2, [sp, #116]	; 0x74
 8011760:	f44f 5200 	mov.w	r2, #8192	; 0x2000
 8011764:	4648      	mov	r0, r9
 8011766:	e9cd b31f 	strd	fp, r3, [sp, #124]	; 0x7c
 801176a:	9301      	str	r3, [sp, #4]
 801176c:	9221      	str	r2, [sp, #132]	; 0x84
 801176e:	f44f 7380 	mov.w	r3, #256	; 0x100
 8011772:	f44f 3200 	mov.w	r2, #131072	; 0x20000
 8011776:	a919      	add	r1, sp, #100	; 0x64
 8011778:	e9cd 3222 	strd	r3, r2, [sp, #136]	; 0x88
 801177c:	9519      	str	r5, [sp, #100]	; 0x64
 801177e:	951c      	str	r5, [sp, #112]	; 0x70
 8011780:	951e      	str	r5, [sp, #120]	; 0x78
 8011782:	e9cd 5524 	strd	r5, r5, [sp, #144]	; 0x90
 8011786:	e9cd 5526 	strd	r5, r5, [sp, #152]	; 0x98
 801178a:	f003 fab1 	bl	8014cf0 <DMA_Init>
 801178e:	4631      	mov	r1, r6
 8011790:	4648      	mov	r0, r9
 8011792:	f003 fadd 	bl	8014d50 <DMA_Cmd>
 8011796:	4632      	mov	r2, r6
 8011798:	4648      	mov	r0, r9
 801179a:	2110      	movs	r1, #16
 801179c:	f003 fae8 	bl	8014d70 <DMA_ITConfig>
 80117a0:	2116      	movs	r1, #22
 80117a2:	f44f 4280 	mov.w	r2, #16384	; 0x4000
 80117a6:	a80a      	add	r0, sp, #40	; 0x28
 80117a8:	910a      	str	r1, [sp, #40]	; 0x28
 80117aa:	920c      	str	r2, [sp, #48]	; 0x30
 80117ac:	950b      	str	r5, [sp, #44]	; 0x2c
 80117ae:	950d      	str	r5, [sp, #52]	; 0x34
 80117b0:	f003 f9e6 	bl	8014b80 <ADC_CommonInit>
 80117b4:	f04f 5200 	mov.w	r2, #536870912	; 0x20000000
 80117b8:	a913      	add	r1, sp, #76	; 0x4c
 80117ba:	9215      	str	r2, [sp, #84]	; 0x54
 80117bc:	f8df 9228 	ldr.w	r9, [pc, #552]	; 80119e8 <mcpwm_init+0x398>
 80117c0:	487d      	ldr	r0, [pc, #500]	; (80119b8 <mcpwm_init+0x368>)
 80117c2:	f88d 8060 	strb.w	r8, [sp, #96]	; 0x60
 80117c6:	f04f 6250 	mov.w	r2, #218103808	; 0xd000000
 80117ca:	9216      	str	r2, [sp, #88]	; 0x58
 80117cc:	9513      	str	r5, [sp, #76]	; 0x4c
 80117ce:	f88d 6050 	strb.w	r6, [sp, #80]	; 0x50
 80117d2:	f88d 5051 	strb.w	r5, [sp, #81]	; 0x51
 80117d6:	9517      	str	r5, [sp, #92]	; 0x5c
 80117d8:	f003 f9aa 	bl	8014b30 <ADC_Init>
 80117dc:	a913      	add	r1, sp, #76	; 0x4c
 80117de:	4877      	ldr	r0, [pc, #476]	; (80119bc <mcpwm_init+0x36c>)
 80117e0:	f003 f9a6 	bl	8014b30 <ADC_Init>
 80117e4:	a913      	add	r1, sp, #76	; 0x4c
 80117e6:	4648      	mov	r0, r9
 80117e8:	f003 f9a2 	bl	8014b30 <ADC_Init>
 80117ec:	f7ff fd48 	bl	8011280 <hw_setup_adc_channels>
 80117f0:	4630      	mov	r0, r6
 80117f2:	f003 fa35 	bl	8014c60 <ADC_MultiModeDMARequestAfterLastTransferCmd>
 80117f6:	4631      	mov	r1, r6
 80117f8:	486f      	ldr	r0, [pc, #444]	; (80119b8 <mcpwm_init+0x368>)
 80117fa:	f003 f9d9 	bl	8014bb0 <ADC_Cmd>
 80117fe:	4631      	mov	r1, r6
 8011800:	486e      	ldr	r0, [pc, #440]	; (80119bc <mcpwm_init+0x36c>)
 8011802:	f003 f9d5 	bl	8014bb0 <ADC_Cmd>
 8011806:	4631      	mov	r1, r6
 8011808:	4648      	mov	r0, r9
 801180a:	f003 f9d1 	bl	8014bb0 <ADC_Cmd>
 801180e:	4631      	mov	r1, r6
 8011810:	2002      	movs	r0, #2
 8011812:	f003 fbbd 	bl	8014f90 <RCC_APB2PeriphClockCmd>
 8011816:	a903      	add	r1, sp, #12
 8011818:	4638      	mov	r0, r7
 801181a:	f8da c000 	ldr.w	ip, [sl]
 801181e:	9503      	str	r5, [sp, #12]
 8011820:	f8ad 5014 	strh.w	r5, [sp, #20]
 8011824:	f88d 5016 	strb.w	r5, [sp, #22]
 8011828:	4a65      	ldr	r2, [pc, #404]	; (80119c0 <mcpwm_init+0x370>)
 801182a:	fb92 f2fc 	sdiv	r2, r2, ip
 801182e:	9204      	str	r2, [sp, #16]
 8011830:	f003 fcbe 	bl	80151b0 <TIM_TimeBaseInit>
 8011834:	6ae2      	ldr	r2, [r4, #44]	; 0x2c
 8011836:	4b59      	ldr	r3, [pc, #356]	; (801199c <mcpwm_init+0x34c>)
 8011838:	930e      	str	r3, [sp, #56]	; 0x38
 801183a:	a90e      	add	r1, sp, #56	; 0x38
 801183c:	4b58      	ldr	r3, [pc, #352]	; (80119a0 <mcpwm_init+0x350>)
 801183e:	9312      	str	r3, [sp, #72]	; 0x48
 8011840:	4638      	mov	r0, r7
 8011842:	e9cd 2510 	strd	r2, r5, [sp, #64]	; 0x40
 8011846:	f003 fd23 	bl	8015290 <TIM_OC1Init>
 801184a:	4638      	mov	r0, r7
 801184c:	2108      	movs	r1, #8
 801184e:	f003 fe1f 	bl	8015490 <TIM_OC1PreloadConfig>
 8011852:	a90e      	add	r1, sp, #56	; 0x38
 8011854:	4638      	mov	r0, r7
 8011856:	f003 fd53 	bl	8015300 <TIM_OC2Init>
 801185a:	4638      	mov	r0, r7
 801185c:	2108      	movs	r1, #8
 801185e:	f003 fe1f 	bl	80154a0 <TIM_OC2PreloadConfig>
 8011862:	a90e      	add	r1, sp, #56	; 0x38
 8011864:	4638      	mov	r0, r7
 8011866:	f003 fd93 	bl	8015390 <TIM_OC3Init>
 801186a:	4638      	mov	r0, r7
 801186c:	2108      	movs	r1, #8
 801186e:	f003 fe27 	bl	80154c0 <TIM_OC3PreloadConfig>
 8011872:	4631      	mov	r1, r6
 8011874:	4638      	mov	r0, r7
 8011876:	f003 fceb 	bl	8015250 <TIM_ARRPreloadConfig>
 801187a:	4631      	mov	r1, r6
 801187c:	4638      	mov	r0, r7
 801187e:	f003 fe5f 	bl	8015540 <TIM_CCPreloadControl>
 8011882:	4631      	mov	r1, r6
 8011884:	4638      	mov	r0, r7
 8011886:	f003 fe4b 	bl	8015520 <TIM_CtrlPWMOutputs>
 801188a:	4620      	mov	r0, r4
 801188c:	2120      	movs	r1, #32
 801188e:	f003 fe87 	bl	80155a0 <TIM_SelectOutputTrigger>
 8011892:	4620      	mov	r0, r4
 8011894:	2180      	movs	r1, #128	; 0x80
 8011896:	f003 fea3 	bl	80155e0 <TIM_SelectMasterSlaveMode>
 801189a:	4629      	mov	r1, r5
 801189c:	4638      	mov	r0, r7
 801189e:	f003 fe77 	bl	8015590 <TIM_SelectInputTrigger>
 80118a2:	4641      	mov	r1, r8
 80118a4:	4638      	mov	r0, r7
 80118a6:	f003 fe8b 	bl	80155c0 <TIM_SelectSlaveMode>
 80118aa:	4631      	mov	r1, r6
 80118ac:	4638      	mov	r0, r7
 80118ae:	f003 fcdf 	bl	8015270 <TIM_Cmd>
 80118b2:	4631      	mov	r1, r6
 80118b4:	4620      	mov	r0, r4
 80118b6:	f003 fcdb 	bl	8015270 <TIM_Cmd>
 80118ba:	4631      	mov	r1, r6
 80118bc:	4620      	mov	r0, r4
 80118be:	f003 fe2f 	bl	8015520 <TIM_CtrlPWMOutputs>
 80118c2:	4631      	mov	r1, r6
 80118c4:	4630      	mov	r0, r6
 80118c6:	f003 fb53 	bl	8014f70 <RCC_APB1PeriphClockCmd>
 80118ca:	f04f 39ff 	mov.w	r9, #4294967295
 80118ce:	2253      	movs	r2, #83	; 0x53
 80118d0:	a903      	add	r1, sp, #12
 80118d2:	f04f 4080 	mov.w	r0, #1073741824	; 0x40000000
 80118d6:	e9cd 2903 	strd	r2, r9, [sp, #12]
 80118da:	f8ad 5014 	strh.w	r5, [sp, #20]
 80118de:	f003 fc67 	bl	80151b0 <TIM_TimeBaseInit>
 80118e2:	4631      	mov	r1, r6
 80118e4:	f04f 4080 	mov.w	r0, #1073741824	; 0x40000000
 80118e8:	f003 fcc2 	bl	8015270 <TIM_Cmd>
 80118ec:	6822      	ldr	r2, [r4, #0]
 80118ee:	f8df 80fc 	ldr.w	r8, [pc, #252]	; 80119ec <mcpwm_init+0x39c>
 80118f2:	f042 0202 	orr.w	r2, r2, #2
 80118f6:	6022      	str	r2, [r4, #0]
 80118f8:	683a      	ldr	r2, [r7, #0]
 80118fa:	f042 0202 	orr.w	r2, r2, #2
 80118fe:	603a      	str	r2, [r7, #0]
 8011900:	6ae2      	ldr	r2, [r4, #44]	; 0x2c
 8011902:	637a      	str	r2, [r7, #52]	; 0x34
 8011904:	6ae2      	ldr	r2, [r4, #44]	; 0x2c
 8011906:	63ba      	str	r2, [r7, #56]	; 0x38
 8011908:	6ae2      	ldr	r2, [r4, #44]	; 0x2c
 801190a:	63fa      	str	r2, [r7, #60]	; 0x3c
 801190c:	6822      	ldr	r2, [r4, #0]
 801190e:	f022 0202 	bic.w	r2, r2, #2
 8011912:	6022      	str	r2, [r4, #0]
 8011914:	683a      	ldr	r2, [r7, #0]
 8011916:	f022 0202 	bic.w	r2, r2, #2
 801191a:	603a      	str	r2, [r7, #0]
 801191c:	f001 fe40 	bl	80135a0 <utils_sys_unlock_cnt>
 8011920:	4a28      	ldr	r2, [pc, #160]	; (80119c4 <mcpwm_init+0x374>)
 8011922:	4929      	ldr	r1, [pc, #164]	; (80119c8 <mcpwm_init+0x378>)
 8011924:	f44f 5080 	mov.w	r0, #4096	; 0x1000
 8011928:	f8a1 b018 	strh.w	fp, [r1, #24]
 801192c:	4631      	mov	r1, r6
 801192e:	8350      	strh	r0, [r2, #26]
 8011930:	2040      	movs	r0, #64	; 0x40
 8011932:	f003 fb1d 	bl	8014f70 <RCC_APB1PeriphClockCmd>
 8011936:	2207      	movs	r2, #7
 8011938:	a903      	add	r1, sp, #12
 801193a:	4640      	mov	r0, r8
 801193c:	9203      	str	r2, [sp, #12]
 801193e:	f8cd 9010 	str.w	r9, [sp, #16]
 8011942:	f8ad 5014 	strh.w	r5, [sp, #20]
 8011946:	f003 fc33 	bl	80151b0 <TIM_TimeBaseInit>
 801194a:	4631      	mov	r1, r6
 801194c:	4640      	mov	r0, r8
 801194e:	f003 fc8f 	bl	8015270 <TIM_Cmd>
 8011952:	9b01      	ldr	r3, [sp, #4]
 8011954:	4631      	mov	r1, r6
 8011956:	4618      	mov	r0, r3
 8011958:	f003 fb0a 	bl	8014f70 <RCC_APB1PeriphClockCmd>
 801195c:	4628      	mov	r0, r5
 801195e:	f003 fe4f 	bl	8015600 <WWDG_SetPrescaler>
 8011962:	20ff      	movs	r0, #255	; 0xff
 8011964:	f003 fe5c 	bl	8015620 <WWDG_SetWindowValue>
 8011968:	2064      	movs	r0, #100	; 0x64
 801196a:	f003 fe79 	bl	8015660 <WWDG_Enable>
 801196e:	4b17      	ldr	r3, [pc, #92]	; (80119cc <mcpwm_init+0x37c>)
 8011970:	4a17      	ldr	r2, [pc, #92]	; (80119d0 <mcpwm_init+0x380>)
 8011972:	4918      	ldr	r1, [pc, #96]	; (80119d4 <mcpwm_init+0x384>)
 8011974:	601a      	str	r2, [r3, #0]
 8011976:	609a      	str	r2, [r3, #8]
 8011978:	680a      	ldr	r2, [r1, #0]
 801197a:	4817      	ldr	r0, [pc, #92]	; (80119d8 <mcpwm_init+0x388>)
 801197c:	4917      	ldr	r1, [pc, #92]	; (80119dc <mcpwm_init+0x38c>)
 801197e:	b212      	sxth	r2, r2
 8011980:	809a      	strh	r2, [r3, #4]
 8011982:	6802      	ldr	r2, [r0, #0]
 8011984:	b212      	sxth	r2, r2
 8011986:	819a      	strh	r2, [r3, #12]
 8011988:	e032      	b.n	80119f0 <mcpwm_init+0x3a0>
 801198a:	bf00      	nop
 801198c:	40010000 	.word	0x40010000
 8011990:	40010400 	.word	0x40010400
 8011994:	20001464 	.word	0x20001464
 8011998:	0501bd00 	.word	0x0501bd00
 801199c:	00010060 	.word	0x00010060
 80119a0:	02000100 	.word	0x02000100
 80119a4:	00400005 	.word	0x00400005
 80119a8:	08011da1 	.word	0x08011da1
 80119ac:	08016b90 	.word	0x08016b90
 80119b0:	20001324 	.word	0x20001324
 80119b4:	40012308 	.word	0x40012308
 80119b8:	40012000 	.word	0x40012000
 80119bc:	40012100 	.word	0x40012100
 80119c0:	0a037a00 	.word	0x0a037a00
 80119c4:	40020400 	.word	0x40020400
 80119c8:	40020800 	.word	0x40020800
 80119cc:	2000134c 	.word	0x2000134c
 80119d0:	3a534067 	.word	0x3a534067
 80119d4:	20001450 	.word	0x20001450
 80119d8:	20001458 	.word	0x20001458
 80119dc:	2000142c 	.word	0x2000142c
 80119e0:	20000808 	.word	0x20000808
 80119e4:	40026470 	.word	0x40026470
 80119e8:	40012200 	.word	0x40012200
 80119ec:	40001800 	.word	0x40001800
 80119f0:	6ae3      	ldr	r3, [r4, #44]	; 0x2c
 80119f2:	600b      	str	r3, [r1, #0]
 80119f4:	f7ff fde4 	bl	80115c0 <SetupControlParameters>
 80119f8:	b029      	add	sp, #164	; 0xa4
 80119fa:	e8bd 8ff0 	ldmia.w	sp!, {r4, r5, r6, r7, r8, r9, sl, fp, pc}
 80119fe:	bf00      	nop

08011a00 <CalcTimes>:
 8011a00:	4b18      	ldr	r3, [pc, #96]	; (8011a64 <CalcTimes+0x64>)
 8011a02:	4a19      	ldr	r2, [pc, #100]	; (8011a68 <CalcTimes+0x68>)
 8011a04:	6adb      	ldr	r3, [r3, #44]	; 0x2c
 8011a06:	ed92 6a04 	vldr	s12, [r2, #16]
 8011a0a:	edd2 6a05 	vldr	s13, [r2, #20]
 8011a0e:	6013      	str	r3, [r2, #0]
 8011a10:	ee07 3a90 	vmov	s15, r3
 8011a14:	eef8 7a67 	vcvt.f32.u32	s15, s15
 8011a18:	eeb6 7a00 	vmov.f32	s14, #96	; 0x3f000000  0.5
 8011a1c:	ee27 6a86 	vmul.f32	s12, s15, s12
 8011a20:	ee67 6aa6 	vmul.f32	s13, s15, s13
 8011a24:	ee77 7ac6 	vsub.f32	s15, s15, s12
 8011a28:	ed82 6a04 	vstr	s12, [r2, #16]
 8011a2c:	ee77 7ae6 	vsub.f32	s15, s15, s13
 8011a30:	edc2 6a05 	vstr	s13, [r2, #20]
 8011a34:	ee67 7a87 	vmul.f32	s15, s15, s14
 8011a38:	eefc 7ae7 	vcvt.u32.f32	s15, s15
 8011a3c:	eeb8 7a67 	vcvt.f32.u32	s14, s15
 8011a40:	edc2 7a08 	vstr	s15, [r2, #32]
 8011a44:	ee77 7a06 	vadd.f32	s15, s14, s12
 8011a48:	eefc 7ae7 	vcvt.u32.f32	s15, s15
 8011a4c:	eeb8 7a67 	vcvt.f32.u32	s14, s15
 8011a50:	edc2 7a07 	vstr	s15, [r2, #28]
 8011a54:	ee77 7a26 	vadd.f32	s15, s14, s13
 8011a58:	eefc 7ae7 	vcvt.u32.f32	s15, s15
 8011a5c:	edc2 7a06 	vstr	s15, [r2, #24]
 8011a60:	4770      	bx	lr
 8011a62:	bf00      	nop
 8011a64:	40010000 	.word	0x40010000
 8011a68:	2000142c 	.word	0x2000142c
 8011a6c:	00000000 	.word	0x00000000

08011a70 <update_timer_Duty>:
 8011a70:	e92d 41f0 	stmdb	sp!, {r4, r5, r6, r7, r8, lr}
 8011a74:	4616      	mov	r6, r2
 8011a76:	4680      	mov	r8, r0
 8011a78:	460f      	mov	r7, r1
 8011a7a:	f001 fd81 	bl	8013580 <utils_sys_lock_cnt>
 8011a7e:	4b0d      	ldr	r3, [pc, #52]	; (8011ab4 <update_timer_Duty+0x44>)
 8011a80:	4c0d      	ldr	r4, [pc, #52]	; (8011ab8 <update_timer_Duty+0x48>)
 8011a82:	681d      	ldr	r5, [r3, #0]
 8011a84:	f045 0502 	orr.w	r5, r5, #2
 8011a88:	601d      	str	r5, [r3, #0]
 8011a8a:	6825      	ldr	r5, [r4, #0]
 8011a8c:	f045 0502 	orr.w	r5, r5, #2
 8011a90:	6025      	str	r5, [r4, #0]
 8011a92:	f8c3 8034 	str.w	r8, [r3, #52]	; 0x34
 8011a96:	639f      	str	r7, [r3, #56]	; 0x38
 8011a98:	63de      	str	r6, [r3, #60]	; 0x3c
 8011a9a:	681a      	ldr	r2, [r3, #0]
 8011a9c:	f022 0202 	bic.w	r2, r2, #2
 8011aa0:	601a      	str	r2, [r3, #0]
 8011aa2:	6823      	ldr	r3, [r4, #0]
 8011aa4:	f023 0302 	bic.w	r3, r3, #2
 8011aa8:	6023      	str	r3, [r4, #0]
 8011aaa:	e8bd 41f0 	ldmia.w	sp!, {r4, r5, r6, r7, r8, lr}
 8011aae:	f001 bd77 	b.w	80135a0 <utils_sys_unlock_cnt>
 8011ab2:	bf00      	nop
 8011ab4:	40010000 	.word	0x40010000
 8011ab8:	40010400 	.word	0x40010400
 8011abc:	00000000 	.word	0x00000000

08011ac0 <CalcSVGen>:
 8011ac0:	483d      	ldr	r0, [pc, #244]	; (8011bb8 <CalcSVGen+0xf8>)
 8011ac2:	ed90 7a01 	vldr	s14, [r0, #4]
 8011ac6:	edd0 7a02 	vldr	s15, [r0, #8]
 8011aca:	eeb5 7ac0 	vcmpe.f32	s14, #0.0
 8011ace:	eef1 fa10 	vmrs	APSR_nzcv, fpscr
 8011ad2:	b508      	push	{r3, lr}
 8011ad4:	eef5 7ac0 	vcmpe.f32	s15, #0.0
 8011ad8:	db23      	blt.n	8011b22 <CalcSVGen+0x62>
 8011ada:	eef1 fa10 	vmrs	APSR_nzcv, fpscr
 8011ade:	da13      	bge.n	8011b08 <CalcSVGen+0x48>
 8011ae0:	edd0 6a03 	vldr	s13, [r0, #12]
 8011ae4:	eef5 6ac0 	vcmpe.f32	s13, #0.0
 8011ae8:	eef1 fa10 	vmrs	APSR_nzcv, fpscr
 8011aec:	db41      	blt.n	8011b72 <CalcSVGen+0xb2>
 8011aee:	ed80 7a05 	vstr	s14, [r0, #20]
 8011af2:	edc0 6a04 	vstr	s13, [r0, #16]
 8011af6:	f7ff ff83 	bl	8011a00 <CalcTimes>
 8011afa:	e8bd 4008 	ldmia.w	sp!, {r3, lr}
 8011afe:	e9d0 1206 	ldrd	r1, r2, [r0, #24]
 8011b02:	6a00      	ldr	r0, [r0, #32]
 8011b04:	f7ff bfb4 	b.w	8011a70 <update_timer_Duty>
 8011b08:	edc0 7a05 	vstr	s15, [r0, #20]
 8011b0c:	ed80 7a04 	vstr	s14, [r0, #16]
 8011b10:	f7ff ff76 	bl	8011a00 <CalcTimes>
 8011b14:	e8bd 4008 	ldmia.w	sp!, {r3, lr}
 8011b18:	e9d0 1207 	ldrd	r1, r2, [r0, #28]
 8011b1c:	6980      	ldr	r0, [r0, #24]
 8011b1e:	f7ff bfa7 	b.w	8011a70 <update_timer_Duty>
 8011b22:	eef1 fa10 	vmrs	APSR_nzcv, fpscr
 8011b26:	db35      	blt.n	8011b94 <CalcSVGen+0xd4>
 8011b28:	edd0 6a03 	vldr	s13, [r0, #12]
 8011b2c:	eef5 6ac0 	vcmpe.f32	s13, #0.0
 8011b30:	eef1 fa10 	vmrs	APSR_nzcv, fpscr
 8011b34:	db0c      	blt.n	8011b50 <CalcSVGen+0x90>
 8011b36:	edc0 6a05 	vstr	s13, [r0, #20]
 8011b3a:	edc0 7a04 	vstr	s15, [r0, #16]
 8011b3e:	f7ff ff5f 	bl	8011a00 <CalcTimes>
 8011b42:	e8bd 4008 	ldmia.w	sp!, {r3, lr}
 8011b46:	6982      	ldr	r2, [r0, #24]
 8011b48:	e9d0 0107 	ldrd	r0, r1, [r0, #28]
 8011b4c:	f7ff bf90 	b.w	8011a70 <update_timer_Duty>
 8011b50:	eef1 6a66 	vneg.f32	s13, s13
 8011b54:	eeb1 7a47 	vneg.f32	s14, s14
 8011b58:	edc0 6a05 	vstr	s13, [r0, #20]
 8011b5c:	ed80 7a04 	vstr	s14, [r0, #16]
 8011b60:	f7ff ff4e 	bl	8011a00 <CalcTimes>
 8011b64:	e8bd 4008 	ldmia.w	sp!, {r3, lr}
 8011b68:	e9d0 2107 	ldrd	r2, r1, [r0, #28]
 8011b6c:	6980      	ldr	r0, [r0, #24]
 8011b6e:	f7ff bf7f 	b.w	8011a70 <update_timer_Duty>
 8011b72:	eef1 7a67 	vneg.f32	s15, s15
 8011b76:	eef1 6a66 	vneg.f32	s13, s13
 8011b7a:	edc0 7a05 	vstr	s15, [r0, #20]
 8011b7e:	edc0 6a04 	vstr	s13, [r0, #16]
 8011b82:	f7ff ff3d 	bl	8011a00 <CalcTimes>
 8011b86:	e8bd 4008 	ldmia.w	sp!, {r3, lr}
 8011b8a:	6a02      	ldr	r2, [r0, #32]
 8011b8c:	e9d0 1006 	ldrd	r1, r0, [r0, #24]
 8011b90:	f7ff bf6e 	b.w	8011a70 <update_timer_Duty>
 8011b94:	eeb1 7a47 	vneg.f32	s14, s14
 8011b98:	eef1 7a67 	vneg.f32	s15, s15
 8011b9c:	ed80 7a05 	vstr	s14, [r0, #20]
 8011ba0:	edc0 7a04 	vstr	s15, [r0, #16]
 8011ba4:	f7ff ff2c 	bl	8011a00 <CalcTimes>
 8011ba8:	e8bd 4008 	ldmia.w	sp!, {r3, lr}
 8011bac:	e9d0 2106 	ldrd	r2, r1, [r0, #24]
 8011bb0:	6a00      	ldr	r0, [r0, #32]
 8011bb2:	f7ff bf5d 	b.w	8011a70 <update_timer_Duty>
 8011bb6:	bf00      	nop
 8011bb8:	2000142c 	.word	0x2000142c
 8011bbc:	00000000 	.word	0x00000000

08011bc0 <SMC_HallSensor_Estimation>:
 8011bc0:	4b68      	ldr	r3, [pc, #416]	; (8011d64 <SMC_HallSensor_Estimation+0x1a4>)
 8011bc2:	ed9f 6a69 	vldr	s12, [pc, #420]	; 8011d68 <SMC_HallSensor_Estimation+0x1a8>
 8011bc6:	889a      	ldrh	r2, [r3, #4]
 8011bc8:	885b      	ldrh	r3, [r3, #2]
 8011bca:	eddf 6a68 	vldr	s13, [pc, #416]	; 8011d6c <SMC_HallSensor_Estimation+0x1ac>
 8011bce:	ee07 2a10 	vmov	s14, r2
 8011bd2:	ee07 3a90 	vmov	s15, r3
 8011bd6:	b510      	push	{r4, lr}
 8011bd8:	eeb8 7a47 	vcvt.f32.u32	s14, s14
 8011bdc:	eef8 7a67 	vcvt.f32.u32	s15, s15
 8011be0:	ee37 7a46 	vsub.f32	s14, s14, s12
 8011be4:	ee77 7ac6 	vsub.f32	s15, s15, s12
 8011be8:	ed2d 8b04 	vpush	{d8-d9}
 8011bec:	eec7 8a26 	vdiv.f32	s17, s14, s13
 8011bf0:	4604      	mov	r4, r0
 8011bf2:	ee87 9aa6 	vdiv.f32	s18, s15, s13
 8011bf6:	ed90 8a2e 	vldr	s16, [r0, #184]	; 0xb8
 8011bfa:	edc0 8a12 	vstr	s17, [r0, #72]	; 0x48
 8011bfe:	ed80 9a14 	vstr	s18, [r0, #80]	; 0x50
 8011c02:	eeb0 0a48 	vmov.f32	s0, s16
 8011c06:	f003 fd33 	bl	8015670 <cosf>
 8011c0a:	eef0 9a40 	vmov.f32	s19, s0
 8011c0e:	edc4 9a24 	vstr	s19, [r4, #144]	; 0x90
 8011c12:	eeb0 0a48 	vmov.f32	s0, s16
 8011c16:	f003 ff7b 	bl	8015b10 <sinf>
 8011c1a:	ee68 8aa9 	vmul.f32	s17, s17, s19
 8011c1e:	ee29 9a00 	vmul.f32	s18, s18, s0
 8011c22:	edd4 7a11 	vldr	s15, [r4, #68]	; 0x44
 8011c26:	ed9f 6a52 	vldr	s12, [pc, #328]	; 8011d70 <SMC_HallSensor_Estimation+0x1b0>
 8011c2a:	edc4 8a21 	vstr	s17, [r4, #132]	; 0x84
 8011c2e:	ee78 8ac9 	vsub.f32	s17, s17, s18
 8011c32:	edd4 6a10 	vldr	s13, [r4, #64]	; 0x40
 8011c36:	ed84 9a22 	vstr	s18, [r4, #136]	; 0x88
 8011c3a:	eed8 7a86 	vfnms.f32	s15, s17, s12
 8011c3e:	eeb2 7a04 	vmov.f32	s14, #36	; 0x41200000  10.0
 8011c42:	ee77 7aa6 	vadd.f32	s15, s15, s13
 8011c46:	ed84 0a25 	vstr	s0, [r4, #148]	; 0x94
 8011c4a:	eef4 7ac7 	vcmpe.f32	s15, s14
 8011c4e:	eef1 fa10 	vmrs	APSR_nzcv, fpscr
 8011c52:	dc0f      	bgt.n	8011c74 <SMC_HallSensor_Estimation+0xb4>
 8011c54:	eeba 7a04 	vmov.f32	s14, #164	; 0xc1200000 -10.0
 8011c58:	eef4 7ac7 	vcmpe.f32	s15, s14
 8011c5c:	eef1 fa10 	vmrs	APSR_nzcv, fpscr
 8011c60:	d561      	bpl.n	8011d26 <SMC_HallSensor_Estimation+0x166>
 8011c62:	eef0 7a47 	vmov.f32	s15, s14
 8011c66:	eddf 5a43 	vldr	s11, [pc, #268]	; 8011d74 <SMC_HallSensor_Estimation+0x1b4>
 8011c6a:	eddf 6a43 	vldr	s13, [pc, #268]	; 8011d78 <SMC_HallSensor_Estimation+0x1b8>
 8011c6e:	ed9f 7a43 	vldr	s14, [pc, #268]	; 8011d7c <SMC_HallSensor_Estimation+0x1bc>
 8011c72:	e007      	b.n	8011c84 <SMC_HallSensor_Estimation+0xc4>
 8011c74:	eef0 7a47 	vmov.f32	s15, s14
 8011c78:	eddf 5a41 	vldr	s11, [pc, #260]	; 8011d80 <SMC_HallSensor_Estimation+0x1c0>
 8011c7c:	eddf 6a41 	vldr	s13, [pc, #260]	; 8011d84 <SMC_HallSensor_Estimation+0x1c4>
 8011c80:	ed9f 7a41 	vldr	s14, [pc, #260]	; 8011d88 <SMC_HallSensor_Estimation+0x1c8>
 8011c84:	ed9f 6a41 	vldr	s12, [pc, #260]	; 8011d8c <SMC_HallSensor_Estimation+0x1cc>
 8011c88:	edc4 7a10 	vstr	s15, [r4, #64]	; 0x40
 8011c8c:	ee38 0a27 	vadd.f32	s0, s16, s15
 8011c90:	edc4 8a11 	vstr	s17, [r4, #68]	; 0x44
 8011c94:	eeb4 0ac6 	vcmpe.f32	s0, s12
 8011c98:	eef1 fa10 	vmrs	APSR_nzcv, fpscr
 8011c9c:	dd2f      	ble.n	8011cfe <SMC_HallSensor_Estimation+0x13e>
 8011c9e:	ee30 0a46 	vsub.f32	s0, s0, s12
 8011ca2:	ed84 0a2e 	vstr	s0, [r4, #184]	; 0xb8
 8011ca6:	ed9f 5a3a 	vldr	s10, [pc, #232]	; 8011d90 <SMC_HallSensor_Estimation+0x1d0>
 8011caa:	ed9f 6a38 	vldr	s12, [pc, #224]	; 8011d8c <SMC_HallSensor_Estimation+0x1cc>
 8011cae:	ee30 0a05 	vadd.f32	s0, s0, s10
 8011cb2:	eeb4 0ac6 	vcmpe.f32	s0, s12
 8011cb6:	eef1 fa10 	vmrs	APSR_nzcv, fpscr
 8011cba:	dd2a      	ble.n	8011d12 <SMC_HallSensor_Estimation+0x152>
 8011cbc:	ee30 0a46 	vsub.f32	s0, s0, s12
 8011cc0:	ed84 0a2f 	vstr	s0, [r4, #188]	; 0xbc
 8011cc4:	ed94 5a30 	vldr	s10, [r4, #192]	; 0xc0
 8011cc8:	ed9f 6a30 	vldr	s12, [pc, #192]	; 8011d8c <SMC_HallSensor_Estimation+0x1cc>
 8011ccc:	edc4 7a32 	vstr	s15, [r4, #200]	; 0xc8
 8011cd0:	ee77 7a05 	vadd.f32	s15, s14, s10
 8011cd4:	eef4 7ac6 	vcmpe.f32	s15, s12
 8011cd8:	eef1 fa10 	vmrs	APSR_nzcv, fpscr
 8011cdc:	dc36      	bgt.n	8011d4c <SMC_HallSensor_Estimation+0x18c>
 8011cde:	ecbd 8b04 	vpop	{d8-d9}
 8011ce2:	eef5 7ac0 	vcmpe.f32	s15, #0.0
 8011ce6:	eef1 fa10 	vmrs	APSR_nzcv, fpscr
 8011cea:	bf48      	it	mi
 8011cec:	ee77 7a86 	vaddmi.f32	s15, s15, s12
 8011cf0:	edc4 6a31 	vstr	s13, [r4, #196]	; 0xc4
 8011cf4:	edc4 7a30 	vstr	s15, [r4, #192]	; 0xc0
 8011cf8:	edc4 5a33 	vstr	s11, [r4, #204]	; 0xcc
 8011cfc:	bd10      	pop	{r4, pc}
 8011cfe:	eeb5 0ac0 	vcmpe.f32	s0, #0.0
 8011d02:	eef1 fa10 	vmrs	APSR_nzcv, fpscr
 8011d06:	bf48      	it	mi
 8011d08:	ee30 0a06 	vaddmi.f32	s0, s0, s12
 8011d0c:	ed84 0a2e 	vstr	s0, [r4, #184]	; 0xb8
 8011d10:	e7c9      	b.n	8011ca6 <SMC_HallSensor_Estimation+0xe6>
 8011d12:	eeb5 0ac0 	vcmpe.f32	s0, #0.0
 8011d16:	eef1 fa10 	vmrs	APSR_nzcv, fpscr
 8011d1a:	bf48      	it	mi
 8011d1c:	ee30 0a06 	vaddmi.f32	s0, s0, s12
 8011d20:	ed84 0a2f 	vstr	s0, [r4, #188]	; 0xbc
 8011d24:	e7ce      	b.n	8011cc4 <SMC_HallSensor_Estimation+0x104>
 8011d26:	eddf 5a19 	vldr	s11, [pc, #100]	; 8011d8c <SMC_HallSensor_Estimation+0x1cc>
 8011d2a:	ed9f 7a1a 	vldr	s14, [pc, #104]	; 8011d94 <SMC_HallSensor_Estimation+0x1d4>
 8011d2e:	ed9f 6a1a 	vldr	s12, [pc, #104]	; 8011d98 <SMC_HallSensor_Estimation+0x1d8>
 8011d32:	eec7 6aa5 	vdiv.f32	s13, s15, s11
 8011d36:	eeb1 5a0c 	vmov.f32	s10, #28	; 0x40e00000  7.0
 8011d3a:	ee66 6a87 	vmul.f32	s13, s13, s14
 8011d3e:	ee87 7a85 	vdiv.f32	s14, s15, s10
 8011d42:	ee26 6a86 	vmul.f32	s12, s13, s12
 8011d46:	eec6 5a05 	vdiv.f32	s11, s12, s10
 8011d4a:	e79b      	b.n	8011c84 <SMC_HallSensor_Estimation+0xc4>
 8011d4c:	ecbd 8b04 	vpop	{d8-d9}
 8011d50:	ee77 7ac6 	vsub.f32	s15, s15, s12
 8011d54:	edc4 6a31 	vstr	s13, [r4, #196]	; 0xc4
 8011d58:	edc4 7a30 	vstr	s15, [r4, #192]	; 0xc0
 8011d5c:	edc4 5a33 	vstr	s11, [r4, #204]	; 0xcc
 8011d60:	bd10      	pop	{r4, pc}
 8011d62:	bf00      	nop
 8011d64:	20001324 	.word	0x20001324
 8011d68:	449b2000 	.word	0x449b2000
 8011d6c:	457ff000 	.word	0x457ff000
 8011d70:	3f80020c 	.word	0x3f80020c
 8011d74:	c8d52769 	.word	0xc8d52769
 8011d78:	c6c6f195 	.word	0xc6c6f195
 8011d7c:	bfb6db6e 	.word	0xbfb6db6e
 8011d80:	48d52769 	.word	0x48d52769
 8011d84:	46c6f195 	.word	0x46c6f195
 8011d88:	3fb6db6e 	.word	0x3fb6db6e
 8011d8c:	40c90fdb 	.word	0x40c90fdb
 8011d90:	3e99999a 	.word	0x3e99999a
 8011d94:	467a0000 	.word	0x467a0000
 8011d98:	42f00000 	.word	0x42f00000
 8011d9c:	00000000 	.word	0x00000000

08011da0 <mcpwm_adc_dma_int_handler>:
 8011da0:	b5f8      	push	{r3, r4, r5, r6, r7, lr}
 8011da2:	4c5c      	ldr	r4, [pc, #368]	; (8011f14 <mcpwm_adc_dma_int_handler+0x174>)
 8011da4:	8823      	ldrh	r3, [r4, #0]
 8011da6:	3301      	adds	r3, #1
 8011da8:	b29b      	uxth	r3, r3
 8011daa:	f003 020f 	and.w	r2, r3, #15
 8011dae:	2a01      	cmp	r2, #1
 8011db0:	ed2d 8b04 	vpush	{d8-d9}
 8011db4:	8023      	strh	r3, [r4, #0]
 8011db6:	f000 809a 	beq.w	8011eee <mcpwm_adc_dma_int_handler+0x14e>
 8011dba:	f013 0303 	ands.w	r3, r3, #3
 8011dbe:	f040 808f 	bne.w	8011ee0 <mcpwm_adc_dma_int_handler+0x140>
 8011dc2:	4d55      	ldr	r5, [pc, #340]	; (8011f18 <mcpwm_adc_dma_int_handler+0x178>)
 8011dc4:	4955      	ldr	r1, [pc, #340]	; (8011f1c <mcpwm_adc_dma_int_handler+0x17c>)
 8011dc6:	4c56      	ldr	r4, [pc, #344]	; (8011f20 <mcpwm_adc_dma_int_handler+0x180>)
 8011dc8:	4856      	ldr	r0, [pc, #344]	; (8011f24 <mcpwm_adc_dma_int_handler+0x184>)
 8011dca:	4a57      	ldr	r2, [pc, #348]	; (8011f28 <mcpwm_adc_dma_int_handler+0x188>)
 8011dcc:	ed9f 7a57 	vldr	s14, [pc, #348]	; 8011f2c <mcpwm_adc_dma_int_handler+0x18c>
 8011dd0:	4f57      	ldr	r7, [pc, #348]	; (8011f30 <mcpwm_adc_dma_int_handler+0x190>)
 8011dd2:	2680      	movs	r6, #128	; 0x80
 8011dd4:	832e      	strh	r6, [r5, #24]
 8011dd6:	624b      	str	r3, [r1, #36]	; 0x24
 8011dd8:	6821      	ldr	r1, [r4, #0]
 8011dda:	8913      	ldrh	r3, [r2, #8]
 8011ddc:	88d2      	ldrh	r2, [r2, #6]
 8011dde:	ed97 9a2e 	vldr	s18, [r7, #184]	; 0xb8
 8011de2:	3101      	adds	r1, #1
 8011de4:	6021      	str	r1, [r4, #0]
 8011de6:	6801      	ldr	r1, [r0, #0]
 8011de8:	4c52      	ldr	r4, [pc, #328]	; (8011f34 <mcpwm_adc_dma_int_handler+0x194>)
 8011dea:	4419      	add	r1, r3
 8011dec:	6001      	str	r1, [r0, #0]
 8011dee:	6820      	ldr	r0, [r4, #0]
 8011df0:	4951      	ldr	r1, [pc, #324]	; (8011f38 <mcpwm_adc_dma_int_handler+0x198>)
 8011df2:	4410      	add	r0, r2
 8011df4:	6020      	str	r0, [r4, #0]
 8011df6:	8888      	ldrh	r0, [r1, #4]
 8011df8:	898c      	ldrh	r4, [r1, #12]
 8011dfa:	edd1 6a00 	vldr	s13, [r1]
 8011dfe:	ed91 6a02 	vldr	s12, [r1, #8]
 8011e02:	b221      	sxth	r1, r4
 8011e04:	1a52      	subs	r2, r2, r1
 8011e06:	ee07 2a90 	vmov	s15, r2
 8011e0a:	b202      	sxth	r2, r0
 8011e0c:	eef8 7ae7 	vcvt.f32.s32	s15, s15
 8011e10:	1a9b      	subs	r3, r3, r2
 8011e12:	ee67 7a86 	vmul.f32	s15, s15, s12
 8011e16:	ee08 3a10 	vmov	s16, r3
 8011e1a:	ee77 8aa7 	vadd.f32	s17, s15, s15
 8011e1e:	eeb8 8ac8 	vcvt.f32.s32	s16, s16
 8011e22:	ee68 8a87 	vmul.f32	s17, s17, s14
 8011e26:	ee28 8a26 	vmul.f32	s16, s16, s13
 8011e2a:	4c44      	ldr	r4, [pc, #272]	; (8011f3c <mcpwm_adc_dma_int_handler+0x19c>)
 8011e2c:	eee8 8a07 	vfma.f32	s17, s16, s14
 8011e30:	eeb0 0a49 	vmov.f32	s0, s18
 8011e34:	edc4 7a04 	vstr	s15, [r4, #16]
 8011e38:	edc4 8a06 	vstr	s17, [r4, #24]
 8011e3c:	ed84 8a03 	vstr	s16, [r4, #12]
 8011e40:	ed84 8a05 	vstr	s16, [r4, #20]
 8011e44:	ed84 9a00 	vstr	s18, [r4]
 8011e48:	f003 fc12 	bl	8015670 <cosf>
 8011e4c:	eef0 9a40 	vmov.f32	s19, s0
 8011e50:	eeb0 0a49 	vmov.f32	s0, s18
 8011e54:	f003 fe5c 	bl	8015b10 <sinf>
 8011e58:	ee68 7aa9 	vmul.f32	s15, s17, s19
 8011e5c:	ee68 8a80 	vmul.f32	s17, s17, s0
 8011e60:	eee8 7a00 	vfma.f32	s15, s16, s0
 8011e64:	eee8 8a69 	vfms.f32	s17, s16, s19
 8011e68:	edc4 7a08 	vstr	s15, [r4, #32]
 8011e6c:	edc4 8a07 	vstr	s17, [r4, #28]
 8011e70:	f7ff fb5e 	bl	8011530 <DoControl>
 8011e74:	edd4 9a00 	vldr	s19, [r4]
 8011e78:	ed94 9a09 	vldr	s18, [r4, #36]	; 0x24
 8011e7c:	eeb0 0a69 	vmov.f32	s0, s19
 8011e80:	f003 fbf6 	bl	8015670 <cosf>
 8011e84:	ed94 8a0a 	vldr	s16, [r4, #40]	; 0x28
 8011e88:	eef0 8a40 	vmov.f32	s17, s0
 8011e8c:	eeb0 0a69 	vmov.f32	s0, s19
 8011e90:	f003 fe3e 	bl	8015b10 <sinf>
 8011e94:	ee68 6a88 	vmul.f32	s13, s17, s16
 8011e98:	ee60 7a48 	vnmul.f32	s15, s0, s16
 8011e9c:	eee9 6a00 	vfma.f32	s13, s18, s0
 8011ea0:	4b27      	ldr	r3, [pc, #156]	; (8011f40 <mcpwm_adc_dma_int_handler+0x1a0>)
 8011ea2:	eee9 7a28 	vfma.f32	s15, s18, s17
 8011ea6:	eddf 5a27 	vldr	s11, [pc, #156]	; 8011f44 <mcpwm_adc_dma_int_handler+0x1a4>
 8011eaa:	edc4 7a0b 	vstr	s15, [r4, #44]	; 0x2c
 8011eae:	eeb1 7a66 	vneg.f32	s14, s13
 8011eb2:	eeb0 6a47 	vmov.f32	s12, s14
 8011eb6:	eea7 6aa5 	vfma.f32	s12, s15, s11
 8011eba:	eea7 7ae5 	vfms.f32	s14, s15, s11
 8011ebe:	eef6 5a00 	vmov.f32	s11, #96	; 0x3f000000  0.5
 8011ec2:	ee66 7a25 	vmul.f32	s15, s12, s11
 8011ec6:	ee27 7a25 	vmul.f32	s14, s14, s11
 8011eca:	edc4 6a0c 	vstr	s13, [r4, #48]	; 0x30
 8011ece:	edc3 6a01 	vstr	s13, [r3, #4]
 8011ed2:	edc3 7a02 	vstr	s15, [r3, #8]
 8011ed6:	ed83 7a03 	vstr	s14, [r3, #12]
 8011eda:	f7ff fdf1 	bl	8011ac0 <CalcSVGen>
 8011ede:	836e      	strh	r6, [r5, #26]
 8011ee0:	ecbd 8b04 	vpop	{d8-d9}
 8011ee4:	2064      	movs	r0, #100	; 0x64
 8011ee6:	e8bd 40f8 	ldmia.w	sp!, {r3, r4, r5, r6, r7, lr}
 8011eea:	f003 bbb1 	b.w	8015650 <WWDG_SetCounter>
 8011eee:	4f10      	ldr	r7, [pc, #64]	; (8011f30 <mcpwm_adc_dma_int_handler+0x190>)
 8011ef0:	4d15      	ldr	r5, [pc, #84]	; (8011f48 <mcpwm_adc_dma_int_handler+0x1a8>)
 8011ef2:	4e16      	ldr	r6, [pc, #88]	; (8011f4c <mcpwm_adc_dma_int_handler+0x1ac>)
 8011ef4:	4638      	mov	r0, r7
 8011ef6:	f7ff fe63 	bl	8011bc0 <SMC_HallSensor_Estimation>
 8011efa:	f8d7 20c8 	ldr.w	r2, [r7, #200]	; 0xc8
 8011efe:	6833      	ldr	r3, [r6, #0]
 8011f00:	61ea      	str	r2, [r5, #28]
 8011f02:	4628      	mov	r0, r5
 8011f04:	61ab      	str	r3, [r5, #24]
 8011f06:	f7ff fadb 	bl	80114c0 <CalcPI>
 8011f0a:	6a2a      	ldr	r2, [r5, #32]
 8011f0c:	8823      	ldrh	r3, [r4, #0]
 8011f0e:	60b2      	str	r2, [r6, #8]
 8011f10:	e753      	b.n	8011dba <mcpwm_adc_dma_int_handler+0x1a>
 8011f12:	bf00      	nop
 8011f14:	20001348 	.word	0x20001348
 8011f18:	40020400 	.word	0x40020400
 8011f1c:	40001800 	.word	0x40001800
 8011f20:	20001460 	.word	0x20001460
 8011f24:	20001454 	.word	0x20001454
 8011f28:	20001324 	.word	0x20001324
 8011f2c:	3f13cd3a 	.word	0x3f13cd3a
 8011f30:	2000146c 	.word	0x2000146c
 8011f34:	2000145c 	.word	0x2000145c
 8011f38:	2000134c 	.word	0x2000134c
 8011f3c:	200013ec 	.word	0x200013ec
 8011f40:	2000142c 	.word	0x2000142c
 8011f44:	3fddb3d7 	.word	0x3fddb3d7
 8011f48:	200013c8 	.word	0x200013c8
 8011f4c:	2000133c 	.word	0x2000133c

08011f50 <sample_send_thread>:
 8011f50:	b508      	push	{r3, lr}
 8011f52:	4b06      	ldr	r3, [pc, #24]	; (8011f6c <sample_send_thread+0x1c>)
 8011f54:	4a06      	ldr	r2, [pc, #24]	; (8011f70 <sample_send_thread+0x20>)
 8011f56:	699b      	ldr	r3, [r3, #24]
 8011f58:	4906      	ldr	r1, [pc, #24]	; (8011f74 <sample_send_thread+0x24>)
 8011f5a:	619a      	str	r2, [r3, #24]
 8011f5c:	4806      	ldr	r0, [pc, #24]	; (8011f78 <sample_send_thread+0x28>)
 8011f5e:	f7fe fe1f 	bl	8010ba0 <chvprintf>
 8011f62:	2001      	movs	r0, #1
 8011f64:	f7fb fbcc 	bl	800d700 <chEvtWaitAny>
 8011f68:	e7fb      	b.n	8011f62 <sample_send_thread+0x12>
 8011f6a:	bf00      	nop
 8011f6c:	20000c90 	.word	0x20000c90
 8011f70:	08016d90 	.word	0x08016d90
 8011f74:	08016da0 	.word	0x08016da0
 8011f78:	20006b40 	.word	0x20006b40
 8011f7c:	00000000 	.word	0x00000000

08011f80 <timer_thread>:
 8011f80:	b508      	push	{r3, lr}
 8011f82:	4b06      	ldr	r3, [pc, #24]	; (8011f9c <timer_thread+0x1c>)
 8011f84:	4a06      	ldr	r2, [pc, #24]	; (8011fa0 <timer_thread+0x20>)
 8011f86:	699b      	ldr	r3, [r3, #24]
 8011f88:	4906      	ldr	r1, [pc, #24]	; (8011fa4 <timer_thread+0x24>)
 8011f8a:	619a      	str	r2, [r3, #24]
 8011f8c:	4806      	ldr	r0, [pc, #24]	; (8011fa8 <timer_thread+0x28>)
 8011f8e:	f7fe fe07 	bl	8010ba0 <chvprintf>
 8011f92:	200a      	movs	r0, #10
 8011f94:	f7fb f99c 	bl	800d2d0 <chThdSleep>
 8011f98:	e7fb      	b.n	8011f92 <timer_thread+0x12>
 8011f9a:	bf00      	nop
 8011f9c:	20000c90 	.word	0x20000c90
 8011fa0:	08016dd0 	.word	0x08016dd0
 8011fa4:	08016ddc 	.word	0x08016ddc
 8011fa8:	20006b40 	.word	0x20006b40
 8011fac:	00000000 	.word	0x00000000

08011fb0 <mc_interface_init>:
 8011fb0:	b5f0      	push	{r4, r5, r6, r7, lr}
 8011fb2:	4d28      	ldr	r5, [pc, #160]	; (8012054 <mc_interface_init+0xa4>)
 8011fb4:	4928      	ldr	r1, [pc, #160]	; (8012058 <mc_interface_init+0xa8>)
 8011fb6:	4e29      	ldr	r6, [pc, #164]	; (801205c <mc_interface_init+0xac>)
 8011fb8:	4f29      	ldr	r7, [pc, #164]	; (8012060 <mc_interface_init+0xb0>)
 8011fba:	b083      	sub	sp, #12
 8011fbc:	4604      	mov	r4, r0
 8011fbe:	4829      	ldr	r0, [pc, #164]	; (8012064 <mc_interface_init+0xb4>)
 8011fc0:	f7fe fdee 	bl	8010ba0 <chvprintf>
 8011fc4:	4621      	mov	r1, r4
 8011fc6:	4628      	mov	r0, r5
 8011fc8:	22c8      	movs	r2, #200	; 0xc8
 8011fca:	f7fa fd91 	bl	800caf0 <memcpy>
 8011fce:	4a26      	ldr	r2, [pc, #152]	; (8012068 <mc_interface_init+0xb8>)
 8011fd0:	4826      	ldr	r0, [pc, #152]	; (801206c <mc_interface_init+0xbc>)
 8011fd2:	4927      	ldr	r1, [pc, #156]	; (8012070 <mc_interface_init+0xc0>)
 8011fd4:	f8df c0e4 	ldr.w	ip, [pc, #228]	; 80120bc <mc_interface_init+0x10c>
 8011fd8:	2400      	movs	r4, #0
 8011fda:	9400      	str	r4, [sp, #0]
 8011fdc:	6014      	str	r4, [r2, #0]
 8011fde:	7034      	strb	r4, [r6, #0]
 8011fe0:	4a24      	ldr	r2, [pc, #144]	; (8012074 <mc_interface_init+0xc4>)
 8011fe2:	4e25      	ldr	r6, [pc, #148]	; (8012078 <mc_interface_init+0xc8>)
 8011fe4:	7004      	strb	r4, [r0, #0]
 8011fe6:	2300      	movs	r3, #0
 8011fe8:	600b      	str	r3, [r1, #0]
 8011fea:	4824      	ldr	r0, [pc, #144]	; (801207c <mc_interface_init+0xcc>)
 8011fec:	6013      	str	r3, [r2, #0]
 8011fee:	4924      	ldr	r1, [pc, #144]	; (8012080 <mc_interface_init+0xd0>)
 8011ff0:	6033      	str	r3, [r6, #0]
 8011ff2:	4a24      	ldr	r2, [pc, #144]	; (8012084 <mc_interface_init+0xd4>)
 8011ff4:	4e24      	ldr	r6, [pc, #144]	; (8012088 <mc_interface_init+0xd8>)
 8011ff6:	6003      	str	r3, [r0, #0]
 8011ff8:	600b      	str	r3, [r1, #0]
 8011ffa:	4824      	ldr	r0, [pc, #144]	; (801208c <mc_interface_init+0xdc>)
 8011ffc:	6013      	str	r3, [r2, #0]
 8011ffe:	4924      	ldr	r1, [pc, #144]	; (8012090 <mc_interface_init+0xe0>)
 8012000:	6033      	str	r3, [r6, #0]
 8012002:	4a24      	ldr	r2, [pc, #144]	; (8012094 <mc_interface_init+0xe4>)
 8012004:	4e24      	ldr	r6, [pc, #144]	; (8012098 <mc_interface_init+0xe8>)
 8012006:	6003      	str	r3, [r0, #0]
 8012008:	7034      	strb	r4, [r6, #0]
 801200a:	600b      	str	r3, [r1, #0]
 801200c:	4823      	ldr	r0, [pc, #140]	; (801209c <mc_interface_init+0xec>)
 801200e:	6013      	str	r3, [r2, #0]
 8012010:	4923      	ldr	r1, [pc, #140]	; (80120a0 <mc_interface_init+0xf0>)
 8012012:	4a24      	ldr	r2, [pc, #144]	; (80120a4 <mc_interface_init+0xf4>)
 8012014:	4e24      	ldr	r6, [pc, #144]	; (80120a8 <mc_interface_init+0xf8>)
 8012016:	f44f 737a 	mov.w	r3, #1000	; 0x3e8
 801201a:	f8cc 3000 	str.w	r3, [ip]
 801201e:	2301      	movs	r3, #1
 8012020:	603b      	str	r3, [r7, #0]
 8012022:	6003      	str	r3, [r0, #0]
 8012024:	6014      	str	r4, [r2, #0]
 8012026:	4b21      	ldr	r3, [pc, #132]	; (80120ac <mc_interface_init+0xfc>)
 8012028:	600c      	str	r4, [r1, #0]
 801202a:	2240      	movs	r2, #64	; 0x40
 801202c:	f44f 61b3 	mov.w	r1, #1432	; 0x598
 8012030:	6034      	str	r4, [r6, #0]
 8012032:	481f      	ldr	r0, [pc, #124]	; (80120b0 <mc_interface_init+0x100>)
 8012034:	f7fb f914 	bl	800d260 <chThdCreateStatic>
 8012038:	9400      	str	r4, [sp, #0]
 801203a:	4b1e      	ldr	r3, [pc, #120]	; (80120b4 <mc_interface_init+0x104>)
 801203c:	481e      	ldr	r0, [pc, #120]	; (80120b8 <mc_interface_init+0x108>)
 801203e:	223f      	movs	r2, #63	; 0x3f
 8012040:	f44f 61b3 	mov.w	r1, #1432	; 0x598
 8012044:	f7fb f90c 	bl	800d260 <chThdCreateStatic>
 8012048:	4628      	mov	r0, r5
 801204a:	b003      	add	sp, #12
 801204c:	e8bd 40f0 	ldmia.w	sp!, {r4, r5, r6, r7, lr}
 8012050:	f7ff bafe 	b.w	8011650 <mcpwm_init>
 8012054:	20001544 	.word	0x20001544
 8012058:	08016d70 	.word	0x08016d70
 801205c:	20001620 	.word	0x20001620
 8012060:	20001634 	.word	0x20001634
 8012064:	20006b40 	.word	0x20006b40
 8012068:	2000160c 	.word	0x2000160c
 801206c:	20001621 	.word	0x20001621
 8012070:	20001628 	.word	0x20001628
 8012074:	20001618 	.word	0x20001618
 8012078:	20001624 	.word	0x20001624
 801207c:	20001614 	.word	0x20001614
 8012080:	2000153c 	.word	0x2000153c
 8012084:	20001540 	.word	0x20001540
 8012088:	20001648 	.word	0x20001648
 801208c:	2000164c 	.word	0x2000164c
 8012090:	2000162c 	.word	0x2000162c
 8012094:	2000161c 	.word	0x2000161c
 8012098:	20001610 	.word	0x20001610
 801209c:	20001640 	.word	0x20001640
 80120a0:	20001630 	.word	0x20001630
 80120a4:	2000163c 	.word	0x2000163c
 80120a8:	20001644 	.word	0x20001644
 80120ac:	08011f81 	.word	0x08011f81
 80120b0:	20001be8 	.word	0x20001be8
 80120b4:	08011f51 	.word	0x08011f51
 80120b8:	20001650 	.word	0x20001650
 80120bc:	20001638 	.word	0x20001638

080120c0 <mc_interface_get_fault>:
 80120c0:	4b01      	ldr	r3, [pc, #4]	; (80120c8 <mc_interface_get_fault+0x8>)
 80120c2:	7818      	ldrb	r0, [r3, #0]
 80120c4:	4770      	bx	lr
 80120c6:	bf00      	nop
 80120c8:	20001610 	.word	0x20001610
 80120cc:	00000000 	.word	0x00000000

080120d0 <spi_transfer.isra.0.constprop.1>:
 80120d0:	490f      	ldr	r1, [pc, #60]	; (8012110 <spi_transfer.isra.0.constprop.1+0x40>)
 80120d2:	b430      	push	{r4, r5}
 80120d4:	2210      	movs	r2, #16
 80120d6:	2300      	movs	r3, #0
 80120d8:	f04f 0440 	mov.w	r4, #64	; 0x40
 80120dc:	bf00      	nop
 80120de:	bf00      	nop
 80120e0:	bf00      	nop
 80120e2:	bf00      	nop
 80120e4:	830c      	strh	r4, [r1, #24]
 80120e6:	bf00      	nop
 80120e8:	bf00      	nop
 80120ea:	bf00      	nop
 80120ec:	bf00      	nop
 80120ee:	690d      	ldr	r5, [r1, #16]
 80120f0:	005b      	lsls	r3, r3, #1
 80120f2:	062d      	lsls	r5, r5, #24
 80120f4:	b29b      	uxth	r3, r3
 80120f6:	d501      	bpl.n	80120fc <spi_transfer.isra.0.constprop.1+0x2c>
 80120f8:	f043 0301 	orr.w	r3, r3, #1
 80120fc:	834c      	strh	r4, [r1, #26]
 80120fe:	bf00      	nop
 8012100:	bf00      	nop
 8012102:	bf00      	nop
 8012104:	bf00      	nop
 8012106:	3a01      	subs	r2, #1
 8012108:	d1e8      	bne.n	80120dc <spi_transfer.isra.0.constprop.1+0xc>
 801210a:	8003      	strh	r3, [r0, #0]
 801210c:	bc30      	pop	{r4, r5}
 801210e:	4770      	bx	lr
 8012110:	40020400 	.word	0x40020400
	...

08012120 <encoder_reset>:
 8012120:	4903      	ldr	r1, [pc, #12]	; (8012130 <encoder_reset+0x10>)
 8012122:	4b04      	ldr	r3, [pc, #16]	; (8012134 <encoder_reset+0x14>)
 8012124:	2000      	movs	r0, #0
 8012126:	2201      	movs	r2, #1
 8012128:	6248      	str	r0, [r1, #36]	; 0x24
 801212a:	701a      	strb	r2, [r3, #0]
 801212c:	4770      	bx	lr
 801212e:	bf00      	nop
 8012130:	40000800 	.word	0x40000800
 8012134:	20002180 	.word	0x20002180
	...

08012140 <encoder_tim_isr>:
 8012140:	b530      	push	{r4, r5, lr}
 8012142:	4c0f      	ldr	r4, [pc, #60]	; (8012180 <encoder_tim_isr+0x40>)
 8012144:	b083      	sub	sp, #12
 8012146:	f44f 6500 	mov.w	r5, #2048	; 0x800
 801214a:	8365      	strh	r5, [r4, #26]
 801214c:	f10d 0006 	add.w	r0, sp, #6
 8012150:	f7ff ffbe 	bl	80120d0 <spi_transfer.isra.0.constprop.1>
 8012154:	8325      	strh	r5, [r4, #24]
 8012156:	f8bd 3006 	ldrh.w	r3, [sp, #6]
 801215a:	eddf 6a0a 	vldr	s13, [pc, #40]	; 8012184 <encoder_tim_isr+0x44>
 801215e:	ed9f 7a0a 	vldr	s14, [pc, #40]	; 8012188 <encoder_tim_isr+0x48>
 8012162:	4a0a      	ldr	r2, [pc, #40]	; (801218c <encoder_tim_isr+0x4c>)
 8012164:	f3c3 030d 	ubfx	r3, r3, #0, #14
 8012168:	ee07 3a90 	vmov	s15, r3
 801216c:	eef8 7a67 	vcvt.f32.u32	s15, s15
 8012170:	ee67 7aa6 	vmul.f32	s15, s15, s13
 8012174:	ee67 7a87 	vmul.f32	s15, s15, s14
 8012178:	edc2 7a00 	vstr	s15, [r2]
 801217c:	b003      	add	sp, #12
 801217e:	bd30      	pop	{r4, r5, pc}
 8012180:	40020800 	.word	0x40020800
 8012184:	43b40000 	.word	0x43b40000
 8012188:	38800000 	.word	0x38800000
 801218c:	20002184 	.word	0x20002184

08012190 <mavlink_msg_send>:



void mavlink_msg_send(uint8_t ch, mavlink_message_t *p_msg)

{
 8012190:	b5f0      	push	{r4, r5, r6, r7, lr}
/**
 * @brief Pack a message to send it over a serial byte stream
 */
MAVLINK_HELPER uint16_t mavlink_msg_to_send_buffer(uint8_t *buffer, const mavlink_message_t *msg)
{
	memcpy(buffer, (const uint8_t *)&msg->magic, MAVLINK_NUM_HEADER_BYTES + (uint16_t)msg->len);
 8012192:	78ce      	ldrb	r6, [r1, #3]
 8012194:	f2ad 4d04 	subw	sp, sp, #1028	; 0x404
 8012198:	1db4      	adds	r4, r6, #6
 801219a:	460d      	mov	r5, r1
 801219c:	4622      	mov	r2, r4
 801219e:	4607      	mov	r7, r0
 80121a0:	3102      	adds	r1, #2
 80121a2:	4668      	mov	r0, sp
 80121a4:	f7fa fca4 	bl	800caf0 <memcpy>

	uint8_t *ck = buffer + (MAVLINK_NUM_HEADER_BYTES + (uint16_t)msg->len);

	ck[0] = (uint8_t)(msg->checksum & 0xFF);
 80121a8:	882b      	ldrh	r3, [r5, #0]
 80121aa:	f80d 3004 	strb.w	r3, [sp, r4]
	uint8_t *ck = buffer + (MAVLINK_NUM_HEADER_BYTES + (uint16_t)msg->len);
 80121ae:	446c      	add	r4, sp
	ck[1] = (uint8_t)(msg->checksum >> 8);
 80121b0:	0a1b      	lsrs	r3, r3, #8
 80121b2:	7063      	strb	r3, [r4, #1]
	uint8_t buf[1024];	  

	int len = mavlink_msg_to_send_buffer(buf, p_msg);
	
	switch(ch)
 80121b4:	b927      	cbnz	r7, 80121c0 <mavlink_msg_send+0x30>
	{
	  case 0:		usb_serial_send(buf,len);		break;
 80121b6:	f106 0108 	add.w	r1, r6, #8
 80121ba:	4668      	mov	r0, sp
 80121bc:	f000 fe20 	bl	8012e00 <usb_serial_send>
	  case 1:		break;
	}
	
	return;
}
 80121c0:	f20d 4d04 	addw	sp, sp, #1028	; 0x404
 80121c4:	bdf0      	pop	{r4, r5, r6, r7, pc}
 80121c6:	bf00      	nop
	...

080121d0 <resp_ack>:
{
 80121d0:	b5f0      	push	{r4, r5, r6, r7, lr}
static inline void mav_array_memcpy(void *dest, const void *src, size_t n)
{
	if (src == NULL) {
		memset(dest, 0, n);
	} else {
		memcpy(dest, src, n);
 80121d2:	460b      	mov	r3, r1
 80121d4:	4604      	mov	r4, r0
 80121d6:	f853 0f04 	ldr.w	r0, [r3, #4]!
  mavlink_msg_ack_pack_chan(0, 0, ch, &mav_msg, p_ack->msg_id, p_ack->err_code, p_ack->length, p_ack->data);
 80121da:	780f      	ldrb	r7, [r1, #0]
 80121dc:	689a      	ldr	r2, [r3, #8]
{
 80121de:	b0cb      	sub	sp, #300	; 0x12c
 80121e0:	460e      	mov	r6, r1
 80121e2:	6859      	ldr	r1, [r3, #4]
 80121e4:	68db      	ldr	r3, [r3, #12]
  mavlink_msg_ack_pack_chan(0, 0, ch, &mav_msg, p_ack->msg_id, p_ack->err_code, p_ack->length, p_ack->data);
 80121e6:	f896 c001 	ldrb.w	ip, [r6, #1]
 80121ea:	ad02      	add	r5, sp, #8
 80121ec:	c50f      	stmia	r5!, {r0, r1, r2, r3}
 80121ee:	ea47 270c 	orr.w	r7, r7, ip, lsl #8
 80121f2:	78b2      	ldrb	r2, [r6, #2]
 80121f4:	78f3      	ldrb	r3, [r6, #3]
    _mav_put_uint8_t(buf, 3, length);
    _mav_put_uint8_t_array(buf, 4, data, 16);
        memcpy(_MAV_PAYLOAD_NON_CONST(msg), buf, MAVLINK_MSG_ID_ACK_LEN);
#else
    mavlink_ack_t packet;
    packet.err_code = err_code;
 80121f6:	f8ad 7004 	strh.w	r7, [sp, #4]
    packet.msg_id = msg_id;
 80121fa:	f88d 2006 	strb.w	r2, [sp, #6]
    packet.length = length;
 80121fe:	f88d 3007 	strb.w	r3, [sp, #7]
    mav_array_memcpy(packet.data, data, sizeof(uint8_t)*16);
        memcpy(_MAV_PAYLOAD_NON_CONST(msg), &packet, MAVLINK_MSG_ID_ACK_LEN);
 8012202:	ae01      	add	r6, sp, #4
 8012204:	ce0f      	ldmia	r6!, {r0, r1, r2, r3}
 8012206:	ad08      	add	r5, sp, #32
 8012208:	f8d6 c000 	ldr.w	ip, [r6]
	msg->seq = mavlink_get_channel_status(chan)->current_tx_seq;
 801220c:	4f30      	ldr	r7, [pc, #192]	; (80122d0 <resp_ack+0x100>)
 801220e:	462e      	mov	r6, r5
 8012210:	c60f      	stmia	r6!, {r0, r1, r2, r3}
 8012212:	eb04 0344 	add.w	r3, r4, r4, lsl #1
 8012216:	eb07 0383 	add.w	r3, r7, r3, lsl #2
	msg->sysid = system_id;
 801221a:	2200      	movs	r2, #0
	msg->seq = mavlink_get_channel_status(chan)->current_tx_seq;
 801221c:	7999      	ldrb	r1, [r3, #6]
 801221e:	f8c6 c000 	str.w	ip, [r6]
	mavlink_get_channel_status(chan)->current_tx_seq = mavlink_get_channel_status(chan)->current_tx_seq+1;
 8012222:	1c4f      	adds	r7, r1, #1
	msg->magic = MAVLINK_STX;
 8012224:	f241 40fe 	movw	r0, #5374	; 0x14fe
#endif

    msg->msgid = MAVLINK_MSG_ID_ACK;
 8012228:	2696      	movs	r6, #150	; 0x96
	msg->seq = mavlink_get_channel_status(chan)->current_tx_seq;
 801222a:	f88d 101c 	strb.w	r1, [sp, #28]
	msg->magic = MAVLINK_STX;
 801222e:	f8ad 001a 	strh.w	r0, [sp, #26]
	msg->sysid = system_id;
 8012232:	f88d 201d 	strb.w	r2, [sp, #29]
	mavlink_get_channel_status(chan)->current_tx_seq = mavlink_get_channel_status(chan)->current_tx_seq+1;
 8012236:	719f      	strb	r7, [r3, #6]
 8012238:	f88d 601f 	strb.w	r6, [sp, #31]
 801223c:	a807      	add	r0, sp, #28
	msg->compid = component_id;
 801223e:	f88d 201e 	strb.w	r2, [sp, #30]
 *
 * @param crcAccum the 16 bit X.25 CRC
 */
static inline void crc_init(uint16_t* crcAccum)
{
        *crcAccum = X25_INIT_CRC;
 8012242:	f64f 71ff 	movw	r1, #65535	; 0xffff
	mavlink_get_channel_status(chan)->current_tx_seq = mavlink_get_channel_status(chan)->current_tx_seq+1;
 8012246:	2214      	movs	r2, #20
 8012248:	e001      	b.n	801224e <resp_ack+0x7e>
 801224a:	f810 2b01 	ldrb.w	r2, [r0], #1
        tmp = data ^ (uint8_t)(*crcAccum &0xff);
 801224e:	404a      	eors	r2, r1
        tmp ^= (tmp<<4);
 8012250:	ea82 1202 	eor.w	r2, r2, r2, lsl #4
 8012254:	b2d2      	uxtb	r2, r2
        *crcAccum = (*crcAccum>>8) ^ (tmp<<8) ^ (tmp <<3) ^ (tmp>>4);
 8012256:	0913      	lsrs	r3, r2, #4
 8012258:	ea83 2311 	eor.w	r3, r3, r1, lsr #8
 801225c:	ea43 2302 	orr.w	r3, r3, r2, lsl #8
 **/
static inline uint16_t crc_calculate(const uint8_t* pBuffer, uint16_t length)
{
        uint16_t crcTmp;
        crc_init(&crcTmp);
	while (length--) {
 8012260:	4285      	cmp	r5, r0
        *crcAccum = (*crcAccum>>8) ^ (tmp<<8) ^ (tmp <<3) ^ (tmp>>4);
 8012262:	ea83 01c2 	eor.w	r1, r3, r2, lsl #3
	while (length--) {
 8012266:	d1f0      	bne.n	801224a <resp_ack+0x7a>
 * @param data new bytes to hash
 * @param crcAccum the already accumulated checksum
 **/
static inline void crc_accumulate_buffer(uint16_t *crcAccum, const char *pBuffer, uint16_t length)
{
	const uint8_t *p = (const uint8_t *)pBuffer;
 8012268:	4628      	mov	r0, r5
	msg->checksum = crc_calculate(((const uint8_t*)(msg)) + 3, MAVLINK_CORE_HEADER_LEN);
 801226a:	f8ad 1018 	strh.w	r1, [sp, #24]
 801226e:	ad0d      	add	r5, sp, #52	; 0x34
        tmp = data ^ (uint8_t)(*crcAccum &0xff);
 8012270:	f810 2b01 	ldrb.w	r2, [r0], #1
 8012274:	ea82 0301 	eor.w	r3, r2, r1
        tmp ^= (tmp<<4);
 8012278:	ea83 1203 	eor.w	r2, r3, r3, lsl #4
 801227c:	b2d2      	uxtb	r2, r2
        *crcAccum = (*crcAccum>>8) ^ (tmp<<8) ^ (tmp <<3) ^ (tmp>>4);
 801227e:	0913      	lsrs	r3, r2, #4
 8012280:	ea83 2311 	eor.w	r3, r3, r1, lsr #8
 8012284:	ea83 2302 	eor.w	r3, r3, r2, lsl #8
 8012288:	ea83 03c2 	eor.w	r3, r3, r2, lsl #3
 801228c:	b21b      	sxth	r3, r3
 801228e:	b299      	uxth	r1, r3
	while (length--) {
 8012290:	42a8      	cmp	r0, r5
        *crcAccum = (*crcAccum>>8) ^ (tmp<<8) ^ (tmp <<3) ^ (tmp>>4);
 8012292:	f8ad 1018 	strh.w	r1, [sp, #24]
	while (length--) {
 8012296:	d1eb      	bne.n	8012270 <resp_ack+0xa0>
        tmp = data ^ (uint8_t)(*crcAccum &0xff);
 8012298:	f083 02c0 	eor.w	r2, r3, #192	; 0xc0
        tmp ^= (tmp<<4);
 801229c:	ea82 1202 	eor.w	r2, r2, r2, lsl #4
 80122a0:	b2d2      	uxtb	r2, r2
        *crcAccum = (*crcAccum>>8) ^ (tmp<<8) ^ (tmp <<3) ^ (tmp>>4);
 80122a2:	0a0b      	lsrs	r3, r1, #8
 80122a4:	ea83 1312 	eor.w	r3, r3, r2, lsr #4
 80122a8:	ea83 2302 	eor.w	r3, r3, r2, lsl #8
 80122ac:	ea83 02c2 	eor.w	r2, r3, r2, lsl #3
 80122b0:	b212      	sxth	r2, r2
 80122b2:	b293      	uxth	r3, r2
	mavlink_ck_b(msg) = (uint8_t)(msg->checksum >> 8);
 80122b4:	0a1d      	lsrs	r5, r3, #8
  mavlink_msg_send( ch, &mav_msg);
 80122b6:	4620      	mov	r0, r4
 80122b8:	a906      	add	r1, sp, #24
	mavlink_ck_a(msg) = (uint8_t)(msg->checksum & 0xFF);
 80122ba:	f88d 2034 	strb.w	r2, [sp, #52]	; 0x34
 80122be:	f8ad 3018 	strh.w	r3, [sp, #24]
	mavlink_ck_b(msg) = (uint8_t)(msg->checksum >> 8);
 80122c2:	f88d 5035 	strb.w	r5, [sp, #53]	; 0x35
 80122c6:	f7ff ff63 	bl	8012190 <mavlink_msg_send>
}
 80122ca:	b04b      	add	sp, #300	; 0x12c
 80122cc:	bdf0      	pop	{r4, r5, r6, r7, pc}
 80122ce:	bf00      	nop
 80122d0:	200025d4 	.word	0x200025d4
	...

080122e0 <cmd_send_error>:
{
 80122e0:	b500      	push	{lr}
 80122e2:	b087      	sub	sp, #28
  mav_ack.err_code = err_code;
 80122e4:	ab06      	add	r3, sp, #24
  mav_ack.msg_id   = p_msg->p_msg->msgid;
 80122e6:	6842      	ldr	r2, [r0, #4]
  mav_ack.err_code = err_code;
 80122e8:	f823 1d14 	strh.w	r1, [r3, #-20]!
  mav_ack.msg_id   = p_msg->p_msg->msgid;
 80122ec:	79d2      	ldrb	r2, [r2, #7]
  resp_ack(p_msg->ch, &mav_ack);
 80122ee:	7800      	ldrb	r0, [r0, #0]
  mav_ack.msg_id   = p_msg->p_msg->msgid;
 80122f0:	f88d 2006 	strb.w	r2, [sp, #6]
  resp_ack(p_msg->ch, &mav_ack);
 80122f4:	4619      	mov	r1, r3
 80122f6:	f7ff ff6b 	bl	80121d0 <resp_ack>
}
 80122fa:	b007      	add	sp, #28
 80122fc:	f85d fb04 	ldr.w	pc, [sp], #4

08012300 <cmd_read_version>:
{
 8012300:	b5f0      	push	{r4, r5, r6, r7, lr}
  mavlink_msg_read_version_decode(p_msg->p_msg, &mav_data);
 8012302:	6845      	ldr	r5, [r0, #4]
{
#if MAVLINK_NEED_BYTE_SWAP || !MAVLINK_ALIGNED_FIELDS
    read_version->resp = mavlink_msg_read_version_get_resp(msg);
    mavlink_msg_read_version_get_param(msg, read_version->param);
#else
        uint8_t len = msg->len < MAVLINK_MSG_ID_READ_VERSION_LEN? msg->len : MAVLINK_MSG_ID_READ_VERSION_LEN;
 8012304:	78ea      	ldrb	r2, [r5, #3]
{
 8012306:	b089      	sub	sp, #36	; 0x24
        memset(read_version, 0, MAVLINK_MSG_ID_READ_VERSION_LEN);
    memcpy(read_version, _MAV_PAYLOAD(msg), len);
 8012308:	2a09      	cmp	r2, #9
 801230a:	bf28      	it	cs
 801230c:	2209      	movcs	r2, #9
        memset(read_version, 0, MAVLINK_MSG_ID_READ_VERSION_LEN);
 801230e:	2400      	movs	r4, #0
 8012310:	4606      	mov	r6, r0
    memcpy(read_version, _MAV_PAYLOAD(msg), len);
 8012312:	f105 0108 	add.w	r1, r5, #8
 8012316:	4668      	mov	r0, sp
        memset(read_version, 0, MAVLINK_MSG_ID_READ_VERSION_LEN);
 8012318:	e9cd 4400 	strd	r4, r4, [sp]
 801231c:	f88d 4008 	strb.w	r4, [sp, #8]
    memcpy(read_version, _MAV_PAYLOAD(msg), len);
 8012320:	f7fa fbe6 	bl	800caf0 <memcpy>
  if( mav_data.resp == 1 )
 8012324:	f89d 3000 	ldrb.w	r3, [sp]
 8012328:	2b01      	cmp	r3, #1
 801232a:	d001      	beq.n	8012330 <cmd_read_version+0x30>
}
 801232c:	b009      	add	sp, #36	; 0x24
 801232e:	bdf0      	pop	{r4, r5, r6, r7, pc}
    mav_ack.data[0] = boot_version;
 8012330:	4a13      	ldr	r2, [pc, #76]	; (8012380 <cmd_read_version+0x80>)
    mav_ack.data[4] = boot_revision;
 8012332:	4b14      	ldr	r3, [pc, #80]	; (8012384 <cmd_read_version+0x84>)
    mav_ack.data[0] = boot_version;
 8012334:	6812      	ldr	r2, [r2, #0]
    mav_ack.msg_id   = p_msg->p_msg->msgid;
 8012336:	79e9      	ldrb	r1, [r5, #7]
    mav_ack.data[4] = boot_revision;
 8012338:	681b      	ldr	r3, [r3, #0]
    mav_ack.msg_id   = p_msg->p_msg->msgid;
 801233a:	f88d 100e 	strb.w	r1, [sp, #14]
    mav_ack.data[1] = boot_version>>8;
 801233e:	0a15      	lsrs	r5, r2, #8
    mav_ack.data[3] = boot_version>>24;
 8012340:	0e11      	lsrs	r1, r2, #24
    resp_ack(p_msg->ch, &mav_ack);
 8012342:	7830      	ldrb	r0, [r6, #0]
    mav_ack.err_code = err_code;
 8012344:	f8ad 400c 	strh.w	r4, [sp, #12]
    mav_ack.data[2] = boot_version>>16;
 8012348:	0c17      	lsrs	r7, r2, #16
    mav_ack.data[0] = boot_version;
 801234a:	f88d 2010 	strb.w	r2, [sp, #16]
    mav_ack.data[5] = boot_revision>>8;
 801234e:	0a1e      	lsrs	r6, r3, #8
    mav_ack.data[1] = boot_version>>8;
 8012350:	f88d 5011 	strb.w	r5, [sp, #17]
    mav_ack.data[7] = boot_revision>>24;
 8012354:	0e1c      	lsrs	r4, r3, #24
    mav_ack.data[6] = boot_revision>>16;
 8012356:	0c1d      	lsrs	r5, r3, #16
    mav_ack.data[3] = boot_version>>24;
 8012358:	f88d 1013 	strb.w	r1, [sp, #19]
    mav_ack.length  = 8;
 801235c:	2208      	movs	r2, #8
    resp_ack(p_msg->ch, &mav_ack);
 801235e:	a903      	add	r1, sp, #12
    mav_ack.data[2] = boot_version>>16;
 8012360:	f88d 7012 	strb.w	r7, [sp, #18]
    mav_ack.data[4] = boot_revision;
 8012364:	f88d 3014 	strb.w	r3, [sp, #20]
    mav_ack.data[5] = boot_revision>>8;
 8012368:	f88d 6015 	strb.w	r6, [sp, #21]
    mav_ack.data[6] = boot_revision>>16;
 801236c:	f88d 5016 	strb.w	r5, [sp, #22]
    mav_ack.data[7] = boot_revision>>24;
 8012370:	f88d 4017 	strb.w	r4, [sp, #23]
    mav_ack.length  = 8;
 8012374:	f88d 200f 	strb.w	r2, [sp, #15]
    resp_ack(p_msg->ch, &mav_ack);
 8012378:	f7ff ff2a 	bl	80121d0 <resp_ack>
}
 801237c:	b009      	add	sp, #36	; 0x24
 801237e:	bdf0      	pop	{r4, r5, r6, r7, pc}
 8012380:	20000810 	.word	0x20000810
 8012384:	20002188 	.word	0x20002188
	...

08012390 <cmd_read_board_name>:
{
 8012390:	b570      	push	{r4, r5, r6, lr}
  mavlink_msg_read_board_name_decode(p_msg->p_msg, &mav_data);
 8012392:	6845      	ldr	r5, [r0, #4]
{
#if MAVLINK_NEED_BYTE_SWAP || !MAVLINK_ALIGNED_FIELDS
    read_board_name->resp = mavlink_msg_read_board_name_get_resp(msg);
    mavlink_msg_read_board_name_get_param(msg, read_board_name->param);
#else
        uint8_t len = msg->len < MAVLINK_MSG_ID_READ_BOARD_NAME_LEN? msg->len : MAVLINK_MSG_ID_READ_BOARD_NAME_LEN;
 8012394:	78ea      	ldrb	r2, [r5, #3]
{
 8012396:	b088      	sub	sp, #32
        memset(read_board_name, 0, MAVLINK_MSG_ID_READ_BOARD_NAME_LEN);
    memcpy(read_board_name, _MAV_PAYLOAD(msg), len);
 8012398:	2a09      	cmp	r2, #9
 801239a:	bf28      	it	cs
 801239c:	2209      	movcs	r2, #9
        memset(read_board_name, 0, MAVLINK_MSG_ID_READ_BOARD_NAME_LEN);
 801239e:	2400      	movs	r4, #0
 80123a0:	4606      	mov	r6, r0
    memcpy(read_board_name, _MAV_PAYLOAD(msg), len);
 80123a2:	f105 0108 	add.w	r1, r5, #8
 80123a6:	4668      	mov	r0, sp
        memset(read_board_name, 0, MAVLINK_MSG_ID_READ_BOARD_NAME_LEN);
 80123a8:	e9cd 4400 	strd	r4, r4, [sp]
 80123ac:	f88d 4008 	strb.w	r4, [sp, #8]
    memcpy(read_board_name, _MAV_PAYLOAD(msg), len);
 80123b0:	f7fa fb9e 	bl	800caf0 <memcpy>
  if( mav_data.resp == 1 )
 80123b4:	f89d 3000 	ldrb.w	r3, [sp]
 80123b8:	2b01      	cmp	r3, #1
 80123ba:	d001      	beq.n	80123c0 <cmd_read_board_name+0x30>
}
 80123bc:	b008      	add	sp, #32
 80123be:	bd70      	pop	{r4, r5, r6, pc}
    for( i=0; i<strlen(board_name); i++ )
 80123c0:	4b0f      	ldr	r3, [pc, #60]	; (8012400 <cmd_read_board_name+0x70>)
    mav_ack.msg_id   = p_msg->p_msg->msgid;
 80123c2:	79ea      	ldrb	r2, [r5, #7]
 80123c4:	f88d 200e 	strb.w	r2, [sp, #14]
    mav_ack.err_code = err_code;
 80123c8:	f8ad 400c 	strh.w	r4, [sp, #12]
    for( i=0; i<strlen(board_name); i++ )
 80123cc:	681d      	ldr	r5, [r3, #0]
 80123ce:	e002      	b.n	80123d6 <cmd_read_board_name+0x46>
      mav_ack.data[i] = board_name[i];
 80123d0:	5ceb      	ldrb	r3, [r5, r3]
 80123d2:	f802 3c10 	strb.w	r3, [r2, #-16]
    for( i=0; i<strlen(board_name); i++ )
 80123d6:	4628      	mov	r0, r5
 80123d8:	f7fa fc2a 	bl	800cc30 <strlen>
 80123dc:	b2e3      	uxtb	r3, r4
      mav_ack.data[i] = board_name[i];
 80123de:	aa08      	add	r2, sp, #32
    for( i=0; i<strlen(board_name); i++ )
 80123e0:	4298      	cmp	r0, r3
 80123e2:	f104 0401 	add.w	r4, r4, #1
      mav_ack.data[i] = board_name[i];
 80123e6:	441a      	add	r2, r3
    for( i=0; i<strlen(board_name); i++ )
 80123e8:	d8f2      	bhi.n	80123d0 <cmd_read_board_name+0x40>
    mav_ack.length  = i;
 80123ea:	f88d 300f 	strb.w	r3, [sp, #15]
    resp_ack(p_msg->ch, &mav_ack);
 80123ee:	7830      	ldrb	r0, [r6, #0]
    mav_ack.data[i] = 0;
 80123f0:	2300      	movs	r3, #0
    resp_ack(p_msg->ch, &mav_ack);
 80123f2:	a903      	add	r1, sp, #12
    mav_ack.data[i] = 0;
 80123f4:	f802 3c10 	strb.w	r3, [r2, #-16]
    resp_ack(p_msg->ch, &mav_ack);
 80123f8:	f7ff feea 	bl	80121d0 <resp_ack>
}
 80123fc:	b008      	add	sp, #32
 80123fe:	bd70      	pop	{r4, r5, r6, pc}
 8012400:	2000080c 	.word	0x2000080c
	...

08012410 <cmd_read_tag>:
{
 8012410:	b570      	push	{r4, r5, r6, lr}
  mavlink_msg_read_tag_decode(p_msg->p_msg, &mav_data);
 8012412:	6845      	ldr	r5, [r0, #4]
#if MAVLINK_NEED_BYTE_SWAP || !MAVLINK_ALIGNED_FIELDS
    read_tag->resp = mavlink_msg_read_tag_get_resp(msg);
    read_tag->type = mavlink_msg_read_tag_get_type(msg);
    mavlink_msg_read_tag_get_param(msg, read_tag->param);
#else
        uint8_t len = msg->len < MAVLINK_MSG_ID_READ_TAG_LEN? msg->len : MAVLINK_MSG_ID_READ_TAG_LEN;
 8012414:	78ea      	ldrb	r2, [r5, #3]
{
 8012416:	b088      	sub	sp, #32
        memset(read_tag, 0, MAVLINK_MSG_ID_READ_TAG_LEN);
    memcpy(read_tag, _MAV_PAYLOAD(msg), len);
 8012418:	2a0a      	cmp	r2, #10
 801241a:	bf28      	it	cs
 801241c:	220a      	movcs	r2, #10
        memset(read_tag, 0, MAVLINK_MSG_ID_READ_TAG_LEN);
 801241e:	2400      	movs	r4, #0
 8012420:	4606      	mov	r6, r0
    memcpy(read_tag, _MAV_PAYLOAD(msg), len);
 8012422:	f105 0108 	add.w	r1, r5, #8
 8012426:	4668      	mov	r0, sp
        memset(read_tag, 0, MAVLINK_MSG_ID_READ_TAG_LEN);
 8012428:	e9cd 4400 	strd	r4, r4, [sp]
 801242c:	f8ad 4008 	strh.w	r4, [sp, #8]
    memcpy(read_tag, _MAV_PAYLOAD(msg), len);
 8012430:	f7fa fb5e 	bl	800caf0 <memcpy>
  if( mav_data.resp == 1 )
 8012434:	f89d 3000 	ldrb.w	r3, [sp]
 8012438:	2b01      	cmp	r3, #1
 801243a:	d001      	beq.n	8012440 <cmd_read_tag+0x30>
}
 801243c:	b008      	add	sp, #32
 801243e:	bd70      	pop	{r4, r5, r6, pc}
    mav_ack.msg_id   = p_msg->p_msg->msgid;
 8012440:	79eb      	ldrb	r3, [r5, #7]
    resp_ack(p_msg->ch, &mav_ack);
 8012442:	7830      	ldrb	r0, [r6, #0]
    mav_ack.msg_id   = p_msg->p_msg->msgid;
 8012444:	f88d 300e 	strb.w	r3, [sp, #14]
    resp_ack(p_msg->ch, &mav_ack);
 8012448:	a903      	add	r1, sp, #12
    mav_ack.err_code = err_code;
 801244a:	f8ad 400c 	strh.w	r4, [sp, #12]
    mav_ack.length  = 0;
 801244e:	f88d 400f 	strb.w	r4, [sp, #15]
    resp_ack(p_msg->ch, &mav_ack);
 8012452:	f7ff febd 	bl	80121d0 <resp_ack>
}
 8012456:	b008      	add	sp, #32
 8012458:	bd70      	pop	{r4, r5, r6, pc}
 801245a:	bf00      	nop
 801245c:	0000      	movs	r0, r0
	...

08012460 <cmd_set_mcconf>:
{
 8012460:	b570      	push	{r4, r5, r6, lr}
  mavlink_msg_read_version_decode(p_msg->p_msg, &mav_data);
 8012462:	6845      	ldr	r5, [r0, #4]
        uint8_t len = msg->len < MAVLINK_MSG_ID_READ_VERSION_LEN? msg->len : MAVLINK_MSG_ID_READ_VERSION_LEN;
 8012464:	78ea      	ldrb	r2, [r5, #3]
{
 8012466:	b088      	sub	sp, #32
    memcpy(read_version, _MAV_PAYLOAD(msg), len);
 8012468:	2a09      	cmp	r2, #9
 801246a:	bf28      	it	cs
 801246c:	2209      	movcs	r2, #9
        memset(read_version, 0, MAVLINK_MSG_ID_READ_VERSION_LEN);
 801246e:	2400      	movs	r4, #0
 8012470:	4606      	mov	r6, r0
    memcpy(read_version, _MAV_PAYLOAD(msg), len);
 8012472:	f105 0108 	add.w	r1, r5, #8
 8012476:	4668      	mov	r0, sp
        memset(read_version, 0, MAVLINK_MSG_ID_READ_VERSION_LEN);
 8012478:	e9cd 4400 	strd	r4, r4, [sp]
 801247c:	f88d 4008 	strb.w	r4, [sp, #8]
    memcpy(read_version, _MAV_PAYLOAD(msg), len);
 8012480:	f7fa fb36 	bl	800caf0 <memcpy>
  if( mav_data.resp == 1 )
 8012484:	f89d 3000 	ldrb.w	r3, [sp]
 8012488:	2b01      	cmp	r3, #1
 801248a:	d001      	beq.n	8012490 <cmd_set_mcconf+0x30>
}
 801248c:	b008      	add	sp, #32
 801248e:	bd70      	pop	{r4, r5, r6, pc}
    mav_ack.msg_id   = p_msg->p_msg->msgid;
 8012490:	79eb      	ldrb	r3, [r5, #7]
    resp_ack(p_msg->ch, &mav_ack);
 8012492:	7830      	ldrb	r0, [r6, #0]
    mav_ack.msg_id   = p_msg->p_msg->msgid;
 8012494:	f88d 300e 	strb.w	r3, [sp, #14]
    resp_ack(p_msg->ch, &mav_ack);
 8012498:	a903      	add	r1, sp, #12
    mav_ack.err_code = err_code;
 801249a:	f8ad 400c 	strh.w	r4, [sp, #12]
    mav_ack.length  = 0;
 801249e:	f88d 400f 	strb.w	r4, [sp, #15]
    resp_ack(p_msg->ch, &mav_ack);
 80124a2:	f7ff fe95 	bl	80121d0 <resp_ack>
}
 80124a6:	b008      	add	sp, #32
 80124a8:	bd70      	pop	{r4, r5, r6, pc}
 80124aa:	bf00      	nop
 80124ac:	0000      	movs	r0, r0
	...

080124b0 <cmd_set_appconf>:
{
 80124b0:	b570      	push	{r4, r5, r6, lr}
  mavlink_msg_read_version_decode(p_msg->p_msg, &mav_data);
 80124b2:	6845      	ldr	r5, [r0, #4]
        uint8_t len = msg->len < MAVLINK_MSG_ID_READ_VERSION_LEN? msg->len : MAVLINK_MSG_ID_READ_VERSION_LEN;
 80124b4:	78ea      	ldrb	r2, [r5, #3]
{
 80124b6:	b088      	sub	sp, #32
    memcpy(read_version, _MAV_PAYLOAD(msg), len);
 80124b8:	2a09      	cmp	r2, #9
 80124ba:	bf28      	it	cs
 80124bc:	2209      	movcs	r2, #9
        memset(read_version, 0, MAVLINK_MSG_ID_READ_VERSION_LEN);
 80124be:	2400      	movs	r4, #0
 80124c0:	4606      	mov	r6, r0
    memcpy(read_version, _MAV_PAYLOAD(msg), len);
 80124c2:	f105 0108 	add.w	r1, r5, #8
 80124c6:	4668      	mov	r0, sp
        memset(read_version, 0, MAVLINK_MSG_ID_READ_VERSION_LEN);
 80124c8:	e9cd 4400 	strd	r4, r4, [sp]
 80124cc:	f88d 4008 	strb.w	r4, [sp, #8]
    memcpy(read_version, _MAV_PAYLOAD(msg), len);
 80124d0:	f7fa fb0e 	bl	800caf0 <memcpy>
  if( mav_data.resp == 1 )
 80124d4:	f89d 3000 	ldrb.w	r3, [sp]
 80124d8:	2b01      	cmp	r3, #1
 80124da:	d001      	beq.n	80124e0 <cmd_set_appconf+0x30>
}
 80124dc:	b008      	add	sp, #32
 80124de:	bd70      	pop	{r4, r5, r6, pc}
    mav_ack.msg_id   = p_msg->p_msg->msgid;
 80124e0:	79eb      	ldrb	r3, [r5, #7]
    resp_ack(p_msg->ch, &mav_ack);
 80124e2:	7830      	ldrb	r0, [r6, #0]
    mav_ack.msg_id   = p_msg->p_msg->msgid;
 80124e4:	f88d 300e 	strb.w	r3, [sp, #14]
    resp_ack(p_msg->ch, &mav_ack);
 80124e8:	a903      	add	r1, sp, #12
    mav_ack.err_code = err_code;
 80124ea:	f8ad 400c 	strh.w	r4, [sp, #12]
    mav_ack.length  = 0;
 80124ee:	f88d 400f 	strb.w	r4, [sp, #15]
    resp_ack(p_msg->ch, &mav_ack);
 80124f2:	f7ff fe6d 	bl	80121d0 <resp_ack>
}
 80124f6:	b008      	add	sp, #32
 80124f8:	bd70      	pop	{r4, r5, r6, pc}
 80124fa:	bf00      	nop
 80124fc:	0000      	movs	r0, r0
	...

08012500 <mavlink_msg_recv>:


bool mavlink_msg_recv( uint8_t ch, uint8_t data , msg_handle_t *p_msg )
{
 8012500:	e92d 4ff8 	stmdb	sp!, {r3, r4, r5, r6, r7, r8, r9, sl, fp, lr}
 8012504:	4692      	mov	sl, r2
 8012506:	4606      	mov	r6, r0
	bool ret = FALSE;
	static mavlink_message_t msg[MSG_CH_MAX];
	mavlink_status_t status[MSG_CH_MAX];

	p_msg->ch = ch;
 8012508:	7010      	strb	r0, [r2, #0]
{
 801250a:	460d      	mov	r5, r1
#endif
#endif

	int bufferIndex = 0;

	status->msg_received = MAVLINK_FRAMING_INCOMPLETE;
 801250c:	4cbd      	ldr	r4, [pc, #756]	; (8012804 <mavlink_msg_recv+0x304>)

	if(ch == 0)
 801250e:	b988      	cbnz	r0, 8012534 <mavlink_msg_recv+0x34>

	switch (status->parse_state)
 8012510:	78e3      	ldrb	r3, [r4, #3]
	status->msg_received = MAVLINK_FRAMING_INCOMPLETE;
 8012512:	7020      	strb	r0, [r4, #0]
	switch (status->parse_state)
 8012514:	2b0a      	cmp	r3, #10
 8012516:	f200 81da 	bhi.w	80128ce <mavlink_msg_recv+0x3ce>
 801251a:	e8df f013 	tbh	[pc, r3, lsl #1]
 801251e:	0044      	.short	0x0044
 8012520:	004a0044 	.word	0x004a0044
 8012524:	00780065 	.word	0x00780065
 8012528:	009e008b 	.word	0x009e008b
 801252c:	00ce00b5 	.word	0x00ce00b5
 8012530:	00ef00ef 	.word	0x00ef00ef
			ret = TRUE;
		}
	}
	else
	{
		if (mavlink_parse_char(MAVLINK_COMM_1, data, &msg[ch], &status[ch]) == MAVLINK_FRAMING_OK)
 8012534:	f8df 82d8 	ldr.w	r8, [pc, #728]	; 8012810 <mavlink_msg_recv+0x310>
 8012538:	7be2      	ldrb	r2, [r4, #15]
 801253a:	0107      	lsls	r7, r0, #4
 801253c:	183b      	adds	r3, r7, r0
	status->msg_received = MAVLINK_FRAMING_INCOMPLETE;
 801253e:	2100      	movs	r1, #0
 8012540:	eb08 1303 	add.w	r3, r8, r3, lsl #4
 8012544:	7321      	strb	r1, [r4, #12]
	switch (status->parse_state)
 8012546:	2a0a      	cmp	r2, #10
 8012548:	f200 81e7 	bhi.w	801291a <mavlink_msg_recv+0x41a>
 801254c:	e8df f012 	tbh	[pc, r2, lsl #1]
 8012550:	00ef00ef 	.word	0x00ef00ef
 8012554:	011500f6 	.word	0x011500f6
 8012558:	0143012c 	.word	0x0143012c
 801255c:	017f0164 	.word	0x017f0164
 8012560:	000b019d 	.word	0x000b019d
 8012564:	000b      	.short	0x000b
                _MAV_PAYLOAD_NON_CONST(rxmsg)[status->packet_idx] = (char)c;
		break;

	case MAVLINK_PARSE_STATE_GOT_CRC1:
	case MAVLINK_PARSE_STATE_GOT_BAD_CRC1:
		if (status->parse_state == MAVLINK_PARSE_STATE_GOT_BAD_CRC1 || c != (rxmsg->checksum >> 8)) {
 8012566:	2a0a      	cmp	r2, #10
 8012568:	f8df 92a0 	ldr.w	r9, [pc, #672]	; 801280c <mavlink_msg_recv+0x30c>
 801256c:	d005      	beq.n	801257a <mavlink_msg_recv+0x7a>
 801256e:	f8b9 2110 	ldrh.w	r2, [r9, #272]	; 0x110
 8012572:	ebb5 2f12 	cmp.w	r5, r2, lsr #8
 8012576:	f000 820e 	beq.w	8012996 <mavlink_msg_recv+0x496>
		} else {
			// Successfully got message
			status->msg_received = MAVLINK_FRAMING_OK;
                }
                status->parse_state = MAVLINK_PARSE_STATE_IDLE;
                _MAV_PAYLOAD_NON_CONST(rxmsg)[status->packet_idx+1] = (char)c;
 801257a:	f894 b010 	ldrb.w	fp, [r4, #16]
                memcpy(r_message, rxmsg, sizeof(mavlink_message_t));
 801257e:	49a2      	ldr	r1, [pc, #648]	; (8012808 <mavlink_msg_recv+0x308>)
                _MAV_PAYLOAD_NON_CONST(rxmsg)[status->packet_idx+1] = (char)c;
 8012580:	eb09 000b 	add.w	r0, r9, fp
                status->parse_state = MAVLINK_PARSE_STATE_IDLE;
 8012584:	f04f 0c01 	mov.w	ip, #1
                memcpy(r_message, rxmsg, sizeof(mavlink_message_t));
 8012588:	f44f 7288 	mov.w	r2, #272	; 0x110
                _MAV_PAYLOAD_NON_CONST(rxmsg)[status->packet_idx+1] = (char)c;
 801258c:	f880 5119 	strb.w	r5, [r0, #281]	; 0x119
                memcpy(r_message, rxmsg, sizeof(mavlink_message_t));
 8012590:	4618      	mov	r0, r3
			status->msg_received = MAVLINK_FRAMING_BAD_CRC;
 8012592:	f04f 0302 	mov.w	r3, #2
 8012596:	7323      	strb	r3, [r4, #12]
                status->parse_state = MAVLINK_PARSE_STATE_IDLE;
 8012598:	f884 c00f 	strb.w	ip, [r4, #15]
                memcpy(r_message, rxmsg, sizeof(mavlink_message_t));
 801259c:	f7fa faa8 	bl	800caf0 <memcpy>
 80125a0:	2202      	movs	r2, #2
 80125a2:	4603      	mov	r3, r0
 80125a4:	e1be      	b.n	8012924 <mavlink_msg_recv+0x424>
		if (c == MAVLINK_STX)
 80125a6:	29fe      	cmp	r1, #254	; 0xfe
        *crcAccum = X25_INIT_CRC;
 80125a8:	4b98      	ldr	r3, [pc, #608]	; (801280c <mavlink_msg_recv+0x30c>)
 80125aa:	f000 81e7 	beq.w	801297c <mavlink_msg_recv+0x47c>
 80125ae:	78dd      	ldrb	r5, [r3, #3]
 80125b0:	e013      	b.n	80125da <mavlink_msg_recv+0xda>
			rxmsg->len = c;
 80125b2:	4996      	ldr	r1, [pc, #600]	; (801280c <mavlink_msg_recv+0x30c>)
        tmp = data ^ (uint8_t)(*crcAccum &0xff);
 80125b4:	8808      	ldrh	r0, [r1, #0]
 80125b6:	70cd      	strb	r5, [r1, #3]
 80125b8:	ea85 0300 	eor.w	r3, r5, r0
        tmp ^= (tmp<<4);
 80125bc:	ea83 1303 	eor.w	r3, r3, r3, lsl #4
 80125c0:	b2db      	uxtb	r3, r3
        *crcAccum = (*crcAccum>>8) ^ (tmp<<8) ^ (tmp <<3) ^ (tmp>>4);
 80125c2:	091a      	lsrs	r2, r3, #4
 80125c4:	ea82 2210 	eor.w	r2, r2, r0, lsr #8
 80125c8:	ea42 2203 	orr.w	r2, r2, r3, lsl #8
 80125cc:	ea82 03c3 	eor.w	r3, r2, r3, lsl #3
			status->packet_idx = 0;
 80125d0:	2000      	movs	r0, #0
			status->parse_state = MAVLINK_PARSE_STATE_GOT_LENGTH;
 80125d2:	2204      	movs	r2, #4
 80125d4:	800b      	strh	r3, [r1, #0]
			status->packet_idx = 0;
 80125d6:	7120      	strb	r0, [r4, #4]
			status->parse_state = MAVLINK_PARSE_STATE_GOT_LENGTH;
 80125d8:	70e2      	strb	r2, [r4, #3]
		if (status->packet_rx_success_count == 0) status->packet_rx_drop_count = 0;
		// Count this packet as received
		status->packet_rx_success_count++;
	}

	r_message->len = rxmsg->len; // Provide visibility on how far we are into current msg
 80125da:	4a8d      	ldr	r2, [pc, #564]	; (8012810 <mavlink_msg_recv+0x310>)
	r_mavlink_status->parse_state = status->parse_state;
	r_mavlink_status->packet_idx = status->packet_idx;
	r_mavlink_status->current_rx_seq = status->current_rx_seq+1;
	r_mavlink_status->packet_rx_success_count = status->packet_rx_success_count;
	r_mavlink_status->packet_rx_drop_count = status->parse_error;
	status->parse_error = 0;
 80125dc:	2300      	movs	r3, #0
	r_message->len = rxmsg->len; // Provide visibility on how far we are into current msg
 80125de:	70d5      	strb	r5, [r2, #3]
	status->parse_error = 0;
 80125e0:	70a3      	strb	r3, [r4, #2]
	bool ret = FALSE;
 80125e2:	2000      	movs	r0, #0
			ret = TRUE;
		}
	}
	return ret;

}
 80125e4:	e8bd 8ff8 	ldmia.w	sp!, {r3, r4, r5, r6, r7, r8, r9, sl, fp, pc}
		rxmsg->sysid = c;
 80125e8:	4a88      	ldr	r2, [pc, #544]	; (801280c <mavlink_msg_recv+0x30c>)
        tmp = data ^ (uint8_t)(*crcAccum &0xff);
 80125ea:	8811      	ldrh	r1, [r2, #0]
 80125ec:	7155      	strb	r5, [r2, #5]
 80125ee:	404d      	eors	r5, r1
        tmp ^= (tmp<<4);
 80125f0:	ea85 1505 	eor.w	r5, r5, r5, lsl #4
 80125f4:	b2ed      	uxtb	r5, r5
        *crcAccum = (*crcAccum>>8) ^ (tmp<<8) ^ (tmp <<3) ^ (tmp>>4);
 80125f6:	092b      	lsrs	r3, r5, #4
 80125f8:	ea83 2311 	eor.w	r3, r3, r1, lsr #8
 80125fc:	ea43 2305 	orr.w	r3, r3, r5, lsl #8
 8012600:	ea83 05c5 	eor.w	r5, r3, r5, lsl #3
		status->parse_state = MAVLINK_PARSE_STATE_GOT_SYSID;
 8012604:	2305      	movs	r3, #5
 8012606:	8015      	strh	r5, [r2, #0]
 8012608:	70e3      	strb	r3, [r4, #3]
 801260a:	78d5      	ldrb	r5, [r2, #3]
 801260c:	e7e5      	b.n	80125da <mavlink_msg_recv+0xda>
		rxmsg->seq = c;
 801260e:	4a7f      	ldr	r2, [pc, #508]	; (801280c <mavlink_msg_recv+0x30c>)
        tmp = data ^ (uint8_t)(*crcAccum &0xff);
 8012610:	8811      	ldrh	r1, [r2, #0]
 8012612:	7115      	strb	r5, [r2, #4]
 8012614:	404d      	eors	r5, r1
        tmp ^= (tmp<<4);
 8012616:	ea85 1505 	eor.w	r5, r5, r5, lsl #4
 801261a:	b2ed      	uxtb	r5, r5
        *crcAccum = (*crcAccum>>8) ^ (tmp<<8) ^ (tmp <<3) ^ (tmp>>4);
 801261c:	092b      	lsrs	r3, r5, #4
 801261e:	ea83 2311 	eor.w	r3, r3, r1, lsr #8
 8012622:	ea43 2305 	orr.w	r3, r3, r5, lsl #8
 8012626:	ea83 05c5 	eor.w	r5, r3, r5, lsl #3
		status->parse_state = MAVLINK_PARSE_STATE_GOT_SEQ;
 801262a:	2303      	movs	r3, #3
 801262c:	8015      	strh	r5, [r2, #0]
 801262e:	70e3      	strb	r3, [r4, #3]
 8012630:	78d5      	ldrb	r5, [r2, #3]
 8012632:	e7d2      	b.n	80125da <mavlink_msg_recv+0xda>
		rxmsg->compid = c;
 8012634:	4a75      	ldr	r2, [pc, #468]	; (801280c <mavlink_msg_recv+0x30c>)
        tmp = data ^ (uint8_t)(*crcAccum &0xff);
 8012636:	8811      	ldrh	r1, [r2, #0]
 8012638:	7195      	strb	r5, [r2, #6]
 801263a:	404d      	eors	r5, r1
        tmp ^= (tmp<<4);
 801263c:	ea85 1505 	eor.w	r5, r5, r5, lsl #4
 8012640:	b2ed      	uxtb	r5, r5
        *crcAccum = (*crcAccum>>8) ^ (tmp<<8) ^ (tmp <<3) ^ (tmp>>4);
 8012642:	092b      	lsrs	r3, r5, #4
 8012644:	ea83 2311 	eor.w	r3, r3, r1, lsr #8
 8012648:	ea43 2305 	orr.w	r3, r3, r5, lsl #8
 801264c:	ea83 05c5 	eor.w	r5, r3, r5, lsl #3
		status->parse_state = MAVLINK_PARSE_STATE_GOT_COMPID;
 8012650:	2306      	movs	r3, #6
 8012652:	8015      	strh	r5, [r2, #0]
 8012654:	70e3      	strb	r3, [r4, #3]
 8012656:	78d5      	ldrb	r5, [r2, #3]
 8012658:	e7bf      	b.n	80125da <mavlink_msg_recv+0xda>
		rxmsg->msgid = c;
 801265a:	496c      	ldr	r1, [pc, #432]	; (801280c <mavlink_msg_recv+0x30c>)
        tmp = data ^ (uint8_t)(*crcAccum &0xff);
 801265c:	8808      	ldrh	r0, [r1, #0]
 801265e:	71cd      	strb	r5, [r1, #7]
 8012660:	ea85 0300 	eor.w	r3, r5, r0
        tmp ^= (tmp<<4);
 8012664:	ea83 1303 	eor.w	r3, r3, r3, lsl #4
 8012668:	b2db      	uxtb	r3, r3
        *crcAccum = (*crcAccum>>8) ^ (tmp<<8) ^ (tmp <<3) ^ (tmp>>4);
 801266a:	091a      	lsrs	r2, r3, #4
 801266c:	ea82 2210 	eor.w	r2, r2, r0, lsr #8
 8012670:	ea42 2203 	orr.w	r2, r2, r3, lsl #8
		if (rxmsg->len == 0)
 8012674:	78cd      	ldrb	r5, [r1, #3]
 8012676:	ea82 03c3 	eor.w	r3, r2, r3, lsl #3
 801267a:	800b      	strh	r3, [r1, #0]
 801267c:	2d00      	cmp	r5, #0
 801267e:	f040 8177 	bne.w	8012970 <mavlink_msg_recv+0x470>
			status->parse_state = MAVLINK_PARSE_STATE_GOT_PAYLOAD;
 8012682:	2308      	movs	r3, #8
 8012684:	70e3      	strb	r3, [r4, #3]
 8012686:	e7a8      	b.n	80125da <mavlink_msg_recv+0xda>
		_MAV_PAYLOAD_NON_CONST(rxmsg)[status->packet_idx++] = (char)c;
 8012688:	4860      	ldr	r0, [pc, #384]	; (801280c <mavlink_msg_recv+0x30c>)
 801268a:	7922      	ldrb	r2, [r4, #4]
 801268c:	1883      	adds	r3, r0, r2
 801268e:	3201      	adds	r2, #1
 8012690:	7219      	strb	r1, [r3, #8]
        tmp = data ^ (uint8_t)(*crcAccum &0xff);
 8012692:	8806      	ldrh	r6, [r0, #0]
		if (status->packet_idx == rxmsg->len)
 8012694:	78c5      	ldrb	r5, [r0, #3]
 8012696:	ea81 0306 	eor.w	r3, r1, r6
        tmp ^= (tmp<<4);
 801269a:	ea83 1303 	eor.w	r3, r3, r3, lsl #4
 801269e:	b2db      	uxtb	r3, r3
        *crcAccum = (*crcAccum>>8) ^ (tmp<<8) ^ (tmp <<3) ^ (tmp>>4);
 80126a0:	0919      	lsrs	r1, r3, #4
 80126a2:	ea81 2116 	eor.w	r1, r1, r6, lsr #8
		_MAV_PAYLOAD_NON_CONST(rxmsg)[status->packet_idx++] = (char)c;
 80126a6:	b2d2      	uxtb	r2, r2
 80126a8:	ea41 2103 	orr.w	r1, r1, r3, lsl #8
 80126ac:	ea81 03c3 	eor.w	r3, r1, r3, lsl #3
		if (status->packet_idx == rxmsg->len)
 80126b0:	42aa      	cmp	r2, r5
		_MAV_PAYLOAD_NON_CONST(rxmsg)[status->packet_idx++] = (char)c;
 80126b2:	7122      	strb	r2, [r4, #4]
 80126b4:	8003      	strh	r3, [r0, #0]
		if (status->packet_idx == rxmsg->len)
 80126b6:	d190      	bne.n	80125da <mavlink_msg_recv+0xda>
 80126b8:	e7e3      	b.n	8012682 <mavlink_msg_recv+0x182>
        tmp = data ^ (uint8_t)(*crcAccum &0xff);
 80126ba:	f8df 9150 	ldr.w	r9, [pc, #336]	; 801280c <mavlink_msg_recv+0x30c>
		mavlink_update_checksum(rxmsg, MAVLINK_MESSAGE_CRC(rxmsg->msgid));
 80126be:	4a55      	ldr	r2, [pc, #340]	; (8012814 <mavlink_msg_recv+0x314>)
 80126c0:	f899 3007 	ldrb.w	r3, [r9, #7]
 80126c4:	f8b9 1000 	ldrh.w	r1, [r9]
 80126c8:	5cd3      	ldrb	r3, [r2, r3]
 80126ca:	404b      	eors	r3, r1
        tmp ^= (tmp<<4);
 80126cc:	ea83 1303 	eor.w	r3, r3, r3, lsl #4
 80126d0:	b2db      	uxtb	r3, r3
        *crcAccum = (*crcAccum>>8) ^ (tmp<<8) ^ (tmp <<3) ^ (tmp>>4);
 80126d2:	091a      	lsrs	r2, r3, #4
 80126d4:	ea82 2211 	eor.w	r2, r2, r1, lsr #8
 80126d8:	ea42 2203 	orr.w	r2, r2, r3, lsl #8
 80126dc:	ea82 03c3 	eor.w	r3, r2, r3, lsl #3
		if (c != (rxmsg->checksum & 0xFF)) {
 80126e0:	b2da      	uxtb	r2, r3
 80126e2:	4295      	cmp	r5, r2
 80126e4:	f8a9 3000 	strh.w	r3, [r9]
			status->parse_state = MAVLINK_PARSE_STATE_GOT_BAD_CRC1;
 80126e8:	bf14      	ite	ne
 80126ea:	230a      	movne	r3, #10
			status->parse_state = MAVLINK_PARSE_STATE_GOT_CRC1;
 80126ec:	2309      	moveq	r3, #9
 80126ee:	70e3      	strb	r3, [r4, #3]
                _MAV_PAYLOAD_NON_CONST(rxmsg)[status->packet_idx] = (char)c;
 80126f0:	7923      	ldrb	r3, [r4, #4]
 80126f2:	444b      	add	r3, r9
 80126f4:	721d      	strb	r5, [r3, #8]
 80126f6:	f899 5003 	ldrb.w	r5, [r9, #3]
 80126fa:	e76e      	b.n	80125da <mavlink_msg_recv+0xda>
		if (status->parse_state == MAVLINK_PARSE_STATE_GOT_BAD_CRC1 || c != (rxmsg->checksum >> 8)) {
 80126fc:	2b0a      	cmp	r3, #10
 80126fe:	f8df 910c 	ldr.w	r9, [pc, #268]	; 801280c <mavlink_msg_recv+0x30c>
 8012702:	d005      	beq.n	8012710 <mavlink_msg_recv+0x210>
 8012704:	f8b9 3000 	ldrh.w	r3, [r9]
 8012708:	ebb1 2f13 	cmp.w	r1, r3, lsr #8
 801270c:	f000 816b 	beq.w	80129e6 <mavlink_msg_recv+0x4e6>
                _MAV_PAYLOAD_NON_CONST(rxmsg)[status->packet_idx+1] = (char)c;
 8012710:	7927      	ldrb	r7, [r4, #4]
                memcpy(r_message, rxmsg, sizeof(mavlink_message_t));
 8012712:	493e      	ldr	r1, [pc, #248]	; (801280c <mavlink_msg_recv+0x30c>)
 8012714:	483e      	ldr	r0, [pc, #248]	; (8012810 <mavlink_msg_recv+0x310>)
                _MAV_PAYLOAD_NON_CONST(rxmsg)[status->packet_idx+1] = (char)c;
 8012716:	eb09 0207 	add.w	r2, r9, r7
			status->msg_received = MAVLINK_FRAMING_BAD_CRC;
 801271a:	2602      	movs	r6, #2
                status->parse_state = MAVLINK_PARSE_STATE_IDLE;
 801271c:	2301      	movs	r3, #1
                _MAV_PAYLOAD_NON_CONST(rxmsg)[status->packet_idx+1] = (char)c;
 801271e:	7255      	strb	r5, [r2, #9]
                memcpy(r_message, rxmsg, sizeof(mavlink_message_t));
 8012720:	f44f 7288 	mov.w	r2, #272	; 0x110
			status->msg_received = MAVLINK_FRAMING_BAD_CRC;
 8012724:	7026      	strb	r6, [r4, #0]
                status->parse_state = MAVLINK_PARSE_STATE_IDLE;
 8012726:	70e3      	strb	r3, [r4, #3]
                memcpy(r_message, rxmsg, sizeof(mavlink_message_t));
 8012728:	f7fa f9e2 	bl	800caf0 <memcpy>
 801272c:	e0d2      	b.n	80128d4 <mavlink_msg_recv+0x3d4>
		if (c == MAVLINK_STX)
 801272e:	2dfe      	cmp	r5, #254	; 0xfe
        *crcAccum = X25_INIT_CRC;
 8012730:	4b36      	ldr	r3, [pc, #216]	; (801280c <mavlink_msg_recv+0x30c>)
 8012732:	f000 8129 	beq.w	8012988 <mavlink_msg_recv+0x488>
 8012736:	f893 5113 	ldrb.w	r5, [r3, #275]	; 0x113
 801273a:	e016      	b.n	801276a <mavlink_msg_recv+0x26a>
			rxmsg->len = c;
 801273c:	4933      	ldr	r1, [pc, #204]	; (801280c <mavlink_msg_recv+0x30c>)
        tmp = data ^ (uint8_t)(*crcAccum &0xff);
 801273e:	f8b1 0110 	ldrh.w	r0, [r1, #272]	; 0x110
 8012742:	f881 5113 	strb.w	r5, [r1, #275]	; 0x113
 8012746:	ea85 0300 	eor.w	r3, r5, r0
        tmp ^= (tmp<<4);
 801274a:	ea83 1303 	eor.w	r3, r3, r3, lsl #4
 801274e:	b2db      	uxtb	r3, r3
        *crcAccum = (*crcAccum>>8) ^ (tmp<<8) ^ (tmp <<3) ^ (tmp>>4);
 8012750:	091a      	lsrs	r2, r3, #4
 8012752:	ea82 2210 	eor.w	r2, r2, r0, lsr #8
 8012756:	ea42 2203 	orr.w	r2, r2, r3, lsl #8
 801275a:	ea82 03c3 	eor.w	r3, r2, r3, lsl #3
			status->packet_idx = 0;
 801275e:	2000      	movs	r0, #0
			status->parse_state = MAVLINK_PARSE_STATE_GOT_LENGTH;
 8012760:	2204      	movs	r2, #4
 8012762:	f8a1 3110 	strh.w	r3, [r1, #272]	; 0x110
			status->packet_idx = 0;
 8012766:	7420      	strb	r0, [r4, #16]
			status->parse_state = MAVLINK_PARSE_STATE_GOT_LENGTH;
 8012768:	73e2      	strb	r2, [r4, #15]
	r_message->len = rxmsg->len; // Provide visibility on how far we are into current msg
 801276a:	443e      	add	r6, r7
 801276c:	eb08 1806 	add.w	r8, r8, r6, lsl #4
	status->parse_error = 0;
 8012770:	2300      	movs	r3, #0
	r_message->len = rxmsg->len; // Provide visibility on how far we are into current msg
 8012772:	f888 5003 	strb.w	r5, [r8, #3]
	status->parse_error = 0;
 8012776:	73a3      	strb	r3, [r4, #14]
 8012778:	e733      	b.n	80125e2 <mavlink_msg_recv+0xe2>
		rxmsg->sysid = c;
 801277a:	4a24      	ldr	r2, [pc, #144]	; (801280c <mavlink_msg_recv+0x30c>)
        tmp = data ^ (uint8_t)(*crcAccum &0xff);
 801277c:	f8b2 1110 	ldrh.w	r1, [r2, #272]	; 0x110
 8012780:	f882 5115 	strb.w	r5, [r2, #277]	; 0x115
 8012784:	404d      	eors	r5, r1
        tmp ^= (tmp<<4);
 8012786:	ea85 1505 	eor.w	r5, r5, r5, lsl #4
 801278a:	b2ed      	uxtb	r5, r5
        *crcAccum = (*crcAccum>>8) ^ (tmp<<8) ^ (tmp <<3) ^ (tmp>>4);
 801278c:	092b      	lsrs	r3, r5, #4
 801278e:	ea83 2311 	eor.w	r3, r3, r1, lsr #8
 8012792:	ea43 2305 	orr.w	r3, r3, r5, lsl #8
 8012796:	ea83 05c5 	eor.w	r5, r3, r5, lsl #3
		status->parse_state = MAVLINK_PARSE_STATE_GOT_SYSID;
 801279a:	2305      	movs	r3, #5
 801279c:	f8a2 5110 	strh.w	r5, [r2, #272]	; 0x110
 80127a0:	73e3      	strb	r3, [r4, #15]
 80127a2:	f892 5113 	ldrb.w	r5, [r2, #275]	; 0x113
 80127a6:	e7e0      	b.n	801276a <mavlink_msg_recv+0x26a>
		rxmsg->seq = c;
 80127a8:	4a18      	ldr	r2, [pc, #96]	; (801280c <mavlink_msg_recv+0x30c>)
        tmp = data ^ (uint8_t)(*crcAccum &0xff);
 80127aa:	f8b2 1110 	ldrh.w	r1, [r2, #272]	; 0x110
 80127ae:	f882 5114 	strb.w	r5, [r2, #276]	; 0x114
 80127b2:	404d      	eors	r5, r1
        tmp ^= (tmp<<4);
 80127b4:	ea85 1505 	eor.w	r5, r5, r5, lsl #4
 80127b8:	b2ed      	uxtb	r5, r5
        *crcAccum = (*crcAccum>>8) ^ (tmp<<8) ^ (tmp <<3) ^ (tmp>>4);
 80127ba:	092b      	lsrs	r3, r5, #4
 80127bc:	ea83 2311 	eor.w	r3, r3, r1, lsr #8
 80127c0:	ea43 2305 	orr.w	r3, r3, r5, lsl #8
 80127c4:	ea83 05c5 	eor.w	r5, r3, r5, lsl #3
		status->parse_state = MAVLINK_PARSE_STATE_GOT_SEQ;
 80127c8:	2303      	movs	r3, #3
 80127ca:	f8a2 5110 	strh.w	r5, [r2, #272]	; 0x110
 80127ce:	73e3      	strb	r3, [r4, #15]
 80127d0:	f892 5113 	ldrb.w	r5, [r2, #275]	; 0x113
 80127d4:	e7c9      	b.n	801276a <mavlink_msg_recv+0x26a>
		rxmsg->compid = c;
 80127d6:	4a0d      	ldr	r2, [pc, #52]	; (801280c <mavlink_msg_recv+0x30c>)
        tmp = data ^ (uint8_t)(*crcAccum &0xff);
 80127d8:	f8b2 1110 	ldrh.w	r1, [r2, #272]	; 0x110
 80127dc:	f882 5116 	strb.w	r5, [r2, #278]	; 0x116
 80127e0:	404d      	eors	r5, r1
        tmp ^= (tmp<<4);
 80127e2:	ea85 1505 	eor.w	r5, r5, r5, lsl #4
 80127e6:	b2ed      	uxtb	r5, r5
        *crcAccum = (*crcAccum>>8) ^ (tmp<<8) ^ (tmp <<3) ^ (tmp>>4);
 80127e8:	092b      	lsrs	r3, r5, #4
 80127ea:	ea83 2311 	eor.w	r3, r3, r1, lsr #8
 80127ee:	ea43 2305 	orr.w	r3, r3, r5, lsl #8
 80127f2:	ea83 05c5 	eor.w	r5, r3, r5, lsl #3
		status->parse_state = MAVLINK_PARSE_STATE_GOT_COMPID;
 80127f6:	2306      	movs	r3, #6
 80127f8:	f8a2 5110 	strh.w	r5, [r2, #272]	; 0x110
 80127fc:	73e3      	strb	r3, [r4, #15]
 80127fe:	f892 5113 	ldrb.w	r5, [r2, #275]	; 0x113
 8012802:	e7b2      	b.n	801276a <mavlink_msg_recv+0x26a>
 8012804:	200025d4 	.word	0x200025d4
 8012808:	200022a4 	.word	0x200022a4
 801280c:	20002194 	.word	0x20002194
 8012810:	20002604 	.word	0x20002604
 8012814:	08016e00 	.word	0x08016e00
		rxmsg->msgid = c;
 8012818:	4987      	ldr	r1, [pc, #540]	; (8012a38 <mavlink_msg_recv+0x538>)
        tmp = data ^ (uint8_t)(*crcAccum &0xff);
 801281a:	f8b1 0110 	ldrh.w	r0, [r1, #272]	; 0x110
 801281e:	f881 5117 	strb.w	r5, [r1, #279]	; 0x117
 8012822:	ea85 0300 	eor.w	r3, r5, r0
        tmp ^= (tmp<<4);
 8012826:	ea83 1303 	eor.w	r3, r3, r3, lsl #4
 801282a:	b2db      	uxtb	r3, r3
        *crcAccum = (*crcAccum>>8) ^ (tmp<<8) ^ (tmp <<3) ^ (tmp>>4);
 801282c:	091a      	lsrs	r2, r3, #4
 801282e:	ea82 2210 	eor.w	r2, r2, r0, lsr #8
 8012832:	ea42 2203 	orr.w	r2, r2, r3, lsl #8
		if (rxmsg->len == 0)
 8012836:	f891 5113 	ldrb.w	r5, [r1, #275]	; 0x113
 801283a:	ea82 03c3 	eor.w	r3, r2, r3, lsl #3
 801283e:	f8a1 3110 	strh.w	r3, [r1, #272]	; 0x110
 8012842:	2d00      	cmp	r5, #0
 8012844:	f040 8097 	bne.w	8012976 <mavlink_msg_recv+0x476>
			status->parse_state = MAVLINK_PARSE_STATE_GOT_PAYLOAD;
 8012848:	2308      	movs	r3, #8
 801284a:	73e3      	strb	r3, [r4, #15]
 801284c:	e78d      	b.n	801276a <mavlink_msg_recv+0x26a>
		_MAV_PAYLOAD_NON_CONST(rxmsg)[status->packet_idx++] = (char)c;
 801284e:	487a      	ldr	r0, [pc, #488]	; (8012a38 <mavlink_msg_recv+0x538>)
 8012850:	7c22      	ldrb	r2, [r4, #16]
 8012852:	1883      	adds	r3, r0, r2
 8012854:	3201      	adds	r2, #1
 8012856:	f883 5118 	strb.w	r5, [r3, #280]	; 0x118
        tmp = data ^ (uint8_t)(*crcAccum &0xff);
 801285a:	f8b0 c110 	ldrh.w	ip, [r0, #272]	; 0x110
 801285e:	ea85 030c 	eor.w	r3, r5, ip
        tmp ^= (tmp<<4);
 8012862:	ea83 1303 	eor.w	r3, r3, r3, lsl #4
 8012866:	b2db      	uxtb	r3, r3
        *crcAccum = (*crcAccum>>8) ^ (tmp<<8) ^ (tmp <<3) ^ (tmp>>4);
 8012868:	0919      	lsrs	r1, r3, #4
 801286a:	ea81 211c 	eor.w	r1, r1, ip, lsr #8
		if (status->packet_idx == rxmsg->len)
 801286e:	f890 5113 	ldrb.w	r5, [r0, #275]	; 0x113
		_MAV_PAYLOAD_NON_CONST(rxmsg)[status->packet_idx++] = (char)c;
 8012872:	b2d2      	uxtb	r2, r2
 8012874:	ea41 2103 	orr.w	r1, r1, r3, lsl #8
 8012878:	ea81 03c3 	eor.w	r3, r1, r3, lsl #3
		if (status->packet_idx == rxmsg->len)
 801287c:	42aa      	cmp	r2, r5
		_MAV_PAYLOAD_NON_CONST(rxmsg)[status->packet_idx++] = (char)c;
 801287e:	7422      	strb	r2, [r4, #16]
 8012880:	f8a0 3110 	strh.w	r3, [r0, #272]	; 0x110
		if (status->packet_idx == rxmsg->len)
 8012884:	f47f af71 	bne.w	801276a <mavlink_msg_recv+0x26a>
 8012888:	e7de      	b.n	8012848 <mavlink_msg_recv+0x348>
        tmp = data ^ (uint8_t)(*crcAccum &0xff);
 801288a:	f8df 91ac 	ldr.w	r9, [pc, #428]	; 8012a38 <mavlink_msg_recv+0x538>
		mavlink_update_checksum(rxmsg, MAVLINK_MESSAGE_CRC(rxmsg->msgid));
 801288e:	4a6b      	ldr	r2, [pc, #428]	; (8012a3c <mavlink_msg_recv+0x53c>)
 8012890:	f899 3117 	ldrb.w	r3, [r9, #279]	; 0x117
 8012894:	f8b9 1110 	ldrh.w	r1, [r9, #272]	; 0x110
 8012898:	5cd3      	ldrb	r3, [r2, r3]
 801289a:	404b      	eors	r3, r1
        tmp ^= (tmp<<4);
 801289c:	ea83 1303 	eor.w	r3, r3, r3, lsl #4
 80128a0:	b2db      	uxtb	r3, r3
        *crcAccum = (*crcAccum>>8) ^ (tmp<<8) ^ (tmp <<3) ^ (tmp>>4);
 80128a2:	091a      	lsrs	r2, r3, #4
 80128a4:	ea82 2211 	eor.w	r2, r2, r1, lsr #8
 80128a8:	ea42 2203 	orr.w	r2, r2, r3, lsl #8
 80128ac:	ea82 03c3 	eor.w	r3, r2, r3, lsl #3
		if (c != (rxmsg->checksum & 0xFF)) {
 80128b0:	b2da      	uxtb	r2, r3
 80128b2:	4295      	cmp	r5, r2
 80128b4:	f8a9 3110 	strh.w	r3, [r9, #272]	; 0x110
			status->parse_state = MAVLINK_PARSE_STATE_GOT_BAD_CRC1;
 80128b8:	bf14      	ite	ne
 80128ba:	230a      	movne	r3, #10
			status->parse_state = MAVLINK_PARSE_STATE_GOT_CRC1;
 80128bc:	2309      	moveq	r3, #9
 80128be:	73e3      	strb	r3, [r4, #15]
                _MAV_PAYLOAD_NON_CONST(rxmsg)[status->packet_idx] = (char)c;
 80128c0:	7c23      	ldrb	r3, [r4, #16]
 80128c2:	444b      	add	r3, r9
 80128c4:	f883 5118 	strb.w	r5, [r3, #280]	; 0x118
 80128c8:	f899 5113 	ldrb.w	r5, [r9, #275]	; 0x113
 80128cc:	e74d      	b.n	801276a <mavlink_msg_recv+0x26a>
 80128ce:	7927      	ldrb	r7, [r4, #4]
 80128d0:	f8df 9164 	ldr.w	r9, [pc, #356]	; 8012a38 <mavlink_msg_recv+0x538>
	r_message->len = rxmsg->len; // Provide visibility on how far we are into current msg
 80128d4:	f8df 816c 	ldr.w	r8, [pc, #364]	; 8012a44 <mavlink_msg_recv+0x544>
 80128d8:	f899 3003 	ldrb.w	r3, [r9, #3]
 80128dc:	f888 3003 	strb.w	r3, [r8, #3]
	status->parse_error = 0;
 80128e0:	2000      	movs	r0, #0

	if (status->msg_received == MAVLINK_FRAMING_BAD_CRC) {
 80128e2:	2e02      	cmp	r6, #2
	status->parse_error = 0;
 80128e4:	70a0      	strb	r0, [r4, #2]
	if (status->msg_received == MAVLINK_FRAMING_BAD_CRC) {
 80128e6:	f040 80a3 	bne.w	8012a30 <mavlink_msg_recv+0x530>
		  msg CRC with the one on the wire so that if the
		  caller decides to forward the message anyway that
		  mavlink_msg_to_send_buffer() won't overwrite the
		  checksum
		 */
		r_message->checksum = _MAV_PAYLOAD(rxmsg)[status->packet_idx] | (_MAV_PAYLOAD(rxmsg)[status->packet_idx+1]<<8);
 80128ea:	eb09 0307 	add.w	r3, r9, r7
	    mavlink_message_t* rxmsg = mavlink_get_channel_buffer(chan);
	    mavlink_status_t* status = mavlink_get_channel_status(chan);
	    status->parse_error++;
	    status->msg_received = MAVLINK_FRAMING_INCOMPLETE;
	    status->parse_state = MAVLINK_PARSE_STATE_IDLE;
	    if (c == MAVLINK_STX)
 80128ee:	2dfe      	cmp	r5, #254	; 0xfe
		r_message->checksum = _MAV_PAYLOAD(rxmsg)[status->packet_idx] | (_MAV_PAYLOAD(rxmsg)[status->packet_idx+1]<<8);
 80128f0:	7a5a      	ldrb	r2, [r3, #9]
 80128f2:	7a1b      	ldrb	r3, [r3, #8]
	    status->msg_received = MAVLINK_FRAMING_INCOMPLETE;
 80128f4:	7020      	strb	r0, [r4, #0]
		r_message->checksum = _MAV_PAYLOAD(rxmsg)[status->packet_idx] | (_MAV_PAYLOAD(rxmsg)[status->packet_idx+1]<<8);
 80128f6:	ea43 2302 	orr.w	r3, r3, r2, lsl #8
	    status->parse_error++;
 80128fa:	f04f 0201 	mov.w	r2, #1
		r_message->checksum = _MAV_PAYLOAD(rxmsg)[status->packet_idx] | (_MAV_PAYLOAD(rxmsg)[status->packet_idx+1]<<8);
 80128fe:	f8a8 3000 	strh.w	r3, [r8]
	    status->parse_error++;
 8012902:	70a2      	strb	r2, [r4, #2]
	    if (c == MAVLINK_STX)
 8012904:	d001      	beq.n	801290a <mavlink_msg_recv+0x40a>
	    status->parse_state = MAVLINK_PARSE_STATE_IDLE;
 8012906:	70e2      	strb	r2, [r4, #3]
 8012908:	e66b      	b.n	80125e2 <mavlink_msg_recv+0xe2>
        *crcAccum = X25_INIT_CRC;
 801290a:	f64f 73ff 	movw	r3, #65535	; 0xffff
	    {
		    status->parse_state = MAVLINK_PARSE_STATE_GOT_STX;
 801290e:	70e6      	strb	r6, [r4, #3]
		    rxmsg->len = 0;
 8012910:	f889 0003 	strb.w	r0, [r9, #3]
 8012914:	f8a9 3000 	strh.w	r3, [r9]
 8012918:	e664      	b.n	80125e4 <mavlink_msg_recv+0xe4>
 801291a:	f894 b010 	ldrb.w	fp, [r4, #16]
 801291e:	f8df 9118 	ldr.w	r9, [pc, #280]	; 8012a38 <mavlink_msg_recv+0x538>
	switch (status->parse_state)
 8012922:	2200      	movs	r2, #0
	r_message->len = rxmsg->len; // Provide visibility on how far we are into current msg
 8012924:	f44f 7188 	mov.w	r1, #272	; 0x110
 8012928:	fb01 8106 	mla	r1, r1, r6, r8
 801292c:	f899 0113 	ldrb.w	r0, [r9, #275]	; 0x113
 8012930:	70c8      	strb	r0, [r1, #3]
	status->parse_error = 0;
 8012932:	2000      	movs	r0, #0
 8012934:	73a0      	strb	r0, [r4, #14]
	if (status->msg_received == MAVLINK_FRAMING_BAD_CRC) {
 8012936:	2a00      	cmp	r2, #0
 8012938:	d076      	beq.n	8012a28 <mavlink_msg_recv+0x528>
		r_message->checksum = _MAV_PAYLOAD(rxmsg)[status->packet_idx] | (_MAV_PAYLOAD(rxmsg)[status->packet_idx+1]<<8);
 801293a:	44cb      	add	fp, r9
 801293c:	443e      	add	r6, r7
 801293e:	f89b 1119 	ldrb.w	r1, [fp, #281]	; 0x119
 8012942:	f89b 3118 	ldrb.w	r3, [fp, #280]	; 0x118
	    status->msg_received = MAVLINK_FRAMING_INCOMPLETE;
 8012946:	7320      	strb	r0, [r4, #12]
		r_message->checksum = _MAV_PAYLOAD(rxmsg)[status->packet_idx] | (_MAV_PAYLOAD(rxmsg)[status->packet_idx+1]<<8);
 8012948:	0136      	lsls	r6, r6, #4
 801294a:	ea43 2301 	orr.w	r3, r3, r1, lsl #8
	    if (c == MAVLINK_STX)
 801294e:	2dfe      	cmp	r5, #254	; 0xfe
	    status->parse_error++;
 8012950:	f04f 0101 	mov.w	r1, #1
		r_message->checksum = _MAV_PAYLOAD(rxmsg)[status->packet_idx] | (_MAV_PAYLOAD(rxmsg)[status->packet_idx+1]<<8);
 8012954:	f828 3006 	strh.w	r3, [r8, r6]
	    status->parse_error++;
 8012958:	73a1      	strb	r1, [r4, #14]
	    if (c == MAVLINK_STX)
 801295a:	d001      	beq.n	8012960 <mavlink_msg_recv+0x460>
	    status->parse_state = MAVLINK_PARSE_STATE_IDLE;
 801295c:	73e1      	strb	r1, [r4, #15]
 801295e:	e640      	b.n	80125e2 <mavlink_msg_recv+0xe2>
 8012960:	f64f 73ff 	movw	r3, #65535	; 0xffff
		    status->parse_state = MAVLINK_PARSE_STATE_GOT_STX;
 8012964:	73e2      	strb	r2, [r4, #15]
		    rxmsg->len = 0;
 8012966:	f889 0113 	strb.w	r0, [r9, #275]	; 0x113
 801296a:	f8a9 3110 	strh.w	r3, [r9, #272]	; 0x110
 801296e:	e639      	b.n	80125e4 <mavlink_msg_recv+0xe4>
			status->parse_state = MAVLINK_PARSE_STATE_GOT_MSGID;
 8012970:	2307      	movs	r3, #7
 8012972:	70e3      	strb	r3, [r4, #3]
 8012974:	e631      	b.n	80125da <mavlink_msg_recv+0xda>
 8012976:	2307      	movs	r3, #7
 8012978:	73e3      	strb	r3, [r4, #15]
 801297a:	e6f6      	b.n	801276a <mavlink_msg_recv+0x26a>
 801297c:	4a30      	ldr	r2, [pc, #192]	; (8012a40 <mavlink_msg_recv+0x540>)
 801297e:	601a      	str	r2, [r3, #0]
			status->parse_state = MAVLINK_PARSE_STATE_GOT_STX;
 8012980:	2302      	movs	r3, #2
 8012982:	70e3      	strb	r3, [r4, #3]
 8012984:	2500      	movs	r5, #0
 8012986:	e628      	b.n	80125da <mavlink_msg_recv+0xda>
 8012988:	4a2d      	ldr	r2, [pc, #180]	; (8012a40 <mavlink_msg_recv+0x540>)
 801298a:	f8c3 2110 	str.w	r2, [r3, #272]	; 0x110
 801298e:	2302      	movs	r3, #2
 8012990:	73e3      	strb	r3, [r4, #15]
 8012992:	2500      	movs	r5, #0
 8012994:	e6e9      	b.n	801276a <mavlink_msg_recv+0x26a>
                _MAV_PAYLOAD_NON_CONST(rxmsg)[status->packet_idx+1] = (char)c;
 8012996:	7c21      	ldrb	r1, [r4, #16]
 8012998:	4449      	add	r1, r9
                memcpy(r_message, rxmsg, sizeof(mavlink_message_t));
 801299a:	f44f 7288 	mov.w	r2, #272	; 0x110
			status->msg_received = MAVLINK_FRAMING_OK;
 801299e:	f04f 0c01 	mov.w	ip, #1
                _MAV_PAYLOAD_NON_CONST(rxmsg)[status->packet_idx+1] = (char)c;
 80129a2:	f881 5119 	strb.w	r5, [r1, #281]	; 0x119
                memcpy(r_message, rxmsg, sizeof(mavlink_message_t));
 80129a6:	4618      	mov	r0, r3
 80129a8:	eb09 0102 	add.w	r1, r9, r2
			status->msg_received = MAVLINK_FRAMING_OK;
 80129ac:	f884 c00c 	strb.w	ip, [r4, #12]
                status->parse_state = MAVLINK_PARSE_STATE_IDLE;
 80129b0:	f884 c00f 	strb.w	ip, [r4, #15]
                memcpy(r_message, rxmsg, sizeof(mavlink_message_t));
 80129b4:	f7fa f89c 	bl	800caf0 <memcpy>
		if (status->packet_rx_success_count == 0) status->packet_rx_drop_count = 0;
 80129b8:	8aa2      	ldrh	r2, [r4, #20]
		status->current_rx_seq = rxmsg->seq;
 80129ba:	f899 1114 	ldrb.w	r1, [r9, #276]	; 0x114
 80129be:	7461      	strb	r1, [r4, #17]
                memcpy(r_message, rxmsg, sizeof(mavlink_message_t));
 80129c0:	4603      	mov	r3, r0
		if (status->packet_rx_success_count == 0) status->packet_rx_drop_count = 0;
 80129c2:	b902      	cbnz	r2, 80129c6 <mavlink_msg_recv+0x4c6>
 80129c4:	82e2      	strh	r2, [r4, #22]
	r_message->len = rxmsg->len; // Provide visibility on how far we are into current msg
 80129c6:	443e      	add	r6, r7
		status->packet_rx_success_count++;
 80129c8:	3201      	adds	r2, #1
	r_message->len = rxmsg->len; // Provide visibility on how far we are into current msg
 80129ca:	eb08 1806 	add.w	r8, r8, r6, lsl #4
 80129ce:	f899 1113 	ldrb.w	r1, [r9, #275]	; 0x113
		status->packet_rx_success_count++;
 80129d2:	82a2      	strh	r2, [r4, #20]
	status->parse_error = 0;
 80129d4:	2200      	movs	r2, #0
	r_message->len = rxmsg->len; // Provide visibility on how far we are into current msg
 80129d6:	f888 1003 	strb.w	r1, [r8, #3]
	status->parse_error = 0;
 80129da:	73a2      	strb	r2, [r4, #14]
			p_msg->p_msg = &msg[ch];
 80129dc:	f8ca 3004 	str.w	r3, [sl, #4]
			ret = TRUE;
 80129e0:	2001      	movs	r0, #1
}
 80129e2:	e8bd 8ff8 	ldmia.w	sp!, {r3, r4, r5, r6, r7, r8, r9, sl, fp, pc}
                _MAV_PAYLOAD_NON_CONST(rxmsg)[status->packet_idx+1] = (char)c;
 80129e6:	7923      	ldrb	r3, [r4, #4]
                memcpy(r_message, rxmsg, sizeof(mavlink_message_t));
 80129e8:	4816      	ldr	r0, [pc, #88]	; (8012a44 <mavlink_msg_recv+0x544>)
                _MAV_PAYLOAD_NON_CONST(rxmsg)[status->packet_idx+1] = (char)c;
 80129ea:	444b      	add	r3, r9
			status->msg_received = MAVLINK_FRAMING_OK;
 80129ec:	2601      	movs	r6, #1
                _MAV_PAYLOAD_NON_CONST(rxmsg)[status->packet_idx+1] = (char)c;
 80129ee:	7259      	strb	r1, [r3, #9]
                memcpy(r_message, rxmsg, sizeof(mavlink_message_t));
 80129f0:	f44f 7288 	mov.w	r2, #272	; 0x110
 80129f4:	4649      	mov	r1, r9
			status->msg_received = MAVLINK_FRAMING_OK;
 80129f6:	7026      	strb	r6, [r4, #0]
                status->parse_state = MAVLINK_PARSE_STATE_IDLE;
 80129f8:	70e6      	strb	r6, [r4, #3]
                memcpy(r_message, rxmsg, sizeof(mavlink_message_t));
 80129fa:	f7fa f879 	bl	800caf0 <memcpy>
		if (status->packet_rx_success_count == 0) status->packet_rx_drop_count = 0;
 80129fe:	8923      	ldrh	r3, [r4, #8]
		status->current_rx_seq = rxmsg->seq;
 8012a00:	f899 2004 	ldrb.w	r2, [r9, #4]
 8012a04:	7162      	strb	r2, [r4, #5]
		if (status->packet_rx_success_count == 0) status->packet_rx_drop_count = 0;
 8012a06:	b903      	cbnz	r3, 8012a0a <mavlink_msg_recv+0x50a>
 8012a08:	8163      	strh	r3, [r4, #10]
	r_message->len = rxmsg->len; // Provide visibility on how far we are into current msg
 8012a0a:	f8df 8038 	ldr.w	r8, [pc, #56]	; 8012a44 <mavlink_msg_recv+0x544>
 8012a0e:	f899 2003 	ldrb.w	r2, [r9, #3]
 8012a12:	f888 2003 	strb.w	r2, [r8, #3]
		status->packet_rx_success_count++;
 8012a16:	3301      	adds	r3, #1
	status->parse_error = 0;
 8012a18:	2200      	movs	r2, #0
		status->packet_rx_success_count++;
 8012a1a:	8123      	strh	r3, [r4, #8]
	status->parse_error = 0;
 8012a1c:	70a2      	strb	r2, [r4, #2]
			p_msg->p_msg = &msg[ch];
 8012a1e:	f8ca 8004 	str.w	r8, [sl, #4]
			ret = TRUE;
 8012a22:	2001      	movs	r0, #1
}
 8012a24:	e8bd 8ff8 	ldmia.w	sp!, {r3, r4, r5, r6, r7, r8, r9, sl, fp, pc}
		if (mavlink_parse_char(MAVLINK_COMM_1, data, &msg[ch], &status[ch]) == MAVLINK_FRAMING_OK)
 8012a28:	2a01      	cmp	r2, #1
 8012a2a:	f47f adda 	bne.w	80125e2 <mavlink_msg_recv+0xe2>
 8012a2e:	e7d5      	b.n	80129dc <mavlink_msg_recv+0x4dc>
		if (mavlink_parse_char(MAVLINK_COMM_0, data, &msg[ch], &status[ch]) == MAVLINK_FRAMING_OK)
 8012a30:	2e01      	cmp	r6, #1
 8012a32:	f47f add6 	bne.w	80125e2 <mavlink_msg_recv+0xe2>
 8012a36:	e7f2      	b.n	8012a1e <mavlink_msg_recv+0x51e>
 8012a38:	20002194 	.word	0x20002194
 8012a3c:	08016e00 	.word	0x08016e00
 8012a40:	00feffff 	.word	0x00feffff
 8012a44:	20002604 	.word	0x20002604
	...

08012a50 <mavlink_msg_process_vcp>:


void  mavlink_msg_process_vcp( msg_handle_t* p_msg)
{

      switch( p_msg->p_msg->msgid )
 8012a50:	6843      	ldr	r3, [r0, #4]
 8012a52:	79db      	ldrb	r3, [r3, #7]
 8012a54:	2b99      	cmp	r3, #153	; 0x99
{
 8012a56:	4602      	mov	r2, r0
      switch( p_msg->p_msg->msgid )
 8012a58:	d014      	beq.n	8012a84 <mavlink_msg_process_vcp+0x34>
 8012a5a:	d805      	bhi.n	8012a68 <mavlink_msg_process_vcp+0x18>
 8012a5c:	2b97      	cmp	r3, #151	; 0x97
 8012a5e:	d00f      	beq.n	8012a80 <mavlink_msg_process_vcp+0x30>
 8012a60:	2b98      	cmp	r3, #152	; 0x98
 8012a62:	d107      	bne.n	8012a74 <mavlink_msg_process_vcp+0x24>
      {
		case MAVLINK_MSG_ID_READ_VERSION:		cmd_read_version(p_msg);					break;
		case MAVLINK_MSG_ID_READ_BOARD_NAME:	cmd_read_board_name(p_msg);					break;
 8012a64:	f7ff bc94 	b.w	8012390 <cmd_read_board_name>
      switch( p_msg->p_msg->msgid )
 8012a68:	2bdd      	cmp	r3, #221	; 0xdd
 8012a6a:	d007      	beq.n	8012a7c <mavlink_msg_process_vcp+0x2c>
 8012a6c:	2bde      	cmp	r3, #222	; 0xde
 8012a6e:	d101      	bne.n	8012a74 <mavlink_msg_process_vcp+0x24>
		case MAVLINK_MSG_ID_READ_TAG:			cmd_read_tag(p_msg);						break;
		case MAVLINK_MSG_ID_SET_MCCONF: 		cmd_set_mcconf(p_msg); 						break;
		case MAVLINK_MSG_ID_SET_APPCONF : 		cmd_set_appconf(p_msg); 					break;
 8012a70:	f7ff bd1e 	b.w	80124b0 <cmd_set_appconf>
		default:								cmd_send_error(p_msg, ERR_INVALID_CMD);		break;
 8012a74:	4610      	mov	r0, r2
 8012a76:	2101      	movs	r1, #1
 8012a78:	f7ff bc32 	b.w	80122e0 <cmd_send_error>
		case MAVLINK_MSG_ID_SET_MCCONF: 		cmd_set_mcconf(p_msg); 						break;
 8012a7c:	f7ff bcf0 	b.w	8012460 <cmd_set_mcconf>
		case MAVLINK_MSG_ID_READ_VERSION:		cmd_read_version(p_msg);					break;
 8012a80:	f7ff bc3e 	b.w	8012300 <cmd_read_version>
		case MAVLINK_MSG_ID_READ_TAG:			cmd_read_tag(p_msg);						break;
 8012a84:	f7ff bcc4 	b.w	8012410 <cmd_read_tag>
	...

08012a90 <cancom_process_thread>:
 8012a90:	4b12      	ldr	r3, [pc, #72]	; (8012adc <cancom_process_thread+0x4c>)
 8012a92:	4a13      	ldr	r2, [pc, #76]	; (8012ae0 <cancom_process_thread+0x50>)
 8012a94:	699b      	ldr	r3, [r3, #24]
 8012a96:	4913      	ldr	r1, [pc, #76]	; (8012ae4 <cancom_process_thread+0x54>)
 8012a98:	b570      	push	{r4, r5, r6, lr}
 8012a9a:	4d13      	ldr	r5, [pc, #76]	; (8012ae8 <cancom_process_thread+0x58>)
 8012a9c:	4e13      	ldr	r6, [pc, #76]	; (8012aec <cancom_process_thread+0x5c>)
 8012a9e:	6199      	str	r1, [r3, #24]
 8012aa0:	6013      	str	r3, [r2, #0]
 8012aa2:	2001      	movs	r0, #1
 8012aa4:	f7fa fe2c 	bl	800d700 <chEvtWaitAny>
 8012aa8:	6829      	ldr	r1, [r5, #0]
 8012aaa:	6834      	ldr	r4, [r6, #0]
 8012aac:	2000      	movs	r0, #0
 8012aae:	460b      	mov	r3, r1
 8012ab0:	429c      	cmp	r4, r3
 8012ab2:	4602      	mov	r2, r0
 8012ab4:	f103 0301 	add.w	r3, r3, #1
 8012ab8:	f04f 0100 	mov.w	r1, #0
 8012abc:	d009      	beq.n	8012ad2 <cancom_process_thread+0x42>
 8012abe:	2201      	movs	r2, #1
 8012ac0:	2b64      	cmp	r3, #100	; 0x64
 8012ac2:	4610      	mov	r0, r2
 8012ac4:	d0f3      	beq.n	8012aae <cancom_process_thread+0x1e>
 8012ac6:	429c      	cmp	r4, r3
 8012ac8:	f04f 0100 	mov.w	r1, #0
 8012acc:	f103 0301 	add.w	r3, r3, #1
 8012ad0:	d1f5      	bne.n	8012abe <cancom_process_thread+0x2e>
 8012ad2:	2a00      	cmp	r2, #0
 8012ad4:	d0e5      	beq.n	8012aa2 <cancom_process_thread+0x12>
 8012ad6:	602c      	str	r4, [r5, #0]
 8012ad8:	e7e3      	b.n	8012aa2 <cancom_process_thread+0x12>
 8012ada:	bf00      	nop
 8012adc:	20000c90 	.word	0x20000c90
 8012ae0:	200041f0 	.word	0x200041f0
 8012ae4:	08016f20 	.word	0x08016f20
 8012ae8:	200041f4 	.word	0x200041f4
 8012aec:	200041f8 	.word	0x200041f8

08012af0 <cancom_status_thread>:
 8012af0:	4b09      	ldr	r3, [pc, #36]	; (8012b18 <cancom_status_thread+0x28>)
 8012af2:	4a0a      	ldr	r2, [pc, #40]	; (8012b1c <cancom_status_thread+0x2c>)
 8012af4:	699b      	ldr	r3, [r3, #24]
 8012af6:	b510      	push	{r4, lr}
 8012af8:	f242 7410 	movw	r4, #10000	; 0x2710
 8012afc:	619a      	str	r2, [r3, #24]
 8012afe:	f001 fbff 	bl	8014300 <app_get_configuration>
 8012b02:	f001 fbfd 	bl	8014300 <app_get_configuration>
 8012b06:	6900      	ldr	r0, [r0, #16]
 8012b08:	fbb4 f0f0 	udiv	r0, r4, r0
 8012b0c:	2800      	cmp	r0, #0
 8012b0e:	bf08      	it	eq
 8012b10:	2001      	moveq	r0, #1
 8012b12:	f7fa fbdd 	bl	800d2d0 <chThdSleep>
 8012b16:	e7f2      	b.n	8012afe <cancom_status_thread+0xe>
 8012b18:	20000c90 	.word	0x20000c90
 8012b1c:	08016f40 	.word	0x08016f40

08012b20 <cancom_read_thread>:
 8012b20:	e92d 41f0 	stmdb	sp!, {r4, r5, r6, r7, r8, lr}
 8012b24:	4f20      	ldr	r7, [pc, #128]	; (8012ba8 <cancom_read_thread+0x88>)
 8012b26:	4a21      	ldr	r2, [pc, #132]	; (8012bac <cancom_read_thread+0x8c>)
 8012b28:	69bb      	ldr	r3, [r7, #24]
 8012b2a:	4821      	ldr	r0, [pc, #132]	; (8012bb0 <cancom_read_thread+0x90>)
 8012b2c:	619a      	str	r2, [r3, #24]
 8012b2e:	b08a      	sub	sp, #40	; 0x28
 8012b30:	4669      	mov	r1, sp
 8012b32:	f04f 33ff 	mov.w	r3, #4294967295
 8012b36:	2201      	movs	r2, #1
 8012b38:	f7fa fd72 	bl	800d620 <chEvtRegisterMaskWithFlags>
 8012b3c:	4d1d      	ldr	r5, [pc, #116]	; (8012bb4 <cancom_read_thread+0x94>)
 8012b3e:	4c1e      	ldr	r4, [pc, #120]	; (8012bb8 <cancom_read_thread+0x98>)
 8012b40:	4e1e      	ldr	r6, [pc, #120]	; (8012bbc <cancom_read_thread+0x9c>)
 8012b42:	69bb      	ldr	r3, [r7, #24]
 8012b44:	7f5b      	ldrb	r3, [r3, #29]
 8012b46:	f013 0804 	ands.w	r8, r3, #4
 8012b4a:	d126      	bne.n	8012b9a <cancom_read_thread+0x7a>
 8012b4c:	2164      	movs	r1, #100	; 0x64
 8012b4e:	f04f 30ff 	mov.w	r0, #4294967295
 8012b52:	f7fa fdf5 	bl	800d740 <chEvtWaitAnyTimeout>
 8012b56:	2800      	cmp	r0, #0
 8012b58:	d0f3      	beq.n	8012b42 <cancom_read_thread+0x22>
 8012b5a:	aa05      	add	r2, sp, #20
 8012b5c:	4643      	mov	r3, r8
 8012b5e:	4641      	mov	r1, r8
 8012b60:	4628      	mov	r0, r5
 8012b62:	f7fb f815 	bl	800db90 <canReceive>
 8012b66:	2800      	cmp	r0, #0
 8012b68:	d1eb      	bne.n	8012b42 <cancom_read_thread+0x22>
 8012b6a:	4680      	mov	r8, r0
 8012b6c:	6823      	ldr	r3, [r4, #0]
 8012b6e:	6830      	ldr	r0, [r6, #0]
 8012b70:	3301      	adds	r3, #1
 8012b72:	2b64      	cmp	r3, #100	; 0x64
 8012b74:	bf08      	it	eq
 8012b76:	4643      	moveq	r3, r8
 8012b78:	2101      	movs	r1, #1
 8012b7a:	6023      	str	r3, [r4, #0]
 8012b7c:	f7fa fdb0 	bl	800d6e0 <chEvtSignal>
 8012b80:	2300      	movs	r3, #0
 8012b82:	4619      	mov	r1, r3
 8012b84:	aa05      	add	r2, sp, #20
 8012b86:	4628      	mov	r0, r5
 8012b88:	f7fb f802 	bl	800db90 <canReceive>
 8012b8c:	2800      	cmp	r0, #0
 8012b8e:	d0ed      	beq.n	8012b6c <cancom_read_thread+0x4c>
 8012b90:	69bb      	ldr	r3, [r7, #24]
 8012b92:	7f5b      	ldrb	r3, [r3, #29]
 8012b94:	f013 0804 	ands.w	r8, r3, #4
 8012b98:	d0d8      	beq.n	8012b4c <cancom_read_thread+0x2c>
 8012b9a:	4669      	mov	r1, sp
 8012b9c:	4804      	ldr	r0, [pc, #16]	; (8012bb0 <cancom_read_thread+0x90>)
 8012b9e:	f7fa fd57 	bl	800d650 <chEvtUnregister>
 8012ba2:	b00a      	add	sp, #40	; 0x28
 8012ba4:	e8bd 81f0 	ldmia.w	sp!, {r4, r5, r6, r7, r8, pc}
 8012ba8:	20000c90 	.word	0x20000c90
 8012bac:	08016f30 	.word	0x08016f30
 8012bb0:	20000fac 	.word	0x20000fac
 8012bb4:	20000f94 	.word	0x20000f94
 8012bb8:	200041f8 	.word	0x200041f8
 8012bbc:	200041f0 	.word	0x200041f0

08012bc0 <comm_can_init>:
 8012bc0:	b510      	push	{r4, lr}
 8012bc2:	491f      	ldr	r1, [pc, #124]	; (8012c40 <comm_can_init+0x80>)
 8012bc4:	b082      	sub	sp, #8
 8012bc6:	2300      	movs	r3, #0
 8012bc8:	f04f 32ff 	mov.w	r2, #4294967295
 8012bcc:	f841 2033 	str.w	r2, [r1, r3, lsl #3]
 8012bd0:	3301      	adds	r3, #1
 8012bd2:	2b0a      	cmp	r3, #10
 8012bd4:	d1fa      	bne.n	8012bcc <comm_can_init+0xc>
 8012bd6:	4b1b      	ldr	r3, [pc, #108]	; (8012c44 <comm_can_init+0x84>)
 8012bd8:	4a1b      	ldr	r2, [pc, #108]	; (8012c48 <comm_can_init+0x88>)
 8012bda:	481c      	ldr	r0, [pc, #112]	; (8012c4c <comm_can_init+0x8c>)
 8012bdc:	2400      	movs	r4, #0
 8012bde:	601c      	str	r4, [r3, #0]
 8012be0:	6014      	str	r4, [r2, #0]
 8012be2:	f7fa fc5d 	bl	800d4a0 <chMtxObjectInit>
 8012be6:	f240 428a 	movw	r2, #1162	; 0x48a
 8012bea:	f44f 7180 	mov.w	r1, #256	; 0x100
 8012bee:	4818      	ldr	r0, [pc, #96]	; (8012c50 <comm_can_init+0x90>)
 8012bf0:	f7fc fba6 	bl	800f340 <_pal_lld_setgroupmode>
 8012bf4:	f240 428a 	movw	r2, #1162	; 0x48a
 8012bf8:	f44f 7100 	mov.w	r1, #512	; 0x200
 8012bfc:	4814      	ldr	r0, [pc, #80]	; (8012c50 <comm_can_init+0x90>)
 8012bfe:	f7fc fb9f 	bl	800f340 <_pal_lld_setgroupmode>
 8012c02:	4914      	ldr	r1, [pc, #80]	; (8012c54 <comm_can_init+0x94>)
 8012c04:	4814      	ldr	r0, [pc, #80]	; (8012c58 <comm_can_init+0x98>)
 8012c06:	f7fa ffb3 	bl	800db70 <canStart>
 8012c0a:	9400      	str	r4, [sp, #0]
 8012c0c:	4b13      	ldr	r3, [pc, #76]	; (8012c5c <comm_can_init+0x9c>)
 8012c0e:	4814      	ldr	r0, [pc, #80]	; (8012c60 <comm_can_init+0xa0>)
 8012c10:	2241      	movs	r2, #65	; 0x41
 8012c12:	f44f 7166 	mov.w	r1, #920	; 0x398
 8012c16:	f7fa fb23 	bl	800d260 <chThdCreateStatic>
 8012c1a:	9400      	str	r4, [sp, #0]
 8012c1c:	4b11      	ldr	r3, [pc, #68]	; (8012c64 <comm_can_init+0xa4>)
 8012c1e:	4812      	ldr	r0, [pc, #72]	; (8012c68 <comm_can_init+0xa8>)
 8012c20:	2240      	movs	r2, #64	; 0x40
 8012c22:	f44f 61b3 	mov.w	r1, #1432	; 0x598
 8012c26:	f7fa fb1b 	bl	800d260 <chThdCreateStatic>
 8012c2a:	9400      	str	r4, [sp, #0]
 8012c2c:	4b0f      	ldr	r3, [pc, #60]	; (8012c6c <comm_can_init+0xac>)
 8012c2e:	4810      	ldr	r0, [pc, #64]	; (8012c70 <comm_can_init+0xb0>)
 8012c30:	2240      	movs	r2, #64	; 0x40
 8012c32:	f241 1198 	movw	r1, #4504	; 0x1198
 8012c36:	f7fa fb13 	bl	800d260 <chThdCreateStatic>
 8012c3a:	b002      	add	sp, #8
 8012c3c:	bd10      	pop	{r4, pc}
 8012c3e:	bf00      	nop
 8012c40:	200041fc 	.word	0x200041fc
 8012c44:	200041f8 	.word	0x200041f8
 8012c48:	200041f4 	.word	0x200041f4
 8012c4c:	20002714 	.word	0x20002714
 8012c50:	40020400 	.word	0x40020400
 8012c54:	08016f10 	.word	0x08016f10
 8012c58:	20000f94 	.word	0x20000f94
 8012c5c:	08012b21 	.word	0x08012b21
 8012c60:	200038c0 	.word	0x200038c0
 8012c64:	08012af1 	.word	0x08012af1
 8012c68:	20003c58 	.word	0x20003c58
 8012c6c:	08012a91 	.word	0x08012a91
 8012c70:	20002728 	.word	0x20002728
	...

08012c80 <serial_read_thread>:


// Private functions
int usb_uart_printf( const char *fmt, ...);

static THD_FUNCTION(serial_read_thread, arg) {
 8012c80:	e92d 43f0 	stmdb	sp!, {r4, r5, r6, r7, r8, r9, lr}
 * @api
 */
static inline void chRegSetThreadName(const char *name) {

#if CH_CFG_USE_REGISTRY == TRUE
  ch.rlist.r_current->p_name = name;
 8012c84:	4b15      	ldr	r3, [pc, #84]	; (8012cdc <serial_read_thread+0x5c>)
 8012c86:	4e16      	ldr	r6, [pc, #88]	; (8012ce0 <serial_read_thread+0x60>)
 8012c88:	699b      	ldr	r3, [r3, #24]
 8012c8a:	4a16      	ldr	r2, [pc, #88]	; (8012ce4 <serial_read_thread+0x64>)
 8012c8c:	4d16      	ldr	r5, [pc, #88]	; (8012ce8 <serial_read_thread+0x68>)
 8012c8e:	f8df 905c 	ldr.w	r9, [pc, #92]	; 8012cec <serial_read_thread+0x6c>
 8012c92:	f8df 805c 	ldr.w	r8, [pc, #92]	; 8012cf0 <serial_read_thread+0x70>
 8012c96:	619a      	str	r2, [r3, #24]
 8012c98:	b0a1      	sub	sp, #132	; 0x84
	int len;
	int had_data = 0;

	for(;;) 
	{
		len = chSequentialStreamRead(&SDU1, (uint8_t*) buffer, 1);
 8012c9a:	4637      	mov	r7, r6
 8012c9c:	466c      	mov	r4, sp
 8012c9e:	6833      	ldr	r3, [r6, #0]
 8012ca0:	2201      	movs	r2, #1
 8012ca2:	685b      	ldr	r3, [r3, #4]
 8012ca4:	4621      	mov	r1, r4
 8012ca6:	4638      	mov	r0, r7
 8012ca8:	4798      	blx	r3

		for (i = 0;i < len;i++) 
 8012caa:	2800      	cmp	r0, #0
 8012cac:	ddf7      	ble.n	8012c9e <serial_read_thread+0x1e>
 8012cae:	682b      	ldr	r3, [r5, #0]
 8012cb0:	4622      	mov	r2, r4
		{
			serial_rx_buffer[serial_rx_write_pos++] = buffer[i];
 8012cb2:	f812 1b01 	ldrb.w	r1, [r2], #1
 8012cb6:	f809 1003 	strb.w	r1, [r9, r3]
 8012cba:	3301      	adds	r3, #1

			if (serial_rx_write_pos == SERIAL_RX_BUFFER_SIZE) 
			{
				serial_rx_write_pos = 0;
 8012cbc:	f5b3 6f00 	cmp.w	r3, #2048	; 0x800
		for (i = 0;i < len;i++) 
 8012cc0:	eba2 0104 	sub.w	r1, r2, r4
				serial_rx_write_pos = 0;
 8012cc4:	bf08      	it	eq
 8012cc6:	2300      	moveq	r3, #0
		for (i = 0;i < len;i++) 
 8012cc8:	4288      	cmp	r0, r1
 8012cca:	dcf2      	bgt.n	8012cb2 <serial_read_thread+0x32>
			had_data = 1;
		}

		if (had_data) 
		{
			chEvtSignal(process_rx_tp, (eventmask_t) 1);
 8012ccc:	2101      	movs	r1, #1
 8012cce:	f8d8 0000 	ldr.w	r0, [r8]
 8012cd2:	602b      	str	r3, [r5, #0]
 8012cd4:	f7fa fd04 	bl	800d6e0 <chEvtSignal>
 8012cd8:	e7e1      	b.n	8012c9e <serial_read_thread+0x1e>
 8012cda:	bf00      	nop
 8012cdc:	20000c90 	.word	0x20000c90
 8012ce0:	20006b40 	.word	0x20006b40
 8012ce4:	08016f70 	.word	0x08016f70
 8012ce8:	20005f9c 	.word	0x20005f9c
 8012cec:	20005798 	.word	0x20005798
 8012cf0:	2000424c 	.word	0x2000424c
	...

08012d00 <serial_write_thread>:
		}
	}
}


static THD_FUNCTION(serial_write_thread, arg) {
 8012d00:	e92d 4888 	stmdb	sp!, {r3, r7, fp, lr}
 8012d04:	4b15      	ldr	r3, [pc, #84]	; (8012d5c <serial_write_thread+0x5c>)
	(void)arg;

	chRegSetThreadName("USB-Serial write");

	process_tx_tp = chThdGetSelfX();
 8012d06:	4a16      	ldr	r2, [pc, #88]	; (8012d60 <serial_write_thread+0x60>)
 8012d08:	699b      	ldr	r3, [r3, #24]
 8012d0a:	4916      	ldr	r1, [pc, #88]	; (8012d64 <serial_write_thread+0x64>)
 8012d0c:	4d16      	ldr	r5, [pc, #88]	; (8012d68 <serial_write_thread+0x68>)
 8012d0e:	f8df 8060 	ldr.w	r8, [pc, #96]	; 8012d70 <serial_write_thread+0x70>
 8012d12:	4f16      	ldr	r7, [pc, #88]	; (8012d6c <serial_write_thread+0x6c>)
 8012d14:	f8df a05c 	ldr.w	sl, [pc, #92]	; 8012d74 <serial_write_thread+0x74>
 8012d18:	6199      	str	r1, [r3, #24]
 8012d1a:	6013      	str	r3, [r2, #0]
		{
			chSequentialStreamWrite(&SDU1, &serial_tx_buffer[serial_tx_read_pos++],1);

			if (serial_tx_read_pos == SERIAL_TX_BUFFER_SIZE) 
			{
				serial_tx_read_pos = 0;
 8012d1c:	f04f 0900 	mov.w	r9, #0
		chEvtWaitAny((eventmask_t) 1);
 8012d20:	2001      	movs	r0, #1
 8012d22:	f7fa fced 	bl	800d700 <chEvtWaitAny>
			chSequentialStreamWrite(&SDU1, &serial_tx_buffer[serial_tx_read_pos++],1);
 8012d26:	f8df b048 	ldr.w	fp, [pc, #72]	; 8012d70 <serial_write_thread+0x70>
 8012d2a:	682b      	ldr	r3, [r5, #0]
		while (serial_tx_read_pos != serial_tx_write_pos) 
 8012d2c:	f8da 6000 	ldr.w	r6, [sl]
 8012d30:	429e      	cmp	r6, r3
			chSequentialStreamWrite(&SDU1, &serial_tx_buffer[serial_tx_read_pos++],1);
 8012d32:	f103 0401 	add.w	r4, r3, #1
 8012d36:	eb07 0103 	add.w	r1, r7, r3
 8012d3a:	f04f 0201 	mov.w	r2, #1
 8012d3e:	4658      	mov	r0, fp
		while (serial_tx_read_pos != serial_tx_write_pos) 
 8012d40:	d0ee      	beq.n	8012d20 <serial_write_thread+0x20>
			chSequentialStreamWrite(&SDU1, &serial_tx_buffer[serial_tx_read_pos++],1);
 8012d42:	f8d8 3000 	ldr.w	r3, [r8]
 8012d46:	602c      	str	r4, [r5, #0]
 8012d48:	681b      	ldr	r3, [r3, #0]
 8012d4a:	4798      	blx	r3
			if (serial_tx_read_pos == SERIAL_TX_BUFFER_SIZE) 
 8012d4c:	682b      	ldr	r3, [r5, #0]
 8012d4e:	f5b3 6f00 	cmp.w	r3, #2048	; 0x800
				serial_tx_read_pos = 0;
 8012d52:	bf04      	itt	eq
 8012d54:	f8c5 9000 	streq.w	r9, [r5]
 8012d58:	2300      	moveq	r3, #0
 8012d5a:	e7e7      	b.n	8012d2c <serial_write_thread+0x2c>
 8012d5c:	20000c90 	.word	0x20000c90
 8012d60:	20004250 	.word	0x20004250
 8012d64:	08016f80 	.word	0x08016f80
 8012d68:	200067a0 	.word	0x200067a0
 8012d6c:	20005fa0 	.word	0x20005fa0
 8012d70:	20006b40 	.word	0x20006b40
 8012d74:	200067a4 	.word	0x200067a4
	...

08012d80 <serial_process_thread>:
 8012d80:	4b16      	ldr	r3, [pc, #88]	; (8012ddc <serial_process_thread+0x5c>)
	process_rx_tp = chThdGetSelfX();
 8012d82:	4a17      	ldr	r2, [pc, #92]	; (8012de0 <serial_process_thread+0x60>)
 8012d84:	699b      	ldr	r3, [r3, #24]
 8012d86:	4917      	ldr	r1, [pc, #92]	; (8012de4 <serial_process_thread+0x64>)
 8012d88:	4c17      	ldr	r4, [pc, #92]	; (8012de8 <serial_process_thread+0x68>)
 8012d8a:	f8df 8068 	ldr.w	r8, [pc, #104]	; 8012df4 <serial_process_thread+0x74>
			if( mavlink_msg_recv( 0, serial_rx_buffer[serial_rx_read_pos++] , &gMsg) )
 8012d8e:	4e17      	ldr	r6, [pc, #92]	; (8012dec <serial_process_thread+0x6c>)
static THD_FUNCTION(serial_process_thread, arg) {
 8012d90:	b580      	push	{r7, lr}
 8012d92:	4f17      	ldr	r7, [pc, #92]	; (8012df0 <serial_process_thread+0x70>)
 8012d94:	6199      	str	r1, [r3, #24]
	process_rx_tp = chThdGetSelfX();
 8012d96:	6013      	str	r3, [r2, #0]
			if( mavlink_msg_recv( 0, serial_rx_buffer[serial_rx_read_pos++] , &gMsg) )
 8012d98:	f04f 0900 	mov.w	r9, #0
		chEvtWaitAny((eventmask_t) 1);
 8012d9c:	2001      	movs	r0, #1
 8012d9e:	f7fa fcaf 	bl	800d700 <chEvtWaitAny>
 8012da2:	6823      	ldr	r3, [r4, #0]
		while (serial_rx_read_pos != serial_rx_write_pos) 
 8012da4:	e006      	b.n	8012db4 <serial_process_thread+0x34>
			if (serial_rx_read_pos == SERIAL_RX_BUFFER_SIZE) 
 8012da6:	6823      	ldr	r3, [r4, #0]
 8012da8:	f5b3 6f00 	cmp.w	r3, #2048	; 0x800
				serial_rx_read_pos = 0;
 8012dac:	bf04      	itt	eq
 8012dae:	f8c4 9000 	streq.w	r9, [r4]
 8012db2:	2300      	moveq	r3, #0
		while (serial_rx_read_pos != serial_rx_write_pos) 
 8012db4:	6839      	ldr	r1, [r7, #0]
 8012db6:	4299      	cmp	r1, r3
			if( mavlink_msg_recv( 0, serial_rx_buffer[serial_rx_read_pos++] , &gMsg) )
 8012db8:	f103 0501 	add.w	r5, r3, #1
 8012dbc:	4632      	mov	r2, r6
 8012dbe:	f04f 0000 	mov.w	r0, #0
		while (serial_rx_read_pos != serial_rx_write_pos) 
 8012dc2:	d0eb      	beq.n	8012d9c <serial_process_thread+0x1c>
			if( mavlink_msg_recv( 0, serial_rx_buffer[serial_rx_read_pos++] , &gMsg) )
 8012dc4:	f818 1003 	ldrb.w	r1, [r8, r3]
 8012dc8:	6025      	str	r5, [r4, #0]
 8012dca:	f7ff fb99 	bl	8012500 <mavlink_msg_recv>
 8012dce:	2800      	cmp	r0, #0
 8012dd0:	d0e9      	beq.n	8012da6 <serial_process_thread+0x26>
				mavlink_msg_process_vcp(&gMsg);
 8012dd2:	4630      	mov	r0, r6
 8012dd4:	f7ff fe3c 	bl	8012a50 <mavlink_msg_process_vcp>
 8012dd8:	e7e5      	b.n	8012da6 <serial_process_thread+0x26>
 8012dda:	bf00      	nop
 8012ddc:	20000c90 	.word	0x20000c90
 8012de0:	2000424c 	.word	0x2000424c
 8012de4:	08016f50 	.word	0x08016f50
 8012de8:	20005f98 	.word	0x20005f98
 8012dec:	2000218c 	.word	0x2000218c
 8012df0:	20005f9c 	.word	0x20005f9c
 8012df4:	20005798 	.word	0x20005798
	...

08012e00 <usb_serial_send>:
void usb_serial_send(uint8_t* buffer, uint16_t len)
{
		uint16_t i;
		int had_data = 0;

		for (i = 0;i < len;i++) 
 8012e00:	b1c9      	cbz	r1, 8012e36 <usb_serial_send+0x36>
{
 8012e02:	b470      	push	{r4, r5, r6}
 8012e04:	4e0c      	ldr	r6, [pc, #48]	; (8012e38 <usb_serial_send+0x38>)
 8012e06:	4d0d      	ldr	r5, [pc, #52]	; (8012e3c <usb_serial_send+0x3c>)
 8012e08:	6833      	ldr	r3, [r6, #0]
 8012e0a:	3901      	subs	r1, #1
 8012e0c:	fa10 f481 	uxtah	r4, r0, r1
 8012e10:	3801      	subs	r0, #1
		{
			serial_tx_buffer[serial_tx_write_pos++] = buffer[i];
 8012e12:	1c5a      	adds	r2, r3, #1
 8012e14:	f810 1f01 	ldrb.w	r1, [r0, #1]!
 8012e18:	54e9      	strb	r1, [r5, r3]

			if (serial_tx_write_pos == SERIAL_TX_BUFFER_SIZE) 
			{
				serial_tx_write_pos = 0;
 8012e1a:	f5b2 6f00 	cmp.w	r2, #2048	; 0x800
 8012e1e:	bf14      	ite	ne
 8012e20:	4613      	movne	r3, r2
 8012e22:	2300      	moveq	r3, #0
		for (i = 0;i < len;i++) 
 8012e24:	42a0      	cmp	r0, r4
 8012e26:	d1f4      	bne.n	8012e12 <usb_serial_send+0x12>
			had_data = 1;
		}

		if (had_data) 
		{
			chEvtSignal(process_tx_tp, (eventmask_t) 1);
 8012e28:	4a05      	ldr	r2, [pc, #20]	; (8012e40 <usb_serial_send+0x40>)
 8012e2a:	6033      	str	r3, [r6, #0]
 8012e2c:	6810      	ldr	r0, [r2, #0]
 8012e2e:	2101      	movs	r1, #1
			had_data = 0;
		}
}
 8012e30:	bc70      	pop	{r4, r5, r6}
			chEvtSignal(process_tx_tp, (eventmask_t) 1);
 8012e32:	f7fa bc55 	b.w	800d6e0 <chEvtSignal>
 8012e36:	4770      	bx	lr
 8012e38:	200067a4 	.word	0x200067a4
 8012e3c:	20005fa0 	.word	0x20005fa0
 8012e40:	20004250 	.word	0x20004250
	...

08012e50 <comm_usb_init>:


void comm_usb_init(void) {
 8012e50:	b510      	push	{r4, lr}
 8012e52:	b082      	sub	sp, #8
	comm_usb_serial_init();
 8012e54:	f000 f864 	bl	8012f20 <comm_usb_serial_init>
	chMtxObjectInit(&send_mutex);

//	oqObjectInit(&oq, obuf, SERIAL_BUFFERS_SIZE, NULL, NULL);

	// Threads
	chThdCreateStatic(serial_read_thread_wa, sizeof(serial_read_thread_wa), NORMALPRIO, serial_read_thread, NULL);
 8012e58:	2400      	movs	r4, #0
	chMtxObjectInit(&send_mutex);
 8012e5a:	480e      	ldr	r0, [pc, #56]	; (8012e94 <comm_usb_init+0x44>)
 8012e5c:	f7fa fb20 	bl	800d4a0 <chMtxObjectInit>
	chThdCreateStatic(serial_read_thread_wa, sizeof(serial_read_thread_wa), NORMALPRIO, serial_read_thread, NULL);
 8012e60:	9400      	str	r4, [sp, #0]
 8012e62:	4b0d      	ldr	r3, [pc, #52]	; (8012e98 <comm_usb_init+0x48>)
 8012e64:	480d      	ldr	r0, [pc, #52]	; (8012e9c <comm_usb_init+0x4c>)
 8012e66:	2240      	movs	r2, #64	; 0x40
 8012e68:	f44f 7166 	mov.w	r1, #920	; 0x398
 8012e6c:	f7fa f9f8 	bl	800d260 <chThdCreateStatic>
	chThdCreateStatic(serial_process_thread_wa, sizeof(serial_process_thread_wa), NORMALPRIO, serial_process_thread, NULL);
 8012e70:	9400      	str	r4, [sp, #0]
 8012e72:	4b0b      	ldr	r3, [pc, #44]	; (8012ea0 <comm_usb_init+0x50>)
 8012e74:	480b      	ldr	r0, [pc, #44]	; (8012ea4 <comm_usb_init+0x54>)
 8012e76:	2240      	movs	r2, #64	; 0x40
 8012e78:	f241 1198 	movw	r1, #4504	; 0x1198
 8012e7c:	f7fa f9f0 	bl	800d260 <chThdCreateStatic>
	chThdCreateStatic(serial_write_thread_wa, sizeof(serial_write_thread_wa), NORMALPRIO, serial_write_thread, NULL);
 8012e80:	9400      	str	r4, [sp, #0]
 8012e82:	4b09      	ldr	r3, [pc, #36]	; (8012ea8 <comm_usb_init+0x58>)
 8012e84:	4809      	ldr	r0, [pc, #36]	; (8012eac <comm_usb_init+0x5c>)
 8012e86:	2240      	movs	r2, #64	; 0x40
 8012e88:	f44f 7166 	mov.w	r1, #920	; 0x398
 8012e8c:	f7fa f9e8 	bl	800d260 <chThdCreateStatic>
}
 8012e90:	b002      	add	sp, #8
 8012e92:	bd10      	pop	{r4, pc}
 8012e94:	20004254 	.word	0x20004254
 8012e98:	08012c81 	.word	0x08012c81
 8012e9c:	20005400 	.word	0x20005400
 8012ea0:	08012d81 	.word	0x08012d81
 8012ea4:	20004268 	.word	0x20004268
 8012ea8:	08012d01 	.word	0x08012d01
 8012eac:	200067a8 	.word	0x200067a8

08012eb0 <get_descriptor>:
 8012eb0:	2902      	cmp	r1, #2
 8012eb2:	d006      	beq.n	8012ec2 <get_descriptor+0x12>
 8012eb4:	2903      	cmp	r1, #3
 8012eb6:	d006      	beq.n	8012ec6 <get_descriptor+0x16>
 8012eb8:	2901      	cmp	r1, #1
 8012eba:	4806      	ldr	r0, [pc, #24]	; (8012ed4 <get_descriptor+0x24>)
 8012ebc:	bf18      	it	ne
 8012ebe:	2000      	movne	r0, #0
 8012ec0:	4770      	bx	lr
 8012ec2:	4805      	ldr	r0, [pc, #20]	; (8012ed8 <get_descriptor+0x28>)
 8012ec4:	4770      	bx	lr
 8012ec6:	2a03      	cmp	r2, #3
 8012ec8:	bf9a      	itte	ls
 8012eca:	4804      	ldrls	r0, [pc, #16]	; (8012edc <get_descriptor+0x2c>)
 8012ecc:	eb00 00c2 	addls.w	r0, r0, r2, lsl #3
 8012ed0:	2000      	movhi	r0, #0
 8012ed2:	4770      	bx	lr
 8012ed4:	08017080 	.word	0x08017080
 8012ed8:	08017020 	.word	0x08017020
 8012edc:	08017140 	.word	0x08017140

08012ee0 <usb_event>:
 8012ee0:	2902      	cmp	r1, #2
 8012ee2:	d115      	bne.n	8012f10 <usb_event+0x30>
 8012ee4:	b538      	push	{r3, r4, r5, lr}
 8012ee6:	4605      	mov	r5, r0
 8012ee8:	460c      	mov	r4, r1
 8012eea:	2320      	movs	r3, #32
 8012eec:	f383 8811 	msr	BASEPRI, r3
 8012ef0:	4a08      	ldr	r2, [pc, #32]	; (8012f14 <usb_event+0x34>)
 8012ef2:	2101      	movs	r1, #1
 8012ef4:	f7fb f94c 	bl	800e190 <usbInitEndpointI>
 8012ef8:	4621      	mov	r1, r4
 8012efa:	4628      	mov	r0, r5
 8012efc:	4a06      	ldr	r2, [pc, #24]	; (8012f18 <usb_event+0x38>)
 8012efe:	f7fb f947 	bl	800e190 <usbInitEndpointI>
 8012f02:	4806      	ldr	r0, [pc, #24]	; (8012f1c <usb_event+0x3c>)
 8012f04:	f7fb f81c 	bl	800df40 <sduConfigureHookI>
 8012f08:	2300      	movs	r3, #0
 8012f0a:	f383 8811 	msr	BASEPRI, r3
 8012f0e:	bd38      	pop	{r3, r4, r5, pc}
 8012f10:	4770      	bx	lr
 8012f12:	bf00      	nop
 8012f14:	08016fa0 	.word	0x08016fa0
 8012f18:	08016fd0 	.word	0x08016fd0
 8012f1c:	20006b40 	.word	0x20006b40

08012f20 <comm_usb_serial_init>:
 8012f20:	b538      	push	{r3, r4, r5, lr}
 8012f22:	4d0e      	ldr	r5, [pc, #56]	; (8012f5c <comm_usb_serial_init+0x3c>)
 8012f24:	4c0e      	ldr	r4, [pc, #56]	; (8012f60 <comm_usb_serial_init+0x40>)
 8012f26:	4628      	mov	r0, r5
 8012f28:	f7fa ffc2 	bl	800deb0 <sduObjectInit>
 8012f2c:	490d      	ldr	r1, [pc, #52]	; (8012f64 <comm_usb_serial_init+0x44>)
 8012f2e:	4628      	mov	r0, r5
 8012f30:	f7fa ffe6 	bl	800df00 <sduStart>
 8012f34:	6d22      	ldr	r2, [r4, #80]	; 0x50
 8012f36:	6b93      	ldr	r3, [r2, #56]	; 0x38
 8012f38:	f423 2300 	bic.w	r3, r3, #524288	; 0x80000
 8012f3c:	6393      	str	r3, [r2, #56]	; 0x38
 8012f3e:	f643 2098 	movw	r0, #15000	; 0x3a98
 8012f42:	f7fa f9c5 	bl	800d2d0 <chThdSleep>
 8012f46:	4620      	mov	r0, r4
 8012f48:	4907      	ldr	r1, [pc, #28]	; (8012f68 <comm_usb_serial_init+0x48>)
 8012f4a:	f7fb f909 	bl	800e160 <usbStart>
 8012f4e:	6d22      	ldr	r2, [r4, #80]	; 0x50
 8012f50:	6b93      	ldr	r3, [r2, #56]	; 0x38
 8012f52:	f443 2300 	orr.w	r3, r3, #524288	; 0x80000
 8012f56:	6393      	str	r3, [r2, #56]	; 0x38
 8012f58:	bd38      	pop	{r3, r4, r5, pc}
 8012f5a:	bf00      	nop
 8012f5c:	20006b40 	.word	0x20006b40
 8012f60:	20001000 	.word	0x20001000
 8012f64:	08017000 	.word	0x08017000
 8012f68:	08017010 	.word	0x08017010
 8012f6c:	00000000 	.word	0x00000000

08012f70 <icuperiodcb>:
 8012f70:	4770      	bx	lr
 8012f72:	bf00      	nop
	...

08012f80 <icuwidthcb>:
 8012f80:	6903      	ldr	r3, [r0, #16]
 8012f82:	eddf 6a40 	vldr	s13, [pc, #256]	; 8013084 <icuwidthcb+0x104>
 8012f86:	681b      	ldr	r3, [r3, #0]
 8012f88:	493f      	ldr	r1, [pc, #252]	; (8013088 <icuwidthcb+0x108>)
 8012f8a:	4a40      	ldr	r2, [pc, #256]	; (801308c <icuwidthcb+0x10c>)
 8012f8c:	4840      	ldr	r0, [pc, #256]	; (8013090 <icuwidthcb+0x110>)
 8012f8e:	3301      	adds	r3, #1
 8012f90:	ee07 3a90 	vmov	s15, r3
 8012f94:	eef8 7a67 	vcvt.f32.u32	s15, s15
 8012f98:	ee87 7aa6 	vdiv.f32	s14, s15, s13
 8012f9c:	ed81 7a00 	vstr	s14, [r1]
 8012fa0:	edd1 7a00 	vldr	s15, [r1]
 8012fa4:	ed92 6a00 	vldr	s12, [r2]
 8012fa8:	ed90 7a00 	vldr	s14, [r0]
 8012fac:	edd2 6a00 	vldr	s13, [r2]
 8012fb0:	ee77 7ac6 	vsub.f32	s15, s15, s12
 8012fb4:	ee37 7a66 	vsub.f32	s14, s14, s13
 8012fb8:	eef4 7ac7 	vcmpe.f32	s15, s14
 8012fbc:	eef1 fa10 	vmrs	APSR_nzcv, fpscr
 8012fc0:	dd30      	ble.n	8013024 <icuwidthcb+0xa4>
 8012fc2:	eddf 6a34 	vldr	s13, [pc, #208]	; 8013094 <icuwidthcb+0x114>
 8012fc6:	ee67 6a26 	vmul.f32	s13, s14, s13
 8012fca:	eef4 6ae7 	vcmpe.f32	s13, s15
 8012fce:	eef1 fa10 	vmrs	APSR_nzcv, fpscr
 8012fd2:	dd3c      	ble.n	801304e <icuwidthcb+0xce>
 8012fd4:	eef0 7a47 	vmov.f32	s15, s14
 8012fd8:	eef5 7ac0 	vcmpe.f32	s15, #0.0
 8012fdc:	eef1 fa10 	vmrs	APSR_nzcv, fpscr
 8012fe0:	db4e      	blt.n	8013080 <icuwidthcb+0x100>
 8012fe2:	ee77 7aa7 	vadd.f32	s15, s15, s15
 8012fe6:	b570      	push	{r4, r5, r6, lr}
 8012fe8:	4b2b      	ldr	r3, [pc, #172]	; (8013098 <icuwidthcb+0x118>)
 8012fea:	ee77 7ac7 	vsub.f32	s15, s15, s14
 8012fee:	781b      	ldrb	r3, [r3, #0]
 8012ff0:	ed2d 8b02 	vpush	{d8}
 8012ff4:	ee87 8a87 	vdiv.f32	s16, s15, s14
 8012ff8:	bb53      	cbnz	r3, 8013050 <icuwidthcb+0xd0>
 8012ffa:	4b28      	ldr	r3, [pc, #160]	; (801309c <icuwidthcb+0x11c>)
 8012ffc:	ed83 8a00 	vstr	s16, [r3]
 8013000:	2320      	movs	r3, #32
 8013002:	f383 8811 	msr	BASEPRI, r3
 8013006:	4a26      	ldr	r2, [pc, #152]	; (80130a0 <icuwidthcb+0x120>)
 8013008:	2300      	movs	r3, #0
 801300a:	6a91      	ldr	r1, [r2, #40]	; 0x28
 801300c:	f383 8811 	msr	BASEPRI, r3
 8013010:	4b24      	ldr	r3, [pc, #144]	; (80130a4 <icuwidthcb+0x124>)
 8013012:	4a25      	ldr	r2, [pc, #148]	; (80130a8 <icuwidthcb+0x128>)
 8013014:	681b      	ldr	r3, [r3, #0]
 8013016:	6011      	str	r1, [r2, #0]
 8013018:	b363      	cbz	r3, 8013074 <icuwidthcb+0xf4>
 801301a:	ecbd 8b02 	vpop	{d8}
 801301e:	e8bd 4070 	ldmia.w	sp!, {r4, r5, r6, lr}
 8013022:	4718      	bx	r3
 8013024:	eef5 7ac0 	vcmpe.f32	s15, #0.0
 8013028:	eef1 fa10 	vmrs	APSR_nzcv, fpscr
 801302c:	d5d4      	bpl.n	8012fd8 <icuwidthcb+0x58>
 801302e:	ed92 6a00 	vldr	s12, [r2]
 8013032:	eddf 5a1e 	vldr	s11, [pc, #120]	; 80130ac <icuwidthcb+0x12c>
 8013036:	edd2 6a00 	vldr	s13, [r2]
 801303a:	ee76 7a27 	vadd.f32	s15, s12, s15
 801303e:	ee66 6aa5 	vmul.f32	s13, s13, s11
 8013042:	eef4 7ae6 	vcmpe.f32	s15, s13
 8013046:	eef1 fa10 	vmrs	APSR_nzcv, fpscr
 801304a:	dc16      	bgt.n	801307a <icuwidthcb+0xfa>
 801304c:	4770      	bx	lr
 801304e:	4770      	bx	lr
 8013050:	4c17      	ldr	r4, [pc, #92]	; (80130b0 <icuwidthcb+0x130>)
 8013052:	4d18      	ldr	r5, [pc, #96]	; (80130b4 <icuwidthcb+0x134>)
 8013054:	edd4 0a00 	vldr	s1, [r4]
 8013058:	ed95 1a00 	vldr	s2, [r5]
 801305c:	eeb0 0a48 	vmov.f32	s0, s16
 8013060:	f000 fa56 	bl	8013510 <utils_middle_of_3>
 8013064:	4b0d      	ldr	r3, [pc, #52]	; (801309c <icuwidthcb+0x11c>)
 8013066:	6822      	ldr	r2, [r4, #0]
 8013068:	602a      	str	r2, [r5, #0]
 801306a:	ed84 8a00 	vstr	s16, [r4]
 801306e:	ed83 0a00 	vstr	s0, [r3]
 8013072:	e7c5      	b.n	8013000 <icuwidthcb+0x80>
 8013074:	ecbd 8b02 	vpop	{d8}
 8013078:	bd70      	pop	{r4, r5, r6, pc}
 801307a:	eddf 7a0f 	vldr	s15, [pc, #60]	; 80130b8 <icuwidthcb+0x138>
 801307e:	e7b2      	b.n	8012fe6 <icuwidthcb+0x66>
 8013080:	4770      	bx	lr
 8013082:	bf00      	nop
 8013084:	447a0000 	.word	0x447a0000
 8013088:	20006dd8 	.word	0x20006dd8
 801308c:	2000083c 	.word	0x2000083c
 8013090:	20000838 	.word	0x20000838
 8013094:	3f99999a 	.word	0x3f99999a
 8013098:	20006de4 	.word	0x20006de4
 801309c:	20006de0 	.word	0x20006de0
 80130a0:	20000c90 	.word	0x20000c90
 80130a4:	20006dd4 	.word	0x20006dd4
 80130a8:	20006ddc 	.word	0x20006ddc
 80130ac:	3f4ccccd 	.word	0x3f4ccccd
 80130b0:	20000814 	.word	0x20000814
 80130b4:	20000818 	.word	0x20000818
	...

080130c0 <servodec_init>:
 80130c0:	b538      	push	{r3, r4, r5, lr}
 80130c2:	4c0d      	ldr	r4, [pc, #52]	; (80130f8 <servodec_init+0x38>)
 80130c4:	490d      	ldr	r1, [pc, #52]	; (80130fc <servodec_init+0x3c>)
 80130c6:	4605      	mov	r5, r0
 80130c8:	4620      	mov	r0, r4
 80130ca:	f7fa fe11 	bl	800dcf0 <icuStart>
 80130ce:	f44f 7281 	mov.w	r2, #258	; 0x102
 80130d2:	2120      	movs	r1, #32
 80130d4:	480a      	ldr	r0, [pc, #40]	; (8013100 <servodec_init+0x40>)
 80130d6:	f7fc f933 	bl	800f340 <_pal_lld_setgroupmode>
 80130da:	4620      	mov	r0, r4
 80130dc:	f7fa fe18 	bl	800dd10 <icuStartCapture>
 80130e0:	4620      	mov	r0, r4
 80130e2:	f7fa fe25 	bl	800dd30 <icuEnableNotifications>
 80130e6:	4807      	ldr	r0, [pc, #28]	; (8013104 <servodec_init+0x44>)
 80130e8:	4907      	ldr	r1, [pc, #28]	; (8013108 <servodec_init+0x48>)
 80130ea:	4a08      	ldr	r2, [pc, #32]	; (801310c <servodec_init+0x4c>)
 80130ec:	6005      	str	r5, [r0, #0]
 80130ee:	2300      	movs	r3, #0
 80130f0:	600b      	str	r3, [r1, #0]
 80130f2:	6013      	str	r3, [r2, #0]
 80130f4:	bd38      	pop	{r3, r4, r5, pc}
 80130f6:	bf00      	nop
 80130f8:	200012d0 	.word	0x200012d0
 80130fc:	2000081c 	.word	0x2000081c
 8013100:	40020400 	.word	0x40020400
 8013104:	20006dd4 	.word	0x20006dd4
 8013108:	20006de0 	.word	0x20006de0
 801310c:	20006dd8 	.word	0x20006dd8

08013110 <servodec_set_pulse_options>:
 8013110:	4904      	ldr	r1, [pc, #16]	; (8013124 <servodec_set_pulse_options+0x14>)
 8013112:	4a05      	ldr	r2, [pc, #20]	; (8013128 <servodec_set_pulse_options+0x18>)
 8013114:	4b05      	ldr	r3, [pc, #20]	; (801312c <servodec_set_pulse_options+0x1c>)
 8013116:	ed81 0a00 	vstr	s0, [r1]
 801311a:	edc2 0a00 	vstr	s1, [r2]
 801311e:	7018      	strb	r0, [r3, #0]
 8013120:	4770      	bx	lr
 8013122:	bf00      	nop
 8013124:	2000083c 	.word	0x2000083c
 8013128:	20000838 	.word	0x20000838
 801312c:	20006de4 	.word	0x20006de4

08013130 <servodec_get_time_since_update>:
 8013130:	4b04      	ldr	r3, [pc, #16]	; (8013144 <servodec_get_time_since_update+0x14>)
 8013132:	4a05      	ldr	r2, [pc, #20]	; (8013148 <servodec_get_time_since_update+0x18>)
 8013134:	6812      	ldr	r2, [r2, #0]
 8013136:	6a98      	ldr	r0, [r3, #40]	; 0x28
 8013138:	4b04      	ldr	r3, [pc, #16]	; (801314c <servodec_get_time_since_update+0x1c>)
 801313a:	1a80      	subs	r0, r0, r2
 801313c:	fba3 3000 	umull	r3, r0, r3, r0
 8013140:	08c0      	lsrs	r0, r0, #3
 8013142:	4770      	bx	lr
 8013144:	20000c90 	.word	0x20000c90
 8013148:	20006ddc 	.word	0x20006ddc
 801314c:	cccccccd 	.word	0xcccccccd

08013150 <ledpwm_init>:
 8013150:	b570      	push	{r4, r5, r6, lr}
 8013152:	4b14      	ldr	r3, [pc, #80]	; (80131a4 <ledpwm_init+0x54>)
 8013154:	4d14      	ldr	r5, [pc, #80]	; (80131a8 <ledpwm_init+0x58>)
 8013156:	ed2d 8b02 	vpush	{d8}
 801315a:	2200      	movs	r2, #0
 801315c:	ed9f 8a13 	vldr	s16, [pc, #76]	; 80131ac <ledpwm_init+0x5c>
 8013160:	eddf 8a13 	vldr	s17, [pc, #76]	; 80131b0 <ledpwm_init+0x60>
 8013164:	601a      	str	r2, [r3, #0]
 8013166:	f105 06c9 	add.w	r6, r5, #201	; 0xc9
 801316a:	605a      	str	r2, [r3, #4]
 801316c:	462c      	mov	r4, r5
 801316e:	1b63      	subs	r3, r4, r5
 8013170:	ee00 3a10 	vmov	s0, r3
 8013174:	eeb8 0ac0 	vcvt.f32.s32	s0, s0
 8013178:	eef0 0a68 	vmov.f32	s1, s17
 801317c:	ee80 0a08 	vdiv.f32	s0, s0, s16
 8013180:	f002 fabe 	bl	8015700 <powf>
 8013184:	ee20 0a08 	vmul.f32	s0, s0, s16
 8013188:	f002 fc92 	bl	8015ab0 <roundf>
 801318c:	eefd 7ac0 	vcvt.s32.f32	s15, s0
 8013190:	ee17 3a90 	vmov	r3, s15
 8013194:	f804 3b01 	strb.w	r3, [r4], #1
 8013198:	42b4      	cmp	r4, r6
 801319a:	d1e8      	bne.n	801316e <ledpwm_init+0x1e>
 801319c:	ecbd 8b02 	vpop	{d8}
 80131a0:	bd70      	pop	{r4, r5, r6, pc}
 80131a2:	bf00      	nop
 80131a4:	20006eb4 	.word	0x20006eb4
 80131a8:	20006de8 	.word	0x20006de8
 80131ac:	43480000 	.word	0x43480000
 80131b0:	400e38e4 	.word	0x400e38e4
	...

080131c0 <EE_VerifyPageFullWriteVariable>:
 80131c0:	b538      	push	{r3, r4, r5, lr}
 80131c2:	4a1b      	ldr	r2, [pc, #108]	; (8013230 <EE_VerifyPageFullWriteVariable+0x70>)
 80131c4:	4b1b      	ldr	r3, [pc, #108]	; (8013234 <EE_VerifyPageFullWriteVariable+0x74>)
 80131c6:	8812      	ldrh	r2, [r2, #0]
 80131c8:	881b      	ldrh	r3, [r3, #0]
 80131ca:	b29c      	uxth	r4, r3
 80131cc:	b292      	uxth	r2, r2
 80131ce:	b9ec      	cbnz	r4, 801320c <EE_VerifyPageFullWriteVariable+0x4c>
 80131d0:	f64e 63ee 	movw	r3, #61166	; 0xeeee
 80131d4:	1ad3      	subs	r3, r2, r3
 80131d6:	bf18      	it	ne
 80131d8:	2301      	movne	r3, #1
 80131da:	f503 5400 	add.w	r4, r3, #8192	; 0x2000
 80131de:	4a16      	ldr	r2, [pc, #88]	; (8013238 <EE_VerifyPageFullWriteVariable+0x78>)
 80131e0:	3401      	adds	r4, #1
 80131e2:	3301      	adds	r3, #1
 80131e4:	03a4      	lsls	r4, r4, #14
 80131e6:	eb02 3283 	add.w	r2, r2, r3, lsl #14
 80131ea:	4294      	cmp	r4, r2
 80131ec:	d303      	bcc.n	80131f6 <EE_VerifyPageFullWriteVariable+0x36>
 80131ee:	e015      	b.n	801321c <EE_VerifyPageFullWriteVariable+0x5c>
 80131f0:	3404      	adds	r4, #4
 80131f2:	42a2      	cmp	r2, r4
 80131f4:	d912      	bls.n	801321c <EE_VerifyPageFullWriteVariable+0x5c>
 80131f6:	6823      	ldr	r3, [r4, #0]
 80131f8:	3301      	adds	r3, #1
 80131fa:	d1f9      	bne.n	80131f0 <EE_VerifyPageFullWriteVariable+0x30>
 80131fc:	4605      	mov	r5, r0
 80131fe:	4620      	mov	r0, r4
 8013200:	f001 fe86 	bl	8014f10 <FLASH_ProgramHalfWord>
 8013204:	2809      	cmp	r0, #9
 8013206:	d00d      	beq.n	8013224 <EE_VerifyPageFullWriteVariable+0x64>
 8013208:	b280      	uxth	r0, r0
 801320a:	bd38      	pop	{r3, r4, r5, pc}
 801320c:	b942      	cbnz	r2, 8013220 <EE_VerifyPageFullWriteVariable+0x60>
 801320e:	f64e 63ee 	movw	r3, #61166	; 0xeeee
 8013212:	1ae3      	subs	r3, r4, r3
 8013214:	fab3 f383 	clz	r3, r3
 8013218:	095b      	lsrs	r3, r3, #5
 801321a:	e7de      	b.n	80131da <EE_VerifyPageFullWriteVariable+0x1a>
 801321c:	2080      	movs	r0, #128	; 0x80
 801321e:	bd38      	pop	{r3, r4, r5, pc}
 8013220:	20ab      	movs	r0, #171	; 0xab
 8013222:	bd38      	pop	{r3, r4, r5, pc}
 8013224:	4629      	mov	r1, r5
 8013226:	1ca0      	adds	r0, r4, #2
 8013228:	f001 fe72 	bl	8014f10 <FLASH_ProgramHalfWord>
 801322c:	e7ec      	b.n	8013208 <EE_VerifyPageFullWriteVariable+0x48>
 801322e:	bf00      	nop
 8013230:	08004000 	.word	0x08004000
 8013234:	08008000 	.word	0x08008000
 8013238:	08003ffe 	.word	0x08003ffe
 801323c:	00000000 	.word	0x00000000

08013240 <EE_EraseSectorIfNotEmpty.constprop.1>:
 8013240:	b510      	push	{r4, lr}
 8013242:	4604      	mov	r4, r0
 8013244:	f000 f904 	bl	8013450 <flash_helper_get_sector_address>
 8013248:	f500 527f 	add.w	r2, r0, #16320	; 0x3fc0
 801324c:	323f      	adds	r2, #63	; 0x3f
 801324e:	3801      	subs	r0, #1
 8013250:	e001      	b.n	8013256 <EE_EraseSectorIfNotEmpty.constprop.1+0x16>
 8013252:	4290      	cmp	r0, r2
 8013254:	d009      	beq.n	801326a <EE_EraseSectorIfNotEmpty.constprop.1+0x2a>
 8013256:	f810 3f01 	ldrb.w	r3, [r0, #1]!
 801325a:	2bff      	cmp	r3, #255	; 0xff
 801325c:	d0f9      	beq.n	8013252 <EE_EraseSectorIfNotEmpty.constprop.1+0x12>
 801325e:	4620      	mov	r0, r4
 8013260:	2102      	movs	r1, #2
 8013262:	f001 fe15 	bl	8014e90 <FLASH_EraseSector>
 8013266:	b280      	uxth	r0, r0
 8013268:	bd10      	pop	{r4, pc}
 801326a:	2009      	movs	r0, #9
 801326c:	bd10      	pop	{r4, pc}
 801326e:	bf00      	nop

08013270 <EE_Format>:
 8013270:	b508      	push	{r3, lr}
 8013272:	2008      	movs	r0, #8
 8013274:	f7ff ffe4 	bl	8013240 <EE_EraseSectorIfNotEmpty.constprop.1>
 8013278:	b2c0      	uxtb	r0, r0
 801327a:	2809      	cmp	r0, #9
 801327c:	d000      	beq.n	8013280 <EE_Format+0x10>
 801327e:	bd08      	pop	{r3, pc}
 8013280:	2100      	movs	r1, #0
 8013282:	4805      	ldr	r0, [pc, #20]	; (8013298 <EE_Format+0x28>)
 8013284:	f001 fe44 	bl	8014f10 <FLASH_ProgramHalfWord>
 8013288:	2809      	cmp	r0, #9
 801328a:	d1f8      	bne.n	801327e <EE_Format+0xe>
 801328c:	2010      	movs	r0, #16
 801328e:	f7ff ffd7 	bl	8013240 <EE_EraseSectorIfNotEmpty.constprop.1>
 8013292:	b2c0      	uxtb	r0, r0
 8013294:	bd08      	pop	{r3, pc}
 8013296:	bf00      	nop
 8013298:	08004000 	.word	0x08004000
 801329c:	00000000 	.word	0x00000000

080132a0 <EE_ReadVariable>:
 80132a0:	4b14      	ldr	r3, [pc, #80]	; (80132f4 <EE_ReadVariable+0x54>)
 80132a2:	4a15      	ldr	r2, [pc, #84]	; (80132f8 <EE_ReadVariable+0x58>)
 80132a4:	881b      	ldrh	r3, [r3, #0]
 80132a6:	8812      	ldrh	r2, [r2, #0]
 80132a8:	b29b      	uxth	r3, r3
 80132aa:	b410      	push	{r4}
 80132ac:	b12b      	cbz	r3, 80132ba <EE_ReadVariable+0x1a>
 80132ae:	b292      	uxth	r2, r2
 80132b0:	b9da      	cbnz	r2, 80132ea <EE_ReadVariable+0x4a>
 80132b2:	4b12      	ldr	r3, [pc, #72]	; (80132fc <EE_ReadVariable+0x5c>)
 80132b4:	4c12      	ldr	r4, [pc, #72]	; (8013300 <EE_ReadVariable+0x60>)
 80132b6:	461a      	mov	r2, r3
 80132b8:	e002      	b.n	80132c0 <EE_ReadVariable+0x20>
 80132ba:	4b12      	ldr	r3, [pc, #72]	; (8013304 <EE_ReadVariable+0x64>)
 80132bc:	4c12      	ldr	r4, [pc, #72]	; (8013308 <EE_ReadVariable+0x68>)
 80132be:	461a      	mov	r2, r3
 80132c0:	8812      	ldrh	r2, [r2, #0]
 80132c2:	4290      	cmp	r0, r2
 80132c4:	d103      	bne.n	80132ce <EE_ReadVariable+0x2e>
 80132c6:	e009      	b.n	80132dc <EE_ReadVariable+0x3c>
 80132c8:	881a      	ldrh	r2, [r3, #0]
 80132ca:	4290      	cmp	r0, r2
 80132cc:	d006      	beq.n	80132dc <EE_ReadVariable+0x3c>
 80132ce:	3b04      	subs	r3, #4
 80132d0:	42a3      	cmp	r3, r4
 80132d2:	d8f9      	bhi.n	80132c8 <EE_ReadVariable+0x28>
 80132d4:	2001      	movs	r0, #1
 80132d6:	f85d 4b04 	ldr.w	r4, [sp], #4
 80132da:	4770      	bx	lr
 80132dc:	f833 3c02 	ldrh.w	r3, [r3, #-2]
 80132e0:	800b      	strh	r3, [r1, #0]
 80132e2:	2000      	movs	r0, #0
 80132e4:	f85d 4b04 	ldr.w	r4, [sp], #4
 80132e8:	4770      	bx	lr
 80132ea:	20ab      	movs	r0, #171	; 0xab
 80132ec:	f85d 4b04 	ldr.w	r4, [sp], #4
 80132f0:	4770      	bx	lr
 80132f2:	bf00      	nop
 80132f4:	08004000 	.word	0x08004000
 80132f8:	08008000 	.word	0x08008000
 80132fc:	0800bffe 	.word	0x0800bffe
 8013300:	08008002 	.word	0x08008002
 8013304:	08007ffe 	.word	0x08007ffe
 8013308:	08004002 	.word	0x08004002
 801330c:	00000000 	.word	0x00000000

08013310 <EE_Init>:
 8013310:	e92d 41f0 	stmdb	sp!, {r4, r5, r6, r7, r8, lr}
 8013314:	4d47      	ldr	r5, [pc, #284]	; (8013434 <EE_Init+0x124>)
 8013316:	4e48      	ldr	r6, [pc, #288]	; (8013438 <EE_Init+0x128>)
 8013318:	882c      	ldrh	r4, [r5, #0]
 801331a:	8833      	ldrh	r3, [r6, #0]
 801331c:	b2a4      	uxth	r4, r4
 801331e:	f64e 62ee 	movw	r2, #61166	; 0xeeee
 8013322:	4294      	cmp	r4, r2
 8013324:	b29b      	uxth	r3, r3
 8013326:	d048      	beq.n	80133ba <EE_Init+0xaa>
 8013328:	f64f 71ff 	movw	r1, #65535	; 0xffff
 801332c:	428c      	cmp	r4, r1
 801332e:	d035      	beq.n	801339c <EE_Init+0x8c>
 8013330:	b124      	cbz	r4, 801333c <EE_Init+0x2c>
 8013332:	f7ff ff9d 	bl	8013270 <EE_Format>
 8013336:	b280      	uxth	r0, r0
 8013338:	e8bd 81f0 	ldmia.w	sp!, {r4, r5, r6, r7, r8, pc}
 801333c:	2b00      	cmp	r3, #0
 801333e:	d0f8      	beq.n	8013332 <EE_Init+0x22>
 8013340:	428b      	cmp	r3, r1
 8013342:	d062      	beq.n	801340a <EE_Init+0xfa>
 8013344:	4d3d      	ldr	r5, [pc, #244]	; (801343c <EE_Init+0x12c>)
 8013346:	4f3e      	ldr	r7, [pc, #248]	; (8013440 <EE_Init+0x130>)
 8013348:	f8df 80f8 	ldr.w	r8, [pc, #248]	; 8013444 <EE_Init+0x134>
 801334c:	f04f 36ff 	mov.w	r6, #4294967295
 8013350:	f835 3b02 	ldrh.w	r3, [r5], #2
 8013354:	883a      	ldrh	r2, [r7, #0]
 8013356:	493b      	ldr	r1, [pc, #236]	; (8013444 <EE_Init+0x134>)
 8013358:	4293      	cmp	r3, r2
 801335a:	bf08      	it	eq
 801335c:	b226      	sxtheq	r6, r4
 801335e:	42b4      	cmp	r4, r6
 8013360:	4618      	mov	r0, r3
 8013362:	f104 0401 	add.w	r4, r4, #1
 8013366:	d00b      	beq.n	8013380 <EE_Init+0x70>
 8013368:	f7ff ff9a 	bl	80132a0 <EE_ReadVariable>
 801336c:	2801      	cmp	r0, #1
 801336e:	d007      	beq.n	8013380 <EE_Init+0x70>
 8013370:	f8b8 1000 	ldrh.w	r1, [r8]
 8013374:	f835 0c02 	ldrh.w	r0, [r5, #-2]
 8013378:	f7ff ff22 	bl	80131c0 <EE_VerifyPageFullWriteVariable>
 801337c:	2809      	cmp	r0, #9
 801337e:	d1db      	bne.n	8013338 <EE_Init+0x28>
 8013380:	2ca0      	cmp	r4, #160	; 0xa0
 8013382:	d1e5      	bne.n	8013350 <EE_Init+0x40>
 8013384:	2100      	movs	r1, #0
 8013386:	482c      	ldr	r0, [pc, #176]	; (8013438 <EE_Init+0x128>)
 8013388:	f001 fdc2 	bl	8014f10 <FLASH_ProgramHalfWord>
 801338c:	b280      	uxth	r0, r0
 801338e:	2809      	cmp	r0, #9
 8013390:	d1d2      	bne.n	8013338 <EE_Init+0x28>
 8013392:	2008      	movs	r0, #8
 8013394:	e8bd 41f0 	ldmia.w	sp!, {r4, r5, r6, r7, r8, lr}
 8013398:	f7ff bf52 	b.w	8013240 <EE_EraseSectorIfNotEmpty.constprop.1>
 801339c:	2b00      	cmp	r3, #0
 801339e:	d0f8      	beq.n	8013392 <EE_Init+0x82>
 80133a0:	4293      	cmp	r3, r2
 80133a2:	d1c6      	bne.n	8013332 <EE_Init+0x22>
 80133a4:	2008      	movs	r0, #8
 80133a6:	f7ff ff4b 	bl	8013240 <EE_EraseSectorIfNotEmpty.constprop.1>
 80133aa:	2809      	cmp	r0, #9
 80133ac:	d1c4      	bne.n	8013338 <EE_Init+0x28>
 80133ae:	4630      	mov	r0, r6
 80133b0:	2100      	movs	r1, #0
 80133b2:	f001 fdad 	bl	8014f10 <FLASH_ProgramHalfWord>
 80133b6:	b280      	uxth	r0, r0
 80133b8:	e7be      	b.n	8013338 <EE_Init+0x28>
 80133ba:	bb5b      	cbnz	r3, 8013414 <EE_Init+0x104>
 80133bc:	4d1f      	ldr	r5, [pc, #124]	; (801343c <EE_Init+0x12c>)
 80133be:	4e22      	ldr	r6, [pc, #136]	; (8013448 <EE_Init+0x138>)
 80133c0:	4f20      	ldr	r7, [pc, #128]	; (8013444 <EE_Init+0x134>)
 80133c2:	461c      	mov	r4, r3
 80133c4:	f04f 38ff 	mov.w	r8, #4294967295
 80133c8:	f835 3b02 	ldrh.w	r3, [r5], #2
 80133cc:	8832      	ldrh	r2, [r6, #0]
 80133ce:	491d      	ldr	r1, [pc, #116]	; (8013444 <EE_Init+0x134>)
 80133d0:	4293      	cmp	r3, r2
 80133d2:	bf08      	it	eq
 80133d4:	fa0f f884 	sxtheq.w	r8, r4
 80133d8:	4544      	cmp	r4, r8
 80133da:	4618      	mov	r0, r3
 80133dc:	f104 0401 	add.w	r4, r4, #1
 80133e0:	d00a      	beq.n	80133f8 <EE_Init+0xe8>
 80133e2:	f7ff ff5d 	bl	80132a0 <EE_ReadVariable>
 80133e6:	2801      	cmp	r0, #1
 80133e8:	d006      	beq.n	80133f8 <EE_Init+0xe8>
 80133ea:	8839      	ldrh	r1, [r7, #0]
 80133ec:	f835 0c02 	ldrh.w	r0, [r5, #-2]
 80133f0:	f7ff fee6 	bl	80131c0 <EE_VerifyPageFullWriteVariable>
 80133f4:	2809      	cmp	r0, #9
 80133f6:	d19f      	bne.n	8013338 <EE_Init+0x28>
 80133f8:	2ca0      	cmp	r4, #160	; 0xa0
 80133fa:	d1e5      	bne.n	80133c8 <EE_Init+0xb8>
 80133fc:	2100      	movs	r1, #0
 80133fe:	480d      	ldr	r0, [pc, #52]	; (8013434 <EE_Init+0x124>)
 8013400:	f001 fd86 	bl	8014f10 <FLASH_ProgramHalfWord>
 8013404:	b280      	uxth	r0, r0
 8013406:	2809      	cmp	r0, #9
 8013408:	d196      	bne.n	8013338 <EE_Init+0x28>
 801340a:	2010      	movs	r0, #16
 801340c:	e8bd 41f0 	ldmia.w	sp!, {r4, r5, r6, r7, r8, lr}
 8013410:	f7ff bf16 	b.w	8013240 <EE_EraseSectorIfNotEmpty.constprop.1>
 8013414:	f64f 72ff 	movw	r2, #65535	; 0xffff
 8013418:	4293      	cmp	r3, r2
 801341a:	d18a      	bne.n	8013332 <EE_Init+0x22>
 801341c:	2010      	movs	r0, #16
 801341e:	f7ff ff0f 	bl	8013240 <EE_EraseSectorIfNotEmpty.constprop.1>
 8013422:	2809      	cmp	r0, #9
 8013424:	d188      	bne.n	8013338 <EE_Init+0x28>
 8013426:	4628      	mov	r0, r5
 8013428:	2100      	movs	r1, #0
 801342a:	f001 fd71 	bl	8014f10 <FLASH_ProgramHalfWord>
 801342e:	b280      	uxth	r0, r0
 8013430:	e782      	b.n	8013338 <EE_Init+0x28>
 8013432:	bf00      	nop
 8013434:	08004000 	.word	0x08004000
 8013438:	08008000 	.word	0x08008000
 801343c:	20007268 	.word	0x20007268
 8013440:	08008006 	.word	0x08008006
 8013444:	20006ebc 	.word	0x20006ebc
 8013448:	08004006 	.word	0x08004006
 801344c:	00000000 	.word	0x00000000

08013450 <flash_helper_get_sector_address>:
 8013450:	2200      	movs	r2, #0
 8013452:	4908      	ldr	r1, [pc, #32]	; (8013474 <flash_helper_get_sector_address+0x24>)
 8013454:	4613      	mov	r3, r2
 8013456:	e001      	b.n	801345c <flash_helper_get_sector_address+0xc>
 8013458:	f831 2f02 	ldrh.w	r2, [r1, #2]!
 801345c:	4282      	cmp	r2, r0
 801345e:	d004      	beq.n	801346a <flash_helper_get_sector_address+0x1a>
 8013460:	3301      	adds	r3, #1
 8013462:	2b0c      	cmp	r3, #12
 8013464:	d1f8      	bne.n	8013458 <flash_helper_get_sector_address+0x8>
 8013466:	2000      	movs	r0, #0
 8013468:	4770      	bx	lr
 801346a:	4a03      	ldr	r2, [pc, #12]	; (8013478 <flash_helper_get_sector_address+0x28>)
 801346c:	f852 0023 	ldr.w	r0, [r2, r3, lsl #2]
 8013470:	4770      	bx	lr
 8013472:	bf00      	nop
 8013474:	08017190 	.word	0x08017190
 8013478:	08017160 	.word	0x08017160
 801347c:	00000000 	.word	0x00000000

08013480 <Vector88>:
 8013480:	b508      	push	{r3, lr}
 8013482:	f240 2105 	movw	r1, #517	; 0x205
 8013486:	4803      	ldr	r0, [pc, #12]	; (8013494 <Vector88+0x14>)
 8013488:	f001 fc2a 	bl	8014ce0 <ADC_ClearITPendingBit>
 801348c:	e8bd 4008 	ldmia.w	sp!, {r3, lr}
 8013490:	f7fa baf6 	b.w	800da80 <_port_irq_epilogue>
 8013494:	40012000 	.word	0x40012000
	...

080134a0 <VectorE0>:
 80134a0:	b508      	push	{r3, lr}
 80134a2:	f44f 6000 	mov.w	r0, #2048	; 0x800
 80134a6:	f001 fc93 	bl	8014dd0 <EXTI_GetITStatus>
 80134aa:	b900      	cbnz	r0, 80134ae <VectorE0+0xe>
 80134ac:	bd08      	pop	{r3, pc}
 80134ae:	f7fe fe37 	bl	8012120 <encoder_reset>
 80134b2:	f44f 6000 	mov.w	r0, #2048	; 0x800
 80134b6:	e8bd 4008 	ldmia.w	sp!, {r3, lr}
 80134ba:	f001 bc91 	b.w	8014de0 <EXTI_ClearITPendingBit>
 80134be:	bf00      	nop

080134c0 <VectorB8>:
 80134c0:	b508      	push	{r3, lr}
 80134c2:	2101      	movs	r1, #1
 80134c4:	4806      	ldr	r0, [pc, #24]	; (80134e0 <VectorB8+0x20>)
 80134c6:	f002 f84b 	bl	8015560 <TIM_GetITStatus>
 80134ca:	b900      	cbnz	r0, 80134ce <VectorB8+0xe>
 80134cc:	bd08      	pop	{r3, pc}
 80134ce:	f7fe fe37 	bl	8012140 <encoder_tim_isr>
 80134d2:	2101      	movs	r1, #1
 80134d4:	4802      	ldr	r0, [pc, #8]	; (80134e0 <VectorB8+0x20>)
 80134d6:	e8bd 4008 	ldmia.w	sp!, {r3, lr}
 80134da:	f002 b851 	b.w	8015580 <TIM_ClearITPendingBit>
 80134de:	bf00      	nop
 80134e0:	40000800 	.word	0x40000800
	...

080134f0 <VectorF8>:
 80134f0:	b508      	push	{r3, lr}
 80134f2:	2102      	movs	r1, #2
 80134f4:	4805      	ldr	r0, [pc, #20]	; (801350c <VectorF8+0x1c>)
 80134f6:	f002 f833 	bl	8015560 <TIM_GetITStatus>
 80134fa:	b900      	cbnz	r0, 80134fe <VectorF8+0xe>
 80134fc:	bd08      	pop	{r3, pc}
 80134fe:	2102      	movs	r1, #2
 8013500:	4802      	ldr	r0, [pc, #8]	; (801350c <VectorF8+0x1c>)
 8013502:	e8bd 4008 	ldmia.w	sp!, {r3, lr}
 8013506:	f002 b83b 	b.w	8015580 <TIM_ClearITPendingBit>
 801350a:	bf00      	nop
 801350c:	40010400 	.word	0x40010400

08013510 <utils_middle_of_3>:
 8013510:	eeb4 0ae0 	vcmpe.f32	s0, s1
 8013514:	eef1 fa10 	vmrs	APSR_nzcv, fpscr
 8013518:	d80e      	bhi.n	8013538 <utils_middle_of_3+0x28>
 801351a:	eeb4 0ac1 	vcmpe.f32	s0, s2
 801351e:	eef1 fa10 	vmrs	APSR_nzcv, fpscr
 8013522:	d81f      	bhi.n	8013564 <utils_middle_of_3+0x54>
 8013524:	eef4 0ac1 	vcmpe.f32	s1, s2
 8013528:	eef1 fa10 	vmrs	APSR_nzcv, fpscr
 801352c:	bf8c      	ite	hi
 801352e:	eeb0 0a41 	vmovhi.f32	s0, s2
 8013532:	eeb0 0a60 	vmovls.f32	s0, s1
 8013536:	4770      	bx	lr
 8013538:	db0c      	blt.n	8013554 <utils_middle_of_3+0x44>
 801353a:	eef4 0ac1 	vcmpe.f32	s1, s2
 801353e:	eef1 fa10 	vmrs	APSR_nzcv, fpscr
 8013542:	d807      	bhi.n	8013554 <utils_middle_of_3+0x44>
 8013544:	eeb4 0ac1 	vcmpe.f32	s0, s2
 8013548:	eef1 fa10 	vmrs	APSR_nzcv, fpscr
 801354c:	bf88      	it	hi
 801354e:	eeb0 0a41 	vmovhi.f32	s0, s2
 8013552:	4770      	bx	lr
 8013554:	eeb4 0ae0 	vcmpe.f32	s0, s1
 8013558:	eef1 fa10 	vmrs	APSR_nzcv, fpscr
 801355c:	bf88      	it	hi
 801355e:	eeb0 0a60 	vmovhi.f32	s0, s1
 8013562:	4770      	bx	lr
 8013564:	eeb4 0ae0 	vcmpe.f32	s0, s1
 8013568:	eef1 fa10 	vmrs	APSR_nzcv, fpscr
 801356c:	db04      	blt.n	8013578 <utils_middle_of_3+0x68>
 801356e:	eef4 0ac1 	vcmpe.f32	s1, s2
 8013572:	eef1 fa10 	vmrs	APSR_nzcv, fpscr
 8013576:	d9e5      	bls.n	8013544 <utils_middle_of_3+0x34>
 8013578:	4770      	bx	lr
 801357a:	bf00      	nop
 801357c:	0000      	movs	r0, r0
	...

08013580 <utils_sys_lock_cnt>:
 8013580:	4b04      	ldr	r3, [pc, #16]	; (8013594 <utils_sys_lock_cnt+0x14>)
 8013582:	681a      	ldr	r2, [r3, #0]
 8013584:	b912      	cbnz	r2, 801358c <utils_sys_lock_cnt+0xc>
 8013586:	2220      	movs	r2, #32
 8013588:	f382 8811 	msr	BASEPRI, r2
 801358c:	681a      	ldr	r2, [r3, #0]
 801358e:	3201      	adds	r2, #1
 8013590:	601a      	str	r2, [r3, #0]
 8013592:	4770      	bx	lr
 8013594:	20006ec0 	.word	0x20006ec0
	...

080135a0 <utils_sys_unlock_cnt>:
 80135a0:	4b05      	ldr	r3, [pc, #20]	; (80135b8 <utils_sys_unlock_cnt+0x18>)
 80135a2:	681a      	ldr	r2, [r3, #0]
 80135a4:	b132      	cbz	r2, 80135b4 <utils_sys_unlock_cnt+0x14>
 80135a6:	681a      	ldr	r2, [r3, #0]
 80135a8:	3a01      	subs	r2, #1
 80135aa:	601a      	str	r2, [r3, #0]
 80135ac:	681b      	ldr	r3, [r3, #0]
 80135ae:	b90b      	cbnz	r3, 80135b4 <utils_sys_unlock_cnt+0x14>
 80135b0:	f383 8811 	msr	BASEPRI, r3
 80135b4:	4770      	bx	lr
 80135b6:	bf00      	nop
 80135b8:	20006ec0 	.word	0x20006ec0
 80135bc:	00000000 	.word	0x00000000

080135c0 <timeout_thread>:
 80135c0:	b580      	push	{r7, lr}
 80135c2:	4f13      	ldr	r7, [pc, #76]	; (8013610 <timeout_thread+0x50>)
 80135c4:	4a13      	ldr	r2, [pc, #76]	; (8013614 <timeout_thread+0x54>)
 80135c6:	69bb      	ldr	r3, [r7, #24]
 80135c8:	4c13      	ldr	r4, [pc, #76]	; (8013618 <timeout_thread+0x58>)
 80135ca:	f8df a054 	ldr.w	sl, [pc, #84]	; 8013620 <timeout_thread+0x60>
 80135ce:	4d13      	ldr	r5, [pc, #76]	; (801361c <timeout_thread+0x5c>)
 80135d0:	f8df 9050 	ldr.w	r9, [pc, #80]	; 8013624 <timeout_thread+0x64>
 80135d4:	619a      	str	r2, [r3, #24]
 80135d6:	2600      	movs	r6, #0
 80135d8:	f242 7810 	movw	r8, #10000	; 0x2710
 80135dc:	e013      	b.n	8013606 <timeout_thread+0x46>
 80135de:	f8da 1000 	ldr.w	r1, [sl]
 80135e2:	6aba      	ldr	r2, [r7, #40]	; 0x28
 80135e4:	6823      	ldr	r3, [r4, #0]
 80135e6:	fb08 f303 	mul.w	r3, r8, r3
 80135ea:	f203 33e7 	addw	r3, r3, #999	; 0x3e7
 80135ee:	1a52      	subs	r2, r2, r1
 80135f0:	fba9 1303 	umull	r1, r3, r9, r3
 80135f4:	ebb2 1f93 	cmp.w	r2, r3, lsr #6
 80135f8:	f04f 0301 	mov.w	r3, #1
 80135fc:	d906      	bls.n	801360c <timeout_thread+0x4c>
 80135fe:	702b      	strb	r3, [r5, #0]
 8013600:	2064      	movs	r0, #100	; 0x64
 8013602:	f7f9 fe65 	bl	800d2d0 <chThdSleep>
 8013606:	6823      	ldr	r3, [r4, #0]
 8013608:	2b00      	cmp	r3, #0
 801360a:	d1e8      	bne.n	80135de <timeout_thread+0x1e>
 801360c:	702e      	strb	r6, [r5, #0]
 801360e:	e7f7      	b.n	8013600 <timeout_thread+0x40>
 8013610:	20000c90 	.word	0x20000c90
 8013614:	080171b0 	.word	0x080171b0
 8013618:	20006ecc 	.word	0x20006ecc
 801361c:	20006ec4 	.word	0x20006ec4
 8013620:	20006ec8 	.word	0x20006ec8
 8013624:	10624dd3 	.word	0x10624dd3
	...

08013630 <timeout_configure>:
 8013630:	4b01      	ldr	r3, [pc, #4]	; (8013638 <timeout_configure+0x8>)
 8013632:	6018      	str	r0, [r3, #0]
 8013634:	4770      	bx	lr
 8013636:	bf00      	nop
 8013638:	20006ecc 	.word	0x20006ecc
 801363c:	00000000 	.word	0x00000000

08013640 <timeout_reset>:
 8013640:	4a02      	ldr	r2, [pc, #8]	; (801364c <timeout_reset+0xc>)
 8013642:	4b03      	ldr	r3, [pc, #12]	; (8013650 <timeout_reset+0x10>)
 8013644:	6a92      	ldr	r2, [r2, #40]	; 0x28
 8013646:	601a      	str	r2, [r3, #0]
 8013648:	4770      	bx	lr
 801364a:	bf00      	nop
 801364c:	20000c90 	.word	0x20000c90
 8013650:	20006ec8 	.word	0x20006ec8
	...

08013660 <timeout_has_timeout>:
 8013660:	4b01      	ldr	r3, [pc, #4]	; (8013668 <timeout_has_timeout+0x8>)
 8013662:	7818      	ldrb	r0, [r3, #0]
 8013664:	4770      	bx	lr
 8013666:	bf00      	nop
 8013668:	20006ec4 	.word	0x20006ec4
 801366c:	00000000 	.word	0x00000000

08013670 <timeout_get_timeout_msec>:
 8013670:	4b01      	ldr	r3, [pc, #4]	; (8013678 <timeout_get_timeout_msec+0x8>)
 8013672:	6818      	ldr	r0, [r3, #0]
 8013674:	4770      	bx	lr
 8013676:	bf00      	nop
 8013678:	20006ecc 	.word	0x20006ecc
 801367c:	00000000 	.word	0x00000000

08013680 <timeout_init>:
 8013680:	b530      	push	{r4, r5, lr}
 8013682:	4a0a      	ldr	r2, [pc, #40]	; (80136ac <timeout_init+0x2c>)
 8013684:	490a      	ldr	r1, [pc, #40]	; (80136b0 <timeout_init+0x30>)
 8013686:	4d0b      	ldr	r5, [pc, #44]	; (80136b4 <timeout_init+0x34>)
 8013688:	4b0b      	ldr	r3, [pc, #44]	; (80136b8 <timeout_init+0x38>)
 801368a:	480c      	ldr	r0, [pc, #48]	; (80136bc <timeout_init+0x3c>)
 801368c:	b083      	sub	sp, #12
 801368e:	f44f 747a 	mov.w	r4, #1000	; 0x3e8
 8013692:	6014      	str	r4, [r2, #0]
 8013694:	2400      	movs	r4, #0
 8013696:	9400      	str	r4, [sp, #0]
 8013698:	2240      	movs	r2, #64	; 0x40
 801369a:	600c      	str	r4, [r1, #0]
 801369c:	f44f 7166 	mov.w	r1, #920	; 0x398
 80136a0:	702c      	strb	r4, [r5, #0]
 80136a2:	f7f9 fddd 	bl	800d260 <chThdCreateStatic>
 80136a6:	b003      	add	sp, #12
 80136a8:	bd30      	pop	{r4, r5, pc}
 80136aa:	bf00      	nop
 80136ac:	20006ecc 	.word	0x20006ecc
 80136b0:	20006ec8 	.word	0x20006ec8
 80136b4:	20006ec4 	.word	0x20006ec4
 80136b8:	080135c1 	.word	0x080135c1
 80136bc:	20006ed0 	.word	0x20006ed0

080136c0 <conf_general_init>:
 80136c0:	b508      	push	{r3, lr}
 80136c2:	f44f 72a0 	mov.w	r2, #320	; 0x140
 80136c6:	2100      	movs	r1, #0
 80136c8:	4810      	ldr	r0, [pc, #64]	; (801370c <conf_general_init+0x4c>)
 80136ca:	f003 f989 	bl	80169e0 <memset>
 80136ce:	4a10      	ldr	r2, [pc, #64]	; (8013710 <conf_general_init+0x50>)
 80136d0:	f44f 737a 	mov.w	r3, #1000	; 0x3e8
 80136d4:	f102 01a0 	add.w	r1, r2, #160	; 0xa0
 80136d8:	f822 3f02 	strh.w	r3, [r2, #2]!
 80136dc:	3301      	adds	r3, #1
 80136de:	428a      	cmp	r2, r1
 80136e0:	b29b      	uxth	r3, r3
 80136e2:	d1f9      	bne.n	80136d8 <conf_general_init+0x18>
 80136e4:	4a0b      	ldr	r2, [pc, #44]	; (8013714 <conf_general_init+0x54>)
 80136e6:	f44f 63fa 	mov.w	r3, #2000	; 0x7d0
 80136ea:	f102 01a0 	add.w	r1, r2, #160	; 0xa0
 80136ee:	f822 3f02 	strh.w	r3, [r2, #2]!
 80136f2:	3301      	adds	r3, #1
 80136f4:	4291      	cmp	r1, r2
 80136f6:	b29b      	uxth	r3, r3
 80136f8:	d1f9      	bne.n	80136ee <conf_general_init+0x2e>
 80136fa:	f001 fb79 	bl	8014df0 <FLASH_Unlock>
 80136fe:	20f2      	movs	r0, #242	; 0xf2
 8013700:	f001 fb86 	bl	8014e10 <FLASH_ClearFlag>
 8013704:	e8bd 4008 	ldmia.w	sp!, {r3, lr}
 8013708:	f7ff be02 	b.w	8013310 <EE_Init>
 801370c:	20007268 	.word	0x20007268
 8013710:	20007266 	.word	0x20007266
 8013714:	20007306 	.word	0x20007306
	...

08013720 <conf_general_get_default_mc_configuration>:
 8013720:	b570      	push	{r4, r5, r6, lr}
 8013722:	22a8      	movs	r2, #168	; 0xa8
 8013724:	4604      	mov	r4, r0
 8013726:	2100      	movs	r1, #0
 8013728:	3020      	adds	r0, #32
 801372a:	f003 f959 	bl	80169e0 <memset>
 801372e:	4818      	ldr	r0, [pc, #96]	; (8013790 <conf_general_get_default_mc_configuration+0x70>)
 8013730:	4a18      	ldr	r2, [pc, #96]	; (8013794 <conf_general_get_default_mc_configuration+0x74>)
 8013732:	4919      	ldr	r1, [pc, #100]	; (8013798 <conf_general_get_default_mc_configuration+0x78>)
 8013734:	4b19      	ldr	r3, [pc, #100]	; (801379c <conf_general_get_default_mc_configuration+0x7c>)
 8013736:	6160      	str	r0, [r4, #20]
 8013738:	61e2      	str	r2, [r4, #28]
 801373a:	4819      	ldr	r0, [pc, #100]	; (80137a0 <conf_general_get_default_mc_configuration+0x80>)
 801373c:	4a19      	ldr	r2, [pc, #100]	; (80137a4 <conf_general_get_default_mc_configuration+0x84>)
 801373e:	4d1a      	ldr	r5, [pc, #104]	; (80137a8 <conf_general_get_default_mc_configuration+0x88>)
 8013740:	61a1      	str	r1, [r4, #24]
 8013742:	6263      	str	r3, [r4, #36]	; 0x24
 8013744:	4919      	ldr	r1, [pc, #100]	; (80137ac <conf_general_get_default_mc_configuration+0x8c>)
 8013746:	4b1a      	ldr	r3, [pc, #104]	; (80137b0 <conf_general_get_default_mc_configuration+0x90>)
 8013748:	6320      	str	r0, [r4, #48]	; 0x30
 801374a:	6562      	str	r2, [r4, #84]	; 0x54
 801374c:	4819      	ldr	r0, [pc, #100]	; (80137b4 <conf_general_get_default_mc_configuration+0x94>)
 801374e:	4e1a      	ldr	r6, [pc, #104]	; (80137b8 <conf_general_get_default_mc_configuration+0x98>)
 8013750:	62a5      	str	r5, [r4, #40]	; 0x28
 8013752:	2201      	movs	r2, #1
 8013754:	4d19      	ldr	r5, [pc, #100]	; (80137bc <conf_general_get_default_mc_configuration+0x9c>)
 8013756:	6360      	str	r0, [r4, #52]	; 0x34
 8013758:	6521      	str	r1, [r4, #80]	; 0x50
 801375a:	4819      	ldr	r0, [pc, #100]	; (80137c0 <conf_general_get_default_mc_configuration+0xa0>)
 801375c:	4919      	ldr	r1, [pc, #100]	; (80137c4 <conf_general_get_default_mc_configuration+0xa4>)
 801375e:	7022      	strb	r2, [r4, #0]
 8013760:	f884 203c 	strb.w	r2, [r4, #60]	; 0x3c
 8013764:	6063      	str	r3, [r4, #4]
 8013766:	2200      	movs	r2, #0
 8013768:	60e3      	str	r3, [r4, #12]
 801376a:	6623      	str	r3, [r4, #96]	; 0x60
 801376c:	66a3      	str	r3, [r4, #104]	; 0x68
 801376e:	f04f 4382 	mov.w	r3, #1090519040	; 0x41000000
 8013772:	7062      	strb	r2, [r4, #1]
 8013774:	70a2      	strb	r2, [r4, #2]
 8013776:	70e2      	strb	r2, [r4, #3]
 8013778:	60a6      	str	r6, [r4, #8]
 801377a:	6666      	str	r6, [r4, #100]	; 0x64
 801377c:	6125      	str	r5, [r4, #16]
 801377e:	66e5      	str	r5, [r4, #108]	; 0x6c
 8013780:	62e3      	str	r3, [r4, #44]	; 0x2c
 8013782:	63a3      	str	r3, [r4, #56]	; 0x38
 8013784:	6420      	str	r0, [r4, #64]	; 0x40
 8013786:	64a0      	str	r0, [r4, #72]	; 0x48
 8013788:	6461      	str	r1, [r4, #68]	; 0x44
 801378a:	64e1      	str	r1, [r4, #76]	; 0x4c
 801378c:	bd70      	pop	{r4, r5, r6, pc}
 801378e:	bf00      	nop
 8013790:	43020000 	.word	0x43020000
 8013794:	47c35000 	.word	0x47c35000
 8013798:	c7c35000 	.word	0xc7c35000
 801379c:	43960000 	.word	0x43960000
 80137a0:	42640000 	.word	0x42640000
 80137a4:	3f733333 	.word	0x3f733333
 80137a8:	44bb8000 	.word	0x44bb8000
 80137ac:	3ba3d70a 	.word	0x3ba3d70a
 80137b0:	42700000 	.word	0x42700000
 80137b4:	41200000 	.word	0x41200000
 80137b8:	c2700000 	.word	0xc2700000
 80137bc:	c2200000 	.word	0xc2200000
 80137c0:	42a00000 	.word	0x42a00000
 80137c4:	42c80000 	.word	0x42c80000
	...

080137d0 <conf_general_read_app_configuration>:
 80137d0:	b570      	push	{r4, r5, r6, lr}
 80137d2:	4606      	mov	r6, r0
 80137d4:	b082      	sub	sp, #8
 80137d6:	1c45      	adds	r5, r0, #1
 80137d8:	f44f 64fa 	mov.w	r4, #2000	; 0x7d0
 80137dc:	e00a      	b.n	80137f4 <conf_general_read_app_configuration+0x24>
 80137de:	f8bd 3006 	ldrh.w	r3, [sp, #6]
 80137e2:	f5b4 6f02 	cmp.w	r4, #2080	; 0x820
 80137e6:	ea4f 2213 	mov.w	r2, r3, lsr #8
 80137ea:	f805 2c01 	strb.w	r2, [r5, #-1]
 80137ee:	f805 3b02 	strb.w	r3, [r5], #2
 80137f2:	d010      	beq.n	8013816 <conf_general_read_app_configuration+0x46>
 80137f4:	4620      	mov	r0, r4
 80137f6:	f10d 0106 	add.w	r1, sp, #6
 80137fa:	f7ff fd51 	bl	80132a0 <EE_ReadVariable>
 80137fe:	3401      	adds	r4, #1
 8013800:	b2a4      	uxth	r4, r4
 8013802:	2800      	cmp	r0, #0
 8013804:	d0eb      	beq.n	80137de <conf_general_read_app_configuration+0xe>
 8013806:	4630      	mov	r0, r6
 8013808:	22a0      	movs	r2, #160	; 0xa0
 801380a:	2100      	movs	r1, #0
 801380c:	b002      	add	sp, #8
 801380e:	e8bd 4070 	ldmia.w	sp!, {r4, r5, r6, lr}
 8013812:	f003 b8e5 	b.w	80169e0 <memset>
 8013816:	b002      	add	sp, #8
 8013818:	bd70      	pop	{r4, r5, r6, pc}
 801381a:	bf00      	nop
 801381c:	0000      	movs	r0, r0
	...

08013820 <conf_general_read_mc_configuration>:
 8013820:	b5f0      	push	{r4, r5, r6, r7, lr}
 8013822:	4607      	mov	r7, r0
 8013824:	b083      	sub	sp, #12
 8013826:	1c45      	adds	r5, r0, #1
 8013828:	f44f 747a 	mov.w	r4, #1000	; 0x3e8
 801382c:	f240 464c 	movw	r6, #1100	; 0x44c
 8013830:	e009      	b.n	8013846 <conf_general_read_mc_configuration+0x26>
 8013832:	f8bd 3006 	ldrh.w	r3, [sp, #6]
 8013836:	42b4      	cmp	r4, r6
 8013838:	ea4f 2213 	mov.w	r2, r3, lsr #8
 801383c:	f805 2c01 	strb.w	r2, [r5, #-1]
 8013840:	f805 3b02 	strb.w	r3, [r5], #2
 8013844:	d016      	beq.n	8013874 <conf_general_read_mc_configuration+0x54>
 8013846:	4620      	mov	r0, r4
 8013848:	f10d 0106 	add.w	r1, sp, #6
 801384c:	f7ff fd28 	bl	80132a0 <EE_ReadVariable>
 8013850:	3401      	adds	r4, #1
 8013852:	b2a4      	uxth	r4, r4
 8013854:	2800      	cmp	r0, #0
 8013856:	d0ec      	beq.n	8013832 <conf_general_read_mc_configuration+0x12>
 8013858:	4909      	ldr	r1, [pc, #36]	; (8013880 <conf_general_read_mc_configuration+0x60>)
 801385a:	480a      	ldr	r0, [pc, #40]	; (8013884 <conf_general_read_mc_configuration+0x64>)
 801385c:	f7fd f9a0 	bl	8010ba0 <chvprintf>
 8013860:	4638      	mov	r0, r7
 8013862:	f7ff ff5d 	bl	8013720 <conf_general_get_default_mc_configuration>
 8013866:	78ba      	ldrb	r2, [r7, #2]
 8013868:	4907      	ldr	r1, [pc, #28]	; (8013888 <conf_general_read_mc_configuration+0x68>)
 801386a:	4806      	ldr	r0, [pc, #24]	; (8013884 <conf_general_read_mc_configuration+0x64>)
 801386c:	f7fd f998 	bl	8010ba0 <chvprintf>
 8013870:	b003      	add	sp, #12
 8013872:	bdf0      	pop	{r4, r5, r6, r7, pc}
 8013874:	4902      	ldr	r1, [pc, #8]	; (8013880 <conf_general_read_mc_configuration+0x60>)
 8013876:	4803      	ldr	r0, [pc, #12]	; (8013884 <conf_general_read_mc_configuration+0x64>)
 8013878:	f7fd f992 	bl	8010ba0 <chvprintf>
 801387c:	e7f3      	b.n	8013866 <conf_general_read_mc_configuration+0x46>
 801387e:	bf00      	nop
 8013880:	080171c8 	.word	0x080171c8
 8013884:	20006b40 	.word	0x20006b40
 8013888:	080171c0 	.word	0x080171c0
 801388c:	00000000 	.word	0x00000000

08013890 <crc16>:
 8013890:	b191      	cbz	r1, 80138b8 <crc16+0x28>
 8013892:	b470      	push	{r4, r5, r6}
 8013894:	4e09      	ldr	r6, [pc, #36]	; (80138bc <crc16+0x2c>)
 8013896:	1845      	adds	r5, r0, r1
 8013898:	2300      	movs	r3, #0
 801389a:	f810 2b01 	ldrb.w	r2, [r0], #1
 801389e:	f3c3 240f 	ubfx	r4, r3, #8, #16
 80138a2:	4062      	eors	r2, r4
 80138a4:	42a8      	cmp	r0, r5
 80138a6:	f836 1012 	ldrh.w	r1, [r6, r2, lsl #1]
 80138aa:	ea81 2303 	eor.w	r3, r1, r3, lsl #8
 80138ae:	b29b      	uxth	r3, r3
 80138b0:	d1f3      	bne.n	801389a <crc16+0xa>
 80138b2:	4618      	mov	r0, r3
 80138b4:	bc70      	pop	{r4, r5, r6}
 80138b6:	4770      	bx	lr
 80138b8:	4608      	mov	r0, r1
 80138ba:	4770      	bx	lr
 80138bc:	08017210 	.word	0x08017210

080138c0 <spi_sw_init>:
 80138c0:	b538      	push	{r3, r4, r5, lr}
 80138c2:	4d0f      	ldr	r5, [pc, #60]	; (8013900 <spi_sw_init+0x40>)
 80138c4:	782a      	ldrb	r2, [r5, #0]
 80138c6:	b102      	cbz	r2, 80138ca <spi_sw_init+0xa>
 80138c8:	bd38      	pop	{r3, r4, r5, pc}
 80138ca:	4c0e      	ldr	r4, [pc, #56]	; (8013904 <spi_sw_init+0x44>)
 80138cc:	2140      	movs	r1, #64	; 0x40
 80138ce:	4620      	mov	r0, r4
 80138d0:	f7fb fd36 	bl	800f340 <_pal_lld_setgroupmode>
 80138d4:	4620      	mov	r0, r4
 80138d6:	2201      	movs	r2, #1
 80138d8:	2110      	movs	r1, #16
 80138da:	f7fb fd31 	bl	800f340 <_pal_lld_setgroupmode>
 80138de:	4620      	mov	r0, r4
 80138e0:	2201      	movs	r2, #1
 80138e2:	2120      	movs	r1, #32
 80138e4:	f7fb fd2c 	bl	800f340 <_pal_lld_setgroupmode>
 80138e8:	2201      	movs	r2, #1
 80138ea:	2180      	movs	r1, #128	; 0x80
 80138ec:	4620      	mov	r0, r4
 80138ee:	f7fb fd27 	bl	800f340 <_pal_lld_setgroupmode>
 80138f2:	2110      	movs	r1, #16
 80138f4:	2220      	movs	r2, #32
 80138f6:	2301      	movs	r3, #1
 80138f8:	8321      	strh	r1, [r4, #24]
 80138fa:	8362      	strh	r2, [r4, #26]
 80138fc:	702b      	strb	r3, [r5, #0]
 80138fe:	bd38      	pop	{r3, r4, r5, pc}
 8013900:	200073a8 	.word	0x200073a8
 8013904:	40020000 	.word	0x40020000
	...

08013910 <spi_sw_transfer>:
 8013910:	e92d 43f0 	stmdb	sp!, {r4, r5, r6, r7, r8, r9, lr}
 8013914:	4c2d      	ldr	r4, [pc, #180]	; (80139cc <spi_sw_transfer+0xbc>)
 8013916:	b085      	sub	sp, #20
 8013918:	2300      	movs	r3, #0
 801391a:	2520      	movs	r5, #32
 801391c:	8365      	strh	r5, [r4, #26]
 801391e:	9301      	str	r3, [sp, #4]
 8013920:	9b01      	ldr	r3, [sp, #4]
 8013922:	2b04      	cmp	r3, #4
 8013924:	4690      	mov	r8, r2
 8013926:	dc06      	bgt.n	8013936 <spi_sw_transfer+0x26>
 8013928:	bf00      	nop
 801392a:	9b01      	ldr	r3, [sp, #4]
 801392c:	3301      	adds	r3, #1
 801392e:	9301      	str	r3, [sp, #4]
 8013930:	9b01      	ldr	r3, [sp, #4]
 8013932:	2b04      	cmp	r3, #4
 8013934:	ddf8      	ble.n	8013928 <spi_sw_transfer+0x18>
 8013936:	f1b8 0f00 	cmp.w	r8, #0
 801393a:	dd41      	ble.n	80139c0 <spi_sw_transfer+0xb0>
 801393c:	f04f 0e00 	mov.w	lr, #0
 8013940:	4e22      	ldr	r6, [pc, #136]	; (80139cc <spi_sw_transfer+0xbc>)
 8013942:	4672      	mov	r2, lr
 8013944:	f04f 0c20 	mov.w	ip, #32
 8013948:	2900      	cmp	r1, #0
 801394a:	d03c      	beq.n	80139c6 <spi_sw_transfer+0xb6>
 801394c:	f811 400e 	ldrb.w	r4, [r1, lr]
 8013950:	2708      	movs	r7, #8
 8013952:	2500      	movs	r5, #0
 8013954:	ea5f 19d4 	movs.w	r9, r4, lsr #7
 8013958:	bf14      	ite	ne
 801395a:	2300      	movne	r3, #0
 801395c:	f44f 0300 	moveq.w	r3, #8388608	; 0x800000
 8013960:	ea43 13c9 	orr.w	r3, r3, r9, lsl #7
 8013964:	61b3      	str	r3, [r6, #24]
 8013966:	9202      	str	r2, [sp, #8]
 8013968:	9b02      	ldr	r3, [sp, #8]
 801396a:	0064      	lsls	r4, r4, #1
 801396c:	2b04      	cmp	r3, #4
 801396e:	b2e4      	uxtb	r4, r4
 8013970:	dc06      	bgt.n	8013980 <spi_sw_transfer+0x70>
 8013972:	bf00      	nop
 8013974:	9b02      	ldr	r3, [sp, #8]
 8013976:	3301      	adds	r3, #1
 8013978:	9302      	str	r3, [sp, #8]
 801397a:	9b02      	ldr	r3, [sp, #8]
 801397c:	2b04      	cmp	r3, #4
 801397e:	ddf8      	ble.n	8013972 <spi_sw_transfer+0x62>
 8013980:	6933      	ldr	r3, [r6, #16]
 8013982:	f8a6 c018 	strh.w	ip, [r6, #24]
 8013986:	9203      	str	r2, [sp, #12]
 8013988:	065b      	lsls	r3, r3, #25
 801398a:	ea4f 0545 	mov.w	r5, r5, lsl #1
 801398e:	9b03      	ldr	r3, [sp, #12]
 8013990:	b2ed      	uxtb	r5, r5
 8013992:	bf48      	it	mi
 8013994:	f045 0501 	orrmi.w	r5, r5, #1
 8013998:	2b04      	cmp	r3, #4
 801399a:	dc06      	bgt.n	80139aa <spi_sw_transfer+0x9a>
 801399c:	bf00      	nop
 801399e:	9b03      	ldr	r3, [sp, #12]
 80139a0:	3301      	adds	r3, #1
 80139a2:	9303      	str	r3, [sp, #12]
 80139a4:	9b03      	ldr	r3, [sp, #12]
 80139a6:	2b04      	cmp	r3, #4
 80139a8:	ddf8      	ble.n	801399c <spi_sw_transfer+0x8c>
 80139aa:	3f01      	subs	r7, #1
 80139ac:	f8a6 c01a 	strh.w	ip, [r6, #26]
 80139b0:	d1d0      	bne.n	8013954 <spi_sw_transfer+0x44>
 80139b2:	b108      	cbz	r0, 80139b8 <spi_sw_transfer+0xa8>
 80139b4:	f800 500e 	strb.w	r5, [r0, lr]
 80139b8:	f10e 0e01 	add.w	lr, lr, #1
 80139bc:	45f0      	cmp	r8, lr
 80139be:	d1c3      	bne.n	8013948 <spi_sw_transfer+0x38>
 80139c0:	b005      	add	sp, #20
 80139c2:	e8bd 83f0 	ldmia.w	sp!, {r4, r5, r6, r7, r8, r9, pc}
 80139c6:	460c      	mov	r4, r1
 80139c8:	e7c2      	b.n	8013950 <spi_sw_transfer+0x40>
 80139ca:	bf00      	nop
 80139cc:	40020000 	.word	0x40020000

080139d0 <spi_sw_begin>:
 80139d0:	b082      	sub	sp, #8
 80139d2:	4a08      	ldr	r2, [pc, #32]	; (80139f4 <spi_sw_begin+0x24>)
 80139d4:	2300      	movs	r3, #0
 80139d6:	2110      	movs	r1, #16
 80139d8:	8351      	strh	r1, [r2, #26]
 80139da:	9301      	str	r3, [sp, #4]
 80139dc:	9b01      	ldr	r3, [sp, #4]
 80139de:	2b04      	cmp	r3, #4
 80139e0:	dc06      	bgt.n	80139f0 <spi_sw_begin+0x20>
 80139e2:	bf00      	nop
 80139e4:	9b01      	ldr	r3, [sp, #4]
 80139e6:	3301      	adds	r3, #1
 80139e8:	9301      	str	r3, [sp, #4]
 80139ea:	9b01      	ldr	r3, [sp, #4]
 80139ec:	2b04      	cmp	r3, #4
 80139ee:	ddf8      	ble.n	80139e2 <spi_sw_begin+0x12>
 80139f0:	b002      	add	sp, #8
 80139f2:	4770      	bx	lr
 80139f4:	40020000 	.word	0x40020000
	...

08013a00 <spi_sw_end>:
 8013a00:	b082      	sub	sp, #8
 8013a02:	2300      	movs	r3, #0
 8013a04:	9301      	str	r3, [sp, #4]
 8013a06:	9b01      	ldr	r3, [sp, #4]
 8013a08:	2b04      	cmp	r3, #4
 8013a0a:	dc06      	bgt.n	8013a1a <spi_sw_end+0x1a>
 8013a0c:	bf00      	nop
 8013a0e:	9b01      	ldr	r3, [sp, #4]
 8013a10:	3301      	adds	r3, #1
 8013a12:	9301      	str	r3, [sp, #4]
 8013a14:	9b01      	ldr	r3, [sp, #4]
 8013a16:	2b04      	cmp	r3, #4
 8013a18:	ddf8      	ble.n	8013a0c <spi_sw_end+0xc>
 8013a1a:	4b02      	ldr	r3, [pc, #8]	; (8013a24 <spi_sw_end+0x24>)
 8013a1c:	2210      	movs	r2, #16
 8013a1e:	831a      	strh	r2, [r3, #24]
 8013a20:	b002      	add	sp, #8
 8013a22:	4770      	bx	lr
 8013a24:	40020000 	.word	0x40020000
	...

08013a30 <rf_init>:
 8013a30:	f7ff bf46 	b.w	80138c0 <spi_sw_init>
	...

08013a40 <rf_write_tx_payload>:
 8013a40:	b570      	push	{r4, r5, r6, lr}
 8013a42:	b082      	sub	sp, #8
 8013a44:	ac02      	add	r4, sp, #8
 8013a46:	23a0      	movs	r3, #160	; 0xa0
 8013a48:	f804 3d01 	strb.w	r3, [r4, #-1]!
 8013a4c:	4605      	mov	r5, r0
 8013a4e:	460e      	mov	r6, r1
 8013a50:	f7ff ffbe 	bl	80139d0 <spi_sw_begin>
 8013a54:	4621      	mov	r1, r4
 8013a56:	2201      	movs	r2, #1
 8013a58:	2000      	movs	r0, #0
 8013a5a:	f7ff ff59 	bl	8013910 <spi_sw_transfer>
 8013a5e:	4632      	mov	r2, r6
 8013a60:	4629      	mov	r1, r5
 8013a62:	2000      	movs	r0, #0
 8013a64:	f7ff ff54 	bl	8013910 <spi_sw_transfer>
 8013a68:	f7ff ffca 	bl	8013a00 <spi_sw_end>
 8013a6c:	b002      	add	sp, #8
 8013a6e:	bd70      	pop	{r4, r5, r6, pc}

08013a70 <rf_write_tx_payload_no_ack>:
 8013a70:	b570      	push	{r4, r5, r6, lr}
 8013a72:	b082      	sub	sp, #8
 8013a74:	ac02      	add	r4, sp, #8
 8013a76:	23b0      	movs	r3, #176	; 0xb0
 8013a78:	f804 3d01 	strb.w	r3, [r4, #-1]!
 8013a7c:	4605      	mov	r5, r0
 8013a7e:	460e      	mov	r6, r1
 8013a80:	f7ff ffa6 	bl	80139d0 <spi_sw_begin>
 8013a84:	4621      	mov	r1, r4
 8013a86:	2201      	movs	r2, #1
 8013a88:	2000      	movs	r0, #0
 8013a8a:	f7ff ff41 	bl	8013910 <spi_sw_transfer>
 8013a8e:	4632      	mov	r2, r6
 8013a90:	4629      	mov	r1, r5
 8013a92:	2000      	movs	r0, #0
 8013a94:	f7ff ff3c 	bl	8013910 <spi_sw_transfer>
 8013a98:	f7ff ffb2 	bl	8013a00 <spi_sw_end>
 8013a9c:	b002      	add	sp, #8
 8013a9e:	bd70      	pop	{r4, r5, r6, pc}

08013aa0 <rf_flush_tx>:
 8013aa0:	b510      	push	{r4, lr}
 8013aa2:	b082      	sub	sp, #8
 8013aa4:	ac02      	add	r4, sp, #8
 8013aa6:	23e1      	movs	r3, #225	; 0xe1
 8013aa8:	f804 3d01 	strb.w	r3, [r4, #-1]!
 8013aac:	f7ff ff90 	bl	80139d0 <spi_sw_begin>
 8013ab0:	4621      	mov	r1, r4
 8013ab2:	2201      	movs	r2, #1
 8013ab4:	2000      	movs	r0, #0
 8013ab6:	f7ff ff2b 	bl	8013910 <spi_sw_transfer>
 8013aba:	f7ff ffa1 	bl	8013a00 <spi_sw_end>
 8013abe:	b002      	add	sp, #8
 8013ac0:	bd10      	pop	{r4, pc}
 8013ac2:	bf00      	nop
	...

08013ad0 <rf_flush_rx>:
 8013ad0:	b510      	push	{r4, lr}
 8013ad2:	b082      	sub	sp, #8
 8013ad4:	ac02      	add	r4, sp, #8
 8013ad6:	23e2      	movs	r3, #226	; 0xe2
 8013ad8:	f804 3d01 	strb.w	r3, [r4, #-1]!
 8013adc:	f7ff ff78 	bl	80139d0 <spi_sw_begin>
 8013ae0:	4621      	mov	r1, r4
 8013ae2:	2201      	movs	r2, #1
 8013ae4:	2000      	movs	r0, #0
 8013ae6:	f7ff ff13 	bl	8013910 <spi_sw_transfer>
 8013aea:	f7ff ff89 	bl	8013a00 <spi_sw_end>
 8013aee:	b002      	add	sp, #8
 8013af0:	bd10      	pop	{r4, pc}
 8013af2:	bf00      	nop
	...

08013b00 <rf_flush_all>:
 8013b00:	b508      	push	{r3, lr}
 8013b02:	f7ff ffe5 	bl	8013ad0 <rf_flush_rx>
 8013b06:	e8bd 4008 	ldmia.w	sp!, {r3, lr}
 8013b0a:	f7ff bfc9 	b.w	8013aa0 <rf_flush_tx>
 8013b0e:	bf00      	nop

08013b10 <rf_status>:
 8013b10:	b510      	push	{r4, lr}
 8013b12:	b082      	sub	sp, #8
 8013b14:	ac02      	add	r4, sp, #8
 8013b16:	23ff      	movs	r3, #255	; 0xff
 8013b18:	f804 3d01 	strb.w	r3, [r4, #-1]!
 8013b1c:	f7ff ff58 	bl	80139d0 <spi_sw_begin>
 8013b20:	4620      	mov	r0, r4
 8013b22:	4621      	mov	r1, r4
 8013b24:	2201      	movs	r2, #1
 8013b26:	f7ff fef3 	bl	8013910 <spi_sw_transfer>
 8013b2a:	f7ff ff69 	bl	8013a00 <spi_sw_end>
 8013b2e:	f89d 0007 	ldrb.w	r0, [sp, #7]
 8013b32:	b002      	add	sp, #8
 8013b34:	bd10      	pop	{r4, pc}
 8013b36:	bf00      	nop
	...

08013b40 <rf_write_reg>:
 8013b40:	b570      	push	{r4, r5, r6, lr}
 8013b42:	b082      	sub	sp, #8
 8013b44:	ac02      	add	r4, sp, #8
 8013b46:	f040 0020 	orr.w	r0, r0, #32
 8013b4a:	f804 0d01 	strb.w	r0, [r4, #-1]!
 8013b4e:	460d      	mov	r5, r1
 8013b50:	4616      	mov	r6, r2
 8013b52:	f7ff ff3d 	bl	80139d0 <spi_sw_begin>
 8013b56:	4621      	mov	r1, r4
 8013b58:	2201      	movs	r2, #1
 8013b5a:	2000      	movs	r0, #0
 8013b5c:	f7ff fed8 	bl	8013910 <spi_sw_transfer>
 8013b60:	4632      	mov	r2, r6
 8013b62:	4629      	mov	r1, r5
 8013b64:	2000      	movs	r0, #0
 8013b66:	f7ff fed3 	bl	8013910 <spi_sw_transfer>
 8013b6a:	f7ff ff49 	bl	8013a00 <spi_sw_end>
 8013b6e:	b002      	add	sp, #8
 8013b70:	bd70      	pop	{r4, r5, r6, pc}
 8013b72:	bf00      	nop
	...

08013b80 <rf_set_rx_addr>:
 8013b80:	300a      	adds	r0, #10
 8013b82:	f7ff bfdd 	b.w	8013b40 <rf_write_reg>
 8013b86:	bf00      	nop
	...

08013b90 <rf_set_tx_addr>:
 8013b90:	460a      	mov	r2, r1
 8013b92:	4601      	mov	r1, r0
 8013b94:	2010      	movs	r0, #16
 8013b96:	f7ff bfd3 	b.w	8013b40 <rf_write_reg>
 8013b9a:	bf00      	nop
 8013b9c:	0000      	movs	r0, r0
	...

08013ba0 <rf_set_address_width>:
 8013ba0:	b500      	push	{lr}
 8013ba2:	b083      	sub	sp, #12
 8013ba4:	a902      	add	r1, sp, #8
 8013ba6:	3001      	adds	r0, #1
 8013ba8:	f801 0d01 	strb.w	r0, [r1, #-1]!
 8013bac:	2201      	movs	r2, #1
 8013bae:	2003      	movs	r0, #3
 8013bb0:	f7ff ffc6 	bl	8013b40 <rf_write_reg>
 8013bb4:	b003      	add	sp, #12
 8013bb6:	f85d fb04 	ldr.w	pc, [sp], #4
 8013bba:	bf00      	nop
 8013bbc:	0000      	movs	r0, r0
	...

08013bc0 <rf_set_frequency>:
 8013bc0:	b500      	push	{lr}
 8013bc2:	b083      	sub	sp, #12
 8013bc4:	a902      	add	r1, sp, #8
 8013bc6:	3860      	subs	r0, #96	; 0x60
 8013bc8:	f000 007f 	and.w	r0, r0, #127	; 0x7f
 8013bcc:	f801 0d01 	strb.w	r0, [r1, #-1]!
 8013bd0:	2201      	movs	r2, #1
 8013bd2:	2005      	movs	r0, #5
 8013bd4:	f7ff ffb4 	bl	8013b40 <rf_write_reg>
 8013bd8:	b003      	add	sp, #12
 8013bda:	f85d fb04 	ldr.w	pc, [sp], #4
 8013bde:	bf00      	nop

08013be0 <rf_clear_irq>:
 8013be0:	b500      	push	{lr}
 8013be2:	b083      	sub	sp, #12
 8013be4:	a902      	add	r1, sp, #8
 8013be6:	2370      	movs	r3, #112	; 0x70
 8013be8:	f801 3d01 	strb.w	r3, [r1, #-1]!
 8013bec:	2201      	movs	r2, #1
 8013bee:	2007      	movs	r0, #7
 8013bf0:	f7ff ffa6 	bl	8013b40 <rf_write_reg>
 8013bf4:	b003      	add	sp, #12
 8013bf6:	f85d fb04 	ldr.w	pc, [sp], #4
 8013bfa:	bf00      	nop
 8013bfc:	0000      	movs	r0, r0
	...

08013c00 <rf_clear_maxrt_irq>:
 8013c00:	b500      	push	{lr}
 8013c02:	b083      	sub	sp, #12
 8013c04:	a902      	add	r1, sp, #8
 8013c06:	2310      	movs	r3, #16
 8013c08:	f801 3d01 	strb.w	r3, [r1, #-1]!
 8013c0c:	2201      	movs	r2, #1
 8013c0e:	2007      	movs	r0, #7
 8013c10:	f7ff ff96 	bl	8013b40 <rf_write_reg>
 8013c14:	b003      	add	sp, #12
 8013c16:	f85d fb04 	ldr.w	pc, [sp], #4
 8013c1a:	bf00      	nop
 8013c1c:	0000      	movs	r0, r0
	...

08013c20 <rf_write_reg_byte>:
 8013c20:	b500      	push	{lr}
 8013c22:	b083      	sub	sp, #12
 8013c24:	ab02      	add	r3, sp, #8
 8013c26:	2201      	movs	r2, #1
 8013c28:	f803 1d01 	strb.w	r1, [r3, #-1]!
 8013c2c:	4619      	mov	r1, r3
 8013c2e:	f7ff ff87 	bl	8013b40 <rf_write_reg>
 8013c32:	b003      	add	sp, #12
 8013c34:	f85d fb04 	ldr.w	pc, [sp], #4
	...

08013c40 <rf_read_reg>:
 8013c40:	b570      	push	{r4, r5, r6, lr}
 8013c42:	b082      	sub	sp, #8
 8013c44:	ac02      	add	r4, sp, #8
 8013c46:	460d      	mov	r5, r1
 8013c48:	f804 0d01 	strb.w	r0, [r4, #-1]!
 8013c4c:	4616      	mov	r6, r2
 8013c4e:	f7ff febf 	bl	80139d0 <spi_sw_begin>
 8013c52:	4621      	mov	r1, r4
 8013c54:	2201      	movs	r2, #1
 8013c56:	2000      	movs	r0, #0
 8013c58:	f7ff fe5a 	bl	8013910 <spi_sw_transfer>
 8013c5c:	4632      	mov	r2, r6
 8013c5e:	4628      	mov	r0, r5
 8013c60:	2100      	movs	r1, #0
 8013c62:	f7ff fe55 	bl	8013910 <spi_sw_transfer>
 8013c66:	f7ff fecb 	bl	8013a00 <spi_sw_end>
 8013c6a:	b002      	add	sp, #8
 8013c6c:	bd70      	pop	{r4, r5, r6, pc}
 8013c6e:	bf00      	nop

08013c70 <rf_set_speed>:
 8013c70:	b510      	push	{r4, lr}
 8013c72:	b082      	sub	sp, #8
 8013c74:	2201      	movs	r2, #1
 8013c76:	4604      	mov	r4, r0
 8013c78:	f10d 0107 	add.w	r1, sp, #7
 8013c7c:	2006      	movs	r0, #6
 8013c7e:	f7ff ffdf 	bl	8013c40 <rf_read_reg>
 8013c82:	f89d 2007 	ldrb.w	r2, [sp, #7]
 8013c86:	f002 03d7 	and.w	r3, r2, #215	; 0xd7
 8013c8a:	b184      	cbz	r4, 8013cae <rf_set_speed+0x3e>
 8013c8c:	2c02      	cmp	r4, #2
 8013c8e:	d00b      	beq.n	8013ca8 <rf_set_speed+0x38>
 8013c90:	4293      	cmp	r3, r2
 8013c92:	d007      	beq.n	8013ca4 <rf_set_speed+0x34>
 8013c94:	f10d 0107 	add.w	r1, sp, #7
 8013c98:	2201      	movs	r2, #1
 8013c9a:	2006      	movs	r0, #6
 8013c9c:	f88d 3007 	strb.w	r3, [sp, #7]
 8013ca0:	f7ff ff4e 	bl	8013b40 <rf_write_reg>
 8013ca4:	b002      	add	sp, #8
 8013ca6:	bd10      	pop	{r4, pc}
 8013ca8:	f043 0308 	orr.w	r3, r3, #8
 8013cac:	e7f0      	b.n	8013c90 <rf_set_speed+0x20>
 8013cae:	f043 0320 	orr.w	r3, r3, #32
 8013cb2:	e7ed      	b.n	8013c90 <rf_set_speed+0x20>
	...

08013cc0 <rf_set_power>:
 8013cc0:	b510      	push	{r4, lr}
 8013cc2:	b082      	sub	sp, #8
 8013cc4:	4604      	mov	r4, r0
 8013cc6:	2201      	movs	r2, #1
 8013cc8:	f10d 0107 	add.w	r1, sp, #7
 8013ccc:	2006      	movs	r0, #6
 8013cce:	f7ff ffb7 	bl	8013c40 <rf_read_reg>
 8013cd2:	f89d 2007 	ldrb.w	r2, [sp, #7]
 8013cd6:	f022 0307 	bic.w	r3, r2, #7
 8013cda:	ea43 0344 	orr.w	r3, r3, r4, lsl #1
 8013cde:	f003 03fe 	and.w	r3, r3, #254	; 0xfe
 8013ce2:	2c03      	cmp	r4, #3
 8013ce4:	bf08      	it	eq
 8013ce6:	f043 0301 	orreq.w	r3, r3, #1
 8013cea:	4293      	cmp	r3, r2
 8013cec:	d007      	beq.n	8013cfe <rf_set_power+0x3e>
 8013cee:	f10d 0107 	add.w	r1, sp, #7
 8013cf2:	2201      	movs	r2, #1
 8013cf4:	2006      	movs	r0, #6
 8013cf6:	f88d 3007 	strb.w	r3, [sp, #7]
 8013cfa:	f7ff ff21 	bl	8013b40 <rf_write_reg>
 8013cfe:	b002      	add	sp, #8
 8013d00:	bd10      	pop	{r4, pc}
 8013d02:	bf00      	nop
	...

08013d10 <rf_set_crc_type>:
 8013d10:	b510      	push	{r4, lr}
 8013d12:	b082      	sub	sp, #8
 8013d14:	4604      	mov	r4, r0
 8013d16:	2201      	movs	r2, #1
 8013d18:	f10d 0107 	add.w	r1, sp, #7
 8013d1c:	2000      	movs	r0, #0
 8013d1e:	f7ff ff8f 	bl	8013c40 <rf_read_reg>
 8013d22:	f89d 2007 	ldrb.w	r2, [sp, #7]
 8013d26:	2c01      	cmp	r4, #1
 8013d28:	f002 03f3 	and.w	r3, r2, #243	; 0xf3
 8013d2c:	d010      	beq.n	8013d50 <rf_set_crc_type+0x40>
 8013d2e:	2c02      	cmp	r4, #2
 8013d30:	d00b      	beq.n	8013d4a <rf_set_crc_type+0x3a>
 8013d32:	4293      	cmp	r3, r2
 8013d34:	d007      	beq.n	8013d46 <rf_set_crc_type+0x36>
 8013d36:	f10d 0107 	add.w	r1, sp, #7
 8013d3a:	2201      	movs	r2, #1
 8013d3c:	2000      	movs	r0, #0
 8013d3e:	f88d 3007 	strb.w	r3, [sp, #7]
 8013d42:	f7ff fefd 	bl	8013b40 <rf_write_reg>
 8013d46:	b002      	add	sp, #8
 8013d48:	bd10      	pop	{r4, pc}
 8013d4a:	f043 030c 	orr.w	r3, r3, #12
 8013d4e:	e7f0      	b.n	8013d32 <rf_set_crc_type+0x22>
 8013d50:	f043 0308 	orr.w	r3, r3, #8
 8013d54:	e7ed      	b.n	8013d32 <rf_set_crc_type+0x22>
 8013d56:	bf00      	nop
	...

08013d60 <rf_set_retr_retries>:
 8013d60:	b510      	push	{r4, lr}
 8013d62:	b082      	sub	sp, #8
 8013d64:	4604      	mov	r4, r0
 8013d66:	f10d 0107 	add.w	r1, sp, #7
 8013d6a:	2201      	movs	r2, #1
 8013d6c:	2004      	movs	r0, #4
 8013d6e:	f7ff ff67 	bl	8013c40 <rf_read_reg>
 8013d72:	f89d 2007 	ldrb.w	r2, [sp, #7]
 8013d76:	f004 030f 	and.w	r3, r4, #15
 8013d7a:	f022 010f 	bic.w	r1, r2, #15
 8013d7e:	430b      	orrs	r3, r1
 8013d80:	4293      	cmp	r3, r2
 8013d82:	d007      	beq.n	8013d94 <rf_set_retr_retries+0x34>
 8013d84:	f10d 0107 	add.w	r1, sp, #7
 8013d88:	2201      	movs	r2, #1
 8013d8a:	2004      	movs	r0, #4
 8013d8c:	f88d 3007 	strb.w	r3, [sp, #7]
 8013d90:	f7ff fed6 	bl	8013b40 <rf_write_reg>
 8013d94:	b002      	add	sp, #8
 8013d96:	bd10      	pop	{r4, pc}
	...

08013da0 <rf_set_retr_delay>:
 8013da0:	b510      	push	{r4, lr}
 8013da2:	b082      	sub	sp, #8
 8013da4:	4604      	mov	r4, r0
 8013da6:	2201      	movs	r2, #1
 8013da8:	f10d 0107 	add.w	r1, sp, #7
 8013dac:	2004      	movs	r0, #4
 8013dae:	f7ff ff47 	bl	8013c40 <rf_read_reg>
 8013db2:	f89d 2007 	ldrb.w	r2, [sp, #7]
 8013db6:	f002 030f 	and.w	r3, r2, #15
 8013dba:	ea43 1304 	orr.w	r3, r3, r4, lsl #4
 8013dbe:	b2db      	uxtb	r3, r3
 8013dc0:	4293      	cmp	r3, r2
 8013dc2:	d007      	beq.n	8013dd4 <rf_set_retr_delay+0x34>
 8013dc4:	f10d 0107 	add.w	r1, sp, #7
 8013dc8:	2201      	movs	r2, #1
 8013dca:	2004      	movs	r0, #4
 8013dcc:	f88d 3007 	strb.w	r3, [sp, #7]
 8013dd0:	f7ff feb6 	bl	8013b40 <rf_write_reg>
 8013dd4:	b002      	add	sp, #8
 8013dd6:	bd10      	pop	{r4, pc}
	...

08013de0 <rf_power_up>:
 8013de0:	b500      	push	{lr}
 8013de2:	b083      	sub	sp, #12
 8013de4:	2000      	movs	r0, #0
 8013de6:	f10d 0107 	add.w	r1, sp, #7
 8013dea:	2201      	movs	r2, #1
 8013dec:	f7ff ff28 	bl	8013c40 <rf_read_reg>
 8013df0:	f89d 3007 	ldrb.w	r3, [sp, #7]
 8013df4:	f013 0002 	ands.w	r0, r3, #2
 8013df8:	d108      	bne.n	8013e0c <rf_power_up+0x2c>
 8013dfa:	f043 0302 	orr.w	r3, r3, #2
 8013dfe:	f10d 0107 	add.w	r1, sp, #7
 8013e02:	2201      	movs	r2, #1
 8013e04:	f88d 3007 	strb.w	r3, [sp, #7]
 8013e08:	f7ff fe9a 	bl	8013b40 <rf_write_reg>
 8013e0c:	b003      	add	sp, #12
 8013e0e:	f85d fb04 	ldr.w	pc, [sp], #4
 8013e12:	bf00      	nop
	...

08013e20 <rf_power_down>:
 8013e20:	b500      	push	{lr}
 8013e22:	b083      	sub	sp, #12
 8013e24:	2201      	movs	r2, #1
 8013e26:	f10d 0107 	add.w	r1, sp, #7
 8013e2a:	2000      	movs	r0, #0
 8013e2c:	f7ff ff08 	bl	8013c40 <rf_read_reg>
 8013e30:	f89d 3007 	ldrb.w	r3, [sp, #7]
 8013e34:	079a      	lsls	r2, r3, #30
 8013e36:	d509      	bpl.n	8013e4c <rf_power_down+0x2c>
 8013e38:	f023 0302 	bic.w	r3, r3, #2
 8013e3c:	f10d 0107 	add.w	r1, sp, #7
 8013e40:	2201      	movs	r2, #1
 8013e42:	2000      	movs	r0, #0
 8013e44:	f88d 3007 	strb.w	r3, [sp, #7]
 8013e48:	f7ff fe7a 	bl	8013b40 <rf_write_reg>
 8013e4c:	b003      	add	sp, #12
 8013e4e:	f85d fb04 	ldr.w	pc, [sp], #4
 8013e52:	bf00      	nop
	...

08013e60 <rf_mode_tx>:
 8013e60:	b500      	push	{lr}
 8013e62:	b083      	sub	sp, #12
 8013e64:	2201      	movs	r2, #1
 8013e66:	f10d 0107 	add.w	r1, sp, #7
 8013e6a:	2000      	movs	r0, #0
 8013e6c:	f7ff fee8 	bl	8013c40 <rf_read_reg>
 8013e70:	f89d 3007 	ldrb.w	r3, [sp, #7]
 8013e74:	07da      	lsls	r2, r3, #31
 8013e76:	d509      	bpl.n	8013e8c <rf_mode_tx+0x2c>
 8013e78:	f023 0301 	bic.w	r3, r3, #1
 8013e7c:	f10d 0107 	add.w	r1, sp, #7
 8013e80:	2201      	movs	r2, #1
 8013e82:	2000      	movs	r0, #0
 8013e84:	f88d 3007 	strb.w	r3, [sp, #7]
 8013e88:	f7ff fe5a 	bl	8013b40 <rf_write_reg>
 8013e8c:	b003      	add	sp, #12
 8013e8e:	f85d fb04 	ldr.w	pc, [sp], #4
 8013e92:	bf00      	nop
	...

08013ea0 <rf_mode_rx>:
 8013ea0:	b500      	push	{lr}
 8013ea2:	b083      	sub	sp, #12
 8013ea4:	2000      	movs	r0, #0
 8013ea6:	f10d 0107 	add.w	r1, sp, #7
 8013eaa:	2201      	movs	r2, #1
 8013eac:	f7ff fec8 	bl	8013c40 <rf_read_reg>
 8013eb0:	f89d 3007 	ldrb.w	r3, [sp, #7]
 8013eb4:	f013 0001 	ands.w	r0, r3, #1
 8013eb8:	d108      	bne.n	8013ecc <rf_mode_rx+0x2c>
 8013eba:	f043 0301 	orr.w	r3, r3, #1
 8013ebe:	f10d 0107 	add.w	r1, sp, #7
 8013ec2:	2201      	movs	r2, #1
 8013ec4:	f88d 3007 	strb.w	r3, [sp, #7]
 8013ec8:	f7ff fe3a 	bl	8013b40 <rf_write_reg>
 8013ecc:	b003      	add	sp, #12
 8013ece:	f85d fb04 	ldr.w	pc, [sp], #4
 8013ed2:	bf00      	nop
	...

08013ee0 <rf_enable_pipe_autoack>:
 8013ee0:	b510      	push	{r4, lr}
 8013ee2:	2201      	movs	r2, #1
 8013ee4:	b082      	sub	sp, #8
 8013ee6:	4604      	mov	r4, r0
 8013ee8:	f10d 0107 	add.w	r1, sp, #7
 8013eec:	4610      	mov	r0, r2
 8013eee:	f7ff fea7 	bl	8013c40 <rf_read_reg>
 8013ef2:	f89d 0007 	ldrb.w	r0, [sp, #7]
 8013ef6:	ea34 0300 	bics.w	r3, r4, r0
 8013efa:	d009      	beq.n	8013f10 <rf_enable_pipe_autoack+0x30>
 8013efc:	2201      	movs	r2, #1
 8013efe:	ea40 0304 	orr.w	r3, r0, r4
 8013f02:	f10d 0107 	add.w	r1, sp, #7
 8013f06:	4610      	mov	r0, r2
 8013f08:	f88d 3007 	strb.w	r3, [sp, #7]
 8013f0c:	f7ff fe18 	bl	8013b40 <rf_write_reg>
 8013f10:	b002      	add	sp, #8
 8013f12:	bd10      	pop	{r4, pc}
	...

08013f20 <rf_enable_pipe_address>:
 8013f20:	b510      	push	{r4, lr}
 8013f22:	b082      	sub	sp, #8
 8013f24:	4604      	mov	r4, r0
 8013f26:	f10d 0107 	add.w	r1, sp, #7
 8013f2a:	2002      	movs	r0, #2
 8013f2c:	2201      	movs	r2, #1
 8013f2e:	f7ff fe87 	bl	8013c40 <rf_read_reg>
 8013f32:	f89d 0007 	ldrb.w	r0, [sp, #7]
 8013f36:	ea34 0300 	bics.w	r3, r4, r0
 8013f3a:	d009      	beq.n	8013f50 <rf_enable_pipe_address+0x30>
 8013f3c:	ea40 0304 	orr.w	r3, r0, r4
 8013f40:	f10d 0107 	add.w	r1, sp, #7
 8013f44:	2201      	movs	r2, #1
 8013f46:	2002      	movs	r0, #2
 8013f48:	f88d 3007 	strb.w	r3, [sp, #7]
 8013f4c:	f7ff fdf8 	bl	8013b40 <rf_write_reg>
 8013f50:	b002      	add	sp, #8
 8013f52:	bd10      	pop	{r4, pc}
	...

08013f60 <rf_enable_pipe_dlp>:
 8013f60:	b510      	push	{r4, lr}
 8013f62:	b082      	sub	sp, #8
 8013f64:	4604      	mov	r4, r0
 8013f66:	f10d 0107 	add.w	r1, sp, #7
 8013f6a:	201c      	movs	r0, #28
 8013f6c:	2201      	movs	r2, #1
 8013f6e:	f7ff fe67 	bl	8013c40 <rf_read_reg>
 8013f72:	f89d 0007 	ldrb.w	r0, [sp, #7]
 8013f76:	ea34 0300 	bics.w	r3, r4, r0
 8013f7a:	d009      	beq.n	8013f90 <rf_enable_pipe_dlp+0x30>
 8013f7c:	ea40 0304 	orr.w	r3, r0, r4
 8013f80:	f10d 0107 	add.w	r1, sp, #7
 8013f84:	2201      	movs	r2, #1
 8013f86:	201c      	movs	r0, #28
 8013f88:	f88d 3007 	strb.w	r3, [sp, #7]
 8013f8c:	f7ff fdd8 	bl	8013b40 <rf_write_reg>
 8013f90:	b002      	add	sp, #8
 8013f92:	bd10      	pop	{r4, pc}
	...

08013fa0 <rf_enable_features>:
 8013fa0:	b510      	push	{r4, lr}
 8013fa2:	b082      	sub	sp, #8
 8013fa4:	4604      	mov	r4, r0
 8013fa6:	f10d 0107 	add.w	r1, sp, #7
 8013faa:	201d      	movs	r0, #29
 8013fac:	2201      	movs	r2, #1
 8013fae:	f7ff fe47 	bl	8013c40 <rf_read_reg>
 8013fb2:	f89d 0007 	ldrb.w	r0, [sp, #7]
 8013fb6:	ea34 0300 	bics.w	r3, r4, r0
 8013fba:	d009      	beq.n	8013fd0 <rf_enable_features+0x30>
 8013fbc:	ea40 0304 	orr.w	r3, r0, r4
 8013fc0:	f10d 0107 	add.w	r1, sp, #7
 8013fc4:	2201      	movs	r2, #1
 8013fc6:	201d      	movs	r0, #29
 8013fc8:	f88d 3007 	strb.w	r3, [sp, #7]
 8013fcc:	f7ff fdb8 	bl	8013b40 <rf_write_reg>
 8013fd0:	b002      	add	sp, #8
 8013fd2:	bd10      	pop	{r4, pc}
	...

08013fe0 <rfhelp_init>:
 8013fe0:	b570      	push	{r4, r5, r6, lr}
 8013fe2:	4812      	ldr	r0, [pc, #72]	; (801402c <rfhelp_init+0x4c>)
 8013fe4:	4d12      	ldr	r5, [pc, #72]	; (8014030 <rfhelp_init+0x50>)
 8013fe6:	4c13      	ldr	r4, [pc, #76]	; (8014034 <rfhelp_init+0x54>)
 8013fe8:	f7f9 fa5a 	bl	800d4a0 <chMtxObjectInit>
 8013fec:	f7ff fd20 	bl	8013a30 <rf_init>
 8013ff0:	2203      	movs	r2, #3
 8013ff2:	602a      	str	r2, [r5, #0]
 8013ff4:	f104 061e 	add.w	r6, r4, #30
 8013ff8:	4621      	mov	r1, r4
 8013ffa:	200a      	movs	r0, #10
 8013ffc:	3405      	adds	r4, #5
 8013ffe:	f7ff fe1f 	bl	8013c40 <rf_read_reg>
 8014002:	42a6      	cmp	r6, r4
 8014004:	682a      	ldr	r2, [r5, #0]
 8014006:	d1f7      	bne.n	8013ff8 <rfhelp_init+0x18>
 8014008:	490b      	ldr	r1, [pc, #44]	; (8014038 <rfhelp_init+0x58>)
 801400a:	2010      	movs	r0, #16
 801400c:	f7ff fe18 	bl	8013c40 <rf_read_reg>
 8014010:	682a      	ldr	r2, [r5, #0]
 8014012:	4909      	ldr	r1, [pc, #36]	; (8014038 <rfhelp_init+0x58>)
 8014014:	4807      	ldr	r0, [pc, #28]	; (8014034 <rfhelp_init+0x54>)
 8014016:	f002 fcab 	bl	8016970 <memcmp>
 801401a:	4908      	ldr	r1, [pc, #32]	; (801403c <rfhelp_init+0x5c>)
 801401c:	4b08      	ldr	r3, [pc, #32]	; (8014040 <rfhelp_init+0x60>)
 801401e:	fab0 f080 	clz	r0, r0
 8014022:	0940      	lsrs	r0, r0, #5
 8014024:	2201      	movs	r2, #1
 8014026:	7008      	strb	r0, [r1, #0]
 8014028:	701a      	strb	r2, [r3, #0]
 801402a:	bd70      	pop	{r4, r5, r6, pc}
 801402c:	200073c0 	.word	0x200073c0
 8014030:	200073ac 	.word	0x200073ac
 8014034:	200073d0 	.word	0x200073d0
 8014038:	200073f0 	.word	0x200073f0
 801403c:	200073f5 	.word	0x200073f5
 8014040:	200073b0 	.word	0x200073b0
	...

08014050 <rfhelp_restart>:
 8014050:	b5f8      	push	{r3, r4, r5, r6, r7, lr}
 8014052:	4e2b      	ldr	r6, [pc, #172]	; (8014100 <rfhelp_restart+0xb0>)
 8014054:	4c2b      	ldr	r4, [pc, #172]	; (8014104 <rfhelp_restart+0xb4>)
 8014056:	4d2c      	ldr	r5, [pc, #176]	; (8014108 <rfhelp_restart+0xb8>)
 8014058:	4f2c      	ldr	r7, [pc, #176]	; (801410c <rfhelp_restart+0xbc>)
 801405a:	4630      	mov	r0, r6
 801405c:	f7f9 fa98 	bl	800d590 <chMtxLock>
 8014060:	f7ff fede 	bl	8013e20 <rf_power_down>
 8014064:	2100      	movs	r1, #0
 8014066:	2002      	movs	r0, #2
 8014068:	f7ff fdda 	bl	8013c20 <rf_write_reg_byte>
 801406c:	2100      	movs	r1, #0
 801406e:	201c      	movs	r0, #28
 8014070:	f7ff fdd6 	bl	8013c20 <rf_write_reg_byte>
 8014074:	78a0      	ldrb	r0, [r4, #2]
 8014076:	f7ff fe4b 	bl	8013d10 <rf_set_crc_type>
 801407a:	7920      	ldrb	r0, [r4, #4]
 801407c:	f7ff fe70 	bl	8013d60 <rf_set_retr_retries>
 8014080:	78e0      	ldrb	r0, [r4, #3]
 8014082:	f7ff fe8d 	bl	8013da0 <rf_set_retr_delay>
 8014086:	7860      	ldrb	r0, [r4, #1]
 8014088:	f7ff fe1a 	bl	8013cc0 <rf_set_power>
 801408c:	7820      	ldrb	r0, [r4, #0]
 801408e:	f7ff fdef 	bl	8013c70 <rf_set_speed>
 8014092:	2000      	movs	r0, #0
 8014094:	f7ff fd84 	bl	8013ba0 <rf_set_address_width>
 8014098:	7960      	ldrb	r0, [r4, #5]
 801409a:	f500 6016 	add.w	r0, r0, #2400	; 0x960
 801409e:	f7ff fd8f 	bl	8013bc0 <rf_set_frequency>
 80140a2:	2005      	movs	r0, #5
 80140a4:	f7ff ff7c 	bl	8013fa0 <rf_enable_features>
 80140a8:	2001      	movs	r0, #1
 80140aa:	f7ff ff19 	bl	8013ee0 <rf_enable_pipe_autoack>
 80140ae:	2001      	movs	r0, #1
 80140b0:	f7ff ff36 	bl	8013f20 <rf_enable_pipe_address>
 80140b4:	2001      	movs	r0, #1
 80140b6:	f7ff ff53 	bl	8013f60 <rf_enable_pipe_dlp>
 80140ba:	f834 3f06 	ldrh.w	r3, [r4, #6]!
 80140be:	4814      	ldr	r0, [pc, #80]	; (8014110 <rfhelp_restart+0xc0>)
 80140c0:	f8df c050 	ldr.w	ip, [pc, #80]	; 8014114 <rfhelp_restart+0xc4>
 80140c4:	78a2      	ldrb	r2, [r4, #2]
 80140c6:	8003      	strh	r3, [r0, #0]
 80140c8:	6839      	ldr	r1, [r7, #0]
 80140ca:	7082      	strb	r2, [r0, #2]
 80140cc:	70aa      	strb	r2, [r5, #2]
 80140ce:	2201      	movs	r2, #1
 80140d0:	802b      	strh	r3, [r5, #0]
 80140d2:	f88c 2000 	strb.w	r2, [ip]
 80140d6:	f7ff fd5b 	bl	8013b90 <rf_set_tx_addr>
 80140da:	683a      	ldr	r2, [r7, #0]
 80140dc:	4629      	mov	r1, r5
 80140de:	2000      	movs	r0, #0
 80140e0:	f7ff fd4e 	bl	8013b80 <rf_set_rx_addr>
 80140e4:	f7ff fe7c 	bl	8013de0 <rf_power_up>
 80140e8:	f7ff feda 	bl	8013ea0 <rf_mode_rx>
 80140ec:	f7ff fd08 	bl	8013b00 <rf_flush_all>
 80140f0:	f7ff fd76 	bl	8013be0 <rf_clear_irq>
 80140f4:	4630      	mov	r0, r6
 80140f6:	e8bd 40f8 	ldmia.w	sp!, {r3, r4, r5, r6, r7, lr}
 80140fa:	f7f9 ba59 	b.w	800d5b0 <chMtxUnlock>
 80140fe:	bf00      	nop
 8014100:	200073c0 	.word	0x200073c0
 8014104:	200073b4 	.word	0x200073b4
 8014108:	200073d0 	.word	0x200073d0
 801410c:	200073ac 	.word	0x200073ac
 8014110:	200073f0 	.word	0x200073f0
 8014114:	200073f5 	.word	0x200073f5
	...

08014120 <rfhelp_update_conf>:
 8014120:	4602      	mov	r2, r0
 8014122:	4b07      	ldr	r3, [pc, #28]	; (8014140 <rfhelp_update_conf+0x20>)
 8014124:	6851      	ldr	r1, [r2, #4]
 8014126:	6800      	ldr	r0, [r0, #0]
 8014128:	b430      	push	{r4, r5}
 801412a:	4d06      	ldr	r5, [pc, #24]	; (8014144 <rfhelp_update_conf+0x24>)
 801412c:	8914      	ldrh	r4, [r2, #8]
 801412e:	782a      	ldrb	r2, [r5, #0]
 8014130:	c303      	stmia	r3!, {r0, r1}
 8014132:	801c      	strh	r4, [r3, #0]
 8014134:	b90a      	cbnz	r2, 801413a <rfhelp_update_conf+0x1a>
 8014136:	bc30      	pop	{r4, r5}
 8014138:	4770      	bx	lr
 801413a:	bc30      	pop	{r4, r5}
 801413c:	f7ff bf88 	b.w	8014050 <rfhelp_restart>
 8014140:	200073b4 	.word	0x200073b4
 8014144:	200073b0 	.word	0x200073b0
	...

08014150 <rfhelp_send_data>:
 8014150:	b5f8      	push	{r3, r4, r5, r6, r7, lr}
 8014152:	4e25      	ldr	r6, [pc, #148]	; (80141e8 <rfhelp_send_data+0x98>)
 8014154:	4604      	mov	r4, r0
 8014156:	4825      	ldr	r0, [pc, #148]	; (80141ec <rfhelp_send_data+0x9c>)
 8014158:	460d      	mov	r5, r1
 801415a:	4617      	mov	r7, r2
 801415c:	f7f9 fa18 	bl	800d590 <chMtxLock>
 8014160:	f7ff fe7e 	bl	8013e60 <rf_mode_tx>
 8014164:	f7ff fd3c 	bl	8013be0 <rf_clear_irq>
 8014168:	f7ff fcca 	bl	8013b00 <rf_flush_all>
 801416c:	7830      	ldrb	r0, [r6, #0]
 801416e:	bb10      	cbnz	r0, 80141b6 <rfhelp_send_data+0x66>
 8014170:	bb6f      	cbnz	r7, 80141ce <rfhelp_send_data+0x7e>
 8014172:	4629      	mov	r1, r5
 8014174:	4620      	mov	r0, r4
 8014176:	f7ff fc7b 	bl	8013a70 <rf_write_tx_payload_no_ack>
 801417a:	253c      	movs	r5, #60	; 0x3c
 801417c:	e003      	b.n	8014186 <rfhelp_send_data+0x36>
 801417e:	06e3      	lsls	r3, r4, #27
 8014180:	d420      	bmi.n	80141c4 <rfhelp_send_data+0x74>
 8014182:	3d01      	subs	r5, #1
 8014184:	d02d      	beq.n	80141e2 <rfhelp_send_data+0x92>
 8014186:	f7ff fcc3 	bl	8013b10 <rf_status>
 801418a:	4604      	mov	r4, r0
 801418c:	200a      	movs	r0, #10
 801418e:	f7f9 f89f 	bl	800d2d0 <chThdSleep>
 8014192:	06a2      	lsls	r2, r4, #26
 8014194:	d5f3      	bpl.n	801417e <rfhelp_send_data+0x2e>
 8014196:	2400      	movs	r4, #0
 8014198:	7830      	ldrb	r0, [r6, #0]
 801419a:	b928      	cbnz	r0, 80141a8 <rfhelp_send_data+0x58>
 801419c:	b127      	cbz	r7, 80141a8 <rfhelp_send_data+0x58>
 801419e:	4b14      	ldr	r3, [pc, #80]	; (80141f0 <rfhelp_send_data+0xa0>)
 80141a0:	4914      	ldr	r1, [pc, #80]	; (80141f4 <rfhelp_send_data+0xa4>)
 80141a2:	681a      	ldr	r2, [r3, #0]
 80141a4:	f7ff fcec 	bl	8013b80 <rf_set_rx_addr>
 80141a8:	f7ff fe7a 	bl	8013ea0 <rf_mode_rx>
 80141ac:	480f      	ldr	r0, [pc, #60]	; (80141ec <rfhelp_send_data+0x9c>)
 80141ae:	f7f9 f9ff 	bl	800d5b0 <chMtxUnlock>
 80141b2:	4620      	mov	r0, r4
 80141b4:	bdf8      	pop	{r3, r4, r5, r6, r7, pc}
 80141b6:	2f00      	cmp	r7, #0
 80141b8:	d0db      	beq.n	8014172 <rfhelp_send_data+0x22>
 80141ba:	4629      	mov	r1, r5
 80141bc:	4620      	mov	r0, r4
 80141be:	f7ff fc3f 	bl	8013a40 <rf_write_tx_payload>
 80141c2:	e7da      	b.n	801417a <rfhelp_send_data+0x2a>
 80141c4:	f7ff fd1c 	bl	8013c00 <rf_clear_maxrt_irq>
 80141c8:	f04f 34ff 	mov.w	r4, #4294967295
 80141cc:	e7e4      	b.n	8014198 <rfhelp_send_data+0x48>
 80141ce:	4b08      	ldr	r3, [pc, #32]	; (80141f0 <rfhelp_send_data+0xa0>)
 80141d0:	4909      	ldr	r1, [pc, #36]	; (80141f8 <rfhelp_send_data+0xa8>)
 80141d2:	681a      	ldr	r2, [r3, #0]
 80141d4:	f7ff fcd4 	bl	8013b80 <rf_set_rx_addr>
 80141d8:	4629      	mov	r1, r5
 80141da:	4620      	mov	r0, r4
 80141dc:	f7ff fc30 	bl	8013a40 <rf_write_tx_payload>
 80141e0:	e7cb      	b.n	801417a <rfhelp_send_data+0x2a>
 80141e2:	f06f 0401 	mvn.w	r4, #1
 80141e6:	e7d7      	b.n	8014198 <rfhelp_send_data+0x48>
 80141e8:	200073f5 	.word	0x200073f5
 80141ec:	200073c0 	.word	0x200073c0
 80141f0:	200073ac 	.word	0x200073ac
 80141f4:	200073d0 	.word	0x200073d0
 80141f8:	200073f0 	.word	0x200073f0
 80141fc:	00000000 	.word	0x00000000

08014200 <rfhelp_send_data_crc>:
 8014200:	b5f8      	push	{r3, r4, r5, r6, r7, lr}
 8014202:	f101 0309 	add.w	r3, r1, #9
 8014206:	f023 0307 	bic.w	r3, r3, #7
 801420a:	af00      	add	r7, sp, #0
 801420c:	ebad 0d03 	sub.w	sp, sp, r3
 8014210:	460c      	mov	r4, r1
 8014212:	4606      	mov	r6, r0
 8014214:	f7ff fb3c 	bl	8013890 <crc16>
 8014218:	4622      	mov	r2, r4
 801421a:	4605      	mov	r5, r0
 801421c:	4631      	mov	r1, r6
 801421e:	4668      	mov	r0, sp
 8014220:	f7f8 fc66 	bl	800caf0 <memcpy>
 8014224:	eb0d 0304 	add.w	r3, sp, r4
 8014228:	4a05      	ldr	r2, [pc, #20]	; (8014240 <rfhelp_send_data_crc+0x40>)
 801422a:	0a28      	lsrs	r0, r5, #8
 801422c:	f80d 0004 	strb.w	r0, [sp, r4]
 8014230:	1ca1      	adds	r1, r4, #2
 8014232:	7a52      	ldrb	r2, [r2, #9]
 8014234:	705d      	strb	r5, [r3, #1]
 8014236:	4668      	mov	r0, sp
 8014238:	f7ff ff8a 	bl	8014150 <rfhelp_send_data>
 801423c:	46bd      	mov	sp, r7
 801423e:	bdf8      	pop	{r3, r4, r5, r6, r7, pc}
 8014240:	200073b4 	.word	0x200073b4
	...

08014250 <rx_thread>:
 8014250:	4b02      	ldr	r3, [pc, #8]	; (801425c <rx_thread+0xc>)
 8014252:	4a03      	ldr	r2, [pc, #12]	; (8014260 <rx_thread+0x10>)
 8014254:	699b      	ldr	r3, [r3, #24]
 8014256:	619a      	str	r2, [r3, #24]
 8014258:	e7fe      	b.n	8014258 <rx_thread+0x8>
 801425a:	bf00      	nop
 801425c:	20000c90 	.word	0x20000c90
 8014260:	08017410 	.word	0x08017410
	...

08014270 <tx_thread>:
 8014270:	b570      	push	{r4, r5, r6, lr}
 8014272:	4b0c      	ldr	r3, [pc, #48]	; (80142a4 <tx_thread+0x34>)
 8014274:	4a0c      	ldr	r2, [pc, #48]	; (80142a8 <tx_thread+0x38>)
 8014276:	699b      	ldr	r3, [r3, #24]
 8014278:	4c0c      	ldr	r4, [pc, #48]	; (80142ac <tx_thread+0x3c>)
 801427a:	619a      	str	r2, [r3, #24]
 801427c:	b082      	sub	sp, #8
 801427e:	2602      	movs	r6, #2
 8014280:	2500      	movs	r5, #0
 8014282:	e002      	b.n	801428a <tx_thread+0x1a>
 8014284:	200a      	movs	r0, #10
 8014286:	f7f9 f823 	bl	800d2d0 <chThdSleep>
 801428a:	6823      	ldr	r3, [r4, #0]
 801428c:	3301      	adds	r3, #1
 801428e:	2b31      	cmp	r3, #49	; 0x31
 8014290:	6023      	str	r3, [r4, #0]
 8014292:	ddf7      	ble.n	8014284 <tx_thread+0x14>
 8014294:	2101      	movs	r1, #1
 8014296:	a801      	add	r0, sp, #4
 8014298:	f88d 6004 	strb.w	r6, [sp, #4]
 801429c:	f7ff ffb0 	bl	8014200 <rfhelp_send_data_crc>
 80142a0:	6025      	str	r5, [r4, #0]
 80142a2:	e7ef      	b.n	8014284 <tx_thread+0x14>
 80142a4:	20000c90 	.word	0x20000c90
 80142a8:	08017420 	.word	0x08017420
 80142ac:	200073f8 	.word	0x200073f8

080142b0 <nrf_driver_init>:
 80142b0:	b510      	push	{r4, lr}
 80142b2:	b082      	sub	sp, #8
 80142b4:	f7ff fe94 	bl	8013fe0 <rfhelp_init>
 80142b8:	4a0a      	ldr	r2, [pc, #40]	; (80142e4 <nrf_driver_init+0x34>)
 80142ba:	4b0b      	ldr	r3, [pc, #44]	; (80142e8 <nrf_driver_init+0x38>)
 80142bc:	480b      	ldr	r0, [pc, #44]	; (80142ec <nrf_driver_init+0x3c>)
 80142be:	2400      	movs	r4, #0
 80142c0:	9400      	str	r4, [sp, #0]
 80142c2:	f640 1198 	movw	r1, #2456	; 0x998
 80142c6:	6014      	str	r4, [r2, #0]
 80142c8:	223f      	movs	r2, #63	; 0x3f
 80142ca:	f7f8 ffc9 	bl	800d260 <chThdCreateStatic>
 80142ce:	9400      	str	r4, [sp, #0]
 80142d0:	4b07      	ldr	r3, [pc, #28]	; (80142f0 <nrf_driver_init+0x40>)
 80142d2:	4808      	ldr	r0, [pc, #32]	; (80142f4 <nrf_driver_init+0x44>)
 80142d4:	223f      	movs	r2, #63	; 0x3f
 80142d6:	f44f 7166 	mov.w	r1, #920	; 0x398
 80142da:	f7f8 ffc1 	bl	800d260 <chThdCreateStatic>
 80142de:	b002      	add	sp, #8
 80142e0:	bd10      	pop	{r4, pc}
 80142e2:	bf00      	nop
 80142e4:	200073f8 	.word	0x200073f8
 80142e8:	08014251 	.word	0x08014251
 80142ec:	20007400 	.word	0x20007400
 80142f0:	08014271 	.word	0x08014271
 80142f4:	20007d98 	.word	0x20007d98
	...

08014300 <app_get_configuration>:
 8014300:	4800      	ldr	r0, [pc, #0]	; (8014304 <app_get_configuration+0x4>)
 8014302:	4770      	bx	lr
 8014304:	20008130 	.word	0x20008130
	...

08014310 <app_set_configuration>:
 8014310:	b510      	push	{r4, lr}
 8014312:	4c0d      	ldr	r4, [pc, #52]	; (8014348 <app_set_configuration+0x38>)
 8014314:	4601      	mov	r1, r0
 8014316:	22a0      	movs	r2, #160	; 0xa0
 8014318:	4620      	mov	r0, r4
 801431a:	f7f8 fbe9 	bl	800caf0 <memcpy>
 801431e:	f104 0018 	add.w	r0, r4, #24
 8014322:	f000 f8cd 	bl	80144c0 <app_ppm_configure>
 8014326:	f104 0040 	add.w	r0, r4, #64	; 0x40
 801432a:	f000 f929 	bl	8014580 <app_adc_configure>
 801432e:	6ee0      	ldr	r0, [r4, #108]	; 0x6c
 8014330:	f000 f9de 	bl	80146f0 <app_uartcomm_configure>
 8014334:	f104 0070 	add.w	r0, r4, #112	; 0x70
 8014338:	f000 fa12 	bl	8014760 <app_nunchuk_configure>
 801433c:	f104 0094 	add.w	r0, r4, #148	; 0x94
 8014340:	e8bd 4010 	ldmia.w	sp!, {r4, lr}
 8014344:	f7ff beec 	b.w	8014120 <rfhelp_update_conf>
 8014348:	20008130 	.word	0x20008130
 801434c:	00000000 	.word	0x00000000

08014350 <app_init>:
 8014350:	b508      	push	{r3, lr}
 8014352:	f7ff ffdd 	bl	8014310 <app_set_configuration>
 8014356:	4b1b      	ldr	r3, [pc, #108]	; (80143c4 <app_init+0x74>)
 8014358:	7d1b      	ldrb	r3, [r3, #20]
 801435a:	3b01      	subs	r3, #1
 801435c:	2b06      	cmp	r3, #6
 801435e:	d82f      	bhi.n	80143c0 <app_init+0x70>
 8014360:	e8df f003 	tbb	[pc, r3]
 8014364:	19130e0a 	.word	0x19130e0a
 8014368:	2a21      	.short	0x2a21
 801436a:	04          	.byte	0x04
 801436b:	00          	.byte	0x00
 801436c:	f7ff ffa0 	bl	80142b0 <nrf_driver_init>
 8014370:	e8bd 4008 	ldmia.w	sp!, {r3, lr}
 8014374:	f7ff be6c 	b.w	8014050 <rfhelp_restart>
 8014378:	e8bd 4008 	ldmia.w	sp!, {r3, lr}
 801437c:	f000 b8c8 	b.w	8014510 <app_ppm_start>
 8014380:	2001      	movs	r0, #1
 8014382:	e8bd 4008 	ldmia.w	sp!, {r3, lr}
 8014386:	f000 b913 	b.w	80145b0 <app_adc_start>
 801438a:	f7fd f811 	bl	80113b0 <hw_stop_i2c>
 801438e:	e8bd 4008 	ldmia.w	sp!, {r3, lr}
 8014392:	f000 b97d 	b.w	8014690 <app_uartcomm_start>
 8014396:	f7fd f80b 	bl	80113b0 <hw_stop_i2c>
 801439a:	f000 f8b9 	bl	8014510 <app_ppm_start>
 801439e:	e8bd 4008 	ldmia.w	sp!, {r3, lr}
 80143a2:	f000 b975 	b.w	8014690 <app_uartcomm_start>
 80143a6:	f7fd f803 	bl	80113b0 <hw_stop_i2c>
 80143aa:	2000      	movs	r0, #0
 80143ac:	f000 f900 	bl	80145b0 <app_adc_start>
 80143b0:	e8bd 4008 	ldmia.w	sp!, {r3, lr}
 80143b4:	f000 b96c 	b.w	8014690 <app_uartcomm_start>
 80143b8:	e8bd 4008 	ldmia.w	sp!, {r3, lr}
 80143bc:	f000 b9e0 	b.w	8014780 <app_nunchuk_start>
 80143c0:	bd08      	pop	{r3, pc}
 80143c2:	bf00      	nop
 80143c4:	20008130 	.word	0x20008130
	...

080143d0 <ppm_thread>:
 80143d0:	4a15      	ldr	r2, [pc, #84]	; (8014428 <ppm_thread+0x58>)
 80143d2:	4916      	ldr	r1, [pc, #88]	; (801442c <ppm_thread+0x5c>)
 80143d4:	6992      	ldr	r2, [r2, #24]
 80143d6:	4d16      	ldr	r5, [pc, #88]	; (8014430 <ppm_thread+0x60>)
 80143d8:	b508      	push	{r3, lr}
 80143da:	4b16      	ldr	r3, [pc, #88]	; (8014434 <ppm_thread+0x64>)
 80143dc:	6191      	str	r1, [r2, #24]
 80143de:	ed93 0a03 	vldr	s0, [r3, #12]
 80143e2:	edd3 0a04 	vldr	s1, [r3, #16]
 80143e6:	7d18      	ldrb	r0, [r3, #20]
 80143e8:	4b13      	ldr	r3, [pc, #76]	; (8014438 <ppm_thread+0x68>)
 80143ea:	601a      	str	r2, [r3, #0]
 80143ec:	f7fe fe90 	bl	8013110 <servodec_set_pulse_options>
 80143f0:	4812      	ldr	r0, [pc, #72]	; (801443c <ppm_thread+0x6c>)
 80143f2:	f7fe fe65 	bl	80130c0 <servodec_init>
 80143f6:	4b12      	ldr	r3, [pc, #72]	; (8014440 <ppm_thread+0x70>)
 80143f8:	2201      	movs	r2, #1
 80143fa:	701a      	strb	r2, [r3, #0]
 80143fc:	2400      	movs	r4, #0
 80143fe:	e000      	b.n	8014402 <ppm_thread+0x32>
 8014400:	602c      	str	r4, [r5, #0]
 8014402:	2001      	movs	r0, #1
 8014404:	f7f9 f97c 	bl	800d700 <chEvtWaitAny>
 8014408:	f7ff f92a 	bl	8013660 <timeout_has_timeout>
 801440c:	2800      	cmp	r0, #0
 801440e:	d1f7      	bne.n	8014400 <ppm_thread+0x30>
 8014410:	f7fe fe8e 	bl	8013130 <servodec_get_time_since_update>
 8014414:	4606      	mov	r6, r0
 8014416:	f7ff f92b 	bl	8013670 <timeout_get_timeout_msec>
 801441a:	4286      	cmp	r6, r0
 801441c:	d8f0      	bhi.n	8014400 <ppm_thread+0x30>
 801441e:	f7fd fe4f 	bl	80120c0 <mc_interface_get_fault>
 8014422:	2800      	cmp	r0, #0
 8014424:	d1ec      	bne.n	8014400 <ppm_thread+0x30>
 8014426:	e7ec      	b.n	8014402 <ppm_thread+0x32>
 8014428:	20000c90 	.word	0x20000c90
 801442c:	08017430 	.word	0x08017430
 8014430:	2000879c 	.word	0x2000879c
 8014434:	200081d0 	.word	0x200081d0
 8014438:	20008798 	.word	0x20008798
 801443c:	08014451 	.word	0x08014451
 8014440:	200081f8 	.word	0x200081f8
	...

08014450 <servodec_func>:
 8014450:	b508      	push	{r3, lr}
 8014452:	2320      	movs	r3, #32
 8014454:	f383 8811 	msr	BASEPRI, r3
 8014458:	f7ff f8f2 	bl	8013640 <timeout_reset>
 801445c:	4b04      	ldr	r3, [pc, #16]	; (8014470 <servodec_func+0x20>)
 801445e:	2101      	movs	r1, #1
 8014460:	6818      	ldr	r0, [r3, #0]
 8014462:	f7f9 f90d 	bl	800d680 <chEvtSignalI>
 8014466:	2300      	movs	r3, #0
 8014468:	f383 8811 	msr	BASEPRI, r3
 801446c:	bd08      	pop	{r3, pc}
 801446e:	bf00      	nop
 8014470:	20008798 	.word	0x20008798
	...

08014480 <update>:
 8014480:	b510      	push	{r4, lr}
 8014482:	2320      	movs	r3, #32
 8014484:	4604      	mov	r4, r0
 8014486:	f383 8811 	msr	BASEPRI, r3
 801448a:	480a      	ldr	r0, [pc, #40]	; (80144b4 <update+0x34>)
 801448c:	68c3      	ldr	r3, [r0, #12]
 801448e:	b10b      	cbz	r3, 8014494 <update+0x14>
 8014490:	f7f8 fd36 	bl	800cf00 <chVTDoResetI>
 8014494:	4623      	mov	r3, r4
 8014496:	4a08      	ldr	r2, [pc, #32]	; (80144b8 <update+0x38>)
 8014498:	4806      	ldr	r0, [pc, #24]	; (80144b4 <update+0x34>)
 801449a:	2114      	movs	r1, #20
 801449c:	f7f8 fd10 	bl	800cec0 <chVTDoSetI>
 80144a0:	4b06      	ldr	r3, [pc, #24]	; (80144bc <update+0x3c>)
 80144a2:	2101      	movs	r1, #1
 80144a4:	6818      	ldr	r0, [r3, #0]
 80144a6:	f7f9 f8eb 	bl	800d680 <chEvtSignalI>
 80144aa:	2300      	movs	r3, #0
 80144ac:	f383 8811 	msr	BASEPRI, r3
 80144b0:	bd10      	pop	{r4, pc}
 80144b2:	bf00      	nop
 80144b4:	200087a0 	.word	0x200087a0
 80144b8:	08014481 	.word	0x08014481
 80144bc:	20008798 	.word	0x20008798

080144c0 <app_ppm_configure>:
 80144c0:	b4f0      	push	{r4, r5, r6, r7}
 80144c2:	4605      	mov	r5, r0
 80144c4:	cd0f      	ldmia	r5!, {r0, r1, r2, r3}
 80144c6:	4e0c      	ldr	r6, [pc, #48]	; (80144f8 <app_ppm_configure+0x38>)
 80144c8:	4f0c      	ldr	r7, [pc, #48]	; (80144fc <app_ppm_configure+0x3c>)
 80144ca:	4634      	mov	r4, r6
 80144cc:	c40f      	stmia	r4!, {r0, r1, r2, r3}
 80144ce:	cd0f      	ldmia	r5!, {r0, r1, r2, r3}
 80144d0:	c40f      	stmia	r4!, {r0, r1, r2, r3}
 80144d2:	e895 0003 	ldmia.w	r5, {r0, r1}
 80144d6:	e884 0003 	stmia.w	r4, {r0, r1}
 80144da:	2200      	movs	r2, #0
 80144dc:	4b08      	ldr	r3, [pc, #32]	; (8014500 <app_ppm_configure+0x40>)
 80144de:	603a      	str	r2, [r7, #0]
 80144e0:	781b      	ldrb	r3, [r3, #0]
 80144e2:	b90b      	cbnz	r3, 80144e8 <app_ppm_configure+0x28>
 80144e4:	bcf0      	pop	{r4, r5, r6, r7}
 80144e6:	4770      	bx	lr
 80144e8:	ed96 0a03 	vldr	s0, [r6, #12]
 80144ec:	edd6 0a04 	vldr	s1, [r6, #16]
 80144f0:	7d30      	ldrb	r0, [r6, #20]
 80144f2:	bcf0      	pop	{r4, r5, r6, r7}
 80144f4:	f7fe be0c 	b.w	8013110 <servodec_set_pulse_options>
 80144f8:	200081d0 	.word	0x200081d0
 80144fc:	2000879c 	.word	0x2000879c
 8014500:	200081f8 	.word	0x200081f8
	...

08014510 <app_ppm_start>:
 8014510:	b500      	push	{lr}
 8014512:	b083      	sub	sp, #12
 8014514:	2300      	movs	r3, #0
 8014516:	9300      	str	r3, [sp, #0]
 8014518:	2240      	movs	r2, #64	; 0x40
 801451a:	4b0d      	ldr	r3, [pc, #52]	; (8014550 <app_ppm_start+0x40>)
 801451c:	480d      	ldr	r0, [pc, #52]	; (8014554 <app_ppm_start+0x44>)
 801451e:	f44f 61b3 	mov.w	r1, #1432	; 0x598
 8014522:	f7f8 fe9d 	bl	800d260 <chThdCreateStatic>
 8014526:	2320      	movs	r3, #32
 8014528:	f383 8811 	msr	BASEPRI, r3
 801452c:	480a      	ldr	r0, [pc, #40]	; (8014558 <app_ppm_start+0x48>)
 801452e:	68c3      	ldr	r3, [r0, #12]
 8014530:	b10b      	cbz	r3, 8014536 <app_ppm_start+0x26>
 8014532:	f7f8 fce5 	bl	800cf00 <chVTDoResetI>
 8014536:	2300      	movs	r3, #0
 8014538:	4a08      	ldr	r2, [pc, #32]	; (801455c <app_ppm_start+0x4c>)
 801453a:	4807      	ldr	r0, [pc, #28]	; (8014558 <app_ppm_start+0x48>)
 801453c:	210a      	movs	r1, #10
 801453e:	f7f8 fcbf 	bl	800cec0 <chVTDoSetI>
 8014542:	2300      	movs	r3, #0
 8014544:	f383 8811 	msr	BASEPRI, r3
 8014548:	b003      	add	sp, #12
 801454a:	f85d fb04 	ldr.w	pc, [sp], #4
 801454e:	bf00      	nop
 8014550:	080143d1 	.word	0x080143d1
 8014554:	20008200 	.word	0x20008200
 8014558:	200087a0 	.word	0x200087a0
 801455c:	08014481 	.word	0x08014481

08014560 <adc_thread>:
 8014560:	4b02      	ldr	r3, [pc, #8]	; (801456c <adc_thread+0xc>)
 8014562:	4a03      	ldr	r2, [pc, #12]	; (8014570 <adc_thread+0x10>)
 8014564:	699b      	ldr	r3, [r3, #24]
 8014566:	619a      	str	r2, [r3, #24]
 8014568:	4770      	bx	lr
 801456a:	bf00      	nop
 801456c:	20000c90 	.word	0x20000c90
 8014570:	08017440 	.word	0x08017440
	...

08014580 <app_adc_configure>:
 8014580:	b470      	push	{r4, r5, r6}
 8014582:	4605      	mov	r5, r0
 8014584:	cd0f      	ldmia	r5!, {r0, r1, r2, r3}
 8014586:	4c06      	ldr	r4, [pc, #24]	; (80145a0 <app_adc_configure+0x20>)
 8014588:	4e06      	ldr	r6, [pc, #24]	; (80145a4 <app_adc_configure+0x24>)
 801458a:	c40f      	stmia	r4!, {r0, r1, r2, r3}
 801458c:	cd0f      	ldmia	r5!, {r0, r1, r2, r3}
 801458e:	c40f      	stmia	r4!, {r0, r1, r2, r3}
 8014590:	e895 0007 	ldmia.w	r5, {r0, r1, r2}
 8014594:	2300      	movs	r3, #0
 8014596:	e884 0007 	stmia.w	r4, {r0, r1, r2}
 801459a:	6033      	str	r3, [r6, #0]
 801459c:	bc70      	pop	{r4, r5, r6}
 801459e:	4770      	bx	lr
 80145a0:	20008d50 	.word	0x20008d50
 80145a4:	20008d7c 	.word	0x20008d7c
	...

080145b0 <app_adc_start>:
 80145b0:	b530      	push	{r4, r5, lr}
 80145b2:	b083      	sub	sp, #12
 80145b4:	4c06      	ldr	r4, [pc, #24]	; (80145d0 <app_adc_start+0x20>)
 80145b6:	4b07      	ldr	r3, [pc, #28]	; (80145d4 <app_adc_start+0x24>)
 80145b8:	2200      	movs	r2, #0
 80145ba:	4605      	mov	r5, r0
 80145bc:	9200      	str	r2, [sp, #0]
 80145be:	f44f 61b3 	mov.w	r1, #1432	; 0x598
 80145c2:	2240      	movs	r2, #64	; 0x40
 80145c4:	4804      	ldr	r0, [pc, #16]	; (80145d8 <app_adc_start+0x28>)
 80145c6:	7025      	strb	r5, [r4, #0]
 80145c8:	f7f8 fe4a 	bl	800d260 <chThdCreateStatic>
 80145cc:	b003      	add	sp, #12
 80145ce:	bd30      	pop	{r4, r5, pc}
 80145d0:	20008d80 	.word	0x20008d80
 80145d4:	08014561 	.word	0x08014561
 80145d8:	200087b8 	.word	0x200087b8
 80145dc:	00000000 	.word	0x00000000

080145e0 <txend1>:
 80145e0:	4770      	bx	lr
 80145e2:	bf00      	nop
	...

080145f0 <rxerr>:
 80145f0:	4770      	bx	lr
 80145f2:	bf00      	nop
	...

08014600 <packet_process_thread>:
 8014600:	b508      	push	{r3, lr}
 8014602:	4b05      	ldr	r3, [pc, #20]	; (8014618 <packet_process_thread+0x18>)
 8014604:	4a05      	ldr	r2, [pc, #20]	; (801461c <packet_process_thread+0x1c>)
 8014606:	699b      	ldr	r3, [r3, #24]
 8014608:	4905      	ldr	r1, [pc, #20]	; (8014620 <packet_process_thread+0x20>)
 801460a:	6199      	str	r1, [r3, #24]
 801460c:	6013      	str	r3, [r2, #0]
 801460e:	2001      	movs	r0, #1
 8014610:	f7f9 f876 	bl	800d700 <chEvtWaitAny>
 8014614:	e7fb      	b.n	801460e <packet_process_thread+0xe>
 8014616:	bf00      	nop
 8014618:	20000c90 	.word	0x20000c90
 801461c:	20009f20 	.word	0x20009f20
 8014620:	08017450 	.word	0x08017450
	...

08014630 <rxchar>:
 8014630:	4a0a      	ldr	r2, [pc, #40]	; (801465c <rxchar+0x2c>)
 8014632:	b508      	push	{r3, lr}
 8014634:	6813      	ldr	r3, [r2, #0]
 8014636:	3301      	adds	r3, #1
 8014638:	f5b3 6f80 	cmp.w	r3, #1024	; 0x400
 801463c:	bf08      	it	eq
 801463e:	2300      	moveq	r3, #0
 8014640:	6013      	str	r3, [r2, #0]
 8014642:	2320      	movs	r3, #32
 8014644:	f383 8811 	msr	BASEPRI, r3
 8014648:	4b05      	ldr	r3, [pc, #20]	; (8014660 <rxchar+0x30>)
 801464a:	2101      	movs	r1, #1
 801464c:	6818      	ldr	r0, [r3, #0]
 801464e:	f7f9 f817 	bl	800d680 <chEvtSignalI>
 8014652:	2300      	movs	r3, #0
 8014654:	f383 8811 	msr	BASEPRI, r3
 8014658:	bd08      	pop	{r3, pc}
 801465a:	bf00      	nop
 801465c:	20009f24 	.word	0x20009f24
 8014660:	20009f20 	.word	0x20009f20
	...

08014670 <rxend>:
 8014670:	4770      	bx	lr
 8014672:	bf00      	nop
	...

08014680 <txend2>:
 8014680:	4770      	bx	lr
 8014682:	bf00      	nop
	...

08014690 <app_uartcomm_start>:
 8014690:	b530      	push	{r4, r5, lr}
 8014692:	4c10      	ldr	r4, [pc, #64]	; (80146d4 <app_uartcomm_start+0x44>)
 8014694:	4910      	ldr	r1, [pc, #64]	; (80146d8 <app_uartcomm_start+0x48>)
 8014696:	4811      	ldr	r0, [pc, #68]	; (80146dc <app_uartcomm_start+0x4c>)
 8014698:	b083      	sub	sp, #12
 801469a:	f7f9 fd39 	bl	800e110 <uartStart>
 801469e:	4620      	mov	r0, r4
 80146a0:	f240 423a 	movw	r2, #1082	; 0x43a
 80146a4:	2140      	movs	r1, #64	; 0x40
 80146a6:	f7fa fe4b 	bl	800f340 <_pal_lld_setgroupmode>
 80146aa:	4620      	mov	r0, r4
 80146ac:	f240 423a 	movw	r2, #1082	; 0x43a
 80146b0:	2180      	movs	r1, #128	; 0x80
 80146b2:	4c0b      	ldr	r4, [pc, #44]	; (80146e0 <app_uartcomm_start+0x50>)
 80146b4:	f7fa fe44 	bl	800f340 <_pal_lld_setgroupmode>
 80146b8:	2501      	movs	r5, #1
 80146ba:	2200      	movs	r2, #0
 80146bc:	9200      	str	r2, [sp, #0]
 80146be:	4b09      	ldr	r3, [pc, #36]	; (80146e4 <app_uartcomm_start+0x54>)
 80146c0:	6025      	str	r5, [r4, #0]
 80146c2:	2240      	movs	r2, #64	; 0x40
 80146c4:	f241 1198 	movw	r1, #4504	; 0x1198
 80146c8:	4807      	ldr	r0, [pc, #28]	; (80146e8 <app_uartcomm_start+0x58>)
 80146ca:	f7f8 fdc9 	bl	800d260 <chThdCreateStatic>
 80146ce:	b003      	add	sp, #12
 80146d0:	bd30      	pop	{r4, r5, pc}
 80146d2:	bf00      	nop
 80146d4:	40020800 	.word	0x40020800
 80146d8:	20000840 	.word	0x20000840
 80146dc:	20001304 	.word	0x20001304
 80146e0:	20008d84 	.word	0x20008d84
 80146e4:	08014601 	.word	0x08014601
 80146e8:	20008d88 	.word	0x20008d88
 80146ec:	00000000 	.word	0x00000000

080146f0 <app_uartcomm_configure>:
 80146f0:	4b04      	ldr	r3, [pc, #16]	; (8014704 <app_uartcomm_configure+0x14>)
 80146f2:	4905      	ldr	r1, [pc, #20]	; (8014708 <app_uartcomm_configure+0x18>)
 80146f4:	681b      	ldr	r3, [r3, #0]
 80146f6:	6148      	str	r0, [r1, #20]
 80146f8:	b903      	cbnz	r3, 80146fc <app_uartcomm_configure+0xc>
 80146fa:	4770      	bx	lr
 80146fc:	4803      	ldr	r0, [pc, #12]	; (801470c <app_uartcomm_configure+0x1c>)
 80146fe:	f7f9 bd07 	b.w	800e110 <uartStart>
 8014702:	bf00      	nop
 8014704:	20008d84 	.word	0x20008d84
 8014708:	20000840 	.word	0x20000840
 801470c:	20001304 	.word	0x20001304

08014710 <output_thread>:
 8014710:	b508      	push	{r3, lr}
 8014712:	4b0c      	ldr	r3, [pc, #48]	; (8014744 <output_thread+0x34>)
 8014714:	4a0c      	ldr	r2, [pc, #48]	; (8014748 <output_thread+0x38>)
 8014716:	699b      	ldr	r3, [r3, #24]
 8014718:	4c0c      	ldr	r4, [pc, #48]	; (801474c <output_thread+0x3c>)
 801471a:	4d0d      	ldr	r5, [pc, #52]	; (8014750 <output_thread+0x40>)
 801471c:	619a      	str	r2, [r3, #24]
 801471e:	200a      	movs	r0, #10
 8014720:	f7f8 fdd6 	bl	800d2d0 <chThdSleep>
 8014724:	f7fe ff9c 	bl	8013660 <timeout_has_timeout>
 8014728:	2800      	cmp	r0, #0
 801472a:	d1f8      	bne.n	801471e <output_thread+0xe>
 801472c:	6823      	ldr	r3, [r4, #0]
 801472e:	2b00      	cmp	r3, #0
 8014730:	d1f5      	bne.n	801471e <output_thread+0xe>
 8014732:	200a      	movs	r0, #10
 8014734:	782b      	ldrb	r3, [r5, #0]
 8014736:	f7f8 fdcb 	bl	800d2d0 <chThdSleep>
 801473a:	f7fe ff91 	bl	8013660 <timeout_has_timeout>
 801473e:	2800      	cmp	r0, #0
 8014740:	d1ed      	bne.n	801471e <output_thread+0xe>
 8014742:	e7f3      	b.n	801472c <output_thread+0x1c>
 8014744:	20000c90 	.word	0x20000c90
 8014748:	08017480 	.word	0x08017480
 801474c:	20009f40 	.word	0x20009f40
 8014750:	2000a4e0 	.word	0x2000a4e0
	...

08014760 <app_nunchuk_configure>:
 8014760:	b430      	push	{r4, r5}
 8014762:	4605      	mov	r5, r0
 8014764:	cd0f      	ldmia	r5!, {r0, r1, r2, r3}
 8014766:	4c04      	ldr	r4, [pc, #16]	; (8014778 <app_nunchuk_configure+0x18>)
 8014768:	c40f      	stmia	r4!, {r0, r1, r2, r3}
 801476a:	cd0f      	ldmia	r5!, {r0, r1, r2, r3}
 801476c:	c40f      	stmia	r4!, {r0, r1, r2, r3}
 801476e:	682b      	ldr	r3, [r5, #0]
 8014770:	6023      	str	r3, [r4, #0]
 8014772:	bc30      	pop	{r4, r5}
 8014774:	4770      	bx	lr
 8014776:	bf00      	nop
 8014778:	2000a4e0 	.word	0x2000a4e0
 801477c:	00000000 	.word	0x00000000

08014780 <app_nunchuk_start>:
 8014780:	b530      	push	{r4, r5, lr}
 8014782:	b083      	sub	sp, #12
 8014784:	4c06      	ldr	r4, [pc, #24]	; (80147a0 <app_nunchuk_start+0x20>)
 8014786:	4b07      	ldr	r3, [pc, #28]	; (80147a4 <app_nunchuk_start+0x24>)
 8014788:	4807      	ldr	r0, [pc, #28]	; (80147a8 <app_nunchuk_start+0x28>)
 801478a:	2200      	movs	r2, #0
 801478c:	9200      	str	r2, [sp, #0]
 801478e:	2580      	movs	r5, #128	; 0x80
 8014790:	2240      	movs	r2, #64	; 0x40
 8014792:	f44f 61b3 	mov.w	r1, #1432	; 0x598
 8014796:	6065      	str	r5, [r4, #4]
 8014798:	f7f8 fd62 	bl	800d260 <chThdCreateStatic>
 801479c:	b003      	add	sp, #12
 801479e:	bd30      	pop	{r4, r5, pc}
 80147a0:	20009f28 	.word	0x20009f28
 80147a4:	08014811 	.word	0x08014811
 80147a8:	20009f48 	.word	0x20009f48
 80147ac:	00000000 	.word	0x00000000

080147b0 <app_nunchuk_update_output>:
 80147b0:	b530      	push	{r4, r5, lr}
 80147b2:	4a10      	ldr	r2, [pc, #64]	; (80147f4 <app_nunchuk_update_output+0x44>)
 80147b4:	7813      	ldrb	r3, [r2, #0]
 80147b6:	b083      	sub	sp, #12
 80147b8:	4604      	mov	r4, r0
 80147ba:	b973      	cbnz	r3, 80147da <app_nunchuk_update_output+0x2a>
 80147bc:	f003 01ff 	and.w	r1, r3, #255	; 0xff
 80147c0:	480d      	ldr	r0, [pc, #52]	; (80147f8 <app_nunchuk_update_output+0x48>)
 80147c2:	9100      	str	r1, [sp, #0]
 80147c4:	2580      	movs	r5, #128	; 0x80
 80147c6:	2101      	movs	r1, #1
 80147c8:	7011      	strb	r1, [r2, #0]
 80147ca:	4b0c      	ldr	r3, [pc, #48]	; (80147fc <app_nunchuk_update_output+0x4c>)
 80147cc:	6045      	str	r5, [r0, #4]
 80147ce:	2240      	movs	r2, #64	; 0x40
 80147d0:	f44f 61b3 	mov.w	r1, #1432	; 0x598
 80147d4:	480a      	ldr	r0, [pc, #40]	; (8014800 <app_nunchuk_update_output+0x50>)
 80147d6:	f7f8 fd43 	bl	800d260 <chThdCreateStatic>
 80147da:	cc0f      	ldmia	r4!, {r0, r1, r2, r3}
 80147dc:	4d06      	ldr	r5, [pc, #24]	; (80147f8 <app_nunchuk_update_output+0x48>)
 80147de:	c50f      	stmia	r5!, {r0, r1, r2, r3}
 80147e0:	e894 0003 	ldmia.w	r4, {r0, r1}
 80147e4:	e885 0003 	stmia.w	r5, {r0, r1}
 80147e8:	b003      	add	sp, #12
 80147ea:	e8bd 4030 	ldmia.w	sp!, {r4, r5, lr}
 80147ee:	f7fe bf27 	b.w	8013640 <timeout_reset>
 80147f2:	bf00      	nop
 80147f4:	2000a50e 	.word	0x2000a50e
 80147f8:	20009f28 	.word	0x20009f28
 80147fc:	08014711 	.word	0x08014711
 8014800:	2000a510 	.word	0x2000a510
	...

08014810 <chuk_thread>:
 8014810:	e92d 4ff0 	stmdb	sp!, {r4, r5, r6, r7, r8, r9, sl, fp, lr}
 8014814:	4b60      	ldr	r3, [pc, #384]	; (8014998 <chuk_thread+0x188>)
 8014816:	4961      	ldr	r1, [pc, #388]	; (801499c <chuk_thread+0x18c>)
 8014818:	699a      	ldr	r2, [r3, #24]
 801481a:	4b61      	ldr	r3, [pc, #388]	; (80149a0 <chuk_thread+0x190>)
 801481c:	6191      	str	r1, [r2, #24]
 801481e:	b091      	sub	sp, #68	; 0x44
 8014820:	2201      	movs	r2, #1
 8014822:	f8df b184 	ldr.w	fp, [pc, #388]	; 80149a8 <chuk_thread+0x198>
 8014826:	701a      	strb	r2, [r3, #0]
 8014828:	f7fc fd9a 	bl	8011360 <hw_start_i2c>
 801482c:	2064      	movs	r0, #100	; 0x64
 801482e:	f7f8 fd4f 	bl	800d2d0 <chThdSleep>
 8014832:	f8df 917c 	ldr.w	r9, [pc, #380]	; 80149b0 <chuk_thread+0x1a0>
 8014836:	4c5b      	ldr	r4, [pc, #364]	; (80149a4 <chuk_thread+0x194>)
 8014838:	f10b 0606 	add.w	r6, fp, #6
 801483c:	ad04      	add	r5, sp, #16
 801483e:	f245 5af0 	movw	sl, #22000	; 0x55f0
 8014842:	f04f 0832 	mov.w	r8, #50	; 0x32
 8014846:	e00b      	b.n	8014860 <chuk_thread+0x50>
 8014848:	2302      	movs	r3, #2
 801484a:	f8c9 3000 	str.w	r3, [r9]
 801484e:	f7fc fdd7 	bl	8011400 <hw_try_restore_i2c>
 8014852:	f44f 707a 	mov.w	r0, #1000	; 0x3e8
 8014856:	f7f8 fd3b 	bl	800d2d0 <chThdSleep>
 801485a:	2064      	movs	r0, #100	; 0x64
 801485c:	f7f8 fd38 	bl	800d2d0 <chThdSleep>
 8014860:	4620      	mov	r0, r4
 8014862:	f8ad a01c 	strh.w	sl, [sp, #28]
 8014866:	f7f9 fa23 	bl	800dcb0 <i2cAcquireBus>
 801486a:	2300      	movs	r3, #0
 801486c:	e9cd 5300 	strd	r5, r3, [sp]
 8014870:	f8cd 8008 	str.w	r8, [sp, #8]
 8014874:	2302      	movs	r3, #2
 8014876:	aa07      	add	r2, sp, #28
 8014878:	2152      	movs	r1, #82	; 0x52
 801487a:	4620      	mov	r0, r4
 801487c:	f7f9 f9e0 	bl	800dc40 <i2cMasterTransmitTimeout>
 8014880:	4607      	mov	r7, r0
 8014882:	4620      	mov	r0, r4
 8014884:	f7f9 fa1c 	bl	800dcc0 <i2cReleaseBus>
 8014888:	2f00      	cmp	r7, #0
 801488a:	d1dd      	bne.n	8014848 <chuk_thread+0x38>
 801488c:	23fb      	movs	r3, #251	; 0xfb
 801488e:	4620      	mov	r0, r4
 8014890:	f8ad 301c 	strh.w	r3, [sp, #28]
 8014894:	f7f9 fa0c 	bl	800dcb0 <i2cAcquireBus>
 8014898:	e9cd 7801 	strd	r7, r8, [sp, #4]
 801489c:	9500      	str	r5, [sp, #0]
 801489e:	2302      	movs	r3, #2
 80148a0:	aa07      	add	r2, sp, #28
 80148a2:	2152      	movs	r1, #82	; 0x52
 80148a4:	4620      	mov	r0, r4
 80148a6:	f7f9 f9cb 	bl	800dc40 <i2cMasterTransmitTimeout>
 80148aa:	4607      	mov	r7, r0
 80148ac:	4620      	mov	r0, r4
 80148ae:	f7f9 fa07 	bl	800dcc0 <i2cReleaseBus>
 80148b2:	2f00      	cmp	r7, #0
 80148b4:	d1c8      	bne.n	8014848 <chuk_thread+0x38>
 80148b6:	4620      	mov	r0, r4
 80148b8:	f88d 701c 	strb.w	r7, [sp, #28]
 80148bc:	f7f9 f9f8 	bl	800dcb0 <i2cAcquireBus>
 80148c0:	e9cd 7801 	strd	r7, r8, [sp, #4]
 80148c4:	9500      	str	r5, [sp, #0]
 80148c6:	2301      	movs	r3, #1
 80148c8:	aa07      	add	r2, sp, #28
 80148ca:	2152      	movs	r1, #82	; 0x52
 80148cc:	4620      	mov	r0, r4
 80148ce:	f7f9 f9b7 	bl	800dc40 <i2cMasterTransmitTimeout>
 80148d2:	4607      	mov	r7, r0
 80148d4:	4620      	mov	r0, r4
 80148d6:	f7f9 f9f3 	bl	800dcc0 <i2cReleaseBus>
 80148da:	2f00      	cmp	r7, #0
 80148dc:	d1b4      	bne.n	8014848 <chuk_thread+0x38>
 80148de:	201e      	movs	r0, #30
 80148e0:	f7f8 fcf6 	bl	800d2d0 <chThdSleep>
 80148e4:	4620      	mov	r0, r4
 80148e6:	f7f9 f9e3 	bl	800dcb0 <i2cAcquireBus>
 80148ea:	f8cd 8000 	str.w	r8, [sp]
 80148ee:	2306      	movs	r3, #6
 80148f0:	462a      	mov	r2, r5
 80148f2:	2152      	movs	r1, #82	; 0x52
 80148f4:	4620      	mov	r0, r4
 80148f6:	f7f9 f9c3 	bl	800dc80 <i2cMasterReceiveTimeout>
 80148fa:	4607      	mov	r7, r0
 80148fc:	4620      	mov	r0, r4
 80148fe:	f7f9 f9df 	bl	800dcc0 <i2cReleaseBus>
 8014902:	2f00      	cmp	r7, #0
 8014904:	d1a0      	bne.n	8014848 <chuk_thread+0x38>
 8014906:	4b28      	ldr	r3, [pc, #160]	; (80149a8 <chuk_thread+0x198>)
 8014908:	4629      	mov	r1, r5
 801490a:	2201      	movs	r2, #1
 801490c:	f813 7b01 	ldrb.w	r7, [r3], #1
 8014910:	f811 0b01 	ldrb.w	r0, [r1], #1
 8014914:	4287      	cmp	r7, r0
 8014916:	bf18      	it	ne
 8014918:	2200      	movne	r2, #0
 801491a:	429e      	cmp	r6, r3
 801491c:	d1f6      	bne.n	801490c <chuk_thread+0xfc>
 801491e:	e895 0003 	ldmia.w	r5, {r0, r1}
 8014922:	4b22      	ldr	r3, [pc, #136]	; (80149ac <chuk_thread+0x19c>)
 8014924:	f8cb 0000 	str.w	r0, [fp]
 8014928:	8019      	strh	r1, [r3, #0]
 801492a:	b13a      	cbz	r2, 801493c <chuk_thread+0x12c>
 801492c:	f7fe fe98 	bl	8013660 <timeout_has_timeout>
 8014930:	2800      	cmp	r0, #0
 8014932:	d092      	beq.n	801485a <chuk_thread+0x4a>
 8014934:	2301      	movs	r3, #1
 8014936:	f8c9 3000 	str.w	r3, [r9]
 801493a:	e78e      	b.n	801485a <chuk_thread+0x4a>
 801493c:	f89d 3015 	ldrb.w	r3, [sp, #21]
 8014940:	f89d 7012 	ldrb.w	r7, [sp, #18]
 8014944:	f8c9 2000 	str.w	r2, [r9]
 8014948:	f3c3 0281 	ubfx	r2, r3, #2, #2
 801494c:	ea42 0287 	orr.w	r2, r2, r7, lsl #2
 8014950:	f89d 0013 	ldrb.w	r0, [sp, #19]
 8014954:	f89d 1014 	ldrb.w	r1, [sp, #20]
 8014958:	920c      	str	r2, [sp, #48]	; 0x30
 801495a:	f3c3 1201 	ubfx	r2, r3, #4, #2
 801495e:	ea42 0080 	orr.w	r0, r2, r0, lsl #2
 8014962:	099a      	lsrs	r2, r3, #6
 8014964:	ea42 0181 	orr.w	r1, r2, r1, lsl #2
 8014968:	f89d 7010 	ldrb.w	r7, [sp, #16]
 801496c:	910e      	str	r1, [sp, #56]	; 0x38
 801496e:	43da      	mvns	r2, r3
 8014970:	f89d 1011 	ldrb.w	r1, [sp, #17]
 8014974:	900d      	str	r0, [sp, #52]	; 0x34
 8014976:	ea6f 0353 	mvn.w	r3, r3, lsr #1
 801497a:	f002 0201 	and.w	r2, r2, #1
 801497e:	f003 0301 	and.w	r3, r3, #1
 8014982:	a80a      	add	r0, sp, #40	; 0x28
 8014984:	f88d 203d 	strb.w	r2, [sp, #61]	; 0x3d
 8014988:	f88d 303c 	strb.w	r3, [sp, #60]	; 0x3c
 801498c:	e9cd 710a 	strd	r7, r1, [sp, #40]	; 0x28
 8014990:	f7ff ff0e 	bl	80147b0 <app_nunchuk_update_output>
 8014994:	e7ca      	b.n	801492c <chuk_thread+0x11c>
 8014996:	bf00      	nop
 8014998:	20000c90 	.word	0x20000c90
 801499c:	08017470 	.word	0x08017470
 80149a0:	2000a504 	.word	0x2000a504
 80149a4:	20000fc4 	.word	0x20000fc4
 80149a8:	2000a508 	.word	0x2000a508
 80149ac:	2000a50c 	.word	0x2000a50c
 80149b0:	20009f40 	.word	0x20009f40
	...

080149c0 <timer_thread>:

		//mavlink_dbgString(0,"test");
	}
}

static THD_FUNCTION(timer_thread, arg) {
 80149c0:	b508      	push	{r3, lr}
 80149c2:	4b06      	ldr	r3, [pc, #24]	; (80149dc <timer_thread+0x1c>)
 80149c4:	4a06      	ldr	r2, [pc, #24]	; (80149e0 <timer_thread+0x20>)
 80149c6:	699b      	ldr	r3, [r3, #24]
	(void)arg;

	chRegSetThreadName("msec_timer");

	chvprintf(&SDU1, (uint8_t *)"to main -> timer_thread\r\n");
 80149c8:	4906      	ldr	r1, [pc, #24]	; (80149e4 <timer_thread+0x24>)
 80149ca:	619a      	str	r2, [r3, #24]
 80149cc:	4806      	ldr	r0, [pc, #24]	; (80149e8 <timer_thread+0x28>)
 80149ce:	f7fc f8e7 	bl	8010ba0 <chvprintf>

	for(;;) {
		//packet_timerfunc();
		chThdSleepMilliseconds(1);
 80149d2:	200a      	movs	r0, #10
 80149d4:	f7f8 fc7c 	bl	800d2d0 <chThdSleep>
 80149d8:	e7fb      	b.n	80149d2 <timer_thread+0x12>
 80149da:	bf00      	nop
 80149dc:	20000c90 	.word	0x20000c90
 80149e0:	08017540 	.word	0x08017540
 80149e4:	0801754c 	.word	0x0801754c
 80149e8:	20006b40 	.word	0x20006b40
 80149ec:	00000000 	.word	0x00000000

080149f0 <periodic_thread>:
{
 80149f0:	b508      	push	{r3, lr}
 80149f2:	4b10      	ldr	r3, [pc, #64]	; (8014a34 <periodic_thread+0x44>)
 80149f4:	4a10      	ldr	r2, [pc, #64]	; (8014a38 <periodic_thread+0x48>)
 80149f6:	699b      	ldr	r3, [r3, #24]
	chvprintf(&SDU1, (uint8_t *)"to main -> periodic_thread : LED blink 0.5s\r\n");
 80149f8:	4910      	ldr	r1, [pc, #64]	; (8014a3c <periodic_thread+0x4c>)
 80149fa:	619a      	str	r2, [r3, #24]
 80149fc:	4810      	ldr	r0, [pc, #64]	; (8014a40 <periodic_thread+0x50>)
		LED_GREEN_ON();		chThdSleepMilliseconds(50);
 80149fe:	4c11      	ldr	r4, [pc, #68]	; (8014a44 <periodic_thread+0x54>)
	chvprintf(&SDU1, (uint8_t *)"to main -> periodic_thread : LED blink 0.5s\r\n");
 8014a00:	f7fc f8ce 	bl	8010ba0 <chvprintf>
		LED_GREEN_ON();		chThdSleepMilliseconds(50);
 8014a04:	2540      	movs	r5, #64	; 0x40
 8014a06:	462e      	mov	r6, r5
 8014a08:	8326      	strh	r6, [r4, #24]
 8014a0a:	f44f 70fa 	mov.w	r0, #500	; 0x1f4
 8014a0e:	f7f8 fc5f 	bl	800d2d0 <chThdSleep>
		LED_GREEN_OFF();		chThdSleepMilliseconds(50);
 8014a12:	8365      	strh	r5, [r4, #26]
 8014a14:	f44f 70fa 	mov.w	r0, #500	; 0x1f4
 8014a18:	f7f8 fc5a 	bl	800d2d0 <chThdSleep>
		LED_GREEN_ON();		chThdSleepMilliseconds(50);
 8014a1c:	8325      	strh	r5, [r4, #24]
 8014a1e:	f44f 70fa 	mov.w	r0, #500	; 0x1f4
 8014a22:	f7f8 fc55 	bl	800d2d0 <chThdSleep>
		LED_GREEN_OFF();		chThdSleepMilliseconds(850);
 8014a26:	8365      	strh	r5, [r4, #26]
 8014a28:	f242 1034 	movw	r0, #8500	; 0x2134
 8014a2c:	f7f8 fc50 	bl	800d2d0 <chThdSleep>
 8014a30:	e7ea      	b.n	8014a08 <periodic_thread+0x18>
 8014a32:	bf00      	nop
 8014a34:	20000c90 	.word	0x20000c90
 8014a38:	08017500 	.word	0x08017500
 8014a3c:	08017510 	.word	0x08017510
 8014a40:	20006b40 	.word	0x20006b40
 8014a44:	40020400 	.word	0x40020400
	...

08014a50 <main>:
     WORK    :
     ARG     : void
     RET     : void
---------------------------------------------------------------------------*/
int main(void)
{
 8014a50:	b500      	push	{lr}
 8014a52:	b0dd      	sub	sp, #372	; 0x174
	halInit();
 8014a54:	f7f9 f844 	bl	800dae0 <halInit>
	chSysInit();
 8014a58:	f7f8 f982 	bl	800cd60 <chSysInit>

	chThdSleepMilliseconds(1000);
 8014a5c:	f242 7010 	movw	r0, #10000	; 0x2710
 8014a60:	f7f8 fc36 	bl	800d2d0 <chThdSleep>

	hw_init_gpio();
 8014a64:	f7fc fb6c 	bl	8011140 <hw_init_gpio>
	LED_RED_OFF();
 8014a68:	4b25      	ldr	r3, [pc, #148]	; (8014b00 <main+0xb0>)
 8014a6a:	2280      	movs	r2, #128	; 0x80
	LED_GREEN_OFF();
 8014a6c:	2440      	movs	r4, #64	; 0x40
	LED_RED_OFF();
 8014a6e:	835a      	strh	r2, [r3, #26]
	LED_GREEN_OFF();
 8014a70:	835c      	strh	r4, [r3, #26]

	conf_general_init();
 8014a72:	f7fe fe25 	bl	80136c0 <conf_general_init>
	ledpwm_init();
 8014a76:	f7fe fb6b 	bl	8013150 <ledpwm_init>

	comm_usb_init();
 8014a7a:	f7fe f9e9 	bl	8012e50 <comm_usb_init>
	chThdSleepMilliseconds(1000);
 8014a7e:	f242 7010 	movw	r0, #10000	; 0x2710
 8014a82:	f7f8 fc25 	bl	800d2d0 <chThdSleep>
	chvprintf(&SDU1, (uint8_t *)"\x1b[2J\x1b[0;0H");
 8014a86:	491f      	ldr	r1, [pc, #124]	; (8014b04 <main+0xb4>)
 8014a88:	481f      	ldr	r0, [pc, #124]	; (8014b08 <main+0xb8>)
 8014a8a:	f7fc f889 	bl	8010ba0 <chvprintf>
	chvprintf(&SDU1, (uint8_t *)"USB Serial ready...\r\n\r\n\r\n");
 8014a8e:	491f      	ldr	r1, [pc, #124]	; (8014b0c <main+0xbc>)
 8014a90:	481d      	ldr	r0, [pc, #116]	; (8014b08 <main+0xb8>)
 8014a92:	f7fc f885 	bl	8010ba0 <chvprintf>

	chvprintf(&SDU1, (uint8_t *)"Project : OROCA BLDC\r\n");
 8014a96:	491e      	ldr	r1, [pc, #120]	; (8014b10 <main+0xc0>)
 8014a98:	481b      	ldr	r0, [pc, #108]	; (8014b08 <main+0xb8>)
 8014a9a:	f7fc f881 	bl	8010ba0 <chvprintf>
	chvprintf(&SDU1, (uint8_t *)"by BakChaJang\r\n");
 8014a9e:	491d      	ldr	r1, [pc, #116]	; (8014b14 <main+0xc4>)
 8014aa0:	4819      	ldr	r0, [pc, #100]	; (8014b08 <main+0xb8>)
 8014aa2:	f7fc f87d 	bl	8010ba0 <chvprintf>
	chvprintf(&SDU1, (uint8_t *)"date : 2017/11/15\r\n\r\n");
 8014aa6:	491c      	ldr	r1, [pc, #112]	; (8014b18 <main+0xc8>)
 8014aa8:	4817      	ldr	r0, [pc, #92]	; (8014b08 <main+0xb8>)
 8014aaa:	f7fc f879 	bl	8010ba0 <chvprintf>

	mc_configuration mcconf;
	conf_general_read_mc_configuration(&mcconf);
 8014aae:	a82a      	add	r0, sp, #168	; 0xa8
 8014ab0:	f7fe feb6 	bl	8013820 <conf_general_read_mc_configuration>
	mc_interface_init(&mcconf);
 8014ab4:	a82a      	add	r0, sp, #168	; 0xa8
 8014ab6:	f7fd fa7b 	bl	8011fb0 <mc_interface_init>

	app_configuration appconf;
	conf_general_read_app_configuration(&appconf);
 8014aba:	a802      	add	r0, sp, #8
 8014abc:	f7fe fe88 	bl	80137d0 <conf_general_read_app_configuration>
	app_init(&appconf);
 8014ac0:	a802      	add	r0, sp, #8
 8014ac2:	f7ff fc45 	bl	8014350 <app_init>
#if CAN_ENABLE
	comm_can_init();
#endif

	// Threads
	chThdCreateStatic(periodic_thread_wa, sizeof(periodic_thread_wa), NORMALPRIO, periodic_thread, NULL);
 8014ac6:	2500      	movs	r5, #0
	timeout_init();
 8014ac8:	f7fe fdda 	bl	8013680 <timeout_init>
	timeout_configure(1000);
 8014acc:	f44f 707a 	mov.w	r0, #1000	; 0x3e8
 8014ad0:	f7fe fdae 	bl	8013630 <timeout_configure>
	comm_can_init();
 8014ad4:	f7fe f874 	bl	8012bc0 <comm_can_init>
	chThdCreateStatic(periodic_thread_wa, sizeof(periodic_thread_wa), NORMALPRIO, periodic_thread, NULL);
 8014ad8:	4622      	mov	r2, r4
 8014ada:	4b10      	ldr	r3, [pc, #64]	; (8014b1c <main+0xcc>)
 8014adc:	9500      	str	r5, [sp, #0]
 8014ade:	f44f 7106 	mov.w	r1, #536	; 0x218
 8014ae2:	480f      	ldr	r0, [pc, #60]	; (8014b20 <main+0xd0>)
 8014ae4:	f7f8 fbbc 	bl	800d260 <chThdCreateStatic>
	chThdCreateStatic(timer_thread_wa, sizeof(timer_thread_wa), NORMALPRIO, timer_thread, NULL);
 8014ae8:	9500      	str	r5, [sp, #0]
 8014aea:	4622      	mov	r2, r4
 8014aec:	4b0d      	ldr	r3, [pc, #52]	; (8014b24 <main+0xd4>)
 8014aee:	480e      	ldr	r0, [pc, #56]	; (8014b28 <main+0xd8>)
 8014af0:	f44f 7106 	mov.w	r1, #536	; 0x218
 8014af4:	f7f8 fbb4 	bl	800d260 <chThdCreateStatic>

//=================================
	for(;;)
	{
		chThdSleepMilliseconds(10);
 8014af8:	2064      	movs	r0, #100	; 0x64
 8014afa:	f7f8 fbe9 	bl	800d2d0 <chThdSleep>
 8014afe:	e7fb      	b.n	8014af8 <main+0xa8>
 8014b00:	40020400 	.word	0x40020400
 8014b04:	08017490 	.word	0x08017490
 8014b08:	20006b40 	.word	0x20006b40
 8014b0c:	0801749c 	.word	0x0801749c
 8014b10:	080174b8 	.word	0x080174b8
 8014b14:	080174d0 	.word	0x080174d0
 8014b18:	080174e0 	.word	0x080174e0
 8014b1c:	080149f1 	.word	0x080149f1
 8014b20:	2000aaa8 	.word	0x2000aaa8
 8014b24:	080149c1 	.word	0x080149c1
 8014b28:	2000acc0 	.word	0x2000acc0
 8014b2c:	00000000 	.word	0x00000000

08014b30 <ADC_Init>:
 8014b30:	6842      	ldr	r2, [r0, #4]
 8014b32:	690b      	ldr	r3, [r1, #16]
 8014b34:	b470      	push	{r4, r5, r6}
 8014b36:	f022 7240 	bic.w	r2, r2, #50331648	; 0x3000000
 8014b3a:	790e      	ldrb	r6, [r1, #4]
 8014b3c:	680d      	ldr	r5, [r1, #0]
 8014b3e:	688c      	ldr	r4, [r1, #8]
 8014b40:	f422 7280 	bic.w	r2, r2, #256	; 0x100
 8014b44:	ea42 2206 	orr.w	r2, r2, r6, lsl #8
 8014b48:	432a      	orrs	r2, r5
 8014b4a:	6042      	str	r2, [r0, #4]
 8014b4c:	68ce      	ldr	r6, [r1, #12]
 8014b4e:	6885      	ldr	r5, [r0, #8]
 8014b50:	4a09      	ldr	r2, [pc, #36]	; (8014b78 <ADC_Init+0x48>)
 8014b52:	4333      	orrs	r3, r6
 8014b54:	402a      	ands	r2, r5
 8014b56:	4323      	orrs	r3, r4
 8014b58:	794c      	ldrb	r4, [r1, #5]
 8014b5a:	4313      	orrs	r3, r2
 8014b5c:	ea43 0344 	orr.w	r3, r3, r4, lsl #1
 8014b60:	6083      	str	r3, [r0, #8]
 8014b62:	7d0a      	ldrb	r2, [r1, #20]
 8014b64:	6ac3      	ldr	r3, [r0, #44]	; 0x2c
 8014b66:	3a01      	subs	r2, #1
 8014b68:	b2d2      	uxtb	r2, r2
 8014b6a:	f423 0370 	bic.w	r3, r3, #15728640	; 0xf00000
 8014b6e:	ea43 5302 	orr.w	r3, r3, r2, lsl #20
 8014b72:	62c3      	str	r3, [r0, #44]	; 0x2c
 8014b74:	bc70      	pop	{r4, r5, r6}
 8014b76:	4770      	bx	lr
 8014b78:	c0fff7fd 	.word	0xc0fff7fd
 8014b7c:	00000000 	.word	0x00000000

08014b80 <ADC_CommonInit>:
 8014b80:	4907      	ldr	r1, [pc, #28]	; (8014ba0 <ADC_CommonInit+0x20>)
 8014b82:	4a08      	ldr	r2, [pc, #32]	; (8014ba4 <ADC_CommonInit+0x24>)
 8014b84:	b430      	push	{r4, r5}
 8014b86:	e9d0 3500 	ldrd	r3, r5, [r0]
 8014b8a:	684c      	ldr	r4, [r1, #4]
 8014b8c:	4022      	ands	r2, r4
 8014b8e:	e9d0 4002 	ldrd	r4, r0, [r0, #8]
 8014b92:	432b      	orrs	r3, r5
 8014b94:	4313      	orrs	r3, r2
 8014b96:	4323      	orrs	r3, r4
 8014b98:	4303      	orrs	r3, r0
 8014b9a:	604b      	str	r3, [r1, #4]
 8014b9c:	bc30      	pop	{r4, r5}
 8014b9e:	4770      	bx	lr
 8014ba0:	40012300 	.word	0x40012300
 8014ba4:	fffc30e0 	.word	0xfffc30e0
	...

08014bb0 <ADC_Cmd>:
 8014bb0:	6883      	ldr	r3, [r0, #8]
 8014bb2:	b919      	cbnz	r1, 8014bbc <ADC_Cmd+0xc>
 8014bb4:	f023 0301 	bic.w	r3, r3, #1
 8014bb8:	6083      	str	r3, [r0, #8]
 8014bba:	4770      	bx	lr
 8014bbc:	f043 0301 	orr.w	r3, r3, #1
 8014bc0:	6083      	str	r3, [r0, #8]
 8014bc2:	4770      	bx	lr
	...

08014bd0 <ADC_RegularChannelConfig>:
 8014bd0:	2909      	cmp	r1, #9
 8014bd2:	b470      	push	{r4, r5, r6}
 8014bd4:	d91c      	bls.n	8014c10 <ADC_RegularChannelConfig+0x40>
 8014bd6:	f1a1 040a 	sub.w	r4, r1, #10
 8014bda:	eb04 0444 	add.w	r4, r4, r4, lsl #1
 8014bde:	68c5      	ldr	r5, [r0, #12]
 8014be0:	2607      	movs	r6, #7
 8014be2:	40a6      	lsls	r6, r4
 8014be4:	40a3      	lsls	r3, r4
 8014be6:	ea25 0406 	bic.w	r4, r5, r6
 8014bea:	4323      	orrs	r3, r4
 8014bec:	2a06      	cmp	r2, #6
 8014bee:	60c3      	str	r3, [r0, #12]
 8014bf0:	d91a      	bls.n	8014c28 <ADC_RegularChannelConfig+0x58>
 8014bf2:	2a0c      	cmp	r2, #12
 8014bf4:	d925      	bls.n	8014c42 <ADC_RegularChannelConfig+0x72>
 8014bf6:	3a0d      	subs	r2, #13
 8014bf8:	eb02 0282 	add.w	r2, r2, r2, lsl #2
 8014bfc:	6ac3      	ldr	r3, [r0, #44]	; 0x2c
 8014bfe:	241f      	movs	r4, #31
 8014c00:	4094      	lsls	r4, r2
 8014c02:	4091      	lsls	r1, r2
 8014c04:	ea23 0204 	bic.w	r2, r3, r4
 8014c08:	4311      	orrs	r1, r2
 8014c0a:	62c1      	str	r1, [r0, #44]	; 0x2c
 8014c0c:	bc70      	pop	{r4, r5, r6}
 8014c0e:	4770      	bx	lr
 8014c10:	eb01 0641 	add.w	r6, r1, r1, lsl #1
 8014c14:	6904      	ldr	r4, [r0, #16]
 8014c16:	2507      	movs	r5, #7
 8014c18:	40b5      	lsls	r5, r6
 8014c1a:	40b3      	lsls	r3, r6
 8014c1c:	ea24 0405 	bic.w	r4, r4, r5
 8014c20:	4323      	orrs	r3, r4
 8014c22:	2a06      	cmp	r2, #6
 8014c24:	6103      	str	r3, [r0, #16]
 8014c26:	d8e4      	bhi.n	8014bf2 <ADC_RegularChannelConfig+0x22>
 8014c28:	3a01      	subs	r2, #1
 8014c2a:	eb02 0282 	add.w	r2, r2, r2, lsl #2
 8014c2e:	6b43      	ldr	r3, [r0, #52]	; 0x34
 8014c30:	241f      	movs	r4, #31
 8014c32:	4094      	lsls	r4, r2
 8014c34:	4091      	lsls	r1, r2
 8014c36:	ea23 0204 	bic.w	r2, r3, r4
 8014c3a:	4311      	orrs	r1, r2
 8014c3c:	6341      	str	r1, [r0, #52]	; 0x34
 8014c3e:	bc70      	pop	{r4, r5, r6}
 8014c40:	4770      	bx	lr
 8014c42:	3a07      	subs	r2, #7
 8014c44:	eb02 0282 	add.w	r2, r2, r2, lsl #2
 8014c48:	6b03      	ldr	r3, [r0, #48]	; 0x30
 8014c4a:	241f      	movs	r4, #31
 8014c4c:	4094      	lsls	r4, r2
 8014c4e:	4091      	lsls	r1, r2
 8014c50:	ea23 0204 	bic.w	r2, r3, r4
 8014c54:	4311      	orrs	r1, r2
 8014c56:	6301      	str	r1, [r0, #48]	; 0x30
 8014c58:	bc70      	pop	{r4, r5, r6}
 8014c5a:	4770      	bx	lr
 8014c5c:	0000      	movs	r0, r0
	...

08014c60 <ADC_MultiModeDMARequestAfterLastTransferCmd>:
 8014c60:	4a05      	ldr	r2, [pc, #20]	; (8014c78 <ADC_MultiModeDMARequestAfterLastTransferCmd+0x18>)
 8014c62:	6853      	ldr	r3, [r2, #4]
 8014c64:	b918      	cbnz	r0, 8014c6e <ADC_MultiModeDMARequestAfterLastTransferCmd+0xe>
 8014c66:	f423 5300 	bic.w	r3, r3, #8192	; 0x2000
 8014c6a:	6053      	str	r3, [r2, #4]
 8014c6c:	4770      	bx	lr
 8014c6e:	f443 5300 	orr.w	r3, r3, #8192	; 0x2000
 8014c72:	6053      	str	r3, [r2, #4]
 8014c74:	4770      	bx	lr
 8014c76:	bf00      	nop
 8014c78:	40012300 	.word	0x40012300
 8014c7c:	00000000 	.word	0x00000000

08014c80 <ADC_InjectedChannelConfig>:
 8014c80:	2909      	cmp	r1, #9
 8014c82:	b470      	push	{r4, r5, r6}
 8014c84:	d81a      	bhi.n	8014cbc <ADC_InjectedChannelConfig+0x3c>
 8014c86:	eb01 0641 	add.w	r6, r1, r1, lsl #1
 8014c8a:	6904      	ldr	r4, [r0, #16]
 8014c8c:	2507      	movs	r5, #7
 8014c8e:	40b5      	lsls	r5, r6
 8014c90:	40b3      	lsls	r3, r6
 8014c92:	ea24 0405 	bic.w	r4, r4, r5
 8014c96:	4323      	orrs	r3, r4
 8014c98:	6103      	str	r3, [r0, #16]
 8014c9a:	6b83      	ldr	r3, [r0, #56]	; 0x38
 8014c9c:	3202      	adds	r2, #2
 8014c9e:	f3c3 5401 	ubfx	r4, r3, #20, #2
 8014ca2:	1b12      	subs	r2, r2, r4
 8014ca4:	b2d2      	uxtb	r2, r2
 8014ca6:	eb02 0282 	add.w	r2, r2, r2, lsl #2
 8014caa:	241f      	movs	r4, #31
 8014cac:	4094      	lsls	r4, r2
 8014cae:	ea23 0304 	bic.w	r3, r3, r4
 8014cb2:	4091      	lsls	r1, r2
 8014cb4:	4319      	orrs	r1, r3
 8014cb6:	6381      	str	r1, [r0, #56]	; 0x38
 8014cb8:	bc70      	pop	{r4, r5, r6}
 8014cba:	4770      	bx	lr
 8014cbc:	f1a1 040a 	sub.w	r4, r1, #10
 8014cc0:	eb04 0444 	add.w	r4, r4, r4, lsl #1
 8014cc4:	68c5      	ldr	r5, [r0, #12]
 8014cc6:	2607      	movs	r6, #7
 8014cc8:	40a6      	lsls	r6, r4
 8014cca:	40a3      	lsls	r3, r4
 8014ccc:	ea25 0406 	bic.w	r4, r5, r6
 8014cd0:	4323      	orrs	r3, r4
 8014cd2:	60c3      	str	r3, [r0, #12]
 8014cd4:	e7e1      	b.n	8014c9a <ADC_InjectedChannelConfig+0x1a>
 8014cd6:	bf00      	nop
	...

08014ce0 <ADC_ClearITPendingBit>:
 8014ce0:	ea6f 2111 	mvn.w	r1, r1, lsr #8
 8014ce4:	6001      	str	r1, [r0, #0]
 8014ce6:	4770      	bx	lr
	...

08014cf0 <DMA_Init>:
 8014cf0:	680b      	ldr	r3, [r1, #0]
 8014cf2:	b470      	push	{r4, r5, r6}
 8014cf4:	e9d1 2405 	ldrd	r2, r4, [r1, #20]
 8014cf8:	68cd      	ldr	r5, [r1, #12]
 8014cfa:	432b      	orrs	r3, r5
 8014cfc:	4313      	orrs	r3, r2
 8014cfe:	e9d1 2507 	ldrd	r2, r5, [r1, #28]
 8014d02:	4323      	orrs	r3, r4
 8014d04:	4313      	orrs	r3, r2
 8014d06:	e9d1 4209 	ldrd	r4, r2, [r1, #36]	; 0x24
 8014d0a:	432b      	orrs	r3, r5
 8014d0c:	e9d1 650d 	ldrd	r6, r5, [r1, #52]	; 0x34
 8014d10:	4323      	orrs	r3, r4
 8014d12:	4313      	orrs	r3, r2
 8014d14:	6804      	ldr	r4, [r0, #0]
 8014d16:	4a0b      	ldr	r2, [pc, #44]	; (8014d44 <DMA_Init+0x54>)
 8014d18:	4333      	orrs	r3, r6
 8014d1a:	4022      	ands	r2, r4
 8014d1c:	432b      	orrs	r3, r5
 8014d1e:	4313      	orrs	r3, r2
 8014d20:	6003      	str	r3, [r0, #0]
 8014d22:	e9d1 340b 	ldrd	r3, r4, [r1, #44]	; 0x2c
 8014d26:	6942      	ldr	r2, [r0, #20]
 8014d28:	690d      	ldr	r5, [r1, #16]
 8014d2a:	f022 0207 	bic.w	r2, r2, #7
 8014d2e:	4323      	orrs	r3, r4
 8014d30:	4313      	orrs	r3, r2
 8014d32:	e9d1 4201 	ldrd	r4, r2, [r1, #4]
 8014d36:	6143      	str	r3, [r0, #20]
 8014d38:	6045      	str	r5, [r0, #4]
 8014d3a:	6084      	str	r4, [r0, #8]
 8014d3c:	60c2      	str	r2, [r0, #12]
 8014d3e:	bc70      	pop	{r4, r5, r6}
 8014d40:	4770      	bx	lr
 8014d42:	bf00      	nop
 8014d44:	f01c803f 	.word	0xf01c803f
	...

08014d50 <DMA_Cmd>:
 8014d50:	6803      	ldr	r3, [r0, #0]
 8014d52:	b919      	cbnz	r1, 8014d5c <DMA_Cmd+0xc>
 8014d54:	f023 0301 	bic.w	r3, r3, #1
 8014d58:	6003      	str	r3, [r0, #0]
 8014d5a:	4770      	bx	lr
 8014d5c:	f043 0301 	orr.w	r3, r3, #1
 8014d60:	6003      	str	r3, [r0, #0]
 8014d62:	4770      	bx	lr
	...

08014d70 <DMA_ITConfig>:
 8014d70:	060b      	lsls	r3, r1, #24
 8014d72:	d50c      	bpl.n	8014d8e <DMA_ITConfig+0x1e>
 8014d74:	6943      	ldr	r3, [r0, #20]
 8014d76:	b1aa      	cbz	r2, 8014da4 <DMA_ITConfig+0x34>
 8014d78:	f043 0380 	orr.w	r3, r3, #128	; 0x80
 8014d7c:	2980      	cmp	r1, #128	; 0x80
 8014d7e:	6143      	str	r3, [r0, #20]
 8014d80:	d00f      	beq.n	8014da2 <DMA_ITConfig+0x32>
 8014d82:	6803      	ldr	r3, [r0, #0]
 8014d84:	f001 011e 	and.w	r1, r1, #30
 8014d88:	4319      	orrs	r1, r3
 8014d8a:	6001      	str	r1, [r0, #0]
 8014d8c:	4770      	bx	lr
 8014d8e:	2980      	cmp	r1, #128	; 0x80
 8014d90:	d007      	beq.n	8014da2 <DMA_ITConfig+0x32>
 8014d92:	2a00      	cmp	r2, #0
 8014d94:	d1f5      	bne.n	8014d82 <DMA_ITConfig+0x12>
 8014d96:	6803      	ldr	r3, [r0, #0]
 8014d98:	f001 011e 	and.w	r1, r1, #30
 8014d9c:	ea23 0101 	bic.w	r1, r3, r1
 8014da0:	6001      	str	r1, [r0, #0]
 8014da2:	4770      	bx	lr
 8014da4:	f023 0380 	bic.w	r3, r3, #128	; 0x80
 8014da8:	2980      	cmp	r1, #128	; 0x80
 8014daa:	6143      	str	r3, [r0, #20]
 8014dac:	d1f3      	bne.n	8014d96 <DMA_ITConfig+0x26>
 8014dae:	4770      	bx	lr

08014db0 <EXTI_GetFlagStatus>:
 8014db0:	4b03      	ldr	r3, [pc, #12]	; (8014dc0 <EXTI_GetFlagStatus+0x10>)
 8014db2:	695b      	ldr	r3, [r3, #20]
 8014db4:	4203      	tst	r3, r0
 8014db6:	bf14      	ite	ne
 8014db8:	2001      	movne	r0, #1
 8014dba:	2000      	moveq	r0, #0
 8014dbc:	4770      	bx	lr
 8014dbe:	bf00      	nop
 8014dc0:	40013c00 	.word	0x40013c00
	...

08014dd0 <EXTI_GetITStatus>:
 8014dd0:	f7ff bfee 	b.w	8014db0 <EXTI_GetFlagStatus>
	...

08014de0 <EXTI_ClearITPendingBit>:
 8014de0:	4b01      	ldr	r3, [pc, #4]	; (8014de8 <EXTI_ClearITPendingBit+0x8>)
 8014de2:	6158      	str	r0, [r3, #20]
 8014de4:	4770      	bx	lr
 8014de6:	bf00      	nop
 8014de8:	40013c00 	.word	0x40013c00
 8014dec:	00000000 	.word	0x00000000

08014df0 <FLASH_Unlock>:
 8014df0:	4b04      	ldr	r3, [pc, #16]	; (8014e04 <FLASH_Unlock+0x14>)
 8014df2:	691a      	ldr	r2, [r3, #16]
 8014df4:	2a00      	cmp	r2, #0
 8014df6:	da03      	bge.n	8014e00 <FLASH_Unlock+0x10>
 8014df8:	4903      	ldr	r1, [pc, #12]	; (8014e08 <FLASH_Unlock+0x18>)
 8014dfa:	4a04      	ldr	r2, [pc, #16]	; (8014e0c <FLASH_Unlock+0x1c>)
 8014dfc:	6059      	str	r1, [r3, #4]
 8014dfe:	605a      	str	r2, [r3, #4]
 8014e00:	4770      	bx	lr
 8014e02:	bf00      	nop
 8014e04:	40023c00 	.word	0x40023c00
 8014e08:	45670123 	.word	0x45670123
 8014e0c:	cdef89ab 	.word	0xcdef89ab

08014e10 <FLASH_ClearFlag>:
 8014e10:	4b01      	ldr	r3, [pc, #4]	; (8014e18 <FLASH_ClearFlag+0x8>)
 8014e12:	60d8      	str	r0, [r3, #12]
 8014e14:	4770      	bx	lr
 8014e16:	bf00      	nop
 8014e18:	40023c00 	.word	0x40023c00
 8014e1c:	00000000 	.word	0x00000000

08014e20 <FLASH_GetStatus>:
 8014e20:	4b0e      	ldr	r3, [pc, #56]	; (8014e5c <FLASH_GetStatus+0x3c>)
 8014e22:	68da      	ldr	r2, [r3, #12]
 8014e24:	03d2      	lsls	r2, r2, #15
 8014e26:	d410      	bmi.n	8014e4a <FLASH_GetStatus+0x2a>
 8014e28:	68da      	ldr	r2, [r3, #12]
 8014e2a:	06d1      	lsls	r1, r2, #27
 8014e2c:	d40f      	bmi.n	8014e4e <FLASH_GetStatus+0x2e>
 8014e2e:	68da      	ldr	r2, [r3, #12]
 8014e30:	05d2      	lsls	r2, r2, #23
 8014e32:	d410      	bmi.n	8014e56 <FLASH_GetStatus+0x36>
 8014e34:	68da      	ldr	r2, [r3, #12]
 8014e36:	f012 0fe0 	tst.w	r2, #224	; 0xe0
 8014e3a:	d10a      	bne.n	8014e52 <FLASH_GetStatus+0x32>
 8014e3c:	68db      	ldr	r3, [r3, #12]
 8014e3e:	f013 0f02 	tst.w	r3, #2
 8014e42:	bf14      	ite	ne
 8014e44:	2008      	movne	r0, #8
 8014e46:	2009      	moveq	r0, #9
 8014e48:	4770      	bx	lr
 8014e4a:	2001      	movs	r0, #1
 8014e4c:	4770      	bx	lr
 8014e4e:	2006      	movs	r0, #6
 8014e50:	4770      	bx	lr
 8014e52:	2007      	movs	r0, #7
 8014e54:	4770      	bx	lr
 8014e56:	2002      	movs	r0, #2
 8014e58:	4770      	bx	lr
 8014e5a:	bf00      	nop
 8014e5c:	40023c00 	.word	0x40023c00

08014e60 <FLASH_WaitForLastOperation>:
 8014e60:	b500      	push	{lr}
 8014e62:	b083      	sub	sp, #12
 8014e64:	2309      	movs	r3, #9
 8014e66:	f88d 3007 	strb.w	r3, [sp, #7]
 8014e6a:	f7ff ffd9 	bl	8014e20 <FLASH_GetStatus>
 8014e6e:	f88d 0007 	strb.w	r0, [sp, #7]
 8014e72:	f89d 3007 	ldrb.w	r3, [sp, #7]
 8014e76:	2b01      	cmp	r3, #1
 8014e78:	d0f7      	beq.n	8014e6a <FLASH_WaitForLastOperation+0xa>
 8014e7a:	f89d 0007 	ldrb.w	r0, [sp, #7]
 8014e7e:	b003      	add	sp, #12
 8014e80:	f85d fb04 	ldr.w	pc, [sp], #4
	...

08014e90 <FLASH_EraseSector>:
 8014e90:	b570      	push	{r4, r5, r6, lr}
 8014e92:	4606      	mov	r6, r0
 8014e94:	b161      	cbz	r1, 8014eb0 <FLASH_EraseSector+0x20>
 8014e96:	2901      	cmp	r1, #1
 8014e98:	d02f      	beq.n	8014efa <FLASH_EraseSector+0x6a>
 8014e9a:	2902      	cmp	r1, #2
 8014e9c:	bf0c      	ite	eq
 8014e9e:	f44f 7400 	moveq.w	r4, #512	; 0x200
 8014ea2:	f44f 7440 	movne.w	r4, #768	; 0x300
 8014ea6:	f7ff ffdb 	bl	8014e60 <FLASH_WaitForLastOperation>
 8014eaa:	2809      	cmp	r0, #9
 8014eac:	d005      	beq.n	8014eba <FLASH_EraseSector+0x2a>
 8014eae:	bd70      	pop	{r4, r5, r6, pc}
 8014eb0:	460c      	mov	r4, r1
 8014eb2:	f7ff ffd5 	bl	8014e60 <FLASH_WaitForLastOperation>
 8014eb6:	2809      	cmp	r0, #9
 8014eb8:	d1f9      	bne.n	8014eae <FLASH_EraseSector+0x1e>
 8014eba:	4d11      	ldr	r5, [pc, #68]	; (8014f00 <FLASH_EraseSector+0x70>)
 8014ebc:	692b      	ldr	r3, [r5, #16]
 8014ebe:	f423 7340 	bic.w	r3, r3, #768	; 0x300
 8014ec2:	612b      	str	r3, [r5, #16]
 8014ec4:	6929      	ldr	r1, [r5, #16]
 8014ec6:	4321      	orrs	r1, r4
 8014ec8:	6129      	str	r1, [r5, #16]
 8014eca:	692b      	ldr	r3, [r5, #16]
 8014ecc:	f023 03f8 	bic.w	r3, r3, #248	; 0xf8
 8014ed0:	612b      	str	r3, [r5, #16]
 8014ed2:	6928      	ldr	r0, [r5, #16]
 8014ed4:	f040 0002 	orr.w	r0, r0, #2
 8014ed8:	4330      	orrs	r0, r6
 8014eda:	6128      	str	r0, [r5, #16]
 8014edc:	692b      	ldr	r3, [r5, #16]
 8014ede:	f443 3380 	orr.w	r3, r3, #65536	; 0x10000
 8014ee2:	612b      	str	r3, [r5, #16]
 8014ee4:	f7ff ffbc 	bl	8014e60 <FLASH_WaitForLastOperation>
 8014ee8:	692b      	ldr	r3, [r5, #16]
 8014eea:	f023 0302 	bic.w	r3, r3, #2
 8014eee:	612b      	str	r3, [r5, #16]
 8014ef0:	692b      	ldr	r3, [r5, #16]
 8014ef2:	f023 03f8 	bic.w	r3, r3, #248	; 0xf8
 8014ef6:	612b      	str	r3, [r5, #16]
 8014ef8:	bd70      	pop	{r4, r5, r6, pc}
 8014efa:	f44f 7480 	mov.w	r4, #256	; 0x100
 8014efe:	e7d8      	b.n	8014eb2 <FLASH_EraseSector+0x22>
 8014f00:	40023c00 	.word	0x40023c00
	...

08014f10 <FLASH_ProgramHalfWord>:
 8014f10:	b570      	push	{r4, r5, r6, lr}
 8014f12:	4605      	mov	r5, r0
 8014f14:	460e      	mov	r6, r1
 8014f16:	f7ff ffa3 	bl	8014e60 <FLASH_WaitForLastOperation>
 8014f1a:	2809      	cmp	r0, #9
 8014f1c:	d000      	beq.n	8014f20 <FLASH_ProgramHalfWord+0x10>
 8014f1e:	bd70      	pop	{r4, r5, r6, pc}
 8014f20:	4c0a      	ldr	r4, [pc, #40]	; (8014f4c <FLASH_ProgramHalfWord+0x3c>)
 8014f22:	6923      	ldr	r3, [r4, #16]
 8014f24:	f423 7340 	bic.w	r3, r3, #768	; 0x300
 8014f28:	6123      	str	r3, [r4, #16]
 8014f2a:	6923      	ldr	r3, [r4, #16]
 8014f2c:	f443 7380 	orr.w	r3, r3, #256	; 0x100
 8014f30:	6123      	str	r3, [r4, #16]
 8014f32:	6923      	ldr	r3, [r4, #16]
 8014f34:	f043 0301 	orr.w	r3, r3, #1
 8014f38:	6123      	str	r3, [r4, #16]
 8014f3a:	802e      	strh	r6, [r5, #0]
 8014f3c:	f7ff ff90 	bl	8014e60 <FLASH_WaitForLastOperation>
 8014f40:	6923      	ldr	r3, [r4, #16]
 8014f42:	f023 0301 	bic.w	r3, r3, #1
 8014f46:	6123      	str	r3, [r4, #16]
 8014f48:	bd70      	pop	{r4, r5, r6, pc}
 8014f4a:	bf00      	nop
 8014f4c:	40023c00 	.word	0x40023c00

08014f50 <RCC_AHB1PeriphClockCmd>:
 8014f50:	4a04      	ldr	r2, [pc, #16]	; (8014f64 <RCC_AHB1PeriphClockCmd+0x14>)
 8014f52:	6b13      	ldr	r3, [r2, #48]	; 0x30
 8014f54:	b919      	cbnz	r1, 8014f5e <RCC_AHB1PeriphClockCmd+0xe>
 8014f56:	ea23 0000 	bic.w	r0, r3, r0
 8014f5a:	6310      	str	r0, [r2, #48]	; 0x30
 8014f5c:	4770      	bx	lr
 8014f5e:	4318      	orrs	r0, r3
 8014f60:	6310      	str	r0, [r2, #48]	; 0x30
 8014f62:	4770      	bx	lr
 8014f64:	40023800 	.word	0x40023800
	...

08014f70 <RCC_APB1PeriphClockCmd>:
 8014f70:	4a04      	ldr	r2, [pc, #16]	; (8014f84 <RCC_APB1PeriphClockCmd+0x14>)
 8014f72:	6c13      	ldr	r3, [r2, #64]	; 0x40
 8014f74:	b919      	cbnz	r1, 8014f7e <RCC_APB1PeriphClockCmd+0xe>
 8014f76:	ea23 0000 	bic.w	r0, r3, r0
 8014f7a:	6410      	str	r0, [r2, #64]	; 0x40
 8014f7c:	4770      	bx	lr
 8014f7e:	4318      	orrs	r0, r3
 8014f80:	6410      	str	r0, [r2, #64]	; 0x40
 8014f82:	4770      	bx	lr
 8014f84:	40023800 	.word	0x40023800
	...

08014f90 <RCC_APB2PeriphClockCmd>:
 8014f90:	4a04      	ldr	r2, [pc, #16]	; (8014fa4 <RCC_APB2PeriphClockCmd+0x14>)
 8014f92:	6c53      	ldr	r3, [r2, #68]	; 0x44
 8014f94:	b919      	cbnz	r1, 8014f9e <RCC_APB2PeriphClockCmd+0xe>
 8014f96:	ea23 0000 	bic.w	r0, r3, r0
 8014f9a:	6450      	str	r0, [r2, #68]	; 0x44
 8014f9c:	4770      	bx	lr
 8014f9e:	4318      	orrs	r0, r3
 8014fa0:	6450      	str	r0, [r2, #68]	; 0x44
 8014fa2:	4770      	bx	lr
 8014fa4:	40023800 	.word	0x40023800
	...

08014fb0 <RCC_APB1PeriphResetCmd>:
 8014fb0:	4a04      	ldr	r2, [pc, #16]	; (8014fc4 <RCC_APB1PeriphResetCmd+0x14>)
 8014fb2:	6a13      	ldr	r3, [r2, #32]
 8014fb4:	b919      	cbnz	r1, 8014fbe <RCC_APB1PeriphResetCmd+0xe>
 8014fb6:	ea23 0000 	bic.w	r0, r3, r0
 8014fba:	6210      	str	r0, [r2, #32]
 8014fbc:	4770      	bx	lr
 8014fbe:	4318      	orrs	r0, r3
 8014fc0:	6210      	str	r0, [r2, #32]
 8014fc2:	4770      	bx	lr
 8014fc4:	40023800 	.word	0x40023800
	...

08014fd0 <RCC_APB2PeriphResetCmd>:
 8014fd0:	4a04      	ldr	r2, [pc, #16]	; (8014fe4 <RCC_APB2PeriphResetCmd+0x14>)
 8014fd2:	6a53      	ldr	r3, [r2, #36]	; 0x24
 8014fd4:	b919      	cbnz	r1, 8014fde <RCC_APB2PeriphResetCmd+0xe>
 8014fd6:	ea23 0000 	bic.w	r0, r3, r0
 8014fda:	6250      	str	r0, [r2, #36]	; 0x24
 8014fdc:	4770      	bx	lr
 8014fde:	4318      	orrs	r0, r3
 8014fe0:	6250      	str	r0, [r2, #36]	; 0x24
 8014fe2:	4770      	bx	lr
 8014fe4:	40023800 	.word	0x40023800
	...

08014ff0 <TIM_DeInit>:
 8014ff0:	b508      	push	{r3, lr}
 8014ff2:	4b60      	ldr	r3, [pc, #384]	; (8015174 <TIM_DeInit+0x184>)
 8014ff4:	4298      	cmp	r0, r3
 8014ff6:	d032      	beq.n	801505e <TIM_DeInit+0x6e>
 8014ff8:	f1b0 4f80 	cmp.w	r0, #1073741824	; 0x40000000
 8014ffc:	d039      	beq.n	8015072 <TIM_DeInit+0x82>
 8014ffe:	4b5e      	ldr	r3, [pc, #376]	; (8015178 <TIM_DeInit+0x188>)
 8015000:	4298      	cmp	r0, r3
 8015002:	d040      	beq.n	8015086 <TIM_DeInit+0x96>
 8015004:	4b5d      	ldr	r3, [pc, #372]	; (801517c <TIM_DeInit+0x18c>)
 8015006:	4298      	cmp	r0, r3
 8015008:	d047      	beq.n	801509a <TIM_DeInit+0xaa>
 801500a:	4b5d      	ldr	r3, [pc, #372]	; (8015180 <TIM_DeInit+0x190>)
 801500c:	4298      	cmp	r0, r3
 801500e:	d01c      	beq.n	801504a <TIM_DeInit+0x5a>
 8015010:	4b5c      	ldr	r3, [pc, #368]	; (8015184 <TIM_DeInit+0x194>)
 8015012:	4298      	cmp	r0, r3
 8015014:	d04b      	beq.n	80150ae <TIM_DeInit+0xbe>
 8015016:	4b5c      	ldr	r3, [pc, #368]	; (8015188 <TIM_DeInit+0x198>)
 8015018:	4298      	cmp	r0, r3
 801501a:	d052      	beq.n	80150c2 <TIM_DeInit+0xd2>
 801501c:	4b5b      	ldr	r3, [pc, #364]	; (801518c <TIM_DeInit+0x19c>)
 801501e:	4298      	cmp	r0, r3
 8015020:	d065      	beq.n	80150ee <TIM_DeInit+0xfe>
 8015022:	4b5b      	ldr	r3, [pc, #364]	; (8015190 <TIM_DeInit+0x1a0>)
 8015024:	4298      	cmp	r0, r3
 8015026:	d06c      	beq.n	8015102 <TIM_DeInit+0x112>
 8015028:	4b5a      	ldr	r3, [pc, #360]	; (8015194 <TIM_DeInit+0x1a4>)
 801502a:	4298      	cmp	r0, r3
 801502c:	d053      	beq.n	80150d6 <TIM_DeInit+0xe6>
 801502e:	4b5a      	ldr	r3, [pc, #360]	; (8015198 <TIM_DeInit+0x1a8>)
 8015030:	4298      	cmp	r0, r3
 8015032:	d072      	beq.n	801511a <TIM_DeInit+0x12a>
 8015034:	4b59      	ldr	r3, [pc, #356]	; (801519c <TIM_DeInit+0x1ac>)
 8015036:	4298      	cmp	r0, r3
 8015038:	d07b      	beq.n	8015132 <TIM_DeInit+0x142>
 801503a:	4b59      	ldr	r3, [pc, #356]	; (80151a0 <TIM_DeInit+0x1b0>)
 801503c:	4298      	cmp	r0, r3
 801503e:	f000 808e 	beq.w	801515e <TIM_DeInit+0x16e>
 8015042:	4b58      	ldr	r3, [pc, #352]	; (80151a4 <TIM_DeInit+0x1b4>)
 8015044:	4298      	cmp	r0, r3
 8015046:	d07e      	beq.n	8015146 <TIM_DeInit+0x156>
 8015048:	bd08      	pop	{r3, pc}
 801504a:	2101      	movs	r1, #1
 801504c:	2008      	movs	r0, #8
 801504e:	f7ff ffaf 	bl	8014fb0 <RCC_APB1PeriphResetCmd>
 8015052:	2100      	movs	r1, #0
 8015054:	2008      	movs	r0, #8
 8015056:	e8bd 4008 	ldmia.w	sp!, {r3, lr}
 801505a:	f7ff bfa9 	b.w	8014fb0 <RCC_APB1PeriphResetCmd>
 801505e:	2101      	movs	r1, #1
 8015060:	4608      	mov	r0, r1
 8015062:	f7ff ffb5 	bl	8014fd0 <RCC_APB2PeriphResetCmd>
 8015066:	2100      	movs	r1, #0
 8015068:	2001      	movs	r0, #1
 801506a:	e8bd 4008 	ldmia.w	sp!, {r3, lr}
 801506e:	f7ff bfaf 	b.w	8014fd0 <RCC_APB2PeriphResetCmd>
 8015072:	2101      	movs	r1, #1
 8015074:	4608      	mov	r0, r1
 8015076:	f7ff ff9b 	bl	8014fb0 <RCC_APB1PeriphResetCmd>
 801507a:	2100      	movs	r1, #0
 801507c:	2001      	movs	r0, #1
 801507e:	e8bd 4008 	ldmia.w	sp!, {r3, lr}
 8015082:	f7ff bf95 	b.w	8014fb0 <RCC_APB1PeriphResetCmd>
 8015086:	2101      	movs	r1, #1
 8015088:	2002      	movs	r0, #2
 801508a:	f7ff ff91 	bl	8014fb0 <RCC_APB1PeriphResetCmd>
 801508e:	2100      	movs	r1, #0
 8015090:	2002      	movs	r0, #2
 8015092:	e8bd 4008 	ldmia.w	sp!, {r3, lr}
 8015096:	f7ff bf8b 	b.w	8014fb0 <RCC_APB1PeriphResetCmd>
 801509a:	2101      	movs	r1, #1
 801509c:	2004      	movs	r0, #4
 801509e:	f7ff ff87 	bl	8014fb0 <RCC_APB1PeriphResetCmd>
 80150a2:	2100      	movs	r1, #0
 80150a4:	2004      	movs	r0, #4
 80150a6:	e8bd 4008 	ldmia.w	sp!, {r3, lr}
 80150aa:	f7ff bf81 	b.w	8014fb0 <RCC_APB1PeriphResetCmd>
 80150ae:	2101      	movs	r1, #1
 80150b0:	2010      	movs	r0, #16
 80150b2:	f7ff ff7d 	bl	8014fb0 <RCC_APB1PeriphResetCmd>
 80150b6:	2100      	movs	r1, #0
 80150b8:	2010      	movs	r0, #16
 80150ba:	e8bd 4008 	ldmia.w	sp!, {r3, lr}
 80150be:	f7ff bf77 	b.w	8014fb0 <RCC_APB1PeriphResetCmd>
 80150c2:	2101      	movs	r1, #1
 80150c4:	2020      	movs	r0, #32
 80150c6:	f7ff ff73 	bl	8014fb0 <RCC_APB1PeriphResetCmd>
 80150ca:	2100      	movs	r1, #0
 80150cc:	2020      	movs	r0, #32
 80150ce:	e8bd 4008 	ldmia.w	sp!, {r3, lr}
 80150d2:	f7ff bf6d 	b.w	8014fb0 <RCC_APB1PeriphResetCmd>
 80150d6:	2101      	movs	r1, #1
 80150d8:	f44f 3000 	mov.w	r0, #131072	; 0x20000
 80150dc:	f7ff ff78 	bl	8014fd0 <RCC_APB2PeriphResetCmd>
 80150e0:	2100      	movs	r1, #0
 80150e2:	f44f 3000 	mov.w	r0, #131072	; 0x20000
 80150e6:	e8bd 4008 	ldmia.w	sp!, {r3, lr}
 80150ea:	f7ff bf71 	b.w	8014fd0 <RCC_APB2PeriphResetCmd>
 80150ee:	2101      	movs	r1, #1
 80150f0:	2002      	movs	r0, #2
 80150f2:	f7ff ff6d 	bl	8014fd0 <RCC_APB2PeriphResetCmd>
 80150f6:	2100      	movs	r1, #0
 80150f8:	2002      	movs	r0, #2
 80150fa:	e8bd 4008 	ldmia.w	sp!, {r3, lr}
 80150fe:	f7ff bf67 	b.w	8014fd0 <RCC_APB2PeriphResetCmd>
 8015102:	2101      	movs	r1, #1
 8015104:	f44f 3080 	mov.w	r0, #65536	; 0x10000
 8015108:	f7ff ff62 	bl	8014fd0 <RCC_APB2PeriphResetCmd>
 801510c:	2100      	movs	r1, #0
 801510e:	f44f 3080 	mov.w	r0, #65536	; 0x10000
 8015112:	e8bd 4008 	ldmia.w	sp!, {r3, lr}
 8015116:	f7ff bf5b 	b.w	8014fd0 <RCC_APB2PeriphResetCmd>
 801511a:	2101      	movs	r1, #1
 801511c:	f44f 2080 	mov.w	r0, #262144	; 0x40000
 8015120:	f7ff ff56 	bl	8014fd0 <RCC_APB2PeriphResetCmd>
 8015124:	2100      	movs	r1, #0
 8015126:	f44f 2080 	mov.w	r0, #262144	; 0x40000
 801512a:	e8bd 4008 	ldmia.w	sp!, {r3, lr}
 801512e:	f7ff bf4f 	b.w	8014fd0 <RCC_APB2PeriphResetCmd>
 8015132:	2101      	movs	r1, #1
 8015134:	2040      	movs	r0, #64	; 0x40
 8015136:	f7ff ff3b 	bl	8014fb0 <RCC_APB1PeriphResetCmd>
 801513a:	2100      	movs	r1, #0
 801513c:	2040      	movs	r0, #64	; 0x40
 801513e:	e8bd 4008 	ldmia.w	sp!, {r3, lr}
 8015142:	f7ff bf35 	b.w	8014fb0 <RCC_APB1PeriphResetCmd>
 8015146:	2101      	movs	r1, #1
 8015148:	f44f 7080 	mov.w	r0, #256	; 0x100
 801514c:	f7ff ff30 	bl	8014fb0 <RCC_APB1PeriphResetCmd>
 8015150:	2100      	movs	r1, #0
 8015152:	f44f 7080 	mov.w	r0, #256	; 0x100
 8015156:	e8bd 4008 	ldmia.w	sp!, {r3, lr}
 801515a:	f7ff bf29 	b.w	8014fb0 <RCC_APB1PeriphResetCmd>
 801515e:	2101      	movs	r1, #1
 8015160:	2080      	movs	r0, #128	; 0x80
 8015162:	f7ff ff25 	bl	8014fb0 <RCC_APB1PeriphResetCmd>
 8015166:	2100      	movs	r1, #0
 8015168:	2080      	movs	r0, #128	; 0x80
 801516a:	e8bd 4008 	ldmia.w	sp!, {r3, lr}
 801516e:	f7ff bf1f 	b.w	8014fb0 <RCC_APB1PeriphResetCmd>
 8015172:	bf00      	nop
 8015174:	40010000 	.word	0x40010000
 8015178:	40000400 	.word	0x40000400
 801517c:	40000800 	.word	0x40000800
 8015180:	40000c00 	.word	0x40000c00
 8015184:	40001000 	.word	0x40001000
 8015188:	40001400 	.word	0x40001400
 801518c:	40010400 	.word	0x40010400
 8015190:	40014000 	.word	0x40014000
 8015194:	40014400 	.word	0x40014400
 8015198:	40014800 	.word	0x40014800
 801519c:	40001800 	.word	0x40001800
 80151a0:	40001c00 	.word	0x40001c00
 80151a4:	40002000 	.word	0x40002000
	...

080151b0 <TIM_TimeBaseInit>:
 80151b0:	4a21      	ldr	r2, [pc, #132]	; (8015238 <TIM_TimeBaseInit+0x88>)
 80151b2:	6803      	ldr	r3, [r0, #0]
 80151b4:	4290      	cmp	r0, r2
 80151b6:	b470      	push	{r4, r5, r6}
 80151b8:	b29b      	uxth	r3, r3
 80151ba:	d012      	beq.n	80151e2 <TIM_TimeBaseInit+0x32>
 80151bc:	f502 6280 	add.w	r2, r2, #1024	; 0x400
 80151c0:	4290      	cmp	r0, r2
 80151c2:	d00e      	beq.n	80151e2 <TIM_TimeBaseInit+0x32>
 80151c4:	f1b0 4f80 	cmp.w	r0, #1073741824	; 0x40000000
 80151c8:	d00b      	beq.n	80151e2 <TIM_TimeBaseInit+0x32>
 80151ca:	f5a2 3280 	sub.w	r2, r2, #65536	; 0x10000
 80151ce:	4290      	cmp	r0, r2
 80151d0:	d007      	beq.n	80151e2 <TIM_TimeBaseInit+0x32>
 80151d2:	f502 6280 	add.w	r2, r2, #1024	; 0x400
 80151d6:	4290      	cmp	r0, r2
 80151d8:	d003      	beq.n	80151e2 <TIM_TimeBaseInit+0x32>
 80151da:	f502 6280 	add.w	r2, r2, #1024	; 0x400
 80151de:	4290      	cmp	r0, r2
 80151e0:	d103      	bne.n	80151ea <TIM_TimeBaseInit+0x3a>
 80151e2:	884a      	ldrh	r2, [r1, #2]
 80151e4:	f023 0370 	bic.w	r3, r3, #112	; 0x70
 80151e8:	4313      	orrs	r3, r2
 80151ea:	4d14      	ldr	r5, [pc, #80]	; (801523c <TIM_TimeBaseInit+0x8c>)
 80151ec:	684c      	ldr	r4, [r1, #4]
 80151ee:	880a      	ldrh	r2, [r1, #0]
 80151f0:	42a8      	cmp	r0, r5
 80151f2:	d015      	beq.n	8015220 <TIM_TimeBaseInit+0x70>
 80151f4:	f505 6580 	add.w	r5, r5, #1024	; 0x400
 80151f8:	42a8      	cmp	r0, r5
 80151fa:	d011      	beq.n	8015220 <TIM_TimeBaseInit+0x70>
 80151fc:	890e      	ldrh	r6, [r1, #8]
 80151fe:	f423 7340 	bic.w	r3, r3, #768	; 0x300
 8015202:	f505 456c 	add.w	r5, r5, #60416	; 0xec00
 8015206:	b29b      	uxth	r3, r3
 8015208:	4333      	orrs	r3, r6
 801520a:	42a8      	cmp	r0, r5
 801520c:	6003      	str	r3, [r0, #0]
 801520e:	62c4      	str	r4, [r0, #44]	; 0x2c
 8015210:	6282      	str	r2, [r0, #40]	; 0x28
 8015212:	d10c      	bne.n	801522e <TIM_TimeBaseInit+0x7e>
 8015214:	7a8b      	ldrb	r3, [r1, #10]
 8015216:	6303      	str	r3, [r0, #48]	; 0x30
 8015218:	2301      	movs	r3, #1
 801521a:	6143      	str	r3, [r0, #20]
 801521c:	bc70      	pop	{r4, r5, r6}
 801521e:	4770      	bx	lr
 8015220:	6003      	str	r3, [r0, #0]
 8015222:	62c4      	str	r4, [r0, #44]	; 0x2c
 8015224:	6282      	str	r2, [r0, #40]	; 0x28
 8015226:	2301      	movs	r3, #1
 8015228:	6143      	str	r3, [r0, #20]
 801522a:	bc70      	pop	{r4, r5, r6}
 801522c:	4770      	bx	lr
 801522e:	4b04      	ldr	r3, [pc, #16]	; (8015240 <TIM_TimeBaseInit+0x90>)
 8015230:	4298      	cmp	r0, r3
 8015232:	d0ef      	beq.n	8015214 <TIM_TimeBaseInit+0x64>
 8015234:	e7f7      	b.n	8015226 <TIM_TimeBaseInit+0x76>
 8015236:	bf00      	nop
 8015238:	40010000 	.word	0x40010000
 801523c:	40001000 	.word	0x40001000
 8015240:	40010400 	.word	0x40010400
	...

08015250 <TIM_ARRPreloadConfig>:
 8015250:	6803      	ldr	r3, [r0, #0]
 8015252:	b921      	cbnz	r1, 801525e <TIM_ARRPreloadConfig+0xe>
 8015254:	f64f 727f 	movw	r2, #65407	; 0xff7f
 8015258:	4013      	ands	r3, r2
 801525a:	6003      	str	r3, [r0, #0]
 801525c:	4770      	bx	lr
 801525e:	f043 0380 	orr.w	r3, r3, #128	; 0x80
 8015262:	6003      	str	r3, [r0, #0]
 8015264:	4770      	bx	lr
 8015266:	bf00      	nop
	...

08015270 <TIM_Cmd>:
 8015270:	6803      	ldr	r3, [r0, #0]
 8015272:	b921      	cbnz	r1, 801527e <TIM_Cmd+0xe>
 8015274:	f64f 72fe 	movw	r2, #65534	; 0xfffe
 8015278:	4013      	ands	r3, r2
 801527a:	6003      	str	r3, [r0, #0]
 801527c:	4770      	bx	lr
 801527e:	f043 0301 	orr.w	r3, r3, #1
 8015282:	6003      	str	r3, [r0, #0]
 8015284:	4770      	bx	lr
 8015286:	bf00      	nop
	...

08015290 <TIM_OC1Init>:
 8015290:	6a03      	ldr	r3, [r0, #32]
 8015292:	f64f 72fe 	movw	r2, #65534	; 0xfffe
 8015296:	4013      	ands	r3, r2
 8015298:	6203      	str	r3, [r0, #32]
 801529a:	b4f0      	push	{r4, r5, r6, r7}
 801529c:	f8d0 c020 	ldr.w	ip, [r0, #32]
 80152a0:	898a      	ldrh	r2, [r1, #12]
 80152a2:	884f      	ldrh	r7, [r1, #2]
 80152a4:	6843      	ldr	r3, [r0, #4]
 80152a6:	6985      	ldr	r5, [r0, #24]
 80152a8:	4e14      	ldr	r6, [pc, #80]	; (80152fc <TIM_OC1Init+0x6c>)
 80152aa:	f64f 74fd 	movw	r4, #65533	; 0xfffd
 80152ae:	433a      	orrs	r2, r7
 80152b0:	ea0c 0404 	and.w	r4, ip, r4
 80152b4:	4314      	orrs	r4, r2
 80152b6:	f64f 728c 	movw	r2, #65420	; 0xff8c
 80152ba:	402a      	ands	r2, r5
 80152bc:	880d      	ldrh	r5, [r1, #0]
 80152be:	42b0      	cmp	r0, r6
 80152c0:	b29b      	uxth	r3, r3
 80152c2:	ea42 0205 	orr.w	r2, r2, r5
 80152c6:	d00a      	beq.n	80152de <TIM_OC1Init+0x4e>
 80152c8:	f506 6680 	add.w	r6, r6, #1024	; 0x400
 80152cc:	42b0      	cmp	r0, r6
 80152ce:	d006      	beq.n	80152de <TIM_OC1Init+0x4e>
 80152d0:	6889      	ldr	r1, [r1, #8]
 80152d2:	6043      	str	r3, [r0, #4]
 80152d4:	6182      	str	r2, [r0, #24]
 80152d6:	6341      	str	r1, [r0, #52]	; 0x34
 80152d8:	6204      	str	r4, [r0, #32]
 80152da:	bcf0      	pop	{r4, r5, r6, r7}
 80152dc:	4770      	bx	lr
 80152de:	89ce      	ldrh	r6, [r1, #14]
 80152e0:	8a0d      	ldrh	r5, [r1, #16]
 80152e2:	8a4f      	ldrh	r7, [r1, #18]
 80152e4:	f024 0408 	bic.w	r4, r4, #8
 80152e8:	4334      	orrs	r4, r6
 80152ea:	888e      	ldrh	r6, [r1, #4]
 80152ec:	f423 7340 	bic.w	r3, r3, #768	; 0x300
 80152f0:	f024 0404 	bic.w	r4, r4, #4
 80152f4:	433d      	orrs	r5, r7
 80152f6:	4334      	orrs	r4, r6
 80152f8:	432b      	orrs	r3, r5
 80152fa:	e7e9      	b.n	80152d0 <TIM_OC1Init+0x40>
 80152fc:	40010000 	.word	0x40010000

08015300 <TIM_OC2Init>:
 8015300:	6a03      	ldr	r3, [r0, #32]
 8015302:	f64f 72ef 	movw	r2, #65519	; 0xffef
 8015306:	4013      	ands	r3, r2
 8015308:	6203      	str	r3, [r0, #32]
 801530a:	b4f0      	push	{r4, r5, r6, r7}
 801530c:	f8d0 c020 	ldr.w	ip, [r0, #32]
 8015310:	898a      	ldrh	r2, [r1, #12]
 8015312:	884f      	ldrh	r7, [r1, #2]
 8015314:	6844      	ldr	r4, [r0, #4]
 8015316:	6986      	ldr	r6, [r0, #24]
 8015318:	4d19      	ldr	r5, [pc, #100]	; (8015380 <TIM_OC2Init+0x80>)
 801531a:	f64f 73df 	movw	r3, #65503	; 0xffdf
 801531e:	433a      	orrs	r2, r7
 8015320:	ea0c 0303 	and.w	r3, ip, r3
 8015324:	ea43 1302 	orr.w	r3, r3, r2, lsl #4
 8015328:	f648 42ff 	movw	r2, #36095	; 0x8cff
 801532c:	4032      	ands	r2, r6
 801532e:	880e      	ldrh	r6, [r1, #0]
 8015330:	42a8      	cmp	r0, r5
 8015332:	ea42 2206 	orr.w	r2, r2, r6, lsl #8
 8015336:	b29b      	uxth	r3, r3
 8015338:	b2a4      	uxth	r4, r4
 801533a:	b292      	uxth	r2, r2
 801533c:	d00a      	beq.n	8015354 <TIM_OC2Init+0x54>
 801533e:	f505 6580 	add.w	r5, r5, #1024	; 0x400
 8015342:	42a8      	cmp	r0, r5
 8015344:	d006      	beq.n	8015354 <TIM_OC2Init+0x54>
 8015346:	6889      	ldr	r1, [r1, #8]
 8015348:	6044      	str	r4, [r0, #4]
 801534a:	6182      	str	r2, [r0, #24]
 801534c:	bcf0      	pop	{r4, r5, r6, r7}
 801534e:	6381      	str	r1, [r0, #56]	; 0x38
 8015350:	6203      	str	r3, [r0, #32]
 8015352:	4770      	bx	lr
 8015354:	89cd      	ldrh	r5, [r1, #14]
 8015356:	8a0e      	ldrh	r6, [r1, #16]
 8015358:	8a4f      	ldrh	r7, [r1, #18]
 801535a:	f023 0380 	bic.w	r3, r3, #128	; 0x80
 801535e:	ea43 1305 	orr.w	r3, r3, r5, lsl #4
 8015362:	f64f 75bf 	movw	r5, #65471	; 0xffbf
 8015366:	401d      	ands	r5, r3
 8015368:	888b      	ldrh	r3, [r1, #4]
 801536a:	f424 6440 	bic.w	r4, r4, #3072	; 0xc00
 801536e:	433e      	orrs	r6, r7
 8015370:	ea45 1303 	orr.w	r3, r5, r3, lsl #4
 8015374:	ea44 0486 	orr.w	r4, r4, r6, lsl #2
 8015378:	b29b      	uxth	r3, r3
 801537a:	b2a4      	uxth	r4, r4
 801537c:	e7e3      	b.n	8015346 <TIM_OC2Init+0x46>
 801537e:	bf00      	nop
 8015380:	40010000 	.word	0x40010000
	...

08015390 <TIM_OC3Init>:
 8015390:	6a03      	ldr	r3, [r0, #32]
 8015392:	f64f 62ff 	movw	r2, #65279	; 0xfeff
 8015396:	4013      	ands	r3, r2
 8015398:	6203      	str	r3, [r0, #32]
 801539a:	b4f0      	push	{r4, r5, r6, r7}
 801539c:	884a      	ldrh	r2, [r1, #2]
 801539e:	6a07      	ldr	r7, [r0, #32]
 80153a0:	898c      	ldrh	r4, [r1, #12]
 80153a2:	6845      	ldr	r5, [r0, #4]
 80153a4:	4e19      	ldr	r6, [pc, #100]	; (801540c <TIM_OC3Init+0x7c>)
 80153a6:	f8d0 c01c 	ldr.w	ip, [r0, #28]
 80153aa:	f64f 53ff 	movw	r3, #65023	; 0xfdff
 80153ae:	403b      	ands	r3, r7
 80153b0:	4314      	orrs	r4, r2
 80153b2:	880f      	ldrh	r7, [r1, #0]
 80153b4:	f64f 728c 	movw	r2, #65420	; 0xff8c
 80153b8:	ea43 2304 	orr.w	r3, r3, r4, lsl #8
 80153bc:	ea0c 0202 	and.w	r2, ip, r2
 80153c0:	42b0      	cmp	r0, r6
 80153c2:	b29b      	uxth	r3, r3
 80153c4:	b2ad      	uxth	r5, r5
 80153c6:	ea42 0207 	orr.w	r2, r2, r7
 80153ca:	d009      	beq.n	80153e0 <TIM_OC3Init+0x50>
 80153cc:	4c10      	ldr	r4, [pc, #64]	; (8015410 <TIM_OC3Init+0x80>)
 80153ce:	42a0      	cmp	r0, r4
 80153d0:	d006      	beq.n	80153e0 <TIM_OC3Init+0x50>
 80153d2:	6889      	ldr	r1, [r1, #8]
 80153d4:	6045      	str	r5, [r0, #4]
 80153d6:	61c2      	str	r2, [r0, #28]
 80153d8:	bcf0      	pop	{r4, r5, r6, r7}
 80153da:	63c1      	str	r1, [r0, #60]	; 0x3c
 80153dc:	6203      	str	r3, [r0, #32]
 80153de:	4770      	bx	lr
 80153e0:	89cc      	ldrh	r4, [r1, #14]
 80153e2:	8a0e      	ldrh	r6, [r1, #16]
 80153e4:	8a4f      	ldrh	r7, [r1, #18]
 80153e6:	f423 6300 	bic.w	r3, r3, #2048	; 0x800
 80153ea:	ea43 2304 	orr.w	r3, r3, r4, lsl #8
 80153ee:	f64f 34ff 	movw	r4, #64511	; 0xfbff
 80153f2:	401c      	ands	r4, r3
 80153f4:	888b      	ldrh	r3, [r1, #4]
 80153f6:	f425 5540 	bic.w	r5, r5, #12288	; 0x3000
 80153fa:	433e      	orrs	r6, r7
 80153fc:	ea44 2303 	orr.w	r3, r4, r3, lsl #8
 8015400:	ea45 1406 	orr.w	r4, r5, r6, lsl #4
 8015404:	b29b      	uxth	r3, r3
 8015406:	b2a5      	uxth	r5, r4
 8015408:	e7e3      	b.n	80153d2 <TIM_OC3Init+0x42>
 801540a:	bf00      	nop
 801540c:	40010000 	.word	0x40010000
 8015410:	40010400 	.word	0x40010400
	...

08015420 <TIM_OC4Init>:
 8015420:	6a03      	ldr	r3, [r0, #32]
 8015422:	f64e 72ff 	movw	r2, #61439	; 0xefff
 8015426:	4013      	ands	r3, r2
 8015428:	6203      	str	r3, [r0, #32]
 801542a:	b4f0      	push	{r4, r5, r6, r7}
 801542c:	f8d0 c020 	ldr.w	ip, [r0, #32]
 8015430:	898a      	ldrh	r2, [r1, #12]
 8015432:	884f      	ldrh	r7, [r1, #2]
 8015434:	6844      	ldr	r4, [r0, #4]
 8015436:	69c6      	ldr	r6, [r0, #28]
 8015438:	4d12      	ldr	r5, [pc, #72]	; (8015484 <TIM_OC4Init+0x64>)
 801543a:	f64d 73ff 	movw	r3, #57343	; 0xdfff
 801543e:	433a      	orrs	r2, r7
 8015440:	ea0c 0303 	and.w	r3, ip, r3
 8015444:	ea43 3302 	orr.w	r3, r3, r2, lsl #12
 8015448:	f648 42ff 	movw	r2, #36095	; 0x8cff
 801544c:	4032      	ands	r2, r6
 801544e:	880e      	ldrh	r6, [r1, #0]
 8015450:	42a8      	cmp	r0, r5
 8015452:	ea42 2206 	orr.w	r2, r2, r6, lsl #8
 8015456:	b29b      	uxth	r3, r3
 8015458:	b2a4      	uxth	r4, r4
 801545a:	b292      	uxth	r2, r2
 801545c:	d00a      	beq.n	8015474 <TIM_OC4Init+0x54>
 801545e:	f505 6580 	add.w	r5, r5, #1024	; 0x400
 8015462:	42a8      	cmp	r0, r5
 8015464:	d006      	beq.n	8015474 <TIM_OC4Init+0x54>
 8015466:	6889      	ldr	r1, [r1, #8]
 8015468:	6044      	str	r4, [r0, #4]
 801546a:	61c2      	str	r2, [r0, #28]
 801546c:	bcf0      	pop	{r4, r5, r6, r7}
 801546e:	6401      	str	r1, [r0, #64]	; 0x40
 8015470:	6203      	str	r3, [r0, #32]
 8015472:	4770      	bx	lr
 8015474:	8a0d      	ldrh	r5, [r1, #16]
 8015476:	f424 4480 	bic.w	r4, r4, #16384	; 0x4000
 801547a:	ea44 1485 	orr.w	r4, r4, r5, lsl #6
 801547e:	b2a4      	uxth	r4, r4
 8015480:	e7f1      	b.n	8015466 <TIM_OC4Init+0x46>
 8015482:	bf00      	nop
 8015484:	40010000 	.word	0x40010000
	...

08015490 <TIM_OC1PreloadConfig>:
 8015490:	6982      	ldr	r2, [r0, #24]
 8015492:	f64f 73f7 	movw	r3, #65527	; 0xfff7
 8015496:	4013      	ands	r3, r2
 8015498:	4319      	orrs	r1, r3
 801549a:	6181      	str	r1, [r0, #24]
 801549c:	4770      	bx	lr
 801549e:	bf00      	nop

080154a0 <TIM_OC2PreloadConfig>:
 80154a0:	6982      	ldr	r2, [r0, #24]
 80154a2:	f24f 73ff 	movw	r3, #63487	; 0xf7ff
 80154a6:	4013      	ands	r3, r2
 80154a8:	ea43 2101 	orr.w	r1, r3, r1, lsl #8
 80154ac:	b289      	uxth	r1, r1
 80154ae:	6181      	str	r1, [r0, #24]
 80154b0:	4770      	bx	lr
 80154b2:	bf00      	nop
	...

080154c0 <TIM_OC3PreloadConfig>:
 80154c0:	69c2      	ldr	r2, [r0, #28]
 80154c2:	f64f 73f7 	movw	r3, #65527	; 0xfff7
 80154c6:	4013      	ands	r3, r2
 80154c8:	4319      	orrs	r1, r3
 80154ca:	61c1      	str	r1, [r0, #28]
 80154cc:	4770      	bx	lr
 80154ce:	bf00      	nop

080154d0 <TIM_OC4PreloadConfig>:
 80154d0:	69c2      	ldr	r2, [r0, #28]
 80154d2:	f24f 73ff 	movw	r3, #63487	; 0xf7ff
 80154d6:	4013      	ands	r3, r2
 80154d8:	ea43 2101 	orr.w	r1, r3, r1, lsl #8
 80154dc:	b289      	uxth	r1, r1
 80154de:	61c1      	str	r1, [r0, #28]
 80154e0:	4770      	bx	lr
 80154e2:	bf00      	nop
	...

080154f0 <TIM_BDTRConfig>:
 80154f0:	b470      	push	{r4, r5, r6}
 80154f2:	880b      	ldrh	r3, [r1, #0]
 80154f4:	884c      	ldrh	r4, [r1, #2]
 80154f6:	888a      	ldrh	r2, [r1, #4]
 80154f8:	88ce      	ldrh	r6, [r1, #6]
 80154fa:	890d      	ldrh	r5, [r1, #8]
 80154fc:	4323      	orrs	r3, r4
 80154fe:	4313      	orrs	r3, r2
 8015500:	894c      	ldrh	r4, [r1, #10]
 8015502:	898a      	ldrh	r2, [r1, #12]
 8015504:	4333      	orrs	r3, r6
 8015506:	432b      	orrs	r3, r5
 8015508:	4323      	orrs	r3, r4
 801550a:	4313      	orrs	r3, r2
 801550c:	6443      	str	r3, [r0, #68]	; 0x44
 801550e:	bc70      	pop	{r4, r5, r6}
 8015510:	4770      	bx	lr
 8015512:	bf00      	nop
	...

08015520 <TIM_CtrlPWMOutputs>:
 8015520:	6c43      	ldr	r3, [r0, #68]	; 0x44
 8015522:	b919      	cbnz	r1, 801552c <TIM_CtrlPWMOutputs+0xc>
 8015524:	f3c3 030e 	ubfx	r3, r3, #0, #15
 8015528:	6443      	str	r3, [r0, #68]	; 0x44
 801552a:	4770      	bx	lr
 801552c:	f443 4300 	orr.w	r3, r3, #32768	; 0x8000
 8015530:	6443      	str	r3, [r0, #68]	; 0x44
 8015532:	4770      	bx	lr
	...

08015540 <TIM_CCPreloadControl>:
 8015540:	6843      	ldr	r3, [r0, #4]
 8015542:	b921      	cbnz	r1, 801554e <TIM_CCPreloadControl+0xe>
 8015544:	f64f 72fe 	movw	r2, #65534	; 0xfffe
 8015548:	4013      	ands	r3, r2
 801554a:	6043      	str	r3, [r0, #4]
 801554c:	4770      	bx	lr
 801554e:	f043 0301 	orr.w	r3, r3, #1
 8015552:	6043      	str	r3, [r0, #4]
 8015554:	4770      	bx	lr
 8015556:	bf00      	nop
	...

08015560 <TIM_GetITStatus>:
 8015560:	6903      	ldr	r3, [r0, #16]
 8015562:	68c2      	ldr	r2, [r0, #12]
 8015564:	ea11 0003 	ands.w	r0, r1, r3
 8015568:	d003      	beq.n	8015572 <TIM_GetITStatus+0x12>
 801556a:	4211      	tst	r1, r2
 801556c:	bf14      	ite	ne
 801556e:	2001      	movne	r0, #1
 8015570:	2000      	moveq	r0, #0
 8015572:	4770      	bx	lr
	...

08015580 <TIM_ClearITPendingBit>:
 8015580:	43c9      	mvns	r1, r1
 8015582:	b289      	uxth	r1, r1
 8015584:	6101      	str	r1, [r0, #16]
 8015586:	4770      	bx	lr
	...

08015590 <TIM_SelectInputTrigger>:
 8015590:	6882      	ldr	r2, [r0, #8]
 8015592:	f64f 738f 	movw	r3, #65423	; 0xff8f
 8015596:	4013      	ands	r3, r2
 8015598:	4319      	orrs	r1, r3
 801559a:	6081      	str	r1, [r0, #8]
 801559c:	4770      	bx	lr
 801559e:	bf00      	nop

080155a0 <TIM_SelectOutputTrigger>:
 80155a0:	6843      	ldr	r3, [r0, #4]
 80155a2:	f64f 728f 	movw	r2, #65423	; 0xff8f
 80155a6:	4013      	ands	r3, r2
 80155a8:	6043      	str	r3, [r0, #4]
 80155aa:	6843      	ldr	r3, [r0, #4]
 80155ac:	4319      	orrs	r1, r3
 80155ae:	6041      	str	r1, [r0, #4]
 80155b0:	4770      	bx	lr
 80155b2:	bf00      	nop
	...

080155c0 <TIM_SelectSlaveMode>:
 80155c0:	6883      	ldr	r3, [r0, #8]
 80155c2:	f64f 72f8 	movw	r2, #65528	; 0xfff8
 80155c6:	4013      	ands	r3, r2
 80155c8:	6083      	str	r3, [r0, #8]
 80155ca:	6883      	ldr	r3, [r0, #8]
 80155cc:	4319      	orrs	r1, r3
 80155ce:	6081      	str	r1, [r0, #8]
 80155d0:	4770      	bx	lr
 80155d2:	bf00      	nop
	...

080155e0 <TIM_SelectMasterSlaveMode>:
 80155e0:	6883      	ldr	r3, [r0, #8]
 80155e2:	f64f 727f 	movw	r2, #65407	; 0xff7f
 80155e6:	4013      	ands	r3, r2
 80155e8:	6083      	str	r3, [r0, #8]
 80155ea:	6883      	ldr	r3, [r0, #8]
 80155ec:	4319      	orrs	r1, r3
 80155ee:	6081      	str	r1, [r0, #8]
 80155f0:	4770      	bx	lr
 80155f2:	bf00      	nop
	...

08015600 <WWDG_SetPrescaler>:
 8015600:	4a03      	ldr	r2, [pc, #12]	; (8015610 <WWDG_SetPrescaler+0x10>)
 8015602:	6853      	ldr	r3, [r2, #4]
 8015604:	f423 73c0 	bic.w	r3, r3, #384	; 0x180
 8015608:	4318      	orrs	r0, r3
 801560a:	6050      	str	r0, [r2, #4]
 801560c:	4770      	bx	lr
 801560e:	bf00      	nop
 8015610:	40002c00 	.word	0x40002c00
	...

08015620 <WWDG_SetWindowValue>:
 8015620:	b082      	sub	sp, #8
 8015622:	4a08      	ldr	r2, [pc, #32]	; (8015644 <WWDG_SetWindowValue+0x24>)
 8015624:	2300      	movs	r3, #0
 8015626:	9301      	str	r3, [sp, #4]
 8015628:	6853      	ldr	r3, [r2, #4]
 801562a:	f023 037f 	bic.w	r3, r3, #127	; 0x7f
 801562e:	9301      	str	r3, [sp, #4]
 8015630:	9b01      	ldr	r3, [sp, #4]
 8015632:	f000 007f 	and.w	r0, r0, #127	; 0x7f
 8015636:	4318      	orrs	r0, r3
 8015638:	9001      	str	r0, [sp, #4]
 801563a:	9b01      	ldr	r3, [sp, #4]
 801563c:	6053      	str	r3, [r2, #4]
 801563e:	b002      	add	sp, #8
 8015640:	4770      	bx	lr
 8015642:	bf00      	nop
 8015644:	40002c00 	.word	0x40002c00
	...

08015650 <WWDG_SetCounter>:
 8015650:	4b02      	ldr	r3, [pc, #8]	; (801565c <WWDG_SetCounter+0xc>)
 8015652:	f000 007f 	and.w	r0, r0, #127	; 0x7f
 8015656:	6018      	str	r0, [r3, #0]
 8015658:	4770      	bx	lr
 801565a:	bf00      	nop
 801565c:	40002c00 	.word	0x40002c00

08015660 <WWDG_Enable>:
 8015660:	4b02      	ldr	r3, [pc, #8]	; (801566c <WWDG_Enable+0xc>)
 8015662:	f040 0080 	orr.w	r0, r0, #128	; 0x80
 8015666:	6018      	str	r0, [r3, #0]
 8015668:	4770      	bx	lr
 801566a:	bf00      	nop
 801566c:	40002c00 	.word	0x40002c00

08015670 <cosf>:
 8015670:	b500      	push	{lr}
 8015672:	ee10 3a10 	vmov	r3, s0
 8015676:	4a20      	ldr	r2, [pc, #128]	; (80156f8 <cosf+0x88>)
 8015678:	f023 4300 	bic.w	r3, r3, #2147483648	; 0x80000000
 801567c:	4293      	cmp	r3, r2
 801567e:	b083      	sub	sp, #12
 8015680:	dd19      	ble.n	80156b6 <cosf+0x46>
 8015682:	f1b3 4fff 	cmp.w	r3, #2139095040	; 0x7f800000
 8015686:	db04      	blt.n	8015692 <cosf+0x22>
 8015688:	ee30 0a40 	vsub.f32	s0, s0, s0
 801568c:	b003      	add	sp, #12
 801568e:	f85d fb04 	ldr.w	pc, [sp], #4
 8015692:	4668      	mov	r0, sp
 8015694:	f000 fae4 	bl	8015c60 <__ieee754_rem_pio2f>
 8015698:	f000 0003 	and.w	r0, r0, #3
 801569c:	2801      	cmp	r0, #1
 801569e:	d011      	beq.n	80156c4 <cosf+0x54>
 80156a0:	2802      	cmp	r0, #2
 80156a2:	d01f      	beq.n	80156e4 <cosf+0x74>
 80156a4:	b1b8      	cbz	r0, 80156d6 <cosf+0x66>
 80156a6:	2001      	movs	r0, #1
 80156a8:	eddd 0a01 	vldr	s1, [sp, #4]
 80156ac:	ed9d 0a00 	vldr	s0, [sp]
 80156b0:	f000 ffde 	bl	8016670 <__kernel_sinf>
 80156b4:	e7ea      	b.n	801568c <cosf+0x1c>
 80156b6:	eddf 0a11 	vldr	s1, [pc, #68]	; 80156fc <cosf+0x8c>
 80156ba:	f000 fc29 	bl	8015f10 <__kernel_cosf>
 80156be:	b003      	add	sp, #12
 80156c0:	f85d fb04 	ldr.w	pc, [sp], #4
 80156c4:	eddd 0a01 	vldr	s1, [sp, #4]
 80156c8:	ed9d 0a00 	vldr	s0, [sp]
 80156cc:	f000 ffd0 	bl	8016670 <__kernel_sinf>
 80156d0:	eeb1 0a40 	vneg.f32	s0, s0
 80156d4:	e7da      	b.n	801568c <cosf+0x1c>
 80156d6:	eddd 0a01 	vldr	s1, [sp, #4]
 80156da:	ed9d 0a00 	vldr	s0, [sp]
 80156de:	f000 fc17 	bl	8015f10 <__kernel_cosf>
 80156e2:	e7d3      	b.n	801568c <cosf+0x1c>
 80156e4:	eddd 0a01 	vldr	s1, [sp, #4]
 80156e8:	ed9d 0a00 	vldr	s0, [sp]
 80156ec:	f000 fc10 	bl	8015f10 <__kernel_cosf>
 80156f0:	eeb1 0a40 	vneg.f32	s0, s0
 80156f4:	e7ca      	b.n	801568c <cosf+0x1c>
 80156f6:	bf00      	nop
 80156f8:	3f490fd8 	.word	0x3f490fd8
 80156fc:	00000000 	.word	0x00000000

08015700 <powf>:
 8015700:	e92d 4ff0 	stmdb	sp!, {r4, r5, r6, r7, r8, r9, sl, fp, lr}
 8015704:	b087      	sub	sp, #28
 8015706:	ed8d 0a00 	vstr	s0, [sp]
 801570a:	9800      	ldr	r0, [sp, #0]
 801570c:	ee10 5a90 	vmov	r5, s1
 8015710:	f5a0 0100 	sub.w	r1, r0, #8388608	; 0x800000
 8015714:	006b      	lsls	r3, r5, #1
 8015716:	f1b1 4ffe 	cmp.w	r1, #2130706432	; 0x7f000000
 801571a:	ee10 ba90 	vmov	fp, s1
 801571e:	f103 32ff 	add.w	r2, r3, #4294967295
 8015722:	49c9      	ldr	r1, [pc, #804]	; (8015a48 <powf+0x348>)
 8015724:	f080 80dc 	bcs.w	80158e0 <powf+0x1e0>
 8015728:	428a      	cmp	r2, r1
 801572a:	f200 813e 	bhi.w	80159aa <powf+0x2aa>
 801572e:	2300      	movs	r3, #0
 8015730:	9303      	str	r3, [sp, #12]
 8015732:	f100 4640 	add.w	r6, r0, #3221225472	; 0xc0000000
 8015736:	f506 064d 	add.w	r6, r6, #13434880	; 0xcd0000
 801573a:	4cc4      	ldr	r4, [pc, #784]	; (8015a4c <powf+0x34c>)
 801573c:	0df7      	lsrs	r7, r6, #23
 801573e:	05ff      	lsls	r7, r7, #23
 8015740:	f3c6 46c3 	ubfx	r6, r6, #19, #4
 8015744:	eb04 1606 	add.w	r6, r4, r6, lsl #4
 8015748:	1bc0      	subs	r0, r0, r7
 801574a:	f7f6 fe5d 	bl	800c408 <__aeabi_f2d>
 801574e:	e9d6 2300 	ldrd	r2, r3, [r6]
 8015752:	f7f6 feb5 	bl	800c4c0 <__aeabi_dmul>
 8015756:	2200      	movs	r2, #0
 8015758:	4bbd      	ldr	r3, [pc, #756]	; (8015a50 <powf+0x350>)
 801575a:	f7f6 fcf5 	bl	800c148 <__aeabi_dsub>
 801575e:	4602      	mov	r2, r0
 8015760:	460b      	mov	r3, r1
 8015762:	4680      	mov	r8, r0
 8015764:	4689      	mov	r9, r1
 8015766:	f7f6 feab 	bl	800c4c0 <__aeabi_dmul>
 801576a:	4682      	mov	sl, r0
 801576c:	15f8      	asrs	r0, r7, #23
 801576e:	468b      	mov	fp, r1
 8015770:	f7f6 fe38 	bl	800c3e4 <__aeabi_i2d>
 8015774:	e9d6 2302 	ldrd	r2, r3, [r6, #8]
 8015778:	f7f6 fce8 	bl	800c14c <__adddf3>
 801577c:	e9d4 2348 	ldrd	r2, r3, [r4, #288]	; 0x120
 8015780:	4606      	mov	r6, r0
 8015782:	460f      	mov	r7, r1
 8015784:	4640      	mov	r0, r8
 8015786:	4649      	mov	r1, r9
 8015788:	f7f6 fe9a 	bl	800c4c0 <__aeabi_dmul>
 801578c:	4602      	mov	r2, r0
 801578e:	460b      	mov	r3, r1
 8015790:	4630      	mov	r0, r6
 8015792:	4639      	mov	r1, r7
 8015794:	f7f6 fcda 	bl	800c14c <__adddf3>
 8015798:	e9d4 2340 	ldrd	r2, r3, [r4, #256]	; 0x100
 801579c:	e9cd 0100 	strd	r0, r1, [sp]
 80157a0:	4640      	mov	r0, r8
 80157a2:	4649      	mov	r1, r9
 80157a4:	f7f6 fe8c 	bl	800c4c0 <__aeabi_dmul>
 80157a8:	e9d4 2342 	ldrd	r2, r3, [r4, #264]	; 0x108
 80157ac:	f7f6 fcce 	bl	800c14c <__adddf3>
 80157b0:	4652      	mov	r2, sl
 80157b2:	4606      	mov	r6, r0
 80157b4:	460f      	mov	r7, r1
 80157b6:	465b      	mov	r3, fp
 80157b8:	4650      	mov	r0, sl
 80157ba:	4659      	mov	r1, fp
 80157bc:	f7f6 fe80 	bl	800c4c0 <__aeabi_dmul>
 80157c0:	4602      	mov	r2, r0
 80157c2:	460b      	mov	r3, r1
 80157c4:	4630      	mov	r0, r6
 80157c6:	4639      	mov	r1, r7
 80157c8:	f7f6 fe7a 	bl	800c4c0 <__aeabi_dmul>
 80157cc:	e9d4 2344 	ldrd	r2, r3, [r4, #272]	; 0x110
 80157d0:	4606      	mov	r6, r0
 80157d2:	460f      	mov	r7, r1
 80157d4:	4640      	mov	r0, r8
 80157d6:	4649      	mov	r1, r9
 80157d8:	f7f6 fe72 	bl	800c4c0 <__aeabi_dmul>
 80157dc:	e9d4 2346 	ldrd	r2, r3, [r4, #280]	; 0x118
 80157e0:	f7f6 fcb4 	bl	800c14c <__adddf3>
 80157e4:	4652      	mov	r2, sl
 80157e6:	465b      	mov	r3, fp
 80157e8:	f7f6 fe6a 	bl	800c4c0 <__aeabi_dmul>
 80157ec:	e9dd 2300 	ldrd	r2, r3, [sp]
 80157f0:	f7f6 fcac 	bl	800c14c <__adddf3>
 80157f4:	4632      	mov	r2, r6
 80157f6:	463b      	mov	r3, r7
 80157f8:	f7f6 fca8 	bl	800c14c <__adddf3>
 80157fc:	4606      	mov	r6, r0
 80157fe:	4628      	mov	r0, r5
 8015800:	460f      	mov	r7, r1
 8015802:	f7f6 fe01 	bl	800c408 <__aeabi_f2d>
 8015806:	4602      	mov	r2, r0
 8015808:	460b      	mov	r3, r1
 801580a:	4630      	mov	r0, r6
 801580c:	4639      	mov	r1, r7
 801580e:	f7f6 fe57 	bl	800c4c0 <__aeabi_dmul>
 8015812:	2500      	movs	r5, #0
 8015814:	0bca      	lsrs	r2, r1, #15
 8015816:	2300      	movs	r3, #0
 8015818:	b292      	uxth	r2, r2
 801581a:	f248 04be 	movw	r4, #32958	; 0x80be
 801581e:	429d      	cmp	r5, r3
 8015820:	bf08      	it	eq
 8015822:	4294      	cmpeq	r4, r2
 8015824:	4606      	mov	r6, r0
 8015826:	460f      	mov	r7, r1
 8015828:	d375      	bcc.n	8015916 <powf+0x216>
 801582a:	f8df a234 	ldr.w	sl, [pc, #564]	; 8015a60 <powf+0x360>
 801582e:	e9da 8940 	ldrd	r8, r9, [sl, #256]	; 0x100
 8015832:	4630      	mov	r0, r6
 8015834:	4642      	mov	r2, r8
 8015836:	464b      	mov	r3, r9
 8015838:	4639      	mov	r1, r7
 801583a:	f7f6 fc87 	bl	800c14c <__adddf3>
 801583e:	4642      	mov	r2, r8
 8015840:	464b      	mov	r3, r9
 8015842:	4604      	mov	r4, r0
 8015844:	f7f6 fc80 	bl	800c148 <__aeabi_dsub>
 8015848:	4602      	mov	r2, r0
 801584a:	460b      	mov	r3, r1
 801584c:	4630      	mov	r0, r6
 801584e:	4639      	mov	r1, r7
 8015850:	f7f6 fc7a 	bl	800c148 <__aeabi_dsub>
 8015854:	f004 021f 	and.w	r2, r4, #31
 8015858:	eb0a 0cc2 	add.w	ip, sl, r2, lsl #3
 801585c:	e9dc 8900 	ldrd	r8, r9, [ip]
 8015860:	e9da 2346 	ldrd	r2, r3, [sl, #280]	; 0x118
 8015864:	4606      	mov	r6, r0
 8015866:	460f      	mov	r7, r1
 8015868:	e9cd 8900 	strd	r8, r9, [sp]
 801586c:	f7f6 fe28 	bl	800c4c0 <__aeabi_dmul>
 8015870:	2200      	movs	r2, #0
 8015872:	4b77      	ldr	r3, [pc, #476]	; (8015a50 <powf+0x350>)
 8015874:	f7f6 fc6a 	bl	800c14c <__adddf3>
 8015878:	e9da 2342 	ldrd	r2, r3, [sl, #264]	; 0x108
 801587c:	e9cd 0104 	strd	r0, r1, [sp, #16]
 8015880:	4630      	mov	r0, r6
 8015882:	4639      	mov	r1, r7
 8015884:	f7f6 fe1c 	bl	800c4c0 <__aeabi_dmul>
 8015888:	e9da 2344 	ldrd	r2, r3, [sl, #272]	; 0x110
 801588c:	f7f6 fc5e 	bl	800c14c <__adddf3>
 8015890:	4632      	mov	r2, r6
 8015892:	4680      	mov	r8, r0
 8015894:	4689      	mov	r9, r1
 8015896:	463b      	mov	r3, r7
 8015898:	4630      	mov	r0, r6
 801589a:	4639      	mov	r1, r7
 801589c:	f7f6 fe10 	bl	800c4c0 <__aeabi_dmul>
 80158a0:	4602      	mov	r2, r0
 80158a2:	460b      	mov	r3, r1
 80158a4:	4640      	mov	r0, r8
 80158a6:	4649      	mov	r1, r9
 80158a8:	f7f6 fe0a 	bl	800c4c0 <__aeabi_dmul>
 80158ac:	e9dd 2304 	ldrd	r2, r3, [sp, #16]
 80158b0:	f7f6 fc4c 	bl	800c14c <__adddf3>
 80158b4:	9b03      	ldr	r3, [sp, #12]
 80158b6:	e9dd 8900 	ldrd	r8, r9, [sp]
 80158ba:	18e4      	adds	r4, r4, r3
 80158bc:	2200      	movs	r2, #0
 80158be:	eb18 0802 	adds.w	r8, r8, r2
 80158c2:	ea4f 33c4 	mov.w	r3, r4, lsl #15
 80158c6:	eb49 0903 	adc.w	r9, r9, r3
 80158ca:	4642      	mov	r2, r8
 80158cc:	464b      	mov	r3, r9
 80158ce:	f7f6 fdf7 	bl	800c4c0 <__aeabi_dmul>
 80158d2:	f7f7 f8bd 	bl	800ca50 <__aeabi_d2f>
 80158d6:	ee00 0a10 	vmov	s0, r0
 80158da:	b007      	add	sp, #28
 80158dc:	e8bd 8ff0 	ldmia.w	sp!, {r4, r5, r6, r7, r8, r9, sl, fp, pc}
 80158e0:	428a      	cmp	r2, r1
 80158e2:	d862      	bhi.n	80159aa <powf+0x2aa>
 80158e4:	0043      	lsls	r3, r0, #1
 80158e6:	1e5a      	subs	r2, r3, #1
 80158e8:	428a      	cmp	r2, r1
 80158ea:	d868      	bhi.n	80159be <powf+0x2be>
 80158ec:	2800      	cmp	r0, #0
 80158ee:	db30      	blt.n	8015952 <powf+0x252>
 80158f0:	2300      	movs	r3, #0
 80158f2:	9303      	str	r3, [sp, #12]
 80158f4:	f5b0 0f00 	cmp.w	r0, #8388608	; 0x800000
 80158f8:	f4bf af1b 	bcs.w	8015732 <powf+0x32>
 80158fc:	eddf 7a55 	vldr	s15, [pc, #340]	; 8015a54 <powf+0x354>
 8015900:	ed9d 7a00 	vldr	s14, [sp]
 8015904:	ee67 7a27 	vmul.f32	s15, s14, s15
 8015908:	ee17 0a90 	vmov	r0, s15
 801590c:	f020 4000 	bic.w	r0, r0, #2147483648	; 0x80000000
 8015910:	f1a0 6038 	sub.w	r0, r0, #192937984	; 0xb800000
 8015914:	e70d      	b.n	8015732 <powf+0x32>
 8015916:	a348      	add	r3, pc, #288	; (adr r3, 8015a38 <powf+0x338>)
 8015918:	e9d3 2300 	ldrd	r2, r3, [r3]
 801591c:	f7f7 f866 	bl	800c9ec <__aeabi_dcmpgt>
 8015920:	2800      	cmp	r0, #0
 8015922:	d139      	bne.n	8015998 <powf+0x298>
 8015924:	2200      	movs	r2, #0
 8015926:	4b4c      	ldr	r3, [pc, #304]	; (8015a58 <powf+0x358>)
 8015928:	4630      	mov	r0, r6
 801592a:	4639      	mov	r1, r7
 801592c:	f7f7 f84a 	bl	800c9c4 <__aeabi_dcmple>
 8015930:	bb28      	cbnz	r0, 801597e <powf+0x27e>
 8015932:	a343      	add	r3, pc, #268	; (adr r3, 8015a40 <powf+0x340>)
 8015934:	e9d3 2300 	ldrd	r2, r3, [r3]
 8015938:	4630      	mov	r0, r6
 801593a:	4639      	mov	r1, r7
 801593c:	f7f7 f838 	bl	800c9b0 <__aeabi_dcmplt>
 8015940:	2800      	cmp	r0, #0
 8015942:	f43f af72 	beq.w	801582a <powf+0x12a>
 8015946:	9803      	ldr	r0, [sp, #12]
 8015948:	b007      	add	sp, #28
 801594a:	e8bd 4ff0 	ldmia.w	sp!, {r4, r5, r6, r7, r8, r9, sl, fp, lr}
 801594e:	f000 beff 	b.w	8016750 <__math_may_uflowf>
 8015952:	f3c5 53c7 	ubfx	r3, r5, #23, #8
 8015956:	2b7e      	cmp	r3, #126	; 0x7e
 8015958:	dd17      	ble.n	801598a <powf+0x28a>
 801595a:	2b96      	cmp	r3, #150	; 0x96
 801595c:	dc22      	bgt.n	80159a4 <powf+0x2a4>
 801595e:	2201      	movs	r2, #1
 8015960:	f1c3 0396 	rsb	r3, r3, #150	; 0x96
 8015964:	fa02 f303 	lsl.w	r3, r2, r3
 8015968:	1e5a      	subs	r2, r3, #1
 801596a:	422a      	tst	r2, r5
 801596c:	d10d      	bne.n	801598a <powf+0x28a>
 801596e:	402b      	ands	r3, r5
 8015970:	bf18      	it	ne
 8015972:	f44f 3380 	movne.w	r3, #65536	; 0x10000
 8015976:	9303      	str	r3, [sp, #12]
 8015978:	f020 4000 	bic.w	r0, r0, #2147483648	; 0x80000000
 801597c:	e7ba      	b.n	80158f4 <powf+0x1f4>
 801597e:	9803      	ldr	r0, [sp, #12]
 8015980:	b007      	add	sp, #28
 8015982:	e8bd 4ff0 	ldmia.w	sp!, {r4, r5, r6, r7, r8, r9, sl, fp, lr}
 8015986:	f000 bedb 	b.w	8016740 <__math_uflowf>
 801598a:	ed9d 0a00 	vldr	s0, [sp]
 801598e:	b007      	add	sp, #28
 8015990:	e8bd 4ff0 	ldmia.w	sp!, {r4, r5, r6, r7, r8, r9, sl, fp, lr}
 8015994:	f000 bf04 	b.w	80167a0 <__math_invalidf>
 8015998:	9803      	ldr	r0, [sp, #12]
 801599a:	b007      	add	sp, #28
 801599c:	e8bd 4ff0 	ldmia.w	sp!, {r4, r5, r6, r7, r8, r9, sl, fp, lr}
 80159a0:	f000 bede 	b.w	8016760 <__math_oflowf>
 80159a4:	2300      	movs	r3, #0
 80159a6:	9303      	str	r3, [sp, #12]
 80159a8:	e7e6      	b.n	8015978 <powf+0x278>
 80159aa:	bb3b      	cbnz	r3, 80159fc <powf+0x2fc>
 80159ac:	f480 0380 	eor.w	r3, r0, #4194304	; 0x400000
 80159b0:	005b      	lsls	r3, r3, #1
 80159b2:	f513 0f00 	cmn.w	r3, #8388608	; 0x800000
 80159b6:	d81a      	bhi.n	80159ee <powf+0x2ee>
 80159b8:	eeb7 0a00 	vmov.f32	s0, #112	; 0x3f800000  1.0
 80159bc:	e78d      	b.n	80158da <powf+0x1da>
 80159be:	eddd 7a00 	vldr	s15, [sp]
 80159c2:	2800      	cmp	r0, #0
 80159c4:	ee27 0aa7 	vmul.f32	s0, s15, s15
 80159c8:	db55      	blt.n	8015a76 <powf+0x376>
 80159ca:	2000      	movs	r0, #0
 80159cc:	2b00      	cmp	r3, #0
 80159ce:	d149      	bne.n	8015a64 <powf+0x364>
 80159d0:	f1bb 0f00 	cmp.w	fp, #0
 80159d4:	da81      	bge.n	80158da <powf+0x1da>
 80159d6:	b007      	add	sp, #28
 80159d8:	e8bd 4ff0 	ldmia.w	sp!, {r4, r5, r6, r7, r8, r9, sl, fp, lr}
 80159dc:	f000 bec8 	b.w	8016770 <__math_divzerof>
 80159e0:	f48b 0b80 	eor.w	fp, fp, #4194304	; 0x400000
 80159e4:	ea4f 034b 	mov.w	r3, fp, lsl #1
 80159e8:	f513 0f00 	cmn.w	r3, #8388608	; 0x800000
 80159ec:	d9e4      	bls.n	80159b8 <powf+0x2b8>
 80159ee:	eddd 7a00 	vldr	s15, [sp]
 80159f2:	ee07 5a10 	vmov	s14, r5
 80159f6:	ee37 0a87 	vadd.f32	s0, s15, s14
 80159fa:	e76e      	b.n	80158da <powf+0x1da>
 80159fc:	f1b0 5f7e 	cmp.w	r0, #1065353216	; 0x3f800000
 8015a00:	d0ee      	beq.n	80159e0 <powf+0x2e0>
 8015a02:	0040      	lsls	r0, r0, #1
 8015a04:	f1b0 4f7f 	cmp.w	r0, #4278190080	; 0xff000000
 8015a08:	d8f1      	bhi.n	80159ee <powf+0x2ee>
 8015a0a:	f1b3 4f7f 	cmp.w	r3, #4278190080	; 0xff000000
 8015a0e:	d1ee      	bne.n	80159ee <powf+0x2ee>
 8015a10:	f1b0 4ffe 	cmp.w	r0, #2130706432	; 0x7f000000
 8015a14:	d0d0      	beq.n	80159b8 <powf+0x2b8>
 8015a16:	f1b0 4ffe 	cmp.w	r0, #2130706432	; 0x7f000000
 8015a1a:	ea6f 0b0b 	mvn.w	fp, fp
 8015a1e:	bf34      	ite	cc
 8015a20:	2000      	movcc	r0, #0
 8015a22:	2001      	movcs	r0, #1
 8015a24:	ea4f 7bdb 	mov.w	fp, fp, lsr #31
 8015a28:	4558      	cmp	r0, fp
 8015a2a:	d038      	beq.n	8015a9e <powf+0x39e>
 8015a2c:	ed9f 0a0b 	vldr	s0, [pc, #44]	; 8015a5c <powf+0x35c>
 8015a30:	e753      	b.n	80158da <powf+0x1da>
 8015a32:	bf00      	nop
 8015a34:	f3af 8000 	nop.w
 8015a38:	ffd1d571 	.word	0xffd1d571
 8015a3c:	405fffff 	.word	0x405fffff
 8015a40:	00000000 	.word	0x00000000
 8015a44:	c062a000 	.word	0xc062a000
 8015a48:	fefffffe 	.word	0xfefffffe
 8015a4c:	08017570 	.word	0x08017570
 8015a50:	3ff00000 	.word	0x3ff00000
 8015a54:	4b000000 	.word	0x4b000000
 8015a58:	c062c000 	.word	0xc062c000
 8015a5c:	00000000 	.word	0x00000000
 8015a60:	08017a90 	.word	0x08017a90
 8015a64:	f1bb 0f00 	cmp.w	fp, #0
 8015a68:	f6bf af37 	bge.w	80158da <powf+0x1da>
 8015a6c:	eef7 7a00 	vmov.f32	s15, #112	; 0x3f800000  1.0
 8015a70:	ee87 0a80 	vdiv.f32	s0, s15, s0
 8015a74:	e731      	b.n	80158da <powf+0x1da>
 8015a76:	f3c5 52c7 	ubfx	r2, r5, #23, #8
 8015a7a:	f1a2 017f 	sub.w	r1, r2, #127	; 0x7f
 8015a7e:	2917      	cmp	r1, #23
 8015a80:	d8a3      	bhi.n	80159ca <powf+0x2ca>
 8015a82:	f1c2 0096 	rsb	r0, r2, #150	; 0x96
 8015a86:	2201      	movs	r2, #1
 8015a88:	fa02 f000 	lsl.w	r0, r2, r0
 8015a8c:	1e41      	subs	r1, r0, #1
 8015a8e:	4229      	tst	r1, r5
 8015a90:	d19b      	bne.n	80159ca <powf+0x2ca>
 8015a92:	4028      	ands	r0, r5
 8015a94:	d09a      	beq.n	80159cc <powf+0x2cc>
 8015a96:	eeb1 0a40 	vneg.f32	s0, s0
 8015a9a:	4610      	mov	r0, r2
 8015a9c:	e796      	b.n	80159cc <powf+0x2cc>
 8015a9e:	ee07 5a90 	vmov	s15, r5
 8015aa2:	ee27 0aa7 	vmul.f32	s0, s15, s15
 8015aa6:	e718      	b.n	80158da <powf+0x1da>
	...

08015ab0 <roundf>:
 8015ab0:	b082      	sub	sp, #8
 8015ab2:	ed8d 0a01 	vstr	s0, [sp, #4]
 8015ab6:	9901      	ldr	r1, [sp, #4]
 8015ab8:	f3c1 53c7 	ubfx	r3, r1, #23, #8
 8015abc:	f1a3 027f 	sub.w	r2, r3, #127	; 0x7f
 8015ac0:	2a16      	cmp	r2, #22
 8015ac2:	dc0c      	bgt.n	8015ade <roundf+0x2e>
 8015ac4:	2a00      	cmp	r2, #0
 8015ac6:	db10      	blt.n	8015aea <roundf+0x3a>
 8015ac8:	4810      	ldr	r0, [pc, #64]	; (8015b0c <roundf+0x5c>)
 8015aca:	4110      	asrs	r0, r2
 8015acc:	4201      	tst	r1, r0
 8015ace:	d008      	beq.n	8015ae2 <roundf+0x32>
 8015ad0:	f44f 0380 	mov.w	r3, #4194304	; 0x400000
 8015ad4:	4113      	asrs	r3, r2
 8015ad6:	440b      	add	r3, r1
 8015ad8:	ea23 0300 	bic.w	r3, r3, r0
 8015adc:	e00b      	b.n	8015af6 <roundf+0x46>
 8015ade:	2a80      	cmp	r2, #128	; 0x80
 8015ae0:	d00d      	beq.n	8015afe <roundf+0x4e>
 8015ae2:	ed9d 0a01 	vldr	s0, [sp, #4]
 8015ae6:	b002      	add	sp, #8
 8015ae8:	4770      	bx	lr
 8015aea:	3201      	adds	r2, #1
 8015aec:	f001 4300 	and.w	r3, r1, #2147483648	; 0x80000000
 8015af0:	d101      	bne.n	8015af6 <roundf+0x46>
 8015af2:	f043 537e 	orr.w	r3, r3, #1065353216	; 0x3f800000
 8015af6:	ee00 3a10 	vmov	s0, r3
 8015afa:	b002      	add	sp, #8
 8015afc:	4770      	bx	lr
 8015afe:	eddd 7a01 	vldr	s15, [sp, #4]
 8015b02:	ee37 0aa7 	vadd.f32	s0, s15, s15
 8015b06:	b002      	add	sp, #8
 8015b08:	4770      	bx	lr
 8015b0a:	bf00      	nop
 8015b0c:	007fffff 	.word	0x007fffff

08015b10 <sinf>:
 8015b10:	b500      	push	{lr}
 8015b12:	ee10 3a10 	vmov	r3, s0
 8015b16:	4a21      	ldr	r2, [pc, #132]	; (8015b9c <sinf+0x8c>)
 8015b18:	f023 4300 	bic.w	r3, r3, #2147483648	; 0x80000000
 8015b1c:	4293      	cmp	r3, r2
 8015b1e:	b083      	sub	sp, #12
 8015b20:	dd1a      	ble.n	8015b58 <sinf+0x48>
 8015b22:	f1b3 4fff 	cmp.w	r3, #2139095040	; 0x7f800000
 8015b26:	db04      	blt.n	8015b32 <sinf+0x22>
 8015b28:	ee30 0a40 	vsub.f32	s0, s0, s0
 8015b2c:	b003      	add	sp, #12
 8015b2e:	f85d fb04 	ldr.w	pc, [sp], #4
 8015b32:	4668      	mov	r0, sp
 8015b34:	f000 f894 	bl	8015c60 <__ieee754_rem_pio2f>
 8015b38:	f000 0003 	and.w	r0, r0, #3
 8015b3c:	2801      	cmp	r0, #1
 8015b3e:	d013      	beq.n	8015b68 <sinf+0x58>
 8015b40:	2802      	cmp	r0, #2
 8015b42:	d020      	beq.n	8015b86 <sinf+0x76>
 8015b44:	b1b8      	cbz	r0, 8015b76 <sinf+0x66>
 8015b46:	eddd 0a01 	vldr	s1, [sp, #4]
 8015b4a:	ed9d 0a00 	vldr	s0, [sp]
 8015b4e:	f000 f9df 	bl	8015f10 <__kernel_cosf>
 8015b52:	eeb1 0a40 	vneg.f32	s0, s0
 8015b56:	e7e9      	b.n	8015b2c <sinf+0x1c>
 8015b58:	2000      	movs	r0, #0
 8015b5a:	eddf 0a11 	vldr	s1, [pc, #68]	; 8015ba0 <sinf+0x90>
 8015b5e:	f000 fd87 	bl	8016670 <__kernel_sinf>
 8015b62:	b003      	add	sp, #12
 8015b64:	f85d fb04 	ldr.w	pc, [sp], #4
 8015b68:	eddd 0a01 	vldr	s1, [sp, #4]
 8015b6c:	ed9d 0a00 	vldr	s0, [sp]
 8015b70:	f000 f9ce 	bl	8015f10 <__kernel_cosf>
 8015b74:	e7da      	b.n	8015b2c <sinf+0x1c>
 8015b76:	2001      	movs	r0, #1
 8015b78:	eddd 0a01 	vldr	s1, [sp, #4]
 8015b7c:	ed9d 0a00 	vldr	s0, [sp]
 8015b80:	f000 fd76 	bl	8016670 <__kernel_sinf>
 8015b84:	e7d2      	b.n	8015b2c <sinf+0x1c>
 8015b86:	2001      	movs	r0, #1
 8015b88:	eddd 0a01 	vldr	s1, [sp, #4]
 8015b8c:	ed9d 0a00 	vldr	s0, [sp]
 8015b90:	f000 fd6e 	bl	8016670 <__kernel_sinf>
 8015b94:	eeb1 0a40 	vneg.f32	s0, s0
 8015b98:	e7c8      	b.n	8015b2c <sinf+0x1c>
 8015b9a:	bf00      	nop
 8015b9c:	3f490fd8 	.word	0x3f490fd8
	...

08015bb0 <sqrtf>:
 8015bb0:	b510      	push	{r4, lr}
 8015bb2:	ed2d 8b02 	vpush	{d8}
 8015bb6:	b08a      	sub	sp, #40	; 0x28
 8015bb8:	eeb0 8a40 	vmov.f32	s16, s0
 8015bbc:	f000 f9a0 	bl	8015f00 <__ieee754_sqrtf>
 8015bc0:	4b24      	ldr	r3, [pc, #144]	; (8015c54 <sqrtf+0xa4>)
 8015bc2:	f993 4000 	ldrsb.w	r4, [r3]
 8015bc6:	1c63      	adds	r3, r4, #1
 8015bc8:	d009      	beq.n	8015bde <sqrtf+0x2e>
 8015bca:	eeb4 8a48 	vcmp.f32	s16, s16
 8015bce:	eef1 fa10 	vmrs	APSR_nzcv, fpscr
 8015bd2:	d604      	bvs.n	8015bde <sqrtf+0x2e>
 8015bd4:	eeb5 8ac0 	vcmpe.f32	s16, #0.0
 8015bd8:	eef1 fa10 	vmrs	APSR_nzcv, fpscr
 8015bdc:	d403      	bmi.n	8015be6 <sqrtf+0x36>
 8015bde:	b00a      	add	sp, #40	; 0x28
 8015be0:	ecbd 8b02 	vpop	{d8}
 8015be4:	bd10      	pop	{r4, pc}
 8015be6:	2301      	movs	r3, #1
 8015be8:	4a1b      	ldr	r2, [pc, #108]	; (8015c58 <sqrtf+0xa8>)
 8015bea:	9300      	str	r3, [sp, #0]
 8015bec:	ee18 0a10 	vmov	r0, s16
 8015bf0:	2300      	movs	r3, #0
 8015bf2:	9201      	str	r2, [sp, #4]
 8015bf4:	9308      	str	r3, [sp, #32]
 8015bf6:	f7f6 fc07 	bl	800c408 <__aeabi_f2d>
 8015bfa:	2200      	movs	r2, #0
 8015bfc:	e9cd 0104 	strd	r0, r1, [sp, #16]
 8015c00:	e9cd 0102 	strd	r0, r1, [sp, #8]
 8015c04:	2300      	movs	r3, #0
 8015c06:	b1bc      	cbz	r4, 8015c38 <sqrtf+0x88>
 8015c08:	4610      	mov	r0, r2
 8015c0a:	4619      	mov	r1, r3
 8015c0c:	f7f6 fd82 	bl	800c714 <__aeabi_ddiv>
 8015c10:	2c02      	cmp	r4, #2
 8015c12:	e9cd 0106 	strd	r0, r1, [sp, #24]
 8015c16:	d111      	bne.n	8015c3c <sqrtf+0x8c>
 8015c18:	f000 fea2 	bl	8016960 <__errno>
 8015c1c:	2321      	movs	r3, #33	; 0x21
 8015c1e:	6003      	str	r3, [r0, #0]
 8015c20:	9b08      	ldr	r3, [sp, #32]
 8015c22:	b98b      	cbnz	r3, 8015c48 <sqrtf+0x98>
 8015c24:	e9dd 0106 	ldrd	r0, r1, [sp, #24]
 8015c28:	f7f6 ff12 	bl	800ca50 <__aeabi_d2f>
 8015c2c:	ee00 0a10 	vmov	s0, r0
 8015c30:	b00a      	add	sp, #40	; 0x28
 8015c32:	ecbd 8b02 	vpop	{d8}
 8015c36:	bd10      	pop	{r4, pc}
 8015c38:	e9cd 2306 	strd	r2, r3, [sp, #24]
 8015c3c:	4668      	mov	r0, sp
 8015c3e:	f000 fdbf 	bl	80167c0 <matherr>
 8015c42:	2800      	cmp	r0, #0
 8015c44:	d1ec      	bne.n	8015c20 <sqrtf+0x70>
 8015c46:	e7e7      	b.n	8015c18 <sqrtf+0x68>
 8015c48:	f000 fe8a 	bl	8016960 <__errno>
 8015c4c:	9b08      	ldr	r3, [sp, #32]
 8015c4e:	6003      	str	r3, [r0, #0]
 8015c50:	e7e8      	b.n	8015c24 <sqrtf+0x74>
 8015c52:	bf00      	nop
 8015c54:	20000860 	.word	0x20000860
 8015c58:	080176a0 	.word	0x080176a0
 8015c5c:	00000000 	.word	0x00000000

08015c60 <__ieee754_rem_pio2f>:
 8015c60:	b570      	push	{r4, r5, r6, lr}
 8015c62:	ee10 3a10 	vmov	r3, s0
 8015c66:	4a96      	ldr	r2, [pc, #600]	; (8015ec0 <__ieee754_rem_pio2f+0x260>)
 8015c68:	f023 4400 	bic.w	r4, r3, #2147483648	; 0x80000000
 8015c6c:	4294      	cmp	r4, r2
 8015c6e:	b086      	sub	sp, #24
 8015c70:	4605      	mov	r5, r0
 8015c72:	dd69      	ble.n	8015d48 <__ieee754_rem_pio2f+0xe8>
 8015c74:	4a93      	ldr	r2, [pc, #588]	; (8015ec4 <__ieee754_rem_pio2f+0x264>)
 8015c76:	4294      	cmp	r4, r2
 8015c78:	ee10 6a10 	vmov	r6, s0
 8015c7c:	dc1a      	bgt.n	8015cb4 <__ieee754_rem_pio2f+0x54>
 8015c7e:	2b00      	cmp	r3, #0
 8015c80:	f024 040f 	bic.w	r4, r4, #15
 8015c84:	eddf 7a90 	vldr	s15, [pc, #576]	; 8015ec8 <__ieee754_rem_pio2f+0x268>
 8015c88:	4a90      	ldr	r2, [pc, #576]	; (8015ecc <__ieee754_rem_pio2f+0x26c>)
 8015c8a:	dd64      	ble.n	8015d56 <__ieee754_rem_pio2f+0xf6>
 8015c8c:	4294      	cmp	r4, r2
 8015c8e:	ee70 7a67 	vsub.f32	s15, s0, s15
 8015c92:	f000 80cf 	beq.w	8015e34 <__ieee754_rem_pio2f+0x1d4>
 8015c96:	ed9f 7a8e 	vldr	s14, [pc, #568]	; 8015ed0 <__ieee754_rem_pio2f+0x270>
 8015c9a:	ee77 6ac7 	vsub.f32	s13, s15, s14
 8015c9e:	2001      	movs	r0, #1
 8015ca0:	ee77 7ae6 	vsub.f32	s15, s15, s13
 8015ca4:	edc5 6a00 	vstr	s13, [r5]
 8015ca8:	ee77 7ac7 	vsub.f32	s15, s15, s14
 8015cac:	edc5 7a01 	vstr	s15, [r5, #4]
 8015cb0:	b006      	add	sp, #24
 8015cb2:	bd70      	pop	{r4, r5, r6, pc}
 8015cb4:	4a87      	ldr	r2, [pc, #540]	; (8015ed4 <__ieee754_rem_pio2f+0x274>)
 8015cb6:	4294      	cmp	r4, r2
 8015cb8:	dd61      	ble.n	8015d7e <__ieee754_rem_pio2f+0x11e>
 8015cba:	f1b4 4fff 	cmp.w	r4, #2139095040	; 0x7f800000
 8015cbe:	f280 80b1 	bge.w	8015e24 <__ieee754_rem_pio2f+0x1c4>
 8015cc2:	15e2      	asrs	r2, r4, #23
 8015cc4:	3a86      	subs	r2, #134	; 0x86
 8015cc6:	eba4 53c2 	sub.w	r3, r4, r2, lsl #23
 8015cca:	ee07 3a90 	vmov	s15, r3
 8015cce:	eebd 7ae7 	vcvt.s32.f32	s14, s15
 8015cd2:	eddf 6a81 	vldr	s13, [pc, #516]	; 8015ed8 <__ieee754_rem_pio2f+0x278>
 8015cd6:	eeb8 7ac7 	vcvt.f32.s32	s14, s14
 8015cda:	ee77 7ac7 	vsub.f32	s15, s15, s14
 8015cde:	ed8d 7a03 	vstr	s14, [sp, #12]
 8015ce2:	ee67 7aa6 	vmul.f32	s15, s15, s13
 8015ce6:	eebd 7ae7 	vcvt.s32.f32	s14, s15
 8015cea:	eeb8 7ac7 	vcvt.f32.s32	s14, s14
 8015cee:	ee77 7ac7 	vsub.f32	s15, s15, s14
 8015cf2:	ed8d 7a04 	vstr	s14, [sp, #16]
 8015cf6:	ee67 7aa6 	vmul.f32	s15, s15, s13
 8015cfa:	eef5 7a40 	vcmp.f32	s15, #0.0
 8015cfe:	eef1 fa10 	vmrs	APSR_nzcv, fpscr
 8015d02:	edcd 7a05 	vstr	s15, [sp, #20]
 8015d06:	f040 80c7 	bne.w	8015e98 <__ieee754_rem_pio2f+0x238>
 8015d0a:	eeb5 7a40 	vcmp.f32	s14, #0.0
 8015d0e:	eef1 fa10 	vmrs	APSR_nzcv, fpscr
 8015d12:	bf0c      	ite	eq
 8015d14:	2301      	moveq	r3, #1
 8015d16:	2302      	movne	r3, #2
 8015d18:	4970      	ldr	r1, [pc, #448]	; (8015edc <__ieee754_rem_pio2f+0x27c>)
 8015d1a:	9101      	str	r1, [sp, #4]
 8015d1c:	2102      	movs	r1, #2
 8015d1e:	9100      	str	r1, [sp, #0]
 8015d20:	a803      	add	r0, sp, #12
 8015d22:	4629      	mov	r1, r5
 8015d24:	f000 f97c 	bl	8016020 <__kernel_rem_pio2f>
 8015d28:	2e00      	cmp	r6, #0
 8015d2a:	da12      	bge.n	8015d52 <__ieee754_rem_pio2f+0xf2>
 8015d2c:	ed95 7a00 	vldr	s14, [r5]
 8015d30:	edd5 7a01 	vldr	s15, [r5, #4]
 8015d34:	eeb1 7a47 	vneg.f32	s14, s14
 8015d38:	eef1 7a67 	vneg.f32	s15, s15
 8015d3c:	4240      	negs	r0, r0
 8015d3e:	ed85 7a00 	vstr	s14, [r5]
 8015d42:	edc5 7a01 	vstr	s15, [r5, #4]
 8015d46:	e004      	b.n	8015d52 <__ieee754_rem_pio2f+0xf2>
 8015d48:	2200      	movs	r2, #0
 8015d4a:	ed85 0a00 	vstr	s0, [r5]
 8015d4e:	6042      	str	r2, [r0, #4]
 8015d50:	2000      	movs	r0, #0
 8015d52:	b006      	add	sp, #24
 8015d54:	bd70      	pop	{r4, r5, r6, pc}
 8015d56:	4294      	cmp	r4, r2
 8015d58:	ee70 7a27 	vadd.f32	s15, s0, s15
 8015d5c:	f000 8089 	beq.w	8015e72 <__ieee754_rem_pio2f+0x212>
 8015d60:	ed9f 7a5b 	vldr	s14, [pc, #364]	; 8015ed0 <__ieee754_rem_pio2f+0x270>
 8015d64:	ee77 6a87 	vadd.f32	s13, s15, s14
 8015d68:	f04f 30ff 	mov.w	r0, #4294967295
 8015d6c:	ee77 7ae6 	vsub.f32	s15, s15, s13
 8015d70:	edc5 6a00 	vstr	s13, [r5]
 8015d74:	ee77 7a87 	vadd.f32	s15, s15, s14
 8015d78:	edc5 7a01 	vstr	s15, [r5, #4]
 8015d7c:	e7e9      	b.n	8015d52 <__ieee754_rem_pio2f+0xf2>
 8015d7e:	f000 fd27 	bl	80167d0 <fabsf>
 8015d82:	eddf 6a57 	vldr	s13, [pc, #348]	; 8015ee0 <__ieee754_rem_pio2f+0x280>
 8015d86:	eddf 5a50 	vldr	s11, [pc, #320]	; 8015ec8 <__ieee754_rem_pio2f+0x268>
 8015d8a:	ed9f 7a51 	vldr	s14, [pc, #324]	; 8015ed0 <__ieee754_rem_pio2f+0x270>
 8015d8e:	eef6 7a00 	vmov.f32	s15, #96	; 0x3f000000  0.5
 8015d92:	eee0 7a26 	vfma.f32	s15, s0, s13
 8015d96:	eefd 7ae7 	vcvt.s32.f32	s15, s15
 8015d9a:	ee17 0a90 	vmov	r0, s15
 8015d9e:	eef8 6ae7 	vcvt.f32.s32	s13, s15
 8015da2:	281f      	cmp	r0, #31
 8015da4:	eeb1 6a66 	vneg.f32	s12, s13
 8015da8:	eea6 0a25 	vfma.f32	s0, s12, s11
 8015dac:	ee66 7a87 	vmul.f32	s15, s13, s14
 8015db0:	dd52      	ble.n	8015e58 <__ieee754_rem_pio2f+0x1f8>
 8015db2:	ee30 7a67 	vsub.f32	s14, s0, s15
 8015db6:	ee17 3a10 	vmov	r3, s14
 8015dba:	15e4      	asrs	r4, r4, #23
 8015dbc:	f3c3 53c7 	ubfx	r3, r3, #23, #8
 8015dc0:	1ae3      	subs	r3, r4, r3
 8015dc2:	2b08      	cmp	r3, #8
 8015dc4:	dd52      	ble.n	8015e6c <__ieee754_rem_pio2f+0x20c>
 8015dc6:	eddf 7a47 	vldr	s15, [pc, #284]	; 8015ee4 <__ieee754_rem_pio2f+0x284>
 8015dca:	ed9f 7a47 	vldr	s14, [pc, #284]	; 8015ee8 <__ieee754_rem_pio2f+0x288>
 8015dce:	eef0 5a40 	vmov.f32	s11, s0
 8015dd2:	eee6 5a27 	vfma.f32	s11, s12, s15
 8015dd6:	ee30 0a65 	vsub.f32	s0, s0, s11
 8015dda:	eea6 0a27 	vfma.f32	s0, s12, s15
 8015dde:	eef0 7a40 	vmov.f32	s15, s0
 8015de2:	eed6 7a87 	vfnms.f32	s15, s13, s14
 8015de6:	ee35 7ae7 	vsub.f32	s14, s11, s15
 8015dea:	ee17 3a10 	vmov	r3, s14
 8015dee:	f3c3 53c7 	ubfx	r3, r3, #23, #8
 8015df2:	1ae4      	subs	r4, r4, r3
 8015df4:	2c19      	cmp	r4, #25
 8015df6:	dc51      	bgt.n	8015e9c <__ieee754_rem_pio2f+0x23c>
 8015df8:	ed85 7a00 	vstr	s14, [r5]
 8015dfc:	eeb0 0a65 	vmov.f32	s0, s11
 8015e00:	ee30 0a47 	vsub.f32	s0, s0, s14
 8015e04:	2e00      	cmp	r6, #0
 8015e06:	ee30 0a67 	vsub.f32	s0, s0, s15
 8015e0a:	ed85 0a01 	vstr	s0, [r5, #4]
 8015e0e:	daa0      	bge.n	8015d52 <__ieee754_rem_pio2f+0xf2>
 8015e10:	eeb1 7a47 	vneg.f32	s14, s14
 8015e14:	eeb1 0a40 	vneg.f32	s0, s0
 8015e18:	ed85 7a00 	vstr	s14, [r5]
 8015e1c:	ed85 0a01 	vstr	s0, [r5, #4]
 8015e20:	4240      	negs	r0, r0
 8015e22:	e796      	b.n	8015d52 <__ieee754_rem_pio2f+0xf2>
 8015e24:	ee70 7a40 	vsub.f32	s15, s0, s0
 8015e28:	2000      	movs	r0, #0
 8015e2a:	edc5 7a01 	vstr	s15, [r5, #4]
 8015e2e:	edc5 7a00 	vstr	s15, [r5]
 8015e32:	e78e      	b.n	8015d52 <__ieee754_rem_pio2f+0xf2>
 8015e34:	eddf 6a2b 	vldr	s13, [pc, #172]	; 8015ee4 <__ieee754_rem_pio2f+0x284>
 8015e38:	ed9f 7a2b 	vldr	s14, [pc, #172]	; 8015ee8 <__ieee754_rem_pio2f+0x288>
 8015e3c:	ee77 7ae6 	vsub.f32	s15, s15, s13
 8015e40:	2001      	movs	r0, #1
 8015e42:	ee77 6ac7 	vsub.f32	s13, s15, s14
 8015e46:	ee77 7ae6 	vsub.f32	s15, s15, s13
 8015e4a:	edc5 6a00 	vstr	s13, [r5]
 8015e4e:	ee77 7ac7 	vsub.f32	s15, s15, s14
 8015e52:	edc5 7a01 	vstr	s15, [r5, #4]
 8015e56:	e77c      	b.n	8015d52 <__ieee754_rem_pio2f+0xf2>
 8015e58:	1e42      	subs	r2, r0, #1
 8015e5a:	4b24      	ldr	r3, [pc, #144]	; (8015eec <__ieee754_rem_pio2f+0x28c>)
 8015e5c:	f853 3022 	ldr.w	r3, [r3, r2, lsl #2]
 8015e60:	f024 02ff 	bic.w	r2, r4, #255	; 0xff
 8015e64:	429a      	cmp	r2, r3
 8015e66:	ee30 7a67 	vsub.f32	s14, s0, s15
 8015e6a:	d0a4      	beq.n	8015db6 <__ieee754_rem_pio2f+0x156>
 8015e6c:	ed85 7a00 	vstr	s14, [r5]
 8015e70:	e7c6      	b.n	8015e00 <__ieee754_rem_pio2f+0x1a0>
 8015e72:	eddf 6a1c 	vldr	s13, [pc, #112]	; 8015ee4 <__ieee754_rem_pio2f+0x284>
 8015e76:	ed9f 7a1c 	vldr	s14, [pc, #112]	; 8015ee8 <__ieee754_rem_pio2f+0x288>
 8015e7a:	ee77 7aa6 	vadd.f32	s15, s15, s13
 8015e7e:	f04f 30ff 	mov.w	r0, #4294967295
 8015e82:	ee77 6a87 	vadd.f32	s13, s15, s14
 8015e86:	ee77 7ae6 	vsub.f32	s15, s15, s13
 8015e8a:	edc5 6a00 	vstr	s13, [r5]
 8015e8e:	ee77 7a87 	vadd.f32	s15, s15, s14
 8015e92:	edc5 7a01 	vstr	s15, [r5, #4]
 8015e96:	e75c      	b.n	8015d52 <__ieee754_rem_pio2f+0xf2>
 8015e98:	2303      	movs	r3, #3
 8015e9a:	e73d      	b.n	8015d18 <__ieee754_rem_pio2f+0xb8>
 8015e9c:	ed9f 7a14 	vldr	s14, [pc, #80]	; 8015ef0 <__ieee754_rem_pio2f+0x290>
 8015ea0:	ed9f 5a14 	vldr	s10, [pc, #80]	; 8015ef4 <__ieee754_rem_pio2f+0x294>
 8015ea4:	eeb0 0a65 	vmov.f32	s0, s11
 8015ea8:	eea6 0a07 	vfma.f32	s0, s12, s14
 8015eac:	ee75 7ac0 	vsub.f32	s15, s11, s0
 8015eb0:	eee6 7a07 	vfma.f32	s15, s12, s14
 8015eb4:	eed6 7a85 	vfnms.f32	s15, s13, s10
 8015eb8:	ee30 7a67 	vsub.f32	s14, s0, s15
 8015ebc:	e7d6      	b.n	8015e6c <__ieee754_rem_pio2f+0x20c>
 8015ebe:	bf00      	nop
 8015ec0:	3f490fd8 	.word	0x3f490fd8
 8015ec4:	4016cbe3 	.word	0x4016cbe3
 8015ec8:	3fc90f80 	.word	0x3fc90f80
 8015ecc:	3fc90fd0 	.word	0x3fc90fd0
 8015ed0:	37354443 	.word	0x37354443
 8015ed4:	43490f80 	.word	0x43490f80
 8015ed8:	43800000 	.word	0x43800000
 8015edc:	08017730 	.word	0x08017730
 8015ee0:	3f22f984 	.word	0x3f22f984
 8015ee4:	37354400 	.word	0x37354400
 8015ee8:	2e85a308 	.word	0x2e85a308
 8015eec:	080176b0 	.word	0x080176b0
 8015ef0:	2e85a300 	.word	0x2e85a300
 8015ef4:	248d3132 	.word	0x248d3132
	...

08015f00 <__ieee754_sqrtf>:
 8015f00:	eeb1 0ac0 	vsqrt.f32	s0, s0
 8015f04:	4770      	bx	lr
 8015f06:	bf00      	nop
	...

08015f10 <__kernel_cosf>:
 8015f10:	ee10 3a10 	vmov	r3, s0
 8015f14:	f023 4300 	bic.w	r3, r3, #2147483648	; 0x80000000
 8015f18:	f1b3 5f48 	cmp.w	r3, #838860800	; 0x32000000
 8015f1c:	da2c      	bge.n	8015f78 <__kernel_cosf+0x68>
 8015f1e:	eefd 7ac0 	vcvt.s32.f32	s15, s0
 8015f22:	ee17 3a90 	vmov	r3, s15
 8015f26:	2b00      	cmp	r3, #0
 8015f28:	d05b      	beq.n	8015fe2 <__kernel_cosf+0xd2>
 8015f2a:	ee20 7a00 	vmul.f32	s14, s0, s0
 8015f2e:	eddf 4a31 	vldr	s9, [pc, #196]	; 8015ff4 <__kernel_cosf+0xe4>
 8015f32:	ed9f 5a31 	vldr	s10, [pc, #196]	; 8015ff8 <__kernel_cosf+0xe8>
 8015f36:	eddf 5a31 	vldr	s11, [pc, #196]	; 8015ffc <__kernel_cosf+0xec>
 8015f3a:	ed9f 6a31 	vldr	s12, [pc, #196]	; 8016000 <__kernel_cosf+0xf0>
 8015f3e:	eddf 7a31 	vldr	s15, [pc, #196]	; 8016004 <__kernel_cosf+0xf4>
 8015f42:	eddf 6a31 	vldr	s13, [pc, #196]	; 8016008 <__kernel_cosf+0xf8>
 8015f46:	eea7 5a24 	vfma.f32	s10, s14, s9
 8015f4a:	eee7 5a05 	vfma.f32	s11, s14, s10
 8015f4e:	eea7 6a25 	vfma.f32	s12, s14, s11
 8015f52:	eee7 7a06 	vfma.f32	s15, s14, s12
 8015f56:	eee7 6a27 	vfma.f32	s13, s14, s15
 8015f5a:	ee66 6a87 	vmul.f32	s13, s13, s14
 8015f5e:	ee60 0ac0 	vnmul.f32	s1, s1, s0
 8015f62:	eeb6 6a00 	vmov.f32	s12, #96	; 0x3f000000  0.5
 8015f66:	eee7 0a26 	vfma.f32	s1, s14, s13
 8015f6a:	eef7 7a00 	vmov.f32	s15, #112	; 0x3f800000  1.0
 8015f6e:	eed7 0a06 	vfnms.f32	s1, s14, s12
 8015f72:	ee37 0ae0 	vsub.f32	s0, s15, s1
 8015f76:	4770      	bx	lr
 8015f78:	ee20 7a00 	vmul.f32	s14, s0, s0
 8015f7c:	eddf 4a1d 	vldr	s9, [pc, #116]	; 8015ff4 <__kernel_cosf+0xe4>
 8015f80:	ed9f 5a1d 	vldr	s10, [pc, #116]	; 8015ff8 <__kernel_cosf+0xe8>
 8015f84:	eddf 5a1d 	vldr	s11, [pc, #116]	; 8015ffc <__kernel_cosf+0xec>
 8015f88:	ed9f 6a1d 	vldr	s12, [pc, #116]	; 8016000 <__kernel_cosf+0xf0>
 8015f8c:	eddf 7a1d 	vldr	s15, [pc, #116]	; 8016004 <__kernel_cosf+0xf4>
 8015f90:	eddf 6a1d 	vldr	s13, [pc, #116]	; 8016008 <__kernel_cosf+0xf8>
 8015f94:	4a1d      	ldr	r2, [pc, #116]	; (801600c <__kernel_cosf+0xfc>)
 8015f96:	eea7 5a24 	vfma.f32	s10, s14, s9
 8015f9a:	4293      	cmp	r3, r2
 8015f9c:	eee5 5a07 	vfma.f32	s11, s10, s14
 8015fa0:	eea5 6a87 	vfma.f32	s12, s11, s14
 8015fa4:	eee6 7a07 	vfma.f32	s15, s12, s14
 8015fa8:	eee7 6a87 	vfma.f32	s13, s15, s14
 8015fac:	ee66 6a87 	vmul.f32	s13, s13, s14
 8015fb0:	ddd5      	ble.n	8015f5e <__kernel_cosf+0x4e>
 8015fb2:	4a17      	ldr	r2, [pc, #92]	; (8016010 <__kernel_cosf+0x100>)
 8015fb4:	4293      	cmp	r3, r2
 8015fb6:	dc17      	bgt.n	8015fe8 <__kernel_cosf+0xd8>
 8015fb8:	f103 437f 	add.w	r3, r3, #4278190080	; 0xff000000
 8015fbc:	ee07 3a90 	vmov	s15, r3
 8015fc0:	eeb7 6a00 	vmov.f32	s12, #112	; 0x3f800000  1.0
 8015fc4:	ee36 6a67 	vsub.f32	s12, s12, s15
 8015fc8:	ee60 0ac0 	vnmul.f32	s1, s1, s0
 8015fcc:	eef6 5a00 	vmov.f32	s11, #96	; 0x3f000000  0.5
 8015fd0:	eee7 0a26 	vfma.f32	s1, s14, s13
 8015fd4:	eed7 7a25 	vfnms.f32	s15, s14, s11
 8015fd8:	ee77 7ae0 	vsub.f32	s15, s15, s1
 8015fdc:	ee36 0a67 	vsub.f32	s0, s12, s15
 8015fe0:	4770      	bx	lr
 8015fe2:	eeb7 0a00 	vmov.f32	s0, #112	; 0x3f800000  1.0
 8015fe6:	4770      	bx	lr
 8015fe8:	eeb6 6a07 	vmov.f32	s12, #103	; 0x3f380000  0.7187500
 8015fec:	eef5 7a02 	vmov.f32	s15, #82	; 0x3e900000  0.2812500
 8015ff0:	e7ea      	b.n	8015fc8 <__kernel_cosf+0xb8>
 8015ff2:	bf00      	nop
 8015ff4:	ad47d74e 	.word	0xad47d74e
 8015ff8:	310f74f6 	.word	0x310f74f6
 8015ffc:	b493f27c 	.word	0xb493f27c
 8016000:	37d00d01 	.word	0x37d00d01
 8016004:	bab60b61 	.word	0xbab60b61
 8016008:	3d2aaaab 	.word	0x3d2aaaab
 801600c:	3e999999 	.word	0x3e999999
 8016010:	3f480000 	.word	0x3f480000
	...

08016020 <__kernel_rem_pio2f>:
 8016020:	e92d 4ff0 	stmdb	sp!, {r4, r5, r6, r7, r8, r9, sl, fp, lr}
 8016024:	ed2d 8b04 	vpush	{d8-d9}
 8016028:	b0d7      	sub	sp, #348	; 0x15c
 801602a:	f103 39ff 	add.w	r9, r3, #4294967295
 801602e:	9302      	str	r3, [sp, #8]
 8016030:	1ed3      	subs	r3, r2, #3
 8016032:	bf48      	it	mi
 8016034:	1d13      	addmi	r3, r2, #4
 8016036:	4cb2      	ldr	r4, [pc, #712]	; (8016300 <__kernel_rem_pio2f+0x2e0>)
 8016038:	9d64      	ldr	r5, [sp, #400]	; 0x190
 801603a:	9105      	str	r1, [sp, #20]
 801603c:	10db      	asrs	r3, r3, #3
 801603e:	ea23 73e3 	bic.w	r3, r3, r3, asr #31
 8016042:	f854 6025 	ldr.w	r6, [r4, r5, lsl #2]
 8016046:	9303      	str	r3, [sp, #12]
 8016048:	f103 0801 	add.w	r8, r3, #1
 801604c:	eba2 08c8 	sub.w	r8, r2, r8, lsl #3
 8016050:	eb16 0209 	adds.w	r2, r6, r9
 8016054:	4686      	mov	lr, r0
 8016056:	eba3 0309 	sub.w	r3, r3, r9
 801605a:	d416      	bmi.n	801608a <__kernel_rem_pio2f+0x6a>
 801605c:	441a      	add	r2, r3
 801605e:	ed9f 7aa9 	vldr	s14, [pc, #676]	; 8016304 <__kernel_rem_pio2f+0x2e4>
 8016062:	9865      	ldr	r0, [sp, #404]	; 0x194
 8016064:	1c51      	adds	r1, r2, #1
 8016066:	aa1a      	add	r2, sp, #104	; 0x68
 8016068:	2b00      	cmp	r3, #0
 801606a:	bfa4      	itt	ge
 801606c:	f850 4023 	ldrge.w	r4, [r0, r3, lsl #2]
 8016070:	ee07 4a90 	vmovge	s15, r4
 8016074:	f103 0301 	add.w	r3, r3, #1
 8016078:	bfac      	ite	ge
 801607a:	eef8 7ae7 	vcvtge.f32.s32	s15, s15
 801607e:	eef0 7a47 	vmovlt.f32	s15, s14
 8016082:	428b      	cmp	r3, r1
 8016084:	ece2 7a01 	vstmia	r2!, {s15}
 8016088:	d1ee      	bne.n	8016068 <__kernel_rem_pio2f+0x48>
 801608a:	9b02      	ldr	r3, [sp, #8]
 801608c:	2e00      	cmp	r6, #0
 801608e:	ea4f 0483 	mov.w	r4, r3, lsl #2
 8016092:	ea4f 0a86 	mov.w	sl, r6, lsl #2
 8016096:	db1d      	blt.n	80160d4 <__kernel_rem_pio2f+0xb4>
 8016098:	ab1a      	add	r3, sp, #104	; 0x68
 801609a:	1918      	adds	r0, r3, r4
 801609c:	aa43      	add	r2, sp, #268	; 0x10c
 801609e:	4673      	mov	r3, lr
 80160a0:	1919      	adds	r1, r3, r4
 80160a2:	eb02 070a 	add.w	r7, r2, sl
 80160a6:	ad42      	add	r5, sp, #264	; 0x108
 80160a8:	46f4      	mov	ip, lr
 80160aa:	f1b9 0f00 	cmp.w	r9, #0
 80160ae:	eddf 7a95 	vldr	s15, [pc, #596]	; 8016304 <__kernel_rem_pio2f+0x2e4>
 80160b2:	db09      	blt.n	80160c8 <__kernel_rem_pio2f+0xa8>
 80160b4:	4602      	mov	r2, r0
 80160b6:	4663      	mov	r3, ip
 80160b8:	ecf3 6a01 	vldmia	r3!, {s13}
 80160bc:	ed32 7a01 	vldmdb	r2!, {s14}
 80160c0:	428b      	cmp	r3, r1
 80160c2:	eee6 7a87 	vfma.f32	s15, s13, s14
 80160c6:	d1f7      	bne.n	80160b8 <__kernel_rem_pio2f+0x98>
 80160c8:	ece5 7a01 	vstmia	r5!, {s15}
 80160cc:	42bd      	cmp	r5, r7
 80160ce:	f100 0004 	add.w	r0, r0, #4
 80160d2:	d1ea      	bne.n	80160aa <__kernel_rem_pio2f+0x8a>
 80160d4:	f1aa 0308 	sub.w	r3, sl, #8
 80160d8:	ad06      	add	r5, sp, #24
 80160da:	18eb      	adds	r3, r5, r3
 80160dc:	9304      	str	r3, [sp, #16]
 80160de:	ed9f 9a8b 	vldr	s18, [pc, #556]	; 801630c <__kernel_rem_pio2f+0x2ec>
 80160e2:	eddf 8a89 	vldr	s17, [pc, #548]	; 8016308 <__kernel_rem_pio2f+0x2e8>
 80160e6:	9600      	str	r6, [sp, #0]
 80160e8:	ab05      	add	r3, sp, #20
 80160ea:	46b3      	mov	fp, r6
 80160ec:	4474      	add	r4, lr
 80160ee:	449a      	add	sl, r3
 80160f0:	af42      	add	r7, sp, #264	; 0x108
 80160f2:	4676      	mov	r6, lr
 80160f4:	ea4f 018b 	mov.w	r1, fp, lsl #2
 80160f8:	ab56      	add	r3, sp, #344	; 0x158
 80160fa:	440b      	add	r3, r1
 80160fc:	f1bb 0f00 	cmp.w	fp, #0
 8016100:	ed13 0a14 	vldr	s0, [r3, #-80]	; 0xffffffb0
 8016104:	dd16      	ble.n	8016134 <__kernel_rem_pio2f+0x114>
 8016106:	eb07 038b 	add.w	r3, r7, fp, lsl #2
 801610a:	462a      	mov	r2, r5
 801610c:	ee60 7a09 	vmul.f32	s15, s0, s18
 8016110:	eeb0 7a40 	vmov.f32	s14, s0
 8016114:	eefd 7ae7 	vcvt.s32.f32	s15, s15
 8016118:	ed73 6a01 	vldmdb	r3!, {s13}
 801611c:	eef8 7ae7 	vcvt.f32.s32	s15, s15
 8016120:	42bb      	cmp	r3, r7
 8016122:	eea7 7ae8 	vfms.f32	s14, s15, s17
 8016126:	ee37 0aa6 	vadd.f32	s0, s15, s13
 801612a:	eebd 7ac7 	vcvt.s32.f32	s14, s14
 801612e:	eca2 7a01 	vstmia	r2!, {s14}
 8016132:	d1eb      	bne.n	801610c <__kernel_rem_pio2f+0xec>
 8016134:	4640      	mov	r0, r8
 8016136:	9101      	str	r1, [sp, #4]
 8016138:	f000 fb9a 	bl	8016870 <scalbnf>
 801613c:	eeb0 8a40 	vmov.f32	s16, s0
 8016140:	eeb4 0a00 	vmov.f32	s0, #64	; 0x3e000000  0.125
 8016144:	ee28 0a00 	vmul.f32	s0, s16, s0
 8016148:	f000 fb4a 	bl	80167e0 <floorf>
 801614c:	eef2 7a00 	vmov.f32	s15, #32	; 0x41000000  8.0
 8016150:	eea0 8a67 	vfms.f32	s16, s0, s15
 8016154:	f1b8 0f00 	cmp.w	r8, #0
 8016158:	9901      	ldr	r1, [sp, #4]
 801615a:	eefd 9ac8 	vcvt.s32.f32	s19, s16
 801615e:	eef8 7ae9 	vcvt.f32.s32	s15, s19
 8016162:	ee38 8a67 	vsub.f32	s16, s16, s15
 8016166:	f340 80c4 	ble.w	80162f2 <__kernel_rem_pio2f+0x2d2>
 801616a:	f10b 3cff 	add.w	ip, fp, #4294967295
 801616e:	f1c8 0308 	rsb	r3, r8, #8
 8016172:	f855 202c 	ldr.w	r2, [r5, ip, lsl #2]
 8016176:	fa42 f003 	asr.w	r0, r2, r3
 801617a:	fa00 f303 	lsl.w	r3, r0, r3
 801617e:	1ad3      	subs	r3, r2, r3
 8016180:	f845 302c 	str.w	r3, [r5, ip, lsl #2]
 8016184:	ee19 ca90 	vmov	ip, s19
 8016188:	4484      	add	ip, r0
 801618a:	f1c8 0207 	rsb	r2, r8, #7
 801618e:	ee09 ca90 	vmov	s19, ip
 8016192:	fa43 f202 	asr.w	r2, r3, r2
 8016196:	2a00      	cmp	r2, #0
 8016198:	dd31      	ble.n	80161fe <__kernel_rem_pio2f+0x1de>
 801619a:	ee19 3a90 	vmov	r3, s19
 801619e:	f1bb 0f00 	cmp.w	fp, #0
 80161a2:	f103 0301 	add.w	r3, r3, #1
 80161a6:	ee09 3a90 	vmov	s19, r3
 80161aa:	f340 8229 	ble.w	8016600 <__kernel_rem_pio2f+0x5e0>
 80161ae:	6828      	ldr	r0, [r5, #0]
 80161b0:	2800      	cmp	r0, #0
 80161b2:	f040 8086 	bne.w	80162c2 <__kernel_rem_pio2f+0x2a2>
 80161b6:	f1bb 0f01 	cmp.w	fp, #1
 80161ba:	d00b      	beq.n	80161d4 <__kernel_rem_pio2f+0x1b4>
 80161bc:	46ae      	mov	lr, r5
 80161be:	f04f 0c01 	mov.w	ip, #1
 80161c2:	f85e 0f04 	ldr.w	r0, [lr, #4]!
 80161c6:	f10c 0301 	add.w	r3, ip, #1
 80161ca:	2800      	cmp	r0, #0
 80161cc:	d17c      	bne.n	80162c8 <__kernel_rem_pio2f+0x2a8>
 80161ce:	459b      	cmp	fp, r3
 80161d0:	469c      	mov	ip, r3
 80161d2:	d1f6      	bne.n	80161c2 <__kernel_rem_pio2f+0x1a2>
 80161d4:	f1b8 0f00 	cmp.w	r8, #0
 80161d8:	dd0e      	ble.n	80161f8 <__kernel_rem_pio2f+0x1d8>
 80161da:	f1b8 0f01 	cmp.w	r8, #1
 80161de:	f000 8132 	beq.w	8016446 <__kernel_rem_pio2f+0x426>
 80161e2:	f1b8 0f02 	cmp.w	r8, #2
 80161e6:	d107      	bne.n	80161f8 <__kernel_rem_pio2f+0x1d8>
 80161e8:	f10b 31ff 	add.w	r1, fp, #4294967295
 80161ec:	f855 3021 	ldr.w	r3, [r5, r1, lsl #2]
 80161f0:	f003 033f 	and.w	r3, r3, #63	; 0x3f
 80161f4:	f845 3021 	str.w	r3, [r5, r1, lsl #2]
 80161f8:	2a02      	cmp	r2, #2
 80161fa:	f000 8112 	beq.w	8016422 <__kernel_rem_pio2f+0x402>
 80161fe:	eeb5 8a40 	vcmp.f32	s16, #0.0
 8016202:	eef1 fa10 	vmrs	APSR_nzcv, fpscr
 8016206:	f040 8095 	bne.w	8016334 <__kernel_rem_pio2f+0x314>
 801620a:	9b00      	ldr	r3, [sp, #0]
 801620c:	f10b 3cff 	add.w	ip, fp, #4294967295
 8016210:	4563      	cmp	r3, ip
 8016212:	dc0e      	bgt.n	8016232 <__kernel_rem_pio2f+0x212>
 8016214:	f10b 4180 	add.w	r1, fp, #1073741824	; 0x40000000
 8016218:	3901      	subs	r1, #1
 801621a:	eb05 0181 	add.w	r1, r5, r1, lsl #2
 801621e:	2000      	movs	r0, #0
 8016220:	f851 3904 	ldr.w	r3, [r1], #-4
 8016224:	4551      	cmp	r1, sl
 8016226:	ea40 0003 	orr.w	r0, r0, r3
 801622a:	d1f9      	bne.n	8016220 <__kernel_rem_pio2f+0x200>
 801622c:	2800      	cmp	r0, #0
 801622e:	f040 8113 	bne.w	8016458 <__kernel_rem_pio2f+0x438>
 8016232:	9b00      	ldr	r3, [sp, #0]
 8016234:	3b01      	subs	r3, #1
 8016236:	f855 3023 	ldr.w	r3, [r5, r3, lsl #2]
 801623a:	2b00      	cmp	r3, #0
 801623c:	f040 8100 	bne.w	8016440 <__kernel_rem_pio2f+0x420>
 8016240:	9b04      	ldr	r3, [sp, #16]
 8016242:	f04f 0c01 	mov.w	ip, #1
 8016246:	f853 2904 	ldr.w	r2, [r3], #-4
 801624a:	f10c 0c01 	add.w	ip, ip, #1
 801624e:	2a00      	cmp	r2, #0
 8016250:	d0f9      	beq.n	8016246 <__kernel_rem_pio2f+0x226>
 8016252:	44dc      	add	ip, fp
 8016254:	f10b 0e01 	add.w	lr, fp, #1
 8016258:	45e6      	cmp	lr, ip
 801625a:	dc30      	bgt.n	80162be <__kernel_rem_pio2f+0x29e>
 801625c:	9b03      	ldr	r3, [sp, #12]
 801625e:	9a02      	ldr	r2, [sp, #8]
 8016260:	eb0e 0103 	add.w	r1, lr, r3
 8016264:	445a      	add	r2, fp
 8016266:	eb03 0b0c 	add.w	fp, r3, ip
 801626a:	ab1a      	add	r3, sp, #104	; 0x68
 801626c:	f101 4180 	add.w	r1, r1, #1073741824	; 0x40000000
 8016270:	eb03 0282 	add.w	r2, r3, r2, lsl #2
 8016274:	9b65      	ldr	r3, [sp, #404]	; 0x194
 8016276:	3901      	subs	r1, #1
 8016278:	eb03 0181 	add.w	r1, r3, r1, lsl #2
 801627c:	eb07 0e8e 	add.w	lr, r7, lr, lsl #2
 8016280:	eb03 0b8b 	add.w	fp, r3, fp, lsl #2
 8016284:	f851 3f04 	ldr.w	r3, [r1, #4]!
 8016288:	ed9f 7a1e 	vldr	s14, [pc, #120]	; 8016304 <__kernel_rem_pio2f+0x2e4>
 801628c:	ee07 3a90 	vmov	s15, r3
 8016290:	eef8 7ae7 	vcvt.f32.s32	s15, s15
 8016294:	4610      	mov	r0, r2
 8016296:	f1b9 0f00 	cmp.w	r9, #0
 801629a:	ece0 7a01 	vstmia	r0!, {s15}
 801629e:	db09      	blt.n	80162b4 <__kernel_rem_pio2f+0x294>
 80162a0:	4633      	mov	r3, r6
 80162a2:	e001      	b.n	80162a8 <__kernel_rem_pio2f+0x288>
 80162a4:	ed72 7a01 	vldmdb	r2!, {s15}
 80162a8:	ecf3 6a01 	vldmia	r3!, {s13}
 80162ac:	42a3      	cmp	r3, r4
 80162ae:	eea6 7aa7 	vfma.f32	s14, s13, s15
 80162b2:	d1f7      	bne.n	80162a4 <__kernel_rem_pio2f+0x284>
 80162b4:	4559      	cmp	r1, fp
 80162b6:	ecae 7a01 	vstmia	lr!, {s14}
 80162ba:	4602      	mov	r2, r0
 80162bc:	d1e2      	bne.n	8016284 <__kernel_rem_pio2f+0x264>
 80162be:	46e3      	mov	fp, ip
 80162c0:	e718      	b.n	80160f4 <__kernel_rem_pio2f+0xd4>
 80162c2:	2301      	movs	r3, #1
 80162c4:	f04f 0c00 	mov.w	ip, #0
 80162c8:	f5c0 7080 	rsb	r0, r0, #256	; 0x100
 80162cc:	459b      	cmp	fp, r3
 80162ce:	f845 002c 	str.w	r0, [r5, ip, lsl #2]
 80162d2:	dd0c      	ble.n	80162ee <__kernel_rem_pio2f+0x2ce>
 80162d4:	f855 0023 	ldr.w	r0, [r5, r3, lsl #2]
 80162d8:	4429      	add	r1, r5
 80162da:	eb05 0383 	add.w	r3, r5, r3, lsl #2
 80162de:	e000      	b.n	80162e2 <__kernel_rem_pio2f+0x2c2>
 80162e0:	6818      	ldr	r0, [r3, #0]
 80162e2:	f1c0 00ff 	rsb	r0, r0, #255	; 0xff
 80162e6:	f843 0b04 	str.w	r0, [r3], #4
 80162ea:	428b      	cmp	r3, r1
 80162ec:	d1f8      	bne.n	80162e0 <__kernel_rem_pio2f+0x2c0>
 80162ee:	2001      	movs	r0, #1
 80162f0:	e770      	b.n	80161d4 <__kernel_rem_pio2f+0x1b4>
 80162f2:	d10f      	bne.n	8016314 <__kernel_rem_pio2f+0x2f4>
 80162f4:	f10b 33ff 	add.w	r3, fp, #4294967295
 80162f8:	f855 2023 	ldr.w	r2, [r5, r3, lsl #2]
 80162fc:	1212      	asrs	r2, r2, #8
 80162fe:	e74a      	b.n	8016196 <__kernel_rem_pio2f+0x176>
 8016300:	08017a80 	.word	0x08017a80
 8016304:	00000000 	.word	0x00000000
 8016308:	43800000 	.word	0x43800000
 801630c:	3b800000 	.word	0x3b800000
 8016310:	3fc90000 	.word	0x3fc90000
 8016314:	eef6 7a00 	vmov.f32	s15, #96	; 0x3f000000  0.5
 8016318:	eeb4 8ae7 	vcmpe.f32	s16, s15
 801631c:	eef1 fa10 	vmrs	APSR_nzcv, fpscr
 8016320:	f280 8158 	bge.w	80165d4 <__kernel_rem_pio2f+0x5b4>
 8016324:	eeb5 8a40 	vcmp.f32	s16, #0.0
 8016328:	eef1 fa10 	vmrs	APSR_nzcv, fpscr
 801632c:	f04f 0200 	mov.w	r2, #0
 8016330:	f43f af6b 	beq.w	801620a <__kernel_rem_pio2f+0x1ea>
 8016334:	eeb0 0a48 	vmov.f32	s0, s16
 8016338:	f1c8 0000 	rsb	r0, r8, #0
 801633c:	4691      	mov	r9, r2
 801633e:	9e00      	ldr	r6, [sp, #0]
 8016340:	f000 fa96 	bl	8016870 <scalbnf>
 8016344:	ed1f 7a10 	vldr	s14, [pc, #-64]	; 8016308 <__kernel_rem_pio2f+0x2e8>
 8016348:	eeb4 0ac7 	vcmpe.f32	s0, s14
 801634c:	eef1 fa10 	vmrs	APSR_nzcv, fpscr
 8016350:	f2c0 8158 	blt.w	8016604 <__kernel_rem_pio2f+0x5e4>
 8016354:	ed5f 7a13 	vldr	s15, [pc, #-76]	; 801630c <__kernel_rem_pio2f+0x2ec>
 8016358:	ee60 7a27 	vmul.f32	s15, s0, s15
 801635c:	f10b 0301 	add.w	r3, fp, #1
 8016360:	eefd 7ae7 	vcvt.s32.f32	s15, s15
 8016364:	f108 0808 	add.w	r8, r8, #8
 8016368:	eef8 7ae7 	vcvt.f32.s32	s15, s15
 801636c:	eea7 0ac7 	vfms.f32	s0, s15, s14
 8016370:	eefd 7ae7 	vcvt.s32.f32	s15, s15
 8016374:	eebd 0ac0 	vcvt.s32.f32	s0, s0
 8016378:	ee10 2a10 	vmov	r2, s0
 801637c:	f845 202b 	str.w	r2, [r5, fp, lsl #2]
 8016380:	ee17 2a90 	vmov	r2, s15
 8016384:	f845 2023 	str.w	r2, [r5, r3, lsl #2]
 8016388:	4640      	mov	r0, r8
 801638a:	eeb7 0a00 	vmov.f32	s0, #112	; 0x3f800000  1.0
 801638e:	9300      	str	r3, [sp, #0]
 8016390:	f000 fa6e 	bl	8016870 <scalbnf>
 8016394:	9b00      	ldr	r3, [sp, #0]
 8016396:	2b00      	cmp	r3, #0
 8016398:	f2c0 814b 	blt.w	8016632 <__kernel_rem_pio2f+0x612>
 801639c:	0098      	lsls	r0, r3, #2
 801639e:	aa42      	add	r2, sp, #264	; 0x108
 80163a0:	f100 0c04 	add.w	ip, r0, #4
 80163a4:	ed1f 7a27 	vldr	s14, [pc, #-156]	; 801630c <__kernel_rem_pio2f+0x2ec>
 80163a8:	4410      	add	r0, r2
 80163aa:	1d01      	adds	r1, r0, #4
 80163ac:	eb05 020c 	add.w	r2, r5, ip
 80163b0:	ed72 7a01 	vldmdb	r2!, {s15}
 80163b4:	eef8 7ae7 	vcvt.f32.s32	s15, s15
 80163b8:	42aa      	cmp	r2, r5
 80163ba:	ee67 7a80 	vmul.f32	s15, s15, s0
 80163be:	ee20 0a07 	vmul.f32	s0, s0, s14
 80163c2:	ed61 7a01 	vstmdb	r1!, {s15}
 80163c6:	d1f3      	bne.n	80163b0 <__kernel_rem_pio2f+0x390>
 80163c8:	f10d 0eb8 	add.w	lr, sp, #184	; 0xb8
 80163cc:	ed1f 6a30 	vldr	s12, [pc, #-192]	; 8016310 <__kernel_rem_pio2f+0x2f0>
 80163d0:	4605      	mov	r5, r0
 80163d2:	4677      	mov	r7, lr
 80163d4:	f103 0801 	add.w	r8, r3, #1
 80163d8:	2400      	movs	r4, #0
 80163da:	2e00      	cmp	r6, #0
 80163dc:	f2c0 8105 	blt.w	80165ea <__kernel_rem_pio2f+0x5ca>
 80163e0:	48a1      	ldr	r0, [pc, #644]	; (8016668 <__kernel_rem_pio2f+0x648>)
 80163e2:	eddf 7aa2 	vldr	s15, [pc, #648]	; 801666c <__kernel_rem_pio2f+0x64c>
 80163e6:	4629      	mov	r1, r5
 80163e8:	eeb0 7a46 	vmov.f32	s14, s12
 80163ec:	2200      	movs	r2, #0
 80163ee:	e003      	b.n	80163f8 <__kernel_rem_pio2f+0x3d8>
 80163f0:	42a2      	cmp	r2, r4
 80163f2:	dc08      	bgt.n	8016406 <__kernel_rem_pio2f+0x3e6>
 80163f4:	ecb0 7a01 	vldmia	r0!, {s14}
 80163f8:	ecf1 6a01 	vldmia	r1!, {s13}
 80163fc:	3201      	adds	r2, #1
 80163fe:	4296      	cmp	r6, r2
 8016400:	eee6 7a87 	vfma.f32	s15, s13, s14
 8016404:	daf4      	bge.n	80163f0 <__kernel_rem_pio2f+0x3d0>
 8016406:	3401      	adds	r4, #1
 8016408:	4544      	cmp	r4, r8
 801640a:	ece7 7a01 	vstmia	r7!, {s15}
 801640e:	f1a5 0504 	sub.w	r5, r5, #4
 8016412:	d1e2      	bne.n	80163da <__kernel_rem_pio2f+0x3ba>
 8016414:	9a64      	ldr	r2, [sp, #400]	; 0x190
 8016416:	2a03      	cmp	r2, #3
 8016418:	d853      	bhi.n	80164c2 <__kernel_rem_pio2f+0x4a2>
 801641a:	e8df f002 	tbb	[pc, r2]
 801641e:	b6ca      	.short	0xb6ca
 8016420:	5bb6      	.short	0x5bb6
 8016422:	eeb7 0a00 	vmov.f32	s0, #112	; 0x3f800000  1.0
 8016426:	ee30 8a48 	vsub.f32	s16, s0, s16
 801642a:	2800      	cmp	r0, #0
 801642c:	f43f aee7 	beq.w	80161fe <__kernel_rem_pio2f+0x1de>
 8016430:	4640      	mov	r0, r8
 8016432:	9201      	str	r2, [sp, #4]
 8016434:	f000 fa1c 	bl	8016870 <scalbnf>
 8016438:	9a01      	ldr	r2, [sp, #4]
 801643a:	ee38 8a40 	vsub.f32	s16, s16, s0
 801643e:	e6de      	b.n	80161fe <__kernel_rem_pio2f+0x1de>
 8016440:	f04f 0c01 	mov.w	ip, #1
 8016444:	e705      	b.n	8016252 <__kernel_rem_pio2f+0x232>
 8016446:	f10b 31ff 	add.w	r1, fp, #4294967295
 801644a:	f855 3021 	ldr.w	r3, [r5, r1, lsl #2]
 801644e:	f003 037f 	and.w	r3, r3, #127	; 0x7f
 8016452:	f845 3021 	str.w	r3, [r5, r1, lsl #2]
 8016456:	e6cf      	b.n	80161f8 <__kernel_rem_pio2f+0x1d8>
 8016458:	4691      	mov	r9, r2
 801645a:	f855 202c 	ldr.w	r2, [r5, ip, lsl #2]
 801645e:	9e00      	ldr	r6, [sp, #0]
 8016460:	4663      	mov	r3, ip
 8016462:	f1a8 0808 	sub.w	r8, r8, #8
 8016466:	2a00      	cmp	r2, #0
 8016468:	d18e      	bne.n	8016388 <__kernel_rem_pio2f+0x368>
 801646a:	f10c 4280 	add.w	r2, ip, #1073741824	; 0x40000000
 801646e:	3a01      	subs	r2, #1
 8016470:	eb05 0282 	add.w	r2, r5, r2, lsl #2
 8016474:	f852 1904 	ldr.w	r1, [r2], #-4
 8016478:	3b01      	subs	r3, #1
 801647a:	f1a8 0808 	sub.w	r8, r8, #8
 801647e:	2900      	cmp	r1, #0
 8016480:	d0f8      	beq.n	8016474 <__kernel_rem_pio2f+0x454>
 8016482:	e781      	b.n	8016388 <__kernel_rem_pio2f+0x368>
 8016484:	464a      	mov	r2, r9
 8016486:	eddf 7a79 	vldr	s15, [pc, #484]	; 801666c <__kernel_rem_pio2f+0x64c>
 801648a:	2a00      	cmp	r2, #0
 801648c:	f040 80c2 	bne.w	8016614 <__kernel_rem_pio2f+0x5f4>
 8016490:	ed9d 7a2e 	vldr	s14, [sp, #184]	; 0xb8
 8016494:	9a05      	ldr	r2, [sp, #20]
 8016496:	2b00      	cmp	r3, #0
 8016498:	edc2 7a00 	vstr	s15, [r2]
 801649c:	ee77 7a67 	vsub.f32	s15, s14, s15
 80164a0:	dd0c      	ble.n	80164bc <__kernel_rem_pio2f+0x49c>
 80164a2:	a92f      	add	r1, sp, #188	; 0xbc
 80164a4:	2201      	movs	r2, #1
 80164a6:	ecb1 7a01 	vldmia	r1!, {s14}
 80164aa:	3201      	adds	r2, #1
 80164ac:	4293      	cmp	r3, r2
 80164ae:	ee77 7a87 	vadd.f32	s15, s15, s14
 80164b2:	daf8      	bge.n	80164a6 <__kernel_rem_pio2f+0x486>
 80164b4:	464b      	mov	r3, r9
 80164b6:	2b00      	cmp	r3, #0
 80164b8:	f040 80b8 	bne.w	801662c <__kernel_rem_pio2f+0x60c>
 80164bc:	9b05      	ldr	r3, [sp, #20]
 80164be:	edc3 7a01 	vstr	s15, [r3, #4]
 80164c2:	ee19 3a90 	vmov	r3, s19
 80164c6:	f003 0007 	and.w	r0, r3, #7
 80164ca:	b057      	add	sp, #348	; 0x15c
 80164cc:	ecbd 8b04 	vpop	{d8-d9}
 80164d0:	e8bd 8ff0 	ldmia.w	sp!, {r4, r5, r6, r7, r8, r9, sl, fp, pc}
 80164d4:	2b00      	cmp	r3, #0
 80164d6:	f340 80c4 	ble.w	8016662 <__kernel_rem_pio2f+0x642>
 80164da:	0098      	lsls	r0, r3, #2
 80164dc:	aa56      	add	r2, sp, #344	; 0x158
 80164de:	4402      	add	r2, r0
 80164e0:	f10d 0eb8 	add.w	lr, sp, #184	; 0xb8
 80164e4:	f103 4180 	add.w	r1, r3, #1073741824	; 0x40000000
 80164e8:	ed52 6a28 	vldr	s13, [r2, #-160]	; 0xffffff60
 80164ec:	3901      	subs	r1, #1
 80164ee:	eb0e 0283 	add.w	r2, lr, r3, lsl #2
 80164f2:	ed72 7a01 	vldmdb	r2!, {s15}
 80164f6:	ee37 7aa6 	vadd.f32	s14, s15, s13
 80164fa:	4596      	cmp	lr, r2
 80164fc:	ee77 7ac7 	vsub.f32	s15, s15, s14
 8016500:	ed82 7a00 	vstr	s14, [r2]
 8016504:	ee77 7aa6 	vadd.f32	s15, s15, s13
 8016508:	eef0 6a47 	vmov.f32	s13, s14
 801650c:	edc2 7a01 	vstr	s15, [r2, #4]
 8016510:	d1ef      	bne.n	80164f2 <__kernel_rem_pio2f+0x4d2>
 8016512:	2b01      	cmp	r3, #1
 8016514:	f340 80a5 	ble.w	8016662 <__kernel_rem_pio2f+0x642>
 8016518:	ab56      	add	r3, sp, #344	; 0x158
 801651a:	4418      	add	r0, r3
 801651c:	0089      	lsls	r1, r1, #2
 801651e:	1d0b      	adds	r3, r1, #4
 8016520:	ed50 6a28 	vldr	s13, [r0, #-160]	; 0xffffff60
 8016524:	4473      	add	r3, lr
 8016526:	aa2f      	add	r2, sp, #188	; 0xbc
 8016528:	ed73 7a01 	vldmdb	r3!, {s15}
 801652c:	ee37 7aa6 	vadd.f32	s14, s15, s13
 8016530:	429a      	cmp	r2, r3
 8016532:	ee77 7ac7 	vsub.f32	s15, s15, s14
 8016536:	ed83 7a00 	vstr	s14, [r3]
 801653a:	ee77 7aa6 	vadd.f32	s15, s15, s13
 801653e:	eef0 6a47 	vmov.f32	s13, s14
 8016542:	edc3 7a01 	vstr	s15, [r3, #4]
 8016546:	d1ef      	bne.n	8016528 <__kernel_rem_pio2f+0x508>
 8016548:	3108      	adds	r1, #8
 801654a:	eddf 7a48 	vldr	s15, [pc, #288]	; 801666c <__kernel_rem_pio2f+0x64c>
 801654e:	eb0e 0301 	add.w	r3, lr, r1
 8016552:	f10e 0e08 	add.w	lr, lr, #8
 8016556:	ed33 7a01 	vldmdb	r3!, {s14}
 801655a:	459e      	cmp	lr, r3
 801655c:	ee77 7a87 	vadd.f32	s15, s15, s14
 8016560:	d1f9      	bne.n	8016556 <__kernel_rem_pio2f+0x536>
 8016562:	464b      	mov	r3, r9
 8016564:	eddd 6a2e 	vldr	s13, [sp, #184]	; 0xb8
 8016568:	ed9d 7a2f 	vldr	s14, [sp, #188]	; 0xbc
 801656c:	b12b      	cbz	r3, 801657a <__kernel_rem_pio2f+0x55a>
 801656e:	eef1 6a66 	vneg.f32	s13, s13
 8016572:	eeb1 7a47 	vneg.f32	s14, s14
 8016576:	eef1 7a67 	vneg.f32	s15, s15
 801657a:	9b05      	ldr	r3, [sp, #20]
 801657c:	edc3 6a00 	vstr	s13, [r3]
 8016580:	ed83 7a01 	vstr	s14, [r3, #4]
 8016584:	edc3 7a02 	vstr	s15, [r3, #8]
 8016588:	e79b      	b.n	80164c2 <__kernel_rem_pio2f+0x4a2>
 801658a:	2b00      	cmp	r3, #0
 801658c:	f6ff af7a 	blt.w	8016484 <__kernel_rem_pio2f+0x464>
 8016590:	a92e      	add	r1, sp, #184	; 0xb8
 8016592:	eb01 0283 	add.w	r2, r1, r3, lsl #2
 8016596:	eddf 7a35 	vldr	s15, [pc, #212]	; 801666c <__kernel_rem_pio2f+0x64c>
 801659a:	3204      	adds	r2, #4
 801659c:	ed32 7a01 	vldmdb	r2!, {s14}
 80165a0:	4291      	cmp	r1, r2
 80165a2:	ee77 7a87 	vadd.f32	s15, s15, s14
 80165a6:	d1f9      	bne.n	801659c <__kernel_rem_pio2f+0x57c>
 80165a8:	464a      	mov	r2, r9
 80165aa:	2a00      	cmp	r2, #0
 80165ac:	f43f af70 	beq.w	8016490 <__kernel_rem_pio2f+0x470>
 80165b0:	e030      	b.n	8016614 <__kernel_rem_pio2f+0x5f4>
 80165b2:	eddf 7a2e 	vldr	s15, [pc, #184]	; 801666c <__kernel_rem_pio2f+0x64c>
 80165b6:	44f4      	add	ip, lr
 80165b8:	ed3c 7a01 	vldmdb	ip!, {s14}
 80165bc:	45e6      	cmp	lr, ip
 80165be:	ee77 7a87 	vadd.f32	s15, s15, s14
 80165c2:	d1f9      	bne.n	80165b8 <__kernel_rem_pio2f+0x598>
 80165c4:	464b      	mov	r3, r9
 80165c6:	b10b      	cbz	r3, 80165cc <__kernel_rem_pio2f+0x5ac>
 80165c8:	eef1 7a67 	vneg.f32	s15, s15
 80165cc:	9b05      	ldr	r3, [sp, #20]
 80165ce:	edc3 7a00 	vstr	s15, [r3]
 80165d2:	e776      	b.n	80164c2 <__kernel_rem_pio2f+0x4a2>
 80165d4:	ee19 3a90 	vmov	r3, s19
 80165d8:	f1bb 0f00 	cmp.w	fp, #0
 80165dc:	f103 0301 	add.w	r3, r3, #1
 80165e0:	ee09 3a90 	vmov	s19, r3
 80165e4:	dd37      	ble.n	8016656 <__kernel_rem_pio2f+0x636>
 80165e6:	2202      	movs	r2, #2
 80165e8:	e5e1      	b.n	80161ae <__kernel_rem_pio2f+0x18e>
 80165ea:	eddf 7a20 	vldr	s15, [pc, #128]	; 801666c <__kernel_rem_pio2f+0x64c>
 80165ee:	3401      	adds	r4, #1
 80165f0:	4544      	cmp	r4, r8
 80165f2:	ece7 7a01 	vstmia	r7!, {s15}
 80165f6:	f1a5 0504 	sub.w	r5, r5, #4
 80165fa:	f47f aeee 	bne.w	80163da <__kernel_rem_pio2f+0x3ba>
 80165fe:	e709      	b.n	8016414 <__kernel_rem_pio2f+0x3f4>
 8016600:	2000      	movs	r0, #0
 8016602:	e5e7      	b.n	80161d4 <__kernel_rem_pio2f+0x1b4>
 8016604:	eebd 0ac0 	vcvt.s32.f32	s0, s0
 8016608:	465b      	mov	r3, fp
 801660a:	ee10 2a10 	vmov	r2, s0
 801660e:	f845 202b 	str.w	r2, [r5, fp, lsl #2]
 8016612:	e6b9      	b.n	8016388 <__kernel_rem_pio2f+0x368>
 8016614:	eddd 6a2e 	vldr	s13, [sp, #184]	; 0xb8
 8016618:	9a05      	ldr	r2, [sp, #20]
 801661a:	eeb1 7a67 	vneg.f32	s14, s15
 801661e:	2b00      	cmp	r3, #0
 8016620:	ee76 7ae7 	vsub.f32	s15, s13, s15
 8016624:	ed82 7a00 	vstr	s14, [r2]
 8016628:	f73f af3b 	bgt.w	80164a2 <__kernel_rem_pio2f+0x482>
 801662c:	eef1 7a67 	vneg.f32	s15, s15
 8016630:	e744      	b.n	80164bc <__kernel_rem_pio2f+0x49c>
 8016632:	9a64      	ldr	r2, [sp, #400]	; 0x190
 8016634:	2a03      	cmp	r2, #3
 8016636:	f63f af44 	bhi.w	80164c2 <__kernel_rem_pio2f+0x4a2>
 801663a:	a101      	add	r1, pc, #4	; (adr r1, 8016640 <__kernel_rem_pio2f+0x620>)
 801663c:	f851 f022 	ldr.w	pc, [r1, r2, lsl #2]
 8016640:	08016651 	.word	0x08016651
 8016644:	0801658b 	.word	0x0801658b
 8016648:	0801658b 	.word	0x0801658b
 801664c:	080164d5 	.word	0x080164d5
 8016650:	eddf 7a06 	vldr	s15, [pc, #24]	; 801666c <__kernel_rem_pio2f+0x64c>
 8016654:	e7b6      	b.n	80165c4 <__kernel_rem_pio2f+0x5a4>
 8016656:	eef7 7a00 	vmov.f32	s15, #112	; 0x3f800000  1.0
 801665a:	ee37 8ac8 	vsub.f32	s16, s15, s16
 801665e:	2202      	movs	r2, #2
 8016660:	e5cd      	b.n	80161fe <__kernel_rem_pio2f+0x1de>
 8016662:	eddf 7a02 	vldr	s15, [pc, #8]	; 801666c <__kernel_rem_pio2f+0x64c>
 8016666:	e77c      	b.n	8016562 <__kernel_rem_pio2f+0x542>
 8016668:	08017a54 	.word	0x08017a54
 801666c:	00000000 	.word	0x00000000

08016670 <__kernel_sinf>:
 8016670:	ee10 3a10 	vmov	r3, s0
 8016674:	f023 4300 	bic.w	r3, r3, #2147483648	; 0x80000000
 8016678:	f1b3 5f48 	cmp.w	r3, #838860800	; 0x32000000
 801667c:	da04      	bge.n	8016688 <__kernel_sinf+0x18>
 801667e:	eefd 7ac0 	vcvt.s32.f32	s15, s0
 8016682:	ee17 3a90 	vmov	r3, s15
 8016686:	b323      	cbz	r3, 80166d2 <__kernel_sinf+0x62>
 8016688:	ee60 7a00 	vmul.f32	s15, s0, s0
 801668c:	ed9f 5a15 	vldr	s10, [pc, #84]	; 80166e4 <__kernel_sinf+0x74>
 8016690:	eddf 5a15 	vldr	s11, [pc, #84]	; 80166e8 <__kernel_sinf+0x78>
 8016694:	ed9f 6a15 	vldr	s12, [pc, #84]	; 80166ec <__kernel_sinf+0x7c>
 8016698:	eddf 6a15 	vldr	s13, [pc, #84]	; 80166f0 <__kernel_sinf+0x80>
 801669c:	ed9f 7a15 	vldr	s14, [pc, #84]	; 80166f4 <__kernel_sinf+0x84>
 80166a0:	eee7 5a85 	vfma.f32	s11, s15, s10
 80166a4:	ee20 5a27 	vmul.f32	s10, s0, s15
 80166a8:	eea5 6aa7 	vfma.f32	s12, s11, s15
 80166ac:	eee6 6a27 	vfma.f32	s13, s12, s15
 80166b0:	eea6 7aa7 	vfma.f32	s14, s13, s15
 80166b4:	b170      	cbz	r0, 80166d4 <__kernel_sinf+0x64>
 80166b6:	ee27 7a45 	vnmul.f32	s14, s14, s10
 80166ba:	eef6 6a00 	vmov.f32	s13, #96	; 0x3f000000  0.5
 80166be:	eea0 7aa6 	vfma.f32	s14, s1, s13
 80166c2:	eddf 6a0d 	vldr	s13, [pc, #52]	; 80166f8 <__kernel_sinf+0x88>
 80166c6:	eed7 0a27 	vfnms.f32	s1, s14, s15
 80166ca:	eee5 0a26 	vfma.f32	s1, s10, s13
 80166ce:	ee30 0a60 	vsub.f32	s0, s0, s1
 80166d2:	4770      	bx	lr
 80166d4:	eddf 6a09 	vldr	s13, [pc, #36]	; 80166fc <__kernel_sinf+0x8c>
 80166d8:	eee7 6a87 	vfma.f32	s13, s15, s14
 80166dc:	eea6 0a85 	vfma.f32	s0, s13, s10
 80166e0:	4770      	bx	lr
 80166e2:	bf00      	nop
 80166e4:	2f2ec9d3 	.word	0x2f2ec9d3
 80166e8:	b2d72f34 	.word	0xb2d72f34
 80166ec:	3638ef1b 	.word	0x3638ef1b
 80166f0:	b9500d01 	.word	0xb9500d01
 80166f4:	3c088889 	.word	0x3c088889
 80166f8:	3e2aaaab 	.word	0x3e2aaaab
 80166fc:	be2aaaab 	.word	0xbe2aaaab

08016700 <with_errnof>:
 8016700:	b510      	push	{r4, lr}
 8016702:	ed2d 8b02 	vpush	{d8}
 8016706:	eeb0 8a40 	vmov.f32	s16, s0
 801670a:	4604      	mov	r4, r0
 801670c:	f000 f928 	bl	8016960 <__errno>
 8016710:	eeb0 0a48 	vmov.f32	s0, s16
 8016714:	ecbd 8b02 	vpop	{d8}
 8016718:	6004      	str	r4, [r0, #0]
 801671a:	bd10      	pop	{r4, pc}
 801671c:	0000      	movs	r0, r0
	...

08016720 <xflowf>:
 8016720:	b130      	cbz	r0, 8016730 <xflowf+0x10>
 8016722:	eef1 7a40 	vneg.f32	s15, s0
 8016726:	ee27 0a80 	vmul.f32	s0, s15, s0
 801672a:	2022      	movs	r0, #34	; 0x22
 801672c:	f7ff bfe8 	b.w	8016700 <with_errnof>
 8016730:	eef0 7a40 	vmov.f32	s15, s0
 8016734:	ee27 0a80 	vmul.f32	s0, s15, s0
 8016738:	2022      	movs	r0, #34	; 0x22
 801673a:	f7ff bfe1 	b.w	8016700 <with_errnof>
 801673e:	bf00      	nop

08016740 <__math_uflowf>:
 8016740:	ed9f 0a01 	vldr	s0, [pc, #4]	; 8016748 <__math_uflowf+0x8>
 8016744:	f7ff bfec 	b.w	8016720 <xflowf>
 8016748:	10000000 	.word	0x10000000
 801674c:	00000000 	.word	0x00000000

08016750 <__math_may_uflowf>:
 8016750:	ed9f 0a01 	vldr	s0, [pc, #4]	; 8016758 <__math_may_uflowf+0x8>
 8016754:	f7ff bfe4 	b.w	8016720 <xflowf>
 8016758:	1a200000 	.word	0x1a200000
 801675c:	00000000 	.word	0x00000000

08016760 <__math_oflowf>:
 8016760:	ed9f 0a01 	vldr	s0, [pc, #4]	; 8016768 <__math_oflowf+0x8>
 8016764:	f7ff bfdc 	b.w	8016720 <xflowf>
 8016768:	70000000 	.word	0x70000000
 801676c:	00000000 	.word	0x00000000

08016770 <__math_divzerof>:
 8016770:	2800      	cmp	r0, #0
 8016772:	eeff 7a00 	vmov.f32	s15, #240	; 0xbf800000 -1.0
 8016776:	eeb7 7a00 	vmov.f32	s14, #112	; 0x3f800000  1.0
 801677a:	ed9f 0a05 	vldr	s0, [pc, #20]	; 8016790 <__math_divzerof+0x20>
 801677e:	bf08      	it	eq
 8016780:	eef0 7a47 	vmoveq.f32	s15, s14
 8016784:	ee87 0a80 	vdiv.f32	s0, s15, s0
 8016788:	2022      	movs	r0, #34	; 0x22
 801678a:	f7ff bfb9 	b.w	8016700 <with_errnof>
 801678e:	bf00      	nop
	...

080167a0 <__math_invalidf>:
 80167a0:	ee70 7a40 	vsub.f32	s15, s0, s0
 80167a4:	eeb4 0a40 	vcmp.f32	s0, s0
 80167a8:	ee87 7aa7 	vdiv.f32	s14, s15, s15
 80167ac:	eef1 fa10 	vmrs	APSR_nzcv, fpscr
 80167b0:	eeb0 0a47 	vmov.f32	s0, s14
 80167b4:	d602      	bvs.n	80167bc <__math_invalidf+0x1c>
 80167b6:	2021      	movs	r0, #33	; 0x21
 80167b8:	f7ff bfa2 	b.w	8016700 <with_errnof>
 80167bc:	4770      	bx	lr
 80167be:	bf00      	nop

080167c0 <matherr>:
 80167c0:	2000      	movs	r0, #0
 80167c2:	4770      	bx	lr
	...

080167d0 <fabsf>:
 80167d0:	ee10 3a10 	vmov	r3, s0
 80167d4:	f023 4300 	bic.w	r3, r3, #2147483648	; 0x80000000
 80167d8:	ee00 3a10 	vmov	s0, r3
 80167dc:	4770      	bx	lr
 80167de:	bf00      	nop

080167e0 <floorf>:
 80167e0:	ee10 2a10 	vmov	r2, s0
 80167e4:	f022 4100 	bic.w	r1, r2, #2147483648	; 0x80000000
 80167e8:	0dcb      	lsrs	r3, r1, #23
 80167ea:	3b7f      	subs	r3, #127	; 0x7f
 80167ec:	2b16      	cmp	r3, #22
 80167ee:	dc1c      	bgt.n	801682a <floorf+0x4a>
 80167f0:	2b00      	cmp	r3, #0
 80167f2:	ee10 0a10 	vmov	r0, s0
 80167f6:	db1e      	blt.n	8016836 <floorf+0x56>
 80167f8:	4919      	ldr	r1, [pc, #100]	; (8016860 <floorf+0x80>)
 80167fa:	4119      	asrs	r1, r3
 80167fc:	420a      	tst	r2, r1
 80167fe:	d027      	beq.n	8016850 <floorf+0x70>
 8016800:	eddf 7a18 	vldr	s15, [pc, #96]	; 8016864 <floorf+0x84>
 8016804:	ee70 7a27 	vadd.f32	s15, s0, s15
 8016808:	eef5 7ac0 	vcmpe.f32	s15, #0.0
 801680c:	eef1 fa10 	vmrs	APSR_nzcv, fpscr
 8016810:	dd1e      	ble.n	8016850 <floorf+0x70>
 8016812:	2a00      	cmp	r2, #0
 8016814:	da04      	bge.n	8016820 <floorf+0x40>
 8016816:	f44f 0200 	mov.w	r2, #8388608	; 0x800000
 801681a:	fa42 f303 	asr.w	r3, r2, r3
 801681e:	4418      	add	r0, r3
 8016820:	ea20 0301 	bic.w	r3, r0, r1
 8016824:	ee00 3a10 	vmov	s0, r3
 8016828:	4770      	bx	lr
 801682a:	f1b1 4fff 	cmp.w	r1, #2139095040	; 0x7f800000
 801682e:	d30f      	bcc.n	8016850 <floorf+0x70>
 8016830:	ee30 0a00 	vadd.f32	s0, s0, s0
 8016834:	4770      	bx	lr
 8016836:	eddf 7a0b 	vldr	s15, [pc, #44]	; 8016864 <floorf+0x84>
 801683a:	ee70 7a27 	vadd.f32	s15, s0, s15
 801683e:	eef5 7ac0 	vcmpe.f32	s15, #0.0
 8016842:	eef1 fa10 	vmrs	APSR_nzcv, fpscr
 8016846:	dd03      	ble.n	8016850 <floorf+0x70>
 8016848:	2a00      	cmp	r2, #0
 801684a:	db02      	blt.n	8016852 <floorf+0x72>
 801684c:	ed9f 0a06 	vldr	s0, [pc, #24]	; 8016868 <floorf+0x88>
 8016850:	4770      	bx	lr
 8016852:	2900      	cmp	r1, #0
 8016854:	eeff 7a00 	vmov.f32	s15, #240	; 0xbf800000 -1.0
 8016858:	bf18      	it	ne
 801685a:	eeb0 0a67 	vmovne.f32	s0, s15
 801685e:	4770      	bx	lr
 8016860:	007fffff 	.word	0x007fffff
 8016864:	7149f2ca 	.word	0x7149f2ca
	...

08016870 <scalbnf>:
 8016870:	b508      	push	{r3, lr}
 8016872:	ee10 3a10 	vmov	r3, s0
 8016876:	f033 4200 	bics.w	r2, r3, #2147483648	; 0x80000000
 801687a:	ed2d 8b02 	vpush	{d8}
 801687e:	d011      	beq.n	80168a4 <scalbnf+0x34>
 8016880:	f1b2 4fff 	cmp.w	r2, #2139095040	; 0x7f800000
 8016884:	d211      	bcs.n	80168aa <scalbnf+0x3a>
 8016886:	f5b2 0f00 	cmp.w	r2, #8388608	; 0x800000
 801688a:	d313      	bcc.n	80168b4 <scalbnf+0x44>
 801688c:	0dd2      	lsrs	r2, r2, #23
 801688e:	4402      	add	r2, r0
 8016890:	2afe      	cmp	r2, #254	; 0xfe
 8016892:	dc1c      	bgt.n	80168ce <scalbnf+0x5e>
 8016894:	2a00      	cmp	r2, #0
 8016896:	dd2a      	ble.n	80168ee <scalbnf+0x7e>
 8016898:	f023 43ff 	bic.w	r3, r3, #2139095040	; 0x7f800000
 801689c:	ea43 53c2 	orr.w	r3, r3, r2, lsl #23
 80168a0:	ee00 3a10 	vmov	s0, r3
 80168a4:	ecbd 8b02 	vpop	{d8}
 80168a8:	bd08      	pop	{r3, pc}
 80168aa:	ecbd 8b02 	vpop	{d8}
 80168ae:	ee30 0a00 	vadd.f32	s0, s0, s0
 80168b2:	bd08      	pop	{r3, pc}
 80168b4:	4b1d      	ldr	r3, [pc, #116]	; (801692c <scalbnf+0xbc>)
 80168b6:	eddf 7a1e 	vldr	s15, [pc, #120]	; 8016930 <scalbnf+0xc0>
 80168ba:	4298      	cmp	r0, r3
 80168bc:	ee20 0a27 	vmul.f32	s0, s0, s15
 80168c0:	db10      	blt.n	80168e4 <scalbnf+0x74>
 80168c2:	ee10 3a10 	vmov	r3, s0
 80168c6:	f3c3 52c7 	ubfx	r2, r3, #23, #8
 80168ca:	3a19      	subs	r2, #25
 80168cc:	e7df      	b.n	801688e <scalbnf+0x1e>
 80168ce:	ed9f 8a19 	vldr	s16, [pc, #100]	; 8016934 <scalbnf+0xc4>
 80168d2:	eef0 0a40 	vmov.f32	s1, s0
 80168d6:	eeb0 0a48 	vmov.f32	s0, s16
 80168da:	f000 f831 	bl	8016940 <copysignf>
 80168de:	ee20 0a08 	vmul.f32	s0, s0, s16
 80168e2:	e7df      	b.n	80168a4 <scalbnf+0x34>
 80168e4:	eddf 0a14 	vldr	s1, [pc, #80]	; 8016938 <scalbnf+0xc8>
 80168e8:	ee20 0a20 	vmul.f32	s0, s0, s1
 80168ec:	e7da      	b.n	80168a4 <scalbnf+0x34>
 80168ee:	f112 0f16 	cmn.w	r2, #22
 80168f2:	da0e      	bge.n	8016912 <scalbnf+0xa2>
 80168f4:	f24c 3350 	movw	r3, #50000	; 0xc350
 80168f8:	4298      	cmp	r0, r3
 80168fa:	dce8      	bgt.n	80168ce <scalbnf+0x5e>
 80168fc:	ed9f 8a0e 	vldr	s16, [pc, #56]	; 8016938 <scalbnf+0xc8>
 8016900:	eef0 0a40 	vmov.f32	s1, s0
 8016904:	eeb0 0a48 	vmov.f32	s0, s16
 8016908:	f000 f81a 	bl	8016940 <copysignf>
 801690c:	ee20 0a08 	vmul.f32	s0, s0, s16
 8016910:	e7c8      	b.n	80168a4 <scalbnf+0x34>
 8016912:	3219      	adds	r2, #25
 8016914:	f023 43ff 	bic.w	r3, r3, #2139095040	; 0x7f800000
 8016918:	ea43 53c2 	orr.w	r3, r3, r2, lsl #23
 801691c:	eddf 7a07 	vldr	s15, [pc, #28]	; 801693c <scalbnf+0xcc>
 8016920:	ee00 3a10 	vmov	s0, r3
 8016924:	ee20 0a27 	vmul.f32	s0, s0, s15
 8016928:	e7bc      	b.n	80168a4 <scalbnf+0x34>
 801692a:	bf00      	nop
 801692c:	ffff3cb0 	.word	0xffff3cb0
 8016930:	4c000000 	.word	0x4c000000
 8016934:	7149f2ca 	.word	0x7149f2ca
 8016938:	0da24260 	.word	0x0da24260
 801693c:	33000000 	.word	0x33000000

08016940 <copysignf>:
 8016940:	ee10 3a10 	vmov	r3, s0
 8016944:	ee10 2a90 	vmov	r2, s1
 8016948:	f023 4300 	bic.w	r3, r3, #2147483648	; 0x80000000
 801694c:	f002 4200 	and.w	r2, r2, #2147483648	; 0x80000000
 8016950:	4313      	orrs	r3, r2
 8016952:	ee00 3a10 	vmov	s0, r3
 8016956:	4770      	bx	lr
	...

08016960 <__errno>:
 8016960:	4b01      	ldr	r3, [pc, #4]	; (8016968 <__errno+0x8>)
 8016962:	6818      	ldr	r0, [r3, #0]
 8016964:	4770      	bx	lr
 8016966:	bf00      	nop
 8016968:	20000864 	.word	0x20000864
 801696c:	00000000 	.word	0x00000000

08016970 <memcmp>:
 8016970:	2a03      	cmp	r2, #3
 8016972:	b470      	push	{r4, r5, r6}
 8016974:	d914      	bls.n	80169a0 <memcmp+0x30>
 8016976:	ea40 0501 	orr.w	r5, r0, r1
 801697a:	07ad      	lsls	r5, r5, #30
 801697c:	4604      	mov	r4, r0
 801697e:	460b      	mov	r3, r1
 8016980:	d122      	bne.n	80169c8 <memcmp+0x58>
 8016982:	681d      	ldr	r5, [r3, #0]
 8016984:	6826      	ldr	r6, [r4, #0]
 8016986:	42ae      	cmp	r6, r5
 8016988:	4619      	mov	r1, r3
 801698a:	4620      	mov	r0, r4
 801698c:	f103 0304 	add.w	r3, r3, #4
 8016990:	f104 0404 	add.w	r4, r4, #4
 8016994:	d118      	bne.n	80169c8 <memcmp+0x58>
 8016996:	3a04      	subs	r2, #4
 8016998:	2a03      	cmp	r2, #3
 801699a:	4620      	mov	r0, r4
 801699c:	4619      	mov	r1, r3
 801699e:	d8f0      	bhi.n	8016982 <memcmp+0x12>
 80169a0:	1e54      	subs	r4, r2, #1
 80169a2:	b172      	cbz	r2, 80169c2 <memcmp+0x52>
 80169a4:	7802      	ldrb	r2, [r0, #0]
 80169a6:	780b      	ldrb	r3, [r1, #0]
 80169a8:	429a      	cmp	r2, r3
 80169aa:	bf08      	it	eq
 80169ac:	1864      	addeq	r4, r4, r1
 80169ae:	d006      	beq.n	80169be <memcmp+0x4e>
 80169b0:	e00c      	b.n	80169cc <memcmp+0x5c>
 80169b2:	f810 2f01 	ldrb.w	r2, [r0, #1]!
 80169b6:	f811 3f01 	ldrb.w	r3, [r1, #1]!
 80169ba:	429a      	cmp	r2, r3
 80169bc:	d106      	bne.n	80169cc <memcmp+0x5c>
 80169be:	42a1      	cmp	r1, r4
 80169c0:	d1f7      	bne.n	80169b2 <memcmp+0x42>
 80169c2:	2000      	movs	r0, #0
 80169c4:	bc70      	pop	{r4, r5, r6}
 80169c6:	4770      	bx	lr
 80169c8:	1e54      	subs	r4, r2, #1
 80169ca:	e7eb      	b.n	80169a4 <memcmp+0x34>
 80169cc:	1ad0      	subs	r0, r2, r3
 80169ce:	bc70      	pop	{r4, r5, r6}
 80169d0:	4770      	bx	lr
 80169d2:	bf00      	nop
	...

080169e0 <memset>:
 80169e0:	b4f0      	push	{r4, r5, r6, r7}
 80169e2:	0786      	lsls	r6, r0, #30
 80169e4:	d043      	beq.n	8016a6e <memset+0x8e>
 80169e6:	1e54      	subs	r4, r2, #1
 80169e8:	2a00      	cmp	r2, #0
 80169ea:	d03e      	beq.n	8016a6a <memset+0x8a>
 80169ec:	b2ca      	uxtb	r2, r1
 80169ee:	4603      	mov	r3, r0
 80169f0:	e002      	b.n	80169f8 <memset+0x18>
 80169f2:	f114 34ff 	adds.w	r4, r4, #4294967295
 80169f6:	d338      	bcc.n	8016a6a <memset+0x8a>
 80169f8:	f803 2b01 	strb.w	r2, [r3], #1
 80169fc:	079d      	lsls	r5, r3, #30
 80169fe:	d1f8      	bne.n	80169f2 <memset+0x12>
 8016a00:	2c03      	cmp	r4, #3
 8016a02:	d92b      	bls.n	8016a5c <memset+0x7c>
 8016a04:	b2cd      	uxtb	r5, r1
 8016a06:	ea45 2505 	orr.w	r5, r5, r5, lsl #8
 8016a0a:	2c0f      	cmp	r4, #15
 8016a0c:	ea45 4505 	orr.w	r5, r5, r5, lsl #16
 8016a10:	d916      	bls.n	8016a40 <memset+0x60>
 8016a12:	f1a4 0710 	sub.w	r7, r4, #16
 8016a16:	093f      	lsrs	r7, r7, #4
 8016a18:	f103 0620 	add.w	r6, r3, #32
 8016a1c:	eb06 1607 	add.w	r6, r6, r7, lsl #4
 8016a20:	f103 0210 	add.w	r2, r3, #16
 8016a24:	e942 5504 	strd	r5, r5, [r2, #-16]
 8016a28:	e942 5502 	strd	r5, r5, [r2, #-8]
 8016a2c:	3210      	adds	r2, #16
 8016a2e:	42b2      	cmp	r2, r6
 8016a30:	d1f8      	bne.n	8016a24 <memset+0x44>
 8016a32:	f004 040f 	and.w	r4, r4, #15
 8016a36:	3701      	adds	r7, #1
 8016a38:	2c03      	cmp	r4, #3
 8016a3a:	eb03 1307 	add.w	r3, r3, r7, lsl #4
 8016a3e:	d90d      	bls.n	8016a5c <memset+0x7c>
 8016a40:	461e      	mov	r6, r3
 8016a42:	4622      	mov	r2, r4
 8016a44:	3a04      	subs	r2, #4
 8016a46:	2a03      	cmp	r2, #3
 8016a48:	f846 5b04 	str.w	r5, [r6], #4
 8016a4c:	d8fa      	bhi.n	8016a44 <memset+0x64>
 8016a4e:	1f22      	subs	r2, r4, #4
 8016a50:	f022 0203 	bic.w	r2, r2, #3
 8016a54:	3204      	adds	r2, #4
 8016a56:	4413      	add	r3, r2
 8016a58:	f004 0403 	and.w	r4, r4, #3
 8016a5c:	b12c      	cbz	r4, 8016a6a <memset+0x8a>
 8016a5e:	b2c9      	uxtb	r1, r1
 8016a60:	441c      	add	r4, r3
 8016a62:	f803 1b01 	strb.w	r1, [r3], #1
 8016a66:	429c      	cmp	r4, r3
 8016a68:	d1fb      	bne.n	8016a62 <memset+0x82>
 8016a6a:	bcf0      	pop	{r4, r5, r6, r7}
 8016a6c:	4770      	bx	lr
 8016a6e:	4614      	mov	r4, r2
 8016a70:	4603      	mov	r3, r0
 8016a72:	e7c5      	b.n	8016a00 <memset+0x20>
	...
 8016a80:	656c6469 	.word	0x656c6469
	...

08016a90 <ch_debug>:
 8016a90:	6e69616d 18011600 08480404 1814100c     main......H.....
 8016aa0:	1e1d1c00 0000201f 00000000 00000000     ..... ..........

08016ab0 <vmt>:
 8016ab0:	0800de51 0800de31 0800de91 0800de71     Q...1.......q...
 8016ac0:	0800de81 0800de61 0800de41 0800de21     ....a...A...!...

08016ad0 <active_status>:
	...

08016ae0 <halted_status>:
 8016ae0:	00000001 00000000 00000000 00000000     ................

08016af0 <zero_status>:
	...

08016b00 <_stm32_dma_streams>:
 8016b00:	40026010 40026008 000b0000 40026028     .`.@.`.@....(`.@
 8016b10:	40026008 000c0106 40026040 40026008     .`.@....@`.@.`.@
 8016b20:	000d0210 40026058 40026008 000e0316     ....X`.@.`.@....
 8016b30:	40026070 4002600c 000f0400 40026088     p`.@.`.@.....`.@
 8016b40:	4002600c 00100506 400260a0 4002600c     .`.@.....`.@.`.@
 8016b50:	00110610 400260b8 4002600c 002f0716     .....`.@.`.@../.
 8016b60:	40026410 40026408 00380800 40026428     .d.@.d.@..8.(d.@
 8016b70:	40026408 00390906 40026440 40026408     .d.@..9.@d.@.d.@
 8016b80:	003a0a10 40026458 40026408 003b0b16     ..:.Xd.@.d.@..;.
 8016b90:	40026470 4002640c 003c0c00 40026488     pd.@.d.@..<..d.@
 8016ba0:	4002640c 00440d06 400264a0 4002640c     .d.@..D..d.@.d.@
 8016bb0:	00450e10 400264b8 4002640c 00460f16     ..E..d.@.d.@..F.
 8016bc0:	20414d44 6c696166 00657275 00000000     DMA failure.....

08016bd0 <ep0config>:
 8016bd0:	00000000 0800e281 0800e5c1 0800e6b1     ................
 8016be0:	00400040 20001280 20001280 00000001     @.@.... ... ....
 8016bf0:	20001294 00000000 00000000 00000000     ... ............

08016c00 <fsparams>:
 8016c00:	00000080 00000140 00000003 00000000     ....@...........
 8016c10:	5f627375 5f646c6c 706d7570 00000000     usb_lld_pump....

08016c20 <pal_default_config>:
 8016c20:	2aa0aa00 00000000 ffffabff 40010054     ...*........T..@
 8016c30:	0000ffff 55560000 000aaa00 00082080     ......VU..... ..
 8016c40:	00000240 ffffffff 55514515 0000ffff     @........EQU....
 8016c50:	04000000 00000040 02208001 00000000     ....@..... .....
 8016c60:	ffffffff 54451554 0000ffff 60000000     ....T.ET.......`
 8016c70:	00060600 55000100 00000000 ffffffff     .......U........
 8016c80:	00555055 00000fff 00000000 00000000     UPU.............
 8016c90:	00000040 00000000 ffffffff 00000000     @...............
 8016ca0:	0000ffff 00000000 00000000 00000000     ................
 8016cb0:	00000000 ffffffff 00000000 0000ffff     ................
	...
 8016cd0:	ffffffff 00000000 0000ffff 00000000     ................
	...
 8016cec:	ffffffff 00000000 0000ffff 00000000     ................
	...
 8016d08:	ffffffff 00000000 0000ffff 00000000     ................
	...
 8016d20:	6c756e28 0000296c 00000000 00000000     (null)..........

08016d30 <pow10>:
 8016d30:	0000000a 00000064 000003e8 00002710     ....d........'..
 8016d40:	000186a0 000f4240 00989680 05f5e100     ....@B..........
 8016d50:	3b9aca00 00000000 00000000 00000000     ...;............

08016d60 <i2cfg>:
 8016d60:	00000001 000186a0 00000001 00000000     ................
 8016d70:	695f636d 7265746e 65636166 696e695f     mc_interface_ini
 8016d80:	000a0d74 00000000 00000000 00000000     t...............
 8016d90:	706d6153 6553656c 7265646e 00000000     SampleSender....
 8016da0:	6d206f74 6e695f63 66726574 20656361     to mc_interface 
 8016db0:	53203e2d 6c706d61 6e655365 0d726564     -> SampleSender.
 8016dc0:	0000000a 00000000 00000000 00000000     ................
 8016dd0:	6669636d 6d697420 00007265 6d206f74     mcif timer..to m
 8016de0:	6e695f63 66726574 20656361 6d203e2d     c_interface -> m
 8016df0:	20666963 656d6974 000a0d72 00000000     cif timer.......

08016e00 <mavlink_message_crcs.11726>:
 8016e00:	00000032 00000000 00000000 00000000     2...............
	...
 8016e94:	a6c00000 00007e8c 00000000 00000000     .....~..........
	...
 8016edc:	0021c8f9 00000000 00000000 00000000     ..!.............
	...
 8016f00:	43444c42 30315220 00000000 00000000     BLDC R10........

08016f10 <cancfg>:
 8016f10:	00000064 00180006 00000000 00000000     d...............
 8016f20:	636e6143 70206d6f 65636f72 00007373     Cancom process..
 8016f30:	004e4143 00000000 00000000 00000000     CAN.............
 8016f40:	204e4143 74617473 00007375 00000000     CAN status......
 8016f50:	2d425355 69726553 70206c61 65636f72     USB-Serial proce
 8016f60:	00007373 00000000 00000000 00000000     ss..............
 8016f70:	2d425355 69726553 72206c61 00646165     USB-Serial read.
 8016f80:	2d425355 69726553 77206c61 65746972     USB-Serial write
	...

08016fa0 <ep1config>:
 8016fa0:	00000002 00000000 0800dfd1 0800e041     ............A...
 8016fb0:	00400040 20006d98 20006dac 00000002     @.@..m. .m. ....
	...

08016fd0 <ep2config>:
 8016fd0:	00000003 00000000 0800e0b1 00000000     ................
 8016fe0:	00000010 20006dc0 00000000 00000001     .....m. ........
	...

08017000 <serusbcfg>:
 8017000:	20001000 00020101 00000000 00000000     ... ............

08017010 <usbcfg>:
 8017010:	08012ee1 08012eb1 0800df91 00000000     ................

08017020 <vcom_configuration_descriptor>:
 8017020:	00000043 08017030 00000000 00000000     C...0p..........

08017030 <vcom_configuration_descriptor_data>:
 8017030:	00430209 c0000102 00040932 02020100     ..C.....2.......
 8017040:	24050001 05011000 01000124 02022404     ...$....$....$..
 8017050:	00062405 82050701 ff000803 00010409     .$..............
 8017060:	00000a02 01050700 00004002 02810507     .........@......
 8017070:	00000040 00000000 00000000 00000000     @...............

08017080 <vcom_device_descriptor>:
 8017080:	00000012 08017090 00000000 00000000     .....p..........

08017090 <vcom_device_descriptor_data>:
 8017090:	01100112 40000002 57400483 02010200     .......@..@W....
 80170a0:	00000103 00000000 00000000 00000000     ................

080170b0 <vcom_string0>:
 80170b0:	04090304 00000000 00000000 00000000     ................

080170c0 <vcom_string1>:
 80170c0:	00530326 004d0054 00630069 006f0072     &.S.T.M.i.c.r.o.
 80170d0:	006c0065 00630065 00720074 006e006f     e.l.e.c.t.r.o.n.
 80170e0:	00630069 00000073 00000000 00000000     i.c.s...........

080170f0 <vcom_string2>:
 80170f0:	00430338 00690068 00690062 0053004f     8.C.h.i.b.i.O.S.
 8017100:	0052002f 00200054 00690056 00740072     /.R.T. .V.i.r.t.
 8017110:	00610075 0020006c 004f0043 0020004d     u.a.l. .C.O.M. .
 8017120:	006f0050 00740072 00000000 00000000     P.o.r.t.........

08017130 <vcom_string3>:
 8017130:	00330308 00310030 00000000 00000000     ..3.0.1.........

08017140 <vcom_strings>:
 8017140:	00000004 080170b0 00000026 080170c0     .....p..&....p..
 8017150:	00000038 080170f0 00000008 08017130     8....p......0q..

08017160 <flash_addr>:
 8017160:	08000000 08004000 08008000 0800c000     .....@..........
 8017170:	08010000 08020000 08040000 08060000     ................
 8017180:	08080000 080a0000 080c0000 080e0000     ................

08017190 <flash_sector>:
 8017190:	00080000 00180010 00280020 00380030     ........ .(.0.8.
 80171a0:	00480040 00580050 00000000 00000000     @.H.P.X.........
 80171b0:	656d6954 0074756f 00000000 00000000     Timeout.........
 80171c0:	0a0d6425 00000000 63206f74 5f666e6f     %d......to conf_
 80171d0:	656e6567 2e6c6172 203a2063 666e6f63     general.c : conf
 80171e0:	6e65675f 6c617265 6165725f 636d5f64     _general_read_mc
 80171f0:	6e6f635f 75676966 69746172 0a0d6e6f     _configuration..
	...

08017210 <crc16_tab>:
 8017210:	10210000 30632042 50a54084 70e760c6     ..!.B c0.@.P.`.p
 8017220:	91298108 b16ba14a d1adc18c f1efe1ce     ..).J.k.........
 8017230:	02101231 22523273 429452b5 62d672f7     1...s2R".R.B.r.b
 8017240:	83189339 a35ab37b c39cd3bd e3def3ff     9...{.Z.........
 8017250:	34432462 14010420 74c764e6 548544a4     b$C4 ....d.t.D.T
 8017260:	b54ba56a 95098528 f5cfe5ee d58dc5ac     j.K.(...........
 8017270:	26723653 06301611 66f676d7 46b45695     S6r&..0..v.f.V.F
 8017280:	a77ab75b 87389719 e7fef7df c7bcd79d     [.z...8.........
 8017290:	58e548c4 78a76886 18610840 38232802     .H.X.h.x@.a..(#8
 80172a0:	d9edc9cc f9afe98e 99698948 b92ba90a     ........H.i...+.
 80172b0:	4ad45af5 6a967ab7 0a501a71 2a123a33     .Z.J.z.jq.P.3:.*
 80172c0:	cbdcdbfd eb9efbbf 8b589b79 ab1abb3b     ........y.X.;...
 80172d0:	7c876ca6 5cc54ce4 3c032c22 1c410c60     .l.|.L.\",.<`.A.
 80172e0:	fd8fedae ddcdcdec bd0bad2a 9d498d68     ........*...h.I.
 80172f0:	6eb67e97 4ef45ed5 2e323e13 0e701e51     .~.n.^.N.>2.Q.p.
 8017300:	efbeff9f cffcdfdd af3abf1b 8f789f59     ..........:.Y.x.
 8017310:	81a99188 a1ebb1ca c12dd10c e16ff14e     ..........-.N.o.
 8017320:	00a11080 20e330c2 40255004 60677046     .....0. .P%@Fpg`
 8017330:	939883b9 b3daa3fb d31cc33d f35ee37f     ........=.....^.
 8017340:	129002b1 32d222f3 52144235 72566277     .....".25B.RwbVr
 8017350:	a5cbb5ea 858995a8 e54ff56e c50dd52c     ........n.O.,...
 8017360:	24c334e2 048114a0 64477466 44055424     .4.$....ftGd$T.D
 8017370:	b7faa7db 97b88799 f77ee75f d73cc71d     ........_.~...<.
 8017380:	36f226d3 16b00691 76766657 56344615     .&.6....Wfvv.F4V
 8017390:	c96dd94c e92ff90e 89e999c8 a9abb98a     L.m.../.........
 80173a0:	48655844 68277806 08e118c0 28a33882     DXeH.x'h.....8.(
 80173b0:	db5ccb7d fb1eeb3f 9bd88bf9 bb9aabbb     }.\.?...........
 80173c0:	5a544a75 7a166a37 1ad00af1 3a922ab3     uJTZ7j.z.....*.:
 80173d0:	ed0ffd2e cd4ddd6c ad8bbdaa 8dc99de8     ....l.M.........
 80173e0:	6c077c26 4c455c64 2c833ca2 0cc11ce0     &|.ld\EL.<.,....
 80173f0:	ff3eef1f df7ccf5d bfbaaf9b 9ff88fd9     ..>.].|.........
 8017400:	7e366e17 5e744e55 3eb22e93 1ef00ed1     .n6~UNt^...>....
 8017410:	2066724e 00005852 00000000 00000000     Nrf RX..........
 8017420:	2066724e 00005854 00000000 00000000     Nrf TX..........
 8017430:	5f505041 004d5050 00000000 00000000     APP_PPM.........
 8017440:	5f505041 00434441 00000000 00000000     APP_ADC.........
 8017450:	74726175 6d6d6f63 6f727020 73736563     uartcomm process
	...
 8017470:	636e754e 206b7568 00633269 00000000     Nunchuk i2c.....
 8017480:	636e754e 206b7568 7074756f 00007475     Nunchuk output..
 8017490:	4a325b1b 3b305b1b 00004830 20425355     .[2J.[0;0H..USB 
 80174a0:	69726553 72206c61 79646165 0d2e2e2e     Serial ready....
 80174b0:	0d0a0d0a 0000000a 6a6f7250 20746365     ........Project 
 80174c0:	524f203a 2041434f 43444c42 00000a0d     : OROCA BLDC....
 80174d0:	42207962 68436b61 6e614a61 000a0d67     by BakChaJang...
 80174e0:	65746164 32203a20 2f373130 312f3131     date : 2017/11/1
 80174f0:	0d0a0d35 0000000a 00000000 00000000     5...............
 8017500:	43444c42 72657020 69646f69 00000063     BLDC periodic...
 8017510:	6d206f74 206e6961 70203e2d 6f697265     to main -> perio
 8017520:	5f636964 65726874 3a206461 44454c20     dic_thread : LED
 8017530:	696c6220 30206b6e 0d73352e 0000000a      blink 0.5s.....
 8017540:	6365736d 6d69745f 00007265 6d206f74     msec_timer..to m
 8017550:	206e6961 74203e2d 72656d69 7268745f     ain -> timer_thr
 8017560:	0d646165 0000000a 00000000 00000000     ead.............

08017570 <__powf_log2_data>:
 8017570:	79f8f3be 3ff661ec 5b963019 bfdefec6     ...y.a.?.0.[....
 8017580:	4aaf883d 3ff571ed 32d4fca4 bfdb0b68     =..J.q.?...2h...
 8017590:	f0f010b0 3ff49539 0a1fb77b bfd7418b     ....9..?{....A..
 80175a0:	b0b80385 3ff3c995 1a6dcf7b bfd39de9     .......?{.m.....
 80175b0:	0c8864a5 3ff30d19 f3f2b631 bfd01d9b     .d.....?1.......
 80175c0:	7b0b8ea0 3ff25e22 1b3b7af0 bfc97c1d     ...{"^.?.z;..|..
 80175d0:	4a1a343f 3ff1bb4a 93af3c9f bfc2f9e3     ?4.JJ..?.<......
 80175e0:	f08ae5ba 3ff12358 bf788d5c bfb960cb     ....X#.?\.x..`..
 80175f0:	419900a7 3ff0953f b6475fce bfaa6f9d     ...A?..?._G..o..
 8017600:	00000000 3ff00000 00000000 00000000     .......?........
 8017610:	fd9a47ac 3fee608c 9f24f53d 3fb338ca     .G...`.?=.$..8.?
 8017620:	1f026aa0 3feca4b3 543891ba 3fc476a9     .j.....?..8T.v.?
 8017630:	576afce6 3feb2036 4ac4e4d2 3fce840b     ..jW6 .?...J...?
 8017640:	63a1aa2d 3fe9c2d1 f0c6651c 3fd40645     -..c...?.e..E..?
 8017650:	037841ed 3fe886e6 2c1b9ff8 3fd88e9c     .Ax....?...,...?
 8017660:	f5534862 3fe767dc 4eb17bcc 3fdce0a4     bHS..g.?.{.N...?
 8017670:	c9496e0b 3fd27616 a075c67a bfd71969     .nI..v.?z.u.i...
 8017680:	6ca7badd 3fdec70a 48bef6c8 bfe71547     ...l...?...HG...
 8017690:	652ab82b 3ff71547 00000000 00000000     +.*eG..?........
 80176a0:	74727173 00000066 00000000 00000000     sqrtf...........

080176b0 <npio2_hw>:
 80176b0:	3fc90f00 40490f00 4096cb00 40c90f00     ...?..I@...@...@
 80176c0:	40fb5300 4116cb00 412fed00 41490f00     .S.@...A../A..IA
 80176d0:	41623100 417b5300 418a3a00 4196cb00     .1bA.S{A.:.A...A
 80176e0:	41a35c00 41afed00 41bc7e00 41c90f00     .\.A...A.~.A...A
 80176f0:	41d5a000 41e23100 41eec200 41fb5300     ...A.1.A...A.S.A
 8017700:	4203f200 420a3a00 42108300 4216cb00     ...B.:.B...B...B
 8017710:	421d1400 42235c00 4229a500 422fed00     ...B.\#B..)B../B
 8017720:	42363600 423c7e00 4242c700 42490f00     .66B.~<B..BB..IB

08017730 <two_over_pi>:
 8017730:	000000a2 000000f9 00000083 0000006e     ............n...
 8017740:	0000004e 00000044 00000015 00000029     N...D.......)...
 8017750:	000000fc 00000027 00000057 000000d1     ....'...W.......
 8017760:	000000f5 00000034 000000dd 000000c0     ....4...........
 8017770:	000000db 00000062 00000095 00000099     ....b...........
 8017780:	0000003c 00000043 00000090 00000041     <...C.......A...
 8017790:	000000fe 00000051 00000063 000000ab     ....Q...c.......
 80177a0:	000000de 000000bb 000000c5 00000061     ............a...
 80177b0:	000000b7 00000024 0000006e 0000003a     ....$...n...:...
 80177c0:	00000042 0000004d 000000d2 000000e0     B...M...........
 80177d0:	00000006 00000049 0000002e 000000ea     ....I...........
 80177e0:	00000009 000000d1 00000092 0000001c     ................
 80177f0:	000000fe 0000001d 000000eb 0000001c     ................
 8017800:	000000b1 00000029 000000a7 0000003e     ....).......>...
 8017810:	000000e8 00000082 00000035 000000f5     ........5.......
 8017820:	0000002e 000000bb 00000044 00000084     ........D.......
 8017830:	000000e9 0000009c 00000070 00000026     ........p...&...
 8017840:	000000b4 0000005f 0000007e 00000041     ...._...~...A...
 8017850:	00000039 00000091 000000d6 00000039     9...........9...
 8017860:	00000083 00000053 00000039 000000f4     ....S...9.......
 8017870:	0000009c 00000084 0000005f 0000008b     ........_.......
 8017880:	000000bd 000000f9 00000028 0000003b     ........(...;...
 8017890:	0000001f 000000f8 00000097 000000ff     ................
 80178a0:	000000de 00000005 00000098 0000000f     ................
 80178b0:	000000ef 0000002f 00000011 0000008b     ..../...........
 80178c0:	0000005a 0000000a 0000006d 0000001f     Z.......m.......
 80178d0:	0000006d 00000036 0000007e 000000cf     m...6...~.......
 80178e0:	00000027 000000cb 00000009 000000b7     '...............
 80178f0:	0000004f 00000046 0000003f 00000066     O...F...?...f...
 8017900:	0000009e 0000005f 000000ea 0000002d     ...._.......-...
 8017910:	00000075 00000027 000000ba 000000c7     u...'...........
 8017920:	000000eb 000000e5 000000f1 0000007b     ............{...
 8017930:	0000003d 00000007 00000039 000000f7     =.......9.......
 8017940:	0000008a 00000052 00000092 000000ea     ....R...........
 8017950:	0000006b 000000fb 0000005f 000000b1     k......._.......
 8017960:	0000001f 0000008d 0000005d 00000008     ........].......
 8017970:	00000056 00000003 00000030 00000046     V.......0...F...
 8017980:	000000fc 0000007b 0000006b 000000ab     ....{...k.......
 8017990:	000000f0 000000cf 000000bc 00000020     ............ ...
 80179a0:	0000009a 000000f4 00000036 0000001d     ........6.......
 80179b0:	000000a9 000000e3 00000091 00000061     ............a...
 80179c0:	0000005e 000000e6 0000001b 00000008     ^...............
 80179d0:	00000065 00000099 00000085 0000005f     e..........._...
 80179e0:	00000014 000000a0 00000068 00000040     ........h...@...
 80179f0:	0000008d 000000ff 000000d8 00000080     ................
 8017a00:	0000004d 00000073 00000027 00000031     M...s...'...1...
 8017a10:	00000006 00000006 00000015 00000056     ............V...
 8017a20:	000000ca 00000073 000000a8 000000c9     ....s...........
 8017a30:	00000060 000000e2 0000007b 000000c0     `.......{.......
 8017a40:	0000008c 0000006b 00000000 00000000     ....k...........

08017a50 <PIo2>:
 8017a50:	3fc90000 39f00000 37da0000 33a20000     ...?...9...7...3
 8017a60:	2e840000 2b500000 27c20000 22d00000     ......P+...'..."
 8017a70:	1fc40000 1bc60000 17440000 00000000     ..........D.....

08017a80 <init_jk>:
 8017a80:	00000004 00000007 00000009 00000000     ................

08017a90 <__exp2f_data>:
 8017a90:	00000000 3ff00000 d3158574 3fefd9b0     .......?t......?
 8017aa0:	6cf9890f 3fefb558 d0125b51 3fef9301     ...lX..?Q[.....?
 8017ab0:	3c7d517b 3fef72b8 3168b9aa 3fef5487     {Q}<.r.?..h1.T.?
 8017ac0:	6e756238 3fef387a f51fdee1 3fef1e9d     8bunz8.?.......?
 8017ad0:	0a31b715 3fef06fe 373aa9cb 3feef1a7     ..1....?..:7...?
 8017ae0:	4c123422 3feedea6 6061892d 3feece08     "4.L...?-.a`...?
 8017af0:	d5362a27 3feebfda 569d4f82 3feeb42b     '*6....?.O.V+..?
 8017b00:	dd485429 3feeab07 b03a5585 3feea47e     )TH....?.U:.~..?
 8017b10:	667f3bcd 3feea09e e8ec5f74 3fee9f75     .;.f...?t_..u..?
 8017b20:	73eb0187 3feea114 994cce13 3feea589     ...s...?..L....?
 8017b30:	422aa0db 3feeace5 b0cdc5e5 3feeb737     ..*B...?....7..?
 8017b40:	82a3f090 3feec491 b23e255d 3feed503     .......?]%>....?
 8017b50:	995ad3ad 3feee89f f2fb5e47 3feeff76     ..Z....?G^..v..?
 8017b60:	dd85529c 3fef199b dcef9069 3fef3720     .R.....?i... 7.?
 8017b70:	dcfba487 3fef5818 337b9b5f 3fef7c97     .....X.?_.{3.|.?
 8017b80:	a2a490da 3fefa4af 5b6e4540 3fefd076     .......?@En[v..?
 8017b90:	00000000 42e80000 4b912394 3fac6af8     .......B.#.K.j.?
 8017ba0:	50fac4f3 3fcebfce ff0c52d6 3fe62e42     ...P...?.R..B..?
 8017bb0:	00000000 43380000 652b82fe 40471547     ......8C..+eG.G@
 8017bc0:	4b912394 3ebc6af8 50fac4f3 3f2ebfce     .#.K.j.>...P...?
 8017bd0:	ff0c52d6 3f962e42                       .R..B..?
