ARM GAS  C:\Users\USER\AppData\Local\Temp\ccQU2D9U.s 			page 1


   1              		.cpu cortex-m4
   2              		.eabi_attribute 27, 1
   3              		.eabi_attribute 28, 1
   4              		.eabi_attribute 20, 1
   5              		.eabi_attribute 21, 1
   6              		.eabi_attribute 23, 3
   7              		.eabi_attribute 24, 1
   8              		.eabi_attribute 25, 1
   9              		.eabi_attribute 26, 1
  10              		.eabi_attribute 30, 2
  11              		.eabi_attribute 34, 1
  12              		.eabi_attribute 18, 4
  13              		.file	"app.c"
  14              		.text
  15              	.Ltext0:
  16              		.cfi_sections	.debug_frame
  17              		.section	.text.app_get_configuration,"ax",%progbits
  18              		.align	1
  19              		.p2align 4,,15
  20              		.global	app_get_configuration
  21              		.arch armv7e-m
  22              		.syntax unified
  23              		.thumb
  24              		.thumb_func
  25              		.fpu fpv4-sp-d16
  26              		.type	app_get_configuration, %function
  27              	app_get_configuration:
  28              	.LFB257:
  29              		.file 1 "src/app/app.c"
  30              		.loc 1 84 54 view -0
  31              		.cfi_startproc
  32              		@ args = 0, pretend = 0, frame = 0
  33              		@ frame_needed = 0, uses_anonymous_args = 0
  34              		@ link register save eliminated.
  35              		.loc 1 85 2 view .LVU1
  36              		.loc 1 86 1 is_stmt 0 view .LVU2
  37 0000 0048     		ldr	r0, .L3
  38 0002 7047     		bx	lr
  39              	.L4:
  40              		.align	2
  41              	.L3:
  42 0004 00000000 		.word	.LANCHOR0
  43              		.cfi_endproc
  44              	.LFE257:
  45              		.size	app_get_configuration, .-app_get_configuration
  46              		.section	.text.app_set_configuration,"ax",%progbits
  47              		.align	1
  48              		.p2align 4,,15
  49              		.global	app_set_configuration
  50              		.syntax unified
  51              		.thumb
  52              		.thumb_func
  53              		.fpu fpv4-sp-d16
  54              		.type	app_set_configuration, %function
  55              	app_set_configuration:
  56              	.LVL0:
  57              	.LFB258:
ARM GAS  C:\Users\USER\AppData\Local\Temp\ccQU2D9U.s 			page 2


  58              		.loc 1 95 53 is_stmt 1 view -0
  59              		.cfi_startproc
  60              		@ args = 0, pretend = 0, frame = 0
  61              		@ frame_needed = 0, uses_anonymous_args = 0
  62              		.loc 1 96 2 view .LVU4
  63              		.loc 1 95 53 is_stmt 0 view .LVU5
  64 0000 10B5     		push	{r4, lr}
  65              		.cfi_def_cfa_offset 8
  66              		.cfi_offset 4, -8
  67              		.cfi_offset 14, -4
  68              		.loc 1 96 10 view .LVU6
  69 0002 0D4C     		ldr	r4, .L7
  70 0004 0146     		mov	r1, r0
  71 0006 A022     		movs	r2, #160
  72 0008 2046     		mov	r0, r4
  73              	.LVL1:
  74              		.loc 1 96 10 view .LVU7
  75 000a FFF7FEFF 		bl	memcpy
  76              	.LVL2:
  77              		.loc 1 97 2 is_stmt 1 view .LVU8
  78 000e 04F11800 		add	r0, r4, #24
  79 0012 FFF7FEFF 		bl	app_ppm_configure
  80              	.LVL3:
  81              		.loc 1 98 2 view .LVU9
  82 0016 04F14000 		add	r0, r4, #64
  83 001a FFF7FEFF 		bl	app_adc_configure
  84              	.LVL4:
  85              		.loc 1 99 2 view .LVU10
  86 001e E06E     		ldr	r0, [r4, #108]
  87 0020 FFF7FEFF 		bl	app_uartcomm_configure
  88              	.LVL5:
  89              		.loc 1 100 2 view .LVU11
  90 0024 04F17000 		add	r0, r4, #112
  91 0028 FFF7FEFF 		bl	app_nunchuk_configure
  92              	.LVL6:
  93              		.loc 1 101 2 view .LVU12
  94 002c 04F19400 		add	r0, r4, #148
  95              		.loc 1 102 1 is_stmt 0 view .LVU13
  96 0030 BDE81040 		pop	{r4, lr}
  97              		.cfi_restore 14
  98              		.cfi_restore 4
  99              		.cfi_def_cfa_offset 0
 100              		.loc 1 101 2 view .LVU14
 101 0034 FFF7FEBF 		b	rfhelp_update_conf
 102              	.LVL7:
 103              	.L8:
 104              		.align	2
 105              	.L7:
 106 0038 00000000 		.word	.LANCHOR0
 107              		.cfi_endproc
 108              	.LFE258:
 109              		.size	app_set_configuration, .-app_set_configuration
 110              		.section	.text.app_init,"ax",%progbits
 111              		.align	1
 112              		.p2align 4,,15
 113              		.global	app_init
 114              		.syntax unified
ARM GAS  C:\Users\USER\AppData\Local\Temp\ccQU2D9U.s 			page 3


 115              		.thumb
 116              		.thumb_func
 117              		.fpu fpv4-sp-d16
 118              		.type	app_init, %function
 119              	app_init:
 120              	.LVL8:
 121              	.LFB256:
 122              		.loc 1 34 40 is_stmt 1 view -0
 123              		.cfi_startproc
 124              		@ args = 0, pretend = 0, frame = 0
 125              		@ frame_needed = 0, uses_anonymous_args = 0
 126              		.loc 1 35 2 view .LVU16
 127              		.loc 1 34 40 is_stmt 0 view .LVU17
 128 0000 08B5     		push	{r3, lr}
 129              		.cfi_def_cfa_offset 8
 130              		.cfi_offset 3, -8
 131              		.cfi_offset 14, -4
 132              		.loc 1 35 2 view .LVU18
 133 0002 FFF7FEFF 		bl	app_set_configuration
 134              	.LVL9:
 135              		.loc 1 37 2 is_stmt 1 view .LVU19
 136              		.loc 1 37 17 is_stmt 0 view .LVU20
 137 0006 1B4B     		ldr	r3, .L20
 138              		.loc 1 37 2 view .LVU21
 139 0008 1B7D     		ldrb	r3, [r3, #20]	@ zero_extendqisi2
 140 000a 013B     		subs	r3, r3, #1
 141 000c 062B     		cmp	r3, #6
 142 000e 2FD8     		bhi	.L9
 143 0010 DFE803F0 		tbb	[pc, r3]
 144              	.L12:
 145 0014 0A       		.byte	(.L18-.L12)/2
 146 0015 0E       		.byte	(.L17-.L12)/2
 147 0016 13       		.byte	(.L16-.L12)/2
 148 0017 19       		.byte	(.L15-.L12)/2
 149 0018 21       		.byte	(.L14-.L12)/2
 150 0019 2A       		.byte	(.L13-.L12)/2
 151 001a 04       		.byte	(.L11-.L12)/2
 152 001b 00       		.p2align 1
 153              	.L11:
 154              		.loc 1 68 3 is_stmt 1 view .LVU22
 155 001c FFF7FEFF 		bl	nrf_driver_init
 156              	.LVL10:
 157              		.loc 1 69 3 view .LVU23
 158              		.loc 1 82 1 is_stmt 0 view .LVU24
 159 0020 BDE80840 		pop	{r3, lr}
 160              		.cfi_remember_state
 161              		.cfi_restore 14
 162              		.cfi_restore 3
 163              		.cfi_def_cfa_offset 0
 164              		.loc 1 69 3 view .LVU25
 165 0024 FFF7FEBF 		b	rfhelp_restart
 166              	.LVL11:
 167              	.L18:
 168              		.cfi_restore_state
 169              		.loc 1 39 3 is_stmt 1 view .LVU26
 170              		.loc 1 82 1 is_stmt 0 view .LVU27
 171 0028 BDE80840 		pop	{r3, lr}
ARM GAS  C:\Users\USER\AppData\Local\Temp\ccQU2D9U.s 			page 4


 172              		.cfi_remember_state
 173              		.cfi_restore 14
 174              		.cfi_restore 3
 175              		.cfi_def_cfa_offset 0
 176              		.loc 1 39 3 view .LVU28
 177 002c FFF7FEBF 		b	app_ppm_start
 178              	.LVL12:
 179              	.L17:
 180              		.cfi_restore_state
 181              		.loc 1 43 3 is_stmt 1 view .LVU29
 182 0030 0120     		movs	r0, #1
 183              		.loc 1 82 1 is_stmt 0 view .LVU30
 184 0032 BDE80840 		pop	{r3, lr}
 185              		.cfi_remember_state
 186              		.cfi_restore 14
 187              		.cfi_restore 3
 188              		.cfi_def_cfa_offset 0
 189              		.loc 1 43 3 view .LVU31
 190 0036 FFF7FEBF 		b	app_adc_start
 191              	.LVL13:
 192              	.L16:
 193              		.cfi_restore_state
 194              		.loc 1 47 3 is_stmt 1 view .LVU32
 195 003a FFF7FEFF 		bl	hw_stop_i2c
 196              	.LVL14:
 197              		.loc 1 48 3 view .LVU33
 198              		.loc 1 82 1 is_stmt 0 view .LVU34
 199 003e BDE80840 		pop	{r3, lr}
 200              		.cfi_remember_state
 201              		.cfi_restore 14
 202              		.cfi_restore 3
 203              		.cfi_def_cfa_offset 0
 204              		.loc 1 48 3 view .LVU35
 205 0042 FFF7FEBF 		b	app_uartcomm_start
 206              	.LVL15:
 207              	.L15:
 208              		.cfi_restore_state
 209              		.loc 1 52 3 is_stmt 1 view .LVU36
 210 0046 FFF7FEFF 		bl	hw_stop_i2c
 211              	.LVL16:
 212              		.loc 1 53 3 view .LVU37
 213 004a FFF7FEFF 		bl	app_ppm_start
 214              	.LVL17:
 215              		.loc 1 54 3 view .LVU38
 216              		.loc 1 82 1 is_stmt 0 view .LVU39
 217 004e BDE80840 		pop	{r3, lr}
 218              		.cfi_remember_state
 219              		.cfi_restore 14
 220              		.cfi_restore 3
 221              		.cfi_def_cfa_offset 0
 222              		.loc 1 54 3 view .LVU40
 223 0052 FFF7FEBF 		b	app_uartcomm_start
 224              	.LVL18:
 225              	.L14:
 226              		.cfi_restore_state
 227              		.loc 1 58 3 is_stmt 1 view .LVU41
 228 0056 FFF7FEFF 		bl	hw_stop_i2c
ARM GAS  C:\Users\USER\AppData\Local\Temp\ccQU2D9U.s 			page 5


 229              	.LVL19:
 230              		.loc 1 59 3 view .LVU42
 231 005a 0020     		movs	r0, #0
 232 005c FFF7FEFF 		bl	app_adc_start
 233              	.LVL20:
 234              		.loc 1 60 3 view .LVU43
 235              		.loc 1 82 1 is_stmt 0 view .LVU44
 236 0060 BDE80840 		pop	{r3, lr}
 237              		.cfi_remember_state
 238              		.cfi_restore 14
 239              		.cfi_restore 3
 240              		.cfi_def_cfa_offset 0
 241              		.loc 1 60 3 view .LVU45
 242 0064 FFF7FEBF 		b	app_uartcomm_start
 243              	.LVL21:
 244              	.L13:
 245              		.cfi_restore_state
 246              		.loc 1 64 3 is_stmt 1 view .LVU46
 247              		.loc 1 82 1 is_stmt 0 view .LVU47
 248 0068 BDE80840 		pop	{r3, lr}
 249              		.cfi_restore 14
 250              		.cfi_restore 3
 251              		.cfi_def_cfa_offset 0
 252              		.loc 1 64 3 view .LVU48
 253 006c FFF7FEBF 		b	app_nunchuk_start
 254              	.LVL22:
 255              	.L9:
 256              		.loc 1 82 1 view .LVU49
 257 0070 08BD     		pop	{r3, pc}
 258              	.L21:
 259 0072 00BF     		.align	2
 260              	.L20:
 261 0074 00000000 		.word	.LANCHOR0
 262              		.cfi_endproc
 263              	.LFE256:
 264              		.size	app_init, .-app_init
 265              		.section	.bss.appconf,"aw",%nobits
 266              		.align	2
 267              		.set	.LANCHOR0,. + 0
 268              		.type	appconf, %object
 269              		.size	appconf, 160
 270              	appconf:
 271 0000 00000000 		.space	160
 271      00000000 
 271      00000000 
 271      00000000 
 271      00000000 
 272              		.text
 273              	.Letext0:
 274              		.file 2 "c:\\program files (x86)\\gnu tools arm embedded\\8 2018-q4-major\\arm-none-eabi\\include\
 275              		.file 3 "c:\\program files (x86)\\gnu tools arm embedded\\8 2018-q4-major\\arm-none-eabi\\include\
 276              		.file 4 "src/core/rf.h"
 277              		.file 5 "src/app/app.h"
 278              		.file 6 "c:\\program files (x86)\\gnu tools arm embedded\\8 2018-q4-major\\lib\\gcc\\arm-none-eabi
 279              		.file 7 "src/ChibiOS_3.0.2/os/rt/ports/ARMCMx/compilers/GCC/chtypes.h"
 280              		.file 8 "src/ChibiOS_3.0.2/os/rt/include/chsystypes.h"
 281              		.file 9 "src/ChibiOS_3.0.2/os/rt/include/chschd.h"
ARM GAS  C:\Users\USER\AppData\Local\Temp\ccQU2D9U.s 			page 6


 282              		.file 10 "src/ChibiOS_3.0.2/os/ext/CMSIS/include/core_cm4.h"
 283              		.file 11 "src/ChibiOS_3.0.2/os/ext/CMSIS/ST/system_stm32f4xx.h"
 284              		.file 12 "src/ChibiOS_3.0.2/os/ext/CMSIS/ST/stm32f407xx.h"
 285              		.file 13 "src/ChibiOS_3.0.2/os/rt/ports/ARMCMx/chcore.h"
 286              		.file 14 "src/ChibiOS_3.0.2/os/rt/ports/ARMCMx/chcore_v7m.h"
 287              		.file 15 "src/ChibiOS_3.0.2/os/rt/include/chtm.h"
 288              		.file 16 "src/ChibiOS_3.0.2/os/rt/include/chsem.h"
 289              		.file 17 "src/ChibiOS_3.0.2/os/rt/include/chmtx.h"
 290              		.file 18 "src/ChibiOS_3.0.2/os/rt/include/chregistry.h"
 291              		.file 19 "src/ChibiOS_3.0.2/os/rt/include/chevents.h"
 292              		.file 20 "src/ChibiOS_3.0.2/os/rt/include/chqueues.h"
 293              		.file 21 "src/ChibiOS_3.0.2/os/hal/ports/STM32/STM32F4xx/stm32_dma.h"
 294              		.file 22 "src/ChibiOS_3.0.2/os/hal/ports/STM32/LLD/GPIOv2/pal_lld.h"
 295              		.file 23 "src/ChibiOS_3.0.2/os/hal/include/can.h"
 296              		.file 24 "src/ChibiOS_3.0.2/os/hal/ports/STM32/LLD/can_lld.h"
 297              		.file 25 "src/ChibiOS_3.0.2/os/hal/include/i2c.h"
 298              		.file 26 "src/ChibiOS_3.0.2/os/hal/ports/STM32/LLD/I2Cv1/i2c_lld.h"
 299              		.file 27 "src/ChibiOS_3.0.2/os/hal/include/icu.h"
 300              		.file 28 "src/ChibiOS_3.0.2/os/hal/ports/STM32/LLD/TIMv1/icu_lld.h"
 301              		.file 29 "src/ChibiOS_3.0.2/os/hal/ports/STM32/LLD/TIMv1/stm32_tim.h"
 302              		.file 30 "src/ChibiOS_3.0.2/os/hal/include/serial.h"
 303              		.file 31 "src/ChibiOS_3.0.2/os/hal/ports/STM32/LLD/USARTv1/serial_lld.h"
 304              		.file 32 "src/ChibiOS_3.0.2/os/hal/include/spi.h"
 305              		.file 33 "src/ChibiOS_3.0.2/os/hal/ports/STM32/LLD/SPIv1/spi_lld.h"
 306              		.file 34 "src/ChibiOS_3.0.2/os/hal/include/uart.h"
 307              		.file 35 "src/ChibiOS_3.0.2/os/hal/ports/STM32/LLD/USARTv1/uart_lld.h"
 308              		.file 36 "src/ChibiOS_3.0.2/os/hal/include/usb.h"
 309              		.file 37 "src/ChibiOS_3.0.2/os/hal/ports/STM32/LLD/OTGv1/usb_lld.h"
 310              		.file 38 "src/ChibiOS_3.0.2/os/hal/ports/STM32/LLD/OTGv1/stm32_otg.h"
 311              		.file 39 "src/hw_oroca.h"
 312              		.file 40 "src/core/rfhelp.h"
 313              		.file 41 "src/core/nrf_driver.h"
 314              		.file 42 "src/hw.h"
 315              		.file 43 "<built-in>"