ARM GAS  C:\Users\IDONNO~1\AppData\Local\Temp\ccniybLG.s 			page 1


   1              		.syntax unified
   2              		.cpu cortex-m4
   3              		.eabi_attribute 27, 1
   4              		.eabi_attribute 28, 1
   5              		.fpu fpv4-sp-d16
   6              		.eabi_attribute 20, 1
   7              		.eabi_attribute 21, 1
   8              		.eabi_attribute 23, 3
   9              		.eabi_attribute 24, 1
  10              		.eabi_attribute 25, 1
  11              		.eabi_attribute 26, 1
  12              		.eabi_attribute 30, 2
  13              		.eabi_attribute 34, 1
  14              		.eabi_attribute 18, 4
  15              		.thumb
  16              		.syntax unified
  17              		.file	"app.c"
  18              		.text
  19              	.Ltext0:
  20              		.cfi_sections	.debug_frame
  21              		.section	.text.app_get_configuration,"ax",%progbits
  22              		.align	2
  23              		.p2align 4,,15
  24              		.global	app_get_configuration
  25              		.thumb
  26              		.thumb_func
  27              		.type	app_get_configuration, %function
  28              	app_get_configuration:
  29              	.LFB257:
  30              		.file 1 "src/app/app.c"
  31              		.loc 1 84 0
  32              		.cfi_startproc
  33              		@ args = 0, pretend = 0, frame = 0
  34              		@ frame_needed = 0, uses_anonymous_args = 0
  35              		@ link register save eliminated.
  36              		.loc 1 86 0
  37 0000 0048     		ldr	r0, .L2
  38 0002 7047     		bx	lr
  39              	.L3:
  40              		.align	2
  41              	.L2:
  42 0004 00000000 		.word	.LANCHOR0
  43              		.cfi_endproc
  44              	.LFE257:
  45              		.size	app_get_configuration, .-app_get_configuration
  46              		.section	.text.app_set_configuration,"ax",%progbits
  47              		.align	2
  48              		.p2align 4,,15
  49              		.global	app_set_configuration
  50              		.thumb
  51              		.thumb_func
  52              		.type	app_set_configuration, %function
  53              	app_set_configuration:
  54              	.LFB258:
  55              		.loc 1 95 0
  56              		.cfi_startproc
  57              		@ args = 0, pretend = 0, frame = 0
ARM GAS  C:\Users\IDONNO~1\AppData\Local\Temp\ccniybLG.s 			page 2


  58              		@ frame_needed = 0, uses_anonymous_args = 0
  59              	.LVL0:
  60 0000 10B5     		push	{r4, lr}
  61              		.cfi_def_cfa_offset 8
  62              		.cfi_offset 4, -8
  63              		.cfi_offset 14, -4
  64              		.loc 1 96 0
  65 0002 0D4C     		ldr	r4, .L6
  66 0004 0146     		mov	r1, r0
  67 0006 A022     		movs	r2, #160
  68 0008 2046     		mov	r0, r4
  69              	.LVL1:
  70 000a FFF7FEFF 		bl	memcpy
  71              	.LVL2:
  72              		.loc 1 97 0
  73 000e 04F11800 		add	r0, r4, #24
  74 0012 FFF7FEFF 		bl	app_ppm_configure
  75              	.LVL3:
  76              		.loc 1 98 0
  77 0016 04F14000 		add	r0, r4, #64
  78 001a FFF7FEFF 		bl	app_adc_configure
  79              	.LVL4:
  80              		.loc 1 99 0
  81 001e E06E     		ldr	r0, [r4, #108]
  82 0020 FFF7FEFF 		bl	app_uartcomm_configure
  83              	.LVL5:
  84              		.loc 1 100 0
  85 0024 04F17000 		add	r0, r4, #112
  86 0028 FFF7FEFF 		bl	app_nunchuk_configure
  87              	.LVL6:
  88              		.loc 1 101 0
  89 002c 04F19400 		add	r0, r4, #148
  90              		.loc 1 102 0
  91 0030 BDE81040 		pop	{r4, lr}
  92              		.cfi_restore 14
  93              		.cfi_restore 4
  94              		.cfi_def_cfa_offset 0
  95              		.loc 1 101 0
  96 0034 FFF7FEBF 		b	rfhelp_update_conf
  97              	.LVL7:
  98              	.L7:
  99              		.align	2
 100              	.L6:
 101 0038 00000000 		.word	.LANCHOR0
 102              		.cfi_endproc
 103              	.LFE258:
 104              		.size	app_set_configuration, .-app_set_configuration
 105              		.section	.text.app_init,"ax",%progbits
 106              		.align	2
 107              		.p2align 4,,15
 108              		.global	app_init
 109              		.thumb
 110              		.thumb_func
 111              		.type	app_init, %function
 112              	app_init:
 113              	.LFB256:
 114              		.loc 1 34 0
ARM GAS  C:\Users\IDONNO~1\AppData\Local\Temp\ccniybLG.s 			page 3


 115              		.cfi_startproc
 116              		@ args = 0, pretend = 0, frame = 0
 117              		@ frame_needed = 0, uses_anonymous_args = 0
 118              	.LVL8:
 119 0000 08B5     		push	{r3, lr}
 120              		.cfi_def_cfa_offset 8
 121              		.cfi_offset 3, -8
 122              		.cfi_offset 14, -4
 123              		.loc 1 35 0
 124 0002 FFF7FEFF 		bl	app_set_configuration
 125              	.LVL9:
 126              		.loc 1 37 0
 127 0006 1B4B     		ldr	r3, .L20
 128 0008 1B7D     		ldrb	r3, [r3, #20]	@ zero_extendqisi2
 129 000a 013B     		subs	r3, r3, #1
 130 000c 062B     		cmp	r3, #6
 131 000e 2FD8     		bhi	.L8
 132 0010 DFE803F0 		tbb	[pc, r3]
 133              	.L11:
 134 0014 0A       		.byte	(.L10-.L11)/2
 135 0015 0E       		.byte	(.L12-.L11)/2
 136 0016 13       		.byte	(.L13-.L11)/2
 137 0017 19       		.byte	(.L14-.L11)/2
 138 0018 21       		.byte	(.L15-.L11)/2
 139 0019 2A       		.byte	(.L16-.L11)/2
 140 001a 04       		.byte	(.L17-.L11)/2
 141 001b 00       		.p2align 1
 142              	.L17:
 143              		.loc 1 68 0
 144 001c FFF7FEFF 		bl	nrf_driver_init
 145              	.LVL10:
 146              		.loc 1 82 0
 147 0020 BDE80840 		pop	{r3, lr}
 148              		.cfi_remember_state
 149              		.cfi_restore 14
 150              		.cfi_restore 3
 151              		.cfi_def_cfa_offset 0
 152              		.loc 1 69 0
 153 0024 FFF7FEBF 		b	rfhelp_restart
 154              	.LVL11:
 155              	.L10:
 156              		.cfi_restore_state
 157              		.loc 1 82 0
 158 0028 BDE80840 		pop	{r3, lr}
 159              		.cfi_remember_state
 160              		.cfi_restore 14
 161              		.cfi_restore 3
 162              		.cfi_def_cfa_offset 0
 163              		.loc 1 39 0
 164 002c FFF7FEBF 		b	app_ppm_start
 165              	.LVL12:
 166              	.L12:
 167              		.cfi_restore_state
 168              		.loc 1 43 0
 169 0030 0120     		movs	r0, #1
 170              		.loc 1 82 0
 171 0032 BDE80840 		pop	{r3, lr}
ARM GAS  C:\Users\IDONNO~1\AppData\Local\Temp\ccniybLG.s 			page 4


 172              		.cfi_remember_state
 173              		.cfi_restore 14
 174              		.cfi_restore 3
 175              		.cfi_def_cfa_offset 0
 176              		.loc 1 43 0
 177 0036 FFF7FEBF 		b	app_adc_start
 178              	.LVL13:
 179              	.L13:
 180              		.cfi_restore_state
 181              		.loc 1 47 0
 182 003a FFF7FEFF 		bl	hw_stop_i2c
 183              	.LVL14:
 184              		.loc 1 82 0
 185 003e BDE80840 		pop	{r3, lr}
 186              		.cfi_remember_state
 187              		.cfi_restore 14
 188              		.cfi_restore 3
 189              		.cfi_def_cfa_offset 0
 190              		.loc 1 48 0
 191 0042 FFF7FEBF 		b	app_uartcomm_start
 192              	.LVL15:
 193              	.L14:
 194              		.cfi_restore_state
 195              		.loc 1 52 0
 196 0046 FFF7FEFF 		bl	hw_stop_i2c
 197              	.LVL16:
 198              		.loc 1 53 0
 199 004a FFF7FEFF 		bl	app_ppm_start
 200              	.LVL17:
 201              		.loc 1 82 0
 202 004e BDE80840 		pop	{r3, lr}
 203              		.cfi_remember_state
 204              		.cfi_restore 14
 205              		.cfi_restore 3
 206              		.cfi_def_cfa_offset 0
 207              		.loc 1 54 0
 208 0052 FFF7FEBF 		b	app_uartcomm_start
 209              	.LVL18:
 210              	.L15:
 211              		.cfi_restore_state
 212              		.loc 1 58 0
 213 0056 FFF7FEFF 		bl	hw_stop_i2c
 214              	.LVL19:
 215              		.loc 1 59 0
 216 005a 0020     		movs	r0, #0
 217 005c FFF7FEFF 		bl	app_adc_start
 218              	.LVL20:
 219              		.loc 1 82 0
 220 0060 BDE80840 		pop	{r3, lr}
 221              		.cfi_remember_state
 222              		.cfi_restore 14
 223              		.cfi_restore 3
 224              		.cfi_def_cfa_offset 0
 225              		.loc 1 60 0
 226 0064 FFF7FEBF 		b	app_uartcomm_start
 227              	.LVL21:
 228              	.L16:
ARM GAS  C:\Users\IDONNO~1\AppData\Local\Temp\ccniybLG.s 			page 5


 229              		.cfi_restore_state
 230              		.loc 1 82 0
 231 0068 BDE80840 		pop	{r3, lr}
 232              		.cfi_restore 14
 233              		.cfi_restore 3
 234              		.cfi_def_cfa_offset 0
 235              		.loc 1 64 0
 236 006c FFF7FEBF 		b	app_nunchuk_start
 237              	.LVL22:
 238              	.L8:
 239 0070 08BD     		pop	{r3, pc}
 240              	.L21:
 241 0072 00BF     		.align	2
 242              	.L20:
 243 0074 00000000 		.word	.LANCHOR0
 244              		.cfi_endproc
 245              	.LFE256:
 246              		.size	app_init, .-app_init
 247              		.section	.bss.appconf,"aw",%nobits
 248              		.align	2
 249              		.set	.LANCHOR0,. + 0
 250              		.type	appconf, %object
 251              		.size	appconf, 160
 252              	appconf:
 253 0000 00000000 		.space	160
 253      00000000 
 253      00000000 
 253      00000000 
 253      00000000 
 254              		.text
 255              	.Letext0:
 256              		.file 2 "c:\\program files (x86)\\gnu tools arm embedded\\5.4 2016q3\\arm-none-eabi\\include\\mach
 257              		.file 3 "c:\\program files (x86)\\gnu tools arm embedded\\5.4 2016q3\\arm-none-eabi\\include\\sys\
 258              		.file 4 "src/core/rf.h"
 259              		.file 5 "src/app/app.h"
 260              		.file 6 "c:\\program files (x86)\\gnu tools arm embedded\\5.4 2016q3\\lib\\gcc\\arm-none-eabi\\5.4
 261              		.file 7 "src/ChibiOS_3.0.2/os/rt/ports/ARMCMx/compilers/GCC/chtypes.h"
 262              		.file 8 "src/ChibiOS_3.0.2/os/rt/include/chsystypes.h"
 263              		.file 9 "src/ChibiOS_3.0.2/os/rt/include/chschd.h"
 264              		.file 10 "src/ChibiOS_3.0.2/os/rt/ports/ARMCMx/chcore.h"
 265              		.file 11 "src/ChibiOS_3.0.2/os/rt/ports/ARMCMx/chcore_v7m.h"
 266              		.file 12 "src/ChibiOS_3.0.2/os/rt/include/chtm.h"
 267              		.file 13 "src/ChibiOS_3.0.2/os/rt/include/chsem.h"
 268              		.file 14 "src/ChibiOS_3.0.2/os/rt/include/chmtx.h"
 269              		.file 15 "src/core/rfhelp.h"
 270              		.file 16 "src/core/nrf_driver.h"
 271              		.file 17 "src/hw.h"
 272              		.file 18 "src/ChibiOS_3.0.2/os/ext/CMSIS/include/core_cm4.h"
 273              		.section	.debug_info,"",%progbits
 274              	.Ldebug_info0:
 275 0000 7E0E0000 		.4byte	0xe7e
 276 0004 0400     		.2byte	0x4
 277 0006 00000000 		.4byte	.Ldebug_abbrev0
 278 000a 04       		.byte	0x4
 279 000b 01       		.uleb128 0x1
 280 000c 60040000 		.4byte	.LASF232
 281 0010 0C       		.byte	0xc
ARM GAS  C:\Users\IDONNO~1\AppData\Local\Temp\ccniybLG.s 			page 6


 282 0011 EA0D0000 		.4byte	.LASF233
 283 0015 8F050000 		.4byte	.LASF234
 284 0019 00000000 		.4byte	.Ldebug_ranges0+0
 285 001d 00000000 		.4byte	0
 286 0021 00000000 		.4byte	.Ldebug_line0
 287 0025 02       		.uleb128 0x2
 288 0026 01       		.byte	0x1
 289 0027 06       		.byte	0x6
 290 0028 8E0C0000 		.4byte	.LASF0
 291 002c 03       		.uleb128 0x3
 292 002d 570A0000 		.4byte	.LASF4
 293 0031 02       		.byte	0x2
 294 0032 1D       		.byte	0x1d
 295 0033 37000000 		.4byte	0x37
 296 0037 02       		.uleb128 0x2
 297 0038 01       		.byte	0x1
 298 0039 08       		.byte	0x8
 299 003a 5E0B0000 		.4byte	.LASF1
 300 003e 02       		.uleb128 0x2
 301 003f 02       		.byte	0x2
 302 0040 05       		.byte	0x5
 303 0041 82090000 		.4byte	.LASF2
 304 0045 02       		.uleb128 0x2
 305 0046 02       		.byte	0x2
 306 0047 07       		.byte	0x7
 307 0048 E2080000 		.4byte	.LASF3
 308 004c 03       		.uleb128 0x3
 309 004d 32010000 		.4byte	.LASF5
 310 0051 02       		.byte	0x2
 311 0052 3F       		.byte	0x3f
 312 0053 57000000 		.4byte	0x57
 313 0057 02       		.uleb128 0x2
 314 0058 04       		.byte	0x4
 315 0059 05       		.byte	0x5
 316 005a BB090000 		.4byte	.LASF6
 317 005e 03       		.uleb128 0x3
 318 005f 8A0B0000 		.4byte	.LASF7
 319 0063 02       		.byte	0x2
 320 0064 41       		.byte	0x41
 321 0065 69000000 		.4byte	0x69
 322 0069 02       		.uleb128 0x2
 323 006a 04       		.byte	0x4
 324 006b 07       		.byte	0x7
 325 006c C80A0000 		.4byte	.LASF8
 326 0070 02       		.uleb128 0x2
 327 0071 08       		.byte	0x8
 328 0072 05       		.byte	0x5
 329 0073 A6060000 		.4byte	.LASF9
 330 0077 03       		.uleb128 0x3
 331 0078 DC050000 		.4byte	.LASF10
 332 007c 02       		.byte	0x2
 333 007d 5B       		.byte	0x5b
 334 007e 82000000 		.4byte	0x82
 335 0082 02       		.uleb128 0x2
 336 0083 08       		.byte	0x8
 337 0084 07       		.byte	0x7
 338 0085 3C030000 		.4byte	.LASF11
ARM GAS  C:\Users\IDONNO~1\AppData\Local\Temp\ccniybLG.s 			page 7


 339 0089 04       		.uleb128 0x4
 340 008a 04       		.byte	0x4
 341 008b 05       		.byte	0x5
 342 008c 696E7400 		.ascii	"int\000"
 343 0090 02       		.uleb128 0x2
 344 0091 04       		.byte	0x4
 345 0092 07       		.byte	0x7
 346 0093 F4000000 		.4byte	.LASF12
 347 0097 03       		.uleb128 0x3
 348 0098 59060000 		.4byte	.LASF13
 349 009c 03       		.byte	0x3
 350 009d 18       		.byte	0x18
 351 009e 2C000000 		.4byte	0x2c
 352 00a2 03       		.uleb128 0x3
 353 00a3 F90A0000 		.4byte	.LASF14
 354 00a7 03       		.byte	0x3
 355 00a8 2C       		.byte	0x2c
 356 00a9 4C000000 		.4byte	0x4c
 357 00ad 03       		.uleb128 0x3
 358 00ae 71020000 		.4byte	.LASF15
 359 00b2 03       		.byte	0x3
 360 00b3 30       		.byte	0x30
 361 00b4 5E000000 		.4byte	0x5e
 362 00b8 03       		.uleb128 0x3
 363 00b9 420A0000 		.4byte	.LASF16
 364 00bd 03       		.byte	0x3
 365 00be 3C       		.byte	0x3c
 366 00bf 77000000 		.4byte	0x77
 367 00c3 05       		.uleb128 0x5
 368 00c4 01       		.byte	0x1
 369 00c5 37000000 		.4byte	0x37
 370 00c9 04       		.byte	0x4
 371 00ca 1B       		.byte	0x1b
 372 00cb E2000000 		.4byte	0xe2
 373 00cf 06       		.uleb128 0x6
 374 00d0 610D0000 		.4byte	.LASF17
 375 00d4 00       		.byte	0
 376 00d5 06       		.uleb128 0x6
 377 00d6 700D0000 		.4byte	.LASF18
 378 00da 01       		.byte	0x1
 379 00db 06       		.uleb128 0x6
 380 00dc 510B0000 		.4byte	.LASF19
 381 00e0 02       		.byte	0x2
 382 00e1 00       		.byte	0
 383 00e2 03       		.uleb128 0x3
 384 00e3 CD0D0000 		.4byte	.LASF20
 385 00e7 04       		.byte	0x4
 386 00e8 1F       		.byte	0x1f
 387 00e9 C3000000 		.4byte	0xc3
 388 00ed 05       		.uleb128 0x5
 389 00ee 01       		.byte	0x1
 390 00ef 37000000 		.4byte	0x37
 391 00f3 04       		.byte	0x4
 392 00f4 21       		.byte	0x21
 393 00f5 12010000 		.4byte	0x112
 394 00f9 06       		.uleb128 0x6
 395 00fa 78010000 		.4byte	.LASF21
ARM GAS  C:\Users\IDONNO~1\AppData\Local\Temp\ccniybLG.s 			page 8


 396 00fe 00       		.byte	0
 397 00ff 06       		.uleb128 0x6
 398 0100 58090000 		.4byte	.LASF22
 399 0104 01       		.byte	0x1
 400 0105 06       		.uleb128 0x6
 401 0106 48090000 		.4byte	.LASF23
 402 010a 02       		.byte	0x2
 403 010b 06       		.uleb128 0x6
 404 010c 090D0000 		.4byte	.LASF24
 405 0110 03       		.byte	0x3
 406 0111 00       		.byte	0
 407 0112 03       		.uleb128 0x3
 408 0113 BE080000 		.4byte	.LASF25
 409 0117 04       		.byte	0x4
 410 0118 26       		.byte	0x26
 411 0119 ED000000 		.4byte	0xed
 412 011d 05       		.uleb128 0x5
 413 011e 01       		.byte	0x1
 414 011f 37000000 		.4byte	0x37
 415 0123 04       		.byte	0x4
 416 0124 2E       		.byte	0x2e
 417 0125 3C010000 		.4byte	0x13c
 418 0129 06       		.uleb128 0x6
 419 012a 27090000 		.4byte	.LASF26
 420 012e 00       		.byte	0
 421 012f 06       		.uleb128 0x6
 422 0130 8D030000 		.4byte	.LASF27
 423 0134 01       		.byte	0x1
 424 0135 06       		.uleb128 0x6
 425 0136 84050000 		.4byte	.LASF28
 426 013a 02       		.byte	0x2
 427 013b 00       		.byte	0
 428 013c 03       		.uleb128 0x3
 429 013d 4D010000 		.4byte	.LASF29
 430 0141 04       		.byte	0x4
 431 0142 32       		.byte	0x32
 432 0143 1D010000 		.4byte	0x11d
 433 0147 05       		.uleb128 0x5
 434 0148 01       		.byte	0x1
 435 0149 37000000 		.4byte	0x37
 436 014d 04       		.byte	0x4
 437 014e 34       		.byte	0x34
 438 014f B4010000 		.4byte	0x1b4
 439 0153 06       		.uleb128 0x6
 440 0154 6F0A0000 		.4byte	.LASF30
 441 0158 00       		.byte	0
 442 0159 06       		.uleb128 0x6
 443 015a 1F0B0000 		.4byte	.LASF31
 444 015e 01       		.byte	0x1
 445 015f 06       		.uleb128 0x6
 446 0160 3C0B0000 		.4byte	.LASF32
 447 0164 02       		.byte	0x2
 448 0165 06       		.uleb128 0x6
 449 0166 FB020000 		.4byte	.LASF33
 450 016a 03       		.byte	0x3
 451 016b 06       		.uleb128 0x6
 452 016c 4B0D0000 		.4byte	.LASF34
ARM GAS  C:\Users\IDONNO~1\AppData\Local\Temp\ccniybLG.s 			page 9


 453 0170 04       		.byte	0x4
 454 0171 06       		.uleb128 0x6
 455 0172 67080000 		.4byte	.LASF35
 456 0176 05       		.byte	0x5
 457 0177 06       		.uleb128 0x6
 458 0178 840A0000 		.4byte	.LASF36
 459 017c 06       		.byte	0x6
 460 017d 06       		.uleb128 0x6
 461 017e 350D0000 		.4byte	.LASF37
 462 0182 07       		.byte	0x7
 463 0183 06       		.uleb128 0x6
 464 0184 BE010000 		.4byte	.LASF38
 465 0188 08       		.byte	0x8
 466 0189 06       		.uleb128 0x6
 467 018a C7020000 		.4byte	.LASF39
 468 018e 09       		.byte	0x9
 469 018f 06       		.uleb128 0x6
 470 0190 13060000 		.4byte	.LASF40
 471 0194 0A       		.byte	0xa
 472 0195 06       		.uleb128 0x6
 473 0196 8F080000 		.4byte	.LASF41
 474 019a 0B       		.byte	0xb
 475 019b 06       		.uleb128 0x6
 476 019c 9A0A0000 		.4byte	.LASF42
 477 01a0 0C       		.byte	0xc
 478 01a1 06       		.uleb128 0x6
 479 01a2 BC0B0000 		.4byte	.LASF43
 480 01a6 0D       		.byte	0xd
 481 01a7 06       		.uleb128 0x6
 482 01a8 D5070000 		.4byte	.LASF44
 483 01ac 0E       		.byte	0xe
 484 01ad 06       		.uleb128 0x6
 485 01ae 62010000 		.4byte	.LASF45
 486 01b2 0F       		.byte	0xf
 487 01b3 00       		.byte	0
 488 01b4 03       		.uleb128 0x3
 489 01b5 53030000 		.4byte	.LASF46
 490 01b9 04       		.byte	0x4
 491 01ba 45       		.byte	0x45
 492 01bb 47010000 		.4byte	0x147
 493 01bf 07       		.uleb128 0x7
 494 01c0 0A       		.byte	0xa
 495 01c1 04       		.byte	0x4
 496 01c2 47       		.byte	0x47
 497 01c3 28020000 		.4byte	0x228
 498 01c7 08       		.uleb128 0x8
 499 01c8 5C010000 		.4byte	.LASF47
 500 01cc 04       		.byte	0x4
 501 01cd 48       		.byte	0x48
 502 01ce E2000000 		.4byte	0xe2
 503 01d2 00       		.byte	0
 504 01d3 08       		.uleb128 0x8
 505 01d4 790C0000 		.4byte	.LASF48
 506 01d8 04       		.byte	0x4
 507 01d9 49       		.byte	0x49
 508 01da 12010000 		.4byte	0x112
 509 01de 01       		.byte	0x1
ARM GAS  C:\Users\IDONNO~1\AppData\Local\Temp\ccniybLG.s 			page 10


 510 01df 08       		.uleb128 0x8
 511 01e0 E4020000 		.4byte	.LASF49
 512 01e4 04       		.byte	0x4
 513 01e5 4A       		.byte	0x4a
 514 01e6 3C010000 		.4byte	0x13c
 515 01ea 02       		.byte	0x2
 516 01eb 08       		.uleb128 0x8
 517 01ec 07060000 		.4byte	.LASF50
 518 01f0 04       		.byte	0x4
 519 01f1 4B       		.byte	0x4b
 520 01f2 B4010000 		.4byte	0x1b4
 521 01f6 03       		.byte	0x3
 522 01f7 08       		.uleb128 0x8
 523 01f8 7F0C0000 		.4byte	.LASF51
 524 01fc 04       		.byte	0x4
 525 01fd 4C       		.byte	0x4c
 526 01fe 37000000 		.4byte	0x37
 527 0202 04       		.byte	0x4
 528 0203 08       		.uleb128 0x8
 529 0204 40090000 		.4byte	.LASF52
 530 0208 04       		.byte	0x4
 531 0209 4D       		.byte	0x4d
 532 020a 37000000 		.4byte	0x37
 533 020e 05       		.byte	0x5
 534 020f 08       		.uleb128 0x8
 535 0210 DA0A0000 		.4byte	.LASF53
 536 0214 04       		.byte	0x4
 537 0215 4E       		.byte	0x4e
 538 0216 28020000 		.4byte	0x228
 539 021a 06       		.byte	0x6
 540 021b 08       		.uleb128 0x8
 541 021c 6C0C0000 		.4byte	.LASF54
 542 0220 04       		.byte	0x4
 543 0221 4F       		.byte	0x4f
 544 0222 3F020000 		.4byte	0x23f
 545 0226 09       		.byte	0x9
 546 0227 00       		.byte	0
 547 0228 09       		.uleb128 0x9
 548 0229 37000000 		.4byte	0x37
 549 022d 38020000 		.4byte	0x238
 550 0231 0A       		.uleb128 0xa
 551 0232 38020000 		.4byte	0x238
 552 0236 02       		.byte	0x2
 553 0237 00       		.byte	0
 554 0238 02       		.uleb128 0x2
 555 0239 04       		.byte	0x4
 556 023a 07       		.byte	0x7
 557 023b B70A0000 		.4byte	.LASF55
 558 023f 02       		.uleb128 0x2
 559 0240 01       		.byte	0x1
 560 0241 02       		.byte	0x2
 561 0242 4A040000 		.4byte	.LASF56
 562 0246 03       		.uleb128 0x3
 563 0247 98030000 		.4byte	.LASF57
 564 024b 04       		.byte	0x4
 565 024c 50       		.byte	0x50
 566 024d BF010000 		.4byte	0x1bf
ARM GAS  C:\Users\IDONNO~1\AppData\Local\Temp\ccniybLG.s 			page 11


 567 0251 05       		.uleb128 0x5
 568 0252 01       		.byte	0x1
 569 0253 37000000 		.4byte	0x37
 570 0257 05       		.byte	0x5
 571 0258 23       		.byte	0x23
 572 0259 94020000 		.4byte	0x294
 573 025d 06       		.uleb128 0x6
 574 025e FD060000 		.4byte	.LASF58
 575 0262 00       		.byte	0
 576 0263 06       		.uleb128 0x6
 577 0264 E2010000 		.4byte	.LASF59
 578 0268 01       		.byte	0x1
 579 0269 06       		.uleb128 0x6
 580 026a 51060000 		.4byte	.LASF60
 581 026e 02       		.byte	0x2
 582 026f 06       		.uleb128 0x6
 583 0270 41040000 		.4byte	.LASF61
 584 0274 03       		.byte	0x3
 585 0275 06       		.uleb128 0x6
 586 0276 F50C0000 		.4byte	.LASF62
 587 027a 04       		.byte	0x4
 588 027b 06       		.uleb128 0x6
 589 027c 75090000 		.4byte	.LASF63
 590 0280 05       		.byte	0x5
 591 0281 06       		.uleb128 0x6
 592 0282 FF090000 		.4byte	.LASF64
 593 0286 06       		.byte	0x6
 594 0287 06       		.uleb128 0x6
 595 0288 58070000 		.4byte	.LASF65
 596 028c 07       		.byte	0x7
 597 028d 06       		.uleb128 0x6
 598 028e 27010000 		.4byte	.LASF66
 599 0292 08       		.byte	0x8
 600 0293 00       		.byte	0
 601 0294 03       		.uleb128 0x3
 602 0295 F3020000 		.4byte	.LASF67
 603 0299 05       		.byte	0x5
 604 029a 2D       		.byte	0x2d
 605 029b 51020000 		.4byte	0x251
 606 029f 05       		.uleb128 0x5
 607 02a0 01       		.byte	0x1
 608 02a1 37000000 		.4byte	0x37
 609 02a5 05       		.byte	0x5
 610 02a6 30       		.byte	0x30
 611 02a7 DC020000 		.4byte	0x2dc
 612 02ab 06       		.uleb128 0x6
 613 02ac C4060000 		.4byte	.LASF68
 614 02b0 00       		.byte	0
 615 02b1 06       		.uleb128 0x6
 616 02b2 5B020000 		.4byte	.LASF69
 617 02b6 01       		.byte	0x1
 618 02b7 06       		.uleb128 0x6
 619 02b8 89010000 		.4byte	.LASF70
 620 02bc 02       		.byte	0x2
 621 02bd 06       		.uleb128 0x6
 622 02be 84060000 		.4byte	.LASF71
 623 02c2 03       		.byte	0x3
ARM GAS  C:\Users\IDONNO~1\AppData\Local\Temp\ccniybLG.s 			page 12


 624 02c3 06       		.uleb128 0x6
 625 02c4 10070000 		.4byte	.LASF72
 626 02c8 04       		.byte	0x4
 627 02c9 06       		.uleb128 0x6
 628 02ca 62030000 		.4byte	.LASF73
 629 02ce 05       		.byte	0x5
 630 02cf 06       		.uleb128 0x6
 631 02d0 AC010000 		.4byte	.LASF74
 632 02d4 06       		.byte	0x6
 633 02d5 06       		.uleb128 0x6
 634 02d6 FA030000 		.4byte	.LASF75
 635 02da 07       		.byte	0x7
 636 02db 00       		.byte	0
 637 02dc 03       		.uleb128 0x3
 638 02dd A00D0000 		.4byte	.LASF76
 639 02e1 05       		.byte	0x5
 640 02e2 39       		.byte	0x39
 641 02e3 9F020000 		.4byte	0x29f
 642 02e7 07       		.uleb128 0x7
 643 02e8 28       		.byte	0x28
 644 02e9 05       		.byte	0x5
 645 02ea 3B       		.byte	0x3b
 646 02eb 7F030000 		.4byte	0x37f
 647 02ef 08       		.uleb128 0x8
 648 02f0 EF0A0000 		.4byte	.LASF77
 649 02f4 05       		.byte	0x5
 650 02f5 3C       		.byte	0x3c
 651 02f6 DC020000 		.4byte	0x2dc
 652 02fa 00       		.byte	0
 653 02fb 08       		.uleb128 0x8
 654 02fc 3B060000 		.4byte	.LASF78
 655 0300 05       		.byte	0x5
 656 0301 3D       		.byte	0x3d
 657 0302 7F030000 		.4byte	0x37f
 658 0306 04       		.byte	0x4
 659 0307 08       		.uleb128 0x8
 660 0308 11030000 		.4byte	.LASF79
 661 030c 05       		.byte	0x5
 662 030d 3E       		.byte	0x3e
 663 030e 7F030000 		.4byte	0x37f
 664 0312 08       		.byte	0x8
 665 0313 08       		.uleb128 0x8
 666 0314 69090000 		.4byte	.LASF80
 667 0318 05       		.byte	0x5
 668 0319 3F       		.byte	0x3f
 669 031a 7F030000 		.4byte	0x37f
 670 031e 0C       		.byte	0xc
 671 031f 08       		.uleb128 0x8
 672 0320 85070000 		.4byte	.LASF81
 673 0324 05       		.byte	0x5
 674 0325 40       		.byte	0x40
 675 0326 7F030000 		.4byte	0x37f
 676 032a 10       		.byte	0x10
 677 032b 08       		.uleb128 0x8
 678 032c A6020000 		.4byte	.LASF82
 679 0330 05       		.byte	0x5
 680 0331 41       		.byte	0x41
ARM GAS  C:\Users\IDONNO~1\AppData\Local\Temp\ccniybLG.s 			page 13


 681 0332 3F020000 		.4byte	0x23f
 682 0336 14       		.byte	0x14
 683 0337 08       		.uleb128 0x8
 684 0338 E9000000 		.4byte	.LASF83
 685 033c 05       		.byte	0x5
 686 033d 42       		.byte	0x42
 687 033e 3F020000 		.4byte	0x23f
 688 0342 15       		.byte	0x15
 689 0343 08       		.uleb128 0x8
 690 0344 1D0C0000 		.4byte	.LASF84
 691 0348 05       		.byte	0x5
 692 0349 43       		.byte	0x43
 693 034a 7F030000 		.4byte	0x37f
 694 034e 18       		.byte	0x18
 695 034f 08       		.uleb128 0x8
 696 0350 2E040000 		.4byte	.LASF85
 697 0354 05       		.byte	0x5
 698 0355 44       		.byte	0x44
 699 0356 7F030000 		.4byte	0x37f
 700 035a 1C       		.byte	0x1c
 701 035b 08       		.uleb128 0x8
 702 035c 3C010000 		.4byte	.LASF86
 703 0360 05       		.byte	0x5
 704 0361 45       		.byte	0x45
 705 0362 3F020000 		.4byte	0x23f
 706 0366 20       		.byte	0x20
 707 0367 0B       		.uleb128 0xb
 708 0368 746300   		.ascii	"tc\000"
 709 036b 05       		.byte	0x5
 710 036c 46       		.byte	0x46
 711 036d 3F020000 		.4byte	0x23f
 712 0371 21       		.byte	0x21
 713 0372 08       		.uleb128 0x8
 714 0373 7E0B0000 		.4byte	.LASF87
 715 0377 05       		.byte	0x5
 716 0378 47       		.byte	0x47
 717 0379 7F030000 		.4byte	0x37f
 718 037d 24       		.byte	0x24
 719 037e 00       		.byte	0
 720 037f 02       		.uleb128 0x2
 721 0380 04       		.byte	0x4
 722 0381 04       		.byte	0x4
 723 0382 ED020000 		.4byte	.LASF88
 724 0386 03       		.uleb128 0x3
 725 0387 A5080000 		.4byte	.LASF89
 726 038b 05       		.byte	0x5
 727 038c 48       		.byte	0x48
 728 038d E7020000 		.4byte	0x2e7
 729 0391 05       		.uleb128 0x5
 730 0392 01       		.byte	0x1
 731 0393 37000000 		.4byte	0x37
 732 0397 05       		.byte	0x5
 733 0398 4B       		.byte	0x4b
 734 0399 DA030000 		.4byte	0x3da
 735 039d 06       		.uleb128 0x6
 736 039e B10D0000 		.4byte	.LASF90
 737 03a2 00       		.byte	0
ARM GAS  C:\Users\IDONNO~1\AppData\Local\Temp\ccniybLG.s 			page 14


 738 03a3 06       		.uleb128 0x6
 739 03a4 D0090000 		.4byte	.LASF91
 740 03a8 01       		.byte	0x1
 741 03a9 06       		.uleb128 0x6
 742 03aa 19080000 		.4byte	.LASF92
 743 03ae 02       		.byte	0x2
 744 03af 06       		.uleb128 0x6
 745 03b0 8F070000 		.4byte	.LASF93
 746 03b4 03       		.byte	0x3
 747 03b5 06       		.uleb128 0x6
 748 03b6 F3010000 		.4byte	.LASF94
 749 03ba 04       		.byte	0x4
 750 03bb 06       		.uleb128 0x6
 751 03bc 1C020000 		.4byte	.LASF95
 752 03c0 05       		.byte	0x5
 753 03c1 06       		.uleb128 0x6
 754 03c2 150A0000 		.4byte	.LASF96
 755 03c6 06       		.byte	0x6
 756 03c7 06       		.uleb128 0x6
 757 03c8 54080000 		.4byte	.LASF97
 758 03cc 07       		.byte	0x7
 759 03cd 06       		.uleb128 0x6
 760 03ce 30000000 		.4byte	.LASF98
 761 03d2 08       		.byte	0x8
 762 03d3 06       		.uleb128 0x6
 763 03d4 B00C0000 		.4byte	.LASF99
 764 03d8 09       		.byte	0x9
 765 03d9 00       		.byte	0
 766 03da 03       		.uleb128 0x3
 767 03db 7A020000 		.4byte	.LASF100
 768 03df 05       		.byte	0x5
 769 03e0 56       		.byte	0x56
 770 03e1 91030000 		.4byte	0x391
 771 03e5 07       		.uleb128 0x7
 772 03e6 2C       		.byte	0x2c
 773 03e7 05       		.byte	0x5
 774 03e8 58       		.byte	0x58
 775 03e9 A1040000 		.4byte	0x4a1
 776 03ed 08       		.uleb128 0x8
 777 03ee EF0A0000 		.4byte	.LASF77
 778 03f2 05       		.byte	0x5
 779 03f3 59       		.byte	0x59
 780 03f4 DA030000 		.4byte	0x3da
 781 03f8 00       		.byte	0
 782 03f9 08       		.uleb128 0x8
 783 03fa 11030000 		.4byte	.LASF79
 784 03fe 05       		.byte	0x5
 785 03ff 5A       		.byte	0x5a
 786 0400 7F030000 		.4byte	0x37f
 787 0404 04       		.byte	0x4
 788 0405 08       		.uleb128 0x8
 789 0406 E7050000 		.4byte	.LASF101
 790 040a 05       		.byte	0x5
 791 040b 5B       		.byte	0x5b
 792 040c 7F030000 		.4byte	0x37f
 793 0410 08       		.byte	0x8
 794 0411 08       		.uleb128 0x8
ARM GAS  C:\Users\IDONNO~1\AppData\Local\Temp\ccniybLG.s 			page 15


 795 0412 7B030000 		.4byte	.LASF102
 796 0416 05       		.byte	0x5
 797 0417 5C       		.byte	0x5c
 798 0418 7F030000 		.4byte	0x37f
 799 041c 0C       		.byte	0xc
 800 041d 08       		.uleb128 0x8
 801 041e D20B0000 		.4byte	.LASF103
 802 0422 05       		.byte	0x5
 803 0423 5D       		.byte	0x5d
 804 0424 3F020000 		.4byte	0x23f
 805 0428 10       		.byte	0x10
 806 0429 08       		.uleb128 0x8
 807 042a E9000000 		.4byte	.LASF83
 808 042e 05       		.byte	0x5
 809 042f 5E       		.byte	0x5e
 810 0430 3F020000 		.4byte	0x23f
 811 0434 11       		.byte	0x11
 812 0435 08       		.uleb128 0x8
 813 0436 C7030000 		.4byte	.LASF104
 814 043a 05       		.byte	0x5
 815 043b 5F       		.byte	0x5f
 816 043c 3F020000 		.4byte	0x23f
 817 0440 12       		.byte	0x12
 818 0441 08       		.uleb128 0x8
 819 0442 71070000 		.4byte	.LASF105
 820 0446 05       		.byte	0x5
 821 0447 60       		.byte	0x60
 822 0448 3F020000 		.4byte	0x23f
 823 044c 13       		.byte	0x13
 824 044d 08       		.uleb128 0x8
 825 044e 03090000 		.4byte	.LASF106
 826 0452 05       		.byte	0x5
 827 0453 61       		.byte	0x61
 828 0454 3F020000 		.4byte	0x23f
 829 0458 14       		.byte	0x14
 830 0459 08       		.uleb128 0x8
 831 045a 1D0C0000 		.4byte	.LASF84
 832 045e 05       		.byte	0x5
 833 045f 62       		.byte	0x62
 834 0460 7F030000 		.4byte	0x37f
 835 0464 18       		.byte	0x18
 836 0465 08       		.uleb128 0x8
 837 0466 2E040000 		.4byte	.LASF85
 838 046a 05       		.byte	0x5
 839 046b 63       		.byte	0x63
 840 046c 7F030000 		.4byte	0x37f
 841 0470 1C       		.byte	0x1c
 842 0471 08       		.uleb128 0x8
 843 0472 3C010000 		.4byte	.LASF86
 844 0476 05       		.byte	0x5
 845 0477 64       		.byte	0x64
 846 0478 3F020000 		.4byte	0x23f
 847 047c 20       		.byte	0x20
 848 047d 0B       		.uleb128 0xb
 849 047e 746300   		.ascii	"tc\000"
 850 0481 05       		.byte	0x5
 851 0482 65       		.byte	0x65
ARM GAS  C:\Users\IDONNO~1\AppData\Local\Temp\ccniybLG.s 			page 16


 852 0483 3F020000 		.4byte	0x23f
 853 0487 21       		.byte	0x21
 854 0488 08       		.uleb128 0x8
 855 0489 7E0B0000 		.4byte	.LASF87
 856 048d 05       		.byte	0x5
 857 048e 66       		.byte	0x66
 858 048f 7F030000 		.4byte	0x37f
 859 0493 24       		.byte	0x24
 860 0494 08       		.uleb128 0x8
 861 0495 3A080000 		.4byte	.LASF107
 862 0499 05       		.byte	0x5
 863 049a 67       		.byte	0x67
 864 049b AD000000 		.4byte	0xad
 865 049f 28       		.byte	0x28
 866 04a0 00       		.byte	0
 867 04a1 03       		.uleb128 0x3
 868 04a2 DF0D0000 		.4byte	.LASF108
 869 04a6 05       		.byte	0x5
 870 04a7 68       		.byte	0x68
 871 04a8 E5030000 		.4byte	0x3e5
 872 04ac 05       		.uleb128 0x5
 873 04ad 01       		.byte	0x1
 874 04ae 37000000 		.4byte	0x37
 875 04b2 05       		.byte	0x5
 876 04b3 6B       		.byte	0x6b
 877 04b4 CB040000 		.4byte	0x4cb
 878 04b8 06       		.uleb128 0x6
 879 04b9 D7060000 		.4byte	.LASF109
 880 04bd 00       		.byte	0
 881 04be 06       		.uleb128 0x6
 882 04bf B8070000 		.4byte	.LASF110
 883 04c3 01       		.byte	0x1
 884 04c4 06       		.uleb128 0x6
 885 04c5 80000000 		.4byte	.LASF111
 886 04c9 02       		.byte	0x2
 887 04ca 00       		.byte	0
 888 04cb 03       		.uleb128 0x3
 889 04cc B5030000 		.4byte	.LASF112
 890 04d0 05       		.byte	0x5
 891 04d1 6F       		.byte	0x6f
 892 04d2 AC040000 		.4byte	0x4ac
 893 04d6 07       		.uleb128 0x7
 894 04d7 24       		.byte	0x24
 895 04d8 05       		.byte	0x5
 896 04d9 71       		.byte	0x71
 897 04da 56050000 		.4byte	0x556
 898 04de 08       		.uleb128 0x8
 899 04df EF0A0000 		.4byte	.LASF77
 900 04e3 05       		.byte	0x5
 901 04e4 72       		.byte	0x72
 902 04e5 CB040000 		.4byte	0x4cb
 903 04e9 00       		.byte	0
 904 04ea 08       		.uleb128 0x8
 905 04eb 11030000 		.4byte	.LASF79
 906 04ef 05       		.byte	0x5
 907 04f0 73       		.byte	0x73
 908 04f1 7F030000 		.4byte	0x37f
ARM GAS  C:\Users\IDONNO~1\AppData\Local\Temp\ccniybLG.s 			page 17


 909 04f5 04       		.byte	0x4
 910 04f6 08       		.uleb128 0x8
 911 04f7 1D0C0000 		.4byte	.LASF84
 912 04fb 05       		.byte	0x5
 913 04fc 74       		.byte	0x74
 914 04fd 7F030000 		.4byte	0x37f
 915 0501 08       		.byte	0x8
 916 0502 08       		.uleb128 0x8
 917 0503 2E040000 		.4byte	.LASF85
 918 0507 05       		.byte	0x5
 919 0508 75       		.byte	0x75
 920 0509 7F030000 		.4byte	0x37f
 921 050d 0C       		.byte	0xc
 922 050e 08       		.uleb128 0x8
 923 050f 12040000 		.4byte	.LASF113
 924 0513 05       		.byte	0x5
 925 0514 76       		.byte	0x76
 926 0515 7F030000 		.4byte	0x37f
 927 0519 10       		.byte	0x10
 928 051a 08       		.uleb128 0x8
 929 051b 8B020000 		.4byte	.LASF114
 930 051f 05       		.byte	0x5
 931 0520 77       		.byte	0x77
 932 0521 7F030000 		.4byte	0x37f
 933 0525 14       		.byte	0x14
 934 0526 08       		.uleb128 0x8
 935 0527 060C0000 		.4byte	.LASF115
 936 052b 05       		.byte	0x5
 937 052c 78       		.byte	0x78
 938 052d 7F030000 		.4byte	0x37f
 939 0531 18       		.byte	0x18
 940 0532 08       		.uleb128 0x8
 941 0533 3C010000 		.4byte	.LASF86
 942 0537 05       		.byte	0x5
 943 0538 79       		.byte	0x79
 944 0539 3F020000 		.4byte	0x23f
 945 053d 1C       		.byte	0x1c
 946 053e 0B       		.uleb128 0xb
 947 053f 746300   		.ascii	"tc\000"
 948 0542 05       		.byte	0x5
 949 0543 7A       		.byte	0x7a
 950 0544 3F020000 		.4byte	0x23f
 951 0548 1D       		.byte	0x1d
 952 0549 08       		.uleb128 0x8
 953 054a 7E0B0000 		.4byte	.LASF87
 954 054e 05       		.byte	0x5
 955 054f 7B       		.byte	0x7b
 956 0550 7F030000 		.4byte	0x37f
 957 0554 20       		.byte	0x20
 958 0555 00       		.byte	0
 959 0556 03       		.uleb128 0x3
 960 0557 DD0B0000 		.4byte	.LASF116
 961 055b 05       		.byte	0x5
 962 055c 7C       		.byte	0x7c
 963 055d D6040000 		.4byte	0x4d6
 964 0561 07       		.uleb128 0x7
 965 0562 A0       		.byte	0xa0
ARM GAS  C:\Users\IDONNO~1\AppData\Local\Temp\ccniybLG.s 			page 18


 966 0563 05       		.byte	0x5
 967 0564 80       		.byte	0x80
 968 0565 EE050000 		.4byte	0x5ee
 969 0569 08       		.uleb128 0x8
 970 056a 23070000 		.4byte	.LASF117
 971 056e 05       		.byte	0x5
 972 056f 82       		.byte	0x82
 973 0570 97000000 		.4byte	0x97
 974 0574 00       		.byte	0
 975 0575 08       		.uleb128 0x8
 976 0576 CF050000 		.4byte	.LASF118
 977 057a 05       		.byte	0x5
 978 057b 83       		.byte	0x83
 979 057c AD000000 		.4byte	0xad
 980 0580 04       		.byte	0x4
 981 0581 08       		.uleb128 0x8
 982 0582 560C0000 		.4byte	.LASF119
 983 0586 05       		.byte	0x5
 984 0587 84       		.byte	0x84
 985 0588 7F030000 		.4byte	0x37f
 986 058c 08       		.byte	0x8
 987 058d 08       		.uleb128 0x8
 988 058e 20000000 		.4byte	.LASF120
 989 0592 05       		.byte	0x5
 990 0593 85       		.byte	0x85
 991 0594 3F020000 		.4byte	0x23f
 992 0598 0C       		.byte	0xc
 993 0599 08       		.uleb128 0x8
 994 059a 31070000 		.4byte	.LASF121
 995 059e 05       		.byte	0x5
 996 059f 86       		.byte	0x86
 997 05a0 AD000000 		.4byte	0xad
 998 05a4 10       		.byte	0x10
 999 05a5 08       		.uleb128 0x8
 1000 05a6 F5050000 		.4byte	.LASF122
 1001 05aa 05       		.byte	0x5
 1002 05ab 89       		.byte	0x89
 1003 05ac 94020000 		.4byte	0x294
 1004 05b0 14       		.byte	0x14
 1005 05b1 08       		.uleb128 0x8
 1006 05b2 01010000 		.4byte	.LASF123
 1007 05b6 05       		.byte	0x5
 1008 05b7 8C       		.byte	0x8c
 1009 05b8 86030000 		.4byte	0x386
 1010 05bc 18       		.byte	0x18
 1011 05bd 08       		.uleb128 0x8
 1012 05be 180D0000 		.4byte	.LASF124
 1013 05c2 05       		.byte	0x5
 1014 05c3 8F       		.byte	0x8f
 1015 05c4 A1040000 		.4byte	0x4a1
 1016 05c8 40       		.byte	0x40
 1017 05c9 08       		.uleb128 0x8
 1018 05ca 6C0B0000 		.4byte	.LASF125
 1019 05ce 05       		.byte	0x5
 1020 05cf 92       		.byte	0x92
 1021 05d0 AD000000 		.4byte	0xad
 1022 05d4 6C       		.byte	0x6c
ARM GAS  C:\Users\IDONNO~1\AppData\Local\Temp\ccniybLG.s 			page 19


 1023 05d5 08       		.uleb128 0x8
 1024 05d6 F5080000 		.4byte	.LASF126
 1025 05da 05       		.byte	0x5
 1026 05db 95       		.byte	0x95
 1027 05dc 56050000 		.4byte	0x556
 1028 05e0 70       		.byte	0x70
 1029 05e1 08       		.uleb128 0x8
 1030 05e2 99020000 		.4byte	.LASF127
 1031 05e6 05       		.byte	0x5
 1032 05e7 98       		.byte	0x98
 1033 05e8 46020000 		.4byte	0x246
 1034 05ec 94       		.byte	0x94
 1035 05ed 00       		.byte	0
 1036 05ee 03       		.uleb128 0x3
 1037 05ef 29060000 		.4byte	.LASF128
 1038 05f3 05       		.byte	0x5
 1039 05f4 99       		.byte	0x99
 1040 05f5 61050000 		.4byte	0x561
 1041 05f9 03       		.uleb128 0x3
 1042 05fa 20040000 		.4byte	.LASF129
 1043 05fe 06       		.byte	0x6
 1044 05ff D8       		.byte	0xd8
 1045 0600 90000000 		.4byte	0x90
 1046 0604 0C       		.uleb128 0xc
 1047 0605 A2000000 		.4byte	0xa2
 1048 0609 03       		.uleb128 0x3
 1049 060a 38090000 		.4byte	.LASF130
 1050 060e 07       		.byte	0x7
 1051 060f 45       		.byte	0x45
 1052 0610 AD000000 		.4byte	0xad
 1053 0614 03       		.uleb128 0x3
 1054 0615 B6080000 		.4byte	.LASF131
 1055 0619 07       		.byte	0x7
 1056 061a 48       		.byte	0x48
 1057 061b 97000000 		.4byte	0x97
 1058 061f 03       		.uleb128 0x3
 1059 0620 7B060000 		.4byte	.LASF132
 1060 0624 07       		.byte	0x7
 1061 0625 49       		.byte	0x49
 1062 0626 97000000 		.4byte	0x97
 1063 062a 03       		.uleb128 0x3
 1064 062b C00A0000 		.4byte	.LASF133
 1065 062f 07       		.byte	0x7
 1066 0630 4A       		.byte	0x4a
 1067 0631 97000000 		.4byte	0x97
 1068 0635 03       		.uleb128 0x3
 1069 0636 7D080000 		.4byte	.LASF134
 1070 063a 07       		.byte	0x7
 1071 063b 4B       		.byte	0x4b
 1072 063c 97000000 		.4byte	0x97
 1073 0640 03       		.uleb128 0x3
 1074 0641 23030000 		.4byte	.LASF135
 1075 0645 07       		.byte	0x7
 1076 0646 4C       		.byte	0x4c
 1077 0647 AD000000 		.4byte	0xad
 1078 064b 03       		.uleb128 0x3
 1079 064c CF070000 		.4byte	.LASF136
ARM GAS  C:\Users\IDONNO~1\AppData\Local\Temp\ccniybLG.s 			page 20


 1080 0650 07       		.byte	0x7
 1081 0651 4D       		.byte	0x4d
 1082 0652 A2000000 		.4byte	0xa2
 1083 0656 03       		.uleb128 0x3
 1084 0657 B4020000 		.4byte	.LASF137
 1085 065b 07       		.byte	0x7
 1086 065c 4F       		.byte	0x4f
 1087 065d AD000000 		.4byte	0xad
 1088 0661 03       		.uleb128 0x3
 1089 0662 87030000 		.4byte	.LASF138
 1090 0666 07       		.byte	0x7
 1091 0667 51       		.byte	0x51
 1092 0668 A2000000 		.4byte	0xa2
 1093 066c 03       		.uleb128 0x3
 1094 066d B0000000 		.4byte	.LASF139
 1095 0671 08       		.byte	0x8
 1096 0672 33       		.byte	0x33
 1097 0673 AD000000 		.4byte	0xad
 1098 0677 03       		.uleb128 0x3
 1099 0678 F1030000 		.4byte	.LASF140
 1100 067c 08       		.byte	0x8
 1101 067d 3F       		.byte	0x3f
 1102 067e 82060000 		.4byte	0x682
 1103 0682 0D       		.uleb128 0xd
 1104 0683 06070000 		.4byte	.LASF162
 1105 0687 48       		.byte	0x48
 1106 0688 09       		.byte	0x9
 1107 0689 C2       		.byte	0xc2
 1108 068a 87070000 		.4byte	0x787
 1109 068e 08       		.uleb128 0x8
 1110 068f 3B0A0000 		.4byte	.LASF141
 1111 0693 09       		.byte	0x9
 1112 0694 C3       		.byte	0xc3
 1113 0695 92070000 		.4byte	0x792
 1114 0699 00       		.byte	0
 1115 069a 08       		.uleb128 0x8
 1116 069b B00A0000 		.4byte	.LASF142
 1117 069f 09       		.byte	0x9
 1118 06a0 C5       		.byte	0xc5
 1119 06a1 92070000 		.4byte	0x792
 1120 06a5 04       		.byte	0x4
 1121 06a6 08       		.uleb128 0x8
 1122 06a7 79000000 		.4byte	.LASF143
 1123 06ab 09       		.byte	0x9
 1124 06ac C7       		.byte	0xc7
 1125 06ad 40060000 		.4byte	0x640
 1126 06b1 08       		.byte	0x8
 1127 06b2 08       		.uleb128 0x8
 1128 06b3 4B0A0000 		.4byte	.LASF144
 1129 06b7 09       		.byte	0x9
 1130 06b8 C8       		.byte	0xc8
 1131 06b9 BB090000 		.4byte	0x9bb
 1132 06bd 0C       		.byte	0xc
 1133 06be 08       		.uleb128 0x8
 1134 06bf D70D0000 		.4byte	.LASF145
 1135 06c3 09       		.byte	0x9
 1136 06c4 CA       		.byte	0xca
ARM GAS  C:\Users\IDONNO~1\AppData\Local\Temp\ccniybLG.s 			page 21


 1137 06c5 92070000 		.4byte	0x792
 1138 06c9 10       		.byte	0x10
 1139 06ca 08       		.uleb128 0x8
 1140 06cb B4060000 		.4byte	.LASF146
 1141 06cf 09       		.byte	0x9
 1142 06d0 CB       		.byte	0xcb
 1143 06d1 92070000 		.4byte	0x792
 1144 06d5 14       		.byte	0x14
 1145 06d6 08       		.uleb128 0x8
 1146 06d7 00060000 		.4byte	.LASF147
 1147 06db 09       		.byte	0x9
 1148 06dc D2       		.byte	0xd2
 1149 06dd 000C0000 		.4byte	0xc00
 1150 06e1 18       		.byte	0x18
 1151 06e2 08       		.uleb128 0x8
 1152 06e3 BC060000 		.4byte	.LASF148
 1153 06e7 09       		.byte	0x9
 1154 06e8 DD       		.byte	0xdd
 1155 06e9 1F060000 		.4byte	0x61f
 1156 06ed 1C       		.byte	0x1c
 1157 06ee 08       		.uleb128 0x8
 1158 06ef 01080000 		.4byte	.LASF149
 1159 06f3 09       		.byte	0x9
 1160 06f4 E1       		.byte	0xe1
 1161 06f5 14060000 		.4byte	0x614
 1162 06f9 1D       		.byte	0x1d
 1163 06fa 08       		.uleb128 0x8
 1164 06fb AB0B0000 		.4byte	.LASF150
 1165 06ff 09       		.byte	0x9
 1166 0700 E6       		.byte	0xe6
 1167 0701 2A060000 		.4byte	0x62a
 1168 0705 1E       		.byte	0x1e
 1169 0706 08       		.uleb128 0x8
 1170 0707 E90B0000 		.4byte	.LASF151
 1171 070b 09       		.byte	0x9
 1172 070c EC       		.byte	0xec
 1173 070d 35060000 		.4byte	0x635
 1174 0711 1F       		.byte	0x1f
 1175 0712 08       		.uleb128 0x8
 1176 0713 5F000000 		.4byte	.LASF152
 1177 0717 09       		.byte	0x9
 1178 0718 F3       		.byte	0xf3
 1179 0719 120C0000 		.4byte	0xc12
 1180 071d 20       		.byte	0x20
 1181 071e 0E       		.uleb128 0xe
 1182 071f 705F7500 		.ascii	"p_u\000"
 1183 0723 09       		.byte	0x9
 1184 0724 3101     		.2byte	0x131
 1185 0726 3B0B0000 		.4byte	0xb3b
 1186 072a 24       		.byte	0x24
 1187 072b 0F       		.uleb128 0xf
 1188 072c 1D010000 		.4byte	.LASF153
 1189 0730 09       		.byte	0x9
 1190 0731 3601     		.2byte	0x136
 1191 0733 98070000 		.4byte	0x798
 1192 0737 28       		.byte	0x28
 1193 0738 0F       		.uleb128 0xf
ARM GAS  C:\Users\IDONNO~1\AppData\Local\Temp\ccniybLG.s 			page 22


 1194 0739 DE000000 		.4byte	.LASF154
 1195 073d 09       		.byte	0x9
 1196 073e 3C01     		.2byte	0x13c
 1197 0740 BC070000 		.4byte	0x7bc
 1198 0744 2C       		.byte	0x2c
 1199 0745 0F       		.uleb128 0xf
 1200 0746 B0080000 		.4byte	.LASF155
 1201 074a 09       		.byte	0x9
 1202 074b 4001     		.2byte	0x140
 1203 074d 4B060000 		.4byte	0x64b
 1204 0751 34       		.byte	0x34
 1205 0752 0F       		.uleb128 0xf
 1206 0753 A8090000 		.4byte	.LASF156
 1207 0757 09       		.byte	0x9
 1208 0758 4601     		.2byte	0x146
 1209 075a 56060000 		.4byte	0x656
 1210 075e 38       		.byte	0x38
 1211 075f 0F       		.uleb128 0xf
 1212 0760 F3060000 		.4byte	.LASF157
 1213 0764 09       		.byte	0x9
 1214 0765 4D01     		.2byte	0x14d
 1215 0767 FA0B0000 		.4byte	0xbfa
 1216 076b 3C       		.byte	0x3c
 1217 076c 0F       		.uleb128 0xf
 1218 076d 49080000 		.4byte	.LASF158
 1219 0771 09       		.byte	0x9
 1220 0772 5101     		.2byte	0x151
 1221 0774 40060000 		.4byte	0x640
 1222 0778 40       		.byte	0x40
 1223 0779 0F       		.uleb128 0xf
 1224 077a EB060000 		.4byte	.LASF159
 1225 077e 09       		.byte	0x9
 1226 077f 5801     		.2byte	0x158
 1227 0781 6F080000 		.4byte	0x86f
 1228 0785 44       		.byte	0x44
 1229 0786 00       		.byte	0
 1230 0787 03       		.uleb128 0x3
 1231 0788 14090000 		.4byte	.LASF160
 1232 078c 08       		.byte	0x8
 1233 078d 44       		.byte	0x44
 1234 078e 92070000 		.4byte	0x792
 1235 0792 10       		.uleb128 0x10
 1236 0793 04       		.byte	0x4
 1237 0794 77060000 		.4byte	0x677
 1238 0798 03       		.uleb128 0x3
 1239 0799 0E010000 		.4byte	.LASF161
 1240 079d 08       		.byte	0x8
 1241 079e 49       		.byte	0x49
 1242 079f A3070000 		.4byte	0x7a3
 1243 07a3 0D       		.uleb128 0xd
 1244 07a4 00000000 		.4byte	.LASF163
 1245 07a8 04       		.byte	0x4
 1246 07a9 09       		.byte	0x9
 1247 07aa B0       		.byte	0xb0
 1248 07ab BC070000 		.4byte	0x7bc
 1249 07af 08       		.uleb128 0x8
 1250 07b0 3B0A0000 		.4byte	.LASF141
ARM GAS  C:\Users\IDONNO~1\AppData\Local\Temp\ccniybLG.s 			page 23


 1251 07b4 09       		.byte	0x9
 1252 07b5 B1       		.byte	0xb1
 1253 07b6 92070000 		.4byte	0x792
 1254 07ba 00       		.byte	0
 1255 07bb 00       		.byte	0
 1256 07bc 03       		.uleb128 0x3
 1257 07bd 10000000 		.4byte	.LASF164
 1258 07c1 08       		.byte	0x8
 1259 07c2 50       		.byte	0x50
 1260 07c3 C7070000 		.4byte	0x7c7
 1261 07c7 0D       		.uleb128 0xd
 1262 07c8 60070000 		.4byte	.LASF165
 1263 07cc 08       		.byte	0x8
 1264 07cd 09       		.byte	0x9
 1265 07ce B7       		.byte	0xb7
 1266 07cf EC070000 		.4byte	0x7ec
 1267 07d3 08       		.uleb128 0x8
 1268 07d4 3B0A0000 		.4byte	.LASF141
 1269 07d8 09       		.byte	0x9
 1270 07d9 B8       		.byte	0xb8
 1271 07da 92070000 		.4byte	0x792
 1272 07de 00       		.byte	0
 1273 07df 08       		.uleb128 0x8
 1274 07e0 B00A0000 		.4byte	.LASF142
 1275 07e4 09       		.byte	0x9
 1276 07e5 B9       		.byte	0xb9
 1277 07e6 92070000 		.4byte	0x792
 1278 07ea 04       		.byte	0x4
 1279 07eb 00       		.byte	0
 1280 07ec 03       		.uleb128 0x3
 1281 07ed E20A0000 		.4byte	.LASF166
 1282 07f1 08       		.byte	0x8
 1283 07f2 57       		.byte	0x57
 1284 07f3 F7070000 		.4byte	0x7f7
 1285 07f7 11       		.uleb128 0x11
 1286 07f8 D4010000 		.4byte	.LASF167
 1287 07fc 1C       		.byte	0x1c
 1288 07fd 09       		.byte	0x9
 1289 07fe 9001     		.2byte	0x190
 1290 0800 53080000 		.4byte	0x853
 1291 0804 0F       		.uleb128 0xf
 1292 0805 B0070000 		.4byte	.LASF168
 1293 0809 09       		.byte	0x9
 1294 080a 9101     		.2byte	0x191
 1295 080c BC070000 		.4byte	0x7bc
 1296 0810 00       		.byte	0
 1297 0811 0F       		.uleb128 0xf
 1298 0812 C0020000 		.4byte	.LASF169
 1299 0816 09       		.byte	0x9
 1300 0817 9201     		.2byte	0x192
 1301 0819 40060000 		.4byte	0x640
 1302 081d 08       		.byte	0x8
 1303 081e 0F       		.uleb128 0xf
 1304 081f CE0C0000 		.4byte	.LASF170
 1305 0823 09       		.byte	0x9
 1306 0824 9401     		.2byte	0x194
 1307 0826 BB090000 		.4byte	0x9bb
ARM GAS  C:\Users\IDONNO~1\AppData\Local\Temp\ccniybLG.s 			page 24


 1308 082a 0C       		.byte	0xc
 1309 082b 0F       		.uleb128 0xf
 1310 082c 61060000 		.4byte	.LASF171
 1311 0830 09       		.byte	0x9
 1312 0831 9701     		.2byte	0x197
 1313 0833 92070000 		.4byte	0x792
 1314 0837 10       		.byte	0x10
 1315 0838 0F       		.uleb128 0xf
 1316 0839 87080000 		.4byte	.LASF172
 1317 083d 09       		.byte	0x9
 1318 083e 9801     		.2byte	0x198
 1319 0840 92070000 		.4byte	0x792
 1320 0844 14       		.byte	0x14
 1321 0845 0F       		.uleb128 0xf
 1322 0846 8C090000 		.4byte	.LASF173
 1323 084a 09       		.byte	0x9
 1324 084b 9B01     		.2byte	0x19b
 1325 084d 92070000 		.4byte	0x792
 1326 0851 18       		.byte	0x18
 1327 0852 00       		.byte	0
 1328 0853 03       		.uleb128 0x3
 1329 0854 EA010000 		.4byte	.LASF174
 1330 0858 08       		.byte	0x8
 1331 0859 5C       		.byte	0x5c
 1332 085a 5E080000 		.4byte	0x85e
 1333 085e 10       		.uleb128 0x10
 1334 085f 04       		.byte	0x4
 1335 0860 64080000 		.4byte	0x864
 1336 0864 12       		.uleb128 0x12
 1337 0865 6F080000 		.4byte	0x86f
 1338 0869 13       		.uleb128 0x13
 1339 086a 6F080000 		.4byte	0x86f
 1340 086e 00       		.byte	0
 1341 086f 14       		.uleb128 0x14
 1342 0870 04       		.byte	0x4
 1343 0871 03       		.uleb128 0x3
 1344 0872 09080000 		.4byte	.LASF175
 1345 0876 08       		.byte	0x8
 1346 0877 61       		.byte	0x61
 1347 0878 7C080000 		.4byte	0x87c
 1348 087c 11       		.uleb128 0x11
 1349 087d 2B030000 		.4byte	.LASF176
 1350 0881 14       		.byte	0x14
 1351 0882 09       		.byte	0x9
 1352 0883 6B01     		.2byte	0x16b
 1353 0885 CB080000 		.4byte	0x8cb
 1354 0889 0F       		.uleb128 0xf
 1355 088a 2B0C0000 		.4byte	.LASF177
 1356 088e 09       		.byte	0x9
 1357 088f 6C01     		.2byte	0x16c
 1358 0891 170C0000 		.4byte	0xc17
 1359 0895 00       		.byte	0
 1360 0896 0F       		.uleb128 0xf
 1361 0897 2D0D0000 		.4byte	.LASF178
 1362 089b 09       		.byte	0x9
 1363 089c 6D01     		.2byte	0x16d
 1364 089e 170C0000 		.4byte	0xc17
ARM GAS  C:\Users\IDONNO~1\AppData\Local\Temp\ccniybLG.s 			page 25


 1365 08a2 04       		.byte	0x4
 1366 08a3 0F       		.uleb128 0xf
 1367 08a4 48060000 		.4byte	.LASF179
 1368 08a8 09       		.byte	0x9
 1369 08a9 6E01     		.2byte	0x16e
 1370 08ab 6C060000 		.4byte	0x66c
 1371 08af 08       		.byte	0x8
 1372 08b0 0F       		.uleb128 0xf
 1373 08b1 250D0000 		.4byte	.LASF180
 1374 08b5 09       		.byte	0x9
 1375 08b6 6F01     		.2byte	0x16f
 1376 08b8 53080000 		.4byte	0x853
 1377 08bc 0C       		.byte	0xc
 1378 08bd 0F       		.uleb128 0xf
 1379 08be DD020000 		.4byte	.LASF181
 1380 08c2 09       		.byte	0x9
 1381 08c3 7101     		.2byte	0x171
 1382 08c5 6F080000 		.4byte	0x86f
 1383 08c9 10       		.byte	0x10
 1384 08ca 00       		.byte	0
 1385 08cb 03       		.uleb128 0x3
 1386 08cc 950B0000 		.4byte	.LASF182
 1387 08d0 08       		.byte	0x8
 1388 08d1 66       		.byte	0x66
 1389 08d2 D6080000 		.4byte	0x8d6
 1390 08d6 11       		.uleb128 0x11
 1391 08d7 DA030000 		.4byte	.LASF183
 1392 08db 10       		.byte	0x10
 1393 08dc 09       		.byte	0x9
 1394 08dd 7B01     		.2byte	0x17b
 1395 08df 18090000 		.4byte	0x918
 1396 08e3 0F       		.uleb128 0xf
 1397 08e4 2B0C0000 		.4byte	.LASF177
 1398 08e8 09       		.byte	0x9
 1399 08e9 7C01     		.2byte	0x17c
 1400 08eb 170C0000 		.4byte	0xc17
 1401 08ef 00       		.byte	0
 1402 08f0 0F       		.uleb128 0xf
 1403 08f1 2D0D0000 		.4byte	.LASF178
 1404 08f5 09       		.byte	0x9
 1405 08f6 7E01     		.2byte	0x17e
 1406 08f8 170C0000 		.4byte	0xc17
 1407 08fc 04       		.byte	0x4
 1408 08fd 0F       		.uleb128 0xf
 1409 08fe 48060000 		.4byte	.LASF179
 1410 0902 09       		.byte	0x9
 1411 0903 8001     		.2byte	0x180
 1412 0905 6C060000 		.4byte	0x66c
 1413 0909 08       		.byte	0x8
 1414 090a 0F       		.uleb128 0xf
 1415 090b D3000000 		.4byte	.LASF184
 1416 090f 09       		.byte	0x9
 1417 0910 8201     		.2byte	0x182
 1418 0912 120C0000 		.4byte	0xc12
 1419 0916 0C       		.byte	0xc
 1420 0917 00       		.byte	0
 1421 0918 03       		.uleb128 0x3
ARM GAS  C:\Users\IDONNO~1\AppData\Local\Temp\ccniybLG.s 			page 26


 1422 0919 49070000 		.4byte	.LASF185
 1423 091d 08       		.byte	0x8
 1424 091e 6B       		.byte	0x6b
 1425 091f 23090000 		.4byte	0x923
 1426 0923 11       		.uleb128 0x11
 1427 0924 4B020000 		.4byte	.LASF186
 1428 0928 04       		.byte	0x4
 1429 0929 09       		.byte	0x9
 1430 092a A201     		.2byte	0x1a2
 1431 092c 3E090000 		.4byte	0x93e
 1432 0930 0F       		.uleb128 0xf
 1433 0931 B20B0000 		.4byte	.LASF187
 1434 0935 09       		.byte	0x9
 1435 0936 AA01     		.2byte	0x1aa
 1436 0938 1D0C0000 		.4byte	0xc1d
 1437 093c 00       		.byte	0
 1438 093d 00       		.byte	0
 1439 093e 03       		.uleb128 0x3
 1440 093f 4A0C0000 		.4byte	.LASF188
 1441 0943 08       		.byte	0x8
 1442 0944 70       		.byte	0x70
 1443 0945 49090000 		.4byte	0x949
 1444 0949 15       		.uleb128 0x15
 1445 094a 0B0A0000 		.4byte	.LASF189
 1446 094e 5802     		.2byte	0x258
 1447 0950 09       		.byte	0x9
 1448 0951 C201     		.2byte	0x1c2
 1449 0953 A5090000 		.4byte	0x9a5
 1450 0957 0F       		.uleb128 0xf
 1451 0958 510A0000 		.4byte	.LASF190
 1452 095c 09       		.byte	0x9
 1453 095d C601     		.2byte	0x1c6
 1454 095f EC070000 		.4byte	0x7ec
 1455 0963 00       		.byte	0
 1456 0964 0F       		.uleb128 0xf
 1457 0965 55010000 		.4byte	.LASF191
 1458 0969 09       		.byte	0x9
 1459 096a CA01     		.2byte	0x1ca
 1460 096c CB080000 		.4byte	0x8cb
 1461 0970 1C       		.byte	0x1c
 1462 0971 0E       		.uleb128 0xe
 1463 0972 64626700 		.ascii	"dbg\000"
 1464 0976 09       		.byte	0x9
 1465 0977 CE01     		.2byte	0x1ce
 1466 0979 18090000 		.4byte	0x918
 1467 097d 2C       		.byte	0x2c
 1468 097e 0F       		.uleb128 0xf
 1469 097f C8080000 		.4byte	.LASF192
 1470 0983 09       		.byte	0x9
 1471 0984 D201     		.2byte	0x1d2
 1472 0986 77060000 		.4byte	0x677
 1473 098a 30       		.byte	0x30
 1474 098b 0E       		.uleb128 0xe
 1475 098c 746D00   		.ascii	"tm\000"
 1476 098f 09       		.byte	0x9
 1477 0990 D701     		.2byte	0x1d7
 1478 0992 300B0000 		.4byte	0xb30
ARM GAS  C:\Users\IDONNO~1\AppData\Local\Temp\ccniybLG.s 			page 27


 1479 0996 78       		.byte	0x78
 1480 0997 0F       		.uleb128 0xf
 1481 0998 010B0000 		.4byte	.LASF193
 1482 099c 09       		.byte	0x9
 1483 099d E301     		.2byte	0x1e3
 1484 099f 220C0000 		.4byte	0xc22
 1485 09a3 80       		.byte	0x80
 1486 09a4 00       		.byte	0
 1487 09a5 03       		.uleb128 0x3
 1488 09a6 70000000 		.4byte	.LASF194
 1489 09aa 0A       		.byte	0xa
 1490 09ab 65       		.byte	0x65
 1491 09ac 6F080000 		.4byte	0x86f
 1492 09b0 03       		.uleb128 0x3
 1493 09b1 EA0C0000 		.4byte	.LASF195
 1494 09b5 0A       		.byte	0xa
 1495 09b6 6D       		.byte	0x6d
 1496 09b7 B8000000 		.4byte	0xb8
 1497 09bb 0D       		.uleb128 0xd
 1498 09bc F9070000 		.4byte	.LASF196
 1499 09c0 04       		.byte	0x4
 1500 09c1 0A       		.byte	0xa
 1501 09c2 89       		.byte	0x89
 1502 09c3 D4090000 		.4byte	0x9d4
 1503 09c7 0B       		.uleb128 0xb
 1504 09c8 72313300 		.ascii	"r13\000"
 1505 09cc 0A       		.byte	0xa
 1506 09cd 8A       		.byte	0x8a
 1507 09ce 150B0000 		.4byte	0xb15
 1508 09d2 00       		.byte	0
 1509 09d3 00       		.byte	0
 1510 09d4 0D       		.uleb128 0xd
 1511 09d5 C4090000 		.4byte	.LASF197
 1512 09d9 64       		.byte	0x64
 1513 09da 0B       		.byte	0xb
 1514 09db F4       		.byte	0xf4
 1515 09dc 150B0000 		.4byte	0xb15
 1516 09e0 0B       		.uleb128 0xb
 1517 09e1 73313600 		.ascii	"s16\000"
 1518 09e5 0B       		.byte	0xb
 1519 09e6 F6       		.byte	0xf6
 1520 09e7 A5090000 		.4byte	0x9a5
 1521 09eb 00       		.byte	0
 1522 09ec 0B       		.uleb128 0xb
 1523 09ed 73313700 		.ascii	"s17\000"
 1524 09f1 0B       		.byte	0xb
 1525 09f2 F7       		.byte	0xf7
 1526 09f3 A5090000 		.4byte	0x9a5
 1527 09f7 04       		.byte	0x4
 1528 09f8 0B       		.uleb128 0xb
 1529 09f9 73313800 		.ascii	"s18\000"
 1530 09fd 0B       		.byte	0xb
 1531 09fe F8       		.byte	0xf8
 1532 09ff A5090000 		.4byte	0x9a5
 1533 0a03 08       		.byte	0x8
 1534 0a04 0B       		.uleb128 0xb
 1535 0a05 73313900 		.ascii	"s19\000"
ARM GAS  C:\Users\IDONNO~1\AppData\Local\Temp\ccniybLG.s 			page 28


 1536 0a09 0B       		.byte	0xb
 1537 0a0a F9       		.byte	0xf9
 1538 0a0b A5090000 		.4byte	0x9a5
 1539 0a0f 0C       		.byte	0xc
 1540 0a10 0B       		.uleb128 0xb
 1541 0a11 73323000 		.ascii	"s20\000"
 1542 0a15 0B       		.byte	0xb
 1543 0a16 FA       		.byte	0xfa
 1544 0a17 A5090000 		.4byte	0x9a5
 1545 0a1b 10       		.byte	0x10
 1546 0a1c 0B       		.uleb128 0xb
 1547 0a1d 73323100 		.ascii	"s21\000"
 1548 0a21 0B       		.byte	0xb
 1549 0a22 FB       		.byte	0xfb
 1550 0a23 A5090000 		.4byte	0x9a5
 1551 0a27 14       		.byte	0x14
 1552 0a28 0B       		.uleb128 0xb
 1553 0a29 73323200 		.ascii	"s22\000"
 1554 0a2d 0B       		.byte	0xb
 1555 0a2e FC       		.byte	0xfc
 1556 0a2f A5090000 		.4byte	0x9a5
 1557 0a33 18       		.byte	0x18
 1558 0a34 0B       		.uleb128 0xb
 1559 0a35 73323300 		.ascii	"s23\000"
 1560 0a39 0B       		.byte	0xb
 1561 0a3a FD       		.byte	0xfd
 1562 0a3b A5090000 		.4byte	0x9a5
 1563 0a3f 1C       		.byte	0x1c
 1564 0a40 0B       		.uleb128 0xb
 1565 0a41 73323400 		.ascii	"s24\000"
 1566 0a45 0B       		.byte	0xb
 1567 0a46 FE       		.byte	0xfe
 1568 0a47 A5090000 		.4byte	0x9a5
 1569 0a4b 20       		.byte	0x20
 1570 0a4c 0B       		.uleb128 0xb
 1571 0a4d 73323500 		.ascii	"s25\000"
 1572 0a51 0B       		.byte	0xb
 1573 0a52 FF       		.byte	0xff
 1574 0a53 A5090000 		.4byte	0x9a5
 1575 0a57 24       		.byte	0x24
 1576 0a58 0E       		.uleb128 0xe
 1577 0a59 73323600 		.ascii	"s26\000"
 1578 0a5d 0B       		.byte	0xb
 1579 0a5e 0001     		.2byte	0x100
 1580 0a60 A5090000 		.4byte	0x9a5
 1581 0a64 28       		.byte	0x28
 1582 0a65 0E       		.uleb128 0xe
 1583 0a66 73323700 		.ascii	"s27\000"
 1584 0a6a 0B       		.byte	0xb
 1585 0a6b 0101     		.2byte	0x101
 1586 0a6d A5090000 		.4byte	0x9a5
 1587 0a71 2C       		.byte	0x2c
 1588 0a72 0E       		.uleb128 0xe
 1589 0a73 73323800 		.ascii	"s28\000"
 1590 0a77 0B       		.byte	0xb
 1591 0a78 0201     		.2byte	0x102
 1592 0a7a A5090000 		.4byte	0x9a5
ARM GAS  C:\Users\IDONNO~1\AppData\Local\Temp\ccniybLG.s 			page 29


 1593 0a7e 30       		.byte	0x30
 1594 0a7f 0E       		.uleb128 0xe
 1595 0a80 73323900 		.ascii	"s29\000"
 1596 0a84 0B       		.byte	0xb
 1597 0a85 0301     		.2byte	0x103
 1598 0a87 A5090000 		.4byte	0x9a5
 1599 0a8b 34       		.byte	0x34
 1600 0a8c 0E       		.uleb128 0xe
 1601 0a8d 73333000 		.ascii	"s30\000"
 1602 0a91 0B       		.byte	0xb
 1603 0a92 0401     		.2byte	0x104
 1604 0a94 A5090000 		.4byte	0x9a5
 1605 0a98 38       		.byte	0x38
 1606 0a99 0E       		.uleb128 0xe
 1607 0a9a 73333100 		.ascii	"s31\000"
 1608 0a9e 0B       		.byte	0xb
 1609 0a9f 0501     		.2byte	0x105
 1610 0aa1 A5090000 		.4byte	0x9a5
 1611 0aa5 3C       		.byte	0x3c
 1612 0aa6 0E       		.uleb128 0xe
 1613 0aa7 723400   		.ascii	"r4\000"
 1614 0aaa 0B       		.byte	0xb
 1615 0aab 0701     		.2byte	0x107
 1616 0aad A5090000 		.4byte	0x9a5
 1617 0ab1 40       		.byte	0x40
 1618 0ab2 0E       		.uleb128 0xe
 1619 0ab3 723500   		.ascii	"r5\000"
 1620 0ab6 0B       		.byte	0xb
 1621 0ab7 0801     		.2byte	0x108
 1622 0ab9 A5090000 		.4byte	0x9a5
 1623 0abd 44       		.byte	0x44
 1624 0abe 0E       		.uleb128 0xe
 1625 0abf 723600   		.ascii	"r6\000"
 1626 0ac2 0B       		.byte	0xb
 1627 0ac3 0901     		.2byte	0x109
 1628 0ac5 A5090000 		.4byte	0x9a5
 1629 0ac9 48       		.byte	0x48
 1630 0aca 0E       		.uleb128 0xe
 1631 0acb 723700   		.ascii	"r7\000"
 1632 0ace 0B       		.byte	0xb
 1633 0acf 0A01     		.2byte	0x10a
 1634 0ad1 A5090000 		.4byte	0x9a5
 1635 0ad5 4C       		.byte	0x4c
 1636 0ad6 0E       		.uleb128 0xe
 1637 0ad7 723800   		.ascii	"r8\000"
 1638 0ada 0B       		.byte	0xb
 1639 0adb 0B01     		.2byte	0x10b
 1640 0add A5090000 		.4byte	0x9a5
 1641 0ae1 50       		.byte	0x50
 1642 0ae2 0E       		.uleb128 0xe
 1643 0ae3 723900   		.ascii	"r9\000"
 1644 0ae6 0B       		.byte	0xb
 1645 0ae7 0C01     		.2byte	0x10c
 1646 0ae9 A5090000 		.4byte	0x9a5
 1647 0aed 54       		.byte	0x54
 1648 0aee 0E       		.uleb128 0xe
 1649 0aef 72313000 		.ascii	"r10\000"
ARM GAS  C:\Users\IDONNO~1\AppData\Local\Temp\ccniybLG.s 			page 30


 1650 0af3 0B       		.byte	0xb
 1651 0af4 0D01     		.2byte	0x10d
 1652 0af6 A5090000 		.4byte	0x9a5
 1653 0afa 58       		.byte	0x58
 1654 0afb 0E       		.uleb128 0xe
 1655 0afc 72313100 		.ascii	"r11\000"
 1656 0b00 0B       		.byte	0xb
 1657 0b01 0E01     		.2byte	0x10e
 1658 0b03 A5090000 		.4byte	0x9a5
 1659 0b07 5C       		.byte	0x5c
 1660 0b08 0E       		.uleb128 0xe
 1661 0b09 6C7200   		.ascii	"lr\000"
 1662 0b0c 0B       		.byte	0xb
 1663 0b0d 0F01     		.2byte	0x10f
 1664 0b0f A5090000 		.4byte	0x9a5
 1665 0b13 60       		.byte	0x60
 1666 0b14 00       		.byte	0
 1667 0b15 10       		.uleb128 0x10
 1668 0b16 04       		.byte	0x4
 1669 0b17 D4090000 		.4byte	0x9d4
 1670 0b1b 07       		.uleb128 0x7
 1671 0b1c 04       		.byte	0x4
 1672 0b1d 0C       		.byte	0xc
 1673 0b1e 38       		.byte	0x38
 1674 0b1f 300B0000 		.4byte	0xb30
 1675 0b23 08       		.uleb128 0x8
 1676 0b24 3A040000 		.4byte	.LASF198
 1677 0b28 0C       		.byte	0xc
 1678 0b29 3C       		.byte	0x3c
 1679 0b2a 09060000 		.4byte	0x609
 1680 0b2e 00       		.byte	0
 1681 0b2f 00       		.byte	0
 1682 0b30 03       		.uleb128 0x3
 1683 0b31 4E000000 		.4byte	.LASF199
 1684 0b35 0C       		.byte	0xc
 1685 0b36 3D       		.byte	0x3d
 1686 0b37 1B0B0000 		.4byte	0xb1b
 1687 0b3b 16       		.uleb128 0x16
 1688 0b3c 04       		.byte	0x4
 1689 0b3d 09       		.byte	0x9
 1690 0b3e FA       		.byte	0xfa
 1691 0b3f 980B0000 		.4byte	0xb98
 1692 0b43 17       		.uleb128 0x17
 1693 0b44 27040000 		.4byte	.LASF200
 1694 0b48 09       		.byte	0x9
 1695 0b49 0101     		.2byte	0x101
 1696 0b4b 4B060000 		.4byte	0x64b
 1697 0b4f 17       		.uleb128 0x17
 1698 0b50 C40D0000 		.4byte	.LASF201
 1699 0b54 09       		.byte	0x9
 1700 0b55 0801     		.2byte	0x108
 1701 0b57 4B060000 		.4byte	0x64b
 1702 0b5b 17       		.uleb128 0x17
 1703 0b5c 46010000 		.4byte	.LASF202
 1704 0b60 09       		.byte	0x9
 1705 0b61 0F01     		.2byte	0x10f
 1706 0b63 6F080000 		.4byte	0x86f
ARM GAS  C:\Users\IDONNO~1\AppData\Local\Temp\ccniybLG.s 			page 31


 1707 0b67 17       		.uleb128 0x17
 1708 0b68 930D0000 		.4byte	.LASF203
 1709 0b6c 09       		.byte	0x9
 1710 0b6d 1601     		.2byte	0x116
 1711 0b6f 980B0000 		.4byte	0xb98
 1712 0b73 17       		.uleb128 0x17
 1713 0b74 100B0000 		.4byte	.LASF204
 1714 0b78 09       		.byte	0x9
 1715 0b79 1E01     		.2byte	0x11e
 1716 0b7b C30B0000 		.4byte	0xbc3
 1717 0b7f 17       		.uleb128 0x17
 1718 0b80 990D0000 		.4byte	.LASF205
 1719 0b84 09       		.byte	0x9
 1720 0b85 2701     		.2byte	0x127
 1721 0b87 FA0B0000 		.4byte	0xbfa
 1722 0b8b 17       		.uleb128 0x17
 1723 0b8c A5010000 		.4byte	.LASF206
 1724 0b90 09       		.byte	0x9
 1725 0b91 2F01     		.2byte	0x12f
 1726 0b93 56060000 		.4byte	0x656
 1727 0b97 00       		.byte	0
 1728 0b98 10       		.uleb128 0x10
 1729 0b99 04       		.byte	0x4
 1730 0b9a 87070000 		.4byte	0x787
 1731 0b9e 0D       		.uleb128 0xd
 1732 0b9f 16030000 		.4byte	.LASF207
 1733 0ba3 0C       		.byte	0xc
 1734 0ba4 0D       		.byte	0xd
 1735 0ba5 34       		.byte	0x34
 1736 0ba6 C30B0000 		.4byte	0xbc3
 1737 0baa 08       		.uleb128 0x8
 1738 0bab CB000000 		.4byte	.LASF208
 1739 0baf 0D       		.byte	0xd
 1740 0bb0 35       		.byte	0x35
 1741 0bb1 BC070000 		.4byte	0x7bc
 1742 0bb5 00       		.byte	0
 1743 0bb6 08       		.uleb128 0x8
 1744 0bb7 45020000 		.4byte	.LASF209
 1745 0bbb 0D       		.byte	0xd
 1746 0bbc 37       		.byte	0x37
 1747 0bbd 61060000 		.4byte	0x661
 1748 0bc1 08       		.byte	0x8
 1749 0bc2 00       		.byte	0
 1750 0bc3 10       		.uleb128 0x10
 1751 0bc4 04       		.byte	0x4
 1752 0bc5 9E0B0000 		.4byte	0xb9e
 1753 0bc9 0D       		.uleb128 0xd
 1754 0bca C6050000 		.4byte	.LASF210
 1755 0bce 10       		.byte	0x10
 1756 0bcf 0E       		.byte	0xe
 1757 0bd0 39       		.byte	0x39
 1758 0bd1 FA0B0000 		.4byte	0xbfa
 1759 0bd5 08       		.uleb128 0x8
 1760 0bd6 B3090000 		.4byte	.LASF211
 1761 0bda 0E       		.byte	0xe
 1762 0bdb 3A       		.byte	0x3a
 1763 0bdc BC070000 		.4byte	0x7bc
ARM GAS  C:\Users\IDONNO~1\AppData\Local\Temp\ccniybLG.s 			page 32


 1764 0be0 00       		.byte	0
 1765 0be1 08       		.uleb128 0x8
 1766 0be2 C3000000 		.4byte	.LASF212
 1767 0be6 0E       		.byte	0xe
 1768 0be7 3C       		.byte	0x3c
 1769 0be8 92070000 		.4byte	0x792
 1770 0bec 08       		.byte	0x8
 1771 0bed 08       		.uleb128 0x8
 1772 0bee 870C0000 		.4byte	.LASF213
 1773 0bf2 0E       		.byte	0xe
 1774 0bf3 3E       		.byte	0x3e
 1775 0bf4 3D0C0000 		.4byte	0xc3d
 1776 0bf8 0C       		.byte	0xc
 1777 0bf9 00       		.byte	0
 1778 0bfa 10       		.uleb128 0x10
 1779 0bfb 04       		.byte	0x4
 1780 0bfc C90B0000 		.4byte	0xbc9
 1781 0c00 10       		.uleb128 0x10
 1782 0c01 04       		.byte	0x4
 1783 0c02 0D0C0000 		.4byte	0xc0d
 1784 0c06 02       		.uleb128 0x2
 1785 0c07 01       		.byte	0x1
 1786 0c08 08       		.byte	0x8
 1787 0c09 6B000000 		.4byte	.LASF214
 1788 0c0d 18       		.uleb128 0x18
 1789 0c0e 060C0000 		.4byte	0xc06
 1790 0c12 0C       		.uleb128 0xc
 1791 0c13 6C060000 		.4byte	0x66c
 1792 0c17 10       		.uleb128 0x10
 1793 0c18 04       		.byte	0x4
 1794 0c19 71080000 		.4byte	0x871
 1795 0c1d 0C       		.uleb128 0xc
 1796 0c1e 000C0000 		.4byte	0xc00
 1797 0c22 09       		.uleb128 0x9
 1798 0c23 B0090000 		.4byte	0x9b0
 1799 0c27 320C0000 		.4byte	0xc32
 1800 0c2b 0A       		.uleb128 0xa
 1801 0c2c 38020000 		.4byte	0x238
 1802 0c30 3A       		.byte	0x3a
 1803 0c31 00       		.byte	0
 1804 0c32 03       		.uleb128 0x3
 1805 0c33 340B0000 		.4byte	.LASF215
 1806 0c37 0E       		.byte	0xe
 1807 0c38 34       		.byte	0x34
 1808 0c39 C90B0000 		.4byte	0xbc9
 1809 0c3d 10       		.uleb128 0x10
 1810 0c3e 04       		.byte	0x4
 1811 0c3f 320C0000 		.4byte	0xc32
 1812 0c43 19       		.uleb128 0x19
 1813 0c44 7D0D0000 		.4byte	.LASF235
 1814 0c48 01       		.byte	0x1
 1815 0c49 54       		.byte	0x54
 1816 0c4a 580C0000 		.4byte	0xc58
 1817 0c4e 00000000 		.4byte	.LFB257
 1818 0c52 08000000 		.4byte	.LFE257-.LFB257
 1819 0c56 01       		.uleb128 0x1
 1820 0c57 9C       		.byte	0x9c
ARM GAS  C:\Users\IDONNO~1\AppData\Local\Temp\ccniybLG.s 			page 33


 1821 0c58 10       		.uleb128 0x10
 1822 0c59 04       		.byte	0x4
 1823 0c5a 5E0C0000 		.4byte	0xc5e
 1824 0c5e 18       		.uleb128 0x18
 1825 0c5f EE050000 		.4byte	0x5ee
 1826 0c63 1A       		.uleb128 0x1a
 1827 0c64 D40C0000 		.4byte	.LASF216
 1828 0c68 01       		.byte	0x1
 1829 0c69 5F       		.byte	0x5f
 1830 0c6a 00000000 		.4byte	.LFB258
 1831 0c6e 3C000000 		.4byte	.LFE258-.LFB258
 1832 0c72 01       		.uleb128 0x1
 1833 0c73 9C       		.byte	0x9c
 1834 0c74 030D0000 		.4byte	0xd03
 1835 0c78 1B       		.uleb128 0x1b
 1836 0c79 66000000 		.4byte	.LASF218
 1837 0c7d 01       		.byte	0x1
 1838 0c7e 5F       		.byte	0x5f
 1839 0c7f 030D0000 		.4byte	0xd03
 1840 0c83 00000000 		.4byte	.LLST0
 1841 0c87 1C       		.uleb128 0x1c
 1842 0c88 0E000000 		.4byte	.LVL2
 1843 0c8c F40D0000 		.4byte	0xdf4
 1844 0c90 A80C0000 		.4byte	0xca8
 1845 0c94 1D       		.uleb128 0x1d
 1846 0c95 01       		.uleb128 0x1
 1847 0c96 50       		.byte	0x50
 1848 0c97 02       		.uleb128 0x2
 1849 0c98 74       		.byte	0x74
 1850 0c99 00       		.sleb128 0
 1851 0c9a 1D       		.uleb128 0x1d
 1852 0c9b 01       		.uleb128 0x1
 1853 0c9c 51       		.byte	0x51
 1854 0c9d 03       		.uleb128 0x3
 1855 0c9e F3       		.byte	0xf3
 1856 0c9f 01       		.uleb128 0x1
 1857 0ca0 50       		.byte	0x50
 1858 0ca1 1D       		.uleb128 0x1d
 1859 0ca2 01       		.uleb128 0x1
 1860 0ca3 52       		.byte	0x52
 1861 0ca4 02       		.uleb128 0x2
 1862 0ca5 08       		.byte	0x8
 1863 0ca6 A0       		.byte	0xa0
 1864 0ca7 00       		.byte	0
 1865 0ca8 1C       		.uleb128 0x1c
 1866 0ca9 16000000 		.4byte	.LVL3
 1867 0cad FD0D0000 		.4byte	0xdfd
 1868 0cb1 BC0C0000 		.4byte	0xcbc
 1869 0cb5 1D       		.uleb128 0x1d
 1870 0cb6 01       		.uleb128 0x1
 1871 0cb7 50       		.byte	0x50
 1872 0cb8 02       		.uleb128 0x2
 1873 0cb9 74       		.byte	0x74
 1874 0cba 18       		.sleb128 24
 1875 0cbb 00       		.byte	0
 1876 0cbc 1C       		.uleb128 0x1c
 1877 0cbd 1E000000 		.4byte	.LVL4
ARM GAS  C:\Users\IDONNO~1\AppData\Local\Temp\ccniybLG.s 			page 34


 1878 0cc1 080E0000 		.4byte	0xe08
 1879 0cc5 D10C0000 		.4byte	0xcd1
 1880 0cc9 1D       		.uleb128 0x1d
 1881 0cca 01       		.uleb128 0x1
 1882 0ccb 50       		.byte	0x50
 1883 0ccc 03       		.uleb128 0x3
 1884 0ccd 74       		.byte	0x74
 1885 0cce C000     		.sleb128 64
 1886 0cd0 00       		.byte	0
 1887 0cd1 1E       		.uleb128 0x1e
 1888 0cd2 24000000 		.4byte	.LVL5
 1889 0cd6 130E0000 		.4byte	0xe13
 1890 0cda 1C       		.uleb128 0x1c
 1891 0cdb 2C000000 		.4byte	.LVL6
 1892 0cdf 1E0E0000 		.4byte	0xe1e
 1893 0ce3 EF0C0000 		.4byte	0xcef
 1894 0ce7 1D       		.uleb128 0x1d
 1895 0ce8 01       		.uleb128 0x1
 1896 0ce9 50       		.byte	0x50
 1897 0cea 03       		.uleb128 0x3
 1898 0ceb 74       		.byte	0x74
 1899 0cec F000     		.sleb128 112
 1900 0cee 00       		.byte	0
 1901 0cef 1F       		.uleb128 0x1f
 1902 0cf0 38000000 		.4byte	.LVL7
 1903 0cf4 290E0000 		.4byte	0xe29
 1904 0cf8 1D       		.uleb128 0x1d
 1905 0cf9 01       		.uleb128 0x1
 1906 0cfa 50       		.byte	0x50
 1907 0cfb 05       		.uleb128 0x5
 1908 0cfc 03       		.byte	0x3
 1909 0cfd 94000000 		.4byte	.LANCHOR0+148
 1910 0d01 00       		.byte	0
 1911 0d02 00       		.byte	0
 1912 0d03 10       		.uleb128 0x10
 1913 0d04 04       		.byte	0x4
 1914 0d05 EE050000 		.4byte	0x5ee
 1915 0d09 1A       		.uleb128 0x1a
 1916 0d0a BA000000 		.4byte	.LASF217
 1917 0d0e 01       		.byte	0x1
 1918 0d0f 22       		.byte	0x22
 1919 0d10 00000000 		.4byte	.LFB256
 1920 0d14 78000000 		.4byte	.LFE256-.LFB256
 1921 0d18 01       		.uleb128 0x1
 1922 0d19 9C       		.byte	0x9c
 1923 0d1a CC0D0000 		.4byte	0xdcc
 1924 0d1e 1B       		.uleb128 0x1b
 1925 0d1f 66000000 		.4byte	.LASF218
 1926 0d23 01       		.byte	0x1
 1927 0d24 22       		.byte	0x22
 1928 0d25 030D0000 		.4byte	0xd03
 1929 0d29 2C000000 		.4byte	.LLST1
 1930 0d2d 1C       		.uleb128 0x1c
 1931 0d2e 06000000 		.4byte	.LVL9
 1932 0d32 630C0000 		.4byte	0xc63
 1933 0d36 420D0000 		.4byte	0xd42
 1934 0d3a 1D       		.uleb128 0x1d
ARM GAS  C:\Users\IDONNO~1\AppData\Local\Temp\ccniybLG.s 			page 35


 1935 0d3b 01       		.uleb128 0x1
 1936 0d3c 50       		.byte	0x50
 1937 0d3d 03       		.uleb128 0x3
 1938 0d3e F3       		.byte	0xf3
 1939 0d3f 01       		.uleb128 0x1
 1940 0d40 50       		.byte	0x50
 1941 0d41 00       		.byte	0
 1942 0d42 1E       		.uleb128 0x1e
 1943 0d43 20000000 		.4byte	.LVL10
 1944 0d47 340E0000 		.4byte	0xe34
 1945 0d4b 20       		.uleb128 0x20
 1946 0d4c 28000000 		.4byte	.LVL11
 1947 0d50 3F0E0000 		.4byte	0xe3f
 1948 0d54 20       		.uleb128 0x20
 1949 0d55 30000000 		.4byte	.LVL12
 1950 0d59 4A0E0000 		.4byte	0xe4a
 1951 0d5d 21       		.uleb128 0x21
 1952 0d5e 3A000000 		.4byte	.LVL13
 1953 0d62 550E0000 		.4byte	0xe55
 1954 0d66 700D0000 		.4byte	0xd70
 1955 0d6a 1D       		.uleb128 0x1d
 1956 0d6b 01       		.uleb128 0x1
 1957 0d6c 50       		.byte	0x50
 1958 0d6d 01       		.uleb128 0x1
 1959 0d6e 31       		.byte	0x31
 1960 0d6f 00       		.byte	0
 1961 0d70 1E       		.uleb128 0x1e
 1962 0d71 3E000000 		.4byte	.LVL14
 1963 0d75 600E0000 		.4byte	0xe60
 1964 0d79 20       		.uleb128 0x20
 1965 0d7a 46000000 		.4byte	.LVL15
 1966 0d7e 6B0E0000 		.4byte	0xe6b
 1967 0d82 1E       		.uleb128 0x1e
 1968 0d83 4A000000 		.4byte	.LVL16
 1969 0d87 600E0000 		.4byte	0xe60
 1970 0d8b 1E       		.uleb128 0x1e
 1971 0d8c 4E000000 		.4byte	.LVL17
 1972 0d90 4A0E0000 		.4byte	0xe4a
 1973 0d94 20       		.uleb128 0x20
 1974 0d95 56000000 		.4byte	.LVL18
 1975 0d99 6B0E0000 		.4byte	0xe6b
 1976 0d9d 1E       		.uleb128 0x1e
 1977 0d9e 5A000000 		.4byte	.LVL19
 1978 0da2 600E0000 		.4byte	0xe60
 1979 0da6 1C       		.uleb128 0x1c
 1980 0da7 60000000 		.4byte	.LVL20
 1981 0dab 550E0000 		.4byte	0xe55
 1982 0daf B90D0000 		.4byte	0xdb9
 1983 0db3 1D       		.uleb128 0x1d
 1984 0db4 01       		.uleb128 0x1
 1985 0db5 50       		.byte	0x50
 1986 0db6 01       		.uleb128 0x1
 1987 0db7 30       		.byte	0x30
 1988 0db8 00       		.byte	0
 1989 0db9 20       		.uleb128 0x20
 1990 0dba 68000000 		.4byte	.LVL21
 1991 0dbe 6B0E0000 		.4byte	0xe6b
ARM GAS  C:\Users\IDONNO~1\AppData\Local\Temp\ccniybLG.s 			page 36


 1992 0dc2 20       		.uleb128 0x20
 1993 0dc3 70000000 		.4byte	.LVL22
 1994 0dc7 760E0000 		.4byte	0xe76
 1995 0dcb 00       		.byte	0
 1996 0dcc 22       		.uleb128 0x22
 1997 0dcd 170B0000 		.4byte	.LASF236
 1998 0dd1 01       		.byte	0x1
 1999 0dd2 20       		.byte	0x20
 2000 0dd3 EE050000 		.4byte	0x5ee
 2001 0dd7 05       		.uleb128 0x5
 2002 0dd8 03       		.byte	0x3
 2003 0dd9 00000000 		.4byte	appconf
 2004 0ddd 23       		.uleb128 0x23
 2005 0dde E6090000 		.4byte	.LASF219
 2006 0de2 12       		.byte	0x12
 2007 0de3 A706     		.2byte	0x6a7
 2008 0de5 04060000 		.4byte	0x604
 2009 0de9 24       		.uleb128 0x24
 2010 0dea 636800   		.ascii	"ch\000"
 2011 0ded 09       		.byte	0x9
 2012 0dee 0902     		.2byte	0x209
 2013 0df0 3E090000 		.4byte	0x93e
 2014 0df4 25       		.uleb128 0x25
 2015 0df5 020D0000 		.4byte	.LASF237
 2016 0df9 020D0000 		.4byte	.LASF237
 2017 0dfd 26       		.uleb128 0x26
 2018 0dfe A3030000 		.4byte	.LASF220
 2019 0e02 A3030000 		.4byte	.LASF220
 2020 0e06 05       		.byte	0x5
 2021 0e07 AC       		.byte	0xac
 2022 0e08 26       		.uleb128 0x26
 2023 0e09 69060000 		.4byte	.LASF221
 2024 0e0d 69060000 		.4byte	.LASF221
 2025 0e11 05       		.byte	0x5
 2026 0e12 AE       		.byte	0xae
 2027 0e13 26       		.uleb128 0x26
 2028 0e14 330C0000 		.4byte	.LASF222
 2029 0e18 330C0000 		.4byte	.LASF222
 2030 0e1c 05       		.byte	0x5
 2031 0e1d B4       		.byte	0xb4
 2032 0e1e 26       		.uleb128 0x26
 2033 0e1f 9A0C0000 		.4byte	.LASF223
 2034 0e23 9A0C0000 		.4byte	.LASF223
 2035 0e27 05       		.byte	0x5
 2036 0e28 B6       		.byte	0xb6
 2037 0e29 26       		.uleb128 0x26
 2038 0e2a 9D000000 		.4byte	.LASF224
 2039 0e2e 9D000000 		.4byte	.LASF224
 2040 0e32 0F       		.byte	0xf
 2041 0e33 1D       		.byte	0x1d
 2042 0e34 26       		.uleb128 0x26
 2043 0e35 50040000 		.4byte	.LASF225
 2044 0e39 50040000 		.4byte	.LASF225
 2045 0e3d 10       		.byte	0x10
 2046 0e3e 33       		.byte	0x33
 2047 0e3f 26       		.uleb128 0x26
 2048 0e40 D3080000 		.4byte	.LASF226
ARM GAS  C:\Users\IDONNO~1\AppData\Local\Temp\ccniybLG.s 			page 37


 2049 0e44 D3080000 		.4byte	.LASF226
 2050 0e48 0F       		.byte	0xf
 2051 0e49 1E       		.byte	0x1e
 2052 0e4a 26       		.uleb128 0x26
 2053 0e4b 610A0000 		.4byte	.LASF227
 2054 0e4f 610A0000 		.4byte	.LASF227
 2055 0e53 05       		.byte	0x5
 2056 0e54 AB       		.byte	0xab
 2057 0e55 26       		.uleb128 0x26
 2058 0e56 EB070000 		.4byte	.LASF228
 2059 0e5a EB070000 		.4byte	.LASF228
 2060 0e5e 05       		.byte	0x5
 2061 0e5f AD       		.byte	0xad
 2062 0e60 26       		.uleb128 0x26
 2063 0e61 F3090000 		.4byte	.LASF229
 2064 0e65 F3090000 		.4byte	.LASF229
 2065 0e69 11       		.byte	0x11
 2066 0e6a 4B       		.byte	0x4b
 2067 0e6b 26       		.uleb128 0x26
 2068 0e6c F30B0000 		.4byte	.LASF230
 2069 0e70 F30B0000 		.4byte	.LASF230
 2070 0e74 05       		.byte	0x5
 2071 0e75 B3       		.byte	0xb3
 2072 0e76 26       		.uleb128 0x26
 2073 0e77 96090000 		.4byte	.LASF231
 2074 0e7b 96090000 		.4byte	.LASF231
 2075 0e7f 05       		.byte	0x5
 2076 0e80 B5       		.byte	0xb5
 2077 0e81 00       		.byte	0
 2078              		.section	.debug_abbrev,"",%progbits
 2079              	.Ldebug_abbrev0:
 2080 0000 01       		.uleb128 0x1
 2081 0001 11       		.uleb128 0x11
 2082 0002 01       		.byte	0x1
 2083 0003 25       		.uleb128 0x25
 2084 0004 0E       		.uleb128 0xe
 2085 0005 13       		.uleb128 0x13
 2086 0006 0B       		.uleb128 0xb
 2087 0007 03       		.uleb128 0x3
 2088 0008 0E       		.uleb128 0xe
 2089 0009 1B       		.uleb128 0x1b
 2090 000a 0E       		.uleb128 0xe
 2091 000b 55       		.uleb128 0x55
 2092 000c 17       		.uleb128 0x17
 2093 000d 11       		.uleb128 0x11
 2094 000e 01       		.uleb128 0x1
 2095 000f 10       		.uleb128 0x10
 2096 0010 17       		.uleb128 0x17
 2097 0011 00       		.byte	0
 2098 0012 00       		.byte	0
 2099 0013 02       		.uleb128 0x2
 2100 0014 24       		.uleb128 0x24
 2101 0015 00       		.byte	0
 2102 0016 0B       		.uleb128 0xb
 2103 0017 0B       		.uleb128 0xb
 2104 0018 3E       		.uleb128 0x3e
 2105 0019 0B       		.uleb128 0xb
ARM GAS  C:\Users\IDONNO~1\AppData\Local\Temp\ccniybLG.s 			page 38


 2106 001a 03       		.uleb128 0x3
 2107 001b 0E       		.uleb128 0xe
 2108 001c 00       		.byte	0
 2109 001d 00       		.byte	0
 2110 001e 03       		.uleb128 0x3
 2111 001f 16       		.uleb128 0x16
 2112 0020 00       		.byte	0
 2113 0021 03       		.uleb128 0x3
 2114 0022 0E       		.uleb128 0xe
 2115 0023 3A       		.uleb128 0x3a
 2116 0024 0B       		.uleb128 0xb
 2117 0025 3B       		.uleb128 0x3b
 2118 0026 0B       		.uleb128 0xb
 2119 0027 49       		.uleb128 0x49
 2120 0028 13       		.uleb128 0x13
 2121 0029 00       		.byte	0
 2122 002a 00       		.byte	0
 2123 002b 04       		.uleb128 0x4
 2124 002c 24       		.uleb128 0x24
 2125 002d 00       		.byte	0
 2126 002e 0B       		.uleb128 0xb
 2127 002f 0B       		.uleb128 0xb
 2128 0030 3E       		.uleb128 0x3e
 2129 0031 0B       		.uleb128 0xb
 2130 0032 03       		.uleb128 0x3
 2131 0033 08       		.uleb128 0x8
 2132 0034 00       		.byte	0
 2133 0035 00       		.byte	0
 2134 0036 05       		.uleb128 0x5
 2135 0037 04       		.uleb128 0x4
 2136 0038 01       		.byte	0x1
 2137 0039 0B       		.uleb128 0xb
 2138 003a 0B       		.uleb128 0xb
 2139 003b 49       		.uleb128 0x49
 2140 003c 13       		.uleb128 0x13
 2141 003d 3A       		.uleb128 0x3a
 2142 003e 0B       		.uleb128 0xb
 2143 003f 3B       		.uleb128 0x3b
 2144 0040 0B       		.uleb128 0xb
 2145 0041 01       		.uleb128 0x1
 2146 0042 13       		.uleb128 0x13
 2147 0043 00       		.byte	0
 2148 0044 00       		.byte	0
 2149 0045 06       		.uleb128 0x6
 2150 0046 28       		.uleb128 0x28
 2151 0047 00       		.byte	0
 2152 0048 03       		.uleb128 0x3
 2153 0049 0E       		.uleb128 0xe
 2154 004a 1C       		.uleb128 0x1c
 2155 004b 0B       		.uleb128 0xb
 2156 004c 00       		.byte	0
 2157 004d 00       		.byte	0
 2158 004e 07       		.uleb128 0x7
 2159 004f 13       		.uleb128 0x13
 2160 0050 01       		.byte	0x1
 2161 0051 0B       		.uleb128 0xb
 2162 0052 0B       		.uleb128 0xb
ARM GAS  C:\Users\IDONNO~1\AppData\Local\Temp\ccniybLG.s 			page 39


 2163 0053 3A       		.uleb128 0x3a
 2164 0054 0B       		.uleb128 0xb
 2165 0055 3B       		.uleb128 0x3b
 2166 0056 0B       		.uleb128 0xb
 2167 0057 01       		.uleb128 0x1
 2168 0058 13       		.uleb128 0x13
 2169 0059 00       		.byte	0
 2170 005a 00       		.byte	0
 2171 005b 08       		.uleb128 0x8
 2172 005c 0D       		.uleb128 0xd
 2173 005d 00       		.byte	0
 2174 005e 03       		.uleb128 0x3
 2175 005f 0E       		.uleb128 0xe
 2176 0060 3A       		.uleb128 0x3a
 2177 0061 0B       		.uleb128 0xb
 2178 0062 3B       		.uleb128 0x3b
 2179 0063 0B       		.uleb128 0xb
 2180 0064 49       		.uleb128 0x49
 2181 0065 13       		.uleb128 0x13
 2182 0066 38       		.uleb128 0x38
 2183 0067 0B       		.uleb128 0xb
 2184 0068 00       		.byte	0
 2185 0069 00       		.byte	0
 2186 006a 09       		.uleb128 0x9
 2187 006b 01       		.uleb128 0x1
 2188 006c 01       		.byte	0x1
 2189 006d 49       		.uleb128 0x49
 2190 006e 13       		.uleb128 0x13
 2191 006f 01       		.uleb128 0x1
 2192 0070 13       		.uleb128 0x13
 2193 0071 00       		.byte	0
 2194 0072 00       		.byte	0
 2195 0073 0A       		.uleb128 0xa
 2196 0074 21       		.uleb128 0x21
 2197 0075 00       		.byte	0
 2198 0076 49       		.uleb128 0x49
 2199 0077 13       		.uleb128 0x13
 2200 0078 2F       		.uleb128 0x2f
 2201 0079 0B       		.uleb128 0xb
 2202 007a 00       		.byte	0
 2203 007b 00       		.byte	0
 2204 007c 0B       		.uleb128 0xb
 2205 007d 0D       		.uleb128 0xd
 2206 007e 00       		.byte	0
 2207 007f 03       		.uleb128 0x3
 2208 0080 08       		.uleb128 0x8
 2209 0081 3A       		.uleb128 0x3a
 2210 0082 0B       		.uleb128 0xb
 2211 0083 3B       		.uleb128 0x3b
 2212 0084 0B       		.uleb128 0xb
 2213 0085 49       		.uleb128 0x49
 2214 0086 13       		.uleb128 0x13
 2215 0087 38       		.uleb128 0x38
 2216 0088 0B       		.uleb128 0xb
 2217 0089 00       		.byte	0
 2218 008a 00       		.byte	0
 2219 008b 0C       		.uleb128 0xc
ARM GAS  C:\Users\IDONNO~1\AppData\Local\Temp\ccniybLG.s 			page 40


 2220 008c 35       		.uleb128 0x35
 2221 008d 00       		.byte	0
 2222 008e 49       		.uleb128 0x49
 2223 008f 13       		.uleb128 0x13
 2224 0090 00       		.byte	0
 2225 0091 00       		.byte	0
 2226 0092 0D       		.uleb128 0xd
 2227 0093 13       		.uleb128 0x13
 2228 0094 01       		.byte	0x1
 2229 0095 03       		.uleb128 0x3
 2230 0096 0E       		.uleb128 0xe
 2231 0097 0B       		.uleb128 0xb
 2232 0098 0B       		.uleb128 0xb
 2233 0099 3A       		.uleb128 0x3a
 2234 009a 0B       		.uleb128 0xb
 2235 009b 3B       		.uleb128 0x3b
 2236 009c 0B       		.uleb128 0xb
 2237 009d 01       		.uleb128 0x1
 2238 009e 13       		.uleb128 0x13
 2239 009f 00       		.byte	0
 2240 00a0 00       		.byte	0
 2241 00a1 0E       		.uleb128 0xe
 2242 00a2 0D       		.uleb128 0xd
 2243 00a3 00       		.byte	0
 2244 00a4 03       		.uleb128 0x3
 2245 00a5 08       		.uleb128 0x8
 2246 00a6 3A       		.uleb128 0x3a
 2247 00a7 0B       		.uleb128 0xb
 2248 00a8 3B       		.uleb128 0x3b
 2249 00a9 05       		.uleb128 0x5
 2250 00aa 49       		.uleb128 0x49
 2251 00ab 13       		.uleb128 0x13
 2252 00ac 38       		.uleb128 0x38
 2253 00ad 0B       		.uleb128 0xb
 2254 00ae 00       		.byte	0
 2255 00af 00       		.byte	0
 2256 00b0 0F       		.uleb128 0xf
 2257 00b1 0D       		.uleb128 0xd
 2258 00b2 00       		.byte	0
 2259 00b3 03       		.uleb128 0x3
 2260 00b4 0E       		.uleb128 0xe
 2261 00b5 3A       		.uleb128 0x3a
 2262 00b6 0B       		.uleb128 0xb
 2263 00b7 3B       		.uleb128 0x3b
 2264 00b8 05       		.uleb128 0x5
 2265 00b9 49       		.uleb128 0x49
 2266 00ba 13       		.uleb128 0x13
 2267 00bb 38       		.uleb128 0x38
 2268 00bc 0B       		.uleb128 0xb
 2269 00bd 00       		.byte	0
 2270 00be 00       		.byte	0
 2271 00bf 10       		.uleb128 0x10
 2272 00c0 0F       		.uleb128 0xf
 2273 00c1 00       		.byte	0
 2274 00c2 0B       		.uleb128 0xb
 2275 00c3 0B       		.uleb128 0xb
 2276 00c4 49       		.uleb128 0x49
ARM GAS  C:\Users\IDONNO~1\AppData\Local\Temp\ccniybLG.s 			page 41


 2277 00c5 13       		.uleb128 0x13
 2278 00c6 00       		.byte	0
 2279 00c7 00       		.byte	0
 2280 00c8 11       		.uleb128 0x11
 2281 00c9 13       		.uleb128 0x13
 2282 00ca 01       		.byte	0x1
 2283 00cb 03       		.uleb128 0x3
 2284 00cc 0E       		.uleb128 0xe
 2285 00cd 0B       		.uleb128 0xb
 2286 00ce 0B       		.uleb128 0xb
 2287 00cf 3A       		.uleb128 0x3a
 2288 00d0 0B       		.uleb128 0xb
 2289 00d1 3B       		.uleb128 0x3b
 2290 00d2 05       		.uleb128 0x5
 2291 00d3 01       		.uleb128 0x1
 2292 00d4 13       		.uleb128 0x13
 2293 00d5 00       		.byte	0
 2294 00d6 00       		.byte	0
 2295 00d7 12       		.uleb128 0x12
 2296 00d8 15       		.uleb128 0x15
 2297 00d9 01       		.byte	0x1
 2298 00da 27       		.uleb128 0x27
 2299 00db 19       		.uleb128 0x19
 2300 00dc 01       		.uleb128 0x1
 2301 00dd 13       		.uleb128 0x13
 2302 00de 00       		.byte	0
 2303 00df 00       		.byte	0
 2304 00e0 13       		.uleb128 0x13
 2305 00e1 05       		.uleb128 0x5
 2306 00e2 00       		.byte	0
 2307 00e3 49       		.uleb128 0x49
 2308 00e4 13       		.uleb128 0x13
 2309 00e5 00       		.byte	0
 2310 00e6 00       		.byte	0
 2311 00e7 14       		.uleb128 0x14
 2312 00e8 0F       		.uleb128 0xf
 2313 00e9 00       		.byte	0
 2314 00ea 0B       		.uleb128 0xb
 2315 00eb 0B       		.uleb128 0xb
 2316 00ec 00       		.byte	0
 2317 00ed 00       		.byte	0
 2318 00ee 15       		.uleb128 0x15
 2319 00ef 13       		.uleb128 0x13
 2320 00f0 01       		.byte	0x1
 2321 00f1 03       		.uleb128 0x3
 2322 00f2 0E       		.uleb128 0xe
 2323 00f3 0B       		.uleb128 0xb
 2324 00f4 05       		.uleb128 0x5
 2325 00f5 3A       		.uleb128 0x3a
 2326 00f6 0B       		.uleb128 0xb
 2327 00f7 3B       		.uleb128 0x3b
 2328 00f8 05       		.uleb128 0x5
 2329 00f9 01       		.uleb128 0x1
 2330 00fa 13       		.uleb128 0x13
 2331 00fb 00       		.byte	0
 2332 00fc 00       		.byte	0
 2333 00fd 16       		.uleb128 0x16
ARM GAS  C:\Users\IDONNO~1\AppData\Local\Temp\ccniybLG.s 			page 42


 2334 00fe 17       		.uleb128 0x17
 2335 00ff 01       		.byte	0x1
 2336 0100 0B       		.uleb128 0xb
 2337 0101 0B       		.uleb128 0xb
 2338 0102 3A       		.uleb128 0x3a
 2339 0103 0B       		.uleb128 0xb
 2340 0104 3B       		.uleb128 0x3b
 2341 0105 0B       		.uleb128 0xb
 2342 0106 01       		.uleb128 0x1
 2343 0107 13       		.uleb128 0x13
 2344 0108 00       		.byte	0
 2345 0109 00       		.byte	0
 2346 010a 17       		.uleb128 0x17
 2347 010b 0D       		.uleb128 0xd
 2348 010c 00       		.byte	0
 2349 010d 03       		.uleb128 0x3
 2350 010e 0E       		.uleb128 0xe
 2351 010f 3A       		.uleb128 0x3a
 2352 0110 0B       		.uleb128 0xb
 2353 0111 3B       		.uleb128 0x3b
 2354 0112 05       		.uleb128 0x5
 2355 0113 49       		.uleb128 0x49
 2356 0114 13       		.uleb128 0x13
 2357 0115 00       		.byte	0
 2358 0116 00       		.byte	0
 2359 0117 18       		.uleb128 0x18
 2360 0118 26       		.uleb128 0x26
 2361 0119 00       		.byte	0
 2362 011a 49       		.uleb128 0x49
 2363 011b 13       		.uleb128 0x13
 2364 011c 00       		.byte	0
 2365 011d 00       		.byte	0
 2366 011e 19       		.uleb128 0x19
 2367 011f 2E       		.uleb128 0x2e
 2368 0120 00       		.byte	0
 2369 0121 3F       		.uleb128 0x3f
 2370 0122 19       		.uleb128 0x19
 2371 0123 03       		.uleb128 0x3
 2372 0124 0E       		.uleb128 0xe
 2373 0125 3A       		.uleb128 0x3a
 2374 0126 0B       		.uleb128 0xb
 2375 0127 3B       		.uleb128 0x3b
 2376 0128 0B       		.uleb128 0xb
 2377 0129 27       		.uleb128 0x27
 2378 012a 19       		.uleb128 0x19
 2379 012b 49       		.uleb128 0x49
 2380 012c 13       		.uleb128 0x13
 2381 012d 11       		.uleb128 0x11
 2382 012e 01       		.uleb128 0x1
 2383 012f 12       		.uleb128 0x12
 2384 0130 06       		.uleb128 0x6
 2385 0131 40       		.uleb128 0x40
 2386 0132 18       		.uleb128 0x18
 2387 0133 9742     		.uleb128 0x2117
 2388 0135 19       		.uleb128 0x19
 2389 0136 00       		.byte	0
 2390 0137 00       		.byte	0
ARM GAS  C:\Users\IDONNO~1\AppData\Local\Temp\ccniybLG.s 			page 43


 2391 0138 1A       		.uleb128 0x1a
 2392 0139 2E       		.uleb128 0x2e
 2393 013a 01       		.byte	0x1
 2394 013b 3F       		.uleb128 0x3f
 2395 013c 19       		.uleb128 0x19
 2396 013d 03       		.uleb128 0x3
 2397 013e 0E       		.uleb128 0xe
 2398 013f 3A       		.uleb128 0x3a
 2399 0140 0B       		.uleb128 0xb
 2400 0141 3B       		.uleb128 0x3b
 2401 0142 0B       		.uleb128 0xb
 2402 0143 27       		.uleb128 0x27
 2403 0144 19       		.uleb128 0x19
 2404 0145 11       		.uleb128 0x11
 2405 0146 01       		.uleb128 0x1
 2406 0147 12       		.uleb128 0x12
 2407 0148 06       		.uleb128 0x6
 2408 0149 40       		.uleb128 0x40
 2409 014a 18       		.uleb128 0x18
 2410 014b 9742     		.uleb128 0x2117
 2411 014d 19       		.uleb128 0x19
 2412 014e 01       		.uleb128 0x1
 2413 014f 13       		.uleb128 0x13
 2414 0150 00       		.byte	0
 2415 0151 00       		.byte	0
 2416 0152 1B       		.uleb128 0x1b
 2417 0153 05       		.uleb128 0x5
 2418 0154 00       		.byte	0
 2419 0155 03       		.uleb128 0x3
 2420 0156 0E       		.uleb128 0xe
 2421 0157 3A       		.uleb128 0x3a
 2422 0158 0B       		.uleb128 0xb
 2423 0159 3B       		.uleb128 0x3b
 2424 015a 0B       		.uleb128 0xb
 2425 015b 49       		.uleb128 0x49
 2426 015c 13       		.uleb128 0x13
 2427 015d 02       		.uleb128 0x2
 2428 015e 17       		.uleb128 0x17
 2429 015f 00       		.byte	0
 2430 0160 00       		.byte	0
 2431 0161 1C       		.uleb128 0x1c
 2432 0162 898201   		.uleb128 0x4109
 2433 0165 01       		.byte	0x1
 2434 0166 11       		.uleb128 0x11
 2435 0167 01       		.uleb128 0x1
 2436 0168 31       		.uleb128 0x31
 2437 0169 13       		.uleb128 0x13
 2438 016a 01       		.uleb128 0x1
 2439 016b 13       		.uleb128 0x13
 2440 016c 00       		.byte	0
 2441 016d 00       		.byte	0
 2442 016e 1D       		.uleb128 0x1d
 2443 016f 8A8201   		.uleb128 0x410a
 2444 0172 00       		.byte	0
 2445 0173 02       		.uleb128 0x2
 2446 0174 18       		.uleb128 0x18
 2447 0175 9142     		.uleb128 0x2111
ARM GAS  C:\Users\IDONNO~1\AppData\Local\Temp\ccniybLG.s 			page 44


 2448 0177 18       		.uleb128 0x18
 2449 0178 00       		.byte	0
 2450 0179 00       		.byte	0
 2451 017a 1E       		.uleb128 0x1e
 2452 017b 898201   		.uleb128 0x4109
 2453 017e 00       		.byte	0
 2454 017f 11       		.uleb128 0x11
 2455 0180 01       		.uleb128 0x1
 2456 0181 31       		.uleb128 0x31
 2457 0182 13       		.uleb128 0x13
 2458 0183 00       		.byte	0
 2459 0184 00       		.byte	0
 2460 0185 1F       		.uleb128 0x1f
 2461 0186 898201   		.uleb128 0x4109
 2462 0189 01       		.byte	0x1
 2463 018a 11       		.uleb128 0x11
 2464 018b 01       		.uleb128 0x1
 2465 018c 9542     		.uleb128 0x2115
 2466 018e 19       		.uleb128 0x19
 2467 018f 31       		.uleb128 0x31
 2468 0190 13       		.uleb128 0x13
 2469 0191 00       		.byte	0
 2470 0192 00       		.byte	0
 2471 0193 20       		.uleb128 0x20
 2472 0194 898201   		.uleb128 0x4109
 2473 0197 00       		.byte	0
 2474 0198 11       		.uleb128 0x11
 2475 0199 01       		.uleb128 0x1
 2476 019a 9542     		.uleb128 0x2115
 2477 019c 19       		.uleb128 0x19
 2478 019d 31       		.uleb128 0x31
 2479 019e 13       		.uleb128 0x13
 2480 019f 00       		.byte	0
 2481 01a0 00       		.byte	0
 2482 01a1 21       		.uleb128 0x21
 2483 01a2 898201   		.uleb128 0x4109
 2484 01a5 01       		.byte	0x1
 2485 01a6 11       		.uleb128 0x11
 2486 01a7 01       		.uleb128 0x1
 2487 01a8 9542     		.uleb128 0x2115
 2488 01aa 19       		.uleb128 0x19
 2489 01ab 31       		.uleb128 0x31
 2490 01ac 13       		.uleb128 0x13
 2491 01ad 01       		.uleb128 0x1
 2492 01ae 13       		.uleb128 0x13
 2493 01af 00       		.byte	0
 2494 01b0 00       		.byte	0
 2495 01b1 22       		.uleb128 0x22
 2496 01b2 34       		.uleb128 0x34
 2497 01b3 00       		.byte	0
 2498 01b4 03       		.uleb128 0x3
 2499 01b5 0E       		.uleb128 0xe
 2500 01b6 3A       		.uleb128 0x3a
 2501 01b7 0B       		.uleb128 0xb
 2502 01b8 3B       		.uleb128 0x3b
 2503 01b9 0B       		.uleb128 0xb
 2504 01ba 49       		.uleb128 0x49
ARM GAS  C:\Users\IDONNO~1\AppData\Local\Temp\ccniybLG.s 			page 45


 2505 01bb 13       		.uleb128 0x13
 2506 01bc 02       		.uleb128 0x2
 2507 01bd 18       		.uleb128 0x18
 2508 01be 00       		.byte	0
 2509 01bf 00       		.byte	0
 2510 01c0 23       		.uleb128 0x23
 2511 01c1 34       		.uleb128 0x34
 2512 01c2 00       		.byte	0
 2513 01c3 03       		.uleb128 0x3
 2514 01c4 0E       		.uleb128 0xe
 2515 01c5 3A       		.uleb128 0x3a
 2516 01c6 0B       		.uleb128 0xb
 2517 01c7 3B       		.uleb128 0x3b
 2518 01c8 05       		.uleb128 0x5
 2519 01c9 49       		.uleb128 0x49
 2520 01ca 13       		.uleb128 0x13
 2521 01cb 3F       		.uleb128 0x3f
 2522 01cc 19       		.uleb128 0x19
 2523 01cd 3C       		.uleb128 0x3c
 2524 01ce 19       		.uleb128 0x19
 2525 01cf 00       		.byte	0
 2526 01d0 00       		.byte	0
 2527 01d1 24       		.uleb128 0x24
 2528 01d2 34       		.uleb128 0x34
 2529 01d3 00       		.byte	0
 2530 01d4 03       		.uleb128 0x3
 2531 01d5 08       		.uleb128 0x8
 2532 01d6 3A       		.uleb128 0x3a
 2533 01d7 0B       		.uleb128 0xb
 2534 01d8 3B       		.uleb128 0x3b
 2535 01d9 05       		.uleb128 0x5
 2536 01da 49       		.uleb128 0x49
 2537 01db 13       		.uleb128 0x13
 2538 01dc 3F       		.uleb128 0x3f
 2539 01dd 19       		.uleb128 0x19
 2540 01de 3C       		.uleb128 0x3c
 2541 01df 19       		.uleb128 0x19
 2542 01e0 00       		.byte	0
 2543 01e1 00       		.byte	0
 2544 01e2 25       		.uleb128 0x25
 2545 01e3 2E       		.uleb128 0x2e
 2546 01e4 00       		.byte	0
 2547 01e5 3F       		.uleb128 0x3f
 2548 01e6 19       		.uleb128 0x19
 2549 01e7 3C       		.uleb128 0x3c
 2550 01e8 19       		.uleb128 0x19
 2551 01e9 6E       		.uleb128 0x6e
 2552 01ea 0E       		.uleb128 0xe
 2553 01eb 03       		.uleb128 0x3
 2554 01ec 0E       		.uleb128 0xe
 2555 01ed 00       		.byte	0
 2556 01ee 00       		.byte	0
 2557 01ef 26       		.uleb128 0x26
 2558 01f0 2E       		.uleb128 0x2e
 2559 01f1 00       		.byte	0
 2560 01f2 3F       		.uleb128 0x3f
 2561 01f3 19       		.uleb128 0x19
ARM GAS  C:\Users\IDONNO~1\AppData\Local\Temp\ccniybLG.s 			page 46


 2562 01f4 3C       		.uleb128 0x3c
 2563 01f5 19       		.uleb128 0x19
 2564 01f6 6E       		.uleb128 0x6e
 2565 01f7 0E       		.uleb128 0xe
 2566 01f8 03       		.uleb128 0x3
 2567 01f9 0E       		.uleb128 0xe
 2568 01fa 3A       		.uleb128 0x3a
 2569 01fb 0B       		.uleb128 0xb
 2570 01fc 3B       		.uleb128 0x3b
 2571 01fd 0B       		.uleb128 0xb
 2572 01fe 00       		.byte	0
 2573 01ff 00       		.byte	0
 2574 0200 00       		.byte	0
 2575              		.section	.debug_loc,"",%progbits
 2576              	.Ldebug_loc0:
 2577              	.LLST0:
 2578 0000 00000000 		.4byte	.LVL0
 2579 0004 0A000000 		.4byte	.LVL1
 2580 0008 0100     		.2byte	0x1
 2581 000a 50       		.byte	0x50
 2582 000b 0A000000 		.4byte	.LVL1
 2583 000f 0D000000 		.4byte	.LVL2-1
 2584 0013 0100     		.2byte	0x1
 2585 0015 51       		.byte	0x51
 2586 0016 0D000000 		.4byte	.LVL2-1
 2587 001a 3C000000 		.4byte	.LFE258
 2588 001e 0400     		.2byte	0x4
 2589 0020 F3       		.byte	0xf3
 2590 0021 01       		.uleb128 0x1
 2591 0022 50       		.byte	0x50
 2592 0023 9F       		.byte	0x9f
 2593 0024 00000000 		.4byte	0
 2594 0028 00000000 		.4byte	0
 2595              	.LLST1:
 2596 002c 00000000 		.4byte	.LVL8
 2597 0030 05000000 		.4byte	.LVL9-1
 2598 0034 0100     		.2byte	0x1
 2599 0036 50       		.byte	0x50
 2600 0037 05000000 		.4byte	.LVL9-1
 2601 003b 78000000 		.4byte	.LFE256
 2602 003f 0400     		.2byte	0x4
 2603 0041 F3       		.byte	0xf3
 2604 0042 01       		.uleb128 0x1
 2605 0043 50       		.byte	0x50
 2606 0044 9F       		.byte	0x9f
 2607 0045 00000000 		.4byte	0
 2608 0049 00000000 		.4byte	0
 2609              		.section	.debug_aranges,"",%progbits
 2610 0000 2C000000 		.4byte	0x2c
 2611 0004 0200     		.2byte	0x2
 2612 0006 00000000 		.4byte	.Ldebug_info0
 2613 000a 04       		.byte	0x4
 2614 000b 00       		.byte	0
 2615 000c 0000     		.2byte	0
 2616 000e 0000     		.2byte	0
 2617 0010 00000000 		.4byte	.LFB257
 2618 0014 08000000 		.4byte	.LFE257-.LFB257
ARM GAS  C:\Users\IDONNO~1\AppData\Local\Temp\ccniybLG.s 			page 47


 2619 0018 00000000 		.4byte	.LFB258
 2620 001c 3C000000 		.4byte	.LFE258-.LFB258
 2621 0020 00000000 		.4byte	.LFB256
 2622 0024 78000000 		.4byte	.LFE256-.LFB256
 2623 0028 00000000 		.4byte	0
 2624 002c 00000000 		.4byte	0
 2625              		.section	.debug_ranges,"",%progbits
 2626              	.Ldebug_ranges0:
 2627 0000 00000000 		.4byte	.LFB257
 2628 0004 08000000 		.4byte	.LFE257
 2629 0008 00000000 		.4byte	.LFB258
 2630 000c 3C000000 		.4byte	.LFE258
 2631 0010 00000000 		.4byte	.LFB256
 2632 0014 78000000 		.4byte	.LFE256
 2633 0018 00000000 		.4byte	0
 2634 001c 00000000 		.4byte	0
 2635              		.section	.debug_line,"",%progbits
 2636              	.Ldebug_line0:
 2637 0000 1F030000 		.section	.debug_str,"MS",%progbits,1
 2637      0200AC02 
 2637      00000201 
 2637      FB0E0D00 
 2637      01010101 
 2638              	.LASF163:
 2639 0000 63685F74 		.ascii	"ch_threads_list\000"
 2639      68726561 
 2639      64735F6C 
 2639      69737400 
 2640              	.LASF164:
 2641 0010 74687265 		.ascii	"threads_queue_t\000"
 2641      6164735F 
 2641      71756575 
 2641      655F7400 
 2642              	.LASF120:
 2643 0020 73656E64 		.ascii	"send_can_status\000"
 2643      5F63616E 
 2643      5F737461 
 2643      74757300 
 2644              	.LASF98:
 2645 0030 4144435F 		.ascii	"ADC_CTRL_TYPE_DUTY_REV_CENTER\000"
 2645      4354524C 
 2645      5F545950 
 2645      455F4455 
 2645      54595F52 
 2646              	.LASF199:
 2647 004e 746D5F63 		.ascii	"tm_calibration_t\000"
 2647      616C6962 
 2647      72617469 
 2647      6F6E5F74 
 2647      00
 2648              	.LASF152:
 2649 005f 705F7469 		.ascii	"p_time\000"
 2649      6D6500
 2650              	.LASF218:
 2651 0066 636F6E66 		.ascii	"conf\000"
 2651      00
 2652              	.LASF214:
ARM GAS  C:\Users\IDONNO~1\AppData\Local\Temp\ccniybLG.s 			page 48


 2653 006b 63686172 		.ascii	"char\000"
 2653      00
 2654              	.LASF194:
 2655 0070 72656761 		.ascii	"regarm_t\000"
 2655      726D5F74 
 2655      00
 2656              	.LASF143:
 2657 0079 705F7072 		.ascii	"p_prio\000"
 2657      696F00
 2658              	.LASF111:
 2659 0080 4348554B 		.ascii	"CHUK_CTRL_TYPE_CURRENT_NOREV\000"
 2659      5F435452 
 2659      4C5F5459 
 2659      50455F43 
 2659      55525245 
 2660              	.LASF224:
 2661 009d 72666865 		.ascii	"rfhelp_update_conf\000"
 2661      6C705F75 
 2661      70646174 
 2661      655F636F 
 2661      6E6600
 2662              	.LASF139:
 2663 00b0 73797374 		.ascii	"systime_t\000"
 2663      696D655F 
 2663      7400
 2664              	.LASF217:
 2665 00ba 6170705F 		.ascii	"app_init\000"
 2665      696E6974 
 2665      00
 2666              	.LASF212:
 2667 00c3 6D5F6F77 		.ascii	"m_owner\000"
 2667      6E657200 
 2668              	.LASF208:
 2669 00cb 735F7175 		.ascii	"s_queue\000"
 2669      65756500 
 2670              	.LASF184:
 2671 00d3 76745F73 		.ascii	"vt_systime\000"
 2671      79737469 
 2671      6D6500
 2672              	.LASF154:
 2673 00de 705F6D73 		.ascii	"p_msgqueue\000"
 2673      67717565 
 2673      756500
 2674              	.LASF83:
 2675 00e9 73616665 		.ascii	"safe_start\000"
 2675      5F737461 
 2675      727400
 2676              	.LASF12:
 2677 00f4 756E7369 		.ascii	"unsigned int\000"
 2677      676E6564 
 2677      20696E74 
 2677      00
 2678              	.LASF123:
 2679 0101 6170705F 		.ascii	"app_ppm_conf\000"
 2679      70706D5F 
 2679      636F6E66 
 2679      00
ARM GAS  C:\Users\IDONNO~1\AppData\Local\Temp\ccniybLG.s 			page 49


 2680              	.LASF161:
 2681 010e 74687265 		.ascii	"threads_list_t\000"
 2681      6164735F 
 2681      6C697374 
 2681      5F7400
 2682              	.LASF153:
 2683 011d 705F7761 		.ascii	"p_waiting\000"
 2683      6974696E 
 2683      6700
 2684              	.LASF66:
 2685 0127 4150505F 		.ascii	"APP_CUSTOM\000"
 2685      43555354 
 2685      4F4D00
 2686              	.LASF5:
 2687 0132 5F5F696E 		.ascii	"__int32_t\000"
 2687      7433325F 
 2687      7400
 2688              	.LASF86:
 2689 013c 6D756C74 		.ascii	"multi_esc\000"
 2689      695F6573 
 2689      6300
 2690              	.LASF202:
 2691 0146 77746F62 		.ascii	"wtobjp\000"
 2691      6A7000
 2692              	.LASF29:
 2693 014d 4E52465F 		.ascii	"NRF_CRC\000"
 2693      43524300 
 2694              	.LASF191:
 2695 0155 76746C69 		.ascii	"vtlist\000"
 2695      737400
 2696              	.LASF47:
 2697 015c 73706565 		.ascii	"speed\000"
 2697      6400
 2698              	.LASF45:
 2699 0162 4E52465F 		.ascii	"NRF_RETR_DELAY_4000US\000"
 2699      52455452 
 2699      5F44454C 
 2699      41595F34 
 2699      30303055 
 2700              	.LASF21:
 2701 0178 4E52465F 		.ascii	"NRF_POWER_M18DBM\000"
 2701      504F5745 
 2701      525F4D31 
 2701      3844424D 
 2701      00
 2702              	.LASF70:
 2703 0189 50504D5F 		.ascii	"PPM_CTRL_TYPE_CURRENT_NOREV\000"
 2703      4354524C 
 2703      5F545950 
 2703      455F4355 
 2703      5252454E 
 2704              	.LASF206:
 2705 01a5 65776D61 		.ascii	"ewmask\000"
 2705      736B00
 2706              	.LASF74:
 2707 01ac 50504D5F 		.ascii	"PPM_CTRL_TYPE_PID\000"
 2707      4354524C 
ARM GAS  C:\Users\IDONNO~1\AppData\Local\Temp\ccniybLG.s 			page 50


 2707      5F545950 
 2707      455F5049 
 2707      4400
 2708              	.LASF38:
 2709 01be 4E52465F 		.ascii	"NRF_RETR_DELAY_2250US\000"
 2709      52455452 
 2709      5F44454C 
 2709      41595F32 
 2709      32353055 
 2710              	.LASF167:
 2711 01d4 63685F72 		.ascii	"ch_ready_list\000"
 2711      65616479 
 2711      5F6C6973 
 2711      7400
 2712              	.LASF59:
 2713 01e2 4150505F 		.ascii	"APP_PPM\000"
 2713      50504D00 
 2714              	.LASF174:
 2715 01ea 76746675 		.ascii	"vtfunc_t\000"
 2715      6E635F74 
 2715      00
 2716              	.LASF94:
 2717 01f3 4144435F 		.ascii	"ADC_CTRL_TYPE_CURRENT_NOREV_BRAKE_CENTER\000"
 2717      4354524C 
 2717      5F545950 
 2717      455F4355 
 2717      5252454E 
 2718              	.LASF95:
 2719 021c 4144435F 		.ascii	"ADC_CTRL_TYPE_CURRENT_NOREV_BRAKE_BUTTON\000"
 2719      4354524C 
 2719      5F545950 
 2719      455F4355 
 2719      5252454E 
 2720              	.LASF209:
 2721 0245 735F636E 		.ascii	"s_cnt\000"
 2721      7400
 2722              	.LASF186:
 2723 024b 63685F73 		.ascii	"ch_system_debug\000"
 2723      79737465 
 2723      6D5F6465 
 2723      62756700 
 2724              	.LASF69:
 2725 025b 50504D5F 		.ascii	"PPM_CTRL_TYPE_CURRENT\000"
 2725      4354524C 
 2725      5F545950 
 2725      455F4355 
 2725      5252454E 
 2726              	.LASF15:
 2727 0271 75696E74 		.ascii	"uint32_t\000"
 2727      33325F74 
 2727      00
 2728              	.LASF100:
 2729 027a 6164635F 		.ascii	"adc_control_type\000"
 2729      636F6E74 
 2729      726F6C5F 
 2729      74797065 
 2729      00
ARM GAS  C:\Users\IDONNO~1\AppData\Local\Temp\ccniybLG.s 			page 51


 2730              	.LASF114:
 2731 028b 72616D70 		.ascii	"ramp_time_neg\000"
 2731      5F74696D 
 2731      655F6E65 
 2731      6700
 2732              	.LASF127:
 2733 0299 6170705F 		.ascii	"app_nrf_conf\000"
 2733      6E72665F 
 2733      636F6E66 
 2733      00
 2734              	.LASF82:
 2735 02a6 6D656469 		.ascii	"median_filter\000"
 2735      616E5F66 
 2735      696C7465 
 2735      7200
 2736              	.LASF137:
 2737 02b4 6576656E 		.ascii	"eventmask_t\000"
 2737      746D6173 
 2737      6B5F7400 
 2738              	.LASF169:
 2739 02c0 725F7072 		.ascii	"r_prio\000"
 2739      696F00
 2740              	.LASF39:
 2741 02c7 4E52465F 		.ascii	"NRF_RETR_DELAY_2500US\000"
 2741      52455452 
 2741      5F44454C 
 2741      41595F32 
 2741      35303055 
 2742              	.LASF181:
 2743 02dd 76745F70 		.ascii	"vt_par\000"
 2743      617200
 2744              	.LASF49:
 2745 02e4 6372635F 		.ascii	"crc_type\000"
 2745      74797065 
 2745      00
 2746              	.LASF88:
 2747 02ed 666C6F61 		.ascii	"float\000"
 2747      7400
 2748              	.LASF67:
 2749 02f3 6170705F 		.ascii	"app_use\000"
 2749      75736500 
 2750              	.LASF33:
 2751 02fb 4E52465F 		.ascii	"NRF_RETR_DELAY_1000US\000"
 2751      52455452 
 2751      5F44454C 
 2751      41595F31 
 2751      30303055 
 2752              	.LASF79:
 2753 0311 68797374 		.ascii	"hyst\000"
 2753      00
 2754              	.LASF207:
 2755 0316 63685F73 		.ascii	"ch_semaphore\000"
 2755      656D6170 
 2755      686F7265 
 2755      00
 2756              	.LASF135:
 2757 0323 74707269 		.ascii	"tprio_t\000"
ARM GAS  C:\Users\IDONNO~1\AppData\Local\Temp\ccniybLG.s 			page 52


 2757      6F5F7400 
 2758              	.LASF176:
 2759 032b 63685F76 		.ascii	"ch_virtual_timer\000"
 2759      69727475 
 2759      616C5F74 
 2759      696D6572 
 2759      00
 2760              	.LASF11:
 2761 033c 6C6F6E67 		.ascii	"long long unsigned int\000"
 2761      206C6F6E 
 2761      6720756E 
 2761      7369676E 
 2761      65642069 
 2762              	.LASF46:
 2763 0353 4E52465F 		.ascii	"NRF_RETR_DELAY\000"
 2763      52455452 
 2763      5F44454C 
 2763      415900
 2764              	.LASF73:
 2765 0362 50504D5F 		.ascii	"PPM_CTRL_TYPE_DUTY_NOREV\000"
 2765      4354524C 
 2765      5F545950 
 2765      455F4455 
 2765      54595F4E 
 2766              	.LASF102:
 2767 037b 766F6C74 		.ascii	"voltage_end\000"
 2767      6167655F 
 2767      656E6400 
 2768              	.LASF138:
 2769 0387 636E745F 		.ascii	"cnt_t\000"
 2769      7400
 2770              	.LASF27:
 2771 038d 4E52465F 		.ascii	"NRF_CRC_1B\000"
 2771      4352435F 
 2771      314200
 2772              	.LASF57:
 2773 0398 6E72665F 		.ascii	"nrf_config\000"
 2773      636F6E66 
 2773      696700
 2774              	.LASF220:
 2775 03a3 6170705F 		.ascii	"app_ppm_configure\000"
 2775      70706D5F 
 2775      636F6E66 
 2775      69677572 
 2775      6500
 2776              	.LASF112:
 2777 03b5 6368756B 		.ascii	"chuk_control_type\000"
 2777      5F636F6E 
 2777      74726F6C 
 2777      5F747970 
 2777      6500
 2778              	.LASF104:
 2779 03c7 63635F62 		.ascii	"cc_button_inverted\000"
 2779      7574746F 
 2779      6E5F696E 
 2779      76657274 
 2779      656400
ARM GAS  C:\Users\IDONNO~1\AppData\Local\Temp\ccniybLG.s 			page 53


 2780              	.LASF183:
 2781 03da 63685F76 		.ascii	"ch_virtual_timers_list\000"
 2781      69727475 
 2781      616C5F74 
 2781      696D6572 
 2781      735F6C69 
 2782              	.LASF140:
 2783 03f1 74687265 		.ascii	"thread_t\000"
 2783      61645F74 
 2783      00
 2784              	.LASF75:
 2785 03fa 50504D5F 		.ascii	"PPM_CTRL_TYPE_PID_NOREV\000"
 2785      4354524C 
 2785      5F545950 
 2785      455F5049 
 2785      445F4E4F 
 2786              	.LASF113:
 2787 0412 72616D70 		.ascii	"ramp_time_pos\000"
 2787      5F74696D 
 2787      655F706F 
 2787      7300
 2788              	.LASF129:
 2789 0420 73697A65 		.ascii	"size_t\000"
 2789      5F7400
 2790              	.LASF200:
 2791 0427 7264796D 		.ascii	"rdymsg\000"
 2791      736700
 2792              	.LASF85:
 2793 042e 72706D5F 		.ascii	"rpm_lim_end\000"
 2793      6C696D5F 
 2793      656E6400 
 2794              	.LASF198:
 2795 043a 6F666673 		.ascii	"offset\000"
 2795      657400
 2796              	.LASF61:
 2797 0441 4150505F 		.ascii	"APP_UART\000"
 2797      55415254 
 2797      00
 2798              	.LASF56:
 2799 044a 5F426F6F 		.ascii	"_Bool\000"
 2799      6C00
 2800              	.LASF225:
 2801 0450 6E72665F 		.ascii	"nrf_driver_init\000"
 2801      64726976 
 2801      65725F69 
 2801      6E697400 
 2802              	.LASF232:
 2803 0460 474E5520 		.ascii	"GNU C99 5.4.1 20160919 (release) [ARM/embedded-5-br"
 2803      43393920 
 2803      352E342E 
 2803      31203230 
 2803      31363039 
 2804 0493 616E6368 		.ascii	"anch revision 240496] -mcpu=cortex-m4 -mfloat-abi=h"
 2804      20726576 
 2804      6973696F 
 2804      6E203234 
 2804      30343936 
ARM GAS  C:\Users\IDONNO~1\AppData\Local\Temp\ccniybLG.s 			page 54


 2805 04c6 61726420 		.ascii	"ard -mfpu=fpv4-sp-d16 -mno-thumb-interwork -mthumb "
 2805      2D6D6670 
 2805      753D6670 
 2805      76342D73 
 2805      702D6431 
 2806 04f9 2D676764 		.ascii	"-ggdb -O2 -std=gnu99 -fomit-frame-pointer -falign-f"
 2806      62202D4F 
 2806      32202D73 
 2806      74643D67 
 2806      6E753939 
 2807 052c 756E6374 		.ascii	"unctions=16 -ffunction-sections -fdata-sections -fn"
 2807      696F6E73 
 2807      3D313620 
 2807      2D666675 
 2807      6E637469 
 2808 055f 6F2D636F 		.ascii	"o-common -fsingle-precision-constant\000"
 2808      6D6D6F6E 
 2808      202D6673 
 2808      696E676C 
 2808      652D7072 
 2809              	.LASF28:
 2810 0584 4E52465F 		.ascii	"NRF_CRC_2B\000"
 2810      4352435F 
 2810      324200
 2811              	.LASF234:
 2812 058f 443A5C67 		.ascii	"D:\\git\\oroca_bldc_dev\\oroca_bldc_fw\\oroca_bldc_"
 2812      69745C6F 
 2812      726F6361 
 2812      5F626C64 
 2812      635F6465 
 2813 05be 63686962 		.ascii	"chibios\000"
 2813      696F7300 
 2814              	.LASF210:
 2815 05c6 63685F6D 		.ascii	"ch_mutex\000"
 2815      75746578 
 2815      00
 2816              	.LASF118:
 2817 05cf 74696D65 		.ascii	"timeout_msec\000"
 2817      6F75745F 
 2817      6D736563 
 2817      00
 2818              	.LASF10:
 2819 05dc 5F5F7569 		.ascii	"__uint64_t\000"
 2819      6E743634 
 2819      5F7400
 2820              	.LASF101:
 2821 05e7 766F6C74 		.ascii	"voltage_start\000"
 2821      6167655F 
 2821      73746172 
 2821      7400
 2822              	.LASF122:
 2823 05f5 6170705F 		.ascii	"app_to_use\000"
 2823      746F5F75 
 2823      736500
 2824              	.LASF147:
 2825 0600 705F6E61 		.ascii	"p_name\000"
 2825      6D6500
ARM GAS  C:\Users\IDONNO~1\AppData\Local\Temp\ccniybLG.s 			page 55


 2826              	.LASF50:
 2827 0607 72657472 		.ascii	"retry_delay\000"
 2827      795F6465 
 2827      6C617900 
 2828              	.LASF40:
 2829 0613 4E52465F 		.ascii	"NRF_RETR_DELAY_2750US\000"
 2829      52455452 
 2829      5F44454C 
 2829      41595F32 
 2829      37353055 
 2830              	.LASF128:
 2831 0629 6170705F 		.ascii	"app_configuration\000"
 2831      636F6E66 
 2831      69677572 
 2831      6174696F 
 2831      6E00
 2832              	.LASF78:
 2833 063b 7069645F 		.ascii	"pid_max_erpm\000"
 2833      6D61785F 
 2833      6572706D 
 2833      00
 2834              	.LASF179:
 2835 0648 76745F64 		.ascii	"vt_delta\000"
 2835      656C7461 
 2835      00
 2836              	.LASF60:
 2837 0651 4150505F 		.ascii	"APP_ADC\000"
 2837      41444300 
 2838              	.LASF13:
 2839 0659 75696E74 		.ascii	"uint8_t\000"
 2839      385F7400 
 2840              	.LASF171:
 2841 0661 725F6E65 		.ascii	"r_newer\000"
 2841      77657200 
 2842              	.LASF221:
 2843 0669 6170705F 		.ascii	"app_adc_configure\000"
 2843      6164635F 
 2843      636F6E66 
 2843      69677572 
 2843      6500
 2844              	.LASF132:
 2845 067b 74737461 		.ascii	"tstate_t\000"
 2845      74655F74 
 2845      00
 2846              	.LASF71:
 2847 0684 50504D5F 		.ascii	"PPM_CTRL_TYPE_CURRENT_NOREV_BRAKE\000"
 2847      4354524C 
 2847      5F545950 
 2847      455F4355 
 2847      5252454E 
 2848              	.LASF9:
 2849 06a6 6C6F6E67 		.ascii	"long long int\000"
 2849      206C6F6E 
 2849      6720696E 
 2849      7400
 2850              	.LASF146:
 2851 06b4 705F6F6C 		.ascii	"p_older\000"
ARM GAS  C:\Users\IDONNO~1\AppData\Local\Temp\ccniybLG.s 			page 56


 2851      64657200 
 2852              	.LASF148:
 2853 06bc 705F7374 		.ascii	"p_state\000"
 2853      61746500 
 2854              	.LASF68:
 2855 06c4 50504D5F 		.ascii	"PPM_CTRL_TYPE_NONE\000"
 2855      4354524C 
 2855      5F545950 
 2855      455F4E4F 
 2855      4E4500
 2856              	.LASF109:
 2857 06d7 4348554B 		.ascii	"CHUK_CTRL_TYPE_NONE\000"
 2857      5F435452 
 2857      4C5F5459 
 2857      50455F4E 
 2857      4F4E4500 
 2858              	.LASF159:
 2859 06eb 705F6D70 		.ascii	"p_mpool\000"
 2859      6F6F6C00 
 2860              	.LASF157:
 2861 06f3 705F6D74 		.ascii	"p_mtxlist\000"
 2861      786C6973 
 2861      7400
 2862              	.LASF58:
 2863 06fd 4150505F 		.ascii	"APP_NONE\000"
 2863      4E4F4E45 
 2863      00
 2864              	.LASF162:
 2865 0706 63685F74 		.ascii	"ch_thread\000"
 2865      68726561 
 2865      6400
 2866              	.LASF72:
 2867 0710 50504D5F 		.ascii	"PPM_CTRL_TYPE_DUTY\000"
 2867      4354524C 
 2867      5F545950 
 2867      455F4455 
 2867      545900
 2868              	.LASF117:
 2869 0723 636F6E74 		.ascii	"controller_id\000"
 2869      726F6C6C 
 2869      65725F69 
 2869      6400
 2870              	.LASF121:
 2871 0731 73656E64 		.ascii	"send_can_status_rate_hz\000"
 2871      5F63616E 
 2871      5F737461 
 2871      7475735F 
 2871      72617465 
 2872              	.LASF185:
 2873 0749 73797374 		.ascii	"system_debug_t\000"
 2873      656D5F64 
 2873      65627567 
 2873      5F7400
 2874              	.LASF65:
 2875 0758 4150505F 		.ascii	"APP_NRF\000"
 2875      4E524600 
 2876              	.LASF165:
ARM GAS  C:\Users\IDONNO~1\AppData\Local\Temp\ccniybLG.s 			page 57


 2877 0760 63685F74 		.ascii	"ch_threads_queue\000"
 2877      68726561 
 2877      64735F71 
 2877      75657565 
 2877      00
 2878              	.LASF105:
 2879 0771 7265765F 		.ascii	"rev_button_inverted\000"
 2879      62757474 
 2879      6F6E5F69 
 2879      6E766572 
 2879      74656400 
 2880              	.LASF81:
 2881 0785 70756C73 		.ascii	"pulse_end\000"
 2881      655F656E 
 2881      6400
 2882              	.LASF93:
 2883 078f 4144435F 		.ascii	"ADC_CTRL_TYPE_CURRENT_REV_BUTTON\000"
 2883      4354524C 
 2883      5F545950 
 2883      455F4355 
 2883      5252454E 
 2884              	.LASF168:
 2885 07b0 725F7175 		.ascii	"r_queue\000"
 2885      65756500 
 2886              	.LASF110:
 2887 07b8 4348554B 		.ascii	"CHUK_CTRL_TYPE_CURRENT\000"
 2887      5F435452 
 2887      4C5F5459 
 2887      50455F43 
 2887      55525245 
 2888              	.LASF136:
 2889 07cf 6D73675F 		.ascii	"msg_t\000"
 2889      7400
 2890              	.LASF44:
 2891 07d5 4E52465F 		.ascii	"NRF_RETR_DELAY_3750US\000"
 2891      52455452 
 2891      5F44454C 
 2891      41595F33 
 2891      37353055 
 2892              	.LASF228:
 2893 07eb 6170705F 		.ascii	"app_adc_start\000"
 2893      6164635F 
 2893      73746172 
 2893      7400
 2894              	.LASF196:
 2895 07f9 636F6E74 		.ascii	"context\000"
 2895      65787400 
 2896              	.LASF149:
 2897 0801 705F666C 		.ascii	"p_flags\000"
 2897      61677300 
 2898              	.LASF175:
 2899 0809 76697274 		.ascii	"virtual_timer_t\000"
 2899      75616C5F 
 2899      74696D65 
 2899      725F7400 
 2900              	.LASF92:
 2901 0819 4144435F 		.ascii	"ADC_CTRL_TYPE_CURRENT_REV_CENTER\000"
ARM GAS  C:\Users\IDONNO~1\AppData\Local\Temp\ccniybLG.s 			page 58


 2901      4354524C 
 2901      5F545950 
 2901      455F4355 
 2901      5252454E 
 2902              	.LASF107:
 2903 083a 75706461 		.ascii	"update_rate_hz\000"
 2903      74655F72 
 2903      6174655F 
 2903      687A00
 2904              	.LASF158:
 2905 0849 705F7265 		.ascii	"p_realprio\000"
 2905      616C7072 
 2905      696F00
 2906              	.LASF97:
 2907 0854 4144435F 		.ascii	"ADC_CTRL_TYPE_DUTY\000"
 2907      4354524C 
 2907      5F545950 
 2907      455F4455 
 2907      545900
 2908              	.LASF35:
 2909 0867 4E52465F 		.ascii	"NRF_RETR_DELAY_1500US\000"
 2909      52455452 
 2909      5F44454C 
 2909      41595F31 
 2909      35303055 
 2910              	.LASF134:
 2911 087d 74736C69 		.ascii	"tslices_t\000"
 2911      6365735F 
 2911      7400
 2912              	.LASF172:
 2913 0887 725F6F6C 		.ascii	"r_older\000"
 2913      64657200 
 2914              	.LASF41:
 2915 088f 4E52465F 		.ascii	"NRF_RETR_DELAY_3000US\000"
 2915      52455452 
 2915      5F44454C 
 2915      41595F33 
 2915      30303055 
 2916              	.LASF89:
 2917 08a5 70706D5F 		.ascii	"ppm_config\000"
 2917      636F6E66 
 2917      696700
 2918              	.LASF155:
 2919 08b0 705F6D73 		.ascii	"p_msg\000"
 2919      6700
 2920              	.LASF131:
 2921 08b6 746D6F64 		.ascii	"tmode_t\000"
 2921      655F7400 
 2922              	.LASF25:
 2923 08be 4E52465F 		.ascii	"NRF_POWER\000"
 2923      504F5745 
 2923      5200
 2924              	.LASF192:
 2925 08c8 6D61696E 		.ascii	"mainthread\000"
 2925      74687265 
 2925      616400
 2926              	.LASF226:
ARM GAS  C:\Users\IDONNO~1\AppData\Local\Temp\ccniybLG.s 			page 59


 2927 08d3 72666865 		.ascii	"rfhelp_restart\000"
 2927      6C705F72 
 2927      65737461 
 2927      727400
 2928              	.LASF3:
 2929 08e2 73686F72 		.ascii	"short unsigned int\000"
 2929      7420756E 
 2929      7369676E 
 2929      65642069 
 2929      6E7400
 2930              	.LASF126:
 2931 08f5 6170705F 		.ascii	"app_chuk_conf\000"
 2931      6368756B 
 2931      5F636F6E 
 2931      6600
 2932              	.LASF106:
 2933 0903 766F6C74 		.ascii	"voltage_inverted\000"
 2933      6167655F 
 2933      696E7665 
 2933      72746564 
 2933      00
 2934              	.LASF160:
 2935 0914 74687265 		.ascii	"thread_reference_t\000"
 2935      61645F72 
 2935      65666572 
 2935      656E6365 
 2935      5F7400
 2936              	.LASF26:
 2937 0927 4E52465F 		.ascii	"NRF_CRC_DISABLED\000"
 2937      4352435F 
 2937      44495341 
 2937      424C4544 
 2937      00
 2938              	.LASF130:
 2939 0938 7274636E 		.ascii	"rtcnt_t\000"
 2939      745F7400 
 2940              	.LASF52:
 2941 0940 6368616E 		.ascii	"channel\000"
 2941      6E656C00 
 2942              	.LASF23:
 2943 0948 4E52465F 		.ascii	"NRF_POWER_M6DBM\000"
 2943      504F5745 
 2943      525F4D36 
 2943      44424D00 
 2944              	.LASF22:
 2945 0958 4E52465F 		.ascii	"NRF_POWER_M12DBM\000"
 2945      504F5745 
 2945      525F4D31 
 2945      3244424D 
 2945      00
 2946              	.LASF80:
 2947 0969 70756C73 		.ascii	"pulse_start\000"
 2947      655F7374 
 2947      61727400 
 2948              	.LASF63:
 2949 0975 4150505F 		.ascii	"APP_ADC_UART\000"
 2949      4144435F 
ARM GAS  C:\Users\IDONNO~1\AppData\Local\Temp\ccniybLG.s 			page 60


 2949      55415254 
 2949      00
 2950              	.LASF2:
 2951 0982 73686F72 		.ascii	"short int\000"
 2951      7420696E 
 2951      7400
 2952              	.LASF173:
 2953 098c 725F6375 		.ascii	"r_current\000"
 2953      7272656E 
 2953      7400
 2954              	.LASF231:
 2955 0996 6170705F 		.ascii	"app_nunchuk_start\000"
 2955      6E756E63 
 2955      68756B5F 
 2955      73746172 
 2955      7400
 2956              	.LASF156:
 2957 09a8 705F6570 		.ascii	"p_epending\000"
 2957      656E6469 
 2957      6E6700
 2958              	.LASF211:
 2959 09b3 6D5F7175 		.ascii	"m_queue\000"
 2959      65756500 
 2960              	.LASF6:
 2961 09bb 6C6F6E67 		.ascii	"long int\000"
 2961      20696E74 
 2961      00
 2962              	.LASF197:
 2963 09c4 706F7274 		.ascii	"port_intctx\000"
 2963      5F696E74 
 2963      63747800 
 2964              	.LASF91:
 2965 09d0 4144435F 		.ascii	"ADC_CTRL_TYPE_CURRENT\000"
 2965      4354524C 
 2965      5F545950 
 2965      455F4355 
 2965      5252454E 
 2966              	.LASF219:
 2967 09e6 49544D5F 		.ascii	"ITM_RxBuffer\000"
 2967      52784275 
 2967      66666572 
 2967      00
 2968              	.LASF229:
 2969 09f3 68775F73 		.ascii	"hw_stop_i2c\000"
 2969      746F705F 
 2969      69326300 
 2970              	.LASF64:
 2971 09ff 4150505F 		.ascii	"APP_NUNCHUK\000"
 2971      4E554E43 
 2971      48554B00 
 2972              	.LASF189:
 2973 0a0b 63685F73 		.ascii	"ch_system\000"
 2973      79737465 
 2973      6D00
 2974              	.LASF96:
 2975 0a15 4144435F 		.ascii	"ADC_CTRL_TYPE_CURRENT_NOREV_BRAKE_ADC\000"
 2975      4354524C 
ARM GAS  C:\Users\IDONNO~1\AppData\Local\Temp\ccniybLG.s 			page 61


 2975      5F545950 
 2975      455F4355 
 2975      5252454E 
 2976              	.LASF141:
 2977 0a3b 705F6E65 		.ascii	"p_next\000"
 2977      787400
 2978              	.LASF16:
 2979 0a42 75696E74 		.ascii	"uint64_t\000"
 2979      36345F74 
 2979      00
 2980              	.LASF144:
 2981 0a4b 705F6374 		.ascii	"p_ctx\000"
 2981      7800
 2982              	.LASF190:
 2983 0a51 726C6973 		.ascii	"rlist\000"
 2983      7400
 2984              	.LASF4:
 2985 0a57 5F5F7569 		.ascii	"__uint8_t\000"
 2985      6E74385F 
 2985      7400
 2986              	.LASF227:
 2987 0a61 6170705F 		.ascii	"app_ppm_start\000"
 2987      70706D5F 
 2987      73746172 
 2987      7400
 2988              	.LASF30:
 2989 0a6f 4E52465F 		.ascii	"NRF_RETR_DELAY_250US\000"
 2989      52455452 
 2989      5F44454C 
 2989      41595F32 
 2989      35305553 
 2990              	.LASF36:
 2991 0a84 4E52465F 		.ascii	"NRF_RETR_DELAY_1750US\000"
 2991      52455452 
 2991      5F44454C 
 2991      41595F31 
 2991      37353055 
 2992              	.LASF42:
 2993 0a9a 4E52465F 		.ascii	"NRF_RETR_DELAY_3250US\000"
 2993      52455452 
 2993      5F44454C 
 2993      41595F33 
 2993      32353055 
 2994              	.LASF142:
 2995 0ab0 705F7072 		.ascii	"p_prev\000"
 2995      657600
 2996              	.LASF55:
 2997 0ab7 73697A65 		.ascii	"sizetype\000"
 2997      74797065 
 2997      00
 2998              	.LASF133:
 2999 0ac0 74726566 		.ascii	"trefs_t\000"
 2999      735F7400 
 3000              	.LASF8:
 3001 0ac8 6C6F6E67 		.ascii	"long unsigned int\000"
 3001      20756E73 
 3001      69676E65 
ARM GAS  C:\Users\IDONNO~1\AppData\Local\Temp\ccniybLG.s 			page 62


 3001      6420696E 
 3001      7400
 3002              	.LASF53:
 3003 0ada 61646472 		.ascii	"address\000"
 3003      65737300 
 3004              	.LASF166:
 3005 0ae2 72656164 		.ascii	"ready_list_t\000"
 3005      795F6C69 
 3005      73745F74 
 3005      00
 3006              	.LASF77:
 3007 0aef 6374726C 		.ascii	"ctrl_type\000"
 3007      5F747970 
 3007      6500
 3008              	.LASF14:
 3009 0af9 696E7433 		.ascii	"int32_t\000"
 3009      325F7400 
 3010              	.LASF193:
 3011 0b01 69646C65 		.ascii	"idle_thread_wa\000"
 3011      5F746872 
 3011      6561645F 
 3011      776100
 3012              	.LASF204:
 3013 0b10 77747365 		.ascii	"wtsemp\000"
 3013      6D7000
 3014              	.LASF236:
 3015 0b17 61707063 		.ascii	"appconf\000"
 3015      6F6E6600 
 3016              	.LASF31:
 3017 0b1f 4E52465F 		.ascii	"NRF_RETR_DELAY_500US\000"
 3017      52455452 
 3017      5F44454C 
 3017      41595F35 
 3017      30305553 
 3018              	.LASF215:
 3019 0b34 6D757465 		.ascii	"mutex_t\000"
 3019      785F7400 
 3020              	.LASF32:
 3021 0b3c 4E52465F 		.ascii	"NRF_RETR_DELAY_750US\000"
 3021      52455452 
 3021      5F44454C 
 3021      41595F37 
 3021      35305553 
 3022              	.LASF19:
 3023 0b51 4E52465F 		.ascii	"NRF_SPEED_2M\000"
 3023      53504545 
 3023      445F324D 
 3023      00
 3024              	.LASF1:
 3025 0b5e 756E7369 		.ascii	"unsigned char\000"
 3025      676E6564 
 3025      20636861 
 3025      7200
 3026              	.LASF125:
 3027 0b6c 6170705F 		.ascii	"app_uart_baudrate\000"
 3027      75617274 
 3027      5F626175 
ARM GAS  C:\Users\IDONNO~1\AppData\Local\Temp\ccniybLG.s 			page 63


 3027      64726174 
 3027      6500
 3028              	.LASF87:
 3029 0b7e 74635F6D 		.ascii	"tc_max_diff\000"
 3029      61785F64 
 3029      69666600 
 3030              	.LASF7:
 3031 0b8a 5F5F7569 		.ascii	"__uint32_t\000"
 3031      6E743332 
 3031      5F7400
 3032              	.LASF182:
 3033 0b95 76697274 		.ascii	"virtual_timers_list_t\000"
 3033      75616C5F 
 3033      74696D65 
 3033      72735F6C 
 3033      6973745F 
 3034              	.LASF150:
 3035 0bab 705F7265 		.ascii	"p_refs\000"
 3035      667300
 3036              	.LASF187:
 3037 0bb2 70616E69 		.ascii	"panic_msg\000"
 3037      635F6D73 
 3037      6700
 3038              	.LASF43:
 3039 0bbc 4E52465F 		.ascii	"NRF_RETR_DELAY_3500US\000"
 3039      52455452 
 3039      5F44454C 
 3039      41595F33 
 3039      35303055 
 3040              	.LASF103:
 3041 0bd2 7573655F 		.ascii	"use_filter\000"
 3041      66696C74 
 3041      657200
 3042              	.LASF116:
 3043 0bdd 6368756B 		.ascii	"chuk_config\000"
 3043      5F636F6E 
 3043      66696700 
 3044              	.LASF151:
 3045 0be9 705F7072 		.ascii	"p_preempt\000"
 3045      65656D70 
 3045      7400
 3046              	.LASF230:
 3047 0bf3 6170705F 		.ascii	"app_uartcomm_start\000"
 3047      75617274 
 3047      636F6D6D 
 3047      5F737461 
 3047      727400
 3048              	.LASF115:
 3049 0c06 73746963 		.ascii	"stick_erpm_per_s_in_cc\000"
 3049      6B5F6572 
 3049      706D5F70 
 3049      65725F73 
 3049      5F696E5F 
 3050              	.LASF84:
 3051 0c1d 72706D5F 		.ascii	"rpm_lim_start\000"
 3051      6C696D5F 
 3051      73746172 
ARM GAS  C:\Users\IDONNO~1\AppData\Local\Temp\ccniybLG.s 			page 64


 3051      7400
 3052              	.LASF177:
 3053 0c2b 76745F6E 		.ascii	"vt_next\000"
 3053      65787400 
 3054              	.LASF222:
 3055 0c33 6170705F 		.ascii	"app_uartcomm_configure\000"
 3055      75617274 
 3055      636F6D6D 
 3055      5F636F6E 
 3055      66696775 
 3056              	.LASF188:
 3057 0c4a 63685F73 		.ascii	"ch_system_t\000"
 3057      79737465 
 3057      6D5F7400 
 3058              	.LASF119:
 3059 0c56 74696D65 		.ascii	"timeout_brake_current\000"
 3059      6F75745F 
 3059      6272616B 
 3059      655F6375 
 3059      7272656E 
 3060              	.LASF54:
 3061 0c6c 73656E64 		.ascii	"send_crc_ack\000"
 3061      5F637263 
 3061      5F61636B 
 3061      00
 3062              	.LASF48:
 3063 0c79 706F7765 		.ascii	"power\000"
 3063      7200
 3064              	.LASF51:
 3065 0c7f 72657472 		.ascii	"retries\000"
 3065      69657300 
 3066              	.LASF213:
 3067 0c87 6D5F6E65 		.ascii	"m_next\000"
 3067      787400
 3068              	.LASF0:
 3069 0c8e 7369676E 		.ascii	"signed char\000"
 3069      65642063 
 3069      68617200 
 3070              	.LASF223:
 3071 0c9a 6170705F 		.ascii	"app_nunchuk_configure\000"
 3071      6E756E63 
 3071      68756B5F 
 3071      636F6E66 
 3071      69677572 
 3072              	.LASF99:
 3073 0cb0 4144435F 		.ascii	"ADC_CTRL_TYPE_DUTY_REV_BUTTON\000"
 3073      4354524C 
 3073      5F545950 
 3073      455F4455 
 3073      54595F52 
 3074              	.LASF170:
 3075 0cce 725F6374 		.ascii	"r_ctx\000"
 3075      7800
 3076              	.LASF216:
 3077 0cd4 6170705F 		.ascii	"app_set_configuration\000"
 3077      7365745F 
 3077      636F6E66 
ARM GAS  C:\Users\IDONNO~1\AppData\Local\Temp\ccniybLG.s 			page 65


 3077      69677572 
 3077      6174696F 
 3078              	.LASF195:
 3079 0cea 73746B61 		.ascii	"stkalign_t\000"
 3079      6C69676E 
 3079      5F7400
 3080              	.LASF62:
 3081 0cf5 4150505F 		.ascii	"APP_PPM_UART\000"
 3081      50504D5F 
 3081      55415254 
 3081      00
 3082              	.LASF237:
 3083 0d02 6D656D63 		.ascii	"memcpy\000"
 3083      707900
 3084              	.LASF24:
 3085 0d09 4E52465F 		.ascii	"NRF_POWER_0DBM\000"
 3085      504F5745 
 3085      525F3044 
 3085      424D00
 3086              	.LASF124:
 3087 0d18 6170705F 		.ascii	"app_adc_conf\000"
 3087      6164635F 
 3087      636F6E66 
 3087      00
 3088              	.LASF180:
 3089 0d25 76745F66 		.ascii	"vt_func\000"
 3089      756E6300 
 3090              	.LASF178:
 3091 0d2d 76745F70 		.ascii	"vt_prev\000"
 3091      72657600 
 3092              	.LASF37:
 3093 0d35 4E52465F 		.ascii	"NRF_RETR_DELAY_2000US\000"
 3093      52455452 
 3093      5F44454C 
 3093      41595F32 
 3093      30303055 
 3094              	.LASF34:
 3095 0d4b 4E52465F 		.ascii	"NRF_RETR_DELAY_1250US\000"
 3095      52455452 
 3095      5F44454C 
 3095      41595F31 
 3095      32353055 
 3096              	.LASF17:
 3097 0d61 4E52465F 		.ascii	"NRF_SPEED_250K\000"
 3097      53504545 
 3097      445F3235 
 3097      304B00
 3098              	.LASF18:
 3099 0d70 4E52465F 		.ascii	"NRF_SPEED_1M\000"
 3099      53504545 
 3099      445F314D 
 3099      00
 3100              	.LASF235:
 3101 0d7d 6170705F 		.ascii	"app_get_configuration\000"
 3101      6765745F 
 3101      636F6E66 
 3101      69677572 
ARM GAS  C:\Users\IDONNO~1\AppData\Local\Temp\ccniybLG.s 			page 66


 3101      6174696F 
 3102              	.LASF203:
 3103 0d93 77747472 		.ascii	"wttrp\000"
 3103      7000
 3104              	.LASF205:
 3105 0d99 77746D74 		.ascii	"wtmtxp\000"
 3105      787000
 3106              	.LASF76:
 3107 0da0 70706D5F 		.ascii	"ppm_control_type\000"
 3107      636F6E74 
 3107      726F6C5F 
 3107      74797065 
 3107      00
 3108              	.LASF90:
 3109 0db1 4144435F 		.ascii	"ADC_CTRL_TYPE_NONE\000"
 3109      4354524C 
 3109      5F545950 
 3109      455F4E4F 
 3109      4E4500
 3110              	.LASF201:
 3111 0dc4 65786974 		.ascii	"exitcode\000"
 3111      636F6465 
 3111      00
 3112              	.LASF20:
 3113 0dcd 4E52465F 		.ascii	"NRF_SPEED\000"
 3113      53504545 
 3113      4400
 3114              	.LASF145:
 3115 0dd7 705F6E65 		.ascii	"p_newer\000"
 3115      77657200 
 3116              	.LASF108:
 3117 0ddf 6164635F 		.ascii	"adc_config\000"
 3117      636F6E66 
 3117      696700
 3118              	.LASF233:
 3119 0dea 7372632F 		.ascii	"src/app/app.c\000"
 3119      6170702F 
 3119      6170702E 
 3119      6300
 3120              		.ident	"GCC: (GNU Tools for ARM Embedded Processors) 5.4.1 20160919 (release) [ARM/embedded-5-bran
ARM GAS  C:\Users\IDONNO~1\AppData\Local\Temp\ccniybLG.s 			page 67


DEFINED SYMBOLS
                            *ABS*:00000000 app.c
C:\Users\IDONNO~1\AppData\Local\Temp\ccniybLG.s:22     .text.app_get_configuration:00000000 $t
C:\Users\IDONNO~1\AppData\Local\Temp\ccniybLG.s:28     .text.app_get_configuration:00000000 app_get_configuration
C:\Users\IDONNO~1\AppData\Local\Temp\ccniybLG.s:42     .text.app_get_configuration:00000004 $d
C:\Users\IDONNO~1\AppData\Local\Temp\ccniybLG.s:47     .text.app_set_configuration:00000000 $t
C:\Users\IDONNO~1\AppData\Local\Temp\ccniybLG.s:53     .text.app_set_configuration:00000000 app_set_configuration
C:\Users\IDONNO~1\AppData\Local\Temp\ccniybLG.s:101    .text.app_set_configuration:00000038 $d
C:\Users\IDONNO~1\AppData\Local\Temp\ccniybLG.s:106    .text.app_init:00000000 $t
C:\Users\IDONNO~1\AppData\Local\Temp\ccniybLG.s:112    .text.app_init:00000000 app_init
C:\Users\IDONNO~1\AppData\Local\Temp\ccniybLG.s:134    .text.app_init:00000014 $d
C:\Users\IDONNO~1\AppData\Local\Temp\ccniybLG.s:243    .text.app_init:00000074 $d
C:\Users\IDONNO~1\AppData\Local\Temp\ccniybLG.s:248    .bss.appconf:00000000 $d
C:\Users\IDONNO~1\AppData\Local\Temp\ccniybLG.s:252    .bss.appconf:00000000 appconf
                     .debug_frame:00000010 $d
C:\Users\IDONNO~1\AppData\Local\Temp\ccniybLG.s:141    .text.app_init:0000001b $d
C:\Users\IDONNO~1\AppData\Local\Temp\ccniybLG.s:141    .text.app_init:0000001c $t

UNDEFINED SYMBOLS
memcpy
app_ppm_configure
app_adc_configure
app_uartcomm_configure
app_nunchuk_configure
rfhelp_update_conf
nrf_driver_init
rfhelp_restart
app_ppm_start
app_adc_start
hw_stop_i2c
app_uartcomm_start
app_nunchuk_start
