ARM GAS  C:\Users\IDONNO~1\AppData\Local\Temp\cctYQzqZ.s 			page 1


   1              		.syntax unified
   2              		.cpu cortex-m4
   3              		.eabi_attribute 27, 1
   4              		.eabi_attribute 28, 1
   5              		.fpu fpv4-sp-d16
   6              		.eabi_attribute 20, 1
   7              		.eabi_attribute 21, 1
   8              		.eabi_attribute 23, 3
   9              		.eabi_attribute 24, 1
  10              		.eabi_attribute 25, 1
  11              		.eabi_attribute 26, 1
  12              		.eabi_attribute 30, 2
  13              		.eabi_attribute 34, 1
  14              		.eabi_attribute 18, 4
  15              		.thumb
  16              		.syntax unified
  17              		.file	"app_nunchuk.c"
  18              		.text
  19              	.Ltext0:
  20              		.cfi_sections	.debug_frame
  21              		.section	.text.output_thread,"ax",%progbits
  22              		.align	2
  23              		.p2align 4,,15
  24              		.thumb
  25              		.thumb_func
  26              		.type	output_thread, %function
  27              	output_thread:
  28              	.LFB261:
  29              		.file 1 "src/app/app_nunchuk.c"
  30              		.loc 1 172 0
  31              		.cfi_startproc
  32              		@ Volatile: function does not return.
  33              		@ args = 0, pretend = 0, frame = 0
  34              		@ frame_needed = 0, uses_anonymous_args = 0
  35              	.LVL0:
  36 0000 08B5     		push	{r3, lr}
  37              		.cfi_def_cfa_offset 8
  38              		.cfi_offset 3, -8
  39              		.cfi_offset 14, -4
  40              	.LBB9:
  41              	.LBB10:
  42              		.file 2 "src/ChibiOS_3.0.2/os/rt/include/chregistry.h"
  43              		.loc 2 135 0
  44 0002 0C4B     		ldr	r3, .L7
  45 0004 0C4A     		ldr	r2, .L7+4
  46 0006 9B69     		ldr	r3, [r3, #24]
  47 0008 0C4C     		ldr	r4, .L7+8
  48 000a 0D4D     		ldr	r5, .L7+12
  49 000c 9A61     		str	r2, [r3, #24]
  50              	.LVL1:
  51              	.L3:
  52              	.LBE10:
  53              	.LBE9:
  54              		.loc 1 178 0
  55 000e 0A20     		movs	r0, #10
  56 0010 FFF7FEFF 		bl	chThdSleep
  57              	.LVL2:
ARM GAS  C:\Users\IDONNO~1\AppData\Local\Temp\cctYQzqZ.s 			page 2


  58              		.loc 1 180 0
  59 0014 FFF7FEFF 		bl	timeout_has_timeout
  60              	.LVL3:
  61 0018 0028     		cmp	r0, #0
  62 001a F8D1     		bne	.L3
  63              	.L6:
  64              		.loc 1 180 0 is_stmt 0 discriminator 1
  65 001c 2368     		ldr	r3, [r4]
  66 001e 002B     		cmp	r3, #0
  67 0020 F5D1     		bne	.L3
  68              		.loc 1 178 0 is_stmt 1 discriminator 2
  69 0022 0A20     		movs	r0, #10
  70              		.loc 1 180 0 discriminator 2
  71 0024 2B78     		ldrb	r3, [r5]	@ zero_extendqisi2
  72              		.loc 1 178 0 discriminator 2
  73 0026 FFF7FEFF 		bl	chThdSleep
  74              	.LVL4:
  75              		.loc 1 180 0 discriminator 2
  76 002a FFF7FEFF 		bl	timeout_has_timeout
  77              	.LVL5:
  78 002e 0028     		cmp	r0, #0
  79 0030 EDD1     		bne	.L3
  80 0032 F3E7     		b	.L6
  81              	.L8:
  82              		.align	2
  83              	.L7:
  84 0034 00000000 		.word	ch
  85 0038 00000000 		.word	.LC0
  86 003c 00000000 		.word	.LANCHOR0
  87 0040 00000000 		.word	.LANCHOR1
  88              		.cfi_endproc
  89              	.LFE261:
  90              		.size	output_thread, .-output_thread
  91              		.section	.text.app_nunchuk_configure,"ax",%progbits
  92              		.align	2
  93              		.p2align 4,,15
  94              		.global	app_nunchuk_configure
  95              		.thumb
  96              		.thumb_func
  97              		.type	app_nunchuk_configure, %function
  98              	app_nunchuk_configure:
  99              	.LFB256:
 100              		.loc 1 58 0
 101              		.cfi_startproc
 102              		@ args = 0, pretend = 0, frame = 0
 103              		@ frame_needed = 0, uses_anonymous_args = 0
 104              		@ link register save eliminated.
 105              	.LVL6:
 106 0000 30B4     		push	{r4, r5}
 107              		.cfi_def_cfa_offset 8
 108              		.cfi_offset 4, -8
 109              		.cfi_offset 5, -4
 110              		.loc 1 59 0
 111 0002 0546     		mov	r5, r0
 112 0004 0FCD     		ldmia	r5!, {r0, r1, r2, r3}
 113              	.LVL7:
 114 0006 044C     		ldr	r4, .L11
ARM GAS  C:\Users\IDONNO~1\AppData\Local\Temp\cctYQzqZ.s 			page 3


 115 0008 0FC4     		stmia	r4!, {r0, r1, r2, r3}
 116 000a 0FCD     		ldmia	r5!, {r0, r1, r2, r3}
 117              	.LVL8:
 118 000c 0FC4     		stmia	r4!, {r0, r1, r2, r3}
 119 000e 2B68     		ldr	r3, [r5]
 120 0010 2360     		str	r3, [r4]
 121              		.loc 1 60 0
 122 0012 30BC     		pop	{r4, r5}
 123              		.cfi_restore 5
 124              		.cfi_restore 4
 125              		.cfi_def_cfa_offset 0
 126              	.LVL9:
 127 0014 7047     		bx	lr
 128              	.L12:
 129 0016 00BF     		.align	2
 130              	.L11:
 131 0018 00000000 		.word	.LANCHOR1
 132              		.cfi_endproc
 133              	.LFE256:
 134              		.size	app_nunchuk_configure, .-app_nunchuk_configure
 135              		.section	.text.app_nunchuk_start,"ax",%progbits
 136              		.align	2
 137              		.p2align 4,,15
 138              		.global	app_nunchuk_start
 139              		.thumb
 140              		.thumb_func
 141              		.type	app_nunchuk_start, %function
 142              	app_nunchuk_start:
 143              	.LFB257:
 144              		.loc 1 62 0
 145              		.cfi_startproc
 146              		@ args = 0, pretend = 0, frame = 0
 147              		@ frame_needed = 0, uses_anonymous_args = 0
 148 0000 30B5     		push	{r4, r5, lr}
 149              		.cfi_def_cfa_offset 12
 150              		.cfi_offset 4, -12
 151              		.cfi_offset 5, -8
 152              		.cfi_offset 14, -4
 153 0002 83B0     		sub	sp, sp, #12
 154              		.cfi_def_cfa_offset 24
 155              		.loc 1 63 0
 156 0004 064C     		ldr	r4, .L15
 157              		.loc 1 64 0
 158 0006 074B     		ldr	r3, .L15+4
 159 0008 0748     		ldr	r0, .L15+8
 160 000a 0022     		movs	r2, #0
 161 000c 0092     		str	r2, [sp]
 162              		.loc 1 63 0
 163 000e 8025     		movs	r5, #128
 164              		.loc 1 64 0
 165 0010 4022     		movs	r2, #64
 166 0012 4FF4B361 		mov	r1, #1432
 167              		.loc 1 63 0
 168 0016 6560     		str	r5, [r4, #4]
 169              		.loc 1 64 0
 170 0018 FFF7FEFF 		bl	chThdCreateStatic
 171              	.LVL10:
ARM GAS  C:\Users\IDONNO~1\AppData\Local\Temp\cctYQzqZ.s 			page 4


 172              		.loc 1 65 0
 173 001c 03B0     		add	sp, sp, #12
 174              		.cfi_def_cfa_offset 12
 175              		@ sp needed
 176 001e 30BD     		pop	{r4, r5, pc}
 177              	.L16:
 178              		.align	2
 179              	.L15:
 180 0020 00000000 		.word	.LANCHOR2
 181 0024 00000000 		.word	chuk_thread
 182 0028 00000000 		.word	.LANCHOR3
 183              		.cfi_endproc
 184              	.LFE257:
 185              		.size	app_nunchuk_start, .-app_nunchuk_start
 186              		.section	.text.app_nunchuk_get_decoded_chuk,"ax",%progbits
 187              		.align	2
 188              		.p2align 4,,15
 189              		.global	app_nunchuk_get_decoded_chuk
 190              		.thumb
 191              		.thumb_func
 192              		.type	app_nunchuk_get_decoded_chuk, %function
 193              	app_nunchuk_get_decoded_chuk:
 194              	.LFB258:
 195              		.loc 1 67 0
 196              		.cfi_startproc
 197              		@ args = 0, pretend = 0, frame = 0
 198              		@ frame_needed = 0, uses_anonymous_args = 0
 199              		@ link register save eliminated.
 200              		.loc 1 68 0
 201 0000 064B     		ldr	r3, .L18
 202 0002 9FED077A 		vldr.32	s14, .L18+4
 203 0006 D3ED017A 		vldr.32	s15, [r3, #4]	@ int
 204 000a 9FED060A 		vldr.32	s0, .L18+8
 205 000e F8EEE77A 		vcvt.f32.s32	s15, s15
 206 0012 77EEC77A 		vsub.f32	s15, s15, s14
 207              		.loc 1 69 0
 208 0016 27EE800A 		vmul.f32	s0, s15, s0
 209 001a 7047     		bx	lr
 210              	.L19:
 211              		.align	2
 212              	.L18:
 213 001c 00000000 		.word	.LANCHOR2
 214 0020 00000043 		.word	1124073472
 215 0024 0000003C 		.word	1006632960
 216              		.cfi_endproc
 217              	.LFE258:
 218              		.size	app_nunchuk_get_decoded_chuk, .-app_nunchuk_get_decoded_chuk
 219              		.section	.text.app_nunchuk_update_output,"ax",%progbits
 220              		.align	2
 221              		.p2align 4,,15
 222              		.global	app_nunchuk_update_output
 223              		.thumb
 224              		.thumb_func
 225              		.type	app_nunchuk_update_output, %function
 226              	app_nunchuk_update_output:
 227              	.LFB259:
 228              		.loc 1 71 0
ARM GAS  C:\Users\IDONNO~1\AppData\Local\Temp\cctYQzqZ.s 			page 5


 229              		.cfi_startproc
 230              		@ args = 0, pretend = 0, frame = 0
 231              		@ frame_needed = 0, uses_anonymous_args = 0
 232              	.LVL11:
 233 0000 70B5     		push	{r4, r5, r6, lr}
 234              		.cfi_def_cfa_offset 16
 235              		.cfi_offset 4, -16
 236              		.cfi_offset 5, -12
 237              		.cfi_offset 6, -8
 238              		.cfi_offset 14, -4
 239              		.loc 1 72 0
 240 0002 104A     		ldr	r2, .L24
 241 0004 1378     		ldrb	r3, [r2]	@ zero_extendqisi2
 242              		.loc 1 71 0
 243 0006 82B0     		sub	sp, sp, #8
 244              		.cfi_def_cfa_offset 24
 245              		.loc 1 71 0
 246 0008 0446     		mov	r4, r0
 247              		.loc 1 72 0
 248 000a 73B9     		cbnz	r3, .L21
 249 000c 03F0FF01 		and	r1, r3, #255
 250              		.loc 1 75 0
 251 0010 0091     		str	r1, [sp]
 252              		.loc 1 74 0
 253 0012 0D4D     		ldr	r5, .L24+4
 254              		.loc 1 75 0
 255 0014 0D4B     		ldr	r3, .L24+8
 256 0016 0E48     		ldr	r0, .L24+12
 257              	.LVL12:
 258              		.loc 1 73 0
 259 0018 0121     		movs	r1, #1
 260 001a 1170     		strb	r1, [r2]
 261              		.loc 1 74 0
 262 001c 8026     		movs	r6, #128
 263              		.loc 1 75 0
 264 001e 4022     		movs	r2, #64
 265 0020 4FF4B361 		mov	r1, #1432
 266              		.loc 1 74 0
 267 0024 6E60     		str	r6, [r5, #4]
 268              		.loc 1 75 0
 269 0026 FFF7FEFF 		bl	chThdCreateStatic
 270              	.LVL13:
 271              	.L21:
 272              		.loc 1 78 0
 273 002a 0FCC     		ldmia	r4!, {r0, r1, r2, r3}
 274              	.LVL14:
 275 002c 064D     		ldr	r5, .L24+4
 276 002e 0FC5     		stmia	r5!, {r0, r1, r2, r3}
 277 0030 94E80300 		ldmia	r4, {r0, r1}
 278 0034 85E80300 		stmia	r5, {r0, r1}
 279              		.loc 1 80 0
 280 0038 02B0     		add	sp, sp, #8
 281              		.cfi_def_cfa_offset 16
 282              		@ sp needed
 283 003a BDE87040 		pop	{r4, r5, r6, lr}
 284              		.cfi_restore 14
 285              		.cfi_restore 6
ARM GAS  C:\Users\IDONNO~1\AppData\Local\Temp\cctYQzqZ.s 			page 6


 286              		.cfi_restore 5
 287              		.cfi_restore 4
 288              		.cfi_def_cfa_offset 0
 289              	.LVL15:
 290              		.loc 1 79 0
 291 003e FFF7FEBF 		b	timeout_reset
 292              	.LVL16:
 293              	.L25:
 294 0042 00BF     		.align	2
 295              	.L24:
 296 0044 00000000 		.word	.LANCHOR4
 297 0048 00000000 		.word	.LANCHOR2
 298 004c 00000000 		.word	output_thread
 299 0050 00000000 		.word	.LANCHOR5
 300              		.cfi_endproc
 301              	.LFE259:
 302              		.size	app_nunchuk_update_output, .-app_nunchuk_update_output
 303              		.section	.text.chuk_thread,"ax",%progbits
 304              		.align	2
 305              		.p2align 4,,15
 306              		.thumb
 307              		.thumb_func
 308              		.type	chuk_thread, %function
 309              	chuk_thread:
 310              	.LFB260:
 311              		.loc 1 82 0
 312              		.cfi_startproc
 313              		@ args = 0, pretend = 0, frame = 48
 314              		@ frame_needed = 0, uses_anonymous_args = 0
 315              	.LVL17:
 316 0000 2DE9F04F 		push	{r4, r5, r6, r7, r8, r9, r10, fp, lr}
 317              		.cfi_def_cfa_offset 36
 318              		.cfi_offset 4, -36
 319              		.cfi_offset 5, -32
 320              		.cfi_offset 6, -28
 321              		.cfi_offset 7, -24
 322              		.cfi_offset 8, -20
 323              		.cfi_offset 9, -16
 324              		.cfi_offset 10, -12
 325              		.cfi_offset 11, -8
 326              		.cfi_offset 14, -4
 327              	.LBB11:
 328              	.LBB12:
 329              		.loc 2 135 0
 330 0004 654B     		ldr	r3, .L40
 331 0006 6649     		ldr	r1, .L40+4
 332 0008 9A69     		ldr	r2, [r3, #24]
 333              	.LBE12:
 334              	.LBE11:
 335              		.loc 1 86 0
 336 000a 664B     		ldr	r3, .L40+8
 337              	.LBB14:
 338              	.LBB13:
 339              		.loc 2 135 0
 340 000c 9161     		str	r1, [r2, #24]
 341              	.LVL18:
 342              	.LBE13:
ARM GAS  C:\Users\IDONNO~1\AppData\Local\Temp\cctYQzqZ.s 			page 7


 343              	.LBE14:
 344              		.loc 1 82 0
 345 000e 91B0     		sub	sp, sp, #68
 346              		.cfi_def_cfa_offset 104
 347              		.loc 1 86 0
 348 0010 0122     		movs	r2, #1
 349 0012 DFF89C81 		ldr	r8, .L40+20
 350 0016 1A70     		strb	r2, [r3]
 351              	.LVL19:
 352              		.loc 1 95 0
 353 0018 FFF7FEFF 		bl	hw_start_i2c
 354              	.LVL20:
 355              		.loc 1 96 0
 356 001c 6420     		movs	r0, #100
 357 001e FFF7FEFF 		bl	chThdSleep
 358              	.LVL21:
 359 0022 614D     		ldr	r5, .L40+12
 360 0024 08F10409 		add	r9, r8, #4
 361 0028 04AC     		add	r4, sp, #16
 362              	.LBB15:
 363              		.loc 1 101 0
 364 002a F027     		movs	r7, #240
 365              		.loc 1 102 0
 366 002c 5526     		movs	r6, #85
 367 002e 0AE0     		b	.L33
 368              	.LVL22:
 369              	.L28:
 370              		.loc 1 163 0
 371 0030 0223     		movs	r3, #2
 372 0032 2B60     		str	r3, [r5]
 373              		.loc 1 164 0
 374 0034 FFF7FEFF 		bl	hw_try_restore_i2c
 375              	.LVL23:
 376              		.loc 1 165 0
 377 0038 4FF47A70 		mov	r0, #1000
 378 003c FFF7FEFF 		bl	chThdSleep
 379              	.LVL24:
 380              	.L32:
 381              		.loc 1 168 0
 382 0040 6420     		movs	r0, #100
 383 0042 FFF7FEFF 		bl	chThdSleep
 384              	.LVL25:
 385              	.L33:
 386              		.loc 1 103 0
 387 0046 5948     		ldr	r0, .L40+16
 388              		.loc 1 101 0
 389 0048 8DF81C70 		strb	r7, [sp, #28]
 390              		.loc 1 102 0
 391 004c 8DF81D60 		strb	r6, [sp, #29]
 392              		.loc 1 104 0
 393 0050 4FF0320A 		mov	r10, #50
 394              		.loc 1 103 0
 395 0054 FFF7FEFF 		bl	i2cAcquireBus
 396              	.LVL26:
 397              		.loc 1 104 0
 398 0058 0023     		movs	r3, #0
 399 005a 0193     		str	r3, [sp, #4]
ARM GAS  C:\Users\IDONNO~1\AppData\Local\Temp\cctYQzqZ.s 			page 8


 400 005c 0094     		str	r4, [sp]
 401 005e CDF808A0 		str	r10, [sp, #8]
 402 0062 0223     		movs	r3, #2
 403 0064 07AA     		add	r2, sp, #28
 404 0066 5221     		movs	r1, #82
 405 0068 5048     		ldr	r0, .L40+16
 406 006a FFF7FEFF 		bl	i2cMasterTransmitTimeout
 407              	.LVL27:
 408 006e 8346     		mov	fp, r0
 409              	.LVL28:
 410              		.loc 1 105 0
 411 0070 4E48     		ldr	r0, .L40+16
 412              	.LVL29:
 413 0072 FFF7FEFF 		bl	i2cReleaseBus
 414              	.LVL30:
 415              		.loc 1 108 0
 416 0076 BBF1000F 		cmp	fp, #0
 417 007a D9D1     		bne	.L28
 418              		.loc 1 109 0
 419 007c FB23     		movs	r3, #251
 420              		.loc 1 111 0
 421 007e 4B48     		ldr	r0, .L40+16
 422              		.loc 1 110 0
 423 0080 8DF81DB0 		strb	fp, [sp, #29]
 424              		.loc 1 109 0
 425 0084 8DF81C30 		strb	r3, [sp, #28]
 426              		.loc 1 111 0
 427 0088 FFF7FEFF 		bl	i2cAcquireBus
 428              	.LVL31:
 429              		.loc 1 112 0
 430 008c 8DE81008 		stmia	sp, {r4, fp}
 431 0090 CDF808A0 		str	r10, [sp, #8]
 432 0094 0223     		movs	r3, #2
 433 0096 07AA     		add	r2, sp, #28
 434 0098 5221     		movs	r1, #82
 435 009a 4448     		ldr	r0, .L40+16
 436 009c FFF7FEFF 		bl	i2cMasterTransmitTimeout
 437              	.LVL32:
 438 00a0 8346     		mov	fp, r0
 439              	.LVL33:
 440              		.loc 1 113 0
 441 00a2 4248     		ldr	r0, .L40+16
 442              	.LVL34:
 443 00a4 FFF7FEFF 		bl	i2cReleaseBus
 444              	.LVL35:
 445              		.loc 1 117 0
 446 00a8 BBF1000F 		cmp	fp, #0
 447 00ac C0D1     		bne	.L28
 448              		.loc 1 119 0
 449 00ae 3F48     		ldr	r0, .L40+16
 450              		.loc 1 118 0
 451 00b0 8DF81CB0 		strb	fp, [sp, #28]
 452              		.loc 1 119 0
 453 00b4 FFF7FEFF 		bl	i2cAcquireBus
 454              	.LVL36:
 455              		.loc 1 120 0
 456 00b8 8DE81008 		stmia	sp, {r4, fp}
ARM GAS  C:\Users\IDONNO~1\AppData\Local\Temp\cctYQzqZ.s 			page 9


 457 00bc CDF808A0 		str	r10, [sp, #8]
 458 00c0 0123     		movs	r3, #1
 459 00c2 07AA     		add	r2, sp, #28
 460 00c4 5221     		movs	r1, #82
 461 00c6 3948     		ldr	r0, .L40+16
 462 00c8 FFF7FEFF 		bl	i2cMasterTransmitTimeout
 463              	.LVL37:
 464 00cc 8346     		mov	fp, r0
 465              	.LVL38:
 466              		.loc 1 121 0
 467 00ce 3748     		ldr	r0, .L40+16
 468              	.LVL39:
 469 00d0 FFF7FEFF 		bl	i2cReleaseBus
 470              	.LVL40:
 471              		.loc 1 125 0
 472 00d4 BBF1000F 		cmp	fp, #0
 473 00d8 AAD1     		bne	.L28
 474              		.loc 1 126 0
 475 00da 1E20     		movs	r0, #30
 476 00dc FFF7FEFF 		bl	chThdSleep
 477              	.LVL41:
 478              		.loc 1 128 0
 479 00e0 3248     		ldr	r0, .L40+16
 480 00e2 FFF7FEFF 		bl	i2cAcquireBus
 481              	.LVL42:
 482              		.loc 1 129 0
 483 00e6 CDF800A0 		str	r10, [sp]
 484 00ea 0623     		movs	r3, #6
 485 00ec 2246     		mov	r2, r4
 486 00ee 5221     		movs	r1, #82
 487 00f0 2E48     		ldr	r0, .L40+16
 488 00f2 FFF7FEFF 		bl	i2cMasterReceiveTimeout
 489              	.LVL43:
 490 00f6 8246     		mov	r10, r0
 491              	.LVL44:
 492              		.loc 1 130 0
 493 00f8 2C48     		ldr	r0, .L40+16
 494              	.LVL45:
 495 00fa FFF7FEFF 		bl	i2cReleaseBus
 496              	.LVL46:
 497              		.loc 1 134 0
 498 00fe BAF1000F 		cmp	r10, #0
 499 0102 95D1     		bne	.L28
 500 0104 2A4B     		ldr	r3, .L40+20
 501 0106 2146     		mov	r1, r4
 502 0108 03F1060C 		add	ip, r3, #6
 503 010c 0122     		movs	r2, #1
 504              	.L30:
 505              	.LVL47:
 506              	.LBB16:
 507              	.LBB17:
 508              		.loc 1 139 0
 509 010e 13F801EB 		ldrb	lr, [r3], #1	@ zero_extendqisi2
 510              	.LVL48:
 511 0112 11F8010B 		ldrb	r0, [r1], #1	@ zero_extendqisi2
 512              		.loc 1 140 0
 513 0116 8645     		cmp	lr, r0
ARM GAS  C:\Users\IDONNO~1\AppData\Local\Temp\cctYQzqZ.s 			page 10


 514 0118 18BF     		it	ne
 515 011a 0022     		movne	r2, #0
 516              	.LVL49:
 517              		.loc 1 138 0
 518 011c 9C45     		cmp	ip, r3
 519 011e F6D1     		bne	.L30
 520              	.LBE17:
 521              		.loc 1 144 0
 522 0120 94E80300 		ldmia	r4, {r0, r1}
 523 0124 C8F80000 		str	r0, [r8]
 524 0128 A9F80010 		strh	r1, [r9]	@ movhi
 525              		.loc 1 146 0
 526 012c 32B1     		cbz	r2, .L39
 527              	.LVL50:
 528              	.L31:
 529              		.loc 1 159 0
 530 012e FFF7FEFF 		bl	timeout_has_timeout
 531              	.LVL51:
 532 0132 0028     		cmp	r0, #0
 533 0134 84D0     		beq	.L32
 534              		.loc 1 160 0
 535 0136 0123     		movs	r3, #1
 536 0138 2B60     		str	r3, [r5]
 537 013a 81E7     		b	.L32
 538              	.LVL52:
 539              	.L39:
 540              		.loc 1 150 0
 541 013c 9DF81530 		ldrb	r3, [sp, #21]	@ zero_extendqisi2
 542              	.LVL53:
 543 0140 9DF812C0 		ldrb	ip, [sp, #18]	@ zero_extendqisi2
 544              		.loc 1 151 0
 545 0144 9DF81300 		ldrb	r0, [sp, #19]	@ zero_extendqisi2
 546              		.loc 1 147 0
 547 0148 2A60     		str	r2, [r5]
 548              		.loc 1 150 0
 549 014a C3F38102 		ubfx	r2, r3, #2, #2
 550              	.LVL54:
 551 014e 42EA8C0C 		orr	ip, r2, ip, lsl #2
 552              		.loc 1 152 0
 553 0152 9DF81410 		ldrb	r1, [sp, #20]	@ zero_extendqisi2
 554              		.loc 1 148 0
 555 0156 9DF810E0 		ldrb	lr, [sp, #16]	@ zero_extendqisi2
 556              		.loc 1 150 0
 557 015a CDF830C0 		str	ip, [sp, #48]
 558              		.loc 1 151 0
 559 015e C3F30112 		ubfx	r2, r3, #4, #2
 560 0162 42EA8000 		orr	r0, r2, r0, lsl #2
 561              		.loc 1 152 0
 562 0166 9A09     		lsrs	r2, r3, #6
 563 0168 42EA8101 		orr	r1, r2, r1, lsl #2
 564              		.loc 1 153 0
 565 016c 03F00102 		and	r2, r3, #1
 566              		.loc 1 154 0
 567 0170 C3F34003 		ubfx	r3, r3, #1, #1
 568              		.loc 1 153 0
 569 0174 82F00102 		eor	r2, r2, #1
 570              		.loc 1 154 0
ARM GAS  C:\Users\IDONNO~1\AppData\Local\Temp\cctYQzqZ.s 			page 11


 571 0178 83F00103 		eor	r3, r3, #1
 572              		.loc 1 149 0
 573 017c 9DF811C0 		ldrb	ip, [sp, #17]	@ zero_extendqisi2
 574              		.loc 1 151 0
 575 0180 0D90     		str	r0, [sp, #52]
 576              		.loc 1 156 0
 577 0182 0AA8     		add	r0, sp, #40
 578              		.loc 1 152 0
 579 0184 0E91     		str	r1, [sp, #56]
 580              		.loc 1 153 0
 581 0186 8DF83D20 		strb	r2, [sp, #61]
 582              		.loc 1 154 0
 583 018a 8DF83C30 		strb	r3, [sp, #60]
 584              		.loc 1 148 0
 585 018e CDF828E0 		str	lr, [sp, #40]
 586              		.loc 1 149 0
 587 0192 CDF82CC0 		str	ip, [sp, #44]
 588              		.loc 1 156 0
 589 0196 FFF7FEFF 		bl	app_nunchuk_update_output
 590              	.LVL55:
 591 019a C8E7     		b	.L31
 592              	.L41:
 593              		.align	2
 594              	.L40:
 595 019c 00000000 		.word	ch
 596 01a0 10000000 		.word	.LC1
 597 01a4 00000000 		.word	.LANCHOR6
 598 01a8 00000000 		.word	.LANCHOR0
 599 01ac 00000000 		.word	I2CD2
 600 01b0 00000000 		.word	.LANCHOR7
 601              	.LBE16:
 602              	.LBE15:
 603              		.cfi_endproc
 604              	.LFE260:
 605              		.size	chuk_thread, .-chuk_thread
 606              		.section	.bss.output_running,"aw",%nobits
 607              		.set	.LANCHOR4,. + 0
 608              		.type	output_running, %object
 609              		.size	output_running, 1
 610              	output_running:
 611 0000 00       		.space	1
 612              		.section	.bss.chuk_thread_wa,"aw",%nobits
 613              		.align	3
 614              		.set	.LANCHOR3,. + 0
 615              		.type	chuk_thread_wa, %object
 616              		.size	chuk_thread_wa, 1432
 617              	chuk_thread_wa:
 618 0000 00000000 		.space	1432
 618      00000000 
 618      00000000 
 618      00000000 
 618      00000000 
 619              		.section	.bss.output_thread_wa,"aw",%nobits
 620              		.align	3
 621              		.set	.LANCHOR5,. + 0
 622              		.type	output_thread_wa, %object
 623              		.size	output_thread_wa, 1432
ARM GAS  C:\Users\IDONNO~1\AppData\Local\Temp\cctYQzqZ.s 			page 12


 624              	output_thread_wa:
 625 0000 00000000 		.space	1432
 625      00000000 
 625      00000000 
 625      00000000 
 625      00000000 
 626              		.section	.bss.is_running,"aw",%nobits
 627              		.set	.LANCHOR6,. + 0
 628              		.type	is_running, %object
 629              		.size	is_running, 1
 630              	is_running:
 631 0000 00       		.space	1
 632              		.section	.bss.last_buffer.10399,"aw",%nobits
 633              		.align	2
 634              		.set	.LANCHOR7,. + 0
 635              		.type	last_buffer.10399, %object
 636              		.size	last_buffer.10399, 6
 637              	last_buffer.10399:
 638 0000 00000000 		.space	6
 638      0000
 639              		.section	.bss.chuck_d,"aw",%nobits
 640              		.align	2
 641              		.set	.LANCHOR2,. + 0
 642              		.type	chuck_d, %object
 643              		.size	chuck_d, 24
 644              	chuck_d:
 645 0000 00000000 		.space	24
 645      00000000 
 645      00000000 
 645      00000000 
 645      00000000 
 646              		.section	.rodata.str1.4,"aMS",%progbits,1
 647              		.align	2
 648              	.LC0:
 649 0000 4E756E63 		.ascii	"Nunchuk output\000"
 649      68756B20 
 649      6F757470 
 649      757400
 650 000f 00       		.space	1
 651              	.LC1:
 652 0010 4E756E63 		.ascii	"Nunchuk i2c\000"
 652      68756B20 
 652      69326300 
 653              		.section	.bss.chuck_error,"aw",%nobits
 654              		.align	2
 655              		.set	.LANCHOR0,. + 0
 656              		.type	chuck_error, %object
 657              		.size	chuck_error, 4
 658              	chuck_error:
 659 0000 00000000 		.space	4
 660              		.section	.bss.config,"aw",%nobits
 661              		.align	2
 662              		.set	.LANCHOR1,. + 0
 663              		.type	config, %object
 664              		.size	config, 36
 665              	config:
 666 0000 00000000 		.space	36
ARM GAS  C:\Users\IDONNO~1\AppData\Local\Temp\cctYQzqZ.s 			page 13


 666      00000000 
 666      00000000 
 666      00000000 
 666      00000000 
 667              		.text
 668              	.Letext0:
 669              		.file 3 "c:\\program files (x86)\\gnu tools arm embedded\\5.4 2016q3\\arm-none-eabi\\include\\mach
 670              		.file 4 "c:\\program files (x86)\\gnu tools arm embedded\\5.4 2016q3\\arm-none-eabi\\include\\sys\
 671              		.file 5 "src/app/app.h"
 672              		.file 6 "c:\\program files (x86)\\gnu tools arm embedded\\5.4 2016q3\\lib\\gcc\\arm-none-eabi\\5.4
 673              		.file 7 "src/ChibiOS_3.0.2/os/rt/ports/ARMCMx/compilers/GCC/chtypes.h"
 674              		.file 8 "src/ChibiOS_3.0.2/os/rt/include/chsystypes.h"
 675              		.file 9 "src/ChibiOS_3.0.2/os/rt/include/chschd.h"
 676              		.file 10 "src/ChibiOS_3.0.2/os/ext/CMSIS/ST/stm32f407xx.h"
 677              		.file 11 "src/ChibiOS_3.0.2/os/rt/ports/ARMCMx/chcore.h"
 678              		.file 12 "src/ChibiOS_3.0.2/os/rt/ports/ARMCMx/chcore_v7m.h"
 679              		.file 13 "src/ChibiOS_3.0.2/os/rt/include/chtm.h"
 680              		.file 14 "src/ChibiOS_3.0.2/os/rt/include/chsem.h"
 681              		.file 15 "src/ChibiOS_3.0.2/os/rt/include/chmtx.h"
 682              		.file 16 "src/ChibiOS_3.0.2/os/hal/ports/STM32/STM32F4xx/stm32_dma.h"
 683              		.file 17 "src/ChibiOS_3.0.2/os/hal/include/i2c.h"
 684              		.file 18 "src/ChibiOS_3.0.2/os/hal/ports/STM32/LLD/I2Cv1/i2c_lld.h"
 685              		.file 19 "src/ChibiOS_3.0.2/os/ext/CMSIS/include/core_cm4.h"
 686              		.file 20 "src/ChibiOS_3.0.2/os/rt/include/chthreads.h"
 687              		.file 21 "src/core/timeout.h"
 688              		.file 22 "src/hw.h"