ARM GAS  C:\Users\USER\AppData\Local\Temp\cc3a5puU.s 			page 1


   1              		.cpu cortex-m4
   2              		.eabi_attribute 27, 1
   3              		.eabi_attribute 28, 1
   4              		.eabi_attribute 20, 1
   5              		.eabi_attribute 21, 1
   6              		.eabi_attribute 23, 3
   7              		.eabi_attribute 24, 1
   8              		.eabi_attribute 25, 1
   9              		.eabi_attribute 26, 1
  10              		.eabi_attribute 30, 2
  11              		.eabi_attribute 34, 1
  12              		.eabi_attribute 18, 4
  13              		.file	"app_adc.c"
  14              		.text
  15              	.Ltext0:
  16              		.cfi_sections	.debug_frame
  17              		.section	.text.adc_thread,"ax",%progbits
  18              		.align	1
  19              		.p2align 4,,15
  20              		.arch armv7e-m
  21              		.syntax unified
  22              		.thumb
  23              		.thumb_func
  24              		.fpu fpv4-sp-d16
  25              		.type	adc_thread, %function
  26              	adc_thread:
  27              	.LVL0:
  28              	.LFB262:
  29              		.file 1 "src/app/app_adc.c"
  30              		.loc 1 83 38 view -0
  31              		.cfi_startproc
  32              		@ args = 0, pretend = 0, frame = 0
  33              		@ frame_needed = 0, uses_anonymous_args = 0
  34              		@ link register save eliminated.
  35              		.loc 1 84 2 view .LVU1
  36              		.loc 1 86 2 view .LVU2
  37              	.LBB4:
  38              	.LBI4:
  39              		.file 2 "src/ChibiOS_3.0.2/os/rt/include/chregistry.h"
  40              		.loc 2 132 20 view .LVU3
  41              	.LBB5:
  42              		.loc 2 135 3 view .LVU4
  43              		.loc 2 135 11 is_stmt 0 view .LVU5
  44 0000 024B     		ldr	r3, .L3
  45              		.loc 2 135 30 view .LVU6
  46 0002 034A     		ldr	r2, .L3+4
  47 0004 9B69     		ldr	r3, [r3, #24]
  48 0006 9A61     		str	r2, [r3, #24]
  49              	.LVL1:
  50              		.loc 2 135 30 view .LVU7
  51              	.LBE5:
  52              	.LBE4:
  53              		.loc 1 485 1 view .LVU8
  54 0008 7047     		bx	lr
  55              	.L4:
  56 000a 00BF     		.align	2
  57              	.L3:
ARM GAS  C:\Users\USER\AppData\Local\Temp\cc3a5puU.s 			page 2


  58 000c 00000000 		.word	ch
  59 0010 00000000 		.word	.LC0
  60              		.cfi_endproc
  61              	.LFE262:
  62              		.size	adc_thread, .-adc_thread
  63              		.section	.text.app_adc_configure,"ax",%progbits
  64              		.align	1
  65              		.p2align 4,,15
  66              		.global	app_adc_configure
  67              		.syntax unified
  68              		.thumb
  69              		.thumb_func
  70              		.fpu fpv4-sp-d16
  71              		.type	app_adc_configure, %function
  72              	app_adc_configure:
  73              	.LVL2:
  74              	.LFB256:
  75              		.loc 1 56 42 is_stmt 1 view -0
  76              		.cfi_startproc
  77              		@ args = 0, pretend = 0, frame = 0
  78              		@ frame_needed = 0, uses_anonymous_args = 0
  79              		@ link register save eliminated.
  80              		.loc 1 57 2 view .LVU10
  81              		.loc 1 56 42 is_stmt 0 view .LVU11
  82 0000 70B4     		push	{r4, r5, r6}
  83              		.cfi_def_cfa_offset 12
  84              		.cfi_offset 4, -12
  85              		.cfi_offset 5, -8
  86              		.cfi_offset 6, -4
  87              		.loc 1 57 9 view .LVU12
  88 0002 0546     		mov	r5, r0
  89 0004 0FCD     		ldmia	r5!, {r0, r1, r2, r3}
  90              	.LVL3:
  91              		.loc 1 57 9 view .LVU13
  92 0006 064C     		ldr	r4, .L7
  93              		.loc 1 58 19 view .LVU14
  94 0008 064E     		ldr	r6, .L7+4
  95              		.loc 1 57 9 view .LVU15
  96 000a 0FC4     		stmia	r4!, {r0, r1, r2, r3}
  97 000c 0FCD     		ldmia	r5!, {r0, r1, r2, r3}
  98              	.LVL4:
  99              		.loc 1 57 9 view .LVU16
 100 000e 0FC4     		stmia	r4!, {r0, r1, r2, r3}
 101 0010 95E80700 		ldm	r5, {r0, r1, r2}
 102              		.loc 1 58 19 view .LVU17
 103 0014 0023     		movs	r3, #0
 104              		.loc 1 57 9 view .LVU18
 105 0016 84E80700 		stm	r4, {r0, r1, r2}
 106              		.loc 1 58 2 is_stmt 1 view .LVU19
 107              		.loc 1 58 19 is_stmt 0 view .LVU20
 108 001a 3360     		str	r3, [r6]	@ float
 109              		.loc 1 59 1 view .LVU21
 110 001c 70BC     		pop	{r4, r5, r6}
 111              		.cfi_restore 6
 112              		.cfi_restore 5
 113              		.cfi_restore 4
 114              		.cfi_def_cfa_offset 0
ARM GAS  C:\Users\USER\AppData\Local\Temp\cc3a5puU.s 			page 3


 115              	.LVL5:
 116              		.loc 1 59 1 view .LVU22
 117 001e 7047     		bx	lr
 118              	.L8:
 119              		.align	2
 120              	.L7:
 121 0020 00000000 		.word	.LANCHOR0
 122 0024 00000000 		.word	.LANCHOR1
 123              		.cfi_endproc
 124              	.LFE256:
 125              		.size	app_adc_configure, .-app_adc_configure
 126              		.section	.text.app_adc_start,"ax",%progbits
 127              		.align	1
 128              		.p2align 4,,15
 129              		.global	app_adc_start
 130              		.syntax unified
 131              		.thumb
 132              		.thumb_func
 133              		.fpu fpv4-sp-d16
 134              		.type	app_adc_start, %function
 135              	app_adc_start:
 136              	.LVL6:
 137              	.LFB257:
 138              		.loc 1 61 36 is_stmt 1 view -0
 139              		.cfi_startproc
 140              		@ args = 0, pretend = 0, frame = 0
 141              		@ frame_needed = 0, uses_anonymous_args = 0
 142              		.loc 1 62 2 view .LVU24
 143              		.loc 1 61 36 is_stmt 0 view .LVU25
 144 0000 30B5     		push	{r4, r5, lr}
 145              		.cfi_def_cfa_offset 12
 146              		.cfi_offset 4, -12
 147              		.cfi_offset 5, -8
 148              		.cfi_offset 14, -4
 149 0002 83B0     		sub	sp, sp, #12
 150              		.cfi_def_cfa_offset 24
 151              		.loc 1 62 23 view .LVU26
 152 0004 064C     		ldr	r4, .L11
 153              		.loc 1 63 2 view .LVU27
 154 0006 074B     		ldr	r3, .L11+4
 155 0008 0022     		movs	r2, #0
 156              		.loc 1 61 36 view .LVU28
 157 000a 0546     		mov	r5, r0
 158              		.loc 1 63 2 view .LVU29
 159 000c 0092     		str	r2, [sp]
 160 000e 4FF4B361 		mov	r1, #1432
 161 0012 4022     		movs	r2, #64
 162 0014 0448     		ldr	r0, .L11+8
 163              	.LVL7:
 164              		.loc 1 62 23 view .LVU30
 165 0016 2570     		strb	r5, [r4]
 166              		.loc 1 63 2 is_stmt 1 view .LVU31
 167 0018 FFF7FEFF 		bl	chThdCreateStatic
 168              	.LVL8:
 169              		.loc 1 64 1 is_stmt 0 view .LVU32
 170 001c 03B0     		add	sp, sp, #12
 171              		.cfi_def_cfa_offset 12
ARM GAS  C:\Users\USER\AppData\Local\Temp\cc3a5puU.s 			page 4


 172              		@ sp needed
 173 001e 30BD     		pop	{r4, r5, pc}
 174              	.L12:
 175              		.align	2
 176              	.L11:
 177 0020 00000000 		.word	.LANCHOR2
 178 0024 00000000 		.word	adc_thread
 179 0028 00000000 		.word	.LANCHOR3
 180              		.cfi_endproc
 181              	.LFE257:
 182              		.size	app_adc_start, .-app_adc_start
 183              		.section	.text.app_adc_get_decoded_level,"ax",%progbits
 184              		.align	1
 185              		.p2align 4,,15
 186              		.global	app_adc_get_decoded_level
 187              		.syntax unified
 188              		.thumb
 189              		.thumb_func
 190              		.fpu fpv4-sp-d16
 191              		.type	app_adc_get_decoded_level, %function
 192              	app_adc_get_decoded_level:
 193              	.LFB258:
 194              		.loc 1 66 39 is_stmt 1 view -0
 195              		.cfi_startproc
 196              		@ args = 0, pretend = 0, frame = 0
 197              		@ frame_needed = 0, uses_anonymous_args = 0
 198              		@ link register save eliminated.
 199              		.loc 1 67 2 view .LVU34
 200              		.loc 1 67 9 is_stmt 0 view .LVU35
 201 0000 014B     		ldr	r3, .L14
 202 0002 93ED000A 		vldr.32	s0, [r3]
 203              		.loc 1 68 1 view .LVU36
 204 0006 7047     		bx	lr
 205              	.L15:
 206              		.align	2
 207              	.L14:
 208 0008 00000000 		.word	.LANCHOR4
 209              		.cfi_endproc
 210              	.LFE258:
 211              		.size	app_adc_get_decoded_level, .-app_adc_get_decoded_level
 212              		.section	.text.app_adc_get_voltage,"ax",%progbits
 213              		.align	1
 214              		.p2align 4,,15
 215              		.global	app_adc_get_voltage
 216              		.syntax unified
 217              		.thumb
 218              		.thumb_func
 219              		.fpu fpv4-sp-d16
 220              		.type	app_adc_get_voltage, %function
 221              	app_adc_get_voltage:
 222              	.LFB259:
 223              		.loc 1 70 33 is_stmt 1 view -0
 224              		.cfi_startproc
 225              		@ args = 0, pretend = 0, frame = 0
 226              		@ frame_needed = 0, uses_anonymous_args = 0
 227              		@ link register save eliminated.
 228              		.loc 1 71 2 view .LVU38
ARM GAS  C:\Users\USER\AppData\Local\Temp\cc3a5puU.s 			page 5


 229              		.loc 1 71 9 is_stmt 0 view .LVU39
 230 0000 014B     		ldr	r3, .L17
 231 0002 93ED000A 		vldr.32	s0, [r3]
 232              		.loc 1 72 1 view .LVU40
 233 0006 7047     		bx	lr
 234              	.L18:
 235              		.align	2
 236              	.L17:
 237 0008 00000000 		.word	.LANCHOR5
 238              		.cfi_endproc
 239              	.LFE259:
 240              		.size	app_adc_get_voltage, .-app_adc_get_voltage
 241              		.section	.text.app_adc_get_decoded_level2,"ax",%progbits
 242              		.align	1
 243              		.p2align 4,,15
 244              		.global	app_adc_get_decoded_level2
 245              		.syntax unified
 246              		.thumb
 247              		.thumb_func
 248              		.fpu fpv4-sp-d16
 249              		.type	app_adc_get_decoded_level2, %function
 250              	app_adc_get_decoded_level2:
 251              	.LFB260:
 252              		.loc 1 74 40 is_stmt 1 view -0
 253              		.cfi_startproc
 254              		@ args = 0, pretend = 0, frame = 0
 255              		@ frame_needed = 0, uses_anonymous_args = 0
 256              		@ link register save eliminated.
 257              		.loc 1 75 2 view .LVU42
 258              		.loc 1 75 9 is_stmt 0 view .LVU43
 259 0000 014B     		ldr	r3, .L20
 260 0002 93ED000A 		vldr.32	s0, [r3]
 261              		.loc 1 76 1 view .LVU44
 262 0006 7047     		bx	lr
 263              	.L21:
 264              		.align	2
 265              	.L20:
 266 0008 00000000 		.word	.LANCHOR6
 267              		.cfi_endproc
 268              	.LFE260:
 269              		.size	app_adc_get_decoded_level2, .-app_adc_get_decoded_level2
 270              		.section	.text.app_adc_get_voltage2,"ax",%progbits
 271              		.align	1
 272              		.p2align 4,,15
 273              		.global	app_adc_get_voltage2
 274              		.syntax unified
 275              		.thumb
 276              		.thumb_func
 277              		.fpu fpv4-sp-d16
 278              		.type	app_adc_get_voltage2, %function
 279              	app_adc_get_voltage2:
 280              	.LFB261:
 281              		.loc 1 78 34 is_stmt 1 view -0
 282              		.cfi_startproc
 283              		@ args = 0, pretend = 0, frame = 0
 284              		@ frame_needed = 0, uses_anonymous_args = 0
 285              		@ link register save eliminated.
ARM GAS  C:\Users\USER\AppData\Local\Temp\cc3a5puU.s 			page 6


 286              		.loc 1 79 2 view .LVU46
 287              		.loc 1 79 9 is_stmt 0 view .LVU47
 288 0000 014B     		ldr	r3, .L23
 289 0002 93ED000A 		vldr.32	s0, [r3]
 290              		.loc 1 80 1 view .LVU48
 291 0006 7047     		bx	lr
 292              	.L24:
 293              		.align	2
 294              	.L23:
 295 0008 00000000 		.word	.LANCHOR7
 296              		.cfi_endproc
 297              	.LFE261:
 298              		.size	app_adc_get_voltage2, .-app_adc_get_voltage2
 299              		.section	.bss.adc_thread_wa,"aw",%nobits
 300              		.align	3
 301              		.set	.LANCHOR3,. + 0
 302              		.type	adc_thread_wa, %object
 303              		.size	adc_thread_wa, 1432
 304              	adc_thread_wa:
 305 0000 00000000 		.space	1432
 305      00000000 
 305      00000000 
 305      00000000 
 305      00000000 
 306              		.section	.bss.config,"aw",%nobits
 307              		.align	2
 308              		.set	.LANCHOR0,. + 0
 309              		.type	config, %object
 310              		.size	config, 44
 311              	config:
 312 0000 00000000 		.space	44
 312      00000000 
 312      00000000 
 312      00000000 
 312      00000000 
 313              		.section	.bss.decoded_level,"aw",%nobits
 314              		.align	2
 315              		.set	.LANCHOR4,. + 0
 316              		.type	decoded_level, %object
 317              		.size	decoded_level, 4
 318              	decoded_level:
 319 0000 00000000 		.space	4
 320              		.section	.bss.decoded_level2,"aw",%nobits
 321              		.align	2
 322              		.set	.LANCHOR6,. + 0
 323              		.type	decoded_level2, %object
 324              		.size	decoded_level2, 4
 325              	decoded_level2:
 326 0000 00000000 		.space	4
 327              		.section	.bss.ms_without_power,"aw",%nobits
 328              		.align	2
 329              		.set	.LANCHOR1,. + 0
 330              		.type	ms_without_power, %object
 331              		.size	ms_without_power, 4
 332              	ms_without_power:
 333 0000 00000000 		.space	4
 334              		.section	.bss.read_voltage,"aw",%nobits
ARM GAS  C:\Users\USER\AppData\Local\Temp\cc3a5puU.s 			page 7


 335              		.align	2
 336              		.set	.LANCHOR5,. + 0
 337              		.type	read_voltage, %object
 338              		.size	read_voltage, 4
 339              	read_voltage:
 340 0000 00000000 		.space	4
 341              		.section	.bss.read_voltage2,"aw",%nobits
 342              		.align	2
 343              		.set	.LANCHOR7,. + 0
 344              		.type	read_voltage2, %object
 345              		.size	read_voltage2, 4
 346              	read_voltage2:
 347 0000 00000000 		.space	4
 348              		.section	.bss.use_rx_tx_as_buttons,"aw",%nobits
 349              		.set	.LANCHOR2,. + 0
 350              		.type	use_rx_tx_as_buttons, %object
 351              		.size	use_rx_tx_as_buttons, 1
 352              	use_rx_tx_as_buttons:
 353 0000 00       		.space	1
 354              		.section	.rodata.adc_thread.str1.4,"aMS",%progbits,1
 355              		.align	2
 356              	.LC0:
 357 0000 4150505F 		.ascii	"APP_ADC\000"
 357      41444300 
 358              		.text
 359              	.Letext0:
 360              		.file 3 "c:\\program files (x86)\\gnu tools arm embedded\\8 2018-q4-major\\arm-none-eabi\\include\
 361              		.file 4 "c:\\program files (x86)\\gnu tools arm embedded\\8 2018-q4-major\\arm-none-eabi\\include\
 362              		.file 5 "src/app/app.h"
 363              		.file 6 "c:\\program files (x86)\\gnu tools arm embedded\\8 2018-q4-major\\lib\\gcc\\arm-none-eabi
 364              		.file 7 "src/ChibiOS_3.0.2/os/rt/ports/ARMCMx/compilers/GCC/chtypes.h"
 365              		.file 8 "src/ChibiOS_3.0.2/os/rt/include/chsystypes.h"
 366              		.file 9 "src/ChibiOS_3.0.2/os/rt/include/chschd.h"
 367              		.file 10 "src/ChibiOS_3.0.2/os/ext/CMSIS/include/core_cm4.h"
 368              		.file 11 "src/ChibiOS_3.0.2/os/ext/CMSIS/ST/system_stm32f4xx.h"
 369              		.file 12 "src/ChibiOS_3.0.2/os/ext/CMSIS/ST/stm32f407xx.h"
 370              		.file 13 "src/ChibiOS_3.0.2/os/rt/ports/ARMCMx/chcore.h"
 371              		.file 14 "src/ChibiOS_3.0.2/os/rt/ports/ARMCMx/chcore_v7m.h"
 372              		.file 15 "src/ChibiOS_3.0.2/os/rt/include/chtm.h"
 373              		.file 16 "src/ChibiOS_3.0.2/os/rt/include/chsem.h"
 374              		.file 17 "src/ChibiOS_3.0.2/os/rt/include/chmtx.h"
 375              		.file 18 "src/ChibiOS_3.0.2/os/rt/include/chevents.h"
 376              		.file 19 "src/ChibiOS_3.0.2/os/rt/include/chqueues.h"
 377              		.file 20 "src/ChibiOS_3.0.2/os/hal/ports/STM32/STM32F4xx/stm32_dma.h"
 378              		.file 21 "src/ChibiOS_3.0.2/os/hal/ports/STM32/LLD/GPIOv2/pal_lld.h"
 379              		.file 22 "src/ChibiOS_3.0.2/os/hal/include/can.h"
 380              		.file 23 "src/ChibiOS_3.0.2/os/hal/ports/STM32/LLD/can_lld.h"
 381              		.file 24 "src/ChibiOS_3.0.2/os/hal/include/i2c.h"
 382              		.file 25 "src/ChibiOS_3.0.2/os/hal/ports/STM32/LLD/I2Cv1/i2c_lld.h"
 383              		.file 26 "src/ChibiOS_3.0.2/os/hal/include/icu.h"
 384              		.file 27 "src/ChibiOS_3.0.2/os/hal/ports/STM32/LLD/TIMv1/icu_lld.h"
 385              		.file 28 "src/ChibiOS_3.0.2/os/hal/ports/STM32/LLD/TIMv1/stm32_tim.h"
 386              		.file 29 "src/ChibiOS_3.0.2/os/hal/include/serial.h"
 387              		.file 30 "src/ChibiOS_3.0.2/os/hal/ports/STM32/LLD/USARTv1/serial_lld.h"
 388              		.file 31 "src/ChibiOS_3.0.2/os/hal/include/spi.h"
 389              		.file 32 "src/ChibiOS_3.0.2/os/hal/ports/STM32/LLD/SPIv1/spi_lld.h"
 390              		.file 33 "src/ChibiOS_3.0.2/os/hal/include/uart.h"
ARM GAS  C:\Users\USER\AppData\Local\Temp\cc3a5puU.s 			page 8


 391              		.file 34 "src/ChibiOS_3.0.2/os/hal/ports/STM32/LLD/USARTv1/uart_lld.h"
 392              		.file 35 "src/ChibiOS_3.0.2/os/hal/include/usb.h"
 393              		.file 36 "src/ChibiOS_3.0.2/os/hal/ports/STM32/LLD/OTGv1/usb_lld.h"
 394              		.file 37 "src/ChibiOS_3.0.2/os/hal/ports/STM32/LLD/OTGv1/stm32_otg.h"
 395              		.file 38 "src/hw_oroca.h"
 396              		.file 39 "c:\\program files (x86)\\gnu tools arm embedded\\8 2018-q4-major\\arm-none-eabi\\include
 397              		.file 40 "c:\\program files (x86)\\gnu tools arm embedded\\8 2018-q4-major\\arm-none-eabi\\include
 398              		.file 41 "c:\\program files (x86)\\gnu tools arm embedded\\8 2018-q4-major\\arm-none-eabi\\include
 399              		.file 42 "c:\\program files (x86)\\gnu tools arm embedded\\8 2018-q4-major\\arm-none-eabi\\include
 400              		.file 43 "src/ChibiOS_3.0.2/os/rt/include/chthreads.h"