ARM GAS  C:\Users\IDONNO~1\AppData\Local\Temp\ccP9Krzp.s 			page 1


   1              		.syntax unified
   2              		.cpu cortex-m4
   3              		.eabi_attribute 27, 1
   4              		.eabi_attribute 28, 1
   5              		.fpu fpv4-sp-d16
   6              		.eabi_attribute 20, 1
   7              		.eabi_attribute 21, 1
   8              		.eabi_attribute 23, 3
   9              		.eabi_attribute 24, 1
  10              		.eabi_attribute 25, 1
  11              		.eabi_attribute 26, 1
  12              		.eabi_attribute 30, 2
  13              		.eabi_attribute 34, 1
  14              		.eabi_attribute 18, 4
  15              		.thumb
  16              		.syntax unified
  17              		.file	"app_uartcomm.c"
  18              		.text
  19              	.Ltext0:
  20              		.cfi_sections	.debug_frame
  21              		.section	.text.rxerr,"ax",%progbits
  22              		.align	2
  23              		.p2align 4,,15
  24              		.thumb
  25              		.thumb_func
  26              		.type	rxerr, %function
  27              	rxerr:
  28              	.LFB258:
  29              		.file 1 "src/app/app_uartcomm.c"
  30              		.loc 1 74 0
  31              		.cfi_startproc
  32              		@ args = 0, pretend = 0, frame = 0
  33              		@ frame_needed = 0, uses_anonymous_args = 0
  34              		@ link register save eliminated.
  35              	.LVL0:
  36 0000 7047     		bx	lr
  37              		.cfi_endproc
  38              	.LFE258:
  39              		.size	rxerr, .-rxerr
  40 0002 00BF     		.section	.text.rxend,"ax",%progbits
  41              		.align	2
  42              		.p2align 4,,15
  43              		.thumb
  44              		.thumb_func
  45              		.type	rxend, %function
  46              	rxend:
  47              	.LFB260:
  48              		.loc 1 99 0
  49              		.cfi_startproc
  50              		@ args = 0, pretend = 0, frame = 0
  51              		@ frame_needed = 0, uses_anonymous_args = 0
  52              		@ link register save eliminated.
  53              	.LVL1:
  54 0000 7047     		bx	lr
  55              		.cfi_endproc
  56              	.LFE260:
  57              		.size	rxend, .-rxend
ARM GAS  C:\Users\IDONNO~1\AppData\Local\Temp\ccP9Krzp.s 			page 2


  58 0002 00BF     		.section	.text.packet_process_thread,"ax",%progbits
  59              		.align	2
  60              		.p2align 4,,15
  61              		.thumb
  62              		.thumb_func
  63              		.type	packet_process_thread, %function
  64              	packet_process_thread:
  65              	.LFB266:
  66              		.loc 1 161 0
  67              		.cfi_startproc
  68              		@ Volatile: function does not return.
  69              		@ args = 0, pretend = 0, frame = 0
  70              		@ frame_needed = 0, uses_anonymous_args = 0
  71              	.LVL2:
  72              		.loc 1 161 0
  73 0000 08B5     		push	{r3, lr}
  74              		.cfi_def_cfa_offset 8
  75              		.cfi_offset 3, -8
  76              		.cfi_offset 14, -4
  77              	.LBB40:
  78              	.LBB41:
  79              		.file 2 "src/ChibiOS_3.0.2/os/rt/include/chregistry.h"
  80              		.loc 2 135 0
  81 0002 054B     		ldr	r3, .L7
  82              	.LBE41:
  83              	.LBE40:
  84              		.loc 1 166 0
  85 0004 054A     		ldr	r2, .L7+4
  86              	.LBB43:
  87              	.LBB42:
  88              		.loc 2 135 0
  89 0006 9B69     		ldr	r3, [r3, #24]
  90 0008 0549     		ldr	r1, .L7+8
  91 000a 9961     		str	r1, [r3, #24]
  92              	.LVL3:
  93              	.LBE42:
  94              	.LBE43:
  95              		.loc 1 166 0
  96 000c 1360     		str	r3, [r2]
  97              	.LVL4:
  98              	.L4:
  99              		.loc 1 169 0 discriminator 1
 100 000e 0120     		movs	r0, #1
 101 0010 FFF7FEFF 		bl	chEvtWaitAny
 102              	.LVL5:
 103 0014 FBE7     		b	.L4
 104              	.L8:
 105 0016 00BF     		.align	2
 106              	.L7:
 107 0018 00000000 		.word	ch
 108 001c 00000000 		.word	.LANCHOR0
 109 0020 00000000 		.word	.LC0
 110              		.cfi_endproc
 111              	.LFE266:
 112              		.size	packet_process_thread, .-packet_process_thread
 113              		.section	.text.rxchar,"ax",%progbits
 114              		.align	2
ARM GAS  C:\Users\IDONNO~1\AppData\Local\Temp\ccP9Krzp.s 			page 3


 115              		.p2align 4,,15
 116              		.thumb
 117              		.thumb_func
 118              		.type	rxchar, %function
 119              	rxchar:
 120              	.LFB259:
 121              		.loc 1 83 0
 122              		.cfi_startproc
 123              		@ args = 0, pretend = 0, frame = 0
 124              		@ frame_needed = 0, uses_anonymous_args = 0
 125              	.LVL6:
 126              		.loc 1 85 0
 127 0000 0A4A     		ldr	r2, .L14
 128              		.loc 1 83 0
 129 0002 08B5     		push	{r3, lr}
 130              		.cfi_def_cfa_offset 8
 131              		.cfi_offset 3, -8
 132              		.cfi_offset 14, -4
 133              		.loc 1 85 0
 134 0004 1368     		ldr	r3, [r2]
 135 0006 0133     		adds	r3, r3, #1
 136              		.loc 1 87 0
 137 0008 B3F5806F 		cmp	r3, #1024
 138              		.loc 1 88 0
 139 000c 08BF     		it	eq
 140 000e 0023     		moveq	r3, #0
 141 0010 1360     		str	r3, [r2]
 142              	.LBB44:
 143              	.LBB45:
 144              	.LBB46:
 145              	.LBB47:
 146              	.LBB48:
 147              		.file 3 "src/ChibiOS_3.0.2/os/ext/CMSIS/include/core_cmFunc.h"
 148              		.loc 3 546 0
 149 0012 2023     		movs	r3, #32
 150              		.syntax unified
 151              	@ 546 "src/ChibiOS_3.0.2/os/ext/CMSIS/include/core_cmFunc.h" 1
 152 0014 83F31188 		MSR basepri, r3
 153              	@ 0 "" 2
 154              	.LVL7:
 155              		.thumb
 156              		.syntax unified
 157              	.LBE48:
 158              	.LBE47:
 159              	.LBE46:
 160              	.LBE45:
 161              	.LBE44:
 162              		.loc 1 92 0
 163 0018 054B     		ldr	r3, .L14+4
 164 001a 0121     		movs	r1, #1
 165              	.LVL8:
 166 001c 1868     		ldr	r0, [r3]
 167              	.LVL9:
 168 001e FFF7FEFF 		bl	chEvtSignalI
 169              	.LVL10:
 170              	.LBB49:
 171              	.LBB50:
ARM GAS  C:\Users\IDONNO~1\AppData\Local\Temp\ccP9Krzp.s 			page 4


 172              	.LBB51:
 173              	.LBB52:
 174              	.LBB53:
 175              		.loc 3 546 0
 176 0022 0023     		movs	r3, #0
 177              		.syntax unified
 178              	@ 546 "src/ChibiOS_3.0.2/os/ext/CMSIS/include/core_cmFunc.h" 1
 179 0024 83F31188 		MSR basepri, r3
 180              	@ 0 "" 2
 181              	.LVL11:
 182              		.thumb
 183              		.syntax unified
 184 0028 08BD     		pop	{r3, pc}
 185              	.L15:
 186 002a 00BF     		.align	2
 187              	.L14:
 188 002c 00000000 		.word	.LANCHOR1
 189 0030 00000000 		.word	.LANCHOR0
 190              	.LBE53:
 191              	.LBE52:
 192              	.LBE51:
 193              	.LBE50:
 194              	.LBE49:
 195              		.cfi_endproc
 196              	.LFE259:
 197              		.size	rxchar, .-rxchar
 198              		.section	.text.txend2,"ax",%progbits
 199              		.align	2
 200              		.p2align 4,,15
 201              		.thumb
 202              		.thumb_func
 203              		.type	txend2, %function
 204              	txend2:
 205              	.LFB268:
 206              		.cfi_startproc
 207              		@ args = 0, pretend = 0, frame = 0
 208              		@ frame_needed = 0, uses_anonymous_args = 0
 209              		@ link register save eliminated.
 210 0000 7047     		bx	lr
 211              		.cfi_endproc
 212              	.LFE268:
 213              		.size	txend2, .-txend2
 214 0002 00BF     		.section	.text.txend1,"ax",%progbits
 215              		.align	2
 216              		.p2align 4,,15
 217              		.thumb
 218              		.thumb_func
 219              		.type	txend1, %function
 220              	txend1:
 221              	.LFB270:
 222              		.cfi_startproc
 223              		@ args = 0, pretend = 0, frame = 0
 224              		@ frame_needed = 0, uses_anonymous_args = 0
 225              		@ link register save eliminated.
 226 0000 7047     		bx	lr
 227              		.cfi_endproc
 228              	.LFE270:
ARM GAS  C:\Users\IDONNO~1\AppData\Local\Temp\ccP9Krzp.s 			page 5


 229              		.size	txend1, .-txend1
 230 0002 00BF     		.section	.text.app_uartcomm_start,"ax",%progbits
 231              		.align	2
 232              		.p2align 4,,15
 233              		.global	app_uartcomm_start
 234              		.thumb
 235              		.thumb_func
 236              		.type	app_uartcomm_start, %function
 237              	app_uartcomm_start:
 238              	.LFB264:
 239              		.loc 1 141 0
 240              		.cfi_startproc
 241              		@ args = 0, pretend = 0, frame = 0
 242              		@ frame_needed = 0, uses_anonymous_args = 0
 243              		.loc 1 141 0
 244 0000 30B5     		push	{r4, r5, lr}
 245              		.cfi_def_cfa_offset 12
 246              		.cfi_offset 4, -12
 247              		.cfi_offset 5, -8
 248              		.cfi_offset 14, -4
 249              		.loc 1 145 0
 250 0002 104C     		ldr	r4, .L20
 251              		.loc 1 144 0
 252 0004 1049     		ldr	r1, .L20+4
 253 0006 1148     		ldr	r0, .L20+8
 254              		.loc 1 141 0
 255 0008 83B0     		sub	sp, sp, #12
 256              		.cfi_def_cfa_offset 24
 257              		.loc 1 144 0
 258 000a FFF7FEFF 		bl	uartStart
 259              	.LVL12:
 260              		.loc 1 145 0
 261 000e 2046     		mov	r0, r4
 262 0010 40F23A42 		movw	r2, #1082
 263 0014 4021     		movs	r1, #64
 264 0016 FFF7FEFF 		bl	_pal_lld_setgroupmode
 265              	.LVL13:
 266              		.loc 1 146 0
 267 001a 2046     		mov	r0, r4
 268 001c 40F23A42 		movw	r2, #1082
 269 0020 8021     		movs	r1, #128
 270              		.loc 1 148 0
 271 0022 0B4C     		ldr	r4, .L20+12
 272              		.loc 1 146 0
 273 0024 FFF7FEFF 		bl	_pal_lld_setgroupmode
 274              	.LVL14:
 275              		.loc 1 148 0
 276 0028 0125     		movs	r5, #1
 277              		.loc 1 150 0
 278 002a 0022     		movs	r2, #0
 279 002c 0092     		str	r2, [sp]
 280 002e 094B     		ldr	r3, .L20+16
 281              		.loc 1 148 0
 282 0030 2560     		str	r5, [r4]
 283              		.loc 1 150 0
 284 0032 4022     		movs	r2, #64
 285 0034 41F29811 		movw	r1, #4504
ARM GAS  C:\Users\IDONNO~1\AppData\Local\Temp\ccP9Krzp.s 			page 6


 286 0038 0748     		ldr	r0, .L20+20
 287 003a FFF7FEFF 		bl	chThdCreateStatic
 288              	.LVL15:
 289              		.loc 1 151 0
 290 003e 03B0     		add	sp, sp, #12
 291              		.cfi_def_cfa_offset 12
 292              		@ sp needed
 293 0040 30BD     		pop	{r4, r5, pc}
 294              	.L21:
 295 0042 00BF     		.align	2
 296              	.L20:
 297 0044 00080240 		.word	1073874944
 298 0048 00000000 		.word	.LANCHOR2
 299 004c 00000000 		.word	UARTD6
 300 0050 00000000 		.word	.LANCHOR3
 301 0054 00000000 		.word	packet_process_thread
 302 0058 00000000 		.word	.LANCHOR4
 303              		.cfi_endproc
 304              	.LFE264:
 305              		.size	app_uartcomm_start, .-app_uartcomm_start
 306              		.section	.text.app_uartcomm_configure,"ax",%progbits
 307              		.align	2
 308              		.p2align 4,,15
 309              		.global	app_uartcomm_configure
 310              		.thumb
 311              		.thumb_func
 312              		.type	app_uartcomm_configure, %function
 313              	app_uartcomm_configure:
 314              	.LFB265:
 315              		.loc 1 153 0
 316              		.cfi_startproc
 317              		@ args = 0, pretend = 0, frame = 0
 318              		@ frame_needed = 0, uses_anonymous_args = 0
 319              		@ link register save eliminated.
 320              	.LVL16:
 321              		.loc 1 156 0
 322 0000 044B     		ldr	r3, .L25
 323              		.loc 1 154 0
 324 0002 0549     		ldr	r1, .L25+4
 325              		.loc 1 156 0
 326 0004 1B68     		ldr	r3, [r3]
 327              		.loc 1 154 0
 328 0006 4861     		str	r0, [r1, #20]
 329              		.loc 1 156 0
 330 0008 03B9     		cbnz	r3, .L24
 331 000a 7047     		bx	lr
 332              	.L24:
 333              		.loc 1 157 0
 334 000c 0348     		ldr	r0, .L25+8
 335              	.LVL17:
 336 000e FFF7FEBF 		b	uartStart
 337              	.LVL18:
 338              	.L26:
 339 0012 00BF     		.align	2
 340              	.L25:
 341 0014 00000000 		.word	.LANCHOR3
 342 0018 00000000 		.word	.LANCHOR2
ARM GAS  C:\Users\IDONNO~1\AppData\Local\Temp\ccP9Krzp.s 			page 7


 343 001c 00000000 		.word	UARTD6
 344              		.cfi_endproc
 345              	.LFE265:
 346              		.size	app_uartcomm_configure, .-app_uartcomm_configure
 347              		.section	.bss.serial_rx_write_pos,"aw",%nobits
 348              		.align	2
 349              		.set	.LANCHOR1,. + 0
 350              		.type	serial_rx_write_pos, %object
 351              		.size	serial_rx_write_pos, 4
 352              	serial_rx_write_pos:
 353 0000 00000000 		.space	4
 354              		.section	.bss.is_running,"aw",%nobits
 355              		.align	2
 356              		.set	.LANCHOR3,. + 0
 357              		.type	is_running, %object
 358              		.size	is_running, 4
 359              	is_running:
 360 0000 00000000 		.space	4
 361              		.section	.data.uart_cfg,"aw",%progbits
 362              		.align	2
 363              		.set	.LANCHOR2,. + 0
 364              		.type	uart_cfg, %object
 365              		.size	uart_cfg, 32
 366              	uart_cfg:
 367 0000 00000000 		.word	txend1
 368 0004 00000000 		.word	txend2
 369 0008 00000000 		.word	rxend
 370 000c 00000000 		.word	rxchar
 371 0010 00000000 		.word	rxerr
 372 0014 00C20100 		.word	115200
 373 0018 0000     		.short	0
 374 001a 0040     		.short	16384
 375 001c 0000     		.short	0
 376 001e 0000     		.space	2
 377              		.section	.bss.packet_process_thread_wa,"aw",%nobits
 378              		.align	3
 379              		.set	.LANCHOR4,. + 0
 380              		.type	packet_process_thread_wa, %object
 381              		.size	packet_process_thread_wa, 4504
 382              	packet_process_thread_wa:
 383 0000 00000000 		.space	4504
 383      00000000 
 383      00000000 
 383      00000000 
 383      00000000 
 384              		.section	.rodata.str1.4,"aMS",%progbits,1
 385              		.align	2
 386              	.LC0:
 387 0000 75617274 		.ascii	"uartcomm process\000"
 387      636F6D6D 
 387      2070726F 
 387      63657373 
 387      00
 388              		.section	.bss.process_tp,"aw",%nobits
 389              		.align	2
 390              		.set	.LANCHOR0,. + 0
 391              		.type	process_tp, %object
ARM GAS  C:\Users\IDONNO~1\AppData\Local\Temp\ccP9Krzp.s 			page 8


 392              		.size	process_tp, 4
 393              	process_tp:
 394 0000 00000000 		.space	4
 395              		.text
 396              	.Letext0:
 397              		.file 4 "c:\\program files (x86)\\gnu tools arm embedded\\5.4 2016q3\\arm-none-eabi\\include\\mach
 398              		.file 5 "c:\\program files (x86)\\gnu tools arm embedded\\5.4 2016q3\\arm-none-eabi\\include\\sys\
 399              		.file 6 "c:\\program files (x86)\\gnu tools arm embedded\\5.4 2016q3\\lib\\gcc\\arm-none-eabi\\5.4
 400              		.file 7 "src/ChibiOS_3.0.2/os/rt/ports/ARMCMx/compilers/GCC/chtypes.h"
 401              		.file 8 "src/ChibiOS_3.0.2/os/rt/include/chsystypes.h"
 402              		.file 9 "src/ChibiOS_3.0.2/os/rt/include/chschd.h"
 403              		.file 10 "src/ChibiOS_3.0.2/os/ext/CMSIS/ST/stm32f407xx.h"
 404              		.file 11 "src/ChibiOS_3.0.2/os/rt/ports/ARMCMx/chcore.h"
 405              		.file 12 "src/ChibiOS_3.0.2/os/rt/ports/ARMCMx/chcore_v7m.h"
 406              		.file 13 "src/ChibiOS_3.0.2/os/rt/include/chtm.h"
 407              		.file 14 "src/ChibiOS_3.0.2/os/rt/include/chsem.h"
 408              		.file 15 "src/ChibiOS_3.0.2/os/rt/include/chmtx.h"
 409              		.file 16 "src/ChibiOS_3.0.2/os/hal/ports/STM32/STM32F4xx/stm32_dma.h"
 410              		.file 17 "src/ChibiOS_3.0.2/os/hal/ports/STM32/LLD/GPIOv2/pal_lld.h"
 411              		.file 18 "src/ChibiOS_3.0.2/os/hal/include/uart.h"
 412              		.file 19 "src/ChibiOS_3.0.2/os/hal/ports/STM32/LLD/USARTv1/uart_lld.h"
 413              		.file 20 "src/ChibiOS_3.0.2/os/rt/include/chsys.h"
 414              		.file 21 "src/ChibiOS_3.0.2/os/ext/CMSIS/include/core_cm4.h"
 415              		.file 22 "src/ChibiOS_3.0.2/os/rt/include/chevents.h"
 416              		.file 23 "src/ChibiOS_3.0.2/os/rt/include/chthreads.h"
 417              		.section	.debug_info,"",%progbits
 418              	.Ldebug_info0:
 419 0000 320F0000 		.4byte	0xf32
 420 0004 0400     		.2byte	0x4
 421 0006 00000000 		.4byte	.Ldebug_abbrev0
 422 000a 04       		.byte	0x4
 423 000b 01       		.uleb128 0x1
 424 000c 06080000 		.4byte	.LASF195
 425 0010 0C       		.byte	0xc
 426 0011 B3070000 		.4byte	.LASF196
 427 0015 0B030000 		.4byte	.LASF197
 428 0019 18000000 		.4byte	.Ldebug_ranges0+0x18
 429 001d 00000000 		.4byte	0
 430 0021 00000000 		.4byte	.Ldebug_line0
 431 0025 02       		.uleb128 0x2
 432 0026 01       		.byte	0x1
 433 0027 06       		.byte	0x6
 434 0028 37010000 		.4byte	.LASF0
 435 002c 03       		.uleb128 0x3
 436 002d 61000000 		.4byte	.LASF3
 437 0031 04       		.byte	0x4
 438 0032 1D       		.byte	0x1d
 439 0033 37000000 		.4byte	0x37
 440 0037 02       		.uleb128 0x2
 441 0038 01       		.byte	0x1
 442 0039 08       		.byte	0x8
 443 003a 72050000 		.4byte	.LASF1
 444 003e 02       		.uleb128 0x2
 445 003f 02       		.byte	0x2
 446 0040 05       		.byte	0x5
 447 0041 98050000 		.4byte	.LASF2
 448 0045 03       		.uleb128 0x3
ARM GAS  C:\Users\IDONNO~1\AppData\Local\Temp\ccP9Krzp.s 			page 9


 449 0046 87060000 		.4byte	.LASF4
 450 004a 04       		.byte	0x4
 451 004b 2B       		.byte	0x2b
 452 004c 50000000 		.4byte	0x50
 453 0050 02       		.uleb128 0x2
 454 0051 02       		.byte	0x2
 455 0052 07       		.byte	0x7
 456 0053 D6020000 		.4byte	.LASF5
 457 0057 03       		.uleb128 0x3
 458 0058 83030000 		.4byte	.LASF6
 459 005c 04       		.byte	0x4
 460 005d 3F       		.byte	0x3f
 461 005e 62000000 		.4byte	0x62
 462 0062 02       		.uleb128 0x2
 463 0063 04       		.byte	0x4
 464 0064 05       		.byte	0x5
 465 0065 9B010000 		.4byte	.LASF7
 466 0069 03       		.uleb128 0x3
 467 006a D5060000 		.4byte	.LASF8
 468 006e 04       		.byte	0x4
 469 006f 41       		.byte	0x41
 470 0070 74000000 		.4byte	0x74
 471 0074 02       		.uleb128 0x2
 472 0075 04       		.byte	0x4
 473 0076 07       		.byte	0x7
 474 0077 5C060000 		.4byte	.LASF9
 475 007b 02       		.uleb128 0x2
 476 007c 08       		.byte	0x8
 477 007d 05       		.byte	0x5
 478 007e 29010000 		.4byte	.LASF10
 479 0082 03       		.uleb128 0x3
 480 0083 D6040000 		.4byte	.LASF11
 481 0087 04       		.byte	0x4
 482 0088 5B       		.byte	0x5b
 483 0089 8D000000 		.4byte	0x8d
 484 008d 02       		.uleb128 0x2
 485 008e 08       		.byte	0x8
 486 008f 07       		.byte	0x7
 487 0090 9F000000 		.4byte	.LASF12
 488 0094 04       		.uleb128 0x4
 489 0095 04       		.byte	0x4
 490 0096 05       		.byte	0x5
 491 0097 696E7400 		.ascii	"int\000"
 492 009b 02       		.uleb128 0x2
 493 009c 04       		.byte	0x4
 494 009d 07       		.byte	0x7
 495 009e 72020000 		.4byte	.LASF13
 496 00a2 03       		.uleb128 0x3
 497 00a3 DE070000 		.4byte	.LASF14
 498 00a7 05       		.byte	0x5
 499 00a8 18       		.byte	0x18
 500 00a9 2C000000 		.4byte	0x2c
 501 00ad 03       		.uleb128 0x3
 502 00ae D1010000 		.4byte	.LASF15
 503 00b2 05       		.byte	0x5
 504 00b3 24       		.byte	0x24
 505 00b4 45000000 		.4byte	0x45
ARM GAS  C:\Users\IDONNO~1\AppData\Local\Temp\ccP9Krzp.s 			page 10


 506 00b8 03       		.uleb128 0x3
 507 00b9 6A050000 		.4byte	.LASF16
 508 00bd 05       		.byte	0x5
 509 00be 2C       		.byte	0x2c
 510 00bf 57000000 		.4byte	0x57
 511 00c3 03       		.uleb128 0x3
 512 00c4 76090000 		.4byte	.LASF17
 513 00c8 05       		.byte	0x5
 514 00c9 30       		.byte	0x30
 515 00ca 69000000 		.4byte	0x69
 516 00ce 03       		.uleb128 0x3
 517 00cf 51000000 		.4byte	.LASF18
 518 00d3 05       		.byte	0x5
 519 00d4 3C       		.byte	0x3c
 520 00d5 82000000 		.4byte	0x82
 521 00d9 02       		.uleb128 0x2
 522 00da 04       		.byte	0x4
 523 00db 07       		.byte	0x7
 524 00dc E6070000 		.4byte	.LASF19
 525 00e0 02       		.uleb128 0x2
 526 00e1 01       		.byte	0x1
 527 00e2 02       		.byte	0x2
 528 00e3 64050000 		.4byte	.LASF20
 529 00e7 02       		.uleb128 0x2
 530 00e8 04       		.byte	0x4
 531 00e9 04       		.byte	0x4
 532 00ea E6040000 		.4byte	.LASF21
 533 00ee 03       		.uleb128 0x3
 534 00ef 1F000000 		.4byte	.LASF22
 535 00f3 06       		.byte	0x6
 536 00f4 D8       		.byte	0xd8
 537 00f5 9B000000 		.4byte	0x9b
 538 00f9 05       		.uleb128 0x5
 539 00fa AD000000 		.4byte	0xad
 540 00fe 05       		.uleb128 0x5
 541 00ff B8000000 		.4byte	0xb8
 542 0103 05       		.uleb128 0x5
 543 0104 C3000000 		.4byte	0xc3
 544 0108 03       		.uleb128 0x3
 545 0109 4D070000 		.4byte	.LASF23
 546 010d 07       		.byte	0x7
 547 010e 45       		.byte	0x45
 548 010f C3000000 		.4byte	0xc3
 549 0113 03       		.uleb128 0x3
 550 0114 61030000 		.4byte	.LASF24
 551 0118 07       		.byte	0x7
 552 0119 48       		.byte	0x48
 553 011a A2000000 		.4byte	0xa2
 554 011e 03       		.uleb128 0x3
 555 011f A4010000 		.4byte	.LASF25
 556 0123 07       		.byte	0x7
 557 0124 49       		.byte	0x49
 558 0125 A2000000 		.4byte	0xa2
 559 0129 03       		.uleb128 0x3
 560 012a F1040000 		.4byte	.LASF26
 561 012e 07       		.byte	0x7
 562 012f 4A       		.byte	0x4a
ARM GAS  C:\Users\IDONNO~1\AppData\Local\Temp\ccP9Krzp.s 			page 11


 563 0130 A2000000 		.4byte	0xa2
 564 0134 03       		.uleb128 0x3
 565 0135 7B010000 		.4byte	.LASF27
 566 0139 07       		.byte	0x7
 567 013a 4B       		.byte	0x4b
 568 013b A2000000 		.4byte	0xa2
 569 013f 03       		.uleb128 0x3
 570 0140 2D050000 		.4byte	.LASF28
 571 0144 07       		.byte	0x7
 572 0145 4C       		.byte	0x4c
 573 0146 C3000000 		.4byte	0xc3
 574 014a 03       		.uleb128 0x3
 575 014b 05030000 		.4byte	.LASF29
 576 014f 07       		.byte	0x7
 577 0150 4D       		.byte	0x4d
 578 0151 B8000000 		.4byte	0xb8
 579 0155 03       		.uleb128 0x3
 580 0156 77030000 		.4byte	.LASF30
 581 015a 07       		.byte	0x7
 582 015b 4F       		.byte	0x4f
 583 015c C3000000 		.4byte	0xc3
 584 0160 03       		.uleb128 0x3
 585 0161 3D040000 		.4byte	.LASF31
 586 0165 07       		.byte	0x7
 587 0166 51       		.byte	0x51
 588 0167 B8000000 		.4byte	0xb8
 589 016b 03       		.uleb128 0x3
 590 016c B7060000 		.4byte	.LASF32
 591 0170 08       		.byte	0x8
 592 0171 33       		.byte	0x33
 593 0172 C3000000 		.4byte	0xc3
 594 0176 03       		.uleb128 0x3
 595 0177 A7060000 		.4byte	.LASF33
 596 017b 08       		.byte	0x8
 597 017c 3F       		.byte	0x3f
 598 017d 81010000 		.4byte	0x181
 599 0181 06       		.uleb128 0x6
 600 0182 FB020000 		.4byte	.LASF55
 601 0186 48       		.byte	0x48
 602 0187 09       		.byte	0x9
 603 0188 C2       		.byte	0xc2
 604 0189 86020000 		.4byte	0x286
 605 018d 07       		.uleb128 0x7
 606 018e D3050000 		.4byte	.LASF34
 607 0192 09       		.byte	0x9
 608 0193 C3       		.byte	0xc3
 609 0194 91020000 		.4byte	0x291
 610 0198 00       		.byte	0
 611 0199 07       		.uleb128 0x7
 612 019a 09050000 		.4byte	.LASF35
 613 019e 09       		.byte	0x9
 614 019f C5       		.byte	0xc5
 615 01a0 91020000 		.4byte	0x291
 616 01a4 04       		.byte	0x4
 617 01a5 07       		.uleb128 0x7
 618 01a6 1A010000 		.4byte	.LASF36
 619 01aa 09       		.byte	0x9
ARM GAS  C:\Users\IDONNO~1\AppData\Local\Temp\ccP9Krzp.s 			page 12


 620 01ab C7       		.byte	0xc7
 621 01ac 3F010000 		.4byte	0x13f
 622 01b0 08       		.byte	0x8
 623 01b1 07       		.uleb128 0x7
 624 01b2 7F090000 		.4byte	.LASF37
 625 01b6 09       		.byte	0x9
 626 01b7 C8       		.byte	0xc8
 627 01b8 8C050000 		.4byte	0x58c
 628 01bc 0C       		.byte	0xc
 629 01bd 07       		.uleb128 0x7
 630 01be DA010000 		.4byte	.LASF38
 631 01c2 09       		.byte	0x9
 632 01c3 CA       		.byte	0xca
 633 01c4 91020000 		.4byte	0x291
 634 01c8 10       		.byte	0x10
 635 01c9 07       		.uleb128 0x7
 636 01ca 6A040000 		.4byte	.LASF39
 637 01ce 09       		.byte	0x9
 638 01cf CB       		.byte	0xcb
 639 01d0 91020000 		.4byte	0x291
 640 01d4 14       		.byte	0x14
 641 01d5 07       		.uleb128 0x7
 642 01d6 A5070000 		.4byte	.LASF40
 643 01da 09       		.byte	0x9
 644 01db D2       		.byte	0xd2
 645 01dc D1070000 		.4byte	0x7d1
 646 01e0 18       		.byte	0x18
 647 01e1 07       		.uleb128 0x7
 648 01e2 A2050000 		.4byte	.LASF41
 649 01e6 09       		.byte	0x9
 650 01e7 DD       		.byte	0xdd
 651 01e8 1E010000 		.4byte	0x11e
 652 01ec 1C       		.byte	0x1c
 653 01ed 07       		.uleb128 0x7
 654 01ee E6050000 		.4byte	.LASF42
 655 01f2 09       		.byte	0x9
 656 01f3 E1       		.byte	0xe1
 657 01f4 13010000 		.4byte	0x113
 658 01f8 1D       		.byte	0x1d
 659 01f9 07       		.uleb128 0x7
 660 01fa AC070000 		.4byte	.LASF43
 661 01fe 09       		.byte	0x9
 662 01ff E6       		.byte	0xe6
 663 0200 29010000 		.4byte	0x129
 664 0204 1E       		.byte	0x1e
 665 0205 07       		.uleb128 0x7
 666 0206 AA050000 		.4byte	.LASF44
 667 020a 09       		.byte	0x9
 668 020b EC       		.byte	0xec
 669 020c 34010000 		.4byte	0x134
 670 0210 1F       		.byte	0x1f
 671 0211 07       		.uleb128 0x7
 672 0212 87020000 		.4byte	.LASF45
 673 0216 09       		.byte	0x9
 674 0217 F3       		.byte	0xf3
 675 0218 E3070000 		.4byte	0x7e3
 676 021c 20       		.byte	0x20
ARM GAS  C:\Users\IDONNO~1\AppData\Local\Temp\ccP9Krzp.s 			page 13


 677 021d 08       		.uleb128 0x8
 678 021e 705F7500 		.ascii	"p_u\000"
 679 0222 09       		.byte	0x9
 680 0223 3101     		.2byte	0x131
 681 0225 0C070000 		.4byte	0x70c
 682 0229 24       		.byte	0x24
 683 022a 09       		.uleb128 0x9
 684 022b 85090000 		.4byte	.LASF46
 685 022f 09       		.byte	0x9
 686 0230 3601     		.2byte	0x136
 687 0232 97020000 		.4byte	0x297
 688 0236 28       		.byte	0x28
 689 0237 09       		.uleb128 0x9
 690 0238 68070000 		.4byte	.LASF47
 691 023c 09       		.byte	0x9
 692 023d 3C01     		.2byte	0x13c
 693 023f BB020000 		.4byte	0x2bb
 694 0243 2C       		.byte	0x2c
 695 0244 09       		.uleb128 0x9
 696 0245 41090000 		.4byte	.LASF48
 697 0249 09       		.byte	0x9
 698 024a 4001     		.2byte	0x140
 699 024c 4A010000 		.4byte	0x14a
 700 0250 34       		.byte	0x34
 701 0251 09       		.uleb128 0x9
 702 0252 0C060000 		.4byte	.LASF49
 703 0256 09       		.byte	0x9
 704 0257 4601     		.2byte	0x146
 705 0259 55010000 		.4byte	0x155
 706 025d 38       		.byte	0x38
 707 025e 09       		.uleb128 0x9
 708 025f 8E050000 		.4byte	.LASF50
 709 0263 09       		.byte	0x9
 710 0264 4D01     		.2byte	0x14d
 711 0266 CB070000 		.4byte	0x7cb
 712 026a 3C       		.byte	0x3c
 713 026b 09       		.uleb128 0x9
 714 026c C1060000 		.4byte	.LASF51
 715 0270 09       		.byte	0x9
 716 0271 5101     		.2byte	0x151
 717 0273 3F010000 		.4byte	0x13f
 718 0277 40       		.byte	0x40
 719 0278 09       		.uleb128 0x9
 720 0279 56010000 		.4byte	.LASF52
 721 027d 09       		.byte	0x9
 722 027e 5801     		.2byte	0x158
 723 0280 6E030000 		.4byte	0x36e
 724 0284 44       		.byte	0x44
 725 0285 00       		.byte	0
 726 0286 03       		.uleb128 0x3
 727 0287 07040000 		.4byte	.LASF53
 728 028b 08       		.byte	0x8
 729 028c 44       		.byte	0x44
 730 028d 91020000 		.4byte	0x291
 731 0291 0A       		.uleb128 0xa
 732 0292 04       		.byte	0x4
 733 0293 76010000 		.4byte	0x176
ARM GAS  C:\Users\IDONNO~1\AppData\Local\Temp\ccP9Krzp.s 			page 14


 734 0297 03       		.uleb128 0x3
 735 0298 2A090000 		.4byte	.LASF54
 736 029c 08       		.byte	0x8
 737 029d 49       		.byte	0x49
 738 029e A2020000 		.4byte	0x2a2
 739 02a2 06       		.uleb128 0x6
 740 02a3 42060000 		.4byte	.LASF56
 741 02a7 04       		.byte	0x4
 742 02a8 09       		.byte	0x9
 743 02a9 B0       		.byte	0xb0
 744 02aa BB020000 		.4byte	0x2bb
 745 02ae 07       		.uleb128 0x7
 746 02af D3050000 		.4byte	.LASF34
 747 02b3 09       		.byte	0x9
 748 02b4 B1       		.byte	0xb1
 749 02b5 91020000 		.4byte	0x291
 750 02b9 00       		.byte	0
 751 02ba 00       		.byte	0
 752 02bb 03       		.uleb128 0x3
 753 02bc 95070000 		.4byte	.LASF57
 754 02c0 08       		.byte	0x8
 755 02c1 50       		.byte	0x50
 756 02c2 C6020000 		.4byte	0x2c6
 757 02c6 06       		.uleb128 0x6
 758 02c7 F6000000 		.4byte	.LASF58
 759 02cb 08       		.byte	0x8
 760 02cc 09       		.byte	0x9
 761 02cd B7       		.byte	0xb7
 762 02ce EB020000 		.4byte	0x2eb
 763 02d2 07       		.uleb128 0x7
 764 02d3 D3050000 		.4byte	.LASF34
 765 02d7 09       		.byte	0x9
 766 02d8 B8       		.byte	0xb8
 767 02d9 91020000 		.4byte	0x291
 768 02dd 00       		.byte	0
 769 02de 07       		.uleb128 0x7
 770 02df 09050000 		.4byte	.LASF35
 771 02e3 09       		.byte	0x9
 772 02e4 B9       		.byte	0xb9
 773 02e5 91020000 		.4byte	0x291
 774 02e9 04       		.byte	0x4
 775 02ea 00       		.byte	0
 776 02eb 03       		.uleb128 0x3
 777 02ec 0D000000 		.4byte	.LASF59
 778 02f0 08       		.byte	0x8
 779 02f1 57       		.byte	0x57
 780 02f2 F6020000 		.4byte	0x2f6
 781 02f6 0B       		.uleb128 0xb
 782 02f7 69030000 		.4byte	.LASF60
 783 02fb 1C       		.byte	0x1c
 784 02fc 09       		.byte	0x9
 785 02fd 9001     		.2byte	0x190
 786 02ff 52030000 		.4byte	0x352
 787 0303 09       		.uleb128 0x9
 788 0304 2F060000 		.4byte	.LASF61
 789 0308 09       		.byte	0x9
 790 0309 9101     		.2byte	0x191
ARM GAS  C:\Users\IDONNO~1\AppData\Local\Temp\ccP9Krzp.s 			page 15


 791 030b BB020000 		.4byte	0x2bb
 792 030f 00       		.byte	0
 793 0310 09       		.uleb128 0x9
 794 0311 BE050000 		.4byte	.LASF62
 795 0315 09       		.byte	0x9
 796 0316 9201     		.2byte	0x192
 797 0318 3F010000 		.4byte	0x13f
 798 031c 08       		.byte	0x8
 799 031d 09       		.uleb128 0x9
 800 031e 72040000 		.4byte	.LASF63
 801 0322 09       		.byte	0x9
 802 0323 9401     		.2byte	0x194
 803 0325 8C050000 		.4byte	0x58c
 804 0329 0C       		.byte	0xc
 805 032a 09       		.uleb128 0x9
 806 032b 14020000 		.4byte	.LASF64
 807 032f 09       		.byte	0x9
 808 0330 9701     		.2byte	0x197
 809 0332 91020000 		.4byte	0x291
 810 0336 10       		.byte	0x10
 811 0337 09       		.uleb128 0x9
 812 0338 B7040000 		.4byte	.LASF65
 813 033c 09       		.byte	0x9
 814 033d 9801     		.2byte	0x198
 815 033f 91020000 		.4byte	0x291
 816 0343 14       		.byte	0x14
 817 0344 09       		.uleb128 0x9
 818 0345 AD040000 		.4byte	.LASF66
 819 0349 09       		.byte	0x9
 820 034a 9B01     		.2byte	0x19b
 821 034c 91020000 		.4byte	0x291
 822 0350 18       		.byte	0x18
 823 0351 00       		.byte	0
 824 0352 03       		.uleb128 0x3
 825 0353 CC060000 		.4byte	.LASF67
 826 0357 08       		.byte	0x8
 827 0358 5C       		.byte	0x5c
 828 0359 5D030000 		.4byte	0x35d
 829 035d 0A       		.uleb128 0xa
 830 035e 04       		.byte	0x4
 831 035f 63030000 		.4byte	0x363
 832 0363 0C       		.uleb128 0xc
 833 0364 6E030000 		.4byte	0x36e
 834 0368 0D       		.uleb128 0xd
 835 0369 6E030000 		.4byte	0x36e
 836 036d 00       		.byte	0
 837 036e 0E       		.uleb128 0xe
 838 036f 04       		.byte	0x4
 839 0370 03       		.uleb128 0x3
 840 0371 F9040000 		.4byte	.LASF68
 841 0375 08       		.byte	0x8
 842 0376 61       		.byte	0x61
 843 0377 7B030000 		.4byte	0x37b
 844 037b 0B       		.uleb128 0xb
 845 037c 3C070000 		.4byte	.LASF69
 846 0380 14       		.byte	0x14
 847 0381 09       		.byte	0x9
ARM GAS  C:\Users\IDONNO~1\AppData\Local\Temp\ccP9Krzp.s 			page 16


 848 0382 6B01     		.2byte	0x16b
 849 0384 CA030000 		.4byte	0x3ca
 850 0388 09       		.uleb128 0x9
 851 0389 7F020000 		.4byte	.LASF70
 852 038d 09       		.byte	0x9
 853 038e 6C01     		.2byte	0x16c
 854 0390 E8070000 		.4byte	0x7e8
 855 0394 00       		.byte	0
 856 0395 09       		.uleb128 0x9
 857 0396 22020000 		.4byte	.LASF71
 858 039a 09       		.byte	0x9
 859 039b 6D01     		.2byte	0x16d
 860 039d E8070000 		.4byte	0x7e8
 861 03a1 04       		.byte	0x4
 862 03a2 09       		.uleb128 0x9
 863 03a3 95020000 		.4byte	.LASF72
 864 03a7 09       		.byte	0x9
 865 03a8 6E01     		.2byte	0x16e
 866 03aa 6B010000 		.4byte	0x16b
 867 03ae 08       		.byte	0x8
 868 03af 09       		.uleb128 0x9
 869 03b0 97040000 		.4byte	.LASF73
 870 03b4 09       		.byte	0x9
 871 03b5 6F01     		.2byte	0x16f
 872 03b7 52030000 		.4byte	0x352
 873 03bb 0C       		.byte	0xc
 874 03bc 09       		.uleb128 0x9
 875 03bd 8E070000 		.4byte	.LASF74
 876 03c1 09       		.byte	0x9
 877 03c2 7101     		.2byte	0x171
 878 03c4 6E030000 		.4byte	0x36e
 879 03c8 10       		.byte	0x10
 880 03c9 00       		.byte	0
 881 03ca 03       		.uleb128 0x3
 882 03cb C8000000 		.4byte	.LASF75
 883 03cf 08       		.byte	0x8
 884 03d0 66       		.byte	0x66
 885 03d1 D5030000 		.4byte	0x3d5
 886 03d5 0B       		.uleb128 0xb
 887 03d6 1A040000 		.4byte	.LASF76
 888 03da 10       		.byte	0x10
 889 03db 09       		.byte	0x9
 890 03dc 7B01     		.2byte	0x17b
 891 03de 17040000 		.4byte	0x417
 892 03e2 09       		.uleb128 0x9
 893 03e3 7F020000 		.4byte	.LASF70
 894 03e7 09       		.byte	0x9
 895 03e8 7C01     		.2byte	0x17c
 896 03ea E8070000 		.4byte	0x7e8
 897 03ee 00       		.byte	0
 898 03ef 09       		.uleb128 0x9
 899 03f0 22020000 		.4byte	.LASF71
 900 03f4 09       		.byte	0x9
 901 03f5 7E01     		.2byte	0x17e
 902 03f7 E8070000 		.4byte	0x7e8
 903 03fb 04       		.byte	0x4
 904 03fc 09       		.uleb128 0x9
ARM GAS  C:\Users\IDONNO~1\AppData\Local\Temp\ccP9Krzp.s 			page 17


 905 03fd 95020000 		.4byte	.LASF72
 906 0401 09       		.byte	0x9
 907 0402 8001     		.2byte	0x180
 908 0404 6B010000 		.4byte	0x16b
 909 0408 08       		.byte	0x8
 910 0409 09       		.uleb128 0x9
 911 040a 37060000 		.4byte	.LASF77
 912 040e 09       		.byte	0x9
 913 040f 8201     		.2byte	0x182
 914 0411 E3070000 		.4byte	0x7e3
 915 0415 0C       		.byte	0xc
 916 0416 00       		.byte	0
 917 0417 03       		.uleb128 0x3
 918 0418 9E020000 		.4byte	.LASF78
 919 041c 08       		.byte	0x8
 920 041d 6B       		.byte	0x6b
 921 041e 22040000 		.4byte	0x422
 922 0422 0B       		.uleb128 0xb
 923 0423 54050000 		.4byte	.LASF79
 924 0427 04       		.byte	0x4
 925 0428 09       		.byte	0x9
 926 0429 A201     		.2byte	0x1a2
 927 042b 3D040000 		.4byte	0x43d
 928 042f 09       		.uleb128 0x9
 929 0430 02070000 		.4byte	.LASF80
 930 0434 09       		.byte	0x9
 931 0435 AA01     		.2byte	0x1aa
 932 0437 EE070000 		.4byte	0x7ee
 933 043b 00       		.byte	0
 934 043c 00       		.byte	0
 935 043d 03       		.uleb128 0x3
 936 043e 4C030000 		.4byte	.LASF81
 937 0442 08       		.byte	0x8
 938 0443 70       		.byte	0x70
 939 0444 48040000 		.4byte	0x448
 940 0448 0F       		.uleb128 0xf
 941 0449 91010000 		.4byte	.LASF82
 942 044d 5802     		.2byte	0x258
 943 044f 09       		.byte	0x9
 944 0450 C201     		.2byte	0x1c2
 945 0452 A4040000 		.4byte	0x4a4
 946 0456 09       		.uleb128 0x9
 947 0457 CA070000 		.4byte	.LASF83
 948 045b 09       		.byte	0x9
 949 045c C601     		.2byte	0x1c6
 950 045e EB020000 		.4byte	0x2eb
 951 0462 00       		.byte	0
 952 0463 09       		.uleb128 0x9
 953 0464 77000000 		.4byte	.LASF84
 954 0468 09       		.byte	0x9
 955 0469 CA01     		.2byte	0x1ca
 956 046b CA030000 		.4byte	0x3ca
 957 046f 1C       		.byte	0x1c
 958 0470 08       		.uleb128 0x8
 959 0471 64626700 		.ascii	"dbg\000"
 960 0475 09       		.byte	0x9
 961 0476 CE01     		.2byte	0x1ce
ARM GAS  C:\Users\IDONNO~1\AppData\Local\Temp\ccP9Krzp.s 			page 18


 962 0478 17040000 		.4byte	0x417
 963 047c 2C       		.byte	0x2c
 964 047d 09       		.uleb128 0x9
 965 047e BD000000 		.4byte	.LASF85
 966 0482 09       		.byte	0x9
 967 0483 D201     		.2byte	0x1d2
 968 0485 76010000 		.4byte	0x176
 969 0489 30       		.byte	0x30
 970 048a 08       		.uleb128 0x8
 971 048b 746D00   		.ascii	"tm\000"
 972 048e 09       		.byte	0x9
 973 048f D701     		.2byte	0x1d7
 974 0491 01070000 		.4byte	0x701
 975 0495 78       		.byte	0x78
 976 0496 09       		.uleb128 0x9
 977 0497 4E020000 		.4byte	.LASF86
 978 049b 09       		.byte	0x9
 979 049c E301     		.2byte	0x1e3
 980 049e F3070000 		.4byte	0x7f3
 981 04a2 80       		.byte	0x80
 982 04a3 00       		.byte	0
 983 04a4 10       		.uleb128 0x10
 984 04a5 18       		.byte	0x18
 985 04a6 0A       		.byte	0xa
 986 04a7 6B01     		.2byte	0x16b
 987 04a9 FB040000 		.4byte	0x4fb
 988 04ad 08       		.uleb128 0x8
 989 04ae 435200   		.ascii	"CR\000"
 990 04b1 0A       		.byte	0xa
 991 04b2 6D01     		.2byte	0x16d
 992 04b4 03010000 		.4byte	0x103
 993 04b8 00       		.byte	0
 994 04b9 09       		.uleb128 0x9
 995 04ba 4F050000 		.4byte	.LASF87
 996 04be 0A       		.byte	0xa
 997 04bf 6E01     		.2byte	0x16e
 998 04c1 03010000 		.4byte	0x103
 999 04c5 04       		.byte	0x4
 1000 04c6 08       		.uleb128 0x8
 1001 04c7 50415200 		.ascii	"PAR\000"
 1002 04cb 0A       		.byte	0xa
 1003 04cc 6F01     		.2byte	0x16f
 1004 04ce 03010000 		.4byte	0x103
 1005 04d2 08       		.byte	0x8
 1006 04d3 09       		.uleb128 0x9
 1007 04d4 1A000000 		.4byte	.LASF88
 1008 04d8 0A       		.byte	0xa
 1009 04d9 7001     		.2byte	0x170
 1010 04db 03010000 		.4byte	0x103
 1011 04df 0C       		.byte	0xc
 1012 04e0 09       		.uleb128 0x9
 1013 04e1 73070000 		.4byte	.LASF89
 1014 04e5 0A       		.byte	0xa
 1015 04e6 7101     		.2byte	0x171
 1016 04e8 03010000 		.4byte	0x103
 1017 04ec 10       		.byte	0x10
 1018 04ed 08       		.uleb128 0x8
ARM GAS  C:\Users\IDONNO~1\AppData\Local\Temp\ccP9Krzp.s 			page 19


 1019 04ee 46435200 		.ascii	"FCR\000"
 1020 04f2 0A       		.byte	0xa
 1021 04f3 7201     		.2byte	0x172
 1022 04f5 03010000 		.4byte	0x103
 1023 04f9 14       		.byte	0x14
 1024 04fa 00       		.byte	0
 1025 04fb 11       		.uleb128 0x11
 1026 04fc 13070000 		.4byte	.LASF90
 1027 0500 0A       		.byte	0xa
 1028 0501 7301     		.2byte	0x173
 1029 0503 A4040000 		.4byte	0x4a4
 1030 0507 10       		.uleb128 0x10
 1031 0508 1C       		.byte	0x1c
 1032 0509 0A       		.byte	0xa
 1033 050a 0903     		.2byte	0x309
 1034 050c 6A050000 		.4byte	0x56a
 1035 0510 08       		.uleb128 0x8
 1036 0511 535200   		.ascii	"SR\000"
 1037 0514 0A       		.byte	0xa
 1038 0515 0B03     		.2byte	0x30b
 1039 0517 03010000 		.4byte	0x103
 1040 051b 00       		.byte	0
 1041 051c 08       		.uleb128 0x8
 1042 051d 445200   		.ascii	"DR\000"
 1043 0520 0A       		.byte	0xa
 1044 0521 0C03     		.2byte	0x30c
 1045 0523 03010000 		.4byte	0x103
 1046 0527 04       		.byte	0x4
 1047 0528 08       		.uleb128 0x8
 1048 0529 42525200 		.ascii	"BRR\000"
 1049 052d 0A       		.byte	0xa
 1050 052e 0D03     		.2byte	0x30d
 1051 0530 03010000 		.4byte	0x103
 1052 0534 08       		.byte	0x8
 1053 0535 08       		.uleb128 0x8
 1054 0536 43523100 		.ascii	"CR1\000"
 1055 053a 0A       		.byte	0xa
 1056 053b 0E03     		.2byte	0x30e
 1057 053d 03010000 		.4byte	0x103
 1058 0541 0C       		.byte	0xc
 1059 0542 08       		.uleb128 0x8
 1060 0543 43523200 		.ascii	"CR2\000"
 1061 0547 0A       		.byte	0xa
 1062 0548 0F03     		.2byte	0x30f
 1063 054a 03010000 		.4byte	0x103
 1064 054e 10       		.byte	0x10
 1065 054f 08       		.uleb128 0x8
 1066 0550 43523300 		.ascii	"CR3\000"
 1067 0554 0A       		.byte	0xa
 1068 0555 1003     		.2byte	0x310
 1069 0557 03010000 		.4byte	0x103
 1070 055b 14       		.byte	0x14
 1071 055c 09       		.uleb128 0x9
 1072 055d 51010000 		.4byte	.LASF91
 1073 0561 0A       		.byte	0xa
 1074 0562 1103     		.2byte	0x311
 1075 0564 03010000 		.4byte	0x103
ARM GAS  C:\Users\IDONNO~1\AppData\Local\Temp\ccP9Krzp.s 			page 20


 1076 0568 18       		.byte	0x18
 1077 0569 00       		.byte	0
 1078 056a 11       		.uleb128 0x11
 1079 056b 80050000 		.4byte	.LASF92
 1080 056f 0A       		.byte	0xa
 1081 0570 1203     		.2byte	0x312
 1082 0572 07050000 		.4byte	0x507
 1083 0576 03       		.uleb128 0x3
 1084 0577 26060000 		.4byte	.LASF93
 1085 057b 0B       		.byte	0xb
 1086 057c 65       		.byte	0x65
 1087 057d 6E030000 		.4byte	0x36e
 1088 0581 03       		.uleb128 0x3
 1089 0582 A6030000 		.4byte	.LASF94
 1090 0586 0B       		.byte	0xb
 1091 0587 6D       		.byte	0x6d
 1092 0588 CE000000 		.4byte	0xce
 1093 058c 06       		.uleb128 0x6
 1094 058d CE020000 		.4byte	.LASF95
 1095 0591 04       		.byte	0x4
 1096 0592 0B       		.byte	0xb
 1097 0593 89       		.byte	0x89
 1098 0594 A5050000 		.4byte	0x5a5
 1099 0598 12       		.uleb128 0x12
 1100 0599 72313300 		.ascii	"r13\000"
 1101 059d 0B       		.byte	0xb
 1102 059e 8A       		.byte	0x8a
 1103 059f E6060000 		.4byte	0x6e6
 1104 05a3 00       		.byte	0
 1105 05a4 00       		.byte	0
 1106 05a5 06       		.uleb128 0x6
 1107 05a6 6B000000 		.4byte	.LASF96
 1108 05aa 64       		.byte	0x64
 1109 05ab 0C       		.byte	0xc
 1110 05ac F4       		.byte	0xf4
 1111 05ad E6060000 		.4byte	0x6e6
 1112 05b1 12       		.uleb128 0x12
 1113 05b2 73313600 		.ascii	"s16\000"
 1114 05b6 0C       		.byte	0xc
 1115 05b7 F6       		.byte	0xf6
 1116 05b8 76050000 		.4byte	0x576
 1117 05bc 00       		.byte	0
 1118 05bd 12       		.uleb128 0x12
 1119 05be 73313700 		.ascii	"s17\000"
 1120 05c2 0C       		.byte	0xc
 1121 05c3 F7       		.byte	0xf7
 1122 05c4 76050000 		.4byte	0x576
 1123 05c8 04       		.byte	0x4
 1124 05c9 12       		.uleb128 0x12
 1125 05ca 73313800 		.ascii	"s18\000"
 1126 05ce 0C       		.byte	0xc
 1127 05cf F8       		.byte	0xf8
 1128 05d0 76050000 		.4byte	0x576
 1129 05d4 08       		.byte	0x8
 1130 05d5 12       		.uleb128 0x12
 1131 05d6 73313900 		.ascii	"s19\000"
 1132 05da 0C       		.byte	0xc
ARM GAS  C:\Users\IDONNO~1\AppData\Local\Temp\ccP9Krzp.s 			page 21


 1133 05db F9       		.byte	0xf9
 1134 05dc 76050000 		.4byte	0x576
 1135 05e0 0C       		.byte	0xc
 1136 05e1 12       		.uleb128 0x12
 1137 05e2 73323000 		.ascii	"s20\000"
 1138 05e6 0C       		.byte	0xc
 1139 05e7 FA       		.byte	0xfa
 1140 05e8 76050000 		.4byte	0x576
 1141 05ec 10       		.byte	0x10
 1142 05ed 12       		.uleb128 0x12
 1143 05ee 73323100 		.ascii	"s21\000"
 1144 05f2 0C       		.byte	0xc
 1145 05f3 FB       		.byte	0xfb
 1146 05f4 76050000 		.4byte	0x576
 1147 05f8 14       		.byte	0x14
 1148 05f9 12       		.uleb128 0x12
 1149 05fa 73323200 		.ascii	"s22\000"
 1150 05fe 0C       		.byte	0xc
 1151 05ff FC       		.byte	0xfc
 1152 0600 76050000 		.4byte	0x576
 1153 0604 18       		.byte	0x18
 1154 0605 12       		.uleb128 0x12
 1155 0606 73323300 		.ascii	"s23\000"
 1156 060a 0C       		.byte	0xc
 1157 060b FD       		.byte	0xfd
 1158 060c 76050000 		.4byte	0x576
 1159 0610 1C       		.byte	0x1c
 1160 0611 12       		.uleb128 0x12
 1161 0612 73323400 		.ascii	"s24\000"
 1162 0616 0C       		.byte	0xc
 1163 0617 FE       		.byte	0xfe
 1164 0618 76050000 		.4byte	0x576
 1165 061c 20       		.byte	0x20
 1166 061d 12       		.uleb128 0x12
 1167 061e 73323500 		.ascii	"s25\000"
 1168 0622 0C       		.byte	0xc
 1169 0623 FF       		.byte	0xff
 1170 0624 76050000 		.4byte	0x576
 1171 0628 24       		.byte	0x24
 1172 0629 08       		.uleb128 0x8
 1173 062a 73323600 		.ascii	"s26\000"
 1174 062e 0C       		.byte	0xc
 1175 062f 0001     		.2byte	0x100
 1176 0631 76050000 		.4byte	0x576
 1177 0635 28       		.byte	0x28
 1178 0636 08       		.uleb128 0x8
 1179 0637 73323700 		.ascii	"s27\000"
 1180 063b 0C       		.byte	0xc
 1181 063c 0101     		.2byte	0x101
 1182 063e 76050000 		.4byte	0x576
 1183 0642 2C       		.byte	0x2c
 1184 0643 08       		.uleb128 0x8
 1185 0644 73323800 		.ascii	"s28\000"
 1186 0648 0C       		.byte	0xc
 1187 0649 0201     		.2byte	0x102
 1188 064b 76050000 		.4byte	0x576
 1189 064f 30       		.byte	0x30
ARM GAS  C:\Users\IDONNO~1\AppData\Local\Temp\ccP9Krzp.s 			page 22


 1190 0650 08       		.uleb128 0x8
 1191 0651 73323900 		.ascii	"s29\000"
 1192 0655 0C       		.byte	0xc
 1193 0656 0301     		.2byte	0x103
 1194 0658 76050000 		.4byte	0x576
 1195 065c 34       		.byte	0x34
 1196 065d 08       		.uleb128 0x8
 1197 065e 73333000 		.ascii	"s30\000"
 1198 0662 0C       		.byte	0xc
 1199 0663 0401     		.2byte	0x104
 1200 0665 76050000 		.4byte	0x576
 1201 0669 38       		.byte	0x38
 1202 066a 08       		.uleb128 0x8
 1203 066b 73333100 		.ascii	"s31\000"
 1204 066f 0C       		.byte	0xc
 1205 0670 0501     		.2byte	0x105
 1206 0672 76050000 		.4byte	0x576
 1207 0676 3C       		.byte	0x3c
 1208 0677 08       		.uleb128 0x8
 1209 0678 723400   		.ascii	"r4\000"
 1210 067b 0C       		.byte	0xc
 1211 067c 0701     		.2byte	0x107
 1212 067e 76050000 		.4byte	0x576
 1213 0682 40       		.byte	0x40
 1214 0683 08       		.uleb128 0x8
 1215 0684 723500   		.ascii	"r5\000"
 1216 0687 0C       		.byte	0xc
 1217 0688 0801     		.2byte	0x108
 1218 068a 76050000 		.4byte	0x576
 1219 068e 44       		.byte	0x44
 1220 068f 08       		.uleb128 0x8
 1221 0690 723600   		.ascii	"r6\000"
 1222 0693 0C       		.byte	0xc
 1223 0694 0901     		.2byte	0x109
 1224 0696 76050000 		.4byte	0x576
 1225 069a 48       		.byte	0x48
 1226 069b 08       		.uleb128 0x8
 1227 069c 723700   		.ascii	"r7\000"
 1228 069f 0C       		.byte	0xc
 1229 06a0 0A01     		.2byte	0x10a
 1230 06a2 76050000 		.4byte	0x576
 1231 06a6 4C       		.byte	0x4c
 1232 06a7 08       		.uleb128 0x8
 1233 06a8 723800   		.ascii	"r8\000"
 1234 06ab 0C       		.byte	0xc
 1235 06ac 0B01     		.2byte	0x10b
 1236 06ae 76050000 		.4byte	0x576
 1237 06b2 50       		.byte	0x50
 1238 06b3 08       		.uleb128 0x8
 1239 06b4 723900   		.ascii	"r9\000"
 1240 06b7 0C       		.byte	0xc
 1241 06b8 0C01     		.2byte	0x10c
 1242 06ba 76050000 		.4byte	0x576
 1243 06be 54       		.byte	0x54
 1244 06bf 08       		.uleb128 0x8
 1245 06c0 72313000 		.ascii	"r10\000"
 1246 06c4 0C       		.byte	0xc
ARM GAS  C:\Users\IDONNO~1\AppData\Local\Temp\ccP9Krzp.s 			page 23


 1247 06c5 0D01     		.2byte	0x10d
 1248 06c7 76050000 		.4byte	0x576
 1249 06cb 58       		.byte	0x58
 1250 06cc 08       		.uleb128 0x8
 1251 06cd 72313100 		.ascii	"r11\000"
 1252 06d1 0C       		.byte	0xc
 1253 06d2 0E01     		.2byte	0x10e
 1254 06d4 76050000 		.4byte	0x576
 1255 06d8 5C       		.byte	0x5c
 1256 06d9 08       		.uleb128 0x8
 1257 06da 6C7200   		.ascii	"lr\000"
 1258 06dd 0C       		.byte	0xc
 1259 06de 0F01     		.2byte	0x10f
 1260 06e0 76050000 		.4byte	0x576
 1261 06e4 60       		.byte	0x60
 1262 06e5 00       		.byte	0
 1263 06e6 0A       		.uleb128 0xa
 1264 06e7 04       		.byte	0x4
 1265 06e8 A5050000 		.4byte	0x5a5
 1266 06ec 13       		.uleb128 0x13
 1267 06ed 04       		.byte	0x4
 1268 06ee 0D       		.byte	0xd
 1269 06ef 38       		.byte	0x38
 1270 06f0 01070000 		.4byte	0x701
 1271 06f4 07       		.uleb128 0x7
 1272 06f5 0C070000 		.4byte	.LASF97
 1273 06f9 0D       		.byte	0xd
 1274 06fa 3C       		.byte	0x3c
 1275 06fb 08010000 		.4byte	0x108
 1276 06ff 00       		.byte	0
 1277 0700 00       		.byte	0
 1278 0701 03       		.uleb128 0x3
 1279 0702 4C040000 		.4byte	.LASF98
 1280 0706 0D       		.byte	0xd
 1281 0707 3D       		.byte	0x3d
 1282 0708 EC060000 		.4byte	0x6ec
 1283 070c 14       		.uleb128 0x14
 1284 070d 04       		.byte	0x4
 1285 070e 09       		.byte	0x9
 1286 070f FA       		.byte	0xfa
 1287 0710 69070000 		.4byte	0x769
 1288 0714 15       		.uleb128 0x15
 1289 0715 39000000 		.4byte	.LASF99
 1290 0719 09       		.byte	0x9
 1291 071a 0101     		.2byte	0x101
 1292 071c 4A010000 		.4byte	0x14a
 1293 0720 15       		.uleb128 0x15
 1294 0721 58030000 		.4byte	.LASF100
 1295 0725 09       		.byte	0x9
 1296 0726 0801     		.2byte	0x108
 1297 0728 4A010000 		.4byte	0x14a
 1298 072c 15       		.uleb128 0x15
 1299 072d C5050000 		.4byte	.LASF101
 1300 0731 09       		.byte	0x9
 1301 0732 0F01     		.2byte	0x10f
 1302 0734 6E030000 		.4byte	0x36e
 1303 0738 15       		.uleb128 0x15
ARM GAS  C:\Users\IDONNO~1\AppData\Local\Temp\ccP9Krzp.s 			page 24


 1304 0739 37040000 		.4byte	.LASF102
 1305 073d 09       		.byte	0x9
 1306 073e 1601     		.2byte	0x116
 1307 0740 69070000 		.4byte	0x769
 1308 0744 15       		.uleb128 0x15
 1309 0745 8E020000 		.4byte	.LASF103
 1310 0749 09       		.byte	0x9
 1311 074a 1E01     		.2byte	0x11e
 1312 074c 94070000 		.4byte	0x794
 1313 0750 15       		.uleb128 0x15
 1314 0751 FB060000 		.4byte	.LASF104
 1315 0755 09       		.byte	0x9
 1316 0756 2701     		.2byte	0x127
 1317 0758 CB070000 		.4byte	0x7cb
 1318 075c 15       		.uleb128 0x15
 1319 075d CC050000 		.4byte	.LASF105
 1320 0761 09       		.byte	0x9
 1321 0762 2F01     		.2byte	0x12f
 1322 0764 55010000 		.4byte	0x155
 1323 0768 00       		.byte	0
 1324 0769 0A       		.uleb128 0xa
 1325 076a 04       		.byte	0x4
 1326 076b 86020000 		.4byte	0x286
 1327 076f 06       		.uleb128 0x6
 1328 0770 FF050000 		.4byte	.LASF106
 1329 0774 0C       		.byte	0xc
 1330 0775 0E       		.byte	0xe
 1331 0776 34       		.byte	0x34
 1332 0777 94070000 		.4byte	0x794
 1333 077b 07       		.uleb128 0x7
 1334 077c 39090000 		.4byte	.LASF107
 1335 0780 0E       		.byte	0xe
 1336 0781 35       		.byte	0x35
 1337 0782 BB020000 		.4byte	0x2bb
 1338 0786 00       		.byte	0
 1339 0787 07       		.uleb128 0x7
 1340 0788 C3020000 		.4byte	.LASF108
 1341 078c 0E       		.byte	0xe
 1342 078d 37       		.byte	0x37
 1343 078e 60010000 		.4byte	0x160
 1344 0792 08       		.byte	0x8
 1345 0793 00       		.byte	0
 1346 0794 0A       		.uleb128 0xa
 1347 0795 04       		.byte	0x4
 1348 0796 6F070000 		.4byte	0x76f
 1349 079a 06       		.uleb128 0x6
 1350 079b F7070000 		.4byte	.LASF109
 1351 079f 10       		.byte	0x10
 1352 07a0 0F       		.byte	0xf
 1353 07a1 39       		.byte	0x39
 1354 07a2 CB070000 		.4byte	0x7cb
 1355 07a6 07       		.uleb128 0x7
 1356 07a7 07010000 		.4byte	.LASF110
 1357 07ab 0F       		.byte	0xf
 1358 07ac 3A       		.byte	0x3a
 1359 07ad BB020000 		.4byte	0x2bb
 1360 07b1 00       		.byte	0
ARM GAS  C:\Users\IDONNO~1\AppData\Local\Temp\ccP9Krzp.s 			page 25


 1361 07b2 07       		.uleb128 0x7
 1362 07b3 6E090000 		.4byte	.LASF111
 1363 07b7 0F       		.byte	0xf
 1364 07b8 3C       		.byte	0x3c
 1365 07b9 91020000 		.4byte	0x291
 1366 07bd 08       		.byte	0x8
 1367 07be 07       		.uleb128 0x7
 1368 07bf B0060000 		.4byte	.LASF112
 1369 07c3 0F       		.byte	0xf
 1370 07c4 3E       		.byte	0x3e
 1371 07c5 0E080000 		.4byte	0x80e
 1372 07c9 0C       		.byte	0xc
 1373 07ca 00       		.byte	0
 1374 07cb 0A       		.uleb128 0xa
 1375 07cc 04       		.byte	0x4
 1376 07cd 9A070000 		.4byte	0x79a
 1377 07d1 0A       		.uleb128 0xa
 1378 07d2 04       		.byte	0x4
 1379 07d3 DE070000 		.4byte	0x7de
 1380 07d7 02       		.uleb128 0x2
 1381 07d8 01       		.byte	0x1
 1382 07d9 08       		.byte	0x8
 1383 07da 6E060000 		.4byte	.LASF113
 1384 07de 16       		.uleb128 0x16
 1385 07df D7070000 		.4byte	0x7d7
 1386 07e3 05       		.uleb128 0x5
 1387 07e4 6B010000 		.4byte	0x16b
 1388 07e8 0A       		.uleb128 0xa
 1389 07e9 04       		.byte	0x4
 1390 07ea 70030000 		.4byte	0x370
 1391 07ee 05       		.uleb128 0x5
 1392 07ef D1070000 		.4byte	0x7d1
 1393 07f3 17       		.uleb128 0x17
 1394 07f4 81050000 		.4byte	0x581
 1395 07f8 03080000 		.4byte	0x803
 1396 07fc 18       		.uleb128 0x18
 1397 07fd D9000000 		.4byte	0xd9
 1398 0801 3A       		.byte	0x3a
 1399 0802 00       		.byte	0
 1400 0803 03       		.uleb128 0x3
 1401 0804 40020000 		.4byte	.LASF114
 1402 0808 0F       		.byte	0xf
 1403 0809 34       		.byte	0x34
 1404 080a 9A070000 		.4byte	0x79a
 1405 080e 0A       		.uleb128 0xa
 1406 080f 04       		.byte	0x4
 1407 0810 03080000 		.4byte	0x803
 1408 0814 13       		.uleb128 0x13
 1409 0815 0C       		.byte	0xc
 1410 0816 10       		.byte	0x10
 1411 0817 DA       		.byte	0xda
 1412 0818 59080000 		.4byte	0x859
 1413 081c 07       		.uleb128 0x7
 1414 081d 48050000 		.4byte	.LASF115
 1415 0821 10       		.byte	0x10
 1416 0822 DB       		.byte	0xdb
 1417 0823 59080000 		.4byte	0x859
ARM GAS  C:\Users\IDONNO~1\AppData\Local\Temp\ccP9Krzp.s 			page 26


 1418 0827 00       		.byte	0
 1419 0828 07       		.uleb128 0x7
 1420 0829 17060000 		.4byte	.LASF116
 1421 082d 10       		.byte	0x10
 1422 082e DC       		.byte	0xdc
 1423 082f 5F080000 		.4byte	0x85f
 1424 0833 04       		.byte	0x4
 1425 0834 07       		.uleb128 0x7
 1426 0835 BC020000 		.4byte	.LASF117
 1427 0839 10       		.byte	0x10
 1428 083a DD       		.byte	0xdd
 1429 083b A2000000 		.4byte	0xa2
 1430 083f 08       		.byte	0x8
 1431 0840 07       		.uleb128 0x7
 1432 0841 42030000 		.4byte	.LASF118
 1433 0845 10       		.byte	0x10
 1434 0846 DF       		.byte	0xdf
 1435 0847 A2000000 		.4byte	0xa2
 1436 084b 09       		.byte	0x9
 1437 084c 07       		.uleb128 0x7
 1438 084d B6000000 		.4byte	.LASF119
 1439 0851 10       		.byte	0x10
 1440 0852 E0       		.byte	0xe0
 1441 0853 A2000000 		.4byte	0xa2
 1442 0857 0A       		.byte	0xa
 1443 0858 00       		.byte	0
 1444 0859 0A       		.uleb128 0xa
 1445 085a 04       		.byte	0x4
 1446 085b FB040000 		.4byte	0x4fb
 1447 085f 0A       		.uleb128 0xa
 1448 0860 04       		.byte	0x4
 1449 0861 03010000 		.4byte	0x103
 1450 0865 03       		.uleb128 0x3
 1451 0866 10050000 		.4byte	.LASF120
 1452 086a 10       		.byte	0x10
 1453 086b E1       		.byte	0xe1
 1454 086c 14080000 		.4byte	0x814
 1455 0870 13       		.uleb128 0x13
 1456 0871 04       		.byte	0x4
 1457 0872 11       		.byte	0x11
 1458 0873 B3       		.byte	0xb3
 1459 0874 91080000 		.4byte	0x891
 1460 0878 12       		.uleb128 0x12
 1461 0879 73657400 		.ascii	"set\000"
 1462 087d 11       		.byte	0x11
 1463 087e B4       		.byte	0xb4
 1464 087f AD000000 		.4byte	0xad
 1465 0883 00       		.byte	0
 1466 0884 07       		.uleb128 0x7
 1467 0885 31040000 		.4byte	.LASF121
 1468 0889 11       		.byte	0x11
 1469 088a B5       		.byte	0xb5
 1470 088b AD000000 		.4byte	0xad
 1471 088f 02       		.byte	0x2
 1472 0890 00       		.byte	0
 1473 0891 14       		.uleb128 0x14
 1474 0892 04       		.byte	0x4
ARM GAS  C:\Users\IDONNO~1\AppData\Local\Temp\ccP9Krzp.s 			page 27


 1475 0893 11       		.byte	0x11
 1476 0894 B1       		.byte	0xb1
 1477 0895 AC080000 		.4byte	0x8ac
 1478 0899 19       		.uleb128 0x19
 1479 089a 5700     		.ascii	"W\000"
 1480 089c 11       		.byte	0x11
 1481 089d B2       		.byte	0xb2
 1482 089e C3000000 		.4byte	0xc3
 1483 08a2 19       		.uleb128 0x19
 1484 08a3 4800     		.ascii	"H\000"
 1485 08a5 11       		.byte	0x11
 1486 08a6 B6       		.byte	0xb6
 1487 08a7 70080000 		.4byte	0x870
 1488 08ab 00       		.byte	0
 1489 08ac 13       		.uleb128 0x13
 1490 08ad 2C       		.byte	0x2c
 1491 08ae 11       		.byte	0x11
 1492 08af A9       		.byte	0xa9
 1493 08b0 39090000 		.4byte	0x939
 1494 08b4 07       		.uleb128 0x7
 1495 08b5 BF040000 		.4byte	.LASF122
 1496 08b9 11       		.byte	0x11
 1497 08ba AB       		.byte	0xab
 1498 08bb 03010000 		.4byte	0x103
 1499 08bf 00       		.byte	0
 1500 08c0 07       		.uleb128 0x7
 1501 08c1 5A000000 		.4byte	.LASF123
 1502 08c5 11       		.byte	0x11
 1503 08c6 AC       		.byte	0xac
 1504 08c7 03010000 		.4byte	0x103
 1505 08cb 04       		.byte	0x4
 1506 08cc 07       		.uleb128 0x7
 1507 08cd 0C020000 		.4byte	.LASF124
 1508 08d1 11       		.byte	0x11
 1509 08d2 AD       		.byte	0xad
 1510 08d3 03010000 		.4byte	0x103
 1511 08d7 08       		.byte	0x8
 1512 08d8 07       		.uleb128 0x7
 1513 08d9 85010000 		.4byte	.LASF125
 1514 08dd 11       		.byte	0x11
 1515 08de AE       		.byte	0xae
 1516 08df 03010000 		.4byte	0x103
 1517 08e3 0C       		.byte	0xc
 1518 08e4 12       		.uleb128 0x12
 1519 08e5 49445200 		.ascii	"IDR\000"
 1520 08e9 11       		.byte	0x11
 1521 08ea AF       		.byte	0xaf
 1522 08eb 03010000 		.4byte	0x103
 1523 08ef 10       		.byte	0x10
 1524 08f0 12       		.uleb128 0x12
 1525 08f1 4F445200 		.ascii	"ODR\000"
 1526 08f5 11       		.byte	0x11
 1527 08f6 B0       		.byte	0xb0
 1528 08f7 03010000 		.4byte	0x103
 1529 08fb 14       		.byte	0x14
 1530 08fc 07       		.uleb128 0x7
 1531 08fd 4C010000 		.4byte	.LASF126
ARM GAS  C:\Users\IDONNO~1\AppData\Local\Temp\ccP9Krzp.s 			page 28


 1532 0901 11       		.byte	0x11
 1533 0902 B7       		.byte	0xb7
 1534 0903 39090000 		.4byte	0x939
 1535 0907 18       		.byte	0x18
 1536 0908 07       		.uleb128 0x7
 1537 0909 B7020000 		.4byte	.LASF127
 1538 090d 11       		.byte	0x11
 1539 090e B8       		.byte	0xb8
 1540 090f 03010000 		.4byte	0x103
 1541 0913 1C       		.byte	0x1c
 1542 0914 07       		.uleb128 0x7
 1543 0915 EC040000 		.4byte	.LASF128
 1544 0919 11       		.byte	0x11
 1545 091a B9       		.byte	0xb9
 1546 091b 03010000 		.4byte	0x103
 1547 091f 20       		.byte	0x20
 1548 0920 07       		.uleb128 0x7
 1549 0921 E1040000 		.4byte	.LASF129
 1550 0925 11       		.byte	0x11
 1551 0926 BA       		.byte	0xba
 1552 0927 03010000 		.4byte	0x103
 1553 092b 24       		.byte	0x24
 1554 092c 12       		.uleb128 0x12
 1555 092d 42525200 		.ascii	"BRR\000"
 1556 0931 11       		.byte	0x11
 1557 0932 BB       		.byte	0xbb
 1558 0933 03010000 		.4byte	0x103
 1559 0937 28       		.byte	0x28
 1560 0938 00       		.byte	0
 1561 0939 05       		.uleb128 0x5
 1562 093a 91080000 		.4byte	0x891
 1563 093e 03       		.uleb128 0x3
 1564 093f 2A020000 		.4byte	.LASF130
 1565 0943 11       		.byte	0x11
 1566 0944 BC       		.byte	0xbc
 1567 0945 AC080000 		.4byte	0x8ac
 1568 0949 11       		.uleb128 0x11
 1569 094a 5D040000 		.4byte	.LASF131
 1570 094e 11       		.byte	0x11
 1571 094f 0E01     		.2byte	0x10e
 1572 0951 C3000000 		.4byte	0xc3
 1573 0955 0A       		.uleb128 0xa
 1574 0956 04       		.byte	0x4
 1575 0957 5B090000 		.4byte	0x95b
 1576 095b 16       		.uleb128 0x16
 1577 095c 65080000 		.4byte	0x865
 1578 0960 0A       		.uleb128 0xa
 1579 0961 04       		.byte	0x4
 1580 0962 6A050000 		.4byte	0x56a
 1581 0966 1A       		.uleb128 0x1a
 1582 0967 01       		.byte	0x1
 1583 0968 37000000 		.4byte	0x37
 1584 096c 12       		.byte	0x12
 1585 096d 3D       		.byte	0x3d
 1586 096e 85090000 		.4byte	0x985
 1587 0972 1B       		.uleb128 0x1b
 1588 0973 E9020000 		.4byte	.LASF132
ARM GAS  C:\Users\IDONNO~1\AppData\Local\Temp\ccP9Krzp.s 			page 29


 1589 0977 00       		.byte	0
 1590 0978 1B       		.uleb128 0x1b
 1591 0979 C5040000 		.4byte	.LASF133
 1592 097d 01       		.byte	0x1
 1593 097e 1B       		.uleb128 0x1b
 1594 097f C3030000 		.4byte	.LASF134
 1595 0983 02       		.byte	0x2
 1596 0984 00       		.byte	0
 1597 0985 03       		.uleb128 0x3
 1598 0986 DA050000 		.4byte	.LASF135
 1599 098a 12       		.byte	0x12
 1600 098b 41       		.byte	0x41
 1601 098c 66090000 		.4byte	0x966
 1602 0990 1A       		.uleb128 0x1a
 1603 0991 01       		.byte	0x1
 1604 0992 37000000 		.4byte	0x37
 1605 0996 12       		.byte	0x12
 1606 0997 46       		.byte	0x46
 1607 0998 AF090000 		.4byte	0x9af
 1608 099c 1B       		.uleb128 0x1b
 1609 099d EE060000 		.4byte	.LASF136
 1610 09a1 00       		.byte	0
 1611 09a2 1B       		.uleb128 0x1b
 1612 09a3 5D020000 		.4byte	.LASF137
 1613 09a7 01       		.byte	0x1
 1614 09a8 1B       		.uleb128 0x1b
 1615 09a9 EE050000 		.4byte	.LASF138
 1616 09ad 02       		.byte	0x2
 1617 09ae 00       		.byte	0
 1618 09af 03       		.uleb128 0x3
 1619 09b0 9F040000 		.4byte	.LASF139
 1620 09b4 12       		.byte	0x12
 1621 09b5 4A       		.byte	0x4a
 1622 09b6 90090000 		.4byte	0x990
 1623 09ba 1A       		.uleb128 0x1a
 1624 09bb 01       		.byte	0x1
 1625 09bc 37000000 		.4byte	0x37
 1626 09c0 12       		.byte	0x12
 1627 09c1 4F       		.byte	0x4f
 1628 09c2 D9090000 		.4byte	0x9d9
 1629 09c6 1B       		.uleb128 0x1b
 1630 09c7 7A060000 		.4byte	.LASF140
 1631 09cb 00       		.byte	0
 1632 09cc 1B       		.uleb128 0x1b
 1633 09cd F8030000 		.4byte	.LASF141
 1634 09d1 01       		.byte	0x1
 1635 09d2 1B       		.uleb128 0x1b
 1636 09d3 E7030000 		.4byte	.LASF142
 1637 09d7 02       		.byte	0x2
 1638 09d8 00       		.byte	0
 1639 09d9 03       		.uleb128 0x3
 1640 09da ED010000 		.4byte	.LASF143
 1641 09de 12       		.byte	0x12
 1642 09df 53       		.byte	0x53
 1643 09e0 BA090000 		.4byte	0x9ba
 1644 09e4 11       		.uleb128 0x11
 1645 09e5 78040000 		.4byte	.LASF144
ARM GAS  C:\Users\IDONNO~1\AppData\Local\Temp\ccP9Krzp.s 			page 30


 1646 09e9 13       		.byte	0x13
 1647 09ea B101     		.2byte	0x1b1
 1648 09ec C3000000 		.4byte	0xc3
 1649 09f0 11       		.uleb128 0x11
 1650 09f1 01020000 		.4byte	.LASF145
 1651 09f5 13       		.byte	0x13
 1652 09f6 B601     		.2byte	0x1b6
 1653 09f8 FC090000 		.4byte	0x9fc
 1654 09fc 0B       		.uleb128 0xb
 1655 09fd 01020000 		.4byte	.LASF145
 1656 0a01 1C       		.byte	0x1c
 1657 0a02 13       		.byte	0x13
 1658 0a03 FE01     		.2byte	0x1fe
 1659 0a05 7F0A0000 		.4byte	0xa7f
 1660 0a09 09       		.uleb128 0x9
 1661 0a0a 8B010000 		.4byte	.LASF146
 1662 0a0e 13       		.byte	0x13
 1663 0a0f 0202     		.2byte	0x202
 1664 0a11 85090000 		.4byte	0x985
 1665 0a15 00       		.byte	0
 1666 0a16 09       		.uleb128 0x9
 1667 0a17 21010000 		.4byte	.LASF147
 1668 0a1b 13       		.byte	0x13
 1669 0a1c 0602     		.2byte	0x206
 1670 0a1e AF090000 		.4byte	0x9af
 1671 0a22 01       		.byte	0x1
 1672 0a23 09       		.uleb128 0x9
 1673 0a24 5E010000 		.4byte	.LASF148
 1674 0a28 13       		.byte	0x13
 1675 0a29 0A02     		.2byte	0x20a
 1676 0a2b D9090000 		.4byte	0x9d9
 1677 0a2f 02       		.byte	0x2
 1678 0a30 09       		.uleb128 0x9
 1679 0a31 73060000 		.4byte	.LASF149
 1680 0a35 13       		.byte	0x13
 1681 0a36 0E02     		.2byte	0x20e
 1682 0a38 710B0000 		.4byte	0xb71
 1683 0a3c 04       		.byte	0x4
 1684 0a3d 09       		.uleb128 0x9
 1685 0a3e 6C020000 		.4byte	.LASF150
 1686 0a42 13       		.byte	0x13
 1687 0a43 1602     		.2byte	0x216
 1688 0a45 60090000 		.4byte	0x960
 1689 0a49 08       		.byte	0x8
 1690 0a4a 09       		.uleb128 0x9
 1691 0a4b EF070000 		.4byte	.LASF151
 1692 0a4f 13       		.byte	0x13
 1693 0a50 1A02     		.2byte	0x21a
 1694 0a52 C3000000 		.4byte	0xc3
 1695 0a56 0C       		.byte	0xc
 1696 0a57 09       		.uleb128 0x9
 1697 0a58 07000000 		.4byte	.LASF152
 1698 0a5c 13       		.byte	0x13
 1699 0a5d 1E02     		.2byte	0x21e
 1700 0a5f 55090000 		.4byte	0x955
 1701 0a63 10       		.byte	0x10
 1702 0a64 09       		.uleb128 0x9
ARM GAS  C:\Users\IDONNO~1\AppData\Local\Temp\ccP9Krzp.s 			page 31


 1703 0a65 FB010000 		.4byte	.LASF153
 1704 0a69 13       		.byte	0x13
 1705 0a6a 2202     		.2byte	0x222
 1706 0a6c 55090000 		.4byte	0x955
 1707 0a70 14       		.byte	0x14
 1708 0a71 09       		.uleb128 0x9
 1709 0a72 8F000000 		.4byte	.LASF154
 1710 0a76 13       		.byte	0x13
 1711 0a77 2602     		.2byte	0x226
 1712 0a79 F9000000 		.4byte	0xf9
 1713 0a7d 18       		.byte	0x18
 1714 0a7e 00       		.byte	0
 1715 0a7f 11       		.uleb128 0x11
 1716 0a80 43010000 		.4byte	.LASF155
 1717 0a84 13       		.byte	0x13
 1718 0a85 BD01     		.2byte	0x1bd
 1719 0a87 8B0A0000 		.4byte	0xa8b
 1720 0a8b 0A       		.uleb128 0xa
 1721 0a8c 04       		.byte	0x4
 1722 0a8d 910A0000 		.4byte	0xa91
 1723 0a91 0C       		.uleb128 0xc
 1724 0a92 9C0A0000 		.4byte	0xa9c
 1725 0a96 0D       		.uleb128 0xd
 1726 0a97 9C0A0000 		.4byte	0xa9c
 1727 0a9b 00       		.byte	0
 1728 0a9c 0A       		.uleb128 0xa
 1729 0a9d 04       		.byte	0x4
 1730 0a9e F0090000 		.4byte	0x9f0
 1731 0aa2 11       		.uleb128 0x11
 1732 0aa3 52060000 		.4byte	.LASF156
 1733 0aa7 13       		.byte	0x13
 1734 0aa8 C501     		.2byte	0x1c5
 1735 0aaa AE0A0000 		.4byte	0xaae
 1736 0aae 0A       		.uleb128 0xa
 1737 0aaf 04       		.byte	0x4
 1738 0ab0 B40A0000 		.4byte	0xab4
 1739 0ab4 0C       		.uleb128 0xc
 1740 0ab5 C40A0000 		.4byte	0xac4
 1741 0ab9 0D       		.uleb128 0xd
 1742 0aba 9C0A0000 		.4byte	0xa9c
 1743 0abe 0D       		.uleb128 0xd
 1744 0abf AD000000 		.4byte	0xad
 1745 0ac3 00       		.byte	0
 1746 0ac4 11       		.uleb128 0x11
 1747 0ac5 AD020000 		.4byte	.LASF157
 1748 0ac9 13       		.byte	0x13
 1749 0aca CD01     		.2byte	0x1cd
 1750 0acc D00A0000 		.4byte	0xad0
 1751 0ad0 0A       		.uleb128 0xa
 1752 0ad1 04       		.byte	0x4
 1753 0ad2 D60A0000 		.4byte	0xad6
 1754 0ad6 0C       		.uleb128 0xc
 1755 0ad7 E60A0000 		.4byte	0xae6
 1756 0adb 0D       		.uleb128 0xd
 1757 0adc 9C0A0000 		.4byte	0xa9c
 1758 0ae0 0D       		.uleb128 0xd
 1759 0ae1 E4090000 		.4byte	0x9e4
ARM GAS  C:\Users\IDONNO~1\AppData\Local\Temp\ccP9Krzp.s 			page 32


 1760 0ae5 00       		.byte	0
 1761 0ae6 10       		.uleb128 0x10
 1762 0ae7 20       		.byte	0x20
 1763 0ae8 13       		.byte	0x13
 1764 0ae9 D301     		.2byte	0x1d3
 1765 0aeb 650B0000 		.4byte	0xb65
 1766 0aef 09       		.uleb128 0x9
 1767 0af0 1C060000 		.4byte	.LASF158
 1768 0af4 13       		.byte	0x13
 1769 0af5 D701     		.2byte	0x1d7
 1770 0af7 7F0A0000 		.4byte	0xa7f
 1771 0afb 00       		.byte	0
 1772 0afc 09       		.uleb128 0x9
 1773 0afd 23050000 		.4byte	.LASF159
 1774 0b01 13       		.byte	0x13
 1775 0b02 DB01     		.2byte	0x1db
 1776 0b04 7F0A0000 		.4byte	0xa7f
 1777 0b08 04       		.byte	0x4
 1778 0b09 09       		.uleb128 0x9
 1779 0b0a 8E040000 		.4byte	.LASF160
 1780 0b0e 13       		.byte	0x13
 1781 0b0f DF01     		.2byte	0x1df
 1782 0b11 7F0A0000 		.4byte	0xa7f
 1783 0b15 08       		.byte	0x8
 1784 0b16 09       		.uleb128 0x9
 1785 0b17 B4050000 		.4byte	.LASF161
 1786 0b1b 13       		.byte	0x13
 1787 0b1c E301     		.2byte	0x1e3
 1788 0b1e A20A0000 		.4byte	0xaa2
 1789 0b22 0C       		.byte	0xc
 1790 0b23 09       		.uleb128 0x9
 1791 0b24 43040000 		.4byte	.LASF162
 1792 0b28 13       		.byte	0x13
 1793 0b29 E701     		.2byte	0x1e7
 1794 0b2b C40A0000 		.4byte	0xac4
 1795 0b2f 10       		.byte	0x10
 1796 0b30 09       		.uleb128 0x9
 1797 0b31 00080000 		.4byte	.LASF163
 1798 0b35 13       		.byte	0x13
 1799 0b36 EC01     		.2byte	0x1ec
 1800 0b38 C3000000 		.4byte	0xc3
 1801 0b3c 14       		.byte	0x14
 1802 0b3d 08       		.uleb128 0x8
 1803 0b3e 63723100 		.ascii	"cr1\000"
 1804 0b42 13       		.byte	0x13
 1805 0b43 F001     		.2byte	0x1f0
 1806 0b45 AD000000 		.4byte	0xad
 1807 0b49 18       		.byte	0x18
 1808 0b4a 08       		.uleb128 0x8
 1809 0b4b 63723200 		.ascii	"cr2\000"
 1810 0b4f 13       		.byte	0x13
 1811 0b50 F401     		.2byte	0x1f4
 1812 0b52 AD000000 		.4byte	0xad
 1813 0b56 1A       		.byte	0x1a
 1814 0b57 08       		.uleb128 0x8
 1815 0b58 63723300 		.ascii	"cr3\000"
 1816 0b5c 13       		.byte	0x13
ARM GAS  C:\Users\IDONNO~1\AppData\Local\Temp\ccP9Krzp.s 			page 33


 1817 0b5d F801     		.2byte	0x1f8
 1818 0b5f AD000000 		.4byte	0xad
 1819 0b63 1C       		.byte	0x1c
 1820 0b64 00       		.byte	0
 1821 0b65 11       		.uleb128 0x11
 1822 0b66 DE000000 		.4byte	.LASF164
 1823 0b6a 13       		.byte	0x13
 1824 0b6b F901     		.2byte	0x1f9
 1825 0b6d E60A0000 		.4byte	0xae6
 1826 0b71 0A       		.uleb128 0xa
 1827 0b72 04       		.byte	0x4
 1828 0b73 770B0000 		.4byte	0xb77
 1829 0b77 16       		.uleb128 0x16
 1830 0b78 650B0000 		.4byte	0xb65
 1831 0b7c 1C       		.uleb128 0x1c
 1832 0b7d E0060000 		.4byte	.LASF169
 1833 0b81 03       		.byte	0x3
 1834 0b82 2002     		.2byte	0x220
 1835 0b84 03       		.byte	0x3
 1836 0b85 960B0000 		.4byte	0xb96
 1837 0b89 1D       		.uleb128 0x1d
 1838 0b8a 48020000 		.4byte	.LASF171
 1839 0b8e 03       		.byte	0x3
 1840 0b8f 2002     		.2byte	0x220
 1841 0b91 C3000000 		.4byte	0xc3
 1842 0b95 00       		.byte	0
 1843 0b96 1E       		.uleb128 0x1e
 1844 0b97 95000000 		.4byte	.LASF165
 1845 0b9b 0C       		.byte	0xc
 1846 0b9c BC01     		.2byte	0x1bc
 1847 0b9e 03       		.byte	0x3
 1848 0b9f 1E       		.uleb128 0x1e
 1849 0ba0 6F010000 		.4byte	.LASF166
 1850 0ba4 0C       		.byte	0xc
 1851 0ba5 CA01     		.2byte	0x1ca
 1852 0ba7 03       		.byte	0x3
 1853 0ba8 1E       		.uleb128 0x1e
 1854 0ba9 55070000 		.4byte	.LASF167
 1855 0bad 0C       		.byte	0xc
 1856 0bae D901     		.2byte	0x1d9
 1857 0bb0 03       		.byte	0x3
 1858 0bb1 1E       		.uleb128 0x1e
 1859 0bb2 92060000 		.4byte	.LASF168
 1860 0bb6 0C       		.byte	0xc
 1861 0bb7 E401     		.2byte	0x1e4
 1862 0bb9 03       		.byte	0x3
 1863 0bba 1F       		.uleb128 0x1f
 1864 0bbb D0070000 		.4byte	.LASF198
 1865 0bbf 17       		.byte	0x17
 1866 0bc0 AE       		.byte	0xae
 1867 0bc1 91020000 		.4byte	0x291
 1868 0bc5 03       		.byte	0x3
 1869 0bc6 20       		.uleb128 0x20
 1870 0bc7 47090000 		.4byte	.LASF170
 1871 0bcb 02       		.byte	0x2
 1872 0bcc 84       		.byte	0x84
 1873 0bcd 03       		.byte	0x3
ARM GAS  C:\Users\IDONNO~1\AppData\Local\Temp\ccP9Krzp.s 			page 34


 1874 0bce DE0B0000 		.4byte	0xbde
 1875 0bd2 21       		.uleb128 0x21
 1876 0bd3 C9020000 		.4byte	.LASF172
 1877 0bd7 02       		.byte	0x2
 1878 0bd8 84       		.byte	0x84
 1879 0bd9 D1070000 		.4byte	0x7d1
 1880 0bdd 00       		.byte	0
 1881 0bde 1E       		.uleb128 0x1e
 1882 0bdf 35050000 		.4byte	.LASF173
 1883 0be3 14       		.byte	0x14
 1884 0be4 9601     		.2byte	0x196
 1885 0be6 03       		.byte	0x3
 1886 0be7 1E       		.uleb128 0x1e
 1887 0be8 7E000000 		.4byte	.LASF174
 1888 0bec 14       		.byte	0x14
 1889 0bed 8201     		.2byte	0x182
 1890 0bef 03       		.byte	0x3
 1891 0bf0 22       		.uleb128 0x22
 1892 0bf1 F5020000 		.4byte	.LASF177
 1893 0bf5 01       		.byte	0x1
 1894 0bf6 4A       		.byte	0x4a
 1895 0bf7 00000000 		.4byte	.LFB258
 1896 0bfb 02000000 		.4byte	.LFE258-.LFB258
 1897 0bff 01       		.uleb128 0x1
 1898 0c00 9C       		.byte	0x9c
 1899 0c01 1E0C0000 		.4byte	0xc1e
 1900 0c05 23       		.uleb128 0x23
 1901 0c06 E1030000 		.4byte	.LASF175
 1902 0c0a 01       		.byte	0x1
 1903 0c0b 4A       		.byte	0x4a
 1904 0c0c 9C0A0000 		.4byte	0xa9c
 1905 0c10 01       		.uleb128 0x1
 1906 0c11 50       		.byte	0x50
 1907 0c12 24       		.uleb128 0x24
 1908 0c13 6500     		.ascii	"e\000"
 1909 0c15 01       		.byte	0x1
 1910 0c16 4A       		.byte	0x4a
 1911 0c17 E4090000 		.4byte	0x9e4
 1912 0c1b 01       		.uleb128 0x1
 1913 0c1c 51       		.byte	0x51
 1914 0c1d 00       		.byte	0
 1915 0c1e 20       		.uleb128 0x20
 1916 0c1f 1C020000 		.4byte	.LASF176
 1917 0c23 01       		.byte	0x1
 1918 0c24 63       		.byte	0x63
 1919 0c25 01       		.byte	0x1
 1920 0c26 360C0000 		.4byte	0xc36
 1921 0c2a 21       		.uleb128 0x21
 1922 0c2b E1030000 		.4byte	.LASF175
 1923 0c2f 01       		.byte	0x1
 1924 0c30 63       		.byte	0x63
 1925 0c31 9C0A0000 		.4byte	0xa9c
 1926 0c35 00       		.byte	0
 1927 0c36 25       		.uleb128 0x25
 1928 0c37 1E0C0000 		.4byte	0xc1e
 1929 0c3b 00000000 		.4byte	.LFB260
 1930 0c3f 02000000 		.4byte	.LFE260-.LFB260
ARM GAS  C:\Users\IDONNO~1\AppData\Local\Temp\ccP9Krzp.s 			page 35


 1931 0c43 01       		.uleb128 0x1
 1932 0c44 9C       		.byte	0x9c
 1933 0c45 510C0000 		.4byte	0xc51
 1934 0c49 26       		.uleb128 0x26
 1935 0c4a 2A0C0000 		.4byte	0xc2a
 1936 0c4e 01       		.uleb128 0x1
 1937 0c4f 50       		.byte	0x50
 1938 0c50 00       		.byte	0
 1939 0c51 27       		.uleb128 0x27
 1940 0c52 78070000 		.4byte	.LASF199
 1941 0c56 01       		.byte	0x1
 1942 0c57 A1       		.byte	0xa1
 1943 0c58 00000000 		.4byte	.LFB266
 1944 0c5c 24000000 		.4byte	.LFE266-.LFB266
 1945 0c60 01       		.uleb128 0x1
 1946 0c61 9C       		.byte	0x9c
 1947 0c62 A20C0000 		.4byte	0xca2
 1948 0c66 28       		.uleb128 0x28
 1949 0c67 61726700 		.ascii	"arg\000"
 1950 0c6b 01       		.byte	0x1
 1951 0c6c A1       		.byte	0xa1
 1952 0c6d 6E030000 		.4byte	0x36e
 1953 0c71 00000000 		.4byte	.LLST0
 1954 0c75 29       		.uleb128 0x29
 1955 0c76 C60B0000 		.4byte	0xbc6
 1956 0c7a 02000000 		.4byte	.LBB40
 1957 0c7e 00000000 		.4byte	.Ldebug_ranges0+0
 1958 0c82 01       		.byte	0x1
 1959 0c83 A4       		.byte	0xa4
 1960 0c84 920C0000 		.4byte	0xc92
 1961 0c88 2A       		.uleb128 0x2a
 1962 0c89 D20B0000 		.4byte	0xbd2
 1963 0c8d 21000000 		.4byte	.LLST1
 1964 0c91 00       		.byte	0
 1965 0c92 2B       		.uleb128 0x2b
 1966 0c93 14000000 		.4byte	.LVL5
 1967 0c97 FD0E0000 		.4byte	0xefd
 1968 0c9b 2C       		.uleb128 0x2c
 1969 0c9c 01       		.uleb128 0x1
 1970 0c9d 50       		.byte	0x50
 1971 0c9e 01       		.uleb128 0x1
 1972 0c9f 31       		.byte	0x31
 1973 0ca0 00       		.byte	0
 1974 0ca1 00       		.byte	0
 1975 0ca2 22       		.uleb128 0x22
 1976 0ca3 CF040000 		.4byte	.LASF178
 1977 0ca7 01       		.byte	0x1
 1978 0ca8 53       		.byte	0x53
 1979 0ca9 00000000 		.4byte	.LFB259
 1980 0cad 34000000 		.4byte	.LFE259-.LFB259
 1981 0cb1 01       		.uleb128 0x1
 1982 0cb2 9C       		.byte	0x9c
 1983 0cb3 830D0000 		.4byte	0xd83
 1984 0cb7 2D       		.uleb128 0x2d
 1985 0cb8 E1030000 		.4byte	.LASF175
 1986 0cbc 01       		.byte	0x1
 1987 0cbd 53       		.byte	0x53
ARM GAS  C:\Users\IDONNO~1\AppData\Local\Temp\ccP9Krzp.s 			page 36


 1988 0cbe 9C0A0000 		.4byte	0xa9c
 1989 0cc2 39000000 		.4byte	.LLST2
 1990 0cc6 28       		.uleb128 0x28
 1991 0cc7 6300     		.ascii	"c\000"
 1992 0cc9 01       		.byte	0x1
 1993 0cca 53       		.byte	0x53
 1994 0ccb AD000000 		.4byte	0xad
 1995 0ccf 5A000000 		.4byte	.LLST3
 1996 0cd3 2E       		.uleb128 0x2e
 1997 0cd4 E70B0000 		.4byte	0xbe7
 1998 0cd8 12000000 		.4byte	.LBB44
 1999 0cdc 06000000 		.4byte	.LBE44-.LBB44
 2000 0ce0 01       		.byte	0x1
 2001 0ce1 5B       		.byte	0x5b
 2002 0ce2 230D0000 		.4byte	0xd23
 2003 0ce6 2F       		.uleb128 0x2f
 2004 0ce7 A80B0000 		.4byte	0xba8
 2005 0ceb 12000000 		.4byte	.LBB45
 2006 0cef 06000000 		.4byte	.LBE45-.LBB45
 2007 0cf3 14       		.byte	0x14
 2008 0cf4 8401     		.2byte	0x184
 2009 0cf6 2F       		.uleb128 0x2f
 2010 0cf7 960B0000 		.4byte	0xb96
 2011 0cfb 12000000 		.4byte	.LBB46
 2012 0cff 06000000 		.4byte	.LBE46-.LBB46
 2013 0d03 0C       		.byte	0xc
 2014 0d04 DB01     		.2byte	0x1db
 2015 0d06 2F       		.uleb128 0x2f
 2016 0d07 7C0B0000 		.4byte	0xb7c
 2017 0d0b 12000000 		.4byte	.LBB47
 2018 0d0f 06000000 		.4byte	.LBE47-.LBB47
 2019 0d13 0C       		.byte	0xc
 2020 0d14 BF01     		.2byte	0x1bf
 2021 0d16 2A       		.uleb128 0x2a
 2022 0d17 890B0000 		.4byte	0xb89
 2023 0d1b 7B000000 		.4byte	.LLST4
 2024 0d1f 00       		.byte	0
 2025 0d20 00       		.byte	0
 2026 0d21 00       		.byte	0
 2027 0d22 00       		.byte	0
 2028 0d23 2E       		.uleb128 0x2e
 2029 0d24 DE0B0000 		.4byte	0xbde
 2030 0d28 22000000 		.4byte	.LBB49
 2031 0d2c 12000000 		.4byte	.LBE49-.LBB49
 2032 0d30 01       		.byte	0x1
 2033 0d31 5D       		.byte	0x5d
 2034 0d32 730D0000 		.4byte	0xd73
 2035 0d36 2F       		.uleb128 0x2f
 2036 0d37 B10B0000 		.4byte	0xbb1
 2037 0d3b 22000000 		.4byte	.LBB50
 2038 0d3f 12000000 		.4byte	.LBE50-.LBB50
 2039 0d43 14       		.byte	0x14
 2040 0d44 9A01     		.2byte	0x19a
 2041 0d46 2F       		.uleb128 0x2f
 2042 0d47 9F0B0000 		.4byte	0xb9f
 2043 0d4b 22000000 		.4byte	.LBB51
 2044 0d4f 12000000 		.4byte	.LBE51-.LBB51
ARM GAS  C:\Users\IDONNO~1\AppData\Local\Temp\ccP9Krzp.s 			page 37


 2045 0d53 0C       		.byte	0xc
 2046 0d54 E601     		.2byte	0x1e6
 2047 0d56 2F       		.uleb128 0x2f
 2048 0d57 7C0B0000 		.4byte	0xb7c
 2049 0d5b 22000000 		.4byte	.LBB52
 2050 0d5f 12000000 		.4byte	.LBE52-.LBB52
 2051 0d63 0C       		.byte	0xc
 2052 0d64 CD01     		.2byte	0x1cd
 2053 0d66 2A       		.uleb128 0x2a
 2054 0d67 890B0000 		.4byte	0xb89
 2055 0d6b 90000000 		.4byte	.LLST5
 2056 0d6f 00       		.byte	0
 2057 0d70 00       		.byte	0
 2058 0d71 00       		.byte	0
 2059 0d72 00       		.byte	0
 2060 0d73 2B       		.uleb128 0x2b
 2061 0d74 22000000 		.4byte	.LVL10
 2062 0d78 080F0000 		.4byte	0xf08
 2063 0d7c 2C       		.uleb128 0x2c
 2064 0d7d 01       		.uleb128 0x1
 2065 0d7e 51       		.byte	0x51
 2066 0d7f 01       		.uleb128 0x1
 2067 0d80 31       		.byte	0x31
 2068 0d81 00       		.byte	0
 2069 0d82 00       		.byte	0
 2070 0d83 30       		.uleb128 0x30
 2071 0d84 26000000 		.4byte	.LASF179
 2072 0d88 01       		.byte	0x1
 2073 0d89 8D       		.byte	0x8d
 2074 0d8a 00000000 		.4byte	.LFB264
 2075 0d8e 5C000000 		.4byte	.LFE264-.LFB264
 2076 0d92 01       		.uleb128 0x1
 2077 0d93 9C       		.byte	0x9c
 2078 0d94 1E0E0000 		.4byte	0xe1e
 2079 0d98 31       		.uleb128 0x31
 2080 0d99 0E000000 		.4byte	.LVL12
 2081 0d9d 130F0000 		.4byte	0xf13
 2082 0da1 AF0D0000 		.4byte	0xdaf
 2083 0da5 2C       		.uleb128 0x2c
 2084 0da6 01       		.uleb128 0x1
 2085 0da7 51       		.byte	0x51
 2086 0da8 05       		.uleb128 0x5
 2087 0da9 03       		.byte	0x3
 2088 0daa 00000000 		.4byte	.LANCHOR2
 2089 0dae 00       		.byte	0
 2090 0daf 31       		.uleb128 0x31
 2091 0db0 1A000000 		.4byte	.LVL13
 2092 0db4 1E0F0000 		.4byte	0xf1e
 2093 0db8 D00D0000 		.4byte	0xdd0
 2094 0dbc 2C       		.uleb128 0x2c
 2095 0dbd 01       		.uleb128 0x1
 2096 0dbe 50       		.byte	0x50
 2097 0dbf 02       		.uleb128 0x2
 2098 0dc0 74       		.byte	0x74
 2099 0dc1 00       		.sleb128 0
 2100 0dc2 2C       		.uleb128 0x2c
 2101 0dc3 01       		.uleb128 0x1
ARM GAS  C:\Users\IDONNO~1\AppData\Local\Temp\ccP9Krzp.s 			page 38


 2102 0dc4 51       		.byte	0x51
 2103 0dc5 02       		.uleb128 0x2
 2104 0dc6 08       		.byte	0x8
 2105 0dc7 40       		.byte	0x40
 2106 0dc8 2C       		.uleb128 0x2c
 2107 0dc9 01       		.uleb128 0x1
 2108 0dca 52       		.byte	0x52
 2109 0dcb 03       		.uleb128 0x3
 2110 0dcc 0A       		.byte	0xa
 2111 0dcd 3A04     		.2byte	0x43a
 2112 0dcf 00       		.byte	0
 2113 0dd0 31       		.uleb128 0x31
 2114 0dd1 28000000 		.4byte	.LVL14
 2115 0dd5 1E0F0000 		.4byte	0xf1e
 2116 0dd9 F40D0000 		.4byte	0xdf4
 2117 0ddd 2C       		.uleb128 0x2c
 2118 0dde 01       		.uleb128 0x1
 2119 0ddf 50       		.byte	0x50
 2120 0de0 05       		.uleb128 0x5
 2121 0de1 0C       		.byte	0xc
 2122 0de2 00080240 		.4byte	0x40020800
 2123 0de6 2C       		.uleb128 0x2c
 2124 0de7 01       		.uleb128 0x1
 2125 0de8 51       		.byte	0x51
 2126 0de9 02       		.uleb128 0x2
 2127 0dea 08       		.byte	0x8
 2128 0deb 80       		.byte	0x80
 2129 0dec 2C       		.uleb128 0x2c
 2130 0ded 01       		.uleb128 0x1
 2131 0dee 52       		.byte	0x52
 2132 0def 03       		.uleb128 0x3
 2133 0df0 0A       		.byte	0xa
 2134 0df1 3A04     		.2byte	0x43a
 2135 0df3 00       		.byte	0
 2136 0df4 2B       		.uleb128 0x2b
 2137 0df5 3E000000 		.4byte	.LVL15
 2138 0df9 2A0F0000 		.4byte	0xf2a
 2139 0dfd 2C       		.uleb128 0x2c
 2140 0dfe 01       		.uleb128 0x1
 2141 0dff 50       		.byte	0x50
 2142 0e00 05       		.uleb128 0x5
 2143 0e01 03       		.byte	0x3
 2144 0e02 00000000 		.4byte	.LANCHOR4
 2145 0e06 2C       		.uleb128 0x2c
 2146 0e07 01       		.uleb128 0x1
 2147 0e08 51       		.byte	0x51
 2148 0e09 03       		.uleb128 0x3
 2149 0e0a 0A       		.byte	0xa
 2150 0e0b 9811     		.2byte	0x1198
 2151 0e0d 2C       		.uleb128 0x2c
 2152 0e0e 01       		.uleb128 0x1
 2153 0e0f 52       		.byte	0x52
 2154 0e10 02       		.uleb128 0x2
 2155 0e11 08       		.byte	0x8
 2156 0e12 40       		.byte	0x40
 2157 0e13 2C       		.uleb128 0x2c
 2158 0e14 01       		.uleb128 0x1
ARM GAS  C:\Users\IDONNO~1\AppData\Local\Temp\ccP9Krzp.s 			page 39


 2159 0e15 53       		.byte	0x53
 2160 0e16 05       		.uleb128 0x5
 2161 0e17 03       		.byte	0x3
 2162 0e18 00000000 		.4byte	packet_process_thread
 2163 0e1c 00       		.byte	0
 2164 0e1d 00       		.byte	0
 2165 0e1e 30       		.uleb128 0x30
 2166 0e1f AD010000 		.4byte	.LASF180
 2167 0e23 01       		.byte	0x1
 2168 0e24 99       		.byte	0x99
 2169 0e25 00000000 		.4byte	.LFB265
 2170 0e29 20000000 		.4byte	.LFE265-.LFB265
 2171 0e2d 01       		.uleb128 0x1
 2172 0e2e 9C       		.byte	0x9c
 2173 0e2f 4C0E0000 		.4byte	0xe4c
 2174 0e33 2D       		.uleb128 0x2d
 2175 0e34 66010000 		.4byte	.LASF181
 2176 0e38 01       		.byte	0x1
 2177 0e39 99       		.byte	0x99
 2178 0e3a C3000000 		.4byte	0xc3
 2179 0e3e A4000000 		.4byte	.LLST6
 2180 0e42 32       		.uleb128 0x32
 2181 0e43 12000000 		.4byte	.LVL18
 2182 0e47 130F0000 		.4byte	0xf13
 2183 0e4b 00       		.byte	0
 2184 0e4c 17       		.uleb128 0x17
 2185 0e4d 81050000 		.4byte	0x581
 2186 0e51 5D0E0000 		.4byte	0xe5d
 2187 0e55 33       		.uleb128 0x33
 2188 0e56 D9000000 		.4byte	0xd9
 2189 0e5a 3202     		.2byte	0x232
 2190 0e5c 00       		.byte	0
 2191 0e5d 34       		.uleb128 0x34
 2192 0e5e 8D030000 		.4byte	.LASF182
 2193 0e62 01       		.byte	0x1
 2194 0e63 29       		.byte	0x29
 2195 0e64 4C0E0000 		.4byte	0xe4c
 2196 0e68 05       		.uleb128 0x5
 2197 0e69 03       		.byte	0x3
 2198 0e6a 00000000 		.4byte	packet_process_thread_wa
 2199 0e6e 34       		.uleb128 0x34
 2200 0e6f E2010000 		.4byte	.LASF183
 2201 0e73 01       		.byte	0x1
 2202 0e74 2A       		.byte	0x2a
 2203 0e75 91020000 		.4byte	0x291
 2204 0e79 05       		.uleb128 0x5
 2205 0e7a 03       		.byte	0x3
 2206 0e7b 00000000 		.4byte	process_tp
 2207 0e7f 17       		.uleb128 0x17
 2208 0e80 A2000000 		.4byte	0xa2
 2209 0e84 900E0000 		.4byte	0xe90
 2210 0e88 33       		.uleb128 0x33
 2211 0e89 D9000000 		.4byte	0xd9
 2212 0e8d FF03     		.2byte	0x3ff
 2213 0e8f 00       		.byte	0
 2214 0e90 35       		.uleb128 0x35
 2215 0e91 40000000 		.4byte	.LASF200
ARM GAS  C:\Users\IDONNO~1\AppData\Local\Temp\ccP9Krzp.s 			page 40


 2216 0e95 01       		.byte	0x1
 2217 0e96 2D       		.byte	0x2d
 2218 0e97 7F0E0000 		.4byte	0xe7f
 2219 0e9b 36       		.uleb128 0x36
 2220 0e9c CE030000 		.4byte	.LASF184
 2221 0ea0 01       		.byte	0x1
 2222 0ea1 2E       		.byte	0x2e
 2223 0ea2 94000000 		.4byte	0x94
 2224 0ea6 00       		.byte	0
 2225 0ea7 34       		.uleb128 0x34
 2226 0ea8 5A090000 		.4byte	.LASF185
 2227 0eac 01       		.byte	0x1
 2228 0ead 2F       		.byte	0x2f
 2229 0eae 94000000 		.4byte	0x94
 2230 0eb2 05       		.uleb128 0x5
 2231 0eb3 03       		.byte	0x3
 2232 0eb4 00000000 		.4byte	serial_rx_write_pos
 2233 0eb8 34       		.uleb128 0x34
 2234 0eb9 0F010000 		.4byte	.LASF186
 2235 0ebd 01       		.byte	0x1
 2236 0ebe 30       		.byte	0x30
 2237 0ebf 94000000 		.4byte	0x94
 2238 0ec3 05       		.uleb128 0x5
 2239 0ec4 03       		.byte	0x3
 2240 0ec5 00000000 		.4byte	is_running
 2241 0ec9 34       		.uleb128 0x34
 2242 0eca 37020000 		.4byte	.LASF187
 2243 0ece 01       		.byte	0x1
 2244 0ecf 6A       		.byte	0x6a
 2245 0ed0 650B0000 		.4byte	0xb65
 2246 0ed4 05       		.uleb128 0x5
 2247 0ed5 03       		.byte	0x3
 2248 0ed6 00000000 		.4byte	uart_cfg
 2249 0eda 37       		.uleb128 0x37
 2250 0edb E9000000 		.4byte	.LASF188
 2251 0edf 15       		.byte	0x15
 2252 0ee0 A706     		.2byte	0x6a7
 2253 0ee2 FE000000 		.4byte	0xfe
 2254 0ee6 38       		.uleb128 0x38
 2255 0ee7 636800   		.ascii	"ch\000"
 2256 0eea 09       		.byte	0x9
 2257 0eeb 0902     		.2byte	0x209
 2258 0eed 3D040000 		.4byte	0x43d
 2259 0ef1 37       		.uleb128 0x37
 2260 0ef2 00000000 		.4byte	.LASF189
 2261 0ef6 13       		.byte	0x13
 2262 0ef7 4602     		.2byte	0x246
 2263 0ef9 F0090000 		.4byte	0x9f0
 2264 0efd 39       		.uleb128 0x39
 2265 0efe C4010000 		.4byte	.LASF190
 2266 0f02 C4010000 		.4byte	.LASF190
 2267 0f06 16       		.byte	0x16
 2268 0f07 8B       		.byte	0x8b
 2269 0f08 39       		.uleb128 0x39
 2270 0f09 8F090000 		.4byte	.LASF191
 2271 0f0d 8F090000 		.4byte	.LASF191
 2272 0f11 16       		.byte	0x16
ARM GAS  C:\Users\IDONNO~1\AppData\Local\Temp\ccP9Krzp.s 			page 41


 2273 0f12 85       		.byte	0x85
 2274 0f13 39       		.uleb128 0x39
 2275 0f14 84040000 		.4byte	.LASF192
 2276 0f18 84040000 		.4byte	.LASF192
 2277 0f1c 12       		.byte	0x12
 2278 0f1d 64       		.byte	0x64
 2279 0f1e 3A       		.uleb128 0x3a
 2280 0f1f 26070000 		.4byte	.LASF193
 2281 0f23 26070000 		.4byte	.LASF193
 2282 0f27 11       		.byte	0x11
 2283 0f28 E001     		.2byte	0x1e0
 2284 0f2a 39       		.uleb128 0x39
 2285 0f2b B1030000 		.4byte	.LASF194
 2286 0f2f B1030000 		.4byte	.LASF194
 2287 0f33 17       		.byte	0x17
 2288 0f34 89       		.byte	0x89
 2289 0f35 00       		.byte	0
 2290              		.section	.debug_abbrev,"",%progbits
 2291              	.Ldebug_abbrev0:
 2292 0000 01       		.uleb128 0x1
 2293 0001 11       		.uleb128 0x11
 2294 0002 01       		.byte	0x1
 2295 0003 25       		.uleb128 0x25
 2296 0004 0E       		.uleb128 0xe
 2297 0005 13       		.uleb128 0x13
 2298 0006 0B       		.uleb128 0xb
 2299 0007 03       		.uleb128 0x3
 2300 0008 0E       		.uleb128 0xe
 2301 0009 1B       		.uleb128 0x1b
 2302 000a 0E       		.uleb128 0xe
 2303 000b 55       		.uleb128 0x55
 2304 000c 17       		.uleb128 0x17
 2305 000d 11       		.uleb128 0x11
 2306 000e 01       		.uleb128 0x1
 2307 000f 10       		.uleb128 0x10
 2308 0010 17       		.uleb128 0x17
 2309 0011 00       		.byte	0
 2310 0012 00       		.byte	0
 2311 0013 02       		.uleb128 0x2
 2312 0014 24       		.uleb128 0x24
 2313 0015 00       		.byte	0
 2314 0016 0B       		.uleb128 0xb
 2315 0017 0B       		.uleb128 0xb
 2316 0018 3E       		.uleb128 0x3e
 2317 0019 0B       		.uleb128 0xb
 2318 001a 03       		.uleb128 0x3
 2319 001b 0E       		.uleb128 0xe
 2320 001c 00       		.byte	0
 2321 001d 00       		.byte	0
 2322 001e 03       		.uleb128 0x3
 2323 001f 16       		.uleb128 0x16
 2324 0020 00       		.byte	0
 2325 0021 03       		.uleb128 0x3
 2326 0022 0E       		.uleb128 0xe
 2327 0023 3A       		.uleb128 0x3a
 2328 0024 0B       		.uleb128 0xb
 2329 0025 3B       		.uleb128 0x3b
ARM GAS  C:\Users\IDONNO~1\AppData\Local\Temp\ccP9Krzp.s 			page 42


 2330 0026 0B       		.uleb128 0xb
 2331 0027 49       		.uleb128 0x49
 2332 0028 13       		.uleb128 0x13
 2333 0029 00       		.byte	0
 2334 002a 00       		.byte	0
 2335 002b 04       		.uleb128 0x4
 2336 002c 24       		.uleb128 0x24
 2337 002d 00       		.byte	0
 2338 002e 0B       		.uleb128 0xb
 2339 002f 0B       		.uleb128 0xb
 2340 0030 3E       		.uleb128 0x3e
 2341 0031 0B       		.uleb128 0xb
 2342 0032 03       		.uleb128 0x3
 2343 0033 08       		.uleb128 0x8
 2344 0034 00       		.byte	0
 2345 0035 00       		.byte	0
 2346 0036 05       		.uleb128 0x5
 2347 0037 35       		.uleb128 0x35
 2348 0038 00       		.byte	0
 2349 0039 49       		.uleb128 0x49
 2350 003a 13       		.uleb128 0x13
 2351 003b 00       		.byte	0
 2352 003c 00       		.byte	0
 2353 003d 06       		.uleb128 0x6
 2354 003e 13       		.uleb128 0x13
 2355 003f 01       		.byte	0x1
 2356 0040 03       		.uleb128 0x3
 2357 0041 0E       		.uleb128 0xe
 2358 0042 0B       		.uleb128 0xb
 2359 0043 0B       		.uleb128 0xb
 2360 0044 3A       		.uleb128 0x3a
 2361 0045 0B       		.uleb128 0xb
 2362 0046 3B       		.uleb128 0x3b
 2363 0047 0B       		.uleb128 0xb
 2364 0048 01       		.uleb128 0x1
 2365 0049 13       		.uleb128 0x13
 2366 004a 00       		.byte	0
 2367 004b 00       		.byte	0
 2368 004c 07       		.uleb128 0x7
 2369 004d 0D       		.uleb128 0xd
 2370 004e 00       		.byte	0
 2371 004f 03       		.uleb128 0x3
 2372 0050 0E       		.uleb128 0xe
 2373 0051 3A       		.uleb128 0x3a
 2374 0052 0B       		.uleb128 0xb
 2375 0053 3B       		.uleb128 0x3b
 2376 0054 0B       		.uleb128 0xb
 2377 0055 49       		.uleb128 0x49
 2378 0056 13       		.uleb128 0x13
 2379 0057 38       		.uleb128 0x38
 2380 0058 0B       		.uleb128 0xb
 2381 0059 00       		.byte	0
 2382 005a 00       		.byte	0
 2383 005b 08       		.uleb128 0x8
 2384 005c 0D       		.uleb128 0xd
 2385 005d 00       		.byte	0
 2386 005e 03       		.uleb128 0x3
ARM GAS  C:\Users\IDONNO~1\AppData\Local\Temp\ccP9Krzp.s 			page 43


 2387 005f 08       		.uleb128 0x8
 2388 0060 3A       		.uleb128 0x3a
 2389 0061 0B       		.uleb128 0xb
 2390 0062 3B       		.uleb128 0x3b
 2391 0063 05       		.uleb128 0x5
 2392 0064 49       		.uleb128 0x49
 2393 0065 13       		.uleb128 0x13
 2394 0066 38       		.uleb128 0x38
 2395 0067 0B       		.uleb128 0xb
 2396 0068 00       		.byte	0
 2397 0069 00       		.byte	0
 2398 006a 09       		.uleb128 0x9
 2399 006b 0D       		.uleb128 0xd
 2400 006c 00       		.byte	0
 2401 006d 03       		.uleb128 0x3
 2402 006e 0E       		.uleb128 0xe
 2403 006f 3A       		.uleb128 0x3a
 2404 0070 0B       		.uleb128 0xb
 2405 0071 3B       		.uleb128 0x3b
 2406 0072 05       		.uleb128 0x5
 2407 0073 49       		.uleb128 0x49
 2408 0074 13       		.uleb128 0x13
 2409 0075 38       		.uleb128 0x38
 2410 0076 0B       		.uleb128 0xb
 2411 0077 00       		.byte	0
 2412 0078 00       		.byte	0
 2413 0079 0A       		.uleb128 0xa
 2414 007a 0F       		.uleb128 0xf
 2415 007b 00       		.byte	0
 2416 007c 0B       		.uleb128 0xb
 2417 007d 0B       		.uleb128 0xb
 2418 007e 49       		.uleb128 0x49
 2419 007f 13       		.uleb128 0x13
 2420 0080 00       		.byte	0
 2421 0081 00       		.byte	0
 2422 0082 0B       		.uleb128 0xb
 2423 0083 13       		.uleb128 0x13
 2424 0084 01       		.byte	0x1
 2425 0085 03       		.uleb128 0x3
 2426 0086 0E       		.uleb128 0xe
 2427 0087 0B       		.uleb128 0xb
 2428 0088 0B       		.uleb128 0xb
 2429 0089 3A       		.uleb128 0x3a
 2430 008a 0B       		.uleb128 0xb
 2431 008b 3B       		.uleb128 0x3b
 2432 008c 05       		.uleb128 0x5
 2433 008d 01       		.uleb128 0x1
 2434 008e 13       		.uleb128 0x13
 2435 008f 00       		.byte	0
 2436 0090 00       		.byte	0
 2437 0091 0C       		.uleb128 0xc
 2438 0092 15       		.uleb128 0x15
 2439 0093 01       		.byte	0x1
 2440 0094 27       		.uleb128 0x27
 2441 0095 19       		.uleb128 0x19
 2442 0096 01       		.uleb128 0x1
 2443 0097 13       		.uleb128 0x13
ARM GAS  C:\Users\IDONNO~1\AppData\Local\Temp\ccP9Krzp.s 			page 44


 2444 0098 00       		.byte	0
 2445 0099 00       		.byte	0
 2446 009a 0D       		.uleb128 0xd
 2447 009b 05       		.uleb128 0x5
 2448 009c 00       		.byte	0
 2449 009d 49       		.uleb128 0x49
 2450 009e 13       		.uleb128 0x13
 2451 009f 00       		.byte	0
 2452 00a0 00       		.byte	0
 2453 00a1 0E       		.uleb128 0xe
 2454 00a2 0F       		.uleb128 0xf
 2455 00a3 00       		.byte	0
 2456 00a4 0B       		.uleb128 0xb
 2457 00a5 0B       		.uleb128 0xb
 2458 00a6 00       		.byte	0
 2459 00a7 00       		.byte	0
 2460 00a8 0F       		.uleb128 0xf
 2461 00a9 13       		.uleb128 0x13
 2462 00aa 01       		.byte	0x1
 2463 00ab 03       		.uleb128 0x3
 2464 00ac 0E       		.uleb128 0xe
 2465 00ad 0B       		.uleb128 0xb
 2466 00ae 05       		.uleb128 0x5
 2467 00af 3A       		.uleb128 0x3a
 2468 00b0 0B       		.uleb128 0xb
 2469 00b1 3B       		.uleb128 0x3b
 2470 00b2 05       		.uleb128 0x5
 2471 00b3 01       		.uleb128 0x1
 2472 00b4 13       		.uleb128 0x13
 2473 00b5 00       		.byte	0
 2474 00b6 00       		.byte	0
 2475 00b7 10       		.uleb128 0x10
 2476 00b8 13       		.uleb128 0x13
 2477 00b9 01       		.byte	0x1
 2478 00ba 0B       		.uleb128 0xb
 2479 00bb 0B       		.uleb128 0xb
 2480 00bc 3A       		.uleb128 0x3a
 2481 00bd 0B       		.uleb128 0xb
 2482 00be 3B       		.uleb128 0x3b
 2483 00bf 05       		.uleb128 0x5
 2484 00c0 01       		.uleb128 0x1
 2485 00c1 13       		.uleb128 0x13
 2486 00c2 00       		.byte	0
 2487 00c3 00       		.byte	0
 2488 00c4 11       		.uleb128 0x11
 2489 00c5 16       		.uleb128 0x16
 2490 00c6 00       		.byte	0
 2491 00c7 03       		.uleb128 0x3
 2492 00c8 0E       		.uleb128 0xe
 2493 00c9 3A       		.uleb128 0x3a
 2494 00ca 0B       		.uleb128 0xb
 2495 00cb 3B       		.uleb128 0x3b
 2496 00cc 05       		.uleb128 0x5
 2497 00cd 49       		.uleb128 0x49
 2498 00ce 13       		.uleb128 0x13
 2499 00cf 00       		.byte	0
 2500 00d0 00       		.byte	0
ARM GAS  C:\Users\IDONNO~1\AppData\Local\Temp\ccP9Krzp.s 			page 45


 2501 00d1 12       		.uleb128 0x12
 2502 00d2 0D       		.uleb128 0xd
 2503 00d3 00       		.byte	0
 2504 00d4 03       		.uleb128 0x3
 2505 00d5 08       		.uleb128 0x8
 2506 00d6 3A       		.uleb128 0x3a
 2507 00d7 0B       		.uleb128 0xb
 2508 00d8 3B       		.uleb128 0x3b
 2509 00d9 0B       		.uleb128 0xb
 2510 00da 49       		.uleb128 0x49
 2511 00db 13       		.uleb128 0x13
 2512 00dc 38       		.uleb128 0x38
 2513 00dd 0B       		.uleb128 0xb
 2514 00de 00       		.byte	0
 2515 00df 00       		.byte	0
 2516 00e0 13       		.uleb128 0x13
 2517 00e1 13       		.uleb128 0x13
 2518 00e2 01       		.byte	0x1
 2519 00e3 0B       		.uleb128 0xb
 2520 00e4 0B       		.uleb128 0xb
 2521 00e5 3A       		.uleb128 0x3a
 2522 00e6 0B       		.uleb128 0xb
 2523 00e7 3B       		.uleb128 0x3b
 2524 00e8 0B       		.uleb128 0xb
 2525 00e9 01       		.uleb128 0x1
 2526 00ea 13       		.uleb128 0x13
 2527 00eb 00       		.byte	0
 2528 00ec 00       		.byte	0
 2529 00ed 14       		.uleb128 0x14
 2530 00ee 17       		.uleb128 0x17
 2531 00ef 01       		.byte	0x1
 2532 00f0 0B       		.uleb128 0xb
 2533 00f1 0B       		.uleb128 0xb
 2534 00f2 3A       		.uleb128 0x3a
 2535 00f3 0B       		.uleb128 0xb
 2536 00f4 3B       		.uleb128 0x3b
 2537 00f5 0B       		.uleb128 0xb
 2538 00f6 01       		.uleb128 0x1
 2539 00f7 13       		.uleb128 0x13
 2540 00f8 00       		.byte	0
 2541 00f9 00       		.byte	0
 2542 00fa 15       		.uleb128 0x15
 2543 00fb 0D       		.uleb128 0xd
 2544 00fc 00       		.byte	0
 2545 00fd 03       		.uleb128 0x3
 2546 00fe 0E       		.uleb128 0xe
 2547 00ff 3A       		.uleb128 0x3a
 2548 0100 0B       		.uleb128 0xb
 2549 0101 3B       		.uleb128 0x3b
 2550 0102 05       		.uleb128 0x5
 2551 0103 49       		.uleb128 0x49
 2552 0104 13       		.uleb128 0x13
 2553 0105 00       		.byte	0
 2554 0106 00       		.byte	0
 2555 0107 16       		.uleb128 0x16
 2556 0108 26       		.uleb128 0x26
 2557 0109 00       		.byte	0
ARM GAS  C:\Users\IDONNO~1\AppData\Local\Temp\ccP9Krzp.s 			page 46


 2558 010a 49       		.uleb128 0x49
 2559 010b 13       		.uleb128 0x13
 2560 010c 00       		.byte	0
 2561 010d 00       		.byte	0
 2562 010e 17       		.uleb128 0x17
 2563 010f 01       		.uleb128 0x1
 2564 0110 01       		.byte	0x1
 2565 0111 49       		.uleb128 0x49
 2566 0112 13       		.uleb128 0x13
 2567 0113 01       		.uleb128 0x1
 2568 0114 13       		.uleb128 0x13
 2569 0115 00       		.byte	0
 2570 0116 00       		.byte	0
 2571 0117 18       		.uleb128 0x18
 2572 0118 21       		.uleb128 0x21
 2573 0119 00       		.byte	0
 2574 011a 49       		.uleb128 0x49
 2575 011b 13       		.uleb128 0x13
 2576 011c 2F       		.uleb128 0x2f
 2577 011d 0B       		.uleb128 0xb
 2578 011e 00       		.byte	0
 2579 011f 00       		.byte	0
 2580 0120 19       		.uleb128 0x19
 2581 0121 0D       		.uleb128 0xd
 2582 0122 00       		.byte	0
 2583 0123 03       		.uleb128 0x3
 2584 0124 08       		.uleb128 0x8
 2585 0125 3A       		.uleb128 0x3a
 2586 0126 0B       		.uleb128 0xb
 2587 0127 3B       		.uleb128 0x3b
 2588 0128 0B       		.uleb128 0xb
 2589 0129 49       		.uleb128 0x49
 2590 012a 13       		.uleb128 0x13
 2591 012b 00       		.byte	0
 2592 012c 00       		.byte	0
 2593 012d 1A       		.uleb128 0x1a
 2594 012e 04       		.uleb128 0x4
 2595 012f 01       		.byte	0x1
 2596 0130 0B       		.uleb128 0xb
 2597 0131 0B       		.uleb128 0xb
 2598 0132 49       		.uleb128 0x49
 2599 0133 13       		.uleb128 0x13
 2600 0134 3A       		.uleb128 0x3a
 2601 0135 0B       		.uleb128 0xb
 2602 0136 3B       		.uleb128 0x3b
 2603 0137 0B       		.uleb128 0xb
 2604 0138 01       		.uleb128 0x1
 2605 0139 13       		.uleb128 0x13
 2606 013a 00       		.byte	0
 2607 013b 00       		.byte	0
 2608 013c 1B       		.uleb128 0x1b
 2609 013d 28       		.uleb128 0x28
 2610 013e 00       		.byte	0
 2611 013f 03       		.uleb128 0x3
 2612 0140 0E       		.uleb128 0xe
 2613 0141 1C       		.uleb128 0x1c
 2614 0142 0B       		.uleb128 0xb
ARM GAS  C:\Users\IDONNO~1\AppData\Local\Temp\ccP9Krzp.s 			page 47


 2615 0143 00       		.byte	0
 2616 0144 00       		.byte	0
 2617 0145 1C       		.uleb128 0x1c
 2618 0146 2E       		.uleb128 0x2e
 2619 0147 01       		.byte	0x1
 2620 0148 03       		.uleb128 0x3
 2621 0149 0E       		.uleb128 0xe
 2622 014a 3A       		.uleb128 0x3a
 2623 014b 0B       		.uleb128 0xb
 2624 014c 3B       		.uleb128 0x3b
 2625 014d 05       		.uleb128 0x5
 2626 014e 27       		.uleb128 0x27
 2627 014f 19       		.uleb128 0x19
 2628 0150 20       		.uleb128 0x20
 2629 0151 0B       		.uleb128 0xb
 2630 0152 01       		.uleb128 0x1
 2631 0153 13       		.uleb128 0x13
 2632 0154 00       		.byte	0
 2633 0155 00       		.byte	0
 2634 0156 1D       		.uleb128 0x1d
 2635 0157 05       		.uleb128 0x5
 2636 0158 00       		.byte	0
 2637 0159 03       		.uleb128 0x3
 2638 015a 0E       		.uleb128 0xe
 2639 015b 3A       		.uleb128 0x3a
 2640 015c 0B       		.uleb128 0xb
 2641 015d 3B       		.uleb128 0x3b
 2642 015e 05       		.uleb128 0x5
 2643 015f 49       		.uleb128 0x49
 2644 0160 13       		.uleb128 0x13
 2645 0161 00       		.byte	0
 2646 0162 00       		.byte	0
 2647 0163 1E       		.uleb128 0x1e
 2648 0164 2E       		.uleb128 0x2e
 2649 0165 00       		.byte	0
 2650 0166 03       		.uleb128 0x3
 2651 0167 0E       		.uleb128 0xe
 2652 0168 3A       		.uleb128 0x3a
 2653 0169 0B       		.uleb128 0xb
 2654 016a 3B       		.uleb128 0x3b
 2655 016b 05       		.uleb128 0x5
 2656 016c 27       		.uleb128 0x27
 2657 016d 19       		.uleb128 0x19
 2658 016e 20       		.uleb128 0x20
 2659 016f 0B       		.uleb128 0xb
 2660 0170 00       		.byte	0
 2661 0171 00       		.byte	0
 2662 0172 1F       		.uleb128 0x1f
 2663 0173 2E       		.uleb128 0x2e
 2664 0174 00       		.byte	0
 2665 0175 03       		.uleb128 0x3
 2666 0176 0E       		.uleb128 0xe
 2667 0177 3A       		.uleb128 0x3a
 2668 0178 0B       		.uleb128 0xb
 2669 0179 3B       		.uleb128 0x3b
 2670 017a 0B       		.uleb128 0xb
 2671 017b 27       		.uleb128 0x27
ARM GAS  C:\Users\IDONNO~1\AppData\Local\Temp\ccP9Krzp.s 			page 48


 2672 017c 19       		.uleb128 0x19
 2673 017d 49       		.uleb128 0x49
 2674 017e 13       		.uleb128 0x13
 2675 017f 20       		.uleb128 0x20
 2676 0180 0B       		.uleb128 0xb
 2677 0181 00       		.byte	0
 2678 0182 00       		.byte	0
 2679 0183 20       		.uleb128 0x20
 2680 0184 2E       		.uleb128 0x2e
 2681 0185 01       		.byte	0x1
 2682 0186 03       		.uleb128 0x3
 2683 0187 0E       		.uleb128 0xe
 2684 0188 3A       		.uleb128 0x3a
 2685 0189 0B       		.uleb128 0xb
 2686 018a 3B       		.uleb128 0x3b
 2687 018b 0B       		.uleb128 0xb
 2688 018c 27       		.uleb128 0x27
 2689 018d 19       		.uleb128 0x19
 2690 018e 20       		.uleb128 0x20
 2691 018f 0B       		.uleb128 0xb
 2692 0190 01       		.uleb128 0x1
 2693 0191 13       		.uleb128 0x13
 2694 0192 00       		.byte	0
 2695 0193 00       		.byte	0
 2696 0194 21       		.uleb128 0x21
 2697 0195 05       		.uleb128 0x5
 2698 0196 00       		.byte	0
 2699 0197 03       		.uleb128 0x3
 2700 0198 0E       		.uleb128 0xe
 2701 0199 3A       		.uleb128 0x3a
 2702 019a 0B       		.uleb128 0xb
 2703 019b 3B       		.uleb128 0x3b
 2704 019c 0B       		.uleb128 0xb
 2705 019d 49       		.uleb128 0x49
 2706 019e 13       		.uleb128 0x13
 2707 019f 00       		.byte	0
 2708 01a0 00       		.byte	0
 2709 01a1 22       		.uleb128 0x22
 2710 01a2 2E       		.uleb128 0x2e
 2711 01a3 01       		.byte	0x1
 2712 01a4 03       		.uleb128 0x3
 2713 01a5 0E       		.uleb128 0xe
 2714 01a6 3A       		.uleb128 0x3a
 2715 01a7 0B       		.uleb128 0xb
 2716 01a8 3B       		.uleb128 0x3b
 2717 01a9 0B       		.uleb128 0xb
 2718 01aa 27       		.uleb128 0x27
 2719 01ab 19       		.uleb128 0x19
 2720 01ac 11       		.uleb128 0x11
 2721 01ad 01       		.uleb128 0x1
 2722 01ae 12       		.uleb128 0x12
 2723 01af 06       		.uleb128 0x6
 2724 01b0 40       		.uleb128 0x40
 2725 01b1 18       		.uleb128 0x18
 2726 01b2 9742     		.uleb128 0x2117
 2727 01b4 19       		.uleb128 0x19
 2728 01b5 01       		.uleb128 0x1
ARM GAS  C:\Users\IDONNO~1\AppData\Local\Temp\ccP9Krzp.s 			page 49


 2729 01b6 13       		.uleb128 0x13
 2730 01b7 00       		.byte	0
 2731 01b8 00       		.byte	0
 2732 01b9 23       		.uleb128 0x23
 2733 01ba 05       		.uleb128 0x5
 2734 01bb 00       		.byte	0
 2735 01bc 03       		.uleb128 0x3
 2736 01bd 0E       		.uleb128 0xe
 2737 01be 3A       		.uleb128 0x3a
 2738 01bf 0B       		.uleb128 0xb
 2739 01c0 3B       		.uleb128 0x3b
 2740 01c1 0B       		.uleb128 0xb
 2741 01c2 49       		.uleb128 0x49
 2742 01c3 13       		.uleb128 0x13
 2743 01c4 02       		.uleb128 0x2
 2744 01c5 18       		.uleb128 0x18
 2745 01c6 00       		.byte	0
 2746 01c7 00       		.byte	0
 2747 01c8 24       		.uleb128 0x24
 2748 01c9 05       		.uleb128 0x5
 2749 01ca 00       		.byte	0
 2750 01cb 03       		.uleb128 0x3
 2751 01cc 08       		.uleb128 0x8
 2752 01cd 3A       		.uleb128 0x3a
 2753 01ce 0B       		.uleb128 0xb
 2754 01cf 3B       		.uleb128 0x3b
 2755 01d0 0B       		.uleb128 0xb
 2756 01d1 49       		.uleb128 0x49
 2757 01d2 13       		.uleb128 0x13
 2758 01d3 02       		.uleb128 0x2
 2759 01d4 18       		.uleb128 0x18
 2760 01d5 00       		.byte	0
 2761 01d6 00       		.byte	0
 2762 01d7 25       		.uleb128 0x25
 2763 01d8 2E       		.uleb128 0x2e
 2764 01d9 01       		.byte	0x1
 2765 01da 31       		.uleb128 0x31
 2766 01db 13       		.uleb128 0x13
 2767 01dc 11       		.uleb128 0x11
 2768 01dd 01       		.uleb128 0x1
 2769 01de 12       		.uleb128 0x12
 2770 01df 06       		.uleb128 0x6
 2771 01e0 40       		.uleb128 0x40
 2772 01e1 18       		.uleb128 0x18
 2773 01e2 9742     		.uleb128 0x2117
 2774 01e4 19       		.uleb128 0x19
 2775 01e5 01       		.uleb128 0x1
 2776 01e6 13       		.uleb128 0x13
 2777 01e7 00       		.byte	0
 2778 01e8 00       		.byte	0
 2779 01e9 26       		.uleb128 0x26
 2780 01ea 05       		.uleb128 0x5
 2781 01eb 00       		.byte	0
 2782 01ec 31       		.uleb128 0x31
 2783 01ed 13       		.uleb128 0x13
 2784 01ee 02       		.uleb128 0x2
 2785 01ef 18       		.uleb128 0x18
ARM GAS  C:\Users\IDONNO~1\AppData\Local\Temp\ccP9Krzp.s 			page 50


 2786 01f0 00       		.byte	0
 2787 01f1 00       		.byte	0
 2788 01f2 27       		.uleb128 0x27
 2789 01f3 2E       		.uleb128 0x2e
 2790 01f4 01       		.byte	0x1
 2791 01f5 03       		.uleb128 0x3
 2792 01f6 0E       		.uleb128 0xe
 2793 01f7 3A       		.uleb128 0x3a
 2794 01f8 0B       		.uleb128 0xb
 2795 01f9 3B       		.uleb128 0x3b
 2796 01fa 0B       		.uleb128 0xb
 2797 01fb 27       		.uleb128 0x27
 2798 01fc 19       		.uleb128 0x19
 2799 01fd 8701     		.uleb128 0x87
 2800 01ff 19       		.uleb128 0x19
 2801 0200 11       		.uleb128 0x11
 2802 0201 01       		.uleb128 0x1
 2803 0202 12       		.uleb128 0x12
 2804 0203 06       		.uleb128 0x6
 2805 0204 40       		.uleb128 0x40
 2806 0205 18       		.uleb128 0x18
 2807 0206 9742     		.uleb128 0x2117
 2808 0208 19       		.uleb128 0x19
 2809 0209 01       		.uleb128 0x1
 2810 020a 13       		.uleb128 0x13
 2811 020b 00       		.byte	0
 2812 020c 00       		.byte	0
 2813 020d 28       		.uleb128 0x28
 2814 020e 05       		.uleb128 0x5
 2815 020f 00       		.byte	0
 2816 0210 03       		.uleb128 0x3
 2817 0211 08       		.uleb128 0x8
 2818 0212 3A       		.uleb128 0x3a
 2819 0213 0B       		.uleb128 0xb
 2820 0214 3B       		.uleb128 0x3b
 2821 0215 0B       		.uleb128 0xb
 2822 0216 49       		.uleb128 0x49
 2823 0217 13       		.uleb128 0x13
 2824 0218 02       		.uleb128 0x2
 2825 0219 17       		.uleb128 0x17
 2826 021a 00       		.byte	0
 2827 021b 00       		.byte	0
 2828 021c 29       		.uleb128 0x29
 2829 021d 1D       		.uleb128 0x1d
 2830 021e 01       		.byte	0x1
 2831 021f 31       		.uleb128 0x31
 2832 0220 13       		.uleb128 0x13
 2833 0221 52       		.uleb128 0x52
 2834 0222 01       		.uleb128 0x1
 2835 0223 55       		.uleb128 0x55
 2836 0224 17       		.uleb128 0x17
 2837 0225 58       		.uleb128 0x58
 2838 0226 0B       		.uleb128 0xb
 2839 0227 59       		.uleb128 0x59
 2840 0228 0B       		.uleb128 0xb
 2841 0229 01       		.uleb128 0x1
 2842 022a 13       		.uleb128 0x13
ARM GAS  C:\Users\IDONNO~1\AppData\Local\Temp\ccP9Krzp.s 			page 51


 2843 022b 00       		.byte	0
 2844 022c 00       		.byte	0
 2845 022d 2A       		.uleb128 0x2a
 2846 022e 05       		.uleb128 0x5
 2847 022f 00       		.byte	0
 2848 0230 31       		.uleb128 0x31
 2849 0231 13       		.uleb128 0x13
 2850 0232 02       		.uleb128 0x2
 2851 0233 17       		.uleb128 0x17
 2852 0234 00       		.byte	0
 2853 0235 00       		.byte	0
 2854 0236 2B       		.uleb128 0x2b
 2855 0237 898201   		.uleb128 0x4109
 2856 023a 01       		.byte	0x1
 2857 023b 11       		.uleb128 0x11
 2858 023c 01       		.uleb128 0x1
 2859 023d 31       		.uleb128 0x31
 2860 023e 13       		.uleb128 0x13
 2861 023f 00       		.byte	0
 2862 0240 00       		.byte	0
 2863 0241 2C       		.uleb128 0x2c
 2864 0242 8A8201   		.uleb128 0x410a
 2865 0245 00       		.byte	0
 2866 0246 02       		.uleb128 0x2
 2867 0247 18       		.uleb128 0x18
 2868 0248 9142     		.uleb128 0x2111
 2869 024a 18       		.uleb128 0x18
 2870 024b 00       		.byte	0
 2871 024c 00       		.byte	0
 2872 024d 2D       		.uleb128 0x2d
 2873 024e 05       		.uleb128 0x5
 2874 024f 00       		.byte	0
 2875 0250 03       		.uleb128 0x3
 2876 0251 0E       		.uleb128 0xe
 2877 0252 3A       		.uleb128 0x3a
 2878 0253 0B       		.uleb128 0xb
 2879 0254 3B       		.uleb128 0x3b
 2880 0255 0B       		.uleb128 0xb
 2881 0256 49       		.uleb128 0x49
 2882 0257 13       		.uleb128 0x13
 2883 0258 02       		.uleb128 0x2
 2884 0259 17       		.uleb128 0x17
 2885 025a 00       		.byte	0
 2886 025b 00       		.byte	0
 2887 025c 2E       		.uleb128 0x2e
 2888 025d 1D       		.uleb128 0x1d
 2889 025e 01       		.byte	0x1
 2890 025f 31       		.uleb128 0x31
 2891 0260 13       		.uleb128 0x13
 2892 0261 11       		.uleb128 0x11
 2893 0262 01       		.uleb128 0x1
 2894 0263 12       		.uleb128 0x12
 2895 0264 06       		.uleb128 0x6
 2896 0265 58       		.uleb128 0x58
 2897 0266 0B       		.uleb128 0xb
 2898 0267 59       		.uleb128 0x59
 2899 0268 0B       		.uleb128 0xb
ARM GAS  C:\Users\IDONNO~1\AppData\Local\Temp\ccP9Krzp.s 			page 52


 2900 0269 01       		.uleb128 0x1
 2901 026a 13       		.uleb128 0x13
 2902 026b 00       		.byte	0
 2903 026c 00       		.byte	0
 2904 026d 2F       		.uleb128 0x2f
 2905 026e 1D       		.uleb128 0x1d
 2906 026f 01       		.byte	0x1
 2907 0270 31       		.uleb128 0x31
 2908 0271 13       		.uleb128 0x13
 2909 0272 11       		.uleb128 0x11
 2910 0273 01       		.uleb128 0x1
 2911 0274 12       		.uleb128 0x12
 2912 0275 06       		.uleb128 0x6
 2913 0276 58       		.uleb128 0x58
 2914 0277 0B       		.uleb128 0xb
 2915 0278 59       		.uleb128 0x59
 2916 0279 05       		.uleb128 0x5
 2917 027a 00       		.byte	0
 2918 027b 00       		.byte	0
 2919 027c 30       		.uleb128 0x30
 2920 027d 2E       		.uleb128 0x2e
 2921 027e 01       		.byte	0x1
 2922 027f 3F       		.uleb128 0x3f
 2923 0280 19       		.uleb128 0x19
 2924 0281 03       		.uleb128 0x3
 2925 0282 0E       		.uleb128 0xe
 2926 0283 3A       		.uleb128 0x3a
 2927 0284 0B       		.uleb128 0xb
 2928 0285 3B       		.uleb128 0x3b
 2929 0286 0B       		.uleb128 0xb
 2930 0287 27       		.uleb128 0x27
 2931 0288 19       		.uleb128 0x19
 2932 0289 11       		.uleb128 0x11
 2933 028a 01       		.uleb128 0x1
 2934 028b 12       		.uleb128 0x12
 2935 028c 06       		.uleb128 0x6
 2936 028d 40       		.uleb128 0x40
 2937 028e 18       		.uleb128 0x18
 2938 028f 9742     		.uleb128 0x2117
 2939 0291 19       		.uleb128 0x19
 2940 0292 01       		.uleb128 0x1
 2941 0293 13       		.uleb128 0x13
 2942 0294 00       		.byte	0
 2943 0295 00       		.byte	0
 2944 0296 31       		.uleb128 0x31
 2945 0297 898201   		.uleb128 0x4109
 2946 029a 01       		.byte	0x1
 2947 029b 11       		.uleb128 0x11
 2948 029c 01       		.uleb128 0x1
 2949 029d 31       		.uleb128 0x31
 2950 029e 13       		.uleb128 0x13
 2951 029f 01       		.uleb128 0x1
 2952 02a0 13       		.uleb128 0x13
 2953 02a1 00       		.byte	0
 2954 02a2 00       		.byte	0
 2955 02a3 32       		.uleb128 0x32
 2956 02a4 898201   		.uleb128 0x4109
ARM GAS  C:\Users\IDONNO~1\AppData\Local\Temp\ccP9Krzp.s 			page 53


 2957 02a7 00       		.byte	0
 2958 02a8 11       		.uleb128 0x11
 2959 02a9 01       		.uleb128 0x1
 2960 02aa 9542     		.uleb128 0x2115
 2961 02ac 19       		.uleb128 0x19
 2962 02ad 31       		.uleb128 0x31
 2963 02ae 13       		.uleb128 0x13
 2964 02af 00       		.byte	0
 2965 02b0 00       		.byte	0
 2966 02b1 33       		.uleb128 0x33
 2967 02b2 21       		.uleb128 0x21
 2968 02b3 00       		.byte	0
 2969 02b4 49       		.uleb128 0x49
 2970 02b5 13       		.uleb128 0x13
 2971 02b6 2F       		.uleb128 0x2f
 2972 02b7 05       		.uleb128 0x5
 2973 02b8 00       		.byte	0
 2974 02b9 00       		.byte	0
 2975 02ba 34       		.uleb128 0x34
 2976 02bb 34       		.uleb128 0x34
 2977 02bc 00       		.byte	0
 2978 02bd 03       		.uleb128 0x3
 2979 02be 0E       		.uleb128 0xe
 2980 02bf 3A       		.uleb128 0x3a
 2981 02c0 0B       		.uleb128 0xb
 2982 02c1 3B       		.uleb128 0x3b
 2983 02c2 0B       		.uleb128 0xb
 2984 02c3 49       		.uleb128 0x49
 2985 02c4 13       		.uleb128 0x13
 2986 02c5 02       		.uleb128 0x2
 2987 02c6 18       		.uleb128 0x18
 2988 02c7 00       		.byte	0
 2989 02c8 00       		.byte	0
 2990 02c9 35       		.uleb128 0x35
 2991 02ca 34       		.uleb128 0x34
 2992 02cb 00       		.byte	0
 2993 02cc 03       		.uleb128 0x3
 2994 02cd 0E       		.uleb128 0xe
 2995 02ce 3A       		.uleb128 0x3a
 2996 02cf 0B       		.uleb128 0xb
 2997 02d0 3B       		.uleb128 0x3b
 2998 02d1 0B       		.uleb128 0xb
 2999 02d2 49       		.uleb128 0x49
 3000 02d3 13       		.uleb128 0x13
 3001 02d4 00       		.byte	0
 3002 02d5 00       		.byte	0
 3003 02d6 36       		.uleb128 0x36
 3004 02d7 34       		.uleb128 0x34
 3005 02d8 00       		.byte	0
 3006 02d9 03       		.uleb128 0x3
 3007 02da 0E       		.uleb128 0xe
 3008 02db 3A       		.uleb128 0x3a
 3009 02dc 0B       		.uleb128 0xb
 3010 02dd 3B       		.uleb128 0x3b
 3011 02de 0B       		.uleb128 0xb
 3012 02df 49       		.uleb128 0x49
 3013 02e0 13       		.uleb128 0x13
ARM GAS  C:\Users\IDONNO~1\AppData\Local\Temp\ccP9Krzp.s 			page 54


 3014 02e1 1C       		.uleb128 0x1c
 3015 02e2 0B       		.uleb128 0xb
 3016 02e3 00       		.byte	0
 3017 02e4 00       		.byte	0
 3018 02e5 37       		.uleb128 0x37
 3019 02e6 34       		.uleb128 0x34
 3020 02e7 00       		.byte	0
 3021 02e8 03       		.uleb128 0x3
 3022 02e9 0E       		.uleb128 0xe
 3023 02ea 3A       		.uleb128 0x3a
 3024 02eb 0B       		.uleb128 0xb
 3025 02ec 3B       		.uleb128 0x3b
 3026 02ed 05       		.uleb128 0x5
 3027 02ee 49       		.uleb128 0x49
 3028 02ef 13       		.uleb128 0x13
 3029 02f0 3F       		.uleb128 0x3f
 3030 02f1 19       		.uleb128 0x19
 3031 02f2 3C       		.uleb128 0x3c
 3032 02f3 19       		.uleb128 0x19
 3033 02f4 00       		.byte	0
 3034 02f5 00       		.byte	0
 3035 02f6 38       		.uleb128 0x38
 3036 02f7 34       		.uleb128 0x34
 3037 02f8 00       		.byte	0
 3038 02f9 03       		.uleb128 0x3
 3039 02fa 08       		.uleb128 0x8
 3040 02fb 3A       		.uleb128 0x3a
 3041 02fc 0B       		.uleb128 0xb
 3042 02fd 3B       		.uleb128 0x3b
 3043 02fe 05       		.uleb128 0x5
 3044 02ff 49       		.uleb128 0x49
 3045 0300 13       		.uleb128 0x13
 3046 0301 3F       		.uleb128 0x3f
 3047 0302 19       		.uleb128 0x19
 3048 0303 3C       		.uleb128 0x3c
 3049 0304 19       		.uleb128 0x19
 3050 0305 00       		.byte	0
 3051 0306 00       		.byte	0
 3052 0307 39       		.uleb128 0x39
 3053 0308 2E       		.uleb128 0x2e
 3054 0309 00       		.byte	0
 3055 030a 3F       		.uleb128 0x3f
 3056 030b 19       		.uleb128 0x19
 3057 030c 3C       		.uleb128 0x3c
 3058 030d 19       		.uleb128 0x19
 3059 030e 6E       		.uleb128 0x6e
 3060 030f 0E       		.uleb128 0xe
 3061 0310 03       		.uleb128 0x3
 3062 0311 0E       		.uleb128 0xe
 3063 0312 3A       		.uleb128 0x3a
 3064 0313 0B       		.uleb128 0xb
 3065 0314 3B       		.uleb128 0x3b
 3066 0315 0B       		.uleb128 0xb
 3067 0316 00       		.byte	0
 3068 0317 00       		.byte	0
 3069 0318 3A       		.uleb128 0x3a
 3070 0319 2E       		.uleb128 0x2e
ARM GAS  C:\Users\IDONNO~1\AppData\Local\Temp\ccP9Krzp.s 			page 55


 3071 031a 00       		.byte	0
 3072 031b 3F       		.uleb128 0x3f
 3073 031c 19       		.uleb128 0x19
 3074 031d 3C       		.uleb128 0x3c
 3075 031e 19       		.uleb128 0x19
 3076 031f 6E       		.uleb128 0x6e
 3077 0320 0E       		.uleb128 0xe
 3078 0321 03       		.uleb128 0x3
 3079 0322 0E       		.uleb128 0xe
 3080 0323 3A       		.uleb128 0x3a
 3081 0324 0B       		.uleb128 0xb
 3082 0325 3B       		.uleb128 0x3b
 3083 0326 05       		.uleb128 0x5
 3084 0327 00       		.byte	0
 3085 0328 00       		.byte	0
 3086 0329 00       		.byte	0
 3087              		.section	.debug_loc,"",%progbits
 3088              	.Ldebug_loc0:
 3089              	.LLST0:
 3090 0000 00000000 		.4byte	.LVL2
 3091 0004 0E000000 		.4byte	.LVL4
 3092 0008 0100     		.2byte	0x1
 3093 000a 50       		.byte	0x50
 3094 000b 0E000000 		.4byte	.LVL4
 3095 000f 24000000 		.4byte	.LFE266
 3096 0013 0400     		.2byte	0x4
 3097 0015 F3       		.byte	0xf3
 3098 0016 01       		.uleb128 0x1
 3099 0017 50       		.byte	0x50
 3100 0018 9F       		.byte	0x9f
 3101 0019 00000000 		.4byte	0
 3102 001d 00000000 		.4byte	0
 3103              	.LLST1:
 3104 0021 00000000 		.4byte	.LVL2
 3105 0025 0C000000 		.4byte	.LVL3
 3106 0029 0600     		.2byte	0x6
 3107 002b 03       		.byte	0x3
 3108 002c 00000000 		.4byte	.LC0
 3109 0030 9F       		.byte	0x9f
 3110 0031 00000000 		.4byte	0
 3111 0035 00000000 		.4byte	0
 3112              	.LLST2:
 3113 0039 00000000 		.4byte	.LVL6
 3114 003d 1E000000 		.4byte	.LVL9
 3115 0041 0100     		.2byte	0x1
 3116 0043 50       		.byte	0x50
 3117 0044 1E000000 		.4byte	.LVL9
 3118 0048 34000000 		.4byte	.LFE259
 3119 004c 0400     		.2byte	0x4
 3120 004e F3       		.byte	0xf3
 3121 004f 01       		.uleb128 0x1
 3122 0050 50       		.byte	0x50
 3123 0051 9F       		.byte	0x9f
 3124 0052 00000000 		.4byte	0
 3125 0056 00000000 		.4byte	0
 3126              	.LLST3:
 3127 005a 00000000 		.4byte	.LVL6
ARM GAS  C:\Users\IDONNO~1\AppData\Local\Temp\ccP9Krzp.s 			page 56


 3128 005e 1C000000 		.4byte	.LVL8
 3129 0062 0100     		.2byte	0x1
 3130 0064 51       		.byte	0x51
 3131 0065 1C000000 		.4byte	.LVL8
 3132 0069 34000000 		.4byte	.LFE259
 3133 006d 0400     		.2byte	0x4
 3134 006f F3       		.byte	0xf3
 3135 0070 01       		.uleb128 0x1
 3136 0071 51       		.byte	0x51
 3137 0072 9F       		.byte	0x9f
 3138 0073 00000000 		.4byte	0
 3139 0077 00000000 		.4byte	0
 3140              	.LLST4:
 3141 007b 00000000 		.4byte	.LVL6
 3142 007f 18000000 		.4byte	.LVL7
 3143 0083 0300     		.2byte	0x3
 3144 0085 08       		.byte	0x8
 3145 0086 20       		.byte	0x20
 3146 0087 9F       		.byte	0x9f
 3147 0088 00000000 		.4byte	0
 3148 008c 00000000 		.4byte	0
 3149              	.LLST5:
 3150 0090 22000000 		.4byte	.LVL10
 3151 0094 28000000 		.4byte	.LVL11
 3152 0098 0200     		.2byte	0x2
 3153 009a 30       		.byte	0x30
 3154 009b 9F       		.byte	0x9f
 3155 009c 00000000 		.4byte	0
 3156 00a0 00000000 		.4byte	0
 3157              	.LLST6:
 3158 00a4 00000000 		.4byte	.LVL16
 3159 00a8 0E000000 		.4byte	.LVL17
 3160 00ac 0100     		.2byte	0x1
 3161 00ae 50       		.byte	0x50
 3162 00af 0E000000 		.4byte	.LVL17
 3163 00b3 11000000 		.4byte	.LVL18-1
 3164 00b7 0500     		.2byte	0x5
 3165 00b9 03       		.byte	0x3
 3166 00ba 14000000 		.4byte	uart_cfg+20
 3167 00be 11000000 		.4byte	.LVL18-1
 3168 00c2 20000000 		.4byte	.LFE265
 3169 00c6 0400     		.2byte	0x4
 3170 00c8 F3       		.byte	0xf3
 3171 00c9 01       		.uleb128 0x1
 3172 00ca 50       		.byte	0x50
 3173 00cb 9F       		.byte	0x9f
 3174 00cc 00000000 		.4byte	0
 3175 00d0 00000000 		.4byte	0
 3176              		.section	.debug_aranges,"",%progbits
 3177 0000 44000000 		.4byte	0x44
 3178 0004 0200     		.2byte	0x2
 3179 0006 00000000 		.4byte	.Ldebug_info0
 3180 000a 04       		.byte	0x4
 3181 000b 00       		.byte	0
 3182 000c 0000     		.2byte	0
 3183 000e 0000     		.2byte	0
 3184 0010 00000000 		.4byte	.LFB258
ARM GAS  C:\Users\IDONNO~1\AppData\Local\Temp\ccP9Krzp.s 			page 57


 3185 0014 02000000 		.4byte	.LFE258-.LFB258
 3186 0018 00000000 		.4byte	.LFB260
 3187 001c 02000000 		.4byte	.LFE260-.LFB260
 3188 0020 00000000 		.4byte	.LFB266
 3189 0024 24000000 		.4byte	.LFE266-.LFB266
 3190 0028 00000000 		.4byte	.LFB259
 3191 002c 34000000 		.4byte	.LFE259-.LFB259
 3192 0030 00000000 		.4byte	.LFB264
 3193 0034 5C000000 		.4byte	.LFE264-.LFB264
 3194 0038 00000000 		.4byte	.LFB265
 3195 003c 20000000 		.4byte	.LFE265-.LFB265
 3196 0040 00000000 		.4byte	0
 3197 0044 00000000 		.4byte	0
 3198              		.section	.debug_ranges,"",%progbits
 3199              	.Ldebug_ranges0:
 3200 0000 02000000 		.4byte	.LBB40
 3201 0004 04000000 		.4byte	.LBE40
 3202 0008 06000000 		.4byte	.LBB43
 3203 000c 0C000000 		.4byte	.LBE43
 3204 0010 00000000 		.4byte	0
 3205 0014 00000000 		.4byte	0
 3206 0018 00000000 		.4byte	.LFB258
 3207 001c 02000000 		.4byte	.LFE258
 3208 0020 00000000 		.4byte	.LFB260
 3209 0024 02000000 		.4byte	.LFE260
 3210 0028 00000000 		.4byte	.LFB266
 3211 002c 24000000 		.4byte	.LFE266
 3212 0030 00000000 		.4byte	.LFB259
 3213 0034 34000000 		.4byte	.LFE259
 3214 0038 00000000 		.4byte	.LFB264
 3215 003c 5C000000 		.4byte	.LFE264
 3216 0040 00000000 		.4byte	.LFB265
 3217 0044 20000000 		.4byte	.LFE265
 3218 0048 00000000 		.4byte	0
 3219 004c 00000000 		.4byte	0
 3220              		.section	.debug_line,"",%progbits
 3221              	.Ldebug_line0:
 3222 0000 7F040000 		.section	.debug_str,"MS",%progbits,1
 3222      0200D403 
 3222      00000201 
 3222      FB0E0D00 
 3222      01010101 
 3223              	.LASF189:
 3224 0000 55415254 		.ascii	"UARTD6\000"
 3224      443600
 3225              	.LASF152:
 3226 0007 646D6172 		.ascii	"dmarx\000"
 3226      7800
 3227              	.LASF59:
 3228 000d 72656164 		.ascii	"ready_list_t\000"
 3228      795F6C69 
 3228      73745F74 
 3228      00
 3229              	.LASF88:
 3230 001a 4D304152 		.ascii	"M0AR\000"
 3230      00
 3231              	.LASF22:
ARM GAS  C:\Users\IDONNO~1\AppData\Local\Temp\ccP9Krzp.s 			page 58


 3232 001f 73697A65 		.ascii	"size_t\000"
 3232      5F7400
 3233              	.LASF179:
 3234 0026 6170705F 		.ascii	"app_uartcomm_start\000"
 3234      75617274 
 3234      636F6D6D 
 3234      5F737461 
 3234      727400
 3235              	.LASF99:
 3236 0039 7264796D 		.ascii	"rdymsg\000"
 3236      736700
 3237              	.LASF200:
 3238 0040 73657269 		.ascii	"serial_rx_buffer\000"
 3238      616C5F72 
 3238      785F6275 
 3238      66666572 
 3238      00
 3239              	.LASF18:
 3240 0051 75696E74 		.ascii	"uint64_t\000"
 3240      36345F74 
 3240      00
 3241              	.LASF123:
 3242 005a 4F545950 		.ascii	"OTYPER\000"
 3242      455200
 3243              	.LASF3:
 3244 0061 5F5F7569 		.ascii	"__uint8_t\000"
 3244      6E74385F 
 3244      7400
 3245              	.LASF96:
 3246 006b 706F7274 		.ascii	"port_intctx\000"
 3246      5F696E74 
 3246      63747800 
 3247              	.LASF84:
 3248 0077 76746C69 		.ascii	"vtlist\000"
 3248      737400
 3249              	.LASF174:
 3250 007e 63685379 		.ascii	"chSysLockFromISR\000"
 3250      734C6F63 
 3250      6B46726F 
 3250      6D495352 
 3250      00
 3251              	.LASF154:
 3252 008f 72786275 		.ascii	"rxbuf\000"
 3252      6600
 3253              	.LASF165:
 3254 0095 706F7274 		.ascii	"port_lock\000"
 3254      5F6C6F63 
 3254      6B00
 3255              	.LASF12:
 3256 009f 6C6F6E67 		.ascii	"long long unsigned int\000"
 3256      206C6F6E 
 3256      6720756E 
 3256      7369676E 
 3256      65642069 
 3257              	.LASF119:
 3258 00b6 76656374 		.ascii	"vector\000"
 3258      6F7200
ARM GAS  C:\Users\IDONNO~1\AppData\Local\Temp\ccP9Krzp.s 			page 59


 3259              	.LASF85:
 3260 00bd 6D61696E 		.ascii	"mainthread\000"
 3260      74687265 
 3260      616400
 3261              	.LASF75:
 3262 00c8 76697274 		.ascii	"virtual_timers_list_t\000"
 3262      75616C5F 
 3262      74696D65 
 3262      72735F6C 
 3262      6973745F 
 3263              	.LASF164:
 3264 00de 55415254 		.ascii	"UARTConfig\000"
 3264      436F6E66 
 3264      696700
 3265              	.LASF188:
 3266 00e9 49544D5F 		.ascii	"ITM_RxBuffer\000"
 3266      52784275 
 3266      66666572 
 3266      00
 3267              	.LASF58:
 3268 00f6 63685F74 		.ascii	"ch_threads_queue\000"
 3268      68726561 
 3268      64735F71 
 3268      75657565 
 3268      00
 3269              	.LASF110:
 3270 0107 6D5F7175 		.ascii	"m_queue\000"
 3270      65756500 
 3271              	.LASF186:
 3272 010f 69735F72 		.ascii	"is_running\000"
 3272      756E6E69 
 3272      6E6700
 3273              	.LASF36:
 3274 011a 705F7072 		.ascii	"p_prio\000"
 3274      696F00
 3275              	.LASF147:
 3276 0121 74787374 		.ascii	"txstate\000"
 3276      61746500 
 3277              	.LASF10:
 3278 0129 6C6F6E67 		.ascii	"long long int\000"
 3278      206C6F6E 
 3278      6720696E 
 3278      7400
 3279              	.LASF0:
 3280 0137 7369676E 		.ascii	"signed char\000"
 3280      65642063 
 3280      68617200 
 3281              	.LASF155:
 3282 0143 75617274 		.ascii	"uartcb_t\000"
 3282      63625F74 
 3282      00
 3283              	.LASF126:
 3284 014c 42535252 		.ascii	"BSRR\000"
 3284      00
 3285              	.LASF91:
 3286 0151 47545052 		.ascii	"GTPR\000"
 3286      00
ARM GAS  C:\Users\IDONNO~1\AppData\Local\Temp\ccP9Krzp.s 			page 60


 3287              	.LASF52:
 3288 0156 705F6D70 		.ascii	"p_mpool\000"
 3288      6F6F6C00 
 3289              	.LASF148:
 3290 015e 72787374 		.ascii	"rxstate\000"
 3290      61746500 
 3291              	.LASF181:
 3292 0166 62617564 		.ascii	"baudrate\000"
 3292      72617465 
 3292      00
 3293              	.LASF166:
 3294 016f 706F7274 		.ascii	"port_unlock\000"
 3294      5F756E6C 
 3294      6F636B00 
 3295              	.LASF27:
 3296 017b 74736C69 		.ascii	"tslices_t\000"
 3296      6365735F 
 3296      7400
 3297              	.LASF125:
 3298 0185 50555044 		.ascii	"PUPDR\000"
 3298      5200
 3299              	.LASF146:
 3300 018b 73746174 		.ascii	"state\000"
 3300      6500
 3301              	.LASF82:
 3302 0191 63685F73 		.ascii	"ch_system\000"
 3302      79737465 
 3302      6D00
 3303              	.LASF7:
 3304 019b 6C6F6E67 		.ascii	"long int\000"
 3304      20696E74 
 3304      00
 3305              	.LASF25:
 3306 01a4 74737461 		.ascii	"tstate_t\000"
 3306      74655F74 
 3306      00
 3307              	.LASF180:
 3308 01ad 6170705F 		.ascii	"app_uartcomm_configure\000"
 3308      75617274 
 3308      636F6D6D 
 3308      5F636F6E 
 3308      66696775 
 3309              	.LASF190:
 3310 01c4 63684576 		.ascii	"chEvtWaitAny\000"
 3310      74576169 
 3310      74416E79 
 3310      00
 3311              	.LASF15:
 3312 01d1 75696E74 		.ascii	"uint16_t\000"
 3312      31365F74 
 3312      00
 3313              	.LASF38:
 3314 01da 705F6E65 		.ascii	"p_newer\000"
 3314      77657200 
 3315              	.LASF183:
 3316 01e2 70726F63 		.ascii	"process_tp\000"
 3316      6573735F 
ARM GAS  C:\Users\IDONNO~1\AppData\Local\Temp\ccP9Krzp.s 			page 61


 3316      747000
 3317              	.LASF143:
 3318 01ed 75617274 		.ascii	"uartrxstate_t\000"
 3318      72787374 
 3318      6174655F 
 3318      7400
 3319              	.LASF153:
 3320 01fb 646D6174 		.ascii	"dmatx\000"
 3320      7800
 3321              	.LASF145:
 3322 0201 55415254 		.ascii	"UARTDriver\000"
 3322      44726976 
 3322      657200
 3323              	.LASF124:
 3324 020c 4F535045 		.ascii	"OSPEEDR\000"
 3324      45445200 
 3325              	.LASF64:
 3326 0214 725F6E65 		.ascii	"r_newer\000"
 3326      77657200 
 3327              	.LASF176:
 3328 021c 7278656E 		.ascii	"rxend\000"
 3328      6400
 3329              	.LASF71:
 3330 0222 76745F70 		.ascii	"vt_prev\000"
 3330      72657600 
 3331              	.LASF130:
 3332 022a 73746D33 		.ascii	"stm32_gpio_t\000"
 3332      325F6770 
 3332      696F5F74 
 3332      00
 3333              	.LASF187:
 3334 0237 75617274 		.ascii	"uart_cfg\000"
 3334      5F636667 
 3334      00
 3335              	.LASF114:
 3336 0240 6D757465 		.ascii	"mutex_t\000"
 3336      785F7400 
 3337              	.LASF171:
 3338 0248 76616C75 		.ascii	"value\000"
 3338      6500
 3339              	.LASF86:
 3340 024e 69646C65 		.ascii	"idle_thread_wa\000"
 3340      5F746872 
 3340      6561645F 
 3340      776100
 3341              	.LASF137:
 3342 025d 55415254 		.ascii	"UART_TX_ACTIVE\000"
 3342      5F54585F 
 3342      41435449 
 3342      564500
 3343              	.LASF150:
 3344 026c 75736172 		.ascii	"usart\000"
 3344      7400
 3345              	.LASF13:
 3346 0272 756E7369 		.ascii	"unsigned int\000"
 3346      676E6564 
 3346      20696E74 
ARM GAS  C:\Users\IDONNO~1\AppData\Local\Temp\ccP9Krzp.s 			page 62


 3346      00
 3347              	.LASF70:
 3348 027f 76745F6E 		.ascii	"vt_next\000"
 3348      65787400 
 3349              	.LASF45:
 3350 0287 705F7469 		.ascii	"p_time\000"
 3350      6D6500
 3351              	.LASF103:
 3352 028e 77747365 		.ascii	"wtsemp\000"
 3352      6D7000
 3353              	.LASF72:
 3354 0295 76745F64 		.ascii	"vt_delta\000"
 3354      656C7461 
 3354      00
 3355              	.LASF78:
 3356 029e 73797374 		.ascii	"system_debug_t\000"
 3356      656D5F64 
 3356      65627567 
 3356      5F7400
 3357              	.LASF157:
 3358 02ad 75617274 		.ascii	"uartecb_t\000"
 3358      6563625F 
 3358      7400
 3359              	.LASF127:
 3360 02b7 4C434B52 		.ascii	"LCKR\000"
 3360      00
 3361              	.LASF117:
 3362 02bc 69736869 		.ascii	"ishift\000"
 3362      667400
 3363              	.LASF108:
 3364 02c3 735F636E 		.ascii	"s_cnt\000"
 3364      7400
 3365              	.LASF172:
 3366 02c9 6E616D65 		.ascii	"name\000"
 3366      00
 3367              	.LASF95:
 3368 02ce 636F6E74 		.ascii	"context\000"
 3368      65787400 
 3369              	.LASF5:
 3370 02d6 73686F72 		.ascii	"short unsigned int\000"
 3370      7420756E 
 3370      7369676E 
 3370      65642069 
 3370      6E7400
 3371              	.LASF132:
 3372 02e9 55415254 		.ascii	"UART_UNINIT\000"
 3372      5F554E49 
 3372      4E495400 
 3373              	.LASF177:
 3374 02f5 72786572 		.ascii	"rxerr\000"
 3374      7200
 3375              	.LASF55:
 3376 02fb 63685F74 		.ascii	"ch_thread\000"
 3376      68726561 
 3376      6400
 3377              	.LASF29:
 3378 0305 6D73675F 		.ascii	"msg_t\000"
ARM GAS  C:\Users\IDONNO~1\AppData\Local\Temp\ccP9Krzp.s 			page 63


 3378      7400
 3379              	.LASF197:
 3380 030b 443A5C67 		.ascii	"D:\\git\\oroca_bldc_dev\\oroca_bldc_fw\\oroca_bldc_"
 3380      69745C6F 
 3380      726F6361 
 3380      5F626C64 
 3380      635F6465 
 3381 033a 63686962 		.ascii	"chibios\000"
 3381      696F7300 
 3382              	.LASF118:
 3383 0342 73656C66 		.ascii	"selfindex\000"
 3383      696E6465 
 3383      7800
 3384              	.LASF81:
 3385 034c 63685F73 		.ascii	"ch_system_t\000"
 3385      79737465 
 3385      6D5F7400 
 3386              	.LASF100:
 3387 0358 65786974 		.ascii	"exitcode\000"
 3387      636F6465 
 3387      00
 3388              	.LASF24:
 3389 0361 746D6F64 		.ascii	"tmode_t\000"
 3389      655F7400 
 3390              	.LASF60:
 3391 0369 63685F72 		.ascii	"ch_ready_list\000"
 3391      65616479 
 3391      5F6C6973 
 3391      7400
 3392              	.LASF30:
 3393 0377 6576656E 		.ascii	"eventmask_t\000"
 3393      746D6173 
 3393      6B5F7400 
 3394              	.LASF6:
 3395 0383 5F5F696E 		.ascii	"__int32_t\000"
 3395      7433325F 
 3395      7400
 3396              	.LASF182:
 3397 038d 7061636B 		.ascii	"packet_process_thread_wa\000"
 3397      65745F70 
 3397      726F6365 
 3397      73735F74 
 3397      68726561 
 3398              	.LASF94:
 3399 03a6 73746B61 		.ascii	"stkalign_t\000"
 3399      6C69676E 
 3399      5F7400
 3400              	.LASF194:
 3401 03b1 63685468 		.ascii	"chThdCreateStatic\000"
 3401      64437265 
 3401      61746553 
 3401      74617469 
 3401      6300
 3402              	.LASF134:
 3403 03c3 55415254 		.ascii	"UART_READY\000"
 3403      5F524541 
 3403      445900
ARM GAS  C:\Users\IDONNO~1\AppData\Local\Temp\ccP9Krzp.s 			page 64


 3404              	.LASF184:
 3405 03ce 73657269 		.ascii	"serial_rx_read_pos\000"
 3405      616C5F72 
 3405      785F7265 
 3405      61645F70 
 3405      6F7300
 3406              	.LASF175:
 3407 03e1 75617274 		.ascii	"uartp\000"
 3407      7000
 3408              	.LASF142:
 3409 03e7 55415254 		.ascii	"UART_RX_COMPLETE\000"
 3409      5F52585F 
 3409      434F4D50 
 3409      4C455445 
 3409      00
 3410              	.LASF141:
 3411 03f8 55415254 		.ascii	"UART_RX_ACTIVE\000"
 3411      5F52585F 
 3411      41435449 
 3411      564500
 3412              	.LASF53:
 3413 0407 74687265 		.ascii	"thread_reference_t\000"
 3413      61645F72 
 3413      65666572 
 3413      656E6365 
 3413      5F7400
 3414              	.LASF76:
 3415 041a 63685F76 		.ascii	"ch_virtual_timers_list\000"
 3415      69727475 
 3415      616C5F74 
 3415      696D6572 
 3415      735F6C69 
 3416              	.LASF121:
 3417 0431 636C6561 		.ascii	"clear\000"
 3417      7200
 3418              	.LASF102:
 3419 0437 77747472 		.ascii	"wttrp\000"
 3419      7000
 3420              	.LASF31:
 3421 043d 636E745F 		.ascii	"cnt_t\000"
 3421      7400
 3422              	.LASF162:
 3423 0443 72786572 		.ascii	"rxerr_cb\000"
 3423      725F6362 
 3423      00
 3424              	.LASF98:
 3425 044c 746D5F63 		.ascii	"tm_calibration_t\000"
 3425      616C6962 
 3425      72617469 
 3425      6F6E5F74 
 3425      00
 3426              	.LASF131:
 3427 045d 696F706F 		.ascii	"ioportmask_t\000"
 3427      72746D61 
 3427      736B5F74 
 3427      00
 3428              	.LASF39:
ARM GAS  C:\Users\IDONNO~1\AppData\Local\Temp\ccP9Krzp.s 			page 65


 3429 046a 705F6F6C 		.ascii	"p_older\000"
 3429      64657200 
 3430              	.LASF63:
 3431 0472 725F6374 		.ascii	"r_ctx\000"
 3431      7800
 3432              	.LASF144:
 3433 0478 75617274 		.ascii	"uartflags_t\000"
 3433      666C6167 
 3433      735F7400 
 3434              	.LASF192:
 3435 0484 75617274 		.ascii	"uartStart\000"
 3435      53746172 
 3435      7400
 3436              	.LASF160:
 3437 048e 7278656E 		.ascii	"rxend_cb\000"
 3437      645F6362 
 3437      00
 3438              	.LASF73:
 3439 0497 76745F66 		.ascii	"vt_func\000"
 3439      756E6300 
 3440              	.LASF139:
 3441 049f 75617274 		.ascii	"uarttxstate_t\000"
 3441      74787374 
 3441      6174655F 
 3441      7400
 3442              	.LASF66:
 3443 04ad 725F6375 		.ascii	"r_current\000"
 3443      7272656E 
 3443      7400
 3444              	.LASF65:
 3445 04b7 725F6F6C 		.ascii	"r_older\000"
 3445      64657200 
 3446              	.LASF122:
 3447 04bf 4D4F4445 		.ascii	"MODER\000"
 3447      5200
 3448              	.LASF133:
 3449 04c5 55415254 		.ascii	"UART_STOP\000"
 3449      5F53544F 
 3449      5000
 3450              	.LASF178:
 3451 04cf 72786368 		.ascii	"rxchar\000"
 3451      617200
 3452              	.LASF11:
 3453 04d6 5F5F7569 		.ascii	"__uint64_t\000"
 3453      6E743634 
 3453      5F7400
 3454              	.LASF129:
 3455 04e1 41465248 		.ascii	"AFRH\000"
 3455      00
 3456              	.LASF21:
 3457 04e6 666C6F61 		.ascii	"float\000"
 3457      7400
 3458              	.LASF128:
 3459 04ec 4146524C 		.ascii	"AFRL\000"
 3459      00
 3460              	.LASF26:
 3461 04f1 74726566 		.ascii	"trefs_t\000"
ARM GAS  C:\Users\IDONNO~1\AppData\Local\Temp\ccP9Krzp.s 			page 66


 3461      735F7400 
 3462              	.LASF68:
 3463 04f9 76697274 		.ascii	"virtual_timer_t\000"
 3463      75616C5F 
 3463      74696D65 
 3463      725F7400 
 3464              	.LASF35:
 3465 0509 705F7072 		.ascii	"p_prev\000"
 3465      657600
 3466              	.LASF120:
 3467 0510 73746D33 		.ascii	"stm32_dma_stream_t\000"
 3467      325F646D 
 3467      615F7374 
 3467      7265616D 
 3467      5F7400
 3468              	.LASF159:
 3469 0523 7478656E 		.ascii	"txend2_cb\000"
 3469      64325F63 
 3469      6200
 3470              	.LASF28:
 3471 052d 74707269 		.ascii	"tprio_t\000"
 3471      6F5F7400 
 3472              	.LASF173:
 3473 0535 63685379 		.ascii	"chSysUnlockFromISR\000"
 3473      73556E6C 
 3473      6F636B46 
 3473      726F6D49 
 3473      535200
 3474              	.LASF115:
 3475 0548 73747265 		.ascii	"stream\000"
 3475      616D00
 3476              	.LASF87:
 3477 054f 4E445452 		.ascii	"NDTR\000"
 3477      00
 3478              	.LASF79:
 3479 0554 63685F73 		.ascii	"ch_system_debug\000"
 3479      79737465 
 3479      6D5F6465 
 3479      62756700 
 3480              	.LASF20:
 3481 0564 5F426F6F 		.ascii	"_Bool\000"
 3481      6C00
 3482              	.LASF16:
 3483 056a 696E7433 		.ascii	"int32_t\000"
 3483      325F7400 
 3484              	.LASF1:
 3485 0572 756E7369 		.ascii	"unsigned char\000"
 3485      676E6564 
 3485      20636861 
 3485      7200
 3486              	.LASF92:
 3487 0580 55534152 		.ascii	"USART_TypeDef\000"
 3487      545F5479 
 3487      70654465 
 3487      6600
 3488              	.LASF50:
 3489 058e 705F6D74 		.ascii	"p_mtxlist\000"
ARM GAS  C:\Users\IDONNO~1\AppData\Local\Temp\ccP9Krzp.s 			page 67


 3489      786C6973 
 3489      7400
 3490              	.LASF2:
 3491 0598 73686F72 		.ascii	"short int\000"
 3491      7420696E 
 3491      7400
 3492              	.LASF41:
 3493 05a2 705F7374 		.ascii	"p_state\000"
 3493      61746500 
 3494              	.LASF44:
 3495 05aa 705F7072 		.ascii	"p_preempt\000"
 3495      65656D70 
 3495      7400
 3496              	.LASF161:
 3497 05b4 72786368 		.ascii	"rxchar_cb\000"
 3497      61725F63 
 3497      6200
 3498              	.LASF62:
 3499 05be 725F7072 		.ascii	"r_prio\000"
 3499      696F00
 3500              	.LASF101:
 3501 05c5 77746F62 		.ascii	"wtobjp\000"
 3501      6A7000
 3502              	.LASF105:
 3503 05cc 65776D61 		.ascii	"ewmask\000"
 3503      736B00
 3504              	.LASF34:
 3505 05d3 705F6E65 		.ascii	"p_next\000"
 3505      787400
 3506              	.LASF135:
 3507 05da 75617274 		.ascii	"uartstate_t\000"
 3507      73746174 
 3507      655F7400 
 3508              	.LASF42:
 3509 05e6 705F666C 		.ascii	"p_flags\000"
 3509      61677300 
 3510              	.LASF138:
 3511 05ee 55415254 		.ascii	"UART_TX_COMPLETE\000"
 3511      5F54585F 
 3511      434F4D50 
 3511      4C455445 
 3511      00
 3512              	.LASF106:
 3513 05ff 63685F73 		.ascii	"ch_semaphore\000"
 3513      656D6170 
 3513      686F7265 
 3513      00
 3514              	.LASF49:
 3515 060c 705F6570 		.ascii	"p_epending\000"
 3515      656E6469 
 3515      6E6700
 3516              	.LASF116:
 3517 0617 69666372 		.ascii	"ifcr\000"
 3517      00
 3518              	.LASF158:
 3519 061c 7478656E 		.ascii	"txend1_cb\000"
 3519      64315F63 
ARM GAS  C:\Users\IDONNO~1\AppData\Local\Temp\ccP9Krzp.s 			page 68


 3519      6200
 3520              	.LASF93:
 3521 0626 72656761 		.ascii	"regarm_t\000"
 3521      726D5F74 
 3521      00
 3522              	.LASF61:
 3523 062f 725F7175 		.ascii	"r_queue\000"
 3523      65756500 
 3524              	.LASF77:
 3525 0637 76745F73 		.ascii	"vt_systime\000"
 3525      79737469 
 3525      6D6500
 3526              	.LASF56:
 3527 0642 63685F74 		.ascii	"ch_threads_list\000"
 3527      68726561 
 3527      64735F6C 
 3527      69737400 
 3528              	.LASF156:
 3529 0652 75617274 		.ascii	"uartccb_t\000"
 3529      6363625F 
 3529      7400
 3530              	.LASF9:
 3531 065c 6C6F6E67 		.ascii	"long unsigned int\000"
 3531      20756E73 
 3531      69676E65 
 3531      6420696E 
 3531      7400
 3532              	.LASF113:
 3533 066e 63686172 		.ascii	"char\000"
 3533      00
 3534              	.LASF149:
 3535 0673 636F6E66 		.ascii	"config\000"
 3535      696700
 3536              	.LASF140:
 3537 067a 55415254 		.ascii	"UART_RX_IDLE\000"
 3537      5F52585F 
 3537      49444C45 
 3537      00
 3538              	.LASF4:
 3539 0687 5F5F7569 		.ascii	"__uint16_t\000"
 3539      6E743136 
 3539      5F7400
 3540              	.LASF168:
 3541 0692 706F7274 		.ascii	"port_unlock_from_isr\000"
 3541      5F756E6C 
 3541      6F636B5F 
 3541      66726F6D 
 3541      5F697372 
 3542              	.LASF33:
 3543 06a7 74687265 		.ascii	"thread_t\000"
 3543      61645F74 
 3543      00
 3544              	.LASF112:
 3545 06b0 6D5F6E65 		.ascii	"m_next\000"
 3545      787400
 3546              	.LASF32:
 3547 06b7 73797374 		.ascii	"systime_t\000"
ARM GAS  C:\Users\IDONNO~1\AppData\Local\Temp\ccP9Krzp.s 			page 69


 3547      696D655F 
 3547      7400
 3548              	.LASF51:
 3549 06c1 705F7265 		.ascii	"p_realprio\000"
 3549      616C7072 
 3549      696F00
 3550              	.LASF67:
 3551 06cc 76746675 		.ascii	"vtfunc_t\000"
 3551      6E635F74 
 3551      00
 3552              	.LASF8:
 3553 06d5 5F5F7569 		.ascii	"__uint32_t\000"
 3553      6E743332 
 3553      5F7400
 3554              	.LASF169:
 3555 06e0 5F5F7365 		.ascii	"__set_BASEPRI\000"
 3555      745F4241 
 3555      53455052 
 3555      4900
 3556              	.LASF136:
 3557 06ee 55415254 		.ascii	"UART_TX_IDLE\000"
 3557      5F54585F 
 3557      49444C45 
 3557      00
 3558              	.LASF104:
 3559 06fb 77746D74 		.ascii	"wtmtxp\000"
 3559      787000
 3560              	.LASF80:
 3561 0702 70616E69 		.ascii	"panic_msg\000"
 3561      635F6D73 
 3561      6700
 3562              	.LASF97:
 3563 070c 6F666673 		.ascii	"offset\000"
 3563      657400
 3564              	.LASF90:
 3565 0713 444D415F 		.ascii	"DMA_Stream_TypeDef\000"
 3565      53747265 
 3565      616D5F54 
 3565      79706544 
 3565      656600
 3566              	.LASF193:
 3567 0726 5F70616C 		.ascii	"_pal_lld_setgroupmode\000"
 3567      5F6C6C64 
 3567      5F736574 
 3567      67726F75 
 3567      706D6F64 
 3568              	.LASF69:
 3569 073c 63685F76 		.ascii	"ch_virtual_timer\000"
 3569      69727475 
 3569      616C5F74 
 3569      696D6572 
 3569      00
 3570              	.LASF23:
 3571 074d 7274636E 		.ascii	"rtcnt_t\000"
 3571      745F7400 
 3572              	.LASF167:
 3573 0755 706F7274 		.ascii	"port_lock_from_isr\000"
ARM GAS  C:\Users\IDONNO~1\AppData\Local\Temp\ccP9Krzp.s 			page 70


 3573      5F6C6F63 
 3573      6B5F6672 
 3573      6F6D5F69 
 3573      737200
 3574              	.LASF47:
 3575 0768 705F6D73 		.ascii	"p_msgqueue\000"
 3575      67717565 
 3575      756500
 3576              	.LASF89:
 3577 0773 4D314152 		.ascii	"M1AR\000"
 3577      00
 3578              	.LASF199:
 3579 0778 7061636B 		.ascii	"packet_process_thread\000"
 3579      65745F70 
 3579      726F6365 
 3579      73735F74 
 3579      68726561 
 3580              	.LASF74:
 3581 078e 76745F70 		.ascii	"vt_par\000"
 3581      617200
 3582              	.LASF57:
 3583 0795 74687265 		.ascii	"threads_queue_t\000"
 3583      6164735F 
 3583      71756575 
 3583      655F7400 
 3584              	.LASF40:
 3585 07a5 705F6E61 		.ascii	"p_name\000"
 3585      6D6500
 3586              	.LASF43:
 3587 07ac 705F7265 		.ascii	"p_refs\000"
 3587      667300
 3588              	.LASF196:
 3589 07b3 7372632F 		.ascii	"src/app/app_uartcomm.c\000"
 3589      6170702F 
 3589      6170705F 
 3589      75617274 
 3589      636F6D6D 
 3590              	.LASF83:
 3591 07ca 726C6973 		.ascii	"rlist\000"
 3591      7400
 3592              	.LASF198:
 3593 07d0 63685468 		.ascii	"chThdGetSelfX\000"
 3593      64476574 
 3593      53656C66 
 3593      5800
 3594              	.LASF14:
 3595 07de 75696E74 		.ascii	"uint8_t\000"
 3595      385F7400 
 3596              	.LASF19:
 3597 07e6 73697A65 		.ascii	"sizetype\000"
 3597      74797065 
 3597      00
 3598              	.LASF151:
 3599 07ef 646D616D 		.ascii	"dmamode\000"
 3599      6F646500 
 3600              	.LASF109:
 3601 07f7 63685F6D 		.ascii	"ch_mutex\000"
ARM GAS  C:\Users\IDONNO~1\AppData\Local\Temp\ccP9Krzp.s 			page 71


 3601      75746578 
 3601      00
 3602              	.LASF163:
 3603 0800 73706565 		.ascii	"speed\000"
 3603      6400
 3604              	.LASF195:
 3605 0806 474E5520 		.ascii	"GNU C99 5.4.1 20160919 (release) [ARM/embedded-5-br"
 3605      43393920 
 3605      352E342E 
 3605      31203230 
 3605      31363039 
 3606 0839 616E6368 		.ascii	"anch revision 240496] -mcpu=cortex-m4 -mfloat-abi=h"
 3606      20726576 
 3606      6973696F 
 3606      6E203234 
 3606      30343936 
 3607 086c 61726420 		.ascii	"ard -mfpu=fpv4-sp-d16 -mno-thumb-interwork -mthumb "
 3607      2D6D6670 
 3607      753D6670 
 3607      76342D73 
 3607      702D6431 
 3608 089f 2D676764 		.ascii	"-ggdb -O2 -std=gnu99 -fomit-frame-pointer -falign-f"
 3608      62202D4F 
 3608      32202D73 
 3608      74643D67 
 3608      6E753939 
 3609 08d2 756E6374 		.ascii	"unctions=16 -ffunction-sections -fdata-sections -fn"
 3609      696F6E73 
 3609      3D313620 
 3609      2D666675 
 3609      6E637469 
 3610 0905 6F2D636F 		.ascii	"o-common -fsingle-precision-constant\000"
 3610      6D6D6F6E 
 3610      202D6673 
 3610      696E676C 
 3610      652D7072 
 3611              	.LASF54:
 3612 092a 74687265 		.ascii	"threads_list_t\000"
 3612      6164735F 
 3612      6C697374 
 3612      5F7400
 3613              	.LASF107:
 3614 0939 735F7175 		.ascii	"s_queue\000"
 3614      65756500 
 3615              	.LASF48:
 3616 0941 705F6D73 		.ascii	"p_msg\000"
 3616      6700
 3617              	.LASF170:
 3618 0947 63685265 		.ascii	"chRegSetThreadName\000"
 3618      67536574 
 3618      54687265 
 3618      61644E61 
 3618      6D6500
 3619              	.LASF185:
 3620 095a 73657269 		.ascii	"serial_rx_write_pos\000"
 3620      616C5F72 
 3620      785F7772 
ARM GAS  C:\Users\IDONNO~1\AppData\Local\Temp\ccP9Krzp.s 			page 72


 3620      6974655F 
 3620      706F7300 
 3621              	.LASF111:
 3622 096e 6D5F6F77 		.ascii	"m_owner\000"
 3622      6E657200 
 3623              	.LASF17:
 3624 0976 75696E74 		.ascii	"uint32_t\000"
 3624      33325F74 
 3624      00
 3625              	.LASF37:
 3626 097f 705F6374 		.ascii	"p_ctx\000"
 3626      7800
 3627              	.LASF46:
 3628 0985 705F7761 		.ascii	"p_waiting\000"
 3628      6974696E 
 3628      6700
 3629              	.LASF191:
 3630 098f 63684576 		.ascii	"chEvtSignalI\000"
 3630      74536967 
 3630      6E616C49 
 3630      00
 3631              		.ident	"GCC: (GNU Tools for ARM Embedded Processors) 5.4.1 20160919 (release) [ARM/embedded-5-bran
ARM GAS  C:\Users\IDONNO~1\AppData\Local\Temp\ccP9Krzp.s 			page 73


DEFINED SYMBOLS
                            *ABS*:00000000 app_uartcomm.c
C:\Users\IDONNO~1\AppData\Local\Temp\ccP9Krzp.s:22     .text.rxerr:00000000 $t
C:\Users\IDONNO~1\AppData\Local\Temp\ccP9Krzp.s:27     .text.rxerr:00000000 rxerr
C:\Users\IDONNO~1\AppData\Local\Temp\ccP9Krzp.s:41     .text.rxend:00000000 $t
C:\Users\IDONNO~1\AppData\Local\Temp\ccP9Krzp.s:46     .text.rxend:00000000 rxend
C:\Users\IDONNO~1\AppData\Local\Temp\ccP9Krzp.s:59     .text.packet_process_thread:00000000 $t
C:\Users\IDONNO~1\AppData\Local\Temp\ccP9Krzp.s:64     .text.packet_process_thread:00000000 packet_process_thread
C:\Users\IDONNO~1\AppData\Local\Temp\ccP9Krzp.s:107    .text.packet_process_thread:00000018 $d
C:\Users\IDONNO~1\AppData\Local\Temp\ccP9Krzp.s:114    .text.rxchar:00000000 $t
C:\Users\IDONNO~1\AppData\Local\Temp\ccP9Krzp.s:119    .text.rxchar:00000000 rxchar
C:\Users\IDONNO~1\AppData\Local\Temp\ccP9Krzp.s:188    .text.rxchar:0000002c $d
C:\Users\IDONNO~1\AppData\Local\Temp\ccP9Krzp.s:199    .text.txend2:00000000 $t
C:\Users\IDONNO~1\AppData\Local\Temp\ccP9Krzp.s:204    .text.txend2:00000000 txend2
C:\Users\IDONNO~1\AppData\Local\Temp\ccP9Krzp.s:215    .text.txend1:00000000 $t
C:\Users\IDONNO~1\AppData\Local\Temp\ccP9Krzp.s:220    .text.txend1:00000000 txend1
C:\Users\IDONNO~1\AppData\Local\Temp\ccP9Krzp.s:231    .text.app_uartcomm_start:00000000 $t
C:\Users\IDONNO~1\AppData\Local\Temp\ccP9Krzp.s:237    .text.app_uartcomm_start:00000000 app_uartcomm_start
C:\Users\IDONNO~1\AppData\Local\Temp\ccP9Krzp.s:297    .text.app_uartcomm_start:00000044 $d
C:\Users\IDONNO~1\AppData\Local\Temp\ccP9Krzp.s:307    .text.app_uartcomm_configure:00000000 $t
C:\Users\IDONNO~1\AppData\Local\Temp\ccP9Krzp.s:313    .text.app_uartcomm_configure:00000000 app_uartcomm_configure
C:\Users\IDONNO~1\AppData\Local\Temp\ccP9Krzp.s:341    .text.app_uartcomm_configure:00000014 $d
C:\Users\IDONNO~1\AppData\Local\Temp\ccP9Krzp.s:348    .bss.serial_rx_write_pos:00000000 $d
C:\Users\IDONNO~1\AppData\Local\Temp\ccP9Krzp.s:352    .bss.serial_rx_write_pos:00000000 serial_rx_write_pos
C:\Users\IDONNO~1\AppData\Local\Temp\ccP9Krzp.s:355    .bss.is_running:00000000 $d
C:\Users\IDONNO~1\AppData\Local\Temp\ccP9Krzp.s:359    .bss.is_running:00000000 is_running
C:\Users\IDONNO~1\AppData\Local\Temp\ccP9Krzp.s:362    .data.uart_cfg:00000000 $d
C:\Users\IDONNO~1\AppData\Local\Temp\ccP9Krzp.s:366    .data.uart_cfg:00000000 uart_cfg
C:\Users\IDONNO~1\AppData\Local\Temp\ccP9Krzp.s:378    .bss.packet_process_thread_wa:00000000 $d
C:\Users\IDONNO~1\AppData\Local\Temp\ccP9Krzp.s:382    .bss.packet_process_thread_wa:00000000 packet_process_thread_wa
C:\Users\IDONNO~1\AppData\Local\Temp\ccP9Krzp.s:385    .rodata.str1.4:00000000 $d
C:\Users\IDONNO~1\AppData\Local\Temp\ccP9Krzp.s:389    .bss.process_tp:00000000 $d
C:\Users\IDONNO~1\AppData\Local\Temp\ccP9Krzp.s:393    .bss.process_tp:00000000 process_tp
                     .debug_frame:00000010 $d

UNDEFINED SYMBOLS
chEvtWaitAny
ch
chEvtSignalI
uartStart
_pal_lld_setgroupmode
chThdCreateStatic
UARTD6
