ARM GAS  C:\Users\IDONNO~1\AppData\Local\Temp\cctYQzqZ.s 			page 1


   1              		.syntax unified
   2              		.cpu cortex-m4
   3              		.eabi_attribute 27, 1
   4              		.eabi_attribute 28, 1
   5              		.fpu fpv4-sp-d16
   6              		.eabi_attribute 20, 1
   7              		.eabi_attribute 21, 1
   8              		.eabi_attribute 23, 3
   9              		.eabi_attribute 24, 1
  10              		.eabi_attribute 25, 1
  11              		.eabi_attribute 26, 1
  12              		.eabi_attribute 30, 2
  13              		.eabi_attribute 34, 1
  14              		.eabi_attribute 18, 4
  15              		.thumb
  16              		.syntax unified
  17              		.file	"app_nunchuk.c"
  18              		.text
  19              	.Ltext0:
  20              		.cfi_sections	.debug_frame
  21              		.section	.text.output_thread,"ax",%progbits
  22              		.align	2
  23              		.p2align 4,,15
  24              		.thumb
  25              		.thumb_func
  26              		.type	output_thread, %function
  27              	output_thread:
  28              	.LFB261:
  29              		.file 1 "src/app/app_nunchuk.c"
  30              		.loc 1 172 0
  31              		.cfi_startproc
  32              		@ Volatile: function does not return.
  33              		@ args = 0, pretend = 0, frame = 0
  34              		@ frame_needed = 0, uses_anonymous_args = 0
  35              	.LVL0:
  36 0000 08B5     		push	{r3, lr}
  37              		.cfi_def_cfa_offset 8
  38              		.cfi_offset 3, -8
  39              		.cfi_offset 14, -4
  40              	.LBB9:
  41              	.LBB10:
  42              		.file 2 "src/ChibiOS_3.0.2/os/rt/include/chregistry.h"
  43              		.loc 2 135 0
  44 0002 0C4B     		ldr	r3, .L7
  45 0004 0C4A     		ldr	r2, .L7+4
  46 0006 9B69     		ldr	r3, [r3, #24]
  47 0008 0C4C     		ldr	r4, .L7+8
  48 000a 0D4D     		ldr	r5, .L7+12
  49 000c 9A61     		str	r2, [r3, #24]
  50              	.LVL1:
  51              	.L3:
  52              	.LBE10:
  53              	.LBE9:
  54              		.loc 1 178 0
  55 000e 0A20     		movs	r0, #10
  56 0010 FFF7FEFF 		bl	chThdSleep
  57              	.LVL2:
ARM GAS  C:\Users\IDONNO~1\AppData\Local\Temp\cctYQzqZ.s 			page 2


  58              		.loc 1 180 0
  59 0014 FFF7FEFF 		bl	timeout_has_timeout
  60              	.LVL3:
  61 0018 0028     		cmp	r0, #0
  62 001a F8D1     		bne	.L3
  63              	.L6:
  64              		.loc 1 180 0 is_stmt 0 discriminator 1
  65 001c 2368     		ldr	r3, [r4]
  66 001e 002B     		cmp	r3, #0
  67 0020 F5D1     		bne	.L3
  68              		.loc 1 178 0 is_stmt 1 discriminator 2
  69 0022 0A20     		movs	r0, #10
  70              		.loc 1 180 0 discriminator 2
  71 0024 2B78     		ldrb	r3, [r5]	@ zero_extendqisi2
  72              		.loc 1 178 0 discriminator 2
  73 0026 FFF7FEFF 		bl	chThdSleep
  74              	.LVL4:
  75              		.loc 1 180 0 discriminator 2
  76 002a FFF7FEFF 		bl	timeout_has_timeout
  77              	.LVL5:
  78 002e 0028     		cmp	r0, #0
  79 0030 EDD1     		bne	.L3
  80 0032 F3E7     		b	.L6
  81              	.L8:
  82              		.align	2
  83              	.L7:
  84 0034 00000000 		.word	ch
  85 0038 00000000 		.word	.LC0
  86 003c 00000000 		.word	.LANCHOR0
  87 0040 00000000 		.word	.LANCHOR1
  88              		.cfi_endproc
  89              	.LFE261:
  90              		.size	output_thread, .-output_thread
  91              		.section	.text.app_nunchuk_configure,"ax",%progbits
  92              		.align	2
  93              		.p2align 4,,15
  94              		.global	app_nunchuk_configure
  95              		.thumb
  96              		.thumb_func
  97              		.type	app_nunchuk_configure, %function
  98              	app_nunchuk_configure:
  99              	.LFB256:
 100              		.loc 1 58 0
 101              		.cfi_startproc
 102              		@ args = 0, pretend = 0, frame = 0
 103              		@ frame_needed = 0, uses_anonymous_args = 0
 104              		@ link register save eliminated.
 105              	.LVL6:
 106 0000 30B4     		push	{r4, r5}
 107              		.cfi_def_cfa_offset 8
 108              		.cfi_offset 4, -8
 109              		.cfi_offset 5, -4
 110              		.loc 1 59 0
 111 0002 0546     		mov	r5, r0
 112 0004 0FCD     		ldmia	r5!, {r0, r1, r2, r3}
 113              	.LVL7:
 114 0006 044C     		ldr	r4, .L11
ARM GAS  C:\Users\IDONNO~1\AppData\Local\Temp\cctYQzqZ.s 			page 3


 115 0008 0FC4     		stmia	r4!, {r0, r1, r2, r3}
 116 000a 0FCD     		ldmia	r5!, {r0, r1, r2, r3}
 117              	.LVL8:
 118 000c 0FC4     		stmia	r4!, {r0, r1, r2, r3}
 119 000e 2B68     		ldr	r3, [r5]
 120 0010 2360     		str	r3, [r4]
 121              		.loc 1 60 0
 122 0012 30BC     		pop	{r4, r5}
 123              		.cfi_restore 5
 124              		.cfi_restore 4
 125              		.cfi_def_cfa_offset 0
 126              	.LVL9:
 127 0014 7047     		bx	lr
 128              	.L12:
 129 0016 00BF     		.align	2
 130              	.L11:
 131 0018 00000000 		.word	.LANCHOR1
 132              		.cfi_endproc
 133              	.LFE256:
 134              		.size	app_nunchuk_configure, .-app_nunchuk_configure
 135              		.section	.text.app_nunchuk_start,"ax",%progbits
 136              		.align	2
 137              		.p2align 4,,15
 138              		.global	app_nunchuk_start
 139              		.thumb
 140              		.thumb_func
 141              		.type	app_nunchuk_start, %function
 142              	app_nunchuk_start:
 143              	.LFB257:
 144              		.loc 1 62 0
 145              		.cfi_startproc
 146              		@ args = 0, pretend = 0, frame = 0
 147              		@ frame_needed = 0, uses_anonymous_args = 0
 148 0000 30B5     		push	{r4, r5, lr}
 149              		.cfi_def_cfa_offset 12
 150              		.cfi_offset 4, -12
 151              		.cfi_offset 5, -8
 152              		.cfi_offset 14, -4
 153 0002 83B0     		sub	sp, sp, #12
 154              		.cfi_def_cfa_offset 24
 155              		.loc 1 63 0
 156 0004 064C     		ldr	r4, .L15
 157              		.loc 1 64 0
 158 0006 074B     		ldr	r3, .L15+4
 159 0008 0748     		ldr	r0, .L15+8
 160 000a 0022     		movs	r2, #0
 161 000c 0092     		str	r2, [sp]
 162              		.loc 1 63 0
 163 000e 8025     		movs	r5, #128
 164              		.loc 1 64 0
 165 0010 4022     		movs	r2, #64
 166 0012 4FF4B361 		mov	r1, #1432
 167              		.loc 1 63 0
 168 0016 6560     		str	r5, [r4, #4]
 169              		.loc 1 64 0
 170 0018 FFF7FEFF 		bl	chThdCreateStatic
 171              	.LVL10:
ARM GAS  C:\Users\IDONNO~1\AppData\Local\Temp\cctYQzqZ.s 			page 4


 172              		.loc 1 65 0
 173 001c 03B0     		add	sp, sp, #12
 174              		.cfi_def_cfa_offset 12
 175              		@ sp needed
 176 001e 30BD     		pop	{r4, r5, pc}
 177              	.L16:
 178              		.align	2
 179              	.L15:
 180 0020 00000000 		.word	.LANCHOR2
 181 0024 00000000 		.word	chuk_thread
 182 0028 00000000 		.word	.LANCHOR3
 183              		.cfi_endproc
 184              	.LFE257:
 185              		.size	app_nunchuk_start, .-app_nunchuk_start
 186              		.section	.text.app_nunchuk_get_decoded_chuk,"ax",%progbits
 187              		.align	2
 188              		.p2align 4,,15
 189              		.global	app_nunchuk_get_decoded_chuk
 190              		.thumb
 191              		.thumb_func
 192              		.type	app_nunchuk_get_decoded_chuk, %function
 193              	app_nunchuk_get_decoded_chuk:
 194              	.LFB258:
 195              		.loc 1 67 0
 196              		.cfi_startproc
 197              		@ args = 0, pretend = 0, frame = 0
 198              		@ frame_needed = 0, uses_anonymous_args = 0
 199              		@ link register save eliminated.
 200              		.loc 1 68 0
 201 0000 064B     		ldr	r3, .L18
 202 0002 9FED077A 		vldr.32	s14, .L18+4
 203 0006 D3ED017A 		vldr.32	s15, [r3, #4]	@ int
 204 000a 9FED060A 		vldr.32	s0, .L18+8
 205 000e F8EEE77A 		vcvt.f32.s32	s15, s15
 206 0012 77EEC77A 		vsub.f32	s15, s15, s14
 207              		.loc 1 69 0
 208 0016 27EE800A 		vmul.f32	s0, s15, s0
 209 001a 7047     		bx	lr
 210              	.L19:
 211              		.align	2
 212              	.L18:
 213 001c 00000000 		.word	.LANCHOR2
 214 0020 00000043 		.word	1124073472
 215 0024 0000003C 		.word	1006632960
 216              		.cfi_endproc
 217              	.LFE258:
 218              		.size	app_nunchuk_get_decoded_chuk, .-app_nunchuk_get_decoded_chuk
 219              		.section	.text.app_nunchuk_update_output,"ax",%progbits
 220              		.align	2
 221              		.p2align 4,,15
 222              		.global	app_nunchuk_update_output
 223              		.thumb
 224              		.thumb_func
 225              		.type	app_nunchuk_update_output, %function
 226              	app_nunchuk_update_output:
 227              	.LFB259:
 228              		.loc 1 71 0
ARM GAS  C:\Users\IDONNO~1\AppData\Local\Temp\cctYQzqZ.s 			page 5


 229              		.cfi_startproc
 230              		@ args = 0, pretend = 0, frame = 0
 231              		@ frame_needed = 0, uses_anonymous_args = 0
 232              	.LVL11:
 233 0000 70B5     		push	{r4, r5, r6, lr}
 234              		.cfi_def_cfa_offset 16
 235              		.cfi_offset 4, -16
 236              		.cfi_offset 5, -12
 237              		.cfi_offset 6, -8
 238              		.cfi_offset 14, -4
 239              		.loc 1 72 0
 240 0002 104A     		ldr	r2, .L24
 241 0004 1378     		ldrb	r3, [r2]	@ zero_extendqisi2
 242              		.loc 1 71 0
 243 0006 82B0     		sub	sp, sp, #8
 244              		.cfi_def_cfa_offset 24
 245              		.loc 1 71 0
 246 0008 0446     		mov	r4, r0
 247              		.loc 1 72 0
 248 000a 73B9     		cbnz	r3, .L21
 249 000c 03F0FF01 		and	r1, r3, #255
 250              		.loc 1 75 0
 251 0010 0091     		str	r1, [sp]
 252              		.loc 1 74 0
 253 0012 0D4D     		ldr	r5, .L24+4
 254              		.loc 1 75 0
 255 0014 0D4B     		ldr	r3, .L24+8
 256 0016 0E48     		ldr	r0, .L24+12
 257              	.LVL12:
 258              		.loc 1 73 0
 259 0018 0121     		movs	r1, #1
 260 001a 1170     		strb	r1, [r2]
 261              		.loc 1 74 0
 262 001c 8026     		movs	r6, #128
 263              		.loc 1 75 0
 264 001e 4022     		movs	r2, #64
 265 0020 4FF4B361 		mov	r1, #1432
 266              		.loc 1 74 0
 267 0024 6E60     		str	r6, [r5, #4]
 268              		.loc 1 75 0
 269 0026 FFF7FEFF 		bl	chThdCreateStatic
 270              	.LVL13:
 271              	.L21:
 272              		.loc 1 78 0
 273 002a 0FCC     		ldmia	r4!, {r0, r1, r2, r3}
 274              	.LVL14:
 275 002c 064D     		ldr	r5, .L24+4
 276 002e 0FC5     		stmia	r5!, {r0, r1, r2, r3}
 277 0030 94E80300 		ldmia	r4, {r0, r1}
 278 0034 85E80300 		stmia	r5, {r0, r1}
 279              		.loc 1 80 0
 280 0038 02B0     		add	sp, sp, #8
 281              		.cfi_def_cfa_offset 16
 282              		@ sp needed
 283 003a BDE87040 		pop	{r4, r5, r6, lr}
 284              		.cfi_restore 14
 285              		.cfi_restore 6
ARM GAS  C:\Users\IDONNO~1\AppData\Local\Temp\cctYQzqZ.s 			page 6


 286              		.cfi_restore 5
 287              		.cfi_restore 4
 288              		.cfi_def_cfa_offset 0
 289              	.LVL15:
 290              		.loc 1 79 0
 291 003e FFF7FEBF 		b	timeout_reset
 292              	.LVL16:
 293              	.L25:
 294 0042 00BF     		.align	2
 295              	.L24:
 296 0044 00000000 		.word	.LANCHOR4
 297 0048 00000000 		.word	.LANCHOR2
 298 004c 00000000 		.word	output_thread
 299 0050 00000000 		.word	.LANCHOR5
 300              		.cfi_endproc
 301              	.LFE259:
 302              		.size	app_nunchuk_update_output, .-app_nunchuk_update_output
 303              		.section	.text.chuk_thread,"ax",%progbits
 304              		.align	2
 305              		.p2align 4,,15
 306              		.thumb
 307              		.thumb_func
 308              		.type	chuk_thread, %function
 309              	chuk_thread:
 310              	.LFB260:
 311              		.loc 1 82 0
 312              		.cfi_startproc
 313              		@ args = 0, pretend = 0, frame = 48
 314              		@ frame_needed = 0, uses_anonymous_args = 0
 315              	.LVL17:
 316 0000 2DE9F04F 		push	{r4, r5, r6, r7, r8, r9, r10, fp, lr}
 317              		.cfi_def_cfa_offset 36
 318              		.cfi_offset 4, -36
 319              		.cfi_offset 5, -32
 320              		.cfi_offset 6, -28
 321              		.cfi_offset 7, -24
 322              		.cfi_offset 8, -20
 323              		.cfi_offset 9, -16
 324              		.cfi_offset 10, -12
 325              		.cfi_offset 11, -8
 326              		.cfi_offset 14, -4
 327              	.LBB11:
 328              	.LBB12:
 329              		.loc 2 135 0
 330 0004 654B     		ldr	r3, .L40
 331 0006 6649     		ldr	r1, .L40+4
 332 0008 9A69     		ldr	r2, [r3, #24]
 333              	.LBE12:
 334              	.LBE11:
 335              		.loc 1 86 0
 336 000a 664B     		ldr	r3, .L40+8
 337              	.LBB14:
 338              	.LBB13:
 339              		.loc 2 135 0
 340 000c 9161     		str	r1, [r2, #24]
 341              	.LVL18:
 342              	.LBE13:
ARM GAS  C:\Users\IDONNO~1\AppData\Local\Temp\cctYQzqZ.s 			page 7


 343              	.LBE14:
 344              		.loc 1 82 0
 345 000e 91B0     		sub	sp, sp, #68
 346              		.cfi_def_cfa_offset 104
 347              		.loc 1 86 0
 348 0010 0122     		movs	r2, #1
 349 0012 DFF89C81 		ldr	r8, .L40+20
 350 0016 1A70     		strb	r2, [r3]
 351              	.LVL19:
 352              		.loc 1 95 0
 353 0018 FFF7FEFF 		bl	hw_start_i2c
 354              	.LVL20:
 355              		.loc 1 96 0
 356 001c 6420     		movs	r0, #100
 357 001e FFF7FEFF 		bl	chThdSleep
 358              	.LVL21:
 359 0022 614D     		ldr	r5, .L40+12
 360 0024 08F10409 		add	r9, r8, #4
 361 0028 04AC     		add	r4, sp, #16
 362              	.LBB15:
 363              		.loc 1 101 0
 364 002a F027     		movs	r7, #240
 365              		.loc 1 102 0
 366 002c 5526     		movs	r6, #85
 367 002e 0AE0     		b	.L33
 368              	.LVL22:
 369              	.L28:
 370              		.loc 1 163 0
 371 0030 0223     		movs	r3, #2
 372 0032 2B60     		str	r3, [r5]
 373              		.loc 1 164 0
 374 0034 FFF7FEFF 		bl	hw_try_restore_i2c
 375              	.LVL23:
 376              		.loc 1 165 0
 377 0038 4FF47A70 		mov	r0, #1000
 378 003c FFF7FEFF 		bl	chThdSleep
 379              	.LVL24:
 380              	.L32:
 381              		.loc 1 168 0
 382 0040 6420     		movs	r0, #100
 383 0042 FFF7FEFF 		bl	chThdSleep
 384              	.LVL25:
 385              	.L33:
 386              		.loc 1 103 0
 387 0046 5948     		ldr	r0, .L40+16
 388              		.loc 1 101 0
 389 0048 8DF81C70 		strb	r7, [sp, #28]
 390              		.loc 1 102 0
 391 004c 8DF81D60 		strb	r6, [sp, #29]
 392              		.loc 1 104 0
 393 0050 4FF0320A 		mov	r10, #50
 394              		.loc 1 103 0
 395 0054 FFF7FEFF 		bl	i2cAcquireBus
 396              	.LVL26:
 397              		.loc 1 104 0
 398 0058 0023     		movs	r3, #0
 399 005a 0193     		str	r3, [sp, #4]
ARM GAS  C:\Users\IDONNO~1\AppData\Local\Temp\cctYQzqZ.s 			page 8


 400 005c 0094     		str	r4, [sp]
 401 005e CDF808A0 		str	r10, [sp, #8]
 402 0062 0223     		movs	r3, #2
 403 0064 07AA     		add	r2, sp, #28
 404 0066 5221     		movs	r1, #82
 405 0068 5048     		ldr	r0, .L40+16
 406 006a FFF7FEFF 		bl	i2cMasterTransmitTimeout
 407              	.LVL27:
 408 006e 8346     		mov	fp, r0
 409              	.LVL28:
 410              		.loc 1 105 0
 411 0070 4E48     		ldr	r0, .L40+16
 412              	.LVL29:
 413 0072 FFF7FEFF 		bl	i2cReleaseBus
 414              	.LVL30:
 415              		.loc 1 108 0
 416 0076 BBF1000F 		cmp	fp, #0
 417 007a D9D1     		bne	.L28
 418              		.loc 1 109 0
 419 007c FB23     		movs	r3, #251
 420              		.loc 1 111 0
 421 007e 4B48     		ldr	r0, .L40+16
 422              		.loc 1 110 0
 423 0080 8DF81DB0 		strb	fp, [sp, #29]
 424              		.loc 1 109 0
 425 0084 8DF81C30 		strb	r3, [sp, #28]
 426              		.loc 1 111 0
 427 0088 FFF7FEFF 		bl	i2cAcquireBus
 428              	.LVL31:
 429              		.loc 1 112 0
 430 008c 8DE81008 		stmia	sp, {r4, fp}
 431 0090 CDF808A0 		str	r10, [sp, #8]
 432 0094 0223     		movs	r3, #2
 433 0096 07AA     		add	r2, sp, #28
 434 0098 5221     		movs	r1, #82
 435 009a 4448     		ldr	r0, .L40+16
 436 009c FFF7FEFF 		bl	i2cMasterTransmitTimeout
 437              	.LVL32:
 438 00a0 8346     		mov	fp, r0
 439              	.LVL33:
 440              		.loc 1 113 0
 441 00a2 4248     		ldr	r0, .L40+16
 442              	.LVL34:
 443 00a4 FFF7FEFF 		bl	i2cReleaseBus
 444              	.LVL35:
 445              		.loc 1 117 0
 446 00a8 BBF1000F 		cmp	fp, #0
 447 00ac C0D1     		bne	.L28
 448              		.loc 1 119 0
 449 00ae 3F48     		ldr	r0, .L40+16
 450              		.loc 1 118 0
 451 00b0 8DF81CB0 		strb	fp, [sp, #28]
 452              		.loc 1 119 0
 453 00b4 FFF7FEFF 		bl	i2cAcquireBus
 454              	.LVL36:
 455              		.loc 1 120 0
 456 00b8 8DE81008 		stmia	sp, {r4, fp}
ARM GAS  C:\Users\IDONNO~1\AppData\Local\Temp\cctYQzqZ.s 			page 9


 457 00bc CDF808A0 		str	r10, [sp, #8]
 458 00c0 0123     		movs	r3, #1
 459 00c2 07AA     		add	r2, sp, #28
 460 00c4 5221     		movs	r1, #82
 461 00c6 3948     		ldr	r0, .L40+16
 462 00c8 FFF7FEFF 		bl	i2cMasterTransmitTimeout
 463              	.LVL37:
 464 00cc 8346     		mov	fp, r0
 465              	.LVL38:
 466              		.loc 1 121 0
 467 00ce 3748     		ldr	r0, .L40+16
 468              	.LVL39:
 469 00d0 FFF7FEFF 		bl	i2cReleaseBus
 470              	.LVL40:
 471              		.loc 1 125 0
 472 00d4 BBF1000F 		cmp	fp, #0
 473 00d8 AAD1     		bne	.L28
 474              		.loc 1 126 0
 475 00da 1E20     		movs	r0, #30
 476 00dc FFF7FEFF 		bl	chThdSleep
 477              	.LVL41:
 478              		.loc 1 128 0
 479 00e0 3248     		ldr	r0, .L40+16
 480 00e2 FFF7FEFF 		bl	i2cAcquireBus
 481              	.LVL42:
 482              		.loc 1 129 0
 483 00e6 CDF800A0 		str	r10, [sp]
 484 00ea 0623     		movs	r3, #6
 485 00ec 2246     		mov	r2, r4
 486 00ee 5221     		movs	r1, #82
 487 00f0 2E48     		ldr	r0, .L40+16
 488 00f2 FFF7FEFF 		bl	i2cMasterReceiveTimeout
 489              	.LVL43:
 490 00f6 8246     		mov	r10, r0
 491              	.LVL44:
 492              		.loc 1 130 0
 493 00f8 2C48     		ldr	r0, .L40+16
 494              	.LVL45:
 495 00fa FFF7FEFF 		bl	i2cReleaseBus
 496              	.LVL46:
 497              		.loc 1 134 0
 498 00fe BAF1000F 		cmp	r10, #0
 499 0102 95D1     		bne	.L28
 500 0104 2A4B     		ldr	r3, .L40+20
 501 0106 2146     		mov	r1, r4
 502 0108 03F1060C 		add	ip, r3, #6
 503 010c 0122     		movs	r2, #1
 504              	.L30:
 505              	.LVL47:
 506              	.LBB16:
 507              	.LBB17:
 508              		.loc 1 139 0
 509 010e 13F801EB 		ldrb	lr, [r3], #1	@ zero_extendqisi2
 510              	.LVL48:
 511 0112 11F8010B 		ldrb	r0, [r1], #1	@ zero_extendqisi2
 512              		.loc 1 140 0
 513 0116 8645     		cmp	lr, r0
ARM GAS  C:\Users\IDONNO~1\AppData\Local\Temp\cctYQzqZ.s 			page 10


 514 0118 18BF     		it	ne
 515 011a 0022     		movne	r2, #0
 516              	.LVL49:
 517              		.loc 1 138 0
 518 011c 9C45     		cmp	ip, r3
 519 011e F6D1     		bne	.L30
 520              	.LBE17:
 521              		.loc 1 144 0
 522 0120 94E80300 		ldmia	r4, {r0, r1}
 523 0124 C8F80000 		str	r0, [r8]
 524 0128 A9F80010 		strh	r1, [r9]	@ movhi
 525              		.loc 1 146 0
 526 012c 32B1     		cbz	r2, .L39
 527              	.LVL50:
 528              	.L31:
 529              		.loc 1 159 0
 530 012e FFF7FEFF 		bl	timeout_has_timeout
 531              	.LVL51:
 532 0132 0028     		cmp	r0, #0
 533 0134 84D0     		beq	.L32
 534              		.loc 1 160 0
 535 0136 0123     		movs	r3, #1
 536 0138 2B60     		str	r3, [r5]
 537 013a 81E7     		b	.L32
 538              	.LVL52:
 539              	.L39:
 540              		.loc 1 150 0
 541 013c 9DF81530 		ldrb	r3, [sp, #21]	@ zero_extendqisi2
 542              	.LVL53:
 543 0140 9DF812C0 		ldrb	ip, [sp, #18]	@ zero_extendqisi2
 544              		.loc 1 151 0
 545 0144 9DF81300 		ldrb	r0, [sp, #19]	@ zero_extendqisi2
 546              		.loc 1 147 0
 547 0148 2A60     		str	r2, [r5]
 548              		.loc 1 150 0
 549 014a C3F38102 		ubfx	r2, r3, #2, #2
 550              	.LVL54:
 551 014e 42EA8C0C 		orr	ip, r2, ip, lsl #2
 552              		.loc 1 152 0
 553 0152 9DF81410 		ldrb	r1, [sp, #20]	@ zero_extendqisi2
 554              		.loc 1 148 0
 555 0156 9DF810E0 		ldrb	lr, [sp, #16]	@ zero_extendqisi2
 556              		.loc 1 150 0
 557 015a CDF830C0 		str	ip, [sp, #48]
 558              		.loc 1 151 0
 559 015e C3F30112 		ubfx	r2, r3, #4, #2
 560 0162 42EA8000 		orr	r0, r2, r0, lsl #2
 561              		.loc 1 152 0
 562 0166 9A09     		lsrs	r2, r3, #6
 563 0168 42EA8101 		orr	r1, r2, r1, lsl #2
 564              		.loc 1 153 0
 565 016c 03F00102 		and	r2, r3, #1
 566              		.loc 1 154 0
 567 0170 C3F34003 		ubfx	r3, r3, #1, #1
 568              		.loc 1 153 0
 569 0174 82F00102 		eor	r2, r2, #1
 570              		.loc 1 154 0
ARM GAS  C:\Users\IDONNO~1\AppData\Local\Temp\cctYQzqZ.s 			page 11


 571 0178 83F00103 		eor	r3, r3, #1
 572              		.loc 1 149 0
 573 017c 9DF811C0 		ldrb	ip, [sp, #17]	@ zero_extendqisi2
 574              		.loc 1 151 0
 575 0180 0D90     		str	r0, [sp, #52]
 576              		.loc 1 156 0
 577 0182 0AA8     		add	r0, sp, #40
 578              		.loc 1 152 0
 579 0184 0E91     		str	r1, [sp, #56]
 580              		.loc 1 153 0
 581 0186 8DF83D20 		strb	r2, [sp, #61]
 582              		.loc 1 154 0
 583 018a 8DF83C30 		strb	r3, [sp, #60]
 584              		.loc 1 148 0
 585 018e CDF828E0 		str	lr, [sp, #40]
 586              		.loc 1 149 0
 587 0192 CDF82CC0 		str	ip, [sp, #44]
 588              		.loc 1 156 0
 589 0196 FFF7FEFF 		bl	app_nunchuk_update_output
 590              	.LVL55:
 591 019a C8E7     		b	.L31
 592              	.L41:
 593              		.align	2
 594              	.L40:
 595 019c 00000000 		.word	ch
 596 01a0 10000000 		.word	.LC1
 597 01a4 00000000 		.word	.LANCHOR6
 598 01a8 00000000 		.word	.LANCHOR0
 599 01ac 00000000 		.word	I2CD2
 600 01b0 00000000 		.word	.LANCHOR7
 601              	.LBE16:
 602              	.LBE15:
 603              		.cfi_endproc
 604              	.LFE260:
 605              		.size	chuk_thread, .-chuk_thread
 606              		.section	.bss.output_running,"aw",%nobits
 607              		.set	.LANCHOR4,. + 0
 608              		.type	output_running, %object
 609              		.size	output_running, 1
 610              	output_running:
 611 0000 00       		.space	1
 612              		.section	.bss.chuk_thread_wa,"aw",%nobits
 613              		.align	3
 614              		.set	.LANCHOR3,. + 0
 615              		.type	chuk_thread_wa, %object
 616              		.size	chuk_thread_wa, 1432
 617              	chuk_thread_wa:
 618 0000 00000000 		.space	1432
 618      00000000 
 618      00000000 
 618      00000000 
 618      00000000 
 619              		.section	.bss.output_thread_wa,"aw",%nobits
 620              		.align	3
 621              		.set	.LANCHOR5,. + 0
 622              		.type	output_thread_wa, %object
 623              		.size	output_thread_wa, 1432
ARM GAS  C:\Users\IDONNO~1\AppData\Local\Temp\cctYQzqZ.s 			page 12


 624              	output_thread_wa:
 625 0000 00000000 		.space	1432
 625      00000000 
 625      00000000 
 625      00000000 
 625      00000000 
 626              		.section	.bss.is_running,"aw",%nobits
 627              		.set	.LANCHOR6,. + 0
 628              		.type	is_running, %object
 629              		.size	is_running, 1
 630              	is_running:
 631 0000 00       		.space	1
 632              		.section	.bss.last_buffer.10399,"aw",%nobits
 633              		.align	2
 634              		.set	.LANCHOR7,. + 0
 635              		.type	last_buffer.10399, %object
 636              		.size	last_buffer.10399, 6
 637              	last_buffer.10399:
 638 0000 00000000 		.space	6
 638      0000
 639              		.section	.bss.chuck_d,"aw",%nobits
 640              		.align	2
 641              		.set	.LANCHOR2,. + 0
 642              		.type	chuck_d, %object
 643              		.size	chuck_d, 24
 644              	chuck_d:
 645 0000 00000000 		.space	24
 645      00000000 
 645      00000000 
 645      00000000 
 645      00000000 
 646              		.section	.rodata.str1.4,"aMS",%progbits,1
 647              		.align	2
 648              	.LC0:
 649 0000 4E756E63 		.ascii	"Nunchuk output\000"
 649      68756B20 
 649      6F757470 
 649      757400
 650 000f 00       		.space	1
 651              	.LC1:
 652 0010 4E756E63 		.ascii	"Nunchuk i2c\000"
 652      68756B20 
 652      69326300 
 653              		.section	.bss.chuck_error,"aw",%nobits
 654              		.align	2
 655              		.set	.LANCHOR0,. + 0
 656              		.type	chuck_error, %object
 657              		.size	chuck_error, 4
 658              	chuck_error:
 659 0000 00000000 		.space	4
 660              		.section	.bss.config,"aw",%nobits
 661              		.align	2
 662              		.set	.LANCHOR1,. + 0
 663              		.type	config, %object
 664              		.size	config, 36
 665              	config:
 666 0000 00000000 		.space	36
ARM GAS  C:\Users\IDONNO~1\AppData\Local\Temp\cctYQzqZ.s 			page 13


 666      00000000 
 666      00000000 
 666      00000000 
 666      00000000 
 667              		.text
 668              	.Letext0:
 669              		.file 3 "c:\\program files (x86)\\gnu tools arm embedded\\5.4 2016q3\\arm-none-eabi\\include\\mach
 670              		.file 4 "c:\\program files (x86)\\gnu tools arm embedded\\5.4 2016q3\\arm-none-eabi\\include\\sys\
 671              		.file 5 "src/app/app.h"
 672              		.file 6 "c:\\program files (x86)\\gnu tools arm embedded\\5.4 2016q3\\lib\\gcc\\arm-none-eabi\\5.4
 673              		.file 7 "src/ChibiOS_3.0.2/os/rt/ports/ARMCMx/compilers/GCC/chtypes.h"
 674              		.file 8 "src/ChibiOS_3.0.2/os/rt/include/chsystypes.h"
 675              		.file 9 "src/ChibiOS_3.0.2/os/rt/include/chschd.h"
 676              		.file 10 "src/ChibiOS_3.0.2/os/ext/CMSIS/ST/stm32f407xx.h"
 677              		.file 11 "src/ChibiOS_3.0.2/os/rt/ports/ARMCMx/chcore.h"
 678              		.file 12 "src/ChibiOS_3.0.2/os/rt/ports/ARMCMx/chcore_v7m.h"
 679              		.file 13 "src/ChibiOS_3.0.2/os/rt/include/chtm.h"
 680              		.file 14 "src/ChibiOS_3.0.2/os/rt/include/chsem.h"
 681              		.file 15 "src/ChibiOS_3.0.2/os/rt/include/chmtx.h"
 682              		.file 16 "src/ChibiOS_3.0.2/os/hal/ports/STM32/STM32F4xx/stm32_dma.h"
 683              		.file 17 "src/ChibiOS_3.0.2/os/hal/include/i2c.h"
 684              		.file 18 "src/ChibiOS_3.0.2/os/hal/ports/STM32/LLD/I2Cv1/i2c_lld.h"
 685              		.file 19 "src/ChibiOS_3.0.2/os/ext/CMSIS/include/core_cm4.h"
 686              		.file 20 "src/ChibiOS_3.0.2/os/rt/include/chthreads.h"
 687              		.file 21 "src/core/timeout.h"
 688              		.file 22 "src/hw.h"
 689              		.section	.debug_info,"",%progbits
 690              	.Ldebug_info0:
 691 0000 AE100000 		.4byte	0x10ae
 692 0004 0400     		.2byte	0x4
 693 0006 00000000 		.4byte	.Ldebug_abbrev0
 694 000a 04       		.byte	0x4
 695 000b 01       		.uleb128 0x1
 696 000c 74030000 		.4byte	.LASF213
 697 0010 0C       		.byte	0xc
 698 0011 2C030000 		.4byte	.LASF214
 699 0015 06010000 		.4byte	.LASF215
 700 0019 18000000 		.4byte	.Ldebug_ranges0+0x18
 701 001d 00000000 		.4byte	0
 702 0021 00000000 		.4byte	.Ldebug_line0
 703 0025 02       		.uleb128 0x2
 704 0026 01       		.byte	0x1
 705 0027 06       		.byte	0x6
 706 0028 D3090000 		.4byte	.LASF0
 707 002c 03       		.uleb128 0x3
 708 002d F0070000 		.4byte	.LASF3
 709 0031 03       		.byte	0x3
 710 0032 1D       		.byte	0x1d
 711 0033 37000000 		.4byte	0x37
 712 0037 02       		.uleb128 0x2
 713 0038 01       		.byte	0x1
 714 0039 08       		.byte	0x8
 715 003a DF080000 		.4byte	.LASF1
 716 003e 02       		.uleb128 0x2
 717 003f 02       		.byte	0x2
 718 0040 05       		.byte	0x5
 719 0041 41070000 		.4byte	.LASF2
ARM GAS  C:\Users\IDONNO~1\AppData\Local\Temp\cctYQzqZ.s 			page 14


 720 0045 03       		.uleb128 0x3
 721 0046 B4020000 		.4byte	.LASF4
 722 004a 03       		.byte	0x3
 723 004b 2B       		.byte	0x2b
 724 004c 50000000 		.4byte	0x50
 725 0050 02       		.uleb128 0x2
 726 0051 02       		.byte	0x2
 727 0052 07       		.byte	0x7
 728 0053 F5090000 		.4byte	.LASF5
 729 0057 03       		.uleb128 0x3
 730 0058 F2000000 		.4byte	.LASF6
 731 005c 03       		.byte	0x3
 732 005d 3F       		.byte	0x3f
 733 005e 62000000 		.4byte	0x62
 734 0062 02       		.uleb128 0x2
 735 0063 04       		.byte	0x4
 736 0064 05       		.byte	0x5
 737 0065 7A070000 		.4byte	.LASF7
 738 0069 03       		.uleb128 0x3
 739 006a F9080000 		.4byte	.LASF8
 740 006e 03       		.byte	0x3
 741 006f 41       		.byte	0x41
 742 0070 74000000 		.4byte	0x74
 743 0074 02       		.uleb128 0x2
 744 0075 04       		.byte	0x4
 745 0076 07       		.byte	0x7
 746 0077 70080000 		.4byte	.LASF9
 747 007b 02       		.uleb128 0x2
 748 007c 08       		.byte	0x8
 749 007d 05       		.byte	0x5
 750 007e 41050000 		.4byte	.LASF10
 751 0082 03       		.uleb128 0x3
 752 0083 B7040000 		.4byte	.LASF11
 753 0087 03       		.byte	0x3
 754 0088 5B       		.byte	0x5b
 755 0089 8D000000 		.4byte	0x8d
 756 008d 02       		.uleb128 0x2
 757 008e 08       		.byte	0x8
 758 008f 07       		.byte	0x7
 759 0090 79020000 		.4byte	.LASF12
 760 0094 04       		.uleb128 0x4
 761 0095 04       		.byte	0x4
 762 0096 05       		.byte	0x5
 763 0097 696E7400 		.ascii	"int\000"
 764 009b 02       		.uleb128 0x2
 765 009c 04       		.byte	0x4
 766 009d 07       		.byte	0x7
 767 009e FF070000 		.4byte	.LASF13
 768 00a2 03       		.uleb128 0x3
 769 00a3 6C050000 		.4byte	.LASF14
 770 00a7 04       		.byte	0x4
 771 00a8 18       		.byte	0x18
 772 00a9 2C000000 		.4byte	0x2c
 773 00ad 03       		.uleb128 0x3
 774 00ae D5060000 		.4byte	.LASF15
 775 00b2 04       		.byte	0x4
 776 00b3 24       		.byte	0x24
ARM GAS  C:\Users\IDONNO~1\AppData\Local\Temp\cctYQzqZ.s 			page 15


 777 00b4 45000000 		.4byte	0x45
 778 00b8 03       		.uleb128 0x3
 779 00b9 99080000 		.4byte	.LASF16
 780 00bd 04       		.byte	0x4
 781 00be 2C       		.byte	0x2c
 782 00bf 57000000 		.4byte	0x57
 783 00c3 03       		.uleb128 0x3
 784 00c4 C7010000 		.4byte	.LASF17
 785 00c8 04       		.byte	0x4
 786 00c9 30       		.byte	0x30
 787 00ca 69000000 		.4byte	0x69
 788 00ce 03       		.uleb128 0x3
 789 00cf D3070000 		.4byte	.LASF18
 790 00d3 04       		.byte	0x4
 791 00d4 3C       		.byte	0x3c
 792 00d5 82000000 		.4byte	0x82
 793 00d9 02       		.uleb128 0x2
 794 00da 04       		.byte	0x4
 795 00db 07       		.byte	0x7
 796 00dc 5F080000 		.4byte	.LASF19
 797 00e0 02       		.uleb128 0x2
 798 00e1 01       		.byte	0x1
 799 00e2 02       		.byte	0x2
 800 00e3 6E030000 		.4byte	.LASF20
 801 00e7 02       		.uleb128 0x2
 802 00e8 04       		.byte	0x4
 803 00e9 04       		.byte	0x4
 804 00ea 16020000 		.4byte	.LASF21
 805 00ee 05       		.uleb128 0x5
 806 00ef 01       		.byte	0x1
 807 00f0 37000000 		.4byte	0x37
 808 00f4 05       		.byte	0x5
 809 00f5 6B       		.byte	0x6b
 810 00f6 0D010000 		.4byte	0x10d
 811 00fa 06       		.uleb128 0x6
 812 00fb 7A050000 		.4byte	.LASF22
 813 00ff 00       		.byte	0
 814 0100 06       		.uleb128 0x6
 815 0101 03060000 		.4byte	.LASF23
 816 0105 01       		.byte	0x1
 817 0106 06       		.uleb128 0x6
 818 0107 59000000 		.4byte	.LASF24
 819 010b 02       		.byte	0x2
 820 010c 00       		.byte	0
 821 010d 03       		.uleb128 0x3
 822 010e 4B010000 		.4byte	.LASF25
 823 0112 05       		.byte	0x5
 824 0113 6F       		.byte	0x6f
 825 0114 EE000000 		.4byte	0xee
 826 0118 07       		.uleb128 0x7
 827 0119 24       		.byte	0x24
 828 011a 05       		.byte	0x5
 829 011b 71       		.byte	0x71
 830 011c 98010000 		.4byte	0x198
 831 0120 08       		.uleb128 0x8
 832 0121 8F080000 		.4byte	.LASF26
 833 0125 05       		.byte	0x5
ARM GAS  C:\Users\IDONNO~1\AppData\Local\Temp\cctYQzqZ.s 			page 16


 834 0126 72       		.byte	0x72
 835 0127 0D010000 		.4byte	0x10d
 836 012b 00       		.byte	0
 837 012c 08       		.uleb128 0x8
 838 012d 22020000 		.4byte	.LASF27
 839 0131 05       		.byte	0x5
 840 0132 73       		.byte	0x73
 841 0133 E7000000 		.4byte	0xe7
 842 0137 04       		.byte	0x4
 843 0138 08       		.uleb128 0x8
 844 0139 92090000 		.4byte	.LASF28
 845 013d 05       		.byte	0x5
 846 013e 74       		.byte	0x74
 847 013f E7000000 		.4byte	0xe7
 848 0143 08       		.byte	0x8
 849 0144 08       		.uleb128 0x8
 850 0145 DC040000 		.4byte	.LASF29
 851 0149 05       		.byte	0x5
 852 014a 75       		.byte	0x75
 853 014b E7000000 		.4byte	0xe7
 854 014f 0C       		.byte	0xc
 855 0150 08       		.uleb128 0x8
 856 0151 42030000 		.4byte	.LASF30
 857 0155 05       		.byte	0x5
 858 0156 76       		.byte	0x76
 859 0157 E7000000 		.4byte	0xe7
 860 015b 10       		.byte	0x10
 861 015c 08       		.uleb128 0x8
 862 015d DB010000 		.4byte	.LASF31
 863 0161 05       		.byte	0x5
 864 0162 77       		.byte	0x77
 865 0163 E7000000 		.4byte	0xe7
 866 0167 14       		.byte	0x14
 867 0168 08       		.uleb128 0x8
 868 0169 75090000 		.4byte	.LASF32
 869 016d 05       		.byte	0x5
 870 016e 78       		.byte	0x78
 871 016f E7000000 		.4byte	0xe7
 872 0173 18       		.byte	0x18
 873 0174 08       		.uleb128 0x8
 874 0175 FC000000 		.4byte	.LASF33
 875 0179 05       		.byte	0x5
 876 017a 79       		.byte	0x79
 877 017b E0000000 		.4byte	0xe0
 878 017f 1C       		.byte	0x1c
 879 0180 09       		.uleb128 0x9
 880 0181 746300   		.ascii	"tc\000"
 881 0184 05       		.byte	0x5
 882 0185 7A       		.byte	0x7a
 883 0186 E0000000 		.4byte	0xe0
 884 018a 1D       		.byte	0x1d
 885 018b 08       		.uleb128 0x8
 886 018c ED080000 		.4byte	.LASF34
 887 0190 05       		.byte	0x5
 888 0191 7B       		.byte	0x7b
 889 0192 E7000000 		.4byte	0xe7
 890 0196 20       		.byte	0x20
ARM GAS  C:\Users\IDONNO~1\AppData\Local\Temp\cctYQzqZ.s 			page 17


 891 0197 00       		.byte	0
 892 0198 03       		.uleb128 0x3
 893 0199 5A090000 		.4byte	.LASF35
 894 019d 05       		.byte	0x5
 895 019e 7C       		.byte	0x7c
 896 019f 18010000 		.4byte	0x118
 897 01a3 07       		.uleb128 0x7
 898 01a4 18       		.byte	0x18
 899 01a5 05       		.byte	0x5
 900 01a6 9B       		.byte	0x9b
 901 01a7 00020000 		.4byte	0x200
 902 01ab 08       		.uleb128 0x8
 903 01ac 8F070000 		.4byte	.LASF36
 904 01b0 05       		.byte	0x5
 905 01b1 9C       		.byte	0x9c
 906 01b2 94000000 		.4byte	0x94
 907 01b6 00       		.byte	0
 908 01b7 08       		.uleb128 0x8
 909 01b8 94070000 		.4byte	.LASF37
 910 01bc 05       		.byte	0x5
 911 01bd 9D       		.byte	0x9d
 912 01be 94000000 		.4byte	0x94
 913 01c2 04       		.byte	0x4
 914 01c3 08       		.uleb128 0x8
 915 01c4 A8090000 		.4byte	.LASF38
 916 01c8 05       		.byte	0x5
 917 01c9 9E       		.byte	0x9e
 918 01ca 94000000 		.4byte	0x94
 919 01ce 08       		.byte	0x8
 920 01cf 08       		.uleb128 0x8
 921 01d0 AE090000 		.4byte	.LASF39
 922 01d4 05       		.byte	0x5
 923 01d5 9F       		.byte	0x9f
 924 01d6 94000000 		.4byte	0x94
 925 01da 0C       		.byte	0xc
 926 01db 08       		.uleb128 0x8
 927 01dc B4090000 		.4byte	.LASF40
 928 01e0 05       		.byte	0x5
 929 01e1 A0       		.byte	0xa0
 930 01e2 94000000 		.4byte	0x94
 931 01e6 10       		.byte	0x10
 932 01e7 08       		.uleb128 0x8
 933 01e8 DE060000 		.4byte	.LASF41
 934 01ec 05       		.byte	0x5
 935 01ed A1       		.byte	0xa1
 936 01ee E0000000 		.4byte	0xe0
 937 01f2 14       		.byte	0x14
 938 01f3 08       		.uleb128 0x8
 939 01f4 A0050000 		.4byte	.LASF42
 940 01f8 05       		.byte	0x5
 941 01f9 A2       		.byte	0xa2
 942 01fa E0000000 		.4byte	0xe0
 943 01fe 15       		.byte	0x15
 944 01ff 00       		.byte	0
 945 0200 03       		.uleb128 0x3
 946 0201 D4080000 		.4byte	.LASF43
 947 0205 05       		.byte	0x5
ARM GAS  C:\Users\IDONNO~1\AppData\Local\Temp\cctYQzqZ.s 			page 18


 948 0206 A3       		.byte	0xa3
 949 0207 A3010000 		.4byte	0x1a3
 950 020b 03       		.uleb128 0x3
 951 020c 50030000 		.4byte	.LASF44
 952 0210 06       		.byte	0x6
 953 0211 D8       		.byte	0xd8
 954 0212 9B000000 		.4byte	0x9b
 955 0216 0A       		.uleb128 0xa
 956 0217 B8000000 		.4byte	0xb8
 957 021b 0A       		.uleb128 0xa
 958 021c C3000000 		.4byte	0xc3
 959 0220 03       		.uleb128 0x3
 960 0221 04070000 		.4byte	.LASF45
 961 0225 07       		.byte	0x7
 962 0226 45       		.byte	0x45
 963 0227 C3000000 		.4byte	0xc3
 964 022b 03       		.uleb128 0x3
 965 022c B6060000 		.4byte	.LASF46
 966 0230 07       		.byte	0x7
 967 0231 48       		.byte	0x48
 968 0232 A2000000 		.4byte	0xa2
 969 0236 03       		.uleb128 0x3
 970 0237 20050000 		.4byte	.LASF47
 971 023b 07       		.byte	0x7
 972 023c 49       		.byte	0x49
 973 023d A2000000 		.4byte	0xa2
 974 0241 03       		.uleb128 0x3
 975 0242 68080000 		.4byte	.LASF48
 976 0246 07       		.byte	0x7
 977 0247 4A       		.byte	0x4a
 978 0248 A2000000 		.4byte	0xa2
 979 024c 03       		.uleb128 0x3
 980 024d 75060000 		.4byte	.LASF49
 981 0251 07       		.byte	0x7
 982 0252 4B       		.byte	0x4b
 983 0253 A2000000 		.4byte	0xa2
 984 0257 03       		.uleb128 0x3
 985 0258 34020000 		.4byte	.LASF50
 986 025c 07       		.byte	0x7
 987 025d 4C       		.byte	0x4c
 988 025e C3000000 		.4byte	0xc3
 989 0262 03       		.uleb128 0x3
 990 0263 1A060000 		.4byte	.LASF51
 991 0267 07       		.byte	0x7
 992 0268 4D       		.byte	0x4d
 993 0269 B8000000 		.4byte	0xb8
 994 026d 03       		.uleb128 0x3
 995 026e F7010000 		.4byte	.LASF52
 996 0272 07       		.byte	0x7
 997 0273 4F       		.byte	0x4f
 998 0274 C3000000 		.4byte	0xc3
 999 0278 03       		.uleb128 0x3
 1000 0279 7A010000 		.4byte	.LASF53
 1001 027d 07       		.byte	0x7
 1002 027e 51       		.byte	0x51
 1003 027f B8000000 		.4byte	0xb8
 1004 0283 03       		.uleb128 0x3
ARM GAS  C:\Users\IDONNO~1\AppData\Local\Temp\cctYQzqZ.s 			page 19


 1005 0284 ED040000 		.4byte	.LASF54
 1006 0288 08       		.byte	0x8
 1007 0289 33       		.byte	0x33
 1008 028a C3000000 		.4byte	0xc3
 1009 028e 03       		.uleb128 0x3
 1010 028f 23030000 		.4byte	.LASF55
 1011 0293 08       		.byte	0x8
 1012 0294 3F       		.byte	0x3f
 1013 0295 99020000 		.4byte	0x299
 1014 0299 0B       		.uleb128 0xb
 1015 029a A5050000 		.4byte	.LASF77
 1016 029e 48       		.byte	0x48
 1017 029f 09       		.byte	0x9
 1018 02a0 C2       		.byte	0xc2
 1019 02a1 9E030000 		.4byte	0x39e
 1020 02a5 08       		.uleb128 0x8
 1021 02a6 CC070000 		.4byte	.LASF56
 1022 02aa 09       		.byte	0x9
 1023 02ab C3       		.byte	0xc3
 1024 02ac A9030000 		.4byte	0x3a9
 1025 02b0 00       		.byte	0
 1026 02b1 08       		.uleb128 0x8
 1027 02b2 58080000 		.4byte	.LASF57
 1028 02b6 09       		.byte	0x9
 1029 02b7 C5       		.byte	0xc5
 1030 02b8 A9030000 		.4byte	0x3a9
 1031 02bc 04       		.byte	0x4
 1032 02bd 08       		.uleb128 0x8
 1033 02be 52000000 		.4byte	.LASF58
 1034 02c2 09       		.byte	0x9
 1035 02c3 C7       		.byte	0xc7
 1036 02c4 57020000 		.4byte	0x257
 1037 02c8 08       		.byte	0x8
 1038 02c9 08       		.uleb128 0x8
 1039 02ca DC070000 		.4byte	.LASF59
 1040 02ce 09       		.byte	0x9
 1041 02cf C8       		.byte	0xc8
 1042 02d0 CC060000 		.4byte	0x6cc
 1043 02d4 0C       		.byte	0xc
 1044 02d5 08       		.uleb128 0x8
 1045 02d6 E4020000 		.4byte	.LASF60
 1046 02da 09       		.byte	0x9
 1047 02db CA       		.byte	0xca
 1048 02dc A9030000 		.4byte	0x3a9
 1049 02e0 10       		.byte	0x10
 1050 02e1 08       		.uleb128 0x8
 1051 02e2 4F050000 		.4byte	.LASF61
 1052 02e6 09       		.byte	0x9
 1053 02e7 CB       		.byte	0xcb
 1054 02e8 A9030000 		.4byte	0x3a9
 1055 02ec 14       		.byte	0x14
 1056 02ed 08       		.uleb128 0x8
 1057 02ee F7040000 		.4byte	.LASF62
 1058 02f2 09       		.byte	0x9
 1059 02f3 D2       		.byte	0xd2
 1060 02f4 11090000 		.4byte	0x911
 1061 02f8 18       		.byte	0x18
ARM GAS  C:\Users\IDONNO~1\AppData\Local\Temp\cctYQzqZ.s 			page 20


 1062 02f9 08       		.uleb128 0x8
 1063 02fa 61060000 		.4byte	.LASF63
 1064 02fe 09       		.byte	0x9
 1065 02ff DD       		.byte	0xdd
 1066 0300 36020000 		.4byte	0x236
 1067 0304 1C       		.byte	0x1c
 1068 0305 08       		.uleb128 0x8
 1069 0306 28060000 		.4byte	.LASF64
 1070 030a 09       		.byte	0x9
 1071 030b E1       		.byte	0xe1
 1072 030c 2B020000 		.4byte	0x22b
 1073 0310 1D       		.byte	0x1d
 1074 0311 08       		.uleb128 0x8
 1075 0312 28090000 		.4byte	.LASF65
 1076 0316 09       		.byte	0x9
 1077 0317 E6       		.byte	0xe6
 1078 0318 41020000 		.4byte	0x241
 1079 031c 1E       		.byte	0x1e
 1080 031d 08       		.uleb128 0x8
 1081 031e 66090000 		.4byte	.LASF66
 1082 0322 09       		.byte	0x9
 1083 0323 EC       		.byte	0xec
 1084 0324 4C020000 		.4byte	0x24c
 1085 0328 1F       		.byte	0x1f
 1086 0329 08       		.uleb128 0x8
 1087 032a 38000000 		.4byte	.LASF67
 1088 032e 09       		.byte	0x9
 1089 032f F3       		.byte	0xf3
 1090 0330 23090000 		.4byte	0x923
 1091 0334 20       		.byte	0x20
 1092 0335 0C       		.uleb128 0xc
 1093 0336 705F7500 		.ascii	"p_u\000"
 1094 033a 09       		.byte	0x9
 1095 033b 3101     		.2byte	0x131
 1096 033d 4C080000 		.4byte	0x84c
 1097 0341 24       		.byte	0x24
 1098 0342 0D       		.uleb128 0xd
 1099 0343 E8000000 		.4byte	.LASF68
 1100 0347 09       		.byte	0x9
 1101 0348 3601     		.2byte	0x136
 1102 034a AF030000 		.4byte	0x3af
 1103 034e 28       		.byte	0x28
 1104 034f 0D       		.uleb128 0xd
 1105 0350 330A0000 		.4byte	.LASF69
 1106 0354 09       		.byte	0x9
 1107 0355 3C01     		.2byte	0x13c
 1108 0357 D3030000 		.4byte	0x3d3
 1109 035b 2C       		.byte	0x2c
 1110 035c 0D       		.uleb128 0xd
 1111 035d B0060000 		.4byte	.LASF70
 1112 0361 09       		.byte	0x9
 1113 0362 4001     		.2byte	0x140
 1114 0364 62020000 		.4byte	0x262
 1115 0368 34       		.byte	0x34
 1116 0369 0D       		.uleb128 0xd
 1117 036a 67070000 		.4byte	.LASF71
 1118 036e 09       		.byte	0x9
ARM GAS  C:\Users\IDONNO~1\AppData\Local\Temp\cctYQzqZ.s 			page 21


 1119 036f 4601     		.2byte	0x146
 1120 0371 6D020000 		.4byte	0x26d
 1121 0375 38       		.byte	0x38
 1122 0376 0D       		.uleb128 0xd
 1123 0377 96050000 		.4byte	.LASF72
 1124 037b 09       		.byte	0x9
 1125 037c 4D01     		.2byte	0x14d
 1126 037e 0B090000 		.4byte	0x90b
 1127 0382 3C       		.byte	0x3c
 1128 0383 0D       		.uleb128 0xd
 1129 0384 36070000 		.4byte	.LASF73
 1130 0388 09       		.byte	0x9
 1131 0389 5101     		.2byte	0x151
 1132 038b 57020000 		.4byte	0x257
 1133 038f 40       		.byte	0x40
 1134 0390 0D       		.uleb128 0xd
 1135 0391 8E050000 		.4byte	.LASF74
 1136 0395 09       		.byte	0x9
 1137 0396 5801     		.2byte	0x158
 1138 0398 86040000 		.4byte	0x486
 1139 039c 44       		.byte	0x44
 1140 039d 00       		.byte	0
 1141 039e 03       		.uleb128 0x3
 1142 039f 4D020000 		.4byte	.LASF75
 1143 03a3 08       		.byte	0x8
 1144 03a4 44       		.byte	0x44
 1145 03a5 A9030000 		.4byte	0x3a9
 1146 03a9 0E       		.uleb128 0xe
 1147 03aa 04       		.byte	0x4
 1148 03ab 8E020000 		.4byte	0x28e
 1149 03af 03       		.uleb128 0x3
 1150 03b0 D9000000 		.4byte	.LASF76
 1151 03b4 08       		.byte	0x8
 1152 03b5 49       		.byte	0x49
 1153 03b6 BA030000 		.4byte	0x3ba
 1154 03ba 0B       		.uleb128 0xb
 1155 03bb 00000000 		.4byte	.LASF78
 1156 03bf 04       		.byte	0x4
 1157 03c0 09       		.byte	0x9
 1158 03c1 B0       		.byte	0xb0
 1159 03c2 D3030000 		.4byte	0x3d3
 1160 03c6 08       		.uleb128 0x8
 1161 03c7 CC070000 		.4byte	.LASF56
 1162 03cb 09       		.byte	0x9
 1163 03cc B1       		.byte	0xb1
 1164 03cd A9030000 		.4byte	0x3a9
 1165 03d1 00       		.byte	0
 1166 03d2 00       		.byte	0
 1167 03d3 03       		.uleb128 0x3
 1168 03d4 10000000 		.4byte	.LASF79
 1169 03d8 08       		.byte	0x8
 1170 03d9 50       		.byte	0x50
 1171 03da DE030000 		.4byte	0x3de
 1172 03de 0B       		.uleb128 0xb
 1173 03df BE050000 		.4byte	.LASF80
 1174 03e3 08       		.byte	0x8
 1175 03e4 09       		.byte	0x9
ARM GAS  C:\Users\IDONNO~1\AppData\Local\Temp\cctYQzqZ.s 			page 22


 1176 03e5 B7       		.byte	0xb7
 1177 03e6 03040000 		.4byte	0x403
 1178 03ea 08       		.uleb128 0x8
 1179 03eb CC070000 		.4byte	.LASF56
 1180 03ef 09       		.byte	0x9
 1181 03f0 B8       		.byte	0xb8
 1182 03f1 A9030000 		.4byte	0x3a9
 1183 03f5 00       		.byte	0
 1184 03f6 08       		.uleb128 0x8
 1185 03f7 58080000 		.4byte	.LASF57
 1186 03fb 09       		.byte	0x9
 1187 03fc B9       		.byte	0xb9
 1188 03fd A9030000 		.4byte	0x3a9
 1189 0401 04       		.byte	0x4
 1190 0402 00       		.byte	0
 1191 0403 03       		.uleb128 0x3
 1192 0404 82080000 		.4byte	.LASF81
 1193 0408 08       		.byte	0x8
 1194 0409 57       		.byte	0x57
 1195 040a 0E040000 		.4byte	0x40e
 1196 040e 0F       		.uleb128 0xf
 1197 040f 5D010000 		.4byte	.LASF82
 1198 0413 1C       		.byte	0x1c
 1199 0414 09       		.byte	0x9
 1200 0415 9001     		.2byte	0x190
 1201 0417 6A040000 		.4byte	0x46a
 1202 041b 0D       		.uleb128 0xd
 1203 041c F0050000 		.4byte	.LASF83
 1204 0420 09       		.byte	0x9
 1205 0421 9101     		.2byte	0x191
 1206 0423 D3030000 		.4byte	0x3d3
 1207 0427 00       		.byte	0
 1208 0428 0D       		.uleb128 0xd
 1209 0429 03020000 		.4byte	.LASF84
 1210 042d 09       		.byte	0x9
 1211 042e 9201     		.2byte	0x192
 1212 0430 57020000 		.4byte	0x257
 1213 0434 08       		.byte	0x8
 1214 0435 0D       		.uleb128 0xd
 1215 0436 080A0000 		.4byte	.LASF85
 1216 043a 09       		.byte	0x9
 1217 043b 9401     		.2byte	0x194
 1218 043d CC060000 		.4byte	0x6cc
 1219 0441 0C       		.byte	0xc
 1220 0442 0D       		.uleb128 0xd
 1221 0443 07050000 		.4byte	.LASF86
 1222 0447 09       		.byte	0x9
 1223 0448 9701     		.2byte	0x197
 1224 044a A9030000 		.4byte	0x3a9
 1225 044e 10       		.byte	0x10
 1226 044f 0D       		.uleb128 0xd
 1227 0450 7F060000 		.4byte	.LASF87
 1228 0454 09       		.byte	0x9
 1229 0455 9801     		.2byte	0x198
 1230 0457 A9030000 		.4byte	0x3a9
 1231 045b 14       		.byte	0x14
 1232 045c 0D       		.uleb128 0xd
ARM GAS  C:\Users\IDONNO~1\AppData\Local\Temp\cctYQzqZ.s 			page 23


 1233 045d 4B070000 		.4byte	.LASF88
 1234 0461 09       		.byte	0x9
 1235 0462 9B01     		.2byte	0x19b
 1236 0464 A9030000 		.4byte	0x3a9
 1237 0468 18       		.byte	0x18
 1238 0469 00       		.byte	0
 1239 046a 03       		.uleb128 0x3
 1240 046b 5E030000 		.4byte	.LASF89
 1241 046f 08       		.byte	0x8
 1242 0470 5C       		.byte	0x5c
 1243 0471 75040000 		.4byte	0x475
 1244 0475 0E       		.uleb128 0xe
 1245 0476 04       		.byte	0x4
 1246 0477 7B040000 		.4byte	0x47b
 1247 047b 10       		.uleb128 0x10
 1248 047c 86040000 		.4byte	0x486
 1249 0480 11       		.uleb128 0x11
 1250 0481 86040000 		.4byte	0x486
 1251 0485 00       		.byte	0
 1252 0486 12       		.uleb128 0x12
 1253 0487 04       		.byte	0x4
 1254 0488 03       		.uleb128 0x3
 1255 0489 30060000 		.4byte	.LASF90
 1256 048d 08       		.byte	0x8
 1257 048e 61       		.byte	0x61
 1258 048f 93040000 		.4byte	0x493
 1259 0493 0F       		.uleb128 0xf
 1260 0494 3C020000 		.4byte	.LASF91
 1261 0498 14       		.byte	0x14
 1262 0499 09       		.byte	0x9
 1263 049a 6B01     		.2byte	0x16b
 1264 049c E2040000 		.4byte	0x4e2
 1265 04a0 0D       		.uleb128 0xd
 1266 04a1 A0090000 		.4byte	.LASF92
 1267 04a5 09       		.byte	0x9
 1268 04a6 6C01     		.2byte	0x16c
 1269 04a8 28090000 		.4byte	0x928
 1270 04ac 00       		.byte	0
 1271 04ad 0D       		.uleb128 0xd
 1272 04ae 4D0A0000 		.4byte	.LASF93
 1273 04b2 09       		.byte	0x9
 1274 04b3 6D01     		.2byte	0x16d
 1275 04b5 28090000 		.4byte	0x928
 1276 04b9 04       		.byte	0x4
 1277 04ba 0D       		.uleb128 0xd
 1278 04bb FE040000 		.4byte	.LASF94
 1279 04bf 09       		.byte	0x9
 1280 04c0 6E01     		.2byte	0x16e
 1281 04c2 83020000 		.4byte	0x283
 1282 04c6 08       		.byte	0x8
 1283 04c7 0D       		.uleb128 0xd
 1284 04c8 3E0A0000 		.4byte	.LASF95
 1285 04cc 09       		.byte	0x9
 1286 04cd 6F01     		.2byte	0x16f
 1287 04cf 6A040000 		.4byte	0x46a
 1288 04d3 0C       		.byte	0xc
 1289 04d4 0D       		.uleb128 0xd
ARM GAS  C:\Users\IDONNO~1\AppData\Local\Temp\cctYQzqZ.s 			page 24


 1290 04d5 0F020000 		.4byte	.LASF96
 1291 04d9 09       		.byte	0x9
 1292 04da 7101     		.2byte	0x171
 1293 04dc 86040000 		.4byte	0x486
 1294 04e0 10       		.byte	0x10
 1295 04e1 00       		.byte	0
 1296 04e2 03       		.uleb128 0x3
 1297 04e3 12090000 		.4byte	.LASF97
 1298 04e7 08       		.byte	0x8
 1299 04e8 66       		.byte	0x66
 1300 04e9 ED040000 		.4byte	0x4ed
 1301 04ed 0F       		.uleb128 0xf
 1302 04ee F2020000 		.4byte	.LASF98
 1303 04f2 10       		.byte	0x10
 1304 04f3 09       		.byte	0x9
 1305 04f4 7B01     		.2byte	0x17b
 1306 04f6 2F050000 		.4byte	0x52f
 1307 04fa 0D       		.uleb128 0xd
 1308 04fb A0090000 		.4byte	.LASF92
 1309 04ff 09       		.byte	0x9
 1310 0500 7C01     		.2byte	0x17c
 1311 0502 28090000 		.4byte	0x928
 1312 0506 00       		.byte	0
 1313 0507 0D       		.uleb128 0xd
 1314 0508 4D0A0000 		.4byte	.LASF93
 1315 050c 09       		.byte	0x9
 1316 050d 7E01     		.2byte	0x17e
 1317 050f 28090000 		.4byte	0x928
 1318 0513 04       		.byte	0x4
 1319 0514 0D       		.uleb128 0xd
 1320 0515 FE040000 		.4byte	.LASF94
 1321 0519 09       		.byte	0x9
 1322 051a 8001     		.2byte	0x180
 1323 051c 83020000 		.4byte	0x283
 1324 0520 08       		.byte	0x8
 1325 0521 0D       		.uleb128 0xd
 1326 0522 8C000000 		.4byte	.LASF99
 1327 0526 09       		.byte	0x9
 1328 0527 8201     		.2byte	0x182
 1329 0529 23090000 		.4byte	0x923
 1330 052d 0C       		.byte	0xc
 1331 052e 00       		.byte	0
 1332 052f 03       		.uleb128 0x3
 1333 0530 AF050000 		.4byte	.LASF100
 1334 0534 08       		.byte	0x8
 1335 0535 6B       		.byte	0x6b
 1336 0536 3A050000 		.4byte	0x53a
 1337 053a 0F       		.uleb128 0xf
 1338 053b B1010000 		.4byte	.LASF101
 1339 053f 04       		.byte	0x4
 1340 0540 09       		.byte	0x9
 1341 0541 A201     		.2byte	0x1a2
 1342 0543 55050000 		.4byte	0x555
 1343 0547 0D       		.uleb128 0xd
 1344 0548 2F090000 		.4byte	.LASF102
 1345 054c 09       		.byte	0x9
 1346 054d AA01     		.2byte	0x1aa
ARM GAS  C:\Users\IDONNO~1\AppData\Local\Temp\cctYQzqZ.s 			page 25


 1347 054f 2E090000 		.4byte	0x92e
 1348 0553 00       		.byte	0
 1349 0554 00       		.byte	0
 1350 0555 03       		.uleb128 0x3
 1351 0556 BA090000 		.4byte	.LASF103
 1352 055a 08       		.byte	0x8
 1353 055b 70       		.byte	0x70
 1354 055c 60050000 		.4byte	0x560
 1355 0560 13       		.uleb128 0x13
 1356 0561 C2070000 		.4byte	.LASF104
 1357 0565 5802     		.2byte	0x258
 1358 0567 09       		.byte	0x9
 1359 0568 C201     		.2byte	0x1c2
 1360 056a BC050000 		.4byte	0x5bc
 1361 056e 0D       		.uleb128 0xd
 1362 056f E2070000 		.4byte	.LASF105
 1363 0573 09       		.byte	0x9
 1364 0574 C601     		.2byte	0x1c6
 1365 0576 03040000 		.4byte	0x403
 1366 057a 00       		.byte	0
 1367 057b 0D       		.uleb128 0xd
 1368 057c 44010000 		.4byte	.LASF106
 1369 0580 09       		.byte	0x9
 1370 0581 CA01     		.2byte	0x1ca
 1371 0583 E2040000 		.4byte	0x4e2
 1372 0587 1C       		.byte	0x1c
 1373 0588 0C       		.uleb128 0xc
 1374 0589 64626700 		.ascii	"dbg\000"
 1375 058d 09       		.byte	0x9
 1376 058e CE01     		.2byte	0x1ce
 1377 0590 2F050000 		.4byte	0x52f
 1378 0594 2C       		.byte	0x2c
 1379 0595 0D       		.uleb128 0xd
 1380 0596 BE060000 		.4byte	.LASF107
 1381 059a 09       		.byte	0x9
 1382 059b D201     		.2byte	0x1d2
 1383 059d 8E020000 		.4byte	0x28e
 1384 05a1 30       		.byte	0x30
 1385 05a2 0C       		.uleb128 0xc
 1386 05a3 746D00   		.ascii	"tm\000"
 1387 05a6 09       		.byte	0x9
 1388 05a7 D701     		.2byte	0x1d7
 1389 05a9 41080000 		.4byte	0x841
 1390 05ad 78       		.byte	0x78
 1391 05ae 0D       		.uleb128 0xd
 1392 05af 6B010000 		.4byte	.LASF108
 1393 05b3 09       		.byte	0x9
 1394 05b4 E301     		.2byte	0x1e3
 1395 05b6 33090000 		.4byte	0x933
 1396 05ba 80       		.byte	0x80
 1397 05bb 00       		.byte	0
 1398 05bc 14       		.uleb128 0x14
 1399 05bd 18       		.byte	0x18
 1400 05be 0A       		.byte	0xa
 1401 05bf 6B01     		.2byte	0x16b
 1402 05c1 13060000 		.4byte	0x613
 1403 05c5 0C       		.uleb128 0xc
ARM GAS  C:\Users\IDONNO~1\AppData\Local\Temp\cctYQzqZ.s 			page 26


 1404 05c6 435200   		.ascii	"CR\000"
 1405 05c9 0A       		.byte	0xa
 1406 05ca 6D01     		.2byte	0x16d
 1407 05cc 1B020000 		.4byte	0x21b
 1408 05d0 00       		.byte	0
 1409 05d1 0D       		.uleb128 0xd
 1410 05d2 80010000 		.4byte	.LASF109
 1411 05d6 0A       		.byte	0xa
 1412 05d7 6E01     		.2byte	0x16e
 1413 05d9 1B020000 		.4byte	0x21b
 1414 05dd 04       		.byte	0x4
 1415 05de 0C       		.uleb128 0xc
 1416 05df 50415200 		.ascii	"PAR\000"
 1417 05e3 0A       		.byte	0xa
 1418 05e4 6F01     		.2byte	0x16f
 1419 05e6 1B020000 		.4byte	0x21b
 1420 05ea 08       		.byte	0x8
 1421 05eb 0D       		.uleb128 0xd
 1422 05ec E8040000 		.4byte	.LASF110
 1423 05f0 0A       		.byte	0xa
 1424 05f1 7001     		.2byte	0x170
 1425 05f3 1B020000 		.4byte	0x21b
 1426 05f7 0C       		.byte	0xc
 1427 05f8 0D       		.uleb128 0xd
 1428 05f9 29080000 		.4byte	.LASF111
 1429 05fd 0A       		.byte	0xa
 1430 05fe 7101     		.2byte	0x171
 1431 0600 1B020000 		.4byte	0x21b
 1432 0604 10       		.byte	0x10
 1433 0605 0C       		.uleb128 0xc
 1434 0606 46435200 		.ascii	"FCR\000"
 1435 060a 0A       		.byte	0xa
 1436 060b 7201     		.2byte	0x172
 1437 060d 1B020000 		.4byte	0x21b
 1438 0611 14       		.byte	0x14
 1439 0612 00       		.byte	0
 1440 0613 15       		.uleb128 0x15
 1441 0614 4E060000 		.4byte	.LASF112
 1442 0618 0A       		.byte	0xa
 1443 0619 7301     		.2byte	0x173
 1444 061b BC050000 		.4byte	0x5bc
 1445 061f 14       		.uleb128 0x14
 1446 0620 28       		.byte	0x28
 1447 0621 0A       		.byte	0xa
 1448 0622 3F02     		.2byte	0x23f
 1449 0624 AA060000 		.4byte	0x6aa
 1450 0628 0C       		.uleb128 0xc
 1451 0629 43523100 		.ascii	"CR1\000"
 1452 062d 0A       		.byte	0xa
 1453 062e 4102     		.2byte	0x241
 1454 0630 1B020000 		.4byte	0x21b
 1455 0634 00       		.byte	0
 1456 0635 0C       		.uleb128 0xc
 1457 0636 43523200 		.ascii	"CR2\000"
 1458 063a 0A       		.byte	0xa
 1459 063b 4202     		.2byte	0x242
 1460 063d 1B020000 		.4byte	0x21b
ARM GAS  C:\Users\IDONNO~1\AppData\Local\Temp\cctYQzqZ.s 			page 27


 1461 0641 04       		.byte	0x4
 1462 0642 0D       		.uleb128 0xd
 1463 0643 A4040000 		.4byte	.LASF113
 1464 0647 0A       		.byte	0xa
 1465 0648 4302     		.2byte	0x243
 1466 064a 1B020000 		.4byte	0x21b
 1467 064e 08       		.byte	0x8
 1468 064f 0D       		.uleb128 0xd
 1469 0650 A9040000 		.4byte	.LASF114
 1470 0654 0A       		.byte	0xa
 1471 0655 4402     		.2byte	0x244
 1472 0657 1B020000 		.4byte	0x21b
 1473 065b 0C       		.byte	0xc
 1474 065c 0C       		.uleb128 0xc
 1475 065d 445200   		.ascii	"DR\000"
 1476 0660 0A       		.byte	0xa
 1477 0661 4502     		.2byte	0x245
 1478 0663 1B020000 		.4byte	0x21b
 1479 0667 10       		.byte	0x10
 1480 0668 0C       		.uleb128 0xc
 1481 0669 53523100 		.ascii	"SR1\000"
 1482 066d 0A       		.byte	0xa
 1483 066e 4602     		.2byte	0x246
 1484 0670 1B020000 		.4byte	0x21b
 1485 0674 14       		.byte	0x14
 1486 0675 0C       		.uleb128 0xc
 1487 0676 53523200 		.ascii	"SR2\000"
 1488 067a 0A       		.byte	0xa
 1489 067b 4702     		.2byte	0x247
 1490 067d 1B020000 		.4byte	0x21b
 1491 0681 18       		.byte	0x18
 1492 0682 0C       		.uleb128 0xc
 1493 0683 43435200 		.ascii	"CCR\000"
 1494 0687 0A       		.byte	0xa
 1495 0688 4802     		.2byte	0x248
 1496 068a 1B020000 		.4byte	0x21b
 1497 068e 1C       		.byte	0x1c
 1498 068f 0D       		.uleb128 0xd
 1499 0690 74050000 		.4byte	.LASF115
 1500 0694 0A       		.byte	0xa
 1501 0695 4902     		.2byte	0x249
 1502 0697 1B020000 		.4byte	0x21b
 1503 069b 20       		.byte	0x20
 1504 069c 0D       		.uleb128 0xd
 1505 069d 87060000 		.4byte	.LASF116
 1506 06a1 0A       		.byte	0xa
 1507 06a2 4A02     		.2byte	0x24a
 1508 06a4 1B020000 		.4byte	0x21b
 1509 06a8 24       		.byte	0x24
 1510 06a9 00       		.byte	0
 1511 06aa 15       		.uleb128 0x15
 1512 06ab 43090000 		.4byte	.LASF117
 1513 06af 0A       		.byte	0xa
 1514 06b0 4B02     		.2byte	0x24b
 1515 06b2 1F060000 		.4byte	0x61f
 1516 06b6 03       		.uleb128 0x3
 1517 06b7 49000000 		.4byte	.LASF118
ARM GAS  C:\Users\IDONNO~1\AppData\Local\Temp\cctYQzqZ.s 			page 28


 1518 06bb 0B       		.byte	0xb
 1519 06bc 65       		.byte	0x65
 1520 06bd 86040000 		.4byte	0x486
 1521 06c1 03       		.uleb128 0x3
 1522 06c2 280A0000 		.4byte	.LASF119
 1523 06c6 0B       		.byte	0xb
 1524 06c7 6D       		.byte	0x6d
 1525 06c8 CE000000 		.4byte	0xce
 1526 06cc 0B       		.uleb128 0xb
 1527 06cd 20060000 		.4byte	.LASF120
 1528 06d1 04       		.byte	0x4
 1529 06d2 0B       		.byte	0xb
 1530 06d3 89       		.byte	0x89
 1531 06d4 E5060000 		.4byte	0x6e5
 1532 06d8 09       		.uleb128 0x9
 1533 06d9 72313300 		.ascii	"r13\000"
 1534 06dd 0B       		.byte	0xb
 1535 06de 8A       		.byte	0x8a
 1536 06df 26080000 		.4byte	0x826
 1537 06e3 00       		.byte	0
 1538 06e4 00       		.byte	0
 1539 06e5 0B       		.uleb128 0xb
 1540 06e6 83070000 		.4byte	.LASF121
 1541 06ea 64       		.byte	0x64
 1542 06eb 0C       		.byte	0xc
 1543 06ec F4       		.byte	0xf4
 1544 06ed 26080000 		.4byte	0x826
 1545 06f1 09       		.uleb128 0x9
 1546 06f2 73313600 		.ascii	"s16\000"
 1547 06f6 0C       		.byte	0xc
 1548 06f7 F6       		.byte	0xf6
 1549 06f8 B6060000 		.4byte	0x6b6
 1550 06fc 00       		.byte	0
 1551 06fd 09       		.uleb128 0x9
 1552 06fe 73313700 		.ascii	"s17\000"
 1553 0702 0C       		.byte	0xc
 1554 0703 F7       		.byte	0xf7
 1555 0704 B6060000 		.4byte	0x6b6
 1556 0708 04       		.byte	0x4
 1557 0709 09       		.uleb128 0x9
 1558 070a 73313800 		.ascii	"s18\000"
 1559 070e 0C       		.byte	0xc
 1560 070f F8       		.byte	0xf8
 1561 0710 B6060000 		.4byte	0x6b6
 1562 0714 08       		.byte	0x8
 1563 0715 09       		.uleb128 0x9
 1564 0716 73313900 		.ascii	"s19\000"
 1565 071a 0C       		.byte	0xc
 1566 071b F9       		.byte	0xf9
 1567 071c B6060000 		.4byte	0x6b6
 1568 0720 0C       		.byte	0xc
 1569 0721 09       		.uleb128 0x9
 1570 0722 73323000 		.ascii	"s20\000"
 1571 0726 0C       		.byte	0xc
 1572 0727 FA       		.byte	0xfa
 1573 0728 B6060000 		.4byte	0x6b6
 1574 072c 10       		.byte	0x10
ARM GAS  C:\Users\IDONNO~1\AppData\Local\Temp\cctYQzqZ.s 			page 29


 1575 072d 09       		.uleb128 0x9
 1576 072e 73323100 		.ascii	"s21\000"
 1577 0732 0C       		.byte	0xc
 1578 0733 FB       		.byte	0xfb
 1579 0734 B6060000 		.4byte	0x6b6
 1580 0738 14       		.byte	0x14
 1581 0739 09       		.uleb128 0x9
 1582 073a 73323200 		.ascii	"s22\000"
 1583 073e 0C       		.byte	0xc
 1584 073f FC       		.byte	0xfc
 1585 0740 B6060000 		.4byte	0x6b6
 1586 0744 18       		.byte	0x18
 1587 0745 09       		.uleb128 0x9
 1588 0746 73323300 		.ascii	"s23\000"
 1589 074a 0C       		.byte	0xc
 1590 074b FD       		.byte	0xfd
 1591 074c B6060000 		.4byte	0x6b6
 1592 0750 1C       		.byte	0x1c
 1593 0751 09       		.uleb128 0x9
 1594 0752 73323400 		.ascii	"s24\000"
 1595 0756 0C       		.byte	0xc
 1596 0757 FE       		.byte	0xfe
 1597 0758 B6060000 		.4byte	0x6b6
 1598 075c 20       		.byte	0x20
 1599 075d 09       		.uleb128 0x9
 1600 075e 73323500 		.ascii	"s25\000"
 1601 0762 0C       		.byte	0xc
 1602 0763 FF       		.byte	0xff
 1603 0764 B6060000 		.4byte	0x6b6
 1604 0768 24       		.byte	0x24
 1605 0769 0C       		.uleb128 0xc
 1606 076a 73323600 		.ascii	"s26\000"
 1607 076e 0C       		.byte	0xc
 1608 076f 0001     		.2byte	0x100
 1609 0771 B6060000 		.4byte	0x6b6
 1610 0775 28       		.byte	0x28
 1611 0776 0C       		.uleb128 0xc
 1612 0777 73323700 		.ascii	"s27\000"
 1613 077b 0C       		.byte	0xc
 1614 077c 0101     		.2byte	0x101
 1615 077e B6060000 		.4byte	0x6b6
 1616 0782 2C       		.byte	0x2c
 1617 0783 0C       		.uleb128 0xc
 1618 0784 73323800 		.ascii	"s28\000"
 1619 0788 0C       		.byte	0xc
 1620 0789 0201     		.2byte	0x102
 1621 078b B6060000 		.4byte	0x6b6
 1622 078f 30       		.byte	0x30
 1623 0790 0C       		.uleb128 0xc
 1624 0791 73323900 		.ascii	"s29\000"
 1625 0795 0C       		.byte	0xc
 1626 0796 0301     		.2byte	0x103
 1627 0798 B6060000 		.4byte	0x6b6
 1628 079c 34       		.byte	0x34
 1629 079d 0C       		.uleb128 0xc
 1630 079e 73333000 		.ascii	"s30\000"
 1631 07a2 0C       		.byte	0xc
ARM GAS  C:\Users\IDONNO~1\AppData\Local\Temp\cctYQzqZ.s 			page 30


 1632 07a3 0401     		.2byte	0x104
 1633 07a5 B6060000 		.4byte	0x6b6
 1634 07a9 38       		.byte	0x38
 1635 07aa 0C       		.uleb128 0xc
 1636 07ab 73333100 		.ascii	"s31\000"
 1637 07af 0C       		.byte	0xc
 1638 07b0 0501     		.2byte	0x105
 1639 07b2 B6060000 		.4byte	0x6b6
 1640 07b6 3C       		.byte	0x3c
 1641 07b7 0C       		.uleb128 0xc
 1642 07b8 723400   		.ascii	"r4\000"
 1643 07bb 0C       		.byte	0xc
 1644 07bc 0701     		.2byte	0x107
 1645 07be B6060000 		.4byte	0x6b6
 1646 07c2 40       		.byte	0x40
 1647 07c3 0C       		.uleb128 0xc
 1648 07c4 723500   		.ascii	"r5\000"
 1649 07c7 0C       		.byte	0xc
 1650 07c8 0801     		.2byte	0x108
 1651 07ca B6060000 		.4byte	0x6b6
 1652 07ce 44       		.byte	0x44
 1653 07cf 0C       		.uleb128 0xc
 1654 07d0 723600   		.ascii	"r6\000"
 1655 07d3 0C       		.byte	0xc
 1656 07d4 0901     		.2byte	0x109
 1657 07d6 B6060000 		.4byte	0x6b6
 1658 07da 48       		.byte	0x48
 1659 07db 0C       		.uleb128 0xc
 1660 07dc 723700   		.ascii	"r7\000"
 1661 07df 0C       		.byte	0xc
 1662 07e0 0A01     		.2byte	0x10a
 1663 07e2 B6060000 		.4byte	0x6b6
 1664 07e6 4C       		.byte	0x4c
 1665 07e7 0C       		.uleb128 0xc
 1666 07e8 723800   		.ascii	"r8\000"
 1667 07eb 0C       		.byte	0xc
 1668 07ec 0B01     		.2byte	0x10b
 1669 07ee B6060000 		.4byte	0x6b6
 1670 07f2 50       		.byte	0x50
 1671 07f3 0C       		.uleb128 0xc
 1672 07f4 723900   		.ascii	"r9\000"
 1673 07f7 0C       		.byte	0xc
 1674 07f8 0C01     		.2byte	0x10c
 1675 07fa B6060000 		.4byte	0x6b6
 1676 07fe 54       		.byte	0x54
 1677 07ff 0C       		.uleb128 0xc
 1678 0800 72313000 		.ascii	"r10\000"
 1679 0804 0C       		.byte	0xc
 1680 0805 0D01     		.2byte	0x10d
 1681 0807 B6060000 		.4byte	0x6b6
 1682 080b 58       		.byte	0x58
 1683 080c 0C       		.uleb128 0xc
 1684 080d 72313100 		.ascii	"r11\000"
 1685 0811 0C       		.byte	0xc
 1686 0812 0E01     		.2byte	0x10e
 1687 0814 B6060000 		.4byte	0x6b6
 1688 0818 5C       		.byte	0x5c
ARM GAS  C:\Users\IDONNO~1\AppData\Local\Temp\cctYQzqZ.s 			page 31


 1689 0819 0C       		.uleb128 0xc
 1690 081a 6C7200   		.ascii	"lr\000"
 1691 081d 0C       		.byte	0xc
 1692 081e 0F01     		.2byte	0x10f
 1693 0820 B6060000 		.4byte	0x6b6
 1694 0824 60       		.byte	0x60
 1695 0825 00       		.byte	0
 1696 0826 0E       		.uleb128 0xe
 1697 0827 04       		.byte	0x4
 1698 0828 E5060000 		.4byte	0x6e5
 1699 082c 07       		.uleb128 0x7
 1700 082d 04       		.byte	0x4
 1701 082e 0D       		.byte	0xd
 1702 082f 38       		.byte	0x38
 1703 0830 41080000 		.4byte	0x841
 1704 0834 08       		.uleb128 0x8
 1705 0835 67030000 		.4byte	.LASF122
 1706 0839 0D       		.byte	0xd
 1707 083a 3C       		.byte	0x3c
 1708 083b 20020000 		.4byte	0x220
 1709 083f 00       		.byte	0
 1710 0840 00       		.byte	0
 1711 0841 03       		.uleb128 0x3
 1712 0842 27000000 		.4byte	.LASF123
 1713 0846 0D       		.byte	0xd
 1714 0847 3D       		.byte	0x3d
 1715 0848 2C080000 		.4byte	0x82c
 1716 084c 16       		.uleb128 0x16
 1717 084d 04       		.byte	0x4
 1718 084e 09       		.byte	0x9
 1719 084f FA       		.byte	0xfa
 1720 0850 A9080000 		.4byte	0x8a9
 1721 0854 17       		.uleb128 0x17
 1722 0855 57030000 		.4byte	.LASF124
 1723 0859 09       		.byte	0x9
 1724 085a 0101     		.2byte	0x101
 1725 085c 62020000 		.4byte	0x262
 1726 0860 17       		.uleb128 0x17
 1727 0861 690A0000 		.4byte	.LASF125
 1728 0865 09       		.byte	0x9
 1729 0866 0801     		.2byte	0x108
 1730 0868 62020000 		.4byte	0x262
 1731 086c 17       		.uleb128 0x17
 1732 086d 3D010000 		.4byte	.LASF126
 1733 0871 09       		.byte	0x9
 1734 0872 0F01     		.2byte	0x10f
 1735 0874 86040000 		.4byte	0x486
 1736 0878 17       		.uleb128 0x17
 1737 0879 C6090000 		.4byte	.LASF127
 1738 087d 09       		.byte	0x9
 1739 087e 1601     		.2byte	0x116
 1740 0880 A9080000 		.4byte	0x8a9
 1741 0884 17       		.uleb128 0x17
 1742 0885 BC080000 		.4byte	.LASF128
 1743 0889 09       		.byte	0x9
 1744 088a 1E01     		.2byte	0x11e
 1745 088c D4080000 		.4byte	0x8d4
ARM GAS  C:\Users\IDONNO~1\AppData\Local\Temp\cctYQzqZ.s 			page 32


 1746 0890 17       		.uleb128 0x17
 1747 0891 20000000 		.4byte	.LASF129
 1748 0895 09       		.byte	0x9
 1749 0896 2701     		.2byte	0x127
 1750 0898 0B090000 		.4byte	0x90b
 1751 089c 17       		.uleb128 0x17
 1752 089d 99010000 		.4byte	.LASF130
 1753 08a1 09       		.byte	0x9
 1754 08a2 2F01     		.2byte	0x12f
 1755 08a4 6D020000 		.4byte	0x26d
 1756 08a8 00       		.byte	0
 1757 08a9 0E       		.uleb128 0xe
 1758 08aa 04       		.byte	0x4
 1759 08ab 9E030000 		.4byte	0x39e
 1760 08af 0B       		.uleb128 0xb
 1761 08b0 27020000 		.4byte	.LASF131
 1762 08b4 0C       		.byte	0xc
 1763 08b5 0E       		.byte	0xe
 1764 08b6 34       		.byte	0x34
 1765 08b7 D4080000 		.4byte	0x8d4
 1766 08bb 08       		.uleb128 0x8
 1767 08bc 84000000 		.4byte	.LASF132
 1768 08c0 0E       		.byte	0xe
 1769 08c1 35       		.byte	0x35
 1770 08c2 D3030000 		.4byte	0x3d3
 1771 08c6 00       		.byte	0
 1772 08c7 08       		.uleb128 0x8
 1773 08c8 AB010000 		.4byte	.LASF133
 1774 08cc 0E       		.byte	0xe
 1775 08cd 37       		.byte	0x37
 1776 08ce 78020000 		.4byte	0x278
 1777 08d2 08       		.byte	0x8
 1778 08d3 00       		.byte	0
 1779 08d4 0E       		.uleb128 0xe
 1780 08d5 04       		.byte	0x4
 1781 08d6 AF080000 		.4byte	0x8af
 1782 08da 0B       		.uleb128 0xb
 1783 08db AE040000 		.4byte	.LASF134
 1784 08df 10       		.byte	0x10
 1785 08e0 0F       		.byte	0xf
 1786 08e1 39       		.byte	0x39
 1787 08e2 0B090000 		.4byte	0x90b
 1788 08e6 08       		.uleb128 0x8
 1789 08e7 72070000 		.4byte	.LASF135
 1790 08eb 0F       		.byte	0xf
 1791 08ec 3A       		.byte	0x3a
 1792 08ed D3030000 		.4byte	0x3d3
 1793 08f1 00       		.byte	0
 1794 08f2 08       		.uleb128 0x8
 1795 08f3 7C000000 		.4byte	.LASF136
 1796 08f7 0F       		.byte	0xf
 1797 08f8 3C       		.byte	0x3c
 1798 08f9 A9030000 		.4byte	0x3a9
 1799 08fd 08       		.byte	0x8
 1800 08fe 08       		.uleb128 0x8
 1801 08ff CC090000 		.4byte	.LASF137
 1802 0903 0F       		.byte	0xf
ARM GAS  C:\Users\IDONNO~1\AppData\Local\Temp\cctYQzqZ.s 			page 33


 1803 0904 3E       		.byte	0x3e
 1804 0905 4E090000 		.4byte	0x94e
 1805 0909 0C       		.byte	0xc
 1806 090a 00       		.byte	0
 1807 090b 0E       		.uleb128 0xe
 1808 090c 04       		.byte	0x4
 1809 090d DA080000 		.4byte	0x8da
 1810 0911 0E       		.uleb128 0xe
 1811 0912 04       		.byte	0x4
 1812 0913 1E090000 		.4byte	0x91e
 1813 0917 02       		.uleb128 0x2
 1814 0918 01       		.byte	0x1
 1815 0919 08       		.byte	0x8
 1816 091a 44000000 		.4byte	.LASF138
 1817 091e 18       		.uleb128 0x18
 1818 091f 17090000 		.4byte	0x917
 1819 0923 0A       		.uleb128 0xa
 1820 0924 83020000 		.4byte	0x283
 1821 0928 0E       		.uleb128 0xe
 1822 0929 04       		.byte	0x4
 1823 092a 88040000 		.4byte	0x488
 1824 092e 0A       		.uleb128 0xa
 1825 092f 11090000 		.4byte	0x911
 1826 0933 19       		.uleb128 0x19
 1827 0934 C1060000 		.4byte	0x6c1
 1828 0938 43090000 		.4byte	0x943
 1829 093c 1A       		.uleb128 0x1a
 1830 093d D9000000 		.4byte	0xd9
 1831 0941 3A       		.byte	0x3a
 1832 0942 00       		.byte	0
 1833 0943 03       		.uleb128 0x3
 1834 0944 CC080000 		.4byte	.LASF139
 1835 0948 0F       		.byte	0xf
 1836 0949 34       		.byte	0x34
 1837 094a DA080000 		.4byte	0x8da
 1838 094e 0E       		.uleb128 0xe
 1839 094f 04       		.byte	0x4
 1840 0950 43090000 		.4byte	0x943
 1841 0954 07       		.uleb128 0x7
 1842 0955 0C       		.byte	0xc
 1843 0956 10       		.byte	0x10
 1844 0957 DA       		.byte	0xda
 1845 0958 99090000 		.4byte	0x999
 1846 095c 08       		.uleb128 0x8
 1847 095d 950A0000 		.4byte	.LASF140
 1848 0961 10       		.byte	0x10
 1849 0962 DB       		.byte	0xdb
 1850 0963 99090000 		.4byte	0x999
 1851 0967 00       		.byte	0
 1852 0968 08       		.uleb128 0x8
 1853 0969 0A020000 		.4byte	.LASF141
 1854 096d 10       		.byte	0x10
 1855 096e DC       		.byte	0xdc
 1856 096f 9F090000 		.4byte	0x99f
 1857 0973 04       		.byte	0x4
 1858 0974 08       		.uleb128 0x8
 1859 0975 19050000 		.4byte	.LASF142
ARM GAS  C:\Users\IDONNO~1\AppData\Local\Temp\cctYQzqZ.s 			page 34


 1860 0979 10       		.byte	0x10
 1861 097a DD       		.byte	0xdd
 1862 097b A2000000 		.4byte	0xa2
 1863 097f 08       		.byte	0x8
 1864 0980 08       		.uleb128 0x8
 1865 0981 720A0000 		.4byte	.LASF143
 1866 0985 10       		.byte	0x10
 1867 0986 DF       		.byte	0xdf
 1868 0987 A2000000 		.4byte	0xa2
 1869 098b 09       		.byte	0x9
 1870 098c 08       		.uleb128 0x8
 1871 098d 90020000 		.4byte	.LASF144
 1872 0991 10       		.byte	0x10
 1873 0992 E0       		.byte	0xe0
 1874 0993 A2000000 		.4byte	0xa2
 1875 0997 0A       		.byte	0xa
 1876 0998 00       		.byte	0
 1877 0999 0E       		.uleb128 0xe
 1878 099a 04       		.byte	0x4
 1879 099b 13060000 		.4byte	0x613
 1880 099f 0E       		.uleb128 0xe
 1881 09a0 04       		.byte	0x4
 1882 09a1 1B020000 		.4byte	0x21b
 1883 09a5 03       		.uleb128 0x3
 1884 09a6 2E050000 		.4byte	.LASF145
 1885 09aa 10       		.byte	0x10
 1886 09ab E1       		.byte	0xe1
 1887 09ac 54090000 		.4byte	0x954
 1888 09b0 05       		.uleb128 0x5
 1889 09b1 01       		.byte	0x1
 1890 09b2 37000000 		.4byte	0x37
 1891 09b6 11       		.byte	0x11
 1892 09b7 4C       		.byte	0x4c
 1893 09b8 E1090000 		.4byte	0x9e1
 1894 09bc 06       		.uleb128 0x6
 1895 09bd F8050000 		.4byte	.LASF146
 1896 09c1 00       		.byte	0
 1897 09c2 06       		.uleb128 0x6
 1898 09c3 C3080000 		.4byte	.LASF147
 1899 09c7 01       		.byte	0x1
 1900 09c8 06       		.uleb128 0x6
 1901 09c9 14070000 		.4byte	.LASF148
 1902 09cd 02       		.byte	0x2
 1903 09ce 06       		.uleb128 0x6
 1904 09cf E9010000 		.4byte	.LASF149
 1905 09d3 03       		.byte	0x3
 1906 09d4 06       		.uleb128 0x6
 1907 09d5 97000000 		.4byte	.LASF150
 1908 09d9 04       		.byte	0x4
 1909 09da 06       		.uleb128 0x6
 1910 09db B0070000 		.4byte	.LASF151
 1911 09df 05       		.byte	0x5
 1912 09e0 00       		.byte	0
 1913 09e1 03       		.uleb128 0x3
 1914 09e2 A9020000 		.4byte	.LASF152
 1915 09e6 11       		.byte	0x11
 1916 09e7 53       		.byte	0x53
ARM GAS  C:\Users\IDONNO~1\AppData\Local\Temp\cctYQzqZ.s 			page 35


 1917 09e8 B0090000 		.4byte	0x9b0
 1918 09ec 15       		.uleb128 0x15
 1919 09ed 99070000 		.4byte	.LASF153
 1920 09f1 12       		.byte	0x12
 1921 09f2 6A01     		.2byte	0x16a
 1922 09f4 AD000000 		.4byte	0xad
 1923 09f8 15       		.uleb128 0x15
 1924 09f9 18030000 		.4byte	.LASF154
 1925 09fd 12       		.byte	0x12
 1926 09fe 6F01     		.2byte	0x16f
 1927 0a00 C3000000 		.4byte	0xc3
 1928 0a04 1B       		.uleb128 0x1b
 1929 0a05 01       		.byte	0x1
 1930 0a06 37000000 		.4byte	0x37
 1931 0a0a 12       		.byte	0x12
 1932 0a0b 7401     		.2byte	0x174
 1933 0a0d 240A0000 		.4byte	0xa24
 1934 0a11 06       		.uleb128 0x6
 1935 0a12 D0010000 		.4byte	.LASF155
 1936 0a16 01       		.byte	0x1
 1937 0a17 06       		.uleb128 0x6
 1938 0a18 A1080000 		.4byte	.LASF156
 1939 0a1c 02       		.byte	0x2
 1940 0a1d 06       		.uleb128 0x6
 1941 0a1e DE050000 		.4byte	.LASF157
 1942 0a22 03       		.byte	0x3
 1943 0a23 00       		.byte	0
 1944 0a24 15       		.uleb128 0x15
 1945 0a25 C8000000 		.4byte	.LASF158
 1946 0a29 12       		.byte	0x12
 1947 0a2a 7801     		.2byte	0x178
 1948 0a2c 040A0000 		.4byte	0xa04
 1949 0a30 1B       		.uleb128 0x1b
 1950 0a31 01       		.byte	0x1
 1951 0a32 37000000 		.4byte	0x37
 1952 0a36 12       		.byte	0x12
 1953 0a37 7D01     		.2byte	0x17d
 1954 0a39 500A0000 		.4byte	0xa50
 1955 0a3d 06       		.uleb128 0x6
 1956 0a3e C2040000 		.4byte	.LASF159
 1957 0a42 01       		.byte	0x1
 1958 0a43 06       		.uleb128 0x6
 1959 0a44 8C060000 		.4byte	.LASF160
 1960 0a48 02       		.byte	0x2
 1961 0a49 06       		.uleb128 0x6
 1962 0a4a 57050000 		.4byte	.LASF161
 1963 0a4e 03       		.byte	0x3
 1964 0a4f 00       		.byte	0
 1965 0a50 15       		.uleb128 0x15
 1966 0a51 09030000 		.4byte	.LASF162
 1967 0a55 12       		.byte	0x12
 1968 0a56 8101     		.2byte	0x181
 1969 0a58 300A0000 		.4byte	0xa30
 1970 0a5c 14       		.uleb128 0x14
 1971 0a5d 0C       		.byte	0xc
 1972 0a5e 12       		.byte	0x12
 1973 0a5f 8601     		.2byte	0x186
ARM GAS  C:\Users\IDONNO~1\AppData\Local\Temp\cctYQzqZ.s 			page 36


 1974 0a61 8D0A0000 		.4byte	0xa8d
 1975 0a65 0D       		.uleb128 0xd
 1976 0a66 0C070000 		.4byte	.LASF163
 1977 0a6a 12       		.byte	0x12
 1978 0a6b 8801     		.2byte	0x188
 1979 0a6d 240A0000 		.4byte	0xa24
 1980 0a71 00       		.byte	0
 1981 0a72 0D       		.uleb128 0xd
 1982 0a73 69060000 		.4byte	.LASF164
 1983 0a77 12       		.byte	0x12
 1984 0a78 8901     		.2byte	0x189
 1985 0a7a C3000000 		.4byte	0xc3
 1986 0a7e 04       		.byte	0x4
 1987 0a7f 0D       		.uleb128 0xd
 1988 0a80 D1040000 		.4byte	.LASF165
 1989 0a84 12       		.byte	0x12
 1990 0a85 8C01     		.2byte	0x18c
 1991 0a87 500A0000 		.4byte	0xa50
 1992 0a8b 08       		.byte	0x8
 1993 0a8c 00       		.byte	0
 1994 0a8d 15       		.uleb128 0x15
 1995 0a8e CE020000 		.4byte	.LASF166
 1996 0a92 12       		.byte	0x12
 1997 0a93 8E01     		.2byte	0x18e
 1998 0a95 5C0A0000 		.4byte	0xa5c
 1999 0a99 15       		.uleb128 0x15
 2000 0a9a BE000000 		.4byte	.LASF167
 2001 0a9e 12       		.byte	0x12
 2002 0a9f 9301     		.2byte	0x193
 2003 0aa1 A50A0000 		.4byte	0xaa5
 2004 0aa5 0F       		.uleb128 0xf
 2005 0aa6 BE000000 		.4byte	.LASF167
 2006 0aaa 38       		.byte	0x38
 2007 0aab 12       		.byte	0x12
 2008 0aac 9801     		.2byte	0x198
 2009 0aae 420B0000 		.4byte	0xb42
 2010 0ab2 0D       		.uleb128 0xd
 2011 0ab3 8C090000 		.4byte	.LASF168
 2012 0ab7 12       		.byte	0x12
 2013 0ab8 9C01     		.2byte	0x19c
 2014 0aba E1090000 		.4byte	0x9e1
 2015 0abe 00       		.byte	0
 2016 0abf 0D       		.uleb128 0xd
 2017 0ac0 2F070000 		.4byte	.LASF169
 2018 0ac4 12       		.byte	0x12
 2019 0ac5 A001     		.2byte	0x1a0
 2020 0ac7 420B0000 		.4byte	0xb42
 2021 0acb 04       		.byte	0x4
 2022 0acc 0D       		.uleb128 0xd
 2023 0acd A2020000 		.4byte	.LASF170
 2024 0ad1 12       		.byte	0x12
 2025 0ad2 A401     		.2byte	0x1a4
 2026 0ad4 F8090000 		.4byte	0x9f8
 2027 0ad8 08       		.byte	0x8
 2028 0ad9 0D       		.uleb128 0xd
 2029 0ada 1C020000 		.4byte	.LASF171
 2030 0ade 12       		.byte	0x12
ARM GAS  C:\Users\IDONNO~1\AppData\Local\Temp\cctYQzqZ.s 			page 37


 2031 0adf A901     		.2byte	0x1a9
 2032 0ae1 43090000 		.4byte	0x943
 2033 0ae5 0C       		.byte	0xc
 2034 0ae6 0D       		.uleb128 0xd
 2035 0ae7 B5080000 		.4byte	.LASF172
 2036 0aeb 12       		.byte	0x12
 2037 0aec B201     		.2byte	0x1b2
 2038 0aee 9E030000 		.4byte	0x39e
 2039 0af2 1C       		.byte	0x1c
 2040 0af3 0D       		.uleb128 0xd
 2041 0af4 70090000 		.4byte	.LASF173
 2042 0af8 12       		.byte	0x12
 2043 0af9 B601     		.2byte	0x1b6
 2044 0afb EC090000 		.4byte	0x9ec
 2045 0aff 20       		.byte	0x20
 2046 0b00 0D       		.uleb128 0xd
 2047 0b01 39090000 		.4byte	.LASF174
 2048 0b05 12       		.byte	0x12
 2049 0b06 BA01     		.2byte	0x1ba
 2050 0b08 C3000000 		.4byte	0xc3
 2051 0b0c 24       		.byte	0x24
 2052 0b0d 0D       		.uleb128 0xd
 2053 0b0e 0F050000 		.4byte	.LASF175
 2054 0b12 12       		.byte	0x12
 2055 0b13 BE01     		.2byte	0x1be
 2056 0b15 C3000000 		.4byte	0xc3
 2057 0b19 28       		.byte	0x28
 2058 0b1a 0D       		.uleb128 0xd
 2059 0b1b 76000000 		.4byte	.LASF176
 2060 0b1f 12       		.byte	0x12
 2061 0b20 C201     		.2byte	0x1c2
 2062 0b22 4D0B0000 		.4byte	0xb4d
 2063 0b26 2C       		.byte	0x2c
 2064 0b27 0D       		.uleb128 0xd
 2065 0b28 C1010000 		.4byte	.LASF177
 2066 0b2c 12       		.byte	0x12
 2067 0b2d C601     		.2byte	0x1c6
 2068 0b2f 4D0B0000 		.4byte	0xb4d
 2069 0b33 30       		.byte	0x30
 2070 0b34 0C       		.uleb128 0xc
 2071 0b35 69326300 		.ascii	"i2c\000"
 2072 0b39 12       		.byte	0x12
 2073 0b3a CA01     		.2byte	0x1ca
 2074 0b3c 580B0000 		.4byte	0xb58
 2075 0b40 34       		.byte	0x34
 2076 0b41 00       		.byte	0
 2077 0b42 0E       		.uleb128 0xe
 2078 0b43 04       		.byte	0x4
 2079 0b44 480B0000 		.4byte	0xb48
 2080 0b48 18       		.uleb128 0x18
 2081 0b49 8D0A0000 		.4byte	0xa8d
 2082 0b4d 0E       		.uleb128 0xe
 2083 0b4e 04       		.byte	0x4
 2084 0b4f 530B0000 		.4byte	0xb53
 2085 0b53 18       		.uleb128 0x18
 2086 0b54 A5090000 		.4byte	0x9a5
 2087 0b58 0E       		.uleb128 0xe
ARM GAS  C:\Users\IDONNO~1\AppData\Local\Temp\cctYQzqZ.s 			page 38


 2088 0b59 04       		.byte	0x4
 2089 0b5a AA060000 		.4byte	0x6aa
 2090 0b5e 02       		.uleb128 0x2
 2091 0b5f 08       		.byte	0x8
 2092 0b60 04       		.byte	0x4
 2093 0b61 460A0000 		.4byte	.LASF178
 2094 0b65 02       		.uleb128 0x2
 2095 0b66 08       		.byte	0x8
 2096 0b67 04       		.byte	0x4
 2097 0b68 C9060000 		.4byte	.LASF179
 2098 0b6c 1C       		.uleb128 0x1c
 2099 0b6d F1060000 		.4byte	.LASF216
 2100 0b71 02       		.byte	0x2
 2101 0b72 84       		.byte	0x84
 2102 0b73 03       		.byte	0x3
 2103 0b74 840B0000 		.4byte	0xb84
 2104 0b78 1D       		.uleb128 0x1d
 2105 0b79 FA070000 		.4byte	.LASF217
 2106 0b7d 02       		.byte	0x2
 2107 0b7e 84       		.byte	0x84
 2108 0b7f 11090000 		.4byte	0x911
 2109 0b83 00       		.byte	0
 2110 0b84 1E       		.uleb128 0x1e
 2111 0b85 E3060000 		.4byte	.LASF185
 2112 0b89 01       		.byte	0x1
 2113 0b8a AC       		.byte	0xac
 2114 0b8b 00000000 		.4byte	.LFB261
 2115 0b8f 44000000 		.4byte	.LFE261-.LFB261
 2116 0b93 01       		.uleb128 0x1
 2117 0b94 9C       		.byte	0x9c
 2118 0b95 010C0000 		.4byte	0xc01
 2119 0b99 1F       		.uleb128 0x1f
 2120 0b9a 61726700 		.ascii	"arg\000"
 2121 0b9e 01       		.byte	0x1
 2122 0b9f AC       		.byte	0xac
 2123 0ba0 86040000 		.4byte	0x486
 2124 0ba4 00000000 		.4byte	.LLST0
 2125 0ba8 20       		.uleb128 0x20
 2126 0ba9 6C0B0000 		.4byte	0xb6c
 2127 0bad 02000000 		.4byte	.LBB9
 2128 0bb1 0C000000 		.4byte	.LBE9-.LBB9
 2129 0bb5 01       		.byte	0x1
 2130 0bb6 AF       		.byte	0xaf
 2131 0bb7 C80B0000 		.4byte	0xbc8
 2132 0bbb 21       		.uleb128 0x21
 2133 0bbc 780B0000 		.4byte	0xb78
 2134 0bc0 06       		.uleb128 0x6
 2135 0bc1 03       		.byte	0x3
 2136 0bc2 00000000 		.4byte	.LC0
 2137 0bc6 9F       		.byte	0x9f
 2138 0bc7 00       		.byte	0
 2139 0bc8 22       		.uleb128 0x22
 2140 0bc9 14000000 		.4byte	.LVL2
 2141 0bcd 43100000 		.4byte	0x1043
 2142 0bd1 DB0B0000 		.4byte	0xbdb
 2143 0bd5 23       		.uleb128 0x23
 2144 0bd6 01       		.uleb128 0x1
ARM GAS  C:\Users\IDONNO~1\AppData\Local\Temp\cctYQzqZ.s 			page 39


 2145 0bd7 50       		.byte	0x50
 2146 0bd8 01       		.uleb128 0x1
 2147 0bd9 3A       		.byte	0x3a
 2148 0bda 00       		.byte	0
 2149 0bdb 24       		.uleb128 0x24
 2150 0bdc 18000000 		.4byte	.LVL3
 2151 0be0 4E100000 		.4byte	0x104e
 2152 0be4 22       		.uleb128 0x22
 2153 0be5 2A000000 		.4byte	.LVL4
 2154 0be9 43100000 		.4byte	0x1043
 2155 0bed F70B0000 		.4byte	0xbf7
 2156 0bf1 23       		.uleb128 0x23
 2157 0bf2 01       		.uleb128 0x1
 2158 0bf3 50       		.byte	0x50
 2159 0bf4 01       		.uleb128 0x1
 2160 0bf5 3A       		.byte	0x3a
 2161 0bf6 00       		.byte	0
 2162 0bf7 24       		.uleb128 0x24
 2163 0bf8 2E000000 		.4byte	.LVL5
 2164 0bfc 4E100000 		.4byte	0x104e
 2165 0c00 00       		.byte	0
 2166 0c01 25       		.uleb128 0x25
 2167 0c02 DF090000 		.4byte	.LASF181
 2168 0c06 01       		.byte	0x1
 2169 0c07 3A       		.byte	0x3a
 2170 0c08 00000000 		.4byte	.LFB256
 2171 0c0c 1C000000 		.4byte	.LFE256-.LFB256
 2172 0c10 01       		.uleb128 0x1
 2173 0c11 9C       		.byte	0x9c
 2174 0c12 260C0000 		.4byte	0xc26
 2175 0c16 26       		.uleb128 0x26
 2176 0c17 3F000000 		.4byte	.LASF180
 2177 0c1b 01       		.byte	0x1
 2178 0c1c 3A       		.byte	0x3a
 2179 0c1d 260C0000 		.4byte	0xc26
 2180 0c21 21000000 		.4byte	.LLST1
 2181 0c25 00       		.byte	0
 2182 0c26 0E       		.uleb128 0xe
 2183 0c27 04       		.byte	0x4
 2184 0c28 98010000 		.4byte	0x198
 2185 0c2c 25       		.uleb128 0x25
 2186 0c2d 55070000 		.4byte	.LASF182
 2187 0c31 01       		.byte	0x1
 2188 0c32 3E       		.byte	0x3e
 2189 0c33 00000000 		.4byte	.LFB257
 2190 0c37 2C000000 		.4byte	.LFE257-.LFB257
 2191 0c3b 01       		.uleb128 0x1
 2192 0c3c 9C       		.byte	0x9c
 2193 0c3d 710C0000 		.4byte	0xc71
 2194 0c41 27       		.uleb128 0x27
 2195 0c42 1C000000 		.4byte	.LVL10
 2196 0c46 59100000 		.4byte	0x1059
 2197 0c4a 23       		.uleb128 0x23
 2198 0c4b 01       		.uleb128 0x1
 2199 0c4c 50       		.byte	0x50
 2200 0c4d 05       		.uleb128 0x5
 2201 0c4e 03       		.byte	0x3
ARM GAS  C:\Users\IDONNO~1\AppData\Local\Temp\cctYQzqZ.s 			page 40


 2202 0c4f 00000000 		.4byte	.LANCHOR3
 2203 0c53 23       		.uleb128 0x23
 2204 0c54 01       		.uleb128 0x1
 2205 0c55 51       		.byte	0x51
 2206 0c56 03       		.uleb128 0x3
 2207 0c57 0A       		.byte	0xa
 2208 0c58 9805     		.2byte	0x598
 2209 0c5a 23       		.uleb128 0x23
 2210 0c5b 01       		.uleb128 0x1
 2211 0c5c 52       		.byte	0x52
 2212 0c5d 02       		.uleb128 0x2
 2213 0c5e 08       		.byte	0x8
 2214 0c5f 40       		.byte	0x40
 2215 0c60 23       		.uleb128 0x23
 2216 0c61 01       		.uleb128 0x1
 2217 0c62 53       		.byte	0x53
 2218 0c63 05       		.uleb128 0x5
 2219 0c64 03       		.byte	0x3
 2220 0c65 00000000 		.4byte	chuk_thread
 2221 0c69 23       		.uleb128 0x23
 2222 0c6a 02       		.uleb128 0x2
 2223 0c6b 7D       		.byte	0x7d
 2224 0c6c 00       		.sleb128 0
 2225 0c6d 01       		.uleb128 0x1
 2226 0c6e 30       		.byte	0x30
 2227 0c6f 00       		.byte	0
 2228 0c70 00       		.byte	0
 2229 0c71 28       		.uleb128 0x28
 2230 0c72 0C080000 		.4byte	.LASF218
 2231 0c76 01       		.byte	0x1
 2232 0c77 43       		.byte	0x43
 2233 0c78 E7000000 		.4byte	0xe7
 2234 0c7c 00000000 		.4byte	.LFB258
 2235 0c80 28000000 		.4byte	.LFE258-.LFB258
 2236 0c84 01       		.uleb128 0x1
 2237 0c85 9C       		.byte	0x9c
 2238 0c86 25       		.uleb128 0x25
 2239 0c87 0E0A0000 		.4byte	.LASF183
 2240 0c8b 01       		.byte	0x1
 2241 0c8c 47       		.byte	0x47
 2242 0c8d 00000000 		.4byte	.LFB259
 2243 0c91 54000000 		.4byte	.LFE259-.LFB259
 2244 0c95 01       		.uleb128 0x1
 2245 0c96 9C       		.byte	0x9c
 2246 0c97 E10C0000 		.4byte	0xce1
 2247 0c9b 26       		.uleb128 0x26
 2248 0c9c 29050000 		.4byte	.LASF184
 2249 0ca0 01       		.byte	0x1
 2250 0ca1 47       		.byte	0x47
 2251 0ca2 E10C0000 		.4byte	0xce1
 2252 0ca6 5C000000 		.4byte	.LLST2
 2253 0caa 22       		.uleb128 0x22
 2254 0cab 2A000000 		.4byte	.LVL13
 2255 0caf 59100000 		.4byte	0x1059
 2256 0cb3 D70C0000 		.4byte	0xcd7
 2257 0cb7 23       		.uleb128 0x23
 2258 0cb8 01       		.uleb128 0x1
ARM GAS  C:\Users\IDONNO~1\AppData\Local\Temp\cctYQzqZ.s 			page 41


 2259 0cb9 50       		.byte	0x50
 2260 0cba 05       		.uleb128 0x5
 2261 0cbb 03       		.byte	0x3
 2262 0cbc 00000000 		.4byte	.LANCHOR5
 2263 0cc0 23       		.uleb128 0x23
 2264 0cc1 01       		.uleb128 0x1
 2265 0cc2 51       		.byte	0x51
 2266 0cc3 03       		.uleb128 0x3
 2267 0cc4 0A       		.byte	0xa
 2268 0cc5 9805     		.2byte	0x598
 2269 0cc7 23       		.uleb128 0x23
 2270 0cc8 01       		.uleb128 0x1
 2271 0cc9 52       		.byte	0x52
 2272 0cca 02       		.uleb128 0x2
 2273 0ccb 08       		.byte	0x8
 2274 0ccc 40       		.byte	0x40
 2275 0ccd 23       		.uleb128 0x23
 2276 0cce 01       		.uleb128 0x1
 2277 0ccf 53       		.byte	0x53
 2278 0cd0 05       		.uleb128 0x5
 2279 0cd1 03       		.byte	0x3
 2280 0cd2 00000000 		.4byte	output_thread
 2281 0cd6 00       		.byte	0
 2282 0cd7 29       		.uleb128 0x29
 2283 0cd8 42000000 		.4byte	.LVL16
 2284 0cdc 64100000 		.4byte	0x1064
 2285 0ce0 00       		.byte	0
 2286 0ce1 0E       		.uleb128 0xe
 2287 0ce2 04       		.byte	0x4
 2288 0ce3 00020000 		.4byte	0x200
 2289 0ce7 1E       		.uleb128 0x1e
 2290 0ce8 98040000 		.4byte	.LASF186
 2291 0cec 01       		.byte	0x1
 2292 0ced 52       		.byte	0x52
 2293 0cee 00000000 		.4byte	.LFB260
 2294 0cf2 B4010000 		.4byte	.LFE260-.LFB260
 2295 0cf6 01       		.uleb128 0x1
 2296 0cf7 9C       		.byte	0x9c
 2297 0cf8 650F0000 		.4byte	0xf65
 2298 0cfc 1F       		.uleb128 0x1f
 2299 0cfd 61726700 		.ascii	"arg\000"
 2300 0d01 01       		.byte	0x1
 2301 0d02 52       		.byte	0x52
 2302 0d03 86040000 		.4byte	0x486
 2303 0d07 95000000 		.4byte	.LLST3
 2304 0d0b 2A       		.uleb128 0x2a
 2305 0d0c 7C0A0000 		.4byte	.LASF187
 2306 0d10 01       		.byte	0x1
 2307 0d11 58       		.byte	0x58
 2308 0d12 650F0000 		.4byte	0xf65
 2309 0d16 03       		.uleb128 0x3
 2310 0d17 91       		.byte	0x91
 2311 0d18 A87F     		.sleb128 -88
 2312 0d1a 2A       		.uleb128 0x2a
 2313 0d1b EC020000 		.4byte	.LASF188
 2314 0d1f 01       		.byte	0x1
 2315 0d20 59       		.byte	0x59
ARM GAS  C:\Users\IDONNO~1\AppData\Local\Temp\cctYQzqZ.s 			page 42


 2316 0d21 650F0000 		.4byte	0xf65
 2317 0d25 03       		.uleb128 0x3
 2318 0d26 91       		.byte	0x91
 2319 0d27 B47F     		.sleb128 -76
 2320 0d29 2B       		.uleb128 0x2b
 2321 0d2a BB070000 		.4byte	.LASF189
 2322 0d2e 01       		.byte	0x1
 2323 0d2f 5A       		.byte	0x5a
 2324 0d30 62020000 		.4byte	0x262
 2325 0d34 B6000000 		.4byte	.LLST4
 2326 0d38 2C       		.uleb128 0x2c
 2327 0d39 746D6F00 		.ascii	"tmo\000"
 2328 0d3d 01       		.byte	0x1
 2329 0d3e 5B       		.byte	0x5b
 2330 0d3f 83020000 		.4byte	0x283
 2331 0d43 32       		.byte	0x32
 2332 0d44 2D       		.uleb128 0x2d
 2333 0d45 97020000 		.4byte	.LASF190
 2334 0d49 01       		.byte	0x1
 2335 0d4a 5C       		.byte	0x5c
 2336 0d4b EC090000 		.4byte	0x9ec
 2337 0d4f 52       		.byte	0x52
 2338 0d50 2A       		.uleb128 0x2a
 2339 0d51 D8020000 		.4byte	.LASF191
 2340 0d55 01       		.byte	0x1
 2341 0d56 5D       		.byte	0x5d
 2342 0d57 00020000 		.4byte	0x200
 2343 0d5b 02       		.uleb128 0x2
 2344 0d5c 91       		.byte	0x91
 2345 0d5d 40       		.sleb128 -64
 2346 0d5e 2E       		.uleb128 0x2e
 2347 0d5f 6C0B0000 		.4byte	0xb6c
 2348 0d63 04000000 		.4byte	.LBB11
 2349 0d67 00000000 		.4byte	.Ldebug_ranges0+0
 2350 0d6b 01       		.byte	0x1
 2351 0d6c 55       		.byte	0x55
 2352 0d6d 7B0D0000 		.4byte	0xd7b
 2353 0d71 2F       		.uleb128 0x2f
 2354 0d72 780B0000 		.4byte	0xb78
 2355 0d76 22010000 		.4byte	.LLST5
 2356 0d7a 00       		.byte	0
 2357 0d7b 30       		.uleb128 0x30
 2358 0d7c 2A000000 		.4byte	.LBB15
 2359 0d80 8A010000 		.4byte	.LBE15-.LBB15
 2360 0d84 4B0F0000 		.4byte	0xf4b
 2361 0d88 2B       		.uleb128 0x2b
 2362 0d89 2E080000 		.4byte	.LASF192
 2363 0d8d 01       		.byte	0x1
 2364 0d8e 63       		.byte	0x63
 2365 0d8f E0000000 		.4byte	0xe0
 2366 0d93 3A010000 		.4byte	.LLST6
 2367 0d97 30       		.uleb128 0x30
 2368 0d98 0E010000 		.4byte	.LBB16
 2369 0d9c A6000000 		.4byte	.LBE16-.LBB16
 2370 0da0 F90D0000 		.4byte	0xdf9
 2371 0da4 2A       		.uleb128 0x2a
 2372 0da5 4C080000 		.4byte	.LASF193
ARM GAS  C:\Users\IDONNO~1\AppData\Local\Temp\cctYQzqZ.s 			page 43


 2373 0da9 01       		.byte	0x1
 2374 0daa 87       		.byte	0x87
 2375 0dab 750F0000 		.4byte	0xf75
 2376 0daf 05       		.uleb128 0x5
 2377 0db0 03       		.byte	0x3
 2378 0db1 00000000 		.4byte	last_buffer.10399
 2379 0db5 2B       		.uleb128 0x2b
 2380 0db6 D4000000 		.4byte	.LASF194
 2381 0dba 01       		.byte	0x1
 2382 0dbb 88       		.byte	0x88
 2383 0dbc 94000000 		.4byte	0x94
 2384 0dc0 8A010000 		.4byte	.LLST7
 2385 0dc4 30       		.uleb128 0x30
 2386 0dc5 0E010000 		.4byte	.LBB17
 2387 0dc9 12000000 		.4byte	.LBE17-.LBB17
 2388 0dcd DF0D0000 		.4byte	0xddf
 2389 0dd1 31       		.uleb128 0x31
 2390 0dd2 6900     		.ascii	"i\000"
 2391 0dd4 01       		.byte	0x1
 2392 0dd5 8A       		.byte	0x8a
 2393 0dd6 94000000 		.4byte	0x94
 2394 0dda B7010000 		.4byte	.LLST8
 2395 0dde 00       		.byte	0
 2396 0ddf 24       		.uleb128 0x24
 2397 0de0 32010000 		.4byte	.LVL51
 2398 0de4 4E100000 		.4byte	0x104e
 2399 0de8 27       		.uleb128 0x27
 2400 0de9 9A010000 		.4byte	.LVL55
 2401 0ded 860C0000 		.4byte	0xc86
 2402 0df1 23       		.uleb128 0x23
 2403 0df2 01       		.uleb128 0x1
 2404 0df3 50       		.byte	0x50
 2405 0df4 02       		.uleb128 0x2
 2406 0df5 91       		.byte	0x91
 2407 0df6 40       		.sleb128 -64
 2408 0df7 00       		.byte	0
 2409 0df8 00       		.byte	0
 2410 0df9 24       		.uleb128 0x24
 2411 0dfa 38000000 		.4byte	.LVL23
 2412 0dfe 6F100000 		.4byte	0x106f
 2413 0e02 22       		.uleb128 0x22
 2414 0e03 40000000 		.4byte	.LVL24
 2415 0e07 43100000 		.4byte	0x1043
 2416 0e0b 170E0000 		.4byte	0xe17
 2417 0e0f 23       		.uleb128 0x23
 2418 0e10 01       		.uleb128 0x1
 2419 0e11 50       		.byte	0x50
 2420 0e12 03       		.uleb128 0x3
 2421 0e13 0A       		.byte	0xa
 2422 0e14 E803     		.2byte	0x3e8
 2423 0e16 00       		.byte	0
 2424 0e17 22       		.uleb128 0x22
 2425 0e18 46000000 		.4byte	.LVL25
 2426 0e1c 43100000 		.4byte	0x1043
 2427 0e20 2B0E0000 		.4byte	0xe2b
 2428 0e24 23       		.uleb128 0x23
 2429 0e25 01       		.uleb128 0x1
ARM GAS  C:\Users\IDONNO~1\AppData\Local\Temp\cctYQzqZ.s 			page 44


 2430 0e26 50       		.byte	0x50
 2431 0e27 02       		.uleb128 0x2
 2432 0e28 08       		.byte	0x8
 2433 0e29 64       		.byte	0x64
 2434 0e2a 00       		.byte	0
 2435 0e2b 24       		.uleb128 0x24
 2436 0e2c 58000000 		.4byte	.LVL26
 2437 0e30 7A100000 		.4byte	0x107a
 2438 0e34 22       		.uleb128 0x22
 2439 0e35 6E000000 		.4byte	.LVL27
 2440 0e39 85100000 		.4byte	0x1085
 2441 0e3d 680E0000 		.4byte	0xe68
 2442 0e41 23       		.uleb128 0x23
 2443 0e42 01       		.uleb128 0x1
 2444 0e43 51       		.byte	0x51
 2445 0e44 02       		.uleb128 0x2
 2446 0e45 08       		.byte	0x8
 2447 0e46 52       		.byte	0x52
 2448 0e47 23       		.uleb128 0x23
 2449 0e48 01       		.uleb128 0x1
 2450 0e49 52       		.byte	0x52
 2451 0e4a 03       		.uleb128 0x3
 2452 0e4b 91       		.byte	0x91
 2453 0e4c B47F     		.sleb128 -76
 2454 0e4e 23       		.uleb128 0x23
 2455 0e4f 01       		.uleb128 0x1
 2456 0e50 53       		.byte	0x53
 2457 0e51 01       		.uleb128 0x1
 2458 0e52 32       		.byte	0x32
 2459 0e53 23       		.uleb128 0x23
 2460 0e54 02       		.uleb128 0x2
 2461 0e55 7D       		.byte	0x7d
 2462 0e56 00       		.sleb128 0
 2463 0e57 02       		.uleb128 0x2
 2464 0e58 74       		.byte	0x74
 2465 0e59 00       		.sleb128 0
 2466 0e5a 23       		.uleb128 0x23
 2467 0e5b 02       		.uleb128 0x2
 2468 0e5c 7D       		.byte	0x7d
 2469 0e5d 04       		.sleb128 4
 2470 0e5e 01       		.uleb128 0x1
 2471 0e5f 30       		.byte	0x30
 2472 0e60 23       		.uleb128 0x23
 2473 0e61 02       		.uleb128 0x2
 2474 0e62 7D       		.byte	0x7d
 2475 0e63 08       		.sleb128 8
 2476 0e64 02       		.uleb128 0x2
 2477 0e65 7A       		.byte	0x7a
 2478 0e66 00       		.sleb128 0
 2479 0e67 00       		.byte	0
 2480 0e68 24       		.uleb128 0x24
 2481 0e69 76000000 		.4byte	.LVL30
 2482 0e6d 90100000 		.4byte	0x1090
 2483 0e71 24       		.uleb128 0x24
 2484 0e72 8C000000 		.4byte	.LVL31
 2485 0e76 7A100000 		.4byte	0x107a
 2486 0e7a 22       		.uleb128 0x22
ARM GAS  C:\Users\IDONNO~1\AppData\Local\Temp\cctYQzqZ.s 			page 45


 2487 0e7b A0000000 		.4byte	.LVL32
 2488 0e7f 85100000 		.4byte	0x1085
 2489 0e83 AF0E0000 		.4byte	0xeaf
 2490 0e87 23       		.uleb128 0x23
 2491 0e88 01       		.uleb128 0x1
 2492 0e89 51       		.byte	0x51
 2493 0e8a 02       		.uleb128 0x2
 2494 0e8b 08       		.byte	0x8
 2495 0e8c 52       		.byte	0x52
 2496 0e8d 23       		.uleb128 0x23
 2497 0e8e 01       		.uleb128 0x1
 2498 0e8f 52       		.byte	0x52
 2499 0e90 03       		.uleb128 0x3
 2500 0e91 91       		.byte	0x91
 2501 0e92 B47F     		.sleb128 -76
 2502 0e94 23       		.uleb128 0x23
 2503 0e95 01       		.uleb128 0x1
 2504 0e96 53       		.byte	0x53
 2505 0e97 01       		.uleb128 0x1
 2506 0e98 32       		.byte	0x32
 2507 0e99 23       		.uleb128 0x23
 2508 0e9a 02       		.uleb128 0x2
 2509 0e9b 7D       		.byte	0x7d
 2510 0e9c 00       		.sleb128 0
 2511 0e9d 02       		.uleb128 0x2
 2512 0e9e 74       		.byte	0x74
 2513 0e9f 00       		.sleb128 0
 2514 0ea0 23       		.uleb128 0x23
 2515 0ea1 02       		.uleb128 0x2
 2516 0ea2 7D       		.byte	0x7d
 2517 0ea3 04       		.sleb128 4
 2518 0ea4 02       		.uleb128 0x2
 2519 0ea5 7B       		.byte	0x7b
 2520 0ea6 00       		.sleb128 0
 2521 0ea7 23       		.uleb128 0x23
 2522 0ea8 02       		.uleb128 0x2
 2523 0ea9 7D       		.byte	0x7d
 2524 0eaa 08       		.sleb128 8
 2525 0eab 02       		.uleb128 0x2
 2526 0eac 7A       		.byte	0x7a
 2527 0ead 00       		.sleb128 0
 2528 0eae 00       		.byte	0
 2529 0eaf 24       		.uleb128 0x24
 2530 0eb0 A8000000 		.4byte	.LVL35
 2531 0eb4 90100000 		.4byte	0x1090
 2532 0eb8 24       		.uleb128 0x24
 2533 0eb9 B8000000 		.4byte	.LVL36
 2534 0ebd 7A100000 		.4byte	0x107a
 2535 0ec1 22       		.uleb128 0x22
 2536 0ec2 CC000000 		.4byte	.LVL37
 2537 0ec6 85100000 		.4byte	0x1085
 2538 0eca F60E0000 		.4byte	0xef6
 2539 0ece 23       		.uleb128 0x23
 2540 0ecf 01       		.uleb128 0x1
 2541 0ed0 51       		.byte	0x51
 2542 0ed1 02       		.uleb128 0x2
 2543 0ed2 08       		.byte	0x8
ARM GAS  C:\Users\IDONNO~1\AppData\Local\Temp\cctYQzqZ.s 			page 46


 2544 0ed3 52       		.byte	0x52
 2545 0ed4 23       		.uleb128 0x23
 2546 0ed5 01       		.uleb128 0x1
 2547 0ed6 52       		.byte	0x52
 2548 0ed7 03       		.uleb128 0x3
 2549 0ed8 91       		.byte	0x91
 2550 0ed9 B47F     		.sleb128 -76
 2551 0edb 23       		.uleb128 0x23
 2552 0edc 01       		.uleb128 0x1
 2553 0edd 53       		.byte	0x53
 2554 0ede 01       		.uleb128 0x1
 2555 0edf 31       		.byte	0x31
 2556 0ee0 23       		.uleb128 0x23
 2557 0ee1 02       		.uleb128 0x2
 2558 0ee2 7D       		.byte	0x7d
 2559 0ee3 00       		.sleb128 0
 2560 0ee4 02       		.uleb128 0x2
 2561 0ee5 74       		.byte	0x74
 2562 0ee6 00       		.sleb128 0
 2563 0ee7 23       		.uleb128 0x23
 2564 0ee8 02       		.uleb128 0x2
 2565 0ee9 7D       		.byte	0x7d
 2566 0eea 04       		.sleb128 4
 2567 0eeb 02       		.uleb128 0x2
 2568 0eec 7B       		.byte	0x7b
 2569 0eed 00       		.sleb128 0
 2570 0eee 23       		.uleb128 0x23
 2571 0eef 02       		.uleb128 0x2
 2572 0ef0 7D       		.byte	0x7d
 2573 0ef1 08       		.sleb128 8
 2574 0ef2 02       		.uleb128 0x2
 2575 0ef3 7A       		.byte	0x7a
 2576 0ef4 00       		.sleb128 0
 2577 0ef5 00       		.byte	0
 2578 0ef6 24       		.uleb128 0x24
 2579 0ef7 D4000000 		.4byte	.LVL40
 2580 0efb 90100000 		.4byte	0x1090
 2581 0eff 22       		.uleb128 0x22
 2582 0f00 E0000000 		.4byte	.LVL41
 2583 0f04 43100000 		.4byte	0x1043
 2584 0f08 120F0000 		.4byte	0xf12
 2585 0f0c 23       		.uleb128 0x23
 2586 0f0d 01       		.uleb128 0x1
 2587 0f0e 50       		.byte	0x50
 2588 0f0f 01       		.uleb128 0x1
 2589 0f10 4E       		.byte	0x4e
 2590 0f11 00       		.byte	0
 2591 0f12 24       		.uleb128 0x24
 2592 0f13 E6000000 		.4byte	.LVL42
 2593 0f17 7A100000 		.4byte	0x107a
 2594 0f1b 22       		.uleb128 0x22
 2595 0f1c F6000000 		.4byte	.LVL43
 2596 0f20 9B100000 		.4byte	0x109b
 2597 0f24 410F0000 		.4byte	0xf41
 2598 0f28 23       		.uleb128 0x23
 2599 0f29 01       		.uleb128 0x1
 2600 0f2a 51       		.byte	0x51
ARM GAS  C:\Users\IDONNO~1\AppData\Local\Temp\cctYQzqZ.s 			page 47


 2601 0f2b 02       		.uleb128 0x2
 2602 0f2c 08       		.byte	0x8
 2603 0f2d 52       		.byte	0x52
 2604 0f2e 23       		.uleb128 0x23
 2605 0f2f 01       		.uleb128 0x1
 2606 0f30 52       		.byte	0x52
 2607 0f31 02       		.uleb128 0x2
 2608 0f32 74       		.byte	0x74
 2609 0f33 00       		.sleb128 0
 2610 0f34 23       		.uleb128 0x23
 2611 0f35 01       		.uleb128 0x1
 2612 0f36 53       		.byte	0x53
 2613 0f37 01       		.uleb128 0x1
 2614 0f38 36       		.byte	0x36
 2615 0f39 23       		.uleb128 0x23
 2616 0f3a 02       		.uleb128 0x2
 2617 0f3b 7D       		.byte	0x7d
 2618 0f3c 00       		.sleb128 0
 2619 0f3d 02       		.uleb128 0x2
 2620 0f3e 7A       		.byte	0x7a
 2621 0f3f 00       		.sleb128 0
 2622 0f40 00       		.byte	0
 2623 0f41 24       		.uleb128 0x24
 2624 0f42 FE000000 		.4byte	.LVL46
 2625 0f46 90100000 		.4byte	0x1090
 2626 0f4a 00       		.byte	0
 2627 0f4b 24       		.uleb128 0x24
 2628 0f4c 1C000000 		.4byte	.LVL20
 2629 0f50 A6100000 		.4byte	0x10a6
 2630 0f54 27       		.uleb128 0x27
 2631 0f55 22000000 		.4byte	.LVL21
 2632 0f59 43100000 		.4byte	0x1043
 2633 0f5d 23       		.uleb128 0x23
 2634 0f5e 01       		.uleb128 0x1
 2635 0f5f 50       		.byte	0x50
 2636 0f60 02       		.uleb128 0x2
 2637 0f61 08       		.byte	0x8
 2638 0f62 64       		.byte	0x64
 2639 0f63 00       		.byte	0
 2640 0f64 00       		.byte	0
 2641 0f65 19       		.uleb128 0x19
 2642 0f66 A2000000 		.4byte	0xa2
 2643 0f6a 750F0000 		.4byte	0xf75
 2644 0f6e 1A       		.uleb128 0x1a
 2645 0f6f D9000000 		.4byte	0xd9
 2646 0f73 09       		.byte	0x9
 2647 0f74 00       		.byte	0
 2648 0f75 19       		.uleb128 0x19
 2649 0f76 A2000000 		.4byte	0xa2
 2650 0f7a 850F0000 		.4byte	0xf85
 2651 0f7e 1A       		.uleb128 0x1a
 2652 0f7f D9000000 		.4byte	0xd9
 2653 0f83 05       		.byte	0x5
 2654 0f84 00       		.byte	0
 2655 0f85 19       		.uleb128 0x19
 2656 0f86 C1060000 		.4byte	0x6c1
 2657 0f8a 950F0000 		.4byte	0xf95
ARM GAS  C:\Users\IDONNO~1\AppData\Local\Temp\cctYQzqZ.s 			page 48


 2658 0f8e 1A       		.uleb128 0x1a
 2659 0f8f D9000000 		.4byte	0xd9
 2660 0f93 B2       		.byte	0xb2
 2661 0f94 00       		.byte	0
 2662 0f95 2A       		.uleb128 0x2a
 2663 0f96 BF020000 		.4byte	.LASF195
 2664 0f9a 01       		.byte	0x1
 2665 0f9b 2F       		.byte	0x2f
 2666 0f9c 850F0000 		.4byte	0xf85
 2667 0fa0 05       		.uleb128 0x5
 2668 0fa1 03       		.byte	0x3
 2669 0fa2 00000000 		.4byte	chuk_thread_wa
 2670 0fa6 2A       		.uleb128 0x2a
 2671 0fa7 1E070000 		.4byte	.LASF196
 2672 0fab 01       		.byte	0x1
 2673 0fac 31       		.byte	0x31
 2674 0fad 850F0000 		.4byte	0xf85
 2675 0fb1 05       		.uleb128 0x5
 2676 0fb2 03       		.byte	0x3
 2677 0fb3 00000000 		.4byte	output_thread_wa
 2678 0fb7 2A       		.uleb128 0x2a
 2679 0fb8 A0010000 		.4byte	.LASF197
 2680 0fbc 01       		.byte	0x1
 2681 0fbd 34       		.byte	0x34
 2682 0fbe C80F0000 		.4byte	0xfc8
 2683 0fc2 05       		.uleb128 0x5
 2684 0fc3 03       		.byte	0x3
 2685 0fc4 00000000 		.4byte	is_running
 2686 0fc8 0A       		.uleb128 0xa
 2687 0fc9 E0000000 		.4byte	0xe0
 2688 0fcd 2A       		.uleb128 0x2a
 2689 0fce E8070000 		.4byte	.LASF198
 2690 0fd2 01       		.byte	0x1
 2691 0fd3 35       		.byte	0x35
 2692 0fd4 DE0F0000 		.4byte	0xfde
 2693 0fd8 05       		.uleb128 0x5
 2694 0fd9 03       		.byte	0x3
 2695 0fda 00000000 		.4byte	chuck_d
 2696 0fde 0A       		.uleb128 0xa
 2697 0fdf 00020000 		.4byte	0x200
 2698 0fe3 2A       		.uleb128 0x2a
 2699 0fe4 6D020000 		.4byte	.LASF199
 2700 0fe8 01       		.byte	0x1
 2701 0fe9 36       		.byte	0x36
 2702 0fea F40F0000 		.4byte	0xff4
 2703 0fee 05       		.uleb128 0x5
 2704 0fef 03       		.byte	0x3
 2705 0ff0 00000000 		.4byte	chuck_error
 2706 0ff4 0A       		.uleb128 0xa
 2707 0ff5 94000000 		.4byte	0x94
 2708 0ff9 2A       		.uleb128 0x2a
 2709 0ffa 2F070000 		.4byte	.LASF169
 2710 0ffe 01       		.byte	0x1
 2711 0fff 37       		.byte	0x37
 2712 1000 0A100000 		.4byte	0x100a
 2713 1004 05       		.uleb128 0x5
 2714 1005 03       		.byte	0x3
ARM GAS  C:\Users\IDONNO~1\AppData\Local\Temp\cctYQzqZ.s 			page 49


 2715 1006 00000000 		.4byte	config
 2716 100a 0A       		.uleb128 0xa
 2717 100b 98010000 		.4byte	0x198
 2718 100f 2A       		.uleb128 0x2a
 2719 1010 CF050000 		.4byte	.LASF200
 2720 1014 01       		.byte	0x1
 2721 1015 38       		.byte	0x38
 2722 1016 C80F0000 		.4byte	0xfc8
 2723 101a 05       		.uleb128 0x5
 2724 101b 03       		.byte	0x3
 2725 101c 00000000 		.4byte	output_running
 2726 1020 32       		.uleb128 0x32
 2727 1021 A3070000 		.4byte	.LASF201
 2728 1025 13       		.byte	0x13
 2729 1026 A706     		.2byte	0x6a7
 2730 1028 16020000 		.4byte	0x216
 2731 102c 33       		.uleb128 0x33
 2732 102d 636800   		.ascii	"ch\000"
 2733 1030 09       		.byte	0x9
 2734 1031 0902     		.2byte	0x209
 2735 1033 55050000 		.4byte	0x555
 2736 1037 32       		.uleb128 0x32
 2737 1038 550A0000 		.4byte	.LASF202
 2738 103c 12       		.byte	0x12
 2739 103d E401     		.2byte	0x1e4
 2740 103f 990A0000 		.4byte	0xa99
 2741 1043 34       		.uleb128 0x34
 2742 1044 4F090000 		.4byte	.LASF203
 2743 1048 4F090000 		.4byte	.LASF203
 2744 104c 14       		.byte	0x14
 2745 104d 96       		.byte	0x96
 2746 104e 34       		.uleb128 0x34
 2747 104f 85010000 		.4byte	.LASF204
 2748 1053 85010000 		.4byte	.LASF204
 2749 1057 15       		.byte	0x15
 2750 1058 22       		.byte	0x22
 2751 1059 34       		.uleb128 0x34
 2752 105a 9E060000 		.4byte	.LASF205
 2753 105e 9E060000 		.4byte	.LASF205
 2754 1062 14       		.byte	0x14
 2755 1063 89       		.byte	0x89
 2756 1064 34       		.uleb128 0x34
 2757 1065 5B0A0000 		.4byte	.LASF206
 2758 1069 5B0A0000 		.4byte	.LASF206
 2759 106d 15       		.byte	0x15
 2760 106e 21       		.byte	0x21
 2761 106f 34       		.uleb128 0x34
 2762 1070 820A0000 		.4byte	.LASF207
 2763 1074 820A0000 		.4byte	.LASF207
 2764 1078 16       		.byte	0x16
 2765 1079 4C       		.byte	0x4c
 2766 107a 34       		.uleb128 0x34
 2767 107b 04090000 		.4byte	.LASF208
 2768 107f 04090000 		.4byte	.LASF208
 2769 1083 11       		.byte	0x11
 2770 1084 9A       		.byte	0x9a
 2771 1085 34       		.uleb128 0x34
ARM GAS  C:\Users\IDONNO~1\AppData\Local\Temp\cctYQzqZ.s 			page 50


 2772 1086 A5000000 		.4byte	.LASF209
 2773 108a A5000000 		.4byte	.LASF209
 2774 108e 11       		.byte	0x11
 2775 108f 90       		.byte	0x90
 2776 1090 34       		.uleb128 0x34
 2777 1091 40060000 		.4byte	.LASF210
 2778 1095 40060000 		.4byte	.LASF210
 2779 1099 11       		.byte	0x11
 2780 109a 9B       		.byte	0x9b
 2781 109b 34       		.uleb128 0x34
 2782 109c 34080000 		.4byte	.LASF211
 2783 10a0 34080000 		.4byte	.LASF211
 2784 10a4 11       		.byte	0x11
 2785 10a5 95       		.byte	0x95
 2786 10a6 34       		.uleb128 0x34
 2787 10a7 60020000 		.4byte	.LASF212
 2788 10ab 60020000 		.4byte	.LASF212
 2789 10af 16       		.byte	0x16
 2790 10b0 4A       		.byte	0x4a
 2791 10b1 00       		.byte	0
 2792              		.section	.debug_abbrev,"",%progbits
 2793              	.Ldebug_abbrev0:
 2794 0000 01       		.uleb128 0x1
 2795 0001 11       		.uleb128 0x11
 2796 0002 01       		.byte	0x1
 2797 0003 25       		.uleb128 0x25
 2798 0004 0E       		.uleb128 0xe
 2799 0005 13       		.uleb128 0x13
 2800 0006 0B       		.uleb128 0xb
 2801 0007 03       		.uleb128 0x3
 2802 0008 0E       		.uleb128 0xe
 2803 0009 1B       		.uleb128 0x1b
 2804 000a 0E       		.uleb128 0xe
 2805 000b 55       		.uleb128 0x55
 2806 000c 17       		.uleb128 0x17
 2807 000d 11       		.uleb128 0x11
 2808 000e 01       		.uleb128 0x1
 2809 000f 10       		.uleb128 0x10
 2810 0010 17       		.uleb128 0x17
 2811 0011 00       		.byte	0
 2812 0012 00       		.byte	0
 2813 0013 02       		.uleb128 0x2
 2814 0014 24       		.uleb128 0x24
 2815 0015 00       		.byte	0
 2816 0016 0B       		.uleb128 0xb
 2817 0017 0B       		.uleb128 0xb
 2818 0018 3E       		.uleb128 0x3e
 2819 0019 0B       		.uleb128 0xb
 2820 001a 03       		.uleb128 0x3
 2821 001b 0E       		.uleb128 0xe
 2822 001c 00       		.byte	0
 2823 001d 00       		.byte	0
 2824 001e 03       		.uleb128 0x3
 2825 001f 16       		.uleb128 0x16
 2826 0020 00       		.byte	0
 2827 0021 03       		.uleb128 0x3
 2828 0022 0E       		.uleb128 0xe
ARM GAS  C:\Users\IDONNO~1\AppData\Local\Temp\cctYQzqZ.s 			page 51


 2829 0023 3A       		.uleb128 0x3a
 2830 0024 0B       		.uleb128 0xb
 2831 0025 3B       		.uleb128 0x3b
 2832 0026 0B       		.uleb128 0xb
 2833 0027 49       		.uleb128 0x49
 2834 0028 13       		.uleb128 0x13
 2835 0029 00       		.byte	0
 2836 002a 00       		.byte	0
 2837 002b 04       		.uleb128 0x4
 2838 002c 24       		.uleb128 0x24
 2839 002d 00       		.byte	0
 2840 002e 0B       		.uleb128 0xb
 2841 002f 0B       		.uleb128 0xb
 2842 0030 3E       		.uleb128 0x3e
 2843 0031 0B       		.uleb128 0xb
 2844 0032 03       		.uleb128 0x3
 2845 0033 08       		.uleb128 0x8
 2846 0034 00       		.byte	0
 2847 0035 00       		.byte	0
 2848 0036 05       		.uleb128 0x5
 2849 0037 04       		.uleb128 0x4
 2850 0038 01       		.byte	0x1
 2851 0039 0B       		.uleb128 0xb
 2852 003a 0B       		.uleb128 0xb
 2853 003b 49       		.uleb128 0x49
 2854 003c 13       		.uleb128 0x13
 2855 003d 3A       		.uleb128 0x3a
 2856 003e 0B       		.uleb128 0xb
 2857 003f 3B       		.uleb128 0x3b
 2858 0040 0B       		.uleb128 0xb
 2859 0041 01       		.uleb128 0x1
 2860 0042 13       		.uleb128 0x13
 2861 0043 00       		.byte	0
 2862 0044 00       		.byte	0
 2863 0045 06       		.uleb128 0x6
 2864 0046 28       		.uleb128 0x28
 2865 0047 00       		.byte	0
 2866 0048 03       		.uleb128 0x3
 2867 0049 0E       		.uleb128 0xe
 2868 004a 1C       		.uleb128 0x1c
 2869 004b 0B       		.uleb128 0xb
 2870 004c 00       		.byte	0
 2871 004d 00       		.byte	0
 2872 004e 07       		.uleb128 0x7
 2873 004f 13       		.uleb128 0x13
 2874 0050 01       		.byte	0x1
 2875 0051 0B       		.uleb128 0xb
 2876 0052 0B       		.uleb128 0xb
 2877 0053 3A       		.uleb128 0x3a
 2878 0054 0B       		.uleb128 0xb
 2879 0055 3B       		.uleb128 0x3b
 2880 0056 0B       		.uleb128 0xb
 2881 0057 01       		.uleb128 0x1
 2882 0058 13       		.uleb128 0x13
 2883 0059 00       		.byte	0
 2884 005a 00       		.byte	0
 2885 005b 08       		.uleb128 0x8
ARM GAS  C:\Users\IDONNO~1\AppData\Local\Temp\cctYQzqZ.s 			page 52


 2886 005c 0D       		.uleb128 0xd
 2887 005d 00       		.byte	0
 2888 005e 03       		.uleb128 0x3
 2889 005f 0E       		.uleb128 0xe
 2890 0060 3A       		.uleb128 0x3a
 2891 0061 0B       		.uleb128 0xb
 2892 0062 3B       		.uleb128 0x3b
 2893 0063 0B       		.uleb128 0xb
 2894 0064 49       		.uleb128 0x49
 2895 0065 13       		.uleb128 0x13
 2896 0066 38       		.uleb128 0x38
 2897 0067 0B       		.uleb128 0xb
 2898 0068 00       		.byte	0
 2899 0069 00       		.byte	0
 2900 006a 09       		.uleb128 0x9
 2901 006b 0D       		.uleb128 0xd
 2902 006c 00       		.byte	0
 2903 006d 03       		.uleb128 0x3
 2904 006e 08       		.uleb128 0x8
 2905 006f 3A       		.uleb128 0x3a
 2906 0070 0B       		.uleb128 0xb
 2907 0071 3B       		.uleb128 0x3b
 2908 0072 0B       		.uleb128 0xb
 2909 0073 49       		.uleb128 0x49
 2910 0074 13       		.uleb128 0x13
 2911 0075 38       		.uleb128 0x38
 2912 0076 0B       		.uleb128 0xb
 2913 0077 00       		.byte	0
 2914 0078 00       		.byte	0
 2915 0079 0A       		.uleb128 0xa
 2916 007a 35       		.uleb128 0x35
 2917 007b 00       		.byte	0
 2918 007c 49       		.uleb128 0x49
 2919 007d 13       		.uleb128 0x13
 2920 007e 00       		.byte	0
 2921 007f 00       		.byte	0
 2922 0080 0B       		.uleb128 0xb
 2923 0081 13       		.uleb128 0x13
 2924 0082 01       		.byte	0x1
 2925 0083 03       		.uleb128 0x3
 2926 0084 0E       		.uleb128 0xe
 2927 0085 0B       		.uleb128 0xb
 2928 0086 0B       		.uleb128 0xb
 2929 0087 3A       		.uleb128 0x3a
 2930 0088 0B       		.uleb128 0xb
 2931 0089 3B       		.uleb128 0x3b
 2932 008a 0B       		.uleb128 0xb
 2933 008b 01       		.uleb128 0x1
 2934 008c 13       		.uleb128 0x13
 2935 008d 00       		.byte	0
 2936 008e 00       		.byte	0
 2937 008f 0C       		.uleb128 0xc
 2938 0090 0D       		.uleb128 0xd
 2939 0091 00       		.byte	0
 2940 0092 03       		.uleb128 0x3
 2941 0093 08       		.uleb128 0x8
 2942 0094 3A       		.uleb128 0x3a
ARM GAS  C:\Users\IDONNO~1\AppData\Local\Temp\cctYQzqZ.s 			page 53


 2943 0095 0B       		.uleb128 0xb
 2944 0096 3B       		.uleb128 0x3b
 2945 0097 05       		.uleb128 0x5
 2946 0098 49       		.uleb128 0x49
 2947 0099 13       		.uleb128 0x13
 2948 009a 38       		.uleb128 0x38
 2949 009b 0B       		.uleb128 0xb
 2950 009c 00       		.byte	0
 2951 009d 00       		.byte	0
 2952 009e 0D       		.uleb128 0xd
 2953 009f 0D       		.uleb128 0xd
 2954 00a0 00       		.byte	0
 2955 00a1 03       		.uleb128 0x3
 2956 00a2 0E       		.uleb128 0xe
 2957 00a3 3A       		.uleb128 0x3a
 2958 00a4 0B       		.uleb128 0xb
 2959 00a5 3B       		.uleb128 0x3b
 2960 00a6 05       		.uleb128 0x5
 2961 00a7 49       		.uleb128 0x49
 2962 00a8 13       		.uleb128 0x13
 2963 00a9 38       		.uleb128 0x38
 2964 00aa 0B       		.uleb128 0xb
 2965 00ab 00       		.byte	0
 2966 00ac 00       		.byte	0
 2967 00ad 0E       		.uleb128 0xe
 2968 00ae 0F       		.uleb128 0xf
 2969 00af 00       		.byte	0
 2970 00b0 0B       		.uleb128 0xb
 2971 00b1 0B       		.uleb128 0xb
 2972 00b2 49       		.uleb128 0x49
 2973 00b3 13       		.uleb128 0x13
 2974 00b4 00       		.byte	0
 2975 00b5 00       		.byte	0
 2976 00b6 0F       		.uleb128 0xf
 2977 00b7 13       		.uleb128 0x13
 2978 00b8 01       		.byte	0x1
 2979 00b9 03       		.uleb128 0x3
 2980 00ba 0E       		.uleb128 0xe
 2981 00bb 0B       		.uleb128 0xb
 2982 00bc 0B       		.uleb128 0xb
 2983 00bd 3A       		.uleb128 0x3a
 2984 00be 0B       		.uleb128 0xb
 2985 00bf 3B       		.uleb128 0x3b
 2986 00c0 05       		.uleb128 0x5
 2987 00c1 01       		.uleb128 0x1
 2988 00c2 13       		.uleb128 0x13
 2989 00c3 00       		.byte	0
 2990 00c4 00       		.byte	0
 2991 00c5 10       		.uleb128 0x10
 2992 00c6 15       		.uleb128 0x15
 2993 00c7 01       		.byte	0x1
 2994 00c8 27       		.uleb128 0x27
 2995 00c9 19       		.uleb128 0x19
 2996 00ca 01       		.uleb128 0x1
 2997 00cb 13       		.uleb128 0x13
 2998 00cc 00       		.byte	0
 2999 00cd 00       		.byte	0
ARM GAS  C:\Users\IDONNO~1\AppData\Local\Temp\cctYQzqZ.s 			page 54


 3000 00ce 11       		.uleb128 0x11
 3001 00cf 05       		.uleb128 0x5
 3002 00d0 00       		.byte	0
 3003 00d1 49       		.uleb128 0x49
 3004 00d2 13       		.uleb128 0x13
 3005 00d3 00       		.byte	0
 3006 00d4 00       		.byte	0
 3007 00d5 12       		.uleb128 0x12
 3008 00d6 0F       		.uleb128 0xf
 3009 00d7 00       		.byte	0
 3010 00d8 0B       		.uleb128 0xb
 3011 00d9 0B       		.uleb128 0xb
 3012 00da 00       		.byte	0
 3013 00db 00       		.byte	0
 3014 00dc 13       		.uleb128 0x13
 3015 00dd 13       		.uleb128 0x13
 3016 00de 01       		.byte	0x1
 3017 00df 03       		.uleb128 0x3
 3018 00e0 0E       		.uleb128 0xe
 3019 00e1 0B       		.uleb128 0xb
 3020 00e2 05       		.uleb128 0x5
 3021 00e3 3A       		.uleb128 0x3a
 3022 00e4 0B       		.uleb128 0xb
 3023 00e5 3B       		.uleb128 0x3b
 3024 00e6 05       		.uleb128 0x5
 3025 00e7 01       		.uleb128 0x1
 3026 00e8 13       		.uleb128 0x13
 3027 00e9 00       		.byte	0
 3028 00ea 00       		.byte	0
 3029 00eb 14       		.uleb128 0x14
 3030 00ec 13       		.uleb128 0x13
 3031 00ed 01       		.byte	0x1
 3032 00ee 0B       		.uleb128 0xb
 3033 00ef 0B       		.uleb128 0xb
 3034 00f0 3A       		.uleb128 0x3a
 3035 00f1 0B       		.uleb128 0xb
 3036 00f2 3B       		.uleb128 0x3b
 3037 00f3 05       		.uleb128 0x5
 3038 00f4 01       		.uleb128 0x1
 3039 00f5 13       		.uleb128 0x13
 3040 00f6 00       		.byte	0
 3041 00f7 00       		.byte	0
 3042 00f8 15       		.uleb128 0x15
 3043 00f9 16       		.uleb128 0x16
 3044 00fa 00       		.byte	0
 3045 00fb 03       		.uleb128 0x3
 3046 00fc 0E       		.uleb128 0xe
 3047 00fd 3A       		.uleb128 0x3a
 3048 00fe 0B       		.uleb128 0xb
 3049 00ff 3B       		.uleb128 0x3b
 3050 0100 05       		.uleb128 0x5
 3051 0101 49       		.uleb128 0x49
 3052 0102 13       		.uleb128 0x13
 3053 0103 00       		.byte	0
 3054 0104 00       		.byte	0
 3055 0105 16       		.uleb128 0x16
 3056 0106 17       		.uleb128 0x17
ARM GAS  C:\Users\IDONNO~1\AppData\Local\Temp\cctYQzqZ.s 			page 55


 3057 0107 01       		.byte	0x1
 3058 0108 0B       		.uleb128 0xb
 3059 0109 0B       		.uleb128 0xb
 3060 010a 3A       		.uleb128 0x3a
 3061 010b 0B       		.uleb128 0xb
 3062 010c 3B       		.uleb128 0x3b
 3063 010d 0B       		.uleb128 0xb
 3064 010e 01       		.uleb128 0x1
 3065 010f 13       		.uleb128 0x13
 3066 0110 00       		.byte	0
 3067 0111 00       		.byte	0
 3068 0112 17       		.uleb128 0x17
 3069 0113 0D       		.uleb128 0xd
 3070 0114 00       		.byte	0
 3071 0115 03       		.uleb128 0x3
 3072 0116 0E       		.uleb128 0xe
 3073 0117 3A       		.uleb128 0x3a
 3074 0118 0B       		.uleb128 0xb
 3075 0119 3B       		.uleb128 0x3b
 3076 011a 05       		.uleb128 0x5
 3077 011b 49       		.uleb128 0x49
 3078 011c 13       		.uleb128 0x13
 3079 011d 00       		.byte	0
 3080 011e 00       		.byte	0
 3081 011f 18       		.uleb128 0x18
 3082 0120 26       		.uleb128 0x26
 3083 0121 00       		.byte	0
 3084 0122 49       		.uleb128 0x49
 3085 0123 13       		.uleb128 0x13
 3086 0124 00       		.byte	0
 3087 0125 00       		.byte	0
 3088 0126 19       		.uleb128 0x19
 3089 0127 01       		.uleb128 0x1
 3090 0128 01       		.byte	0x1
 3091 0129 49       		.uleb128 0x49
 3092 012a 13       		.uleb128 0x13
 3093 012b 01       		.uleb128 0x1
 3094 012c 13       		.uleb128 0x13
 3095 012d 00       		.byte	0
 3096 012e 00       		.byte	0
 3097 012f 1A       		.uleb128 0x1a
 3098 0130 21       		.uleb128 0x21
 3099 0131 00       		.byte	0
 3100 0132 49       		.uleb128 0x49
 3101 0133 13       		.uleb128 0x13
 3102 0134 2F       		.uleb128 0x2f
 3103 0135 0B       		.uleb128 0xb
 3104 0136 00       		.byte	0
 3105 0137 00       		.byte	0
 3106 0138 1B       		.uleb128 0x1b
 3107 0139 04       		.uleb128 0x4
 3108 013a 01       		.byte	0x1
 3109 013b 0B       		.uleb128 0xb
 3110 013c 0B       		.uleb128 0xb
 3111 013d 49       		.uleb128 0x49
 3112 013e 13       		.uleb128 0x13
 3113 013f 3A       		.uleb128 0x3a
ARM GAS  C:\Users\IDONNO~1\AppData\Local\Temp\cctYQzqZ.s 			page 56


 3114 0140 0B       		.uleb128 0xb
 3115 0141 3B       		.uleb128 0x3b
 3116 0142 05       		.uleb128 0x5
 3117 0143 01       		.uleb128 0x1
 3118 0144 13       		.uleb128 0x13
 3119 0145 00       		.byte	0
 3120 0146 00       		.byte	0
 3121 0147 1C       		.uleb128 0x1c
 3122 0148 2E       		.uleb128 0x2e
 3123 0149 01       		.byte	0x1
 3124 014a 03       		.uleb128 0x3
 3125 014b 0E       		.uleb128 0xe
 3126 014c 3A       		.uleb128 0x3a
 3127 014d 0B       		.uleb128 0xb
 3128 014e 3B       		.uleb128 0x3b
 3129 014f 0B       		.uleb128 0xb
 3130 0150 27       		.uleb128 0x27
 3131 0151 19       		.uleb128 0x19
 3132 0152 20       		.uleb128 0x20
 3133 0153 0B       		.uleb128 0xb
 3134 0154 01       		.uleb128 0x1
 3135 0155 13       		.uleb128 0x13
 3136 0156 00       		.byte	0
 3137 0157 00       		.byte	0
 3138 0158 1D       		.uleb128 0x1d
 3139 0159 05       		.uleb128 0x5
 3140 015a 00       		.byte	0
 3141 015b 03       		.uleb128 0x3
 3142 015c 0E       		.uleb128 0xe
 3143 015d 3A       		.uleb128 0x3a
 3144 015e 0B       		.uleb128 0xb
 3145 015f 3B       		.uleb128 0x3b
 3146 0160 0B       		.uleb128 0xb
 3147 0161 49       		.uleb128 0x49
 3148 0162 13       		.uleb128 0x13
 3149 0163 00       		.byte	0
 3150 0164 00       		.byte	0
 3151 0165 1E       		.uleb128 0x1e
 3152 0166 2E       		.uleb128 0x2e
 3153 0167 01       		.byte	0x1
 3154 0168 03       		.uleb128 0x3
 3155 0169 0E       		.uleb128 0xe
 3156 016a 3A       		.uleb128 0x3a
 3157 016b 0B       		.uleb128 0xb
 3158 016c 3B       		.uleb128 0x3b
 3159 016d 0B       		.uleb128 0xb
 3160 016e 27       		.uleb128 0x27
 3161 016f 19       		.uleb128 0x19
 3162 0170 8701     		.uleb128 0x87
 3163 0172 19       		.uleb128 0x19
 3164 0173 11       		.uleb128 0x11
 3165 0174 01       		.uleb128 0x1
 3166 0175 12       		.uleb128 0x12
 3167 0176 06       		.uleb128 0x6
 3168 0177 40       		.uleb128 0x40
 3169 0178 18       		.uleb128 0x18
 3170 0179 9742     		.uleb128 0x2117
ARM GAS  C:\Users\IDONNO~1\AppData\Local\Temp\cctYQzqZ.s 			page 57


 3171 017b 19       		.uleb128 0x19
 3172 017c 01       		.uleb128 0x1
 3173 017d 13       		.uleb128 0x13
 3174 017e 00       		.byte	0
 3175 017f 00       		.byte	0
 3176 0180 1F       		.uleb128 0x1f
 3177 0181 05       		.uleb128 0x5
 3178 0182 00       		.byte	0
 3179 0183 03       		.uleb128 0x3
 3180 0184 08       		.uleb128 0x8
 3181 0185 3A       		.uleb128 0x3a
 3182 0186 0B       		.uleb128 0xb
 3183 0187 3B       		.uleb128 0x3b
 3184 0188 0B       		.uleb128 0xb
 3185 0189 49       		.uleb128 0x49
 3186 018a 13       		.uleb128 0x13
 3187 018b 02       		.uleb128 0x2
 3188 018c 17       		.uleb128 0x17
 3189 018d 00       		.byte	0
 3190 018e 00       		.byte	0
 3191 018f 20       		.uleb128 0x20
 3192 0190 1D       		.uleb128 0x1d
 3193 0191 01       		.byte	0x1
 3194 0192 31       		.uleb128 0x31
 3195 0193 13       		.uleb128 0x13
 3196 0194 11       		.uleb128 0x11
 3197 0195 01       		.uleb128 0x1
 3198 0196 12       		.uleb128 0x12
 3199 0197 06       		.uleb128 0x6
 3200 0198 58       		.uleb128 0x58
 3201 0199 0B       		.uleb128 0xb
 3202 019a 59       		.uleb128 0x59
 3203 019b 0B       		.uleb128 0xb
 3204 019c 01       		.uleb128 0x1
 3205 019d 13       		.uleb128 0x13
 3206 019e 00       		.byte	0
 3207 019f 00       		.byte	0
 3208 01a0 21       		.uleb128 0x21
 3209 01a1 05       		.uleb128 0x5
 3210 01a2 00       		.byte	0
 3211 01a3 31       		.uleb128 0x31
 3212 01a4 13       		.uleb128 0x13
 3213 01a5 02       		.uleb128 0x2
 3214 01a6 18       		.uleb128 0x18
 3215 01a7 00       		.byte	0
 3216 01a8 00       		.byte	0
 3217 01a9 22       		.uleb128 0x22
 3218 01aa 898201   		.uleb128 0x4109
 3219 01ad 01       		.byte	0x1
 3220 01ae 11       		.uleb128 0x11
 3221 01af 01       		.uleb128 0x1
 3222 01b0 31       		.uleb128 0x31
 3223 01b1 13       		.uleb128 0x13
 3224 01b2 01       		.uleb128 0x1
 3225 01b3 13       		.uleb128 0x13
 3226 01b4 00       		.byte	0
 3227 01b5 00       		.byte	0
ARM GAS  C:\Users\IDONNO~1\AppData\Local\Temp\cctYQzqZ.s 			page 58


 3228 01b6 23       		.uleb128 0x23
 3229 01b7 8A8201   		.uleb128 0x410a
 3230 01ba 00       		.byte	0
 3231 01bb 02       		.uleb128 0x2
 3232 01bc 18       		.uleb128 0x18
 3233 01bd 9142     		.uleb128 0x2111
 3234 01bf 18       		.uleb128 0x18
 3235 01c0 00       		.byte	0
 3236 01c1 00       		.byte	0
 3237 01c2 24       		.uleb128 0x24
 3238 01c3 898201   		.uleb128 0x4109
 3239 01c6 00       		.byte	0
 3240 01c7 11       		.uleb128 0x11
 3241 01c8 01       		.uleb128 0x1
 3242 01c9 31       		.uleb128 0x31
 3243 01ca 13       		.uleb128 0x13
 3244 01cb 00       		.byte	0
 3245 01cc 00       		.byte	0
 3246 01cd 25       		.uleb128 0x25
 3247 01ce 2E       		.uleb128 0x2e
 3248 01cf 01       		.byte	0x1
 3249 01d0 3F       		.uleb128 0x3f
 3250 01d1 19       		.uleb128 0x19
 3251 01d2 03       		.uleb128 0x3
 3252 01d3 0E       		.uleb128 0xe
 3253 01d4 3A       		.uleb128 0x3a
 3254 01d5 0B       		.uleb128 0xb
 3255 01d6 3B       		.uleb128 0x3b
 3256 01d7 0B       		.uleb128 0xb
 3257 01d8 27       		.uleb128 0x27
 3258 01d9 19       		.uleb128 0x19
 3259 01da 11       		.uleb128 0x11
 3260 01db 01       		.uleb128 0x1
 3261 01dc 12       		.uleb128 0x12
 3262 01dd 06       		.uleb128 0x6
 3263 01de 40       		.uleb128 0x40
 3264 01df 18       		.uleb128 0x18
 3265 01e0 9742     		.uleb128 0x2117
 3266 01e2 19       		.uleb128 0x19
 3267 01e3 01       		.uleb128 0x1
 3268 01e4 13       		.uleb128 0x13
 3269 01e5 00       		.byte	0
 3270 01e6 00       		.byte	0
 3271 01e7 26       		.uleb128 0x26
 3272 01e8 05       		.uleb128 0x5
 3273 01e9 00       		.byte	0
 3274 01ea 03       		.uleb128 0x3
 3275 01eb 0E       		.uleb128 0xe
 3276 01ec 3A       		.uleb128 0x3a
 3277 01ed 0B       		.uleb128 0xb
 3278 01ee 3B       		.uleb128 0x3b
 3279 01ef 0B       		.uleb128 0xb
 3280 01f0 49       		.uleb128 0x49
 3281 01f1 13       		.uleb128 0x13
 3282 01f2 02       		.uleb128 0x2
 3283 01f3 17       		.uleb128 0x17
 3284 01f4 00       		.byte	0
ARM GAS  C:\Users\IDONNO~1\AppData\Local\Temp\cctYQzqZ.s 			page 59


 3285 01f5 00       		.byte	0
 3286 01f6 27       		.uleb128 0x27
 3287 01f7 898201   		.uleb128 0x4109
 3288 01fa 01       		.byte	0x1
 3289 01fb 11       		.uleb128 0x11
 3290 01fc 01       		.uleb128 0x1
 3291 01fd 31       		.uleb128 0x31
 3292 01fe 13       		.uleb128 0x13
 3293 01ff 00       		.byte	0
 3294 0200 00       		.byte	0
 3295 0201 28       		.uleb128 0x28
 3296 0202 2E       		.uleb128 0x2e
 3297 0203 00       		.byte	0
 3298 0204 3F       		.uleb128 0x3f
 3299 0205 19       		.uleb128 0x19
 3300 0206 03       		.uleb128 0x3
 3301 0207 0E       		.uleb128 0xe
 3302 0208 3A       		.uleb128 0x3a
 3303 0209 0B       		.uleb128 0xb
 3304 020a 3B       		.uleb128 0x3b
 3305 020b 0B       		.uleb128 0xb
 3306 020c 27       		.uleb128 0x27
 3307 020d 19       		.uleb128 0x19
 3308 020e 49       		.uleb128 0x49
 3309 020f 13       		.uleb128 0x13
 3310 0210 11       		.uleb128 0x11
 3311 0211 01       		.uleb128 0x1
 3312 0212 12       		.uleb128 0x12
 3313 0213 06       		.uleb128 0x6
 3314 0214 40       		.uleb128 0x40
 3315 0215 18       		.uleb128 0x18
 3316 0216 9742     		.uleb128 0x2117
 3317 0218 19       		.uleb128 0x19
 3318 0219 00       		.byte	0
 3319 021a 00       		.byte	0
 3320 021b 29       		.uleb128 0x29
 3321 021c 898201   		.uleb128 0x4109
 3322 021f 00       		.byte	0
 3323 0220 11       		.uleb128 0x11
 3324 0221 01       		.uleb128 0x1
 3325 0222 9542     		.uleb128 0x2115
 3326 0224 19       		.uleb128 0x19
 3327 0225 31       		.uleb128 0x31
 3328 0226 13       		.uleb128 0x13
 3329 0227 00       		.byte	0
 3330 0228 00       		.byte	0
 3331 0229 2A       		.uleb128 0x2a
 3332 022a 34       		.uleb128 0x34
 3333 022b 00       		.byte	0
 3334 022c 03       		.uleb128 0x3
 3335 022d 0E       		.uleb128 0xe
 3336 022e 3A       		.uleb128 0x3a
 3337 022f 0B       		.uleb128 0xb
 3338 0230 3B       		.uleb128 0x3b
 3339 0231 0B       		.uleb128 0xb
 3340 0232 49       		.uleb128 0x49
 3341 0233 13       		.uleb128 0x13
ARM GAS  C:\Users\IDONNO~1\AppData\Local\Temp\cctYQzqZ.s 			page 60


 3342 0234 02       		.uleb128 0x2
 3343 0235 18       		.uleb128 0x18
 3344 0236 00       		.byte	0
 3345 0237 00       		.byte	0
 3346 0238 2B       		.uleb128 0x2b
 3347 0239 34       		.uleb128 0x34
 3348 023a 00       		.byte	0
 3349 023b 03       		.uleb128 0x3
 3350 023c 0E       		.uleb128 0xe
 3351 023d 3A       		.uleb128 0x3a
 3352 023e 0B       		.uleb128 0xb
 3353 023f 3B       		.uleb128 0x3b
 3354 0240 0B       		.uleb128 0xb
 3355 0241 49       		.uleb128 0x49
 3356 0242 13       		.uleb128 0x13
 3357 0243 02       		.uleb128 0x2
 3358 0244 17       		.uleb128 0x17
 3359 0245 00       		.byte	0
 3360 0246 00       		.byte	0
 3361 0247 2C       		.uleb128 0x2c
 3362 0248 34       		.uleb128 0x34
 3363 0249 00       		.byte	0
 3364 024a 03       		.uleb128 0x3
 3365 024b 08       		.uleb128 0x8
 3366 024c 3A       		.uleb128 0x3a
 3367 024d 0B       		.uleb128 0xb
 3368 024e 3B       		.uleb128 0x3b
 3369 024f 0B       		.uleb128 0xb
 3370 0250 49       		.uleb128 0x49
 3371 0251 13       		.uleb128 0x13
 3372 0252 1C       		.uleb128 0x1c
 3373 0253 0B       		.uleb128 0xb
 3374 0254 00       		.byte	0
 3375 0255 00       		.byte	0
 3376 0256 2D       		.uleb128 0x2d
 3377 0257 34       		.uleb128 0x34
 3378 0258 00       		.byte	0
 3379 0259 03       		.uleb128 0x3
 3380 025a 0E       		.uleb128 0xe
 3381 025b 3A       		.uleb128 0x3a
 3382 025c 0B       		.uleb128 0xb
 3383 025d 3B       		.uleb128 0x3b
 3384 025e 0B       		.uleb128 0xb
 3385 025f 49       		.uleb128 0x49
 3386 0260 13       		.uleb128 0x13
 3387 0261 1C       		.uleb128 0x1c
 3388 0262 0B       		.uleb128 0xb
 3389 0263 00       		.byte	0
 3390 0264 00       		.byte	0
 3391 0265 2E       		.uleb128 0x2e
 3392 0266 1D       		.uleb128 0x1d
 3393 0267 01       		.byte	0x1
 3394 0268 31       		.uleb128 0x31
 3395 0269 13       		.uleb128 0x13
 3396 026a 52       		.uleb128 0x52
 3397 026b 01       		.uleb128 0x1
 3398 026c 55       		.uleb128 0x55
ARM GAS  C:\Users\IDONNO~1\AppData\Local\Temp\cctYQzqZ.s 			page 61


 3399 026d 17       		.uleb128 0x17
 3400 026e 58       		.uleb128 0x58
 3401 026f 0B       		.uleb128 0xb
 3402 0270 59       		.uleb128 0x59
 3403 0271 0B       		.uleb128 0xb
 3404 0272 01       		.uleb128 0x1
 3405 0273 13       		.uleb128 0x13
 3406 0274 00       		.byte	0
 3407 0275 00       		.byte	0
 3408 0276 2F       		.uleb128 0x2f
 3409 0277 05       		.uleb128 0x5
 3410 0278 00       		.byte	0
 3411 0279 31       		.uleb128 0x31
 3412 027a 13       		.uleb128 0x13
 3413 027b 02       		.uleb128 0x2
 3414 027c 17       		.uleb128 0x17
 3415 027d 00       		.byte	0
 3416 027e 00       		.byte	0
 3417 027f 30       		.uleb128 0x30
 3418 0280 0B       		.uleb128 0xb
 3419 0281 01       		.byte	0x1
 3420 0282 11       		.uleb128 0x11
 3421 0283 01       		.uleb128 0x1
 3422 0284 12       		.uleb128 0x12
 3423 0285 06       		.uleb128 0x6
 3424 0286 01       		.uleb128 0x1
 3425 0287 13       		.uleb128 0x13
 3426 0288 00       		.byte	0
 3427 0289 00       		.byte	0
 3428 028a 31       		.uleb128 0x31
 3429 028b 34       		.uleb128 0x34
 3430 028c 00       		.byte	0
 3431 028d 03       		.uleb128 0x3
 3432 028e 08       		.uleb128 0x8
 3433 028f 3A       		.uleb128 0x3a
 3434 0290 0B       		.uleb128 0xb
 3435 0291 3B       		.uleb128 0x3b
 3436 0292 0B       		.uleb128 0xb
 3437 0293 49       		.uleb128 0x49
 3438 0294 13       		.uleb128 0x13
 3439 0295 02       		.uleb128 0x2
 3440 0296 17       		.uleb128 0x17
 3441 0297 00       		.byte	0
 3442 0298 00       		.byte	0
 3443 0299 32       		.uleb128 0x32
 3444 029a 34       		.uleb128 0x34
 3445 029b 00       		.byte	0
 3446 029c 03       		.uleb128 0x3
 3447 029d 0E       		.uleb128 0xe
 3448 029e 3A       		.uleb128 0x3a
 3449 029f 0B       		.uleb128 0xb
 3450 02a0 3B       		.uleb128 0x3b
 3451 02a1 05       		.uleb128 0x5
 3452 02a2 49       		.uleb128 0x49
 3453 02a3 13       		.uleb128 0x13
 3454 02a4 3F       		.uleb128 0x3f
 3455 02a5 19       		.uleb128 0x19
ARM GAS  C:\Users\IDONNO~1\AppData\Local\Temp\cctYQzqZ.s 			page 62


 3456 02a6 3C       		.uleb128 0x3c
 3457 02a7 19       		.uleb128 0x19
 3458 02a8 00       		.byte	0
 3459 02a9 00       		.byte	0
 3460 02aa 33       		.uleb128 0x33
 3461 02ab 34       		.uleb128 0x34
 3462 02ac 00       		.byte	0
 3463 02ad 03       		.uleb128 0x3
 3464 02ae 08       		.uleb128 0x8
 3465 02af 3A       		.uleb128 0x3a
 3466 02b0 0B       		.uleb128 0xb
 3467 02b1 3B       		.uleb128 0x3b
 3468 02b2 05       		.uleb128 0x5
 3469 02b3 49       		.uleb128 0x49
 3470 02b4 13       		.uleb128 0x13
 3471 02b5 3F       		.uleb128 0x3f
 3472 02b6 19       		.uleb128 0x19
 3473 02b7 3C       		.uleb128 0x3c
 3474 02b8 19       		.uleb128 0x19
 3475 02b9 00       		.byte	0
 3476 02ba 00       		.byte	0
 3477 02bb 34       		.uleb128 0x34
 3478 02bc 2E       		.uleb128 0x2e
 3479 02bd 00       		.byte	0
 3480 02be 3F       		.uleb128 0x3f
 3481 02bf 19       		.uleb128 0x19
 3482 02c0 3C       		.uleb128 0x3c
 3483 02c1 19       		.uleb128 0x19
 3484 02c2 6E       		.uleb128 0x6e
 3485 02c3 0E       		.uleb128 0xe
 3486 02c4 03       		.uleb128 0x3
 3487 02c5 0E       		.uleb128 0xe
 3488 02c6 3A       		.uleb128 0x3a
 3489 02c7 0B       		.uleb128 0xb
 3490 02c8 3B       		.uleb128 0x3b
 3491 02c9 0B       		.uleb128 0xb
 3492 02ca 00       		.byte	0
 3493 02cb 00       		.byte	0
 3494 02cc 00       		.byte	0
 3495              		.section	.debug_loc,"",%progbits
 3496              	.Ldebug_loc0:
 3497              	.LLST0:
 3498 0000 00000000 		.4byte	.LVL0
 3499 0004 0E000000 		.4byte	.LVL1
 3500 0008 0100     		.2byte	0x1
 3501 000a 50       		.byte	0x50
 3502 000b 0E000000 		.4byte	.LVL1
 3503 000f 44000000 		.4byte	.LFE261
 3504 0013 0400     		.2byte	0x4
 3505 0015 F3       		.byte	0xf3
 3506 0016 01       		.uleb128 0x1
 3507 0017 50       		.byte	0x50
 3508 0018 9F       		.byte	0x9f
 3509 0019 00000000 		.4byte	0
 3510 001d 00000000 		.4byte	0
 3511              	.LLST1:
 3512 0021 00000000 		.4byte	.LVL6
ARM GAS  C:\Users\IDONNO~1\AppData\Local\Temp\cctYQzqZ.s 			page 63


 3513 0025 06000000 		.4byte	.LVL7
 3514 0029 0100     		.2byte	0x1
 3515 002b 50       		.byte	0x50
 3516 002c 06000000 		.4byte	.LVL7
 3517 0030 0C000000 		.4byte	.LVL8
 3518 0034 0300     		.2byte	0x3
 3519 0036 75       		.byte	0x75
 3520 0037 70       		.sleb128 -16
 3521 0038 9F       		.byte	0x9f
 3522 0039 0C000000 		.4byte	.LVL8
 3523 003d 14000000 		.4byte	.LVL9
 3524 0041 0300     		.2byte	0x3
 3525 0043 75       		.byte	0x75
 3526 0044 60       		.sleb128 -32
 3527 0045 9F       		.byte	0x9f
 3528 0046 14000000 		.4byte	.LVL9
 3529 004a 1C000000 		.4byte	.LFE256
 3530 004e 0400     		.2byte	0x4
 3531 0050 F3       		.byte	0xf3
 3532 0051 01       		.uleb128 0x1
 3533 0052 50       		.byte	0x50
 3534 0053 9F       		.byte	0x9f
 3535 0054 00000000 		.4byte	0
 3536 0058 00000000 		.4byte	0
 3537              	.LLST2:
 3538 005c 00000000 		.4byte	.LVL11
 3539 0060 18000000 		.4byte	.LVL12
 3540 0064 0100     		.2byte	0x1
 3541 0066 50       		.byte	0x50
 3542 0067 18000000 		.4byte	.LVL12
 3543 006b 2C000000 		.4byte	.LVL14
 3544 006f 0100     		.2byte	0x1
 3545 0071 54       		.byte	0x54
 3546 0072 2C000000 		.4byte	.LVL14
 3547 0076 3E000000 		.4byte	.LVL15
 3548 007a 0300     		.2byte	0x3
 3549 007c 74       		.byte	0x74
 3550 007d 70       		.sleb128 -16
 3551 007e 9F       		.byte	0x9f
 3552 007f 3E000000 		.4byte	.LVL15
 3553 0083 54000000 		.4byte	.LFE259
 3554 0087 0400     		.2byte	0x4
 3555 0089 F3       		.byte	0xf3
 3556 008a 01       		.uleb128 0x1
 3557 008b 50       		.byte	0x50
 3558 008c 9F       		.byte	0x9f
 3559 008d 00000000 		.4byte	0
 3560 0091 00000000 		.4byte	0
 3561              	.LLST3:
 3562 0095 00000000 		.4byte	.LVL17
 3563 0099 1B000000 		.4byte	.LVL20-1
 3564 009d 0100     		.2byte	0x1
 3565 009f 50       		.byte	0x50
 3566 00a0 1B000000 		.4byte	.LVL20-1
 3567 00a4 B4010000 		.4byte	.LFE260
 3568 00a8 0400     		.2byte	0x4
 3569 00aa F3       		.byte	0xf3
ARM GAS  C:\Users\IDONNO~1\AppData\Local\Temp\cctYQzqZ.s 			page 64


 3570 00ab 01       		.uleb128 0x1
 3571 00ac 50       		.byte	0x50
 3572 00ad 9F       		.byte	0x9f
 3573 00ae 00000000 		.4byte	0
 3574 00b2 00000000 		.4byte	0
 3575              	.LLST4:
 3576 00b6 18000000 		.4byte	.LVL19
 3577 00ba 30000000 		.4byte	.LVL22
 3578 00be 0200     		.2byte	0x2
 3579 00c0 30       		.byte	0x30
 3580 00c1 9F       		.byte	0x9f
 3581 00c2 70000000 		.4byte	.LVL28
 3582 00c6 72000000 		.4byte	.LVL29
 3583 00ca 0100     		.2byte	0x1
 3584 00cc 50       		.byte	0x50
 3585 00cd 72000000 		.4byte	.LVL29
 3586 00d1 A2000000 		.4byte	.LVL33
 3587 00d5 0100     		.2byte	0x1
 3588 00d7 5B       		.byte	0x5b
 3589 00d8 A2000000 		.4byte	.LVL33
 3590 00dc A4000000 		.4byte	.LVL34
 3591 00e0 0100     		.2byte	0x1
 3592 00e2 50       		.byte	0x50
 3593 00e3 A4000000 		.4byte	.LVL34
 3594 00e7 CE000000 		.4byte	.LVL38
 3595 00eb 0100     		.2byte	0x1
 3596 00ed 5B       		.byte	0x5b
 3597 00ee CE000000 		.4byte	.LVL38
 3598 00f2 D0000000 		.4byte	.LVL39
 3599 00f6 0100     		.2byte	0x1
 3600 00f8 50       		.byte	0x50
 3601 00f9 D0000000 		.4byte	.LVL39
 3602 00fd F8000000 		.4byte	.LVL44
 3603 0101 0100     		.2byte	0x1
 3604 0103 5B       		.byte	0x5b
 3605 0104 F8000000 		.4byte	.LVL44
 3606 0108 FA000000 		.4byte	.LVL45
 3607 010c 0100     		.2byte	0x1
 3608 010e 50       		.byte	0x50
 3609 010f FA000000 		.4byte	.LVL45
 3610 0113 B4010000 		.4byte	.LFE260
 3611 0117 0100     		.2byte	0x1
 3612 0119 5A       		.byte	0x5a
 3613 011a 00000000 		.4byte	0
 3614 011e 00000000 		.4byte	0
 3615              	.LLST5:
 3616 0122 00000000 		.4byte	.LVL17
 3617 0126 0E000000 		.4byte	.LVL18
 3618 012a 0600     		.2byte	0x6
 3619 012c 03       		.byte	0x3
 3620 012d 10000000 		.4byte	.LC1
 3621 0131 9F       		.byte	0x9f
 3622 0132 00000000 		.4byte	0
 3623 0136 00000000 		.4byte	0
 3624              	.LLST6:
 3625 013a 46000000 		.4byte	.LVL25
 3626 013e 76000000 		.4byte	.LVL30
ARM GAS  C:\Users\IDONNO~1\AppData\Local\Temp\cctYQzqZ.s 			page 65


 3627 0142 0200     		.2byte	0x2
 3628 0144 31       		.byte	0x31
 3629 0145 9F       		.byte	0x9f
 3630 0146 76000000 		.4byte	.LVL30
 3631 014a A2000000 		.4byte	.LVL33
 3632 014e 0500     		.2byte	0x5
 3633 0150 7B       		.byte	0x7b
 3634 0151 00       		.sleb128 0
 3635 0152 30       		.byte	0x30
 3636 0153 29       		.byte	0x29
 3637 0154 9F       		.byte	0x9f
 3638 0155 A8000000 		.4byte	.LVL35
 3639 0159 CE000000 		.4byte	.LVL38
 3640 015d 0500     		.2byte	0x5
 3641 015f 7B       		.byte	0x7b
 3642 0160 00       		.sleb128 0
 3643 0161 30       		.byte	0x30
 3644 0162 29       		.byte	0x29
 3645 0163 9F       		.byte	0x9f
 3646 0164 D4000000 		.4byte	.LVL40
 3647 0168 FE000000 		.4byte	.LVL46
 3648 016c 0500     		.2byte	0x5
 3649 016e 7B       		.byte	0x7b
 3650 016f 00       		.sleb128 0
 3651 0170 30       		.byte	0x30
 3652 0171 29       		.byte	0x29
 3653 0172 9F       		.byte	0x9f
 3654 0173 FE000000 		.4byte	.LVL46
 3655 0177 B4010000 		.4byte	.LFE260
 3656 017b 0500     		.2byte	0x5
 3657 017d 7A       		.byte	0x7a
 3658 017e 00       		.sleb128 0
 3659 017f 30       		.byte	0x30
 3660 0180 29       		.byte	0x29
 3661 0181 9F       		.byte	0x9f
 3662 0182 00000000 		.4byte	0
 3663 0186 00000000 		.4byte	0
 3664              	.LLST7:
 3665 018a 0E010000 		.4byte	.LVL47
 3666 018e 2E010000 		.4byte	.LVL50
 3667 0192 0100     		.2byte	0x1
 3668 0194 52       		.byte	0x52
 3669 0195 3C010000 		.4byte	.LVL52
 3670 0199 4E010000 		.4byte	.LVL54
 3671 019d 0100     		.2byte	0x1
 3672 019f 52       		.byte	0x52
 3673 01a0 4E010000 		.4byte	.LVL54
 3674 01a4 99010000 		.4byte	.LVL55-1
 3675 01a8 0500     		.2byte	0x5
 3676 01aa 03       		.byte	0x3
 3677 01ab 00000000 		.4byte	chuck_error
 3678 01af 00000000 		.4byte	0
 3679 01b3 00000000 		.4byte	0
 3680              	.LLST8:
 3681 01b7 0E010000 		.4byte	.LVL47
 3682 01bb 12010000 		.4byte	.LVL48
 3683 01bf 0900     		.2byte	0x9
ARM GAS  C:\Users\IDONNO~1\AppData\Local\Temp\cctYQzqZ.s 			page 66


 3684 01c1 73       		.byte	0x73
 3685 01c2 00       		.sleb128 0
 3686 01c3 03       		.byte	0x3
 3687 01c4 00000000 		.4byte	last_buffer.10399
 3688 01c8 1C       		.byte	0x1c
 3689 01c9 9F       		.byte	0x9f
 3690 01ca 12010000 		.4byte	.LVL48
 3691 01ce 1C010000 		.4byte	.LVL49
 3692 01d2 0A00     		.2byte	0xa
 3693 01d4 03       		.byte	0x3
 3694 01d5 00000000 		.4byte	last_buffer.10399
 3695 01d9 20       		.byte	0x20
 3696 01da 73       		.byte	0x73
 3697 01db 00       		.sleb128 0
 3698 01dc 22       		.byte	0x22
 3699 01dd 9F       		.byte	0x9f
 3700 01de 1C010000 		.4byte	.LVL49
 3701 01e2 2E010000 		.4byte	.LVL50
 3702 01e6 0900     		.2byte	0x9
 3703 01e8 73       		.byte	0x73
 3704 01e9 00       		.sleb128 0
 3705 01ea 03       		.byte	0x3
 3706 01eb 00000000 		.4byte	last_buffer.10399
 3707 01ef 1C       		.byte	0x1c
 3708 01f0 9F       		.byte	0x9f
 3709 01f1 3C010000 		.4byte	.LVL52
 3710 01f5 40010000 		.4byte	.LVL53
 3711 01f9 0900     		.2byte	0x9
 3712 01fb 73       		.byte	0x73
 3713 01fc 00       		.sleb128 0
 3714 01fd 03       		.byte	0x3
 3715 01fe 00000000 		.4byte	last_buffer.10399
 3716 0202 1C       		.byte	0x1c
 3717 0203 9F       		.byte	0x9f
 3718 0204 00000000 		.4byte	0
 3719 0208 00000000 		.4byte	0
 3720              		.section	.debug_aranges,"",%progbits
 3721 0000 44000000 		.4byte	0x44
 3722 0004 0200     		.2byte	0x2
 3723 0006 00000000 		.4byte	.Ldebug_info0
 3724 000a 04       		.byte	0x4
 3725 000b 00       		.byte	0
 3726 000c 0000     		.2byte	0
 3727 000e 0000     		.2byte	0
 3728 0010 00000000 		.4byte	.LFB261
 3729 0014 44000000 		.4byte	.LFE261-.LFB261
 3730 0018 00000000 		.4byte	.LFB256
 3731 001c 1C000000 		.4byte	.LFE256-.LFB256
 3732 0020 00000000 		.4byte	.LFB257
 3733 0024 2C000000 		.4byte	.LFE257-.LFB257
 3734 0028 00000000 		.4byte	.LFB258
 3735 002c 28000000 		.4byte	.LFE258-.LFB258
 3736 0030 00000000 		.4byte	.LFB259
 3737 0034 54000000 		.4byte	.LFE259-.LFB259
 3738 0038 00000000 		.4byte	.LFB260
 3739 003c B4010000 		.4byte	.LFE260-.LFB260
 3740 0040 00000000 		.4byte	0
ARM GAS  C:\Users\IDONNO~1\AppData\Local\Temp\cctYQzqZ.s 			page 67


 3741 0044 00000000 		.4byte	0
 3742              		.section	.debug_ranges,"",%progbits
 3743              	.Ldebug_ranges0:
 3744 0000 04000000 		.4byte	.LBB11
 3745 0004 0A000000 		.4byte	.LBE11
 3746 0008 0C000000 		.4byte	.LBB14
 3747 000c 0E000000 		.4byte	.LBE14
 3748 0010 00000000 		.4byte	0
 3749 0014 00000000 		.4byte	0
 3750 0018 00000000 		.4byte	.LFB261
 3751 001c 44000000 		.4byte	.LFE261
 3752 0020 00000000 		.4byte	.LFB256
 3753 0024 1C000000 		.4byte	.LFE256
 3754 0028 00000000 		.4byte	.LFB257
 3755 002c 2C000000 		.4byte	.LFE257
 3756 0030 00000000 		.4byte	.LFB258
 3757 0034 28000000 		.4byte	.LFE258
 3758 0038 00000000 		.4byte	.LFB259
 3759 003c 54000000 		.4byte	.LFE259
 3760 0040 00000000 		.4byte	.LFB260
 3761 0044 B4010000 		.4byte	.LFE260
 3762 0048 00000000 		.4byte	0
 3763 004c 00000000 		.4byte	0
 3764              		.section	.debug_line,"",%progbits
 3765              	.Ldebug_line0:
 3766 0000 99040000 		.section	.debug_str,"MS",%progbits,1
 3766      02009303 
 3766      00000201 
 3766      FB0E0D00 
 3766      01010101 
 3767              	.LASF78:
 3768 0000 63685F74 		.ascii	"ch_threads_list\000"
 3768      68726561 
 3768      64735F6C 
 3768      69737400 
 3769              	.LASF79:
 3770 0010 74687265 		.ascii	"threads_queue_t\000"
 3770      6164735F 
 3770      71756575 
 3770      655F7400 
 3771              	.LASF129:
 3772 0020 77746D74 		.ascii	"wtmtxp\000"
 3772      787000
 3773              	.LASF123:
 3774 0027 746D5F63 		.ascii	"tm_calibration_t\000"
 3774      616C6962 
 3774      72617469 
 3774      6F6E5F74 
 3774      00
 3775              	.LASF67:
 3776 0038 705F7469 		.ascii	"p_time\000"
 3776      6D6500
 3777              	.LASF180:
 3778 003f 636F6E66 		.ascii	"conf\000"
 3778      00
 3779              	.LASF138:
 3780 0044 63686172 		.ascii	"char\000"
ARM GAS  C:\Users\IDONNO~1\AppData\Local\Temp\cctYQzqZ.s 			page 68


 3780      00
 3781              	.LASF118:
 3782 0049 72656761 		.ascii	"regarm_t\000"
 3782      726D5F74 
 3782      00
 3783              	.LASF58:
 3784 0052 705F7072 		.ascii	"p_prio\000"
 3784      696F00
 3785              	.LASF24:
 3786 0059 4348554B 		.ascii	"CHUK_CTRL_TYPE_CURRENT_NOREV\000"
 3786      5F435452 
 3786      4C5F5459 
 3786      50455F43 
 3786      55525245 
 3787              	.LASF176:
 3788 0076 646D6172 		.ascii	"dmarx\000"
 3788      7800
 3789              	.LASF136:
 3790 007c 6D5F6F77 		.ascii	"m_owner\000"
 3790      6E657200 
 3791              	.LASF132:
 3792 0084 735F7175 		.ascii	"s_queue\000"
 3792      65756500 
 3793              	.LASF99:
 3794 008c 76745F73 		.ascii	"vt_systime\000"
 3794      79737469 
 3794      6D6500
 3795              	.LASF150:
 3796 0097 4932435F 		.ascii	"I2C_ACTIVE_RX\000"
 3796      41435449 
 3796      56455F52 
 3796      5800
 3797              	.LASF209:
 3798 00a5 6932634D 		.ascii	"i2cMasterTransmitTimeout\000"
 3798      61737465 
 3798      72547261 
 3798      6E736D69 
 3798      7454696D 
 3799              	.LASF167:
 3800 00be 49324344 		.ascii	"I2CDriver\000"
 3800      72697665 
 3800      7200
 3801              	.LASF158:
 3802 00c8 6932636F 		.ascii	"i2copmode_t\000"
 3802      706D6F64 
 3802      655F7400 
 3803              	.LASF194:
 3804 00d4 73616D65 		.ascii	"same\000"
 3804      00
 3805              	.LASF76:
 3806 00d9 74687265 		.ascii	"threads_list_t\000"
 3806      6164735F 
 3806      6C697374 
 3806      5F7400
 3807              	.LASF68:
 3808 00e8 705F7761 		.ascii	"p_waiting\000"
 3808      6974696E 
ARM GAS  C:\Users\IDONNO~1\AppData\Local\Temp\cctYQzqZ.s 			page 69


 3808      6700
 3809              	.LASF6:
 3810 00f2 5F5F696E 		.ascii	"__int32_t\000"
 3810      7433325F 
 3810      7400
 3811              	.LASF33:
 3812 00fc 6D756C74 		.ascii	"multi_esc\000"
 3812      695F6573 
 3812      6300
 3813              	.LASF215:
 3814 0106 443A5C67 		.ascii	"D:\\git\\oroca_bldc_dev\\oroca_bldc_fw\\oroca_bldc_"
 3814      69745C6F 
 3814      726F6361 
 3814      5F626C64 
 3814      635F6465 
 3815 0135 63686962 		.ascii	"chibios\000"
 3815      696F7300 
 3816              	.LASF126:
 3817 013d 77746F62 		.ascii	"wtobjp\000"
 3817      6A7000
 3818              	.LASF106:
 3819 0144 76746C69 		.ascii	"vtlist\000"
 3819      737400
 3820              	.LASF25:
 3821 014b 6368756B 		.ascii	"chuk_control_type\000"
 3821      5F636F6E 
 3821      74726F6C 
 3821      5F747970 
 3821      6500
 3822              	.LASF82:
 3823 015d 63685F72 		.ascii	"ch_ready_list\000"
 3823      65616479 
 3823      5F6C6973 
 3823      7400
 3824              	.LASF108:
 3825 016b 69646C65 		.ascii	"idle_thread_wa\000"
 3825      5F746872 
 3825      6561645F 
 3825      776100
 3826              	.LASF53:
 3827 017a 636E745F 		.ascii	"cnt_t\000"
 3827      7400
 3828              	.LASF109:
 3829 0180 4E445452 		.ascii	"NDTR\000"
 3829      00
 3830              	.LASF204:
 3831 0185 74696D65 		.ascii	"timeout_has_timeout\000"
 3831      6F75745F 
 3831      6861735F 
 3831      74696D65 
 3831      6F757400 
 3832              	.LASF130:
 3833 0199 65776D61 		.ascii	"ewmask\000"
 3833      736B00
 3834              	.LASF197:
 3835 01a0 69735F72 		.ascii	"is_running\000"
 3835      756E6E69 
ARM GAS  C:\Users\IDONNO~1\AppData\Local\Temp\cctYQzqZ.s 			page 70


 3835      6E6700
 3836              	.LASF133:
 3837 01ab 735F636E 		.ascii	"s_cnt\000"
 3837      7400
 3838              	.LASF101:
 3839 01b1 63685F73 		.ascii	"ch_system_debug\000"
 3839      79737465 
 3839      6D5F6465 
 3839      62756700 
 3840              	.LASF177:
 3841 01c1 646D6174 		.ascii	"dmatx\000"
 3841      7800
 3842              	.LASF17:
 3843 01c7 75696E74 		.ascii	"uint32_t\000"
 3843      33325F74 
 3843      00
 3844              	.LASF155:
 3845 01d0 4F504D4F 		.ascii	"OPMODE_I2C\000"
 3845      44455F49 
 3845      324300
 3846              	.LASF31:
 3847 01db 72616D70 		.ascii	"ramp_time_neg\000"
 3847      5F74696D 
 3847      655F6E65 
 3847      6700
 3848              	.LASF149:
 3849 01e9 4932435F 		.ascii	"I2C_ACTIVE_TX\000"
 3849      41435449 
 3849      56455F54 
 3849      5800
 3850              	.LASF52:
 3851 01f7 6576656E 		.ascii	"eventmask_t\000"
 3851      746D6173 
 3851      6B5F7400 
 3852              	.LASF84:
 3853 0203 725F7072 		.ascii	"r_prio\000"
 3853      696F00
 3854              	.LASF141:
 3855 020a 69666372 		.ascii	"ifcr\000"
 3855      00
 3856              	.LASF96:
 3857 020f 76745F70 		.ascii	"vt_par\000"
 3857      617200
 3858              	.LASF21:
 3859 0216 666C6F61 		.ascii	"float\000"
 3859      7400
 3860              	.LASF171:
 3861 021c 6D757465 		.ascii	"mutex\000"
 3861      7800
 3862              	.LASF27:
 3863 0222 68797374 		.ascii	"hyst\000"
 3863      00
 3864              	.LASF131:
 3865 0227 63685F73 		.ascii	"ch_semaphore\000"
 3865      656D6170 
 3865      686F7265 
 3865      00
ARM GAS  C:\Users\IDONNO~1\AppData\Local\Temp\cctYQzqZ.s 			page 71


 3866              	.LASF50:
 3867 0234 74707269 		.ascii	"tprio_t\000"
 3867      6F5F7400 
 3868              	.LASF91:
 3869 023c 63685F76 		.ascii	"ch_virtual_timer\000"
 3869      69727475 
 3869      616C5F74 
 3869      696D6572 
 3869      00
 3870              	.LASF75:
 3871 024d 74687265 		.ascii	"thread_reference_t\000"
 3871      61645F72 
 3871      65666572 
 3871      656E6365 
 3871      5F7400
 3872              	.LASF212:
 3873 0260 68775F73 		.ascii	"hw_start_i2c\000"
 3873      74617274 
 3873      5F693263 
 3873      00
 3874              	.LASF199:
 3875 026d 63687563 		.ascii	"chuck_error\000"
 3875      6B5F6572 
 3875      726F7200 
 3876              	.LASF12:
 3877 0279 6C6F6E67 		.ascii	"long long unsigned int\000"
 3877      206C6F6E 
 3877      6720756E 
 3877      7369676E 
 3877      65642069 
 3878              	.LASF144:
 3879 0290 76656374 		.ascii	"vector\000"
 3879      6F7200
 3880              	.LASF190:
 3881 0297 63687563 		.ascii	"chuck_addr\000"
 3881      6B5F6164 
 3881      647200
 3882              	.LASF170:
 3883 02a2 6572726F 		.ascii	"errors\000"
 3883      727300
 3884              	.LASF152:
 3885 02a9 69326373 		.ascii	"i2cstate_t\000"
 3885      74617465 
 3885      5F7400
 3886              	.LASF4:
 3887 02b4 5F5F7569 		.ascii	"__uint16_t\000"
 3887      6E743136 
 3887      5F7400
 3888              	.LASF195:
 3889 02bf 6368756B 		.ascii	"chuk_thread_wa\000"
 3889      5F746872 
 3889      6561645F 
 3889      776100
 3890              	.LASF166:
 3891 02ce 49324343 		.ascii	"I2CConfig\000"
 3891      6F6E6669 
 3891      6700
ARM GAS  C:\Users\IDONNO~1\AppData\Local\Temp\cctYQzqZ.s 			page 72


 3892              	.LASF191:
 3893 02d8 63687563 		.ascii	"chuck_d_tmp\000"
 3893      6B5F645F 
 3893      746D7000 
 3894              	.LASF60:
 3895 02e4 705F6E65 		.ascii	"p_newer\000"
 3895      77657200 
 3896              	.LASF188:
 3897 02ec 74786275 		.ascii	"txbuf\000"
 3897      6600
 3898              	.LASF98:
 3899 02f2 63685F76 		.ascii	"ch_virtual_timers_list\000"
 3899      69727475 
 3899      616C5F74 
 3899      696D6572 
 3899      735F6C69 
 3900              	.LASF162:
 3901 0309 69326364 		.ascii	"i2cdutycycle_t\000"
 3901      75747963 
 3901      79636C65 
 3901      5F7400
 3902              	.LASF154:
 3903 0318 69326366 		.ascii	"i2cflags_t\000"
 3903      6C616773 
 3903      5F7400
 3904              	.LASF55:
 3905 0323 74687265 		.ascii	"thread_t\000"
 3905      61645F74 
 3905      00
 3906              	.LASF214:
 3907 032c 7372632F 		.ascii	"src/app/app_nunchuk.c\000"
 3907      6170702F 
 3907      6170705F 
 3907      6E756E63 
 3907      68756B2E 
 3908              	.LASF30:
 3909 0342 72616D70 		.ascii	"ramp_time_pos\000"
 3909      5F74696D 
 3909      655F706F 
 3909      7300
 3910              	.LASF44:
 3911 0350 73697A65 		.ascii	"size_t\000"
 3911      5F7400
 3912              	.LASF124:
 3913 0357 7264796D 		.ascii	"rdymsg\000"
 3913      736700
 3914              	.LASF89:
 3915 035e 76746675 		.ascii	"vtfunc_t\000"
 3915      6E635F74 
 3915      00
 3916              	.LASF122:
 3917 0367 6F666673 		.ascii	"offset\000"
 3917      657400
 3918              	.LASF20:
 3919 036e 5F426F6F 		.ascii	"_Bool\000"
 3919      6C00
 3920              	.LASF213:
ARM GAS  C:\Users\IDONNO~1\AppData\Local\Temp\cctYQzqZ.s 			page 73


 3921 0374 474E5520 		.ascii	"GNU C99 5.4.1 20160919 (release) [ARM/embedded-5-br"
 3921      43393920 
 3921      352E342E 
 3921      31203230 
 3921      31363039 
 3922 03a7 616E6368 		.ascii	"anch revision 240496] -mcpu=cortex-m4 -mfloat-abi=h"
 3922      20726576 
 3922      6973696F 
 3922      6E203234 
 3922      30343936 
 3923 03da 61726420 		.ascii	"ard -mfpu=fpv4-sp-d16 -mno-thumb-interwork -mthumb "
 3923      2D6D6670 
 3923      753D6670 
 3923      76342D73 
 3923      702D6431 
 3924 040d 2D676764 		.ascii	"-ggdb -O2 -std=gnu99 -fomit-frame-pointer -falign-f"
 3924      62202D4F 
 3924      32202D73 
 3924      74643D67 
 3924      6E753939 
 3925 0440 756E6374 		.ascii	"unctions=16 -ffunction-sections -fdata-sections -fn"
 3925      696F6E73 
 3925      3D313620 
 3925      2D666675 
 3925      6E637469 
 3926 0473 6F2D636F 		.ascii	"o-common -fsingle-precision-constant\000"
 3926      6D6D6F6E 
 3926      202D6673 
 3926      696E676C 
 3926      652D7072 
 3927              	.LASF186:
 3928 0498 6368756B 		.ascii	"chuk_thread\000"
 3928      5F746872 
 3928      65616400 
 3929              	.LASF113:
 3930 04a4 4F415231 		.ascii	"OAR1\000"
 3930      00
 3931              	.LASF114:
 3932 04a9 4F415232 		.ascii	"OAR2\000"
 3932      00
 3933              	.LASF134:
 3934 04ae 63685F6D 		.ascii	"ch_mutex\000"
 3934      75746578 
 3934      00
 3935              	.LASF11:
 3936 04b7 5F5F7569 		.ascii	"__uint64_t\000"
 3936      6E743634 
 3936      5F7400
 3937              	.LASF159:
 3938 04c2 5354445F 		.ascii	"STD_DUTY_CYCLE\000"
 3938      44555459 
 3938      5F435943 
 3938      4C4500
 3939              	.LASF165:
 3940 04d1 64757479 		.ascii	"duty_cycle\000"
 3940      5F637963 
 3940      6C6500
ARM GAS  C:\Users\IDONNO~1\AppData\Local\Temp\cctYQzqZ.s 			page 74


 3941              	.LASF29:
 3942 04dc 72706D5F 		.ascii	"rpm_lim_end\000"
 3942      6C696D5F 
 3942      656E6400 
 3943              	.LASF110:
 3944 04e8 4D304152 		.ascii	"M0AR\000"
 3944      00
 3945              	.LASF54:
 3946 04ed 73797374 		.ascii	"systime_t\000"
 3946      696D655F 
 3946      7400
 3947              	.LASF62:
 3948 04f7 705F6E61 		.ascii	"p_name\000"
 3948      6D6500
 3949              	.LASF94:
 3950 04fe 76745F64 		.ascii	"vt_delta\000"
 3950      656C7461 
 3950      00
 3951              	.LASF86:
 3952 0507 725F6E65 		.ascii	"r_newer\000"
 3952      77657200 
 3953              	.LASF175:
 3954 050f 7478646D 		.ascii	"txdmamode\000"
 3954      616D6F64 
 3954      6500
 3955              	.LASF142:
 3956 0519 69736869 		.ascii	"ishift\000"
 3956      667400
 3957              	.LASF47:
 3958 0520 74737461 		.ascii	"tstate_t\000"
 3958      74655F74 
 3958      00
 3959              	.LASF184:
 3960 0529 64617461 		.ascii	"data\000"
 3960      00
 3961              	.LASF145:
 3962 052e 73746D33 		.ascii	"stm32_dma_stream_t\000"
 3962      325F646D 
 3962      615F7374 
 3962      7265616D 
 3962      5F7400
 3963              	.LASF10:
 3964 0541 6C6F6E67 		.ascii	"long long int\000"
 3964      206C6F6E 
 3964      6720696E 
 3964      7400
 3965              	.LASF61:
 3966 054f 705F6F6C 		.ascii	"p_older\000"
 3966      64657200 
 3967              	.LASF161:
 3968 0557 46415354 		.ascii	"FAST_DUTY_CYCLE_16_9\000"
 3968      5F445554 
 3968      595F4359 
 3968      434C455F 
 3968      31365F39 
 3969              	.LASF14:
 3970 056c 75696E74 		.ascii	"uint8_t\000"
ARM GAS  C:\Users\IDONNO~1\AppData\Local\Temp\cctYQzqZ.s 			page 75


 3970      385F7400 
 3971              	.LASF115:
 3972 0574 54524953 		.ascii	"TRISE\000"
 3972      4500
 3973              	.LASF22:
 3974 057a 4348554B 		.ascii	"CHUK_CTRL_TYPE_NONE\000"
 3974      5F435452 
 3974      4C5F5459 
 3974      50455F4E 
 3974      4F4E4500 
 3975              	.LASF74:
 3976 058e 705F6D70 		.ascii	"p_mpool\000"
 3976      6F6F6C00 
 3977              	.LASF72:
 3978 0596 705F6D74 		.ascii	"p_mtxlist\000"
 3978      786C6973 
 3978      7400
 3979              	.LASF42:
 3980 05a0 62745F7A 		.ascii	"bt_z\000"
 3980      00
 3981              	.LASF77:
 3982 05a5 63685F74 		.ascii	"ch_thread\000"
 3982      68726561 
 3982      6400
 3983              	.LASF100:
 3984 05af 73797374 		.ascii	"system_debug_t\000"
 3984      656D5F64 
 3984      65627567 
 3984      5F7400
 3985              	.LASF80:
 3986 05be 63685F74 		.ascii	"ch_threads_queue\000"
 3986      68726561 
 3986      64735F71 
 3986      75657565 
 3986      00
 3987              	.LASF200:
 3988 05cf 6F757470 		.ascii	"output_running\000"
 3988      75745F72 
 3988      756E6E69 
 3988      6E6700
 3989              	.LASF157:
 3990 05de 4F504D4F 		.ascii	"OPMODE_SMBUS_HOST\000"
 3990      44455F53 
 3990      4D425553 
 3990      5F484F53 
 3990      5400
 3991              	.LASF83:
 3992 05f0 725F7175 		.ascii	"r_queue\000"
 3992      65756500 
 3993              	.LASF146:
 3994 05f8 4932435F 		.ascii	"I2C_UNINIT\000"
 3994      554E494E 
 3994      495400
 3995              	.LASF23:
 3996 0603 4348554B 		.ascii	"CHUK_CTRL_TYPE_CURRENT\000"
 3996      5F435452 
 3996      4C5F5459 
ARM GAS  C:\Users\IDONNO~1\AppData\Local\Temp\cctYQzqZ.s 			page 76


 3996      50455F43 
 3996      55525245 
 3997              	.LASF51:
 3998 061a 6D73675F 		.ascii	"msg_t\000"
 3998      7400
 3999              	.LASF120:
 4000 0620 636F6E74 		.ascii	"context\000"
 4000      65787400 
 4001              	.LASF64:
 4002 0628 705F666C 		.ascii	"p_flags\000"
 4002      61677300 
 4003              	.LASF90:
 4004 0630 76697274 		.ascii	"virtual_timer_t\000"
 4004      75616C5F 
 4004      74696D65 
 4004      725F7400 
 4005              	.LASF210:
 4006 0640 69326352 		.ascii	"i2cReleaseBus\000"
 4006      656C6561 
 4006      73654275 
 4006      7300
 4007              	.LASF112:
 4008 064e 444D415F 		.ascii	"DMA_Stream_TypeDef\000"
 4008      53747265 
 4008      616D5F54 
 4008      79706544 
 4008      656600
 4009              	.LASF63:
 4010 0661 705F7374 		.ascii	"p_state\000"
 4010      61746500 
 4011              	.LASF164:
 4012 0669 636C6F63 		.ascii	"clock_speed\000"
 4012      6B5F7370 
 4012      65656400 
 4013              	.LASF49:
 4014 0675 74736C69 		.ascii	"tslices_t\000"
 4014      6365735F 
 4014      7400
 4015              	.LASF87:
 4016 067f 725F6F6C 		.ascii	"r_older\000"
 4016      64657200 
 4017              	.LASF116:
 4018 0687 464C5452 		.ascii	"FLTR\000"
 4018      00
 4019              	.LASF160:
 4020 068c 46415354 		.ascii	"FAST_DUTY_CYCLE_2\000"
 4020      5F445554 
 4020      595F4359 
 4020      434C455F 
 4020      3200
 4021              	.LASF205:
 4022 069e 63685468 		.ascii	"chThdCreateStatic\000"
 4022      64437265 
 4022      61746553 
 4022      74617469 
 4022      6300
 4023              	.LASF70:
ARM GAS  C:\Users\IDONNO~1\AppData\Local\Temp\cctYQzqZ.s 			page 77


 4024 06b0 705F6D73 		.ascii	"p_msg\000"
 4024      6700
 4025              	.LASF46:
 4026 06b6 746D6F64 		.ascii	"tmode_t\000"
 4026      655F7400 
 4027              	.LASF107:
 4028 06be 6D61696E 		.ascii	"mainthread\000"
 4028      74687265 
 4028      616400
 4029              	.LASF179:
 4030 06c9 6C6F6E67 		.ascii	"long double\000"
 4030      20646F75 
 4030      626C6500 
 4031              	.LASF15:
 4032 06d5 75696E74 		.ascii	"uint16_t\000"
 4032      31365F74 
 4032      00
 4033              	.LASF41:
 4034 06de 62745F63 		.ascii	"bt_c\000"
 4034      00
 4035              	.LASF185:
 4036 06e3 6F757470 		.ascii	"output_thread\000"
 4036      75745F74 
 4036      68726561 
 4036      6400
 4037              	.LASF216:
 4038 06f1 63685265 		.ascii	"chRegSetThreadName\000"
 4038      67536574 
 4038      54687265 
 4038      61644E61 
 4038      6D6500
 4039              	.LASF45:
 4040 0704 7274636E 		.ascii	"rtcnt_t\000"
 4040      745F7400 
 4041              	.LASF163:
 4042 070c 6F705F6D 		.ascii	"op_mode\000"
 4042      6F646500 
 4043              	.LASF148:
 4044 0714 4932435F 		.ascii	"I2C_READY\000"
 4044      52454144 
 4044      5900
 4045              	.LASF196:
 4046 071e 6F757470 		.ascii	"output_thread_wa\000"
 4046      75745F74 
 4046      68726561 
 4046      645F7761 
 4046      00
 4047              	.LASF169:
 4048 072f 636F6E66 		.ascii	"config\000"
 4048      696700
 4049              	.LASF73:
 4050 0736 705F7265 		.ascii	"p_realprio\000"
 4050      616C7072 
 4050      696F00
 4051              	.LASF2:
 4052 0741 73686F72 		.ascii	"short int\000"
 4052      7420696E 
ARM GAS  C:\Users\IDONNO~1\AppData\Local\Temp\cctYQzqZ.s 			page 78


 4052      7400
 4053              	.LASF88:
 4054 074b 725F6375 		.ascii	"r_current\000"
 4054      7272656E 
 4054      7400
 4055              	.LASF182:
 4056 0755 6170705F 		.ascii	"app_nunchuk_start\000"
 4056      6E756E63 
 4056      68756B5F 
 4056      73746172 
 4056      7400
 4057              	.LASF71:
 4058 0767 705F6570 		.ascii	"p_epending\000"
 4058      656E6469 
 4058      6E6700
 4059              	.LASF135:
 4060 0772 6D5F7175 		.ascii	"m_queue\000"
 4060      65756500 
 4061              	.LASF7:
 4062 077a 6C6F6E67 		.ascii	"long int\000"
 4062      20696E74 
 4062      00
 4063              	.LASF121:
 4064 0783 706F7274 		.ascii	"port_intctx\000"
 4064      5F696E74 
 4064      63747800 
 4065              	.LASF36:
 4066 078f 6A735F78 		.ascii	"js_x\000"
 4066      00
 4067              	.LASF37:
 4068 0794 6A735F79 		.ascii	"js_y\000"
 4068      00
 4069              	.LASF153:
 4070 0799 69326361 		.ascii	"i2caddr_t\000"
 4070      6464725F 
 4070      7400
 4071              	.LASF201:
 4072 07a3 49544D5F 		.ascii	"ITM_RxBuffer\000"
 4072      52784275 
 4072      66666572 
 4072      00
 4073              	.LASF151:
 4074 07b0 4932435F 		.ascii	"I2C_LOCKED\000"
 4074      4C4F434B 
 4074      454400
 4075              	.LASF189:
 4076 07bb 73746174 		.ascii	"status\000"
 4076      757300
 4077              	.LASF104:
 4078 07c2 63685F73 		.ascii	"ch_system\000"
 4078      79737465 
 4078      6D00
 4079              	.LASF56:
 4080 07cc 705F6E65 		.ascii	"p_next\000"
 4080      787400
 4081              	.LASF18:
 4082 07d3 75696E74 		.ascii	"uint64_t\000"
ARM GAS  C:\Users\IDONNO~1\AppData\Local\Temp\cctYQzqZ.s 			page 79


 4082      36345F74 
 4082      00
 4083              	.LASF59:
 4084 07dc 705F6374 		.ascii	"p_ctx\000"
 4084      7800
 4085              	.LASF105:
 4086 07e2 726C6973 		.ascii	"rlist\000"
 4086      7400
 4087              	.LASF198:
 4088 07e8 63687563 		.ascii	"chuck_d\000"
 4088      6B5F6400 
 4089              	.LASF3:
 4090 07f0 5F5F7569 		.ascii	"__uint8_t\000"
 4090      6E74385F 
 4090      7400
 4091              	.LASF217:
 4092 07fa 6E616D65 		.ascii	"name\000"
 4092      00
 4093              	.LASF13:
 4094 07ff 756E7369 		.ascii	"unsigned int\000"
 4094      676E6564 
 4094      20696E74 
 4094      00
 4095              	.LASF218:
 4096 080c 6170705F 		.ascii	"app_nunchuk_get_decoded_chuk\000"
 4096      6E756E63 
 4096      68756B5F 
 4096      6765745F 
 4096      6465636F 
 4097              	.LASF111:
 4098 0829 4D314152 		.ascii	"M1AR\000"
 4098      00
 4099              	.LASF192:
 4100 082e 69735F6F 		.ascii	"is_ok\000"
 4100      6B00
 4101              	.LASF211:
 4102 0834 6932634D 		.ascii	"i2cMasterReceiveTimeout\000"
 4102      61737465 
 4102      72526563 
 4102      65697665 
 4102      54696D65 
 4103              	.LASF193:
 4104 084c 6C617374 		.ascii	"last_buffer\000"
 4104      5F627566 
 4104      66657200 
 4105              	.LASF57:
 4106 0858 705F7072 		.ascii	"p_prev\000"
 4106      657600
 4107              	.LASF19:
 4108 085f 73697A65 		.ascii	"sizetype\000"
 4108      74797065 
 4108      00
 4109              	.LASF48:
 4110 0868 74726566 		.ascii	"trefs_t\000"
 4110      735F7400 
 4111              	.LASF9:
 4112 0870 6C6F6E67 		.ascii	"long unsigned int\000"
ARM GAS  C:\Users\IDONNO~1\AppData\Local\Temp\cctYQzqZ.s 			page 80


 4112      20756E73 
 4112      69676E65 
 4112      6420696E 
 4112      7400
 4113              	.LASF81:
 4114 0882 72656164 		.ascii	"ready_list_t\000"
 4114      795F6C69 
 4114      73745F74 
 4114      00
 4115              	.LASF26:
 4116 088f 6374726C 		.ascii	"ctrl_type\000"
 4116      5F747970 
 4116      6500
 4117              	.LASF16:
 4118 0899 696E7433 		.ascii	"int32_t\000"
 4118      325F7400 
 4119              	.LASF156:
 4120 08a1 4F504D4F 		.ascii	"OPMODE_SMBUS_DEVICE\000"
 4120      44455F53 
 4120      4D425553 
 4120      5F444556 
 4120      49434500 
 4121              	.LASF172:
 4122 08b5 74687265 		.ascii	"thread\000"
 4122      616400
 4123              	.LASF128:
 4124 08bc 77747365 		.ascii	"wtsemp\000"
 4124      6D7000
 4125              	.LASF147:
 4126 08c3 4932435F 		.ascii	"I2C_STOP\000"
 4126      53544F50 
 4126      00
 4127              	.LASF139:
 4128 08cc 6D757465 		.ascii	"mutex_t\000"
 4128      785F7400 
 4129              	.LASF43:
 4130 08d4 63687563 		.ascii	"chuck_data\000"
 4130      6B5F6461 
 4130      746100
 4131              	.LASF1:
 4132 08df 756E7369 		.ascii	"unsigned char\000"
 4132      676E6564 
 4132      20636861 
 4132      7200
 4133              	.LASF34:
 4134 08ed 74635F6D 		.ascii	"tc_max_diff\000"
 4134      61785F64 
 4134      69666600 
 4135              	.LASF8:
 4136 08f9 5F5F7569 		.ascii	"__uint32_t\000"
 4136      6E743332 
 4136      5F7400
 4137              	.LASF208:
 4138 0904 69326341 		.ascii	"i2cAcquireBus\000"
 4138      63717569 
 4138      72654275 
 4138      7300
ARM GAS  C:\Users\IDONNO~1\AppData\Local\Temp\cctYQzqZ.s 			page 81


 4139              	.LASF97:
 4140 0912 76697274 		.ascii	"virtual_timers_list_t\000"
 4140      75616C5F 
 4140      74696D65 
 4140      72735F6C 
 4140      6973745F 
 4141              	.LASF65:
 4142 0928 705F7265 		.ascii	"p_refs\000"
 4142      667300
 4143              	.LASF102:
 4144 092f 70616E69 		.ascii	"panic_msg\000"
 4144      635F6D73 
 4144      6700
 4145              	.LASF174:
 4146 0939 7278646D 		.ascii	"rxdmamode\000"
 4146      616D6F64 
 4146      6500
 4147              	.LASF117:
 4148 0943 4932435F 		.ascii	"I2C_TypeDef\000"
 4148      54797065 
 4148      44656600 
 4149              	.LASF203:
 4150 094f 63685468 		.ascii	"chThdSleep\000"
 4150      64536C65 
 4150      657000
 4151              	.LASF35:
 4152 095a 6368756B 		.ascii	"chuk_config\000"
 4152      5F636F6E 
 4152      66696700 
 4153              	.LASF66:
 4154 0966 705F7072 		.ascii	"p_preempt\000"
 4154      65656D70 
 4154      7400
 4155              	.LASF173:
 4156 0970 61646472 		.ascii	"addr\000"
 4156      00
 4157              	.LASF32:
 4158 0975 73746963 		.ascii	"stick_erpm_per_s_in_cc\000"
 4158      6B5F6572 
 4158      706D5F70 
 4158      65725F73 
 4158      5F696E5F 
 4159              	.LASF168:
 4160 098c 73746174 		.ascii	"state\000"
 4160      6500
 4161              	.LASF28:
 4162 0992 72706D5F 		.ascii	"rpm_lim_start\000"
 4162      6C696D5F 
 4162      73746172 
 4162      7400
 4163              	.LASF92:
 4164 09a0 76745F6E 		.ascii	"vt_next\000"
 4164      65787400 
 4165              	.LASF38:
 4166 09a8 6163635F 		.ascii	"acc_x\000"
 4166      7800
 4167              	.LASF39:
ARM GAS  C:\Users\IDONNO~1\AppData\Local\Temp\cctYQzqZ.s 			page 82


 4168 09ae 6163635F 		.ascii	"acc_y\000"
 4168      7900
 4169              	.LASF40:
 4170 09b4 6163635F 		.ascii	"acc_z\000"
 4170      7A00
 4171              	.LASF103:
 4172 09ba 63685F73 		.ascii	"ch_system_t\000"
 4172      79737465 
 4172      6D5F7400 
 4173              	.LASF127:
 4174 09c6 77747472 		.ascii	"wttrp\000"
 4174      7000
 4175              	.LASF137:
 4176 09cc 6D5F6E65 		.ascii	"m_next\000"
 4176      787400
 4177              	.LASF0:
 4178 09d3 7369676E 		.ascii	"signed char\000"
 4178      65642063 
 4178      68617200 
 4179              	.LASF181:
 4180 09df 6170705F 		.ascii	"app_nunchuk_configure\000"
 4180      6E756E63 
 4180      68756B5F 
 4180      636F6E66 
 4180      69677572 
 4181              	.LASF5:
 4182 09f5 73686F72 		.ascii	"short unsigned int\000"
 4182      7420756E 
 4182      7369676E 
 4182      65642069 
 4182      6E7400
 4183              	.LASF85:
 4184 0a08 725F6374 		.ascii	"r_ctx\000"
 4184      7800
 4185              	.LASF183:
 4186 0a0e 6170705F 		.ascii	"app_nunchuk_update_output\000"
 4186      6E756E63 
 4186      68756B5F 
 4186      75706461 
 4186      74655F6F 
 4187              	.LASF119:
 4188 0a28 73746B61 		.ascii	"stkalign_t\000"
 4188      6C69676E 
 4188      5F7400
 4189              	.LASF69:
 4190 0a33 705F6D73 		.ascii	"p_msgqueue\000"
 4190      67717565 
 4190      756500
 4191              	.LASF95:
 4192 0a3e 76745F66 		.ascii	"vt_func\000"
 4192      756E6300 
 4193              	.LASF178:
 4194 0a46 646F7562 		.ascii	"double\000"
 4194      6C6500
 4195              	.LASF93:
 4196 0a4d 76745F70 		.ascii	"vt_prev\000"
 4196      72657600 
ARM GAS  C:\Users\IDONNO~1\AppData\Local\Temp\cctYQzqZ.s 			page 83


 4197              	.LASF202:
 4198 0a55 49324344 		.ascii	"I2CD2\000"
 4198      3200
 4199              	.LASF206:
 4200 0a5b 74696D65 		.ascii	"timeout_reset\000"
 4200      6F75745F 
 4200      72657365 
 4200      7400
 4201              	.LASF125:
 4202 0a69 65786974 		.ascii	"exitcode\000"
 4202      636F6465 
 4202      00
 4203              	.LASF143:
 4204 0a72 73656C66 		.ascii	"selfindex\000"
 4204      696E6465 
 4204      7800
 4205              	.LASF187:
 4206 0a7c 72786275 		.ascii	"rxbuf\000"
 4206      6600
 4207              	.LASF207:
 4208 0a82 68775F74 		.ascii	"hw_try_restore_i2c\000"
 4208      72795F72 
 4208      6573746F 
 4208      72655F69 
 4208      326300
 4209              	.LASF140:
 4210 0a95 73747265 		.ascii	"stream\000"
 4210      616D00
 4211              		.ident	"GCC: (GNU Tools for ARM Embedded Processors) 5.4.1 20160919 (release) [ARM/embedded-5-bran
ARM GAS  C:\Users\IDONNO~1\AppData\Local\Temp\cctYQzqZ.s 			page 84


DEFINED SYMBOLS
                            *ABS*:00000000 app_nunchuk.c
C:\Users\IDONNO~1\AppData\Local\Temp\cctYQzqZ.s:22     .text.output_thread:00000000 $t
C:\Users\IDONNO~1\AppData\Local\Temp\cctYQzqZ.s:27     .text.output_thread:00000000 output_thread
C:\Users\IDONNO~1\AppData\Local\Temp\cctYQzqZ.s:84     .text.output_thread:00000034 $d
C:\Users\IDONNO~1\AppData\Local\Temp\cctYQzqZ.s:92     .text.app_nunchuk_configure:00000000 $t
C:\Users\IDONNO~1\AppData\Local\Temp\cctYQzqZ.s:98     .text.app_nunchuk_configure:00000000 app_nunchuk_configure
C:\Users\IDONNO~1\AppData\Local\Temp\cctYQzqZ.s:131    .text.app_nunchuk_configure:00000018 $d
C:\Users\IDONNO~1\AppData\Local\Temp\cctYQzqZ.s:136    .text.app_nunchuk_start:00000000 $t
C:\Users\IDONNO~1\AppData\Local\Temp\cctYQzqZ.s:142    .text.app_nunchuk_start:00000000 app_nunchuk_start
C:\Users\IDONNO~1\AppData\Local\Temp\cctYQzqZ.s:180    .text.app_nunchuk_start:00000020 $d
C:\Users\IDONNO~1\AppData\Local\Temp\cctYQzqZ.s:309    .text.chuk_thread:00000000 chuk_thread
C:\Users\IDONNO~1\AppData\Local\Temp\cctYQzqZ.s:187    .text.app_nunchuk_get_decoded_chuk:00000000 $t
C:\Users\IDONNO~1\AppData\Local\Temp\cctYQzqZ.s:193    .text.app_nunchuk_get_decoded_chuk:00000000 app_nunchuk_get_decoded_chuk
C:\Users\IDONNO~1\AppData\Local\Temp\cctYQzqZ.s:213    .text.app_nunchuk_get_decoded_chuk:0000001c $d
C:\Users\IDONNO~1\AppData\Local\Temp\cctYQzqZ.s:220    .text.app_nunchuk_update_output:00000000 $t
C:\Users\IDONNO~1\AppData\Local\Temp\cctYQzqZ.s:226    .text.app_nunchuk_update_output:00000000 app_nunchuk_update_output
C:\Users\IDONNO~1\AppData\Local\Temp\cctYQzqZ.s:296    .text.app_nunchuk_update_output:00000044 $d
C:\Users\IDONNO~1\AppData\Local\Temp\cctYQzqZ.s:304    .text.chuk_thread:00000000 $t
C:\Users\IDONNO~1\AppData\Local\Temp\cctYQzqZ.s:595    .text.chuk_thread:0000019c $d
C:\Users\IDONNO~1\AppData\Local\Temp\cctYQzqZ.s:610    .bss.output_running:00000000 output_running
C:\Users\IDONNO~1\AppData\Local\Temp\cctYQzqZ.s:611    .bss.output_running:00000000 $d
C:\Users\IDONNO~1\AppData\Local\Temp\cctYQzqZ.s:613    .bss.chuk_thread_wa:00000000 $d
C:\Users\IDONNO~1\AppData\Local\Temp\cctYQzqZ.s:617    .bss.chuk_thread_wa:00000000 chuk_thread_wa
C:\Users\IDONNO~1\AppData\Local\Temp\cctYQzqZ.s:620    .bss.output_thread_wa:00000000 $d
C:\Users\IDONNO~1\AppData\Local\Temp\cctYQzqZ.s:624    .bss.output_thread_wa:00000000 output_thread_wa
C:\Users\IDONNO~1\AppData\Local\Temp\cctYQzqZ.s:630    .bss.is_running:00000000 is_running
C:\Users\IDONNO~1\AppData\Local\Temp\cctYQzqZ.s:631    .bss.is_running:00000000 $d
C:\Users\IDONNO~1\AppData\Local\Temp\cctYQzqZ.s:633    .bss.last_buffer.10399:00000000 $d
C:\Users\IDONNO~1\AppData\Local\Temp\cctYQzqZ.s:637    .bss.last_buffer.10399:00000000 last_buffer.10399
C:\Users\IDONNO~1\AppData\Local\Temp\cctYQzqZ.s:640    .bss.chuck_d:00000000 $d
C:\Users\IDONNO~1\AppData\Local\Temp\cctYQzqZ.s:644    .bss.chuck_d:00000000 chuck_d
C:\Users\IDONNO~1\AppData\Local\Temp\cctYQzqZ.s:647    .rodata.str1.4:00000000 $d
C:\Users\IDONNO~1\AppData\Local\Temp\cctYQzqZ.s:654    .bss.chuck_error:00000000 $d
C:\Users\IDONNO~1\AppData\Local\Temp\cctYQzqZ.s:658    .bss.chuck_error:00000000 chuck_error
C:\Users\IDONNO~1\AppData\Local\Temp\cctYQzqZ.s:661    .bss.config:00000000 $d
C:\Users\IDONNO~1\AppData\Local\Temp\cctYQzqZ.s:665    .bss.config:00000000 config
                     .debug_frame:00000010 $d

UNDEFINED SYMBOLS
chThdSleep
timeout_has_timeout
ch
chThdCreateStatic
timeout_reset
hw_start_i2c
hw_try_restore_i2c
i2cAcquireBus
i2cMasterTransmitTimeout
i2cReleaseBus
i2cMasterReceiveTimeout
I2CD2
