ARM GAS  C:\Users\IDONNO~1\AppData\Local\Temp\ccmfSHpE.s 			page 1


   1              		.syntax unified
   2              		.cpu cortex-m4
   3              		.eabi_attribute 27, 1
   4              		.eabi_attribute 28, 1
   5              		.fpu fpv4-sp-d16
   6              		.eabi_attribute 20, 1
   7              		.eabi_attribute 21, 1
   8              		.eabi_attribute 23, 3
   9              		.eabi_attribute 24, 1
  10              		.eabi_attribute 25, 1
  11              		.eabi_attribute 26, 1
  12              		.eabi_attribute 30, 2
  13              		.eabi_attribute 34, 1
  14              		.eabi_attribute 18, 4
  15              		.thumb
  16              		.syntax unified
  17              		.file	"app_adc.c"
  18              		.text
  19              	.Ltext0:
  20              		.cfi_sections	.debug_frame
  21              		.section	.text.adc_thread,"ax",%progbits
  22              		.align	2
  23              		.p2align 4,,15
  24              		.thumb
  25              		.thumb_func
  26              		.type	adc_thread, %function
  27              	adc_thread:
  28              	.LFB262:
  29              		.file 1 "src/app/app_adc.c"
  30              		.loc 1 83 0
  31              		.cfi_startproc
  32              		@ args = 0, pretend = 0, frame = 0
  33              		@ frame_needed = 0, uses_anonymous_args = 0
  34              		@ link register save eliminated.
  35              	.LVL0:
  36              	.LBB4:
  37              	.LBB5:
  38              		.file 2 "src/ChibiOS_3.0.2/os/rt/include/chregistry.h"
  39              		.loc 2 135 0
  40 0000 024B     		ldr	r3, .L2
  41 0002 034A     		ldr	r2, .L2+4
  42 0004 9B69     		ldr	r3, [r3, #24]
  43 0006 9A61     		str	r2, [r3, #24]
  44              	.LVL1:
  45 0008 7047     		bx	lr
  46              	.L3:
  47 000a 00BF     		.align	2
  48              	.L2:
  49 000c 00000000 		.word	ch
  50 0010 00000000 		.word	.LC0
  51              	.LBE5:
  52              	.LBE4:
  53              		.cfi_endproc
  54              	.LFE262:
  55              		.size	adc_thread, .-adc_thread
  56              		.section	.text.app_adc_configure,"ax",%progbits
  57              		.align	2
ARM GAS  C:\Users\IDONNO~1\AppData\Local\Temp\ccmfSHpE.s 			page 2


  58              		.p2align 4,,15
  59              		.global	app_adc_configure
  60              		.thumb
  61              		.thumb_func
  62              		.type	app_adc_configure, %function
  63              	app_adc_configure:
  64              	.LFB256:
  65              		.loc 1 56 0
  66              		.cfi_startproc
  67              		@ args = 0, pretend = 0, frame = 0
  68              		@ frame_needed = 0, uses_anonymous_args = 0
  69              		@ link register save eliminated.
  70              	.LVL2:
  71 0000 F0B4     		push	{r4, r5, r6, r7}
  72              		.cfi_def_cfa_offset 16
  73              		.cfi_offset 4, -16
  74              		.cfi_offset 5, -12
  75              		.cfi_offset 6, -8
  76              		.cfi_offset 7, -4
  77              		.loc 1 57 0
  78 0002 0546     		mov	r5, r0
  79 0004 0FCD     		ldmia	r5!, {r0, r1, r2, r3}
  80              	.LVL3:
  81 0006 064C     		ldr	r4, .L6
  82              		.loc 1 58 0
  83 0008 064E     		ldr	r6, .L6+4
  84              		.loc 1 57 0
  85 000a 0FC4     		stmia	r4!, {r0, r1, r2, r3}
  86 000c 0FCD     		ldmia	r5!, {r0, r1, r2, r3}
  87              	.LVL4:
  88 000e 0FC4     		stmia	r4!, {r0, r1, r2, r3}
  89 0010 95E80700 		ldmia	r5, {r0, r1, r2}
  90              		.loc 1 58 0
  91 0014 0027     		movs	r7, #0
  92              		.loc 1 57 0
  93 0016 84E80700 		stmia	r4, {r0, r1, r2}
  94              		.loc 1 58 0
  95 001a 3760     		str	r7, [r6]	@ float
  96              		.loc 1 59 0
  97 001c F0BC     		pop	{r4, r5, r6, r7}
  98              		.cfi_restore 7
  99              		.cfi_restore 6
 100              		.cfi_restore 5
 101              		.cfi_restore 4
 102              		.cfi_def_cfa_offset 0
 103              	.LVL5:
 104 001e 7047     		bx	lr
 105              	.L7:
 106              		.align	2
 107              	.L6:
 108 0020 00000000 		.word	.LANCHOR0
 109 0024 00000000 		.word	.LANCHOR1
 110              		.cfi_endproc
 111              	.LFE256:
 112              		.size	app_adc_configure, .-app_adc_configure
 113              		.section	.text.app_adc_start,"ax",%progbits
 114              		.align	2
ARM GAS  C:\Users\IDONNO~1\AppData\Local\Temp\ccmfSHpE.s 			page 3


 115              		.p2align 4,,15
 116              		.global	app_adc_start
 117              		.thumb
 118              		.thumb_func
 119              		.type	app_adc_start, %function
 120              	app_adc_start:
 121              	.LFB257:
 122              		.loc 1 61 0
 123              		.cfi_startproc
 124              		@ args = 0, pretend = 0, frame = 0
 125              		@ frame_needed = 0, uses_anonymous_args = 0
 126              	.LVL6:
 127 0000 30B5     		push	{r4, r5, lr}
 128              		.cfi_def_cfa_offset 12
 129              		.cfi_offset 4, -12
 130              		.cfi_offset 5, -8
 131              		.cfi_offset 14, -4
 132 0002 83B0     		sub	sp, sp, #12
 133              		.cfi_def_cfa_offset 24
 134              		.loc 1 62 0
 135 0004 064C     		ldr	r4, .L10
 136              		.loc 1 63 0
 137 0006 074B     		ldr	r3, .L10+4
 138 0008 0022     		movs	r2, #0
 139              		.loc 1 61 0
 140 000a 0546     		mov	r5, r0
 141              		.loc 1 63 0
 142 000c 0092     		str	r2, [sp]
 143 000e 4FF4B361 		mov	r1, #1432
 144 0012 4022     		movs	r2, #64
 145 0014 0448     		ldr	r0, .L10+8
 146              	.LVL7:
 147              		.loc 1 62 0
 148 0016 2570     		strb	r5, [r4]
 149              		.loc 1 63 0
 150 0018 FFF7FEFF 		bl	chThdCreateStatic
 151              	.LVL8:
 152              		.loc 1 64 0
 153 001c 03B0     		add	sp, sp, #12
 154              		.cfi_def_cfa_offset 12
 155              		@ sp needed
 156 001e 30BD     		pop	{r4, r5, pc}
 157              	.L11:
 158              		.align	2
 159              	.L10:
 160 0020 00000000 		.word	.LANCHOR2
 161 0024 00000000 		.word	adc_thread
 162 0028 00000000 		.word	.LANCHOR3
 163              		.cfi_endproc
 164              	.LFE257:
 165              		.size	app_adc_start, .-app_adc_start
 166              		.section	.text.app_adc_get_decoded_level,"ax",%progbits
 167              		.align	2
 168              		.p2align 4,,15
 169              		.global	app_adc_get_decoded_level
 170              		.thumb
 171              		.thumb_func
ARM GAS  C:\Users\IDONNO~1\AppData\Local\Temp\ccmfSHpE.s 			page 4


 172              		.type	app_adc_get_decoded_level, %function
 173              	app_adc_get_decoded_level:
 174              	.LFB258:
 175              		.loc 1 66 0
 176              		.cfi_startproc
 177              		@ args = 0, pretend = 0, frame = 0
 178              		@ frame_needed = 0, uses_anonymous_args = 0
 179              		@ link register save eliminated.
 180              		.loc 1 67 0
 181 0000 014B     		ldr	r3, .L13
 182 0002 93ED000A 		vldr.32	s0, [r3]
 183              		.loc 1 68 0
 184 0006 7047     		bx	lr
 185              	.L14:
 186              		.align	2
 187              	.L13:
 188 0008 00000000 		.word	.LANCHOR4
 189              		.cfi_endproc
 190              	.LFE258:
 191              		.size	app_adc_get_decoded_level, .-app_adc_get_decoded_level
 192              		.section	.text.app_adc_get_voltage,"ax",%progbits
 193              		.align	2
 194              		.p2align 4,,15
 195              		.global	app_adc_get_voltage
 196              		.thumb
 197              		.thumb_func
 198              		.type	app_adc_get_voltage, %function
 199              	app_adc_get_voltage:
 200              	.LFB259:
 201              		.loc 1 70 0
 202              		.cfi_startproc
 203              		@ args = 0, pretend = 0, frame = 0
 204              		@ frame_needed = 0, uses_anonymous_args = 0
 205              		@ link register save eliminated.
 206              		.loc 1 71 0
 207 0000 014B     		ldr	r3, .L16
 208 0002 93ED000A 		vldr.32	s0, [r3]
 209              		.loc 1 72 0
 210 0006 7047     		bx	lr
 211              	.L17:
 212              		.align	2
 213              	.L16:
 214 0008 00000000 		.word	.LANCHOR5
 215              		.cfi_endproc
 216              	.LFE259:
 217              		.size	app_adc_get_voltage, .-app_adc_get_voltage
 218              		.section	.text.app_adc_get_decoded_level2,"ax",%progbits
 219              		.align	2
 220              		.p2align 4,,15
 221              		.global	app_adc_get_decoded_level2
 222              		.thumb
 223              		.thumb_func
 224              		.type	app_adc_get_decoded_level2, %function
 225              	app_adc_get_decoded_level2:
 226              	.LFB260:
 227              		.loc 1 74 0
 228              		.cfi_startproc
ARM GAS  C:\Users\IDONNO~1\AppData\Local\Temp\ccmfSHpE.s 			page 5


 229              		@ args = 0, pretend = 0, frame = 0
 230              		@ frame_needed = 0, uses_anonymous_args = 0
 231              		@ link register save eliminated.
 232              		.loc 1 75 0
 233 0000 014B     		ldr	r3, .L19
 234 0002 93ED000A 		vldr.32	s0, [r3]
 235              		.loc 1 76 0
 236 0006 7047     		bx	lr
 237              	.L20:
 238              		.align	2
 239              	.L19:
 240 0008 00000000 		.word	.LANCHOR6
 241              		.cfi_endproc
 242              	.LFE260:
 243              		.size	app_adc_get_decoded_level2, .-app_adc_get_decoded_level2
 244              		.section	.text.app_adc_get_voltage2,"ax",%progbits
 245              		.align	2
 246              		.p2align 4,,15
 247              		.global	app_adc_get_voltage2
 248              		.thumb
 249              		.thumb_func
 250              		.type	app_adc_get_voltage2, %function
 251              	app_adc_get_voltage2:
 252              	.LFB261:
 253              		.loc 1 78 0
 254              		.cfi_startproc
 255              		@ args = 0, pretend = 0, frame = 0
 256              		@ frame_needed = 0, uses_anonymous_args = 0
 257              		@ link register save eliminated.
 258              		.loc 1 79 0
 259 0000 014B     		ldr	r3, .L22
 260 0002 93ED000A 		vldr.32	s0, [r3]
 261              		.loc 1 80 0
 262 0006 7047     		bx	lr
 263              	.L23:
 264              		.align	2
 265              	.L22:
 266 0008 00000000 		.word	.LANCHOR7
 267              		.cfi_endproc
 268              	.LFE261:
 269              		.size	app_adc_get_voltage2, .-app_adc_get_voltage2
 270              		.section	.bss.read_voltage2,"aw",%nobits
 271              		.align	2
 272              		.set	.LANCHOR7,. + 0
 273              		.type	read_voltage2, %object
 274              		.size	read_voltage2, 4
 275              	read_voltage2:
 276 0000 00000000 		.space	4
 277              		.section	.bss.read_voltage,"aw",%nobits
 278              		.align	2
 279              		.set	.LANCHOR5,. + 0
 280              		.type	read_voltage, %object
 281              		.size	read_voltage, 4
 282              	read_voltage:
 283 0000 00000000 		.space	4
 284              		.section	.bss.ms_without_power,"aw",%nobits
 285              		.align	2
ARM GAS  C:\Users\IDONNO~1\AppData\Local\Temp\ccmfSHpE.s 			page 6


 286              		.set	.LANCHOR1,. + 0
 287              		.type	ms_without_power, %object
 288              		.size	ms_without_power, 4
 289              	ms_without_power:
 290 0000 00000000 		.space	4
 291              		.section	.bss.decoded_level2,"aw",%nobits
 292              		.align	2
 293              		.set	.LANCHOR6,. + 0
 294              		.type	decoded_level2, %object
 295              		.size	decoded_level2, 4
 296              	decoded_level2:
 297 0000 00000000 		.space	4
 298              		.section	.rodata.str1.4,"aMS",%progbits,1
 299              		.align	2
 300              	.LC0:
 301 0000 4150505F 		.ascii	"APP_ADC\000"
 301      41444300 
 302              		.section	.bss.config,"aw",%nobits
 303              		.align	2
 304              		.set	.LANCHOR0,. + 0
 305              		.type	config, %object
 306              		.size	config, 44
 307              	config:
 308 0000 00000000 		.space	44
 308      00000000 
 308      00000000 
 308      00000000 
 308      00000000 
 309              		.section	.bss.use_rx_tx_as_buttons,"aw",%nobits
 310              		.set	.LANCHOR2,. + 0
 311              		.type	use_rx_tx_as_buttons, %object
 312              		.size	use_rx_tx_as_buttons, 1
 313              	use_rx_tx_as_buttons:
 314 0000 00       		.space	1
 315              		.section	.bss.decoded_level,"aw",%nobits
 316              		.align	2
 317              		.set	.LANCHOR4,. + 0
 318              		.type	decoded_level, %object
 319              		.size	decoded_level, 4
 320              	decoded_level:
 321 0000 00000000 		.space	4
 322              		.section	.bss.adc_thread_wa,"aw",%nobits
 323              		.align	3
 324              		.set	.LANCHOR3,. + 0
 325              		.type	adc_thread_wa, %object
 326              		.size	adc_thread_wa, 1432
 327              	adc_thread_wa:
 328 0000 00000000 		.space	1432
 328      00000000 
 328      00000000 
 328      00000000 
 328      00000000 
 329              		.text
 330              	.Letext0:
 331              		.file 3 "c:\\program files (x86)\\gnu tools arm embedded\\5.4 2016q3\\arm-none-eabi\\include\\mach
 332              		.file 4 "c:\\program files (x86)\\gnu tools arm embedded\\5.4 2016q3\\arm-none-eabi\\include\\sys\
 333              		.file 5 "src/app/app.h"
ARM GAS  C:\Users\IDONNO~1\AppData\Local\Temp\ccmfSHpE.s 			page 7


 334              		.file 6 "c:\\program files (x86)\\gnu tools arm embedded\\5.4 2016q3\\lib\\gcc\\arm-none-eabi\\5.4
 335              		.file 7 "src/ChibiOS_3.0.2/os/rt/ports/ARMCMx/compilers/GCC/chtypes.h"
 336              		.file 8 "src/ChibiOS_3.0.2/os/rt/include/chsystypes.h"
 337              		.file 9 "src/ChibiOS_3.0.2/os/rt/include/chschd.h"
 338              		.file 10 "src/ChibiOS_3.0.2/os/rt/ports/ARMCMx/chcore.h"
 339              		.file 11 "src/ChibiOS_3.0.2/os/rt/ports/ARMCMx/chcore_v7m.h"
 340              		.file 12 "src/ChibiOS_3.0.2/os/rt/include/chtm.h"
 341              		.file 13 "src/ChibiOS_3.0.2/os/rt/include/chsem.h"
 342              		.file 14 "src/ChibiOS_3.0.2/os/rt/include/chmtx.h"
 343              		.file 15 "src/ChibiOS_3.0.2/os/ext/CMSIS/include/core_cm4.h"
 344              		.file 16 "src/ChibiOS_3.0.2/os/rt/include/chthreads.h"
 345              		.section	.debug_info,"",%progbits
 346              	.Ldebug_info0:
 347 0000 380A0000 		.4byte	0xa38
 348 0004 0400     		.2byte	0x4
 349 0006 00000000 		.4byte	.Ldebug_abbrev0
 350 000a 04       		.byte	0x4
 351 000b 01       		.uleb128 0x1
 352 000c 15070000 		.4byte	.LASF152
 353 0010 0C       		.byte	0xc
 354 0011 7C050000 		.4byte	.LASF153
 355 0015 BD020000 		.4byte	.LASF154
 356 0019 00000000 		.4byte	.Ldebug_ranges0+0
 357 001d 00000000 		.4byte	0
 358 0021 00000000 		.4byte	.Ldebug_line0
 359 0025 02       		.uleb128 0x2
 360 0026 01       		.byte	0x1
 361 0027 06       		.byte	0x6
 362 0028 2A010000 		.4byte	.LASF0
 363 002c 03       		.uleb128 0x3
 364 002d 3F000000 		.4byte	.LASF4
 365 0031 03       		.byte	0x3
 366 0032 1D       		.byte	0x1d
 367 0033 37000000 		.4byte	0x37
 368 0037 02       		.uleb128 0x2
 369 0038 01       		.byte	0x1
 370 0039 08       		.byte	0x8
 371 003a B5040000 		.4byte	.LASF1
 372 003e 02       		.uleb128 0x2
 373 003f 02       		.byte	0x2
 374 0040 05       		.byte	0x5
 375 0041 DB040000 		.4byte	.LASF2
 376 0045 02       		.uleb128 0x2
 377 0046 02       		.byte	0x2
 378 0047 07       		.byte	0x7
 379 0048 8E020000 		.4byte	.LASF3
 380 004c 03       		.uleb128 0x3
 381 004d 80030000 		.4byte	.LASF5
 382 0051 03       		.byte	0x3
 383 0052 3F       		.byte	0x3f
 384 0053 57000000 		.4byte	0x57
 385 0057 02       		.uleb128 0x2
 386 0058 04       		.byte	0x4
 387 0059 05       		.byte	0x5
 388 005a 7E010000 		.4byte	.LASF6
 389 005e 03       		.uleb128 0x3
 390 005f 52060000 		.4byte	.LASF7
ARM GAS  C:\Users\IDONNO~1\AppData\Local\Temp\ccmfSHpE.s 			page 8


 391 0063 03       		.byte	0x3
 392 0064 41       		.byte	0x41
 393 0065 69000000 		.4byte	0x69
 394 0069 02       		.uleb128 0x2
 395 006a 04       		.byte	0x4
 396 006b 07       		.byte	0x7
 397 006c 36010000 		.4byte	.LASF8
 398 0070 02       		.uleb128 0x2
 399 0071 08       		.byte	0x8
 400 0072 05       		.byte	0x5
 401 0073 1C010000 		.4byte	.LASF9
 402 0077 03       		.uleb128 0x3
 403 0078 32040000 		.4byte	.LASF10
 404 007c 03       		.byte	0x3
 405 007d 5B       		.byte	0x5b
 406 007e 82000000 		.4byte	0x82
 407 0082 02       		.uleb128 0x2
 408 0083 08       		.byte	0x8
 409 0084 07       		.byte	0x7
 410 0085 A8000000 		.4byte	.LASF11
 411 0089 04       		.uleb128 0x4
 412 008a 04       		.byte	0x4
 413 008b 05       		.byte	0x5
 414 008c 696E7400 		.ascii	"int\000"
 415 0090 02       		.uleb128 0x2
 416 0091 04       		.byte	0x4
 417 0092 07       		.byte	0x7
 418 0093 47020000 		.4byte	.LASF12
 419 0097 03       		.uleb128 0x3
 420 0098 3F080000 		.4byte	.LASF13
 421 009c 04       		.byte	0x4
 422 009d 18       		.byte	0x18
 423 009e 2C000000 		.4byte	0x2c
 424 00a2 03       		.uleb128 0x3
 425 00a3 A7030000 		.4byte	.LASF14
 426 00a7 04       		.byte	0x4
 427 00a8 2C       		.byte	0x2c
 428 00a9 4C000000 		.4byte	0x4c
 429 00ad 03       		.uleb128 0x3
 430 00ae 73050000 		.4byte	.LASF15
 431 00b2 04       		.byte	0x4
 432 00b3 30       		.byte	0x30
 433 00b4 5E000000 		.4byte	0x5e
 434 00b8 03       		.uleb128 0x3
 435 00b9 36000000 		.4byte	.LASF16
 436 00bd 04       		.byte	0x4
 437 00be 3C       		.byte	0x3c
 438 00bf 77000000 		.4byte	0x77
 439 00c3 02       		.uleb128 0x2
 440 00c4 04       		.byte	0x4
 441 00c5 07       		.byte	0x7
 442 00c6 47080000 		.4byte	.LASF17
 443 00ca 02       		.uleb128 0x2
 444 00cb 01       		.byte	0x1
 445 00cc 02       		.byte	0x2
 446 00cd A5040000 		.4byte	.LASF18
 447 00d1 02       		.uleb128 0x2
ARM GAS  C:\Users\IDONNO~1\AppData\Local\Temp\ccmfSHpE.s 			page 9


 448 00d2 04       		.byte	0x4
 449 00d3 04       		.byte	0x4
 450 00d4 3D040000 		.4byte	.LASF19
 451 00d8 05       		.uleb128 0x5
 452 00d9 01       		.byte	0x1
 453 00da 37000000 		.4byte	0x37
 454 00de 05       		.byte	0x5
 455 00df 4B       		.byte	0x4b
 456 00e0 21010000 		.4byte	0x121
 457 00e4 06       		.uleb128 0x6
 458 00e5 60080000 		.4byte	.LASF20
 459 00e9 00       		.byte	0
 460 00ea 06       		.uleb128 0x6
 461 00eb 6E060000 		.4byte	.LASF21
 462 00ef 01       		.byte	0x1
 463 00f0 06       		.uleb128 0x6
 464 00f1 ED040000 		.4byte	.LASF22
 465 00f5 02       		.byte	0x2
 466 00f6 06       		.uleb128 0x6
 467 00f7 84040000 		.4byte	.LASF23
 468 00fb 03       		.byte	0x3
 469 00fc 06       		.uleb128 0x6
 470 00fd B3080000 		.4byte	.LASF24
 471 0101 04       		.byte	0x4
 472 0102 06       		.uleb128 0x6
 473 0103 EC060000 		.4byte	.LASF25
 474 0107 05       		.byte	0x5
 475 0108 06       		.uleb128 0x6
 476 0109 A1050000 		.4byte	.LASF26
 477 010d 06       		.byte	0x6
 478 010e 06       		.uleb128 0x6
 479 010f 90010000 		.4byte	.LASF27
 480 0113 07       		.byte	0x7
 481 0114 06       		.uleb128 0x6
 482 0115 B3010000 		.4byte	.LASF28
 483 0119 08       		.byte	0x8
 484 011a 06       		.uleb128 0x6
 485 011b B0060000 		.4byte	.LASF29
 486 011f 09       		.byte	0x9
 487 0120 00       		.byte	0
 488 0121 03       		.uleb128 0x3
 489 0122 74000000 		.4byte	.LASF30
 490 0126 05       		.byte	0x5
 491 0127 56       		.byte	0x56
 492 0128 D8000000 		.4byte	0xd8
 493 012c 07       		.uleb128 0x7
 494 012d 2C       		.byte	0x2c
 495 012e 05       		.byte	0x5
 496 012f 58       		.byte	0x58
 497 0130 E8010000 		.4byte	0x1e8
 498 0134 08       		.uleb128 0x8
 499 0135 49000000 		.4byte	.LASF31
 500 0139 05       		.byte	0x5
 501 013a 59       		.byte	0x59
 502 013b 21010000 		.4byte	0x121
 503 013f 00       		.byte	0
 504 0140 08       		.uleb128 0x8
ARM GAS  C:\Users\IDONNO~1\AppData\Local\Temp\ccmfSHpE.s 			page 10


 505 0141 E1030000 		.4byte	.LASF32
 506 0145 05       		.byte	0x5
 507 0146 5A       		.byte	0x5a
 508 0147 D1000000 		.4byte	0xd1
 509 014b 04       		.byte	0x4
 510 014c 08       		.uleb128 0x8
 511 014d 85000000 		.4byte	.LASF33
 512 0151 05       		.byte	0x5
 513 0152 5B       		.byte	0x5b
 514 0153 D1000000 		.4byte	0xd1
 515 0157 08       		.byte	0x8
 516 0158 08       		.uleb128 0x8
 517 0159 AB020000 		.4byte	.LASF34
 518 015d 05       		.byte	0x5
 519 015e 5C       		.byte	0x5c
 520 015f D1000000 		.4byte	0xd1
 521 0163 0C       		.byte	0xc
 522 0164 08       		.uleb128 0x8
 523 0165 71040000 		.4byte	.LASF35
 524 0169 05       		.byte	0x5
 525 016a 5D       		.byte	0x5d
 526 016b CA000000 		.4byte	0xca
 527 016f 10       		.byte	0x10
 528 0170 08       		.uleb128 0x8
 529 0171 E0000000 		.4byte	.LASF36
 530 0175 05       		.byte	0x5
 531 0176 5E       		.byte	0x5e
 532 0177 CA000000 		.4byte	0xca
 533 017b 11       		.byte	0x11
 534 017c 08       		.uleb128 0x8
 535 017d F4020000 		.4byte	.LASF37
 536 0181 05       		.byte	0x5
 537 0182 5F       		.byte	0x5f
 538 0183 CA000000 		.4byte	0xca
 539 0187 12       		.byte	0x12
 540 0188 08       		.uleb128 0x8
 541 0189 90080000 		.4byte	.LASF38
 542 018d 05       		.byte	0x5
 543 018e 60       		.byte	0x60
 544 018f CA000000 		.4byte	0xca
 545 0193 13       		.byte	0x13
 546 0194 08       		.uleb128 0x8
 547 0195 00000000 		.4byte	.LASF39
 548 0199 05       		.byte	0x5
 549 019a 61       		.byte	0x61
 550 019b CA000000 		.4byte	0xca
 551 019f 14       		.byte	0x14
 552 01a0 08       		.uleb128 0x8
 553 01a1 24040000 		.4byte	.LASF40
 554 01a5 05       		.byte	0x5
 555 01a6 62       		.byte	0x62
 556 01a7 D1000000 		.4byte	0xd1
 557 01ab 18       		.byte	0x18
 558 01ac 08       		.uleb128 0x8
 559 01ad 60030000 		.4byte	.LASF41
 560 01b1 05       		.byte	0x5
 561 01b2 63       		.byte	0x63
ARM GAS  C:\Users\IDONNO~1\AppData\Local\Temp\ccmfSHpE.s 			page 11


 562 01b3 D1000000 		.4byte	0xd1
 563 01b7 1C       		.byte	0x1c
 564 01b8 08       		.uleb128 0x8
 565 01b9 AB040000 		.4byte	.LASF42
 566 01bd 05       		.byte	0x5
 567 01be 64       		.byte	0x64
 568 01bf CA000000 		.4byte	0xca
 569 01c3 20       		.byte	0x20
 570 01c4 09       		.uleb128 0x9
 571 01c5 746300   		.ascii	"tc\000"
 572 01c8 05       		.byte	0x5
 573 01c9 65       		.byte	0x65
 574 01ca CA000000 		.4byte	0xca
 575 01ce 21       		.byte	0x21
 576 01cf 08       		.uleb128 0x8
 577 01d0 F8000000 		.4byte	.LASF43
 578 01d4 05       		.byte	0x5
 579 01d5 66       		.byte	0x66
 580 01d6 D1000000 		.4byte	0xd1
 581 01da 24       		.byte	0x24
 582 01db 08       		.uleb128 0x8
 583 01dc 18030000 		.4byte	.LASF44
 584 01e0 05       		.byte	0x5
 585 01e1 67       		.byte	0x67
 586 01e2 AD000000 		.4byte	0xad
 587 01e6 28       		.byte	0x28
 588 01e7 00       		.byte	0
 589 01e8 03       		.uleb128 0x3
 590 01e9 3B030000 		.4byte	.LASF45
 591 01ed 05       		.byte	0x5
 592 01ee 68       		.byte	0x68
 593 01ef 2C010000 		.4byte	0x12c
 594 01f3 03       		.uleb128 0x3
 595 01f4 28000000 		.4byte	.LASF46
 596 01f8 06       		.byte	0x6
 597 01f9 D8       		.byte	0xd8
 598 01fa 90000000 		.4byte	0x90
 599 01fe 0A       		.uleb128 0xa
 600 01ff A2000000 		.4byte	0xa2
 601 0203 03       		.uleb128 0x3
 602 0204 AF030000 		.4byte	.LASF47
 603 0208 07       		.byte	0x7
 604 0209 45       		.byte	0x45
 605 020a AD000000 		.4byte	0xad
 606 020e 03       		.uleb128 0x3
 607 020f 33030000 		.4byte	.LASF48
 608 0213 07       		.byte	0x7
 609 0214 48       		.byte	0x48
 610 0215 97000000 		.4byte	0x97
 611 0219 03       		.uleb128 0x3
 612 021a 87010000 		.4byte	.LASF49
 613 021e 07       		.byte	0x7
 614 021f 49       		.byte	0x49
 615 0220 97000000 		.4byte	0x97
 616 0224 03       		.uleb128 0x3
 617 0225 43040000 		.4byte	.LASF50
 618 0229 07       		.byte	0x7
ARM GAS  C:\Users\IDONNO~1\AppData\Local\Temp\ccmfSHpE.s 			page 12


 619 022a 4A       		.byte	0x4a
 620 022b 97000000 		.4byte	0x97
 621 022f 03       		.uleb128 0x3
 622 0230 5F010000 		.4byte	.LASF51
 623 0234 07       		.byte	0x7
 624 0235 4B       		.byte	0x4b
 625 0236 97000000 		.4byte	0x97
 626 023a 03       		.uleb128 0x3
 627 023b 7C040000 		.4byte	.LASF52
 628 023f 07       		.byte	0x7
 629 0240 4C       		.byte	0x4c
 630 0241 AD000000 		.4byte	0xad
 631 0245 03       		.uleb128 0x3
 632 0246 B7020000 		.4byte	.LASF53
 633 024a 07       		.byte	0x7
 634 024b 4D       		.byte	0x4d
 635 024c A2000000 		.4byte	0xa2
 636 0250 03       		.uleb128 0x3
 637 0251 54030000 		.4byte	.LASF54
 638 0255 07       		.byte	0x7
 639 0256 4F       		.byte	0x4f
 640 0257 AD000000 		.4byte	0xad
 641 025b 03       		.uleb128 0x3
 642 025c 33020000 		.4byte	.LASF55
 643 0260 07       		.byte	0x7
 644 0261 51       		.byte	0x51
 645 0262 A2000000 		.4byte	0xa2
 646 0266 03       		.uleb128 0x3
 647 0267 34060000 		.4byte	.LASF56
 648 026b 08       		.byte	0x8
 649 026c 33       		.byte	0x33
 650 026d AD000000 		.4byte	0xad
 651 0271 03       		.uleb128 0x3
 652 0272 24060000 		.4byte	.LASF57
 653 0276 08       		.byte	0x8
 654 0277 3F       		.byte	0x3f
 655 0278 7C020000 		.4byte	0x27c
 656 027c 0B       		.uleb128 0xb
 657 027d A1020000 		.4byte	.LASF79
 658 0281 48       		.byte	0x48
 659 0282 09       		.byte	0x9
 660 0283 C2       		.byte	0xc2
 661 0284 81030000 		.4byte	0x381
 662 0288 08       		.uleb128 0x8
 663 0289 2E050000 		.4byte	.LASF58
 664 028d 09       		.byte	0x9
 665 028e C3       		.byte	0xc3
 666 028f 8C030000 		.4byte	0x38c
 667 0293 00       		.byte	0
 668 0294 08       		.uleb128 0x8
 669 0295 6A040000 		.4byte	.LASF59
 670 0299 09       		.byte	0x9
 671 029a C5       		.byte	0xc5
 672 029b 8C030000 		.4byte	0x38c
 673 029f 04       		.byte	0x4
 674 02a0 08       		.uleb128 0x8
 675 02a1 15010000 		.4byte	.LASF60
ARM GAS  C:\Users\IDONNO~1\AppData\Local\Temp\ccmfSHpE.s 			page 13


 676 02a5 09       		.byte	0x9
 677 02a6 C7       		.byte	0xc7
 678 02a7 3A020000 		.4byte	0x23a
 679 02ab 08       		.byte	0x8
 680 02ac 08       		.uleb128 0x8
 681 02ad DC080000 		.4byte	.LASF61
 682 02b1 09       		.byte	0x9
 683 02b2 C8       		.byte	0xc8
 684 02b3 B5050000 		.4byte	0x5b5
 685 02b7 0C       		.byte	0xc
 686 02b8 08       		.uleb128 0x8
 687 02b9 A3010000 		.4byte	.LASF62
 688 02bd 09       		.byte	0x9
 689 02be CA       		.byte	0xca
 690 02bf 8C030000 		.4byte	0x38c
 691 02c3 10       		.byte	0x10
 692 02c4 08       		.uleb128 0x8
 693 02c5 18050000 		.4byte	.LASF63
 694 02c9 09       		.byte	0x9
 695 02ca CB       		.byte	0xcb
 696 02cb 8C030000 		.4byte	0x38c
 697 02cf 14       		.byte	0x14
 698 02d0 08       		.uleb128 0x8
 699 02d1 59080000 		.4byte	.LASF64
 700 02d5 09       		.byte	0x9
 701 02d6 D2       		.byte	0xd2
 702 02d7 FA070000 		.4byte	0x7fa
 703 02db 18       		.byte	0x18
 704 02dc 08       		.uleb128 0x8
 705 02dd E5040000 		.4byte	.LASF65
 706 02e1 09       		.byte	0x9
 707 02e2 DD       		.byte	0xdd
 708 02e3 19020000 		.4byte	0x219
 709 02e7 1C       		.byte	0x1c
 710 02e8 08       		.uleb128 0x8
 711 02e9 82080000 		.4byte	.LASF66
 712 02ed 09       		.byte	0x9
 713 02ee E1       		.byte	0xe1
 714 02ef 0E020000 		.4byte	0x20e
 715 02f3 1D       		.byte	0x1d
 716 02f4 08       		.uleb128 0x8
 717 02f5 E5060000 		.4byte	.LASF67
 718 02f9 09       		.byte	0x9
 719 02fa E6       		.byte	0xe6
 720 02fb 24020000 		.4byte	0x224
 721 02ff 1E       		.byte	0x1e
 722 0300 08       		.uleb128 0x8
 723 0301 0E050000 		.4byte	.LASF68
 724 0305 09       		.byte	0x9
 725 0306 EC       		.byte	0xec
 726 0307 2F020000 		.4byte	0x22f
 727 030b 1F       		.byte	0x1f
 728 030c 08       		.uleb128 0x8
 729 030d 8B060000 		.4byte	.LASF69
 730 0311 09       		.byte	0x9
 731 0312 F3       		.byte	0xf3
 732 0313 0C080000 		.4byte	0x80c
ARM GAS  C:\Users\IDONNO~1\AppData\Local\Temp\ccmfSHpE.s 			page 14


 733 0317 20       		.byte	0x20
 734 0318 0C       		.uleb128 0xc
 735 0319 705F7500 		.ascii	"p_u\000"
 736 031d 09       		.byte	0x9
 737 031e 3101     		.2byte	0x131
 738 0320 35070000 		.4byte	0x735
 739 0324 24       		.byte	0x24
 740 0325 0D       		.uleb128 0xd
 741 0326 E2080000 		.4byte	.LASF70
 742 032a 09       		.byte	0x9
 743 032b 3601     		.2byte	0x136
 744 032d 92030000 		.4byte	0x392
 745 0331 28       		.byte	0x28
 746 0332 0D       		.uleb128 0xd
 747 0333 A5060000 		.4byte	.LASF71
 748 0337 09       		.byte	0x9
 749 0338 3C01     		.2byte	0x13c
 750 033a B6030000 		.4byte	0x3b6
 751 033e 2C       		.byte	0x2c
 752 033f 0D       		.uleb128 0xd
 753 0340 8A080000 		.4byte	.LASF72
 754 0344 09       		.byte	0x9
 755 0345 4001     		.2byte	0x140
 756 0347 45020000 		.4byte	0x245
 757 034b 34       		.byte	0x34
 758 034c 0D       		.uleb128 0xd
 759 034d 68050000 		.4byte	.LASF73
 760 0351 09       		.byte	0x9
 761 0352 4601     		.2byte	0x146
 762 0354 50020000 		.4byte	0x250
 763 0358 38       		.byte	0x38
 764 0359 0D       		.uleb128 0xd
 765 035a D1040000 		.4byte	.LASF74
 766 035e 09       		.byte	0x9
 767 035f 4D01     		.2byte	0x14d
 768 0361 F4070000 		.4byte	0x7f4
 769 0365 3C       		.byte	0x3c
 770 0366 0D       		.uleb128 0xd
 771 0367 3E060000 		.4byte	.LASF75
 772 036b 09       		.byte	0x9
 773 036c 5101     		.2byte	0x151
 774 036e 3A020000 		.4byte	0x23a
 775 0372 40       		.byte	0x40
 776 0373 0D       		.uleb128 0xd
 777 0374 48010000 		.4byte	.LASF76
 778 0378 09       		.byte	0x9
 779 0379 5801     		.2byte	0x158
 780 037b 69040000 		.4byte	0x469
 781 037f 44       		.byte	0x44
 782 0380 00       		.byte	0
 783 0381 03       		.uleb128 0x3
 784 0382 B7030000 		.4byte	.LASF77
 785 0386 08       		.byte	0x8
 786 0387 44       		.byte	0x44
 787 0388 8C030000 		.4byte	0x38c
 788 038c 0E       		.uleb128 0xe
 789 038d 04       		.byte	0x4
ARM GAS  C:\Users\IDONNO~1\AppData\Local\Temp\ccmfSHpE.s 			page 15


 790 038e 71020000 		.4byte	0x271
 791 0392 03       		.uleb128 0x3
 792 0393 73080000 		.4byte	.LASF78
 793 0397 08       		.byte	0x8
 794 0398 49       		.byte	0x49
 795 0399 9D030000 		.4byte	0x39d
 796 039d 0B       		.uleb128 0xb
 797 039e C7050000 		.4byte	.LASF80
 798 03a2 04       		.byte	0x4
 799 03a3 09       		.byte	0x9
 800 03a4 B0       		.byte	0xb0
 801 03a5 B6030000 		.4byte	0x3b6
 802 03a9 08       		.uleb128 0x8
 803 03aa 2E050000 		.4byte	.LASF58
 804 03ae 09       		.byte	0x9
 805 03af B1       		.byte	0xb1
 806 03b0 8C030000 		.4byte	0x38c
 807 03b4 00       		.byte	0
 808 03b5 00       		.byte	0
 809 03b6 03       		.uleb128 0x3
 810 03b7 D5060000 		.4byte	.LASF81
 811 03bb 08       		.byte	0x8
 812 03bc 50       		.byte	0x50
 813 03bd C1030000 		.4byte	0x3c1
 814 03c1 0B       		.uleb128 0xb
 815 03c2 04010000 		.4byte	.LASF82
 816 03c6 08       		.byte	0x8
 817 03c7 09       		.byte	0x9
 818 03c8 B7       		.byte	0xb7
 819 03c9 E6030000 		.4byte	0x3e6
 820 03cd 08       		.uleb128 0x8
 821 03ce 2E050000 		.4byte	.LASF58
 822 03d2 09       		.byte	0x9
 823 03d3 B8       		.byte	0xb8
 824 03d4 8C030000 		.4byte	0x38c
 825 03d8 00       		.byte	0
 826 03d9 08       		.uleb128 0x8
 827 03da 6A040000 		.4byte	.LASF59
 828 03de 09       		.byte	0x9
 829 03df B9       		.byte	0xb9
 830 03e0 8C030000 		.4byte	0x38c
 831 03e4 04       		.byte	0x4
 832 03e5 00       		.byte	0
 833 03e6 03       		.uleb128 0x3
 834 03e7 11000000 		.4byte	.LASF83
 835 03eb 08       		.byte	0x8
 836 03ec 57       		.byte	0x57
 837 03ed F1030000 		.4byte	0x3f1
 838 03f1 0F       		.uleb128 0xf
 839 03f2 46030000 		.4byte	.LASF84
 840 03f6 1C       		.byte	0x1c
 841 03f7 09       		.byte	0x9
 842 03f8 9001     		.2byte	0x190
 843 03fa 4D040000 		.4byte	0x44d
 844 03fe 0D       		.uleb128 0xd
 845 03ff 8E050000 		.4byte	.LASF85
 846 0403 09       		.byte	0x9
ARM GAS  C:\Users\IDONNO~1\AppData\Local\Temp\ccmfSHpE.s 			page 16


 847 0404 9101     		.2byte	0x191
 848 0406 B6030000 		.4byte	0x3b6
 849 040a 00       		.byte	0
 850 040b 0D       		.uleb128 0xd
 851 040c 20050000 		.4byte	.LASF86
 852 0410 09       		.byte	0x9
 853 0411 9201     		.2byte	0x192
 854 0413 3A020000 		.4byte	0x23a
 855 0417 08       		.byte	0x8
 856 0418 0D       		.uleb128 0xd
 857 0419 FB030000 		.4byte	.LASF87
 858 041d 09       		.byte	0x9
 859 041e 9401     		.2byte	0x194
 860 0420 B5050000 		.4byte	0x5b5
 861 0424 0C       		.byte	0xc
 862 0425 0D       		.uleb128 0xd
 863 0426 E8010000 		.4byte	.LASF88
 864 042a 09       		.byte	0x9
 865 042b 9701     		.2byte	0x197
 866 042d 8C030000 		.4byte	0x38c
 867 0431 10       		.byte	0x10
 868 0432 0D       		.uleb128 0xd
 869 0433 1C040000 		.4byte	.LASF89
 870 0437 09       		.byte	0x9
 871 0438 9801     		.2byte	0x198
 872 043a 8C030000 		.4byte	0x38c
 873 043e 14       		.byte	0x14
 874 043f 0D       		.uleb128 0xd
 875 0440 12040000 		.4byte	.LASF90
 876 0444 09       		.byte	0x9
 877 0445 9B01     		.2byte	0x19b
 878 0447 8C030000 		.4byte	0x38c
 879 044b 18       		.byte	0x18
 880 044c 00       		.byte	0
 881 044d 03       		.uleb128 0x3
 882 044e 49060000 		.4byte	.LASF91
 883 0452 08       		.byte	0x8
 884 0453 5C       		.byte	0x5c
 885 0454 58040000 		.4byte	0x458
 886 0458 0E       		.uleb128 0xe
 887 0459 04       		.byte	0x4
 888 045a 5E040000 		.4byte	0x45e
 889 045e 10       		.uleb128 0x10
 890 045f 69040000 		.4byte	0x469
 891 0463 11       		.uleb128 0x11
 892 0464 69040000 		.4byte	0x469
 893 0468 00       		.byte	0
 894 0469 12       		.uleb128 0x12
 895 046a 04       		.byte	0x4
 896 046b 03       		.uleb128 0x3
 897 046c 5A040000 		.4byte	.LASF92
 898 0470 08       		.byte	0x8
 899 0471 61       		.byte	0x61
 900 0472 76040000 		.4byte	0x476
 901 0476 0F       		.uleb128 0xf
 902 0477 4A050000 		.4byte	.LASF93
 903 047b 14       		.byte	0x14
ARM GAS  C:\Users\IDONNO~1\AppData\Local\Temp\ccmfSHpE.s 			page 17


 904 047c 09       		.byte	0x9
 905 047d 6B01     		.2byte	0x16b
 906 047f C5040000 		.4byte	0x4c5
 907 0483 0D       		.uleb128 0xd
 908 0484 54020000 		.4byte	.LASF94
 909 0488 09       		.byte	0x9
 910 0489 6C01     		.2byte	0x16c
 911 048b 11080000 		.4byte	0x811
 912 048f 00       		.byte	0
 913 0490 0D       		.uleb128 0xd
 914 0491 F9010000 		.4byte	.LASF95
 915 0495 09       		.byte	0x9
 916 0496 6D01     		.2byte	0x16d
 917 0498 11080000 		.4byte	0x811
 918 049c 04       		.byte	0x4
 919 049d 0D       		.uleb128 0xd
 920 049e 63020000 		.4byte	.LASF96
 921 04a2 09       		.byte	0x9
 922 04a3 6E01     		.2byte	0x16e
 923 04a5 66020000 		.4byte	0x266
 924 04a9 08       		.byte	0x8
 925 04aa 0D       		.uleb128 0xd
 926 04ab E6030000 		.4byte	.LASF97
 927 04af 09       		.byte	0x9
 928 04b0 6F01     		.2byte	0x16f
 929 04b2 4D040000 		.4byte	0x44d
 930 04b6 0C       		.byte	0xc
 931 04b7 0D       		.uleb128 0xd
 932 04b8 CE060000 		.4byte	.LASF98
 933 04bc 09       		.byte	0x9
 934 04bd 7101     		.2byte	0x171
 935 04bf 69040000 		.4byte	0x469
 936 04c3 10       		.byte	0x10
 937 04c4 00       		.byte	0
 938 04c5 03       		.uleb128 0x3
 939 04c6 CA000000 		.4byte	.LASF99
 940 04ca 08       		.byte	0x8
 941 04cb 66       		.byte	0x66
 942 04cc D0040000 		.4byte	0x4d0
 943 04d0 0F       		.uleb128 0xf
 944 04d1 CA030000 		.4byte	.LASF100
 945 04d5 10       		.byte	0x10
 946 04d6 09       		.byte	0x9
 947 04d7 7B01     		.2byte	0x17b
 948 04d9 12050000 		.4byte	0x512
 949 04dd 0D       		.uleb128 0xd
 950 04de 54020000 		.4byte	.LASF94
 951 04e2 09       		.byte	0x9
 952 04e3 7C01     		.2byte	0x17c
 953 04e5 11080000 		.4byte	0x811
 954 04e9 00       		.byte	0
 955 04ea 0D       		.uleb128 0xd
 956 04eb F9010000 		.4byte	.LASF95
 957 04ef 09       		.byte	0x9
 958 04f0 7E01     		.2byte	0x17e
 959 04f2 11080000 		.4byte	0x811
 960 04f6 04       		.byte	0x4
ARM GAS  C:\Users\IDONNO~1\AppData\Local\Temp\ccmfSHpE.s 			page 18


 961 04f7 0D       		.uleb128 0xd
 962 04f8 63020000 		.4byte	.LASF96
 963 04fc 09       		.byte	0x9
 964 04fd 8001     		.2byte	0x180
 965 04ff 66020000 		.4byte	0x266
 966 0503 08       		.byte	0x8
 967 0504 0D       		.uleb128 0xd
 968 0505 96050000 		.4byte	.LASF101
 969 0509 09       		.byte	0x9
 970 050a 8201     		.2byte	0x182
 971 050c 0C080000 		.4byte	0x80c
 972 0510 0C       		.byte	0xc
 973 0511 00       		.byte	0
 974 0512 03       		.uleb128 0x3
 975 0513 6C020000 		.4byte	.LASF102
 976 0517 08       		.byte	0x8
 977 0518 6B       		.byte	0x6b
 978 0519 1D050000 		.4byte	0x51d
 979 051d 0F       		.uleb128 0xf
 980 051e 01020000 		.4byte	.LASF103
 981 0522 04       		.byte	0x4
 982 0523 09       		.byte	0x9
 983 0524 A201     		.2byte	0x1a2
 984 0526 38050000 		.4byte	0x538
 985 052a 0D       		.uleb128 0xd
 986 052b 64060000 		.4byte	.LASF104
 987 052f 09       		.byte	0x9
 988 0530 AA01     		.2byte	0x1aa
 989 0532 17080000 		.4byte	0x817
 990 0536 00       		.byte	0
 991 0537 00       		.byte	0
 992 0538 03       		.uleb128 0x3
 993 0539 27030000 		.4byte	.LASF105
 994 053d 08       		.byte	0x8
 995 053e 70       		.byte	0x70
 996 053f 43050000 		.4byte	0x543
 997 0543 13       		.uleb128 0x13
 998 0544 74010000 		.4byte	.LASF106
 999 0548 5802     		.2byte	0x258
 1000 054a 09       		.byte	0x9
 1001 054b C201     		.2byte	0x1c2
 1002 054d 9F050000 		.4byte	0x59f
 1003 0551 0D       		.uleb128 0xd
 1004 0552 39080000 		.4byte	.LASF107
 1005 0556 09       		.byte	0x9
 1006 0557 C601     		.2byte	0x1c6
 1007 0559 E6030000 		.4byte	0x3e6
 1008 055d 00       		.byte	0
 1009 055e 0D       		.uleb128 0xd
 1010 055f 5F000000 		.4byte	.LASF108
 1011 0563 09       		.byte	0x9
 1012 0564 CA01     		.2byte	0x1ca
 1013 0566 C5040000 		.4byte	0x4c5
 1014 056a 1C       		.byte	0x1c
 1015 056b 0C       		.uleb128 0xc
 1016 056c 64626700 		.ascii	"dbg\000"
 1017 0570 09       		.byte	0x9
ARM GAS  C:\Users\IDONNO~1\AppData\Local\Temp\ccmfSHpE.s 			page 19


 1018 0571 CE01     		.2byte	0x1ce
 1019 0573 12050000 		.4byte	0x512
 1020 0577 2C       		.byte	0x2c
 1021 0578 0D       		.uleb128 0xd
 1022 0579 BF000000 		.4byte	.LASF109
 1023 057d 09       		.byte	0x9
 1024 057e D201     		.2byte	0x1d2
 1025 0580 71020000 		.4byte	0x271
 1026 0584 30       		.byte	0x30
 1027 0585 0C       		.uleb128 0xc
 1028 0586 746D00   		.ascii	"tm\000"
 1029 0589 09       		.byte	0x9
 1030 058a D701     		.2byte	0x1d7
 1031 058c 2A070000 		.4byte	0x72a
 1032 0590 78       		.byte	0x78
 1033 0591 0D       		.uleb128 0xd
 1034 0592 24020000 		.4byte	.LASF110
 1035 0596 09       		.byte	0x9
 1036 0597 E301     		.2byte	0x1e3
 1037 0599 1C080000 		.4byte	0x81c
 1038 059d 80       		.byte	0x80
 1039 059e 00       		.byte	0
 1040 059f 03       		.uleb128 0x3
 1041 05a0 F0010000 		.4byte	.LASF111
 1042 05a4 0A       		.byte	0xa
 1043 05a5 65       		.byte	0x65
 1044 05a6 69040000 		.4byte	0x469
 1045 05aa 03       		.uleb128 0x3
 1046 05ab 8A030000 		.4byte	.LASF112
 1047 05af 0A       		.byte	0xa
 1048 05b0 6D       		.byte	0x6d
 1049 05b1 B8000000 		.4byte	0xb8
 1050 05b5 0B       		.uleb128 0xb
 1051 05b6 86020000 		.4byte	.LASF113
 1052 05ba 04       		.byte	0x4
 1053 05bb 0A       		.byte	0xa
 1054 05bc 89       		.byte	0x89
 1055 05bd CE050000 		.4byte	0x5ce
 1056 05c1 09       		.uleb128 0x9
 1057 05c2 72313300 		.ascii	"r13\000"
 1058 05c6 0A       		.byte	0xa
 1059 05c7 8A       		.byte	0x8a
 1060 05c8 0F070000 		.4byte	0x70f
 1061 05cc 00       		.byte	0
 1062 05cd 00       		.byte	0
 1063 05ce 0B       		.uleb128 0xb
 1064 05cf 53000000 		.4byte	.LASF114
 1065 05d3 64       		.byte	0x64
 1066 05d4 0B       		.byte	0xb
 1067 05d5 F4       		.byte	0xf4
 1068 05d6 0F070000 		.4byte	0x70f
 1069 05da 09       		.uleb128 0x9
 1070 05db 73313600 		.ascii	"s16\000"
 1071 05df 0B       		.byte	0xb
 1072 05e0 F6       		.byte	0xf6
 1073 05e1 9F050000 		.4byte	0x59f
 1074 05e5 00       		.byte	0
ARM GAS  C:\Users\IDONNO~1\AppData\Local\Temp\ccmfSHpE.s 			page 20


 1075 05e6 09       		.uleb128 0x9
 1076 05e7 73313700 		.ascii	"s17\000"
 1077 05eb 0B       		.byte	0xb
 1078 05ec F7       		.byte	0xf7
 1079 05ed 9F050000 		.4byte	0x59f
 1080 05f1 04       		.byte	0x4
 1081 05f2 09       		.uleb128 0x9
 1082 05f3 73313800 		.ascii	"s18\000"
 1083 05f7 0B       		.byte	0xb
 1084 05f8 F8       		.byte	0xf8
 1085 05f9 9F050000 		.4byte	0x59f
 1086 05fd 08       		.byte	0x8
 1087 05fe 09       		.uleb128 0x9
 1088 05ff 73313900 		.ascii	"s19\000"
 1089 0603 0B       		.byte	0xb
 1090 0604 F9       		.byte	0xf9
 1091 0605 9F050000 		.4byte	0x59f
 1092 0609 0C       		.byte	0xc
 1093 060a 09       		.uleb128 0x9
 1094 060b 73323000 		.ascii	"s20\000"
 1095 060f 0B       		.byte	0xb
 1096 0610 FA       		.byte	0xfa
 1097 0611 9F050000 		.4byte	0x59f
 1098 0615 10       		.byte	0x10
 1099 0616 09       		.uleb128 0x9
 1100 0617 73323100 		.ascii	"s21\000"
 1101 061b 0B       		.byte	0xb
 1102 061c FB       		.byte	0xfb
 1103 061d 9F050000 		.4byte	0x59f
 1104 0621 14       		.byte	0x14
 1105 0622 09       		.uleb128 0x9
 1106 0623 73323200 		.ascii	"s22\000"
 1107 0627 0B       		.byte	0xb
 1108 0628 FC       		.byte	0xfc
 1109 0629 9F050000 		.4byte	0x59f
 1110 062d 18       		.byte	0x18
 1111 062e 09       		.uleb128 0x9
 1112 062f 73323300 		.ascii	"s23\000"
 1113 0633 0B       		.byte	0xb
 1114 0634 FD       		.byte	0xfd
 1115 0635 9F050000 		.4byte	0x59f
 1116 0639 1C       		.byte	0x1c
 1117 063a 09       		.uleb128 0x9
 1118 063b 73323400 		.ascii	"s24\000"
 1119 063f 0B       		.byte	0xb
 1120 0640 FE       		.byte	0xfe
 1121 0641 9F050000 		.4byte	0x59f
 1122 0645 20       		.byte	0x20
 1123 0646 09       		.uleb128 0x9
 1124 0647 73323500 		.ascii	"s25\000"
 1125 064b 0B       		.byte	0xb
 1126 064c FF       		.byte	0xff
 1127 064d 9F050000 		.4byte	0x59f
 1128 0651 24       		.byte	0x24
 1129 0652 0C       		.uleb128 0xc
 1130 0653 73323600 		.ascii	"s26\000"
 1131 0657 0B       		.byte	0xb
ARM GAS  C:\Users\IDONNO~1\AppData\Local\Temp\ccmfSHpE.s 			page 21


 1132 0658 0001     		.2byte	0x100
 1133 065a 9F050000 		.4byte	0x59f
 1134 065e 28       		.byte	0x28
 1135 065f 0C       		.uleb128 0xc
 1136 0660 73323700 		.ascii	"s27\000"
 1137 0664 0B       		.byte	0xb
 1138 0665 0101     		.2byte	0x101
 1139 0667 9F050000 		.4byte	0x59f
 1140 066b 2C       		.byte	0x2c
 1141 066c 0C       		.uleb128 0xc
 1142 066d 73323800 		.ascii	"s28\000"
 1143 0671 0B       		.byte	0xb
 1144 0672 0201     		.2byte	0x102
 1145 0674 9F050000 		.4byte	0x59f
 1146 0678 30       		.byte	0x30
 1147 0679 0C       		.uleb128 0xc
 1148 067a 73323900 		.ascii	"s29\000"
 1149 067e 0B       		.byte	0xb
 1150 067f 0301     		.2byte	0x103
 1151 0681 9F050000 		.4byte	0x59f
 1152 0685 34       		.byte	0x34
 1153 0686 0C       		.uleb128 0xc
 1154 0687 73333000 		.ascii	"s30\000"
 1155 068b 0B       		.byte	0xb
 1156 068c 0401     		.2byte	0x104
 1157 068e 9F050000 		.4byte	0x59f
 1158 0692 38       		.byte	0x38
 1159 0693 0C       		.uleb128 0xc
 1160 0694 73333100 		.ascii	"s31\000"
 1161 0698 0B       		.byte	0xb
 1162 0699 0501     		.2byte	0x105
 1163 069b 9F050000 		.4byte	0x59f
 1164 069f 3C       		.byte	0x3c
 1165 06a0 0C       		.uleb128 0xc
 1166 06a1 723400   		.ascii	"r4\000"
 1167 06a4 0B       		.byte	0xb
 1168 06a5 0701     		.2byte	0x107
 1169 06a7 9F050000 		.4byte	0x59f
 1170 06ab 40       		.byte	0x40
 1171 06ac 0C       		.uleb128 0xc
 1172 06ad 723500   		.ascii	"r5\000"
 1173 06b0 0B       		.byte	0xb
 1174 06b1 0801     		.2byte	0x108
 1175 06b3 9F050000 		.4byte	0x59f
 1176 06b7 44       		.byte	0x44
 1177 06b8 0C       		.uleb128 0xc
 1178 06b9 723600   		.ascii	"r6\000"
 1179 06bc 0B       		.byte	0xb
 1180 06bd 0901     		.2byte	0x109
 1181 06bf 9F050000 		.4byte	0x59f
 1182 06c3 48       		.byte	0x48
 1183 06c4 0C       		.uleb128 0xc
 1184 06c5 723700   		.ascii	"r7\000"
 1185 06c8 0B       		.byte	0xb
 1186 06c9 0A01     		.2byte	0x10a
 1187 06cb 9F050000 		.4byte	0x59f
 1188 06cf 4C       		.byte	0x4c
ARM GAS  C:\Users\IDONNO~1\AppData\Local\Temp\ccmfSHpE.s 			page 22


 1189 06d0 0C       		.uleb128 0xc
 1190 06d1 723800   		.ascii	"r8\000"
 1191 06d4 0B       		.byte	0xb
 1192 06d5 0B01     		.2byte	0x10b
 1193 06d7 9F050000 		.4byte	0x59f
 1194 06db 50       		.byte	0x50
 1195 06dc 0C       		.uleb128 0xc
 1196 06dd 723900   		.ascii	"r9\000"
 1197 06e0 0B       		.byte	0xb
 1198 06e1 0C01     		.2byte	0x10c
 1199 06e3 9F050000 		.4byte	0x59f
 1200 06e7 54       		.byte	0x54
 1201 06e8 0C       		.uleb128 0xc
 1202 06e9 72313000 		.ascii	"r10\000"
 1203 06ed 0B       		.byte	0xb
 1204 06ee 0D01     		.2byte	0x10d
 1205 06f0 9F050000 		.4byte	0x59f
 1206 06f4 58       		.byte	0x58
 1207 06f5 0C       		.uleb128 0xc
 1208 06f6 72313100 		.ascii	"r11\000"
 1209 06fa 0B       		.byte	0xb
 1210 06fb 0E01     		.2byte	0x10e
 1211 06fd 9F050000 		.4byte	0x59f
 1212 0701 5C       		.byte	0x5c
 1213 0702 0C       		.uleb128 0xc
 1214 0703 6C7200   		.ascii	"lr\000"
 1215 0706 0B       		.byte	0xb
 1216 0707 0F01     		.2byte	0x10f
 1217 0709 9F050000 		.4byte	0x59f
 1218 070d 60       		.byte	0x60
 1219 070e 00       		.byte	0
 1220 070f 0E       		.uleb128 0xe
 1221 0710 04       		.byte	0x4
 1222 0711 CE050000 		.4byte	0x5ce
 1223 0715 07       		.uleb128 0x7
 1224 0716 04       		.byte	0x4
 1225 0717 0C       		.byte	0xc
 1226 0718 38       		.byte	0x38
 1227 0719 2A070000 		.4byte	0x72a
 1228 071d 08       		.uleb128 0x8
 1229 071e 84060000 		.4byte	.LASF115
 1230 0722 0C       		.byte	0xc
 1231 0723 3C       		.byte	0x3c
 1232 0724 03020000 		.4byte	0x203
 1233 0728 00       		.byte	0
 1234 0729 00       		.byte	0
 1235 072a 03       		.uleb128 0x3
 1236 072b 01040000 		.4byte	.LASF116
 1237 072f 0C       		.byte	0xc
 1238 0730 3D       		.byte	0x3d
 1239 0731 15070000 		.4byte	0x715
 1240 0735 14       		.uleb128 0x14
 1241 0736 04       		.byte	0x4
 1242 0737 09       		.byte	0x9
 1243 0738 FA       		.byte	0xfa
 1244 0739 92070000 		.4byte	0x792
 1245 073d 15       		.uleb128 0x15
ARM GAS  C:\Users\IDONNO~1\AppData\Local\Temp\ccmfSHpE.s 			page 23


 1246 073e 2F000000 		.4byte	.LASF117
 1247 0742 09       		.byte	0x9
 1248 0743 0101     		.2byte	0x101
 1249 0745 45020000 		.4byte	0x245
 1250 0749 15       		.uleb128 0x15
 1251 074a D1010000 		.4byte	.LASF118
 1252 074e 09       		.byte	0x9
 1253 074f 0801     		.2byte	0x108
 1254 0751 45020000 		.4byte	0x245
 1255 0755 15       		.uleb128 0x15
 1256 0756 58010000 		.4byte	.LASF119
 1257 075a 09       		.byte	0x9
 1258 075b 0F01     		.2byte	0x10f
 1259 075d 69040000 		.4byte	0x469
 1260 0761 15       		.uleb128 0x15
 1261 0762 6E010000 		.4byte	.LASF120
 1262 0766 09       		.byte	0x9
 1263 0767 1601     		.2byte	0x116
 1264 0769 92070000 		.4byte	0x792
 1265 076d 15       		.uleb128 0x15
 1266 076e 5C020000 		.4byte	.LASF121
 1267 0772 09       		.byte	0x9
 1268 0773 1E01     		.2byte	0x11e
 1269 0775 BD070000 		.4byte	0x7bd
 1270 0779 15       		.uleb128 0x15
 1271 077a 5D060000 		.4byte	.LASF122
 1272 077e 09       		.byte	0x9
 1273 077f 2701     		.2byte	0x127
 1274 0781 F4070000 		.4byte	0x7f4
 1275 0785 15       		.uleb128 0x15
 1276 0786 27050000 		.4byte	.LASF123
 1277 078a 09       		.byte	0x9
 1278 078b 2F01     		.2byte	0x12f
 1279 078d 50020000 		.4byte	0x250
 1280 0791 00       		.byte	0
 1281 0792 0E       		.uleb128 0xe
 1282 0793 04       		.byte	0x4
 1283 0794 81030000 		.4byte	0x381
 1284 0798 0B       		.uleb128 0xb
 1285 0799 5B050000 		.4byte	.LASF124
 1286 079d 0C       		.byte	0xc
 1287 079e 0D       		.byte	0xd
 1288 079f 34       		.byte	0x34
 1289 07a0 BD070000 		.4byte	0x7bd
 1290 07a4 08       		.uleb128 0x8
 1291 07a5 AB010000 		.4byte	.LASF125
 1292 07a9 0D       		.byte	0xd
 1293 07aa 35       		.byte	0x35
 1294 07ab B6030000 		.4byte	0x3b6
 1295 07af 00       		.byte	0
 1296 07b0 08       		.uleb128 0x8
 1297 07b1 80020000 		.4byte	.LASF126
 1298 07b5 0D       		.byte	0xd
 1299 07b6 37       		.byte	0x37
 1300 07b7 5B020000 		.4byte	0x25b
 1301 07bb 08       		.byte	0x8
 1302 07bc 00       		.byte	0
ARM GAS  C:\Users\IDONNO~1\AppData\Local\Temp\ccmfSHpE.s 			page 24


 1303 07bd 0E       		.uleb128 0xe
 1304 07be 04       		.byte	0x4
 1305 07bf 98070000 		.4byte	0x798
 1306 07c3 0B       		.uleb128 0xb
 1307 07c4 50080000 		.4byte	.LASF127
 1308 07c8 10       		.byte	0x10
 1309 07c9 0E       		.byte	0xe
 1310 07ca 39       		.byte	0x39
 1311 07cb F4070000 		.4byte	0x7f4
 1312 07cf 08       		.uleb128 0x8
 1313 07d0 50010000 		.4byte	.LASF128
 1314 07d4 0E       		.byte	0xe
 1315 07d5 3A       		.byte	0x3a
 1316 07d6 B6030000 		.4byte	0x3b6
 1317 07da 00       		.byte	0
 1318 07db 08       		.uleb128 0x8
 1319 07dc A4080000 		.4byte	.LASF129
 1320 07e0 0E       		.byte	0xe
 1321 07e1 3C       		.byte	0x3c
 1322 07e2 8C030000 		.4byte	0x38c
 1323 07e6 08       		.byte	0x8
 1324 07e7 08       		.uleb128 0x8
 1325 07e8 2D060000 		.4byte	.LASF130
 1326 07ec 0E       		.byte	0xe
 1327 07ed 3E       		.byte	0x3e
 1328 07ee 37080000 		.4byte	0x837
 1329 07f2 0C       		.byte	0xc
 1330 07f3 00       		.byte	0
 1331 07f4 0E       		.uleb128 0xe
 1332 07f5 04       		.byte	0x4
 1333 07f6 C3070000 		.4byte	0x7c3
 1334 07fa 0E       		.uleb128 0xe
 1335 07fb 04       		.byte	0x4
 1336 07fc 07080000 		.4byte	0x807
 1337 0800 02       		.uleb128 0x2
 1338 0801 01       		.byte	0x1
 1339 0802 08       		.byte	0x8
 1340 0803 FD050000 		.4byte	.LASF131
 1341 0807 16       		.uleb128 0x16
 1342 0808 00080000 		.4byte	0x800
 1343 080c 0A       		.uleb128 0xa
 1344 080d 66020000 		.4byte	0x266
 1345 0811 0E       		.uleb128 0xe
 1346 0812 04       		.byte	0x4
 1347 0813 6B040000 		.4byte	0x46b
 1348 0817 0A       		.uleb128 0xa
 1349 0818 FA070000 		.4byte	0x7fa
 1350 081c 17       		.uleb128 0x17
 1351 081d AA050000 		.4byte	0x5aa
 1352 0821 2C080000 		.4byte	0x82c
 1353 0825 18       		.uleb128 0x18
 1354 0826 C3000000 		.4byte	0xc3
 1355 082a 3A       		.byte	0x3a
 1356 082b 00       		.byte	0
 1357 082c 03       		.uleb128 0x3
 1358 082d 1C020000 		.4byte	.LASF132
 1359 0831 0E       		.byte	0xe
ARM GAS  C:\Users\IDONNO~1\AppData\Local\Temp\ccmfSHpE.s 			page 25


 1360 0832 34       		.byte	0x34
 1361 0833 C3070000 		.4byte	0x7c3
 1362 0837 0E       		.uleb128 0xe
 1363 0838 04       		.byte	0x4
 1364 0839 2C080000 		.4byte	0x82c
 1365 083d 02       		.uleb128 0x2
 1366 083e 08       		.byte	0x8
 1367 083f 04       		.byte	0x4
 1368 0840 AC080000 		.4byte	.LASF133
 1369 0844 02       		.uleb128 0x2
 1370 0845 08       		.byte	0x8
 1371 0846 04       		.byte	0x4
 1372 0847 F1050000 		.4byte	.LASF134
 1373 084b 19       		.uleb128 0x19
 1374 084c 92060000 		.4byte	.LASF155
 1375 0850 02       		.byte	0x2
 1376 0851 84       		.byte	0x84
 1377 0852 03       		.byte	0x3
 1378 0853 63080000 		.4byte	0x863
 1379 0857 1A       		.uleb128 0x1a
 1380 0858 7B020000 		.4byte	.LASF156
 1381 085c 02       		.byte	0x2
 1382 085d 84       		.byte	0x84
 1383 085e FA070000 		.4byte	0x7fa
 1384 0862 00       		.byte	0
 1385 0863 1B       		.uleb128 0x1b
 1386 0864 11020000 		.4byte	.LASF157
 1387 0868 01       		.byte	0x1
 1388 0869 53       		.byte	0x53
 1389 086a 00000000 		.4byte	.LFB262
 1390 086e 14000000 		.4byte	.LFE262-.LFB262
 1391 0872 01       		.uleb128 0x1
 1392 0873 9C       		.byte	0x9c
 1393 0874 9F080000 		.4byte	0x89f
 1394 0878 1C       		.uleb128 0x1c
 1395 0879 61726700 		.ascii	"arg\000"
 1396 087d 01       		.byte	0x1
 1397 087e 53       		.byte	0x53
 1398 087f 69040000 		.4byte	0x469
 1399 0883 01       		.uleb128 0x1
 1400 0884 50       		.byte	0x50
 1401 0885 1D       		.uleb128 0x1d
 1402 0886 4B080000 		.4byte	0x84b
 1403 088a 00000000 		.4byte	.LBB4
 1404 088e 14000000 		.4byte	.LBE4-.LBB4
 1405 0892 01       		.byte	0x1
 1406 0893 56       		.byte	0x56
 1407 0894 1E       		.uleb128 0x1e
 1408 0895 57080000 		.4byte	0x857
 1409 0899 00000000 		.4byte	.LLST0
 1410 089d 00       		.byte	0
 1411 089e 00       		.byte	0
 1412 089f 1F       		.uleb128 0x1f
 1413 08a0 EC080000 		.4byte	.LASF136
 1414 08a4 01       		.byte	0x1
 1415 08a5 38       		.byte	0x38
 1416 08a6 00000000 		.4byte	.LFB256
ARM GAS  C:\Users\IDONNO~1\AppData\Local\Temp\ccmfSHpE.s 			page 26


 1417 08aa 28000000 		.4byte	.LFE256-.LFB256
 1418 08ae 01       		.uleb128 0x1
 1419 08af 9C       		.byte	0x9c
 1420 08b0 C4080000 		.4byte	0x8c4
 1421 08b4 20       		.uleb128 0x20
 1422 08b5 69010000 		.4byte	.LASF135
 1423 08b9 01       		.byte	0x1
 1424 08ba 38       		.byte	0x38
 1425 08bb C4080000 		.4byte	0x8c4
 1426 08bf 18000000 		.4byte	.LLST1
 1427 08c3 00       		.byte	0
 1428 08c4 0E       		.uleb128 0xe
 1429 08c5 04       		.byte	0x4
 1430 08c6 E8010000 		.4byte	0x1e8
 1431 08ca 1F       		.uleb128 0x1f
 1432 08cb 39020000 		.4byte	.LASF137
 1433 08cf 01       		.byte	0x1
 1434 08d0 3D       		.byte	0x3d
 1435 08d1 00000000 		.4byte	.LFB257
 1436 08d5 2C000000 		.4byte	.LFE257-.LFB257
 1437 08d9 01       		.uleb128 0x1
 1438 08da 9C       		.byte	0x9c
 1439 08db 1E090000 		.4byte	0x91e
 1440 08df 20       		.uleb128 0x20
 1441 08e0 1E000000 		.4byte	.LASF138
 1442 08e4 01       		.byte	0x1
 1443 08e5 3D       		.byte	0x3d
 1444 08e6 CA000000 		.4byte	0xca
 1445 08ea 53000000 		.4byte	.LLST2
 1446 08ee 21       		.uleb128 0x21
 1447 08ef 1C000000 		.4byte	.LVL8
 1448 08f3 300A0000 		.4byte	0xa30
 1449 08f7 22       		.uleb128 0x22
 1450 08f8 01       		.uleb128 0x1
 1451 08f9 50       		.byte	0x50
 1452 08fa 05       		.uleb128 0x5
 1453 08fb 03       		.byte	0x3
 1454 08fc 00000000 		.4byte	.LANCHOR3
 1455 0900 22       		.uleb128 0x22
 1456 0901 01       		.uleb128 0x1
 1457 0902 51       		.byte	0x51
 1458 0903 03       		.uleb128 0x3
 1459 0904 0A       		.byte	0xa
 1460 0905 9805     		.2byte	0x598
 1461 0907 22       		.uleb128 0x22
 1462 0908 01       		.uleb128 0x1
 1463 0909 52       		.byte	0x52
 1464 090a 02       		.uleb128 0x2
 1465 090b 08       		.byte	0x8
 1466 090c 40       		.byte	0x40
 1467 090d 22       		.uleb128 0x22
 1468 090e 01       		.uleb128 0x1
 1469 090f 53       		.byte	0x53
 1470 0910 05       		.uleb128 0x5
 1471 0911 03       		.byte	0x3
 1472 0912 00000000 		.4byte	adc_thread
 1473 0916 22       		.uleb128 0x22
ARM GAS  C:\Users\IDONNO~1\AppData\Local\Temp\ccmfSHpE.s 			page 27


 1474 0917 02       		.uleb128 0x2
 1475 0918 7D       		.byte	0x7d
 1476 0919 00       		.sleb128 0
 1477 091a 01       		.uleb128 0x1
 1478 091b 30       		.byte	0x30
 1479 091c 00       		.byte	0
 1480 091d 00       		.byte	0
 1481 091e 23       		.uleb128 0x23
 1482 091f D7050000 		.4byte	.LASF139
 1483 0923 01       		.byte	0x1
 1484 0924 42       		.byte	0x42
 1485 0925 D1000000 		.4byte	0xd1
 1486 0929 00000000 		.4byte	.LFB258
 1487 092d 0C000000 		.4byte	.LFE258-.LFB258
 1488 0931 01       		.uleb128 0x1
 1489 0932 9C       		.byte	0x9c
 1490 0933 23       		.uleb128 0x23
 1491 0934 6C030000 		.4byte	.LASF140
 1492 0938 01       		.byte	0x1
 1493 0939 46       		.byte	0x46
 1494 093a D1000000 		.4byte	0xd1
 1495 093e 00000000 		.4byte	.LFB259
 1496 0942 0C000000 		.4byte	.LFE259-.LFB259
 1497 0946 01       		.uleb128 0x1
 1498 0947 9C       		.byte	0x9c
 1499 0948 23       		.uleb128 0x23
 1500 0949 09060000 		.4byte	.LASF141
 1501 094d 01       		.byte	0x1
 1502 094e 4A       		.byte	0x4a
 1503 094f D1000000 		.4byte	0xd1
 1504 0953 00000000 		.4byte	.LFB260
 1505 0957 0C000000 		.4byte	.LFE260-.LFB260
 1506 095b 01       		.uleb128 0x1
 1507 095c 9C       		.byte	0x9c
 1508 095d 23       		.uleb128 0x23
 1509 095e 93000000 		.4byte	.LASF142
 1510 0962 01       		.byte	0x1
 1511 0963 4E       		.byte	0x4e
 1512 0964 D1000000 		.4byte	0xd1
 1513 0968 00000000 		.4byte	.LFB261
 1514 096c 0C000000 		.4byte	.LFE261-.LFB261
 1515 0970 01       		.uleb128 0x1
 1516 0971 9C       		.byte	0x9c
 1517 0972 17       		.uleb128 0x17
 1518 0973 AA050000 		.4byte	0x5aa
 1519 0977 82090000 		.4byte	0x982
 1520 097b 18       		.uleb128 0x18
 1521 097c C3000000 		.4byte	0xc3
 1522 0980 B2       		.byte	0xb2
 1523 0981 00       		.byte	0
 1524 0982 24       		.uleb128 0x24
 1525 0983 DA010000 		.4byte	.LASF143
 1526 0987 01       		.byte	0x1
 1527 0988 2D       		.byte	0x2d
 1528 0989 72090000 		.4byte	0x972
 1529 098d 05       		.uleb128 0x5
 1530 098e 03       		.byte	0x3
ARM GAS  C:\Users\IDONNO~1\AppData\Local\Temp\ccmfSHpE.s 			page 28


 1531 098f 00000000 		.4byte	adc_thread_wa
 1532 0993 24       		.uleb128 0x24
 1533 0994 02060000 		.4byte	.LASF144
 1534 0998 01       		.byte	0x1
 1535 0999 30       		.byte	0x30
 1536 099a A4090000 		.4byte	0x9a4
 1537 099e 05       		.uleb128 0x5
 1538 099f 03       		.byte	0x3
 1539 09a0 00000000 		.4byte	config
 1540 09a4 0A       		.uleb128 0xa
 1541 09a5 E8010000 		.4byte	0x1e8
 1542 09a9 24       		.uleb128 0x24
 1543 09aa 07030000 		.4byte	.LASF145
 1544 09ae 01       		.byte	0x1
 1545 09af 31       		.byte	0x31
 1546 09b0 BA090000 		.4byte	0x9ba
 1547 09b4 05       		.uleb128 0x5
 1548 09b5 03       		.byte	0x3
 1549 09b6 00000000 		.4byte	ms_without_power
 1550 09ba 0A       		.uleb128 0xa
 1551 09bb D1000000 		.4byte	0xd1
 1552 09bf 24       		.uleb128 0x24
 1553 09c0 66000000 		.4byte	.LASF146
 1554 09c4 01       		.byte	0x1
 1555 09c5 32       		.byte	0x32
 1556 09c6 BA090000 		.4byte	0x9ba
 1557 09ca 05       		.uleb128 0x5
 1558 09cb 03       		.byte	0x3
 1559 09cc 00000000 		.4byte	decoded_level
 1560 09d0 24       		.uleb128 0x24
 1561 09d1 EE030000 		.4byte	.LASF147
 1562 09d5 01       		.byte	0x1
 1563 09d6 33       		.byte	0x33
 1564 09d7 BA090000 		.4byte	0x9ba
 1565 09db 05       		.uleb128 0x5
 1566 09dc 03       		.byte	0x3
 1567 09dd 00000000 		.4byte	read_voltage
 1568 09e1 24       		.uleb128 0x24
 1569 09e2 4B040000 		.4byte	.LASF148
 1570 09e6 01       		.byte	0x1
 1571 09e7 34       		.byte	0x34
 1572 09e8 BA090000 		.4byte	0x9ba
 1573 09ec 05       		.uleb128 0x5
 1574 09ed 03       		.byte	0x3
 1575 09ee 00000000 		.4byte	decoded_level2
 1576 09f2 24       		.uleb128 0x24
 1577 09f3 C3040000 		.4byte	.LASF149
 1578 09f7 01       		.byte	0x1
 1579 09f8 35       		.byte	0x35
 1580 09f9 BA090000 		.4byte	0x9ba
 1581 09fd 05       		.uleb128 0x5
 1582 09fe 03       		.byte	0x3
 1583 09ff 00000000 		.4byte	read_voltage2
 1584 0a03 24       		.uleb128 0x24
 1585 0a04 35050000 		.4byte	.LASF150
 1586 0a08 01       		.byte	0x1
 1587 0a09 36       		.byte	0x36
ARM GAS  C:\Users\IDONNO~1\AppData\Local\Temp\ccmfSHpE.s 			page 29


 1588 0a0a 140A0000 		.4byte	0xa14
 1589 0a0e 05       		.uleb128 0x5
 1590 0a0f 03       		.byte	0x3
 1591 0a10 00000000 		.4byte	use_rx_tx_as_buttons
 1592 0a14 0A       		.uleb128 0xa
 1593 0a15 CA000000 		.4byte	0xca
 1594 0a19 25       		.uleb128 0x25
 1595 0a1a EB000000 		.4byte	.LASF151
 1596 0a1e 0F       		.byte	0xf
 1597 0a1f A706     		.2byte	0x6a7
 1598 0a21 FE010000 		.4byte	0x1fe
 1599 0a25 26       		.uleb128 0x26
 1600 0a26 636800   		.ascii	"ch\000"
 1601 0a29 09       		.byte	0x9
 1602 0a2a 0902     		.2byte	0x209
 1603 0a2c 38050000 		.4byte	0x538
 1604 0a30 27       		.uleb128 0x27
 1605 0a31 95030000 		.4byte	.LASF158
 1606 0a35 95030000 		.4byte	.LASF158
 1607 0a39 10       		.byte	0x10
 1608 0a3a 89       		.byte	0x89
 1609 0a3b 00       		.byte	0
 1610              		.section	.debug_abbrev,"",%progbits
 1611              	.Ldebug_abbrev0:
 1612 0000 01       		.uleb128 0x1
 1613 0001 11       		.uleb128 0x11
 1614 0002 01       		.byte	0x1
 1615 0003 25       		.uleb128 0x25
 1616 0004 0E       		.uleb128 0xe
 1617 0005 13       		.uleb128 0x13
 1618 0006 0B       		.uleb128 0xb
 1619 0007 03       		.uleb128 0x3
 1620 0008 0E       		.uleb128 0xe
 1621 0009 1B       		.uleb128 0x1b
 1622 000a 0E       		.uleb128 0xe
 1623 000b 55       		.uleb128 0x55
 1624 000c 17       		.uleb128 0x17
 1625 000d 11       		.uleb128 0x11
 1626 000e 01       		.uleb128 0x1
 1627 000f 10       		.uleb128 0x10
 1628 0010 17       		.uleb128 0x17
 1629 0011 00       		.byte	0
 1630 0012 00       		.byte	0
 1631 0013 02       		.uleb128 0x2
 1632 0014 24       		.uleb128 0x24
 1633 0015 00       		.byte	0
 1634 0016 0B       		.uleb128 0xb
 1635 0017 0B       		.uleb128 0xb
 1636 0018 3E       		.uleb128 0x3e
 1637 0019 0B       		.uleb128 0xb
 1638 001a 03       		.uleb128 0x3
 1639 001b 0E       		.uleb128 0xe
 1640 001c 00       		.byte	0
 1641 001d 00       		.byte	0
 1642 001e 03       		.uleb128 0x3
 1643 001f 16       		.uleb128 0x16
 1644 0020 00       		.byte	0
ARM GAS  C:\Users\IDONNO~1\AppData\Local\Temp\ccmfSHpE.s 			page 30


 1645 0021 03       		.uleb128 0x3
 1646 0022 0E       		.uleb128 0xe
 1647 0023 3A       		.uleb128 0x3a
 1648 0024 0B       		.uleb128 0xb
 1649 0025 3B       		.uleb128 0x3b
 1650 0026 0B       		.uleb128 0xb
 1651 0027 49       		.uleb128 0x49
 1652 0028 13       		.uleb128 0x13
 1653 0029 00       		.byte	0
 1654 002a 00       		.byte	0
 1655 002b 04       		.uleb128 0x4
 1656 002c 24       		.uleb128 0x24
 1657 002d 00       		.byte	0
 1658 002e 0B       		.uleb128 0xb
 1659 002f 0B       		.uleb128 0xb
 1660 0030 3E       		.uleb128 0x3e
 1661 0031 0B       		.uleb128 0xb
 1662 0032 03       		.uleb128 0x3
 1663 0033 08       		.uleb128 0x8
 1664 0034 00       		.byte	0
 1665 0035 00       		.byte	0
 1666 0036 05       		.uleb128 0x5
 1667 0037 04       		.uleb128 0x4
 1668 0038 01       		.byte	0x1
 1669 0039 0B       		.uleb128 0xb
 1670 003a 0B       		.uleb128 0xb
 1671 003b 49       		.uleb128 0x49
 1672 003c 13       		.uleb128 0x13
 1673 003d 3A       		.uleb128 0x3a
 1674 003e 0B       		.uleb128 0xb
 1675 003f 3B       		.uleb128 0x3b
 1676 0040 0B       		.uleb128 0xb
 1677 0041 01       		.uleb128 0x1
 1678 0042 13       		.uleb128 0x13
 1679 0043 00       		.byte	0
 1680 0044 00       		.byte	0
 1681 0045 06       		.uleb128 0x6
 1682 0046 28       		.uleb128 0x28
 1683 0047 00       		.byte	0
 1684 0048 03       		.uleb128 0x3
 1685 0049 0E       		.uleb128 0xe
 1686 004a 1C       		.uleb128 0x1c
 1687 004b 0B       		.uleb128 0xb
 1688 004c 00       		.byte	0
 1689 004d 00       		.byte	0
 1690 004e 07       		.uleb128 0x7
 1691 004f 13       		.uleb128 0x13
 1692 0050 01       		.byte	0x1
 1693 0051 0B       		.uleb128 0xb
 1694 0052 0B       		.uleb128 0xb
 1695 0053 3A       		.uleb128 0x3a
 1696 0054 0B       		.uleb128 0xb
 1697 0055 3B       		.uleb128 0x3b
 1698 0056 0B       		.uleb128 0xb
 1699 0057 01       		.uleb128 0x1
 1700 0058 13       		.uleb128 0x13
 1701 0059 00       		.byte	0
ARM GAS  C:\Users\IDONNO~1\AppData\Local\Temp\ccmfSHpE.s 			page 31


 1702 005a 00       		.byte	0
 1703 005b 08       		.uleb128 0x8
 1704 005c 0D       		.uleb128 0xd
 1705 005d 00       		.byte	0
 1706 005e 03       		.uleb128 0x3
 1707 005f 0E       		.uleb128 0xe
 1708 0060 3A       		.uleb128 0x3a
 1709 0061 0B       		.uleb128 0xb
 1710 0062 3B       		.uleb128 0x3b
 1711 0063 0B       		.uleb128 0xb
 1712 0064 49       		.uleb128 0x49
 1713 0065 13       		.uleb128 0x13
 1714 0066 38       		.uleb128 0x38
 1715 0067 0B       		.uleb128 0xb
 1716 0068 00       		.byte	0
 1717 0069 00       		.byte	0
 1718 006a 09       		.uleb128 0x9
 1719 006b 0D       		.uleb128 0xd
 1720 006c 00       		.byte	0
 1721 006d 03       		.uleb128 0x3
 1722 006e 08       		.uleb128 0x8
 1723 006f 3A       		.uleb128 0x3a
 1724 0070 0B       		.uleb128 0xb
 1725 0071 3B       		.uleb128 0x3b
 1726 0072 0B       		.uleb128 0xb
 1727 0073 49       		.uleb128 0x49
 1728 0074 13       		.uleb128 0x13
 1729 0075 38       		.uleb128 0x38
 1730 0076 0B       		.uleb128 0xb
 1731 0077 00       		.byte	0
 1732 0078 00       		.byte	0
 1733 0079 0A       		.uleb128 0xa
 1734 007a 35       		.uleb128 0x35
 1735 007b 00       		.byte	0
 1736 007c 49       		.uleb128 0x49
 1737 007d 13       		.uleb128 0x13
 1738 007e 00       		.byte	0
 1739 007f 00       		.byte	0
 1740 0080 0B       		.uleb128 0xb
 1741 0081 13       		.uleb128 0x13
 1742 0082 01       		.byte	0x1
 1743 0083 03       		.uleb128 0x3
 1744 0084 0E       		.uleb128 0xe
 1745 0085 0B       		.uleb128 0xb
 1746 0086 0B       		.uleb128 0xb
 1747 0087 3A       		.uleb128 0x3a
 1748 0088 0B       		.uleb128 0xb
 1749 0089 3B       		.uleb128 0x3b
 1750 008a 0B       		.uleb128 0xb
 1751 008b 01       		.uleb128 0x1
 1752 008c 13       		.uleb128 0x13
 1753 008d 00       		.byte	0
 1754 008e 00       		.byte	0
 1755 008f 0C       		.uleb128 0xc
 1756 0090 0D       		.uleb128 0xd
 1757 0091 00       		.byte	0
 1758 0092 03       		.uleb128 0x3
ARM GAS  C:\Users\IDONNO~1\AppData\Local\Temp\ccmfSHpE.s 			page 32


 1759 0093 08       		.uleb128 0x8
 1760 0094 3A       		.uleb128 0x3a
 1761 0095 0B       		.uleb128 0xb
 1762 0096 3B       		.uleb128 0x3b
 1763 0097 05       		.uleb128 0x5
 1764 0098 49       		.uleb128 0x49
 1765 0099 13       		.uleb128 0x13
 1766 009a 38       		.uleb128 0x38
 1767 009b 0B       		.uleb128 0xb
 1768 009c 00       		.byte	0
 1769 009d 00       		.byte	0
 1770 009e 0D       		.uleb128 0xd
 1771 009f 0D       		.uleb128 0xd
 1772 00a0 00       		.byte	0
 1773 00a1 03       		.uleb128 0x3
 1774 00a2 0E       		.uleb128 0xe
 1775 00a3 3A       		.uleb128 0x3a
 1776 00a4 0B       		.uleb128 0xb
 1777 00a5 3B       		.uleb128 0x3b
 1778 00a6 05       		.uleb128 0x5
 1779 00a7 49       		.uleb128 0x49
 1780 00a8 13       		.uleb128 0x13
 1781 00a9 38       		.uleb128 0x38
 1782 00aa 0B       		.uleb128 0xb
 1783 00ab 00       		.byte	0
 1784 00ac 00       		.byte	0
 1785 00ad 0E       		.uleb128 0xe
 1786 00ae 0F       		.uleb128 0xf
 1787 00af 00       		.byte	0
 1788 00b0 0B       		.uleb128 0xb
 1789 00b1 0B       		.uleb128 0xb
 1790 00b2 49       		.uleb128 0x49
 1791 00b3 13       		.uleb128 0x13
 1792 00b4 00       		.byte	0
 1793 00b5 00       		.byte	0
 1794 00b6 0F       		.uleb128 0xf
 1795 00b7 13       		.uleb128 0x13
 1796 00b8 01       		.byte	0x1
 1797 00b9 03       		.uleb128 0x3
 1798 00ba 0E       		.uleb128 0xe
 1799 00bb 0B       		.uleb128 0xb
 1800 00bc 0B       		.uleb128 0xb
 1801 00bd 3A       		.uleb128 0x3a
 1802 00be 0B       		.uleb128 0xb
 1803 00bf 3B       		.uleb128 0x3b
 1804 00c0 05       		.uleb128 0x5
 1805 00c1 01       		.uleb128 0x1
 1806 00c2 13       		.uleb128 0x13
 1807 00c3 00       		.byte	0
 1808 00c4 00       		.byte	0
 1809 00c5 10       		.uleb128 0x10
 1810 00c6 15       		.uleb128 0x15
 1811 00c7 01       		.byte	0x1
 1812 00c8 27       		.uleb128 0x27
 1813 00c9 19       		.uleb128 0x19
 1814 00ca 01       		.uleb128 0x1
 1815 00cb 13       		.uleb128 0x13
ARM GAS  C:\Users\IDONNO~1\AppData\Local\Temp\ccmfSHpE.s 			page 33


 1816 00cc 00       		.byte	0
 1817 00cd 00       		.byte	0
 1818 00ce 11       		.uleb128 0x11
 1819 00cf 05       		.uleb128 0x5
 1820 00d0 00       		.byte	0
 1821 00d1 49       		.uleb128 0x49
 1822 00d2 13       		.uleb128 0x13
 1823 00d3 00       		.byte	0
 1824 00d4 00       		.byte	0
 1825 00d5 12       		.uleb128 0x12
 1826 00d6 0F       		.uleb128 0xf
 1827 00d7 00       		.byte	0
 1828 00d8 0B       		.uleb128 0xb
 1829 00d9 0B       		.uleb128 0xb
 1830 00da 00       		.byte	0
 1831 00db 00       		.byte	0
 1832 00dc 13       		.uleb128 0x13
 1833 00dd 13       		.uleb128 0x13
 1834 00de 01       		.byte	0x1
 1835 00df 03       		.uleb128 0x3
 1836 00e0 0E       		.uleb128 0xe
 1837 00e1 0B       		.uleb128 0xb
 1838 00e2 05       		.uleb128 0x5
 1839 00e3 3A       		.uleb128 0x3a
 1840 00e4 0B       		.uleb128 0xb
 1841 00e5 3B       		.uleb128 0x3b
 1842 00e6 05       		.uleb128 0x5
 1843 00e7 01       		.uleb128 0x1
 1844 00e8 13       		.uleb128 0x13
 1845 00e9 00       		.byte	0
 1846 00ea 00       		.byte	0
 1847 00eb 14       		.uleb128 0x14
 1848 00ec 17       		.uleb128 0x17
 1849 00ed 01       		.byte	0x1
 1850 00ee 0B       		.uleb128 0xb
 1851 00ef 0B       		.uleb128 0xb
 1852 00f0 3A       		.uleb128 0x3a
 1853 00f1 0B       		.uleb128 0xb
 1854 00f2 3B       		.uleb128 0x3b
 1855 00f3 0B       		.uleb128 0xb
 1856 00f4 01       		.uleb128 0x1
 1857 00f5 13       		.uleb128 0x13
 1858 00f6 00       		.byte	0
 1859 00f7 00       		.byte	0
 1860 00f8 15       		.uleb128 0x15
 1861 00f9 0D       		.uleb128 0xd
 1862 00fa 00       		.byte	0
 1863 00fb 03       		.uleb128 0x3
 1864 00fc 0E       		.uleb128 0xe
 1865 00fd 3A       		.uleb128 0x3a
 1866 00fe 0B       		.uleb128 0xb
 1867 00ff 3B       		.uleb128 0x3b
 1868 0100 05       		.uleb128 0x5
 1869 0101 49       		.uleb128 0x49
 1870 0102 13       		.uleb128 0x13
 1871 0103 00       		.byte	0
 1872 0104 00       		.byte	0
ARM GAS  C:\Users\IDONNO~1\AppData\Local\Temp\ccmfSHpE.s 			page 34


 1873 0105 16       		.uleb128 0x16
 1874 0106 26       		.uleb128 0x26
 1875 0107 00       		.byte	0
 1876 0108 49       		.uleb128 0x49
 1877 0109 13       		.uleb128 0x13
 1878 010a 00       		.byte	0
 1879 010b 00       		.byte	0
 1880 010c 17       		.uleb128 0x17
 1881 010d 01       		.uleb128 0x1
 1882 010e 01       		.byte	0x1
 1883 010f 49       		.uleb128 0x49
 1884 0110 13       		.uleb128 0x13
 1885 0111 01       		.uleb128 0x1
 1886 0112 13       		.uleb128 0x13
 1887 0113 00       		.byte	0
 1888 0114 00       		.byte	0
 1889 0115 18       		.uleb128 0x18
 1890 0116 21       		.uleb128 0x21
 1891 0117 00       		.byte	0
 1892 0118 49       		.uleb128 0x49
 1893 0119 13       		.uleb128 0x13
 1894 011a 2F       		.uleb128 0x2f
 1895 011b 0B       		.uleb128 0xb
 1896 011c 00       		.byte	0
 1897 011d 00       		.byte	0
 1898 011e 19       		.uleb128 0x19
 1899 011f 2E       		.uleb128 0x2e
 1900 0120 01       		.byte	0x1
 1901 0121 03       		.uleb128 0x3
 1902 0122 0E       		.uleb128 0xe
 1903 0123 3A       		.uleb128 0x3a
 1904 0124 0B       		.uleb128 0xb
 1905 0125 3B       		.uleb128 0x3b
 1906 0126 0B       		.uleb128 0xb
 1907 0127 27       		.uleb128 0x27
 1908 0128 19       		.uleb128 0x19
 1909 0129 20       		.uleb128 0x20
 1910 012a 0B       		.uleb128 0xb
 1911 012b 01       		.uleb128 0x1
 1912 012c 13       		.uleb128 0x13
 1913 012d 00       		.byte	0
 1914 012e 00       		.byte	0
 1915 012f 1A       		.uleb128 0x1a
 1916 0130 05       		.uleb128 0x5
 1917 0131 00       		.byte	0
 1918 0132 03       		.uleb128 0x3
 1919 0133 0E       		.uleb128 0xe
 1920 0134 3A       		.uleb128 0x3a
 1921 0135 0B       		.uleb128 0xb
 1922 0136 3B       		.uleb128 0x3b
 1923 0137 0B       		.uleb128 0xb
 1924 0138 49       		.uleb128 0x49
 1925 0139 13       		.uleb128 0x13
 1926 013a 00       		.byte	0
 1927 013b 00       		.byte	0
 1928 013c 1B       		.uleb128 0x1b
 1929 013d 2E       		.uleb128 0x2e
ARM GAS  C:\Users\IDONNO~1\AppData\Local\Temp\ccmfSHpE.s 			page 35


 1930 013e 01       		.byte	0x1
 1931 013f 03       		.uleb128 0x3
 1932 0140 0E       		.uleb128 0xe
 1933 0141 3A       		.uleb128 0x3a
 1934 0142 0B       		.uleb128 0xb
 1935 0143 3B       		.uleb128 0x3b
 1936 0144 0B       		.uleb128 0xb
 1937 0145 27       		.uleb128 0x27
 1938 0146 19       		.uleb128 0x19
 1939 0147 11       		.uleb128 0x11
 1940 0148 01       		.uleb128 0x1
 1941 0149 12       		.uleb128 0x12
 1942 014a 06       		.uleb128 0x6
 1943 014b 40       		.uleb128 0x40
 1944 014c 18       		.uleb128 0x18
 1945 014d 9742     		.uleb128 0x2117
 1946 014f 19       		.uleb128 0x19
 1947 0150 01       		.uleb128 0x1
 1948 0151 13       		.uleb128 0x13
 1949 0152 00       		.byte	0
 1950 0153 00       		.byte	0
 1951 0154 1C       		.uleb128 0x1c
 1952 0155 05       		.uleb128 0x5
 1953 0156 00       		.byte	0
 1954 0157 03       		.uleb128 0x3
 1955 0158 08       		.uleb128 0x8
 1956 0159 3A       		.uleb128 0x3a
 1957 015a 0B       		.uleb128 0xb
 1958 015b 3B       		.uleb128 0x3b
 1959 015c 0B       		.uleb128 0xb
 1960 015d 49       		.uleb128 0x49
 1961 015e 13       		.uleb128 0x13
 1962 015f 02       		.uleb128 0x2
 1963 0160 18       		.uleb128 0x18
 1964 0161 00       		.byte	0
 1965 0162 00       		.byte	0
 1966 0163 1D       		.uleb128 0x1d
 1967 0164 1D       		.uleb128 0x1d
 1968 0165 01       		.byte	0x1
 1969 0166 31       		.uleb128 0x31
 1970 0167 13       		.uleb128 0x13
 1971 0168 11       		.uleb128 0x11
 1972 0169 01       		.uleb128 0x1
 1973 016a 12       		.uleb128 0x12
 1974 016b 06       		.uleb128 0x6
 1975 016c 58       		.uleb128 0x58
 1976 016d 0B       		.uleb128 0xb
 1977 016e 59       		.uleb128 0x59
 1978 016f 0B       		.uleb128 0xb
 1979 0170 00       		.byte	0
 1980 0171 00       		.byte	0
 1981 0172 1E       		.uleb128 0x1e
 1982 0173 05       		.uleb128 0x5
 1983 0174 00       		.byte	0
 1984 0175 31       		.uleb128 0x31
 1985 0176 13       		.uleb128 0x13
 1986 0177 02       		.uleb128 0x2
ARM GAS  C:\Users\IDONNO~1\AppData\Local\Temp\ccmfSHpE.s 			page 36


 1987 0178 17       		.uleb128 0x17
 1988 0179 00       		.byte	0
 1989 017a 00       		.byte	0
 1990 017b 1F       		.uleb128 0x1f
 1991 017c 2E       		.uleb128 0x2e
 1992 017d 01       		.byte	0x1
 1993 017e 3F       		.uleb128 0x3f
 1994 017f 19       		.uleb128 0x19
 1995 0180 03       		.uleb128 0x3
 1996 0181 0E       		.uleb128 0xe
 1997 0182 3A       		.uleb128 0x3a
 1998 0183 0B       		.uleb128 0xb
 1999 0184 3B       		.uleb128 0x3b
 2000 0185 0B       		.uleb128 0xb
 2001 0186 27       		.uleb128 0x27
 2002 0187 19       		.uleb128 0x19
 2003 0188 11       		.uleb128 0x11
 2004 0189 01       		.uleb128 0x1
 2005 018a 12       		.uleb128 0x12
 2006 018b 06       		.uleb128 0x6
 2007 018c 40       		.uleb128 0x40
 2008 018d 18       		.uleb128 0x18
 2009 018e 9742     		.uleb128 0x2117
 2010 0190 19       		.uleb128 0x19
 2011 0191 01       		.uleb128 0x1
 2012 0192 13       		.uleb128 0x13
 2013 0193 00       		.byte	0
 2014 0194 00       		.byte	0
 2015 0195 20       		.uleb128 0x20
 2016 0196 05       		.uleb128 0x5
 2017 0197 00       		.byte	0
 2018 0198 03       		.uleb128 0x3
 2019 0199 0E       		.uleb128 0xe
 2020 019a 3A       		.uleb128 0x3a
 2021 019b 0B       		.uleb128 0xb
 2022 019c 3B       		.uleb128 0x3b
 2023 019d 0B       		.uleb128 0xb
 2024 019e 49       		.uleb128 0x49
 2025 019f 13       		.uleb128 0x13
 2026 01a0 02       		.uleb128 0x2
 2027 01a1 17       		.uleb128 0x17
 2028 01a2 00       		.byte	0
 2029 01a3 00       		.byte	0
 2030 01a4 21       		.uleb128 0x21
 2031 01a5 898201   		.uleb128 0x4109
 2032 01a8 01       		.byte	0x1
 2033 01a9 11       		.uleb128 0x11
 2034 01aa 01       		.uleb128 0x1
 2035 01ab 31       		.uleb128 0x31
 2036 01ac 13       		.uleb128 0x13
 2037 01ad 00       		.byte	0
 2038 01ae 00       		.byte	0
 2039 01af 22       		.uleb128 0x22
 2040 01b0 8A8201   		.uleb128 0x410a
 2041 01b3 00       		.byte	0
 2042 01b4 02       		.uleb128 0x2
 2043 01b5 18       		.uleb128 0x18
ARM GAS  C:\Users\IDONNO~1\AppData\Local\Temp\ccmfSHpE.s 			page 37


 2044 01b6 9142     		.uleb128 0x2111
 2045 01b8 18       		.uleb128 0x18
 2046 01b9 00       		.byte	0
 2047 01ba 00       		.byte	0
 2048 01bb 23       		.uleb128 0x23
 2049 01bc 2E       		.uleb128 0x2e
 2050 01bd 00       		.byte	0
 2051 01be 3F       		.uleb128 0x3f
 2052 01bf 19       		.uleb128 0x19
 2053 01c0 03       		.uleb128 0x3
 2054 01c1 0E       		.uleb128 0xe
 2055 01c2 3A       		.uleb128 0x3a
 2056 01c3 0B       		.uleb128 0xb
 2057 01c4 3B       		.uleb128 0x3b
 2058 01c5 0B       		.uleb128 0xb
 2059 01c6 27       		.uleb128 0x27
 2060 01c7 19       		.uleb128 0x19
 2061 01c8 49       		.uleb128 0x49
 2062 01c9 13       		.uleb128 0x13
 2063 01ca 11       		.uleb128 0x11
 2064 01cb 01       		.uleb128 0x1
 2065 01cc 12       		.uleb128 0x12
 2066 01cd 06       		.uleb128 0x6
 2067 01ce 40       		.uleb128 0x40
 2068 01cf 18       		.uleb128 0x18
 2069 01d0 9742     		.uleb128 0x2117
 2070 01d2 19       		.uleb128 0x19
 2071 01d3 00       		.byte	0
 2072 01d4 00       		.byte	0
 2073 01d5 24       		.uleb128 0x24
 2074 01d6 34       		.uleb128 0x34
 2075 01d7 00       		.byte	0
 2076 01d8 03       		.uleb128 0x3
 2077 01d9 0E       		.uleb128 0xe
 2078 01da 3A       		.uleb128 0x3a
 2079 01db 0B       		.uleb128 0xb
 2080 01dc 3B       		.uleb128 0x3b
 2081 01dd 0B       		.uleb128 0xb
 2082 01de 49       		.uleb128 0x49
 2083 01df 13       		.uleb128 0x13
 2084 01e0 02       		.uleb128 0x2
 2085 01e1 18       		.uleb128 0x18
 2086 01e2 00       		.byte	0
 2087 01e3 00       		.byte	0
 2088 01e4 25       		.uleb128 0x25
 2089 01e5 34       		.uleb128 0x34
 2090 01e6 00       		.byte	0
 2091 01e7 03       		.uleb128 0x3
 2092 01e8 0E       		.uleb128 0xe
 2093 01e9 3A       		.uleb128 0x3a
 2094 01ea 0B       		.uleb128 0xb
 2095 01eb 3B       		.uleb128 0x3b
 2096 01ec 05       		.uleb128 0x5
 2097 01ed 49       		.uleb128 0x49
 2098 01ee 13       		.uleb128 0x13
 2099 01ef 3F       		.uleb128 0x3f
 2100 01f0 19       		.uleb128 0x19
ARM GAS  C:\Users\IDONNO~1\AppData\Local\Temp\ccmfSHpE.s 			page 38


 2101 01f1 3C       		.uleb128 0x3c
 2102 01f2 19       		.uleb128 0x19
 2103 01f3 00       		.byte	0
 2104 01f4 00       		.byte	0
 2105 01f5 26       		.uleb128 0x26
 2106 01f6 34       		.uleb128 0x34
 2107 01f7 00       		.byte	0
 2108 01f8 03       		.uleb128 0x3
 2109 01f9 08       		.uleb128 0x8
 2110 01fa 3A       		.uleb128 0x3a
 2111 01fb 0B       		.uleb128 0xb
 2112 01fc 3B       		.uleb128 0x3b
 2113 01fd 05       		.uleb128 0x5
 2114 01fe 49       		.uleb128 0x49
 2115 01ff 13       		.uleb128 0x13
 2116 0200 3F       		.uleb128 0x3f
 2117 0201 19       		.uleb128 0x19
 2118 0202 3C       		.uleb128 0x3c
 2119 0203 19       		.uleb128 0x19
 2120 0204 00       		.byte	0
 2121 0205 00       		.byte	0
 2122 0206 27       		.uleb128 0x27
 2123 0207 2E       		.uleb128 0x2e
 2124 0208 00       		.byte	0
 2125 0209 3F       		.uleb128 0x3f
 2126 020a 19       		.uleb128 0x19
 2127 020b 3C       		.uleb128 0x3c
 2128 020c 19       		.uleb128 0x19
 2129 020d 6E       		.uleb128 0x6e
 2130 020e 0E       		.uleb128 0xe
 2131 020f 03       		.uleb128 0x3
 2132 0210 0E       		.uleb128 0xe
 2133 0211 3A       		.uleb128 0x3a
 2134 0212 0B       		.uleb128 0xb
 2135 0213 3B       		.uleb128 0x3b
 2136 0214 0B       		.uleb128 0xb
 2137 0215 00       		.byte	0
 2138 0216 00       		.byte	0
 2139 0217 00       		.byte	0
 2140              		.section	.debug_loc,"",%progbits
 2141              	.Ldebug_loc0:
 2142              	.LLST0:
 2143 0000 00000000 		.4byte	.LVL0
 2144 0004 08000000 		.4byte	.LVL1
 2145 0008 0600     		.2byte	0x6
 2146 000a 03       		.byte	0x3
 2147 000b 00000000 		.4byte	.LC0
 2148 000f 9F       		.byte	0x9f
 2149 0010 00000000 		.4byte	0
 2150 0014 00000000 		.4byte	0
 2151              	.LLST1:
 2152 0018 00000000 		.4byte	.LVL2
 2153 001c 06000000 		.4byte	.LVL3
 2154 0020 0100     		.2byte	0x1
 2155 0022 50       		.byte	0x50
 2156 0023 06000000 		.4byte	.LVL3
 2157 0027 0E000000 		.4byte	.LVL4
ARM GAS  C:\Users\IDONNO~1\AppData\Local\Temp\ccmfSHpE.s 			page 39


 2158 002b 0300     		.2byte	0x3
 2159 002d 75       		.byte	0x75
 2160 002e 70       		.sleb128 -16
 2161 002f 9F       		.byte	0x9f
 2162 0030 0E000000 		.4byte	.LVL4
 2163 0034 1E000000 		.4byte	.LVL5
 2164 0038 0300     		.2byte	0x3
 2165 003a 75       		.byte	0x75
 2166 003b 60       		.sleb128 -32
 2167 003c 9F       		.byte	0x9f
 2168 003d 1E000000 		.4byte	.LVL5
 2169 0041 28000000 		.4byte	.LFE256
 2170 0045 0400     		.2byte	0x4
 2171 0047 F3       		.byte	0xf3
 2172 0048 01       		.uleb128 0x1
 2173 0049 50       		.byte	0x50
 2174 004a 9F       		.byte	0x9f
 2175 004b 00000000 		.4byte	0
 2176 004f 00000000 		.4byte	0
 2177              	.LLST2:
 2178 0053 00000000 		.4byte	.LVL6
 2179 0057 16000000 		.4byte	.LVL7
 2180 005b 0100     		.2byte	0x1
 2181 005d 50       		.byte	0x50
 2182 005e 16000000 		.4byte	.LVL7
 2183 0062 2C000000 		.4byte	.LFE257
 2184 0066 0400     		.2byte	0x4
 2185 0068 F3       		.byte	0xf3
 2186 0069 01       		.uleb128 0x1
 2187 006a 50       		.byte	0x50
 2188 006b 9F       		.byte	0x9f
 2189 006c 00000000 		.4byte	0
 2190 0070 00000000 		.4byte	0
 2191              		.section	.debug_aranges,"",%progbits
 2192 0000 4C000000 		.4byte	0x4c
 2193 0004 0200     		.2byte	0x2
 2194 0006 00000000 		.4byte	.Ldebug_info0
 2195 000a 04       		.byte	0x4
 2196 000b 00       		.byte	0
 2197 000c 0000     		.2byte	0
 2198 000e 0000     		.2byte	0
 2199 0010 00000000 		.4byte	.LFB262
 2200 0014 14000000 		.4byte	.LFE262-.LFB262
 2201 0018 00000000 		.4byte	.LFB256
 2202 001c 28000000 		.4byte	.LFE256-.LFB256
 2203 0020 00000000 		.4byte	.LFB257
 2204 0024 2C000000 		.4byte	.LFE257-.LFB257
 2205 0028 00000000 		.4byte	.LFB258
 2206 002c 0C000000 		.4byte	.LFE258-.LFB258
 2207 0030 00000000 		.4byte	.LFB259
 2208 0034 0C000000 		.4byte	.LFE259-.LFB259
 2209 0038 00000000 		.4byte	.LFB260
 2210 003c 0C000000 		.4byte	.LFE260-.LFB260
 2211 0040 00000000 		.4byte	.LFB261
 2212 0044 0C000000 		.4byte	.LFE261-.LFB261
 2213 0048 00000000 		.4byte	0
 2214 004c 00000000 		.4byte	0
ARM GAS  C:\Users\IDONNO~1\AppData\Local\Temp\ccmfSHpE.s 			page 40


 2215              		.section	.debug_ranges,"",%progbits
 2216              	.Ldebug_ranges0:
 2217 0000 00000000 		.4byte	.LFB262
 2218 0004 14000000 		.4byte	.LFE262
 2219 0008 00000000 		.4byte	.LFB256
 2220 000c 28000000 		.4byte	.LFE256
 2221 0010 00000000 		.4byte	.LFB257
 2222 0014 2C000000 		.4byte	.LFE257
 2223 0018 00000000 		.4byte	.LFB258
 2224 001c 0C000000 		.4byte	.LFE258
 2225 0020 00000000 		.4byte	.LFB259
 2226 0024 0C000000 		.4byte	.LFE259
 2227 0028 00000000 		.4byte	.LFB260
 2228 002c 0C000000 		.4byte	.LFE260
 2229 0030 00000000 		.4byte	.LFB261
 2230 0034 0C000000 		.4byte	.LFE261
 2231 0038 00000000 		.4byte	0
 2232 003c 00000000 		.4byte	0
 2233              		.section	.debug_line,"",%progbits
 2234              	.Ldebug_line0:
 2235 0000 25030000 		.section	.debug_str,"MS",%progbits,1
 2235      02009602 
 2235      00000201 
 2235      FB0E0D00 
 2235      01010101 
 2236              	.LASF39:
 2237 0000 766F6C74 		.ascii	"voltage_inverted\000"
 2237      6167655F 
 2237      696E7665 
 2237      72746564 
 2237      00
 2238              	.LASF83:
 2239 0011 72656164 		.ascii	"ready_list_t\000"
 2239      795F6C69 
 2239      73745F74 
 2239      00
 2240              	.LASF138:
 2241 001e 7573655F 		.ascii	"use_rx_tx\000"
 2241      72785F74 
 2241      7800
 2242              	.LASF46:
 2243 0028 73697A65 		.ascii	"size_t\000"
 2243      5F7400
 2244              	.LASF117:
 2245 002f 7264796D 		.ascii	"rdymsg\000"
 2245      736700
 2246              	.LASF16:
 2247 0036 75696E74 		.ascii	"uint64_t\000"
 2247      36345F74 
 2247      00
 2248              	.LASF4:
 2249 003f 5F5F7569 		.ascii	"__uint8_t\000"
 2249      6E74385F 
 2249      7400
 2250              	.LASF31:
 2251 0049 6374726C 		.ascii	"ctrl_type\000"
 2251      5F747970 
ARM GAS  C:\Users\IDONNO~1\AppData\Local\Temp\ccmfSHpE.s 			page 41


 2251      6500
 2252              	.LASF114:
 2253 0053 706F7274 		.ascii	"port_intctx\000"
 2253      5F696E74 
 2253      63747800 
 2254              	.LASF108:
 2255 005f 76746C69 		.ascii	"vtlist\000"
 2255      737400
 2256              	.LASF146:
 2257 0066 6465636F 		.ascii	"decoded_level\000"
 2257      6465645F 
 2257      6C657665 
 2257      6C00
 2258              	.LASF30:
 2259 0074 6164635F 		.ascii	"adc_control_type\000"
 2259      636F6E74 
 2259      726F6C5F 
 2259      74797065 
 2259      00
 2260              	.LASF33:
 2261 0085 766F6C74 		.ascii	"voltage_start\000"
 2261      6167655F 
 2261      73746172 
 2261      7400
 2262              	.LASF142:
 2263 0093 6170705F 		.ascii	"app_adc_get_voltage2\000"
 2263      6164635F 
 2263      6765745F 
 2263      766F6C74 
 2263      61676532 
 2264              	.LASF11:
 2265 00a8 6C6F6E67 		.ascii	"long long unsigned int\000"
 2265      206C6F6E 
 2265      6720756E 
 2265      7369676E 
 2265      65642069 
 2266              	.LASF109:
 2267 00bf 6D61696E 		.ascii	"mainthread\000"
 2267      74687265 
 2267      616400
 2268              	.LASF99:
 2269 00ca 76697274 		.ascii	"virtual_timers_list_t\000"
 2269      75616C5F 
 2269      74696D65 
 2269      72735F6C 
 2269      6973745F 
 2270              	.LASF36:
 2271 00e0 73616665 		.ascii	"safe_start\000"
 2271      5F737461 
 2271      727400
 2272              	.LASF151:
 2273 00eb 49544D5F 		.ascii	"ITM_RxBuffer\000"
 2273      52784275 
 2273      66666572 
 2273      00
 2274              	.LASF43:
 2275 00f8 74635F6D 		.ascii	"tc_max_diff\000"
ARM GAS  C:\Users\IDONNO~1\AppData\Local\Temp\ccmfSHpE.s 			page 42


 2275      61785F64 
 2275      69666600 
 2276              	.LASF82:
 2277 0104 63685F74 		.ascii	"ch_threads_queue\000"
 2277      68726561 
 2277      64735F71 
 2277      75657565 
 2277      00
 2278              	.LASF60:
 2279 0115 705F7072 		.ascii	"p_prio\000"
 2279      696F00
 2280              	.LASF9:
 2281 011c 6C6F6E67 		.ascii	"long long int\000"
 2281      206C6F6E 
 2281      6720696E 
 2281      7400
 2282              	.LASF0:
 2283 012a 7369676E 		.ascii	"signed char\000"
 2283      65642063 
 2283      68617200 
 2284              	.LASF8:
 2285 0136 6C6F6E67 		.ascii	"long unsigned int\000"
 2285      20756E73 
 2285      69676E65 
 2285      6420696E 
 2285      7400
 2286              	.LASF76:
 2287 0148 705F6D70 		.ascii	"p_mpool\000"
 2287      6F6F6C00 
 2288              	.LASF128:
 2289 0150 6D5F7175 		.ascii	"m_queue\000"
 2289      65756500 
 2290              	.LASF119:
 2291 0158 77746F62 		.ascii	"wtobjp\000"
 2291      6A7000
 2292              	.LASF51:
 2293 015f 74736C69 		.ascii	"tslices_t\000"
 2293      6365735F 
 2293      7400
 2294              	.LASF135:
 2295 0169 636F6E66 		.ascii	"conf\000"
 2295      00
 2296              	.LASF120:
 2297 016e 77747472 		.ascii	"wttrp\000"
 2297      7000
 2298              	.LASF106:
 2299 0174 63685F73 		.ascii	"ch_system\000"
 2299      79737465 
 2299      6D00
 2300              	.LASF6:
 2301 017e 6C6F6E67 		.ascii	"long int\000"
 2301      20696E74 
 2301      00
 2302              	.LASF49:
 2303 0187 74737461 		.ascii	"tstate_t\000"
 2303      74655F74 
 2303      00
ARM GAS  C:\Users\IDONNO~1\AppData\Local\Temp\ccmfSHpE.s 			page 43


 2304              	.LASF27:
 2305 0190 4144435F 		.ascii	"ADC_CTRL_TYPE_DUTY\000"
 2305      4354524C 
 2305      5F545950 
 2305      455F4455 
 2305      545900
 2306              	.LASF62:
 2307 01a3 705F6E65 		.ascii	"p_newer\000"
 2307      77657200 
 2308              	.LASF125:
 2309 01ab 735F7175 		.ascii	"s_queue\000"
 2309      65756500 
 2310              	.LASF28:
 2311 01b3 4144435F 		.ascii	"ADC_CTRL_TYPE_DUTY_REV_CENTER\000"
 2311      4354524C 
 2311      5F545950 
 2311      455F4455 
 2311      54595F52 
 2312              	.LASF118:
 2313 01d1 65786974 		.ascii	"exitcode\000"
 2313      636F6465 
 2313      00
 2314              	.LASF143:
 2315 01da 6164635F 		.ascii	"adc_thread_wa\000"
 2315      74687265 
 2315      61645F77 
 2315      6100
 2316              	.LASF88:
 2317 01e8 725F6E65 		.ascii	"r_newer\000"
 2317      77657200 
 2318              	.LASF111:
 2319 01f0 72656761 		.ascii	"regarm_t\000"
 2319      726D5F74 
 2319      00
 2320              	.LASF95:
 2321 01f9 76745F70 		.ascii	"vt_prev\000"
 2321      72657600 
 2322              	.LASF103:
 2323 0201 63685F73 		.ascii	"ch_system_debug\000"
 2323      79737465 
 2323      6D5F6465 
 2323      62756700 
 2324              	.LASF157:
 2325 0211 6164635F 		.ascii	"adc_thread\000"
 2325      74687265 
 2325      616400
 2326              	.LASF132:
 2327 021c 6D757465 		.ascii	"mutex_t\000"
 2327      785F7400 
 2328              	.LASF110:
 2329 0224 69646C65 		.ascii	"idle_thread_wa\000"
 2329      5F746872 
 2329      6561645F 
 2329      776100
 2330              	.LASF55:
 2331 0233 636E745F 		.ascii	"cnt_t\000"
 2331      7400
ARM GAS  C:\Users\IDONNO~1\AppData\Local\Temp\ccmfSHpE.s 			page 44


 2332              	.LASF137:
 2333 0239 6170705F 		.ascii	"app_adc_start\000"
 2333      6164635F 
 2333      73746172 
 2333      7400
 2334              	.LASF12:
 2335 0247 756E7369 		.ascii	"unsigned int\000"
 2335      676E6564 
 2335      20696E74 
 2335      00
 2336              	.LASF94:
 2337 0254 76745F6E 		.ascii	"vt_next\000"
 2337      65787400 
 2338              	.LASF121:
 2339 025c 77747365 		.ascii	"wtsemp\000"
 2339      6D7000
 2340              	.LASF96:
 2341 0263 76745F64 		.ascii	"vt_delta\000"
 2341      656C7461 
 2341      00
 2342              	.LASF102:
 2343 026c 73797374 		.ascii	"system_debug_t\000"
 2343      656D5F64 
 2343      65627567 
 2343      5F7400
 2344              	.LASF156:
 2345 027b 6E616D65 		.ascii	"name\000"
 2345      00
 2346              	.LASF126:
 2347 0280 735F636E 		.ascii	"s_cnt\000"
 2347      7400
 2348              	.LASF113:
 2349 0286 636F6E74 		.ascii	"context\000"
 2349      65787400 
 2350              	.LASF3:
 2351 028e 73686F72 		.ascii	"short unsigned int\000"
 2351      7420756E 
 2351      7369676E 
 2351      65642069 
 2351      6E7400
 2352              	.LASF79:
 2353 02a1 63685F74 		.ascii	"ch_thread\000"
 2353      68726561 
 2353      6400
 2354              	.LASF34:
 2355 02ab 766F6C74 		.ascii	"voltage_end\000"
 2355      6167655F 
 2355      656E6400 
 2356              	.LASF53:
 2357 02b7 6D73675F 		.ascii	"msg_t\000"
 2357      7400
 2358              	.LASF154:
 2359 02bd 443A5C67 		.ascii	"D:\\git\\oroca_bldc_dev\\oroca_bldc_fw\\oroca_bldc_"
 2359      69745C6F 
 2359      726F6361 
 2359      5F626C64 
 2359      635F6465 
ARM GAS  C:\Users\IDONNO~1\AppData\Local\Temp\ccmfSHpE.s 			page 45


 2360 02ec 63686962 		.ascii	"chibios\000"
 2360      696F7300 
 2361              	.LASF37:
 2362 02f4 63635F62 		.ascii	"cc_button_inverted\000"
 2362      7574746F 
 2362      6E5F696E 
 2362      76657274 
 2362      656400
 2363              	.LASF145:
 2364 0307 6D735F77 		.ascii	"ms_without_power\000"
 2364      6974686F 
 2364      75745F70 
 2364      6F776572 
 2364      00
 2365              	.LASF44:
 2366 0318 75706461 		.ascii	"update_rate_hz\000"
 2366      74655F72 
 2366      6174655F 
 2366      687A00
 2367              	.LASF105:
 2368 0327 63685F73 		.ascii	"ch_system_t\000"
 2368      79737465 
 2368      6D5F7400 
 2369              	.LASF48:
 2370 0333 746D6F64 		.ascii	"tmode_t\000"
 2370      655F7400 
 2371              	.LASF45:
 2372 033b 6164635F 		.ascii	"adc_config\000"
 2372      636F6E66 
 2372      696700
 2373              	.LASF84:
 2374 0346 63685F72 		.ascii	"ch_ready_list\000"
 2374      65616479 
 2374      5F6C6973 
 2374      7400
 2375              	.LASF54:
 2376 0354 6576656E 		.ascii	"eventmask_t\000"
 2376      746D6173 
 2376      6B5F7400 
 2377              	.LASF41:
 2378 0360 72706D5F 		.ascii	"rpm_lim_end\000"
 2378      6C696D5F 
 2378      656E6400 
 2379              	.LASF140:
 2380 036c 6170705F 		.ascii	"app_adc_get_voltage\000"
 2380      6164635F 
 2380      6765745F 
 2380      766F6C74 
 2380      61676500 
 2381              	.LASF5:
 2382 0380 5F5F696E 		.ascii	"__int32_t\000"
 2382      7433325F 
 2382      7400
 2383              	.LASF112:
 2384 038a 73746B61 		.ascii	"stkalign_t\000"
 2384      6C69676E 
 2384      5F7400
ARM GAS  C:\Users\IDONNO~1\AppData\Local\Temp\ccmfSHpE.s 			page 46


 2385              	.LASF158:
 2386 0395 63685468 		.ascii	"chThdCreateStatic\000"
 2386      64437265 
 2386      61746553 
 2386      74617469 
 2386      6300
 2387              	.LASF14:
 2388 03a7 696E7433 		.ascii	"int32_t\000"
 2388      325F7400 
 2389              	.LASF47:
 2390 03af 7274636E 		.ascii	"rtcnt_t\000"
 2390      745F7400 
 2391              	.LASF77:
 2392 03b7 74687265 		.ascii	"thread_reference_t\000"
 2392      61645F72 
 2392      65666572 
 2392      656E6365 
 2392      5F7400
 2393              	.LASF100:
 2394 03ca 63685F76 		.ascii	"ch_virtual_timers_list\000"
 2394      69727475 
 2394      616C5F74 
 2394      696D6572 
 2394      735F6C69 
 2395              	.LASF32:
 2396 03e1 68797374 		.ascii	"hyst\000"
 2396      00
 2397              	.LASF97:
 2398 03e6 76745F66 		.ascii	"vt_func\000"
 2398      756E6300 
 2399              	.LASF147:
 2400 03ee 72656164 		.ascii	"read_voltage\000"
 2400      5F766F6C 
 2400      74616765 
 2400      00
 2401              	.LASF87:
 2402 03fb 725F6374 		.ascii	"r_ctx\000"
 2402      7800
 2403              	.LASF116:
 2404 0401 746D5F63 		.ascii	"tm_calibration_t\000"
 2404      616C6962 
 2404      72617469 
 2404      6F6E5F74 
 2404      00
 2405              	.LASF90:
 2406 0412 725F6375 		.ascii	"r_current\000"
 2406      7272656E 
 2406      7400
 2407              	.LASF89:
 2408 041c 725F6F6C 		.ascii	"r_older\000"
 2408      64657200 
 2409              	.LASF40:
 2410 0424 72706D5F 		.ascii	"rpm_lim_start\000"
 2410      6C696D5F 
 2410      73746172 
 2410      7400
 2411              	.LASF10:
ARM GAS  C:\Users\IDONNO~1\AppData\Local\Temp\ccmfSHpE.s 			page 47


 2412 0432 5F5F7569 		.ascii	"__uint64_t\000"
 2412      6E743634 
 2412      5F7400
 2413              	.LASF19:
 2414 043d 666C6F61 		.ascii	"float\000"
 2414      7400
 2415              	.LASF50:
 2416 0443 74726566 		.ascii	"trefs_t\000"
 2416      735F7400 
 2417              	.LASF148:
 2418 044b 6465636F 		.ascii	"decoded_level2\000"
 2418      6465645F 
 2418      6C657665 
 2418      6C3200
 2419              	.LASF92:
 2420 045a 76697274 		.ascii	"virtual_timer_t\000"
 2420      75616C5F 
 2420      74696D65 
 2420      725F7400 
 2421              	.LASF59:
 2422 046a 705F7072 		.ascii	"p_prev\000"
 2422      657600
 2423              	.LASF35:
 2424 0471 7573655F 		.ascii	"use_filter\000"
 2424      66696C74 
 2424      657200
 2425              	.LASF52:
 2426 047c 74707269 		.ascii	"tprio_t\000"
 2426      6F5F7400 
 2427              	.LASF23:
 2428 0484 4144435F 		.ascii	"ADC_CTRL_TYPE_CURRENT_REV_BUTTON\000"
 2428      4354524C 
 2428      5F545950 
 2428      455F4355 
 2428      5252454E 
 2429              	.LASF18:
 2430 04a5 5F426F6F 		.ascii	"_Bool\000"
 2430      6C00
 2431              	.LASF42:
 2432 04ab 6D756C74 		.ascii	"multi_esc\000"
 2432      695F6573 
 2432      6300
 2433              	.LASF1:
 2434 04b5 756E7369 		.ascii	"unsigned char\000"
 2434      676E6564 
 2434      20636861 
 2434      7200
 2435              	.LASF149:
 2436 04c3 72656164 		.ascii	"read_voltage2\000"
 2436      5F766F6C 
 2436      74616765 
 2436      3200
 2437              	.LASF74:
 2438 04d1 705F6D74 		.ascii	"p_mtxlist\000"
 2438      786C6973 
 2438      7400
 2439              	.LASF2:
ARM GAS  C:\Users\IDONNO~1\AppData\Local\Temp\ccmfSHpE.s 			page 48


 2440 04db 73686F72 		.ascii	"short int\000"
 2440      7420696E 
 2440      7400
 2441              	.LASF65:
 2442 04e5 705F7374 		.ascii	"p_state\000"
 2442      61746500 
 2443              	.LASF22:
 2444 04ed 4144435F 		.ascii	"ADC_CTRL_TYPE_CURRENT_REV_CENTER\000"
 2444      4354524C 
 2444      5F545950 
 2444      455F4355 
 2444      5252454E 
 2445              	.LASF68:
 2446 050e 705F7072 		.ascii	"p_preempt\000"
 2446      65656D70 
 2446      7400
 2447              	.LASF63:
 2448 0518 705F6F6C 		.ascii	"p_older\000"
 2448      64657200 
 2449              	.LASF86:
 2450 0520 725F7072 		.ascii	"r_prio\000"
 2450      696F00
 2451              	.LASF123:
 2452 0527 65776D61 		.ascii	"ewmask\000"
 2452      736B00
 2453              	.LASF58:
 2454 052e 705F6E65 		.ascii	"p_next\000"
 2454      787400
 2455              	.LASF150:
 2456 0535 7573655F 		.ascii	"use_rx_tx_as_buttons\000"
 2456      72785F74 
 2456      785F6173 
 2456      5F627574 
 2456      746F6E73 
 2457              	.LASF93:
 2458 054a 63685F76 		.ascii	"ch_virtual_timer\000"
 2458      69727475 
 2458      616C5F74 
 2458      696D6572 
 2458      00
 2459              	.LASF124:
 2460 055b 63685F73 		.ascii	"ch_semaphore\000"
 2460      656D6170 
 2460      686F7265 
 2460      00
 2461              	.LASF73:
 2462 0568 705F6570 		.ascii	"p_epending\000"
 2462      656E6469 
 2462      6E6700
 2463              	.LASF15:
 2464 0573 75696E74 		.ascii	"uint32_t\000"
 2464      33325F74 
 2464      00
 2465              	.LASF153:
 2466 057c 7372632F 		.ascii	"src/app/app_adc.c\000"
 2466      6170702F 
 2466      6170705F 
ARM GAS  C:\Users\IDONNO~1\AppData\Local\Temp\ccmfSHpE.s 			page 49


 2466      6164632E 
 2466      6300
 2467              	.LASF85:
 2468 058e 725F7175 		.ascii	"r_queue\000"
 2468      65756500 
 2469              	.LASF101:
 2470 0596 76745F73 		.ascii	"vt_systime\000"
 2470      79737469 
 2470      6D6500
 2471              	.LASF26:
 2472 05a1 4144435F 		.ascii	"ADC_CTRL_TYPE_CURRENT_NOREV_BRAKE_ADC\000"
 2472      4354524C 
 2472      5F545950 
 2472      455F4355 
 2472      5252454E 
 2473              	.LASF80:
 2474 05c7 63685F74 		.ascii	"ch_threads_list\000"
 2474      68726561 
 2474      64735F6C 
 2474      69737400 
 2475              	.LASF139:
 2476 05d7 6170705F 		.ascii	"app_adc_get_decoded_level\000"
 2476      6164635F 
 2476      6765745F 
 2476      6465636F 
 2476      6465645F 
 2477              	.LASF134:
 2478 05f1 6C6F6E67 		.ascii	"long double\000"
 2478      20646F75 
 2478      626C6500 
 2479              	.LASF131:
 2480 05fd 63686172 		.ascii	"char\000"
 2480      00
 2481              	.LASF144:
 2482 0602 636F6E66 		.ascii	"config\000"
 2482      696700
 2483              	.LASF141:
 2484 0609 6170705F 		.ascii	"app_adc_get_decoded_level2\000"
 2484      6164635F 
 2484      6765745F 
 2484      6465636F 
 2484      6465645F 
 2485              	.LASF57:
 2486 0624 74687265 		.ascii	"thread_t\000"
 2486      61645F74 
 2486      00
 2487              	.LASF130:
 2488 062d 6D5F6E65 		.ascii	"m_next\000"
 2488      787400
 2489              	.LASF56:
 2490 0634 73797374 		.ascii	"systime_t\000"
 2490      696D655F 
 2490      7400
 2491              	.LASF75:
 2492 063e 705F7265 		.ascii	"p_realprio\000"
 2492      616C7072 
 2492      696F00
ARM GAS  C:\Users\IDONNO~1\AppData\Local\Temp\ccmfSHpE.s 			page 50


 2493              	.LASF91:
 2494 0649 76746675 		.ascii	"vtfunc_t\000"
 2494      6E635F74 
 2494      00
 2495              	.LASF7:
 2496 0652 5F5F7569 		.ascii	"__uint32_t\000"
 2496      6E743332 
 2496      5F7400
 2497              	.LASF122:
 2498 065d 77746D74 		.ascii	"wtmtxp\000"
 2498      787000
 2499              	.LASF104:
 2500 0664 70616E69 		.ascii	"panic_msg\000"
 2500      635F6D73 
 2500      6700
 2501              	.LASF21:
 2502 066e 4144435F 		.ascii	"ADC_CTRL_TYPE_CURRENT\000"
 2502      4354524C 
 2502      5F545950 
 2502      455F4355 
 2502      5252454E 
 2503              	.LASF115:
 2504 0684 6F666673 		.ascii	"offset\000"
 2504      657400
 2505              	.LASF69:
 2506 068b 705F7469 		.ascii	"p_time\000"
 2506      6D6500
 2507              	.LASF155:
 2508 0692 63685265 		.ascii	"chRegSetThreadName\000"
 2508      67536574 
 2508      54687265 
 2508      61644E61 
 2508      6D6500
 2509              	.LASF71:
 2510 06a5 705F6D73 		.ascii	"p_msgqueue\000"
 2510      67717565 
 2510      756500
 2511              	.LASF29:
 2512 06b0 4144435F 		.ascii	"ADC_CTRL_TYPE_DUTY_REV_BUTTON\000"
 2512      4354524C 
 2512      5F545950 
 2512      455F4455 
 2512      54595F52 
 2513              	.LASF98:
 2514 06ce 76745F70 		.ascii	"vt_par\000"
 2514      617200
 2515              	.LASF81:
 2516 06d5 74687265 		.ascii	"threads_queue_t\000"
 2516      6164735F 
 2516      71756575 
 2516      655F7400 
 2517              	.LASF67:
 2518 06e5 705F7265 		.ascii	"p_refs\000"
 2518      667300
 2519              	.LASF25:
 2520 06ec 4144435F 		.ascii	"ADC_CTRL_TYPE_CURRENT_NOREV_BRAKE_BUTTON\000"
 2520      4354524C 
ARM GAS  C:\Users\IDONNO~1\AppData\Local\Temp\ccmfSHpE.s 			page 51


 2520      5F545950 
 2520      455F4355 
 2520      5252454E 
 2521              	.LASF152:
 2522 0715 474E5520 		.ascii	"GNU C99 5.4.1 20160919 (release) [ARM/embedded-5-br"
 2522      43393920 
 2522      352E342E 
 2522      31203230 
 2522      31363039 
 2523 0748 616E6368 		.ascii	"anch revision 240496] -mcpu=cortex-m4 -mfloat-abi=h"
 2523      20726576 
 2523      6973696F 
 2523      6E203234 
 2523      30343936 
 2524 077b 61726420 		.ascii	"ard -mfpu=fpv4-sp-d16 -mno-thumb-interwork -mthumb "
 2524      2D6D6670 
 2524      753D6670 
 2524      76342D73 
 2524      702D6431 
 2525 07ae 2D676764 		.ascii	"-ggdb -O2 -std=gnu99 -fomit-frame-pointer -falign-f"
 2525      62202D4F 
 2525      32202D73 
 2525      74643D67 
 2525      6E753939 
 2526 07e1 756E6374 		.ascii	"unctions=16 -ffunction-sections -fdata-sections -fn"
 2526      696F6E73 
 2526      3D313620 
 2526      2D666675 
 2526      6E637469 
 2527 0814 6F2D636F 		.ascii	"o-common -fsingle-precision-constant\000"
 2527      6D6D6F6E 
 2527      202D6673 
 2527      696E676C 
 2527      652D7072 
 2528              	.LASF107:
 2529 0839 726C6973 		.ascii	"rlist\000"
 2529      7400
 2530              	.LASF13:
 2531 083f 75696E74 		.ascii	"uint8_t\000"
 2531      385F7400 
 2532              	.LASF17:
 2533 0847 73697A65 		.ascii	"sizetype\000"
 2533      74797065 
 2533      00
 2534              	.LASF127:
 2535 0850 63685F6D 		.ascii	"ch_mutex\000"
 2535      75746578 
 2535      00
 2536              	.LASF64:
 2537 0859 705F6E61 		.ascii	"p_name\000"
 2537      6D6500
 2538              	.LASF20:
 2539 0860 4144435F 		.ascii	"ADC_CTRL_TYPE_NONE\000"
 2539      4354524C 
 2539      5F545950 
 2539      455F4E4F 
 2539      4E4500
ARM GAS  C:\Users\IDONNO~1\AppData\Local\Temp\ccmfSHpE.s 			page 52


 2540              	.LASF78:
 2541 0873 74687265 		.ascii	"threads_list_t\000"
 2541      6164735F 
 2541      6C697374 
 2541      5F7400
 2542              	.LASF66:
 2543 0882 705F666C 		.ascii	"p_flags\000"
 2543      61677300 
 2544              	.LASF72:
 2545 088a 705F6D73 		.ascii	"p_msg\000"
 2545      6700
 2546              	.LASF38:
 2547 0890 7265765F 		.ascii	"rev_button_inverted\000"
 2547      62757474 
 2547      6F6E5F69 
 2547      6E766572 
 2547      74656400 
 2548              	.LASF129:
 2549 08a4 6D5F6F77 		.ascii	"m_owner\000"
 2549      6E657200 
 2550              	.LASF133:
 2551 08ac 646F7562 		.ascii	"double\000"
 2551      6C6500
 2552              	.LASF24:
 2553 08b3 4144435F 		.ascii	"ADC_CTRL_TYPE_CURRENT_NOREV_BRAKE_CENTER\000"
 2553      4354524C 
 2553      5F545950 
 2553      455F4355 
 2553      5252454E 
 2554              	.LASF61:
 2555 08dc 705F6374 		.ascii	"p_ctx\000"
 2555      7800
 2556              	.LASF70:
 2557 08e2 705F7761 		.ascii	"p_waiting\000"
 2557      6974696E 
 2557      6700
 2558              	.LASF136:
 2559 08ec 6170705F 		.ascii	"app_adc_configure\000"
 2559      6164635F 
 2559      636F6E66 
 2559      69677572 
 2559      6500
 2560              		.ident	"GCC: (GNU Tools for ARM Embedded Processors) 5.4.1 20160919 (release) [ARM/embedded-5-bran
ARM GAS  C:\Users\IDONNO~1\AppData\Local\Temp\ccmfSHpE.s 			page 53


DEFINED SYMBOLS
                            *ABS*:00000000 app_adc.c
C:\Users\IDONNO~1\AppData\Local\Temp\ccmfSHpE.s:22     .text.adc_thread:00000000 $t
C:\Users\IDONNO~1\AppData\Local\Temp\ccmfSHpE.s:27     .text.adc_thread:00000000 adc_thread
C:\Users\IDONNO~1\AppData\Local\Temp\ccmfSHpE.s:49     .text.adc_thread:0000000c $d
C:\Users\IDONNO~1\AppData\Local\Temp\ccmfSHpE.s:57     .text.app_adc_configure:00000000 $t
C:\Users\IDONNO~1\AppData\Local\Temp\ccmfSHpE.s:63     .text.app_adc_configure:00000000 app_adc_configure
C:\Users\IDONNO~1\AppData\Local\Temp\ccmfSHpE.s:108    .text.app_adc_configure:00000020 $d
C:\Users\IDONNO~1\AppData\Local\Temp\ccmfSHpE.s:114    .text.app_adc_start:00000000 $t
C:\Users\IDONNO~1\AppData\Local\Temp\ccmfSHpE.s:120    .text.app_adc_start:00000000 app_adc_start
C:\Users\IDONNO~1\AppData\Local\Temp\ccmfSHpE.s:160    .text.app_adc_start:00000020 $d
C:\Users\IDONNO~1\AppData\Local\Temp\ccmfSHpE.s:167    .text.app_adc_get_decoded_level:00000000 $t
C:\Users\IDONNO~1\AppData\Local\Temp\ccmfSHpE.s:173    .text.app_adc_get_decoded_level:00000000 app_adc_get_decoded_level
C:\Users\IDONNO~1\AppData\Local\Temp\ccmfSHpE.s:188    .text.app_adc_get_decoded_level:00000008 $d
C:\Users\IDONNO~1\AppData\Local\Temp\ccmfSHpE.s:193    .text.app_adc_get_voltage:00000000 $t
C:\Users\IDONNO~1\AppData\Local\Temp\ccmfSHpE.s:199    .text.app_adc_get_voltage:00000000 app_adc_get_voltage
C:\Users\IDONNO~1\AppData\Local\Temp\ccmfSHpE.s:214    .text.app_adc_get_voltage:00000008 $d
C:\Users\IDONNO~1\AppData\Local\Temp\ccmfSHpE.s:219    .text.app_adc_get_decoded_level2:00000000 $t
C:\Users\IDONNO~1\AppData\Local\Temp\ccmfSHpE.s:225    .text.app_adc_get_decoded_level2:00000000 app_adc_get_decoded_level2
C:\Users\IDONNO~1\AppData\Local\Temp\ccmfSHpE.s:240    .text.app_adc_get_decoded_level2:00000008 $d
C:\Users\IDONNO~1\AppData\Local\Temp\ccmfSHpE.s:245    .text.app_adc_get_voltage2:00000000 $t
C:\Users\IDONNO~1\AppData\Local\Temp\ccmfSHpE.s:251    .text.app_adc_get_voltage2:00000000 app_adc_get_voltage2
C:\Users\IDONNO~1\AppData\Local\Temp\ccmfSHpE.s:266    .text.app_adc_get_voltage2:00000008 $d
C:\Users\IDONNO~1\AppData\Local\Temp\ccmfSHpE.s:271    .bss.read_voltage2:00000000 $d
C:\Users\IDONNO~1\AppData\Local\Temp\ccmfSHpE.s:275    .bss.read_voltage2:00000000 read_voltage2
C:\Users\IDONNO~1\AppData\Local\Temp\ccmfSHpE.s:278    .bss.read_voltage:00000000 $d
C:\Users\IDONNO~1\AppData\Local\Temp\ccmfSHpE.s:282    .bss.read_voltage:00000000 read_voltage
C:\Users\IDONNO~1\AppData\Local\Temp\ccmfSHpE.s:285    .bss.ms_without_power:00000000 $d
C:\Users\IDONNO~1\AppData\Local\Temp\ccmfSHpE.s:289    .bss.ms_without_power:00000000 ms_without_power
C:\Users\IDONNO~1\AppData\Local\Temp\ccmfSHpE.s:292    .bss.decoded_level2:00000000 $d
C:\Users\IDONNO~1\AppData\Local\Temp\ccmfSHpE.s:296    .bss.decoded_level2:00000000 decoded_level2
C:\Users\IDONNO~1\AppData\Local\Temp\ccmfSHpE.s:299    .rodata.str1.4:00000000 $d
C:\Users\IDONNO~1\AppData\Local\Temp\ccmfSHpE.s:303    .bss.config:00000000 $d
C:\Users\IDONNO~1\AppData\Local\Temp\ccmfSHpE.s:307    .bss.config:00000000 config
C:\Users\IDONNO~1\AppData\Local\Temp\ccmfSHpE.s:313    .bss.use_rx_tx_as_buttons:00000000 use_rx_tx_as_buttons
C:\Users\IDONNO~1\AppData\Local\Temp\ccmfSHpE.s:314    .bss.use_rx_tx_as_buttons:00000000 $d
C:\Users\IDONNO~1\AppData\Local\Temp\ccmfSHpE.s:316    .bss.decoded_level:00000000 $d
C:\Users\IDONNO~1\AppData\Local\Temp\ccmfSHpE.s:320    .bss.decoded_level:00000000 decoded_level
C:\Users\IDONNO~1\AppData\Local\Temp\ccmfSHpE.s:323    .bss.adc_thread_wa:00000000 $d
C:\Users\IDONNO~1\AppData\Local\Temp\ccmfSHpE.s:327    .bss.adc_thread_wa:00000000 adc_thread_wa
                     .debug_frame:00000010 $d

UNDEFINED SYMBOLS
ch
chThdCreateStatic
