ARM GAS  C:\Users\USER\AppData\Local\Temp\ccW8xQ8v.s 			page 1


   1              		.cpu cortex-m4
   2              		.eabi_attribute 27, 1
   3              		.eabi_attribute 28, 1
   4              		.eabi_attribute 20, 1
   5              		.eabi_attribute 21, 1
   6              		.eabi_attribute 23, 3
   7              		.eabi_attribute 24, 1
   8              		.eabi_attribute 25, 1
   9              		.eabi_attribute 26, 1
  10              		.eabi_attribute 30, 2
  11              		.eabi_attribute 34, 1
  12              		.eabi_attribute 18, 4
  13              		.file	"buffer.c"
  14              		.text
  15              	.Ltext0:
  16              		.cfi_sections	.debug_frame
  17              		.section	.text.buffer_append_int16,"ax",%progbits
  18              		.align	1
  19              		.p2align 4,,15
  20              		.global	buffer_append_int16
  21              		.arch armv7e-m
  22              		.syntax unified
  23              		.thumb
  24              		.thumb_func
  25              		.fpu fpv4-sp-d16
  26              		.type	buffer_append_int16, %function
  27              	buffer_append_int16:
  28              	.LVL0:
  29              	.LFB0:
  30              		.file 1 "src/core/buffer.c"
  31              		.loc 1 27 75 view -0
  32              		.cfi_startproc
  33              		@ args = 0, pretend = 0, frame = 0
  34              		@ frame_needed = 0, uses_anonymous_args = 0
  35              		@ link register save eliminated.
  36              		.loc 1 28 2 view .LVU1
  37              		.loc 1 28 10 is_stmt 0 view .LVU2
  38 0000 1368     		ldr	r3, [r2]
  39              		.loc 1 27 75 view .LVU3
  40 0002 30B4     		push	{r4, r5}
  41              		.cfi_def_cfa_offset 8
  42              		.cfi_offset 4, -8
  43              		.cfi_offset 5, -4
  44              		.loc 1 28 17 view .LVU4
  45 0004 5D1C     		adds	r5, r3, #1
  46              		.loc 1 28 21 view .LVU5
  47 0006 0C12     		asrs	r4, r1, #8
  48              		.loc 1 28 17 view .LVU6
  49 0008 1560     		str	r5, [r2]
  50              		.loc 1 28 21 view .LVU7
  51 000a C454     		strb	r4, [r0, r3]
  52              		.loc 1 29 2 is_stmt 1 view .LVU8
  53              		.loc 1 29 10 is_stmt 0 view .LVU9
  54 000c 1368     		ldr	r3, [r2]
  55              		.loc 1 29 17 view .LVU10
  56 000e 5C1C     		adds	r4, r3, #1
  57 0010 1460     		str	r4, [r2]
ARM GAS  C:\Users\USER\AppData\Local\Temp\ccW8xQ8v.s 			page 2


  58              		.loc 1 29 21 view .LVU11
  59 0012 C154     		strb	r1, [r0, r3]
  60              		.loc 1 30 1 view .LVU12
  61 0014 30BC     		pop	{r4, r5}
  62              		.cfi_restore 5
  63              		.cfi_restore 4
  64              		.cfi_def_cfa_offset 0
  65 0016 7047     		bx	lr
  66              		.cfi_endproc
  67              	.LFE0:
  68              		.size	buffer_append_int16, .-buffer_append_int16
  69              		.section	.text.buffer_append_uint16,"ax",%progbits
  70              		.align	1
  71              		.p2align 4,,15
  72              		.global	buffer_append_uint16
  73              		.syntax unified
  74              		.thumb
  75              		.thumb_func
  76              		.fpu fpv4-sp-d16
  77              		.type	buffer_append_uint16, %function
  78              	buffer_append_uint16:
  79              	.LVL1:
  80              	.LFB1:
  81              		.loc 1 32 77 is_stmt 1 view -0
  82              		.cfi_startproc
  83              		@ args = 0, pretend = 0, frame = 0
  84              		@ frame_needed = 0, uses_anonymous_args = 0
  85              		@ link register save eliminated.
  86              		.loc 1 33 2 view .LVU14
  87              		.loc 1 33 10 is_stmt 0 view .LVU15
  88 0000 1368     		ldr	r3, [r2]
  89              		.loc 1 32 77 view .LVU16
  90 0002 30B4     		push	{r4, r5}
  91              		.cfi_def_cfa_offset 8
  92              		.cfi_offset 4, -8
  93              		.cfi_offset 5, -4
  94              		.loc 1 33 17 view .LVU17
  95 0004 5D1C     		adds	r5, r3, #1
  96              		.loc 1 33 21 view .LVU18
  97 0006 0C0A     		lsrs	r4, r1, #8
  98              		.loc 1 33 17 view .LVU19
  99 0008 1560     		str	r5, [r2]
 100              		.loc 1 33 21 view .LVU20
 101 000a C454     		strb	r4, [r0, r3]
 102              		.loc 1 34 2 is_stmt 1 view .LVU21
 103              		.loc 1 34 10 is_stmt 0 view .LVU22
 104 000c 1368     		ldr	r3, [r2]
 105              		.loc 1 34 17 view .LVU23
 106 000e 5C1C     		adds	r4, r3, #1
 107 0010 1460     		str	r4, [r2]
 108              		.loc 1 34 21 view .LVU24
 109 0012 C154     		strb	r1, [r0, r3]
 110              		.loc 1 35 1 view .LVU25
 111 0014 30BC     		pop	{r4, r5}
 112              		.cfi_restore 5
 113              		.cfi_restore 4
 114              		.cfi_def_cfa_offset 0
ARM GAS  C:\Users\USER\AppData\Local\Temp\ccW8xQ8v.s 			page 3


 115 0016 7047     		bx	lr
 116              		.cfi_endproc
 117              	.LFE1:
 118              		.size	buffer_append_uint16, .-buffer_append_uint16
 119              		.section	.text.buffer_append_int32,"ax",%progbits
 120              		.align	1
 121              		.p2align 4,,15
 122              		.global	buffer_append_int32
 123              		.syntax unified
 124              		.thumb
 125              		.thumb_func
 126              		.fpu fpv4-sp-d16
 127              		.type	buffer_append_int32, %function
 128              	buffer_append_int32:
 129              	.LVL2:
 130              	.LFB2:
 131              		.loc 1 37 75 is_stmt 1 view -0
 132              		.cfi_startproc
 133              		@ args = 0, pretend = 0, frame = 0
 134              		@ frame_needed = 0, uses_anonymous_args = 0
 135              		@ link register save eliminated.
 136              		.loc 1 38 2 view .LVU27
 137              		.loc 1 38 10 is_stmt 0 view .LVU28
 138 0000 1368     		ldr	r3, [r2]
 139              		.loc 1 37 75 view .LVU29
 140 0002 30B4     		push	{r4, r5}
 141              		.cfi_def_cfa_offset 8
 142              		.cfi_offset 4, -8
 143              		.cfi_offset 5, -4
 144              		.loc 1 38 17 view .LVU30
 145 0004 5D1C     		adds	r5, r3, #1
 146              		.loc 1 38 30 view .LVU31
 147 0006 0C16     		asrs	r4, r1, #24
 148              		.loc 1 38 17 view .LVU32
 149 0008 1560     		str	r5, [r2]
 150              		.loc 1 38 21 view .LVU33
 151 000a C454     		strb	r4, [r0, r3]
 152              		.loc 1 39 2 is_stmt 1 view .LVU34
 153              		.loc 1 39 10 is_stmt 0 view .LVU35
 154 000c 1368     		ldr	r3, [r2]
 155              		.loc 1 39 30 view .LVU36
 156 000e 0C14     		asrs	r4, r1, #16
 157              		.loc 1 39 17 view .LVU37
 158 0010 5D1C     		adds	r5, r3, #1
 159 0012 1560     		str	r5, [r2]
 160              		.loc 1 39 21 view .LVU38
 161 0014 C454     		strb	r4, [r0, r3]
 162              		.loc 1 40 2 is_stmt 1 view .LVU39
 163              		.loc 1 40 10 is_stmt 0 view .LVU40
 164 0016 1368     		ldr	r3, [r2]
 165              		.loc 1 40 30 view .LVU41
 166 0018 0C12     		asrs	r4, r1, #8
 167              		.loc 1 40 17 view .LVU42
 168 001a 5D1C     		adds	r5, r3, #1
 169 001c 1560     		str	r5, [r2]
 170              		.loc 1 40 21 view .LVU43
 171 001e C454     		strb	r4, [r0, r3]
ARM GAS  C:\Users\USER\AppData\Local\Temp\ccW8xQ8v.s 			page 4


 172              		.loc 1 41 2 is_stmt 1 view .LVU44
 173              		.loc 1 41 10 is_stmt 0 view .LVU45
 174 0020 1368     		ldr	r3, [r2]
 175              		.loc 1 41 17 view .LVU46
 176 0022 5C1C     		adds	r4, r3, #1
 177 0024 1460     		str	r4, [r2]
 178              		.loc 1 41 21 view .LVU47
 179 0026 C154     		strb	r1, [r0, r3]
 180              		.loc 1 42 1 view .LVU48
 181 0028 30BC     		pop	{r4, r5}
 182              		.cfi_restore 5
 183              		.cfi_restore 4
 184              		.cfi_def_cfa_offset 0
 185 002a 7047     		bx	lr
 186              		.cfi_endproc
 187              	.LFE2:
 188              		.size	buffer_append_int32, .-buffer_append_int32
 189              		.section	.text.buffer_append_uint32,"ax",%progbits
 190              		.align	1
 191              		.p2align 4,,15
 192              		.global	buffer_append_uint32
 193              		.syntax unified
 194              		.thumb
 195              		.thumb_func
 196              		.fpu fpv4-sp-d16
 197              		.type	buffer_append_uint32, %function
 198              	buffer_append_uint32:
 199              	.LVL3:
 200              	.LFB3:
 201              		.loc 1 44 77 is_stmt 1 view -0
 202              		.cfi_startproc
 203              		@ args = 0, pretend = 0, frame = 0
 204              		@ frame_needed = 0, uses_anonymous_args = 0
 205              		@ link register save eliminated.
 206              		.loc 1 45 2 view .LVU50
 207              		.loc 1 45 10 is_stmt 0 view .LVU51
 208 0000 1368     		ldr	r3, [r2]
 209              		.loc 1 44 77 view .LVU52
 210 0002 30B4     		push	{r4, r5}
 211              		.cfi_def_cfa_offset 8
 212              		.cfi_offset 4, -8
 213              		.cfi_offset 5, -4
 214              		.loc 1 45 17 view .LVU53
 215 0004 5D1C     		adds	r5, r3, #1
 216              		.loc 1 45 30 view .LVU54
 217 0006 0C0E     		lsrs	r4, r1, #24
 218              		.loc 1 45 17 view .LVU55
 219 0008 1560     		str	r5, [r2]
 220              		.loc 1 45 21 view .LVU56
 221 000a C454     		strb	r4, [r0, r3]
 222              		.loc 1 46 2 is_stmt 1 view .LVU57
 223              		.loc 1 46 10 is_stmt 0 view .LVU58
 224 000c 1368     		ldr	r3, [r2]
 225              		.loc 1 46 30 view .LVU59
 226 000e 0C0C     		lsrs	r4, r1, #16
 227              		.loc 1 46 17 view .LVU60
 228 0010 5D1C     		adds	r5, r3, #1
ARM GAS  C:\Users\USER\AppData\Local\Temp\ccW8xQ8v.s 			page 5


 229 0012 1560     		str	r5, [r2]
 230              		.loc 1 46 21 view .LVU61
 231 0014 C454     		strb	r4, [r0, r3]
 232              		.loc 1 47 2 is_stmt 1 view .LVU62
 233              		.loc 1 47 10 is_stmt 0 view .LVU63
 234 0016 1368     		ldr	r3, [r2]
 235              		.loc 1 47 30 view .LVU64
 236 0018 0C0A     		lsrs	r4, r1, #8
 237              		.loc 1 47 17 view .LVU65
 238 001a 5D1C     		adds	r5, r3, #1
 239 001c 1560     		str	r5, [r2]
 240              		.loc 1 47 21 view .LVU66
 241 001e C454     		strb	r4, [r0, r3]
 242              		.loc 1 48 2 is_stmt 1 view .LVU67
 243              		.loc 1 48 10 is_stmt 0 view .LVU68
 244 0020 1368     		ldr	r3, [r2]
 245              		.loc 1 48 17 view .LVU69
 246 0022 5C1C     		adds	r4, r3, #1
 247 0024 1460     		str	r4, [r2]
 248              		.loc 1 48 21 view .LVU70
 249 0026 C154     		strb	r1, [r0, r3]
 250              		.loc 1 49 1 view .LVU71
 251 0028 30BC     		pop	{r4, r5}
 252              		.cfi_restore 5
 253              		.cfi_restore 4
 254              		.cfi_def_cfa_offset 0
 255 002a 7047     		bx	lr
 256              		.cfi_endproc
 257              	.LFE3:
 258              		.size	buffer_append_uint32, .-buffer_append_uint32
 259              		.section	.text.buffer_append_float16,"ax",%progbits
 260              		.align	1
 261              		.p2align 4,,15
 262              		.global	buffer_append_float16
 263              		.syntax unified
 264              		.thumb
 265              		.thumb_func
 266              		.fpu fpv4-sp-d16
 267              		.type	buffer_append_float16, %function
 268              	buffer_append_float16:
 269              	.LVL4:
 270              	.LFB4:
 271              		.loc 1 51 88 is_stmt 1 view -0
 272              		.cfi_startproc
 273              		@ args = 0, pretend = 0, frame = 0
 274              		@ frame_needed = 0, uses_anonymous_args = 0
 275              		@ link register save eliminated.
 276              		.loc 1 52 5 view .LVU73
 277              		.loc 1 52 50 is_stmt 0 view .LVU74
 278 0000 60EE200A 		vmul.f32	s1, s0, s1
 279              	.LVL5:
 280              	.LBB6:
 281              	.LBB7:
 282              		.loc 1 28 10 view .LVU75
 283 0004 0A68     		ldr	r2, [r1]
 284              	.LBE7:
 285              	.LBE6:
ARM GAS  C:\Users\USER\AppData\Local\Temp\ccW8xQ8v.s 			page 6


 286              		.loc 1 52 5 view .LVU76
 287 0006 FDEEE00A 		vcvt.s32.f32	s1, s1
 288              		.loc 1 51 88 view .LVU77
 289 000a 30B4     		push	{r4, r5}
 290              		.cfi_def_cfa_offset 8
 291              		.cfi_offset 4, -8
 292              		.cfi_offset 5, -4
 293              		.loc 1 52 5 view .LVU78
 294 000c 10EE903A 		vmov	r3, s1	@ int
 295 0010 1BB2     		sxth	r3, r3
 296              	.LVL6:
 297              	.LBB9:
 298              	.LBI6:
 299              		.loc 1 27 6 is_stmt 1 view .LVU79
 300              	.LBB8:
 301              		.loc 1 28 2 view .LVU80
 302              		.loc 1 28 17 is_stmt 0 view .LVU81
 303 0012 551C     		adds	r5, r2, #1
 304              		.loc 1 28 21 view .LVU82
 305 0014 1C12     		asrs	r4, r3, #8
 306              		.loc 1 28 17 view .LVU83
 307 0016 0D60     		str	r5, [r1]
 308              		.loc 1 28 21 view .LVU84
 309 0018 8454     		strb	r4, [r0, r2]
 310              		.loc 1 29 2 is_stmt 1 view .LVU85
 311              		.loc 1 29 10 is_stmt 0 view .LVU86
 312 001a 0A68     		ldr	r2, [r1]
 313              		.loc 1 29 17 view .LVU87
 314 001c 541C     		adds	r4, r2, #1
 315 001e 0C60     		str	r4, [r1]
 316              		.loc 1 29 21 view .LVU88
 317 0020 8354     		strb	r3, [r0, r2]
 318              	.LVL7:
 319              		.loc 1 29 21 view .LVU89
 320              	.LBE8:
 321              	.LBE9:
 322              		.loc 1 53 1 view .LVU90
 323 0022 30BC     		pop	{r4, r5}
 324              		.cfi_restore 5
 325              		.cfi_restore 4
 326              		.cfi_def_cfa_offset 0
 327 0024 7047     		bx	lr
 328              		.cfi_endproc
 329              	.LFE4:
 330              		.size	buffer_append_float16, .-buffer_append_float16
 331 0026 00BF     		.section	.text.buffer_append_float32,"ax",%progbits
 332              		.align	1
 333              		.p2align 4,,15
 334              		.global	buffer_append_float32
 335              		.syntax unified
 336              		.thumb
 337              		.thumb_func
 338              		.fpu fpv4-sp-d16
 339              		.type	buffer_append_float32, %function
 340              	buffer_append_float32:
 341              	.LVL8:
 342              	.LFB5:
ARM GAS  C:\Users\USER\AppData\Local\Temp\ccW8xQ8v.s 			page 7


 343              		.loc 1 55 88 is_stmt 1 view -0
 344              		.cfi_startproc
 345              		@ args = 0, pretend = 0, frame = 0
 346              		@ frame_needed = 0, uses_anonymous_args = 0
 347              		@ link register save eliminated.
 348              		.loc 1 56 5 view .LVU92
 349              		.loc 1 56 50 is_stmt 0 view .LVU93
 350 0000 60EE200A 		vmul.f32	s1, s0, s1
 351              	.LVL9:
 352              		.loc 1 56 5 view .LVU94
 353 0004 0A46     		mov	r2, r1
 354 0006 FDEEE07A 		vcvt.s32.f32	s15, s1
 355 000a 17EE901A 		vmov	r1, s15	@ int
 356              	.LVL10:
 357              		.loc 1 56 5 view .LVU95
 358 000e FFF7FEBF 		b	buffer_append_int32
 359              	.LVL11:
 360              		.cfi_endproc
 361              	.LFE5:
 362              		.size	buffer_append_float32, .-buffer_append_float32
 363 0012 00BF     		.section	.text.buffer_get_int16,"ax",%progbits
 364              		.align	1
 365              		.p2align 4,,15
 366              		.global	buffer_get_int16
 367              		.syntax unified
 368              		.thumb
 369              		.thumb_func
 370              		.fpu fpv4-sp-d16
 371              		.type	buffer_get_int16, %function
 372              	buffer_get_int16:
 373              	.LVL12:
 374              	.LFB6:
 375              		.loc 1 59 65 is_stmt 1 view -0
 376              		.cfi_startproc
 377              		@ args = 0, pretend = 0, frame = 0
 378              		@ frame_needed = 0, uses_anonymous_args = 0
 379              		@ link register save eliminated.
 380              		.loc 1 60 2 view .LVU97
 381              		.loc 1 59 65 is_stmt 0 view .LVU98
 382 0000 10B4     		push	{r4}
 383              		.cfi_def_cfa_offset 4
 384              		.cfi_offset 4, -4
 385              		.loc 1 60 35 view .LVU99
 386 0002 0B68     		ldr	r3, [r1]
 387              		.loc 1 61 24 view .LVU100
 388 0004 C418     		adds	r4, r0, r3
 389              		.loc 1 60 17 view .LVU101
 390 0006 C25C     		ldrb	r2, [r0, r3]	@ zero_extendqisi2
 391              		.loc 1 61 24 view .LVU102
 392 0008 6078     		ldrb	r0, [r4, #1]	@ zero_extendqisi2
 393              	.LVL13:
 394              		.loc 1 64 1 view .LVU103
 395 000a 5DF8044B 		ldr	r4, [sp], #4
 396              		.cfi_restore 4
 397              		.cfi_def_cfa_offset 0
 398              		.loc 1 62 9 view .LVU104
 399 000e 0233     		adds	r3, r3, #2
ARM GAS  C:\Users\USER\AppData\Local\Temp\ccW8xQ8v.s 			page 8


 400              		.loc 1 60 10 view .LVU105
 401 0010 40EA0220 		orr	r0, r0, r2, lsl #8
 402              	.LVL14:
 403              		.loc 1 62 2 is_stmt 1 view .LVU106
 404              		.loc 1 64 1 is_stmt 0 view .LVU107
 405 0014 00B2     		sxth	r0, r0
 406              		.loc 1 62 9 view .LVU108
 407 0016 0B60     		str	r3, [r1]
 408              		.loc 1 63 2 is_stmt 1 view .LVU109
 409              		.loc 1 64 1 is_stmt 0 view .LVU110
 410 0018 7047     		bx	lr
 411              		.cfi_endproc
 412              	.LFE6:
 413              		.size	buffer_get_int16, .-buffer_get_int16
 414 001a 00BF     		.section	.text.buffer_get_uint16,"ax",%progbits
 415              		.align	1
 416              		.p2align 4,,15
 417              		.global	buffer_get_uint16
 418              		.syntax unified
 419              		.thumb
 420              		.thumb_func
 421              		.fpu fpv4-sp-d16
 422              		.type	buffer_get_uint16, %function
 423              	buffer_get_uint16:
 424              	.LVL15:
 425              	.LFB7:
 426              		.loc 1 66 67 is_stmt 1 view -0
 427              		.cfi_startproc
 428              		@ args = 0, pretend = 0, frame = 0
 429              		@ frame_needed = 0, uses_anonymous_args = 0
 430              		@ link register save eliminated.
 431              		.loc 1 67 2 view .LVU112
 432              		.loc 1 67 37 is_stmt 0 view .LVU113
 433 0000 0B68     		ldr	r3, [r1]
 434              		.loc 1 68 24 view .LVU114
 435 0002 C218     		adds	r2, r0, r3
 436              		.loc 1 67 19 view .LVU115
 437 0004 C05C     		ldrb	r0, [r0, r3]	@ zero_extendqisi2
 438              	.LVL16:
 439              		.loc 1 68 24 view .LVU116
 440 0006 5278     		ldrb	r2, [r2, #1]	@ zero_extendqisi2
 441              	.LVL17:
 442              		.loc 1 69 2 is_stmt 1 view .LVU117
 443              		.loc 1 69 9 is_stmt 0 view .LVU118
 444 0008 0233     		adds	r3, r3, #2
 445 000a 0B60     		str	r3, [r1]
 446              		.loc 1 70 2 is_stmt 1 view .LVU119
 447              		.loc 1 71 1 is_stmt 0 view .LVU120
 448 000c 42EA0020 		orr	r0, r2, r0, lsl #8
 449              	.LVL18:
 450              		.loc 1 71 1 view .LVU121
 451 0010 7047     		bx	lr
 452              		.cfi_endproc
 453              	.LFE7:
 454              		.size	buffer_get_uint16, .-buffer_get_uint16
 455 0012 00BF     		.section	.text.buffer_get_int32,"ax",%progbits
 456              		.align	1
ARM GAS  C:\Users\USER\AppData\Local\Temp\ccW8xQ8v.s 			page 9


 457              		.p2align 4,,15
 458              		.global	buffer_get_int32
 459              		.syntax unified
 460              		.thumb
 461              		.thumb_func
 462              		.fpu fpv4-sp-d16
 463              		.type	buffer_get_int32, %function
 464              	buffer_get_int32:
 465              	.LVL19:
 466              	.LFB8:
 467              		.loc 1 73 65 is_stmt 1 view -0
 468              		.cfi_startproc
 469              		@ args = 0, pretend = 0, frame = 0
 470              		@ frame_needed = 0, uses_anonymous_args = 0
 471              		@ link register save eliminated.
 472              		.loc 1 74 2 view .LVU123
 473              		.loc 1 73 65 is_stmt 0 view .LVU124
 474 0000 70B4     		push	{r4, r5, r6}
 475              		.cfi_def_cfa_offset 12
 476              		.cfi_offset 4, -12
 477              		.cfi_offset 5, -8
 478              		.cfi_offset 6, -4
 479              		.loc 1 74 35 view .LVU125
 480 0002 0A68     		ldr	r2, [r1]
 481              		.loc 1 77 24 view .LVU126
 482 0004 8418     		adds	r4, r0, r2
 483              		.loc 1 74 17 view .LVU127
 484 0006 865C     		ldrb	r6, [r0, r2]	@ zero_extendqisi2
 485              		.loc 1 77 7 view .LVU128
 486 0008 E378     		ldrb	r3, [r4, #3]	@ zero_extendqisi2
 487              		.loc 1 75 7 view .LVU129
 488 000a 6578     		ldrb	r5, [r4, #1]	@ zero_extendqisi2
 489              		.loc 1 76 7 view .LVU130
 490 000c A078     		ldrb	r0, [r4, #2]	@ zero_extendqisi2
 491              	.LVL20:
 492              		.loc 1 76 43 view .LVU131
 493 000e 43EA0663 		orr	r3, r3, r6, lsl #24
 494 0012 43EA0543 		orr	r3, r3, r5, lsl #16
 495              	.LVL21:
 496              		.loc 1 78 2 is_stmt 1 view .LVU132
 497              		.loc 1 78 9 is_stmt 0 view .LVU133
 498 0016 0432     		adds	r2, r2, #4
 499              		.loc 1 80 1 view .LVU134
 500 0018 43EA0020 		orr	r0, r3, r0, lsl #8
 501              	.LVL22:
 502              		.loc 1 78 9 view .LVU135
 503 001c 0A60     		str	r2, [r1]
 504              		.loc 1 79 2 is_stmt 1 view .LVU136
 505              		.loc 1 80 1 is_stmt 0 view .LVU137
 506 001e 70BC     		pop	{r4, r5, r6}
 507              		.cfi_restore 6
 508              		.cfi_restore 5
 509              		.cfi_restore 4
 510              		.cfi_def_cfa_offset 0
 511 0020 7047     		bx	lr
 512              		.cfi_endproc
 513              	.LFE8:
ARM GAS  C:\Users\USER\AppData\Local\Temp\ccW8xQ8v.s 			page 10


 514              		.size	buffer_get_int32, .-buffer_get_int32
 515 0022 00BF     		.section	.text.buffer_get_uint32,"ax",%progbits
 516              		.align	1
 517              		.p2align 4,,15
 518              		.global	buffer_get_uint32
 519              		.syntax unified
 520              		.thumb
 521              		.thumb_func
 522              		.fpu fpv4-sp-d16
 523              		.type	buffer_get_uint32, %function
 524              	buffer_get_uint32:
 525              	.LVL23:
 526              	.LFB9:
 527              		.loc 1 82 67 is_stmt 1 view -0
 528              		.cfi_startproc
 529              		@ args = 0, pretend = 0, frame = 0
 530              		@ frame_needed = 0, uses_anonymous_args = 0
 531              		@ link register save eliminated.
 532              		.loc 1 83 2 view .LVU139
 533              		.loc 1 82 67 is_stmt 0 view .LVU140
 534 0000 70B4     		push	{r4, r5, r6}
 535              		.cfi_def_cfa_offset 12
 536              		.cfi_offset 4, -12
 537              		.cfi_offset 5, -8
 538              		.cfi_offset 6, -4
 539              		.loc 1 83 36 view .LVU141
 540 0002 0A68     		ldr	r2, [r1]
 541              		.loc 1 86 24 view .LVU142
 542 0004 8418     		adds	r4, r0, r2
 543              		.loc 1 83 18 view .LVU143
 544 0006 865C     		ldrb	r6, [r0, r2]	@ zero_extendqisi2
 545              		.loc 1 86 7 view .LVU144
 546 0008 E378     		ldrb	r3, [r4, #3]	@ zero_extendqisi2
 547              		.loc 1 84 7 view .LVU145
 548 000a 6578     		ldrb	r5, [r4, #1]	@ zero_extendqisi2
 549              		.loc 1 85 7 view .LVU146
 550 000c A078     		ldrb	r0, [r4, #2]	@ zero_extendqisi2
 551              	.LVL24:
 552              		.loc 1 83 11 view .LVU147
 553 000e 43EA0663 		orr	r3, r3, r6, lsl #24
 554 0012 43EA0543 		orr	r3, r3, r5, lsl #16
 555              	.LVL25:
 556              		.loc 1 87 2 is_stmt 1 view .LVU148
 557              		.loc 1 87 9 is_stmt 0 view .LVU149
 558 0016 0432     		adds	r2, r2, #4
 559              		.loc 1 89 1 view .LVU150
 560 0018 43EA0020 		orr	r0, r3, r0, lsl #8
 561              	.LVL26:
 562              		.loc 1 87 9 view .LVU151
 563 001c 0A60     		str	r2, [r1]
 564              		.loc 1 88 2 is_stmt 1 view .LVU152
 565              		.loc 1 89 1 is_stmt 0 view .LVU153
 566 001e 70BC     		pop	{r4, r5, r6}
 567              		.cfi_restore 6
 568              		.cfi_restore 5
 569              		.cfi_restore 4
 570              		.cfi_def_cfa_offset 0
ARM GAS  C:\Users\USER\AppData\Local\Temp\ccW8xQ8v.s 			page 11


 571 0020 7047     		bx	lr
 572              		.cfi_endproc
 573              	.LFE9:
 574              		.size	buffer_get_uint32, .-buffer_get_uint32
 575 0022 00BF     		.section	.text.buffer_get_float16,"ax",%progbits
 576              		.align	1
 577              		.p2align 4,,15
 578              		.global	buffer_get_float16
 579              		.syntax unified
 580              		.thumb
 581              		.thumb_func
 582              		.fpu fpv4-sp-d16
 583              		.type	buffer_get_float16, %function
 584              	buffer_get_float16:
 585              	.LVL27:
 586              	.LFB10:
 587              		.loc 1 91 78 is_stmt 1 view -0
 588              		.cfi_startproc
 589              		@ args = 0, pretend = 0, frame = 0
 590              		@ frame_needed = 0, uses_anonymous_args = 0
 591              		@ link register save eliminated.
 592              		.loc 1 92 5 view .LVU155
 593              	.LBB10:
 594              	.LBI10:
 595              		.loc 1 59 9 view .LVU156
 596              	.LBB11:
 597              		.loc 1 60 2 view .LVU157
 598              		.loc 1 60 35 is_stmt 0 view .LVU158
 599 0000 0A68     		ldr	r2, [r1]
 600              		.loc 1 61 24 view .LVU159
 601 0002 8318     		adds	r3, r0, r2
 602              		.loc 1 60 17 view .LVU160
 603 0004 805C     		ldrb	r0, [r0, r2]	@ zero_extendqisi2
 604              	.LVL28:
 605              		.loc 1 61 24 view .LVU161
 606 0006 5B78     		ldrb	r3, [r3, #1]	@ zero_extendqisi2
 607              		.loc 1 60 10 view .LVU162
 608 0008 43EA0023 		orr	r3, r3, r0, lsl #8
 609 000c 1BB2     		sxth	r3, r3
 610              	.LVL29:
 611              		.loc 1 62 2 is_stmt 1 view .LVU163
 612              	.LBE11:
 613              	.LBE10:
 614              		.loc 1 92 12 is_stmt 0 view .LVU164
 615 000e 07EE903A 		vmov	s15, r3	@ int
 616 0012 F8EEE77A 		vcvt.f32.s32	s15, s15
 617              	.LBB13:
 618              	.LBB12:
 619              		.loc 1 62 9 view .LVU165
 620 0016 0232     		adds	r2, r2, #2
 621 0018 0A60     		str	r2, [r1]
 622              		.loc 1 63 2 is_stmt 1 view .LVU166
 623              	.LVL30:
 624              		.loc 1 63 2 is_stmt 0 view .LVU167
 625              	.LBE12:
 626              	.LBE13:
 627              		.loc 1 93 1 view .LVU168
ARM GAS  C:\Users\USER\AppData\Local\Temp\ccW8xQ8v.s 			page 12


 628 001a 87EE800A 		vdiv.f32	s0, s15, s0
 629              	.LVL31:
 630              		.loc 1 93 1 view .LVU169
 631 001e 7047     		bx	lr
 632              		.cfi_endproc
 633              	.LFE10:
 634              		.size	buffer_get_float16, .-buffer_get_float16
 635              		.section	.text.buffer_get_float32,"ax",%progbits
 636              		.align	1
 637              		.p2align 4,,15
 638              		.global	buffer_get_float32
 639              		.syntax unified
 640              		.thumb
 641              		.thumb_func
 642              		.fpu fpv4-sp-d16
 643              		.type	buffer_get_float32, %function
 644              	buffer_get_float32:
 645              	.LVL32:
 646              	.LFB11:
 647              		.loc 1 95 78 is_stmt 1 view -0
 648              		.cfi_startproc
 649              		@ args = 0, pretend = 0, frame = 0
 650              		@ frame_needed = 0, uses_anonymous_args = 0
 651              		.loc 1 96 5 view .LVU171
 652              		.loc 1 95 78 is_stmt 0 view .LVU172
 653 0000 08B5     		push	{r3, lr}
 654              		.cfi_def_cfa_offset 8
 655              		.cfi_offset 3, -8
 656              		.cfi_offset 14, -4
 657              		.loc 1 96 19 view .LVU173
 658 0002 FFF7FEFF 		bl	buffer_get_int32
 659              	.LVL33:
 660              		.loc 1 96 12 view .LVU174
 661 0006 07EE900A 		vmov	s15, r0	@ int
 662 000a F8EEE77A 		vcvt.f32.s32	s15, s15
 663              		.loc 1 97 1 view .LVU175
 664 000e 87EE800A 		vdiv.f32	s0, s15, s0
 665              	.LVL34:
 666              		.loc 1 97 1 view .LVU176
 667 0012 08BD     		pop	{r3, pc}
 668              		.cfi_endproc
 669              	.LFE11:
 670              		.size	buffer_get_float32, .-buffer_get_float32
 671              		.text
 672              	.Letext0:
 673              		.file 2 "c:\\program files (x86)\\gnu tools arm embedded\\8 2018-q4-major\\arm-none-eabi\\include\
 674              		.file 3 "c:\\program files (x86)\\gnu tools arm embedded\\8 2018-q4-major\\arm-none-eabi\\include\
 675              		.section	.debug_info,"",%progbits
 676              	.Ldebug_info0:
 677 0000 75050000 		.4byte	0x575
 678 0004 0400     		.2byte	0x4
 679 0006 00000000 		.4byte	.Ldebug_abbrev0
 680 000a 04       		.byte	0x4
 681 000b 01       		.uleb128 0x1
 682 000c 91000000 		.4byte	.LASF34
 683 0010 0C       		.byte	0xc
 684 0011 3F030000 		.4byte	.LASF35
ARM GAS  C:\Users\USER\AppData\Local\Temp\ccW8xQ8v.s 			page 13


 685 0015 5A000000 		.4byte	.LASF36
 686 0019 30000000 		.4byte	.Ldebug_ranges0+0x30
 687 001d 00000000 		.4byte	0
 688 0021 00000000 		.4byte	.Ldebug_line0
 689 0025 02       		.uleb128 0x2
 690 0026 04       		.byte	0x4
 691 0027 04       		.byte	0x4
 692 0028 D9010000 		.4byte	.LASF0
 693 002c 02       		.uleb128 0x2
 694 002d 01       		.byte	0x1
 695 002e 06       		.byte	0x6
 696 002f F0010000 		.4byte	.LASF1
 697 0033 03       		.uleb128 0x3
 698 0034 00000000 		.4byte	.LASF3
 699 0038 02       		.byte	0x2
 700 0039 2B       		.byte	0x2b
 701 003a 18       		.byte	0x18
 702 003b 3F000000 		.4byte	0x3f
 703 003f 02       		.uleb128 0x2
 704 0040 01       		.byte	0x1
 705 0041 08       		.byte	0x8
 706 0042 0D020000 		.4byte	.LASF2
 707 0046 03       		.uleb128 0x3
 708 0047 1C000000 		.4byte	.LASF4
 709 004b 02       		.byte	0x2
 710 004c 37       		.byte	0x37
 711 004d 18       		.byte	0x18
 712 004e 52000000 		.4byte	0x52
 713 0052 02       		.uleb128 0x2
 714 0053 02       		.byte	0x2
 715 0054 05       		.byte	0x5
 716 0055 13030000 		.4byte	.LASF5
 717 0059 03       		.uleb128 0x3
 718 005a 56020000 		.4byte	.LASF6
 719 005e 02       		.byte	0x2
 720 005f 39       		.byte	0x39
 721 0060 19       		.byte	0x19
 722 0061 65000000 		.4byte	0x65
 723 0065 02       		.uleb128 0x2
 724 0066 02       		.byte	0x2
 725 0067 07       		.byte	0x7
 726 0068 2D020000 		.4byte	.LASF7
 727 006c 03       		.uleb128 0x3
 728 006d 26000000 		.4byte	.LASF8
 729 0071 02       		.byte	0x2
 730 0072 4D       		.byte	0x4d
 731 0073 18       		.byte	0x18
 732 0074 78000000 		.4byte	0x78
 733 0078 02       		.uleb128 0x2
 734 0079 04       		.byte	0x4
 735 007a 05       		.byte	0x5
 736 007b 36030000 		.4byte	.LASF9
 737 007f 03       		.uleb128 0x3
 738 0080 77020000 		.4byte	.LASF10
 739 0084 02       		.byte	0x2
 740 0085 4F       		.byte	0x4f
 741 0086 19       		.byte	0x19
ARM GAS  C:\Users\USER\AppData\Local\Temp\ccW8xQ8v.s 			page 14


 742 0087 8B000000 		.4byte	0x8b
 743 008b 02       		.uleb128 0x2
 744 008c 04       		.byte	0x4
 745 008d 07       		.byte	0x7
 746 008e 1B020000 		.4byte	.LASF11
 747 0092 02       		.uleb128 0x2
 748 0093 08       		.byte	0x8
 749 0094 05       		.byte	0x5
 750 0095 FF020000 		.4byte	.LASF12
 751 0099 02       		.uleb128 0x2
 752 009a 08       		.byte	0x8
 753 009b 07       		.byte	0x7
 754 009c A2020000 		.4byte	.LASF13
 755 00a0 04       		.uleb128 0x4
 756 00a1 04       		.byte	0x4
 757 00a2 05       		.byte	0x5
 758 00a3 696E7400 		.ascii	"int\000"
 759 00a7 02       		.uleb128 0x2
 760 00a8 04       		.byte	0x4
 761 00a9 07       		.byte	0x7
 762 00aa 82020000 		.4byte	.LASF14
 763 00ae 03       		.uleb128 0x3
 764 00af B9020000 		.4byte	.LASF15
 765 00b3 03       		.byte	0x3
 766 00b4 18       		.byte	0x18
 767 00b5 13       		.byte	0x13
 768 00b6 33000000 		.4byte	0x33
 769 00ba 05       		.uleb128 0x5
 770 00bb AE000000 		.4byte	0xae
 771 00bf 03       		.uleb128 0x3
 772 00c0 D4020000 		.4byte	.LASF16
 773 00c4 03       		.byte	0x3
 774 00c5 20       		.byte	0x20
 775 00c6 13       		.byte	0x13
 776 00c7 46000000 		.4byte	0x46
 777 00cb 03       		.uleb128 0x3
 778 00cc 24030000 		.4byte	.LASF17
 779 00d0 03       		.byte	0x3
 780 00d1 24       		.byte	0x24
 781 00d2 14       		.byte	0x14
 782 00d3 59000000 		.4byte	0x59
 783 00d7 03       		.uleb128 0x3
 784 00d8 E3020000 		.4byte	.LASF18
 785 00dc 03       		.byte	0x3
 786 00dd 2C       		.byte	0x2c
 787 00de 13       		.byte	0x13
 788 00df 6C000000 		.4byte	0x6c
 789 00e3 03       		.uleb128 0x3
 790 00e4 2D030000 		.4byte	.LASF19
 791 00e8 03       		.byte	0x3
 792 00e9 30       		.byte	0x30
 793 00ea 14       		.byte	0x14
 794 00eb 7F000000 		.4byte	0x7f
 795 00ef 06       		.uleb128 0x6
 796 00f0 C1020000 		.4byte	.LASF22
 797 00f4 01       		.byte	0x1
 798 00f5 5F       		.byte	0x5f
ARM GAS  C:\Users\USER\AppData\Local\Temp\ccW8xQ8v.s 			page 15


 799 00f6 07       		.byte	0x7
 800 00f7 25000000 		.4byte	0x25
 801 00fb 00000000 		.4byte	.LFB11
 802 00ff 14000000 		.4byte	.LFE11-.LFB11
 803 0103 01       		.uleb128 0x1
 804 0104 9C       		.byte	0x9c
 805 0105 57010000 		.4byte	0x157
 806 0109 07       		.uleb128 0x7
 807 010a 1D030000 		.4byte	.LASF20
 808 010e 01       		.byte	0x1
 809 010f 5F       		.byte	0x5f
 810 0110 29       		.byte	0x29
 811 0111 57010000 		.4byte	0x157
 812 0115 04000000 		.4byte	.LLST19
 813 0119 00000000 		.4byte	.LVUS19
 814 011d 07       		.uleb128 0x7
 815 011e BF010000 		.4byte	.LASF21
 816 0122 01       		.byte	0x1
 817 0123 5F       		.byte	0x5f
 818 0124 37       		.byte	0x37
 819 0125 25000000 		.4byte	0x25
 820 0129 29000000 		.4byte	.LLST20
 821 012d 25000000 		.4byte	.LVUS20
 822 0131 08       		.uleb128 0x8
 823 0132 0D030000 		.4byte	.LASF24
 824 0136 01       		.byte	0x1
 825 0137 5F       		.byte	0x5f
 826 0138 47       		.byte	0x47
 827 0139 5D010000 		.4byte	0x15d
 828 013d 01       		.uleb128 0x1
 829 013e 51       		.byte	0x51
 830 013f 09       		.uleb128 0x9
 831 0140 06000000 		.4byte	.LVL33
 832 0144 44020000 		.4byte	0x244
 833 0148 0A       		.uleb128 0xa
 834 0149 01       		.uleb128 0x1
 835 014a 50       		.byte	0x50
 836 014b 03       		.uleb128 0x3
 837 014c F3       		.byte	0xf3
 838 014d 01       		.uleb128 0x1
 839 014e 50       		.byte	0x50
 840 014f 0A       		.uleb128 0xa
 841 0150 01       		.uleb128 0x1
 842 0151 51       		.byte	0x51
 843 0152 02       		.uleb128 0x2
 844 0153 71       		.byte	0x71
 845 0154 00       		.sleb128 0
 846 0155 00       		.byte	0
 847 0156 00       		.byte	0
 848 0157 0B       		.uleb128 0xb
 849 0158 04       		.byte	0x4
 850 0159 BA000000 		.4byte	0xba
 851 015d 0B       		.uleb128 0xb
 852 015e 04       		.byte	0x4
 853 015f D7000000 		.4byte	0xd7
 854 0163 06       		.uleb128 0x6
 855 0164 8F020000 		.4byte	.LASF23
ARM GAS  C:\Users\USER\AppData\Local\Temp\ccW8xQ8v.s 			page 16


 856 0168 01       		.byte	0x1
 857 0169 5B       		.byte	0x5b
 858 016a 07       		.byte	0x7
 859 016b 25000000 		.4byte	0x25
 860 016f 00000000 		.4byte	.LFB10
 861 0173 20000000 		.4byte	.LFE10-.LFB10
 862 0177 01       		.uleb128 0x1
 863 0178 9C       		.byte	0x9c
 864 0179 F3010000 		.4byte	0x1f3
 865 017d 07       		.uleb128 0x7
 866 017e 1D030000 		.4byte	.LASF20
 867 0182 01       		.byte	0x1
 868 0183 5B       		.byte	0x5b
 869 0184 29       		.byte	0x29
 870 0185 57010000 		.4byte	0x157
 871 0189 51000000 		.4byte	.LLST14
 872 018d 4D000000 		.4byte	.LVUS14
 873 0191 07       		.uleb128 0x7
 874 0192 BF010000 		.4byte	.LASF21
 875 0196 01       		.byte	0x1
 876 0197 5B       		.byte	0x5b
 877 0198 37       		.byte	0x37
 878 0199 25000000 		.4byte	0x25
 879 019d 76000000 		.4byte	.LLST15
 880 01a1 72000000 		.4byte	.LVUS15
 881 01a5 08       		.uleb128 0x8
 882 01a6 0D030000 		.4byte	.LASF24
 883 01aa 01       		.byte	0x1
 884 01ab 5B       		.byte	0x5b
 885 01ac 47       		.byte	0x47
 886 01ad 5D010000 		.4byte	0x15d
 887 01b1 01       		.uleb128 0x1
 888 01b2 51       		.byte	0x51
 889 01b3 0C       		.uleb128 0xc
 890 01b4 E6020000 		.4byte	0x2e6
 891 01b8 00000000 		.4byte	.LBI10
 892 01bc 02       		.byte	.LVU156
 893 01bd 18000000 		.4byte	.Ldebug_ranges0+0x18
 894 01c1 01       		.byte	0x1
 895 01c2 5C       		.byte	0x5c
 896 01c3 13       		.byte	0x13
 897 01c4 0D       		.uleb128 0xd
 898 01c5 03030000 		.4byte	0x303
 899 01c9 9C000000 		.4byte	.LLST16
 900 01cd 9A000000 		.4byte	.LVUS16
 901 01d1 0D       		.uleb128 0xd
 902 01d2 F7020000 		.4byte	0x2f7
 903 01d6 B3000000 		.4byte	.LLST17
 904 01da AF000000 		.4byte	.LVUS17
 905 01de 0E       		.uleb128 0xe
 906 01df 18000000 		.4byte	.Ldebug_ranges0+0x18
 907 01e3 0F       		.uleb128 0xf
 908 01e4 0F030000 		.4byte	0x30f
 909 01e8 D6000000 		.4byte	.LLST18
 910 01ec D4000000 		.4byte	.LVUS18
 911 01f0 00       		.byte	0
 912 01f1 00       		.byte	0
ARM GAS  C:\Users\USER\AppData\Local\Temp\ccW8xQ8v.s 			page 17


 913 01f2 00       		.byte	0
 914 01f3 06       		.uleb128 0x6
 915 01f4 51030000 		.4byte	.LASF25
 916 01f8 01       		.byte	0x1
 917 01f9 52       		.byte	0x52
 918 01fa 0A       		.byte	0xa
 919 01fb E3000000 		.4byte	0xe3
 920 01ff 00000000 		.4byte	.LFB9
 921 0203 22000000 		.4byte	.LFE9-.LFB9
 922 0207 01       		.uleb128 0x1
 923 0208 9C       		.byte	0x9c
 924 0209 44020000 		.4byte	0x244
 925 020d 07       		.uleb128 0x7
 926 020e 1D030000 		.4byte	.LASF20
 927 0212 01       		.byte	0x1
 928 0213 52       		.byte	0x52
 929 0214 2B       		.byte	0x2b
 930 0215 57010000 		.4byte	0x157
 931 0219 ED000000 		.4byte	.LLST12
 932 021d E9000000 		.4byte	.LVUS12
 933 0221 08       		.uleb128 0x8
 934 0222 0D030000 		.4byte	.LASF24
 935 0226 01       		.byte	0x1
 936 0227 52       		.byte	0x52
 937 0228 3C       		.byte	0x3c
 938 0229 5D010000 		.4byte	0x15d
 939 022d 01       		.uleb128 0x1
 940 022e 51       		.byte	0x51
 941 022f 10       		.uleb128 0x10
 942 0230 72657300 		.ascii	"res\000"
 943 0234 01       		.byte	0x1
 944 0235 53       		.byte	0x53
 945 0236 0B       		.byte	0xb
 946 0237 E3000000 		.4byte	0xe3
 947 023b 12010000 		.4byte	.LLST13
 948 023f 0E010000 		.4byte	.LVUS13
 949 0243 00       		.byte	0
 950 0244 06       		.uleb128 0x6
 951 0245 FC010000 		.4byte	.LASF26
 952 0249 01       		.byte	0x1
 953 024a 49       		.byte	0x49
 954 024b 09       		.byte	0x9
 955 024c D7000000 		.4byte	0xd7
 956 0250 00000000 		.4byte	.LFB8
 957 0254 22000000 		.4byte	.LFE8-.LFB8
 958 0258 01       		.uleb128 0x1
 959 0259 9C       		.byte	0x9c
 960 025a 95020000 		.4byte	0x295
 961 025e 07       		.uleb128 0x7
 962 025f 1D030000 		.4byte	.LASF20
 963 0263 01       		.byte	0x1
 964 0264 49       		.byte	0x49
 965 0265 29       		.byte	0x29
 966 0266 57010000 		.4byte	0x157
 967 026a 3B010000 		.4byte	.LLST10
 968 026e 37010000 		.4byte	.LVUS10
 969 0272 08       		.uleb128 0x8
ARM GAS  C:\Users\USER\AppData\Local\Temp\ccW8xQ8v.s 			page 18


 970 0273 0D030000 		.4byte	.LASF24
 971 0277 01       		.byte	0x1
 972 0278 49       		.byte	0x49
 973 0279 3A       		.byte	0x3a
 974 027a 5D010000 		.4byte	0x15d
 975 027e 01       		.uleb128 0x1
 976 027f 51       		.byte	0x51
 977 0280 10       		.uleb128 0x10
 978 0281 72657300 		.ascii	"res\000"
 979 0285 01       		.byte	0x1
 980 0286 4A       		.byte	0x4a
 981 0287 0A       		.byte	0xa
 982 0288 D7000000 		.4byte	0xd7
 983 028c 60010000 		.4byte	.LLST11
 984 0290 5C010000 		.4byte	.LVUS11
 985 0294 00       		.byte	0
 986 0295 06       		.uleb128 0x6
 987 0296 0A000000 		.4byte	.LASF27
 988 029a 01       		.byte	0x1
 989 029b 42       		.byte	0x42
 990 029c 0A       		.byte	0xa
 991 029d CB000000 		.4byte	0xcb
 992 02a1 00000000 		.4byte	.LFB7
 993 02a5 12000000 		.4byte	.LFE7-.LFB7
 994 02a9 01       		.uleb128 0x1
 995 02aa 9C       		.byte	0x9c
 996 02ab E6020000 		.4byte	0x2e6
 997 02af 07       		.uleb128 0x7
 998 02b0 1D030000 		.4byte	.LASF20
 999 02b4 01       		.byte	0x1
 1000 02b5 42       		.byte	0x42
 1001 02b6 2B       		.byte	0x2b
 1002 02b7 57010000 		.4byte	0x157
 1003 02bb 89010000 		.4byte	.LLST8
 1004 02bf 85010000 		.4byte	.LVUS8
 1005 02c3 08       		.uleb128 0x8
 1006 02c4 0D030000 		.4byte	.LASF24
 1007 02c8 01       		.byte	0x1
 1008 02c9 42       		.byte	0x42
 1009 02ca 3C       		.byte	0x3c
 1010 02cb 5D010000 		.4byte	0x15d
 1011 02cf 01       		.uleb128 0x1
 1012 02d0 51       		.byte	0x51
 1013 02d1 10       		.uleb128 0x10
 1014 02d2 72657300 		.ascii	"res\000"
 1015 02d6 01       		.byte	0x1
 1016 02d7 43       		.byte	0x43
 1017 02d8 0B       		.byte	0xb
 1018 02d9 CB000000 		.4byte	0xcb
 1019 02dd AE010000 		.4byte	.LLST9
 1020 02e1 AA010000 		.4byte	.LVUS9
 1021 02e5 00       		.byte	0
 1022 02e6 11       		.uleb128 0x11
 1023 02e7 DF010000 		.4byte	.LASF37
 1024 02eb 01       		.byte	0x1
 1025 02ec 3B       		.byte	0x3b
 1026 02ed 09       		.byte	0x9
ARM GAS  C:\Users\USER\AppData\Local\Temp\ccW8xQ8v.s 			page 19


 1027 02ee BF000000 		.4byte	0xbf
 1028 02f2 01       		.byte	0x1
 1029 02f3 1C030000 		.4byte	0x31c
 1030 02f7 12       		.uleb128 0x12
 1031 02f8 1D030000 		.4byte	.LASF20
 1032 02fc 01       		.byte	0x1
 1033 02fd 3B       		.byte	0x3b
 1034 02fe 29       		.byte	0x29
 1035 02ff 57010000 		.4byte	0x157
 1036 0303 12       		.uleb128 0x12
 1037 0304 0D030000 		.4byte	.LASF24
 1038 0308 01       		.byte	0x1
 1039 0309 3B       		.byte	0x3b
 1040 030a 3A       		.byte	0x3a
 1041 030b 5D010000 		.4byte	0x15d
 1042 030f 13       		.uleb128 0x13
 1043 0310 72657300 		.ascii	"res\000"
 1044 0314 01       		.byte	0x1
 1045 0315 3C       		.byte	0x3c
 1046 0316 0A       		.byte	0xa
 1047 0317 BF000000 		.4byte	0xbf
 1048 031b 00       		.byte	0
 1049 031c 14       		.uleb128 0x14
 1050 031d 61020000 		.4byte	.LASF29
 1051 0321 01       		.byte	0x1
 1052 0322 37       		.byte	0x37
 1053 0323 06       		.byte	0x6
 1054 0324 00000000 		.4byte	.LFB5
 1055 0328 12000000 		.4byte	.LFE5-.LFB5
 1056 032c 01       		.uleb128 0x1
 1057 032d 9C       		.byte	0x9c
 1058 032e 94030000 		.4byte	0x394
 1059 0332 08       		.uleb128 0x8
 1060 0333 1D030000 		.4byte	.LASF20
 1061 0337 01       		.byte	0x1
 1062 0338 37       		.byte	0x37
 1063 0339 25       		.byte	0x25
 1064 033a 94030000 		.4byte	0x394
 1065 033e 01       		.uleb128 0x1
 1066 033f 50       		.byte	0x50
 1067 0340 08       		.uleb128 0x8
 1068 0341 DC020000 		.4byte	.LASF28
 1069 0345 01       		.byte	0x1
 1070 0346 37       		.byte	0x37
 1071 0347 33       		.byte	0x33
 1072 0348 25000000 		.4byte	0x25
 1073 034c 02       		.uleb128 0x2
 1074 034d 90       		.byte	0x90
 1075 034e 40       		.uleb128 0x40
 1076 034f 07       		.uleb128 0x7
 1077 0350 BF010000 		.4byte	.LASF21
 1078 0354 01       		.byte	0x1
 1079 0355 37       		.byte	0x37
 1080 0356 41       		.byte	0x41
 1081 0357 25000000 		.4byte	0x25
 1082 035b D7010000 		.4byte	.LLST4
 1083 035f D3010000 		.4byte	.LVUS4
ARM GAS  C:\Users\USER\AppData\Local\Temp\ccW8xQ8v.s 			page 20


 1084 0363 07       		.uleb128 0x7
 1085 0364 0D030000 		.4byte	.LASF24
 1086 0368 01       		.byte	0x1
 1087 0369 37       		.byte	0x37
 1088 036a 51       		.byte	0x51
 1089 036b 5D010000 		.4byte	0x15d
 1090 036f FF010000 		.4byte	.LLST5
 1091 0373 FB010000 		.4byte	.LVUS5
 1092 0377 15       		.uleb128 0x15
 1093 0378 12000000 		.4byte	.LVL11
 1094 037c 6A040000 		.4byte	0x46a
 1095 0380 0A       		.uleb128 0xa
 1096 0381 01       		.uleb128 0x1
 1097 0382 50       		.byte	0x50
 1098 0383 02       		.uleb128 0x2
 1099 0384 70       		.byte	0x70
 1100 0385 00       		.sleb128 0
 1101 0386 0A       		.uleb128 0xa
 1102 0387 01       		.uleb128 0x1
 1103 0388 51       		.byte	0x51
 1104 0389 02       		.uleb128 0x2
 1105 038a 71       		.byte	0x71
 1106 038b 00       		.sleb128 0
 1107 038c 0A       		.uleb128 0xa
 1108 038d 01       		.uleb128 0x1
 1109 038e 52       		.byte	0x52
 1110 038f 02       		.uleb128 0x2
 1111 0390 72       		.byte	0x72
 1112 0391 00       		.sleb128 0
 1113 0392 00       		.byte	0
 1114 0393 00       		.byte	0
 1115 0394 0B       		.uleb128 0xb
 1116 0395 04       		.byte	0x4
 1117 0396 AE000000 		.4byte	0xae
 1118 039a 14       		.uleb128 0x14
 1119 039b 40020000 		.4byte	.LASF30
 1120 039f 01       		.byte	0x1
 1121 03a0 33       		.byte	0x33
 1122 03a1 06       		.byte	0x6
 1123 03a2 00000000 		.4byte	.LFB4
 1124 03a6 26000000 		.4byte	.LFE4-.LFB4
 1125 03aa 01       		.uleb128 0x1
 1126 03ab 9C       		.byte	0x9c
 1127 03ac 29040000 		.4byte	0x429
 1128 03b0 08       		.uleb128 0x8
 1129 03b1 1D030000 		.4byte	.LASF20
 1130 03b5 01       		.byte	0x1
 1131 03b6 33       		.byte	0x33
 1132 03b7 25       		.byte	0x25
 1133 03b8 94030000 		.4byte	0x394
 1134 03bc 01       		.uleb128 0x1
 1135 03bd 50       		.byte	0x50
 1136 03be 08       		.uleb128 0x8
 1137 03bf DC020000 		.4byte	.LASF28
 1138 03c3 01       		.byte	0x1
 1139 03c4 33       		.byte	0x33
 1140 03c5 33       		.byte	0x33
ARM GAS  C:\Users\USER\AppData\Local\Temp\ccW8xQ8v.s 			page 21


 1141 03c6 25000000 		.4byte	0x25
 1142 03ca 02       		.uleb128 0x2
 1143 03cb 90       		.byte	0x90
 1144 03cc 40       		.uleb128 0x40
 1145 03cd 07       		.uleb128 0x7
 1146 03ce BF010000 		.4byte	.LASF21
 1147 03d2 01       		.byte	0x1
 1148 03d3 33       		.byte	0x33
 1149 03d4 41       		.byte	0x41
 1150 03d5 25000000 		.4byte	0x25
 1151 03d9 21020000 		.4byte	.LLST0
 1152 03dd 1D020000 		.4byte	.LVUS0
 1153 03e1 08       		.uleb128 0x8
 1154 03e2 0D030000 		.4byte	.LASF24
 1155 03e6 01       		.byte	0x1
 1156 03e7 33       		.byte	0x33
 1157 03e8 51       		.byte	0x51
 1158 03e9 5D010000 		.4byte	0x15d
 1159 03ed 01       		.uleb128 0x1
 1160 03ee 51       		.byte	0x51
 1161 03ef 0C       		.uleb128 0xc
 1162 03f0 EC040000 		.4byte	0x4ec
 1163 03f4 12000000 		.4byte	.LBI6
 1164 03f8 00       		.byte	.LVU79
 1165 03f9 00000000 		.4byte	.Ldebug_ranges0+0
 1166 03fd 01       		.byte	0x1
 1167 03fe 34       		.byte	0x34
 1168 03ff 05       		.byte	0x5
 1169 0400 0D       		.uleb128 0xd
 1170 0401 11050000 		.4byte	0x511
 1171 0405 47020000 		.4byte	.LLST1
 1172 0409 45020000 		.4byte	.LVUS1
 1173 040d 0D       		.uleb128 0xd
 1174 040e 05050000 		.4byte	0x505
 1175 0412 5C020000 		.4byte	.LLST2
 1176 0416 5A020000 		.4byte	.LVUS2
 1177 041a 0D       		.uleb128 0xd
 1178 041b F9040000 		.4byte	0x4f9
 1179 041f 71020000 		.4byte	.LLST3
 1180 0423 6F020000 		.4byte	.LVUS3
 1181 0427 00       		.byte	0
 1182 0428 00       		.byte	0
 1183 0429 14       		.uleb128 0x14
 1184 042a 45000000 		.4byte	.LASF31
 1185 042e 01       		.byte	0x1
 1186 042f 2C       		.byte	0x2c
 1187 0430 06       		.byte	0x6
 1188 0431 00000000 		.4byte	.LFB3
 1189 0435 2C000000 		.4byte	.LFE3-.LFB3
 1190 0439 01       		.uleb128 0x1
 1191 043a 9C       		.byte	0x9c
 1192 043b 6A040000 		.4byte	0x46a
 1193 043f 08       		.uleb128 0x8
 1194 0440 1D030000 		.4byte	.LASF20
 1195 0444 01       		.byte	0x1
 1196 0445 2C       		.byte	0x2c
 1197 0446 24       		.byte	0x24
ARM GAS  C:\Users\USER\AppData\Local\Temp\ccW8xQ8v.s 			page 22


 1198 0447 94030000 		.4byte	0x394
 1199 044b 01       		.uleb128 0x1
 1200 044c 50       		.byte	0x50
 1201 044d 08       		.uleb128 0x8
 1202 044e DC020000 		.4byte	.LASF28
 1203 0452 01       		.byte	0x1
 1204 0453 2C       		.byte	0x2c
 1205 0454 35       		.byte	0x35
 1206 0455 E3000000 		.4byte	0xe3
 1207 0459 01       		.uleb128 0x1
 1208 045a 51       		.byte	0x51
 1209 045b 08       		.uleb128 0x8
 1210 045c 0D030000 		.4byte	.LASF24
 1211 0460 01       		.byte	0x1
 1212 0461 2C       		.byte	0x2c
 1213 0462 46       		.byte	0x46
 1214 0463 5D010000 		.4byte	0x15d
 1215 0467 01       		.uleb128 0x1
 1216 0468 52       		.byte	0x52
 1217 0469 00       		.byte	0
 1218 046a 14       		.uleb128 0x14
 1219 046b EB020000 		.4byte	.LASF32
 1220 046f 01       		.byte	0x1
 1221 0470 25       		.byte	0x25
 1222 0471 06       		.byte	0x6
 1223 0472 00000000 		.4byte	.LFB2
 1224 0476 2C000000 		.4byte	.LFE2-.LFB2
 1225 047a 01       		.uleb128 0x1
 1226 047b 9C       		.byte	0x9c
 1227 047c AB040000 		.4byte	0x4ab
 1228 0480 08       		.uleb128 0x8
 1229 0481 1D030000 		.4byte	.LASF20
 1230 0485 01       		.byte	0x1
 1231 0486 25       		.byte	0x25
 1232 0487 23       		.byte	0x23
 1233 0488 94030000 		.4byte	0x394
 1234 048c 01       		.uleb128 0x1
 1235 048d 50       		.byte	0x50
 1236 048e 08       		.uleb128 0x8
 1237 048f DC020000 		.4byte	.LASF28
 1238 0493 01       		.byte	0x1
 1239 0494 25       		.byte	0x25
 1240 0495 33       		.byte	0x33
 1241 0496 D7000000 		.4byte	0xd7
 1242 049a 01       		.uleb128 0x1
 1243 049b 51       		.byte	0x51
 1244 049c 08       		.uleb128 0x8
 1245 049d 0D030000 		.4byte	.LASF24
 1246 04a1 01       		.byte	0x1
 1247 04a2 25       		.byte	0x25
 1248 04a3 44       		.byte	0x44
 1249 04a4 5D010000 		.4byte	0x15d
 1250 04a8 01       		.uleb128 0x1
 1251 04a9 52       		.byte	0x52
 1252 04aa 00       		.byte	0
 1253 04ab 14       		.uleb128 0x14
 1254 04ac 30000000 		.4byte	.LASF33
ARM GAS  C:\Users\USER\AppData\Local\Temp\ccW8xQ8v.s 			page 23


 1255 04b0 01       		.byte	0x1
 1256 04b1 20       		.byte	0x20
 1257 04b2 06       		.byte	0x6
 1258 04b3 00000000 		.4byte	.LFB1
 1259 04b7 18000000 		.4byte	.LFE1-.LFB1
 1260 04bb 01       		.uleb128 0x1
 1261 04bc 9C       		.byte	0x9c
 1262 04bd EC040000 		.4byte	0x4ec
 1263 04c1 08       		.uleb128 0x8
 1264 04c2 1D030000 		.4byte	.LASF20
 1265 04c6 01       		.byte	0x1
 1266 04c7 20       		.byte	0x20
 1267 04c8 24       		.byte	0x24
 1268 04c9 94030000 		.4byte	0x394
 1269 04cd 01       		.uleb128 0x1
 1270 04ce 50       		.byte	0x50
 1271 04cf 08       		.uleb128 0x8
 1272 04d0 DC020000 		.4byte	.LASF28
 1273 04d4 01       		.byte	0x1
 1274 04d5 20       		.byte	0x20
 1275 04d6 35       		.byte	0x35
 1276 04d7 CB000000 		.4byte	0xcb
 1277 04db 01       		.uleb128 0x1
 1278 04dc 51       		.byte	0x51
 1279 04dd 08       		.uleb128 0x8
 1280 04de 0D030000 		.4byte	.LASF24
 1281 04e2 01       		.byte	0x1
 1282 04e3 20       		.byte	0x20
 1283 04e4 46       		.byte	0x46
 1284 04e5 5D010000 		.4byte	0x15d
 1285 04e9 01       		.uleb128 0x1
 1286 04ea 52       		.byte	0x52
 1287 04eb 00       		.byte	0
 1288 04ec 16       		.uleb128 0x16
 1289 04ed C5010000 		.4byte	.LASF38
 1290 04f1 01       		.byte	0x1
 1291 04f2 1B       		.byte	0x1b
 1292 04f3 06       		.byte	0x6
 1293 04f4 01       		.byte	0x1
 1294 04f5 1E050000 		.4byte	0x51e
 1295 04f9 12       		.uleb128 0x12
 1296 04fa 1D030000 		.4byte	.LASF20
 1297 04fe 01       		.byte	0x1
 1298 04ff 1B       		.byte	0x1b
 1299 0500 23       		.byte	0x23
 1300 0501 94030000 		.4byte	0x394
 1301 0505 12       		.uleb128 0x12
 1302 0506 DC020000 		.4byte	.LASF28
 1303 050a 01       		.byte	0x1
 1304 050b 1B       		.byte	0x1b
 1305 050c 33       		.byte	0x33
 1306 050d BF000000 		.4byte	0xbf
 1307 0511 12       		.uleb128 0x12
 1308 0512 0D030000 		.4byte	.LASF24
 1309 0516 01       		.byte	0x1
 1310 0517 1B       		.byte	0x1b
 1311 0518 44       		.byte	0x44
ARM GAS  C:\Users\USER\AppData\Local\Temp\ccW8xQ8v.s 			page 24


 1312 0519 5D010000 		.4byte	0x15d
 1313 051d 00       		.byte	0
 1314 051e 17       		.uleb128 0x17
 1315 051f EC040000 		.4byte	0x4ec
 1316 0523 00000000 		.4byte	.LFB0
 1317 0527 18000000 		.4byte	.LFE0-.LFB0
 1318 052b 01       		.uleb128 0x1
 1319 052c 9C       		.byte	0x9c
 1320 052d 47050000 		.4byte	0x547
 1321 0531 18       		.uleb128 0x18
 1322 0532 F9040000 		.4byte	0x4f9
 1323 0536 01       		.uleb128 0x1
 1324 0537 50       		.byte	0x50
 1325 0538 18       		.uleb128 0x18
 1326 0539 05050000 		.4byte	0x505
 1327 053d 01       		.uleb128 0x1
 1328 053e 51       		.byte	0x51
 1329 053f 18       		.uleb128 0x18
 1330 0540 11050000 		.4byte	0x511
 1331 0544 01       		.uleb128 0x1
 1332 0545 52       		.byte	0x52
 1333 0546 00       		.byte	0
 1334 0547 19       		.uleb128 0x19
 1335 0548 E6020000 		.4byte	0x2e6
 1336 054c 00000000 		.4byte	.LFB6
 1337 0550 1A000000 		.4byte	.LFE6-.LFB6
 1338 0554 01       		.uleb128 0x1
 1339 0555 9C       		.byte	0x9c
 1340 0556 0D       		.uleb128 0xd
 1341 0557 F7020000 		.4byte	0x2f7
 1342 055b 88020000 		.4byte	.LLST6
 1343 055f 84020000 		.4byte	.LVUS6
 1344 0563 18       		.uleb128 0x18
 1345 0564 03030000 		.4byte	0x303
 1346 0568 01       		.uleb128 0x1
 1347 0569 51       		.byte	0x51
 1348 056a 0F       		.uleb128 0xf
 1349 056b 0F030000 		.4byte	0x30f
 1350 056f AB020000 		.4byte	.LLST7
 1351 0573 A9020000 		.4byte	.LVUS7
 1352 0577 00       		.byte	0
 1353 0578 00       		.byte	0
 1354              		.section	.debug_abbrev,"",%progbits
 1355              	.Ldebug_abbrev0:
 1356 0000 01       		.uleb128 0x1
 1357 0001 11       		.uleb128 0x11
 1358 0002 01       		.byte	0x1
 1359 0003 25       		.uleb128 0x25
 1360 0004 0E       		.uleb128 0xe
 1361 0005 13       		.uleb128 0x13
 1362 0006 0B       		.uleb128 0xb
 1363 0007 03       		.uleb128 0x3
 1364 0008 0E       		.uleb128 0xe
 1365 0009 1B       		.uleb128 0x1b
 1366 000a 0E       		.uleb128 0xe
 1367 000b 55       		.uleb128 0x55
 1368 000c 17       		.uleb128 0x17
ARM GAS  C:\Users\USER\AppData\Local\Temp\ccW8xQ8v.s 			page 25


 1369 000d 11       		.uleb128 0x11
 1370 000e 01       		.uleb128 0x1
 1371 000f 10       		.uleb128 0x10
 1372 0010 17       		.uleb128 0x17
 1373 0011 00       		.byte	0
 1374 0012 00       		.byte	0
 1375 0013 02       		.uleb128 0x2
 1376 0014 24       		.uleb128 0x24
 1377 0015 00       		.byte	0
 1378 0016 0B       		.uleb128 0xb
 1379 0017 0B       		.uleb128 0xb
 1380 0018 3E       		.uleb128 0x3e
 1381 0019 0B       		.uleb128 0xb
 1382 001a 03       		.uleb128 0x3
 1383 001b 0E       		.uleb128 0xe
 1384 001c 00       		.byte	0
 1385 001d 00       		.byte	0
 1386 001e 03       		.uleb128 0x3
 1387 001f 16       		.uleb128 0x16
 1388 0020 00       		.byte	0
 1389 0021 03       		.uleb128 0x3
 1390 0022 0E       		.uleb128 0xe
 1391 0023 3A       		.uleb128 0x3a
 1392 0024 0B       		.uleb128 0xb
 1393 0025 3B       		.uleb128 0x3b
 1394 0026 0B       		.uleb128 0xb
 1395 0027 39       		.uleb128 0x39
 1396 0028 0B       		.uleb128 0xb
 1397 0029 49       		.uleb128 0x49
 1398 002a 13       		.uleb128 0x13
 1399 002b 00       		.byte	0
 1400 002c 00       		.byte	0
 1401 002d 04       		.uleb128 0x4
 1402 002e 24       		.uleb128 0x24
 1403 002f 00       		.byte	0
 1404 0030 0B       		.uleb128 0xb
 1405 0031 0B       		.uleb128 0xb
 1406 0032 3E       		.uleb128 0x3e
 1407 0033 0B       		.uleb128 0xb
 1408 0034 03       		.uleb128 0x3
 1409 0035 08       		.uleb128 0x8
 1410 0036 00       		.byte	0
 1411 0037 00       		.byte	0
 1412 0038 05       		.uleb128 0x5
 1413 0039 26       		.uleb128 0x26
 1414 003a 00       		.byte	0
 1415 003b 49       		.uleb128 0x49
 1416 003c 13       		.uleb128 0x13
 1417 003d 00       		.byte	0
 1418 003e 00       		.byte	0
 1419 003f 06       		.uleb128 0x6
 1420 0040 2E       		.uleb128 0x2e
 1421 0041 01       		.byte	0x1
 1422 0042 3F       		.uleb128 0x3f
 1423 0043 19       		.uleb128 0x19
 1424 0044 03       		.uleb128 0x3
 1425 0045 0E       		.uleb128 0xe
ARM GAS  C:\Users\USER\AppData\Local\Temp\ccW8xQ8v.s 			page 26


 1426 0046 3A       		.uleb128 0x3a
 1427 0047 0B       		.uleb128 0xb
 1428 0048 3B       		.uleb128 0x3b
 1429 0049 0B       		.uleb128 0xb
 1430 004a 39       		.uleb128 0x39
 1431 004b 0B       		.uleb128 0xb
 1432 004c 27       		.uleb128 0x27
 1433 004d 19       		.uleb128 0x19
 1434 004e 49       		.uleb128 0x49
 1435 004f 13       		.uleb128 0x13
 1436 0050 11       		.uleb128 0x11
 1437 0051 01       		.uleb128 0x1
 1438 0052 12       		.uleb128 0x12
 1439 0053 06       		.uleb128 0x6
 1440 0054 40       		.uleb128 0x40
 1441 0055 18       		.uleb128 0x18
 1442 0056 9742     		.uleb128 0x2117
 1443 0058 19       		.uleb128 0x19
 1444 0059 01       		.uleb128 0x1
 1445 005a 13       		.uleb128 0x13
 1446 005b 00       		.byte	0
 1447 005c 00       		.byte	0
 1448 005d 07       		.uleb128 0x7
 1449 005e 05       		.uleb128 0x5
 1450 005f 00       		.byte	0
 1451 0060 03       		.uleb128 0x3
 1452 0061 0E       		.uleb128 0xe
 1453 0062 3A       		.uleb128 0x3a
 1454 0063 0B       		.uleb128 0xb
 1455 0064 3B       		.uleb128 0x3b
 1456 0065 0B       		.uleb128 0xb
 1457 0066 39       		.uleb128 0x39
 1458 0067 0B       		.uleb128 0xb
 1459 0068 49       		.uleb128 0x49
 1460 0069 13       		.uleb128 0x13
 1461 006a 02       		.uleb128 0x2
 1462 006b 17       		.uleb128 0x17
 1463 006c B742     		.uleb128 0x2137
 1464 006e 17       		.uleb128 0x17
 1465 006f 00       		.byte	0
 1466 0070 00       		.byte	0
 1467 0071 08       		.uleb128 0x8
 1468 0072 05       		.uleb128 0x5
 1469 0073 00       		.byte	0
 1470 0074 03       		.uleb128 0x3
 1471 0075 0E       		.uleb128 0xe
 1472 0076 3A       		.uleb128 0x3a
 1473 0077 0B       		.uleb128 0xb
 1474 0078 3B       		.uleb128 0x3b
 1475 0079 0B       		.uleb128 0xb
 1476 007a 39       		.uleb128 0x39
 1477 007b 0B       		.uleb128 0xb
 1478 007c 49       		.uleb128 0x49
 1479 007d 13       		.uleb128 0x13
 1480 007e 02       		.uleb128 0x2
 1481 007f 18       		.uleb128 0x18
 1482 0080 00       		.byte	0
ARM GAS  C:\Users\USER\AppData\Local\Temp\ccW8xQ8v.s 			page 27


 1483 0081 00       		.byte	0
 1484 0082 09       		.uleb128 0x9
 1485 0083 898201   		.uleb128 0x4109
 1486 0086 01       		.byte	0x1
 1487 0087 11       		.uleb128 0x11
 1488 0088 01       		.uleb128 0x1
 1489 0089 31       		.uleb128 0x31
 1490 008a 13       		.uleb128 0x13
 1491 008b 00       		.byte	0
 1492 008c 00       		.byte	0
 1493 008d 0A       		.uleb128 0xa
 1494 008e 8A8201   		.uleb128 0x410a
 1495 0091 00       		.byte	0
 1496 0092 02       		.uleb128 0x2
 1497 0093 18       		.uleb128 0x18
 1498 0094 9142     		.uleb128 0x2111
 1499 0096 18       		.uleb128 0x18
 1500 0097 00       		.byte	0
 1501 0098 00       		.byte	0
 1502 0099 0B       		.uleb128 0xb
 1503 009a 0F       		.uleb128 0xf
 1504 009b 00       		.byte	0
 1505 009c 0B       		.uleb128 0xb
 1506 009d 0B       		.uleb128 0xb
 1507 009e 49       		.uleb128 0x49
 1508 009f 13       		.uleb128 0x13
 1509 00a0 00       		.byte	0
 1510 00a1 00       		.byte	0
 1511 00a2 0C       		.uleb128 0xc
 1512 00a3 1D       		.uleb128 0x1d
 1513 00a4 01       		.byte	0x1
 1514 00a5 31       		.uleb128 0x31
 1515 00a6 13       		.uleb128 0x13
 1516 00a7 52       		.uleb128 0x52
 1517 00a8 01       		.uleb128 0x1
 1518 00a9 B842     		.uleb128 0x2138
 1519 00ab 0B       		.uleb128 0xb
 1520 00ac 55       		.uleb128 0x55
 1521 00ad 17       		.uleb128 0x17
 1522 00ae 58       		.uleb128 0x58
 1523 00af 0B       		.uleb128 0xb
 1524 00b0 59       		.uleb128 0x59
 1525 00b1 0B       		.uleb128 0xb
 1526 00b2 57       		.uleb128 0x57
 1527 00b3 0B       		.uleb128 0xb
 1528 00b4 00       		.byte	0
 1529 00b5 00       		.byte	0
 1530 00b6 0D       		.uleb128 0xd
 1531 00b7 05       		.uleb128 0x5
 1532 00b8 00       		.byte	0
 1533 00b9 31       		.uleb128 0x31
 1534 00ba 13       		.uleb128 0x13
 1535 00bb 02       		.uleb128 0x2
 1536 00bc 17       		.uleb128 0x17
 1537 00bd B742     		.uleb128 0x2137
 1538 00bf 17       		.uleb128 0x17
 1539 00c0 00       		.byte	0
ARM GAS  C:\Users\USER\AppData\Local\Temp\ccW8xQ8v.s 			page 28


 1540 00c1 00       		.byte	0
 1541 00c2 0E       		.uleb128 0xe
 1542 00c3 0B       		.uleb128 0xb
 1543 00c4 01       		.byte	0x1
 1544 00c5 55       		.uleb128 0x55
 1545 00c6 17       		.uleb128 0x17
 1546 00c7 00       		.byte	0
 1547 00c8 00       		.byte	0
 1548 00c9 0F       		.uleb128 0xf
 1549 00ca 34       		.uleb128 0x34
 1550 00cb 00       		.byte	0
 1551 00cc 31       		.uleb128 0x31
 1552 00cd 13       		.uleb128 0x13
 1553 00ce 02       		.uleb128 0x2
 1554 00cf 17       		.uleb128 0x17
 1555 00d0 B742     		.uleb128 0x2137
 1556 00d2 17       		.uleb128 0x17
 1557 00d3 00       		.byte	0
 1558 00d4 00       		.byte	0
 1559 00d5 10       		.uleb128 0x10
 1560 00d6 34       		.uleb128 0x34
 1561 00d7 00       		.byte	0
 1562 00d8 03       		.uleb128 0x3
 1563 00d9 08       		.uleb128 0x8
 1564 00da 3A       		.uleb128 0x3a
 1565 00db 0B       		.uleb128 0xb
 1566 00dc 3B       		.uleb128 0x3b
 1567 00dd 0B       		.uleb128 0xb
 1568 00de 39       		.uleb128 0x39
 1569 00df 0B       		.uleb128 0xb
 1570 00e0 49       		.uleb128 0x49
 1571 00e1 13       		.uleb128 0x13
 1572 00e2 02       		.uleb128 0x2
 1573 00e3 17       		.uleb128 0x17
 1574 00e4 B742     		.uleb128 0x2137
 1575 00e6 17       		.uleb128 0x17
 1576 00e7 00       		.byte	0
 1577 00e8 00       		.byte	0
 1578 00e9 11       		.uleb128 0x11
 1579 00ea 2E       		.uleb128 0x2e
 1580 00eb 01       		.byte	0x1
 1581 00ec 3F       		.uleb128 0x3f
 1582 00ed 19       		.uleb128 0x19
 1583 00ee 03       		.uleb128 0x3
 1584 00ef 0E       		.uleb128 0xe
 1585 00f0 3A       		.uleb128 0x3a
 1586 00f1 0B       		.uleb128 0xb
 1587 00f2 3B       		.uleb128 0x3b
 1588 00f3 0B       		.uleb128 0xb
 1589 00f4 39       		.uleb128 0x39
 1590 00f5 0B       		.uleb128 0xb
 1591 00f6 27       		.uleb128 0x27
 1592 00f7 19       		.uleb128 0x19
 1593 00f8 49       		.uleb128 0x49
 1594 00f9 13       		.uleb128 0x13
 1595 00fa 20       		.uleb128 0x20
 1596 00fb 0B       		.uleb128 0xb
ARM GAS  C:\Users\USER\AppData\Local\Temp\ccW8xQ8v.s 			page 29


 1597 00fc 01       		.uleb128 0x1
 1598 00fd 13       		.uleb128 0x13
 1599 00fe 00       		.byte	0
 1600 00ff 00       		.byte	0
 1601 0100 12       		.uleb128 0x12
 1602 0101 05       		.uleb128 0x5
 1603 0102 00       		.byte	0
 1604 0103 03       		.uleb128 0x3
 1605 0104 0E       		.uleb128 0xe
 1606 0105 3A       		.uleb128 0x3a
 1607 0106 0B       		.uleb128 0xb
 1608 0107 3B       		.uleb128 0x3b
 1609 0108 0B       		.uleb128 0xb
 1610 0109 39       		.uleb128 0x39
 1611 010a 0B       		.uleb128 0xb
 1612 010b 49       		.uleb128 0x49
 1613 010c 13       		.uleb128 0x13
 1614 010d 00       		.byte	0
 1615 010e 00       		.byte	0
 1616 010f 13       		.uleb128 0x13
 1617 0110 34       		.uleb128 0x34
 1618 0111 00       		.byte	0
 1619 0112 03       		.uleb128 0x3
 1620 0113 08       		.uleb128 0x8
 1621 0114 3A       		.uleb128 0x3a
 1622 0115 0B       		.uleb128 0xb
 1623 0116 3B       		.uleb128 0x3b
 1624 0117 0B       		.uleb128 0xb
 1625 0118 39       		.uleb128 0x39
 1626 0119 0B       		.uleb128 0xb
 1627 011a 49       		.uleb128 0x49
 1628 011b 13       		.uleb128 0x13
 1629 011c 00       		.byte	0
 1630 011d 00       		.byte	0
 1631 011e 14       		.uleb128 0x14
 1632 011f 2E       		.uleb128 0x2e
 1633 0120 01       		.byte	0x1
 1634 0121 3F       		.uleb128 0x3f
 1635 0122 19       		.uleb128 0x19
 1636 0123 03       		.uleb128 0x3
 1637 0124 0E       		.uleb128 0xe
 1638 0125 3A       		.uleb128 0x3a
 1639 0126 0B       		.uleb128 0xb
 1640 0127 3B       		.uleb128 0x3b
 1641 0128 0B       		.uleb128 0xb
 1642 0129 39       		.uleb128 0x39
 1643 012a 0B       		.uleb128 0xb
 1644 012b 27       		.uleb128 0x27
 1645 012c 19       		.uleb128 0x19
 1646 012d 11       		.uleb128 0x11
 1647 012e 01       		.uleb128 0x1
 1648 012f 12       		.uleb128 0x12
 1649 0130 06       		.uleb128 0x6
 1650 0131 40       		.uleb128 0x40
 1651 0132 18       		.uleb128 0x18
 1652 0133 9742     		.uleb128 0x2117
 1653 0135 19       		.uleb128 0x19
ARM GAS  C:\Users\USER\AppData\Local\Temp\ccW8xQ8v.s 			page 30


 1654 0136 01       		.uleb128 0x1
 1655 0137 13       		.uleb128 0x13
 1656 0138 00       		.byte	0
 1657 0139 00       		.byte	0
 1658 013a 15       		.uleb128 0x15
 1659 013b 898201   		.uleb128 0x4109
 1660 013e 01       		.byte	0x1
 1661 013f 11       		.uleb128 0x11
 1662 0140 01       		.uleb128 0x1
 1663 0141 9542     		.uleb128 0x2115
 1664 0143 19       		.uleb128 0x19
 1665 0144 31       		.uleb128 0x31
 1666 0145 13       		.uleb128 0x13
 1667 0146 00       		.byte	0
 1668 0147 00       		.byte	0
 1669 0148 16       		.uleb128 0x16
 1670 0149 2E       		.uleb128 0x2e
 1671 014a 01       		.byte	0x1
 1672 014b 3F       		.uleb128 0x3f
 1673 014c 19       		.uleb128 0x19
 1674 014d 03       		.uleb128 0x3
 1675 014e 0E       		.uleb128 0xe
 1676 014f 3A       		.uleb128 0x3a
 1677 0150 0B       		.uleb128 0xb
 1678 0151 3B       		.uleb128 0x3b
 1679 0152 0B       		.uleb128 0xb
 1680 0153 39       		.uleb128 0x39
 1681 0154 0B       		.uleb128 0xb
 1682 0155 27       		.uleb128 0x27
 1683 0156 19       		.uleb128 0x19
 1684 0157 20       		.uleb128 0x20
 1685 0158 0B       		.uleb128 0xb
 1686 0159 01       		.uleb128 0x1
 1687 015a 13       		.uleb128 0x13
 1688 015b 00       		.byte	0
 1689 015c 00       		.byte	0
 1690 015d 17       		.uleb128 0x17
 1691 015e 2E       		.uleb128 0x2e
 1692 015f 01       		.byte	0x1
 1693 0160 31       		.uleb128 0x31
 1694 0161 13       		.uleb128 0x13
 1695 0162 11       		.uleb128 0x11
 1696 0163 01       		.uleb128 0x1
 1697 0164 12       		.uleb128 0x12
 1698 0165 06       		.uleb128 0x6
 1699 0166 40       		.uleb128 0x40
 1700 0167 18       		.uleb128 0x18
 1701 0168 9742     		.uleb128 0x2117
 1702 016a 19       		.uleb128 0x19
 1703 016b 01       		.uleb128 0x1
 1704 016c 13       		.uleb128 0x13
 1705 016d 00       		.byte	0
 1706 016e 00       		.byte	0
 1707 016f 18       		.uleb128 0x18
 1708 0170 05       		.uleb128 0x5
 1709 0171 00       		.byte	0
 1710 0172 31       		.uleb128 0x31
ARM GAS  C:\Users\USER\AppData\Local\Temp\ccW8xQ8v.s 			page 31


 1711 0173 13       		.uleb128 0x13
 1712 0174 02       		.uleb128 0x2
 1713 0175 18       		.uleb128 0x18
 1714 0176 00       		.byte	0
 1715 0177 00       		.byte	0
 1716 0178 19       		.uleb128 0x19
 1717 0179 2E       		.uleb128 0x2e
 1718 017a 01       		.byte	0x1
 1719 017b 31       		.uleb128 0x31
 1720 017c 13       		.uleb128 0x13
 1721 017d 11       		.uleb128 0x11
 1722 017e 01       		.uleb128 0x1
 1723 017f 12       		.uleb128 0x12
 1724 0180 06       		.uleb128 0x6
 1725 0181 40       		.uleb128 0x40
 1726 0182 18       		.uleb128 0x18
 1727 0183 9742     		.uleb128 0x2117
 1728 0185 19       		.uleb128 0x19
 1729 0186 00       		.byte	0
 1730 0187 00       		.byte	0
 1731 0188 00       		.byte	0
 1732              		.section	.debug_loc,"",%progbits
 1733              	.Ldebug_loc0:
 1734              	.LVUS19:
 1735 0000 00       		.uleb128 0
 1736 0001 00       		.uleb128 .LVU174
 1737 0002 00       		.uleb128 .LVU174
 1738 0003 00       		.uleb128 0
 1739              	.LLST19:
 1740 0004 00000000 		.4byte	.LVL32
 1741 0008 05000000 		.4byte	.LVL33-1
 1742 000c 0100     		.2byte	0x1
 1743 000e 50       		.byte	0x50
 1744 000f 05000000 		.4byte	.LVL33-1
 1745 0013 14000000 		.4byte	.LFE11
 1746 0017 0400     		.2byte	0x4
 1747 0019 F3       		.byte	0xf3
 1748 001a 01       		.uleb128 0x1
 1749 001b 50       		.byte	0x50
 1750 001c 9F       		.byte	0x9f
 1751 001d 00000000 		.4byte	0
 1752 0021 00000000 		.4byte	0
 1753              	.LVUS20:
 1754 0025 00       		.uleb128 0
 1755 0026 00       		.uleb128 .LVU176
 1756 0027 00       		.uleb128 .LVU176
 1757 0028 00       		.uleb128 0
 1758              	.LLST20:
 1759 0029 00000000 		.4byte	.LVL32
 1760 002d 12000000 		.4byte	.LVL34
 1761 0031 0200     		.2byte	0x2
 1762 0033 90       		.byte	0x90
 1763 0034 40       		.uleb128 0x40
 1764 0035 12000000 		.4byte	.LVL34
 1765 0039 14000000 		.4byte	.LFE11
 1766 003d 0600     		.2byte	0x6
 1767 003f F3       		.byte	0xf3
ARM GAS  C:\Users\USER\AppData\Local\Temp\ccW8xQ8v.s 			page 32


 1768 0040 03       		.uleb128 0x3
 1769 0041 F5       		.byte	0xf5
 1770 0042 40       		.uleb128 0x40
 1771 0043 25       		.uleb128 0x25
 1772 0044 9F       		.byte	0x9f
 1773 0045 00000000 		.4byte	0
 1774 0049 00000000 		.4byte	0
 1775              	.LVUS14:
 1776 004d 00       		.uleb128 0
 1777 004e 00       		.uleb128 .LVU161
 1778 004f 00       		.uleb128 .LVU161
 1779 0050 00       		.uleb128 0
 1780              	.LLST14:
 1781 0051 00000000 		.4byte	.LVL27
 1782 0055 06000000 		.4byte	.LVL28
 1783 0059 0100     		.2byte	0x1
 1784 005b 50       		.byte	0x50
 1785 005c 06000000 		.4byte	.LVL28
 1786 0060 20000000 		.4byte	.LFE10
 1787 0064 0400     		.2byte	0x4
 1788 0066 F3       		.byte	0xf3
 1789 0067 01       		.uleb128 0x1
 1790 0068 50       		.byte	0x50
 1791 0069 9F       		.byte	0x9f
 1792 006a 00000000 		.4byte	0
 1793 006e 00000000 		.4byte	0
 1794              	.LVUS15:
 1795 0072 00       		.uleb128 0
 1796 0073 00       		.uleb128 .LVU169
 1797 0074 00       		.uleb128 .LVU169
 1798 0075 00       		.uleb128 0
 1799              	.LLST15:
 1800 0076 00000000 		.4byte	.LVL27
 1801 007a 1E000000 		.4byte	.LVL31
 1802 007e 0200     		.2byte	0x2
 1803 0080 90       		.byte	0x90
 1804 0081 40       		.uleb128 0x40
 1805 0082 1E000000 		.4byte	.LVL31
 1806 0086 20000000 		.4byte	.LFE10
 1807 008a 0600     		.2byte	0x6
 1808 008c F3       		.byte	0xf3
 1809 008d 03       		.uleb128 0x3
 1810 008e F5       		.byte	0xf5
 1811 008f 40       		.uleb128 0x40
 1812 0090 25       		.uleb128 0x25
 1813 0091 9F       		.byte	0x9f
 1814 0092 00000000 		.4byte	0
 1815 0096 00000000 		.4byte	0
 1816              	.LVUS16:
 1817 009a 02       		.uleb128 .LVU156
 1818 009b 01       		.uleb128 .LVU167
 1819              	.LLST16:
 1820 009c 00000000 		.4byte	.LVL27
 1821 00a0 1A000000 		.4byte	.LVL30
 1822 00a4 0100     		.2byte	0x1
 1823 00a6 51       		.byte	0x51
 1824 00a7 00000000 		.4byte	0
ARM GAS  C:\Users\USER\AppData\Local\Temp\ccW8xQ8v.s 			page 33


 1825 00ab 00000000 		.4byte	0
 1826              	.LVUS17:
 1827 00af 02       		.uleb128 .LVU156
 1828 00b0 00       		.uleb128 .LVU161
 1829 00b1 00       		.uleb128 .LVU161
 1830 00b2 01       		.uleb128 .LVU167
 1831              	.LLST17:
 1832 00b3 00000000 		.4byte	.LVL27
 1833 00b7 06000000 		.4byte	.LVL28
 1834 00bb 0100     		.2byte	0x1
 1835 00bd 50       		.byte	0x50
 1836 00be 06000000 		.4byte	.LVL28
 1837 00c2 1A000000 		.4byte	.LVL30
 1838 00c6 0400     		.2byte	0x4
 1839 00c8 F3       		.byte	0xf3
 1840 00c9 01       		.uleb128 0x1
 1841 00ca 50       		.byte	0x50
 1842 00cb 9F       		.byte	0x9f
 1843 00cc 00000000 		.4byte	0
 1844 00d0 00000000 		.4byte	0
 1845              	.LVUS18:
 1846 00d4 00       		.uleb128 .LVU163
 1847 00d5 01       		.uleb128 .LVU167
 1848              	.LLST18:
 1849 00d6 0E000000 		.4byte	.LVL29
 1850 00da 1A000000 		.4byte	.LVL30
 1851 00de 0100     		.2byte	0x1
 1852 00e0 53       		.byte	0x53
 1853 00e1 00000000 		.4byte	0
 1854 00e5 00000000 		.4byte	0
 1855              	.LVUS12:
 1856 00e9 00       		.uleb128 0
 1857 00ea 00       		.uleb128 .LVU147
 1858 00eb 00       		.uleb128 .LVU147
 1859 00ec 00       		.uleb128 0
 1860              	.LLST12:
 1861 00ed 00000000 		.4byte	.LVL23
 1862 00f1 0E000000 		.4byte	.LVL24
 1863 00f5 0100     		.2byte	0x1
 1864 00f7 50       		.byte	0x50
 1865 00f8 0E000000 		.4byte	.LVL24
 1866 00fc 22000000 		.4byte	.LFE9
 1867 0100 0400     		.2byte	0x4
 1868 0102 F3       		.byte	0xf3
 1869 0103 01       		.uleb128 0x1
 1870 0104 50       		.byte	0x50
 1871 0105 9F       		.byte	0x9f
 1872 0106 00000000 		.4byte	0
 1873 010a 00000000 		.4byte	0
 1874              	.LVUS13:
 1875 010e 00       		.uleb128 .LVU148
 1876 010f 00       		.uleb128 .LVU151
 1877 0110 00       		.uleb128 .LVU151
 1878 0111 00       		.uleb128 0
 1879              	.LLST13:
 1880 0112 16000000 		.4byte	.LVL25
 1881 0116 1C000000 		.4byte	.LVL26
ARM GAS  C:\Users\USER\AppData\Local\Temp\ccW8xQ8v.s 			page 34


 1882 011a 0800     		.2byte	0x8
 1883 011c 70       		.byte	0x70
 1884 011d 00       		.sleb128 0
 1885 011e 38       		.byte	0x38
 1886 011f 24       		.byte	0x24
 1887 0120 73       		.byte	0x73
 1888 0121 00       		.sleb128 0
 1889 0122 21       		.byte	0x21
 1890 0123 9F       		.byte	0x9f
 1891 0124 1C000000 		.4byte	.LVL26
 1892 0128 22000000 		.4byte	.LFE9
 1893 012c 0100     		.2byte	0x1
 1894 012e 50       		.byte	0x50
 1895 012f 00000000 		.4byte	0
 1896 0133 00000000 		.4byte	0
 1897              	.LVUS10:
 1898 0137 00       		.uleb128 0
 1899 0138 00       		.uleb128 .LVU131
 1900 0139 00       		.uleb128 .LVU131
 1901 013a 00       		.uleb128 0
 1902              	.LLST10:
 1903 013b 00000000 		.4byte	.LVL19
 1904 013f 0E000000 		.4byte	.LVL20
 1905 0143 0100     		.2byte	0x1
 1906 0145 50       		.byte	0x50
 1907 0146 0E000000 		.4byte	.LVL20
 1908 014a 22000000 		.4byte	.LFE8
 1909 014e 0400     		.2byte	0x4
 1910 0150 F3       		.byte	0xf3
 1911 0151 01       		.uleb128 0x1
 1912 0152 50       		.byte	0x50
 1913 0153 9F       		.byte	0x9f
 1914 0154 00000000 		.4byte	0
 1915 0158 00000000 		.4byte	0
 1916              	.LVUS11:
 1917 015c 00       		.uleb128 .LVU132
 1918 015d 00       		.uleb128 .LVU135
 1919 015e 00       		.uleb128 .LVU135
 1920 015f 00       		.uleb128 0
 1921              	.LLST11:
 1922 0160 16000000 		.4byte	.LVL21
 1923 0164 1C000000 		.4byte	.LVL22
 1924 0168 0800     		.2byte	0x8
 1925 016a 70       		.byte	0x70
 1926 016b 00       		.sleb128 0
 1927 016c 38       		.byte	0x38
 1928 016d 24       		.byte	0x24
 1929 016e 73       		.byte	0x73
 1930 016f 00       		.sleb128 0
 1931 0170 21       		.byte	0x21
 1932 0171 9F       		.byte	0x9f
 1933 0172 1C000000 		.4byte	.LVL22
 1934 0176 22000000 		.4byte	.LFE8
 1935 017a 0100     		.2byte	0x1
 1936 017c 50       		.byte	0x50
 1937 017d 00000000 		.4byte	0
 1938 0181 00000000 		.4byte	0
ARM GAS  C:\Users\USER\AppData\Local\Temp\ccW8xQ8v.s 			page 35


 1939              	.LVUS8:
 1940 0185 00       		.uleb128 0
 1941 0186 00       		.uleb128 .LVU116
 1942 0187 00       		.uleb128 .LVU116
 1943 0188 00       		.uleb128 0
 1944              	.LLST8:
 1945 0189 00000000 		.4byte	.LVL15
 1946 018d 06000000 		.4byte	.LVL16
 1947 0191 0100     		.2byte	0x1
 1948 0193 50       		.byte	0x50
 1949 0194 06000000 		.4byte	.LVL16
 1950 0198 12000000 		.4byte	.LFE7
 1951 019c 0400     		.2byte	0x4
 1952 019e F3       		.byte	0xf3
 1953 019f 01       		.uleb128 0x1
 1954 01a0 50       		.byte	0x50
 1955 01a1 9F       		.byte	0x9f
 1956 01a2 00000000 		.4byte	0
 1957 01a6 00000000 		.4byte	0
 1958              	.LVUS9:
 1959 01aa 00       		.uleb128 .LVU117
 1960 01ab 00       		.uleb128 .LVU121
 1961 01ac 00       		.uleb128 .LVU121
 1962 01ad 00       		.uleb128 0
 1963              	.LLST9:
 1964 01ae 08000000 		.4byte	.LVL17
 1965 01b2 10000000 		.4byte	.LVL18
 1966 01b6 0800     		.2byte	0x8
 1967 01b8 70       		.byte	0x70
 1968 01b9 00       		.sleb128 0
 1969 01ba 38       		.byte	0x38
 1970 01bb 24       		.byte	0x24
 1971 01bc 72       		.byte	0x72
 1972 01bd 00       		.sleb128 0
 1973 01be 21       		.byte	0x21
 1974 01bf 9F       		.byte	0x9f
 1975 01c0 10000000 		.4byte	.LVL18
 1976 01c4 12000000 		.4byte	.LFE7
 1977 01c8 0100     		.2byte	0x1
 1978 01ca 50       		.byte	0x50
 1979 01cb 00000000 		.4byte	0
 1980 01cf 00000000 		.4byte	0
 1981              	.LVUS4:
 1982 01d3 00       		.uleb128 0
 1983 01d4 00       		.uleb128 .LVU94
 1984 01d5 00       		.uleb128 .LVU94
 1985 01d6 00       		.uleb128 0
 1986              	.LLST4:
 1987 01d7 00000000 		.4byte	.LVL8
 1988 01db 04000000 		.4byte	.LVL9
 1989 01df 0200     		.2byte	0x2
 1990 01e1 90       		.byte	0x90
 1991 01e2 41       		.uleb128 0x41
 1992 01e3 04000000 		.4byte	.LVL9
 1993 01e7 12000000 		.4byte	.LFE5
 1994 01eb 0600     		.2byte	0x6
 1995 01ed F3       		.byte	0xf3
ARM GAS  C:\Users\USER\AppData\Local\Temp\ccW8xQ8v.s 			page 36


 1996 01ee 03       		.uleb128 0x3
 1997 01ef F5       		.byte	0xf5
 1998 01f0 41       		.uleb128 0x41
 1999 01f1 25       		.uleb128 0x25
 2000 01f2 9F       		.byte	0x9f
 2001 01f3 00000000 		.4byte	0
 2002 01f7 00000000 		.4byte	0
 2003              	.LVUS5:
 2004 01fb 00       		.uleb128 0
 2005 01fc 00       		.uleb128 .LVU95
 2006 01fd 00       		.uleb128 .LVU95
 2007 01fe 00       		.uleb128 0
 2008              	.LLST5:
 2009 01ff 00000000 		.4byte	.LVL8
 2010 0203 0E000000 		.4byte	.LVL10
 2011 0207 0100     		.2byte	0x1
 2012 0209 51       		.byte	0x51
 2013 020a 0E000000 		.4byte	.LVL10
 2014 020e 12000000 		.4byte	.LFE5
 2015 0212 0100     		.2byte	0x1
 2016 0214 52       		.byte	0x52
 2017 0215 00000000 		.4byte	0
 2018 0219 00000000 		.4byte	0
 2019              	.LVUS0:
 2020 021d 00       		.uleb128 0
 2021 021e 00       		.uleb128 .LVU75
 2022 021f 00       		.uleb128 .LVU75
 2023 0220 00       		.uleb128 0
 2024              	.LLST0:
 2025 0221 00000000 		.4byte	.LVL4
 2026 0225 04000000 		.4byte	.LVL5
 2027 0229 0200     		.2byte	0x2
 2028 022b 90       		.byte	0x90
 2029 022c 41       		.uleb128 0x41
 2030 022d 04000000 		.4byte	.LVL5
 2031 0231 26000000 		.4byte	.LFE4
 2032 0235 0600     		.2byte	0x6
 2033 0237 F3       		.byte	0xf3
 2034 0238 03       		.uleb128 0x3
 2035 0239 F5       		.byte	0xf5
 2036 023a 41       		.uleb128 0x41
 2037 023b 25       		.uleb128 0x25
 2038 023c 9F       		.byte	0x9f
 2039 023d 00000000 		.4byte	0
 2040 0241 00000000 		.4byte	0
 2041              	.LVUS1:
 2042 0245 00       		.uleb128 .LVU79
 2043 0246 00       		.uleb128 .LVU89
 2044              	.LLST1:
 2045 0247 12000000 		.4byte	.LVL6
 2046 024b 22000000 		.4byte	.LVL7
 2047 024f 0100     		.2byte	0x1
 2048 0251 51       		.byte	0x51
 2049 0252 00000000 		.4byte	0
 2050 0256 00000000 		.4byte	0
 2051              	.LVUS2:
 2052 025a 00       		.uleb128 .LVU79
ARM GAS  C:\Users\USER\AppData\Local\Temp\ccW8xQ8v.s 			page 37


 2053 025b 00       		.uleb128 .LVU89
 2054              	.LLST2:
 2055 025c 12000000 		.4byte	.LVL6
 2056 0260 22000000 		.4byte	.LVL7
 2057 0264 0100     		.2byte	0x1
 2058 0266 53       		.byte	0x53
 2059 0267 00000000 		.4byte	0
 2060 026b 00000000 		.4byte	0
 2061              	.LVUS3:
 2062 026f 00       		.uleb128 .LVU79
 2063 0270 00       		.uleb128 .LVU89
 2064              	.LLST3:
 2065 0271 12000000 		.4byte	.LVL6
 2066 0275 22000000 		.4byte	.LVL7
 2067 0279 0100     		.2byte	0x1
 2068 027b 50       		.byte	0x50
 2069 027c 00000000 		.4byte	0
 2070 0280 00000000 		.4byte	0
 2071              	.LVUS6:
 2072 0284 00       		.uleb128 0
 2073 0285 00       		.uleb128 .LVU103
 2074 0286 00       		.uleb128 .LVU103
 2075 0287 00       		.uleb128 0
 2076              	.LLST6:
 2077 0288 00000000 		.4byte	.LVL12
 2078 028c 0A000000 		.4byte	.LVL13
 2079 0290 0100     		.2byte	0x1
 2080 0292 50       		.byte	0x50
 2081 0293 0A000000 		.4byte	.LVL13
 2082 0297 1A000000 		.4byte	.LFE6
 2083 029b 0400     		.2byte	0x4
 2084 029d F3       		.byte	0xf3
 2085 029e 01       		.uleb128 0x1
 2086 029f 50       		.byte	0x50
 2087 02a0 9F       		.byte	0x9f
 2088 02a1 00000000 		.4byte	0
 2089 02a5 00000000 		.4byte	0
 2090              	.LVUS7:
 2091 02a9 00       		.uleb128 .LVU106
 2092 02aa 00       		.uleb128 0
 2093              	.LLST7:
 2094 02ab 14000000 		.4byte	.LVL14
 2095 02af 1A000000 		.4byte	.LFE6
 2096 02b3 0100     		.2byte	0x1
 2097 02b5 50       		.byte	0x50
 2098 02b6 00000000 		.4byte	0
 2099 02ba 00000000 		.4byte	0
 2100              		.section	.debug_aranges,"",%progbits
 2101 0000 74000000 		.4byte	0x74
 2102 0004 0200     		.2byte	0x2
 2103 0006 00000000 		.4byte	.Ldebug_info0
 2104 000a 04       		.byte	0x4
 2105 000b 00       		.byte	0
 2106 000c 0000     		.2byte	0
 2107 000e 0000     		.2byte	0
 2108 0010 00000000 		.4byte	.LFB0
 2109 0014 18000000 		.4byte	.LFE0-.LFB0
ARM GAS  C:\Users\USER\AppData\Local\Temp\ccW8xQ8v.s 			page 38


 2110 0018 00000000 		.4byte	.LFB1
 2111 001c 18000000 		.4byte	.LFE1-.LFB1
 2112 0020 00000000 		.4byte	.LFB2
 2113 0024 2C000000 		.4byte	.LFE2-.LFB2
 2114 0028 00000000 		.4byte	.LFB3
 2115 002c 2C000000 		.4byte	.LFE3-.LFB3
 2116 0030 00000000 		.4byte	.LFB4
 2117 0034 26000000 		.4byte	.LFE4-.LFB4
 2118 0038 00000000 		.4byte	.LFB5
 2119 003c 12000000 		.4byte	.LFE5-.LFB5
 2120 0040 00000000 		.4byte	.LFB6
 2121 0044 1A000000 		.4byte	.LFE6-.LFB6
 2122 0048 00000000 		.4byte	.LFB7
 2123 004c 12000000 		.4byte	.LFE7-.LFB7
 2124 0050 00000000 		.4byte	.LFB8
 2125 0054 22000000 		.4byte	.LFE8-.LFB8
 2126 0058 00000000 		.4byte	.LFB9
 2127 005c 22000000 		.4byte	.LFE9-.LFB9
 2128 0060 00000000 		.4byte	.LFB10
 2129 0064 20000000 		.4byte	.LFE10-.LFB10
 2130 0068 00000000 		.4byte	.LFB11
 2131 006c 14000000 		.4byte	.LFE11-.LFB11
 2132 0070 00000000 		.4byte	0
 2133 0074 00000000 		.4byte	0
 2134              		.section	.debug_ranges,"",%progbits
 2135              	.Ldebug_ranges0:
 2136 0000 04000000 		.4byte	.LBB6
 2137 0004 06000000 		.4byte	.LBE6
 2138 0008 12000000 		.4byte	.LBB9
 2139 000c 22000000 		.4byte	.LBE9
 2140 0010 00000000 		.4byte	0
 2141 0014 00000000 		.4byte	0
 2142 0018 00000000 		.4byte	.LBB10
 2143 001c 0E000000 		.4byte	.LBE10
 2144 0020 16000000 		.4byte	.LBB13
 2145 0024 1A000000 		.4byte	.LBE13
 2146 0028 00000000 		.4byte	0
 2147 002c 00000000 		.4byte	0
 2148 0030 00000000 		.4byte	.LFB0
 2149 0034 18000000 		.4byte	.LFE0
 2150 0038 00000000 		.4byte	.LFB1
 2151 003c 18000000 		.4byte	.LFE1
 2152 0040 00000000 		.4byte	.LFB2
 2153 0044 2C000000 		.4byte	.LFE2
 2154 0048 00000000 		.4byte	.LFB3
 2155 004c 2C000000 		.4byte	.LFE3
 2156 0050 00000000 		.4byte	.LFB4
 2157 0054 26000000 		.4byte	.LFE4
 2158 0058 00000000 		.4byte	.LFB5
 2159 005c 12000000 		.4byte	.LFE5
 2160 0060 00000000 		.4byte	.LFB6
 2161 0064 1A000000 		.4byte	.LFE6
 2162 0068 00000000 		.4byte	.LFB7
 2163 006c 12000000 		.4byte	.LFE7
 2164 0070 00000000 		.4byte	.LFB8
 2165 0074 22000000 		.4byte	.LFE8
 2166 0078 00000000 		.4byte	.LFB9
ARM GAS  C:\Users\USER\AppData\Local\Temp\ccW8xQ8v.s 			page 39


 2167 007c 22000000 		.4byte	.LFE9
 2168 0080 00000000 		.4byte	.LFB10
 2169 0084 20000000 		.4byte	.LFE10
 2170 0088 00000000 		.4byte	.LFB11
 2171 008c 14000000 		.4byte	.LFE11
 2172 0090 00000000 		.4byte	0
 2173 0094 00000000 		.4byte	0
 2174              		.section	.debug_line,"",%progbits
 2175              	.Ldebug_line0:
 2176 0000 F3030000 		.section	.debug_str,"MS",%progbits,1
 2176      0300FD00 
 2176      00000201 
 2176      FB0E0D00 
 2176      01010101 
 2177              	.LASF3:
 2178 0000 5F5F7569 		.ascii	"__uint8_t\000"
 2178      6E74385F 
 2178      7400
 2179              	.LASF27:
 2180 000a 62756666 		.ascii	"buffer_get_uint16\000"
 2180      65725F67 
 2180      65745F75 
 2180      696E7431 
 2180      3600
 2181              	.LASF4:
 2182 001c 5F5F696E 		.ascii	"__int16_t\000"
 2182      7431365F 
 2182      7400
 2183              	.LASF8:
 2184 0026 5F5F696E 		.ascii	"__int32_t\000"
 2184      7433325F 
 2184      7400
 2185              	.LASF33:
 2186 0030 62756666 		.ascii	"buffer_append_uint16\000"
 2186      65725F61 
 2186      7070656E 
 2186      645F7569 
 2186      6E743136 
 2187              	.LASF31:
 2188 0045 62756666 		.ascii	"buffer_append_uint32\000"
 2188      65725F61 
 2188      7070656E 
 2188      645F7569 
 2188      6E743332 
 2189              	.LASF36:
 2190 005a 443A5C67 		.ascii	"D:\\git\\oroca_bldc_dev\\oroca_bldc_FW\\oroca_bldc_"
 2190      69745C6F 
 2190      726F6361 
 2190      5F626C64 
 2190      635F6465 
 2191 0089 63686962 		.ascii	"chibios\000"
 2191      696F7300 
 2192              	.LASF34:
 2193 0091 474E5520 		.ascii	"GNU C99 8.2.1 20181213 (release) [gcc-8-branch revi"
 2193      43393920 
 2193      382E322E 
 2193      31203230 
ARM GAS  C:\Users\USER\AppData\Local\Temp\ccW8xQ8v.s 			page 40


 2193      31383132 
 2194 00c4 73696F6E 		.ascii	"sion 267074] -mcpu=cortex-m4 -mfloat-abi=hard -mfpu"
 2194      20323637 
 2194      3037345D 
 2194      202D6D63 
 2194      70753D63 
 2195 00f7 3D667076 		.ascii	"=fpv4-sp-d16 -mno-thumb-interwork -mthumb -march=ar"
 2195      342D7370 
 2195      2D643136 
 2195      202D6D6E 
 2195      6F2D7468 
 2196 012a 6D763765 		.ascii	"mv7e-m+fp -ggdb -O2 -std=gnu99 -fomit-frame-pointer"
 2196      2D6D2B66 
 2196      70202D67 
 2196      67646220 
 2196      2D4F3220 
 2197 015d 202D6661 		.ascii	" -falign-functions=16 -ffunction-sections -fdata-se"
 2197      6C69676E 
 2197      2D66756E 
 2197      6374696F 
 2197      6E733D31 
 2198 0190 6374696F 		.ascii	"ctions -fno-common -fsingle-precision-constant\000"
 2198      6E73202D 
 2198      666E6F2D 
 2198      636F6D6D 
 2198      6F6E202D 
 2199              	.LASF21:
 2200 01bf 7363616C 		.ascii	"scale\000"
 2200      6500
 2201              	.LASF38:
 2202 01c5 62756666 		.ascii	"buffer_append_int16\000"
 2202      65725F61 
 2202      7070656E 
 2202      645F696E 
 2202      74313600 
 2203              	.LASF0:
 2204 01d9 666C6F61 		.ascii	"float\000"
 2204      7400
 2205              	.LASF37:
 2206 01df 62756666 		.ascii	"buffer_get_int16\000"
 2206      65725F67 
 2206      65745F69 
 2206      6E743136 
 2206      00
 2207              	.LASF1:
 2208 01f0 7369676E 		.ascii	"signed char\000"
 2208      65642063 
 2208      68617200 
 2209              	.LASF26:
 2210 01fc 62756666 		.ascii	"buffer_get_int32\000"
 2210      65725F67 
 2210      65745F69 
 2210      6E743332 
 2210      00
 2211              	.LASF2:
 2212 020d 756E7369 		.ascii	"unsigned char\000"
 2212      676E6564 
ARM GAS  C:\Users\USER\AppData\Local\Temp\ccW8xQ8v.s 			page 41


 2212      20636861 
 2212      7200
 2213              	.LASF11:
 2214 021b 6C6F6E67 		.ascii	"long unsigned int\000"
 2214      20756E73 
 2214      69676E65 
 2214      6420696E 
 2214      7400
 2215              	.LASF7:
 2216 022d 73686F72 		.ascii	"short unsigned int\000"
 2216      7420756E 
 2216      7369676E 
 2216      65642069 
 2216      6E7400
 2217              	.LASF30:
 2218 0240 62756666 		.ascii	"buffer_append_float16\000"
 2218      65725F61 
 2218      7070656E 
 2218      645F666C 
 2218      6F617431 
 2219              	.LASF6:
 2220 0256 5F5F7569 		.ascii	"__uint16_t\000"
 2220      6E743136 
 2220      5F7400
 2221              	.LASF29:
 2222 0261 62756666 		.ascii	"buffer_append_float32\000"
 2222      65725F61 
 2222      7070656E 
 2222      645F666C 
 2222      6F617433 
 2223              	.LASF10:
 2224 0277 5F5F7569 		.ascii	"__uint32_t\000"
 2224      6E743332 
 2224      5F7400
 2225              	.LASF14:
 2226 0282 756E7369 		.ascii	"unsigned int\000"
 2226      676E6564 
 2226      20696E74 
 2226      00
 2227              	.LASF23:
 2228 028f 62756666 		.ascii	"buffer_get_float16\000"
 2228      65725F67 
 2228      65745F66 
 2228      6C6F6174 
 2228      313600
 2229              	.LASF13:
 2230 02a2 6C6F6E67 		.ascii	"long long unsigned int\000"
 2230      206C6F6E 
 2230      6720756E 
 2230      7369676E 
 2230      65642069 
 2231              	.LASF15:
 2232 02b9 75696E74 		.ascii	"uint8_t\000"
 2232      385F7400 
 2233              	.LASF22:
 2234 02c1 62756666 		.ascii	"buffer_get_float32\000"
 2234      65725F67 
ARM GAS  C:\Users\USER\AppData\Local\Temp\ccW8xQ8v.s 			page 42


 2234      65745F66 
 2234      6C6F6174 
 2234      333200
 2235              	.LASF16:
 2236 02d4 696E7431 		.ascii	"int16_t\000"
 2236      365F7400 
 2237              	.LASF28:
 2238 02dc 6E756D62 		.ascii	"number\000"
 2238      657200
 2239              	.LASF18:
 2240 02e3 696E7433 		.ascii	"int32_t\000"
 2240      325F7400 
 2241              	.LASF32:
 2242 02eb 62756666 		.ascii	"buffer_append_int32\000"
 2242      65725F61 
 2242      7070656E 
 2242      645F696E 
 2242      74333200 
 2243              	.LASF12:
 2244 02ff 6C6F6E67 		.ascii	"long long int\000"
 2244      206C6F6E 
 2244      6720696E 
 2244      7400
 2245              	.LASF24:
 2246 030d 696E6465 		.ascii	"index\000"
 2246      7800
 2247              	.LASF5:
 2248 0313 73686F72 		.ascii	"short int\000"
 2248      7420696E 
 2248      7400
 2249              	.LASF20:
 2250 031d 62756666 		.ascii	"buffer\000"
 2250      657200
 2251              	.LASF17:
 2252 0324 75696E74 		.ascii	"uint16_t\000"
 2252      31365F74 
 2252      00
 2253              	.LASF19:
 2254 032d 75696E74 		.ascii	"uint32_t\000"
 2254      33325F74 
 2254      00
 2255              	.LASF9:
 2256 0336 6C6F6E67 		.ascii	"long int\000"
 2256      20696E74 
 2256      00
 2257              	.LASF35:
 2258 033f 7372632F 		.ascii	"src/core/buffer.c\000"
 2258      636F7265 
 2258      2F627566 
 2258      6665722E 
 2258      6300
 2259              	.LASF25:
 2260 0351 62756666 		.ascii	"buffer_get_uint32\000"
 2260      65725F67 
 2260      65745F75 
 2260      696E7433 
 2260      3200
ARM GAS  C:\Users\USER\AppData\Local\Temp\ccW8xQ8v.s 			page 43


 2261              		.ident	"GCC: (GNU Tools for Arm Embedded Processors 8-2018-q4-major) 8.2.1 20181213 (release) [gcc
ARM GAS  C:\Users\USER\AppData\Local\Temp\ccW8xQ8v.s 			page 44


DEFINED SYMBOLS
                            *ABS*:00000000 buffer.c
C:\Users\USER\AppData\Local\Temp\ccW8xQ8v.s:18     .text.buffer_append_int16:00000000 $t
C:\Users\USER\AppData\Local\Temp\ccW8xQ8v.s:27     .text.buffer_append_int16:00000000 buffer_append_int16
C:\Users\USER\AppData\Local\Temp\ccW8xQ8v.s:70     .text.buffer_append_uint16:00000000 $t
C:\Users\USER\AppData\Local\Temp\ccW8xQ8v.s:78     .text.buffer_append_uint16:00000000 buffer_append_uint16
C:\Users\USER\AppData\Local\Temp\ccW8xQ8v.s:120    .text.buffer_append_int32:00000000 $t
C:\Users\USER\AppData\Local\Temp\ccW8xQ8v.s:128    .text.buffer_append_int32:00000000 buffer_append_int32
C:\Users\USER\AppData\Local\Temp\ccW8xQ8v.s:190    .text.buffer_append_uint32:00000000 $t
C:\Users\USER\AppData\Local\Temp\ccW8xQ8v.s:198    .text.buffer_append_uint32:00000000 buffer_append_uint32
C:\Users\USER\AppData\Local\Temp\ccW8xQ8v.s:260    .text.buffer_append_float16:00000000 $t
C:\Users\USER\AppData\Local\Temp\ccW8xQ8v.s:268    .text.buffer_append_float16:00000000 buffer_append_float16
C:\Users\USER\AppData\Local\Temp\ccW8xQ8v.s:332    .text.buffer_append_float32:00000000 $t
C:\Users\USER\AppData\Local\Temp\ccW8xQ8v.s:340    .text.buffer_append_float32:00000000 buffer_append_float32
C:\Users\USER\AppData\Local\Temp\ccW8xQ8v.s:364    .text.buffer_get_int16:00000000 $t
C:\Users\USER\AppData\Local\Temp\ccW8xQ8v.s:372    .text.buffer_get_int16:00000000 buffer_get_int16
C:\Users\USER\AppData\Local\Temp\ccW8xQ8v.s:415    .text.buffer_get_uint16:00000000 $t
C:\Users\USER\AppData\Local\Temp\ccW8xQ8v.s:423    .text.buffer_get_uint16:00000000 buffer_get_uint16
C:\Users\USER\AppData\Local\Temp\ccW8xQ8v.s:456    .text.buffer_get_int32:00000000 $t
C:\Users\USER\AppData\Local\Temp\ccW8xQ8v.s:464    .text.buffer_get_int32:00000000 buffer_get_int32
C:\Users\USER\AppData\Local\Temp\ccW8xQ8v.s:516    .text.buffer_get_uint32:00000000 $t
C:\Users\USER\AppData\Local\Temp\ccW8xQ8v.s:524    .text.buffer_get_uint32:00000000 buffer_get_uint32
C:\Users\USER\AppData\Local\Temp\ccW8xQ8v.s:576    .text.buffer_get_float16:00000000 $t
C:\Users\USER\AppData\Local\Temp\ccW8xQ8v.s:584    .text.buffer_get_float16:00000000 buffer_get_float16
C:\Users\USER\AppData\Local\Temp\ccW8xQ8v.s:636    .text.buffer_get_float32:00000000 $t
C:\Users\USER\AppData\Local\Temp\ccW8xQ8v.s:644    .text.buffer_get_float32:00000000 buffer_get_float32

NO UNDEFINED SYMBOLS
