ARM GAS  C:\Users\USER\AppData\Local\Temp\ccW8xQ8v.s 			page 1


   1              		.cpu cortex-m4
   2              		.eabi_attribute 27, 1
   3              		.eabi_attribute 28, 1
   4              		.eabi_attribute 20, 1
   5              		.eabi_attribute 21, 1
   6              		.eabi_attribute 23, 3
   7              		.eabi_attribute 24, 1
   8              		.eabi_attribute 25, 1
   9              		.eabi_attribute 26, 1
  10              		.eabi_attribute 30, 2
  11              		.eabi_attribute 34, 1
  12              		.eabi_attribute 18, 4
  13              		.file	"buffer.c"
  14              		.text
  15              	.Ltext0:
  16              		.cfi_sections	.debug_frame
  17              		.section	.text.buffer_append_int16,"ax",%progbits
  18              		.align	1
  19              		.p2align 4,,15
  20              		.global	buffer_append_int16
  21              		.arch armv7e-m
  22              		.syntax unified
  23              		.thumb
  24              		.thumb_func
  25              		.fpu fpv4-sp-d16
  26              		.type	buffer_append_int16, %function
  27              	buffer_append_int16:
  28              	.LVL0:
  29              	.LFB0:
  30              		.file 1 "src/core/buffer.c"
  31              		.loc 1 27 75 view -0
  32              		.cfi_startproc
  33              		@ args = 0, pretend = 0, frame = 0
  34              		@ frame_needed = 0, uses_anonymous_args = 0
  35              		@ link register save eliminated.
  36              		.loc 1 28 2 view .LVU1
  37              		.loc 1 28 10 is_stmt 0 view .LVU2
  38 0000 1368     		ldr	r3, [r2]
  39              		.loc 1 27 75 view .LVU3
  40 0002 30B4     		push	{r4, r5}
  41              		.cfi_def_cfa_offset 8
  42              		.cfi_offset 4, -8
  43              		.cfi_offset 5, -4
  44              		.loc 1 28 17 view .LVU4
  45 0004 5D1C     		adds	r5, r3, #1
  46              		.loc 1 28 21 view .LVU5
  47 0006 0C12     		asrs	r4, r1, #8
  48              		.loc 1 28 17 view .LVU6
  49 0008 1560     		str	r5, [r2]
  50              		.loc 1 28 21 view .LVU7
  51 000a C454     		strb	r4, [r0, r3]
  52              		.loc 1 29 2 is_stmt 1 view .LVU8
  53              		.loc 1 29 10 is_stmt 0 view .LVU9
  54 000c 1368     		ldr	r3, [r2]
  55              		.loc 1 29 17 view .LVU10
  56 000e 5C1C     		adds	r4, r3, #1
  57 0010 1460     		str	r4, [r2]
ARM GAS  C:\Users\USER\AppData\Local\Temp\ccW8xQ8v.s 			page 2


  58              		.loc 1 29 21 view .LVU11
  59 0012 C154     		strb	r1, [r0, r3]
  60              		.loc 1 30 1 view .LVU12
  61 0014 30BC     		pop	{r4, r5}
  62              		.cfi_restore 5
  63              		.cfi_restore 4
  64              		.cfi_def_cfa_offset 0
  65 0016 7047     		bx	lr
  66              		.cfi_endproc
  67              	.LFE0:
  68              		.size	buffer_append_int16, .-buffer_append_int16
  69              		.section	.text.buffer_append_uint16,"ax",%progbits
  70              		.align	1
  71              		.p2align 4,,15
  72              		.global	buffer_append_uint16
  73              		.syntax unified
  74              		.thumb
  75              		.thumb_func
  76              		.fpu fpv4-sp-d16
  77              		.type	buffer_append_uint16, %function
  78              	buffer_append_uint16:
  79              	.LVL1:
  80              	.LFB1:
  81              		.loc 1 32 77 is_stmt 1 view -0
  82              		.cfi_startproc
  83              		@ args = 0, pretend = 0, frame = 0
  84              		@ frame_needed = 0, uses_anonymous_args = 0
  85              		@ link register save eliminated.
  86              		.loc 1 33 2 view .LVU14
  87              		.loc 1 33 10 is_stmt 0 view .LVU15
  88 0000 1368     		ldr	r3, [r2]
  89              		.loc 1 32 77 view .LVU16
  90 0002 30B4     		push	{r4, r5}
  91              		.cfi_def_cfa_offset 8
  92              		.cfi_offset 4, -8
  93              		.cfi_offset 5, -4
  94              		.loc 1 33 17 view .LVU17
  95 0004 5D1C     		adds	r5, r3, #1
  96              		.loc 1 33 21 view .LVU18
  97 0006 0C0A     		lsrs	r4, r1, #8
  98              		.loc 1 33 17 view .LVU19
  99 0008 1560     		str	r5, [r2]
 100              		.loc 1 33 21 view .LVU20
 101 000a C454     		strb	r4, [r0, r3]
 102              		.loc 1 34 2 is_stmt 1 view .LVU21
 103              		.loc 1 34 10 is_stmt 0 view .LVU22
 104 000c 1368     		ldr	r3, [r2]
 105              		.loc 1 34 17 view .LVU23
 106 000e 5C1C     		adds	r4, r3, #1
 107 0010 1460     		str	r4, [r2]
 108              		.loc 1 34 21 view .LVU24
 109 0012 C154     		strb	r1, [r0, r3]
 110              		.loc 1 35 1 view .LVU25
 111 0014 30BC     		pop	{r4, r5}
 112              		.cfi_restore 5
 113              		.cfi_restore 4
 114              		.cfi_def_cfa_offset 0
ARM GAS  C:\Users\USER\AppData\Local\Temp\ccW8xQ8v.s 			page 3


 115 0016 7047     		bx	lr
 116              		.cfi_endproc
 117              	.LFE1:
 118              		.size	buffer_append_uint16, .-buffer_append_uint16
 119              		.section	.text.buffer_append_int32,"ax",%progbits
 120              		.align	1
 121              		.p2align 4,,15
 122              		.global	buffer_append_int32
 123              		.syntax unified
 124              		.thumb
 125              		.thumb_func
 126              		.fpu fpv4-sp-d16
 127              		.type	buffer_append_int32, %function
 128              	buffer_append_int32:
 129              	.LVL2:
 130              	.LFB2:
 131              		.loc 1 37 75 is_stmt 1 view -0
 132              		.cfi_startproc
 133              		@ args = 0, pretend = 0, frame = 0
 134              		@ frame_needed = 0, uses_anonymous_args = 0
 135              		@ link register save eliminated.
 136              		.loc 1 38 2 view .LVU27
 137              		.loc 1 38 10 is_stmt 0 view .LVU28
 138 0000 1368     		ldr	r3, [r2]
 139              		.loc 1 37 75 view .LVU29
 140 0002 30B4     		push	{r4, r5}
 141              		.cfi_def_cfa_offset 8
 142              		.cfi_offset 4, -8
 143              		.cfi_offset 5, -4
 144              		.loc 1 38 17 view .LVU30
 145 0004 5D1C     		adds	r5, r3, #1
 146              		.loc 1 38 30 view .LVU31
 147 0006 0C16     		asrs	r4, r1, #24
 148              		.loc 1 38 17 view .LVU32
 149 0008 1560     		str	r5, [r2]
 150              		.loc 1 38 21 view .LVU33
 151 000a C454     		strb	r4, [r0, r3]
 152              		.loc 1 39 2 is_stmt 1 view .LVU34
 153              		.loc 1 39 10 is_stmt 0 view .LVU35
 154 000c 1368     		ldr	r3, [r2]
 155              		.loc 1 39 30 view .LVU36
 156 000e 0C14     		asrs	r4, r1, #16
 157              		.loc 1 39 17 view .LVU37
 158 0010 5D1C     		adds	r5, r3, #1
 159 0012 1560     		str	r5, [r2]
 160              		.loc 1 39 21 view .LVU38
 161 0014 C454     		strb	r4, [r0, r3]
 162              		.loc 1 40 2 is_stmt 1 view .LVU39
 163              		.loc 1 40 10 is_stmt 0 view .LVU40
 164 0016 1368     		ldr	r3, [r2]
 165              		.loc 1 40 30 view .LVU41
 166 0018 0C12     		asrs	r4, r1, #8
 167              		.loc 1 40 17 view .LVU42
 168 001a 5D1C     		adds	r5, r3, #1
 169 001c 1560     		str	r5, [r2]
 170              		.loc 1 40 21 view .LVU43
 171 001e C454     		strb	r4, [r0, r3]
ARM GAS  C:\Users\USER\AppData\Local\Temp\ccW8xQ8v.s 			page 4


 172              		.loc 1 41 2 is_stmt 1 view .LVU44
 173              		.loc 1 41 10 is_stmt 0 view .LVU45
 174 0020 1368     		ldr	r3, [r2]
 175              		.loc 1 41 17 view .LVU46
 176 0022 5C1C     		adds	r4, r3, #1
 177 0024 1460     		str	r4, [r2]
 178              		.loc 1 41 21 view .LVU47
 179 0026 C154     		strb	r1, [r0, r3]
 180              		.loc 1 42 1 view .LVU48
 181 0028 30BC     		pop	{r4, r5}
 182              		.cfi_restore 5
 183              		.cfi_restore 4
 184              		.cfi_def_cfa_offset 0
 185 002a 7047     		bx	lr
 186              		.cfi_endproc
 187              	.LFE2:
 188              		.size	buffer_append_int32, .-buffer_append_int32
 189              		.section	.text.buffer_append_uint32,"ax",%progbits
 190              		.align	1
 191              		.p2align 4,,15
 192              		.global	buffer_append_uint32
 193              		.syntax unified
 194              		.thumb
 195              		.thumb_func
 196              		.fpu fpv4-sp-d16
 197              		.type	buffer_append_uint32, %function
 198              	buffer_append_uint32:
 199              	.LVL3:
 200              	.LFB3:
 201              		.loc 1 44 77 is_stmt 1 view -0
 202              		.cfi_startproc
 203              		@ args = 0, pretend = 0, frame = 0
 204              		@ frame_needed = 0, uses_anonymous_args = 0
 205              		@ link register save eliminated.
 206              		.loc 1 45 2 view .LVU50
 207              		.loc 1 45 10 is_stmt 0 view .LVU51
 208 0000 1368     		ldr	r3, [r2]
 209              		.loc 1 44 77 view .LVU52
 210 0002 30B4     		push	{r4, r5}
 211              		.cfi_def_cfa_offset 8
 212              		.cfi_offset 4, -8
 213              		.cfi_offset 5, -4
 214              		.loc 1 45 17 view .LVU53
 215 0004 5D1C     		adds	r5, r3, #1
 216              		.loc 1 45 30 view .LVU54
 217 0006 0C0E     		lsrs	r4, r1, #24
 218              		.loc 1 45 17 view .LVU55
 219 0008 1560     		str	r5, [r2]
 220              		.loc 1 45 21 view .LVU56
 221 000a C454     		strb	r4, [r0, r3]
 222              		.loc 1 46 2 is_stmt 1 view .LVU57
 223              		.loc 1 46 10 is_stmt 0 view .LVU58
 224 000c 1368     		ldr	r3, [r2]
 225              		.loc 1 46 30 view .LVU59
 226 000e 0C0C     		lsrs	r4, r1, #16
 227              		.loc 1 46 17 view .LVU60
 228 0010 5D1C     		adds	r5, r3, #1
ARM GAS  C:\Users\USER\AppData\Local\Temp\ccW8xQ8v.s 			page 5


 229 0012 1560     		str	r5, [r2]
 230              		.loc 1 46 21 view .LVU61
 231 0014 C454     		strb	r4, [r0, r3]
 232              		.loc 1 47 2 is_stmt 1 view .LVU62
 233              		.loc 1 47 10 is_stmt 0 view .LVU63
 234 0016 1368     		ldr	r3, [r2]
 235              		.loc 1 47 30 view .LVU64
 236 0018 0C0A     		lsrs	r4, r1, #8
 237              		.loc 1 47 17 view .LVU65
 238 001a 5D1C     		adds	r5, r3, #1
 239 001c 1560     		str	r5, [r2]
 240              		.loc 1 47 21 view .LVU66
 241 001e C454     		strb	r4, [r0, r3]
 242              		.loc 1 48 2 is_stmt 1 view .LVU67
 243              		.loc 1 48 10 is_stmt 0 view .LVU68
 244 0020 1368     		ldr	r3, [r2]
 245              		.loc 1 48 17 view .LVU69
 246 0022 5C1C     		adds	r4, r3, #1
 247 0024 1460     		str	r4, [r2]
 248              		.loc 1 48 21 view .LVU70
 249 0026 C154     		strb	r1, [r0, r3]
 250              		.loc 1 49 1 view .LVU71
 251 0028 30BC     		pop	{r4, r5}
 252              		.cfi_restore 5
 253              		.cfi_restore 4
 254              		.cfi_def_cfa_offset 0
 255 002a 7047     		bx	lr
 256              		.cfi_endproc
 257              	.LFE3:
 258              		.size	buffer_append_uint32, .-buffer_append_uint32
 259              		.section	.text.buffer_append_float16,"ax",%progbits
 260              		.align	1
 261              		.p2align 4,,15
 262              		.global	buffer_append_float16
 263              		.syntax unified
 264              		.thumb
 265              		.thumb_func
 266              		.fpu fpv4-sp-d16
 267              		.type	buffer_append_float16, %function
 268              	buffer_append_float16:
 269              	.LVL4:
 270              	.LFB4:
 271              		.loc 1 51 88 is_stmt 1 view -0
 272              		.cfi_startproc
 273              		@ args = 0, pretend = 0, frame = 0
 274              		@ frame_needed = 0, uses_anonymous_args = 0
 275              		@ link register save eliminated.
 276              		.loc 1 52 5 view .LVU73
 277              		.loc 1 52 50 is_stmt 0 view .LVU74
 278 0000 60EE200A 		vmul.f32	s1, s0, s1
 279              	.LVL5:
 280              	.LBB6:
 281              	.LBB7:
 282              		.loc 1 28 10 view .LVU75
 283 0004 0A68     		ldr	r2, [r1]
 284              	.LBE7:
 285              	.LBE6:
ARM GAS  C:\Users\USER\AppData\Local\Temp\ccW8xQ8v.s 			page 6


 286              		.loc 1 52 5 view .LVU76
 287 0006 FDEEE00A 		vcvt.s32.f32	s1, s1
 288              		.loc 1 51 88 view .LVU77
 289 000a 30B4     		push	{r4, r5}
 290              		.cfi_def_cfa_offset 8
 291              		.cfi_offset 4, -8
 292              		.cfi_offset 5, -4
 293              		.loc 1 52 5 view .LVU78
 294 000c 10EE903A 		vmov	r3, s1	@ int
 295 0010 1BB2     		sxth	r3, r3
 296              	.LVL6:
 297              	.LBB9:
 298              	.LBI6:
 299              		.loc 1 27 6 is_stmt 1 view .LVU79
 300              	.LBB8:
 301              		.loc 1 28 2 view .LVU80
 302              		.loc 1 28 17 is_stmt 0 view .LVU81
 303 0012 551C     		adds	r5, r2, #1
 304              		.loc 1 28 21 view .LVU82
 305 0014 1C12     		asrs	r4, r3, #8
 306              		.loc 1 28 17 view .LVU83
 307 0016 0D60     		str	r5, [r1]
 308              		.loc 1 28 21 view .LVU84
 309 0018 8454     		strb	r4, [r0, r2]
 310              		.loc 1 29 2 is_stmt 1 view .LVU85
 311              		.loc 1 29 10 is_stmt 0 view .LVU86
 312 001a 0A68     		ldr	r2, [r1]
 313              		.loc 1 29 17 view .LVU87
 314 001c 541C     		adds	r4, r2, #1
 315 001e 0C60     		str	r4, [r1]
 316              		.loc 1 29 21 view .LVU88
 317 0020 8354     		strb	r3, [r0, r2]
 318              	.LVL7:
 319              		.loc 1 29 21 view .LVU89
 320              	.LBE8:
 321              	.LBE9:
 322              		.loc 1 53 1 view .LVU90
 323 0022 30BC     		pop	{r4, r5}
 324              		.cfi_restore 5
 325              		.cfi_restore 4
 326              		.cfi_def_cfa_offset 0
 327 0024 7047     		bx	lr
 328              		.cfi_endproc
 329              	.LFE4:
 330              		.size	buffer_append_float16, .-buffer_append_float16
 331 0026 00BF     		.section	.text.buffer_append_float32,"ax",%progbits
 332              		.align	1
 333              		.p2align 4,,15
 334              		.global	buffer_append_float32
 335              		.syntax unified
 336              		.thumb
 337              		.thumb_func
 338              		.fpu fpv4-sp-d16
 339              		.type	buffer_append_float32, %function
 340              	buffer_append_float32:
 341              	.LVL8:
 342              	.LFB5:
ARM GAS  C:\Users\USER\AppData\Local\Temp\ccW8xQ8v.s 			page 7


 343              		.loc 1 55 88 is_stmt 1 view -0
 344              		.cfi_startproc
 345              		@ args = 0, pretend = 0, frame = 0
 346              		@ frame_needed = 0, uses_anonymous_args = 0
 347              		@ link register save eliminated.
 348              		.loc 1 56 5 view .LVU92
 349              		.loc 1 56 50 is_stmt 0 view .LVU93
 350 0000 60EE200A 		vmul.f32	s1, s0, s1
 351              	.LVL9:
 352              		.loc 1 56 5 view .LVU94
 353 0004 0A46     		mov	r2, r1
 354 0006 FDEEE07A 		vcvt.s32.f32	s15, s1
 355 000a 17EE901A 		vmov	r1, s15	@ int
 356              	.LVL10:
 357              		.loc 1 56 5 view .LVU95
 358 000e FFF7FEBF 		b	buffer_append_int32
 359              	.LVL11:
 360              		.cfi_endproc
 361              	.LFE5:
 362              		.size	buffer_append_float32, .-buffer_append_float32
 363 0012 00BF     		.section	.text.buffer_get_int16,"ax",%progbits
 364              		.align	1
 365              		.p2align 4,,15
 366              		.global	buffer_get_int16
 367              		.syntax unified
 368              		.thumb
 369              		.thumb_func
 370              		.fpu fpv4-sp-d16
 371              		.type	buffer_get_int16, %function
 372              	buffer_get_int16:
 373              	.LVL12:
 374              	.LFB6:
 375              		.loc 1 59 65 is_stmt 1 view -0
 376              		.cfi_startproc
 377              		@ args = 0, pretend = 0, frame = 0
 378              		@ frame_needed = 0, uses_anonymous_args = 0
 379              		@ link register save eliminated.
 380              		.loc 1 60 2 view .LVU97
 381              		.loc 1 59 65 is_stmt 0 view .LVU98
 382 0000 10B4     		push	{r4}
 383              		.cfi_def_cfa_offset 4
 384              		.cfi_offset 4, -4
 385              		.loc 1 60 35 view .LVU99
 386 0002 0B68     		ldr	r3, [r1]
 387              		.loc 1 61 24 view .LVU100
 388 0004 C418     		adds	r4, r0, r3
 389              		.loc 1 60 17 view .LVU101
 390 0006 C25C     		ldrb	r2, [r0, r3]	@ zero_extendqisi2
 391              		.loc 1 61 24 view .LVU102
 392 0008 6078     		ldrb	r0, [r4, #1]	@ zero_extendqisi2
 393              	.LVL13:
 394              		.loc 1 64 1 view .LVU103
 395 000a 5DF8044B 		ldr	r4, [sp], #4
 396              		.cfi_restore 4
 397              		.cfi_def_cfa_offset 0
 398              		.loc 1 62 9 view .LVU104
 399 000e 0233     		adds	r3, r3, #2
ARM GAS  C:\Users\USER\AppData\Local\Temp\ccW8xQ8v.s 			page 8


 400              		.loc 1 60 10 view .LVU105
 401 0010 40EA0220 		orr	r0, r0, r2, lsl #8
 402              	.LVL14:
 403              		.loc 1 62 2 is_stmt 1 view .LVU106
 404              		.loc 1 64 1 is_stmt 0 view .LVU107
 405 0014 00B2     		sxth	r0, r0
 406              		.loc 1 62 9 view .LVU108
 407 0016 0B60     		str	r3, [r1]
 408              		.loc 1 63 2 is_stmt 1 view .LVU109
 409              		.loc 1 64 1 is_stmt 0 view .LVU110
 410 0018 7047     		bx	lr
 411              		.cfi_endproc
 412              	.LFE6:
 413              		.size	buffer_get_int16, .-buffer_get_int16
 414 001a 00BF     		.section	.text.buffer_get_uint16,"ax",%progbits
 415              		.align	1
 416              		.p2align 4,,15
 417              		.global	buffer_get_uint16
 418              		.syntax unified
 419              		.thumb
 420              		.thumb_func
 421              		.fpu fpv4-sp-d16
 422              		.type	buffer_get_uint16, %function
 423              	buffer_get_uint16:
 424              	.LVL15:
 425              	.LFB7:
 426              		.loc 1 66 67 is_stmt 1 view -0
 427              		.cfi_startproc
 428              		@ args = 0, pretend = 0, frame = 0
 429              		@ frame_needed = 0, uses_anonymous_args = 0
 430              		@ link register save eliminated.
 431              		.loc 1 67 2 view .LVU112
 432              		.loc 1 67 37 is_stmt 0 view .LVU113
 433 0000 0B68     		ldr	r3, [r1]
 434              		.loc 1 68 24 view .LVU114
 435 0002 C218     		adds	r2, r0, r3
 436              		.loc 1 67 19 view .LVU115
 437 0004 C05C     		ldrb	r0, [r0, r3]	@ zero_extendqisi2
 438              	.LVL16:
 439              		.loc 1 68 24 view .LVU116
 440 0006 5278     		ldrb	r2, [r2, #1]	@ zero_extendqisi2
 441              	.LVL17:
 442              		.loc 1 69 2 is_stmt 1 view .LVU117
 443              		.loc 1 69 9 is_stmt 0 view .LVU118
 444 0008 0233     		adds	r3, r3, #2
 445 000a 0B60     		str	r3, [r1]
 446              		.loc 1 70 2 is_stmt 1 view .LVU119
 447              		.loc 1 71 1 is_stmt 0 view .LVU120
 448 000c 42EA0020 		orr	r0, r2, r0, lsl #8
 449              	.LVL18:
 450              		.loc 1 71 1 view .LVU121
 451 0010 7047     		bx	lr
 452              		.cfi_endproc
 453              	.LFE7:
 454              		.size	buffer_get_uint16, .-buffer_get_uint16
 455 0012 00BF     		.section	.text.buffer_get_int32,"ax",%progbits
 456              		.align	1
ARM GAS  C:\Users\USER\AppData\Local\Temp\ccW8xQ8v.s 			page 9


 457              		.p2align 4,,15
 458              		.global	buffer_get_int32
 459              		.syntax unified
 460              		.thumb
 461              		.thumb_func
 462              		.fpu fpv4-sp-d16
 463              		.type	buffer_get_int32, %function
 464              	buffer_get_int32:
 465              	.LVL19:
 466              	.LFB8:
 467              		.loc 1 73 65 is_stmt 1 view -0
 468              		.cfi_startproc
 469              		@ args = 0, pretend = 0, frame = 0
 470              		@ frame_needed = 0, uses_anonymous_args = 0
 471              		@ link register save eliminated.
 472              		.loc 1 74 2 view .LVU123
 473              		.loc 1 73 65 is_stmt 0 view .LVU124
 474 0000 70B4     		push	{r4, r5, r6}
 475              		.cfi_def_cfa_offset 12
 476              		.cfi_offset 4, -12
 477              		.cfi_offset 5, -8
 478              		.cfi_offset 6, -4
 479              		.loc 1 74 35 view .LVU125
 480 0002 0A68     		ldr	r2, [r1]
 481              		.loc 1 77 24 view .LVU126
 482 0004 8418     		adds	r4, r0, r2
 483              		.loc 1 74 17 view .LVU127
 484 0006 865C     		ldrb	r6, [r0, r2]	@ zero_extendqisi2
 485              		.loc 1 77 7 view .LVU128
 486 0008 E378     		ldrb	r3, [r4, #3]	@ zero_extendqisi2
 487              		.loc 1 75 7 view .LVU129
 488 000a 6578     		ldrb	r5, [r4, #1]	@ zero_extendqisi2
 489              		.loc 1 76 7 view .LVU130
 490 000c A078     		ldrb	r0, [r4, #2]	@ zero_extendqisi2
 491              	.LVL20:
 492              		.loc 1 76 43 view .LVU131
 493 000e 43EA0663 		orr	r3, r3, r6, lsl #24
 494 0012 43EA0543 		orr	r3, r3, r5, lsl #16
 495              	.LVL21:
 496              		.loc 1 78 2 is_stmt 1 view .LVU132
 497              		.loc 1 78 9 is_stmt 0 view .LVU133
 498 0016 0432     		adds	r2, r2, #4
 499              		.loc 1 80 1 view .LVU134
 500 0018 43EA0020 		orr	r0, r3, r0, lsl #8
 501              	.LVL22:
 502              		.loc 1 78 9 view .LVU135
 503 001c 0A60     		str	r2, [r1]
 504              		.loc 1 79 2 is_stmt 1 view .LVU136
 505              		.loc 1 80 1 is_stmt 0 view .LVU137
 506 001e 70BC     		pop	{r4, r5, r6}
 507              		.cfi_restore 6
 508              		.cfi_restore 5
 509              		.cfi_restore 4
 510              		.cfi_def_cfa_offset 0
 511 0020 7047     		bx	lr
 512              		.cfi_endproc
 513              	.LFE8:
ARM GAS  C:\Users\USER\AppData\Local\Temp\ccW8xQ8v.s 			page 10


 514              		.size	buffer_get_int32, .-buffer_get_int32
 515 0022 00BF     		.section	.text.buffer_get_uint32,"ax",%progbits
 516              		.align	1
 517              		.p2align 4,,15
 518              		.global	buffer_get_uint32
 519              		.syntax unified
 520              		.thumb
 521              		.thumb_func
 522              		.fpu fpv4-sp-d16
 523              		.type	buffer_get_uint32, %function
 524              	buffer_get_uint32:
 525              	.LVL23:
 526              	.LFB9:
 527              		.loc 1 82 67 is_stmt 1 view -0
 528              		.cfi_startproc
 529              		@ args = 0, pretend = 0, frame = 0
 530              		@ frame_needed = 0, uses_anonymous_args = 0
 531              		@ link register save eliminated.
 532              		.loc 1 83 2 view .LVU139
 533              		.loc 1 82 67 is_stmt 0 view .LVU140
 534 0000 70B4     		push	{r4, r5, r6}
 535              		.cfi_def_cfa_offset 12
 536              		.cfi_offset 4, -12
 537              		.cfi_offset 5, -8
 538              		.cfi_offset 6, -4
 539              		.loc 1 83 36 view .LVU141
 540 0002 0A68     		ldr	r2, [r1]
 541              		.loc 1 86 24 view .LVU142
 542 0004 8418     		adds	r4, r0, r2
 543              		.loc 1 83 18 view .LVU143
 544 0006 865C     		ldrb	r6, [r0, r2]	@ zero_extendqisi2
 545              		.loc 1 86 7 view .LVU144
 546 0008 E378     		ldrb	r3, [r4, #3]	@ zero_extendqisi2
 547              		.loc 1 84 7 view .LVU145
 548 000a 6578     		ldrb	r5, [r4, #1]	@ zero_extendqisi2
 549              		.loc 1 85 7 view .LVU146
 550 000c A078     		ldrb	r0, [r4, #2]	@ zero_extendqisi2
 551              	.LVL24:
 552              		.loc 1 83 11 view .LVU147
 553 000e 43EA0663 		orr	r3, r3, r6, lsl #24
 554 0012 43EA0543 		orr	r3, r3, r5, lsl #16
 555              	.LVL25:
 556              		.loc 1 87 2 is_stmt 1 view .LVU148
 557              		.loc 1 87 9 is_stmt 0 view .LVU149
 558 0016 0432     		adds	r2, r2, #4
 559              		.loc 1 89 1 view .LVU150
 560 0018 43EA0020 		orr	r0, r3, r0, lsl #8
 561              	.LVL26:
 562              		.loc 1 87 9 view .LVU151
 563 001c 0A60     		str	r2, [r1]
 564              		.loc 1 88 2 is_stmt 1 view .LVU152
 565              		.loc 1 89 1 is_stmt 0 view .LVU153
 566 001e 70BC     		pop	{r4, r5, r6}
 567              		.cfi_restore 6
 568              		.cfi_restore 5
 569              		.cfi_restore 4
 570              		.cfi_def_cfa_offset 0
ARM GAS  C:\Users\USER\AppData\Local\Temp\ccW8xQ8v.s 			page 11


 571 0020 7047     		bx	lr
 572              		.cfi_endproc
 573              	.LFE9:
 574              		.size	buffer_get_uint32, .-buffer_get_uint32
 575 0022 00BF     		.section	.text.buffer_get_float16,"ax",%progbits
 576              		.align	1
 577              		.p2align 4,,15
 578              		.global	buffer_get_float16
 579              		.syntax unified
 580              		.thumb
 581              		.thumb_func
 582              		.fpu fpv4-sp-d16
 583              		.type	buffer_get_float16, %function
 584              	buffer_get_float16:
 585              	.LVL27:
 586              	.LFB10:
 587              		.loc 1 91 78 is_stmt 1 view -0
 588              		.cfi_startproc
 589              		@ args = 0, pretend = 0, frame = 0
 590              		@ frame_needed = 0, uses_anonymous_args = 0
 591              		@ link register save eliminated.
 592              		.loc 1 92 5 view .LVU155
 593              	.LBB10:
 594              	.LBI10:
 595              		.loc 1 59 9 view .LVU156
 596              	.LBB11:
 597              		.loc 1 60 2 view .LVU157
 598              		.loc 1 60 35 is_stmt 0 view .LVU158
 599 0000 0A68     		ldr	r2, [r1]
 600              		.loc 1 61 24 view .LVU159
 601 0002 8318     		adds	r3, r0, r2
 602              		.loc 1 60 17 view .LVU160
 603 0004 805C     		ldrb	r0, [r0, r2]	@ zero_extendqisi2
 604              	.LVL28:
 605              		.loc 1 61 24 view .LVU161
 606 0006 5B78     		ldrb	r3, [r3, #1]	@ zero_extendqisi2
 607              		.loc 1 60 10 view .LVU162
 608 0008 43EA0023 		orr	r3, r3, r0, lsl #8
 609 000c 1BB2     		sxth	r3, r3
 610              	.LVL29:
 611              		.loc 1 62 2 is_stmt 1 view .LVU163
 612              	.LBE11:
 613              	.LBE10:
 614              		.loc 1 92 12 is_stmt 0 view .LVU164
 615 000e 07EE903A 		vmov	s15, r3	@ int
 616 0012 F8EEE77A 		vcvt.f32.s32	s15, s15
 617              	.LBB13:
 618              	.LBB12:
 619              		.loc 1 62 9 view .LVU165
 620 0016 0232     		adds	r2, r2, #2
 621 0018 0A60     		str	r2, [r1]
 622              		.loc 1 63 2 is_stmt 1 view .LVU166
 623              	.LVL30:
 624              		.loc 1 63 2 is_stmt 0 view .LVU167
 625              	.LBE12:
 626              	.LBE13:
 627              		.loc 1 93 1 view .LVU168
ARM GAS  C:\Users\USER\AppData\Local\Temp\ccW8xQ8v.s 			page 12


 628 001a 87EE800A 		vdiv.f32	s0, s15, s0
 629              	.LVL31:
 630              		.loc 1 93 1 view .LVU169
 631 001e 7047     		bx	lr
 632              		.cfi_endproc
 633              	.LFE10:
 634              		.size	buffer_get_float16, .-buffer_get_float16
 635              		.section	.text.buffer_get_float32,"ax",%progbits
 636              		.align	1
 637              		.p2align 4,,15
 638              		.global	buffer_get_float32
 639              		.syntax unified
 640              		.thumb
 641              		.thumb_func
 642              		.fpu fpv4-sp-d16
 643              		.type	buffer_get_float32, %function
 644              	buffer_get_float32:
 645              	.LVL32:
 646              	.LFB11:
 647              		.loc 1 95 78 is_stmt 1 view -0
 648              		.cfi_startproc
 649              		@ args = 0, pretend = 0, frame = 0
 650              		@ frame_needed = 0, uses_anonymous_args = 0
 651              		.loc 1 96 5 view .LVU171
 652              		.loc 1 95 78 is_stmt 0 view .LVU172
 653 0000 08B5     		push	{r3, lr}
 654              		.cfi_def_cfa_offset 8
 655              		.cfi_offset 3, -8
 656              		.cfi_offset 14, -4
 657              		.loc 1 96 19 view .LVU173
 658 0002 FFF7FEFF 		bl	buffer_get_int32
 659              	.LVL33:
 660              		.loc 1 96 12 view .LVU174
 661 0006 07EE900A 		vmov	s15, r0	@ int
 662 000a F8EEE77A 		vcvt.f32.s32	s15, s15
 663              		.loc 1 97 1 view .LVU175
 664 000e 87EE800A 		vdiv.f32	s0, s15, s0
 665              	.LVL34:
 666              		.loc 1 97 1 view .LVU176
 667 0012 08BD     		pop	{r3, pc}
 668              		.cfi_endproc
 669              	.LFE11:
 670              		.size	buffer_get_float32, .-buffer_get_float32
 671              		.text
 672              	.Letext0:
 673              		.file 2 "c:\\program files (x86)\\gnu tools arm embedded\\8 2018-q4-major\\arm-none-eabi\\include\
 674              		.file 3 "c:\\program files (x86)\\gnu tools arm embedded\\8 2018-q4-major\\arm-none-eabi\\include\