ARM GAS  C:\Users\USER\AppData\Local\Temp\ccd0Jnpg.s 			page 1


   1              		.cpu cortex-m4
   2              		.eabi_attribute 27, 1
   3              		.eabi_attribute 28, 1
   4              		.eabi_attribute 20, 1
   5              		.eabi_attribute 21, 1
   6              		.eabi_attribute 23, 3
   7              		.eabi_attribute 24, 1
   8              		.eabi_attribute 25, 1
   9              		.eabi_attribute 26, 1
  10              		.eabi_attribute 30, 2
  11              		.eabi_attribute 34, 1
  12              		.eabi_attribute 18, 4
  13              		.file	"can.c"
  14              		.text
  15              	.Ltext0:
  16              		.cfi_sections	.debug_frame
  17              		.section	.text.canInit,"ax",%progbits
  18              		.align	1
  19              		.p2align 4,,15
  20              		.global	canInit
  21              		.arch armv7e-m
  22              		.syntax unified
  23              		.thumb
  24              		.thumb_func
  25              		.fpu fpv4-sp-d16
  26              		.type	canInit, %function
  27              	canInit:
  28              	.LFB256:
  29              		.file 1 "src/ChibiOS_3.0.2/os/hal/src/can.c"
  30              		.loc 1 56 20 view -0
  31              		.cfi_startproc
  32              		@ args = 0, pretend = 0, frame = 0
  33              		@ frame_needed = 0, uses_anonymous_args = 0
  34              		@ link register save eliminated.
  35              		.loc 1 58 3 view .LVU1
  36 0000 FFF7FEBF 		b	can_lld_init
  37              	.LVL0:
  38              		.cfi_endproc
  39              	.LFE256:
  40              		.size	canInit, .-canInit
  41              		.section	.text.canObjectInit,"ax",%progbits
  42              		.align	1
  43              		.p2align 4,,15
  44              		.global	canObjectInit
  45              		.syntax unified
  46              		.thumb
  47              		.thumb_func
  48              		.fpu fpv4-sp-d16
  49              		.type	canObjectInit, %function
  50              	canObjectInit:
  51              	.LVL1:
  52              	.LFB257:
  53              		.loc 1 68 37 view -0
  54              		.cfi_startproc
  55              		@ args = 0, pretend = 0, frame = 0
  56              		@ frame_needed = 0, uses_anonymous_args = 0
  57              		@ link register save eliminated.
ARM GAS  C:\Users\USER\AppData\Local\Temp\ccd0Jnpg.s 			page 2


  58              		.loc 1 70 3 view .LVU3
  59              		.loc 1 68 37 is_stmt 0 view .LVU4
  60 0000 30B4     		push	{r4, r5}
  61              		.cfi_def_cfa_offset 8
  62              		.cfi_offset 4, -8
  63              		.cfi_offset 5, -4
  64              		.loc 1 71 18 view .LVU5
  65 0002 0021     		movs	r1, #0
  66              		.loc 1 70 18 view .LVU6
  67 0004 0124     		movs	r4, #1
  68              		.loc 1 74 3 view .LVU7
  69 0006 00F11802 		add	r2, r0, #24
  70              		.loc 1 75 3 view .LVU8
  71 000a 00F11C03 		add	r3, r0, #28
  72              		.loc 1 76 3 view .LVU9
  73 000e 00F12005 		add	r5, r0, #32
  74              		.loc 1 70 18 view .LVU10
  75 0012 0470     		strb	r4, [r0]
  76              		.loc 1 71 3 is_stmt 1 view .LVU11
  77              		.loc 1 71 18 is_stmt 0 view .LVU12
  78 0014 4160     		str	r1, [r0, #4]
  79              		.loc 1 72 3 is_stmt 1 view .LVU13
  80              		.loc 1 78 3 is_stmt 0 view .LVU14
  81 0016 00F12404 		add	r4, r0, #36
  82              		.loc 1 79 3 view .LVU15
  83 001a 00F12801 		add	r1, r0, #40
  84              	.LBB174:
  85              	.LBB175:
  86              	.LBB176:
  87              		.file 2 "src/ChibiOS_3.0.2/os/rt/include/chevents.h"
  88              		.loc 2 172 16 view .LVU16
  89 001e 8261     		str	r2, [r0, #24]
  90              	.LBE176:
  91              	.LBE175:
  92              	.LBE174:
  93              	.LBB179:
  94              	.LBB180:
  95              	.LBB181:
  96 0020 C361     		str	r3, [r0, #28]
  97              	.LBE181:
  98              	.LBE180:
  99              	.LBE179:
 100              		.loc 1 72 3 view .LVU17
 101 0022 00F10802 		add	r2, r0, #8
 102              	.LVL2:
 103              	.LBB184:
 104              	.LBI184:
 105              		.file 3 "src/ChibiOS_3.0.2/os/hal/osal/rt/osal.h"
 106              		.loc 3 753 20 is_stmt 1 view .LVU18
 107              	.LBE184:
 108              		.loc 3 755 3 view .LVU19
 109              	.LBB192:
 110              	.LBB185:
 111              	.LBI185:
 112              		.file 4 "src/ChibiOS_3.0.2/os/rt/include/chthreads.h"
 113              		.loc 4 278 20 view .LVU20
 114              	.LBE185:
ARM GAS  C:\Users\USER\AppData\Local\Temp\ccd0Jnpg.s 			page 3


 115              	.LBE192:
 116              		.loc 4 280 3 view .LVU21
 117              	.LBB193:
 118              	.LBB190:
 119              	.LBB186:
 120              	.LBI186:
 121              		.file 5 "src/ChibiOS_3.0.2/os/rt/include/chschd.h"
 122              		.loc 5 602 20 view .LVU22
 123              	.LBB187:
 124              		.loc 5 604 3 view .LVU23
 125              	.LBE187:
 126              	.LBE186:
 127              	.LBE190:
 128              	.LBE193:
 129              		.loc 1 73 3 is_stmt 0 view .LVU24
 130 0026 00F11003 		add	r3, r0, #16
 131              	.LBB194:
 132              	.LBB195:
 133              	.LBB196:
 134              		.loc 2 172 16 view .LVU25
 135 002a C0E90854 		strd	r5, r4, [r0, #32]
 136              	.LBE196:
 137              	.LBE195:
 138              	.LBE194:
 139              	.LBB199:
 140              	.LBB200:
 141              	.LBB201:
 142 002e 8162     		str	r1, [r0, #40]
 143              	.LBE201:
 144              	.LBE200:
 145              	.LBE199:
 146              	.LBB204:
 147              	.LBB191:
 148              	.LBB189:
 149              	.LBB188:
 150              		.loc 5 605 15 view .LVU26
 151 0030 C0E90222 		strd	r2, r2, [r0, #8]
 152              	.LVL3:
 153              		.loc 5 605 15 view .LVU27
 154              	.LBE188:
 155              	.LBE189:
 156              	.LBE191:
 157              	.LBE204:
 158              		.loc 1 73 3 is_stmt 1 view .LVU28
 159              	.LBB205:
 160              	.LBI205:
 161              		.loc 3 753 20 view .LVU29
 162              	.LBE205:
 163              		.loc 3 755 3 view .LVU30
 164              	.LBB210:
 165              	.LBB206:
 166              	.LBI206:
 167              		.loc 4 278 20 view .LVU31
 168              	.LBE206:
 169              	.LBE210:
 170              		.loc 4 280 3 view .LVU32
 171              	.LBB211:
ARM GAS  C:\Users\USER\AppData\Local\Temp\ccd0Jnpg.s 			page 4


 172              	.LBB209:
 173              	.LBB207:
 174              	.LBI207:
 175              		.loc 5 602 20 view .LVU33
 176              	.LBB208:
 177              		.loc 5 604 3 view .LVU34
 178              		.loc 5 605 15 is_stmt 0 view .LVU35
 179 0034 C0E90433 		strd	r3, r3, [r0, #16]
 180              	.LVL4:
 181              		.loc 5 605 15 view .LVU36
 182              	.LBE208:
 183              	.LBE207:
 184              	.LBE209:
 185              	.LBE211:
 186              		.loc 1 74 3 is_stmt 1 view .LVU37
 187              	.LBB212:
 188              	.LBI174:
 189              		.loc 3 821 20 view .LVU38
 190              	.LBE212:
 191              		.loc 3 823 3 view .LVU39
 192              	.LBB213:
 193              	.LBB178:
 194              	.LBI175:
 195              		.loc 2 170 20 view .LVU40
 196              	.LBB177:
 197              		.loc 2 172 3 view .LVU41
 198              		.loc 2 172 3 is_stmt 0 view .LVU42
 199              	.LBE177:
 200              	.LBE178:
 201              	.LBE213:
 202              		.loc 1 75 3 is_stmt 1 view .LVU43
 203              	.LBB214:
 204              	.LBI179:
 205              		.loc 3 821 20 view .LVU44
 206              	.LBE214:
 207              		.loc 3 823 3 view .LVU45
 208              	.LBB215:
 209              	.LBB183:
 210              	.LBI180:
 211              		.loc 2 170 20 view .LVU46
 212              	.LBB182:
 213              		.loc 2 172 3 view .LVU47
 214              		.loc 2 172 3 is_stmt 0 view .LVU48
 215              	.LBE182:
 216              	.LBE183:
 217              	.LBE215:
 218              		.loc 1 76 3 is_stmt 1 view .LVU49
 219              	.LBB216:
 220              	.LBI216:
 221              		.loc 3 821 20 view .LVU50
 222              	.LBE216:
 223              		.loc 3 823 3 view .LVU51
 224              	.LBB219:
 225              	.LBB217:
 226              	.LBI217:
 227              		.loc 2 170 20 view .LVU52
 228              	.LBB218:
ARM GAS  C:\Users\USER\AppData\Local\Temp\ccd0Jnpg.s 			page 5


 229              		.loc 2 172 3 view .LVU53
 230              		.loc 2 172 3 is_stmt 0 view .LVU54
 231              	.LBE218:
 232              	.LBE217:
 233              	.LBE219:
 234              		.loc 1 78 3 is_stmt 1 view .LVU55
 235              	.LBB220:
 236              	.LBI194:
 237              		.loc 3 821 20 view .LVU56
 238              	.LBE220:
 239              		.loc 3 823 3 view .LVU57
 240              	.LBB221:
 241              	.LBB198:
 242              	.LBI195:
 243              		.loc 2 170 20 view .LVU58
 244              	.LBB197:
 245              		.loc 2 172 3 view .LVU59
 246              		.loc 2 172 3 is_stmt 0 view .LVU60
 247              	.LBE197:
 248              	.LBE198:
 249              	.LBE221:
 250              		.loc 1 79 3 is_stmt 1 view .LVU61
 251              	.LBB222:
 252              	.LBI199:
 253              		.loc 3 821 20 view .LVU62
 254              	.LBE222:
 255              		.loc 3 823 3 view .LVU63
 256              	.LBB223:
 257              	.LBB203:
 258              	.LBI200:
 259              		.loc 2 170 20 view .LVU64
 260              	.LBB202:
 261              		.loc 2 172 3 view .LVU65
 262              		.loc 2 172 3 is_stmt 0 view .LVU66
 263              	.LBE202:
 264              	.LBE203:
 265              	.LBE223:
 266              		.loc 1 81 1 view .LVU67
 267 0038 30BC     		pop	{r4, r5}
 268              		.cfi_restore 5
 269              		.cfi_restore 4
 270              		.cfi_def_cfa_offset 0
 271 003a 7047     		bx	lr
 272              		.cfi_endproc
 273              	.LFE257:
 274              		.size	canObjectInit, .-canObjectInit
 275              		.section	.text.canStart,"ax",%progbits
 276              		.align	1
 277              		.p2align 4,,15
 278              		.global	canStart
 279              		.syntax unified
 280              		.thumb
 281              		.thumb_func
 282              		.fpu fpv4-sp-d16
 283              		.type	canStart, %function
 284              	canStart:
 285              	.LVL5:
ARM GAS  C:\Users\USER\AppData\Local\Temp\ccd0Jnpg.s 			page 6


 286              	.LFB258:
 287              		.loc 1 95 57 is_stmt 1 view -0
 288              		.cfi_startproc
 289              		@ args = 0, pretend = 0, frame = 0
 290              		@ frame_needed = 0, uses_anonymous_args = 0
 291              		.loc 1 97 3 view .LVU69
 292              		.loc 1 97 3 view .LVU70
 293              		.loc 1 99 3 view .LVU71
 294              	.LBB224:
 295              	.LBI224:
 296              		.loc 3 491 20 view .LVU72
 297              	.LBE224:
 298              		.loc 3 493 3 view .LVU73
 299              	.LBB240:
 300              	.LBB225:
 301              	.LBI225:
 302              		.file 6 "src/ChibiOS_3.0.2/os/rt/include/chsys.h"
 303              		.loc 6 346 20 view .LVU74
 304              	.LBE225:
 305              	.LBE240:
 306              		.loc 6 348 3 view .LVU75
 307              	.LBB241:
 308              	.LBB236:
 309              	.LBB226:
 310              	.LBI226:
 311              		.file 7 "src/ChibiOS_3.0.2/os/rt/ports/ARMCMx/chcore_v7m.h"
 312              		.loc 7 444 20 view .LVU76
 313              	.LBE226:
 314              	.LBE236:
 315              	.LBE241:
 316              		.loc 7 447 3 view .LVU77
 317              	.LBB242:
 318              	.LBB237:
 319              	.LBB233:
 320              	.LBB227:
 321              	.LBI227:
 322              		.file 8 "src/ChibiOS_3.0.2/os/ext/CMSIS/include/core_cmFunc.h"
 323              		.loc 8 544 57 view .LVU78
 324              	.LBB228:
 325              		.loc 8 546 3 view .LVU79
 326              	.LBE228:
 327              	.LBE227:
 328              	.LBE233:
 329              	.LBE237:
 330              	.LBE242:
 331              		.loc 1 95 57 is_stmt 0 view .LVU80
 332 0000 10B5     		push	{r4, lr}
 333              		.cfi_def_cfa_offset 8
 334              		.cfi_offset 4, -8
 335              		.cfi_offset 14, -4
 336              	.LBB243:
 337              	.LBB238:
 338              	.LBB234:
 339              	.LBB231:
 340              	.LBB229:
 341              		.loc 8 546 3 view .LVU81
 342 0002 2023     		movs	r3, #32
ARM GAS  C:\Users\USER\AppData\Local\Temp\ccd0Jnpg.s 			page 7


 343              	.LBE229:
 344              	.LBE231:
 345              	.LBE234:
 346              	.LBE238:
 347              	.LBE243:
 348              		.loc 1 95 57 view .LVU82
 349 0004 0446     		mov	r4, r0
 350              	.LBB244:
 351              	.LBB239:
 352              	.LBB235:
 353              	.LBB232:
 354              	.LBB230:
 355              		.loc 8 546 3 view .LVU83
 356              		.syntax unified
 357              	@ 546 "src/ChibiOS_3.0.2/os/ext/CMSIS/include/core_cmFunc.h" 1
 358 0006 83F31188 		MSR basepri, r3
 359              	@ 0 "" 2
 360              	.LVL6:
 361              		.loc 8 546 3 view .LVU84
 362              		.thumb
 363              		.syntax unified
 364              	.LBE230:
 365              	.LBE232:
 366              	.LBE235:
 367              	.LBE239:
 368              	.LBE244:
 369              		.loc 6 349 34 is_stmt 1 view .LVU85
 370              		.loc 6 350 20 view .LVU86
 371              		.loc 1 100 3 view .LVU87
 372              		.loc 1 100 3 view .LVU88
 373              		.loc 1 103 3 view .LVU89
 374              		.loc 1 103 15 is_stmt 0 view .LVU90
 375 000a 0223     		movs	r3, #2
 376 000c 0370     		strb	r3, [r0]
 377              		.loc 1 104 3 is_stmt 1 view .LVU91
 378              		.loc 1 108 3 view .LVU92
 379              		.loc 1 104 16 is_stmt 0 view .LVU93
 380 000e 4160     		str	r1, [r0, #4]
 381              		.loc 1 108 3 view .LVU94
 382 0010 FFF7FEFF 		bl	can_lld_start
 383              	.LVL7:
 384              		.loc 1 111 3 is_stmt 1 view .LVU95
 385              		.loc 1 111 15 is_stmt 0 view .LVU96
 386 0014 0323     		movs	r3, #3
 387 0016 2370     		strb	r3, [r4]
 388              		.loc 1 112 3 is_stmt 1 view .LVU97
 389              	.LBB245:
 390              	.LBI245:
 391              		.loc 3 502 20 view .LVU98
 392              	.LBE245:
 393              		.loc 3 504 3 view .LVU99
 394              	.LBB254:
 395              	.LBB246:
 396              	.LBI246:
 397              		.loc 6 358 20 view .LVU100
 398              	.LBB247:
 399              		.loc 6 360 22 view .LVU101
ARM GAS  C:\Users\USER\AppData\Local\Temp\ccd0Jnpg.s 			page 8


 400              		.loc 6 361 33 view .LVU102
 401              		.loc 6 367 3 view .LVU103
 402              		.loc 6 367 3 view .LVU104
 403              		.loc 6 371 3 view .LVU105
 404              	.LBB248:
 405              	.LBI248:
 406              		.loc 7 458 20 view .LVU106
 407              	.LBE248:
 408              	.LBE247:
 409              	.LBE246:
 410              	.LBE254:
 411              		.loc 7 461 3 view .LVU107
 412              	.LVL8:
 413              	.LBB255:
 414              	.LBB253:
 415              	.LBB252:
 416              	.LBB251:
 417              	.LBB249:
 418              	.LBI249:
 419              		.loc 8 544 57 view .LVU108
 420              	.LBB250:
 421              		.loc 8 546 3 view .LVU109
 422 0018 0023     		movs	r3, #0
 423              		.syntax unified
 424              	@ 546 "src/ChibiOS_3.0.2/os/ext/CMSIS/include/core_cmFunc.h" 1
 425 001a 83F31188 		MSR basepri, r3
 426              	@ 0 "" 2
 427              	.LVL9:
 428              		.loc 8 546 3 is_stmt 0 view .LVU110
 429              		.thumb
 430              		.syntax unified
 431              	.LBE250:
 432              	.LBE249:
 433              	.LBE251:
 434              	.LBE252:
 435              	.LBE253:
 436              	.LBE255:
 437              		.loc 1 113 1 view .LVU111
 438 001e 10BD     		pop	{r4, pc}
 439              		.loc 1 113 1 view .LVU112
 440              		.cfi_endproc
 441              	.LFE258:
 442              		.size	canStart, .-canStart
 443              		.section	.text.canStop,"ax",%progbits
 444              		.align	1
 445              		.p2align 4,,15
 446              		.global	canStop
 447              		.syntax unified
 448              		.thumb
 449              		.thumb_func
 450              		.fpu fpv4-sp-d16
 451              		.type	canStop, %function
 452              	canStop:
 453              	.LVL10:
 454              	.LFB259:
 455              		.loc 1 122 31 is_stmt 1 view -0
 456              		.cfi_startproc
ARM GAS  C:\Users\USER\AppData\Local\Temp\ccd0Jnpg.s 			page 9


 457              		@ args = 0, pretend = 0, frame = 0
 458              		@ frame_needed = 0, uses_anonymous_args = 0
 459              		.loc 1 124 3 view .LVU114
 460              		.loc 1 124 3 view .LVU115
 461              		.loc 1 126 3 view .LVU116
 462              	.LBB256:
 463              	.LBI256:
 464              		.loc 3 491 20 view .LVU117
 465              	.LBE256:
 466              		.loc 3 493 3 view .LVU118
 467              	.LBB272:
 468              	.LBB257:
 469              	.LBI257:
 470              		.loc 6 346 20 view .LVU119
 471              	.LBE257:
 472              	.LBE272:
 473              		.loc 6 348 3 view .LVU120
 474              	.LBB273:
 475              	.LBB268:
 476              	.LBB258:
 477              	.LBI258:
 478              		.loc 7 444 20 view .LVU121
 479              	.LBE258:
 480              	.LBE268:
 481              	.LBE273:
 482              		.loc 7 447 3 view .LVU122
 483              	.LBB274:
 484              	.LBB269:
 485              	.LBB265:
 486              	.LBB259:
 487              	.LBI259:
 488              		.loc 8 544 57 view .LVU123
 489              	.LBB260:
 490              		.loc 8 546 3 view .LVU124
 491              	.LBE260:
 492              	.LBE259:
 493              	.LBE265:
 494              	.LBE269:
 495              	.LBE274:
 496              		.loc 1 122 31 is_stmt 0 view .LVU125
 497 0000 10B5     		push	{r4, lr}
 498              		.cfi_def_cfa_offset 8
 499              		.cfi_offset 4, -8
 500              		.cfi_offset 14, -4
 501              	.LBB275:
 502              	.LBB270:
 503              	.LBB266:
 504              	.LBB263:
 505              	.LBB261:
 506              		.loc 8 546 3 view .LVU126
 507 0002 2023     		movs	r3, #32
 508              	.LBE261:
 509              	.LBE263:
 510              	.LBE266:
 511              	.LBE270:
 512              	.LBE275:
 513              		.loc 1 122 31 view .LVU127
ARM GAS  C:\Users\USER\AppData\Local\Temp\ccd0Jnpg.s 			page 10


 514 0004 0446     		mov	r4, r0
 515              	.LBB276:
 516              	.LBB271:
 517              	.LBB267:
 518              	.LBB264:
 519              	.LBB262:
 520              		.loc 8 546 3 view .LVU128
 521              		.syntax unified
 522              	@ 546 "src/ChibiOS_3.0.2/os/ext/CMSIS/include/core_cmFunc.h" 1
 523 0006 83F31188 		MSR basepri, r3
 524              	@ 0 "" 2
 525              	.LVL11:
 526              		.loc 8 546 3 view .LVU129
 527              		.thumb
 528              		.syntax unified
 529              	.LBE262:
 530              	.LBE264:
 531              	.LBE267:
 532              	.LBE271:
 533              	.LBE276:
 534              		.loc 6 349 34 is_stmt 1 view .LVU130
 535              		.loc 6 350 20 view .LVU131
 536              		.loc 1 127 3 view .LVU132
 537              		.loc 1 127 3 view .LVU133
 538              		.loc 1 131 3 view .LVU134
 539 000a FFF7FEFF 		bl	can_lld_stop
 540              	.LVL12:
 541              		.loc 1 132 3 view .LVU135
 542              		.loc 1 132 16 is_stmt 0 view .LVU136
 543 000e 2046     		mov	r0, r4
 544 0010 0123     		movs	r3, #1
 545 0012 00F8103B 		strb	r3, [r0], #16
 546              		.loc 1 136 3 is_stmt 1 view .LVU137
 547              	.LVL13:
 548              	.LBB277:
 549              	.LBI277:
 550              		.loc 3 808 20 view .LVU138
 551              	.LBB278:
 552              		.loc 3 810 3 view .LVU139
 553 0016 6FF00101 		mvn	r1, #1
 554 001a FFF7FEFF 		bl	chThdDequeueAllI
 555              	.LVL14:
 556              		.loc 3 810 3 is_stmt 0 view .LVU140
 557              	.LBE278:
 558              	.LBE277:
 559              		.loc 1 137 3 is_stmt 1 view .LVU141
 560              	.LBB279:
 561              	.LBI279:
 562              		.loc 3 808 20 view .LVU142
 563              	.LBB280:
 564              		.loc 3 810 3 view .LVU143
 565 001e 04F10800 		add	r0, r4, #8
 566              	.LVL15:
 567              		.loc 3 810 3 is_stmt 0 view .LVU144
 568 0022 6FF00101 		mvn	r1, #1
 569 0026 FFF7FEFF 		bl	chThdDequeueAllI
 570              	.LVL16:
ARM GAS  C:\Users\USER\AppData\Local\Temp\ccd0Jnpg.s 			page 11


 571              		.loc 3 810 3 view .LVU145
 572              	.LBE280:
 573              	.LBE279:
 574              		.loc 1 138 3 is_stmt 1 view .LVU146
 575              	.LBB281:
 576              	.LBI281:
 577              		.loc 3 598 20 view .LVU147
 578              	.LBB282:
 579              		.loc 3 600 3 view .LVU148
 580 002a FFF7FEFF 		bl	chSchRescheduleS
 581              	.LVL17:
 582              	.LBE282:
 583              	.LBE281:
 584              		.loc 1 139 3 view .LVU149
 585              	.LBB283:
 586              	.LBI283:
 587              		.loc 3 502 20 view .LVU150
 588              	.LBE283:
 589              		.loc 3 504 3 view .LVU151
 590              	.LBB292:
 591              	.LBB284:
 592              	.LBI284:
 593              		.loc 6 358 20 view .LVU152
 594              	.LBB285:
 595              		.loc 6 360 22 view .LVU153
 596              		.loc 6 361 33 view .LVU154
 597              		.loc 6 367 3 view .LVU155
 598              		.loc 6 367 3 view .LVU156
 599              		.loc 6 371 3 view .LVU157
 600              	.LBB286:
 601              	.LBI286:
 602              		.loc 7 458 20 view .LVU158
 603              	.LBE286:
 604              	.LBE285:
 605              	.LBE284:
 606              	.LBE292:
 607              		.loc 7 461 3 view .LVU159
 608              	.LBB293:
 609              	.LBB291:
 610              	.LBB290:
 611              	.LBB289:
 612              	.LBB287:
 613              	.LBI287:
 614              		.loc 8 544 57 view .LVU160
 615              	.LBB288:
 616              		.loc 8 546 3 view .LVU161
 617 002e 0023     		movs	r3, #0
 618              		.syntax unified
 619              	@ 546 "src/ChibiOS_3.0.2/os/ext/CMSIS/include/core_cmFunc.h" 1
 620 0030 83F31188 		MSR basepri, r3
 621              	@ 0 "" 2
 622              	.LVL18:
 623              		.loc 8 546 3 is_stmt 0 view .LVU162
 624              		.thumb
 625              		.syntax unified
 626              	.LBE288:
 627              	.LBE287:
ARM GAS  C:\Users\USER\AppData\Local\Temp\ccd0Jnpg.s 			page 12


 628              	.LBE289:
 629              	.LBE290:
 630              	.LBE291:
 631              	.LBE293:
 632              		.loc 1 140 1 view .LVU163
 633 0034 10BD     		pop	{r4, pc}
 634              		.loc 1 140 1 view .LVU164
 635              		.cfi_endproc
 636              	.LFE259:
 637              		.size	canStop, .-canStop
 638 0036 00BF     		.section	.text.canTransmit,"ax",%progbits
 639              		.align	1
 640              		.p2align 4,,15
 641              		.global	canTransmit
 642              		.syntax unified
 643              		.thumb
 644              		.thumb_func
 645              		.fpu fpv4-sp-d16
 646              		.type	canTransmit, %function
 647              	canTransmit:
 648              	.LVL19:
 649              	.LFB260:
 650              		.loc 1 166 38 is_stmt 1 view -0
 651              		.cfi_startproc
 652              		@ args = 0, pretend = 0, frame = 0
 653              		@ frame_needed = 0, uses_anonymous_args = 0
 654              		.loc 1 168 3 view .LVU166
 655              		.loc 1 168 3 view .LVU167
 656              		.loc 1 171 3 view .LVU168
 657              	.LBB294:
 658              	.LBI294:
 659              		.loc 3 491 20 view .LVU169
 660              	.LBE294:
 661              		.loc 3 493 3 view .LVU170
 662              	.LBB306:
 663              	.LBB295:
 664              	.LBI295:
 665              		.loc 6 346 20 view .LVU171
 666              	.LBE295:
 667              	.LBE306:
 668              		.loc 6 348 3 view .LVU172
 669              	.LBB307:
 670              	.LBB303:
 671              	.LBB296:
 672              	.LBI296:
 673              		.loc 7 444 20 view .LVU173
 674              	.LBE296:
 675              	.LBE303:
 676              	.LBE307:
 677              		.loc 7 447 3 view .LVU174
 678              	.LBB308:
 679              	.LBB304:
 680              	.LBB301:
 681              	.LBB297:
 682              	.LBI297:
 683              		.loc 8 544 57 view .LVU175
 684              	.LBB298:
ARM GAS  C:\Users\USER\AppData\Local\Temp\ccd0Jnpg.s 			page 13


 685              		.loc 8 546 3 view .LVU176
 686              	.LBE298:
 687              	.LBE297:
 688              	.LBE301:
 689              	.LBE304:
 690              	.LBE308:
 691              		.loc 1 166 38 is_stmt 0 view .LVU177
 692 0000 2DE9F041 		push	{r4, r5, r6, r7, r8, lr}
 693              		.cfi_def_cfa_offset 24
 694              		.cfi_offset 4, -24
 695              		.cfi_offset 5, -20
 696              		.cfi_offset 6, -16
 697              		.cfi_offset 7, -12
 698              		.cfi_offset 8, -8
 699              		.cfi_offset 14, -4
 700              		.loc 1 166 38 view .LVU178
 701 0004 1F46     		mov	r7, r3
 702 0006 0446     		mov	r4, r0
 703 0008 0D46     		mov	r5, r1
 704 000a 9046     		mov	r8, r2
 705              	.LBB309:
 706              	.LBB305:
 707              	.LBB302:
 708              	.LBB300:
 709              	.LBB299:
 710              		.loc 8 546 3 view .LVU179
 711 000c 2023     		movs	r3, #32
 712              	.LVL20:
 713              		.loc 8 546 3 view .LVU180
 714              		.syntax unified
 715              	@ 546 "src/ChibiOS_3.0.2/os/ext/CMSIS/include/core_cmFunc.h" 1
 716 000e 83F31188 		MSR basepri, r3
 717              	@ 0 "" 2
 718              	.LVL21:
 719              		.loc 8 546 3 view .LVU181
 720              		.thumb
 721              		.syntax unified
 722              	.LBE299:
 723              	.LBE300:
 724              	.LBE302:
 725              	.LBE305:
 726              	.LBE309:
 727              		.loc 6 349 34 is_stmt 1 view .LVU182
 728              		.loc 6 350 20 view .LVU183
 729              	.LBB310:
 730              		.loc 1 177 16 is_stmt 0 view .LVU184
 731 0012 00F10806 		add	r6, r0, #8
 732              	.LVL22:
 733              	.L10:
 734              		.loc 1 177 16 view .LVU185
 735              	.LBE310:
 736              		.loc 1 175 9 view .LVU186
 737 0016 2378     		ldrb	r3, [r4]	@ zero_extendqisi2
 738 0018 042B     		cmp	r3, #4
 739              		.loc 1 175 41 view .LVU187
 740 001a 2946     		mov	r1, r5
 741 001c 2046     		mov	r0, r4
ARM GAS  C:\Users\USER\AppData\Local\Temp\ccd0Jnpg.s 			page 14


 742              		.loc 1 175 9 view .LVU188
 743 001e 02D0     		beq	.L12
 744              	.LVL23:
 745              		.loc 1 175 41 discriminator 1 view .LVU189
 746 0020 FFF7FEFF 		bl	can_lld_is_tx_empty
 747              	.LVL24:
 748              		.loc 1 175 37 discriminator 1 view .LVU190
 749 0024 50B9     		cbnz	r0, .L22
 750              	.L12:
 751              	.LBB324:
 752              		.loc 1 177 4 is_stmt 1 view .LVU191
 753              	.LVL25:
 754              	.LBB311:
 755              	.LBI311:
 756              		.loc 3 781 21 view .LVU192
 757              	.LBB312:
 758              		.loc 3 784 3 view .LVU193
 759              		.loc 3 784 10 is_stmt 0 view .LVU194
 760 0026 3946     		mov	r1, r7
 761 0028 3046     		mov	r0, r6
 762 002a FFF7FEFF 		bl	chThdEnqueueTimeoutS
 763              	.LVL26:
 764              		.loc 3 784 10 view .LVU195
 765              	.LBE312:
 766              	.LBE311:
 767              		.loc 1 178 5 is_stmt 1 view .LVU196
 768              		.loc 1 178 8 is_stmt 0 view .LVU197
 769 002e 0028     		cmp	r0, #0
 770 0030 F1D0     		beq	.L10
 771              		.loc 1 179 7 is_stmt 1 view .LVU198
 772              	.LBB313:
 773              	.LBI313:
 774              		.loc 3 502 20 view .LVU199
 775              	.LBE313:
 776              	.LBE324:
 777              		.loc 3 504 3 view .LVU200
 778              	.LBB325:
 779              	.LBB322:
 780              	.LBB314:
 781              	.LBI314:
 782              		.loc 6 358 20 view .LVU201
 783              	.LBB315:
 784              		.loc 6 360 22 view .LVU202
 785              		.loc 6 361 33 view .LVU203
 786              		.loc 6 367 3 view .LVU204
 787              		.loc 6 367 3 view .LVU205
 788              		.loc 6 371 3 view .LVU206
 789              	.LBB316:
 790              	.LBI316:
 791              		.loc 7 458 20 view .LVU207
 792              	.LBE316:
 793              	.LBE315:
 794              	.LBE314:
 795              	.LBE322:
 796              	.LBE325:
 797              		.loc 7 461 3 view .LVU208
 798              	.LVL27:
ARM GAS  C:\Users\USER\AppData\Local\Temp\ccd0Jnpg.s 			page 15


 799              	.LBB326:
 800              	.LBB323:
 801              	.LBB321:
 802              	.LBB320:
 803              	.LBB319:
 804              	.LBB317:
 805              	.LBI317:
 806              		.loc 8 544 57 view .LVU209
 807              	.LBB318:
 808              		.loc 8 546 3 view .LVU210
 809 0032 0023     		movs	r3, #0
 810              		.syntax unified
 811              	@ 546 "src/ChibiOS_3.0.2/os/ext/CMSIS/include/core_cmFunc.h" 1
 812 0034 83F31188 		MSR basepri, r3
 813              	@ 0 "" 2
 814              	.LVL28:
 815              		.loc 8 546 3 is_stmt 0 view .LVU211
 816              		.thumb
 817              		.syntax unified
 818              	.LBE318:
 819              	.LBE317:
 820              	.LBE319:
 821              	.LBE320:
 822              	.LBE321:
 823              	.LBE323:
 824              		.loc 1 180 7 is_stmt 1 view .LVU212
 825              	.LBE326:
 826              		.loc 1 186 1 is_stmt 0 view .LVU213
 827 0038 BDE8F081 		pop	{r4, r5, r6, r7, r8, pc}
 828              	.LVL29:
 829              	.L22:
 830              		.loc 1 183 3 is_stmt 1 view .LVU214
 831 003c 2046     		mov	r0, r4
 832 003e 4246     		mov	r2, r8
 833 0040 2946     		mov	r1, r5
 834 0042 FFF7FEFF 		bl	can_lld_transmit
 835              	.LVL30:
 836              		.loc 1 184 3 view .LVU215
 837              	.LBB327:
 838              	.LBI327:
 839              		.loc 3 502 20 view .LVU216
 840              	.LBE327:
 841              		.loc 3 504 3 view .LVU217
 842              	.LBB336:
 843              	.LBB328:
 844              	.LBI328:
 845              		.loc 6 358 20 view .LVU218
 846              	.LBB329:
 847              		.loc 6 360 22 view .LVU219
 848              		.loc 6 361 33 view .LVU220
 849              		.loc 6 367 3 view .LVU221
 850              		.loc 6 367 3 view .LVU222
 851              		.loc 6 371 3 view .LVU223
 852              	.LBB330:
 853              	.LBI330:
 854              		.loc 7 458 20 view .LVU224
 855              	.LBE330:
ARM GAS  C:\Users\USER\AppData\Local\Temp\ccd0Jnpg.s 			page 16


 856              	.LBE329:
 857              	.LBE328:
 858              	.LBE336:
 859              		.loc 7 461 3 view .LVU225
 860              	.LBB337:
 861              	.LBB335:
 862              	.LBB334:
 863              	.LBB333:
 864              	.LBB331:
 865              	.LBI331:
 866              		.loc 8 544 57 view .LVU226
 867              	.LBB332:
 868              		.loc 8 546 3 view .LVU227
 869 0046 0020     		movs	r0, #0
 870              		.syntax unified
 871              	@ 546 "src/ChibiOS_3.0.2/os/ext/CMSIS/include/core_cmFunc.h" 1
 872 0048 80F31188 		MSR basepri, r0
 873              	@ 0 "" 2
 874              	.LVL31:
 875              		.loc 8 546 3 is_stmt 0 view .LVU228
 876              		.thumb
 877              		.syntax unified
 878              	.LBE332:
 879              	.LBE331:
 880              	.LBE333:
 881              	.LBE334:
 882              	.LBE335:
 883              	.LBE337:
 884              		.loc 1 185 3 is_stmt 1 view .LVU229
 885              		.loc 1 186 1 is_stmt 0 view .LVU230
 886 004c BDE8F081 		pop	{r4, r5, r6, r7, r8, pc}
 887              		.loc 1 186 1 view .LVU231
 888              		.cfi_endproc
 889              	.LFE260:
 890              		.size	canTransmit, .-canTransmit
 891              		.section	.text.canReceive,"ax",%progbits
 892              		.align	1
 893              		.p2align 4,,15
 894              		.global	canReceive
 895              		.syntax unified
 896              		.thumb
 897              		.thumb_func
 898              		.fpu fpv4-sp-d16
 899              		.type	canReceive, %function
 900              	canReceive:
 901              	.LVL32:
 902              	.LFB261:
 903              		.loc 1 213 37 is_stmt 1 view -0
 904              		.cfi_startproc
 905              		@ args = 0, pretend = 0, frame = 0
 906              		@ frame_needed = 0, uses_anonymous_args = 0
 907              		.loc 1 215 3 view .LVU233
 908              		.loc 1 215 3 view .LVU234
 909              		.loc 1 218 3 view .LVU235
 910              	.LBB338:
 911              	.LBI338:
 912              		.loc 3 491 20 view .LVU236
ARM GAS  C:\Users\USER\AppData\Local\Temp\ccd0Jnpg.s 			page 17


 913              	.LBE338:
 914              		.loc 3 493 3 view .LVU237
 915              	.LBB350:
 916              	.LBB339:
 917              	.LBI339:
 918              		.loc 6 346 20 view .LVU238
 919              	.LBE339:
 920              	.LBE350:
 921              		.loc 6 348 3 view .LVU239
 922              	.LBB351:
 923              	.LBB347:
 924              	.LBB340:
 925              	.LBI340:
 926              		.loc 7 444 20 view .LVU240
 927              	.LBE340:
 928              	.LBE347:
 929              	.LBE351:
 930              		.loc 7 447 3 view .LVU241
 931              	.LBB352:
 932              	.LBB348:
 933              	.LBB345:
 934              	.LBB341:
 935              	.LBI341:
 936              		.loc 8 544 57 view .LVU242
 937              	.LBB342:
 938              		.loc 8 546 3 view .LVU243
 939              	.LBE342:
 940              	.LBE341:
 941              	.LBE345:
 942              	.LBE348:
 943              	.LBE352:
 944              		.loc 1 213 37 is_stmt 0 view .LVU244
 945 0000 2DE9F041 		push	{r4, r5, r6, r7, r8, lr}
 946              		.cfi_def_cfa_offset 24
 947              		.cfi_offset 4, -24
 948              		.cfi_offset 5, -20
 949              		.cfi_offset 6, -16
 950              		.cfi_offset 7, -12
 951              		.cfi_offset 8, -8
 952              		.cfi_offset 14, -4
 953              		.loc 1 213 37 view .LVU245
 954 0004 1F46     		mov	r7, r3
 955 0006 0446     		mov	r4, r0
 956 0008 0D46     		mov	r5, r1
 957 000a 9046     		mov	r8, r2
 958              	.LBB353:
 959              	.LBB349:
 960              	.LBB346:
 961              	.LBB344:
 962              	.LBB343:
 963              		.loc 8 546 3 view .LVU246
 964 000c 2023     		movs	r3, #32
 965              	.LVL33:
 966              		.loc 8 546 3 view .LVU247
 967              		.syntax unified
 968              	@ 546 "src/ChibiOS_3.0.2/os/ext/CMSIS/include/core_cmFunc.h" 1
 969 000e 83F31188 		MSR basepri, r3
ARM GAS  C:\Users\USER\AppData\Local\Temp\ccd0Jnpg.s 			page 18


 970              	@ 0 "" 2
 971              	.LVL34:
 972              		.loc 8 546 3 view .LVU248
 973              		.thumb
 974              		.syntax unified
 975              	.LBE343:
 976              	.LBE344:
 977              	.LBE346:
 978              	.LBE349:
 979              	.LBE353:
 980              		.loc 6 349 34 is_stmt 1 view .LVU249
 981              		.loc 6 350 20 view .LVU250
 982              	.LBB354:
 983              		.loc 1 224 17 is_stmt 0 view .LVU251
 984 0012 00F11006 		add	r6, r0, #16
 985              	.LVL35:
 986              	.L24:
 987              		.loc 1 224 17 view .LVU252
 988              	.LBE354:
 989              		.loc 1 222 9 view .LVU253
 990 0016 2378     		ldrb	r3, [r4]	@ zero_extendqisi2
 991 0018 042B     		cmp	r3, #4
 992              		.loc 1 222 41 view .LVU254
 993 001a 2946     		mov	r1, r5
 994 001c 2046     		mov	r0, r4
 995              		.loc 1 222 9 view .LVU255
 996 001e 02D0     		beq	.L26
 997              	.LVL36:
 998              		.loc 1 222 41 discriminator 1 view .LVU256
 999 0020 FFF7FEFF 		bl	can_lld_is_rx_nonempty
 1000              	.LVL37:
 1001              		.loc 1 222 37 discriminator 1 view .LVU257
 1002 0024 50B9     		cbnz	r0, .L36
 1003              	.L26:
 1004              	.LBB368:
 1005              		.loc 1 224 5 is_stmt 1 view .LVU258
 1006              	.LVL38:
 1007              	.LBB355:
 1008              	.LBI355:
 1009              		.loc 3 781 21 view .LVU259
 1010              	.LBB356:
 1011              		.loc 3 784 3 view .LVU260
 1012              		.loc 3 784 10 is_stmt 0 view .LVU261
 1013 0026 3946     		mov	r1, r7
 1014 0028 3046     		mov	r0, r6
 1015 002a FFF7FEFF 		bl	chThdEnqueueTimeoutS
 1016              	.LVL39:
 1017              		.loc 3 784 10 view .LVU262
 1018              	.LBE356:
 1019              	.LBE355:
 1020              		.loc 1 225 5 is_stmt 1 view .LVU263
 1021              		.loc 1 225 8 is_stmt 0 view .LVU264
 1022 002e 0028     		cmp	r0, #0
 1023 0030 F1D0     		beq	.L24
 1024              		.loc 1 226 7 is_stmt 1 view .LVU265
 1025              	.LBB357:
 1026              	.LBI357:
ARM GAS  C:\Users\USER\AppData\Local\Temp\ccd0Jnpg.s 			page 19


 1027              		.loc 3 502 20 view .LVU266
 1028              	.LBE357:
 1029              	.LBE368:
 1030              		.loc 3 504 3 view .LVU267
 1031              	.LBB369:
 1032              	.LBB366:
 1033              	.LBB358:
 1034              	.LBI358:
 1035              		.loc 6 358 20 view .LVU268
 1036              	.LBB359:
 1037              		.loc 6 360 22 view .LVU269
 1038              		.loc 6 361 33 view .LVU270
 1039              		.loc 6 367 3 view .LVU271
 1040              		.loc 6 367 3 view .LVU272
 1041              		.loc 6 371 3 view .LVU273
 1042              	.LBB360:
 1043              	.LBI360:
 1044              		.loc 7 458 20 view .LVU274
 1045              	.LBE360:
 1046              	.LBE359:
 1047              	.LBE358:
 1048              	.LBE366:
 1049              	.LBE369:
 1050              		.loc 7 461 3 view .LVU275
 1051              	.LVL40:
 1052              	.LBB370:
 1053              	.LBB367:
 1054              	.LBB365:
 1055              	.LBB364:
 1056              	.LBB363:
 1057              	.LBB361:
 1058              	.LBI361:
 1059              		.loc 8 544 57 view .LVU276
 1060              	.LBB362:
 1061              		.loc 8 546 3 view .LVU277
 1062 0032 0023     		movs	r3, #0
 1063              		.syntax unified
 1064              	@ 546 "src/ChibiOS_3.0.2/os/ext/CMSIS/include/core_cmFunc.h" 1
 1065 0034 83F31188 		MSR basepri, r3
 1066              	@ 0 "" 2
 1067              	.LVL41:
 1068              		.loc 8 546 3 is_stmt 0 view .LVU278
 1069              		.thumb
 1070              		.syntax unified
 1071              	.LBE362:
 1072              	.LBE361:
 1073              	.LBE363:
 1074              	.LBE364:
 1075              	.LBE365:
 1076              	.LBE367:
 1077              		.loc 1 227 7 is_stmt 1 view .LVU279
 1078              	.LBE370:
 1079              		.loc 1 233 1 is_stmt 0 view .LVU280
 1080 0038 BDE8F081 		pop	{r4, r5, r6, r7, r8, pc}
 1081              	.LVL42:
 1082              	.L36:
 1083              		.loc 1 230 3 is_stmt 1 view .LVU281
ARM GAS  C:\Users\USER\AppData\Local\Temp\ccd0Jnpg.s 			page 20


 1084 003c 2046     		mov	r0, r4
 1085 003e 4246     		mov	r2, r8
 1086 0040 2946     		mov	r1, r5
 1087 0042 FFF7FEFF 		bl	can_lld_receive
 1088              	.LVL43:
 1089              		.loc 1 231 3 view .LVU282
 1090              	.LBB371:
 1091              	.LBI371:
 1092              		.loc 3 502 20 view .LVU283
 1093              	.LBE371:
 1094              		.loc 3 504 3 view .LVU284
 1095              	.LBB380:
 1096              	.LBB372:
 1097              	.LBI372:
 1098              		.loc 6 358 20 view .LVU285
 1099              	.LBB373:
 1100              		.loc 6 360 22 view .LVU286
 1101              		.loc 6 361 33 view .LVU287
 1102              		.loc 6 367 3 view .LVU288
 1103              		.loc 6 367 3 view .LVU289
 1104              		.loc 6 371 3 view .LVU290
 1105              	.LBB374:
 1106              	.LBI374:
 1107              		.loc 7 458 20 view .LVU291
 1108              	.LBE374:
 1109              	.LBE373:
 1110              	.LBE372:
 1111              	.LBE380:
 1112              		.loc 7 461 3 view .LVU292
 1113              	.LBB381:
 1114              	.LBB379:
 1115              	.LBB378:
 1116              	.LBB377:
 1117              	.LBB375:
 1118              	.LBI375:
 1119              		.loc 8 544 57 view .LVU293
 1120              	.LBB376:
 1121              		.loc 8 546 3 view .LVU294
 1122 0046 0020     		movs	r0, #0
 1123              		.syntax unified
 1124              	@ 546 "src/ChibiOS_3.0.2/os/ext/CMSIS/include/core_cmFunc.h" 1
 1125 0048 80F31188 		MSR basepri, r0
 1126              	@ 0 "" 2
 1127              	.LVL44:
 1128              		.loc 8 546 3 is_stmt 0 view .LVU295
 1129              		.thumb
 1130              		.syntax unified
 1131              	.LBE376:
 1132              	.LBE375:
 1133              	.LBE377:
 1134              	.LBE378:
 1135              	.LBE379:
 1136              	.LBE381:
 1137              		.loc 1 232 3 is_stmt 1 view .LVU296
 1138              		.loc 1 233 1 is_stmt 0 view .LVU297
 1139 004c BDE8F081 		pop	{r4, r5, r6, r7, r8, pc}
 1140              		.loc 1 233 1 view .LVU298
ARM GAS  C:\Users\USER\AppData\Local\Temp\ccd0Jnpg.s 			page 21


 1141              		.cfi_endproc
 1142              	.LFE261:
 1143              		.size	canReceive, .-canReceive
 1144              		.section	.text.canSleep,"ax",%progbits
 1145              		.align	1
 1146              		.p2align 4,,15
 1147              		.global	canSleep
 1148              		.syntax unified
 1149              		.thumb
 1150              		.thumb_func
 1151              		.fpu fpv4-sp-d16
 1152              		.type	canSleep, %function
 1153              	canSleep:
 1154              	.LVL45:
 1155              	.LFB262:
 1156              		.loc 1 248 32 is_stmt 1 view -0
 1157              		.cfi_startproc
 1158              		@ args = 0, pretend = 0, frame = 0
 1159              		@ frame_needed = 0, uses_anonymous_args = 0
 1160              		.loc 1 250 3 view .LVU300
 1161              		.loc 1 250 3 view .LVU301
 1162              		.loc 1 252 3 view .LVU302
 1163              	.LBB382:
 1164              	.LBI382:
 1165              		.loc 3 491 20 view .LVU303
 1166              	.LBE382:
 1167              		.loc 3 493 3 view .LVU304
 1168              	.LBB390:
 1169              	.LBB383:
 1170              	.LBI383:
 1171              		.loc 6 346 20 view .LVU305
 1172              	.LBE383:
 1173              	.LBE390:
 1174              		.loc 6 348 3 view .LVU306
 1175              	.LBB391:
 1176              	.LBB388:
 1177              	.LBB384:
 1178              	.LBI384:
 1179              		.loc 7 444 20 view .LVU307
 1180              	.LBE384:
 1181              	.LBE388:
 1182              	.LBE391:
 1183              		.loc 7 447 3 view .LVU308
 1184              	.LBB392:
 1185              	.LBB389:
 1186              	.LBB387:
 1187              	.LBB385:
 1188              	.LBI385:
 1189              		.loc 8 544 57 view .LVU309
 1190              	.LBB386:
 1191              		.loc 8 546 3 view .LVU310
 1192 0000 2022     		movs	r2, #32
 1193              		.syntax unified
 1194              	@ 546 "src/ChibiOS_3.0.2/os/ext/CMSIS/include/core_cmFunc.h" 1
 1195 0002 82F31188 		MSR basepri, r2
 1196              	@ 0 "" 2
 1197              	.LVL46:
ARM GAS  C:\Users\USER\AppData\Local\Temp\ccd0Jnpg.s 			page 22


 1198              		.loc 8 546 3 is_stmt 0 view .LVU311
 1199              		.thumb
 1200              		.syntax unified
 1201              	.LBE386:
 1202              	.LBE385:
 1203              	.LBE387:
 1204              	.LBE389:
 1205              	.LBE392:
 1206              		.loc 6 349 34 is_stmt 1 view .LVU312
 1207              		.loc 6 350 20 view .LVU313
 1208              		.loc 1 253 3 view .LVU314
 1209              		.loc 1 253 3 view .LVU315
 1210              		.loc 1 255 3 view .LVU316
 1211              		.loc 1 255 6 is_stmt 0 view .LVU317
 1212 0006 0278     		ldrb	r2, [r0]	@ zero_extendqisi2
 1213 0008 032A     		cmp	r2, #3
 1214 000a 03D0     		beq	.L43
 1215              		.loc 1 261 3 is_stmt 1 view .LVU318
 1216              	.LBB393:
 1217              	.LBI393:
 1218              		.loc 3 502 20 view .LVU319
 1219              	.LBE393:
 1220              		.loc 3 504 3 view .LVU320
 1221              	.LBB410:
 1222              	.LBB394:
 1223              	.LBI394:
 1224              		.loc 6 358 20 view .LVU321
 1225              	.LBB395:
 1226              		.loc 6 360 22 view .LVU322
 1227              		.loc 6 361 33 view .LVU323
 1228              		.loc 6 367 3 view .LVU324
 1229              		.loc 6 367 3 view .LVU325
 1230              		.loc 6 371 3 view .LVU326
 1231              	.LBB396:
 1232              	.LBI396:
 1233              		.loc 7 458 20 view .LVU327
 1234              	.LBE396:
 1235              	.LBE395:
 1236              	.LBE394:
 1237              	.LBE410:
 1238              		.loc 7 461 3 view .LVU328
 1239              	.LVL47:
 1240              	.LBB411:
 1241              	.LBB407:
 1242              	.LBB404:
 1243              	.LBB401:
 1244              	.LBB397:
 1245              	.LBI397:
 1246              		.loc 8 544 57 view .LVU329
 1247              	.LBB398:
 1248              		.loc 8 546 3 view .LVU330
 1249 000c 0023     		movs	r3, #0
 1250              		.syntax unified
 1251              	@ 546 "src/ChibiOS_3.0.2/os/ext/CMSIS/include/core_cmFunc.h" 1
 1252 000e 83F31188 		MSR basepri, r3
 1253              	@ 0 "" 2
 1254              	.LVL48:
ARM GAS  C:\Users\USER\AppData\Local\Temp\ccd0Jnpg.s 			page 23


 1255              		.loc 8 546 3 is_stmt 0 view .LVU331
 1256              		.thumb
 1257              		.syntax unified
 1258 0012 7047     		bx	lr
 1259              	.L43:
 1260              	.LBE398:
 1261              	.LBE397:
 1262              	.LBE401:
 1263              	.LBE404:
 1264              	.LBE407:
 1265              	.LBE411:
 1266              		.loc 1 248 32 view .LVU332
 1267 0014 10B5     		push	{r4, lr}
 1268              		.cfi_def_cfa_offset 8
 1269              		.cfi_offset 4, -8
 1270              		.cfi_offset 14, -4
 1271 0016 0446     		mov	r4, r0
 1272              		.loc 1 256 5 is_stmt 1 view .LVU333
 1273 0018 FFF7FEFF 		bl	can_lld_sleep
 1274              	.LVL49:
 1275              		.loc 1 257 5 view .LVU334
 1276              		.loc 1 257 17 is_stmt 0 view .LVU335
 1277 001c 2046     		mov	r0, r4
 1278 001e 0423     		movs	r3, #4
 1279 0020 00F8243B 		strb	r3, [r0], #36
 1280              		.loc 1 258 5 is_stmt 1 view .LVU336
 1281              	.LVL50:
 1282              	.LBB412:
 1283              	.LBI412:
 1284              		.loc 3 841 20 view .LVU337
 1285              	.LBB413:
 1286              		.loc 3 844 3 view .LVU338
 1287 0024 0021     		movs	r1, #0
 1288 0026 FFF7FEFF 		bl	chEvtBroadcastFlagsI
 1289              	.LVL51:
 1290              		.loc 3 844 3 is_stmt 0 view .LVU339
 1291              	.LBE413:
 1292              	.LBE412:
 1293              		.loc 1 259 5 is_stmt 1 view .LVU340
 1294              	.LBB414:
 1295              	.LBI414:
 1296              		.loc 3 598 20 view .LVU341
 1297              	.LBB415:
 1298              		.loc 3 600 3 view .LVU342
 1299 002a FFF7FEFF 		bl	chSchRescheduleS
 1300              	.LVL52:
 1301              	.LBE415:
 1302              	.LBE414:
 1303              		.loc 1 261 3 view .LVU343
 1304              	.LBB416:
 1305              		.loc 3 502 20 view .LVU344
 1306              	.LBE416:
 1307              		.loc 3 504 3 view .LVU345
 1308              	.LBB417:
 1309              	.LBB408:
 1310              		.loc 6 358 20 view .LVU346
 1311              	.LBB405:
ARM GAS  C:\Users\USER\AppData\Local\Temp\ccd0Jnpg.s 			page 24


 1312              		.loc 6 360 22 view .LVU347
 1313              		.loc 6 361 33 view .LVU348
 1314              		.loc 6 367 3 view .LVU349
 1315              		.loc 6 367 3 view .LVU350
 1316              		.loc 6 371 3 view .LVU351
 1317              	.LBB402:
 1318              		.loc 7 458 20 view .LVU352
 1319              	.LBE402:
 1320              	.LBE405:
 1321              	.LBE408:
 1322              	.LBE417:
 1323              		.loc 7 461 3 view .LVU353
 1324              	.LBB418:
 1325              	.LBB409:
 1326              	.LBB406:
 1327              	.LBB403:
 1328              	.LBB400:
 1329              		.loc 8 544 57 view .LVU354
 1330              	.LBB399:
 1331              		.loc 8 546 3 view .LVU355
 1332 002e 0023     		movs	r3, #0
 1333              		.syntax unified
 1334              	@ 546 "src/ChibiOS_3.0.2/os/ext/CMSIS/include/core_cmFunc.h" 1
 1335 0030 83F31188 		MSR basepri, r3
 1336              	@ 0 "" 2
 1337              	.LVL53:
 1338              		.loc 8 546 3 is_stmt 0 view .LVU356
 1339              		.thumb
 1340              		.syntax unified
 1341              	.LBE399:
 1342              	.LBE400:
 1343              	.LBE403:
 1344              	.LBE406:
 1345              	.LBE409:
 1346              	.LBE418:
 1347              		.loc 1 262 1 view .LVU357
 1348 0034 10BD     		pop	{r4, pc}
 1349              		.loc 1 262 1 view .LVU358
 1350              		.cfi_endproc
 1351              	.LFE262:
 1352              		.size	canSleep, .-canSleep
 1353 0036 00BF     		.section	.text.canWakeup,"ax",%progbits
 1354              		.align	1
 1355              		.p2align 4,,15
 1356              		.global	canWakeup
 1357              		.syntax unified
 1358              		.thumb
 1359              		.thumb_func
 1360              		.fpu fpv4-sp-d16
 1361              		.type	canWakeup, %function
 1362              	canWakeup:
 1363              	.LVL54:
 1364              	.LFB263:
 1365              		.loc 1 271 33 is_stmt 1 view -0
 1366              		.cfi_startproc
 1367              		@ args = 0, pretend = 0, frame = 0
 1368              		@ frame_needed = 0, uses_anonymous_args = 0
ARM GAS  C:\Users\USER\AppData\Local\Temp\ccd0Jnpg.s 			page 25


 1369              		.loc 1 273 3 view .LVU360
 1370              		.loc 1 273 3 view .LVU361
 1371              		.loc 1 275 3 view .LVU362
 1372              	.LBB419:
 1373              	.LBI419:
 1374              		.loc 3 491 20 view .LVU363
 1375              	.LBE419:
 1376              		.loc 3 493 3 view .LVU364
 1377              	.LBB427:
 1378              	.LBB420:
 1379              	.LBI420:
 1380              		.loc 6 346 20 view .LVU365
 1381              	.LBE420:
 1382              	.LBE427:
 1383              		.loc 6 348 3 view .LVU366
 1384              	.LBB428:
 1385              	.LBB425:
 1386              	.LBB421:
 1387              	.LBI421:
 1388              		.loc 7 444 20 view .LVU367
 1389              	.LBE421:
 1390              	.LBE425:
 1391              	.LBE428:
 1392              		.loc 7 447 3 view .LVU368
 1393              	.LBB429:
 1394              	.LBB426:
 1395              	.LBB424:
 1396              	.LBB422:
 1397              	.LBI422:
 1398              		.loc 8 544 57 view .LVU369
 1399              	.LBB423:
 1400              		.loc 8 546 3 view .LVU370
 1401 0000 2022     		movs	r2, #32
 1402              		.syntax unified
 1403              	@ 546 "src/ChibiOS_3.0.2/os/ext/CMSIS/include/core_cmFunc.h" 1
 1404 0002 82F31188 		MSR basepri, r2
 1405              	@ 0 "" 2
 1406              	.LVL55:
 1407              		.loc 8 546 3 is_stmt 0 view .LVU371
 1408              		.thumb
 1409              		.syntax unified
 1410              	.LBE423:
 1411              	.LBE422:
 1412              	.LBE424:
 1413              	.LBE426:
 1414              	.LBE429:
 1415              		.loc 6 349 34 is_stmt 1 view .LVU372
 1416              		.loc 6 350 20 view .LVU373
 1417              		.loc 1 276 3 view .LVU374
 1418              		.loc 1 276 3 view .LVU375
 1419              		.loc 1 278 3 view .LVU376
 1420              		.loc 1 278 6 is_stmt 0 view .LVU377
 1421 0006 0278     		ldrb	r2, [r0]	@ zero_extendqisi2
 1422 0008 042A     		cmp	r2, #4
 1423 000a 03D0     		beq	.L50
 1424              		.loc 1 284 3 is_stmt 1 view .LVU378
 1425              	.LBB430:
ARM GAS  C:\Users\USER\AppData\Local\Temp\ccd0Jnpg.s 			page 26


 1426              	.LBI430:
 1427              		.loc 3 502 20 view .LVU379
 1428              	.LBE430:
 1429              		.loc 3 504 3 view .LVU380
 1430              	.LBB447:
 1431              	.LBB431:
 1432              	.LBI431:
 1433              		.loc 6 358 20 view .LVU381
 1434              	.LBB432:
 1435              		.loc 6 360 22 view .LVU382
 1436              		.loc 6 361 33 view .LVU383
 1437              		.loc 6 367 3 view .LVU384
 1438              		.loc 6 367 3 view .LVU385
 1439              		.loc 6 371 3 view .LVU386
 1440              	.LBB433:
 1441              	.LBI433:
 1442              		.loc 7 458 20 view .LVU387
 1443              	.LBE433:
 1444              	.LBE432:
 1445              	.LBE431:
 1446              	.LBE447:
 1447              		.loc 7 461 3 view .LVU388
 1448              	.LVL56:
 1449              	.LBB448:
 1450              	.LBB444:
 1451              	.LBB441:
 1452              	.LBB438:
 1453              	.LBB434:
 1454              	.LBI434:
 1455              		.loc 8 544 57 view .LVU389
 1456              	.LBB435:
 1457              		.loc 8 546 3 view .LVU390
 1458 000c 0023     		movs	r3, #0
 1459              		.syntax unified
 1460              	@ 546 "src/ChibiOS_3.0.2/os/ext/CMSIS/include/core_cmFunc.h" 1
 1461 000e 83F31188 		MSR basepri, r3
 1462              	@ 0 "" 2
 1463              	.LVL57:
 1464              		.loc 8 546 3 is_stmt 0 view .LVU391
 1465              		.thumb
 1466              		.syntax unified
 1467 0012 7047     		bx	lr
 1468              	.L50:
 1469              	.LBE435:
 1470              	.LBE434:
 1471              	.LBE438:
 1472              	.LBE441:
 1473              	.LBE444:
 1474              	.LBE448:
 1475              		.loc 1 271 33 view .LVU392
 1476 0014 10B5     		push	{r4, lr}
 1477              		.cfi_def_cfa_offset 8
 1478              		.cfi_offset 4, -8
 1479              		.cfi_offset 14, -4
 1480 0016 0446     		mov	r4, r0
 1481              		.loc 1 279 5 is_stmt 1 view .LVU393
 1482 0018 FFF7FEFF 		bl	can_lld_wakeup
ARM GAS  C:\Users\USER\AppData\Local\Temp\ccd0Jnpg.s 			page 27


 1483              	.LVL58:
 1484              		.loc 1 280 5 view .LVU394
 1485              		.loc 1 280 17 is_stmt 0 view .LVU395
 1486 001c 2046     		mov	r0, r4
 1487 001e 0323     		movs	r3, #3
 1488 0020 00F8283B 		strb	r3, [r0], #40
 1489              		.loc 1 281 5 is_stmt 1 view .LVU396
 1490              	.LVL59:
 1491              	.LBB449:
 1492              	.LBI449:
 1493              		.loc 3 841 20 view .LVU397
 1494              	.LBB450:
 1495              		.loc 3 844 3 view .LVU398
 1496 0024 0021     		movs	r1, #0
 1497 0026 FFF7FEFF 		bl	chEvtBroadcastFlagsI
 1498              	.LVL60:
 1499              		.loc 3 844 3 is_stmt 0 view .LVU399
 1500              	.LBE450:
 1501              	.LBE449:
 1502              		.loc 1 282 5 is_stmt 1 view .LVU400
 1503              	.LBB451:
 1504              	.LBI451:
 1505              		.loc 3 598 20 view .LVU401
 1506              	.LBB452:
 1507              		.loc 3 600 3 view .LVU402
 1508 002a FFF7FEFF 		bl	chSchRescheduleS
 1509              	.LVL61:
 1510              	.LBE452:
 1511              	.LBE451:
 1512              		.loc 1 284 3 view .LVU403
 1513              	.LBB453:
 1514              		.loc 3 502 20 view .LVU404
 1515              	.LBE453:
 1516              		.loc 3 504 3 view .LVU405
 1517              	.LBB454:
 1518              	.LBB445:
 1519              		.loc 6 358 20 view .LVU406
 1520              	.LBB442:
 1521              		.loc 6 360 22 view .LVU407
 1522              		.loc 6 361 33 view .LVU408
 1523              		.loc 6 367 3 view .LVU409
 1524              		.loc 6 367 3 view .LVU410
 1525              		.loc 6 371 3 view .LVU411
 1526              	.LBB439:
 1527              		.loc 7 458 20 view .LVU412
 1528              	.LBE439:
 1529              	.LBE442:
 1530              	.LBE445:
 1531              	.LBE454:
 1532              		.loc 7 461 3 view .LVU413
 1533              	.LBB455:
 1534              	.LBB446:
 1535              	.LBB443:
 1536              	.LBB440:
 1537              	.LBB437:
 1538              		.loc 8 544 57 view .LVU414
 1539              	.LBB436:
ARM GAS  C:\Users\USER\AppData\Local\Temp\ccd0Jnpg.s 			page 28


 1540              		.loc 8 546 3 view .LVU415
 1541 002e 0023     		movs	r3, #0
 1542              		.syntax unified
 1543              	@ 546 "src/ChibiOS_3.0.2/os/ext/CMSIS/include/core_cmFunc.h" 1
 1544 0030 83F31188 		MSR basepri, r3
 1545              	@ 0 "" 2
 1546              	.LVL62:
 1547              		.loc 8 546 3 is_stmt 0 view .LVU416
 1548              		.thumb
 1549              		.syntax unified
 1550              	.LBE436:
 1551              	.LBE437:
 1552              	.LBE440:
 1553              	.LBE443:
 1554              	.LBE446:
 1555              	.LBE455:
 1556              		.loc 1 285 1 view .LVU417
 1557 0034 10BD     		pop	{r4, pc}
 1558              		.loc 1 285 1 view .LVU418
 1559              		.cfi_endproc
 1560              	.LFE263:
 1561              		.size	canWakeup, .-canWakeup
 1562 0036 00BF     		.text
 1563              	.Letext0:
 1564              		.file 9 "c:\\program files (x86)\\gnu tools arm embedded\\8 2018-q4-major\\lib\\gcc\\arm-none-eabi
 1565              		.file 10 "c:\\program files (x86)\\gnu tools arm embedded\\8 2018-q4-major\\arm-none-eabi\\include
 1566              		.file 11 "c:\\program files (x86)\\gnu tools arm embedded\\8 2018-q4-major\\arm-none-eabi\\include
 1567              		.file 12 "src/ChibiOS_3.0.2/os/rt/ports/ARMCMx/compilers/GCC/chtypes.h"
 1568              		.file 13 "src/ChibiOS_3.0.2/os/rt/include/chsystypes.h"
 1569              		.file 14 "src/ChibiOS_3.0.2/os/ext/CMSIS/include/core_cm4.h"
 1570              		.file 15 "src/ChibiOS_3.0.2/os/ext/CMSIS/ST/system_stm32f4xx.h"
 1571              		.file 16 "src/ChibiOS_3.0.2/os/ext/CMSIS/ST/stm32f407xx.h"
 1572              		.file 17 "src/ChibiOS_3.0.2/os/rt/ports/ARMCMx/chcore.h"
 1573              		.file 18 "src/ChibiOS_3.0.2/os/rt/include/chtm.h"
 1574              		.file 19 "src/ChibiOS_3.0.2/os/rt/include/chsem.h"
 1575              		.file 20 "src/ChibiOS_3.0.2/os/rt/include/chmtx.h"
 1576              		.file 21 "src/ChibiOS_3.0.2/os/rt/include/chregistry.h"
 1577              		.file 22 "src/ChibiOS_3.0.2/os/rt/include/chqueues.h"
 1578              		.file 23 "src/ChibiOS_3.0.2/os/hal/ports/STM32/STM32F4xx/stm32_dma.h"
 1579              		.file 24 "src/ChibiOS_3.0.2/os/hal/ports/STM32/LLD/GPIOv2/pal_lld.h"
 1580              		.file 25 "src/ChibiOS_3.0.2/os/hal/include/can.h"
 1581              		.file 26 "src/ChibiOS_3.0.2/os/hal/ports/STM32/LLD/can_lld.h"
 1582              		.file 27 "src/ChibiOS_3.0.2/os/hal/include/i2c.h"
 1583              		.file 28 "src/ChibiOS_3.0.2/os/hal/ports/STM32/LLD/I2Cv1/i2c_lld.h"
 1584              		.file 29 "src/ChibiOS_3.0.2/os/hal/include/icu.h"
 1585              		.file 30 "src/ChibiOS_3.0.2/os/hal/ports/STM32/LLD/TIMv1/icu_lld.h"
 1586              		.file 31 "src/ChibiOS_3.0.2/os/hal/ports/STM32/LLD/TIMv1/stm32_tim.h"
 1587              		.file 32 "src/ChibiOS_3.0.2/os/hal/include/serial.h"
 1588              		.file 33 "src/ChibiOS_3.0.2/os/hal/ports/STM32/LLD/USARTv1/serial_lld.h"
 1589              		.file 34 "src/ChibiOS_3.0.2/os/hal/include/spi.h"
 1590              		.file 35 "src/ChibiOS_3.0.2/os/hal/ports/STM32/LLD/SPIv1/spi_lld.h"
 1591              		.file 36 "src/ChibiOS_3.0.2/os/hal/include/uart.h"
 1592              		.file 37 "src/ChibiOS_3.0.2/os/hal/ports/STM32/LLD/USARTv1/uart_lld.h"
 1593              		.file 38 "src/ChibiOS_3.0.2/os/hal/include/usb.h"
 1594              		.file 39 "src/ChibiOS_3.0.2/os/hal/ports/STM32/LLD/OTGv1/usb_lld.h"
 1595              		.file 40 "src/ChibiOS_3.0.2/os/hal/ports/STM32/LLD/OTGv1/stm32_otg.h"