ARM GAS  C:\Users\USER\AppData\Local\Temp\cc5K3Chh.s 			page 1


   1              		.cpu cortex-m4
   2              		.eabi_attribute 27, 1
   3              		.eabi_attribute 28, 1
   4              		.eabi_attribute 20, 1
   5              		.eabi_attribute 21, 1
   6              		.eabi_attribute 23, 3
   7              		.eabi_attribute 24, 1
   8              		.eabi_attribute 25, 1
   9              		.eabi_attribute 26, 1
  10              		.eabi_attribute 30, 2
  11              		.eabi_attribute 34, 1
  12              		.eabi_attribute 18, 4
  13              		.file	"chcore_v7m.c"
  14              		.text
  15              	.Ltext0:
  16              		.cfi_sections	.debug_frame
  17              		.section	.text.SVC_Handler,"ax",%progbits
  18              		.align	1
  19              		.p2align 4,,15
  20              		.global	SVC_Handler
  21              		.arch armv7e-m
  22              		.syntax unified
  23              		.thumb
  24              		.thumb_func
  25              		.fpu fpv4-sp-d16
  26              		.type	SVC_Handler, %function
  27              	SVC_Handler:
  28              	.LFB219:
  29              		.file 1 "src/ChibiOS_3.0.2/os/rt/ports/ARMCMx/chcore_v7m.c"
  30              		.loc 1 62 24 view -0
  31              		.cfi_startproc
  32              		@ args = 0, pretend = 0, frame = 0
  33              		@ frame_needed = 1, uses_anonymous_args = 0
  34              		@ link register save eliminated.
  35              		.loc 1 64 3 view .LVU1
  36              		.loc 1 68 3 view .LVU2
  37              		.loc 1 62 24 is_stmt 0 view .LVU3
  38 0000 80B4     		push	{r7}
  39              		.cfi_def_cfa_offset 4
  40              		.cfi_offset 7, -4
  41              		.loc 1 68 14 view .LVU4
  42 0002 094A     		ldr	r2, .L4
  43 0004 5368     		ldr	r3, [r2, #4]
  44 0006 23F00103 		bic	r3, r3, #1
  45              		.loc 1 62 24 view .LVU5
  46 000a 00AF     		add	r7, sp, #0
  47              		.cfi_def_cfa_register 7
  48              		.loc 1 68 14 view .LVU6
  49 000c 5360     		str	r3, [r2, #4]
  50              		.loc 1 72 3 is_stmt 1 view .LVU7
  51              	.LBB51:
  52              	.LBI51:
  53              		.file 2 "src/ChibiOS_3.0.2/os/ext/CMSIS/include/core_cmFunc.h"
  54              		.loc 2 424 61 view .LVU8
  55              	.LBB52:
  56              		.loc 2 426 3 view .LVU9
  57              		.loc 2 428 3 view .LVU10
ARM GAS  C:\Users\USER\AppData\Local\Temp\cc5K3Chh.s 			page 2


  58              		.syntax unified
  59              	@ 428 "src/ChibiOS_3.0.2/os/ext/CMSIS/include/core_cmFunc.h" 1
  60 000e EFF30983 		MRS r3, psp
  61              	
  62              	@ 0 "" 2
  63              	.LVL0:
  64              		.loc 2 429 3 view .LVU11
  65              		.loc 2 429 3 is_stmt 0 view .LVU12
  66              		.thumb
  67              		.syntax unified
  68              	.LBE52:
  69              	.LBE51:
  70              		.loc 1 76 3 is_stmt 1 view .LVU13
  71              		.loc 1 79 3 view .LVU14
  72              	.LBB53:
  73              	.LBI53:
  74              		.loc 2 439 57 view .LVU15
  75              	.LBB54:
  76              		.loc 2 441 3 view .LVU16
  77              	.LBE54:
  78              	.LBE53:
  79              		.loc 1 76 7 is_stmt 0 view .LVU17
  80 0012 6833     		adds	r3, r3, #104
  81              	.LVL1:
  82              	.LBB56:
  83              	.LBB55:
  84              		.loc 2 441 3 view .LVU18
  85              		.syntax unified
  86              	@ 441 "src/ChibiOS_3.0.2/os/ext/CMSIS/include/core_cmFunc.h" 1
  87 0014 83F30988 		MSR psp, r3
  88              	
  89              	@ 0 "" 2
  90              	.LVL2:
  91              		.loc 2 441 3 view .LVU19
  92              		.thumb
  93              		.syntax unified
  94              	.LBE55:
  95              	.LBE56:
  96              		.loc 1 82 3 is_stmt 1 view .LVU20
  97              	.LBB57:
  98              	.LBI57:
  99              		.file 3 "src/ChibiOS_3.0.2/os/rt/ports/ARMCMx/chcore_v7m.h"
 100              		.loc 3 484 20 view .LVU21
 101              	.LBE57:
 102              		.loc 3 486 3 view .LVU22
 103              	.LBB62:
 104              	.LBB58:
 105              	.LBI58:
 106              		.loc 3 458 20 view .LVU23
 107              	.LBE58:
 108              	.LBE62:
 109              		.loc 3 461 3 view .LVU24
 110              	.LBB63:
 111              	.LBB61:
 112              	.LBB59:
 113              	.LBI59:
 114              		.loc 2 544 57 view .LVU25
ARM GAS  C:\Users\USER\AppData\Local\Temp\cc5K3Chh.s 			page 3


 115              	.LBB60:
 116              		.loc 2 546 3 view .LVU26
 117 0018 0023     		movs	r3, #0
 118              	.LVL3:
 119              		.loc 2 546 3 is_stmt 0 view .LVU27
 120              		.syntax unified
 121              	@ 546 "src/ChibiOS_3.0.2/os/ext/CMSIS/include/core_cmFunc.h" 1
 122 001a 83F31188 		MSR basepri, r3
 123              	@ 0 "" 2
 124              	.LVL4:
 125              		.loc 2 546 3 view .LVU28
 126              		.thumb
 127              		.syntax unified
 128              	.LBE60:
 129              	.LBE59:
 130              	.LBE61:
 131              	.LBE63:
 132              		.loc 1 83 1 view .LVU29
 133 001e BD46     		mov	sp, r7
 134              		.cfi_def_cfa_register 13
 135              		@ sp needed
 136 0020 5DF8047B 		ldr	r7, [sp], #4
 137              		.cfi_restore 7
 138              		.cfi_def_cfa_offset 0
 139 0024 7047     		bx	lr
 140              	.L5:
 141 0026 00BF     		.align	2
 142              	.L4:
 143 0028 30EF00E0 		.word	-536809680
 144              		.cfi_endproc
 145              	.LFE219:
 146              		.size	SVC_Handler, .-SVC_Handler
 147              		.section	.text._port_irq_epilogue,"ax",%progbits
 148              		.align	1
 149              		.p2align 4,,15
 150              		.global	_port_irq_epilogue
 151              		.syntax unified
 152              		.thumb
 153              		.thumb_func
 154              		.fpu fpv4-sp-d16
 155              		.type	_port_irq_epilogue, %function
 156              	_port_irq_epilogue:
 157              	.LFB220:
 158              		.loc 1 122 31 is_stmt 1 view -0
 159              		.cfi_startproc
 160              		@ args = 0, pretend = 0, frame = 0
 161              		@ frame_needed = 1, uses_anonymous_args = 0
 162              		.loc 1 124 3 view .LVU31
 163              	.LBB64:
 164              	.LBI64:
 165              		.loc 3 473 20 view .LVU32
 166              	.LBE64:
 167              		.loc 3 475 3 view .LVU33
 168              	.LBB75:
 169              	.LBB65:
 170              	.LBI65:
 171              		.loc 3 444 20 view .LVU34
ARM GAS  C:\Users\USER\AppData\Local\Temp\cc5K3Chh.s 			page 4


 172              	.LBE65:
 173              	.LBE75:
 174              		.loc 3 447 3 view .LVU35
 175              	.LVL5:
 176              	.LBB76:
 177              	.LBB72:
 178              	.LBB66:
 179              	.LBI66:
 180              		.loc 2 544 57 view .LVU36
 181              	.LBB67:
 182              		.loc 2 546 3 view .LVU37
 183              	.LBE67:
 184              	.LBE66:
 185              	.LBE72:
 186              	.LBE76:
 187              		.loc 1 122 31 is_stmt 0 view .LVU38
 188 0000 98B5     		push	{r3, r4, r7, lr}
 189              		.cfi_def_cfa_offset 16
 190              		.cfi_offset 3, -16
 191              		.cfi_offset 4, -12
 192              		.cfi_offset 7, -8
 193              		.cfi_offset 14, -4
 194              	.LBB77:
 195              	.LBB73:
 196              	.LBB70:
 197              	.LBB68:
 198              		.loc 2 546 3 view .LVU39
 199 0002 2023     		movs	r3, #32
 200              	.LBE68:
 201              	.LBE70:
 202              	.LBE73:
 203              	.LBE77:
 204              		.loc 1 122 31 view .LVU40
 205 0004 00AF     		add	r7, sp, #0
 206              		.cfi_def_cfa_register 7
 207              	.LBB78:
 208              	.LBB74:
 209              	.LBB71:
 210              	.LBB69:
 211              		.loc 2 546 3 view .LVU41
 212              		.syntax unified
 213              	@ 546 "src/ChibiOS_3.0.2/os/ext/CMSIS/include/core_cmFunc.h" 1
 214 0006 83F31188 		MSR basepri, r3
 215              	@ 0 "" 2
 216              	.LVL6:
 217              		.loc 2 546 3 view .LVU42
 218              		.thumb
 219              		.syntax unified
 220              	.LBE69:
 221              	.LBE71:
 222              	.LBE74:
 223              	.LBE78:
 224              		.loc 1 125 3 is_stmt 1 view .LVU43
 225              		.loc 1 125 11 is_stmt 0 view .LVU44
 226 000a 114B     		ldr	r3, .L12
 227 000c 5B68     		ldr	r3, [r3, #4]
 228              		.loc 1 125 6 view .LVU45
ARM GAS  C:\Users\USER\AppData\Local\Temp\cc5K3Chh.s 			page 5


 229 000e 13F40063 		ands	r3, r3, #2048
 230 0012 02D1     		bne	.L11
 231              		.loc 1 165 3 is_stmt 1 view .LVU46
 232              	.LBB79:
 233              	.LBI79:
 234              		.loc 3 484 20 view .LVU47
 235              	.LBE79:
 236              		.loc 3 486 3 view .LVU48
 237              	.LBB84:
 238              	.LBB80:
 239              	.LBI80:
 240              		.loc 3 458 20 view .LVU49
 241              	.LBE80:
 242              	.LBE84:
 243              		.loc 3 461 3 view .LVU50
 244              	.LVL7:
 245              	.LBB85:
 246              	.LBB83:
 247              	.LBB81:
 248              	.LBI81:
 249              		.loc 2 544 57 view .LVU51
 250              	.LBB82:
 251              		.loc 2 546 3 view .LVU52
 252              		.syntax unified
 253              	@ 546 "src/ChibiOS_3.0.2/os/ext/CMSIS/include/core_cmFunc.h" 1
 254 0014 83F31188 		MSR basepri, r3
 255              	@ 0 "" 2
 256              	.LVL8:
 257              		.loc 2 546 3 is_stmt 0 view .LVU53
 258              		.thumb
 259              		.syntax unified
 260              	.LBE82:
 261              	.LBE81:
 262              	.LBE83:
 263              	.LBE85:
 264              		.loc 1 166 1 view .LVU54
 265 0018 98BD     		pop	{r3, r4, r7, pc}
 266              	.L11:
 267              	.LBB86:
 268              		.loc 1 126 5 is_stmt 1 view .LVU55
 269              		.loc 1 130 7 view .LVU56
 270              	.LBB87:
 271              	.LBI87:
 272              		.loc 2 587 61 view .LVU57
 273              	.LBB88:
 274              		.loc 2 590 3 view .LVU58
 275              		.loc 2 593 3 view .LVU59
 276              		.loc 2 594 3 view .LVU60
 277              		.syntax unified
 278              	@ 594 "src/ChibiOS_3.0.2/os/ext/CMSIS/include/core_cmFunc.h" 1
 279 001a F1EE103A 		VMRS r3, fpscr
 280              	@ 0 "" 2
 281              	.LVL9:
 282              		.loc 2 595 3 view .LVU61
 283              		.loc 2 596 3 view .LVU62
 284              		.loc 2 596 3 is_stmt 0 view .LVU63
 285              		.thumb
ARM GAS  C:\Users\USER\AppData\Local\Temp\cc5K3Chh.s 			page 6


 286              		.syntax unified
 287              	.LBE88:
 288              	.LBE87:
 289              		.loc 1 134 5 is_stmt 1 view .LVU64
 290              	.LBB89:
 291              	.LBI89:
 292              		.loc 2 424 61 view .LVU65
 293              	.LBB90:
 294              		.loc 2 426 3 view .LVU66
 295              		.loc 2 428 3 view .LVU67
 296              		.syntax unified
 297              	@ 428 "src/ChibiOS_3.0.2/os/ext/CMSIS/include/core_cmFunc.h" 1
 298 001e EFF30984 		MRS r4, psp
 299              	
 300              	@ 0 "" 2
 301              	.LVL10:
 302              		.loc 2 429 3 view .LVU68
 303              		.loc 2 429 3 is_stmt 0 view .LVU69
 304              		.thumb
 305              		.syntax unified
 306              	.LBE90:
 307              	.LBE89:
 308              		.loc 1 138 5 is_stmt 1 view .LVU70
 309              		.loc 1 141 5 view .LVU71
 310              		.loc 1 143 32 is_stmt 0 view .LVU72
 311 0022 0C4B     		ldr	r3, .L12+4
 312              		.loc 1 141 16 view .LVU73
 313 0024 4FF08072 		mov	r2, #16777216
 314              		.loc 1 143 32 view .LVU74
 315 0028 DB68     		ldr	r3, [r3, #12]
 316              		.loc 1 143 17 view .LVU75
 317 002a 44F8083C 		str	r3, [r4, #-8]
 318              		.loc 1 141 16 view .LVU76
 319 002e 44F84C2C 		str	r2, [r4, #-76]
 320              		.loc 1 143 5 is_stmt 1 view .LVU77
 321              		.loc 1 147 5 view .LVU78
 322              	.LVL11:
 323              	.LBB91:
 324              	.LBI91:
 325              		.loc 2 439 57 view .LVU79
 326              	.LBB92:
 327              		.loc 2 441 3 view .LVU80
 328              	.LBE92:
 329              	.LBE91:
 330              		.loc 1 138 9 is_stmt 0 view .LVU81
 331 0032 A4F16803 		sub	r3, r4, #104
 332              	.LVL12:
 333              	.LBB94:
 334              	.LBB93:
 335              		.loc 2 441 3 view .LVU82
 336              		.syntax unified
 337              	@ 441 "src/ChibiOS_3.0.2/os/ext/CMSIS/include/core_cmFunc.h" 1
 338 0036 83F30988 		MSR psp, r3
 339              	
 340              	@ 0 "" 2
 341              	.LVL13:
 342              		.loc 2 441 3 view .LVU83
ARM GAS  C:\Users\USER\AppData\Local\Temp\cc5K3Chh.s 			page 7


 343              		.thumb
 344              		.syntax unified
 345              	.LBE93:
 346              	.LBE94:
 347              		.loc 1 151 5 is_stmt 1 view .LVU84
 348              		.loc 1 151 9 is_stmt 0 view .LVU85
 349 003a FFF7FEFF 		bl	chSchIsPreemptionRequired
 350              	.LVL14:
 351              		.loc 1 151 8 view .LVU86
 352 003e 18B1     		cbz	r0, .L8
 353              		.loc 1 153 7 is_stmt 1 view .LVU87
 354              		.loc 1 153 16 is_stmt 0 view .LVU88
 355 0040 054B     		ldr	r3, .L12+8
 356 0042 44F8503C 		str	r3, [r4, #-80]
 357              	.LBE86:
 358              		.loc 1 166 1 view .LVU89
 359 0046 98BD     		pop	{r3, r4, r7, pc}
 360              	.LVL15:
 361              	.L8:
 362              	.LBB95:
 363              		.loc 1 158 7 is_stmt 1 view .LVU90
 364              		.loc 1 158 16 is_stmt 0 view .LVU91
 365 0048 044B     		ldr	r3, .L12+12
 366 004a 44F8503C 		str	r3, [r4, #-80]
 367              	.LBE95:
 368              		.loc 1 166 1 view .LVU92
 369 004e 98BD     		pop	{r3, r4, r7, pc}
 370              	.LVL16:
 371              	.L13:
 372              		.loc 1 166 1 view .LVU93
 373              		.align	2
 374              	.L12:
 375 0050 00ED00E0 		.word	-536810240
 376 0054 30EF00E0 		.word	-536809680
 377 0058 00000000 		.word	_port_switch_from_isr
 378 005c 00000000 		.word	_port_exit_from_isr
 379              		.cfi_endproc
 380              	.LFE220:
 381              		.size	_port_irq_epilogue, .-_port_irq_epilogue
 382              		.text
 383              	.Letext0:
 384              		.file 4 "c:\\program files (x86)\\gnu tools arm embedded\\8 2018-q4-major\\arm-none-eabi\\include\
 385              		.file 5 "c:\\program files (x86)\\gnu tools arm embedded\\8 2018-q4-major\\arm-none-eabi\\include\
 386              		.file 6 "src/ChibiOS_3.0.2/os/rt/ports/ARMCMx/compilers/GCC/chtypes.h"
 387              		.file 7 "src/ChibiOS_3.0.2/os/rt/include/chsystypes.h"
 388              		.file 8 "src/ChibiOS_3.0.2/os/rt/include/chschd.h"
 389              		.file 9 "src/ChibiOS_3.0.2/os/ext/CMSIS/include/core_cm4.h"
 390              		.file 10 "src/ChibiOS_3.0.2/os/ext/CMSIS/ST/system_stm32f4xx.h"
 391              		.file 11 "src/ChibiOS_3.0.2/os/rt/ports/ARMCMx/chcore.h"
 392              		.file 12 "src/ChibiOS_3.0.2/os/rt/include/chtm.h"
 393              		.file 13 "src/ChibiOS_3.0.2/os/rt/include/chsem.h"
 394              		.file 14 "src/ChibiOS_3.0.2/os/rt/include/chmtx.h"
 395              		.file 15 "src/ChibiOS_3.0.2/os/rt/include/chregistry.h"