ARM GAS  C:\Users\USER\AppData\Local\Temp\cc5K3Chh.s 			page 1


   1              		.cpu cortex-m4
   2              		.eabi_attribute 27, 1
   3              		.eabi_attribute 28, 1
   4              		.eabi_attribute 20, 1
   5              		.eabi_attribute 21, 1
   6              		.eabi_attribute 23, 3
   7              		.eabi_attribute 24, 1
   8              		.eabi_attribute 25, 1
   9              		.eabi_attribute 26, 1
  10              		.eabi_attribute 30, 2
  11              		.eabi_attribute 34, 1
  12              		.eabi_attribute 18, 4
  13              		.file	"chcore_v7m.c"
  14              		.text
  15              	.Ltext0:
  16              		.cfi_sections	.debug_frame
  17              		.section	.text.SVC_Handler,"ax",%progbits
  18              		.align	1
  19              		.p2align 4,,15
  20              		.global	SVC_Handler
  21              		.arch armv7e-m
  22              		.syntax unified
  23              		.thumb
  24              		.thumb_func
  25              		.fpu fpv4-sp-d16
  26              		.type	SVC_Handler, %function
  27              	SVC_Handler:
  28              	.LFB219:
  29              		.file 1 "src/ChibiOS_3.0.2/os/rt/ports/ARMCMx/chcore_v7m.c"
  30              		.loc 1 62 24 view -0
  31              		.cfi_startproc
  32              		@ args = 0, pretend = 0, frame = 0
  33              		@ frame_needed = 1, uses_anonymous_args = 0
  34              		@ link register save eliminated.
  35              		.loc 1 64 3 view .LVU1
  36              		.loc 1 68 3 view .LVU2
  37              		.loc 1 62 24 is_stmt 0 view .LVU3
  38 0000 80B4     		push	{r7}
  39              		.cfi_def_cfa_offset 4
  40              		.cfi_offset 7, -4
  41              		.loc 1 68 14 view .LVU4
  42 0002 094A     		ldr	r2, .L4
  43 0004 5368     		ldr	r3, [r2, #4]
  44 0006 23F00103 		bic	r3, r3, #1
  45              		.loc 1 62 24 view .LVU5
  46 000a 00AF     		add	r7, sp, #0
  47              		.cfi_def_cfa_register 7
  48              		.loc 1 68 14 view .LVU6
  49 000c 5360     		str	r3, [r2, #4]
  50              		.loc 1 72 3 is_stmt 1 view .LVU7
  51              	.LBB51:
  52              	.LBI51:
  53              		.file 2 "src/ChibiOS_3.0.2/os/ext/CMSIS/include/core_cmFunc.h"
  54              		.loc 2 424 61 view .LVU8
  55              	.LBB52:
  56              		.loc 2 426 3 view .LVU9
  57              		.loc 2 428 3 view .LVU10
ARM GAS  C:\Users\USER\AppData\Local\Temp\cc5K3Chh.s 			page 2


  58              		.syntax unified
  59              	@ 428 "src/ChibiOS_3.0.2/os/ext/CMSIS/include/core_cmFunc.h" 1
  60 000e EFF30983 		MRS r3, psp
  61              	
  62              	@ 0 "" 2
  63              	.LVL0:
  64              		.loc 2 429 3 view .LVU11
  65              		.loc 2 429 3 is_stmt 0 view .LVU12
  66              		.thumb
  67              		.syntax unified
  68              	.LBE52:
  69              	.LBE51:
  70              		.loc 1 76 3 is_stmt 1 view .LVU13
  71              		.loc 1 79 3 view .LVU14
  72              	.LBB53:
  73              	.LBI53:
  74              		.loc 2 439 57 view .LVU15
  75              	.LBB54:
  76              		.loc 2 441 3 view .LVU16
  77              	.LBE54:
  78              	.LBE53:
  79              		.loc 1 76 7 is_stmt 0 view .LVU17
  80 0012 6833     		adds	r3, r3, #104
  81              	.LVL1:
  82              	.LBB56:
  83              	.LBB55:
  84              		.loc 2 441 3 view .LVU18
  85              		.syntax unified
  86              	@ 441 "src/ChibiOS_3.0.2/os/ext/CMSIS/include/core_cmFunc.h" 1
  87 0014 83F30988 		MSR psp, r3
  88              	
  89              	@ 0 "" 2
  90              	.LVL2:
  91              		.loc 2 441 3 view .LVU19
  92              		.thumb
  93              		.syntax unified
  94              	.LBE55:
  95              	.LBE56:
  96              		.loc 1 82 3 is_stmt 1 view .LVU20
  97              	.LBB57:
  98              	.LBI57:
  99              		.file 3 "src/ChibiOS_3.0.2/os/rt/ports/ARMCMx/chcore_v7m.h"
 100              		.loc 3 484 20 view .LVU21
 101              	.LBE57:
 102              		.loc 3 486 3 view .LVU22
 103              	.LBB62:
 104              	.LBB58:
 105              	.LBI58:
 106              		.loc 3 458 20 view .LVU23
 107              	.LBE58:
 108              	.LBE62:
 109              		.loc 3 461 3 view .LVU24
 110              	.LBB63:
 111              	.LBB61:
 112              	.LBB59:
 113              	.LBI59:
 114              		.loc 2 544 57 view .LVU25
ARM GAS  C:\Users\USER\AppData\Local\Temp\cc5K3Chh.s 			page 3


 115              	.LBB60:
 116              		.loc 2 546 3 view .LVU26
 117 0018 0023     		movs	r3, #0
 118              	.LVL3:
 119              		.loc 2 546 3 is_stmt 0 view .LVU27
 120              		.syntax unified
 121              	@ 546 "src/ChibiOS_3.0.2/os/ext/CMSIS/include/core_cmFunc.h" 1
 122 001a 83F31188 		MSR basepri, r3
 123              	@ 0 "" 2
 124              	.LVL4:
 125              		.loc 2 546 3 view .LVU28
 126              		.thumb
 127              		.syntax unified
 128              	.LBE60:
 129              	.LBE59:
 130              	.LBE61:
 131              	.LBE63:
 132              		.loc 1 83 1 view .LVU29
 133 001e BD46     		mov	sp, r7
 134              		.cfi_def_cfa_register 13
 135              		@ sp needed
 136 0020 5DF8047B 		ldr	r7, [sp], #4
 137              		.cfi_restore 7
 138              		.cfi_def_cfa_offset 0
 139 0024 7047     		bx	lr
 140              	.L5:
 141 0026 00BF     		.align	2
 142              	.L4:
 143 0028 30EF00E0 		.word	-536809680
 144              		.cfi_endproc
 145              	.LFE219:
 146              		.size	SVC_Handler, .-SVC_Handler
 147              		.section	.text._port_irq_epilogue,"ax",%progbits
 148              		.align	1
 149              		.p2align 4,,15
 150              		.global	_port_irq_epilogue
 151              		.syntax unified
 152              		.thumb
 153              		.thumb_func
 154              		.fpu fpv4-sp-d16
 155              		.type	_port_irq_epilogue, %function
 156              	_port_irq_epilogue:
 157              	.LFB220:
 158              		.loc 1 122 31 is_stmt 1 view -0
 159              		.cfi_startproc
 160              		@ args = 0, pretend = 0, frame = 0
 161              		@ frame_needed = 1, uses_anonymous_args = 0
 162              		.loc 1 124 3 view .LVU31
 163              	.LBB64:
 164              	.LBI64:
 165              		.loc 3 473 20 view .LVU32
 166              	.LBE64:
 167              		.loc 3 475 3 view .LVU33
 168              	.LBB75:
 169              	.LBB65:
 170              	.LBI65:
 171              		.loc 3 444 20 view .LVU34
ARM GAS  C:\Users\USER\AppData\Local\Temp\cc5K3Chh.s 			page 4


 172              	.LBE65:
 173              	.LBE75:
 174              		.loc 3 447 3 view .LVU35
 175              	.LVL5:
 176              	.LBB76:
 177              	.LBB72:
 178              	.LBB66:
 179              	.LBI66:
 180              		.loc 2 544 57 view .LVU36
 181              	.LBB67:
 182              		.loc 2 546 3 view .LVU37
 183              	.LBE67:
 184              	.LBE66:
 185              	.LBE72:
 186              	.LBE76:
 187              		.loc 1 122 31 is_stmt 0 view .LVU38
 188 0000 98B5     		push	{r3, r4, r7, lr}
 189              		.cfi_def_cfa_offset 16
 190              		.cfi_offset 3, -16
 191              		.cfi_offset 4, -12
 192              		.cfi_offset 7, -8
 193              		.cfi_offset 14, -4
 194              	.LBB77:
 195              	.LBB73:
 196              	.LBB70:
 197              	.LBB68:
 198              		.loc 2 546 3 view .LVU39
 199 0002 2023     		movs	r3, #32
 200              	.LBE68:
 201              	.LBE70:
 202              	.LBE73:
 203              	.LBE77:
 204              		.loc 1 122 31 view .LVU40
 205 0004 00AF     		add	r7, sp, #0
 206              		.cfi_def_cfa_register 7
 207              	.LBB78:
 208              	.LBB74:
 209              	.LBB71:
 210              	.LBB69:
 211              		.loc 2 546 3 view .LVU41
 212              		.syntax unified
 213              	@ 546 "src/ChibiOS_3.0.2/os/ext/CMSIS/include/core_cmFunc.h" 1
 214 0006 83F31188 		MSR basepri, r3
 215              	@ 0 "" 2
 216              	.LVL6:
 217              		.loc 2 546 3 view .LVU42
 218              		.thumb
 219              		.syntax unified
 220              	.LBE69:
 221              	.LBE71:
 222              	.LBE74:
 223              	.LBE78:
 224              		.loc 1 125 3 is_stmt 1 view .LVU43
 225              		.loc 1 125 11 is_stmt 0 view .LVU44
 226 000a 114B     		ldr	r3, .L12
 227 000c 5B68     		ldr	r3, [r3, #4]
 228              		.loc 1 125 6 view .LVU45
ARM GAS  C:\Users\USER\AppData\Local\Temp\cc5K3Chh.s 			page 5


 229 000e 13F40063 		ands	r3, r3, #2048
 230 0012 02D1     		bne	.L11
 231              		.loc 1 165 3 is_stmt 1 view .LVU46
 232              	.LBB79:
 233              	.LBI79:
 234              		.loc 3 484 20 view .LVU47
 235              	.LBE79:
 236              		.loc 3 486 3 view .LVU48
 237              	.LBB84:
 238              	.LBB80:
 239              	.LBI80:
 240              		.loc 3 458 20 view .LVU49
 241              	.LBE80:
 242              	.LBE84:
 243              		.loc 3 461 3 view .LVU50
 244              	.LVL7:
 245              	.LBB85:
 246              	.LBB83:
 247              	.LBB81:
 248              	.LBI81:
 249              		.loc 2 544 57 view .LVU51
 250              	.LBB82:
 251              		.loc 2 546 3 view .LVU52
 252              		.syntax unified
 253              	@ 546 "src/ChibiOS_3.0.2/os/ext/CMSIS/include/core_cmFunc.h" 1
 254 0014 83F31188 		MSR basepri, r3
 255              	@ 0 "" 2
 256              	.LVL8:
 257              		.loc 2 546 3 is_stmt 0 view .LVU53
 258              		.thumb
 259              		.syntax unified
 260              	.LBE82:
 261              	.LBE81:
 262              	.LBE83:
 263              	.LBE85:
 264              		.loc 1 166 1 view .LVU54
 265 0018 98BD     		pop	{r3, r4, r7, pc}
 266              	.L11:
 267              	.LBB86:
 268              		.loc 1 126 5 is_stmt 1 view .LVU55
 269              		.loc 1 130 7 view .LVU56
 270              	.LBB87:
 271              	.LBI87:
 272              		.loc 2 587 61 view .LVU57
 273              	.LBB88:
 274              		.loc 2 590 3 view .LVU58
 275              		.loc 2 593 3 view .LVU59
 276              		.loc 2 594 3 view .LVU60
 277              		.syntax unified
 278              	@ 594 "src/ChibiOS_3.0.2/os/ext/CMSIS/include/core_cmFunc.h" 1
 279 001a F1EE103A 		VMRS r3, fpscr
 280              	@ 0 "" 2
 281              	.LVL9:
 282              		.loc 2 595 3 view .LVU61
 283              		.loc 2 596 3 view .LVU62
 284              		.loc 2 596 3 is_stmt 0 view .LVU63
 285              		.thumb
ARM GAS  C:\Users\USER\AppData\Local\Temp\cc5K3Chh.s 			page 6


 286              		.syntax unified
 287              	.LBE88:
 288              	.LBE87:
 289              		.loc 1 134 5 is_stmt 1 view .LVU64
 290              	.LBB89:
 291              	.LBI89:
 292              		.loc 2 424 61 view .LVU65
 293              	.LBB90:
 294              		.loc 2 426 3 view .LVU66
 295              		.loc 2 428 3 view .LVU67
 296              		.syntax unified
 297              	@ 428 "src/ChibiOS_3.0.2/os/ext/CMSIS/include/core_cmFunc.h" 1
 298 001e EFF30984 		MRS r4, psp
 299              	
 300              	@ 0 "" 2
 301              	.LVL10:
 302              		.loc 2 429 3 view .LVU68
 303              		.loc 2 429 3 is_stmt 0 view .LVU69
 304              		.thumb
 305              		.syntax unified
 306              	.LBE90:
 307              	.LBE89:
 308              		.loc 1 138 5 is_stmt 1 view .LVU70
 309              		.loc 1 141 5 view .LVU71
 310              		.loc 1 143 32 is_stmt 0 view .LVU72
 311 0022 0C4B     		ldr	r3, .L12+4
 312              		.loc 1 141 16 view .LVU73
 313 0024 4FF08072 		mov	r2, #16777216
 314              		.loc 1 143 32 view .LVU74
 315 0028 DB68     		ldr	r3, [r3, #12]
 316              		.loc 1 143 17 view .LVU75
 317 002a 44F8083C 		str	r3, [r4, #-8]
 318              		.loc 1 141 16 view .LVU76
 319 002e 44F84C2C 		str	r2, [r4, #-76]
 320              		.loc 1 143 5 is_stmt 1 view .LVU77
 321              		.loc 1 147 5 view .LVU78
 322              	.LVL11:
 323              	.LBB91:
 324              	.LBI91:
 325              		.loc 2 439 57 view .LVU79
 326              	.LBB92:
 327              		.loc 2 441 3 view .LVU80
 328              	.LBE92:
 329              	.LBE91:
 330              		.loc 1 138 9 is_stmt 0 view .LVU81
 331 0032 A4F16803 		sub	r3, r4, #104
 332              	.LVL12:
 333              	.LBB94:
 334              	.LBB93:
 335              		.loc 2 441 3 view .LVU82
 336              		.syntax unified
 337              	@ 441 "src/ChibiOS_3.0.2/os/ext/CMSIS/include/core_cmFunc.h" 1
 338 0036 83F30988 		MSR psp, r3
 339              	
 340              	@ 0 "" 2
 341              	.LVL13:
 342              		.loc 2 441 3 view .LVU83
ARM GAS  C:\Users\USER\AppData\Local\Temp\cc5K3Chh.s 			page 7


 343              		.thumb
 344              		.syntax unified
 345              	.LBE93:
 346              	.LBE94:
 347              		.loc 1 151 5 is_stmt 1 view .LVU84
 348              		.loc 1 151 9 is_stmt 0 view .LVU85
 349 003a FFF7FEFF 		bl	chSchIsPreemptionRequired
 350              	.LVL14:
 351              		.loc 1 151 8 view .LVU86
 352 003e 18B1     		cbz	r0, .L8
 353              		.loc 1 153 7 is_stmt 1 view .LVU87
 354              		.loc 1 153 16 is_stmt 0 view .LVU88
 355 0040 054B     		ldr	r3, .L12+8
 356 0042 44F8503C 		str	r3, [r4, #-80]
 357              	.LBE86:
 358              		.loc 1 166 1 view .LVU89
 359 0046 98BD     		pop	{r3, r4, r7, pc}
 360              	.LVL15:
 361              	.L8:
 362              	.LBB95:
 363              		.loc 1 158 7 is_stmt 1 view .LVU90
 364              		.loc 1 158 16 is_stmt 0 view .LVU91
 365 0048 044B     		ldr	r3, .L12+12
 366 004a 44F8503C 		str	r3, [r4, #-80]
 367              	.LBE95:
 368              		.loc 1 166 1 view .LVU92
 369 004e 98BD     		pop	{r3, r4, r7, pc}
 370              	.LVL16:
 371              	.L13:
 372              		.loc 1 166 1 view .LVU93
 373              		.align	2
 374              	.L12:
 375 0050 00ED00E0 		.word	-536810240
 376 0054 30EF00E0 		.word	-536809680
 377 0058 00000000 		.word	_port_switch_from_isr
 378 005c 00000000 		.word	_port_exit_from_isr
 379              		.cfi_endproc
 380              	.LFE220:
 381              		.size	_port_irq_epilogue, .-_port_irq_epilogue
 382              		.text
 383              	.Letext0:
 384              		.file 4 "c:\\program files (x86)\\gnu tools arm embedded\\8 2018-q4-major\\arm-none-eabi\\include\
 385              		.file 5 "c:\\program files (x86)\\gnu tools arm embedded\\8 2018-q4-major\\arm-none-eabi\\include\
 386              		.file 6 "src/ChibiOS_3.0.2/os/rt/ports/ARMCMx/compilers/GCC/chtypes.h"
 387              		.file 7 "src/ChibiOS_3.0.2/os/rt/include/chsystypes.h"
 388              		.file 8 "src/ChibiOS_3.0.2/os/rt/include/chschd.h"
 389              		.file 9 "src/ChibiOS_3.0.2/os/ext/CMSIS/include/core_cm4.h"
 390              		.file 10 "src/ChibiOS_3.0.2/os/ext/CMSIS/ST/system_stm32f4xx.h"
 391              		.file 11 "src/ChibiOS_3.0.2/os/rt/ports/ARMCMx/chcore.h"
 392              		.file 12 "src/ChibiOS_3.0.2/os/rt/include/chtm.h"
 393              		.file 13 "src/ChibiOS_3.0.2/os/rt/include/chsem.h"
 394              		.file 14 "src/ChibiOS_3.0.2/os/rt/include/chmtx.h"
 395              		.file 15 "src/ChibiOS_3.0.2/os/rt/include/chregistry.h"
 396              		.section	.debug_info,"",%progbits
 397              	.Ldebug_info0:
 398 0000 340F0000 		.4byte	0xf34
 399 0004 0400     		.2byte	0x4
ARM GAS  C:\Users\USER\AppData\Local\Temp\cc5K3Chh.s 			page 8


 400 0006 00000000 		.4byte	.Ldebug_abbrev0
 401 000a 04       		.byte	0x4
 402 000b 01       		.uleb128 0x1
 403 000c 9A010000 		.4byte	.LASF168
 404 0010 0C       		.byte	0xc
 405 0011 3F070000 		.4byte	.LASF169
 406 0015 98070000 		.4byte	.LASF170
 407 0019 B8000000 		.4byte	.Ldebug_ranges0+0xb8
 408 001d 00000000 		.4byte	0
 409 0021 00000000 		.4byte	.Ldebug_line0
 410 0025 02       		.uleb128 0x2
 411 0026 04       		.byte	0x4
 412 0027 05       		.byte	0x5
 413 0028 696E7400 		.ascii	"int\000"
 414 002c 03       		.uleb128 0x3
 415 002d 04       		.byte	0x4
 416 002e 07       		.byte	0x7
 417 002f 0C030000 		.4byte	.LASF0
 418 0033 03       		.uleb128 0x3
 419 0034 01       		.byte	0x1
 420 0035 06       		.byte	0x6
 421 0036 3A000000 		.4byte	.LASF1
 422 003a 04       		.uleb128 0x4
 423 003b 46000000 		.4byte	.LASF4
 424 003f 04       		.byte	0x4
 425 0040 2B       		.byte	0x2b
 426 0041 18       		.byte	0x18
 427 0042 46000000 		.4byte	0x46
 428 0046 03       		.uleb128 0x3
 429 0047 01       		.byte	0x1
 430 0048 08       		.byte	0x8
 431 0049 3D050000 		.4byte	.LASF2
 432 004d 03       		.uleb128 0x3
 433 004e 02       		.byte	0x2
 434 004f 05       		.byte	0x5
 435 0050 68050000 		.4byte	.LASF3
 436 0054 04       		.uleb128 0x4
 437 0055 88060000 		.4byte	.LASF5
 438 0059 04       		.byte	0x4
 439 005a 39       		.byte	0x39
 440 005b 19       		.byte	0x19
 441 005c 60000000 		.4byte	0x60
 442 0060 03       		.uleb128 0x3
 443 0061 02       		.byte	0x2
 444 0062 07       		.byte	0x7
 445 0063 BD050000 		.4byte	.LASF6
 446 0067 04       		.uleb128 0x4
 447 0068 00040000 		.4byte	.LASF7
 448 006c 04       		.byte	0x4
 449 006d 4D       		.byte	0x4d
 450 006e 18       		.byte	0x18
 451 006f 73000000 		.4byte	0x73
 452 0073 03       		.uleb128 0x3
 453 0074 04       		.byte	0x4
 454 0075 05       		.byte	0x5
 455 0076 31010000 		.4byte	.LASF8
 456 007a 04       		.uleb128 0x4
ARM GAS  C:\Users\USER\AppData\Local\Temp\cc5K3Chh.s 			page 9


 457 007b D6060000 		.4byte	.LASF9
 458 007f 04       		.byte	0x4
 459 0080 4F       		.byte	0x4f
 460 0081 19       		.byte	0x19
 461 0082 86000000 		.4byte	0x86
 462 0086 03       		.uleb128 0x3
 463 0087 04       		.byte	0x4
 464 0088 07       		.byte	0x7
 465 0089 6A060000 		.4byte	.LASF10
 466 008d 03       		.uleb128 0x3
 467 008e 08       		.byte	0x8
 468 008f 05       		.byte	0x5
 469 0090 DA020000 		.4byte	.LASF11
 470 0094 04       		.uleb128 0x4
 471 0095 C1040000 		.4byte	.LASF12
 472 0099 04       		.byte	0x4
 473 009a 69       		.byte	0x69
 474 009b 19       		.byte	0x19
 475 009c A0000000 		.4byte	0xa0
 476 00a0 03       		.uleb128 0x3
 477 00a1 08       		.byte	0x8
 478 00a2 07       		.byte	0x7
 479 00a3 E6000000 		.4byte	.LASF13
 480 00a7 04       		.uleb128 0x4
 481 00a8 DA070000 		.4byte	.LASF14
 482 00ac 05       		.byte	0x5
 483 00ad 18       		.byte	0x18
 484 00ae 13       		.byte	0x13
 485 00af 3A000000 		.4byte	0x3a
 486 00b3 05       		.uleb128 0x5
 487 00b4 A7000000 		.4byte	0xa7
 488 00b8 04       		.uleb128 0x4
 489 00b9 2B030000 		.4byte	.LASF15
 490 00bd 05       		.byte	0x5
 491 00be 24       		.byte	0x24
 492 00bf 14       		.byte	0x14
 493 00c0 54000000 		.4byte	0x54
 494 00c4 04       		.uleb128 0x4
 495 00c5 35050000 		.4byte	.LASF16
 496 00c9 05       		.byte	0x5
 497 00ca 2C       		.byte	0x2c
 498 00cb 13       		.byte	0x13
 499 00cc 67000000 		.4byte	0x67
 500 00d0 05       		.uleb128 0x5
 501 00d1 C4000000 		.4byte	0xc4
 502 00d5 04       		.uleb128 0x4
 503 00d6 35060000 		.4byte	.LASF17
 504 00da 05       		.byte	0x5
 505 00db 30       		.byte	0x30
 506 00dc 14       		.byte	0x14
 507 00dd 7A000000 		.4byte	0x7a
 508 00e1 05       		.uleb128 0x5
 509 00e2 D5000000 		.4byte	0xd5
 510 00e6 06       		.uleb128 0x6
 511 00e7 E1000000 		.4byte	0xe1
 512 00eb 04       		.uleb128 0x4
 513 00ec 31000000 		.4byte	.LASF18
ARM GAS  C:\Users\USER\AppData\Local\Temp\cc5K3Chh.s 			page 10


 514 00f0 05       		.byte	0x5
 515 00f1 3C       		.byte	0x3c
 516 00f2 14       		.byte	0x14
 517 00f3 94000000 		.4byte	0x94
 518 00f7 04       		.uleb128 0x4
 519 00f8 47040000 		.4byte	.LASF19
 520 00fc 06       		.byte	0x6
 521 00fd 45       		.byte	0x45
 522 00fe 1D       		.byte	0x1d
 523 00ff D5000000 		.4byte	0xd5
 524 0103 04       		.uleb128 0x4
 525 0104 9E050000 		.4byte	.LASF20
 526 0108 06       		.byte	0x6
 527 0109 48       		.byte	0x48
 528 010a 1D       		.byte	0x1d
 529 010b A7000000 		.4byte	0xa7
 530 010f 04       		.uleb128 0x4
 531 0110 3A010000 		.4byte	.LASF21
 532 0114 06       		.byte	0x6
 533 0115 49       		.byte	0x49
 534 0116 1D       		.byte	0x1d
 535 0117 A7000000 		.4byte	0xa7
 536 011b 04       		.uleb128 0x4
 537 011c D8040000 		.4byte	.LASF22
 538 0120 06       		.byte	0x6
 539 0121 4A       		.byte	0x4a
 540 0122 1D       		.byte	0x1d
 541 0123 A7000000 		.4byte	0xa7
 542 0127 04       		.uleb128 0x4
 543 0128 1D010000 		.4byte	.LASF23
 544 012c 06       		.byte	0x6
 545 012d 4B       		.byte	0x4b
 546 012e 1D       		.byte	0x1d
 547 012f A7000000 		.4byte	0xa7
 548 0133 04       		.uleb128 0x4
 549 0134 11050000 		.4byte	.LASF24
 550 0138 06       		.byte	0x6
 551 0139 4C       		.byte	0x4c
 552 013a 1D       		.byte	0x1d
 553 013b D5000000 		.4byte	0xd5
 554 013f 04       		.uleb128 0x4
 555 0140 A1030000 		.4byte	.LASF25
 556 0144 06       		.byte	0x6
 557 0145 4D       		.byte	0x4d
 558 0146 1D       		.byte	0x1d
 559 0147 C4000000 		.4byte	0xc4
 560 014b 04       		.uleb128 0x4
 561 014c E5030000 		.4byte	.LASF26
 562 0150 06       		.byte	0x6
 563 0151 4F       		.byte	0x4f
 564 0152 1D       		.byte	0x1d
 565 0153 D5000000 		.4byte	0xd5
 566 0157 04       		.uleb128 0x4
 567 0158 FD020000 		.4byte	.LASF27
 568 015c 06       		.byte	0x6
 569 015d 51       		.byte	0x51
 570 015e 1D       		.byte	0x1d
ARM GAS  C:\Users\USER\AppData\Local\Temp\cc5K3Chh.s 			page 11


 571 015f C4000000 		.4byte	0xc4
 572 0163 04       		.uleb128 0x4
 573 0164 B8060000 		.4byte	.LASF28
 574 0168 07       		.byte	0x7
 575 0169 33       		.byte	0x33
 576 016a 12       		.byte	0x12
 577 016b D5000000 		.4byte	0xd5
 578 016f 05       		.uleb128 0x5
 579 0170 63010000 		.4byte	0x163
 580 0174 04       		.uleb128 0x4
 581 0175 A8060000 		.4byte	.LASF29
 582 0179 07       		.byte	0x7
 583 017a 3F       		.byte	0x3f
 584 017b 1A       		.byte	0x1a
 585 017c 80010000 		.4byte	0x180
 586 0180 07       		.uleb128 0x7
 587 0181 92030000 		.4byte	.LASF51
 588 0185 48       		.byte	0x48
 589 0186 08       		.byte	0x8
 590 0187 C2       		.byte	0xc2
 591 0188 08       		.byte	0x8
 592 0189 9A020000 		.4byte	0x29a
 593 018d 08       		.uleb128 0x8
 594 018e 97050000 		.4byte	.LASF30
 595 0192 08       		.byte	0x8
 596 0193 C3       		.byte	0xc3
 597 0194 1A       		.byte	0x1a
 598 0195 A6020000 		.4byte	0x2a6
 599 0199 00       		.byte	0
 600 019a 08       		.uleb128 0x8
 601 019b 0A050000 		.4byte	.LASF31
 602 019f 08       		.byte	0x8
 603 01a0 C5       		.byte	0xc5
 604 01a1 1A       		.byte	0x1a
 605 01a2 A6020000 		.4byte	0x2a6
 606 01a6 04       		.byte	0x4
 607 01a7 08       		.uleb128 0x8
 608 01a8 CA000000 		.4byte	.LASF32
 609 01ac 08       		.byte	0x8
 610 01ad C7       		.byte	0xc7
 611 01ae 19       		.byte	0x19
 612 01af 33010000 		.4byte	0x133
 613 01b3 08       		.byte	0x8
 614 01b4 08       		.uleb128 0x8
 615 01b5 8C040000 		.4byte	.LASF33
 616 01b9 08       		.byte	0x8
 617 01ba C8       		.byte	0xc8
 618 01bb 19       		.byte	0x19
 619 01bc 3F070000 		.4byte	0x73f
 620 01c0 0C       		.byte	0xc
 621 01c1 08       		.uleb128 0x8
 622 01c2 67010000 		.4byte	.LASF34
 623 01c6 08       		.byte	0x8
 624 01c7 CA       		.byte	0xca
 625 01c8 1A       		.byte	0x1a
 626 01c9 A6020000 		.4byte	0x2a6
 627 01cd 10       		.byte	0x10
ARM GAS  C:\Users\USER\AppData\Local\Temp\cc5K3Chh.s 			page 12


 628 01ce 08       		.uleb128 0x8
 629 01cf 7E040000 		.4byte	.LASF35
 630 01d3 08       		.byte	0x8
 631 01d4 CB       		.byte	0xcb
 632 01d5 1A       		.byte	0x1a
 633 01d6 A6020000 		.4byte	0x2a6
 634 01da 14       		.byte	0x14
 635 01db 08       		.uleb128 0x8
 636 01dc FC070000 		.4byte	.LASF36
 637 01e0 08       		.byte	0x8
 638 01e1 D2       		.byte	0xd2
 639 01e2 1A       		.byte	0x1a
 640 01e3 030B0000 		.4byte	0xb03
 641 01e7 18       		.byte	0x18
 642 01e8 08       		.uleb128 0x8
 643 01e9 72050000 		.4byte	.LASF37
 644 01ed 08       		.byte	0x8
 645 01ee DD       		.byte	0xdd
 646 01ef 19       		.byte	0x19
 647 01f0 0F010000 		.4byte	0x10f
 648 01f4 1C       		.byte	0x1c
 649 01f5 08       		.uleb128 0x8
 650 01f6 B5050000 		.4byte	.LASF38
 651 01fa 08       		.byte	0x8
 652 01fb E1       		.byte	0xe1
 653 01fc 19       		.byte	0x19
 654 01fd 03010000 		.4byte	0x103
 655 0201 1D       		.byte	0x1d
 656 0202 08       		.uleb128 0x8
 657 0203 85070000 		.4byte	.LASF39
 658 0207 08       		.byte	0x8
 659 0208 E6       		.byte	0xe6
 660 0209 19       		.byte	0x19
 661 020a 1B010000 		.4byte	0x11b
 662 020e 1E       		.byte	0x1e
 663 020f 08       		.uleb128 0x8
 664 0210 7A050000 		.4byte	.LASF40
 665 0214 08       		.byte	0x8
 666 0215 EC       		.byte	0xec
 667 0216 19       		.byte	0x19
 668 0217 27010000 		.4byte	0x127
 669 021b 1F       		.byte	0x1f
 670 021c 08       		.uleb128 0x8
 671 021d 44030000 		.4byte	.LASF41
 672 0221 08       		.byte	0x8
 673 0222 F3       		.byte	0xf3
 674 0223 19       		.byte	0x19
 675 0224 6F010000 		.4byte	0x16f
 676 0228 20       		.byte	0x20
 677 0229 09       		.uleb128 0x9
 678 022a 705F7500 		.ascii	"p_u\000"
 679 022e 08       		.byte	0x8
 680 022f 3101     		.2byte	0x131
 681 0231 19       		.byte	0x19
 682 0232 2F0A0000 		.4byte	0xa2f
 683 0236 24       		.byte	0x24
 684 0237 0A       		.uleb128 0xa
ARM GAS  C:\Users\USER\AppData\Local\Temp\cc5K3Chh.s 			page 13


 685 0238 38040000 		.4byte	.LASF42
 686 023c 08       		.byte	0x8
 687 023d 3601     		.2byte	0x136
 688 023f 19       		.byte	0x19
 689 0240 AC020000 		.4byte	0x2ac
 690 0244 28       		.byte	0x28
 691 0245 0A       		.uleb128 0xa
 692 0246 73030000 		.4byte	.LASF43
 693 024a 08       		.byte	0x8
 694 024b 3C01     		.2byte	0x13c
 695 024d 19       		.byte	0x19
 696 024e D3020000 		.4byte	0x2d3
 697 0252 2C       		.byte	0x2c
 698 0253 0A       		.uleb128 0xa
 699 0254 15070000 		.4byte	.LASF44
 700 0258 08       		.byte	0x8
 701 0259 4001     		.2byte	0x140
 702 025b 19       		.byte	0x19
 703 025c 3F010000 		.4byte	0x13f
 704 0260 34       		.byte	0x34
 705 0261 0A       		.uleb128 0xa
 706 0262 2A060000 		.4byte	.LASF45
 707 0266 08       		.byte	0x8
 708 0267 4601     		.2byte	0x146
 709 0269 19       		.byte	0x19
 710 026a 4B010000 		.4byte	0x14b
 711 026e 38       		.byte	0x38
 712 026f 0A       		.uleb128 0xa
 713 0270 5E050000 		.4byte	.LASF46
 714 0274 08       		.byte	0x8
 715 0275 4D01     		.2byte	0x14d
 716 0277 1A       		.byte	0x1a
 717 0278 FD0A0000 		.4byte	0xafd
 718 027c 3C       		.byte	0x3c
 719 027d 0A       		.uleb128 0xa
 720 027e C2060000 		.4byte	.LASF47
 721 0282 08       		.byte	0x8
 722 0283 5101     		.2byte	0x151
 723 0285 19       		.byte	0x19
 724 0286 33010000 		.4byte	0x133
 725 028a 40       		.byte	0x40
 726 028b 0A       		.uleb128 0xa
 727 028c DE000000 		.4byte	.LASF48
 728 0290 08       		.byte	0x8
 729 0291 5801     		.2byte	0x158
 730 0293 1A       		.byte	0x1a
 731 0294 93030000 		.4byte	0x393
 732 0298 44       		.byte	0x44
 733 0299 00       		.byte	0
 734 029a 04       		.uleb128 0x4
 735 029b E2070000 		.4byte	.LASF49
 736 029f 07       		.byte	0x7
 737 02a0 44       		.byte	0x44
 738 02a1 14       		.byte	0x14
 739 02a2 A6020000 		.4byte	0x2a6
 740 02a6 0B       		.uleb128 0xb
 741 02a7 04       		.byte	0x4
ARM GAS  C:\Users\USER\AppData\Local\Temp\cc5K3Chh.s 			page 14


 742 02a8 74010000 		.4byte	0x174
 743 02ac 04       		.uleb128 0x4
 744 02ad 15040000 		.4byte	.LASF50
 745 02b1 07       		.byte	0x7
 746 02b2 49       		.byte	0x49
 747 02b3 20       		.byte	0x20
 748 02b4 B8020000 		.4byte	0x2b8
 749 02b8 07       		.uleb128 0x7
 750 02b9 52060000 		.4byte	.LASF52
 751 02bd 04       		.byte	0x4
 752 02be 08       		.byte	0x8
 753 02bf B0       		.byte	0xb0
 754 02c0 08       		.byte	0x8
 755 02c1 D3020000 		.4byte	0x2d3
 756 02c5 08       		.uleb128 0x8
 757 02c6 97050000 		.4byte	.LASF30
 758 02ca 08       		.byte	0x8
 759 02cb B1       		.byte	0xb1
 760 02cc 1A       		.byte	0x1a
 761 02cd A6020000 		.4byte	0x2a6
 762 02d1 00       		.byte	0
 763 02d2 00       		.byte	0
 764 02d3 04       		.uleb128 0x4
 765 02d4 EF050000 		.4byte	.LASF53
 766 02d8 07       		.byte	0x7
 767 02d9 50       		.byte	0x50
 768 02da 21       		.byte	0x21
 769 02db DF020000 		.4byte	0x2df
 770 02df 07       		.uleb128 0x7
 771 02e0 B3000000 		.4byte	.LASF54
 772 02e4 08       		.byte	0x8
 773 02e5 08       		.byte	0x8
 774 02e6 B7       		.byte	0xb7
 775 02e7 08       		.byte	0x8
 776 02e8 07030000 		.4byte	0x307
 777 02ec 08       		.uleb128 0x8
 778 02ed 97050000 		.4byte	.LASF30
 779 02f1 08       		.byte	0x8
 780 02f2 B8       		.byte	0xb8
 781 02f3 1A       		.byte	0x1a
 782 02f4 A6020000 		.4byte	0x2a6
 783 02f8 00       		.byte	0
 784 02f9 08       		.uleb128 0x8
 785 02fa 0A050000 		.4byte	.LASF31
 786 02fe 08       		.byte	0x8
 787 02ff B9       		.byte	0xb9
 788 0300 1A       		.byte	0x1a
 789 0301 A6020000 		.4byte	0x2a6
 790 0305 04       		.byte	0x4
 791 0306 00       		.byte	0
 792 0307 04       		.uleb128 0x4
 793 0308 00000000 		.4byte	.LASF55
 794 030c 07       		.byte	0x7
 795 030d 57       		.byte	0x57
 796 030e 1E       		.byte	0x1e
 797 030f 13030000 		.4byte	0x313
 798 0313 0C       		.uleb128 0xc
ARM GAS  C:\Users\USER\AppData\Local\Temp\cc5K3Chh.s 			page 15


 799 0314 D7030000 		.4byte	.LASF56
 800 0318 1C       		.byte	0x1c
 801 0319 08       		.byte	0x8
 802 031a 9001     		.2byte	0x190
 803 031c 08       		.byte	0x8
 804 031d 76030000 		.4byte	0x376
 805 0321 0A       		.uleb128 0xa
 806 0322 4A060000 		.4byte	.LASF57
 807 0326 08       		.byte	0x8
 808 0327 9101     		.2byte	0x191
 809 0329 19       		.byte	0x19
 810 032a D3020000 		.4byte	0x2d3
 811 032e 00       		.byte	0
 812 032f 0A       		.uleb128 0xa
 813 0330 89050000 		.4byte	.LASF58
 814 0334 08       		.byte	0x8
 815 0335 9201     		.2byte	0x192
 816 0337 19       		.byte	0x19
 817 0338 33010000 		.4byte	0x133
 818 033c 08       		.byte	0x8
 819 033d 0A       		.uleb128 0xa
 820 033e 86040000 		.4byte	.LASF59
 821 0342 08       		.byte	0x8
 822 0343 9401     		.2byte	0x194
 823 0345 19       		.byte	0x19
 824 0346 3F070000 		.4byte	0x73f
 825 034a 0C       		.byte	0xc
 826 034b 0A       		.uleb128 0xa
 827 034c 81010000 		.4byte	.LASF60
 828 0350 08       		.byte	0x8
 829 0351 9701     		.2byte	0x197
 830 0353 1A       		.byte	0x1a
 831 0354 A6020000 		.4byte	0x2a6
 832 0358 10       		.byte	0x10
 833 0359 0A       		.uleb128 0xa
 834 035a B9040000 		.4byte	.LASF61
 835 035e 08       		.byte	0x8
 836 035f 9801     		.2byte	0x198
 837 0361 1A       		.byte	0x1a
 838 0362 A6020000 		.4byte	0x2a6
 839 0366 14       		.byte	0x14
 840 0367 0A       		.uleb128 0xa
 841 0368 AF040000 		.4byte	.LASF62
 842 036c 08       		.byte	0x8
 843 036d 9B01     		.2byte	0x19b
 844 036f 1A       		.byte	0x1a
 845 0370 A6020000 		.4byte	0x2a6
 846 0374 18       		.byte	0x18
 847 0375 00       		.byte	0
 848 0376 04       		.uleb128 0x4
 849 0377 CD060000 		.4byte	.LASF63
 850 037b 07       		.byte	0x7
 851 037c 5C       		.byte	0x5c
 852 037d 10       		.byte	0x10
 853 037e 82030000 		.4byte	0x382
 854 0382 0B       		.uleb128 0xb
 855 0383 04       		.byte	0x4
ARM GAS  C:\Users\USER\AppData\Local\Temp\cc5K3Chh.s 			page 16


 856 0384 88030000 		.4byte	0x388
 857 0388 0D       		.uleb128 0xd
 858 0389 93030000 		.4byte	0x393
 859 038d 0E       		.uleb128 0xe
 860 038e 93030000 		.4byte	0x393
 861 0392 00       		.byte	0
 862 0393 0F       		.uleb128 0xf
 863 0394 04       		.byte	0x4
 864 0395 04       		.uleb128 0x4
 865 0396 FA040000 		.4byte	.LASF64
 866 039a 07       		.byte	0x7
 867 039b 61       		.byte	0x61
 868 039c 21       		.byte	0x21
 869 039d A1030000 		.4byte	0x3a1
 870 03a1 0C       		.uleb128 0xc
 871 03a2 FF050000 		.4byte	.LASF65
 872 03a6 14       		.byte	0x14
 873 03a7 08       		.byte	0x8
 874 03a8 6B01     		.2byte	0x16b
 875 03aa 08       		.byte	0x8
 876 03ab F6030000 		.4byte	0x3f6
 877 03af 0A       		.uleb128 0xa
 878 03b0 23030000 		.4byte	.LASF66
 879 03b4 08       		.byte	0x8
 880 03b5 6C01     		.2byte	0x16c
 881 03b7 1A       		.byte	0x1a
 882 03b8 1A0B0000 		.4byte	0xb1a
 883 03bc 00       		.byte	0
 884 03bd 0A       		.uleb128 0xa
 885 03be 92010000 		.4byte	.LASF67
 886 03c2 08       		.byte	0x8
 887 03c3 6D01     		.2byte	0x16d
 888 03c5 1A       		.byte	0x1a
 889 03c6 1A0B0000 		.4byte	0xb1a
 890 03ca 04       		.byte	0x4
 891 03cb 0A       		.uleb128 0xa
 892 03cc 6A030000 		.4byte	.LASF68
 893 03d0 08       		.byte	0x8
 894 03d1 6E01     		.2byte	0x16e
 895 03d3 19       		.byte	0x19
 896 03d4 63010000 		.4byte	0x163
 897 03d8 08       		.byte	0x8
 898 03d9 0A       		.uleb128 0xa
 899 03da 3E080000 		.4byte	.LASF69
 900 03de 08       		.byte	0x8
 901 03df 6F01     		.2byte	0x16f
 902 03e1 19       		.byte	0x19
 903 03e2 76030000 		.4byte	0x376
 904 03e6 0C       		.byte	0xc
 905 03e7 0A       		.uleb128 0xa
 906 03e8 38070000 		.4byte	.LASF70
 907 03ec 08       		.byte	0x8
 908 03ed 7101     		.2byte	0x171
 909 03ef 1A       		.byte	0x1a
 910 03f0 93030000 		.4byte	0x393
 911 03f4 10       		.byte	0x10
 912 03f5 00       		.byte	0
ARM GAS  C:\Users\USER\AppData\Local\Temp\cc5K3Chh.s 			page 17


 913 03f6 04       		.uleb128 0x4
 914 03f7 97000000 		.4byte	.LASF71
 915 03fb 07       		.byte	0x7
 916 03fc 66       		.byte	0x66
 917 03fd 28       		.byte	0x28
 918 03fe 02040000 		.4byte	0x402
 919 0402 0C       		.uleb128 0xc
 920 0403 4F040000 		.4byte	.LASF72
 921 0407 10       		.byte	0x10
 922 0408 08       		.byte	0x8
 923 0409 7B01     		.2byte	0x17b
 924 040b 08       		.byte	0x8
 925 040c 49040000 		.4byte	0x449
 926 0410 0A       		.uleb128 0xa
 927 0411 23030000 		.4byte	.LASF66
 928 0415 08       		.byte	0x8
 929 0416 7C01     		.2byte	0x17c
 930 0418 1A       		.byte	0x1a
 931 0419 1A0B0000 		.4byte	0xb1a
 932 041d 00       		.byte	0
 933 041e 0A       		.uleb128 0xa
 934 041f 92010000 		.4byte	.LASF67
 935 0423 08       		.byte	0x8
 936 0424 7E01     		.2byte	0x17e
 937 0426 1A       		.byte	0x1a
 938 0427 1A0B0000 		.4byte	0xb1a
 939 042b 04       		.byte	0x4
 940 042c 0A       		.uleb128 0xa
 941 042d 6A030000 		.4byte	.LASF68
 942 0431 08       		.byte	0x8
 943 0432 8001     		.2byte	0x180
 944 0434 19       		.byte	0x19
 945 0435 63010000 		.4byte	0x163
 946 0439 08       		.byte	0x8
 947 043a 0A       		.uleb128 0xa
 948 043b 52030000 		.4byte	.LASF73
 949 043f 08       		.byte	0x8
 950 0440 8201     		.2byte	0x182
 951 0442 19       		.byte	0x19
 952 0443 6F010000 		.4byte	0x16f
 953 0447 0C       		.byte	0xc
 954 0448 00       		.byte	0
 955 0449 04       		.uleb128 0x4
 956 044a 5C000000 		.4byte	.LASF74
 957 044e 07       		.byte	0x7
 958 044f 6B       		.byte	0x6b
 959 0450 20       		.byte	0x20
 960 0451 55040000 		.4byte	0x455
 961 0455 0C       		.uleb128 0xc
 962 0456 25050000 		.4byte	.LASF75
 963 045a 04       		.byte	0x4
 964 045b 08       		.byte	0x8
 965 045c A201     		.2byte	0x1a2
 966 045e 08       		.byte	0x8
 967 045f 72040000 		.4byte	0x472
 968 0463 0A       		.uleb128 0xa
 969 0464 EF060000 		.4byte	.LASF76
ARM GAS  C:\Users\USER\AppData\Local\Temp\cc5K3Chh.s 			page 18


 970 0468 08       		.byte	0x8
 971 0469 AA01     		.2byte	0x1aa
 972 046b 24       		.byte	0x24
 973 046c 090B0000 		.4byte	0xb09
 974 0470 00       		.byte	0
 975 0471 00       		.byte	0
 976 0472 04       		.uleb128 0x4
 977 0473 8C070000 		.4byte	.LASF77
 978 0477 07       		.byte	0x7
 979 0478 70       		.byte	0x70
 980 0479 1A       		.byte	0x1a
 981 047a 7E040000 		.4byte	0x47e
 982 047e 10       		.uleb128 0x10
 983 047f 27010000 		.4byte	.LASF78
 984 0483 5802     		.2byte	0x258
 985 0485 08       		.byte	0x8
 986 0486 C201     		.2byte	0x1c2
 987 0488 08       		.byte	0x8
 988 0489 E1040000 		.4byte	0x4e1
 989 048d 0A       		.uleb128 0xa
 990 048e D4070000 		.4byte	.LASF79
 991 0492 08       		.byte	0x8
 992 0493 C601     		.2byte	0x1c6
 993 0495 19       		.byte	0x19
 994 0496 07030000 		.4byte	0x307
 995 049a 00       		.byte	0
 996 049b 0A       		.uleb128 0xa
 997 049c 0A010000 		.4byte	.LASF80
 998 04a0 08       		.byte	0x8
 999 04a1 CA01     		.2byte	0x1ca
 1000 04a3 19       		.byte	0x19
 1001 04a4 F6030000 		.4byte	0x3f6
 1002 04a8 1C       		.byte	0x1c
 1003 04a9 09       		.uleb128 0x9
 1004 04aa 64626700 		.ascii	"dbg\000"
 1005 04ae 08       		.byte	0x8
 1006 04af CE01     		.2byte	0x1ce
 1007 04b1 19       		.byte	0x19
 1008 04b2 49040000 		.4byte	0x449
 1009 04b6 2C       		.byte	0x2c
 1010 04b7 0A       		.uleb128 0xa
 1011 04b8 8C000000 		.4byte	.LASF81
 1012 04bc 08       		.byte	0x8
 1013 04bd D201     		.2byte	0x1d2
 1014 04bf 19       		.byte	0x19
 1015 04c0 74010000 		.4byte	0x174
 1016 04c4 30       		.byte	0x30
 1017 04c5 09       		.uleb128 0x9
 1018 04c6 746D00   		.ascii	"tm\000"
 1019 04c9 08       		.byte	0x8
 1020 04ca D701     		.2byte	0x1d7
 1021 04cc 19       		.byte	0x19
 1022 04cd 230A0000 		.4byte	0xa23
 1023 04d1 78       		.byte	0x78
 1024 04d2 0A       		.uleb128 0xa
 1025 04d3 EE020000 		.4byte	.LASF82
 1026 04d7 08       		.byte	0x8
ARM GAS  C:\Users\USER\AppData\Local\Temp\cc5K3Chh.s 			page 19


 1027 04d8 E301     		.2byte	0x1e3
 1028 04da 03       		.byte	0x3
 1029 04db 200B0000 		.4byte	0xb20
 1030 04df 80       		.byte	0x80
 1031 04e0 00       		.byte	0
 1032 04e1 11       		.uleb128 0x11
 1033 04e2 8C       		.byte	0x8c
 1034 04e3 09       		.byte	0x9
 1035 04e4 7001     		.2byte	0x170
 1036 04e6 09       		.byte	0x9
 1037 04e7 12060000 		.4byte	0x612
 1038 04eb 0A       		.uleb128 0xa
 1039 04ec AD000000 		.4byte	.LASF83
 1040 04f0 09       		.byte	0x9
 1041 04f1 7201     		.2byte	0x172
 1042 04f3 11       		.byte	0x11
 1043 04f4 E6000000 		.4byte	0xe6
 1044 04f8 00       		.byte	0
 1045 04f9 0A       		.uleb128 0xa
 1046 04fa 9C030000 		.4byte	.LASF84
 1047 04fe 09       		.byte	0x9
 1048 04ff 7301     		.2byte	0x173
 1049 0501 11       		.byte	0x11
 1050 0502 E1000000 		.4byte	0xe1
 1051 0506 04       		.byte	0x4
 1052 0507 0A       		.uleb128 0xa
 1053 0508 87030000 		.4byte	.LASF85
 1054 050c 09       		.byte	0x9
 1055 050d 7401     		.2byte	0x174
 1056 050f 11       		.byte	0x11
 1057 0510 E1000000 		.4byte	0xe1
 1058 0514 08       		.byte	0x8
 1059 0515 0A       		.uleb128 0xa
 1060 0516 A7030000 		.4byte	.LASF86
 1061 051a 09       		.byte	0x9
 1062 051b 7501     		.2byte	0x175
 1063 051d 11       		.byte	0x11
 1064 051e E1000000 		.4byte	0xe1
 1065 0522 0C       		.byte	0xc
 1066 0523 09       		.uleb128 0x9
 1067 0524 53435200 		.ascii	"SCR\000"
 1068 0528 09       		.byte	0x9
 1069 0529 7601     		.2byte	0x176
 1070 052b 11       		.byte	0x11
 1071 052c E1000000 		.4byte	0xe1
 1072 0530 10       		.byte	0x10
 1073 0531 09       		.uleb128 0x9
 1074 0532 43435200 		.ascii	"CCR\000"
 1075 0536 09       		.byte	0x9
 1076 0537 7701     		.2byte	0x177
 1077 0539 11       		.byte	0x11
 1078 053a E1000000 		.4byte	0xe1
 1079 053e 14       		.byte	0x14
 1080 053f 09       		.uleb128 0x9
 1081 0540 53485000 		.ascii	"SHP\000"
 1082 0544 09       		.byte	0x9
 1083 0545 7801     		.2byte	0x178
ARM GAS  C:\Users\USER\AppData\Local\Temp\cc5K3Chh.s 			page 20


 1084 0547 11       		.byte	0x11
 1085 0548 22060000 		.4byte	0x622
 1086 054c 18       		.byte	0x18
 1087 054d 0A       		.uleb128 0xa
 1088 054e 4B050000 		.4byte	.LASF87
 1089 0552 09       		.byte	0x9
 1090 0553 7901     		.2byte	0x179
 1091 0555 11       		.byte	0x11
 1092 0556 E1000000 		.4byte	0xe1
 1093 055a 24       		.byte	0x24
 1094 055b 0A       		.uleb128 0xa
 1095 055c 42040000 		.4byte	.LASF88
 1096 0560 09       		.byte	0x9
 1097 0561 7A01     		.2byte	0x17a
 1098 0563 11       		.byte	0x11
 1099 0564 E1000000 		.4byte	0xe1
 1100 0568 28       		.byte	0x28
 1101 0569 0A       		.uleb128 0xa
 1102 056a 14080000 		.4byte	.LASF89
 1103 056e 09       		.byte	0x9
 1104 056f 7B01     		.2byte	0x17b
 1105 0571 11       		.byte	0x11
 1106 0572 E1000000 		.4byte	0xe1
 1107 0576 2C       		.byte	0x2c
 1108 0577 0A       		.uleb128 0xa
 1109 0578 AD030000 		.4byte	.LASF90
 1110 057c 09       		.byte	0x9
 1111 057d 7C01     		.2byte	0x17c
 1112 057f 11       		.byte	0x11
 1113 0580 E1000000 		.4byte	0xe1
 1114 0584 30       		.byte	0x30
 1115 0585 0A       		.uleb128 0xa
 1116 0586 B2030000 		.4byte	.LASF91
 1117 058a 09       		.byte	0x9
 1118 058b 7D01     		.2byte	0x17d
 1119 058d 11       		.byte	0x11
 1120 058e E1000000 		.4byte	0xe1
 1121 0592 34       		.byte	0x34
 1122 0593 0A       		.uleb128 0xa
 1123 0594 77010000 		.4byte	.LASF92
 1124 0598 09       		.byte	0x9
 1125 0599 7E01     		.2byte	0x17e
 1126 059b 11       		.byte	0x11
 1127 059c E1000000 		.4byte	0xe1
 1128 05a0 38       		.byte	0x38
 1129 05a1 0A       		.uleb128 0xa
 1130 05a2 7C010000 		.4byte	.LASF93
 1131 05a6 09       		.byte	0x9
 1132 05a7 7F01     		.2byte	0x17f
 1133 05a9 11       		.byte	0x11
 1134 05aa E1000000 		.4byte	0xe1
 1135 05ae 3C       		.byte	0x3c
 1136 05af 09       		.uleb128 0x9
 1137 05b0 50465200 		.ascii	"PFR\000"
 1138 05b4 09       		.byte	0x9
 1139 05b5 8001     		.2byte	0x180
 1140 05b7 11       		.byte	0x11
ARM GAS  C:\Users\USER\AppData\Local\Temp\cc5K3Chh.s 			page 21


 1141 05b8 3C060000 		.4byte	0x63c
 1142 05bc 40       		.byte	0x40
 1143 05bd 09       		.uleb128 0x9
 1144 05be 44465200 		.ascii	"DFR\000"
 1145 05c2 09       		.byte	0x9
 1146 05c3 8101     		.2byte	0x181
 1147 05c5 11       		.byte	0x11
 1148 05c6 E6000000 		.4byte	0xe6
 1149 05ca 48       		.byte	0x48
 1150 05cb 09       		.uleb128 0x9
 1151 05cc 41445200 		.ascii	"ADR\000"
 1152 05d0 09       		.byte	0x9
 1153 05d1 8201     		.2byte	0x182
 1154 05d3 11       		.byte	0x11
 1155 05d4 E6000000 		.4byte	0xe6
 1156 05d8 4C       		.byte	0x4c
 1157 05d9 0A       		.uleb128 0xa
 1158 05da CF070000 		.4byte	.LASF94
 1159 05de 09       		.byte	0x9
 1160 05df 8301     		.2byte	0x183
 1161 05e1 11       		.byte	0x11
 1162 05e2 56060000 		.4byte	0x656
 1163 05e6 50       		.byte	0x50
 1164 05e7 0A       		.uleb128 0xa
 1165 05e8 05010000 		.4byte	.LASF95
 1166 05ec 09       		.byte	0x9
 1167 05ed 8401     		.2byte	0x184
 1168 05ef 11       		.byte	0x11
 1169 05f0 70060000 		.4byte	0x670
 1170 05f4 60       		.byte	0x60
 1171 05f5 0A       		.uleb128 0xa
 1172 05f6 E0040000 		.4byte	.LASF96
 1173 05fa 09       		.byte	0x9
 1174 05fb 8501     		.2byte	0x185
 1175 05fd 11       		.byte	0x11
 1176 05fe 75060000 		.4byte	0x675
 1177 0602 74       		.byte	0x74
 1178 0603 0A       		.uleb128 0xa
 1179 0604 0E080000 		.4byte	.LASF97
 1180 0608 09       		.byte	0x9
 1181 0609 8601     		.2byte	0x186
 1182 060b 11       		.byte	0x11
 1183 060c E1000000 		.4byte	0xe1
 1184 0610 88       		.byte	0x88
 1185 0611 00       		.byte	0
 1186 0612 12       		.uleb128 0x12
 1187 0613 B3000000 		.4byte	0xb3
 1188 0617 22060000 		.4byte	0x622
 1189 061b 13       		.uleb128 0x13
 1190 061c 2C000000 		.4byte	0x2c
 1191 0620 0B       		.byte	0xb
 1192 0621 00       		.byte	0
 1193 0622 05       		.uleb128 0x5
 1194 0623 12060000 		.4byte	0x612
 1195 0627 12       		.uleb128 0x12
 1196 0628 E6000000 		.4byte	0xe6
 1197 062c 37060000 		.4byte	0x637
ARM GAS  C:\Users\USER\AppData\Local\Temp\cc5K3Chh.s 			page 22


 1198 0630 13       		.uleb128 0x13
 1199 0631 2C000000 		.4byte	0x2c
 1200 0635 01       		.byte	0x1
 1201 0636 00       		.byte	0
 1202 0637 06       		.uleb128 0x6
 1203 0638 27060000 		.4byte	0x627
 1204 063c 05       		.uleb128 0x5
 1205 063d 37060000 		.4byte	0x637
 1206 0641 12       		.uleb128 0x12
 1207 0642 E6000000 		.4byte	0xe6
 1208 0646 51060000 		.4byte	0x651
 1209 064a 13       		.uleb128 0x13
 1210 064b 2C000000 		.4byte	0x2c
 1211 064f 03       		.byte	0x3
 1212 0650 00       		.byte	0
 1213 0651 06       		.uleb128 0x6
 1214 0652 41060000 		.4byte	0x641
 1215 0656 05       		.uleb128 0x5
 1216 0657 51060000 		.4byte	0x651
 1217 065b 12       		.uleb128 0x12
 1218 065c E6000000 		.4byte	0xe6
 1219 0660 6B060000 		.4byte	0x66b
 1220 0664 13       		.uleb128 0x13
 1221 0665 2C000000 		.4byte	0x2c
 1222 0669 04       		.byte	0x4
 1223 066a 00       		.byte	0
 1224 066b 06       		.uleb128 0x6
 1225 066c 5B060000 		.4byte	0x65b
 1226 0670 05       		.uleb128 0x5
 1227 0671 6B060000 		.4byte	0x66b
 1228 0675 12       		.uleb128 0x12
 1229 0676 D5000000 		.4byte	0xd5
 1230 067a 85060000 		.4byte	0x685
 1231 067e 13       		.uleb128 0x13
 1232 067f 2C000000 		.4byte	0x2c
 1233 0683 04       		.byte	0x4
 1234 0684 00       		.byte	0
 1235 0685 14       		.uleb128 0x14
 1236 0686 C8020000 		.4byte	.LASF98
 1237 068a 09       		.byte	0x9
 1238 068b 8701     		.2byte	0x187
 1239 068d 03       		.byte	0x3
 1240 068e E1040000 		.4byte	0x4e1
 1241 0692 12       		.uleb128 0x12
 1242 0693 D5000000 		.4byte	0xd5
 1243 0697 A2060000 		.4byte	0x6a2
 1244 069b 13       		.uleb128 0x13
 1245 069c 2C000000 		.4byte	0x2c
 1246 06a0 00       		.byte	0
 1247 06a1 00       		.byte	0
 1248 06a2 11       		.uleb128 0x11
 1249 06a3 18       		.byte	0x18
 1250 06a4 09       		.byte	0x9
 1251 06a5 8E04     		.2byte	0x48e
 1252 06a7 09       		.byte	0x9
 1253 06a8 01070000 		.4byte	0x701
 1254 06ac 0A       		.uleb128 0xa
ARM GAS  C:\Users\USER\AppData\Local\Temp\cc5K3Chh.s 			page 23


 1255 06ad E0040000 		.4byte	.LASF96
 1256 06b1 09       		.byte	0x9
 1257 06b2 9004     		.2byte	0x490
 1258 06b4 11       		.byte	0x11
 1259 06b5 92060000 		.4byte	0x692
 1260 06b9 00       		.byte	0
 1261 06ba 0A       		.uleb128 0xa
 1262 06bb E9050000 		.4byte	.LASF99
 1263 06bf 09       		.byte	0x9
 1264 06c0 9104     		.2byte	0x491
 1265 06c2 11       		.byte	0x11
 1266 06c3 E1000000 		.4byte	0xe1
 1267 06c7 04       		.byte	0x4
 1268 06c8 0A       		.uleb128 0xa
 1269 06c9 D7050000 		.4byte	.LASF100
 1270 06cd 09       		.byte	0x9
 1271 06ce 9204     		.2byte	0x492
 1272 06d0 11       		.byte	0x11
 1273 06d1 E1000000 		.4byte	0xe1
 1274 06d5 08       		.byte	0x8
 1275 06d6 0A       		.uleb128 0xa
 1276 06d7 1A000000 		.4byte	.LASF101
 1277 06db 09       		.byte	0x9
 1278 06dc 9304     		.2byte	0x493
 1279 06de 11       		.byte	0x11
 1280 06df E1000000 		.4byte	0xe1
 1281 06e3 0C       		.byte	0xc
 1282 06e4 0A       		.uleb128 0xa
 1283 06e5 CC040000 		.4byte	.LASF102
 1284 06e9 09       		.byte	0x9
 1285 06ea 9404     		.2byte	0x494
 1286 06ec 11       		.byte	0x11
 1287 06ed E6000000 		.4byte	0xe6
 1288 06f1 10       		.byte	0x10
 1289 06f2 0A       		.uleb128 0xa
 1290 06f3 D2040000 		.4byte	.LASF103
 1291 06f7 09       		.byte	0x9
 1292 06f8 9504     		.2byte	0x495
 1293 06fa 11       		.byte	0x11
 1294 06fb E6000000 		.4byte	0xe6
 1295 06ff 14       		.byte	0x14
 1296 0700 00       		.byte	0
 1297 0701 14       		.uleb128 0x14
 1298 0702 03030000 		.4byte	.LASF104
 1299 0706 09       		.byte	0x9
 1300 0707 9604     		.2byte	0x496
 1301 0709 03       		.byte	0x3
 1302 070a A2060000 		.4byte	0x6a2
 1303 070e 15       		.uleb128 0x15
 1304 070f 51050000 		.4byte	.LASF105
 1305 0713 09       		.byte	0x9
 1306 0714 A706     		.2byte	0x6a7
 1307 0716 19       		.byte	0x19
 1308 0717 D0000000 		.4byte	0xd0
 1309 071b 16       		.uleb128 0x16
 1310 071c 34030000 		.4byte	.LASF106
 1311 0720 0A       		.byte	0xa
ARM GAS  C:\Users\USER\AppData\Local\Temp\cc5K3Chh.s 			page 24


 1312 0721 4C       		.byte	0x4c
 1313 0722 11       		.byte	0x11
 1314 0723 D5000000 		.4byte	0xd5
 1315 0727 04       		.uleb128 0x4
 1316 0728 89010000 		.4byte	.LASF107
 1317 072c 0B       		.byte	0xb
 1318 072d 65       		.byte	0x65
 1319 072e 0F       		.byte	0xf
 1320 072f 93030000 		.4byte	0x393
 1321 0733 04       		.uleb128 0x4
 1322 0734 0A040000 		.4byte	.LASF108
 1323 0738 0B       		.byte	0xb
 1324 0739 6D       		.byte	0x6d
 1325 073a 12       		.byte	0x12
 1326 073b EB000000 		.4byte	0xeb
 1327 073f 07       		.uleb128 0x7
 1328 0740 00070000 		.4byte	.LASF109
 1329 0744 04       		.byte	0x4
 1330 0745 0B       		.byte	0xb
 1331 0746 89       		.byte	0x89
 1332 0747 08       		.byte	0x8
 1333 0748 5A070000 		.4byte	0x75a
 1334 074c 17       		.uleb128 0x17
 1335 074d 72313300 		.ascii	"r13\000"
 1336 0751 0B       		.byte	0xb
 1337 0752 8A       		.byte	0x8a
 1338 0753 17       		.byte	0x17
 1339 0754 B5080000 		.4byte	0x8b5
 1340 0758 00       		.byte	0
 1341 0759 00       		.byte	0
 1342 075a 07       		.uleb128 0x7
 1343 075b 50000000 		.4byte	.LASF110
 1344 075f 64       		.byte	0x64
 1345 0760 03       		.byte	0x3
 1346 0761 F4       		.byte	0xf4
 1347 0762 08       		.byte	0x8
 1348 0763 B5080000 		.4byte	0x8b5
 1349 0767 17       		.uleb128 0x17
 1350 0768 73313600 		.ascii	"s16\000"
 1351 076c 03       		.byte	0x3
 1352 076d F6       		.byte	0xf6
 1353 076e 11       		.byte	0x11
 1354 076f 27070000 		.4byte	0x727
 1355 0773 00       		.byte	0
 1356 0774 17       		.uleb128 0x17
 1357 0775 73313700 		.ascii	"s17\000"
 1358 0779 03       		.byte	0x3
 1359 077a F7       		.byte	0xf7
 1360 077b 11       		.byte	0x11
 1361 077c 27070000 		.4byte	0x727
 1362 0780 04       		.byte	0x4
 1363 0781 17       		.uleb128 0x17
 1364 0782 73313800 		.ascii	"s18\000"
 1365 0786 03       		.byte	0x3
 1366 0787 F8       		.byte	0xf8
 1367 0788 11       		.byte	0x11
 1368 0789 27070000 		.4byte	0x727
ARM GAS  C:\Users\USER\AppData\Local\Temp\cc5K3Chh.s 			page 25


 1369 078d 08       		.byte	0x8
 1370 078e 17       		.uleb128 0x17
 1371 078f 73313900 		.ascii	"s19\000"
 1372 0793 03       		.byte	0x3
 1373 0794 F9       		.byte	0xf9
 1374 0795 11       		.byte	0x11
 1375 0796 27070000 		.4byte	0x727
 1376 079a 0C       		.byte	0xc
 1377 079b 17       		.uleb128 0x17
 1378 079c 73323000 		.ascii	"s20\000"
 1379 07a0 03       		.byte	0x3
 1380 07a1 FA       		.byte	0xfa
 1381 07a2 11       		.byte	0x11
 1382 07a3 27070000 		.4byte	0x727
 1383 07a7 10       		.byte	0x10
 1384 07a8 17       		.uleb128 0x17
 1385 07a9 73323100 		.ascii	"s21\000"
 1386 07ad 03       		.byte	0x3
 1387 07ae FB       		.byte	0xfb
 1388 07af 11       		.byte	0x11
 1389 07b0 27070000 		.4byte	0x727
 1390 07b4 14       		.byte	0x14
 1391 07b5 17       		.uleb128 0x17
 1392 07b6 73323200 		.ascii	"s22\000"
 1393 07ba 03       		.byte	0x3
 1394 07bb FC       		.byte	0xfc
 1395 07bc 11       		.byte	0x11
 1396 07bd 27070000 		.4byte	0x727
 1397 07c1 18       		.byte	0x18
 1398 07c2 17       		.uleb128 0x17
 1399 07c3 73323300 		.ascii	"s23\000"
 1400 07c7 03       		.byte	0x3
 1401 07c8 FD       		.byte	0xfd
 1402 07c9 11       		.byte	0x11
 1403 07ca 27070000 		.4byte	0x727
 1404 07ce 1C       		.byte	0x1c
 1405 07cf 17       		.uleb128 0x17
 1406 07d0 73323400 		.ascii	"s24\000"
 1407 07d4 03       		.byte	0x3
 1408 07d5 FE       		.byte	0xfe
 1409 07d6 11       		.byte	0x11
 1410 07d7 27070000 		.4byte	0x727
 1411 07db 20       		.byte	0x20
 1412 07dc 17       		.uleb128 0x17
 1413 07dd 73323500 		.ascii	"s25\000"
 1414 07e1 03       		.byte	0x3
 1415 07e2 FF       		.byte	0xff
 1416 07e3 11       		.byte	0x11
 1417 07e4 27070000 		.4byte	0x727
 1418 07e8 24       		.byte	0x24
 1419 07e9 09       		.uleb128 0x9
 1420 07ea 73323600 		.ascii	"s26\000"
 1421 07ee 03       		.byte	0x3
 1422 07ef 0001     		.2byte	0x100
 1423 07f1 11       		.byte	0x11
 1424 07f2 27070000 		.4byte	0x727
 1425 07f6 28       		.byte	0x28
ARM GAS  C:\Users\USER\AppData\Local\Temp\cc5K3Chh.s 			page 26


 1426 07f7 09       		.uleb128 0x9
 1427 07f8 73323700 		.ascii	"s27\000"
 1428 07fc 03       		.byte	0x3
 1429 07fd 0101     		.2byte	0x101
 1430 07ff 11       		.byte	0x11
 1431 0800 27070000 		.4byte	0x727
 1432 0804 2C       		.byte	0x2c
 1433 0805 09       		.uleb128 0x9
 1434 0806 73323800 		.ascii	"s28\000"
 1435 080a 03       		.byte	0x3
 1436 080b 0201     		.2byte	0x102
 1437 080d 11       		.byte	0x11
 1438 080e 27070000 		.4byte	0x727
 1439 0812 30       		.byte	0x30
 1440 0813 09       		.uleb128 0x9
 1441 0814 73323900 		.ascii	"s29\000"
 1442 0818 03       		.byte	0x3
 1443 0819 0301     		.2byte	0x103
 1444 081b 11       		.byte	0x11
 1445 081c 27070000 		.4byte	0x727
 1446 0820 34       		.byte	0x34
 1447 0821 09       		.uleb128 0x9
 1448 0822 73333000 		.ascii	"s30\000"
 1449 0826 03       		.byte	0x3
 1450 0827 0401     		.2byte	0x104
 1451 0829 11       		.byte	0x11
 1452 082a 27070000 		.4byte	0x727
 1453 082e 38       		.byte	0x38
 1454 082f 09       		.uleb128 0x9
 1455 0830 73333100 		.ascii	"s31\000"
 1456 0834 03       		.byte	0x3
 1457 0835 0501     		.2byte	0x105
 1458 0837 11       		.byte	0x11
 1459 0838 27070000 		.4byte	0x727
 1460 083c 3C       		.byte	0x3c
 1461 083d 09       		.uleb128 0x9
 1462 083e 723400   		.ascii	"r4\000"
 1463 0841 03       		.byte	0x3
 1464 0842 0701     		.2byte	0x107
 1465 0844 11       		.byte	0x11
 1466 0845 27070000 		.4byte	0x727
 1467 0849 40       		.byte	0x40
 1468 084a 09       		.uleb128 0x9
 1469 084b 723500   		.ascii	"r5\000"
 1470 084e 03       		.byte	0x3
 1471 084f 0801     		.2byte	0x108
 1472 0851 11       		.byte	0x11
 1473 0852 27070000 		.4byte	0x727
 1474 0856 44       		.byte	0x44
 1475 0857 09       		.uleb128 0x9
 1476 0858 723600   		.ascii	"r6\000"
 1477 085b 03       		.byte	0x3
 1478 085c 0901     		.2byte	0x109
 1479 085e 11       		.byte	0x11
 1480 085f 27070000 		.4byte	0x727
 1481 0863 48       		.byte	0x48
 1482 0864 09       		.uleb128 0x9
ARM GAS  C:\Users\USER\AppData\Local\Temp\cc5K3Chh.s 			page 27


 1483 0865 723700   		.ascii	"r7\000"
 1484 0868 03       		.byte	0x3
 1485 0869 0A01     		.2byte	0x10a
 1486 086b 11       		.byte	0x11
 1487 086c 27070000 		.4byte	0x727
 1488 0870 4C       		.byte	0x4c
 1489 0871 09       		.uleb128 0x9
 1490 0872 723800   		.ascii	"r8\000"
 1491 0875 03       		.byte	0x3
 1492 0876 0B01     		.2byte	0x10b
 1493 0878 11       		.byte	0x11
 1494 0879 27070000 		.4byte	0x727
 1495 087d 50       		.byte	0x50
 1496 087e 09       		.uleb128 0x9
 1497 087f 723900   		.ascii	"r9\000"
 1498 0882 03       		.byte	0x3
 1499 0883 0C01     		.2byte	0x10c
 1500 0885 11       		.byte	0x11
 1501 0886 27070000 		.4byte	0x727
 1502 088a 54       		.byte	0x54
 1503 088b 09       		.uleb128 0x9
 1504 088c 72313000 		.ascii	"r10\000"
 1505 0890 03       		.byte	0x3
 1506 0891 0D01     		.2byte	0x10d
 1507 0893 11       		.byte	0x11
 1508 0894 27070000 		.4byte	0x727
 1509 0898 58       		.byte	0x58
 1510 0899 09       		.uleb128 0x9
 1511 089a 72313100 		.ascii	"r11\000"
 1512 089e 03       		.byte	0x3
 1513 089f 0E01     		.2byte	0x10e
 1514 08a1 11       		.byte	0x11
 1515 08a2 27070000 		.4byte	0x727
 1516 08a6 5C       		.byte	0x5c
 1517 08a7 09       		.uleb128 0x9
 1518 08a8 6C7200   		.ascii	"lr\000"
 1519 08ab 03       		.byte	0x3
 1520 08ac 0F01     		.2byte	0x10f
 1521 08ae 11       		.byte	0x11
 1522 08af 27070000 		.4byte	0x727
 1523 08b3 60       		.byte	0x60
 1524 08b4 00       		.byte	0
 1525 08b5 0B       		.uleb128 0xb
 1526 08b6 04       		.byte	0x4
 1527 08b7 5A070000 		.4byte	0x75a
 1528 08bb 07       		.uleb128 0x7
 1529 08bc 92040000 		.4byte	.LASF111
 1530 08c0 68       		.byte	0x68
 1531 08c1 03       		.byte	0x3
 1532 08c2 D5       		.byte	0xd5
 1533 08c3 08       		.byte	0x8
 1534 08c4 0C0A0000 		.4byte	0xa0c
 1535 08c8 17       		.uleb128 0x17
 1536 08c9 723000   		.ascii	"r0\000"
 1537 08cc 03       		.byte	0x3
 1538 08cd D6       		.byte	0xd6
 1539 08ce 11       		.byte	0x11
ARM GAS  C:\Users\USER\AppData\Local\Temp\cc5K3Chh.s 			page 28


 1540 08cf 27070000 		.4byte	0x727
 1541 08d3 00       		.byte	0
 1542 08d4 17       		.uleb128 0x17
 1543 08d5 723100   		.ascii	"r1\000"
 1544 08d8 03       		.byte	0x3
 1545 08d9 D7       		.byte	0xd7
 1546 08da 11       		.byte	0x11
 1547 08db 27070000 		.4byte	0x727
 1548 08df 04       		.byte	0x4
 1549 08e0 17       		.uleb128 0x17
 1550 08e1 723200   		.ascii	"r2\000"
 1551 08e4 03       		.byte	0x3
 1552 08e5 D8       		.byte	0xd8
 1553 08e6 11       		.byte	0x11
 1554 08e7 27070000 		.4byte	0x727
 1555 08eb 08       		.byte	0x8
 1556 08ec 17       		.uleb128 0x17
 1557 08ed 723300   		.ascii	"r3\000"
 1558 08f0 03       		.byte	0x3
 1559 08f1 D9       		.byte	0xd9
 1560 08f2 11       		.byte	0x11
 1561 08f3 27070000 		.4byte	0x727
 1562 08f7 0C       		.byte	0xc
 1563 08f8 17       		.uleb128 0x17
 1564 08f9 72313200 		.ascii	"r12\000"
 1565 08fd 03       		.byte	0x3
 1566 08fe DA       		.byte	0xda
 1567 08ff 11       		.byte	0x11
 1568 0900 27070000 		.4byte	0x727
 1569 0904 10       		.byte	0x10
 1570 0905 08       		.uleb128 0x8
 1571 0906 D0050000 		.4byte	.LASF112
 1572 090a 03       		.byte	0x3
 1573 090b DB       		.byte	0xdb
 1574 090c 11       		.byte	0x11
 1575 090d 27070000 		.4byte	0x727
 1576 0911 14       		.byte	0x14
 1577 0912 17       		.uleb128 0x17
 1578 0913 706300   		.ascii	"pc\000"
 1579 0916 03       		.byte	0x3
 1580 0917 DC       		.byte	0xdc
 1581 0918 11       		.byte	0x11
 1582 0919 27070000 		.4byte	0x727
 1583 091d 18       		.byte	0x18
 1584 091e 08       		.uleb128 0x8
 1585 091f 84050000 		.4byte	.LASF113
 1586 0923 03       		.byte	0x3
 1587 0924 DD       		.byte	0xdd
 1588 0925 11       		.byte	0x11
 1589 0926 27070000 		.4byte	0x727
 1590 092a 1C       		.byte	0x1c
 1591 092b 17       		.uleb128 0x17
 1592 092c 733000   		.ascii	"s0\000"
 1593 092f 03       		.byte	0x3
 1594 0930 DF       		.byte	0xdf
 1595 0931 11       		.byte	0x11
 1596 0932 27070000 		.4byte	0x727
ARM GAS  C:\Users\USER\AppData\Local\Temp\cc5K3Chh.s 			page 29


 1597 0936 20       		.byte	0x20
 1598 0937 17       		.uleb128 0x17
 1599 0938 733100   		.ascii	"s1\000"
 1600 093b 03       		.byte	0x3
 1601 093c E0       		.byte	0xe0
 1602 093d 11       		.byte	0x11
 1603 093e 27070000 		.4byte	0x727
 1604 0942 24       		.byte	0x24
 1605 0943 17       		.uleb128 0x17
 1606 0944 733200   		.ascii	"s2\000"
 1607 0947 03       		.byte	0x3
 1608 0948 E1       		.byte	0xe1
 1609 0949 11       		.byte	0x11
 1610 094a 27070000 		.4byte	0x727
 1611 094e 28       		.byte	0x28
 1612 094f 17       		.uleb128 0x17
 1613 0950 733300   		.ascii	"s3\000"
 1614 0953 03       		.byte	0x3
 1615 0954 E2       		.byte	0xe2
 1616 0955 11       		.byte	0x11
 1617 0956 27070000 		.4byte	0x727
 1618 095a 2C       		.byte	0x2c
 1619 095b 17       		.uleb128 0x17
 1620 095c 733400   		.ascii	"s4\000"
 1621 095f 03       		.byte	0x3
 1622 0960 E3       		.byte	0xe3
 1623 0961 11       		.byte	0x11
 1624 0962 27070000 		.4byte	0x727
 1625 0966 30       		.byte	0x30
 1626 0967 17       		.uleb128 0x17
 1627 0968 733500   		.ascii	"s5\000"
 1628 096b 03       		.byte	0x3
 1629 096c E4       		.byte	0xe4
 1630 096d 11       		.byte	0x11
 1631 096e 27070000 		.4byte	0x727
 1632 0972 34       		.byte	0x34
 1633 0973 17       		.uleb128 0x17
 1634 0974 733600   		.ascii	"s6\000"
 1635 0977 03       		.byte	0x3
 1636 0978 E5       		.byte	0xe5
 1637 0979 11       		.byte	0x11
 1638 097a 27070000 		.4byte	0x727
 1639 097e 38       		.byte	0x38
 1640 097f 17       		.uleb128 0x17
 1641 0980 733700   		.ascii	"s7\000"
 1642 0983 03       		.byte	0x3
 1643 0984 E6       		.byte	0xe6
 1644 0985 11       		.byte	0x11
 1645 0986 27070000 		.4byte	0x727
 1646 098a 3C       		.byte	0x3c
 1647 098b 17       		.uleb128 0x17
 1648 098c 733800   		.ascii	"s8\000"
 1649 098f 03       		.byte	0x3
 1650 0990 E7       		.byte	0xe7
 1651 0991 11       		.byte	0x11
 1652 0992 27070000 		.4byte	0x727
 1653 0996 40       		.byte	0x40
ARM GAS  C:\Users\USER\AppData\Local\Temp\cc5K3Chh.s 			page 30


 1654 0997 17       		.uleb128 0x17
 1655 0998 733900   		.ascii	"s9\000"
 1656 099b 03       		.byte	0x3
 1657 099c E8       		.byte	0xe8
 1658 099d 11       		.byte	0x11
 1659 099e 27070000 		.4byte	0x727
 1660 09a2 44       		.byte	0x44
 1661 09a3 17       		.uleb128 0x17
 1662 09a4 73313000 		.ascii	"s10\000"
 1663 09a8 03       		.byte	0x3
 1664 09a9 E9       		.byte	0xe9
 1665 09aa 11       		.byte	0x11
 1666 09ab 27070000 		.4byte	0x727
 1667 09af 48       		.byte	0x48
 1668 09b0 17       		.uleb128 0x17
 1669 09b1 73313100 		.ascii	"s11\000"
 1670 09b5 03       		.byte	0x3
 1671 09b6 EA       		.byte	0xea
 1672 09b7 11       		.byte	0x11
 1673 09b8 27070000 		.4byte	0x727
 1674 09bc 4C       		.byte	0x4c
 1675 09bd 17       		.uleb128 0x17
 1676 09be 73313200 		.ascii	"s12\000"
 1677 09c2 03       		.byte	0x3
 1678 09c3 EB       		.byte	0xeb
 1679 09c4 11       		.byte	0x11
 1680 09c5 27070000 		.4byte	0x727
 1681 09c9 50       		.byte	0x50
 1682 09ca 17       		.uleb128 0x17
 1683 09cb 73313300 		.ascii	"s13\000"
 1684 09cf 03       		.byte	0x3
 1685 09d0 EC       		.byte	0xec
 1686 09d1 11       		.byte	0x11
 1687 09d2 27070000 		.4byte	0x727
 1688 09d6 54       		.byte	0x54
 1689 09d7 17       		.uleb128 0x17
 1690 09d8 73313400 		.ascii	"s14\000"
 1691 09dc 03       		.byte	0x3
 1692 09dd ED       		.byte	0xed
 1693 09de 11       		.byte	0x11
 1694 09df 27070000 		.4byte	0x727
 1695 09e3 58       		.byte	0x58
 1696 09e4 17       		.uleb128 0x17
 1697 09e5 73313500 		.ascii	"s15\000"
 1698 09e9 03       		.byte	0x3
 1699 09ea EE       		.byte	0xee
 1700 09eb 11       		.byte	0x11
 1701 09ec 27070000 		.4byte	0x727
 1702 09f0 5C       		.byte	0x5c
 1703 09f1 08       		.uleb128 0x8
 1704 09f2 C4000000 		.4byte	.LASF114
 1705 09f6 03       		.byte	0x3
 1706 09f7 EF       		.byte	0xef
 1707 09f8 11       		.byte	0x11
 1708 09f9 27070000 		.4byte	0x727
 1709 09fd 60       		.byte	0x60
 1710 09fe 08       		.uleb128 0x8
ARM GAS  C:\Users\USER\AppData\Local\Temp\cc5K3Chh.s 			page 31


 1711 09ff D1020000 		.4byte	.LASF115
 1712 0a03 03       		.byte	0x3
 1713 0a04 F0       		.byte	0xf0
 1714 0a05 11       		.byte	0x11
 1715 0a06 27070000 		.4byte	0x727
 1716 0a0a 64       		.byte	0x64
 1717 0a0b 00       		.byte	0
 1718 0a0c 18       		.uleb128 0x18
 1719 0a0d 04       		.byte	0x4
 1720 0a0e 0C       		.byte	0xc
 1721 0a0f 38       		.byte	0x38
 1722 0a10 09       		.byte	0x9
 1723 0a11 230A0000 		.4byte	0xa23
 1724 0a15 08       		.uleb128 0x8
 1725 0a16 F9060000 		.4byte	.LASF116
 1726 0a1a 0C       		.byte	0xc
 1727 0a1b 3C       		.byte	0x3c
 1728 0a1c 19       		.byte	0x19
 1729 0a1d F7000000 		.4byte	0xf7
 1730 0a21 00       		.byte	0
 1731 0a22 00       		.byte	0
 1732 0a23 04       		.uleb128 0x4
 1733 0a24 9E040000 		.4byte	.LASF117
 1734 0a28 0C       		.byte	0xc
 1735 0a29 3D       		.byte	0x3d
 1736 0a2a 03       		.byte	0x3
 1737 0a2b 0C0A0000 		.4byte	0xa0c
 1738 0a2f 19       		.uleb128 0x19
 1739 0a30 04       		.byte	0x4
 1740 0a31 08       		.byte	0x8
 1741 0a32 FA       		.byte	0xfa
 1742 0a33 03       		.byte	0x3
 1743 0a34 940A0000 		.4byte	0xa94
 1744 0a38 1A       		.uleb128 0x1a
 1745 0a39 13000000 		.4byte	.LASF118
 1746 0a3d 08       		.byte	0x8
 1747 0a3e 0101     		.2byte	0x101
 1748 0a40 19       		.byte	0x19
 1749 0a41 3F010000 		.4byte	0x13f
 1750 0a45 1A       		.uleb128 0x1a
 1751 0a46 83000000 		.4byte	.LASF119
 1752 0a4a 08       		.byte	0x8
 1753 0a4b 0801     		.2byte	0x108
 1754 0a4d 19       		.byte	0x19
 1755 0a4e 3F010000 		.4byte	0x13f
 1756 0a52 1A       		.uleb128 0x1a
 1757 0a53 F5070000 		.4byte	.LASF120
 1758 0a57 08       		.byte	0x8
 1759 0a58 0F01     		.2byte	0x10f
 1760 0a5a 1A       		.byte	0x1a
 1761 0a5b 93030000 		.4byte	0x393
 1762 0a5f 1A       		.uleb128 0x1a
 1763 0a60 0D000000 		.4byte	.LASF121
 1764 0a64 08       		.byte	0x8
 1765 0a65 1601     		.2byte	0x116
 1766 0a67 1A       		.byte	0x1a
 1767 0a68 940A0000 		.4byte	0xa94
ARM GAS  C:\Users\USER\AppData\Local\Temp\cc5K3Chh.s 			page 32


 1768 0a6c 1A       		.uleb128 0x1a
 1769 0a6d 4B030000 		.4byte	.LASF122
 1770 0a71 08       		.byte	0x8
 1771 0a72 1E01     		.2byte	0x11e
 1772 0a74 1A       		.byte	0x1a
 1773 0a75 C20A0000 		.4byte	0xac2
 1774 0a79 1A       		.uleb128 0x1a
 1775 0a7a 81060000 		.4byte	.LASF123
 1776 0a7e 08       		.byte	0x8
 1777 0a7f 2701     		.2byte	0x127
 1778 0a81 1A       		.byte	0x1a
 1779 0a82 FD0A0000 		.4byte	0xafd
 1780 0a86 1A       		.uleb128 0x1a
 1781 0a87 90050000 		.4byte	.LASF124
 1782 0a8b 08       		.byte	0x8
 1783 0a8c 2F01     		.2byte	0x12f
 1784 0a8e 19       		.byte	0x19
 1785 0a8f 4B010000 		.4byte	0x14b
 1786 0a93 00       		.byte	0
 1787 0a94 0B       		.uleb128 0xb
 1788 0a95 04       		.byte	0x4
 1789 0a96 9A020000 		.4byte	0x29a
 1790 0a9a 07       		.uleb128 0x7
 1791 0a9b 1D060000 		.4byte	.LASF125
 1792 0a9f 0C       		.byte	0xc
 1793 0aa0 0D       		.byte	0xd
 1794 0aa1 34       		.byte	0x34
 1795 0aa2 10       		.byte	0x10
 1796 0aa3 C20A0000 		.4byte	0xac2
 1797 0aa7 08       		.uleb128 0x8
 1798 0aa8 6F010000 		.4byte	.LASF126
 1799 0aac 0D       		.byte	0xd
 1800 0aad 35       		.byte	0x35
 1801 0aae 19       		.byte	0x19
 1802 0aaf D3020000 		.4byte	0x2d3
 1803 0ab3 00       		.byte	0
 1804 0ab4 08       		.uleb128 0x8
 1805 0ab5 8C030000 		.4byte	.LASF127
 1806 0ab9 0D       		.byte	0xd
 1807 0aba 37       		.byte	0x37
 1808 0abb 19       		.byte	0x19
 1809 0abc 57010000 		.4byte	0x157
 1810 0ac0 08       		.byte	0x8
 1811 0ac1 00       		.byte	0
 1812 0ac2 0B       		.uleb128 0xb
 1813 0ac3 04       		.byte	0x4
 1814 0ac4 9A0A0000 		.4byte	0xa9a
 1815 0ac8 07       		.uleb128 0x7
 1816 0ac9 7C070000 		.4byte	.LASF128
 1817 0acd 10       		.byte	0x10
 1818 0ace 0E       		.byte	0xe
 1819 0acf 39       		.byte	0x39
 1820 0ad0 08       		.byte	0x8
 1821 0ad1 FD0A0000 		.4byte	0xafd
 1822 0ad5 08       		.uleb128 0x8
 1823 0ad6 FD000000 		.4byte	.LASF129
 1824 0ada 0E       		.byte	0xe
ARM GAS  C:\Users\USER\AppData\Local\Temp\cc5K3Chh.s 			page 33


 1825 0adb 3A       		.byte	0x3a
 1826 0adc 19       		.byte	0x19
 1827 0add D3020000 		.4byte	0x2d3
 1828 0ae1 00       		.byte	0
 1829 0ae2 08       		.uleb128 0x8
 1830 0ae3 21080000 		.4byte	.LASF130
 1831 0ae7 0E       		.byte	0xe
 1832 0ae8 3C       		.byte	0x3c
 1833 0ae9 1A       		.byte	0x1a
 1834 0aea A6020000 		.4byte	0x2a6
 1835 0aee 08       		.byte	0x8
 1836 0aef 08       		.uleb128 0x8
 1837 0af0 B1060000 		.4byte	.LASF131
 1838 0af4 0E       		.byte	0xe
 1839 0af5 3E       		.byte	0x3e
 1840 0af6 1A       		.byte	0x1a
 1841 0af7 690C0000 		.4byte	0xc69
 1842 0afb 0C       		.byte	0xc
 1843 0afc 00       		.byte	0
 1844 0afd 0B       		.uleb128 0xb
 1845 0afe 04       		.byte	0x4
 1846 0aff C80A0000 		.4byte	0xac8
 1847 0b03 0B       		.uleb128 0xb
 1848 0b04 04       		.byte	0x4
 1849 0b05 150B0000 		.4byte	0xb15
 1850 0b09 05       		.uleb128 0x5
 1851 0b0a 030B0000 		.4byte	0xb03
 1852 0b0e 03       		.uleb128 0x3
 1853 0b0f 01       		.byte	0x1
 1854 0b10 08       		.byte	0x8
 1855 0b11 7C060000 		.4byte	.LASF132
 1856 0b15 06       		.uleb128 0x6
 1857 0b16 0E0B0000 		.4byte	0xb0e
 1858 0b1a 0B       		.uleb128 0xb
 1859 0b1b 04       		.byte	0x4
 1860 0b1c 95030000 		.4byte	0x395
 1861 0b20 12       		.uleb128 0x12
 1862 0b21 33070000 		.4byte	0x733
 1863 0b25 300B0000 		.4byte	0xb30
 1864 0b29 13       		.uleb128 0x13
 1865 0b2a 2C000000 		.4byte	0x2c
 1866 0b2e 3A       		.byte	0x3a
 1867 0b2f 00       		.byte	0
 1868 0b30 1B       		.uleb128 0x1b
 1869 0b31 636800   		.ascii	"ch\000"
 1870 0b34 08       		.byte	0x8
 1871 0b35 0902     		.2byte	0x209
 1872 0b37 14       		.byte	0x14
 1873 0b38 72040000 		.4byte	0x472
 1874 0b3c 18       		.uleb128 0x18
 1875 0b3d 16       		.byte	0x16
 1876 0b3e 0F       		.byte	0xf
 1877 0b3f 34       		.byte	0x34
 1878 0b40 09       		.byte	0x9
 1879 0b41 300C0000 		.4byte	0xc30
 1880 0b45 08       		.uleb128 0x8
 1881 0b46 30080000 		.4byte	.LASF133
ARM GAS  C:\Users\USER\AppData\Local\Temp\cc5K3Chh.s 			page 34


 1882 0b4a 0F       		.byte	0xf
 1883 0b4b 35       		.byte	0x35
 1884 0b4c 0D       		.byte	0xd
 1885 0b4d 300C0000 		.4byte	0xc30
 1886 0b51 00       		.byte	0
 1887 0b52 08       		.uleb128 0x8
 1888 0b53 24040000 		.4byte	.LASF134
 1889 0b57 0F       		.byte	0xf
 1890 0b58 36       		.byte	0x36
 1891 0b59 0D       		.byte	0xd
 1892 0b5a A7000000 		.4byte	0xa7
 1893 0b5e 04       		.byte	0x4
 1894 0b5f 08       		.uleb128 0x8
 1895 0b60 62060000 		.4byte	.LASF135
 1896 0b64 0F       		.byte	0xf
 1897 0b65 37       		.byte	0x37
 1898 0b66 0D       		.byte	0xd
 1899 0b67 A7000000 		.4byte	0xa7
 1900 0b6b 05       		.byte	0x5
 1901 0b6c 08       		.uleb128 0x8
 1902 0b6d 03080000 		.4byte	.LASF136
 1903 0b71 0F       		.byte	0xf
 1904 0b72 38       		.byte	0x38
 1905 0b73 0D       		.byte	0xd
 1906 0b74 B8000000 		.4byte	0xb8
 1907 0b78 06       		.byte	0x6
 1908 0b79 08       		.uleb128 0x8
 1909 0b7a EA040000 		.4byte	.LASF137
 1910 0b7e 0F       		.byte	0xf
 1911 0b7f 39       		.byte	0x39
 1912 0b80 0D       		.byte	0xd
 1913 0b81 A7000000 		.4byte	0xa7
 1914 0b85 08       		.byte	0x8
 1915 0b86 08       		.uleb128 0x8
 1916 0b87 66040000 		.4byte	.LASF138
 1917 0b8b 0F       		.byte	0xf
 1918 0b8c 3A       		.byte	0x3a
 1919 0b8d 0D       		.byte	0xd
 1920 0b8e A7000000 		.4byte	0xa7
 1921 0b92 09       		.byte	0x9
 1922 0b93 08       		.uleb128 0x8
 1923 0b94 75000000 		.4byte	.LASF139
 1924 0b98 0F       		.byte	0xf
 1925 0b99 3B       		.byte	0x3b
 1926 0b9a 0D       		.byte	0xd
 1927 0b9b A7000000 		.4byte	0xa7
 1928 0b9f 0A       		.byte	0xa
 1929 0ba0 08       		.uleb128 0x8
 1930 0ba1 3E060000 		.4byte	.LASF140
 1931 0ba5 0F       		.byte	0xf
 1932 0ba6 3C       		.byte	0x3c
 1933 0ba7 0D       		.byte	0xd
 1934 0ba8 A7000000 		.4byte	0xa7
 1935 0bac 0B       		.byte	0xb
 1936 0bad 08       		.uleb128 0x8
 1937 0bae 71070000 		.4byte	.LASF141
 1938 0bb2 0F       		.byte	0xf
ARM GAS  C:\Users\USER\AppData\Local\Temp\cc5K3Chh.s 			page 35


 1939 0bb3 3D       		.byte	0x3d
 1940 0bb4 0D       		.byte	0xd
 1941 0bb5 A7000000 		.4byte	0xa7
 1942 0bb9 0C       		.byte	0xc
 1943 0bba 08       		.uleb128 0x8
 1944 0bbb 10060000 		.4byte	.LASF142
 1945 0bbf 0F       		.byte	0xf
 1946 0bc0 3E       		.byte	0x3e
 1947 0bc1 0D       		.byte	0xd
 1948 0bc2 A7000000 		.4byte	0xa7
 1949 0bc6 0D       		.byte	0xd
 1950 0bc7 08       		.uleb128 0x8
 1951 0bc8 5D030000 		.4byte	.LASF143
 1952 0bcc 0F       		.byte	0xf
 1953 0bcd 3F       		.byte	0x3f
 1954 0bce 0D       		.byte	0xd
 1955 0bcf A7000000 		.4byte	0xa7
 1956 0bd3 0E       		.byte	0xe
 1957 0bd4 08       		.uleb128 0x8
 1958 0bd5 72040000 		.4byte	.LASF144
 1959 0bd9 0F       		.byte	0xf
 1960 0bda 40       		.byte	0x40
 1961 0bdb 0D       		.byte	0xd
 1962 0bdc A7000000 		.4byte	0xa7
 1963 0be0 0F       		.byte	0xf
 1964 0be1 08       		.uleb128 0x8
 1965 0be2 21000000 		.4byte	.LASF145
 1966 0be6 0F       		.byte	0xf
 1967 0be7 41       		.byte	0x41
 1968 0be8 0D       		.byte	0xd
 1969 0be9 A7000000 		.4byte	0xa7
 1970 0bed 10       		.byte	0x10
 1971 0bee 08       		.uleb128 0x8
 1972 0bef 08070000 		.4byte	.LASF146
 1973 0bf3 0F       		.byte	0xf
 1974 0bf4 43       		.byte	0x43
 1975 0bf5 0D       		.byte	0xd
 1976 0bf6 A7000000 		.4byte	0xa7
 1977 0bfa 11       		.byte	0x11
 1978 0bfb 08       		.uleb128 0x8
 1979 0bfc D1000000 		.4byte	.LASF147
 1980 0c00 0F       		.byte	0xf
 1981 0c01 44       		.byte	0x44
 1982 0c02 0D       		.byte	0xd
 1983 0c03 A7000000 		.4byte	0xa7
 1984 0c07 12       		.byte	0x12
 1985 0c08 08       		.uleb128 0x8
 1986 0c09 2C040000 		.4byte	.LASF148
 1987 0c0d 0F       		.byte	0xf
 1988 0c0e 45       		.byte	0x45
 1989 0c0f 0D       		.byte	0xd
 1990 0c10 A7000000 		.4byte	0xa7
 1991 0c14 13       		.byte	0x13
 1992 0c15 08       		.uleb128 0x8
 1993 0c16 A6050000 		.4byte	.LASF149
 1994 0c1a 0F       		.byte	0xf
 1995 0c1b 46       		.byte	0x46
ARM GAS  C:\Users\USER\AppData\Local\Temp\cc5K3Chh.s 			page 36


 1996 0c1c 0D       		.byte	0xd
 1997 0c1d A7000000 		.4byte	0xa7
 1998 0c21 14       		.byte	0x14
 1999 0c22 08       		.uleb128 0x8
 2000 0c23 CB030000 		.4byte	.LASF150
 2001 0c27 0F       		.byte	0xf
 2002 0c28 48       		.byte	0x48
 2003 0c29 0D       		.byte	0xd
 2004 0c2a A7000000 		.4byte	0xa7
 2005 0c2e 15       		.byte	0x15
 2006 0c2f 00       		.byte	0
 2007 0c30 12       		.uleb128 0x12
 2008 0c31 0E0B0000 		.4byte	0xb0e
 2009 0c35 400C0000 		.4byte	0xc40
 2010 0c39 13       		.uleb128 0x13
 2011 0c3a 2C000000 		.4byte	0x2c
 2012 0c3e 03       		.byte	0x3
 2013 0c3f 00       		.byte	0
 2014 0c40 04       		.uleb128 0x4
 2015 0c41 43010000 		.4byte	.LASF151
 2016 0c45 0F       		.byte	0xf
 2017 0c46 49       		.byte	0x49
 2018 0c47 03       		.byte	0x3
 2019 0c48 3C0B0000 		.4byte	0xb3c
 2020 0c4c 06       		.uleb128 0x6
 2021 0c4d 400C0000 		.4byte	0xc40
 2022 0c51 16       		.uleb128 0x16
 2023 0c52 7E030000 		.4byte	.LASF152
 2024 0c56 0F       		.byte	0xf
 2025 0c57 6E       		.byte	0x6e
 2026 0c58 1D       		.byte	0x1d
 2027 0c59 4C0C0000 		.4byte	0xc4c
 2028 0c5d 04       		.uleb128 0x4
 2029 0c5e 19080000 		.4byte	.LASF153
 2030 0c62 0E       		.byte	0xe
 2031 0c63 34       		.byte	0x34
 2032 0c64 19       		.byte	0x19
 2033 0c65 C80A0000 		.4byte	0xac8
 2034 0c69 0B       		.uleb128 0xb
 2035 0c6a 04       		.byte	0x4
 2036 0c6b 5D0C0000 		.4byte	0xc5d
 2037 0c6f 1C       		.uleb128 0x1c
 2038 0c70 B8030000 		.4byte	.LASF155
 2039 0c74 01       		.byte	0x1
 2040 0c75 7A       		.byte	0x7a
 2041 0c76 06       		.byte	0x6
 2042 0c77 00000000 		.4byte	.LFB220
 2043 0c7b 60000000 		.4byte	.LFE220-.LFB220
 2044 0c7f 01       		.uleb128 0x1
 2045 0c80 9C       		.byte	0x9c
 2046 0c81 BC0D0000 		.4byte	0xdbc
 2047 0c85 1D       		.uleb128 0x1d
 2048 0c86 88000000 		.4byte	.Ldebug_ranges0+0x88
 2049 0c8a 290D0000 		.4byte	0xd29
 2050 0c8e 1E       		.uleb128 0x1e
 2051 0c8f F5040000 		.4byte	.LASF154
 2052 0c93 01       		.byte	0x1
ARM GAS  C:\Users\USER\AppData\Local\Temp\cc5K3Chh.s 			page 37


 2053 0c94 7E       		.byte	0x7e
 2054 0c95 19       		.byte	0x19
 2055 0c96 BC0D0000 		.4byte	0xdbc
 2056 0c9a 08000000 		.4byte	.LLST6
 2057 0c9e 00000000 		.4byte	.LVUS6
 2058 0ca2 1F       		.uleb128 0x1f
 2059 0ca3 B20E0000 		.4byte	0xeb2
 2060 0ca7 1A000000 		.4byte	.LBI87
 2061 0cab 02       		.byte	.LVU57
 2062 0cac 1A000000 		.4byte	.LBB87
 2063 0cb0 04000000 		.4byte	.LBE87-.LBB87
 2064 0cb4 01       		.byte	0x1
 2065 0cb5 82       		.byte	0x82
 2066 0cb6 0E       		.byte	0xe
 2067 0cb7 CB0C0000 		.4byte	0xccb
 2068 0cbb 20       		.uleb128 0x20
 2069 0cbc 1A000000 		.4byte	.LBB88
 2070 0cc0 04000000 		.4byte	.LBE88-.LBB88
 2071 0cc4 21       		.uleb128 0x21
 2072 0cc5 C40E0000 		.4byte	0xec4
 2073 0cc9 00       		.byte	0
 2074 0cca 00       		.byte	0
 2075 0ccb 1F       		.uleb128 0x1f
 2076 0ccc 0A0F0000 		.4byte	0xf0a
 2077 0cd0 1E000000 		.4byte	.LBI89
 2078 0cd4 04       		.byte	.LVU65
 2079 0cd5 1E000000 		.4byte	.LBB89
 2080 0cd9 04000000 		.4byte	.LBE89-.LBB89
 2081 0cdd 01       		.byte	0x1
 2082 0cde 86       		.byte	0x86
 2083 0cdf 22       		.byte	0x22
 2084 0ce0 FC0C0000 		.4byte	0xcfc
 2085 0ce4 20       		.uleb128 0x20
 2086 0ce5 1E000000 		.4byte	.LBB90
 2087 0ce9 04000000 		.4byte	.LBE90-.LBB90
 2088 0ced 22       		.uleb128 0x22
 2089 0cee 1C0F0000 		.4byte	0xf1c
 2090 0cf2 44000000 		.4byte	.LLST7
 2091 0cf6 42000000 		.4byte	.LVUS7
 2092 0cfa 00       		.byte	0
 2093 0cfb 00       		.byte	0
 2094 0cfc 23       		.uleb128 0x23
 2095 0cfd EE0E0000 		.4byte	0xeee
 2096 0d01 32000000 		.4byte	.LBI91
 2097 0d05 02       		.byte	.LVU79
 2098 0d06 A0000000 		.4byte	.Ldebug_ranges0+0xa0
 2099 0d0a 01       		.byte	0x1
 2100 0d0b 93       		.byte	0x93
 2101 0d0c 05       		.byte	0x5
 2102 0d0d 1F0D0000 		.4byte	0xd1f
 2103 0d11 24       		.uleb128 0x24
 2104 0d12 FC0E0000 		.4byte	0xefc
 2105 0d16 5B000000 		.4byte	.LLST8
 2106 0d1a 57000000 		.4byte	.LVUS8
 2107 0d1e 00       		.byte	0
 2108 0d1f 25       		.uleb128 0x25
 2109 0d20 3E000000 		.4byte	.LVL14
ARM GAS  C:\Users\USER\AppData\Local\Temp\cc5K3Chh.s 			page 38


 2110 0d24 2A0F0000 		.4byte	0xf2a
 2111 0d28 00       		.byte	0
 2112 0d29 23       		.uleb128 0x23
 2113 0d2a 940E0000 		.4byte	0xe94
 2114 0d2e 00000000 		.4byte	.LBI64
 2115 0d32 02       		.byte	.LVU32
 2116 0d33 38000000 		.4byte	.Ldebug_ranges0+0x38
 2117 0d37 01       		.byte	0x1
 2118 0d38 7C       		.byte	0x7c
 2119 0d39 03       		.byte	0x3
 2120 0d3a 720D0000 		.4byte	0xd72
 2121 0d3e 26       		.uleb128 0x26
 2122 0d3f A80E0000 		.4byte	0xea8
 2123 0d43 00000000 		.4byte	.LBI65
 2124 0d47 04       		.byte	.LVU34
 2125 0d48 40000000 		.4byte	.Ldebug_ranges0+0x40
 2126 0d4c 03       		.byte	0x3
 2127 0d4d DB01     		.2byte	0x1db
 2128 0d4f 03       		.byte	0x3
 2129 0d50 26       		.uleb128 0x26
 2130 0d51 D20E0000 		.4byte	0xed2
 2131 0d55 00000000 		.4byte	.LBI66
 2132 0d59 06       		.byte	.LVU36
 2133 0d5a 48000000 		.4byte	.Ldebug_ranges0+0x48
 2134 0d5e 03       		.byte	0x3
 2135 0d5f BF01     		.2byte	0x1bf
 2136 0d61 03       		.byte	0x3
 2137 0d62 24       		.uleb128 0x24
 2138 0d63 E00E0000 		.4byte	0xee0
 2139 0d67 7E000000 		.4byte	.LLST4
 2140 0d6b 7C000000 		.4byte	.LVUS4
 2141 0d6f 00       		.byte	0
 2142 0d70 00       		.byte	0
 2143 0d71 00       		.byte	0
 2144 0d72 27       		.uleb128 0x27
 2145 0d73 8A0E0000 		.4byte	0xe8a
 2146 0d77 14000000 		.4byte	.LBI79
 2147 0d7b 01       		.byte	.LVU47
 2148 0d7c 68000000 		.4byte	.Ldebug_ranges0+0x68
 2149 0d80 01       		.byte	0x1
 2150 0d81 A5       		.byte	0xa5
 2151 0d82 03       		.byte	0x3
 2152 0d83 26       		.uleb128 0x26
 2153 0d84 9E0E0000 		.4byte	0xe9e
 2154 0d88 14000000 		.4byte	.LBI80
 2155 0d8c 03       		.byte	.LVU49
 2156 0d8d 70000000 		.4byte	.Ldebug_ranges0+0x70
 2157 0d91 03       		.byte	0x3
 2158 0d92 E601     		.2byte	0x1e6
 2159 0d94 03       		.byte	0x3
 2160 0d95 28       		.uleb128 0x28
 2161 0d96 D20E0000 		.4byte	0xed2
 2162 0d9a 14000000 		.4byte	.LBI81
 2163 0d9e 05       		.byte	.LVU51
 2164 0d9f 14000000 		.4byte	.LBB81
 2165 0da3 04000000 		.4byte	.LBE81-.LBB81
 2166 0da7 03       		.byte	0x3
ARM GAS  C:\Users\USER\AppData\Local\Temp\cc5K3Chh.s 			page 39


 2167 0da8 CD01     		.2byte	0x1cd
 2168 0daa 03       		.byte	0x3
 2169 0dab 24       		.uleb128 0x24
 2170 0dac E00E0000 		.4byte	0xee0
 2171 0db0 95000000 		.4byte	.LLST5
 2172 0db4 93000000 		.4byte	.LVUS5
 2173 0db8 00       		.byte	0
 2174 0db9 00       		.byte	0
 2175 0dba 00       		.byte	0
 2176 0dbb 00       		.byte	0
 2177 0dbc 0B       		.uleb128 0xb
 2178 0dbd 04       		.byte	0x4
 2179 0dbe BB080000 		.4byte	0x8bb
 2180 0dc2 1C       		.uleb128 0x1c
 2181 0dc3 DD050000 		.4byte	.LASF156
 2182 0dc7 01       		.byte	0x1
 2183 0dc8 3E       		.byte	0x3e
 2184 0dc9 06       		.byte	0x6
 2185 0dca 00000000 		.4byte	.LFB219
 2186 0dce 2C000000 		.4byte	.LFE219-.LFB219
 2187 0dd2 01       		.uleb128 0x1
 2188 0dd3 9C       		.byte	0x9c
 2189 0dd4 8A0E0000 		.4byte	0xe8a
 2190 0dd8 1E       		.uleb128 0x1e
 2191 0dd9 F5040000 		.4byte	.LASF154
 2192 0ddd 01       		.byte	0x1
 2193 0dde 40       		.byte	0x40
 2194 0ddf 17       		.byte	0x17
 2195 0de0 BC0D0000 		.4byte	0xdbc
 2196 0de4 AF000000 		.4byte	.LLST0
 2197 0de8 A9000000 		.4byte	.LVUS0
 2198 0dec 1F       		.uleb128 0x1f
 2199 0ded 0A0F0000 		.4byte	0xf0a
 2200 0df1 0E000000 		.4byte	.LBI51
 2201 0df5 01       		.byte	.LVU8
 2202 0df6 0E000000 		.4byte	.LBB51
 2203 0dfa 04000000 		.4byte	.LBE51-.LBB51
 2204 0dfe 01       		.byte	0x1
 2205 0dff 48       		.byte	0x48
 2206 0e00 20       		.byte	0x20
 2207 0e01 1D0E0000 		.4byte	0xe1d
 2208 0e05 20       		.uleb128 0x20
 2209 0e06 0E000000 		.4byte	.LBB52
 2210 0e0a 04000000 		.4byte	.LBE52-.LBB52
 2211 0e0e 22       		.uleb128 0x22
 2212 0e0f 1C0F0000 		.4byte	0xf1c
 2213 0e13 DD000000 		.4byte	.LLST1
 2214 0e17 DB000000 		.4byte	.LVUS1
 2215 0e1b 00       		.byte	0
 2216 0e1c 00       		.byte	0
 2217 0e1d 23       		.uleb128 0x23
 2218 0e1e EE0E0000 		.4byte	0xeee
 2219 0e22 12000000 		.4byte	.LBI53
 2220 0e26 04       		.byte	.LVU15
 2221 0e27 00000000 		.4byte	.Ldebug_ranges0+0
 2222 0e2b 01       		.byte	0x1
 2223 0e2c 4F       		.byte	0x4f
ARM GAS  C:\Users\USER\AppData\Local\Temp\cc5K3Chh.s 			page 40


 2224 0e2d 03       		.byte	0x3
 2225 0e2e 400E0000 		.4byte	0xe40
 2226 0e32 24       		.uleb128 0x24
 2227 0e33 FC0E0000 		.4byte	0xefc
 2228 0e37 F4000000 		.4byte	.LLST2
 2229 0e3b F0000000 		.4byte	.LVUS2
 2230 0e3f 00       		.byte	0
 2231 0e40 27       		.uleb128 0x27
 2232 0e41 8A0E0000 		.4byte	0xe8a
 2233 0e45 18000000 		.4byte	.LBI57
 2234 0e49 02       		.byte	.LVU21
 2235 0e4a 18000000 		.4byte	.Ldebug_ranges0+0x18
 2236 0e4e 01       		.byte	0x1
 2237 0e4f 52       		.byte	0x52
 2238 0e50 03       		.byte	0x3
 2239 0e51 26       		.uleb128 0x26
 2240 0e52 9E0E0000 		.4byte	0xe9e
 2241 0e56 18000000 		.4byte	.LBI58
 2242 0e5a 04       		.byte	.LVU23
 2243 0e5b 20000000 		.4byte	.Ldebug_ranges0+0x20
 2244 0e5f 03       		.byte	0x3
 2245 0e60 E601     		.2byte	0x1e6
 2246 0e62 03       		.byte	0x3
 2247 0e63 28       		.uleb128 0x28
 2248 0e64 D20E0000 		.4byte	0xed2
 2249 0e68 18000000 		.4byte	.LBI59
 2250 0e6c 06       		.byte	.LVU25
 2251 0e6d 18000000 		.4byte	.LBB59
 2252 0e71 06000000 		.4byte	.LBE59-.LBB59
 2253 0e75 03       		.byte	0x3
 2254 0e76 CD01     		.2byte	0x1cd
 2255 0e78 03       		.byte	0x3
 2256 0e79 24       		.uleb128 0x24
 2257 0e7a E00E0000 		.4byte	0xee0
 2258 0e7e 17010000 		.4byte	.LLST3
 2259 0e82 15010000 		.4byte	.LVUS3
 2260 0e86 00       		.byte	0
 2261 0e87 00       		.byte	0
 2262 0e88 00       		.byte	0
 2263 0e89 00       		.byte	0
 2264 0e8a 29       		.uleb128 0x29
 2265 0e8b 93060000 		.4byte	.LASF157
 2266 0e8f 03       		.byte	0x3
 2267 0e90 E401     		.2byte	0x1e4
 2268 0e92 14       		.byte	0x14
 2269 0e93 03       		.byte	0x3
 2270 0e94 29       		.uleb128 0x29
 2271 0e95 1B070000 		.4byte	.LASF158
 2272 0e99 03       		.byte	0x3
 2273 0e9a D901     		.2byte	0x1d9
 2274 0e9c 14       		.byte	0x14
 2275 0e9d 03       		.byte	0x3
 2276 0e9e 29       		.uleb128 0x29
 2277 0e9f 11010000 		.4byte	.LASF159
 2278 0ea3 03       		.byte	0x3
 2279 0ea4 CA01     		.2byte	0x1ca
 2280 0ea6 14       		.byte	0x14
ARM GAS  C:\Users\USER\AppData\Local\Temp\cc5K3Chh.s 			page 41


 2281 0ea7 03       		.byte	0x3
 2282 0ea8 29       		.uleb128 0x29
 2283 0ea9 6B000000 		.4byte	.LASF160
 2284 0ead 03       		.byte	0x3
 2285 0eae BC01     		.2byte	0x1bc
 2286 0eb0 14       		.byte	0x14
 2287 0eb1 03       		.byte	0x3
 2288 0eb2 2A       		.uleb128 0x2a
 2289 0eb3 19050000 		.4byte	.LASF165
 2290 0eb7 02       		.byte	0x2
 2291 0eb8 4B02     		.2byte	0x24b
 2292 0eba 3D       		.byte	0x3d
 2293 0ebb D5000000 		.4byte	0xd5
 2294 0ebf 03       		.byte	0x3
 2295 0ec0 D20E0000 		.4byte	0xed2
 2296 0ec4 2B       		.uleb128 0x2b
 2297 0ec5 29080000 		.4byte	.LASF167
 2298 0ec9 02       		.byte	0x2
 2299 0eca 4E02     		.2byte	0x24e
 2300 0ecc 0C       		.byte	0xc
 2301 0ecd D5000000 		.4byte	0xd5
 2302 0ed1 00       		.byte	0
 2303 0ed2 2C       		.uleb128 0x2c
 2304 0ed3 E1060000 		.4byte	.LASF161
 2305 0ed7 02       		.byte	0x2
 2306 0ed8 2002     		.2byte	0x220
 2307 0eda 39       		.byte	0x39
 2308 0edb 03       		.byte	0x3
 2309 0edc EE0E0000 		.4byte	0xeee
 2310 0ee0 2D       		.uleb128 0x2d
 2311 0ee1 E8020000 		.4byte	.LASF163
 2312 0ee5 02       		.byte	0x2
 2313 0ee6 2002     		.2byte	0x220
 2314 0ee8 50       		.byte	0x50
 2315 0ee9 D5000000 		.4byte	0xd5
 2316 0eed 00       		.byte	0
 2317 0eee 2C       		.uleb128 0x2c
 2318 0eef 19030000 		.4byte	.LASF162
 2319 0ef3 02       		.byte	0x2
 2320 0ef4 B701     		.2byte	0x1b7
 2321 0ef6 39       		.byte	0x39
 2322 0ef7 03       		.byte	0x3
 2323 0ef8 0A0F0000 		.4byte	0xf0a
 2324 0efc 2D       		.uleb128 0x2d
 2325 0efd F1030000 		.4byte	.LASF164
 2326 0f01 02       		.byte	0x2
 2327 0f02 B701     		.2byte	0x1b7
 2328 0f04 4C       		.byte	0x4c
 2329 0f05 D5000000 		.4byte	0xd5
 2330 0f09 00       		.byte	0
 2331 0f0a 2A       		.uleb128 0x2a
 2332 0f0b 2E070000 		.4byte	.LASF166
 2333 0f0f 02       		.byte	0x2
 2334 0f10 A801     		.2byte	0x1a8
 2335 0f12 3D       		.byte	0x3d
 2336 0f13 D5000000 		.4byte	0xd5
 2337 0f17 03       		.byte	0x3
ARM GAS  C:\Users\USER\AppData\Local\Temp\cc5K3Chh.s 			page 42


 2338 0f18 2A0F0000 		.4byte	0xf2a
 2339 0f1c 2B       		.uleb128 0x2b
 2340 0f1d 29080000 		.4byte	.LASF167
 2341 0f21 02       		.byte	0x2
 2342 0f22 AA01     		.2byte	0x1aa
 2343 0f24 15       		.byte	0x15
 2344 0f25 D5000000 		.4byte	0xd5
 2345 0f29 00       		.byte	0
 2346 0f2a 2E       		.uleb128 0x2e
 2347 0f2b 4D010000 		.4byte	.LASF171
 2348 0f2f 4D010000 		.4byte	.LASF171
 2349 0f33 08       		.byte	0x8
 2350 0f34 1802     		.2byte	0x218
 2351 0f36 08       		.byte	0x8
 2352 0f37 00       		.byte	0
 2353              		.section	.debug_abbrev,"",%progbits
 2354              	.Ldebug_abbrev0:
 2355 0000 01       		.uleb128 0x1
 2356 0001 11       		.uleb128 0x11
 2357 0002 01       		.byte	0x1
 2358 0003 25       		.uleb128 0x25
 2359 0004 0E       		.uleb128 0xe
 2360 0005 13       		.uleb128 0x13
 2361 0006 0B       		.uleb128 0xb
 2362 0007 03       		.uleb128 0x3
 2363 0008 0E       		.uleb128 0xe
 2364 0009 1B       		.uleb128 0x1b
 2365 000a 0E       		.uleb128 0xe
 2366 000b 55       		.uleb128 0x55
 2367 000c 17       		.uleb128 0x17
 2368 000d 11       		.uleb128 0x11
 2369 000e 01       		.uleb128 0x1
 2370 000f 10       		.uleb128 0x10
 2371 0010 17       		.uleb128 0x17
 2372 0011 00       		.byte	0
 2373 0012 00       		.byte	0
 2374 0013 02       		.uleb128 0x2
 2375 0014 24       		.uleb128 0x24
 2376 0015 00       		.byte	0
 2377 0016 0B       		.uleb128 0xb
 2378 0017 0B       		.uleb128 0xb
 2379 0018 3E       		.uleb128 0x3e
 2380 0019 0B       		.uleb128 0xb
 2381 001a 03       		.uleb128 0x3
 2382 001b 08       		.uleb128 0x8
 2383 001c 00       		.byte	0
 2384 001d 00       		.byte	0
 2385 001e 03       		.uleb128 0x3
 2386 001f 24       		.uleb128 0x24
 2387 0020 00       		.byte	0
 2388 0021 0B       		.uleb128 0xb
 2389 0022 0B       		.uleb128 0xb
 2390 0023 3E       		.uleb128 0x3e
 2391 0024 0B       		.uleb128 0xb
 2392 0025 03       		.uleb128 0x3
 2393 0026 0E       		.uleb128 0xe
 2394 0027 00       		.byte	0
ARM GAS  C:\Users\USER\AppData\Local\Temp\cc5K3Chh.s 			page 43


 2395 0028 00       		.byte	0
 2396 0029 04       		.uleb128 0x4
 2397 002a 16       		.uleb128 0x16
 2398 002b 00       		.byte	0
 2399 002c 03       		.uleb128 0x3
 2400 002d 0E       		.uleb128 0xe
 2401 002e 3A       		.uleb128 0x3a
 2402 002f 0B       		.uleb128 0xb
 2403 0030 3B       		.uleb128 0x3b
 2404 0031 0B       		.uleb128 0xb
 2405 0032 39       		.uleb128 0x39
 2406 0033 0B       		.uleb128 0xb
 2407 0034 49       		.uleb128 0x49
 2408 0035 13       		.uleb128 0x13
 2409 0036 00       		.byte	0
 2410 0037 00       		.byte	0
 2411 0038 05       		.uleb128 0x5
 2412 0039 35       		.uleb128 0x35
 2413 003a 00       		.byte	0
 2414 003b 49       		.uleb128 0x49
 2415 003c 13       		.uleb128 0x13
 2416 003d 00       		.byte	0
 2417 003e 00       		.byte	0
 2418 003f 06       		.uleb128 0x6
 2419 0040 26       		.uleb128 0x26
 2420 0041 00       		.byte	0
 2421 0042 49       		.uleb128 0x49
 2422 0043 13       		.uleb128 0x13
 2423 0044 00       		.byte	0
 2424 0045 00       		.byte	0
 2425 0046 07       		.uleb128 0x7
 2426 0047 13       		.uleb128 0x13
 2427 0048 01       		.byte	0x1
 2428 0049 03       		.uleb128 0x3
 2429 004a 0E       		.uleb128 0xe
 2430 004b 0B       		.uleb128 0xb
 2431 004c 0B       		.uleb128 0xb
 2432 004d 3A       		.uleb128 0x3a
 2433 004e 0B       		.uleb128 0xb
 2434 004f 3B       		.uleb128 0x3b
 2435 0050 0B       		.uleb128 0xb
 2436 0051 39       		.uleb128 0x39
 2437 0052 0B       		.uleb128 0xb
 2438 0053 01       		.uleb128 0x1
 2439 0054 13       		.uleb128 0x13
 2440 0055 00       		.byte	0
 2441 0056 00       		.byte	0
 2442 0057 08       		.uleb128 0x8
 2443 0058 0D       		.uleb128 0xd
 2444 0059 00       		.byte	0
 2445 005a 03       		.uleb128 0x3
 2446 005b 0E       		.uleb128 0xe
 2447 005c 3A       		.uleb128 0x3a
 2448 005d 0B       		.uleb128 0xb
 2449 005e 3B       		.uleb128 0x3b
 2450 005f 0B       		.uleb128 0xb
 2451 0060 39       		.uleb128 0x39
ARM GAS  C:\Users\USER\AppData\Local\Temp\cc5K3Chh.s 			page 44


 2452 0061 0B       		.uleb128 0xb
 2453 0062 49       		.uleb128 0x49
 2454 0063 13       		.uleb128 0x13
 2455 0064 38       		.uleb128 0x38
 2456 0065 0B       		.uleb128 0xb
 2457 0066 00       		.byte	0
 2458 0067 00       		.byte	0
 2459 0068 09       		.uleb128 0x9
 2460 0069 0D       		.uleb128 0xd
 2461 006a 00       		.byte	0
 2462 006b 03       		.uleb128 0x3
 2463 006c 08       		.uleb128 0x8
 2464 006d 3A       		.uleb128 0x3a
 2465 006e 0B       		.uleb128 0xb
 2466 006f 3B       		.uleb128 0x3b
 2467 0070 05       		.uleb128 0x5
 2468 0071 39       		.uleb128 0x39
 2469 0072 0B       		.uleb128 0xb
 2470 0073 49       		.uleb128 0x49
 2471 0074 13       		.uleb128 0x13
 2472 0075 38       		.uleb128 0x38
 2473 0076 0B       		.uleb128 0xb
 2474 0077 00       		.byte	0
 2475 0078 00       		.byte	0
 2476 0079 0A       		.uleb128 0xa
 2477 007a 0D       		.uleb128 0xd
 2478 007b 00       		.byte	0
 2479 007c 03       		.uleb128 0x3
 2480 007d 0E       		.uleb128 0xe
 2481 007e 3A       		.uleb128 0x3a
 2482 007f 0B       		.uleb128 0xb
 2483 0080 3B       		.uleb128 0x3b
 2484 0081 05       		.uleb128 0x5
 2485 0082 39       		.uleb128 0x39
 2486 0083 0B       		.uleb128 0xb
 2487 0084 49       		.uleb128 0x49
 2488 0085 13       		.uleb128 0x13
 2489 0086 38       		.uleb128 0x38
 2490 0087 0B       		.uleb128 0xb
 2491 0088 00       		.byte	0
 2492 0089 00       		.byte	0
 2493 008a 0B       		.uleb128 0xb
 2494 008b 0F       		.uleb128 0xf
 2495 008c 00       		.byte	0
 2496 008d 0B       		.uleb128 0xb
 2497 008e 0B       		.uleb128 0xb
 2498 008f 49       		.uleb128 0x49
 2499 0090 13       		.uleb128 0x13
 2500 0091 00       		.byte	0
 2501 0092 00       		.byte	0
 2502 0093 0C       		.uleb128 0xc
 2503 0094 13       		.uleb128 0x13
 2504 0095 01       		.byte	0x1
 2505 0096 03       		.uleb128 0x3
 2506 0097 0E       		.uleb128 0xe
 2507 0098 0B       		.uleb128 0xb
 2508 0099 0B       		.uleb128 0xb
ARM GAS  C:\Users\USER\AppData\Local\Temp\cc5K3Chh.s 			page 45


 2509 009a 3A       		.uleb128 0x3a
 2510 009b 0B       		.uleb128 0xb
 2511 009c 3B       		.uleb128 0x3b
 2512 009d 05       		.uleb128 0x5
 2513 009e 39       		.uleb128 0x39
 2514 009f 0B       		.uleb128 0xb
 2515 00a0 01       		.uleb128 0x1
 2516 00a1 13       		.uleb128 0x13
 2517 00a2 00       		.byte	0
 2518 00a3 00       		.byte	0
 2519 00a4 0D       		.uleb128 0xd
 2520 00a5 15       		.uleb128 0x15
 2521 00a6 01       		.byte	0x1
 2522 00a7 27       		.uleb128 0x27
 2523 00a8 19       		.uleb128 0x19
 2524 00a9 01       		.uleb128 0x1
 2525 00aa 13       		.uleb128 0x13
 2526 00ab 00       		.byte	0
 2527 00ac 00       		.byte	0
 2528 00ad 0E       		.uleb128 0xe
 2529 00ae 05       		.uleb128 0x5
 2530 00af 00       		.byte	0
 2531 00b0 49       		.uleb128 0x49
 2532 00b1 13       		.uleb128 0x13
 2533 00b2 00       		.byte	0
 2534 00b3 00       		.byte	0
 2535 00b4 0F       		.uleb128 0xf
 2536 00b5 0F       		.uleb128 0xf
 2537 00b6 00       		.byte	0
 2538 00b7 0B       		.uleb128 0xb
 2539 00b8 0B       		.uleb128 0xb
 2540 00b9 00       		.byte	0
 2541 00ba 00       		.byte	0
 2542 00bb 10       		.uleb128 0x10
 2543 00bc 13       		.uleb128 0x13
 2544 00bd 01       		.byte	0x1
 2545 00be 03       		.uleb128 0x3
 2546 00bf 0E       		.uleb128 0xe
 2547 00c0 0B       		.uleb128 0xb
 2548 00c1 05       		.uleb128 0x5
 2549 00c2 3A       		.uleb128 0x3a
 2550 00c3 0B       		.uleb128 0xb
 2551 00c4 3B       		.uleb128 0x3b
 2552 00c5 05       		.uleb128 0x5
 2553 00c6 39       		.uleb128 0x39
 2554 00c7 0B       		.uleb128 0xb
 2555 00c8 01       		.uleb128 0x1
 2556 00c9 13       		.uleb128 0x13
 2557 00ca 00       		.byte	0
 2558 00cb 00       		.byte	0
 2559 00cc 11       		.uleb128 0x11
 2560 00cd 13       		.uleb128 0x13
 2561 00ce 01       		.byte	0x1
 2562 00cf 0B       		.uleb128 0xb
 2563 00d0 0B       		.uleb128 0xb
 2564 00d1 3A       		.uleb128 0x3a
 2565 00d2 0B       		.uleb128 0xb
ARM GAS  C:\Users\USER\AppData\Local\Temp\cc5K3Chh.s 			page 46


 2566 00d3 3B       		.uleb128 0x3b
 2567 00d4 05       		.uleb128 0x5
 2568 00d5 39       		.uleb128 0x39
 2569 00d6 0B       		.uleb128 0xb
 2570 00d7 01       		.uleb128 0x1
 2571 00d8 13       		.uleb128 0x13
 2572 00d9 00       		.byte	0
 2573 00da 00       		.byte	0
 2574 00db 12       		.uleb128 0x12
 2575 00dc 01       		.uleb128 0x1
 2576 00dd 01       		.byte	0x1
 2577 00de 49       		.uleb128 0x49
 2578 00df 13       		.uleb128 0x13
 2579 00e0 01       		.uleb128 0x1
 2580 00e1 13       		.uleb128 0x13
 2581 00e2 00       		.byte	0
 2582 00e3 00       		.byte	0
 2583 00e4 13       		.uleb128 0x13
 2584 00e5 21       		.uleb128 0x21
 2585 00e6 00       		.byte	0
 2586 00e7 49       		.uleb128 0x49
 2587 00e8 13       		.uleb128 0x13
 2588 00e9 2F       		.uleb128 0x2f
 2589 00ea 0B       		.uleb128 0xb
 2590 00eb 00       		.byte	0
 2591 00ec 00       		.byte	0
 2592 00ed 14       		.uleb128 0x14
 2593 00ee 16       		.uleb128 0x16
 2594 00ef 00       		.byte	0
 2595 00f0 03       		.uleb128 0x3
 2596 00f1 0E       		.uleb128 0xe
 2597 00f2 3A       		.uleb128 0x3a
 2598 00f3 0B       		.uleb128 0xb
 2599 00f4 3B       		.uleb128 0x3b
 2600 00f5 05       		.uleb128 0x5
 2601 00f6 39       		.uleb128 0x39
 2602 00f7 0B       		.uleb128 0xb
 2603 00f8 49       		.uleb128 0x49
 2604 00f9 13       		.uleb128 0x13
 2605 00fa 00       		.byte	0
 2606 00fb 00       		.byte	0
 2607 00fc 15       		.uleb128 0x15
 2608 00fd 34       		.uleb128 0x34
 2609 00fe 00       		.byte	0
 2610 00ff 03       		.uleb128 0x3
 2611 0100 0E       		.uleb128 0xe
 2612 0101 3A       		.uleb128 0x3a
 2613 0102 0B       		.uleb128 0xb
 2614 0103 3B       		.uleb128 0x3b
 2615 0104 05       		.uleb128 0x5
 2616 0105 39       		.uleb128 0x39
 2617 0106 0B       		.uleb128 0xb
 2618 0107 49       		.uleb128 0x49
 2619 0108 13       		.uleb128 0x13
 2620 0109 3F       		.uleb128 0x3f
 2621 010a 19       		.uleb128 0x19
 2622 010b 3C       		.uleb128 0x3c
ARM GAS  C:\Users\USER\AppData\Local\Temp\cc5K3Chh.s 			page 47


 2623 010c 19       		.uleb128 0x19
 2624 010d 00       		.byte	0
 2625 010e 00       		.byte	0
 2626 010f 16       		.uleb128 0x16
 2627 0110 34       		.uleb128 0x34
 2628 0111 00       		.byte	0
 2629 0112 03       		.uleb128 0x3
 2630 0113 0E       		.uleb128 0xe
 2631 0114 3A       		.uleb128 0x3a
 2632 0115 0B       		.uleb128 0xb
 2633 0116 3B       		.uleb128 0x3b
 2634 0117 0B       		.uleb128 0xb
 2635 0118 39       		.uleb128 0x39
 2636 0119 0B       		.uleb128 0xb
 2637 011a 49       		.uleb128 0x49
 2638 011b 13       		.uleb128 0x13
 2639 011c 3F       		.uleb128 0x3f
 2640 011d 19       		.uleb128 0x19
 2641 011e 3C       		.uleb128 0x3c
 2642 011f 19       		.uleb128 0x19
 2643 0120 00       		.byte	0
 2644 0121 00       		.byte	0
 2645 0122 17       		.uleb128 0x17
 2646 0123 0D       		.uleb128 0xd
 2647 0124 00       		.byte	0
 2648 0125 03       		.uleb128 0x3
 2649 0126 08       		.uleb128 0x8
 2650 0127 3A       		.uleb128 0x3a
 2651 0128 0B       		.uleb128 0xb
 2652 0129 3B       		.uleb128 0x3b
 2653 012a 0B       		.uleb128 0xb
 2654 012b 39       		.uleb128 0x39
 2655 012c 0B       		.uleb128 0xb
 2656 012d 49       		.uleb128 0x49
 2657 012e 13       		.uleb128 0x13
 2658 012f 38       		.uleb128 0x38
 2659 0130 0B       		.uleb128 0xb
 2660 0131 00       		.byte	0
 2661 0132 00       		.byte	0
 2662 0133 18       		.uleb128 0x18
 2663 0134 13       		.uleb128 0x13
 2664 0135 01       		.byte	0x1
 2665 0136 0B       		.uleb128 0xb
 2666 0137 0B       		.uleb128 0xb
 2667 0138 3A       		.uleb128 0x3a
 2668 0139 0B       		.uleb128 0xb
 2669 013a 3B       		.uleb128 0x3b
 2670 013b 0B       		.uleb128 0xb
 2671 013c 39       		.uleb128 0x39
 2672 013d 0B       		.uleb128 0xb
 2673 013e 01       		.uleb128 0x1
 2674 013f 13       		.uleb128 0x13
 2675 0140 00       		.byte	0
 2676 0141 00       		.byte	0
 2677 0142 19       		.uleb128 0x19
 2678 0143 17       		.uleb128 0x17
 2679 0144 01       		.byte	0x1
ARM GAS  C:\Users\USER\AppData\Local\Temp\cc5K3Chh.s 			page 48


 2680 0145 0B       		.uleb128 0xb
 2681 0146 0B       		.uleb128 0xb
 2682 0147 3A       		.uleb128 0x3a
 2683 0148 0B       		.uleb128 0xb
 2684 0149 3B       		.uleb128 0x3b
 2685 014a 0B       		.uleb128 0xb
 2686 014b 39       		.uleb128 0x39
 2687 014c 0B       		.uleb128 0xb
 2688 014d 01       		.uleb128 0x1
 2689 014e 13       		.uleb128 0x13
 2690 014f 00       		.byte	0
 2691 0150 00       		.byte	0
 2692 0151 1A       		.uleb128 0x1a
 2693 0152 0D       		.uleb128 0xd
 2694 0153 00       		.byte	0
 2695 0154 03       		.uleb128 0x3
 2696 0155 0E       		.uleb128 0xe
 2697 0156 3A       		.uleb128 0x3a
 2698 0157 0B       		.uleb128 0xb
 2699 0158 3B       		.uleb128 0x3b
 2700 0159 05       		.uleb128 0x5
 2701 015a 39       		.uleb128 0x39
 2702 015b 0B       		.uleb128 0xb
 2703 015c 49       		.uleb128 0x49
 2704 015d 13       		.uleb128 0x13
 2705 015e 00       		.byte	0
 2706 015f 00       		.byte	0
 2707 0160 1B       		.uleb128 0x1b
 2708 0161 34       		.uleb128 0x34
 2709 0162 00       		.byte	0
 2710 0163 03       		.uleb128 0x3
 2711 0164 08       		.uleb128 0x8
 2712 0165 3A       		.uleb128 0x3a
 2713 0166 0B       		.uleb128 0xb
 2714 0167 3B       		.uleb128 0x3b
 2715 0168 05       		.uleb128 0x5
 2716 0169 39       		.uleb128 0x39
 2717 016a 0B       		.uleb128 0xb
 2718 016b 49       		.uleb128 0x49
 2719 016c 13       		.uleb128 0x13
 2720 016d 3F       		.uleb128 0x3f
 2721 016e 19       		.uleb128 0x19
 2722 016f 3C       		.uleb128 0x3c
 2723 0170 19       		.uleb128 0x19
 2724 0171 00       		.byte	0
 2725 0172 00       		.byte	0
 2726 0173 1C       		.uleb128 0x1c
 2727 0174 2E       		.uleb128 0x2e
 2728 0175 01       		.byte	0x1
 2729 0176 3F       		.uleb128 0x3f
 2730 0177 19       		.uleb128 0x19
 2731 0178 03       		.uleb128 0x3
 2732 0179 0E       		.uleb128 0xe
 2733 017a 3A       		.uleb128 0x3a
 2734 017b 0B       		.uleb128 0xb
 2735 017c 3B       		.uleb128 0x3b
 2736 017d 0B       		.uleb128 0xb
ARM GAS  C:\Users\USER\AppData\Local\Temp\cc5K3Chh.s 			page 49


 2737 017e 39       		.uleb128 0x39
 2738 017f 0B       		.uleb128 0xb
 2739 0180 27       		.uleb128 0x27
 2740 0181 19       		.uleb128 0x19
 2741 0182 11       		.uleb128 0x11
 2742 0183 01       		.uleb128 0x1
 2743 0184 12       		.uleb128 0x12
 2744 0185 06       		.uleb128 0x6
 2745 0186 40       		.uleb128 0x40
 2746 0187 18       		.uleb128 0x18
 2747 0188 9742     		.uleb128 0x2117
 2748 018a 19       		.uleb128 0x19
 2749 018b 01       		.uleb128 0x1
 2750 018c 13       		.uleb128 0x13
 2751 018d 00       		.byte	0
 2752 018e 00       		.byte	0
 2753 018f 1D       		.uleb128 0x1d
 2754 0190 0B       		.uleb128 0xb
 2755 0191 01       		.byte	0x1
 2756 0192 55       		.uleb128 0x55
 2757 0193 17       		.uleb128 0x17
 2758 0194 01       		.uleb128 0x1
 2759 0195 13       		.uleb128 0x13
 2760 0196 00       		.byte	0
 2761 0197 00       		.byte	0
 2762 0198 1E       		.uleb128 0x1e
 2763 0199 34       		.uleb128 0x34
 2764 019a 00       		.byte	0
 2765 019b 03       		.uleb128 0x3
 2766 019c 0E       		.uleb128 0xe
 2767 019d 3A       		.uleb128 0x3a
 2768 019e 0B       		.uleb128 0xb
 2769 019f 3B       		.uleb128 0x3b
 2770 01a0 0B       		.uleb128 0xb
 2771 01a1 39       		.uleb128 0x39
 2772 01a2 0B       		.uleb128 0xb
 2773 01a3 49       		.uleb128 0x49
 2774 01a4 13       		.uleb128 0x13
 2775 01a5 02       		.uleb128 0x2
 2776 01a6 17       		.uleb128 0x17
 2777 01a7 B742     		.uleb128 0x2137
 2778 01a9 17       		.uleb128 0x17
 2779 01aa 00       		.byte	0
 2780 01ab 00       		.byte	0
 2781 01ac 1F       		.uleb128 0x1f
 2782 01ad 1D       		.uleb128 0x1d
 2783 01ae 01       		.byte	0x1
 2784 01af 31       		.uleb128 0x31
 2785 01b0 13       		.uleb128 0x13
 2786 01b1 52       		.uleb128 0x52
 2787 01b2 01       		.uleb128 0x1
 2788 01b3 B842     		.uleb128 0x2138
 2789 01b5 0B       		.uleb128 0xb
 2790 01b6 11       		.uleb128 0x11
 2791 01b7 01       		.uleb128 0x1
 2792 01b8 12       		.uleb128 0x12
 2793 01b9 06       		.uleb128 0x6
ARM GAS  C:\Users\USER\AppData\Local\Temp\cc5K3Chh.s 			page 50


 2794 01ba 58       		.uleb128 0x58
 2795 01bb 0B       		.uleb128 0xb
 2796 01bc 59       		.uleb128 0x59
 2797 01bd 0B       		.uleb128 0xb
 2798 01be 57       		.uleb128 0x57
 2799 01bf 0B       		.uleb128 0xb
 2800 01c0 01       		.uleb128 0x1
 2801 01c1 13       		.uleb128 0x13
 2802 01c2 00       		.byte	0
 2803 01c3 00       		.byte	0
 2804 01c4 20       		.uleb128 0x20
 2805 01c5 0B       		.uleb128 0xb
 2806 01c6 01       		.byte	0x1
 2807 01c7 11       		.uleb128 0x11
 2808 01c8 01       		.uleb128 0x1
 2809 01c9 12       		.uleb128 0x12
 2810 01ca 06       		.uleb128 0x6
 2811 01cb 00       		.byte	0
 2812 01cc 00       		.byte	0
 2813 01cd 21       		.uleb128 0x21
 2814 01ce 34       		.uleb128 0x34
 2815 01cf 00       		.byte	0
 2816 01d0 31       		.uleb128 0x31
 2817 01d1 13       		.uleb128 0x13
 2818 01d2 00       		.byte	0
 2819 01d3 00       		.byte	0
 2820 01d4 22       		.uleb128 0x22
 2821 01d5 34       		.uleb128 0x34
 2822 01d6 00       		.byte	0
 2823 01d7 31       		.uleb128 0x31
 2824 01d8 13       		.uleb128 0x13
 2825 01d9 02       		.uleb128 0x2
 2826 01da 17       		.uleb128 0x17
 2827 01db B742     		.uleb128 0x2137
 2828 01dd 17       		.uleb128 0x17
 2829 01de 00       		.byte	0
 2830 01df 00       		.byte	0
 2831 01e0 23       		.uleb128 0x23
 2832 01e1 1D       		.uleb128 0x1d
 2833 01e2 01       		.byte	0x1
 2834 01e3 31       		.uleb128 0x31
 2835 01e4 13       		.uleb128 0x13
 2836 01e5 52       		.uleb128 0x52
 2837 01e6 01       		.uleb128 0x1
 2838 01e7 B842     		.uleb128 0x2138
 2839 01e9 0B       		.uleb128 0xb
 2840 01ea 55       		.uleb128 0x55
 2841 01eb 17       		.uleb128 0x17
 2842 01ec 58       		.uleb128 0x58
 2843 01ed 0B       		.uleb128 0xb
 2844 01ee 59       		.uleb128 0x59
 2845 01ef 0B       		.uleb128 0xb
 2846 01f0 57       		.uleb128 0x57
 2847 01f1 0B       		.uleb128 0xb
 2848 01f2 01       		.uleb128 0x1
 2849 01f3 13       		.uleb128 0x13
 2850 01f4 00       		.byte	0
ARM GAS  C:\Users\USER\AppData\Local\Temp\cc5K3Chh.s 			page 51


 2851 01f5 00       		.byte	0
 2852 01f6 24       		.uleb128 0x24
 2853 01f7 05       		.uleb128 0x5
 2854 01f8 00       		.byte	0
 2855 01f9 31       		.uleb128 0x31
 2856 01fa 13       		.uleb128 0x13
 2857 01fb 02       		.uleb128 0x2
 2858 01fc 17       		.uleb128 0x17
 2859 01fd B742     		.uleb128 0x2137
 2860 01ff 17       		.uleb128 0x17
 2861 0200 00       		.byte	0
 2862 0201 00       		.byte	0
 2863 0202 25       		.uleb128 0x25
 2864 0203 898201   		.uleb128 0x4109
 2865 0206 00       		.byte	0
 2866 0207 11       		.uleb128 0x11
 2867 0208 01       		.uleb128 0x1
 2868 0209 31       		.uleb128 0x31
 2869 020a 13       		.uleb128 0x13
 2870 020b 00       		.byte	0
 2871 020c 00       		.byte	0
 2872 020d 26       		.uleb128 0x26
 2873 020e 1D       		.uleb128 0x1d
 2874 020f 01       		.byte	0x1
 2875 0210 31       		.uleb128 0x31
 2876 0211 13       		.uleb128 0x13
 2877 0212 52       		.uleb128 0x52
 2878 0213 01       		.uleb128 0x1
 2879 0214 B842     		.uleb128 0x2138
 2880 0216 0B       		.uleb128 0xb
 2881 0217 55       		.uleb128 0x55
 2882 0218 17       		.uleb128 0x17
 2883 0219 58       		.uleb128 0x58
 2884 021a 0B       		.uleb128 0xb
 2885 021b 59       		.uleb128 0x59
 2886 021c 05       		.uleb128 0x5
 2887 021d 57       		.uleb128 0x57
 2888 021e 0B       		.uleb128 0xb
 2889 021f 00       		.byte	0
 2890 0220 00       		.byte	0
 2891 0221 27       		.uleb128 0x27
 2892 0222 1D       		.uleb128 0x1d
 2893 0223 01       		.byte	0x1
 2894 0224 31       		.uleb128 0x31
 2895 0225 13       		.uleb128 0x13
 2896 0226 52       		.uleb128 0x52
 2897 0227 01       		.uleb128 0x1
 2898 0228 B842     		.uleb128 0x2138
 2899 022a 0B       		.uleb128 0xb
 2900 022b 55       		.uleb128 0x55
 2901 022c 17       		.uleb128 0x17
 2902 022d 58       		.uleb128 0x58
 2903 022e 0B       		.uleb128 0xb
 2904 022f 59       		.uleb128 0x59
 2905 0230 0B       		.uleb128 0xb
 2906 0231 57       		.uleb128 0x57
 2907 0232 0B       		.uleb128 0xb
ARM GAS  C:\Users\USER\AppData\Local\Temp\cc5K3Chh.s 			page 52


 2908 0233 00       		.byte	0
 2909 0234 00       		.byte	0
 2910 0235 28       		.uleb128 0x28
 2911 0236 1D       		.uleb128 0x1d
 2912 0237 01       		.byte	0x1
 2913 0238 31       		.uleb128 0x31
 2914 0239 13       		.uleb128 0x13
 2915 023a 52       		.uleb128 0x52
 2916 023b 01       		.uleb128 0x1
 2917 023c B842     		.uleb128 0x2138
 2918 023e 0B       		.uleb128 0xb
 2919 023f 11       		.uleb128 0x11
 2920 0240 01       		.uleb128 0x1
 2921 0241 12       		.uleb128 0x12
 2922 0242 06       		.uleb128 0x6
 2923 0243 58       		.uleb128 0x58
 2924 0244 0B       		.uleb128 0xb
 2925 0245 59       		.uleb128 0x59
 2926 0246 05       		.uleb128 0x5
 2927 0247 57       		.uleb128 0x57
 2928 0248 0B       		.uleb128 0xb
 2929 0249 00       		.byte	0
 2930 024a 00       		.byte	0
 2931 024b 29       		.uleb128 0x29
 2932 024c 2E       		.uleb128 0x2e
 2933 024d 00       		.byte	0
 2934 024e 03       		.uleb128 0x3
 2935 024f 0E       		.uleb128 0xe
 2936 0250 3A       		.uleb128 0x3a
 2937 0251 0B       		.uleb128 0xb
 2938 0252 3B       		.uleb128 0x3b
 2939 0253 05       		.uleb128 0x5
 2940 0254 39       		.uleb128 0x39
 2941 0255 0B       		.uleb128 0xb
 2942 0256 27       		.uleb128 0x27
 2943 0257 19       		.uleb128 0x19
 2944 0258 20       		.uleb128 0x20
 2945 0259 0B       		.uleb128 0xb
 2946 025a 00       		.byte	0
 2947 025b 00       		.byte	0
 2948 025c 2A       		.uleb128 0x2a
 2949 025d 2E       		.uleb128 0x2e
 2950 025e 01       		.byte	0x1
 2951 025f 03       		.uleb128 0x3
 2952 0260 0E       		.uleb128 0xe
 2953 0261 3A       		.uleb128 0x3a
 2954 0262 0B       		.uleb128 0xb
 2955 0263 3B       		.uleb128 0x3b
 2956 0264 05       		.uleb128 0x5
 2957 0265 39       		.uleb128 0x39
 2958 0266 0B       		.uleb128 0xb
 2959 0267 27       		.uleb128 0x27
 2960 0268 19       		.uleb128 0x19
 2961 0269 49       		.uleb128 0x49
 2962 026a 13       		.uleb128 0x13
 2963 026b 20       		.uleb128 0x20
 2964 026c 0B       		.uleb128 0xb
ARM GAS  C:\Users\USER\AppData\Local\Temp\cc5K3Chh.s 			page 53


 2965 026d 01       		.uleb128 0x1
 2966 026e 13       		.uleb128 0x13
 2967 026f 00       		.byte	0
 2968 0270 00       		.byte	0
 2969 0271 2B       		.uleb128 0x2b
 2970 0272 34       		.uleb128 0x34
 2971 0273 00       		.byte	0
 2972 0274 03       		.uleb128 0x3
 2973 0275 0E       		.uleb128 0xe
 2974 0276 3A       		.uleb128 0x3a
 2975 0277 0B       		.uleb128 0xb
 2976 0278 3B       		.uleb128 0x3b
 2977 0279 05       		.uleb128 0x5
 2978 027a 39       		.uleb128 0x39
 2979 027b 0B       		.uleb128 0xb
 2980 027c 49       		.uleb128 0x49
 2981 027d 13       		.uleb128 0x13
 2982 027e 00       		.byte	0
 2983 027f 00       		.byte	0
 2984 0280 2C       		.uleb128 0x2c
 2985 0281 2E       		.uleb128 0x2e
 2986 0282 01       		.byte	0x1
 2987 0283 03       		.uleb128 0x3
 2988 0284 0E       		.uleb128 0xe
 2989 0285 3A       		.uleb128 0x3a
 2990 0286 0B       		.uleb128 0xb
 2991 0287 3B       		.uleb128 0x3b
 2992 0288 05       		.uleb128 0x5
 2993 0289 39       		.uleb128 0x39
 2994 028a 0B       		.uleb128 0xb
 2995 028b 27       		.uleb128 0x27
 2996 028c 19       		.uleb128 0x19
 2997 028d 20       		.uleb128 0x20
 2998 028e 0B       		.uleb128 0xb
 2999 028f 01       		.uleb128 0x1
 3000 0290 13       		.uleb128 0x13
 3001 0291 00       		.byte	0
 3002 0292 00       		.byte	0
 3003 0293 2D       		.uleb128 0x2d
 3004 0294 05       		.uleb128 0x5
 3005 0295 00       		.byte	0
 3006 0296 03       		.uleb128 0x3
 3007 0297 0E       		.uleb128 0xe
 3008 0298 3A       		.uleb128 0x3a
 3009 0299 0B       		.uleb128 0xb
 3010 029a 3B       		.uleb128 0x3b
 3011 029b 05       		.uleb128 0x5
 3012 029c 39       		.uleb128 0x39
 3013 029d 0B       		.uleb128 0xb
 3014 029e 49       		.uleb128 0x49
 3015 029f 13       		.uleb128 0x13
 3016 02a0 00       		.byte	0
 3017 02a1 00       		.byte	0
 3018 02a2 2E       		.uleb128 0x2e
 3019 02a3 2E       		.uleb128 0x2e
 3020 02a4 00       		.byte	0
 3021 02a5 3F       		.uleb128 0x3f
ARM GAS  C:\Users\USER\AppData\Local\Temp\cc5K3Chh.s 			page 54


 3022 02a6 19       		.uleb128 0x19
 3023 02a7 3C       		.uleb128 0x3c
 3024 02a8 19       		.uleb128 0x19
 3025 02a9 6E       		.uleb128 0x6e
 3026 02aa 0E       		.uleb128 0xe
 3027 02ab 03       		.uleb128 0x3
 3028 02ac 0E       		.uleb128 0xe
 3029 02ad 3A       		.uleb128 0x3a
 3030 02ae 0B       		.uleb128 0xb
 3031 02af 3B       		.uleb128 0x3b
 3032 02b0 05       		.uleb128 0x5
 3033 02b1 39       		.uleb128 0x39
 3034 02b2 0B       		.uleb128 0xb
 3035 02b3 00       		.byte	0
 3036 02b4 00       		.byte	0
 3037 02b5 00       		.byte	0
 3038              		.section	.debug_loc,"",%progbits
 3039              	.Ldebug_loc0:
 3040              	.LVUS6:
 3041 0000 01       		.uleb128 .LVU69
 3042 0001 03       		.uleb128 .LVU71
 3043 0002 03       		.uleb128 .LVU71
 3044 0003 00       		.uleb128 .LVU82
 3045 0004 00       		.uleb128 .LVU82
 3046 0005 00       		.uleb128 .LVU86
 3047 0006 00       		.uleb128 .LVU86
 3048 0007 00       		.uleb128 .LVU93
 3049              	.LLST6:
 3050 0008 22000000 		.4byte	.LVL10
 3051 000c 22000000 		.4byte	.LVL10
 3052 0010 0100     		.2byte	0x1
 3053 0012 54       		.byte	0x54
 3054 0013 22000000 		.4byte	.LVL10
 3055 0017 36000000 		.4byte	.LVL12
 3056 001b 0400     		.2byte	0x4
 3057 001d 74       		.byte	0x74
 3058 001e 987F     		.sleb128 -104
 3059 0020 9F       		.byte	0x9f
 3060 0021 36000000 		.4byte	.LVL12
 3061 0025 3D000000 		.4byte	.LVL14-1
 3062 0029 0100     		.2byte	0x1
 3063 002b 53       		.byte	0x53
 3064 002c 3D000000 		.4byte	.LVL14-1
 3065 0030 50000000 		.4byte	.LVL16
 3066 0034 0400     		.2byte	0x4
 3067 0036 74       		.byte	0x74
 3068 0037 987F     		.sleb128 -104
 3069 0039 9F       		.byte	0x9f
 3070 003a 00000000 		.4byte	0
 3071 003e 00000000 		.4byte	0
 3072              	.LVUS7:
 3073 0042 00       		.uleb128 .LVU68
 3074 0043 01       		.uleb128 .LVU69
 3075              	.LLST7:
 3076 0044 22000000 		.4byte	.LVL10
 3077 0048 22000000 		.4byte	.LVL10
 3078 004c 0100     		.2byte	0x1
ARM GAS  C:\Users\USER\AppData\Local\Temp\cc5K3Chh.s 			page 55


 3079 004e 54       		.byte	0x54
 3080 004f 00000000 		.4byte	0
 3081 0053 00000000 		.4byte	0
 3082              	.LVUS8:
 3083 0057 02       		.uleb128 .LVU79
 3084 0058 00       		.uleb128 .LVU82
 3085 0059 00       		.uleb128 .LVU82
 3086 005a 00       		.uleb128 .LVU83
 3087              	.LLST8:
 3088 005b 32000000 		.4byte	.LVL11
 3089 005f 36000000 		.4byte	.LVL12
 3090 0063 0400     		.2byte	0x4
 3091 0065 74       		.byte	0x74
 3092 0066 987F     		.sleb128 -104
 3093 0068 9F       		.byte	0x9f
 3094 0069 36000000 		.4byte	.LVL12
 3095 006d 3A000000 		.4byte	.LVL13
 3096 0071 0100     		.2byte	0x1
 3097 0073 53       		.byte	0x53
 3098 0074 00000000 		.4byte	0
 3099 0078 00000000 		.4byte	0
 3100              	.LVUS4:
 3101 007c 06       		.uleb128 .LVU36
 3102 007d 00       		.uleb128 .LVU42
 3103              	.LLST4:
 3104 007e 00000000 		.4byte	.LVL5
 3105 0082 0A000000 		.4byte	.LVL6
 3106 0086 0300     		.2byte	0x3
 3107 0088 08       		.byte	0x8
 3108 0089 20       		.byte	0x20
 3109 008a 9F       		.byte	0x9f
 3110 008b 00000000 		.4byte	0
 3111 008f 00000000 		.4byte	0
 3112              	.LVUS5:
 3113 0093 05       		.uleb128 .LVU51
 3114 0094 00       		.uleb128 .LVU53
 3115              	.LLST5:
 3116 0095 14000000 		.4byte	.LVL7
 3117 0099 18000000 		.4byte	.LVL8
 3118 009d 0200     		.2byte	0x2
 3119 009f 30       		.byte	0x30
 3120 00a0 9F       		.byte	0x9f
 3121 00a1 00000000 		.4byte	0
 3122 00a5 00000000 		.4byte	0
 3123              	.LVUS0:
 3124 00a9 01       		.uleb128 .LVU12
 3125 00aa 03       		.uleb128 .LVU14
 3126 00ab 03       		.uleb128 .LVU14
 3127 00ac 00       		.uleb128 .LVU18
 3128 00ad 00       		.uleb128 .LVU18
 3129 00ae 00       		.uleb128 .LVU27
 3130              	.LLST0:
 3131 00af 12000000 		.4byte	.LVL0
 3132 00b3 12000000 		.4byte	.LVL0
 3133 00b7 0100     		.2byte	0x1
 3134 00b9 53       		.byte	0x53
 3135 00ba 12000000 		.4byte	.LVL0
ARM GAS  C:\Users\USER\AppData\Local\Temp\cc5K3Chh.s 			page 56


 3136 00be 14000000 		.4byte	.LVL1
 3137 00c2 0400     		.2byte	0x4
 3138 00c4 73       		.byte	0x73
 3139 00c5 E800     		.sleb128 104
 3140 00c7 9F       		.byte	0x9f
 3141 00c8 14000000 		.4byte	.LVL1
 3142 00cc 1A000000 		.4byte	.LVL3
 3143 00d0 0100     		.2byte	0x1
 3144 00d2 53       		.byte	0x53
 3145 00d3 00000000 		.4byte	0
 3146 00d7 00000000 		.4byte	0
 3147              	.LVUS1:
 3148 00db 00       		.uleb128 .LVU11
 3149 00dc 01       		.uleb128 .LVU12
 3150              	.LLST1:
 3151 00dd 12000000 		.4byte	.LVL0
 3152 00e1 12000000 		.4byte	.LVL0
 3153 00e5 0100     		.2byte	0x1
 3154 00e7 53       		.byte	0x53
 3155 00e8 00000000 		.4byte	0
 3156 00ec 00000000 		.4byte	0
 3157              	.LVUS2:
 3158 00f0 04       		.uleb128 .LVU15
 3159 00f1 00       		.uleb128 .LVU18
 3160 00f2 00       		.uleb128 .LVU18
 3161 00f3 00       		.uleb128 .LVU19
 3162              	.LLST2:
 3163 00f4 12000000 		.4byte	.LVL0
 3164 00f8 14000000 		.4byte	.LVL1
 3165 00fc 0400     		.2byte	0x4
 3166 00fe 73       		.byte	0x73
 3167 00ff E800     		.sleb128 104
 3168 0101 9F       		.byte	0x9f
 3169 0102 14000000 		.4byte	.LVL1
 3170 0106 18000000 		.4byte	.LVL2
 3171 010a 0100     		.2byte	0x1
 3172 010c 53       		.byte	0x53
 3173 010d 00000000 		.4byte	0
 3174 0111 00000000 		.4byte	0
 3175              	.LVUS3:
 3176 0115 06       		.uleb128 .LVU25
 3177 0116 00       		.uleb128 .LVU28
 3178              	.LLST3:
 3179 0117 18000000 		.4byte	.LVL2
 3180 011b 1E000000 		.4byte	.LVL4
 3181 011f 0200     		.2byte	0x2
 3182 0121 30       		.byte	0x30
 3183 0122 9F       		.byte	0x9f
 3184 0123 00000000 		.4byte	0
 3185 0127 00000000 		.4byte	0
 3186              		.section	.debug_aranges,"",%progbits
 3187 0000 24000000 		.4byte	0x24
 3188 0004 0200     		.2byte	0x2
 3189 0006 00000000 		.4byte	.Ldebug_info0
 3190 000a 04       		.byte	0x4
 3191 000b 00       		.byte	0
 3192 000c 0000     		.2byte	0
ARM GAS  C:\Users\USER\AppData\Local\Temp\cc5K3Chh.s 			page 57


 3193 000e 0000     		.2byte	0
 3194 0010 00000000 		.4byte	.LFB219
 3195 0014 2C000000 		.4byte	.LFE219-.LFB219
 3196 0018 00000000 		.4byte	.LFB220
 3197 001c 60000000 		.4byte	.LFE220-.LFB220
 3198 0020 00000000 		.4byte	0
 3199 0024 00000000 		.4byte	0
 3200              		.section	.debug_ranges,"",%progbits
 3201              	.Ldebug_ranges0:
 3202 0000 12000000 		.4byte	.LBB53
 3203 0004 12000000 		.4byte	.LBE53
 3204 0008 14000000 		.4byte	.LBB56
 3205 000c 18000000 		.4byte	.LBE56
 3206 0010 00000000 		.4byte	0
 3207 0014 00000000 		.4byte	0
 3208 0018 18000000 		.4byte	.LBB57
 3209 001c 18000000 		.4byte	.LBE57
 3210 0020 18000000 		.4byte	.LBB62
 3211 0024 18000000 		.4byte	.LBE62
 3212 0028 18000000 		.4byte	.LBB63
 3213 002c 1E000000 		.4byte	.LBE63
 3214 0030 00000000 		.4byte	0
 3215 0034 00000000 		.4byte	0
 3216 0038 00000000 		.4byte	.LBB64
 3217 003c 00000000 		.4byte	.LBE64
 3218 0040 00000000 		.4byte	.LBB75
 3219 0044 00000000 		.4byte	.LBE75
 3220 0048 00000000 		.4byte	.LBB76
 3221 004c 00000000 		.4byte	.LBE76
 3222 0050 02000000 		.4byte	.LBB77
 3223 0054 04000000 		.4byte	.LBE77
 3224 0058 06000000 		.4byte	.LBB78
 3225 005c 0A000000 		.4byte	.LBE78
 3226 0060 00000000 		.4byte	0
 3227 0064 00000000 		.4byte	0
 3228 0068 14000000 		.4byte	.LBB79
 3229 006c 14000000 		.4byte	.LBE79
 3230 0070 14000000 		.4byte	.LBB84
 3231 0074 14000000 		.4byte	.LBE84
 3232 0078 14000000 		.4byte	.LBB85
 3233 007c 18000000 		.4byte	.LBE85
 3234 0080 00000000 		.4byte	0
 3235 0084 00000000 		.4byte	0
 3236 0088 1A000000 		.4byte	.LBB86
 3237 008c 46000000 		.4byte	.LBE86
 3238 0090 48000000 		.4byte	.LBB95
 3239 0094 4E000000 		.4byte	.LBE95
 3240 0098 00000000 		.4byte	0
 3241 009c 00000000 		.4byte	0
 3242 00a0 32000000 		.4byte	.LBB91
 3243 00a4 32000000 		.4byte	.LBE91
 3244 00a8 36000000 		.4byte	.LBB94
 3245 00ac 3A000000 		.4byte	.LBE94
 3246 00b0 00000000 		.4byte	0
 3247 00b4 00000000 		.4byte	0
 3248 00b8 00000000 		.4byte	.LFB219
 3249 00bc 2C000000 		.4byte	.LFE219
ARM GAS  C:\Users\USER\AppData\Local\Temp\cc5K3Chh.s 			page 58


 3250 00c0 00000000 		.4byte	.LFB220
 3251 00c4 60000000 		.4byte	.LFE220
 3252 00c8 00000000 		.4byte	0
 3253 00cc 00000000 		.4byte	0
 3254              		.section	.debug_line,"",%progbits
 3255              	.Ldebug_line0:
 3256 0000 21040000 		.section	.debug_str,"MS",%progbits,1
 3256      03006302 
 3256      00000201 
 3256      FB0E0D00 
 3256      01010101 
 3257              	.LASF55:
 3258 0000 72656164 		.ascii	"ready_list_t\000"
 3258      795F6C69 
 3258      73745F74 
 3258      00
 3259              	.LASF121:
 3260 000d 77747472 		.ascii	"wttrp\000"
 3260      7000
 3261              	.LASF118:
 3262 0013 7264796D 		.ascii	"rdymsg\000"
 3262      736700
 3263              	.LASF101:
 3264 001a 46504453 		.ascii	"FPDSCR\000"
 3264      435200
 3265              	.LASF145:
 3266 0021 63665F6F 		.ascii	"cf_off_stklimit\000"
 3266      66665F73 
 3266      746B6C69 
 3266      6D697400 
 3267              	.LASF18:
 3268 0031 75696E74 		.ascii	"uint64_t\000"
 3268      36345F74 
 3268      00
 3269              	.LASF1:
 3270 003a 7369676E 		.ascii	"signed char\000"
 3270      65642063 
 3270      68617200 
 3271              	.LASF4:
 3272 0046 5F5F7569 		.ascii	"__uint8_t\000"
 3272      6E74385F 
 3272      7400
 3273              	.LASF110:
 3274 0050 706F7274 		.ascii	"port_intctx\000"
 3274      5F696E74 
 3274      63747800 
 3275              	.LASF74:
 3276 005c 73797374 		.ascii	"system_debug_t\000"
 3276      656D5F64 
 3276      65627567 
 3276      5F7400
 3277              	.LASF160:
 3278 006b 706F7274 		.ascii	"port_lock\000"
 3278      5F6C6F63 
 3278      6B00
 3279              	.LASF139:
 3280 0075 63685F74 		.ascii	"ch_threadsize\000"
ARM GAS  C:\Users\USER\AppData\Local\Temp\cc5K3Chh.s 			page 59


 3280      68726561 
 3280      6473697A 
 3280      6500
 3281              	.LASF119:
 3282 0083 65786974 		.ascii	"exitcode\000"
 3282      636F6465 
 3282      00
 3283              	.LASF81:
 3284 008c 6D61696E 		.ascii	"mainthread\000"
 3284      74687265 
 3284      616400
 3285              	.LASF71:
 3286 0097 76697274 		.ascii	"virtual_timers_list_t\000"
 3286      75616C5F 
 3286      74696D65 
 3286      72735F6C 
 3286      6973745F 
 3287              	.LASF83:
 3288 00ad 43505549 		.ascii	"CPUID\000"
 3288      4400
 3289              	.LASF54:
 3290 00b3 63685F74 		.ascii	"ch_threads_queue\000"
 3290      68726561 
 3290      64735F71 
 3290      75657565 
 3290      00
 3291              	.LASF114:
 3292 00c4 66707363 		.ascii	"fpscr\000"
 3292      7200
 3293              	.LASF32:
 3294 00ca 705F7072 		.ascii	"p_prio\000"
 3294      696F00
 3295              	.LASF147:
 3296 00d1 63665F6F 		.ascii	"cf_off_flags\000"
 3296      66665F66 
 3296      6C616773 
 3296      00
 3297              	.LASF48:
 3298 00de 705F6D70 		.ascii	"p_mpool\000"
 3298      6F6F6C00 
 3299              	.LASF13:
 3300 00e6 6C6F6E67 		.ascii	"long long unsigned int\000"
 3300      206C6F6E 
 3300      6720756E 
 3300      7369676E 
 3300      65642069 
 3301              	.LASF129:
 3302 00fd 6D5F7175 		.ascii	"m_queue\000"
 3302      65756500 
 3303              	.LASF95:
 3304 0105 49534152 		.ascii	"ISAR\000"
 3304      00
 3305              	.LASF80:
 3306 010a 76746C69 		.ascii	"vtlist\000"
 3306      737400
 3307              	.LASF159:
 3308 0111 706F7274 		.ascii	"port_unlock\000"
ARM GAS  C:\Users\USER\AppData\Local\Temp\cc5K3Chh.s 			page 60


 3308      5F756E6C 
 3308      6F636B00 
 3309              	.LASF23:
 3310 011d 74736C69 		.ascii	"tslices_t\000"
 3310      6365735F 
 3310      7400
 3311              	.LASF78:
 3312 0127 63685F73 		.ascii	"ch_system\000"
 3312      79737465 
 3312      6D00
 3313              	.LASF8:
 3314 0131 6C6F6E67 		.ascii	"long int\000"
 3314      20696E74 
 3314      00
 3315              	.LASF21:
 3316 013a 74737461 		.ascii	"tstate_t\000"
 3316      74655F74 
 3316      00
 3317              	.LASF151:
 3318 0143 63686465 		.ascii	"chdebug_t\000"
 3318      6275675F 
 3318      7400
 3319              	.LASF171:
 3320 014d 63685363 		.ascii	"chSchIsPreemptionRequired\000"
 3320      68497350 
 3320      7265656D 
 3320      7074696F 
 3320      6E526571 
 3321              	.LASF34:
 3322 0167 705F6E65 		.ascii	"p_newer\000"
 3322      77657200 
 3323              	.LASF126:
 3324 016f 735F7175 		.ascii	"s_queue\000"
 3324      65756500 
 3325              	.LASF92:
 3326 0177 42464152 		.ascii	"BFAR\000"
 3326      00
 3327              	.LASF93:
 3328 017c 41465352 		.ascii	"AFSR\000"
 3328      00
 3329              	.LASF60:
 3330 0181 725F6E65 		.ascii	"r_newer\000"
 3330      77657200 
 3331              	.LASF107:
 3332 0189 72656761 		.ascii	"regarm_t\000"
 3332      726D5F74 
 3332      00
 3333              	.LASF67:
 3334 0192 76745F70 		.ascii	"vt_prev\000"
 3334      72657600 
 3335              	.LASF168:
 3336 019a 474E5520 		.ascii	"GNU C99 8.2.1 20181213 (release) [gcc-8-branch revi"
 3336      43393920 
 3336      382E322E 
 3336      31203230 
 3336      31383132 
 3337 01cd 73696F6E 		.ascii	"sion 267074] -mcpu=cortex-m4 -mfloat-abi=hard -mfpu"
ARM GAS  C:\Users\USER\AppData\Local\Temp\cc5K3Chh.s 			page 61


 3337      20323637 
 3337      3037345D 
 3337      202D6D63 
 3337      70753D63 
 3338 0200 3D667076 		.ascii	"=fpv4-sp-d16 -mno-thumb-interwork -mthumb -march=ar"
 3338      342D7370 
 3338      2D643136 
 3338      202D6D6E 
 3338      6F2D7468 
 3339 0233 6D763765 		.ascii	"mv7e-m+fp -ggdb -O2 -std=gnu99 -fomit-frame-pointer"
 3339      2D6D2B66 
 3339      70202D67 
 3339      67646220 
 3339      2D4F3220 
 3340 0266 202D6661 		.ascii	" -falign-functions=16 -ffunction-sections -fdata-se"
 3340      6C69676E 
 3340      2D66756E 
 3340      6374696F 
 3340      6E733D31 
 3341 0299 6374696F 		.ascii	"ctions -fno-common -fsingle-precision-constant\000"
 3341      6E73202D 
 3341      666E6F2D 
 3341      636F6D6D 
 3341      6F6E202D 
 3342              	.LASF98:
 3343 02c8 5343425F 		.ascii	"SCB_Type\000"
 3343      54797065 
 3343      00
 3344              	.LASF115:
 3345 02d1 72657365 		.ascii	"reserved\000"
 3345      72766564 
 3345      00
 3346              	.LASF11:
 3347 02da 6C6F6E67 		.ascii	"long long int\000"
 3347      206C6F6E 
 3347      6720696E 
 3347      7400
 3348              	.LASF163:
 3349 02e8 76616C75 		.ascii	"value\000"
 3349      6500
 3350              	.LASF82:
 3351 02ee 69646C65 		.ascii	"idle_thread_wa\000"
 3351      5F746872 
 3351      6561645F 
 3351      776100
 3352              	.LASF27:
 3353 02fd 636E745F 		.ascii	"cnt_t\000"
 3353      7400
 3354              	.LASF104:
 3355 0303 4650555F 		.ascii	"FPU_Type\000"
 3355      54797065 
 3355      00
 3356              	.LASF0:
 3357 030c 756E7369 		.ascii	"unsigned int\000"
 3357      676E6564 
 3357      20696E74 
 3357      00
ARM GAS  C:\Users\USER\AppData\Local\Temp\cc5K3Chh.s 			page 62


 3358              	.LASF162:
 3359 0319 5F5F7365 		.ascii	"__set_PSP\000"
 3359      745F5053 
 3359      5000
 3360              	.LASF66:
 3361 0323 76745F6E 		.ascii	"vt_next\000"
 3361      65787400 
 3362              	.LASF15:
 3363 032b 75696E74 		.ascii	"uint16_t\000"
 3363      31365F74 
 3363      00
 3364              	.LASF106:
 3365 0334 53797374 		.ascii	"SystemCoreClock\000"
 3365      656D436F 
 3365      7265436C 
 3365      6F636B00 
 3366              	.LASF41:
 3367 0344 705F7469 		.ascii	"p_time\000"
 3367      6D6500
 3368              	.LASF122:
 3369 034b 77747365 		.ascii	"wtsemp\000"
 3369      6D7000
 3370              	.LASF73:
 3371 0352 76745F73 		.ascii	"vt_systime\000"
 3371      79737469 
 3371      6D6500
 3372              	.LASF143:
 3373 035d 63665F6F 		.ascii	"cf_off_older\000"
 3373      66665F6F 
 3373      6C646572 
 3373      00
 3374              	.LASF68:
 3375 036a 76745F64 		.ascii	"vt_delta\000"
 3375      656C7461 
 3375      00
 3376              	.LASF43:
 3377 0373 705F6D73 		.ascii	"p_msgqueue\000"
 3377      67717565 
 3377      756500
 3378              	.LASF152:
 3379 037e 63685F64 		.ascii	"ch_debug\000"
 3379      65627567 
 3379      00
 3380              	.LASF85:
 3381 0387 56544F52 		.ascii	"VTOR\000"
 3381      00
 3382              	.LASF127:
 3383 038c 735F636E 		.ascii	"s_cnt\000"
 3383      7400
 3384              	.LASF51:
 3385 0392 63685F74 		.ascii	"ch_thread\000"
 3385      68726561 
 3385      6400
 3386              	.LASF84:
 3387 039c 49435352 		.ascii	"ICSR\000"
 3387      00
 3388              	.LASF25:
ARM GAS  C:\Users\USER\AppData\Local\Temp\cc5K3Chh.s 			page 63


 3389 03a1 6D73675F 		.ascii	"msg_t\000"
 3389      7400
 3390              	.LASF86:
 3391 03a7 41495243 		.ascii	"AIRCR\000"
 3391      5200
 3392              	.LASF90:
 3393 03ad 44465352 		.ascii	"DFSR\000"
 3393      00
 3394              	.LASF91:
 3395 03b2 4D4D4641 		.ascii	"MMFAR\000"
 3395      5200
 3396              	.LASF155:
 3397 03b8 5F706F72 		.ascii	"_port_irq_epilogue\000"
 3397      745F6972 
 3397      715F6570 
 3397      696C6F67 
 3397      756500
 3398              	.LASF150:
 3399 03cb 63665F6F 		.ascii	"cf_off_time\000"
 3399      66665F74 
 3399      696D6500 
 3400              	.LASF56:
 3401 03d7 63685F72 		.ascii	"ch_ready_list\000"
 3401      65616479 
 3401      5F6C6973 
 3401      7400
 3402              	.LASF26:
 3403 03e5 6576656E 		.ascii	"eventmask_t\000"
 3403      746D6173 
 3403      6B5F7400 
 3404              	.LASF164:
 3405 03f1 746F704F 		.ascii	"topOfProcStack\000"
 3405      6650726F 
 3405      63537461 
 3405      636B00
 3406              	.LASF7:
 3407 0400 5F5F696E 		.ascii	"__int32_t\000"
 3407      7433325F 
 3407      7400
 3408              	.LASF108:
 3409 040a 73746B61 		.ascii	"stkalign_t\000"
 3409      6C69676E 
 3409      5F7400
 3410              	.LASF50:
 3411 0415 74687265 		.ascii	"threads_list_t\000"
 3411      6164735F 
 3411      6C697374 
 3411      5F7400
 3412              	.LASF134:
 3413 0424 63685F7A 		.ascii	"ch_zero\000"
 3413      65726F00 
 3414              	.LASF148:
 3415 042c 63665F6F 		.ascii	"cf_off_refs\000"
 3415      66665F72 
 3415      65667300 
 3416              	.LASF42:
 3417 0438 705F7761 		.ascii	"p_waiting\000"
ARM GAS  C:\Users\USER\AppData\Local\Temp\cc5K3Chh.s 			page 64


 3417      6974696E 
 3417      6700
 3418              	.LASF88:
 3419 0442 43465352 		.ascii	"CFSR\000"
 3419      00
 3420              	.LASF19:
 3421 0447 7274636E 		.ascii	"rtcnt_t\000"
 3421      745F7400 
 3422              	.LASF72:
 3423 044f 63685F76 		.ascii	"ch_virtual_timers_list\000"
 3423      69727475 
 3423      616C5F74 
 3423      696D6572 
 3423      735F6C69 
 3424              	.LASF138:
 3425 0466 63685F74 		.ascii	"ch_timesize\000"
 3425      696D6573 
 3425      697A6500 
 3426              	.LASF144:
 3427 0472 63665F6F 		.ascii	"cf_off_name\000"
 3427      66665F6E 
 3427      616D6500 
 3428              	.LASF35:
 3429 047e 705F6F6C 		.ascii	"p_older\000"
 3429      64657200 
 3430              	.LASF59:
 3431 0486 725F6374 		.ascii	"r_ctx\000"
 3431      7800
 3432              	.LASF33:
 3433 048c 705F6374 		.ascii	"p_ctx\000"
 3433      7800
 3434              	.LASF111:
 3435 0492 706F7274 		.ascii	"port_extctx\000"
 3435      5F657874 
 3435      63747800 
 3436              	.LASF117:
 3437 049e 746D5F63 		.ascii	"tm_calibration_t\000"
 3437      616C6962 
 3437      72617469 
 3437      6F6E5F74 
 3437      00
 3438              	.LASF62:
 3439 04af 725F6375 		.ascii	"r_current\000"
 3439      7272656E 
 3439      7400
 3440              	.LASF61:
 3441 04b9 725F6F6C 		.ascii	"r_older\000"
 3441      64657200 
 3442              	.LASF12:
 3443 04c1 5F5F7569 		.ascii	"__uint64_t\000"
 3443      6E743634 
 3443      5F7400
 3444              	.LASF102:
 3445 04cc 4D564652 		.ascii	"MVFR0\000"
 3445      3000
 3446              	.LASF103:
 3447 04d2 4D564652 		.ascii	"MVFR1\000"
ARM GAS  C:\Users\USER\AppData\Local\Temp\cc5K3Chh.s 			page 65


 3447      3100
 3448              	.LASF22:
 3449 04d8 74726566 		.ascii	"trefs_t\000"
 3449      735F7400 
 3450              	.LASF96:
 3451 04e0 52455345 		.ascii	"RESERVED0\000"
 3451      52564544 
 3451      3000
 3452              	.LASF137:
 3453 04ea 63685F70 		.ascii	"ch_ptrsize\000"
 3453      74727369 
 3453      7A6500
 3454              	.LASF154:
 3455 04f5 63747870 		.ascii	"ctxp\000"
 3455      00
 3456              	.LASF64:
 3457 04fa 76697274 		.ascii	"virtual_timer_t\000"
 3457      75616C5F 
 3457      74696D65 
 3457      725F7400 
 3458              	.LASF31:
 3459 050a 705F7072 		.ascii	"p_prev\000"
 3459      657600
 3460              	.LASF24:
 3461 0511 74707269 		.ascii	"tprio_t\000"
 3461      6F5F7400 
 3462              	.LASF165:
 3463 0519 5F5F6765 		.ascii	"__get_FPSCR\000"
 3463      745F4650 
 3463      53435200 
 3464              	.LASF75:
 3465 0525 63685F73 		.ascii	"ch_system_debug\000"
 3465      79737465 
 3465      6D5F6465 
 3465      62756700 
 3466              	.LASF16:
 3467 0535 696E7433 		.ascii	"int32_t\000"
 3467      325F7400 
 3468              	.LASF2:
 3469 053d 756E7369 		.ascii	"unsigned char\000"
 3469      676E6564 
 3469      20636861 
 3469      7200
 3470              	.LASF87:
 3471 054b 53484353 		.ascii	"SHCSR\000"
 3471      5200
 3472              	.LASF105:
 3473 0551 49544D5F 		.ascii	"ITM_RxBuffer\000"
 3473      52784275 
 3473      66666572 
 3473      00
 3474              	.LASF46:
 3475 055e 705F6D74 		.ascii	"p_mtxlist\000"
 3475      786C6973 
 3475      7400
 3476              	.LASF3:
 3477 0568 73686F72 		.ascii	"short int\000"
ARM GAS  C:\Users\USER\AppData\Local\Temp\cc5K3Chh.s 			page 66


 3477      7420696E 
 3477      7400
 3478              	.LASF37:
 3479 0572 705F7374 		.ascii	"p_state\000"
 3479      61746500 
 3480              	.LASF40:
 3481 057a 705F7072 		.ascii	"p_preempt\000"
 3481      65656D70 
 3481      7400
 3482              	.LASF113:
 3483 0584 78707372 		.ascii	"xpsr\000"
 3483      00
 3484              	.LASF58:
 3485 0589 725F7072 		.ascii	"r_prio\000"
 3485      696F00
 3486              	.LASF124:
 3487 0590 65776D61 		.ascii	"ewmask\000"
 3487      736B00
 3488              	.LASF30:
 3489 0597 705F6E65 		.ascii	"p_next\000"
 3489      787400
 3490              	.LASF20:
 3491 059e 746D6F64 		.ascii	"tmode_t\000"
 3491      655F7400 
 3492              	.LASF149:
 3493 05a6 63665F6F 		.ascii	"cf_off_preempt\000"
 3493      66665F70 
 3493      7265656D 
 3493      707400
 3494              	.LASF38:
 3495 05b5 705F666C 		.ascii	"p_flags\000"
 3495      61677300 
 3496              	.LASF6:
 3497 05bd 73686F72 		.ascii	"short unsigned int\000"
 3497      7420756E 
 3497      7369676E 
 3497      65642069 
 3497      6E7400
 3498              	.LASF112:
 3499 05d0 6C725F74 		.ascii	"lr_thd\000"
 3499      686400
 3500              	.LASF100:
 3501 05d7 46504341 		.ascii	"FPCAR\000"
 3501      5200
 3502              	.LASF156:
 3503 05dd 5356435F 		.ascii	"SVC_Handler\000"
 3503      48616E64 
 3503      6C657200 
 3504              	.LASF99:
 3505 05e9 46504343 		.ascii	"FPCCR\000"
 3505      5200
 3506              	.LASF53:
 3507 05ef 74687265 		.ascii	"threads_queue_t\000"
 3507      6164735F 
 3507      71756575 
 3507      655F7400 
 3508              	.LASF65:
ARM GAS  C:\Users\USER\AppData\Local\Temp\cc5K3Chh.s 			page 67


 3509 05ff 63685F76 		.ascii	"ch_virtual_timer\000"
 3509      69727475 
 3509      616C5F74 
 3509      696D6572 
 3509      00
 3510              	.LASF142:
 3511 0610 63665F6F 		.ascii	"cf_off_newer\000"
 3511      66665F6E 
 3511      65776572 
 3511      00
 3512              	.LASF125:
 3513 061d 63685F73 		.ascii	"ch_semaphore\000"
 3513      656D6170 
 3513      686F7265 
 3513      00
 3514              	.LASF45:
 3515 062a 705F6570 		.ascii	"p_epending\000"
 3515      656E6469 
 3515      6E6700
 3516              	.LASF17:
 3517 0635 75696E74 		.ascii	"uint32_t\000"
 3517      33325F74 
 3517      00
 3518              	.LASF140:
 3519 063e 63665F6F 		.ascii	"cf_off_prio\000"
 3519      66665F70 
 3519      72696F00 
 3520              	.LASF57:
 3521 064a 725F7175 		.ascii	"r_queue\000"
 3521      65756500 
 3522              	.LASF52:
 3523 0652 63685F74 		.ascii	"ch_threads_list\000"
 3523      68726561 
 3523      64735F6C 
 3523      69737400 
 3524              	.LASF135:
 3525 0662 63685F73 		.ascii	"ch_size\000"
 3525      697A6500 
 3526              	.LASF10:
 3527 066a 6C6F6E67 		.ascii	"long unsigned int\000"
 3527      20756E73 
 3527      69676E65 
 3527      6420696E 
 3527      7400
 3528              	.LASF132:
 3529 067c 63686172 		.ascii	"char\000"
 3529      00
 3530              	.LASF123:
 3531 0681 77746D74 		.ascii	"wtmtxp\000"
 3531      787000
 3532              	.LASF5:
 3533 0688 5F5F7569 		.ascii	"__uint16_t\000"
 3533      6E743136 
 3533      5F7400
 3534              	.LASF157:
 3535 0693 706F7274 		.ascii	"port_unlock_from_isr\000"
 3535      5F756E6C 
ARM GAS  C:\Users\USER\AppData\Local\Temp\cc5K3Chh.s 			page 68


 3535      6F636B5F 
 3535      66726F6D 
 3535      5F697372 
 3536              	.LASF29:
 3537 06a8 74687265 		.ascii	"thread_t\000"
 3537      61645F74 
 3537      00
 3538              	.LASF131:
 3539 06b1 6D5F6E65 		.ascii	"m_next\000"
 3539      787400
 3540              	.LASF28:
 3541 06b8 73797374 		.ascii	"systime_t\000"
 3541      696D655F 
 3541      7400
 3542              	.LASF47:
 3543 06c2 705F7265 		.ascii	"p_realprio\000"
 3543      616C7072 
 3543      696F00
 3544              	.LASF63:
 3545 06cd 76746675 		.ascii	"vtfunc_t\000"
 3545      6E635F74 
 3545      00
 3546              	.LASF9:
 3547 06d6 5F5F7569 		.ascii	"__uint32_t\000"
 3547      6E743332 
 3547      5F7400
 3548              	.LASF161:
 3549 06e1 5F5F7365 		.ascii	"__set_BASEPRI\000"
 3549      745F4241 
 3549      53455052 
 3549      4900
 3550              	.LASF76:
 3551 06ef 70616E69 		.ascii	"panic_msg\000"
 3551      635F6D73 
 3551      6700
 3552              	.LASF116:
 3553 06f9 6F666673 		.ascii	"offset\000"
 3553      657400
 3554              	.LASF109:
 3555 0700 636F6E74 		.ascii	"context\000"
 3555      65787400 
 3556              	.LASF146:
 3557 0708 63665F6F 		.ascii	"cf_off_state\000"
 3557      66665F73 
 3557      74617465 
 3557      00
 3558              	.LASF44:
 3559 0715 705F6D73 		.ascii	"p_msg\000"
 3559      6700
 3560              	.LASF158:
 3561 071b 706F7274 		.ascii	"port_lock_from_isr\000"
 3561      5F6C6F63 
 3561      6B5F6672 
 3561      6F6D5F69 
 3561      737200
 3562              	.LASF166:
 3563 072e 5F5F6765 		.ascii	"__get_PSP\000"
ARM GAS  C:\Users\USER\AppData\Local\Temp\cc5K3Chh.s 			page 69


 3563      745F5053 
 3563      5000
 3564              	.LASF70:
 3565 0738 76745F70 		.ascii	"vt_par\000"
 3565      617200
 3566              	.LASF169:
 3567 073f 7372632F 		.ascii	"src/ChibiOS_3.0.2/os/rt/ports/ARMCMx/chcore_v7m.c\000"
 3567      43686962 
 3567      694F535F 
 3567      332E302E 
 3567      322F6F73 
 3568              	.LASF141:
 3569 0771 63665F6F 		.ascii	"cf_off_ctx\000"
 3569      66665F63 
 3569      747800
 3570              	.LASF128:
 3571 077c 63685F6D 		.ascii	"ch_mutex\000"
 3571      75746578 
 3571      00
 3572              	.LASF39:
 3573 0785 705F7265 		.ascii	"p_refs\000"
 3573      667300
 3574              	.LASF77:
 3575 078c 63685F73 		.ascii	"ch_system_t\000"
 3575      79737465 
 3575      6D5F7400 
 3576              	.LASF170:
 3577 0798 443A5C67 		.ascii	"D:\\git\\oroca_bldc_dev\\oroca_bldc_FW\\oroca_bldc_"
 3577      69745C6F 
 3577      726F6361 
 3577      5F626C64 
 3577      635F6465 
 3578 07c7 63686962 		.ascii	"chibios\000"
 3578      696F7300 
 3579              	.LASF94:
 3580 07cf 4D4D4652 		.ascii	"MMFR\000"
 3580      00
 3581              	.LASF79:
 3582 07d4 726C6973 		.ascii	"rlist\000"
 3582      7400
 3583              	.LASF14:
 3584 07da 75696E74 		.ascii	"uint8_t\000"
 3584      385F7400 
 3585              	.LASF49:
 3586 07e2 74687265 		.ascii	"thread_reference_t\000"
 3586      61645F72 
 3586      65666572 
 3586      656E6365 
 3586      5F7400
 3587              	.LASF120:
 3588 07f5 77746F62 		.ascii	"wtobjp\000"
 3588      6A7000
 3589              	.LASF36:
 3590 07fc 705F6E61 		.ascii	"p_name\000"
 3590      6D6500
 3591              	.LASF136:
 3592 0803 63685F76 		.ascii	"ch_version\000"
ARM GAS  C:\Users\USER\AppData\Local\Temp\cc5K3Chh.s 			page 70


 3592      65727369 
 3592      6F6E00
 3593              	.LASF97:
 3594 080e 43504143 		.ascii	"CPACR\000"
 3594      5200
 3595              	.LASF89:
 3596 0814 48465352 		.ascii	"HFSR\000"
 3596      00
 3597              	.LASF153:
 3598 0819 6D757465 		.ascii	"mutex_t\000"
 3598      785F7400 
 3599              	.LASF130:
 3600 0821 6D5F6F77 		.ascii	"m_owner\000"
 3600      6E657200 
 3601              	.LASF167:
 3602 0829 72657375 		.ascii	"result\000"
 3602      6C7400
 3603              	.LASF133:
 3604 0830 63685F69 		.ascii	"ch_identifier\000"
 3604      64656E74 
 3604      69666965 
 3604      7200
 3605              	.LASF69:
 3606 083e 76745F66 		.ascii	"vt_func\000"
 3606      756E6300 
 3607              		.ident	"GCC: (GNU Tools for Arm Embedded Processors 8-2018-q4-major) 8.2.1 20181213 (release) [gcc
ARM GAS  C:\Users\USER\AppData\Local\Temp\cc5K3Chh.s 			page 71


DEFINED SYMBOLS
                            *ABS*:00000000 chcore_v7m.c
C:\Users\USER\AppData\Local\Temp\cc5K3Chh.s:18     .text.SVC_Handler:00000000 $t
C:\Users\USER\AppData\Local\Temp\cc5K3Chh.s:27     .text.SVC_Handler:00000000 SVC_Handler
C:\Users\USER\AppData\Local\Temp\cc5K3Chh.s:143    .text.SVC_Handler:00000028 $d
C:\Users\USER\AppData\Local\Temp\cc5K3Chh.s:148    .text._port_irq_epilogue:00000000 $t
C:\Users\USER\AppData\Local\Temp\cc5K3Chh.s:156    .text._port_irq_epilogue:00000000 _port_irq_epilogue
C:\Users\USER\AppData\Local\Temp\cc5K3Chh.s:375    .text._port_irq_epilogue:00000050 $d

UNDEFINED SYMBOLS
chSchIsPreemptionRequired
_port_switch_from_isr
_port_exit_from_isr
