ARM GAS  C:\Users\USER\AppData\Local\Temp\cc4rQ8kt.s 			page 1


   1              		.cpu cortex-m4
   2              		.eabi_attribute 27, 1
   3              		.eabi_attribute 28, 1
   4              		.eabi_attribute 20, 1
   5              		.eabi_attribute 21, 1
   6              		.eabi_attribute 23, 3
   7              		.eabi_attribute 24, 1
   8              		.eabi_attribute 25, 1
   9              		.eabi_attribute 26, 1
  10              		.eabi_attribute 30, 2
  11              		.eabi_attribute 34, 1
  12              		.eabi_attribute 18, 4
  13              		.file	"chcond.c"
  14              		.text
  15              	.Ltext0:
  16              		.cfi_sections	.debug_frame
  17              		.section	.text.chCondObjectInit,"ax",%progbits
  18              		.align	1
  19              		.p2align 4,,15
  20              		.global	chCondObjectInit
  21              		.arch armv7e-m
  22              		.syntax unified
  23              		.thumb
  24              		.thumb_func
  25              		.fpu fpv4-sp-d16
  26              		.type	chCondObjectInit, %function
  27              	chCondObjectInit:
  28              	.LVL0:
  29              	.LFB219:
  30              		.file 1 "src/ChibiOS_3.0.2/os/rt/src/chcond.c"
  31              		.loc 1 75 49 view -0
  32              		.cfi_startproc
  33              		@ args = 0, pretend = 0, frame = 0
  34              		@ frame_needed = 0, uses_anonymous_args = 0
  35              		@ link register save eliminated.
  36              		.loc 1 77 3 view .LVU1
  37              		.loc 1 77 3 view .LVU2
  38              		.loc 1 79 3 view .LVU3
  39              	.LBB89:
  40              	.LBI89:
  41              		.file 2 "src/ChibiOS_3.0.2/os/rt/include/chschd.h"
  42              		.loc 2 602 20 view .LVU4
  43              	.LBB90:
  44              		.loc 2 604 3 view .LVU5
  45              		.loc 2 605 15 is_stmt 0 view .LVU6
  46 0000 C0E90000 		strd	r0, r0, [r0]
  47              	.LVL1:
  48              		.loc 2 605 15 view .LVU7
  49              	.LBE90:
  50              	.LBE89:
  51              		.loc 1 80 1 view .LVU8
  52 0004 7047     		bx	lr
  53              		.cfi_endproc
  54              	.LFE219:
  55              		.size	chCondObjectInit, .-chCondObjectInit
  56 0006 00BF     		.section	.text.chCondSignal,"ax",%progbits
  57              		.align	1
ARM GAS  C:\Users\USER\AppData\Local\Temp\cc4rQ8kt.s 			page 2


  58              		.p2align 4,,15
  59              		.global	chCondSignal
  60              		.syntax unified
  61              		.thumb
  62              		.thumb_func
  63              		.fpu fpv4-sp-d16
  64              		.type	chCondSignal, %function
  65              	chCondSignal:
  66              	.LVL2:
  67              	.LFB220:
  68              		.loc 1 89 45 is_stmt 1 view -0
  69              		.cfi_startproc
  70              		@ args = 0, pretend = 0, frame = 0
  71              		@ frame_needed = 0, uses_anonymous_args = 0
  72              		.loc 1 91 3 view .LVU10
  73              		.loc 1 91 3 view .LVU11
  74              		.loc 1 93 3 view .LVU12
  75              	.LBB91:
  76              	.LBI91:
  77              		.file 3 "src/ChibiOS_3.0.2/os/rt/include/chsys.h"
  78              		.loc 3 346 20 view .LVU13
  79              	.LBE91:
  80              		.loc 3 348 3 view .LVU14
  81              	.LBB99:
  82              	.LBB92:
  83              	.LBI92:
  84              		.file 4 "src/ChibiOS_3.0.2/os/rt/ports/ARMCMx/chcore_v7m.h"
  85              		.loc 4 444 20 view .LVU15
  86              	.LBE92:
  87              	.LBE99:
  88              		.loc 4 447 3 view .LVU16
  89              	.LBB100:
  90              	.LBB97:
  91              	.LBB93:
  92              	.LBI93:
  93              		.file 5 "src/ChibiOS_3.0.2/os/ext/CMSIS/include/core_cmFunc.h"
  94              		.loc 5 544 57 view .LVU17
  95              	.LBB94:
  96              		.loc 5 546 3 view .LVU18
  97              	.LBE94:
  98              	.LBE93:
  99              	.LBE97:
 100              	.LBE100:
 101              		.loc 1 89 45 is_stmt 0 view .LVU19
 102 0000 08B5     		push	{r3, lr}
 103              		.cfi_def_cfa_offset 8
 104              		.cfi_offset 3, -8
 105              		.cfi_offset 14, -4
 106              	.LBB101:
 107              	.LBB98:
 108              	.LBB96:
 109              	.LBB95:
 110              		.loc 5 546 3 view .LVU20
 111 0002 2023     		movs	r3, #32
 112              		.syntax unified
 113              	@ 546 "src/ChibiOS_3.0.2/os/ext/CMSIS/include/core_cmFunc.h" 1
 114 0004 83F31188 		MSR basepri, r3
ARM GAS  C:\Users\USER\AppData\Local\Temp\cc4rQ8kt.s 			page 3


 115              	@ 0 "" 2
 116              	.LVL3:
 117              		.loc 5 546 3 view .LVU21
 118              		.thumb
 119              		.syntax unified
 120              	.LBE95:
 121              	.LBE96:
 122              	.LBE98:
 123              	.LBE101:
 124              		.loc 3 349 34 is_stmt 1 view .LVU22
 125              		.loc 3 350 20 view .LVU23
 126              		.loc 1 94 3 view .LVU24
 127              	.LBB102:
 128              	.LBI102:
 129              		.loc 2 629 20 view .LVU25
 130              	.LBB103:
 131              		.loc 2 631 3 view .LVU26
 132              		.loc 2 631 20 is_stmt 0 view .LVU27
 133 0008 0268     		ldr	r2, [r0]
 134              	.LVL4:
 135              		.loc 2 631 20 view .LVU28
 136              	.LBE103:
 137              	.LBE102:
 138              		.loc 1 94 6 view .LVU29
 139 000a 9042     		cmp	r0, r2
 140 000c 07D0     		beq	.L4
 141              	.LBB104:
 142              	.LBB105:
 143              		.loc 2 674 19 view .LVU30
 144 000e 1168     		ldr	r1, [r2]
 145              		.loc 2 674 15 view .LVU31
 146 0010 0160     		str	r1, [r0]
 147 0012 0346     		mov	r3, r0
 148              	.LBE105:
 149              	.LBE104:
 150              		.loc 1 95 5 is_stmt 1 view .LVU32
 151              	.LVL5:
 152              	.LBB107:
 153              	.LBI104:
 154              		.loc 2 671 25 view .LVU33
 155              	.LBB106:
 156              		.loc 2 672 3 view .LVU34
 157              		.loc 2 674 3 view .LVU35
 158              		.loc 2 675 3 view .LVU36
 159              		.loc 2 675 23 is_stmt 0 view .LVU37
 160 0014 4B60     		str	r3, [r1, #4]
 161              		.loc 2 677 3 is_stmt 1 view .LVU38
 162              	.LVL6:
 163              		.loc 2 677 3 is_stmt 0 view .LVU39
 164              	.LBE106:
 165              	.LBE107:
 166              		.loc 1 95 5 view .LVU40
 167 0016 1046     		mov	r0, r2
 168              	.LVL7:
 169              		.loc 1 95 5 view .LVU41
 170 0018 0021     		movs	r1, #0
 171 001a FFF7FEFF 		bl	chSchWakeupS
ARM GAS  C:\Users\USER\AppData\Local\Temp\cc4rQ8kt.s 			page 4


 172              	.LVL8:
 173              	.L4:
 174              		.loc 1 97 3 is_stmt 1 view .LVU42
 175              	.LBB108:
 176              	.LBI108:
 177              		.loc 3 358 20 view .LVU43
 178              	.LBB109:
 179              		.loc 3 360 22 view .LVU44
 180              		.loc 3 361 33 view .LVU45
 181              		.loc 3 367 3 view .LVU46
 182              		.loc 3 367 3 view .LVU47
 183              		.loc 3 371 3 view .LVU48
 184              	.LBB110:
 185              	.LBI110:
 186              		.loc 4 458 20 view .LVU49
 187              	.LBE110:
 188              	.LBE109:
 189              	.LBE108:
 190              		.loc 4 461 3 view .LVU50
 191              	.LBB115:
 192              	.LBB114:
 193              	.LBB113:
 194              	.LBB111:
 195              	.LBI111:
 196              		.loc 5 544 57 view .LVU51
 197              	.LBB112:
 198              		.loc 5 546 3 view .LVU52
 199 001e 0023     		movs	r3, #0
 200              		.syntax unified
 201              	@ 546 "src/ChibiOS_3.0.2/os/ext/CMSIS/include/core_cmFunc.h" 1
 202 0020 83F31188 		MSR basepri, r3
 203              	@ 0 "" 2
 204              	.LVL9:
 205              		.loc 5 546 3 is_stmt 0 view .LVU53
 206              		.thumb
 207              		.syntax unified
 208              	.LBE112:
 209              	.LBE111:
 210              	.LBE113:
 211              	.LBE114:
 212              	.LBE115:
 213              		.loc 1 98 1 view .LVU54
 214 0024 08BD     		pop	{r3, pc}
 215              		.cfi_endproc
 216              	.LFE220:
 217              		.size	chCondSignal, .-chCondSignal
 218 0026 00BF     		.section	.text.chCondSignalI,"ax",%progbits
 219              		.align	1
 220              		.p2align 4,,15
 221              		.global	chCondSignalI
 222              		.syntax unified
 223              		.thumb
 224              		.thumb_func
 225              		.fpu fpv4-sp-d16
 226              		.type	chCondSignalI, %function
 227              	chCondSignalI:
 228              	.LVL10:
ARM GAS  C:\Users\USER\AppData\Local\Temp\cc4rQ8kt.s 			page 5


 229              	.LFB221:
 230              		.loc 1 111 46 is_stmt 1 view -0
 231              		.cfi_startproc
 232              		@ args = 0, pretend = 0, frame = 0
 233              		@ frame_needed = 0, uses_anonymous_args = 0
 234              		@ link register save eliminated.
 235              		.loc 1 113 21 view .LVU56
 236              		.loc 1 114 3 view .LVU57
 237              		.loc 1 114 3 view .LVU58
 238              		.loc 1 116 3 view .LVU59
 239              	.LBB116:
 240              	.LBI116:
 241              		.loc 2 629 20 view .LVU60
 242              	.LBB117:
 243              		.loc 2 631 3 view .LVU61
 244              		.loc 2 631 20 is_stmt 0 view .LVU62
 245 0000 0368     		ldr	r3, [r0]
 246              	.LVL11:
 247              		.loc 2 631 20 view .LVU63
 248              	.LBE117:
 249              	.LBE116:
 250              		.loc 1 116 6 view .LVU64
 251 0002 9842     		cmp	r0, r3
 252 0004 07D0     		beq	.L6
 253              	.LBB118:
 254              		.loc 1 117 5 is_stmt 1 view .LVU65
 255              	.LVL12:
 256              	.LBB119:
 257              	.LBI119:
 258              		.loc 2 671 25 view .LVU66
 259              	.LBB120:
 260              		.loc 2 672 3 view .LVU67
 261              		.loc 2 674 3 view .LVU68
 262              		.loc 2 674 19 is_stmt 0 view .LVU69
 263 0006 1A68     		ldr	r2, [r3]
 264              		.loc 2 674 15 view .LVU70
 265 0008 0260     		str	r2, [r0]
 266              		.loc 2 675 3 is_stmt 1 view .LVU71
 267              	.LBE120:
 268              	.LBE119:
 269              		.loc 1 118 20 is_stmt 0 view .LVU72
 270 000a 0021     		movs	r1, #0
 271              	.LBB122:
 272              	.LBB121:
 273              		.loc 2 675 23 view .LVU73
 274 000c 5060     		str	r0, [r2, #4]
 275              		.loc 2 677 3 is_stmt 1 view .LVU74
 276              	.LVL13:
 277              		.loc 2 677 3 is_stmt 0 view .LVU75
 278              	.LBE121:
 279              	.LBE122:
 280              		.loc 1 118 5 is_stmt 1 view .LVU76
 281              		.loc 1 119 12 is_stmt 0 view .LVU77
 282 000e 1846     		mov	r0, r3
 283              	.LVL14:
 284              		.loc 1 118 20 view .LVU78
 285 0010 5962     		str	r1, [r3, #36]
ARM GAS  C:\Users\USER\AppData\Local\Temp\cc4rQ8kt.s 			page 6


 286              		.loc 1 119 5 is_stmt 1 view .LVU79
 287              		.loc 1 119 12 is_stmt 0 view .LVU80
 288 0012 FFF7FEBF 		b	chSchReadyI
 289              	.LVL15:
 290              	.L6:
 291              		.loc 1 119 12 view .LVU81
 292              	.LBE118:
 293              		.loc 1 121 1 view .LVU82
 294 0016 7047     		bx	lr
 295              		.cfi_endproc
 296              	.LFE221:
 297              		.size	chCondSignalI, .-chCondSignalI
 298              		.section	.text.chCondBroadcast,"ax",%progbits
 299              		.align	1
 300              		.p2align 4,,15
 301              		.global	chCondBroadcast
 302              		.syntax unified
 303              		.thumb
 304              		.thumb_func
 305              		.fpu fpv4-sp-d16
 306              		.type	chCondBroadcast, %function
 307              	chCondBroadcast:
 308              	.LVL16:
 309              	.LFB222:
 310              		.loc 1 130 48 is_stmt 1 view -0
 311              		.cfi_startproc
 312              		@ args = 0, pretend = 0, frame = 0
 313              		@ frame_needed = 0, uses_anonymous_args = 0
 314              		.loc 1 132 3 view .LVU84
 315              	.LBB123:
 316              	.LBI123:
 317              		.loc 3 346 20 view .LVU85
 318              	.LBE123:
 319              		.loc 3 348 3 view .LVU86
 320              	.LBB131:
 321              	.LBB124:
 322              	.LBI124:
 323              		.loc 4 444 20 view .LVU87
 324              	.LBE124:
 325              	.LBE131:
 326              		.loc 4 447 3 view .LVU88
 327              	.LBB132:
 328              	.LBB129:
 329              	.LBB125:
 330              	.LBI125:
 331              		.loc 5 544 57 view .LVU89
 332              	.LBB126:
 333              		.loc 5 546 3 view .LVU90
 334              	.LBE126:
 335              	.LBE125:
 336              	.LBE129:
 337              	.LBE132:
 338              		.loc 1 130 48 is_stmt 0 view .LVU91
 339 0000 38B5     		push	{r3, r4, r5, lr}
 340              		.cfi_def_cfa_offset 16
 341              		.cfi_offset 3, -16
 342              		.cfi_offset 4, -12
ARM GAS  C:\Users\USER\AppData\Local\Temp\cc4rQ8kt.s 			page 7


 343              		.cfi_offset 5, -8
 344              		.cfi_offset 14, -4
 345              	.LBB133:
 346              	.LBB130:
 347              	.LBB128:
 348              	.LBB127:
 349              		.loc 5 546 3 view .LVU92
 350 0002 2023     		movs	r3, #32
 351              		.syntax unified
 352              	@ 546 "src/ChibiOS_3.0.2/os/ext/CMSIS/include/core_cmFunc.h" 1
 353 0004 83F31188 		MSR basepri, r3
 354              	@ 0 "" 2
 355              	.LVL17:
 356              		.loc 5 546 3 view .LVU93
 357              		.thumb
 358              		.syntax unified
 359              	.LBE127:
 360              	.LBE128:
 361              	.LBE130:
 362              	.LBE133:
 363              		.loc 3 349 34 is_stmt 1 view .LVU94
 364              		.loc 3 350 20 view .LVU95
 365              	.LBB134:
 366              	.LBB135:
 367              	.LBB136:
 368              	.LBI136:
 369              		.loc 2 629 20 view .LVU96
 370              	.LBB137:
 371              		.loc 2 631 3 view .LVU97
 372              		.loc 2 631 20 is_stmt 0 view .LVU98
 373 0008 0368     		ldr	r3, [r0]
 374              	.LVL18:
 375              		.loc 2 631 20 view .LVU99
 376              	.LBE137:
 377              	.LBE136:
 378              		.loc 1 157 9 view .LVU100
 379 000a 9842     		cmp	r0, r3
 380 000c 0CD0     		beq	.L9
 381 000e 0446     		mov	r4, r0
 382              		.loc 1 158 62 view .LVU101
 383 0010 6FF00105 		mvn	r5, #1
 384              	.LVL19:
 385              	.L10:
 386              		.loc 1 158 5 is_stmt 1 view .LVU102
 387              	.LBB140:
 388              	.LBI140:
 389              		.loc 2 671 25 view .LVU103
 390              	.LBB141:
 391              		.loc 2 672 3 view .LVU104
 392              		.loc 2 674 3 view .LVU105
 393              		.loc 2 674 19 is_stmt 0 view .LVU106
 394 0014 1A68     		ldr	r2, [r3]
 395              		.loc 2 674 15 view .LVU107
 396 0016 2260     		str	r2, [r4]
 397              		.loc 2 675 3 is_stmt 1 view .LVU108
 398              	.LBE141:
 399              	.LBE140:
ARM GAS  C:\Users\USER\AppData\Local\Temp\cc4rQ8kt.s 			page 8


 400              		.loc 1 158 5 is_stmt 0 view .LVU109
 401 0018 1846     		mov	r0, r3
 402              	.LBB143:
 403              	.LBB142:
 404              		.loc 2 675 23 view .LVU110
 405 001a 5460     		str	r4, [r2, #4]
 406              		.loc 2 677 3 is_stmt 1 view .LVU111
 407              	.LVL20:
 408              		.loc 2 677 3 is_stmt 0 view .LVU112
 409              	.LBE142:
 410              	.LBE143:
 411              		.loc 1 158 5 view .LVU113
 412 001c FFF7FEFF 		bl	chSchReadyI
 413              	.LVL21:
 414              	.LBB144:
 415              	.LBB138:
 416              		.loc 2 631 20 view .LVU114
 417 0020 2368     		ldr	r3, [r4]
 418              	.LBE138:
 419              	.LBE144:
 420              		.loc 1 158 62 view .LVU115
 421 0022 4562     		str	r5, [r0, #36]
 422              	.LVL22:
 423              	.LBB145:
 424              		.loc 2 629 20 is_stmt 1 view .LVU116
 425              	.LBB139:
 426              		.loc 2 631 3 view .LVU117
 427              		.loc 2 631 3 is_stmt 0 view .LVU118
 428              	.LBE139:
 429              	.LBE145:
 430              		.loc 1 157 9 view .LVU119
 431 0024 A342     		cmp	r3, r4
 432 0026 F5D1     		bne	.L10
 433              	.LVL23:
 434              	.L9:
 435              		.loc 1 157 9 view .LVU120
 436              	.LBE135:
 437              	.LBE134:
 438              		.loc 1 134 3 is_stmt 1 view .LVU121
 439 0028 FFF7FEFF 		bl	chSchRescheduleS
 440              	.LVL24:
 441              		.loc 1 135 3 view .LVU122
 442              	.LBB146:
 443              	.LBI146:
 444              		.loc 3 358 20 view .LVU123
 445              	.LBB147:
 446              		.loc 3 360 22 view .LVU124
 447              		.loc 3 361 33 view .LVU125
 448              		.loc 3 367 3 view .LVU126
 449              		.loc 3 367 3 view .LVU127
 450              		.loc 3 371 3 view .LVU128
 451              	.LBB148:
 452              	.LBI148:
 453              		.loc 4 458 20 view .LVU129
 454              	.LBE148:
 455              	.LBE147:
 456              	.LBE146:
ARM GAS  C:\Users\USER\AppData\Local\Temp\cc4rQ8kt.s 			page 9


 457              		.loc 4 461 3 view .LVU130
 458              	.LBB153:
 459              	.LBB152:
 460              	.LBB151:
 461              	.LBB149:
 462              	.LBI149:
 463              		.loc 5 544 57 view .LVU131
 464              	.LBB150:
 465              		.loc 5 546 3 view .LVU132
 466 002c 0023     		movs	r3, #0
 467              		.syntax unified
 468              	@ 546 "src/ChibiOS_3.0.2/os/ext/CMSIS/include/core_cmFunc.h" 1
 469 002e 83F31188 		MSR basepri, r3
 470              	@ 0 "" 2
 471              	.LVL25:
 472              		.loc 5 546 3 is_stmt 0 view .LVU133
 473              		.thumb
 474              		.syntax unified
 475              	.LBE150:
 476              	.LBE149:
 477              	.LBE151:
 478              	.LBE152:
 479              	.LBE153:
 480              		.loc 1 136 1 view .LVU134
 481 0032 38BD     		pop	{r3, r4, r5, pc}
 482              		.cfi_endproc
 483              	.LFE222:
 484              		.size	chCondBroadcast, .-chCondBroadcast
 485              		.section	.text.chCondBroadcastI,"ax",%progbits
 486              		.align	1
 487              		.p2align 4,,15
 488              		.global	chCondBroadcastI
 489              		.syntax unified
 490              		.thumb
 491              		.thumb_func
 492              		.fpu fpv4-sp-d16
 493              		.type	chCondBroadcastI, %function
 494              	chCondBroadcastI:
 495              	.LVL26:
 496              	.LFB223:
 497              		.loc 1 149 49 is_stmt 1 view -0
 498              		.cfi_startproc
 499              		@ args = 0, pretend = 0, frame = 0
 500              		@ frame_needed = 0, uses_anonymous_args = 0
 501              		.loc 1 151 21 view .LVU136
 502              		.loc 1 152 3 view .LVU137
 503              		.loc 1 152 3 view .LVU138
 504              		.loc 1 157 3 view .LVU139
 505              	.LBB154:
 506              	.LBI154:
 507              		.loc 2 629 20 view .LVU140
 508              	.LBB155:
 509              		.loc 2 631 3 view .LVU141
 510              	.LBE155:
 511              	.LBE154:
 512              		.loc 1 149 49 is_stmt 0 view .LVU142
 513 0000 38B5     		push	{r3, r4, r5, lr}
ARM GAS  C:\Users\USER\AppData\Local\Temp\cc4rQ8kt.s 			page 10


 514              		.cfi_def_cfa_offset 16
 515              		.cfi_offset 3, -16
 516              		.cfi_offset 4, -12
 517              		.cfi_offset 5, -8
 518              		.cfi_offset 14, -4
 519              	.LBB159:
 520              	.LBB156:
 521              		.loc 2 631 20 view .LVU143
 522 0002 0368     		ldr	r3, [r0]
 523              	.LVL27:
 524              		.loc 2 631 20 view .LVU144
 525              	.LBE156:
 526              	.LBE159:
 527              		.loc 1 157 9 view .LVU145
 528 0004 8342     		cmp	r3, r0
 529 0006 0CD0     		beq	.L13
 530 0008 0446     		mov	r4, r0
 531              		.loc 1 158 62 view .LVU146
 532 000a 6FF00105 		mvn	r5, #1
 533              	.LVL28:
 534              	.L15:
 535              		.loc 1 158 5 is_stmt 1 view .LVU147
 536              	.LBB160:
 537              	.LBI160:
 538              		.loc 2 671 25 view .LVU148
 539              	.LBB161:
 540              		.loc 2 672 3 view .LVU149
 541              		.loc 2 674 3 view .LVU150
 542              		.loc 2 674 19 is_stmt 0 view .LVU151
 543 000e 1A68     		ldr	r2, [r3]
 544              		.loc 2 674 15 view .LVU152
 545 0010 2260     		str	r2, [r4]
 546              		.loc 2 675 3 is_stmt 1 view .LVU153
 547              	.LBE161:
 548              	.LBE160:
 549              		.loc 1 158 5 is_stmt 0 view .LVU154
 550 0012 1846     		mov	r0, r3
 551              	.LBB163:
 552              	.LBB162:
 553              		.loc 2 675 23 view .LVU155
 554 0014 5460     		str	r4, [r2, #4]
 555              		.loc 2 677 3 is_stmt 1 view .LVU156
 556              	.LVL29:
 557              		.loc 2 677 3 is_stmt 0 view .LVU157
 558              	.LBE162:
 559              	.LBE163:
 560              		.loc 1 158 5 view .LVU158
 561 0016 FFF7FEFF 		bl	chSchReadyI
 562              	.LVL30:
 563              	.LBB164:
 564              	.LBB157:
 565              		.loc 2 631 20 view .LVU159
 566 001a 2368     		ldr	r3, [r4]
 567              	.LBE157:
 568              	.LBE164:
 569              		.loc 1 158 62 view .LVU160
 570 001c 4562     		str	r5, [r0, #36]
ARM GAS  C:\Users\USER\AppData\Local\Temp\cc4rQ8kt.s 			page 11


 571              	.LVL31:
 572              	.LBB165:
 573              		.loc 2 629 20 is_stmt 1 view .LVU161
 574              	.LBB158:
 575              		.loc 2 631 3 view .LVU162
 576              		.loc 2 631 3 is_stmt 0 view .LVU163
 577              	.LBE158:
 578              	.LBE165:
 579              		.loc 1 157 9 view .LVU164
 580 001e A342     		cmp	r3, r4
 581 0020 F5D1     		bne	.L15
 582              	.LVL32:
 583              	.L13:
 584              		.loc 1 160 1 view .LVU165
 585 0022 38BD     		pop	{r3, r4, r5, pc}
 586              		.cfi_endproc
 587              	.LFE223:
 588              		.size	chCondBroadcastI, .-chCondBroadcastI
 589              		.section	.text.chCondWaitS,"ax",%progbits
 590              		.align	1
 591              		.p2align 4,,15
 592              		.global	chCondWaitS
 593              		.syntax unified
 594              		.thumb
 595              		.thumb_func
 596              		.fpu fpv4-sp-d16
 597              		.type	chCondWaitS, %function
 598              	chCondWaitS:
 599              	.LVL33:
 600              	.LFB225:
 601              		.loc 1 205 45 is_stmt 1 view -0
 602              		.cfi_startproc
 603              		@ args = 0, pretend = 0, frame = 0
 604              		@ frame_needed = 0, uses_anonymous_args = 0
 605              		.loc 1 206 3 view .LVU167
 606              		.loc 1 206 13 is_stmt 0 view .LVU168
 607 0000 0F4B     		ldr	r3, .L24
 608              		.loc 1 205 45 view .LVU169
 609 0002 70B5     		push	{r4, r5, r6, lr}
 610              		.cfi_def_cfa_offset 16
 611              		.cfi_offset 4, -16
 612              		.cfi_offset 5, -12
 613              		.cfi_offset 6, -8
 614              		.cfi_offset 14, -4
 615              		.loc 1 206 13 view .LVU170
 616 0004 9C69     		ldr	r4, [r3, #24]
 617              	.LVL34:
 618              		.loc 1 207 3 is_stmt 1 view .LVU171
 619              		.loc 1 208 3 view .LVU172
 620              		.loc 1 210 21 view .LVU173
 621              		.loc 1 211 3 view .LVU174
 622              		.loc 1 211 3 view .LVU175
 623              		.loc 1 212 3 view .LVU176
 624              		.loc 1 212 3 view .LVU177
 625              		.loc 1 215 3 view .LVU178
 626              	.LBB166:
 627              	.LBI166:
ARM GAS  C:\Users\USER\AppData\Local\Temp\cc4rQ8kt.s 			page 12


 628              		.file 6 "src/ChibiOS_3.0.2/os/rt/include/chmtx.h"
 629              		.loc 6 144 24 view .LVU179
 630              	.LBB167:
 631              		.loc 6 146 3 view .LVU180
 632              	.LBE167:
 633              	.LBE166:
 634              		.file 7 "src/ChibiOS_3.0.2/os/rt/include/chthreads.h"
 635              		.loc 7 176 3 view .LVU181
 636              	.LBB169:
 637              	.LBB168:
 638              		.loc 6 146 25 is_stmt 0 view .LVU182
 639 0006 E66B     		ldr	r6, [r4, #60]
 640              	.LVL35:
 641              		.loc 6 146 25 view .LVU183
 642              	.LBE168:
 643              	.LBE169:
 644              		.loc 1 216 3 is_stmt 1 view .LVU184
 645              		.loc 1 205 45 is_stmt 0 view .LVU185
 646 0008 0546     		mov	r5, r0
 647              		.loc 1 216 3 view .LVU186
 648 000a 3046     		mov	r0, r6
 649              	.LVL36:
 650              		.loc 1 216 3 view .LVU187
 651 000c FFF7FEFF 		bl	chMtxUnlockS
 652              	.LVL37:
 653              		.loc 1 220 3 is_stmt 1 view .LVU188
 654              		.loc 1 220 19 is_stmt 0 view .LVU189
 655 0010 6562     		str	r5, [r4, #36]
 656              		.loc 1 221 3 is_stmt 1 view .LVU190
 657              	.LVL38:
 658              	.LBB170:
 659              	.LBI170:
 660              		.loc 2 651 20 view .LVU191
 661              	.LBB171:
 662              		.loc 2 653 13 is_stmt 0 view .LVU192
 663 0012 2B46     		mov	r3, r5
 664 0014 03E0     		b	.L20
 665              	.LVL39:
 666              	.L23:
 667              		.loc 2 656 36 view .LVU193
 668 0016 9968     		ldr	r1, [r3, #8]
 669 0018 A268     		ldr	r2, [r4, #8]
 670 001a 9142     		cmp	r1, r2
 671 001c 02D3     		bcc	.L19
 672              	.LVL40:
 673              	.L20:
 674              		.loc 2 654 3 is_stmt 1 view .LVU194
 675              		.loc 2 655 5 view .LVU195
 676              		.loc 2 655 8 is_stmt 0 view .LVU196
 677 001e 1B68     		ldr	r3, [r3]
 678              	.LVL41:
 679              		.loc 2 656 3 view .LVU197
 680 0020 9D42     		cmp	r5, r3
 681 0022 F8D1     		bne	.L23
 682              	.L19:
 683              		.loc 2 657 3 is_stmt 1 view .LVU198
 684              		.loc 2 658 18 is_stmt 0 view .LVU199
ARM GAS  C:\Users\USER\AppData\Local\Temp\cc4rQ8kt.s 			page 13


 685 0024 5A68     		ldr	r2, [r3, #4]
 686              	.LBE171:
 687              	.LBE170:
 688              		.loc 1 222 3 view .LVU200
 689 0026 0720     		movs	r0, #7
 690              	.LBB173:
 691              	.LBB172:
 692              		.loc 2 658 14 view .LVU201
 693 0028 C4E90032 		strd	r3, r2, [r4]
 694              		.loc 2 659 3 is_stmt 1 view .LVU202
 695              		.loc 2 659 22 is_stmt 0 view .LVU203
 696 002c 1460     		str	r4, [r2]
 697              		.loc 2 660 3 is_stmt 1 view .LVU204
 698              		.loc 2 660 14 is_stmt 0 view .LVU205
 699 002e 5C60     		str	r4, [r3, #4]
 700              	.LVL42:
 701              		.loc 2 660 14 view .LVU206
 702              	.LBE172:
 703              	.LBE173:
 704              		.loc 1 222 3 is_stmt 1 view .LVU207
 705 0030 FFF7FEFF 		bl	chSchGoSleepS
 706              	.LVL43:
 707              		.loc 1 223 3 view .LVU208
 708              		.loc 1 223 7 is_stmt 0 view .LVU209
 709 0034 646A     		ldr	r4, [r4, #36]
 710              	.LVL44:
 711              		.loc 1 224 3 is_stmt 1 view .LVU210
 712 0036 3046     		mov	r0, r6
 713 0038 FFF7FEFF 		bl	chMtxLockS
 714              	.LVL45:
 715              		.loc 1 226 3 view .LVU211
 716              		.loc 1 227 1 is_stmt 0 view .LVU212
 717 003c 2046     		mov	r0, r4
 718 003e 70BD     		pop	{r4, r5, r6, pc}
 719              	.LVL46:
 720              	.L25:
 721              		.loc 1 227 1 view .LVU213
 722              		.align	2
 723              	.L24:
 724 0040 00000000 		.word	ch
 725              		.cfi_endproc
 726              	.LFE225:
 727              		.size	chCondWaitS, .-chCondWaitS
 728              		.section	.text.chCondWait,"ax",%progbits
 729              		.align	1
 730              		.p2align 4,,15
 731              		.global	chCondWait
 732              		.syntax unified
 733              		.thumb
 734              		.thumb_func
 735              		.fpu fpv4-sp-d16
 736              		.type	chCondWait, %function
 737              	chCondWait:
 738              	.LVL47:
 739              	.LFB224:
 740              		.loc 1 179 44 is_stmt 1 view -0
 741              		.cfi_startproc
ARM GAS  C:\Users\USER\AppData\Local\Temp\cc4rQ8kt.s 			page 14


 742              		@ args = 0, pretend = 0, frame = 0
 743              		@ frame_needed = 0, uses_anonymous_args = 0
 744              		.loc 1 180 3 view .LVU215
 745              		.loc 1 182 3 view .LVU216
 746              	.LBB174:
 747              	.LBI174:
 748              		.loc 3 346 20 view .LVU217
 749              	.LBE174:
 750              		.loc 3 348 3 view .LVU218
 751              	.LBB182:
 752              	.LBB175:
 753              	.LBI175:
 754              		.loc 4 444 20 view .LVU219
 755              	.LBE175:
 756              	.LBE182:
 757              		.loc 4 447 3 view .LVU220
 758              	.LBB183:
 759              	.LBB180:
 760              	.LBB176:
 761              	.LBI176:
 762              		.loc 5 544 57 view .LVU221
 763              	.LBB177:
 764              		.loc 5 546 3 view .LVU222
 765              	.LBE177:
 766              	.LBE176:
 767              	.LBE180:
 768              	.LBE183:
 769              		.loc 1 179 44 is_stmt 0 view .LVU223
 770 0000 08B5     		push	{r3, lr}
 771              		.cfi_def_cfa_offset 8
 772              		.cfi_offset 3, -8
 773              		.cfi_offset 14, -4
 774              	.LBB184:
 775              	.LBB181:
 776              	.LBB179:
 777              	.LBB178:
 778              		.loc 5 546 3 view .LVU224
 779 0002 2023     		movs	r3, #32
 780              		.syntax unified
 781              	@ 546 "src/ChibiOS_3.0.2/os/ext/CMSIS/include/core_cmFunc.h" 1
 782 0004 83F31188 		MSR basepri, r3
 783              	@ 0 "" 2
 784              	.LVL48:
 785              		.loc 5 546 3 view .LVU225
 786              		.thumb
 787              		.syntax unified
 788              	.LBE178:
 789              	.LBE179:
 790              	.LBE181:
 791              	.LBE184:
 792              		.loc 3 349 34 is_stmt 1 view .LVU226
 793              		.loc 3 350 20 view .LVU227
 794              		.loc 1 183 3 view .LVU228
 795              		.loc 1 183 9 is_stmt 0 view .LVU229
 796 0008 FFF7FEFF 		bl	chCondWaitS
 797              	.LVL49:
 798              		.loc 1 184 3 is_stmt 1 view .LVU230
ARM GAS  C:\Users\USER\AppData\Local\Temp\cc4rQ8kt.s 			page 15


 799              	.LBB185:
 800              	.LBI185:
 801              		.loc 3 358 20 view .LVU231
 802              	.LBB186:
 803              		.loc 3 360 22 view .LVU232
 804              		.loc 3 361 33 view .LVU233
 805              		.loc 3 367 3 view .LVU234
 806              		.loc 3 367 3 view .LVU235
 807              		.loc 3 371 3 view .LVU236
 808              	.LBB187:
 809              	.LBI187:
 810              		.loc 4 458 20 view .LVU237
 811              	.LBE187:
 812              	.LBE186:
 813              	.LBE185:
 814              		.loc 4 461 3 view .LVU238
 815              	.LBB192:
 816              	.LBB191:
 817              	.LBB190:
 818              	.LBB188:
 819              	.LBI188:
 820              		.loc 5 544 57 view .LVU239
 821              	.LBB189:
 822              		.loc 5 546 3 view .LVU240
 823 000c 0023     		movs	r3, #0
 824              		.syntax unified
 825              	@ 546 "src/ChibiOS_3.0.2/os/ext/CMSIS/include/core_cmFunc.h" 1
 826 000e 83F31188 		MSR basepri, r3
 827              	@ 0 "" 2
 828              	.LVL50:
 829              		.loc 5 546 3 is_stmt 0 view .LVU241
 830              		.thumb
 831              		.syntax unified
 832              	.LBE189:
 833              	.LBE188:
 834              	.LBE190:
 835              	.LBE191:
 836              	.LBE192:
 837              		.loc 1 185 3 is_stmt 1 view .LVU242
 838              		.loc 1 186 1 is_stmt 0 view .LVU243
 839 0012 08BD     		pop	{r3, pc}
 840              		.cfi_endproc
 841              	.LFE224:
 842              		.size	chCondWait, .-chCondWait
 843              		.section	.text.chCondWaitTimeoutS,"ax",%progbits
 844              		.align	1
 845              		.p2align 4,,15
 846              		.global	chCondWaitTimeoutS
 847              		.syntax unified
 848              		.thumb
 849              		.thumb_func
 850              		.fpu fpv4-sp-d16
 851              		.type	chCondWaitTimeoutS, %function
 852              	chCondWaitTimeoutS:
 853              	.LVL51:
 854              	.LFB227:
 855              		.loc 1 296 68 is_stmt 1 view -0
ARM GAS  C:\Users\USER\AppData\Local\Temp\cc4rQ8kt.s 			page 16


 856              		.cfi_startproc
 857              		@ args = 0, pretend = 0, frame = 0
 858              		@ frame_needed = 0, uses_anonymous_args = 0
 859              		.loc 1 297 3 view .LVU245
 860              		.loc 1 298 3 view .LVU246
 861              		.loc 1 300 21 view .LVU247
 862              		.loc 1 301 3 view .LVU248
 863              		.loc 1 301 3 view .LVU249
 864              		.loc 1 302 3 view .LVU250
 865              		.loc 1 302 3 view .LVU251
 866              		.loc 1 305 3 view .LVU252
 867              	.LBB193:
 868              	.LBI193:
 869              		.loc 6 144 24 view .LVU253
 870              	.LBB194:
 871              		.loc 6 146 3 view .LVU254
 872              	.LBB195:
 873              	.LBI195:
 874              		.loc 7 174 25 view .LVU255
 875              	.LBB196:
 876              		.loc 7 176 3 view .LVU256
 877              	.LBE196:
 878              	.LBE195:
 879              	.LBE194:
 880              	.LBE193:
 881              		.loc 1 296 68 is_stmt 0 view .LVU257
 882 0000 F8B5     		push	{r3, r4, r5, r6, r7, lr}
 883              		.cfi_def_cfa_offset 24
 884              		.cfi_offset 3, -24
 885              		.cfi_offset 4, -20
 886              		.cfi_offset 5, -16
 887              		.cfi_offset 6, -12
 888              		.cfi_offset 7, -8
 889              		.cfi_offset 14, -4
 890              	.LBB200:
 891              	.LBB199:
 892              	.LBB198:
 893              	.LBB197:
 894              		.loc 7 176 18 view .LVU258
 895 0002 124C     		ldr	r4, .L38
 896              	.LBE197:
 897              	.LBE198:
 898              		.loc 6 146 25 view .LVU259
 899 0004 A369     		ldr	r3, [r4, #24]
 900 0006 DE6B     		ldr	r6, [r3, #60]
 901              	.LVL52:
 902              		.loc 6 146 25 view .LVU260
 903              	.LBE199:
 904              	.LBE200:
 905              		.loc 1 306 3 is_stmt 1 view .LVU261
 906              		.loc 1 296 68 is_stmt 0 view .LVU262
 907 0008 0546     		mov	r5, r0
 908              		.loc 1 306 3 view .LVU263
 909 000a 3046     		mov	r0, r6
 910              	.LVL53:
 911              		.loc 1 296 68 view .LVU264
 912 000c 0F46     		mov	r7, r1
ARM GAS  C:\Users\USER\AppData\Local\Temp\cc4rQ8kt.s 			page 17


 913              		.loc 1 306 3 view .LVU265
 914 000e FFF7FEFF 		bl	chMtxUnlockS
 915              	.LVL54:
 916              		.loc 1 310 3 is_stmt 1 view .LVU266
 917 0012 A469     		ldr	r4, [r4, #24]
 918              	.LBB201:
 919              	.LBB202:
 920              		.loc 2 653 13 is_stmt 0 view .LVU267
 921 0014 2B46     		mov	r3, r5
 922              	.LBE202:
 923              	.LBE201:
 924              		.loc 1 310 21 view .LVU268
 925 0016 6562     		str	r5, [r4, #36]
 926              		.loc 1 311 3 is_stmt 1 view .LVU269
 927              	.LVL55:
 928              	.LBB206:
 929              	.LBI201:
 930              		.loc 2 651 20 view .LVU270
 931 0018 03E0     		b	.L30
 932              	.LVL56:
 933              	.L37:
 934              	.LBB203:
 935              		.loc 2 656 36 is_stmt 0 view .LVU271
 936 001a 9868     		ldr	r0, [r3, #8]
 937 001c A268     		ldr	r2, [r4, #8]
 938 001e 9042     		cmp	r0, r2
 939 0020 02D3     		bcc	.L29
 940              	.LVL57:
 941              	.L30:
 942              		.loc 2 654 3 is_stmt 1 view .LVU272
 943              		.loc 2 655 5 view .LVU273
 944              		.loc 2 655 8 is_stmt 0 view .LVU274
 945 0022 1B68     		ldr	r3, [r3]
 946              	.LVL58:
 947              		.loc 2 656 3 view .LVU275
 948 0024 9D42     		cmp	r5, r3
 949 0026 F8D1     		bne	.L37
 950              	.L29:
 951              		.loc 2 657 3 is_stmt 1 view .LVU276
 952              		.loc 2 658 18 is_stmt 0 view .LVU277
 953 0028 5A68     		ldr	r2, [r3, #4]
 954              		.loc 2 658 14 view .LVU278
 955 002a 6260     		str	r2, [r4, #4]
 956              		.loc 2 657 14 view .LVU279
 957 002c 2360     		str	r3, [r4]
 958              		.loc 2 658 3 is_stmt 1 view .LVU280
 959              		.loc 2 659 3 view .LVU281
 960              	.LBE203:
 961              	.LBE206:
 962              		.loc 1 312 9 is_stmt 0 view .LVU282
 963 002e 3946     		mov	r1, r7
 964              	.LBB207:
 965              	.LBB204:
 966              		.loc 2 659 22 view .LVU283
 967 0030 1460     		str	r4, [r2]
 968              		.loc 2 660 3 is_stmt 1 view .LVU284
 969              	.LBE204:
ARM GAS  C:\Users\USER\AppData\Local\Temp\cc4rQ8kt.s 			page 18


 970              	.LBE207:
 971              		.loc 1 312 9 is_stmt 0 view .LVU285
 972 0032 0720     		movs	r0, #7
 973              	.LBB208:
 974              	.LBB205:
 975              		.loc 2 660 14 view .LVU286
 976 0034 5C60     		str	r4, [r3, #4]
 977              	.LVL59:
 978              		.loc 2 660 14 view .LVU287
 979              	.LBE205:
 980              	.LBE208:
 981              		.loc 1 312 3 is_stmt 1 view .LVU288
 982              		.loc 1 312 9 is_stmt 0 view .LVU289
 983 0036 FFF7FEFF 		bl	chSchGoSleepTimeoutS
 984              	.LVL60:
 985              		.loc 1 313 6 view .LVU290
 986 003a 431C     		adds	r3, r0, #1
 987              		.loc 1 312 9 view .LVU291
 988 003c 0446     		mov	r4, r0
 989              	.LVL61:
 990              		.loc 1 313 3 is_stmt 1 view .LVU292
 991              		.loc 1 313 6 is_stmt 0 view .LVU293
 992 003e 02D0     		beq	.L28
 993              		.loc 1 314 5 is_stmt 1 view .LVU294
 994 0040 3046     		mov	r0, r6
 995              	.LVL62:
 996              		.loc 1 314 5 is_stmt 0 view .LVU295
 997 0042 FFF7FEFF 		bl	chMtxLockS
 998              	.LVL63:
 999              		.loc 1 317 3 is_stmt 1 view .LVU296
 1000              	.L28:
 1001              		.loc 1 318 1 is_stmt 0 view .LVU297
 1002 0046 2046     		mov	r0, r4
 1003 0048 F8BD     		pop	{r3, r4, r5, r6, r7, pc}
 1004              	.LVL64:
 1005              	.L39:
 1006              		.loc 1 318 1 view .LVU298
 1007 004a 00BF     		.align	2
 1008              	.L38:
 1009 004c 00000000 		.word	ch
 1010              		.cfi_endproc
 1011              	.LFE227:
 1012              		.size	chCondWaitTimeoutS, .-chCondWaitTimeoutS
 1013              		.section	.text.chCondWaitTimeout,"ax",%progbits
 1014              		.align	1
 1015              		.p2align 4,,15
 1016              		.global	chCondWaitTimeout
 1017              		.syntax unified
 1018              		.thumb
 1019              		.thumb_func
 1020              		.fpu fpv4-sp-d16
 1021              		.type	chCondWaitTimeout, %function
 1022              	chCondWaitTimeout:
 1023              	.LVL65:
 1024              	.LFB226:
 1025              		.loc 1 258 67 is_stmt 1 view -0
 1026              		.cfi_startproc
ARM GAS  C:\Users\USER\AppData\Local\Temp\cc4rQ8kt.s 			page 19


 1027              		@ args = 0, pretend = 0, frame = 0
 1028              		@ frame_needed = 0, uses_anonymous_args = 0
 1029              		.loc 1 259 3 view .LVU300
 1030              		.loc 1 261 3 view .LVU301
 1031              	.LBB209:
 1032              	.LBI209:
 1033              		.loc 3 346 20 view .LVU302
 1034              	.LBE209:
 1035              		.loc 3 348 3 view .LVU303
 1036              	.LBB217:
 1037              	.LBB210:
 1038              	.LBI210:
 1039              		.loc 4 444 20 view .LVU304
 1040              	.LBE210:
 1041              	.LBE217:
 1042              		.loc 4 447 3 view .LVU305
 1043              	.LBB218:
 1044              	.LBB215:
 1045              	.LBB211:
 1046              	.LBI211:
 1047              		.loc 5 544 57 view .LVU306
 1048              	.LBB212:
 1049              		.loc 5 546 3 view .LVU307
 1050              	.LBE212:
 1051              	.LBE211:
 1052              	.LBE215:
 1053              	.LBE218:
 1054              		.loc 1 258 67 is_stmt 0 view .LVU308
 1055 0000 08B5     		push	{r3, lr}
 1056              		.cfi_def_cfa_offset 8
 1057              		.cfi_offset 3, -8
 1058              		.cfi_offset 14, -4
 1059              	.LBB219:
 1060              	.LBB216:
 1061              	.LBB214:
 1062              	.LBB213:
 1063              		.loc 5 546 3 view .LVU309
 1064 0002 2023     		movs	r3, #32
 1065              		.syntax unified
 1066              	@ 546 "src/ChibiOS_3.0.2/os/ext/CMSIS/include/core_cmFunc.h" 1
 1067 0004 83F31188 		MSR basepri, r3
 1068              	@ 0 "" 2
 1069              	.LVL66:
 1070              		.loc 5 546 3 view .LVU310
 1071              		.thumb
 1072              		.syntax unified
 1073              	.LBE213:
 1074              	.LBE214:
 1075              	.LBE216:
 1076              	.LBE219:
 1077              		.loc 3 349 34 is_stmt 1 view .LVU311
 1078              		.loc 3 350 20 view .LVU312
 1079              		.loc 1 262 3 view .LVU313
 1080              		.loc 1 262 9 is_stmt 0 view .LVU314
 1081 0008 FFF7FEFF 		bl	chCondWaitTimeoutS
 1082              	.LVL67:
 1083              		.loc 1 263 3 is_stmt 1 view .LVU315
ARM GAS  C:\Users\USER\AppData\Local\Temp\cc4rQ8kt.s 			page 20


 1084              	.LBB220:
 1085              	.LBI220:
 1086              		.loc 3 358 20 view .LVU316
 1087              	.LBB221:
 1088              		.loc 3 360 22 view .LVU317
 1089              		.loc 3 361 33 view .LVU318
 1090              		.loc 3 367 3 view .LVU319
 1091              		.loc 3 367 3 view .LVU320
 1092              		.loc 3 371 3 view .LVU321
 1093              	.LBB222:
 1094              	.LBI222:
 1095              		.loc 4 458 20 view .LVU322
 1096              	.LBE222:
 1097              	.LBE221:
 1098              	.LBE220:
 1099              		.loc 4 461 3 view .LVU323
 1100              	.LBB227:
 1101              	.LBB226:
 1102              	.LBB225:
 1103              	.LBB223:
 1104              	.LBI223:
 1105              		.loc 5 544 57 view .LVU324
 1106              	.LBB224:
 1107              		.loc 5 546 3 view .LVU325
 1108 000c 0023     		movs	r3, #0
 1109              		.syntax unified
 1110              	@ 546 "src/ChibiOS_3.0.2/os/ext/CMSIS/include/core_cmFunc.h" 1
 1111 000e 83F31188 		MSR basepri, r3
 1112              	@ 0 "" 2
 1113              	.LVL68:
 1114              		.loc 5 546 3 is_stmt 0 view .LVU326
 1115              		.thumb
 1116              		.syntax unified
 1117              	.LBE224:
 1118              	.LBE223:
 1119              	.LBE225:
 1120              	.LBE226:
 1121              	.LBE227:
 1122              		.loc 1 265 3 is_stmt 1 view .LVU327
 1123              		.loc 1 266 1 is_stmt 0 view .LVU328
 1124 0012 08BD     		pop	{r3, pc}
 1125              		.cfi_endproc
 1126              	.LFE226:
 1127              		.size	chCondWaitTimeout, .-chCondWaitTimeout
 1128              		.text
 1129              	.Letext0:
 1130              		.file 8 "c:\\program files (x86)\\gnu tools arm embedded\\8 2018-q4-major\\arm-none-eabi\\include\
 1131              		.file 9 "c:\\program files (x86)\\gnu tools arm embedded\\8 2018-q4-major\\arm-none-eabi\\include\
 1132              		.file 10 "src/ChibiOS_3.0.2/os/rt/ports/ARMCMx/compilers/GCC/chtypes.h"
 1133              		.file 11 "src/ChibiOS_3.0.2/os/rt/include/chsystypes.h"
 1134              		.file 12 "src/ChibiOS_3.0.2/os/ext/CMSIS/include/core_cm4.h"
 1135              		.file 13 "src/ChibiOS_3.0.2/os/ext/CMSIS/ST/system_stm32f4xx.h"
 1136              		.file 14 "src/ChibiOS_3.0.2/os/rt/ports/ARMCMx/chcore.h"
 1137              		.file 15 "src/ChibiOS_3.0.2/os/rt/include/chtm.h"
 1138              		.file 16 "src/ChibiOS_3.0.2/os/rt/include/chsem.h"
 1139              		.file 17 "src/ChibiOS_3.0.2/os/rt/include/chregistry.h"
 1140              		.file 18 "src/ChibiOS_3.0.2/os/rt/include/chcond.h"
ARM GAS  C:\Users\USER\AppData\Local\Temp\cc4rQ8kt.s 			page 21

