ARM GAS  C:\Users\USER\AppData\Local\Temp\cciSBp8j.s 			page 1


   1              		.cpu cortex-m4
   2              		.eabi_attribute 27, 1
   3              		.eabi_attribute 28, 1
   4              		.eabi_attribute 20, 1
   5              		.eabi_attribute 21, 1
   6              		.eabi_attribute 23, 3
   7              		.eabi_attribute 24, 1
   8              		.eabi_attribute 25, 1
   9              		.eabi_attribute 26, 1
  10              		.eabi_attribute 30, 2
  11              		.eabi_attribute 34, 1
  12              		.eabi_attribute 18, 4
  13              		.file	"chdynamic.c"
  14              		.text
  15              	.Ltext0:
  16              		.cfi_sections	.debug_frame
  17              		.section	.text.chThdAddRef,"ax",%progbits
  18              		.align	1
  19              		.p2align 4,,15
  20              		.global	chThdAddRef
  21              		.arch armv7e-m
  22              		.syntax unified
  23              		.thumb
  24              		.thumb_func
  25              		.fpu fpv4-sp-d16
  26              		.type	chThdAddRef, %function
  27              	chThdAddRef:
  28              	.LVL0:
  29              	.LFB219:
  30              		.file 1 "src/ChibiOS_3.0.2/os/rt/src/chdynamic.c"
  31              		.loc 1 68 37 view -0
  32              		.cfi_startproc
  33              		@ args = 0, pretend = 0, frame = 0
  34              		@ frame_needed = 0, uses_anonymous_args = 0
  35              		@ link register save eliminated.
  36              		.loc 1 70 3 view .LVU1
  37              	.LBB54:
  38              	.LBI54:
  39              		.file 2 "src/ChibiOS_3.0.2/os/rt/include/chsys.h"
  40              		.loc 2 346 20 view .LVU2
  41              	.LBE54:
  42              		.loc 2 348 3 view .LVU3
  43              	.LBB59:
  44              	.LBB55:
  45              	.LBI55:
  46              		.file 3 "src/ChibiOS_3.0.2/os/rt/ports/ARMCMx/chcore_v7m.h"
  47              		.loc 3 444 20 view .LVU4
  48              	.LBE55:
  49              	.LBE59:
  50              		.loc 3 447 3 view .LVU5
  51              	.LBB60:
  52              	.LBB58:
  53              	.LBB56:
  54              	.LBI56:
  55              		.file 4 "src/ChibiOS_3.0.2/os/ext/CMSIS/include/core_cmFunc.h"
  56              		.loc 4 544 57 view .LVU6
  57              	.LBB57:
ARM GAS  C:\Users\USER\AppData\Local\Temp\cciSBp8j.s 			page 2


  58              		.loc 4 546 3 view .LVU7
  59 0000 2023     		movs	r3, #32
  60              		.syntax unified
  61              	@ 546 "src/ChibiOS_3.0.2/os/ext/CMSIS/include/core_cmFunc.h" 1
  62 0002 83F31188 		MSR basepri, r3
  63              	@ 0 "" 2
  64              	.LVL1:
  65              		.loc 4 546 3 is_stmt 0 view .LVU8
  66              		.thumb
  67              		.syntax unified
  68              	.LBE57:
  69              	.LBE56:
  70              	.LBE58:
  71              	.LBE60:
  72              		.loc 2 349 34 is_stmt 1 view .LVU9
  73              		.loc 2 350 20 view .LVU10
  74              		.loc 1 71 3 view .LVU11
  75              		.loc 1 71 3 view .LVU12
  76              		.loc 1 72 3 view .LVU13
  77              		.loc 1 72 13 is_stmt 0 view .LVU14
  78 0006 837F     		ldrb	r3, [r0, #30]	@ zero_extendqisi2
  79 0008 0133     		adds	r3, r3, #1
  80 000a 8377     		strb	r3, [r0, #30]
  81              		.loc 1 73 3 is_stmt 1 view .LVU15
  82              	.LBB61:
  83              	.LBI61:
  84              		.loc 2 358 20 view .LVU16
  85              	.LBB62:
  86              		.loc 2 360 22 view .LVU17
  87              		.loc 2 361 33 view .LVU18
  88              		.loc 2 367 3 view .LVU19
  89              		.loc 2 367 3 view .LVU20
  90              		.loc 2 371 3 view .LVU21
  91              	.LBB63:
  92              	.LBI63:
  93              		.loc 3 458 20 view .LVU22
  94              	.LBE63:
  95              	.LBE62:
  96              	.LBE61:
  97              		.loc 3 461 3 view .LVU23
  98              	.LVL2:
  99              	.LBB68:
 100              	.LBB67:
 101              	.LBB66:
 102              	.LBB64:
 103              	.LBI64:
 104              		.loc 4 544 57 view .LVU24
 105              	.LBB65:
 106              		.loc 4 546 3 view .LVU25
 107 000c 0023     		movs	r3, #0
 108              		.syntax unified
 109              	@ 546 "src/ChibiOS_3.0.2/os/ext/CMSIS/include/core_cmFunc.h" 1
 110 000e 83F31188 		MSR basepri, r3
 111              	@ 0 "" 2
 112              	.LVL3:
 113              		.loc 4 546 3 is_stmt 0 view .LVU26
 114              		.thumb
ARM GAS  C:\Users\USER\AppData\Local\Temp\cciSBp8j.s 			page 3


 115              		.syntax unified
 116              	.LBE65:
 117              	.LBE64:
 118              	.LBE66:
 119              	.LBE67:
 120              	.LBE68:
 121              		.loc 1 75 3 is_stmt 1 view .LVU27
 122              		.loc 1 76 1 is_stmt 0 view .LVU28
 123 0012 7047     		bx	lr
 124              		.cfi_endproc
 125              	.LFE219:
 126              		.size	chThdAddRef, .-chThdAddRef
 127              		.section	.text.chThdRelease,"ax",%progbits
 128              		.align	1
 129              		.p2align 4,,15
 130              		.global	chThdRelease
 131              		.syntax unified
 132              		.thumb
 133              		.thumb_func
 134              		.fpu fpv4-sp-d16
 135              		.type	chThdRelease, %function
 136              	chThdRelease:
 137              	.LVL4:
 138              	.LFB220:
 139              		.loc 1 91 33 is_stmt 1 view -0
 140              		.cfi_startproc
 141              		@ args = 0, pretend = 0, frame = 0
 142              		@ frame_needed = 0, uses_anonymous_args = 0
 143              		@ link register save eliminated.
 144              		.loc 1 92 3 view .LVU30
 145              		.loc 1 94 3 view .LVU31
 146              	.LBB69:
 147              	.LBI69:
 148              		.loc 2 346 20 view .LVU32
 149              	.LBE69:
 150              		.loc 2 348 3 view .LVU33
 151              	.LBB77:
 152              	.LBB70:
 153              	.LBI70:
 154              		.loc 3 444 20 view .LVU34
 155              	.LBE70:
 156              	.LBE77:
 157              		.loc 3 447 3 view .LVU35
 158              	.LBB78:
 159              	.LBB75:
 160              	.LBB71:
 161              	.LBI71:
 162              		.loc 4 544 57 view .LVU36
 163              	.LBB72:
 164              		.loc 4 546 3 view .LVU37
 165              	.LBE72:
 166              	.LBE71:
 167              	.LBE75:
 168              	.LBE78:
 169              		.loc 1 91 33 is_stmt 0 view .LVU38
 170 0000 0146     		mov	r1, r0
 171              	.LBB79:
ARM GAS  C:\Users\USER\AppData\Local\Temp\cciSBp8j.s 			page 4


 172              	.LBB76:
 173              	.LBB74:
 174              	.LBB73:
 175              		.loc 4 546 3 view .LVU39
 176 0002 2023     		movs	r3, #32
 177              		.syntax unified
 178              	@ 546 "src/ChibiOS_3.0.2/os/ext/CMSIS/include/core_cmFunc.h" 1
 179 0004 83F31188 		MSR basepri, r3
 180              	@ 0 "" 2
 181              	.LVL5:
 182              		.loc 4 546 3 view .LVU40
 183              		.thumb
 184              		.syntax unified
 185              	.LBE73:
 186              	.LBE74:
 187              	.LBE76:
 188              	.LBE79:
 189              		.loc 2 349 34 is_stmt 1 view .LVU41
 190              		.loc 2 350 20 view .LVU42
 191              		.loc 1 95 3 view .LVU43
 192              		.loc 1 95 3 view .LVU44
 193              		.loc 1 96 3 view .LVU45
 194              		.loc 1 96 13 is_stmt 0 view .LVU46
 195 0008 837F     		ldrb	r3, [r0, #30]	@ zero_extendqisi2
 196 000a 013B     		subs	r3, r3, #1
 197 000c DBB2     		uxtb	r3, r3
 198 000e 8377     		strb	r3, [r0, #30]
 199              		.loc 1 97 3 is_stmt 1 view .LVU47
 200              	.LVL6:
 201              		.loc 1 98 3 view .LVU48
 202              	.LBB80:
 203              	.LBI80:
 204              		.loc 2 358 20 view .LVU49
 205              	.LBB81:
 206              		.loc 2 360 22 view .LVU50
 207              		.loc 2 361 33 view .LVU51
 208              		.loc 2 367 3 view .LVU52
 209              		.loc 2 367 3 view .LVU53
 210              		.loc 2 371 3 view .LVU54
 211              	.LBB82:
 212              	.LBI82:
 213              		.loc 3 458 20 view .LVU55
 214              	.LBE82:
 215              	.LBE81:
 216              	.LBE80:
 217              		.loc 3 461 3 view .LVU56
 218              	.LBB87:
 219              	.LBB86:
 220              	.LBB85:
 221              	.LBB83:
 222              	.LBI83:
 223              		.loc 4 544 57 view .LVU57
 224              	.LBB84:
 225              		.loc 4 546 3 view .LVU58
 226 0010 0022     		movs	r2, #0
 227              		.syntax unified
 228              	@ 546 "src/ChibiOS_3.0.2/os/ext/CMSIS/include/core_cmFunc.h" 1
ARM GAS  C:\Users\USER\AppData\Local\Temp\cciSBp8j.s 			page 5


 229 0012 82F31188 		MSR basepri, r2
 230              	@ 0 "" 2
 231              	.LVL7:
 232              		.loc 4 546 3 is_stmt 0 view .LVU59
 233              		.thumb
 234              		.syntax unified
 235              	.LBE84:
 236              	.LBE83:
 237              	.LBE85:
 238              	.LBE86:
 239              	.LBE87:
 240              		.loc 1 103 3 is_stmt 1 view .LVU60
 241              		.loc 1 103 6 is_stmt 0 view .LVU61
 242 0016 13B9     		cbnz	r3, .L3
 243              		.loc 1 103 28 discriminator 1 view .LVU62
 244 0018 037F     		ldrb	r3, [r0, #28]	@ zero_extendqisi2
 245              	.LVL8:
 246              		.loc 1 103 28 discriminator 1 view .LVU63
 247 001a 0F2B     		cmp	r3, #15
 248 001c 00D0     		beq	.L7
 249              	.L3:
 250              		.loc 1 127 1 view .LVU64
 251 001e 7047     		bx	lr
 252              	.L7:
 253              		.loc 1 104 5 is_stmt 1 view .LVU65
 254 0020 437F     		ldrb	r3, [r0, #29]	@ zero_extendqisi2
 255 0022 03F00303 		and	r3, r3, #3
 256 0026 012B     		cmp	r3, #1
 257 0028 09D0     		beq	.L5
 258 002a 022B     		cmp	r3, #2
 259 002c 06D1     		bne	.L8
 260              		.loc 1 116 7 view .LVU66
 261 002e D0E90432 		ldrd	r3, r2, [r0, #16]
 262              		.loc 1 118 7 is_stmt 0 view .LVU67
 263 0032 406C     		ldr	r0, [r0, #68]
 264              	.LVL9:
 265              		.loc 1 116 7 view .LVU68
 266 0034 1361     		str	r3, [r2, #16]
 267              	.LVL10:
 268              		.loc 1 116 7 is_stmt 1 view .LVU69
 269 0036 5A61     		str	r2, [r3, #20]
 270              		.loc 1 116 21 view .LVU70
 271              		.loc 1 118 7 view .LVU71
 272 0038 FFF7FEBF 		b	chPoolFree
 273              	.LVL11:
 274              	.L8:
 275              		.loc 1 118 7 is_stmt 0 view .LVU72
 276 003c 7047     		bx	lr
 277              	.L5:
 278              		.loc 1 108 7 is_stmt 1 view .LVU73
 279 003e D0E90423 		ldrd	r2, r3, [r0, #16]
 280 0042 1A61     		str	r2, [r3, #16]
 281              	.LVL12:
 282              		.loc 1 108 7 view .LVU74
 283 0044 0269     		ldr	r2, [r0, #16]
 284 0046 5361     		str	r3, [r2, #20]
 285              		.loc 1 108 21 view .LVU75
ARM GAS  C:\Users\USER\AppData\Local\Temp\cciSBp8j.s 			page 6


 286              		.loc 1 110 7 view .LVU76
 287 0048 FFF7FEBF 		b	chHeapFree
 288              	.LVL13:
 289              		.loc 1 110 7 is_stmt 0 view .LVU77
 290              		.cfi_endproc
 291              	.LFE220:
 292              		.size	chThdRelease, .-chThdRelease
 293              		.section	.text.chThdCreateFromHeap,"ax",%progbits
 294              		.align	1
 295              		.p2align 4,,15
 296              		.global	chThdCreateFromHeap
 297              		.syntax unified
 298              		.thumb
 299              		.thumb_func
 300              		.fpu fpv4-sp-d16
 301              		.type	chThdCreateFromHeap, %function
 302              	chThdCreateFromHeap:
 303              	.LVL14:
 304              	.LFB221:
 305              		.loc 1 153 68 is_stmt 1 view -0
 306              		.cfi_startproc
 307              		@ args = 4, pretend = 0, frame = 0
 308              		@ frame_needed = 0, uses_anonymous_args = 0
 309              		.loc 1 154 3 view .LVU79
 310              		.loc 1 155 3 view .LVU80
 311              		.loc 1 157 3 view .LVU81
 312              		.loc 1 153 68 is_stmt 0 view .LVU82
 313 0000 F0B5     		push	{r4, r5, r6, r7, lr}
 314              		.cfi_def_cfa_offset 20
 315              		.cfi_offset 4, -20
 316              		.cfi_offset 5, -16
 317              		.cfi_offset 6, -12
 318              		.cfi_offset 7, -8
 319              		.cfi_offset 14, -4
 320 0002 83B0     		sub	sp, sp, #12
 321              		.cfi_def_cfa_offset 32
 322              		.loc 1 153 68 view .LVU83
 323 0004 1646     		mov	r6, r2
 324 0006 1F46     		mov	r7, r3
 325 0008 0D46     		mov	r5, r1
 326              		.loc 1 157 9 view .LVU84
 327 000a FFF7FEFF 		bl	chHeapAlloc
 328              	.LVL15:
 329              		.loc 1 158 3 is_stmt 1 view .LVU85
 330              		.loc 1 158 6 is_stmt 0 view .LVU86
 331 000e A8B1     		cbz	r0, .L12
 332              		.loc 1 171 3 is_stmt 1 view .LVU87
 333              	.LBB88:
 334              	.LBI88:
 335              		.loc 2 346 20 view .LVU88
 336              	.LBE88:
 337              		.loc 2 348 3 view .LVU89
 338              	.LBB93:
 339              	.LBB89:
 340              	.LBI89:
 341              		.loc 3 444 20 view .LVU90
 342              	.LBE89:
ARM GAS  C:\Users\USER\AppData\Local\Temp\cciSBp8j.s 			page 7


 343              	.LBE93:
 344              		.loc 3 447 3 view .LVU91
 345              	.LVL16:
 346              	.LBB94:
 347              	.LBB92:
 348              	.LBB90:
 349              	.LBI90:
 350              		.loc 4 544 57 view .LVU92
 351              	.LBB91:
 352              		.loc 4 546 3 view .LVU93
 353 0010 2023     		movs	r3, #32
 354              		.syntax unified
 355              	@ 546 "src/ChibiOS_3.0.2/os/ext/CMSIS/include/core_cmFunc.h" 1
 356 0012 83F31188 		MSR basepri, r3
 357              	@ 0 "" 2
 358              	.LVL17:
 359              		.loc 4 546 3 is_stmt 0 view .LVU94
 360              		.thumb
 361              		.syntax unified
 362              	.LBE91:
 363              	.LBE90:
 364              	.LBE92:
 365              	.LBE94:
 366              		.loc 2 349 34 is_stmt 1 view .LVU95
 367              		.loc 2 350 20 view .LVU96
 368              		.loc 1 172 3 view .LVU97
 369              		.loc 1 172 8 is_stmt 0 view .LVU98
 370 0016 089B     		ldr	r3, [sp, #32]
 371 0018 0093     		str	r3, [sp]
 372 001a 3246     		mov	r2, r6
 373 001c 3B46     		mov	r3, r7
 374 001e 2946     		mov	r1, r5
 375 0020 FFF7FEFF 		bl	chThdCreateI
 376              	.LVL18:
 377              		.loc 1 173 15 view .LVU99
 378 0024 0123     		movs	r3, #1
 379 0026 4377     		strb	r3, [r0, #29]
 380              		.loc 1 174 3 view .LVU100
 381 0028 0021     		movs	r1, #0
 382              		.loc 1 172 8 view .LVU101
 383 002a 0446     		mov	r4, r0
 384              	.LVL19:
 385              		.loc 1 173 3 is_stmt 1 view .LVU102
 386              		.loc 1 174 3 view .LVU103
 387 002c FFF7FEFF 		bl	chSchWakeupS
 388              	.LVL20:
 389              		.loc 1 175 3 view .LVU104
 390              	.LBB95:
 391              	.LBI95:
 392              		.loc 2 358 20 view .LVU105
 393              	.LBB96:
 394              		.loc 2 360 22 view .LVU106
 395              		.loc 2 361 33 view .LVU107
 396              		.loc 2 367 3 view .LVU108
 397              		.loc 2 367 3 view .LVU109
 398              		.loc 2 371 3 view .LVU110
 399              	.LBB97:
ARM GAS  C:\Users\USER\AppData\Local\Temp\cciSBp8j.s 			page 8


 400              	.LBI97:
 401              		.loc 3 458 20 view .LVU111
 402              	.LBE97:
 403              	.LBE96:
 404              	.LBE95:
 405              		.loc 3 461 3 view .LVU112
 406              	.LBB102:
 407              	.LBB101:
 408              	.LBB100:
 409              	.LBB98:
 410              	.LBI98:
 411              		.loc 4 544 57 view .LVU113
 412              	.LBB99:
 413              		.loc 4 546 3 view .LVU114
 414 0030 0023     		movs	r3, #0
 415              		.syntax unified
 416              	@ 546 "src/ChibiOS_3.0.2/os/ext/CMSIS/include/core_cmFunc.h" 1
 417 0032 83F31188 		MSR basepri, r3
 418              	@ 0 "" 2
 419              	.LVL21:
 420              		.loc 4 546 3 is_stmt 0 view .LVU115
 421              		.thumb
 422              		.syntax unified
 423              	.LBE99:
 424              	.LBE98:
 425              	.LBE100:
 426              	.LBE101:
 427              	.LBE102:
 428              		.loc 1 177 3 is_stmt 1 view .LVU116
 429              		.loc 1 178 1 is_stmt 0 view .LVU117
 430 0036 2046     		mov	r0, r4
 431 0038 03B0     		add	sp, sp, #12
 432              		.cfi_remember_state
 433              		.cfi_def_cfa_offset 20
 434              		@ sp needed
 435 003a F0BD     		pop	{r4, r5, r6, r7, pc}
 436              	.LVL22:
 437              	.L12:
 438              		.cfi_restore_state
 439              		.loc 1 178 1 view .LVU118
 440 003c 0446     		mov	r4, r0
 441 003e 2046     		mov	r0, r4
 442              		.loc 1 178 1 view .LVU119
 443 0040 03B0     		add	sp, sp, #12
 444              		.cfi_def_cfa_offset 20
 445              		@ sp needed
 446 0042 F0BD     		pop	{r4, r5, r6, r7, pc}
 447              		.loc 1 178 1 view .LVU120
 448              		.cfi_endproc
 449              	.LFE221:
 450              		.size	chThdCreateFromHeap, .-chThdCreateFromHeap
 451              		.section	.text.chThdCreateFromMemoryPool,"ax",%progbits
 452              		.align	1
 453              		.p2align 4,,15
 454              		.global	chThdCreateFromMemoryPool
 455              		.syntax unified
 456              		.thumb
ARM GAS  C:\Users\USER\AppData\Local\Temp\cciSBp8j.s 			page 9


 457              		.thumb_func
 458              		.fpu fpv4-sp-d16
 459              		.type	chThdCreateFromMemoryPool, %function
 460              	chThdCreateFromMemoryPool:
 461              	.LVL23:
 462              	.LFB222:
 463              		.loc 1 205 60 is_stmt 1 view -0
 464              		.cfi_startproc
 465              		@ args = 0, pretend = 0, frame = 0
 466              		@ frame_needed = 0, uses_anonymous_args = 0
 467              		.loc 1 206 3 view .LVU122
 468              		.loc 1 207 3 view .LVU123
 469              		.loc 1 209 3 view .LVU124
 470              		.loc 1 209 3 view .LVU125
 471              		.loc 1 211 3 view .LVU126
 472              		.loc 1 205 60 is_stmt 0 view .LVU127
 473 0000 2DE9F041 		push	{r4, r5, r6, r7, r8, lr}
 474              		.cfi_def_cfa_offset 24
 475              		.cfi_offset 4, -24
 476              		.cfi_offset 5, -20
 477              		.cfi_offset 6, -16
 478              		.cfi_offset 7, -12
 479              		.cfi_offset 8, -8
 480              		.cfi_offset 14, -4
 481 0004 82B0     		sub	sp, sp, #8
 482              		.cfi_def_cfa_offset 32
 483              		.loc 1 205 60 view .LVU128
 484 0006 0E46     		mov	r6, r1
 485 0008 1746     		mov	r7, r2
 486 000a 9846     		mov	r8, r3
 487 000c 0546     		mov	r5, r0
 488              		.loc 1 211 9 view .LVU129
 489 000e FFF7FEFF 		bl	chPoolAlloc
 490              	.LVL24:
 491              		.loc 1 212 3 is_stmt 1 view .LVU130
 492              		.loc 1 212 6 is_stmt 0 view .LVU131
 493 0012 B8B1     		cbz	r0, .L17
 494              		.loc 1 225 3 is_stmt 1 view .LVU132
 495              	.LBB103:
 496              	.LBI103:
 497              		.loc 2 346 20 view .LVU133
 498              	.LBE103:
 499              		.loc 2 348 3 view .LVU134
 500              	.LBB108:
 501              	.LBB104:
 502              	.LBI104:
 503              		.loc 3 444 20 view .LVU135
 504              	.LBE104:
 505              	.LBE108:
 506              		.loc 3 447 3 view .LVU136
 507              	.LVL25:
 508              	.LBB109:
 509              	.LBB107:
 510              	.LBB105:
 511              	.LBI105:
 512              		.loc 4 544 57 view .LVU137
 513              	.LBB106:
ARM GAS  C:\Users\USER\AppData\Local\Temp\cciSBp8j.s 			page 10


 514              		.loc 4 546 3 view .LVU138
 515 0014 2023     		movs	r3, #32
 516              		.syntax unified
 517              	@ 546 "src/ChibiOS_3.0.2/os/ext/CMSIS/include/core_cmFunc.h" 1
 518 0016 83F31188 		MSR basepri, r3
 519              	@ 0 "" 2
 520              	.LVL26:
 521              		.loc 4 546 3 is_stmt 0 view .LVU139
 522              		.thumb
 523              		.syntax unified
 524              	.LBE106:
 525              	.LBE105:
 526              	.LBE107:
 527              	.LBE109:
 528              		.loc 2 349 34 is_stmt 1 view .LVU140
 529              		.loc 2 350 20 view .LVU141
 530              		.loc 1 226 3 view .LVU142
 531              		.loc 1 226 8 is_stmt 0 view .LVU143
 532 001a CDF80080 		str	r8, [sp]
 533 001e 3B46     		mov	r3, r7
 534 0020 3246     		mov	r2, r6
 535 0022 6968     		ldr	r1, [r5, #4]
 536 0024 FFF7FEFF 		bl	chThdCreateI
 537              	.LVL27:
 538              		.loc 1 227 15 view .LVU144
 539 0028 0223     		movs	r3, #2
 540 002a 4377     		strb	r3, [r0, #29]
 541              		.loc 1 228 15 view .LVU145
 542 002c 4564     		str	r5, [r0, #68]
 543              		.loc 1 229 3 view .LVU146
 544 002e 0021     		movs	r1, #0
 545              		.loc 1 226 8 view .LVU147
 546 0030 0446     		mov	r4, r0
 547              	.LVL28:
 548              		.loc 1 227 3 is_stmt 1 view .LVU148
 549              		.loc 1 228 3 view .LVU149
 550              		.loc 1 229 3 view .LVU150
 551 0032 FFF7FEFF 		bl	chSchWakeupS
 552              	.LVL29:
 553              		.loc 1 230 3 view .LVU151
 554              	.LBB110:
 555              	.LBI110:
 556              		.loc 2 358 20 view .LVU152
 557              	.LBB111:
 558              		.loc 2 360 22 view .LVU153
 559              		.loc 2 361 33 view .LVU154
 560              		.loc 2 367 3 view .LVU155
 561              		.loc 2 367 3 view .LVU156
 562              		.loc 2 371 3 view .LVU157
 563              	.LBB112:
 564              	.LBI112:
 565              		.loc 3 458 20 view .LVU158
 566              	.LBE112:
 567              	.LBE111:
 568              	.LBE110:
 569              		.loc 3 461 3 view .LVU159
 570              	.LBB117:
ARM GAS  C:\Users\USER\AppData\Local\Temp\cciSBp8j.s 			page 11


 571              	.LBB116:
 572              	.LBB115:
 573              	.LBB113:
 574              	.LBI113:
 575              		.loc 4 544 57 view .LVU160
 576              	.LBB114:
 577              		.loc 4 546 3 view .LVU161
 578 0036 0023     		movs	r3, #0
 579              		.syntax unified
 580              	@ 546 "src/ChibiOS_3.0.2/os/ext/CMSIS/include/core_cmFunc.h" 1
 581 0038 83F31188 		MSR basepri, r3
 582              	@ 0 "" 2
 583              	.LVL30:
 584              		.loc 4 546 3 is_stmt 0 view .LVU162
 585              		.thumb
 586              		.syntax unified
 587              	.LBE114:
 588              	.LBE113:
 589              	.LBE115:
 590              	.LBE116:
 591              	.LBE117:
 592              		.loc 1 232 3 is_stmt 1 view .LVU163
 593              		.loc 1 233 1 is_stmt 0 view .LVU164
 594 003c 2046     		mov	r0, r4
 595 003e 02B0     		add	sp, sp, #8
 596              		.cfi_remember_state
 597              		.cfi_def_cfa_offset 24
 598              		@ sp needed
 599 0040 BDE8F081 		pop	{r4, r5, r6, r7, r8, pc}
 600              	.LVL31:
 601              	.L17:
 602              		.cfi_restore_state
 603              		.loc 1 233 1 view .LVU165
 604 0044 0446     		mov	r4, r0
 605 0046 2046     		mov	r0, r4
 606              		.loc 1 233 1 view .LVU166
 607 0048 02B0     		add	sp, sp, #8
 608              		.cfi_def_cfa_offset 24
 609              		@ sp needed
 610 004a BDE8F081 		pop	{r4, r5, r6, r7, r8, pc}
 611              		.loc 1 233 1 view .LVU167
 612              		.cfi_endproc
 613              	.LFE222:
 614              		.size	chThdCreateFromMemoryPool, .-chThdCreateFromMemoryPool
 615 004e 00BF     		.text
 616              	.Letext0:
 617              		.file 5 "c:\\program files (x86)\\gnu tools arm embedded\\8 2018-q4-major\\lib\\gcc\\arm-none-eabi
 618              		.file 6 "c:\\program files (x86)\\gnu tools arm embedded\\8 2018-q4-major\\arm-none-eabi\\include\
 619              		.file 7 "c:\\program files (x86)\\gnu tools arm embedded\\8 2018-q4-major\\arm-none-eabi\\include\
 620              		.file 8 "src/ChibiOS_3.0.2/os/rt/ports/ARMCMx/compilers/GCC/chtypes.h"
 621              		.file 9 "src/ChibiOS_3.0.2/os/rt/include/chsystypes.h"
 622              		.file 10 "src/ChibiOS_3.0.2/os/rt/include/chschd.h"
 623              		.file 11 "src/ChibiOS_3.0.2/os/ext/CMSIS/include/core_cm4.h"
 624              		.file 12 "src/ChibiOS_3.0.2/os/ext/CMSIS/ST/system_stm32f4xx.h"
 625              		.file 13 "src/ChibiOS_3.0.2/os/rt/ports/ARMCMx/chcore.h"
 626              		.file 14 "src/ChibiOS_3.0.2/os/rt/include/chtm.h"
 627              		.file 15 "src/ChibiOS_3.0.2/os/rt/include/chsem.h"
ARM GAS  C:\Users\USER\AppData\Local\Temp\cciSBp8j.s 			page 12


 628              		.file 16 "src/ChibiOS_3.0.2/os/rt/include/chmtx.h"
 629              		.file 17 "src/ChibiOS_3.0.2/os/rt/include/chthreads.h"
 630              		.file 18 "src/ChibiOS_3.0.2/os/rt/include/chregistry.h"
 631              		.file 19 "src/ChibiOS_3.0.2/os/rt/include/chmemcore.h"
 632              		.file 20 "src/ChibiOS_3.0.2/os/rt/include/chheap.h"
 633              		.file 21 "src/ChibiOS_3.0.2/os/rt/include/chmempools.h"
 634              		.section	.debug_info,"",%progbits
 635              	.Ldebug_info0:
 636 0000 F50F0000 		.4byte	0xff5
 637 0004 0400     		.2byte	0x4
 638 0006 00000000 		.4byte	.Ldebug_abbrev0
 639 000a 04       		.byte	0x4
 640 000b 01       		.uleb128 0x1
 641 000c 0F020000 		.4byte	.LASF163
 642 0010 0C       		.byte	0xc
 643 0011 5D050000 		.4byte	.LASF164
 644 0015 8C070000 		.4byte	.LASF165
 645 0019 E8000000 		.4byte	.Ldebug_ranges0+0xe8
 646 001d 00000000 		.4byte	0
 647 0021 00000000 		.4byte	.Ldebug_line0
 648 0025 02       		.uleb128 0x2
 649 0026 04       		.byte	0x4
 650 0027 05       		.byte	0x5
 651 0028 696E7400 		.ascii	"int\000"
 652 002c 03       		.uleb128 0x3
 653 002d 15000000 		.4byte	.LASF2
 654 0031 05       		.byte	0x5
 655 0032 D8       		.byte	0xd8
 656 0033 17       		.byte	0x17
 657 0034 38000000 		.4byte	0x38
 658 0038 04       		.uleb128 0x4
 659 0039 04       		.byte	0x4
 660 003a 07       		.byte	0x7
 661 003b 66030000 		.4byte	.LASF0
 662 003f 04       		.uleb128 0x4
 663 0040 01       		.byte	0x1
 664 0041 06       		.byte	0x6
 665 0042 FE000000 		.4byte	.LASF1
 666 0046 03       		.uleb128 0x3
 667 0047 2C000000 		.4byte	.LASF3
 668 004b 06       		.byte	0x6
 669 004c 2B       		.byte	0x2b
 670 004d 18       		.byte	0x18
 671 004e 52000000 		.4byte	0x52
 672 0052 04       		.uleb128 0x4
 673 0053 01       		.byte	0x1
 674 0054 08       		.byte	0x8
 675 0055 9D050000 		.4byte	.LASF4
 676 0059 04       		.uleb128 0x4
 677 005a 02       		.byte	0x2
 678 005b 05       		.byte	0x5
 679 005c C1050000 		.4byte	.LASF5
 680 0060 03       		.uleb128 0x3
 681 0061 DA060000 		.4byte	.LASF6
 682 0065 06       		.byte	0x6
 683 0066 39       		.byte	0x39
 684 0067 19       		.byte	0x19
ARM GAS  C:\Users\USER\AppData\Local\Temp\cciSBp8j.s 			page 13


 685 0068 6C000000 		.4byte	0x6c
 686 006c 04       		.uleb128 0x4
 687 006d 02       		.byte	0x2
 688 006e 07       		.byte	0x7
 689 006f E0030000 		.4byte	.LASF7
 690 0073 03       		.uleb128 0x3
 691 0074 4D040000 		.4byte	.LASF8
 692 0078 06       		.byte	0x6
 693 0079 4D       		.byte	0x4d
 694 007a 18       		.byte	0x18
 695 007b 7F000000 		.4byte	0x7f
 696 007f 04       		.uleb128 0x4
 697 0080 04       		.byte	0x4
 698 0081 05       		.byte	0x5
 699 0082 82010000 		.4byte	.LASF9
 700 0086 03       		.uleb128 0x3
 701 0087 13070000 		.4byte	.LASF10
 702 008b 06       		.byte	0x6
 703 008c 4F       		.byte	0x4f
 704 008d 19       		.byte	0x19
 705 008e 92000000 		.4byte	0x92
 706 0092 04       		.uleb128 0x4
 707 0093 04       		.byte	0x4
 708 0094 07       		.byte	0x7
 709 0095 AC060000 		.4byte	.LASF11
 710 0099 04       		.uleb128 0x4
 711 009a 08       		.byte	0x8
 712 009b 05       		.byte	0x5
 713 009c F0000000 		.4byte	.LASF12
 714 00a0 03       		.uleb128 0x3
 715 00a1 13050000 		.4byte	.LASF13
 716 00a5 06       		.byte	0x6
 717 00a6 69       		.byte	0x69
 718 00a7 19       		.byte	0x19
 719 00a8 AC000000 		.4byte	0xac
 720 00ac 04       		.uleb128 0x4
 721 00ad 08       		.byte	0x8
 722 00ae 07       		.byte	0x7
 723 00af 68000000 		.4byte	.LASF14
 724 00b3 03       		.uleb128 0x3
 725 00b4 C9070000 		.4byte	.LASF15
 726 00b8 07       		.byte	0x7
 727 00b9 18       		.byte	0x18
 728 00ba 13       		.byte	0x13
 729 00bb 46000000 		.4byte	0x46
 730 00bf 03       		.uleb128 0x3
 731 00c0 7B030000 		.4byte	.LASF16
 732 00c4 07       		.byte	0x7
 733 00c5 24       		.byte	0x24
 734 00c6 14       		.byte	0x14
 735 00c7 60000000 		.4byte	0x60
 736 00cb 03       		.uleb128 0x3
 737 00cc 95050000 		.4byte	.LASF17
 738 00d0 07       		.byte	0x7
 739 00d1 2C       		.byte	0x2c
 740 00d2 13       		.byte	0x13
 741 00d3 73000000 		.4byte	0x73
ARM GAS  C:\Users\USER\AppData\Local\Temp\cciSBp8j.s 			page 14


 742 00d7 05       		.uleb128 0x5
 743 00d8 CB000000 		.4byte	0xcb
 744 00dc 03       		.uleb128 0x3
 745 00dd 72060000 		.4byte	.LASF18
 746 00e1 07       		.byte	0x7
 747 00e2 30       		.byte	0x30
 748 00e3 14       		.byte	0x14
 749 00e4 86000000 		.4byte	0x86
 750 00e8 03       		.uleb128 0x3
 751 00e9 23000000 		.4byte	.LASF19
 752 00ed 07       		.byte	0x7
 753 00ee 3C       		.byte	0x3c
 754 00ef 14       		.byte	0x14
 755 00f0 A0000000 		.4byte	0xa0
 756 00f4 03       		.uleb128 0x3
 757 00f5 8C040000 		.4byte	.LASF20
 758 00f9 08       		.byte	0x8
 759 00fa 45       		.byte	0x45
 760 00fb 1D       		.byte	0x1d
 761 00fc DC000000 		.4byte	0xdc
 762 0100 03       		.uleb128 0x3
 763 0101 F2050000 		.4byte	.LASF21
 764 0105 08       		.byte	0x8
 765 0106 48       		.byte	0x48
 766 0107 1D       		.byte	0x1d
 767 0108 B3000000 		.4byte	0xb3
 768 010c 03       		.uleb128 0x3
 769 010d 9F010000 		.4byte	.LASF22
 770 0111 08       		.byte	0x8
 771 0112 49       		.byte	0x49
 772 0113 1D       		.byte	0x1d
 773 0114 B3000000 		.4byte	0xb3
 774 0118 03       		.uleb128 0x3
 775 0119 26050000 		.4byte	.LASF23
 776 011d 08       		.byte	0x8
 777 011e 4A       		.byte	0x4a
 778 011f 1D       		.byte	0x1d
 779 0120 B3000000 		.4byte	0xb3
 780 0124 03       		.uleb128 0x3
 781 0125 5B010000 		.4byte	.LASF24
 782 0129 08       		.byte	0x8
 783 012a 4B       		.byte	0x4b
 784 012b 1D       		.byte	0x1d
 785 012c B3000000 		.4byte	0xb3
 786 0130 03       		.uleb128 0x3
 787 0131 55050000 		.4byte	.LASF25
 788 0135 08       		.byte	0x8
 789 0136 4C       		.byte	0x4c
 790 0137 1D       		.byte	0x1d
 791 0138 DC000000 		.4byte	0xdc
 792 013c 03       		.uleb128 0x3
 793 013d 15040000 		.4byte	.LASF26
 794 0141 08       		.byte	0x8
 795 0142 4D       		.byte	0x4d
 796 0143 1D       		.byte	0x1d
 797 0144 CB000000 		.4byte	0xcb
 798 0148 03       		.uleb128 0x3
ARM GAS  C:\Users\USER\AppData\Local\Temp\cciSBp8j.s 			page 15


 799 0149 41040000 		.4byte	.LASF27
 800 014d 08       		.byte	0x8
 801 014e 4F       		.byte	0x4f
 802 014f 1D       		.byte	0x1d
 803 0150 DC000000 		.4byte	0xdc
 804 0154 03       		.uleb128 0x3
 805 0155 60030000 		.4byte	.LASF28
 806 0159 08       		.byte	0x8
 807 015a 51       		.byte	0x51
 808 015b 1D       		.byte	0x1d
 809 015c CB000000 		.4byte	0xcb
 810 0160 03       		.uleb128 0x3
 811 0161 F5060000 		.4byte	.LASF29
 812 0165 09       		.byte	0x9
 813 0166 33       		.byte	0x33
 814 0167 12       		.byte	0x12
 815 0168 DC000000 		.4byte	0xdc
 816 016c 05       		.uleb128 0x5
 817 016d 60010000 		.4byte	0x160
 818 0171 03       		.uleb128 0x3
 819 0172 E5060000 		.4byte	.LASF30
 820 0176 09       		.byte	0x9
 821 0177 3F       		.byte	0x3f
 822 0178 1A       		.byte	0x1a
 823 0179 7D010000 		.4byte	0x17d
 824 017d 06       		.uleb128 0x6
 825 017e F3030000 		.4byte	.LASF52
 826 0182 48       		.byte	0x48
 827 0183 0A       		.byte	0xa
 828 0184 C2       		.byte	0xc2
 829 0185 08       		.byte	0x8
 830 0186 97020000 		.4byte	0x297
 831 018a 07       		.uleb128 0x7
 832 018b EB050000 		.4byte	.LASF31
 833 018f 0A       		.byte	0xa
 834 0190 C3       		.byte	0xc3
 835 0191 1A       		.byte	0x1a
 836 0192 A3020000 		.4byte	0x2a3
 837 0196 00       		.byte	0
 838 0197 07       		.uleb128 0x7
 839 0198 4E050000 		.4byte	.LASF32
 840 019c 0A       		.byte	0xa
 841 019d C5       		.byte	0xc5
 842 019e 1A       		.byte	0x1a
 843 019f A3020000 		.4byte	0x2a3
 844 01a3 04       		.byte	0x4
 845 01a4 07       		.uleb128 0x7
 846 01a5 DC000000 		.4byte	.LASF33
 847 01a9 0A       		.byte	0xa
 848 01aa C7       		.byte	0xc7
 849 01ab 19       		.byte	0x19
 850 01ac 30010000 		.4byte	0x130
 851 01b0 08       		.byte	0x8
 852 01b1 07       		.uleb128 0x7
 853 01b2 E0040000 		.4byte	.LASF34
 854 01b6 0A       		.byte	0xa
 855 01b7 C8       		.byte	0xc8
ARM GAS  C:\Users\USER\AppData\Local\Temp\cciSBp8j.s 			page 16


 856 01b8 19       		.byte	0x19
 857 01b9 0F050000 		.4byte	0x50f
 858 01bd 0C       		.byte	0xc
 859 01be 07       		.uleb128 0x7
 860 01bf C0010000 		.4byte	.LASF35
 861 01c3 0A       		.byte	0xa
 862 01c4 CA       		.byte	0xca
 863 01c5 1A       		.byte	0x1a
 864 01c6 A3020000 		.4byte	0x2a3
 865 01ca 10       		.byte	0x10
 866 01cb 07       		.uleb128 0x7
 867 01cc D2040000 		.4byte	.LASF36
 868 01d0 0A       		.byte	0xa
 869 01d1 CB       		.byte	0xcb
 870 01d2 1A       		.byte	0x1a
 871 01d3 A3020000 		.4byte	0x2a3
 872 01d7 14       		.byte	0x14
 873 01d8 07       		.uleb128 0x7
 874 01d9 0D080000 		.4byte	.LASF37
 875 01dd 0A       		.byte	0xa
 876 01de D2       		.byte	0xd2
 877 01df 1A       		.byte	0x1a
 878 01e0 82070000 		.4byte	0x782
 879 01e4 18       		.byte	0x18
 880 01e5 07       		.uleb128 0x7
 881 01e6 CB050000 		.4byte	.LASF38
 882 01ea 0A       		.byte	0xa
 883 01eb DD       		.byte	0xdd
 884 01ec 19       		.byte	0x19
 885 01ed 0C010000 		.4byte	0x10c
 886 01f1 1C       		.byte	0x1c
 887 01f2 07       		.uleb128 0x7
 888 01f3 09060000 		.4byte	.LASF39
 889 01f7 0A       		.byte	0xa
 890 01f8 E1       		.byte	0xe1
 891 01f9 19       		.byte	0x19
 892 01fa 00010000 		.4byte	0x100
 893 01fe 1D       		.byte	0x1d
 894 01ff 07       		.uleb128 0x7
 895 0200 85070000 		.4byte	.LASF40
 896 0204 0A       		.byte	0xa
 897 0205 E6       		.byte	0xe6
 898 0206 19       		.byte	0x19
 899 0207 18010000 		.4byte	0x118
 900 020b 1E       		.byte	0x1e
 901 020c 07       		.uleb128 0x7
 902 020d D3050000 		.4byte	.LASF41
 903 0211 0A       		.byte	0xa
 904 0212 EC       		.byte	0xec
 905 0213 19       		.byte	0x19
 906 0214 24010000 		.4byte	0x124
 907 0218 1F       		.byte	0x1f
 908 0219 07       		.uleb128 0x7
 909 021a 94030000 		.4byte	.LASF42
 910 021e 0A       		.byte	0xa
 911 021f F3       		.byte	0xf3
 912 0220 19       		.byte	0x19
ARM GAS  C:\Users\USER\AppData\Local\Temp\cciSBp8j.s 			page 17


 913 0221 6C010000 		.4byte	0x16c
 914 0225 20       		.byte	0x20
 915 0226 08       		.uleb128 0x8
 916 0227 705F7500 		.ascii	"p_u\000"
 917 022b 0A       		.byte	0xa
 918 022c 3101     		.2byte	0x131
 919 022e 19       		.byte	0x19
 920 022f AE060000 		.4byte	0x6ae
 921 0233 24       		.byte	0x24
 922 0234 09       		.uleb128 0x9
 923 0235 82040000 		.4byte	.LASF43
 924 0239 0A       		.byte	0xa
 925 023a 3601     		.2byte	0x136
 926 023c 19       		.byte	0x19
 927 023d A9020000 		.4byte	0x2a9
 928 0241 28       		.byte	0x28
 929 0242 09       		.uleb128 0x9
 930 0243 B8030000 		.4byte	.LASF44
 931 0247 0A       		.byte	0xa
 932 0248 3C01     		.2byte	0x13c
 933 024a 19       		.byte	0x19
 934 024b D0020000 		.4byte	0x2d0
 935 024f 2C       		.byte	0x2c
 936 0250 09       		.uleb128 0x9
 937 0251 D4060000 		.4byte	.LASF45
 938 0255 0A       		.byte	0xa
 939 0256 4001     		.2byte	0x140
 940 0258 19       		.byte	0x19
 941 0259 3C010000 		.4byte	0x13c
 942 025d 34       		.byte	0x34
 943 025e 09       		.uleb128 0x9
 944 025f 67060000 		.4byte	.LASF46
 945 0263 0A       		.byte	0xa
 946 0264 4601     		.2byte	0x146
 947 0266 19       		.byte	0x19
 948 0267 48010000 		.4byte	0x148
 949 026b 38       		.byte	0x38
 950 026c 09       		.uleb128 0x9
 951 026d B7050000 		.4byte	.LASF47
 952 0271 0A       		.byte	0xa
 953 0272 4D01     		.2byte	0x14d
 954 0274 1A       		.byte	0x1a
 955 0275 7C070000 		.4byte	0x77c
 956 0279 3C       		.byte	0x3c
 957 027a 09       		.uleb128 0x9
 958 027b FF060000 		.4byte	.LASF48
 959 027f 0A       		.byte	0xa
 960 0280 5101     		.2byte	0x151
 961 0282 19       		.byte	0x19
 962 0283 30010000 		.4byte	0x130
 963 0287 40       		.byte	0x40
 964 0288 09       		.uleb128 0x9
 965 0289 2D010000 		.4byte	.LASF49
 966 028d 0A       		.byte	0xa
 967 028e 5801     		.2byte	0x158
 968 0290 1A       		.byte	0x1a
 969 0291 90030000 		.4byte	0x390
ARM GAS  C:\Users\USER\AppData\Local\Temp\cciSBp8j.s 			page 18


 970 0295 44       		.byte	0x44
 971 0296 00       		.byte	0
 972 0297 03       		.uleb128 0x3
 973 0298 F3070000 		.4byte	.LASF50
 974 029c 09       		.byte	0x9
 975 029d 44       		.byte	0x44
 976 029e 14       		.byte	0x14
 977 029f A3020000 		.4byte	0x2a3
 978 02a3 0A       		.uleb128 0xa
 979 02a4 04       		.byte	0x4
 980 02a5 71010000 		.4byte	0x171
 981 02a9 03       		.uleb128 0x3
 982 02aa C3040000 		.4byte	.LASF51
 983 02ae 09       		.byte	0x9
 984 02af 49       		.byte	0x49
 985 02b0 20       		.byte	0x20
 986 02b1 B5020000 		.4byte	0x2b5
 987 02b5 06       		.uleb128 0x6
 988 02b6 8F060000 		.4byte	.LASF53
 989 02ba 04       		.byte	0x4
 990 02bb 0A       		.byte	0xa
 991 02bc B0       		.byte	0xb0
 992 02bd 08       		.byte	0x8
 993 02be D0020000 		.4byte	0x2d0
 994 02c2 07       		.uleb128 0x7
 995 02c3 EB050000 		.4byte	.LASF31
 996 02c7 0A       		.byte	0xa
 997 02c8 B1       		.byte	0xb1
 998 02c9 1A       		.byte	0x1a
 999 02ca A3020000 		.4byte	0x2a3
 1000 02ce 00       		.byte	0
 1001 02cf 00       		.byte	0
 1002 02d0 03       		.uleb128 0x3
 1003 02d1 31060000 		.4byte	.LASF54
 1004 02d5 09       		.byte	0x9
 1005 02d6 50       		.byte	0x50
 1006 02d7 21       		.byte	0x21
 1007 02d8 DC020000 		.4byte	0x2dc
 1008 02dc 06       		.uleb128 0x6
 1009 02dd CB000000 		.4byte	.LASF55
 1010 02e1 08       		.byte	0x8
 1011 02e2 0A       		.byte	0xa
 1012 02e3 B7       		.byte	0xb7
 1013 02e4 08       		.byte	0x8
 1014 02e5 04030000 		.4byte	0x304
 1015 02e9 07       		.uleb128 0x7
 1016 02ea EB050000 		.4byte	.LASF31
 1017 02ee 0A       		.byte	0xa
 1018 02ef B8       		.byte	0xb8
 1019 02f0 1A       		.byte	0x1a
 1020 02f1 A3020000 		.4byte	0x2a3
 1021 02f5 00       		.byte	0
 1022 02f6 07       		.uleb128 0x7
 1023 02f7 4E050000 		.4byte	.LASF32
 1024 02fb 0A       		.byte	0xa
 1025 02fc B9       		.byte	0xb9
 1026 02fd 1A       		.byte	0x1a
ARM GAS  C:\Users\USER\AppData\Local\Temp\cciSBp8j.s 			page 19


 1027 02fe A3020000 		.4byte	0x2a3
 1028 0302 04       		.byte	0x4
 1029 0303 00       		.byte	0
 1030 0304 03       		.uleb128 0x3
 1031 0305 08000000 		.4byte	.LASF56
 1032 0309 09       		.byte	0x9
 1033 030a 57       		.byte	0x57
 1034 030b 1E       		.byte	0x1e
 1035 030c 10030000 		.4byte	0x310
 1036 0310 0B       		.uleb128 0xb
 1037 0311 33040000 		.4byte	.LASF57
 1038 0315 1C       		.byte	0x1c
 1039 0316 0A       		.byte	0xa
 1040 0317 9001     		.2byte	0x190
 1041 0319 08       		.byte	0x8
 1042 031a 73030000 		.4byte	0x373
 1043 031e 09       		.uleb128 0x9
 1044 031f 87060000 		.4byte	.LASF58
 1045 0323 0A       		.byte	0xa
 1046 0324 9101     		.2byte	0x191
 1047 0326 19       		.byte	0x19
 1048 0327 D0020000 		.4byte	0x2d0
 1049 032b 00       		.byte	0
 1050 032c 09       		.uleb128 0x9
 1051 032d DD050000 		.4byte	.LASF59
 1052 0331 0A       		.byte	0xa
 1053 0332 9201     		.2byte	0x192
 1054 0334 19       		.byte	0x19
 1055 0335 30010000 		.4byte	0x130
 1056 0339 08       		.byte	0x8
 1057 033a 09       		.uleb128 0x9
 1058 033b DA040000 		.4byte	.LASF60
 1059 033f 0A       		.byte	0xa
 1060 0340 9401     		.2byte	0x194
 1061 0342 19       		.byte	0x19
 1062 0343 0F050000 		.4byte	0x50f
 1063 0347 0C       		.byte	0xc
 1064 0348 09       		.uleb128 0x9
 1065 0349 EA010000 		.4byte	.LASF61
 1066 034d 0A       		.byte	0xa
 1067 034e 9701     		.2byte	0x197
 1068 0350 1A       		.byte	0x1a
 1069 0351 A3020000 		.4byte	0x2a3
 1070 0355 10       		.byte	0x10
 1071 0356 09       		.uleb128 0x9
 1072 0357 0B050000 		.4byte	.LASF62
 1073 035b 0A       		.byte	0xa
 1074 035c 9801     		.2byte	0x198
 1075 035e 1A       		.byte	0x1a
 1076 035f A3020000 		.4byte	0x2a3
 1077 0363 14       		.byte	0x14
 1078 0364 09       		.uleb128 0x9
 1079 0365 BE060000 		.4byte	.LASF63
 1080 0369 0A       		.byte	0xa
 1081 036a 9B01     		.2byte	0x19b
 1082 036c 1A       		.byte	0x1a
 1083 036d A3020000 		.4byte	0x2a3
ARM GAS  C:\Users\USER\AppData\Local\Temp\cciSBp8j.s 			page 20


 1084 0371 18       		.byte	0x18
 1085 0372 00       		.byte	0
 1086 0373 03       		.uleb128 0x3
 1087 0374 0A070000 		.4byte	.LASF64
 1088 0378 09       		.byte	0x9
 1089 0379 5C       		.byte	0x5c
 1090 037a 10       		.byte	0x10
 1091 037b 7F030000 		.4byte	0x37f
 1092 037f 0A       		.uleb128 0xa
 1093 0380 04       		.byte	0x4
 1094 0381 85030000 		.4byte	0x385
 1095 0385 0C       		.uleb128 0xc
 1096 0386 90030000 		.4byte	0x390
 1097 038a 0D       		.uleb128 0xd
 1098 038b 90030000 		.4byte	0x390
 1099 038f 00       		.byte	0
 1100 0390 0E       		.uleb128 0xe
 1101 0391 04       		.byte	0x4
 1102 0392 03       		.uleb128 0x3
 1103 0393 3E050000 		.4byte	.LASF65
 1104 0397 09       		.byte	0x9
 1105 0398 61       		.byte	0x61
 1106 0399 21       		.byte	0x21
 1107 039a 9E030000 		.4byte	0x39e
 1108 039e 0B       		.uleb128 0xb
 1109 039f 56070000 		.4byte	.LASF66
 1110 03a3 14       		.byte	0x14
 1111 03a4 0A       		.byte	0xa
 1112 03a5 6B01     		.2byte	0x16b
 1113 03a7 08       		.byte	0x8
 1114 03a8 F3030000 		.4byte	0x3f3
 1115 03ac 09       		.uleb128 0x9
 1116 03ad 73030000 		.4byte	.LASF67
 1117 03b1 0A       		.byte	0xa
 1118 03b2 6C01     		.2byte	0x16c
 1119 03b4 1A       		.byte	0x1a
 1120 03b5 99070000 		.4byte	0x799
 1121 03b9 00       		.byte	0
 1122 03ba 09       		.uleb128 0x9
 1123 03bb 07020000 		.4byte	.LASF68
 1124 03bf 0A       		.byte	0xa
 1125 03c0 6D01     		.2byte	0x16d
 1126 03c2 1A       		.byte	0x1a
 1127 03c3 99070000 		.4byte	0x799
 1128 03c7 04       		.byte	0x4
 1129 03c8 09       		.uleb128 0x9
 1130 03c9 AF030000 		.4byte	.LASF69
 1131 03cd 0A       		.byte	0xa
 1132 03ce 6E01     		.2byte	0x16e
 1133 03d0 19       		.byte	0x19
 1134 03d1 60010000 		.4byte	0x160
 1135 03d5 08       		.byte	0x8
 1136 03d6 09       		.uleb128 0x9
 1137 03d7 51080000 		.4byte	.LASF70
 1138 03db 0A       		.byte	0xa
 1139 03dc 6F01     		.2byte	0x16f
 1140 03de 19       		.byte	0x19
ARM GAS  C:\Users\USER\AppData\Local\Temp\cciSBp8j.s 			page 21


 1141 03df 73030000 		.4byte	0x373
 1142 03e3 0C       		.byte	0xc
 1143 03e4 09       		.uleb128 0x9
 1144 03e5 67070000 		.4byte	.LASF71
 1145 03e9 0A       		.byte	0xa
 1146 03ea 7101     		.2byte	0x171
 1147 03ec 1A       		.byte	0x1a
 1148 03ed 90030000 		.4byte	0x390
 1149 03f1 10       		.byte	0x10
 1150 03f2 00       		.byte	0
 1151 03f3 03       		.uleb128 0x3
 1152 03f4 9D000000 		.4byte	.LASF72
 1153 03f8 09       		.byte	0x9
 1154 03f9 66       		.byte	0x66
 1155 03fa 28       		.byte	0x28
 1156 03fb FF030000 		.4byte	0x3ff
 1157 03ff 0B       		.uleb128 0xb
 1158 0400 94040000 		.4byte	.LASF73
 1159 0404 10       		.byte	0x10
 1160 0405 0A       		.byte	0xa
 1161 0406 7B01     		.2byte	0x17b
 1162 0408 08       		.byte	0x8
 1163 0409 46040000 		.4byte	0x446
 1164 040d 09       		.uleb128 0x9
 1165 040e 73030000 		.4byte	.LASF67
 1166 0412 0A       		.byte	0xa
 1167 0413 7C01     		.2byte	0x17c
 1168 0415 1A       		.byte	0x1a
 1169 0416 99070000 		.4byte	0x799
 1170 041a 00       		.byte	0
 1171 041b 09       		.uleb128 0x9
 1172 041c 07020000 		.4byte	.LASF68
 1173 0420 0A       		.byte	0xa
 1174 0421 7E01     		.2byte	0x17e
 1175 0423 1A       		.byte	0x1a
 1176 0424 99070000 		.4byte	0x799
 1177 0428 04       		.byte	0x4
 1178 0429 09       		.uleb128 0x9
 1179 042a AF030000 		.4byte	.LASF69
 1180 042e 0A       		.byte	0xa
 1181 042f 8001     		.2byte	0x180
 1182 0431 19       		.byte	0x19
 1183 0432 60010000 		.4byte	0x160
 1184 0436 08       		.byte	0x8
 1185 0437 09       		.uleb128 0x9
 1186 0438 19080000 		.4byte	.LASF74
 1187 043c 0A       		.byte	0xa
 1188 043d 8201     		.2byte	0x182
 1189 043f 19       		.byte	0x19
 1190 0440 6C010000 		.4byte	0x16c
 1191 0444 0C       		.byte	0xc
 1192 0445 00       		.byte	0
 1193 0446 03       		.uleb128 0x3
 1194 0447 42000000 		.4byte	.LASF75
 1195 044b 09       		.byte	0x9
 1196 044c 6B       		.byte	0x6b
 1197 044d 20       		.byte	0x20
ARM GAS  C:\Users\USER\AppData\Local\Temp\cciSBp8j.s 			page 22


 1198 044e 52040000 		.4byte	0x452
 1199 0452 0B       		.uleb128 0xb
 1200 0453 85050000 		.4byte	.LASF76
 1201 0457 04       		.byte	0x4
 1202 0458 0A       		.byte	0xa
 1203 0459 A201     		.2byte	0x1a2
 1204 045b 08       		.byte	0x8
 1205 045c 6F040000 		.4byte	0x46f
 1206 0460 09       		.uleb128 0x9
 1207 0461 2C070000 		.4byte	.LASF77
 1208 0465 0A       		.byte	0xa
 1209 0466 AA01     		.2byte	0x1aa
 1210 0468 24       		.byte	0x24
 1211 0469 88070000 		.4byte	0x788
 1212 046d 00       		.byte	0
 1213 046e 00       		.byte	0
 1214 046f 03       		.uleb128 0x3
 1215 0470 1B040000 		.4byte	.LASF78
 1216 0474 09       		.byte	0x9
 1217 0475 70       		.byte	0x70
 1218 0476 1A       		.byte	0x1a
 1219 0477 7B040000 		.4byte	0x47b
 1220 047b 0F       		.uleb128 0xf
 1221 047c 78010000 		.4byte	.LASF79
 1222 0480 5802     		.2byte	0x258
 1223 0482 0A       		.byte	0xa
 1224 0483 C201     		.2byte	0x1c2
 1225 0485 08       		.byte	0x8
 1226 0486 DE040000 		.4byte	0x4de
 1227 048a 09       		.uleb128 0x9
 1228 048b C3070000 		.4byte	.LASF80
 1229 048f 0A       		.byte	0xa
 1230 0490 C601     		.2byte	0x1c6
 1231 0492 19       		.byte	0x19
 1232 0493 04030000 		.4byte	0x304
 1233 0497 00       		.byte	0
 1234 0498 09       		.uleb128 0x9
 1235 0499 48010000 		.4byte	.LASF81
 1236 049d 0A       		.byte	0xa
 1237 049e CA01     		.2byte	0x1ca
 1238 04a0 19       		.byte	0x19
 1239 04a1 F3030000 		.4byte	0x3f3
 1240 04a5 1C       		.byte	0x1c
 1241 04a6 08       		.uleb128 0x8
 1242 04a7 64626700 		.ascii	"dbg\000"
 1243 04ab 0A       		.byte	0xa
 1244 04ac CE01     		.2byte	0x1ce
 1245 04ae 19       		.byte	0x19
 1246 04af 46040000 		.4byte	0x446
 1247 04b3 2C       		.byte	0x2c
 1248 04b4 09       		.uleb128 0x9
 1249 04b5 0A040000 		.4byte	.LASF82
 1250 04b9 0A       		.byte	0xa
 1251 04ba D201     		.2byte	0x1d2
 1252 04bc 19       		.byte	0x19
 1253 04bd 71010000 		.4byte	0x171
 1254 04c1 30       		.byte	0x30
ARM GAS  C:\Users\USER\AppData\Local\Temp\cciSBp8j.s 			page 23


 1255 04c2 08       		.uleb128 0x8
 1256 04c3 746D00   		.ascii	"tm\000"
 1257 04c6 0A       		.byte	0xa
 1258 04c7 D701     		.2byte	0x1d7
 1259 04c9 19       		.byte	0x19
 1260 04ca A2060000 		.4byte	0x6a2
 1261 04ce 78       		.byte	0x78
 1262 04cf 09       		.uleb128 0x9
 1263 04d0 51030000 		.4byte	.LASF83
 1264 04d4 0A       		.byte	0xa
 1265 04d5 E301     		.2byte	0x1e3
 1266 04d7 03       		.byte	0x3
 1267 04d8 9F070000 		.4byte	0x79f
 1268 04dc 80       		.byte	0x80
 1269 04dd 00       		.byte	0
 1270 04de 10       		.uleb128 0x10
 1271 04df B3000000 		.4byte	.LASF84
 1272 04e3 0B       		.byte	0xb
 1273 04e4 A706     		.2byte	0x6a7
 1274 04e6 19       		.byte	0x19
 1275 04e7 D7000000 		.4byte	0xd7
 1276 04eb 11       		.uleb128 0x11
 1277 04ec 84030000 		.4byte	.LASF85
 1278 04f0 0C       		.byte	0xc
 1279 04f1 4C       		.byte	0x4c
 1280 04f2 11       		.byte	0x11
 1281 04f3 DC000000 		.4byte	0xdc
 1282 04f7 03       		.uleb128 0x3
 1283 04f8 FE010000 		.4byte	.LASF86
 1284 04fc 0D       		.byte	0xd
 1285 04fd 65       		.byte	0x65
 1286 04fe 0F       		.byte	0xf
 1287 04ff 90030000 		.4byte	0x390
 1288 0503 03       		.uleb128 0x3
 1289 0504 63040000 		.4byte	.LASF87
 1290 0508 0D       		.byte	0xd
 1291 0509 6D       		.byte	0x6d
 1292 050a 12       		.byte	0x12
 1293 050b E8000000 		.4byte	0xe8
 1294 050f 06       		.uleb128 0x6
 1295 0510 4E070000 		.4byte	.LASF88
 1296 0514 04       		.byte	0x4
 1297 0515 0D       		.byte	0xd
 1298 0516 89       		.byte	0x89
 1299 0517 08       		.byte	0x8
 1300 0518 2A050000 		.4byte	0x52a
 1301 051c 12       		.uleb128 0x12
 1302 051d 72313300 		.ascii	"r13\000"
 1303 0521 0D       		.byte	0xd
 1304 0522 8A       		.byte	0x8a
 1305 0523 17       		.byte	0x17
 1306 0524 85060000 		.4byte	0x685
 1307 0528 00       		.byte	0
 1308 0529 00       		.byte	0
 1309 052a 06       		.uleb128 0x6
 1310 052b 36000000 		.4byte	.LASF89
 1311 052f 64       		.byte	0x64
ARM GAS  C:\Users\USER\AppData\Local\Temp\cciSBp8j.s 			page 24


 1312 0530 03       		.byte	0x3
 1313 0531 F4       		.byte	0xf4
 1314 0532 08       		.byte	0x8
 1315 0533 85060000 		.4byte	0x685
 1316 0537 12       		.uleb128 0x12
 1317 0538 73313600 		.ascii	"s16\000"
 1318 053c 03       		.byte	0x3
 1319 053d F6       		.byte	0xf6
 1320 053e 11       		.byte	0x11
 1321 053f F7040000 		.4byte	0x4f7
 1322 0543 00       		.byte	0
 1323 0544 12       		.uleb128 0x12
 1324 0545 73313700 		.ascii	"s17\000"
 1325 0549 03       		.byte	0x3
 1326 054a F7       		.byte	0xf7
 1327 054b 11       		.byte	0x11
 1328 054c F7040000 		.4byte	0x4f7
 1329 0550 04       		.byte	0x4
 1330 0551 12       		.uleb128 0x12
 1331 0552 73313800 		.ascii	"s18\000"
 1332 0556 03       		.byte	0x3
 1333 0557 F8       		.byte	0xf8
 1334 0558 11       		.byte	0x11
 1335 0559 F7040000 		.4byte	0x4f7
 1336 055d 08       		.byte	0x8
 1337 055e 12       		.uleb128 0x12
 1338 055f 73313900 		.ascii	"s19\000"
 1339 0563 03       		.byte	0x3
 1340 0564 F9       		.byte	0xf9
 1341 0565 11       		.byte	0x11
 1342 0566 F7040000 		.4byte	0x4f7
 1343 056a 0C       		.byte	0xc
 1344 056b 12       		.uleb128 0x12
 1345 056c 73323000 		.ascii	"s20\000"
 1346 0570 03       		.byte	0x3
 1347 0571 FA       		.byte	0xfa
 1348 0572 11       		.byte	0x11
 1349 0573 F7040000 		.4byte	0x4f7
 1350 0577 10       		.byte	0x10
 1351 0578 12       		.uleb128 0x12
 1352 0579 73323100 		.ascii	"s21\000"
 1353 057d 03       		.byte	0x3
 1354 057e FB       		.byte	0xfb
 1355 057f 11       		.byte	0x11
 1356 0580 F7040000 		.4byte	0x4f7
 1357 0584 14       		.byte	0x14
 1358 0585 12       		.uleb128 0x12
 1359 0586 73323200 		.ascii	"s22\000"
 1360 058a 03       		.byte	0x3
 1361 058b FC       		.byte	0xfc
 1362 058c 11       		.byte	0x11
 1363 058d F7040000 		.4byte	0x4f7
 1364 0591 18       		.byte	0x18
 1365 0592 12       		.uleb128 0x12
 1366 0593 73323300 		.ascii	"s23\000"
 1367 0597 03       		.byte	0x3
 1368 0598 FD       		.byte	0xfd
ARM GAS  C:\Users\USER\AppData\Local\Temp\cciSBp8j.s 			page 25


 1369 0599 11       		.byte	0x11
 1370 059a F7040000 		.4byte	0x4f7
 1371 059e 1C       		.byte	0x1c
 1372 059f 12       		.uleb128 0x12
 1373 05a0 73323400 		.ascii	"s24\000"
 1374 05a4 03       		.byte	0x3
 1375 05a5 FE       		.byte	0xfe
 1376 05a6 11       		.byte	0x11
 1377 05a7 F7040000 		.4byte	0x4f7
 1378 05ab 20       		.byte	0x20
 1379 05ac 12       		.uleb128 0x12
 1380 05ad 73323500 		.ascii	"s25\000"
 1381 05b1 03       		.byte	0x3
 1382 05b2 FF       		.byte	0xff
 1383 05b3 11       		.byte	0x11
 1384 05b4 F7040000 		.4byte	0x4f7
 1385 05b8 24       		.byte	0x24
 1386 05b9 08       		.uleb128 0x8
 1387 05ba 73323600 		.ascii	"s26\000"
 1388 05be 03       		.byte	0x3
 1389 05bf 0001     		.2byte	0x100
 1390 05c1 11       		.byte	0x11
 1391 05c2 F7040000 		.4byte	0x4f7
 1392 05c6 28       		.byte	0x28
 1393 05c7 08       		.uleb128 0x8
 1394 05c8 73323700 		.ascii	"s27\000"
 1395 05cc 03       		.byte	0x3
 1396 05cd 0101     		.2byte	0x101
 1397 05cf 11       		.byte	0x11
 1398 05d0 F7040000 		.4byte	0x4f7
 1399 05d4 2C       		.byte	0x2c
 1400 05d5 08       		.uleb128 0x8
 1401 05d6 73323800 		.ascii	"s28\000"
 1402 05da 03       		.byte	0x3
 1403 05db 0201     		.2byte	0x102
 1404 05dd 11       		.byte	0x11
 1405 05de F7040000 		.4byte	0x4f7
 1406 05e2 30       		.byte	0x30
 1407 05e3 08       		.uleb128 0x8
 1408 05e4 73323900 		.ascii	"s29\000"
 1409 05e8 03       		.byte	0x3
 1410 05e9 0301     		.2byte	0x103
 1411 05eb 11       		.byte	0x11
 1412 05ec F7040000 		.4byte	0x4f7
 1413 05f0 34       		.byte	0x34
 1414 05f1 08       		.uleb128 0x8
 1415 05f2 73333000 		.ascii	"s30\000"
 1416 05f6 03       		.byte	0x3
 1417 05f7 0401     		.2byte	0x104
 1418 05f9 11       		.byte	0x11
 1419 05fa F7040000 		.4byte	0x4f7
 1420 05fe 38       		.byte	0x38
 1421 05ff 08       		.uleb128 0x8
 1422 0600 73333100 		.ascii	"s31\000"
 1423 0604 03       		.byte	0x3
 1424 0605 0501     		.2byte	0x105
 1425 0607 11       		.byte	0x11
ARM GAS  C:\Users\USER\AppData\Local\Temp\cciSBp8j.s 			page 26


 1426 0608 F7040000 		.4byte	0x4f7
 1427 060c 3C       		.byte	0x3c
 1428 060d 08       		.uleb128 0x8
 1429 060e 723400   		.ascii	"r4\000"
 1430 0611 03       		.byte	0x3
 1431 0612 0701     		.2byte	0x107
 1432 0614 11       		.byte	0x11
 1433 0615 F7040000 		.4byte	0x4f7
 1434 0619 40       		.byte	0x40
 1435 061a 08       		.uleb128 0x8
 1436 061b 723500   		.ascii	"r5\000"
 1437 061e 03       		.byte	0x3
 1438 061f 0801     		.2byte	0x108
 1439 0621 11       		.byte	0x11
 1440 0622 F7040000 		.4byte	0x4f7
 1441 0626 44       		.byte	0x44
 1442 0627 08       		.uleb128 0x8
 1443 0628 723600   		.ascii	"r6\000"
 1444 062b 03       		.byte	0x3
 1445 062c 0901     		.2byte	0x109
 1446 062e 11       		.byte	0x11
 1447 062f F7040000 		.4byte	0x4f7
 1448 0633 48       		.byte	0x48
 1449 0634 08       		.uleb128 0x8
 1450 0635 723700   		.ascii	"r7\000"
 1451 0638 03       		.byte	0x3
 1452 0639 0A01     		.2byte	0x10a
 1453 063b 11       		.byte	0x11
 1454 063c F7040000 		.4byte	0x4f7
 1455 0640 4C       		.byte	0x4c
 1456 0641 08       		.uleb128 0x8
 1457 0642 723800   		.ascii	"r8\000"
 1458 0645 03       		.byte	0x3
 1459 0646 0B01     		.2byte	0x10b
 1460 0648 11       		.byte	0x11
 1461 0649 F7040000 		.4byte	0x4f7
 1462 064d 50       		.byte	0x50
 1463 064e 08       		.uleb128 0x8
 1464 064f 723900   		.ascii	"r9\000"
 1465 0652 03       		.byte	0x3
 1466 0653 0C01     		.2byte	0x10c
 1467 0655 11       		.byte	0x11
 1468 0656 F7040000 		.4byte	0x4f7
 1469 065a 54       		.byte	0x54
 1470 065b 08       		.uleb128 0x8
 1471 065c 72313000 		.ascii	"r10\000"
 1472 0660 03       		.byte	0x3
 1473 0661 0D01     		.2byte	0x10d
 1474 0663 11       		.byte	0x11
 1475 0664 F7040000 		.4byte	0x4f7
 1476 0668 58       		.byte	0x58
 1477 0669 08       		.uleb128 0x8
 1478 066a 72313100 		.ascii	"r11\000"
 1479 066e 03       		.byte	0x3
 1480 066f 0E01     		.2byte	0x10e
 1481 0671 11       		.byte	0x11
 1482 0672 F7040000 		.4byte	0x4f7
ARM GAS  C:\Users\USER\AppData\Local\Temp\cciSBp8j.s 			page 27


 1483 0676 5C       		.byte	0x5c
 1484 0677 08       		.uleb128 0x8
 1485 0678 6C7200   		.ascii	"lr\000"
 1486 067b 03       		.byte	0x3
 1487 067c 0F01     		.2byte	0x10f
 1488 067e 11       		.byte	0x11
 1489 067f F7040000 		.4byte	0x4f7
 1490 0683 60       		.byte	0x60
 1491 0684 00       		.byte	0
 1492 0685 0A       		.uleb128 0xa
 1493 0686 04       		.byte	0x4
 1494 0687 2A050000 		.4byte	0x52a
 1495 068b 13       		.uleb128 0x13
 1496 068c 04       		.byte	0x4
 1497 068d 0E       		.byte	0xe
 1498 068e 38       		.byte	0x38
 1499 068f 09       		.byte	0x9
 1500 0690 A2060000 		.4byte	0x6a2
 1501 0694 07       		.uleb128 0x7
 1502 0695 36070000 		.4byte	.LASF90
 1503 0699 0E       		.byte	0xe
 1504 069a 3C       		.byte	0x3c
 1505 069b 19       		.byte	0x19
 1506 069c F4000000 		.4byte	0xf4
 1507 06a0 00       		.byte	0
 1508 06a1 00       		.byte	0
 1509 06a2 03       		.uleb128 0x3
 1510 06a3 F5040000 		.4byte	.LASF91
 1511 06a7 0E       		.byte	0xe
 1512 06a8 3D       		.byte	0x3d
 1513 06a9 03       		.byte	0x3
 1514 06aa 8B060000 		.4byte	0x68b
 1515 06ae 14       		.uleb128 0x14
 1516 06af 04       		.byte	0x4
 1517 06b0 0A       		.byte	0xa
 1518 06b1 FA       		.byte	0xfa
 1519 06b2 03       		.byte	0x3
 1520 06b3 13070000 		.4byte	0x713
 1521 06b7 15       		.uleb128 0x15
 1522 06b8 1C000000 		.4byte	.LASF92
 1523 06bc 0A       		.byte	0xa
 1524 06bd 0101     		.2byte	0x101
 1525 06bf 19       		.byte	0x19
 1526 06c0 3C010000 		.4byte	0x13c
 1527 06c4 15       		.uleb128 0x15
 1528 06c5 8D000000 		.4byte	.LASF93
 1529 06c9 0A       		.byte	0xa
 1530 06ca 0801     		.2byte	0x108
 1531 06cc 19       		.byte	0x19
 1532 06cd 3C010000 		.4byte	0x13c
 1533 06d1 15       		.uleb128 0x15
 1534 06d2 06080000 		.4byte	.LASF94
 1535 06d6 0A       		.byte	0xa
 1536 06d7 0F01     		.2byte	0x10f
 1537 06d9 1A       		.byte	0x1a
 1538 06da 90030000 		.4byte	0x390
 1539 06de 15       		.uleb128 0x15
ARM GAS  C:\Users\USER\AppData\Local\Temp\cciSBp8j.s 			page 28


 1540 06df 72010000 		.4byte	.LASF95
 1541 06e3 0A       		.byte	0xa
 1542 06e4 1601     		.2byte	0x116
 1543 06e6 1A       		.byte	0x1a
 1544 06e7 13070000 		.4byte	0x713
 1545 06eb 15       		.uleb128 0x15
 1546 06ec 9B030000 		.4byte	.LASF96
 1547 06f0 0A       		.byte	0xa
 1548 06f1 1E01     		.2byte	0x11e
 1549 06f3 1A       		.byte	0x1a
 1550 06f4 41070000 		.4byte	0x741
 1551 06f8 15       		.uleb128 0x15
 1552 06f9 CD060000 		.4byte	.LASF97
 1553 06fd 0A       		.byte	0xa
 1554 06fe 2701     		.2byte	0x127
 1555 0700 1A       		.byte	0x1a
 1556 0701 7C070000 		.4byte	0x77c
 1557 0705 15       		.uleb128 0x15
 1558 0706 E4050000 		.4byte	.LASF98
 1559 070a 0A       		.byte	0xa
 1560 070b 2F01     		.2byte	0x12f
 1561 070d 19       		.byte	0x19
 1562 070e 48010000 		.4byte	0x148
 1563 0712 00       		.byte	0
 1564 0713 0A       		.uleb128 0xa
 1565 0714 04       		.byte	0x4
 1566 0715 97020000 		.4byte	0x297
 1567 0719 06       		.uleb128 0x6
 1568 071a 5A060000 		.4byte	.LASF99
 1569 071e 0C       		.byte	0xc
 1570 071f 0F       		.byte	0xf
 1571 0720 34       		.byte	0x34
 1572 0721 10       		.byte	0x10
 1573 0722 41070000 		.4byte	0x741
 1574 0726 07       		.uleb128 0x7
 1575 0727 C8010000 		.4byte	.LASF100
 1576 072b 0F       		.byte	0xf
 1577 072c 35       		.byte	0x35
 1578 072d 19       		.byte	0x19
 1579 072e D0020000 		.4byte	0x2d0
 1580 0732 00       		.byte	0
 1581 0733 07       		.uleb128 0x7
 1582 0734 DA030000 		.4byte	.LASF101
 1583 0738 0F       		.byte	0xf
 1584 0739 37       		.byte	0x37
 1585 073a 19       		.byte	0x19
 1586 073b 54010000 		.4byte	0x154
 1587 073f 08       		.byte	0x8
 1588 0740 00       		.byte	0
 1589 0741 0A       		.uleb128 0xa
 1590 0742 04       		.byte	0x4
 1591 0743 19070000 		.4byte	0x719
 1592 0747 06       		.uleb128 0x6
 1593 0748 3D070000 		.4byte	.LASF102
 1594 074c 10       		.byte	0x10
 1595 074d 10       		.byte	0x10
 1596 074e 39       		.byte	0x39
ARM GAS  C:\Users\USER\AppData\Local\Temp\cciSBp8j.s 			page 29


 1597 074f 08       		.byte	0x8
 1598 0750 7C070000 		.4byte	0x77c
 1599 0754 07       		.uleb128 0x7
 1600 0755 35010000 		.4byte	.LASF103
 1601 0759 10       		.byte	0x10
 1602 075a 3A       		.byte	0x3a
 1603 075b 19       		.byte	0x19
 1604 075c D0020000 		.4byte	0x2d0
 1605 0760 00       		.byte	0
 1606 0761 07       		.uleb128 0x7
 1607 0762 3B080000 		.4byte	.LASF104
 1608 0766 10       		.byte	0x10
 1609 0767 3C       		.byte	0x3c
 1610 0768 1A       		.byte	0x1a
 1611 0769 A3020000 		.4byte	0x2a3
 1612 076d 08       		.byte	0x8
 1613 076e 07       		.uleb128 0x7
 1614 076f EE060000 		.4byte	.LASF105
 1615 0773 10       		.byte	0x10
 1616 0774 3E       		.byte	0x3e
 1617 0775 1A       		.byte	0x1a
 1618 0776 F4080000 		.4byte	0x8f4
 1619 077a 0C       		.byte	0xc
 1620 077b 00       		.byte	0
 1621 077c 0A       		.uleb128 0xa
 1622 077d 04       		.byte	0x4
 1623 077e 47070000 		.4byte	0x747
 1624 0782 0A       		.uleb128 0xa
 1625 0783 04       		.byte	0x4
 1626 0784 94070000 		.4byte	0x794
 1627 0788 05       		.uleb128 0x5
 1628 0789 82070000 		.4byte	0x782
 1629 078d 04       		.uleb128 0x4
 1630 078e 01       		.byte	0x1
 1631 078f 08       		.byte	0x8
 1632 0790 C8060000 		.4byte	.LASF106
 1633 0794 16       		.uleb128 0x16
 1634 0795 8D070000 		.4byte	0x78d
 1635 0799 0A       		.uleb128 0xa
 1636 079a 04       		.byte	0x4
 1637 079b 92030000 		.4byte	0x392
 1638 079f 17       		.uleb128 0x17
 1639 07a0 03050000 		.4byte	0x503
 1640 07a4 AF070000 		.4byte	0x7af
 1641 07a8 18       		.uleb128 0x18
 1642 07a9 38000000 		.4byte	0x38
 1643 07ad 3A       		.byte	0x3a
 1644 07ae 00       		.byte	0
 1645 07af 19       		.uleb128 0x19
 1646 07b0 636800   		.ascii	"ch\000"
 1647 07b3 0A       		.byte	0xa
 1648 07b4 0902     		.2byte	0x209
 1649 07b6 14       		.byte	0x14
 1650 07b7 6F040000 		.4byte	0x46f
 1651 07bb 03       		.uleb128 0x3
 1652 07bc 00000000 		.4byte	.LASF107
 1653 07c0 11       		.byte	0x11
ARM GAS  C:\Users\USER\AppData\Local\Temp\cciSBp8j.s 			page 30


 1654 07c1 34       		.byte	0x34
 1655 07c2 10       		.byte	0x10
 1656 07c3 7F030000 		.4byte	0x37f
 1657 07c7 13       		.uleb128 0x13
 1658 07c8 16       		.byte	0x16
 1659 07c9 12       		.byte	0x12
 1660 07ca 34       		.byte	0x34
 1661 07cb 09       		.byte	0x9
 1662 07cc BB080000 		.4byte	0x8bb
 1663 07d0 07       		.uleb128 0x7
 1664 07d1 43080000 		.4byte	.LASF108
 1665 07d5 12       		.byte	0x12
 1666 07d6 35       		.byte	0x35
 1667 07d7 0D       		.byte	0xd
 1668 07d8 BB080000 		.4byte	0x8bb
 1669 07dc 00       		.byte	0
 1670 07dd 07       		.uleb128 0x7
 1671 07de 6E040000 		.4byte	.LASF109
 1672 07e2 12       		.byte	0x12
 1673 07e3 36       		.byte	0x36
 1674 07e4 0D       		.byte	0xd
 1675 07e5 B3000000 		.4byte	0xb3
 1676 07e9 04       		.byte	0x4
 1677 07ea 07       		.uleb128 0x7
 1678 07eb 9F060000 		.4byte	.LASF110
 1679 07ef 12       		.byte	0x12
 1680 07f0 37       		.byte	0x37
 1681 07f1 0D       		.byte	0xd
 1682 07f2 B3000000 		.4byte	0xb3
 1683 07f6 05       		.byte	0x5
 1684 07f7 07       		.uleb128 0x7
 1685 07f8 30080000 		.4byte	.LASF111
 1686 07fc 12       		.byte	0x12
 1687 07fd 38       		.byte	0x38
 1688 07fe 0D       		.byte	0xd
 1689 07ff BF000000 		.4byte	0xbf
 1690 0803 06       		.byte	0x6
 1691 0804 07       		.uleb128 0x7
 1692 0805 2E050000 		.4byte	.LASF112
 1693 0809 12       		.byte	0x12
 1694 080a 39       		.byte	0x39
 1695 080b 0D       		.byte	0xd
 1696 080c B3000000 		.4byte	0xb3
 1697 0810 08       		.byte	0x8
 1698 0811 07       		.uleb128 0x7
 1699 0812 AB040000 		.4byte	.LASF113
 1700 0816 12       		.byte	0x12
 1701 0817 3A       		.byte	0x3a
 1702 0818 0D       		.byte	0xd
 1703 0819 B3000000 		.4byte	0xb3
 1704 081d 09       		.byte	0x9
 1705 081e 07       		.uleb128 0x7
 1706 081f 7F000000 		.4byte	.LASF114
 1707 0823 12       		.byte	0x12
 1708 0824 3B       		.byte	0x3b
 1709 0825 0D       		.byte	0xd
 1710 0826 B3000000 		.4byte	0xb3
ARM GAS  C:\Users\USER\AppData\Local\Temp\cciSBp8j.s 			page 31


 1711 082a 0A       		.byte	0xa
 1712 082b 07       		.uleb128 0x7
 1713 082c 7B060000 		.4byte	.LASF115
 1714 0830 12       		.byte	0x12
 1715 0831 3C       		.byte	0x3c
 1716 0832 0D       		.byte	0xd
 1717 0833 B3000000 		.4byte	0xb3
 1718 0837 0B       		.byte	0xb
 1719 0838 07       		.uleb128 0x7
 1720 0839 6E070000 		.4byte	.LASF116
 1721 083d 12       		.byte	0x12
 1722 083e 3D       		.byte	0x3d
 1723 083f 0D       		.byte	0xd
 1724 0840 B3000000 		.4byte	0xb3
 1725 0844 0C       		.byte	0xc
 1726 0845 07       		.uleb128 0x7
 1727 0846 4D060000 		.4byte	.LASF117
 1728 084a 12       		.byte	0x12
 1729 084b 3E       		.byte	0x3e
 1730 084c 0D       		.byte	0xd
 1731 084d B3000000 		.4byte	0xb3
 1732 0851 0D       		.byte	0xd
 1733 0852 07       		.uleb128 0x7
 1734 0853 A2030000 		.4byte	.LASF118
 1735 0857 12       		.byte	0x12
 1736 0858 3F       		.byte	0x3f
 1737 0859 0D       		.byte	0xd
 1738 085a B3000000 		.4byte	0xb3
 1739 085e 0E       		.byte	0xe
 1740 085f 07       		.uleb128 0x7
 1741 0860 B7040000 		.4byte	.LASF119
 1742 0864 12       		.byte	0x12
 1743 0865 40       		.byte	0x40
 1744 0866 0D       		.byte	0xd
 1745 0867 B3000000 		.4byte	0xb3
 1746 086b 0F       		.byte	0xf
 1747 086c 07       		.uleb128 0x7
 1748 086d 10010000 		.4byte	.LASF120
 1749 0871 12       		.byte	0x12
 1750 0872 41       		.byte	0x41
 1751 0873 0D       		.byte	0xd
 1752 0874 B3000000 		.4byte	0xb3
 1753 0878 10       		.byte	0x10
 1754 0879 07       		.uleb128 0x7
 1755 087a E3000000 		.4byte	.LASF121
 1756 087e 12       		.byte	0x12
 1757 087f 43       		.byte	0x43
 1758 0880 0D       		.byte	0xd
 1759 0881 B3000000 		.4byte	0xb3
 1760 0885 11       		.byte	0x11
 1761 0886 07       		.uleb128 0x7
 1762 0887 20010000 		.4byte	.LASF122
 1763 088b 12       		.byte	0x12
 1764 088c 44       		.byte	0x44
 1765 088d 0D       		.byte	0xd
 1766 088e B3000000 		.4byte	0xb3
 1767 0892 12       		.byte	0x12
ARM GAS  C:\Users\USER\AppData\Local\Temp\cciSBp8j.s 			page 32


 1768 0893 07       		.uleb128 0x7
 1769 0894 76040000 		.4byte	.LASF123
 1770 0898 12       		.byte	0x12
 1771 0899 45       		.byte	0x45
 1772 089a 0D       		.byte	0xd
 1773 089b B3000000 		.4byte	0xb3
 1774 089f 13       		.byte	0x13
 1775 08a0 07       		.uleb128 0x7
 1776 08a1 FA050000 		.4byte	.LASF124
 1777 08a5 12       		.byte	0x12
 1778 08a6 46       		.byte	0x46
 1779 08a7 0D       		.byte	0xd
 1780 08a8 B3000000 		.4byte	0xb3
 1781 08ac 14       		.byte	0x14
 1782 08ad 07       		.uleb128 0x7
 1783 08ae 27040000 		.4byte	.LASF125
 1784 08b2 12       		.byte	0x12
 1785 08b3 48       		.byte	0x48
 1786 08b4 0D       		.byte	0xd
 1787 08b5 B3000000 		.4byte	0xb3
 1788 08b9 15       		.byte	0x15
 1789 08ba 00       		.byte	0
 1790 08bb 17       		.uleb128 0x17
 1791 08bc 8D070000 		.4byte	0x78d
 1792 08c0 CB080000 		.4byte	0x8cb
 1793 08c4 18       		.uleb128 0x18
 1794 08c5 38000000 		.4byte	0x38
 1795 08c9 03       		.byte	0x3
 1796 08ca 00       		.byte	0
 1797 08cb 03       		.uleb128 0x3
 1798 08cc B6010000 		.4byte	.LASF126
 1799 08d0 12       		.byte	0x12
 1800 08d1 49       		.byte	0x49
 1801 08d2 03       		.byte	0x3
 1802 08d3 C7070000 		.4byte	0x7c7
 1803 08d7 16       		.uleb128 0x16
 1804 08d8 CB080000 		.4byte	0x8cb
 1805 08dc 11       		.uleb128 0x11
 1806 08dd C3030000 		.4byte	.LASF127
 1807 08e1 12       		.byte	0x12
 1808 08e2 6E       		.byte	0x6e
 1809 08e3 1D       		.byte	0x1d
 1810 08e4 D7080000 		.4byte	0x8d7
 1811 08e8 03       		.uleb128 0x3
 1812 08e9 3D030000 		.4byte	.LASF128
 1813 08ed 10       		.byte	0x10
 1814 08ee 34       		.byte	0x34
 1815 08ef 19       		.byte	0x19
 1816 08f0 47070000 		.4byte	0x747
 1817 08f4 0A       		.uleb128 0xa
 1818 08f5 04       		.byte	0x4
 1819 08f6 E8080000 		.4byte	0x8e8
 1820 08fa 03       		.uleb128 0x3
 1821 08fb 5B000000 		.4byte	.LASF129
 1822 08ff 13       		.byte	0x13
 1823 0900 36       		.byte	0x36
 1824 0901 11       		.byte	0x11
ARM GAS  C:\Users\USER\AppData\Local\Temp\cciSBp8j.s 			page 33


 1825 0902 06090000 		.4byte	0x906
 1826 0906 0A       		.uleb128 0xa
 1827 0907 04       		.byte	0x4
 1828 0908 0C090000 		.4byte	0x90c
 1829 090c 1A       		.uleb128 0x1a
 1830 090d 90030000 		.4byte	0x390
 1831 0911 1B090000 		.4byte	0x91b
 1832 0915 0D       		.uleb128 0xd
 1833 0916 2C000000 		.4byte	0x2c
 1834 091a 00       		.byte	0
 1835 091b 03       		.uleb128 0x3
 1836 091c A8010000 		.4byte	.LASF130
 1837 0920 14       		.byte	0x14
 1838 0921 3C       		.byte	0x3c
 1839 0922 1C       		.byte	0x1c
 1840 0923 27090000 		.4byte	0x927
 1841 0927 06       		.uleb128 0x6
 1842 0928 59080000 		.4byte	.LASF131
 1843 092c 20       		.byte	0x20
 1844 092d 14       		.byte	0x14
 1845 092e 4F       		.byte	0x4f
 1846 092f 08       		.byte	0x8
 1847 0930 5C090000 		.4byte	0x95c
 1848 0934 07       		.uleb128 0x7
 1849 0935 E8070000 		.4byte	.LASF132
 1850 0939 14       		.byte	0x14
 1851 093a 50       		.byte	0x50
 1852 093b 19       		.byte	0x19
 1853 093c FA080000 		.4byte	0x8fa
 1854 0940 00       		.byte	0
 1855 0941 07       		.uleb128 0x7
 1856 0942 96000000 		.4byte	.LASF133
 1857 0946 14       		.byte	0x14
 1858 0947 52       		.byte	0x52
 1859 0948 19       		.byte	0x19
 1860 0949 7E090000 		.4byte	0x97e
 1861 094d 08       		.byte	0x8
 1862 094e 07       		.uleb128 0x7
 1863 094f 0A010000 		.4byte	.LASF134
 1864 0953 14       		.byte	0x14
 1865 0954 54       		.byte	0x54
 1866 0955 19       		.byte	0x19
 1867 0956 E8080000 		.4byte	0x8e8
 1868 095a 10       		.byte	0x10
 1869 095b 00       		.byte	0
 1870 095c 14       		.uleb128 0x14
 1871 095d 04       		.byte	0x4
 1872 095e 14       		.byte	0x14
 1873 095f 44       		.byte	0x44
 1874 0960 05       		.byte	0x5
 1875 0961 7E090000 		.4byte	0x97e
 1876 0965 1B       		.uleb128 0x1b
 1877 0966 C6000000 		.4byte	.LASF135
 1878 096a 14       		.byte	0x14
 1879 096b 45       		.byte	0x45
 1880 096c 1A       		.byte	0x1a
 1881 096d A2090000 		.4byte	0x9a2
ARM GAS  C:\Users\USER\AppData\Local\Temp\cciSBp8j.s 			page 34


 1882 0971 1B       		.uleb128 0x1b
 1883 0972 A7060000 		.4byte	.LASF136
 1884 0976 14       		.byte	0x14
 1885 0977 46       		.byte	0x46
 1886 0978 1A       		.byte	0x1a
 1887 0979 A8090000 		.4byte	0x9a8
 1888 097d 00       		.byte	0
 1889 097e 1C       		.uleb128 0x1c
 1890 097f AB050000 		.4byte	.LASF166
 1891 0983 08       		.byte	0x8
 1892 0984 14       		.byte	0x14
 1893 0985 41       		.byte	0x41
 1894 0986 07       		.byte	0x7
 1895 0987 A2090000 		.4byte	0x9a2
 1896 098b 1B       		.uleb128 0x1b
 1897 098c 4B030000 		.4byte	.LASF137
 1898 0990 14       		.byte	0x14
 1899 0991 42       		.byte	0x42
 1900 0992 0E       		.byte	0xe
 1901 0993 03050000 		.4byte	0x503
 1902 0997 1D       		.uleb128 0x1d
 1903 0998 6800     		.ascii	"h\000"
 1904 099a 14       		.byte	0x14
 1905 099b 49       		.byte	0x49
 1906 099c 05       		.byte	0x5
 1907 099d AE090000 		.4byte	0x9ae
 1908 09a1 00       		.byte	0
 1909 09a2 0A       		.uleb128 0xa
 1910 09a3 04       		.byte	0x4
 1911 09a4 7E090000 		.4byte	0x97e
 1912 09a8 0A       		.uleb128 0xa
 1913 09a9 04       		.byte	0x4
 1914 09aa 1B090000 		.4byte	0x91b
 1915 09ae 13       		.uleb128 0x13
 1916 09af 08       		.byte	0x8
 1917 09b0 14       		.byte	0x14
 1918 09b1 43       		.byte	0x43
 1919 09b2 03       		.byte	0x3
 1920 09b3 D0090000 		.4byte	0x9d0
 1921 09b7 12       		.uleb128 0x12
 1922 09b8 7500     		.ascii	"u\000"
 1923 09ba 14       		.byte	0x14
 1924 09bb 47       		.byte	0x47
 1925 09bc 07       		.byte	0x7
 1926 09bd 5C090000 		.4byte	0x95c
 1927 09c1 00       		.byte	0
 1928 09c2 07       		.uleb128 0x7
 1929 09c3 14080000 		.4byte	.LASF138
 1930 09c7 14       		.byte	0x14
 1931 09c8 48       		.byte	0x48
 1932 09c9 19       		.byte	0x19
 1933 09ca 2C000000 		.4byte	0x2c
 1934 09ce 04       		.byte	0x4
 1935 09cf 00       		.byte	0
 1936 09d0 06       		.uleb128 0x6
 1937 09d1 79070000 		.4byte	.LASF139
 1938 09d5 04       		.byte	0x4
ARM GAS  C:\Users\USER\AppData\Local\Temp\cciSBp8j.s 			page 35


 1939 09d6 15       		.byte	0x15
 1940 09d7 38       		.byte	0x38
 1941 09d8 08       		.byte	0x8
 1942 09d9 EB090000 		.4byte	0x9eb
 1943 09dd 07       		.uleb128 0x7
 1944 09de 1E050000 		.4byte	.LASF140
 1945 09e2 15       		.byte	0x15
 1946 09e3 39       		.byte	0x39
 1947 09e4 1A       		.byte	0x1a
 1948 09e5 EB090000 		.4byte	0x9eb
 1949 09e9 00       		.byte	0
 1950 09ea 00       		.byte	0
 1951 09eb 0A       		.uleb128 0xa
 1952 09ec 04       		.byte	0x4
 1953 09ed D0090000 		.4byte	0x9d0
 1954 09f1 13       		.uleb128 0x13
 1955 09f2 0C       		.byte	0xc
 1956 09f3 15       		.byte	0x15
 1957 09f4 40       		.byte	0x40
 1958 09f5 09       		.byte	0x9
 1959 09f6 220A0000 		.4byte	0xa22
 1960 09fa 07       		.uleb128 0x7
 1961 09fb 46070000 		.4byte	.LASF141
 1962 09ff 15       		.byte	0x15
 1963 0a00 41       		.byte	0x41
 1964 0a01 1A       		.byte	0x1a
 1965 0a02 EB090000 		.4byte	0x9eb
 1966 0a06 00       		.byte	0
 1967 0a07 07       		.uleb128 0x7
 1968 0a08 E6040000 		.4byte	.LASF142
 1969 0a0c 15       		.byte	0x15
 1970 0a0d 42       		.byte	0x42
 1971 0a0e 19       		.byte	0x19
 1972 0a0f 2C000000 		.4byte	0x2c
 1973 0a13 04       		.byte	0x4
 1974 0a14 07       		.uleb128 0x7
 1975 0a15 F2010000 		.4byte	.LASF143
 1976 0a19 15       		.byte	0x15
 1977 0a1a 44       		.byte	0x44
 1978 0a1b 19       		.byte	0x19
 1979 0a1c FA080000 		.4byte	0x8fa
 1980 0a20 08       		.byte	0x8
 1981 0a21 00       		.byte	0
 1982 0a22 03       		.uleb128 0x3
 1983 0a23 CC030000 		.4byte	.LASF144
 1984 0a27 15       		.byte	0x15
 1985 0a28 46       		.byte	0x46
 1986 0a29 03       		.byte	0x3
 1987 0a2a F1090000 		.4byte	0x9f1
 1988 0a2e 1E       		.uleb128 0x1e
 1989 0a2f D0010000 		.4byte	.LASF146
 1990 0a33 01       		.byte	0x1
 1991 0a34 CC       		.byte	0xcc
 1992 0a35 0B       		.byte	0xb
 1993 0a36 A3020000 		.4byte	0x2a3
 1994 0a3a 00000000 		.4byte	.LFB222
 1995 0a3e 4E000000 		.4byte	.LFE222-.LFB222
ARM GAS  C:\Users\USER\AppData\Local\Temp\cciSBp8j.s 			page 36


 1996 0a42 01       		.uleb128 0x1
 1997 0a43 9C       		.byte	0x9c
 1998 0a44 B10B0000 		.4byte	0xbb1
 1999 0a48 1F       		.uleb128 0x1f
 2000 0a49 6D7000   		.ascii	"mp\000"
 2001 0a4c 01       		.byte	0x1
 2002 0a4d CC       		.byte	0xcc
 2003 0a4e 34       		.byte	0x34
 2004 0a4f B10B0000 		.4byte	0xbb1
 2005 0a53 04000000 		.4byte	.LLST15
 2006 0a57 00000000 		.4byte	.LVUS15
 2007 0a5b 20       		.uleb128 0x20
 2008 0a5c 06050000 		.4byte	.LASF145
 2009 0a60 01       		.byte	0x1
 2010 0a61 CC       		.byte	0xcc
 2011 0a62 40       		.byte	0x40
 2012 0a63 30010000 		.4byte	0x130
 2013 0a67 26000000 		.4byte	.LLST16
 2014 0a6b 22000000 		.4byte	.LVUS16
 2015 0a6f 1F       		.uleb128 0x1f
 2016 0a70 706600   		.ascii	"pf\000"
 2017 0a73 01       		.byte	0x1
 2018 0a74 CD       		.byte	0xcd
 2019 0a75 2D       		.byte	0x2d
 2020 0a76 BB070000 		.4byte	0x7bb
 2021 0a7a 48000000 		.4byte	.LLST17
 2022 0a7e 44000000 		.4byte	.LVUS17
 2023 0a82 1F       		.uleb128 0x1f
 2024 0a83 61726700 		.ascii	"arg\000"
 2025 0a87 01       		.byte	0x1
 2026 0a88 CD       		.byte	0xcd
 2027 0a89 37       		.byte	0x37
 2028 0a8a 90030000 		.4byte	0x390
 2029 0a8e 6A000000 		.4byte	.LLST18
 2030 0a92 66000000 		.4byte	.LVUS18
 2031 0a96 21       		.uleb128 0x21
 2032 0a97 77737000 		.ascii	"wsp\000"
 2033 0a9b 01       		.byte	0x1
 2034 0a9c CE       		.byte	0xce
 2035 0a9d 09       		.byte	0x9
 2036 0a9e 90030000 		.4byte	0x390
 2037 0aa2 8C000000 		.4byte	.LLST19
 2038 0aa6 88000000 		.4byte	.LVUS19
 2039 0aaa 21       		.uleb128 0x21
 2040 0aab 747000   		.ascii	"tp\000"
 2041 0aae 01       		.byte	0x1
 2042 0aaf CF       		.byte	0xcf
 2043 0ab0 0D       		.byte	0xd
 2044 0ab1 A3020000 		.4byte	0x2a3
 2045 0ab5 AE000000 		.4byte	.LLST20
 2046 0ab9 AA000000 		.4byte	.LVUS20
 2047 0abd 22       		.uleb128 0x22
 2048 0abe 11060000 		.4byte	.LASF150
 2049 0ac2 C70B0000 		.4byte	0xbc7
 2050 0ac6 23       		.uleb128 0x23
 2051 0ac7 750F0000 		.4byte	0xf75
 2052 0acb 14000000 		.4byte	.LBI103
ARM GAS  C:\Users\USER\AppData\Local\Temp\cciSBp8j.s 			page 37


 2053 0acf 01       		.byte	.LVU133
 2054 0ad0 B0000000 		.4byte	.Ldebug_ranges0+0xb0
 2055 0ad4 01       		.byte	0x1
 2056 0ad5 E1       		.byte	0xe1
 2057 0ad6 03       		.byte	0x3
 2058 0ad7 130B0000 		.4byte	0xb13
 2059 0adb 24       		.uleb128 0x24
 2060 0adc 890F0000 		.4byte	0xf89
 2061 0ae0 14000000 		.4byte	.LBI104
 2062 0ae4 03       		.byte	.LVU135
 2063 0ae5 B8000000 		.4byte	.Ldebug_ranges0+0xb8
 2064 0ae9 02       		.byte	0x2
 2065 0aea 5C01     		.2byte	0x15c
 2066 0aec 03       		.byte	0x3
 2067 0aed 25       		.uleb128 0x25
 2068 0aee 930F0000 		.4byte	0xf93
 2069 0af2 14000000 		.4byte	.LBI105
 2070 0af6 05       		.byte	.LVU137
 2071 0af7 14000000 		.4byte	.LBB105
 2072 0afb 06000000 		.4byte	.LBE105-.LBB105
 2073 0aff 03       		.byte	0x3
 2074 0b00 BF01     		.2byte	0x1bf
 2075 0b02 03       		.byte	0x3
 2076 0b03 26       		.uleb128 0x26
 2077 0b04 A10F0000 		.4byte	0xfa1
 2078 0b08 CE000000 		.4byte	.LLST21
 2079 0b0c CC000000 		.4byte	.LVUS21
 2080 0b10 00       		.byte	0
 2081 0b11 00       		.byte	0
 2082 0b12 00       		.byte	0
 2083 0b13 23       		.uleb128 0x23
 2084 0b14 5D0F0000 		.4byte	0xf5d
 2085 0b18 36000000 		.4byte	.LBI110
 2086 0b1c 01       		.byte	.LVU152
 2087 0b1d D0000000 		.4byte	.Ldebug_ranges0+0xd0
 2088 0b21 01       		.byte	0x1
 2089 0b22 E6       		.byte	0xe6
 2090 0b23 03       		.byte	0x3
 2091 0b24 660B0000 		.4byte	0xb66
 2092 0b28 27       		.uleb128 0x27
 2093 0b29 D0000000 		.4byte	.Ldebug_ranges0+0xd0
 2094 0b2d 24       		.uleb128 0x24
 2095 0b2e 7F0F0000 		.4byte	0xf7f
 2096 0b32 36000000 		.4byte	.LBI112
 2097 0b36 07       		.byte	.LVU158
 2098 0b37 D0000000 		.4byte	.Ldebug_ranges0+0xd0
 2099 0b3b 02       		.byte	0x2
 2100 0b3c 7301     		.2byte	0x173
 2101 0b3e 03       		.byte	0x3
 2102 0b3f 25       		.uleb128 0x25
 2103 0b40 930F0000 		.4byte	0xf93
 2104 0b44 36000000 		.4byte	.LBI113
 2105 0b48 09       		.byte	.LVU160
 2106 0b49 36000000 		.4byte	.LBB113
 2107 0b4d 06000000 		.4byte	.LBE113-.LBB113
 2108 0b51 03       		.byte	0x3
 2109 0b52 CD01     		.2byte	0x1cd
ARM GAS  C:\Users\USER\AppData\Local\Temp\cciSBp8j.s 			page 38


 2110 0b54 03       		.byte	0x3
 2111 0b55 26       		.uleb128 0x26
 2112 0b56 A10F0000 		.4byte	0xfa1
 2113 0b5a E5000000 		.4byte	.LLST22
 2114 0b5e E3000000 		.4byte	.LVUS22
 2115 0b62 00       		.byte	0
 2116 0b63 00       		.byte	0
 2117 0b64 00       		.byte	0
 2118 0b65 00       		.byte	0
 2119 0b66 28       		.uleb128 0x28
 2120 0b67 12000000 		.4byte	.LVL24
 2121 0b6b AF0F0000 		.4byte	0xfaf
 2122 0b6f 7A0B0000 		.4byte	0xb7a
 2123 0b73 29       		.uleb128 0x29
 2124 0b74 01       		.uleb128 0x1
 2125 0b75 50       		.byte	0x50
 2126 0b76 02       		.uleb128 0x2
 2127 0b77 75       		.byte	0x75
 2128 0b78 00       		.sleb128 0
 2129 0b79 00       		.byte	0
 2130 0b7a 28       		.uleb128 0x28
 2131 0b7b 28000000 		.4byte	.LVL27
 2132 0b7f BB0F0000 		.4byte	0xfbb
 2133 0b83 9B0B0000 		.4byte	0xb9b
 2134 0b87 29       		.uleb128 0x29
 2135 0b88 01       		.uleb128 0x1
 2136 0b89 52       		.byte	0x52
 2137 0b8a 02       		.uleb128 0x2
 2138 0b8b 76       		.byte	0x76
 2139 0b8c 00       		.sleb128 0
 2140 0b8d 29       		.uleb128 0x29
 2141 0b8e 01       		.uleb128 0x1
 2142 0b8f 53       		.byte	0x53
 2143 0b90 02       		.uleb128 0x2
 2144 0b91 77       		.byte	0x77
 2145 0b92 00       		.sleb128 0
 2146 0b93 29       		.uleb128 0x29
 2147 0b94 02       		.uleb128 0x2
 2148 0b95 7D       		.byte	0x7d
 2149 0b96 00       		.sleb128 0
 2150 0b97 02       		.uleb128 0x2
 2151 0b98 78       		.byte	0x78
 2152 0b99 00       		.sleb128 0
 2153 0b9a 00       		.byte	0
 2154 0b9b 2A       		.uleb128 0x2a
 2155 0b9c 36000000 		.4byte	.LVL29
 2156 0ba0 C70F0000 		.4byte	0xfc7
 2157 0ba4 29       		.uleb128 0x29
 2158 0ba5 01       		.uleb128 0x1
 2159 0ba6 50       		.byte	0x50
 2160 0ba7 02       		.uleb128 0x2
 2161 0ba8 74       		.byte	0x74
 2162 0ba9 00       		.sleb128 0
 2163 0baa 29       		.uleb128 0x29
 2164 0bab 01       		.uleb128 0x1
 2165 0bac 51       		.byte	0x51
 2166 0bad 01       		.uleb128 0x1
ARM GAS  C:\Users\USER\AppData\Local\Temp\cciSBp8j.s 			page 39


 2167 0bae 30       		.byte	0x30
 2168 0baf 00       		.byte	0
 2169 0bb0 00       		.byte	0
 2170 0bb1 0A       		.uleb128 0xa
 2171 0bb2 04       		.byte	0x4
 2172 0bb3 220A0000 		.4byte	0xa22
 2173 0bb7 17       		.uleb128 0x17
 2174 0bb8 94070000 		.4byte	0x794
 2175 0bbc C70B0000 		.4byte	0xbc7
 2176 0bc0 18       		.uleb128 0x18
 2177 0bc1 38000000 		.4byte	0x38
 2178 0bc5 19       		.byte	0x19
 2179 0bc6 00       		.byte	0
 2180 0bc7 16       		.uleb128 0x16
 2181 0bc8 B70B0000 		.4byte	0xbb7
 2182 0bcc 1E       		.uleb128 0x1e
 2183 0bcd 8B010000 		.4byte	.LASF147
 2184 0bd1 01       		.byte	0x1
 2185 0bd2 98       		.byte	0x98
 2186 0bd3 0B       		.byte	0xb
 2187 0bd4 A3020000 		.4byte	0x2a3
 2188 0bd8 00000000 		.4byte	.LFB221
 2189 0bdc 44000000 		.4byte	.LFE221-.LFB221
 2190 0be0 01       		.uleb128 0x1
 2191 0be1 9C       		.byte	0x9c
 2192 0be2 690D0000 		.4byte	0xd69
 2193 0be6 20       		.uleb128 0x20
 2194 0be7 C0000000 		.4byte	.LASF148
 2195 0beb 01       		.byte	0x1
 2196 0bec 98       		.byte	0x98
 2197 0bed 2E       		.byte	0x2e
 2198 0bee A8090000 		.4byte	0x9a8
 2199 0bf2 FD000000 		.4byte	.LLST6
 2200 0bf6 F9000000 		.4byte	.LVUS6
 2201 0bfa 20       		.uleb128 0x20
 2202 0bfb 14080000 		.4byte	.LASF138
 2203 0bff 01       		.byte	0x1
 2204 0c00 98       		.byte	0x98
 2205 0c01 3C       		.byte	0x3c
 2206 0c02 2C000000 		.4byte	0x2c
 2207 0c06 22010000 		.4byte	.LLST7
 2208 0c0a 1E010000 		.4byte	.LVUS7
 2209 0c0e 20       		.uleb128 0x20
 2210 0c0f 06050000 		.4byte	.LASF145
 2211 0c13 01       		.byte	0x1
 2212 0c14 99       		.byte	0x99
 2213 0c15 27       		.byte	0x27
 2214 0c16 30010000 		.4byte	0x130
 2215 0c1a 44010000 		.4byte	.LLST8
 2216 0c1e 40010000 		.4byte	.LVUS8
 2217 0c22 1F       		.uleb128 0x1f
 2218 0c23 706600   		.ascii	"pf\000"
 2219 0c26 01       		.byte	0x1
 2220 0c27 99       		.byte	0x99
 2221 0c28 35       		.byte	0x35
 2222 0c29 BB070000 		.4byte	0x7bb
 2223 0c2d 66010000 		.4byte	.LLST9
ARM GAS  C:\Users\USER\AppData\Local\Temp\cciSBp8j.s 			page 40


 2224 0c31 62010000 		.4byte	.LVUS9
 2225 0c35 1F       		.uleb128 0x1f
 2226 0c36 61726700 		.ascii	"arg\000"
 2227 0c3a 01       		.byte	0x1
 2228 0c3b 99       		.byte	0x99
 2229 0c3c 3F       		.byte	0x3f
 2230 0c3d 90030000 		.4byte	0x390
 2231 0c41 88010000 		.4byte	.LLST10
 2232 0c45 84010000 		.4byte	.LVUS10
 2233 0c49 21       		.uleb128 0x21
 2234 0c4a 77737000 		.ascii	"wsp\000"
 2235 0c4e 01       		.byte	0x1
 2236 0c4f 9A       		.byte	0x9a
 2237 0c50 09       		.byte	0x9
 2238 0c51 90030000 		.4byte	0x390
 2239 0c55 AC010000 		.4byte	.LLST11
 2240 0c59 A8010000 		.4byte	.LVUS11
 2241 0c5d 21       		.uleb128 0x21
 2242 0c5e 747000   		.ascii	"tp\000"
 2243 0c61 01       		.byte	0x1
 2244 0c62 9B       		.byte	0x9b
 2245 0c63 0D       		.byte	0xd
 2246 0c64 A3020000 		.4byte	0x2a3
 2247 0c68 CE010000 		.4byte	.LLST12
 2248 0c6c CA010000 		.4byte	.LVUS12
 2249 0c70 23       		.uleb128 0x23
 2250 0c71 750F0000 		.4byte	0xf75
 2251 0c75 10000000 		.4byte	.LBI88
 2252 0c79 01       		.byte	.LVU88
 2253 0c7a 78000000 		.4byte	.Ldebug_ranges0+0x78
 2254 0c7e 01       		.byte	0x1
 2255 0c7f AB       		.byte	0xab
 2256 0c80 03       		.byte	0x3
 2257 0c81 BD0C0000 		.4byte	0xcbd
 2258 0c85 24       		.uleb128 0x24
 2259 0c86 890F0000 		.4byte	0xf89
 2260 0c8a 10000000 		.4byte	.LBI89
 2261 0c8e 03       		.byte	.LVU90
 2262 0c8f 80000000 		.4byte	.Ldebug_ranges0+0x80
 2263 0c93 02       		.byte	0x2
 2264 0c94 5C01     		.2byte	0x15c
 2265 0c96 03       		.byte	0x3
 2266 0c97 25       		.uleb128 0x25
 2267 0c98 930F0000 		.4byte	0xf93
 2268 0c9c 10000000 		.4byte	.LBI90
 2269 0ca0 05       		.byte	.LVU92
 2270 0ca1 10000000 		.4byte	.LBB90
 2271 0ca5 06000000 		.4byte	.LBE90-.LBB90
 2272 0ca9 03       		.byte	0x3
 2273 0caa BF01     		.2byte	0x1bf
 2274 0cac 03       		.byte	0x3
 2275 0cad 26       		.uleb128 0x26
 2276 0cae A10F0000 		.4byte	0xfa1
 2277 0cb2 EE010000 		.4byte	.LLST13
 2278 0cb6 EC010000 		.4byte	.LVUS13
 2279 0cba 00       		.byte	0
 2280 0cbb 00       		.byte	0
ARM GAS  C:\Users\USER\AppData\Local\Temp\cciSBp8j.s 			page 41


 2281 0cbc 00       		.byte	0
 2282 0cbd 23       		.uleb128 0x23
 2283 0cbe 5D0F0000 		.4byte	0xf5d
 2284 0cc2 30000000 		.4byte	.LBI95
 2285 0cc6 01       		.byte	.LVU105
 2286 0cc7 98000000 		.4byte	.Ldebug_ranges0+0x98
 2287 0ccb 01       		.byte	0x1
 2288 0ccc AF       		.byte	0xaf
 2289 0ccd 03       		.byte	0x3
 2290 0cce 100D0000 		.4byte	0xd10
 2291 0cd2 27       		.uleb128 0x27
 2292 0cd3 98000000 		.4byte	.Ldebug_ranges0+0x98
 2293 0cd7 24       		.uleb128 0x24
 2294 0cd8 7F0F0000 		.4byte	0xf7f
 2295 0cdc 30000000 		.4byte	.LBI97
 2296 0ce0 07       		.byte	.LVU111
 2297 0ce1 98000000 		.4byte	.Ldebug_ranges0+0x98
 2298 0ce5 02       		.byte	0x2
 2299 0ce6 7301     		.2byte	0x173
 2300 0ce8 03       		.byte	0x3
 2301 0ce9 25       		.uleb128 0x25
 2302 0cea 930F0000 		.4byte	0xf93
 2303 0cee 30000000 		.4byte	.LBI98
 2304 0cf2 09       		.byte	.LVU113
 2305 0cf3 30000000 		.4byte	.LBB98
 2306 0cf7 06000000 		.4byte	.LBE98-.LBB98
 2307 0cfb 03       		.byte	0x3
 2308 0cfc CD01     		.2byte	0x1cd
 2309 0cfe 03       		.byte	0x3
 2310 0cff 26       		.uleb128 0x26
 2311 0d00 A10F0000 		.4byte	0xfa1
 2312 0d04 05020000 		.4byte	.LLST14
 2313 0d08 03020000 		.4byte	.LVUS14
 2314 0d0c 00       		.byte	0
 2315 0d0d 00       		.byte	0
 2316 0d0e 00       		.byte	0
 2317 0d0f 00       		.byte	0
 2318 0d10 28       		.uleb128 0x28
 2319 0d11 0E000000 		.4byte	.LVL15
 2320 0d15 D40F0000 		.4byte	0xfd4
 2321 0d19 2B0D0000 		.4byte	0xd2b
 2322 0d1d 29       		.uleb128 0x29
 2323 0d1e 01       		.uleb128 0x1
 2324 0d1f 50       		.byte	0x50
 2325 0d20 03       		.uleb128 0x3
 2326 0d21 F3       		.byte	0xf3
 2327 0d22 01       		.uleb128 0x1
 2328 0d23 50       		.byte	0x50
 2329 0d24 29       		.uleb128 0x29
 2330 0d25 01       		.uleb128 0x1
 2331 0d26 51       		.byte	0x51
 2332 0d27 02       		.uleb128 0x2
 2333 0d28 75       		.byte	0x75
 2334 0d29 00       		.sleb128 0
 2335 0d2a 00       		.byte	0
 2336 0d2b 28       		.uleb128 0x28
 2337 0d2c 24000000 		.4byte	.LVL18
ARM GAS  C:\Users\USER\AppData\Local\Temp\cciSBp8j.s 			page 42


 2338 0d30 BB0F0000 		.4byte	0xfbb
 2339 0d34 530D0000 		.4byte	0xd53
 2340 0d38 29       		.uleb128 0x29
 2341 0d39 01       		.uleb128 0x1
 2342 0d3a 51       		.byte	0x51
 2343 0d3b 02       		.uleb128 0x2
 2344 0d3c 75       		.byte	0x75
 2345 0d3d 00       		.sleb128 0
 2346 0d3e 29       		.uleb128 0x29
 2347 0d3f 01       		.uleb128 0x1
 2348 0d40 52       		.byte	0x52
 2349 0d41 02       		.uleb128 0x2
 2350 0d42 76       		.byte	0x76
 2351 0d43 00       		.sleb128 0
 2352 0d44 29       		.uleb128 0x29
 2353 0d45 01       		.uleb128 0x1
 2354 0d46 53       		.byte	0x53
 2355 0d47 02       		.uleb128 0x2
 2356 0d48 77       		.byte	0x77
 2357 0d49 00       		.sleb128 0
 2358 0d4a 29       		.uleb128 0x29
 2359 0d4b 02       		.uleb128 0x2
 2360 0d4c 7D       		.byte	0x7d
 2361 0d4d 00       		.sleb128 0
 2362 0d4e 03       		.uleb128 0x3
 2363 0d4f 91       		.byte	0x91
 2364 0d50 00       		.sleb128 0
 2365 0d51 06       		.byte	0x6
 2366 0d52 00       		.byte	0
 2367 0d53 2A       		.uleb128 0x2a
 2368 0d54 30000000 		.4byte	.LVL20
 2369 0d58 C70F0000 		.4byte	0xfc7
 2370 0d5c 29       		.uleb128 0x29
 2371 0d5d 01       		.uleb128 0x1
 2372 0d5e 50       		.byte	0x50
 2373 0d5f 02       		.uleb128 0x2
 2374 0d60 74       		.byte	0x74
 2375 0d61 00       		.sleb128 0
 2376 0d62 29       		.uleb128 0x29
 2377 0d63 01       		.uleb128 0x1
 2378 0d64 51       		.byte	0x51
 2379 0d65 01       		.uleb128 0x1
 2380 0d66 30       		.byte	0x30
 2381 0d67 00       		.byte	0
 2382 0d68 00       		.byte	0
 2383 0d69 2B       		.uleb128 0x2b
 2384 0d6a 24060000 		.4byte	.LASF167
 2385 0d6e 01       		.byte	0x1
 2386 0d6f 5B       		.byte	0x5b
 2387 0d70 06       		.byte	0x6
 2388 0d71 00000000 		.4byte	.LFB220
 2389 0d75 4C000000 		.4byte	.LFE220-.LFB220
 2390 0d79 01       		.uleb128 0x1
 2391 0d7a 9C       		.byte	0x9c
 2392 0d7b 660E0000 		.4byte	0xe66
 2393 0d7f 1F       		.uleb128 0x1f
 2394 0d80 747000   		.ascii	"tp\000"
ARM GAS  C:\Users\USER\AppData\Local\Temp\cciSBp8j.s 			page 43


 2395 0d83 01       		.byte	0x1
 2396 0d84 5B       		.byte	0x5b
 2397 0d85 1D       		.byte	0x1d
 2398 0d86 A3020000 		.4byte	0x2a3
 2399 0d8a 23020000 		.4byte	.LLST2
 2400 0d8e 19020000 		.4byte	.LVUS2
 2401 0d92 2C       		.uleb128 0x2c
 2402 0d93 39050000 		.4byte	.LASF149
 2403 0d97 01       		.byte	0x1
 2404 0d98 5C       		.byte	0x5c
 2405 0d99 0B       		.byte	0xb
 2406 0d9a 18010000 		.4byte	0x118
 2407 0d9e 70020000 		.4byte	.LLST3
 2408 0da2 68020000 		.4byte	.LVUS3
 2409 0da6 22       		.uleb128 0x22
 2410 0da7 11060000 		.4byte	.LASF150
 2411 0dab 760E0000 		.4byte	0xe76
 2412 0daf 23       		.uleb128 0x23
 2413 0db0 750F0000 		.4byte	0xf75
 2414 0db4 00000000 		.4byte	.LBI69
 2415 0db8 03       		.byte	.LVU32
 2416 0db9 38000000 		.4byte	.Ldebug_ranges0+0x38
 2417 0dbd 01       		.byte	0x1
 2418 0dbe 5E       		.byte	0x5e
 2419 0dbf 03       		.byte	0x3
 2420 0dc0 F80D0000 		.4byte	0xdf8
 2421 0dc4 24       		.uleb128 0x24
 2422 0dc5 890F0000 		.4byte	0xf89
 2423 0dc9 00000000 		.4byte	.LBI70
 2424 0dcd 05       		.byte	.LVU34
 2425 0dce 40000000 		.4byte	.Ldebug_ranges0+0x40
 2426 0dd2 02       		.byte	0x2
 2427 0dd3 5C01     		.2byte	0x15c
 2428 0dd5 03       		.byte	0x3
 2429 0dd6 24       		.uleb128 0x24
 2430 0dd7 930F0000 		.4byte	0xf93
 2431 0ddb 00000000 		.4byte	.LBI71
 2432 0ddf 07       		.byte	.LVU36
 2433 0de0 48000000 		.4byte	.Ldebug_ranges0+0x48
 2434 0de4 03       		.byte	0x3
 2435 0de5 BF01     		.2byte	0x1bf
 2436 0de7 03       		.byte	0x3
 2437 0de8 26       		.uleb128 0x26
 2438 0de9 A10F0000 		.4byte	0xfa1
 2439 0ded A9020000 		.4byte	.LLST4
 2440 0df1 A7020000 		.4byte	.LVUS4
 2441 0df5 00       		.byte	0
 2442 0df6 00       		.byte	0
 2443 0df7 00       		.byte	0
 2444 0df8 23       		.uleb128 0x23
 2445 0df9 5D0F0000 		.4byte	0xf5d
 2446 0dfd 10000000 		.4byte	.LBI80
 2447 0e01 02       		.byte	.LVU49
 2448 0e02 60000000 		.4byte	.Ldebug_ranges0+0x60
 2449 0e06 01       		.byte	0x1
 2450 0e07 62       		.byte	0x62
 2451 0e08 03       		.byte	0x3
ARM GAS  C:\Users\USER\AppData\Local\Temp\cciSBp8j.s 			page 44


 2452 0e09 4B0E0000 		.4byte	0xe4b
 2453 0e0d 27       		.uleb128 0x27
 2454 0e0e 60000000 		.4byte	.Ldebug_ranges0+0x60
 2455 0e12 24       		.uleb128 0x24
 2456 0e13 7F0F0000 		.4byte	0xf7f
 2457 0e17 10000000 		.4byte	.LBI82
 2458 0e1b 08       		.byte	.LVU55
 2459 0e1c 60000000 		.4byte	.Ldebug_ranges0+0x60
 2460 0e20 02       		.byte	0x2
 2461 0e21 7301     		.2byte	0x173
 2462 0e23 03       		.byte	0x3
 2463 0e24 25       		.uleb128 0x25
 2464 0e25 930F0000 		.4byte	0xf93
 2465 0e29 10000000 		.4byte	.LBI83
 2466 0e2d 0A       		.byte	.LVU57
 2467 0e2e 10000000 		.4byte	.LBB83
 2468 0e32 06000000 		.4byte	.LBE83-.LBB83
 2469 0e36 03       		.byte	0x3
 2470 0e37 CD01     		.2byte	0x1cd
 2471 0e39 03       		.byte	0x3
 2472 0e3a 26       		.uleb128 0x26
 2473 0e3b A10F0000 		.4byte	0xfa1
 2474 0e3f C0020000 		.4byte	.LLST5
 2475 0e43 BE020000 		.4byte	.LVUS5
 2476 0e47 00       		.byte	0
 2477 0e48 00       		.byte	0
 2478 0e49 00       		.byte	0
 2479 0e4a 00       		.byte	0
 2480 0e4b 2D       		.uleb128 0x2d
 2481 0e4c 3C000000 		.4byte	.LVL11
 2482 0e50 E00F0000 		.4byte	0xfe0
 2483 0e54 2E       		.uleb128 0x2e
 2484 0e55 4C000000 		.4byte	.LVL13
 2485 0e59 EC0F0000 		.4byte	0xfec
 2486 0e5d 29       		.uleb128 0x29
 2487 0e5e 01       		.uleb128 0x1
 2488 0e5f 50       		.byte	0x50
 2489 0e60 03       		.uleb128 0x3
 2490 0e61 F3       		.byte	0xf3
 2491 0e62 01       		.uleb128 0x1
 2492 0e63 50       		.byte	0x50
 2493 0e64 00       		.byte	0
 2494 0e65 00       		.byte	0
 2495 0e66 17       		.uleb128 0x17
 2496 0e67 94070000 		.4byte	0x794
 2497 0e6b 760E0000 		.4byte	0xe76
 2498 0e6f 18       		.uleb128 0x18
 2499 0e70 38000000 		.4byte	0x38
 2500 0e74 0C       		.byte	0xc
 2501 0e75 00       		.byte	0
 2502 0e76 16       		.uleb128 0x16
 2503 0e77 660E0000 		.4byte	0xe66
 2504 0e7b 1E       		.uleb128 0x1e
 2505 0e7c 57040000 		.4byte	.LASF151
 2506 0e80 01       		.byte	0x1
 2507 0e81 44       		.byte	0x44
 2508 0e82 0B       		.byte	0xb
ARM GAS  C:\Users\USER\AppData\Local\Temp\cciSBp8j.s 			page 45


 2509 0e83 A3020000 		.4byte	0x2a3
 2510 0e87 00000000 		.4byte	.LFB219
 2511 0e8b 14000000 		.4byte	.LFE219-.LFB219
 2512 0e8f 01       		.uleb128 0x1
 2513 0e90 9C       		.byte	0x9c
 2514 0e91 480F0000 		.4byte	0xf48
 2515 0e95 2F       		.uleb128 0x2f
 2516 0e96 747000   		.ascii	"tp\000"
 2517 0e99 01       		.byte	0x1
 2518 0e9a 44       		.byte	0x44
 2519 0e9b 21       		.byte	0x21
 2520 0e9c A3020000 		.4byte	0x2a3
 2521 0ea0 01       		.uleb128 0x1
 2522 0ea1 50       		.byte	0x50
 2523 0ea2 22       		.uleb128 0x22
 2524 0ea3 11060000 		.4byte	.LASF150
 2525 0ea7 580F0000 		.4byte	0xf58
 2526 0eab 23       		.uleb128 0x23
 2527 0eac 750F0000 		.4byte	0xf75
 2528 0eb0 00000000 		.4byte	.LBI54
 2529 0eb4 02       		.byte	.LVU2
 2530 0eb5 00000000 		.4byte	.Ldebug_ranges0+0
 2531 0eb9 01       		.byte	0x1
 2532 0eba 46       		.byte	0x46
 2533 0ebb 03       		.byte	0x3
 2534 0ebc F80E0000 		.4byte	0xef8
 2535 0ec0 24       		.uleb128 0x24
 2536 0ec1 890F0000 		.4byte	0xf89
 2537 0ec5 00000000 		.4byte	.LBI55
 2538 0ec9 04       		.byte	.LVU4
 2539 0eca 08000000 		.4byte	.Ldebug_ranges0+0x8
 2540 0ece 02       		.byte	0x2
 2541 0ecf 5C01     		.2byte	0x15c
 2542 0ed1 03       		.byte	0x3
 2543 0ed2 25       		.uleb128 0x25
 2544 0ed3 930F0000 		.4byte	0xf93
 2545 0ed7 00000000 		.4byte	.LBI56
 2546 0edb 06       		.byte	.LVU6
 2547 0edc 00000000 		.4byte	.LBB56
 2548 0ee0 06000000 		.4byte	.LBE56-.LBB56
 2549 0ee4 03       		.byte	0x3
 2550 0ee5 BF01     		.2byte	0x1bf
 2551 0ee7 03       		.byte	0x3
 2552 0ee8 26       		.uleb128 0x26
 2553 0ee9 A10F0000 		.4byte	0xfa1
 2554 0eed D6020000 		.4byte	.LLST0
 2555 0ef1 D4020000 		.4byte	.LVUS0
 2556 0ef5 00       		.byte	0
 2557 0ef6 00       		.byte	0
 2558 0ef7 00       		.byte	0
 2559 0ef8 30       		.uleb128 0x30
 2560 0ef9 5D0F0000 		.4byte	0xf5d
 2561 0efd 0C000000 		.4byte	.LBI61
 2562 0f01 01       		.byte	.LVU16
 2563 0f02 20000000 		.4byte	.Ldebug_ranges0+0x20
 2564 0f06 01       		.byte	0x1
 2565 0f07 49       		.byte	0x49
ARM GAS  C:\Users\USER\AppData\Local\Temp\cciSBp8j.s 			page 46


 2566 0f08 03       		.byte	0x3
 2567 0f09 27       		.uleb128 0x27
 2568 0f0a 20000000 		.4byte	.Ldebug_ranges0+0x20
 2569 0f0e 24       		.uleb128 0x24
 2570 0f0f 7F0F0000 		.4byte	0xf7f
 2571 0f13 0C000000 		.4byte	.LBI63
 2572 0f17 07       		.byte	.LVU22
 2573 0f18 20000000 		.4byte	.Ldebug_ranges0+0x20
 2574 0f1c 02       		.byte	0x2
 2575 0f1d 7301     		.2byte	0x173
 2576 0f1f 03       		.byte	0x3
 2577 0f20 25       		.uleb128 0x25
 2578 0f21 930F0000 		.4byte	0xf93
 2579 0f25 0C000000 		.4byte	.LBI64
 2580 0f29 09       		.byte	.LVU24
 2581 0f2a 0C000000 		.4byte	.LBB64
 2582 0f2e 06000000 		.4byte	.LBE64-.LBB64
 2583 0f32 03       		.byte	0x3
 2584 0f33 CD01     		.2byte	0x1cd
 2585 0f35 03       		.byte	0x3
 2586 0f36 26       		.uleb128 0x26
 2587 0f37 A10F0000 		.4byte	0xfa1
 2588 0f3b ED020000 		.4byte	.LLST1
 2589 0f3f EB020000 		.4byte	.LVUS1
 2590 0f43 00       		.byte	0
 2591 0f44 00       		.byte	0
 2592 0f45 00       		.byte	0
 2593 0f46 00       		.byte	0
 2594 0f47 00       		.byte	0
 2595 0f48 17       		.uleb128 0x17
 2596 0f49 94070000 		.4byte	0x794
 2597 0f4d 580F0000 		.4byte	0xf58
 2598 0f51 18       		.uleb128 0x18
 2599 0f52 38000000 		.4byte	0x38
 2600 0f56 0B       		.byte	0xb
 2601 0f57 00       		.byte	0
 2602 0f58 16       		.uleb128 0x16
 2603 0f59 480F0000 		.4byte	0xf48
 2604 0f5d 31       		.uleb128 0x31
 2605 0f5e 24080000 		.4byte	.LASF155
 2606 0f62 02       		.byte	0x2
 2607 0f63 6601     		.2byte	0x166
 2608 0f65 14       		.byte	0x14
 2609 0f66 03       		.byte	0x3
 2610 0f67 750F0000 		.4byte	0xf75
 2611 0f6b 22       		.uleb128 0x22
 2612 0f6c 11060000 		.4byte	.LASF150
 2613 0f70 580F0000 		.4byte	0xf58
 2614 0f74 00       		.byte	0
 2615 0f75 32       		.uleb128 0x32
 2616 0f76 1A060000 		.4byte	.LASF152
 2617 0f7a 02       		.byte	0x2
 2618 0f7b 5A01     		.2byte	0x15a
 2619 0f7d 14       		.byte	0x14
 2620 0f7e 03       		.byte	0x3
 2621 0f7f 32       		.uleb128 0x32
 2622 0f80 4F010000 		.4byte	.LASF153
ARM GAS  C:\Users\USER\AppData\Local\Temp\cciSBp8j.s 			page 47


 2623 0f84 03       		.byte	0x3
 2624 0f85 CA01     		.2byte	0x1ca
 2625 0f87 14       		.byte	0x14
 2626 0f88 03       		.byte	0x3
 2627 0f89 32       		.uleb128 0x32
 2628 0f8a 51000000 		.4byte	.LASF154
 2629 0f8e 03       		.byte	0x3
 2630 0f8f BC01     		.2byte	0x1bc
 2631 0f91 14       		.byte	0x14
 2632 0f92 03       		.byte	0x3
 2633 0f93 31       		.uleb128 0x31
 2634 0f94 1E070000 		.4byte	.LASF156
 2635 0f98 04       		.byte	0x4
 2636 0f99 2002     		.2byte	0x220
 2637 0f9b 39       		.byte	0x39
 2638 0f9c 03       		.byte	0x3
 2639 0f9d AF0F0000 		.4byte	0xfaf
 2640 0fa1 33       		.uleb128 0x33
 2641 0fa2 45030000 		.4byte	.LASF168
 2642 0fa6 04       		.byte	0x4
 2643 0fa7 2002     		.2byte	0x220
 2644 0fa9 50       		.byte	0x50
 2645 0faa DC000000 		.4byte	0xdc
 2646 0fae 00       		.byte	0
 2647 0faf 34       		.uleb128 0x34
 2648 0fb0 D1070000 		.4byte	.LASF157
 2649 0fb4 D1070000 		.4byte	.LASF157
 2650 0fb8 15       		.byte	0x15
 2651 0fb9 6F       		.byte	0x6f
 2652 0fba 09       		.byte	0x9
 2653 0fbb 34       		.uleb128 0x34
 2654 0fbc 65010000 		.4byte	.LASF158
 2655 0fc0 65010000 		.4byte	.LASF158
 2656 0fc4 11       		.byte	0x11
 2657 0fc5 87       		.byte	0x87
 2658 0fc6 0D       		.byte	0xd
 2659 0fc7 35       		.uleb128 0x35
 2660 0fc8 FD030000 		.4byte	.LASF159
 2661 0fcc FD030000 		.4byte	.LASF159
 2662 0fd0 0A       		.byte	0xa
 2663 0fd1 1602     		.2byte	0x216
 2664 0fd3 08       		.byte	0x8
 2665 0fd4 34       		.uleb128 0x34
 2666 0fd5 41060000 		.4byte	.LASF160
 2667 0fd9 41060000 		.4byte	.LASF160
 2668 0fdd 14       		.byte	0x14
 2669 0fde 67       		.byte	0x67
 2670 0fdf 09       		.byte	0x9
 2671 0fe0 34       		.uleb128 0x34
 2672 0fe1 DD070000 		.4byte	.LASF161
 2673 0fe5 DD070000 		.4byte	.LASF161
 2674 0fe9 15       		.byte	0x15
 2675 0fea 71       		.byte	0x71
 2676 0feb 08       		.byte	0x8
 2677 0fec 34       		.uleb128 0x34
 2678 0fed 3D010000 		.4byte	.LASF162
 2679 0ff1 3D010000 		.4byte	.LASF162
ARM GAS  C:\Users\USER\AppData\Local\Temp\cciSBp8j.s 			page 48


 2680 0ff5 14       		.byte	0x14
 2681 0ff6 68       		.byte	0x68
 2682 0ff7 08       		.byte	0x8
 2683 0ff8 00       		.byte	0
 2684              		.section	.debug_abbrev,"",%progbits
 2685              	.Ldebug_abbrev0:
 2686 0000 01       		.uleb128 0x1
 2687 0001 11       		.uleb128 0x11
 2688 0002 01       		.byte	0x1
 2689 0003 25       		.uleb128 0x25
 2690 0004 0E       		.uleb128 0xe
 2691 0005 13       		.uleb128 0x13
 2692 0006 0B       		.uleb128 0xb
 2693 0007 03       		.uleb128 0x3
 2694 0008 0E       		.uleb128 0xe
 2695 0009 1B       		.uleb128 0x1b
 2696 000a 0E       		.uleb128 0xe
 2697 000b 55       		.uleb128 0x55
 2698 000c 17       		.uleb128 0x17
 2699 000d 11       		.uleb128 0x11
 2700 000e 01       		.uleb128 0x1
 2701 000f 10       		.uleb128 0x10
 2702 0010 17       		.uleb128 0x17
 2703 0011 00       		.byte	0
 2704 0012 00       		.byte	0
 2705 0013 02       		.uleb128 0x2
 2706 0014 24       		.uleb128 0x24
 2707 0015 00       		.byte	0
 2708 0016 0B       		.uleb128 0xb
 2709 0017 0B       		.uleb128 0xb
 2710 0018 3E       		.uleb128 0x3e
 2711 0019 0B       		.uleb128 0xb
 2712 001a 03       		.uleb128 0x3
 2713 001b 08       		.uleb128 0x8
 2714 001c 00       		.byte	0
 2715 001d 00       		.byte	0
 2716 001e 03       		.uleb128 0x3
 2717 001f 16       		.uleb128 0x16
 2718 0020 00       		.byte	0
 2719 0021 03       		.uleb128 0x3
 2720 0022 0E       		.uleb128 0xe
 2721 0023 3A       		.uleb128 0x3a
 2722 0024 0B       		.uleb128 0xb
 2723 0025 3B       		.uleb128 0x3b
 2724 0026 0B       		.uleb128 0xb
 2725 0027 39       		.uleb128 0x39
 2726 0028 0B       		.uleb128 0xb
 2727 0029 49       		.uleb128 0x49
 2728 002a 13       		.uleb128 0x13
 2729 002b 00       		.byte	0
 2730 002c 00       		.byte	0
 2731 002d 04       		.uleb128 0x4
 2732 002e 24       		.uleb128 0x24
 2733 002f 00       		.byte	0
 2734 0030 0B       		.uleb128 0xb
 2735 0031 0B       		.uleb128 0xb
 2736 0032 3E       		.uleb128 0x3e
ARM GAS  C:\Users\USER\AppData\Local\Temp\cciSBp8j.s 			page 49


 2737 0033 0B       		.uleb128 0xb
 2738 0034 03       		.uleb128 0x3
 2739 0035 0E       		.uleb128 0xe
 2740 0036 00       		.byte	0
 2741 0037 00       		.byte	0
 2742 0038 05       		.uleb128 0x5
 2743 0039 35       		.uleb128 0x35
 2744 003a 00       		.byte	0
 2745 003b 49       		.uleb128 0x49
 2746 003c 13       		.uleb128 0x13
 2747 003d 00       		.byte	0
 2748 003e 00       		.byte	0
 2749 003f 06       		.uleb128 0x6
 2750 0040 13       		.uleb128 0x13
 2751 0041 01       		.byte	0x1
 2752 0042 03       		.uleb128 0x3
 2753 0043 0E       		.uleb128 0xe
 2754 0044 0B       		.uleb128 0xb
 2755 0045 0B       		.uleb128 0xb
 2756 0046 3A       		.uleb128 0x3a
 2757 0047 0B       		.uleb128 0xb
 2758 0048 3B       		.uleb128 0x3b
 2759 0049 0B       		.uleb128 0xb
 2760 004a 39       		.uleb128 0x39
 2761 004b 0B       		.uleb128 0xb
 2762 004c 01       		.uleb128 0x1
 2763 004d 13       		.uleb128 0x13
 2764 004e 00       		.byte	0
 2765 004f 00       		.byte	0
 2766 0050 07       		.uleb128 0x7
 2767 0051 0D       		.uleb128 0xd
 2768 0052 00       		.byte	0
 2769 0053 03       		.uleb128 0x3
 2770 0054 0E       		.uleb128 0xe
 2771 0055 3A       		.uleb128 0x3a
 2772 0056 0B       		.uleb128 0xb
 2773 0057 3B       		.uleb128 0x3b
 2774 0058 0B       		.uleb128 0xb
 2775 0059 39       		.uleb128 0x39
 2776 005a 0B       		.uleb128 0xb
 2777 005b 49       		.uleb128 0x49
 2778 005c 13       		.uleb128 0x13
 2779 005d 38       		.uleb128 0x38
 2780 005e 0B       		.uleb128 0xb
 2781 005f 00       		.byte	0
 2782 0060 00       		.byte	0
 2783 0061 08       		.uleb128 0x8
 2784 0062 0D       		.uleb128 0xd
 2785 0063 00       		.byte	0
 2786 0064 03       		.uleb128 0x3
 2787 0065 08       		.uleb128 0x8
 2788 0066 3A       		.uleb128 0x3a
 2789 0067 0B       		.uleb128 0xb
 2790 0068 3B       		.uleb128 0x3b
 2791 0069 05       		.uleb128 0x5
 2792 006a 39       		.uleb128 0x39
 2793 006b 0B       		.uleb128 0xb
ARM GAS  C:\Users\USER\AppData\Local\Temp\cciSBp8j.s 			page 50


 2794 006c 49       		.uleb128 0x49
 2795 006d 13       		.uleb128 0x13
 2796 006e 38       		.uleb128 0x38
 2797 006f 0B       		.uleb128 0xb
 2798 0070 00       		.byte	0
 2799 0071 00       		.byte	0
 2800 0072 09       		.uleb128 0x9
 2801 0073 0D       		.uleb128 0xd
 2802 0074 00       		.byte	0
 2803 0075 03       		.uleb128 0x3
 2804 0076 0E       		.uleb128 0xe
 2805 0077 3A       		.uleb128 0x3a
 2806 0078 0B       		.uleb128 0xb
 2807 0079 3B       		.uleb128 0x3b
 2808 007a 05       		.uleb128 0x5
 2809 007b 39       		.uleb128 0x39
 2810 007c 0B       		.uleb128 0xb
 2811 007d 49       		.uleb128 0x49
 2812 007e 13       		.uleb128 0x13
 2813 007f 38       		.uleb128 0x38
 2814 0080 0B       		.uleb128 0xb
 2815 0081 00       		.byte	0
 2816 0082 00       		.byte	0
 2817 0083 0A       		.uleb128 0xa
 2818 0084 0F       		.uleb128 0xf
 2819 0085 00       		.byte	0
 2820 0086 0B       		.uleb128 0xb
 2821 0087 0B       		.uleb128 0xb
 2822 0088 49       		.uleb128 0x49
 2823 0089 13       		.uleb128 0x13
 2824 008a 00       		.byte	0
 2825 008b 00       		.byte	0
 2826 008c 0B       		.uleb128 0xb
 2827 008d 13       		.uleb128 0x13
 2828 008e 01       		.byte	0x1
 2829 008f 03       		.uleb128 0x3
 2830 0090 0E       		.uleb128 0xe
 2831 0091 0B       		.uleb128 0xb
 2832 0092 0B       		.uleb128 0xb
 2833 0093 3A       		.uleb128 0x3a
 2834 0094 0B       		.uleb128 0xb
 2835 0095 3B       		.uleb128 0x3b
 2836 0096 05       		.uleb128 0x5
 2837 0097 39       		.uleb128 0x39
 2838 0098 0B       		.uleb128 0xb
 2839 0099 01       		.uleb128 0x1
 2840 009a 13       		.uleb128 0x13
 2841 009b 00       		.byte	0
 2842 009c 00       		.byte	0
 2843 009d 0C       		.uleb128 0xc
 2844 009e 15       		.uleb128 0x15
 2845 009f 01       		.byte	0x1
 2846 00a0 27       		.uleb128 0x27
 2847 00a1 19       		.uleb128 0x19
 2848 00a2 01       		.uleb128 0x1
 2849 00a3 13       		.uleb128 0x13
 2850 00a4 00       		.byte	0
ARM GAS  C:\Users\USER\AppData\Local\Temp\cciSBp8j.s 			page 51


 2851 00a5 00       		.byte	0
 2852 00a6 0D       		.uleb128 0xd
 2853 00a7 05       		.uleb128 0x5
 2854 00a8 00       		.byte	0
 2855 00a9 49       		.uleb128 0x49
 2856 00aa 13       		.uleb128 0x13
 2857 00ab 00       		.byte	0
 2858 00ac 00       		.byte	0
 2859 00ad 0E       		.uleb128 0xe
 2860 00ae 0F       		.uleb128 0xf
 2861 00af 00       		.byte	0
 2862 00b0 0B       		.uleb128 0xb
 2863 00b1 0B       		.uleb128 0xb
 2864 00b2 00       		.byte	0
 2865 00b3 00       		.byte	0
 2866 00b4 0F       		.uleb128 0xf
 2867 00b5 13       		.uleb128 0x13
 2868 00b6 01       		.byte	0x1
 2869 00b7 03       		.uleb128 0x3
 2870 00b8 0E       		.uleb128 0xe
 2871 00b9 0B       		.uleb128 0xb
 2872 00ba 05       		.uleb128 0x5
 2873 00bb 3A       		.uleb128 0x3a
 2874 00bc 0B       		.uleb128 0xb
 2875 00bd 3B       		.uleb128 0x3b
 2876 00be 05       		.uleb128 0x5
 2877 00bf 39       		.uleb128 0x39
 2878 00c0 0B       		.uleb128 0xb
 2879 00c1 01       		.uleb128 0x1
 2880 00c2 13       		.uleb128 0x13
 2881 00c3 00       		.byte	0
 2882 00c4 00       		.byte	0
 2883 00c5 10       		.uleb128 0x10
 2884 00c6 34       		.uleb128 0x34
 2885 00c7 00       		.byte	0
 2886 00c8 03       		.uleb128 0x3
 2887 00c9 0E       		.uleb128 0xe
 2888 00ca 3A       		.uleb128 0x3a
 2889 00cb 0B       		.uleb128 0xb
 2890 00cc 3B       		.uleb128 0x3b
 2891 00cd 05       		.uleb128 0x5
 2892 00ce 39       		.uleb128 0x39
 2893 00cf 0B       		.uleb128 0xb
 2894 00d0 49       		.uleb128 0x49
 2895 00d1 13       		.uleb128 0x13
 2896 00d2 3F       		.uleb128 0x3f
 2897 00d3 19       		.uleb128 0x19
 2898 00d4 3C       		.uleb128 0x3c
 2899 00d5 19       		.uleb128 0x19
 2900 00d6 00       		.byte	0
 2901 00d7 00       		.byte	0
 2902 00d8 11       		.uleb128 0x11
 2903 00d9 34       		.uleb128 0x34
 2904 00da 00       		.byte	0
 2905 00db 03       		.uleb128 0x3
 2906 00dc 0E       		.uleb128 0xe
 2907 00dd 3A       		.uleb128 0x3a
ARM GAS  C:\Users\USER\AppData\Local\Temp\cciSBp8j.s 			page 52


 2908 00de 0B       		.uleb128 0xb
 2909 00df 3B       		.uleb128 0x3b
 2910 00e0 0B       		.uleb128 0xb
 2911 00e1 39       		.uleb128 0x39
 2912 00e2 0B       		.uleb128 0xb
 2913 00e3 49       		.uleb128 0x49
 2914 00e4 13       		.uleb128 0x13
 2915 00e5 3F       		.uleb128 0x3f
 2916 00e6 19       		.uleb128 0x19
 2917 00e7 3C       		.uleb128 0x3c
 2918 00e8 19       		.uleb128 0x19
 2919 00e9 00       		.byte	0
 2920 00ea 00       		.byte	0
 2921 00eb 12       		.uleb128 0x12
 2922 00ec 0D       		.uleb128 0xd
 2923 00ed 00       		.byte	0
 2924 00ee 03       		.uleb128 0x3
 2925 00ef 08       		.uleb128 0x8
 2926 00f0 3A       		.uleb128 0x3a
 2927 00f1 0B       		.uleb128 0xb
 2928 00f2 3B       		.uleb128 0x3b
 2929 00f3 0B       		.uleb128 0xb
 2930 00f4 39       		.uleb128 0x39
 2931 00f5 0B       		.uleb128 0xb
 2932 00f6 49       		.uleb128 0x49
 2933 00f7 13       		.uleb128 0x13
 2934 00f8 38       		.uleb128 0x38
 2935 00f9 0B       		.uleb128 0xb
 2936 00fa 00       		.byte	0
 2937 00fb 00       		.byte	0
 2938 00fc 13       		.uleb128 0x13
 2939 00fd 13       		.uleb128 0x13
 2940 00fe 01       		.byte	0x1
 2941 00ff 0B       		.uleb128 0xb
 2942 0100 0B       		.uleb128 0xb
 2943 0101 3A       		.uleb128 0x3a
 2944 0102 0B       		.uleb128 0xb
 2945 0103 3B       		.uleb128 0x3b
 2946 0104 0B       		.uleb128 0xb
 2947 0105 39       		.uleb128 0x39
 2948 0106 0B       		.uleb128 0xb
 2949 0107 01       		.uleb128 0x1
 2950 0108 13       		.uleb128 0x13
 2951 0109 00       		.byte	0
 2952 010a 00       		.byte	0
 2953 010b 14       		.uleb128 0x14
 2954 010c 17       		.uleb128 0x17
 2955 010d 01       		.byte	0x1
 2956 010e 0B       		.uleb128 0xb
 2957 010f 0B       		.uleb128 0xb
 2958 0110 3A       		.uleb128 0x3a
 2959 0111 0B       		.uleb128 0xb
 2960 0112 3B       		.uleb128 0x3b
 2961 0113 0B       		.uleb128 0xb
 2962 0114 39       		.uleb128 0x39
 2963 0115 0B       		.uleb128 0xb
 2964 0116 01       		.uleb128 0x1
ARM GAS  C:\Users\USER\AppData\Local\Temp\cciSBp8j.s 			page 53


 2965 0117 13       		.uleb128 0x13
 2966 0118 00       		.byte	0
 2967 0119 00       		.byte	0
 2968 011a 15       		.uleb128 0x15
 2969 011b 0D       		.uleb128 0xd
 2970 011c 00       		.byte	0
 2971 011d 03       		.uleb128 0x3
 2972 011e 0E       		.uleb128 0xe
 2973 011f 3A       		.uleb128 0x3a
 2974 0120 0B       		.uleb128 0xb
 2975 0121 3B       		.uleb128 0x3b
 2976 0122 05       		.uleb128 0x5
 2977 0123 39       		.uleb128 0x39
 2978 0124 0B       		.uleb128 0xb
 2979 0125 49       		.uleb128 0x49
 2980 0126 13       		.uleb128 0x13
 2981 0127 00       		.byte	0
 2982 0128 00       		.byte	0
 2983 0129 16       		.uleb128 0x16
 2984 012a 26       		.uleb128 0x26
 2985 012b 00       		.byte	0
 2986 012c 49       		.uleb128 0x49
 2987 012d 13       		.uleb128 0x13
 2988 012e 00       		.byte	0
 2989 012f 00       		.byte	0
 2990 0130 17       		.uleb128 0x17
 2991 0131 01       		.uleb128 0x1
 2992 0132 01       		.byte	0x1
 2993 0133 49       		.uleb128 0x49
 2994 0134 13       		.uleb128 0x13
 2995 0135 01       		.uleb128 0x1
 2996 0136 13       		.uleb128 0x13
 2997 0137 00       		.byte	0
 2998 0138 00       		.byte	0
 2999 0139 18       		.uleb128 0x18
 3000 013a 21       		.uleb128 0x21
 3001 013b 00       		.byte	0
 3002 013c 49       		.uleb128 0x49
 3003 013d 13       		.uleb128 0x13
 3004 013e 2F       		.uleb128 0x2f
 3005 013f 0B       		.uleb128 0xb
 3006 0140 00       		.byte	0
 3007 0141 00       		.byte	0
 3008 0142 19       		.uleb128 0x19
 3009 0143 34       		.uleb128 0x34
 3010 0144 00       		.byte	0
 3011 0145 03       		.uleb128 0x3
 3012 0146 08       		.uleb128 0x8
 3013 0147 3A       		.uleb128 0x3a
 3014 0148 0B       		.uleb128 0xb
 3015 0149 3B       		.uleb128 0x3b
 3016 014a 05       		.uleb128 0x5
 3017 014b 39       		.uleb128 0x39
 3018 014c 0B       		.uleb128 0xb
 3019 014d 49       		.uleb128 0x49
 3020 014e 13       		.uleb128 0x13
 3021 014f 3F       		.uleb128 0x3f
ARM GAS  C:\Users\USER\AppData\Local\Temp\cciSBp8j.s 			page 54


 3022 0150 19       		.uleb128 0x19
 3023 0151 3C       		.uleb128 0x3c
 3024 0152 19       		.uleb128 0x19
 3025 0153 00       		.byte	0
 3026 0154 00       		.byte	0
 3027 0155 1A       		.uleb128 0x1a
 3028 0156 15       		.uleb128 0x15
 3029 0157 01       		.byte	0x1
 3030 0158 27       		.uleb128 0x27
 3031 0159 19       		.uleb128 0x19
 3032 015a 49       		.uleb128 0x49
 3033 015b 13       		.uleb128 0x13
 3034 015c 01       		.uleb128 0x1
 3035 015d 13       		.uleb128 0x13
 3036 015e 00       		.byte	0
 3037 015f 00       		.byte	0
 3038 0160 1B       		.uleb128 0x1b
 3039 0161 0D       		.uleb128 0xd
 3040 0162 00       		.byte	0
 3041 0163 03       		.uleb128 0x3
 3042 0164 0E       		.uleb128 0xe
 3043 0165 3A       		.uleb128 0x3a
 3044 0166 0B       		.uleb128 0xb
 3045 0167 3B       		.uleb128 0x3b
 3046 0168 0B       		.uleb128 0xb
 3047 0169 39       		.uleb128 0x39
 3048 016a 0B       		.uleb128 0xb
 3049 016b 49       		.uleb128 0x49
 3050 016c 13       		.uleb128 0x13
 3051 016d 00       		.byte	0
 3052 016e 00       		.byte	0
 3053 016f 1C       		.uleb128 0x1c
 3054 0170 17       		.uleb128 0x17
 3055 0171 01       		.byte	0x1
 3056 0172 03       		.uleb128 0x3
 3057 0173 0E       		.uleb128 0xe
 3058 0174 0B       		.uleb128 0xb
 3059 0175 0B       		.uleb128 0xb
 3060 0176 3A       		.uleb128 0x3a
 3061 0177 0B       		.uleb128 0xb
 3062 0178 3B       		.uleb128 0x3b
 3063 0179 0B       		.uleb128 0xb
 3064 017a 39       		.uleb128 0x39
 3065 017b 0B       		.uleb128 0xb
 3066 017c 01       		.uleb128 0x1
 3067 017d 13       		.uleb128 0x13
 3068 017e 00       		.byte	0
 3069 017f 00       		.byte	0
 3070 0180 1D       		.uleb128 0x1d
 3071 0181 0D       		.uleb128 0xd
 3072 0182 00       		.byte	0
 3073 0183 03       		.uleb128 0x3
 3074 0184 08       		.uleb128 0x8
 3075 0185 3A       		.uleb128 0x3a
 3076 0186 0B       		.uleb128 0xb
 3077 0187 3B       		.uleb128 0x3b
 3078 0188 0B       		.uleb128 0xb
ARM GAS  C:\Users\USER\AppData\Local\Temp\cciSBp8j.s 			page 55


 3079 0189 39       		.uleb128 0x39
 3080 018a 0B       		.uleb128 0xb
 3081 018b 49       		.uleb128 0x49
 3082 018c 13       		.uleb128 0x13
 3083 018d 00       		.byte	0
 3084 018e 00       		.byte	0
 3085 018f 1E       		.uleb128 0x1e
 3086 0190 2E       		.uleb128 0x2e
 3087 0191 01       		.byte	0x1
 3088 0192 3F       		.uleb128 0x3f
 3089 0193 19       		.uleb128 0x19
 3090 0194 03       		.uleb128 0x3
 3091 0195 0E       		.uleb128 0xe
 3092 0196 3A       		.uleb128 0x3a
 3093 0197 0B       		.uleb128 0xb
 3094 0198 3B       		.uleb128 0x3b
 3095 0199 0B       		.uleb128 0xb
 3096 019a 39       		.uleb128 0x39
 3097 019b 0B       		.uleb128 0xb
 3098 019c 27       		.uleb128 0x27
 3099 019d 19       		.uleb128 0x19
 3100 019e 49       		.uleb128 0x49
 3101 019f 13       		.uleb128 0x13
 3102 01a0 11       		.uleb128 0x11
 3103 01a1 01       		.uleb128 0x1
 3104 01a2 12       		.uleb128 0x12
 3105 01a3 06       		.uleb128 0x6
 3106 01a4 40       		.uleb128 0x40
 3107 01a5 18       		.uleb128 0x18
 3108 01a6 9742     		.uleb128 0x2117
 3109 01a8 19       		.uleb128 0x19
 3110 01a9 01       		.uleb128 0x1
 3111 01aa 13       		.uleb128 0x13
 3112 01ab 00       		.byte	0
 3113 01ac 00       		.byte	0
 3114 01ad 1F       		.uleb128 0x1f
 3115 01ae 05       		.uleb128 0x5
 3116 01af 00       		.byte	0
 3117 01b0 03       		.uleb128 0x3
 3118 01b1 08       		.uleb128 0x8
 3119 01b2 3A       		.uleb128 0x3a
 3120 01b3 0B       		.uleb128 0xb
 3121 01b4 3B       		.uleb128 0x3b
 3122 01b5 0B       		.uleb128 0xb
 3123 01b6 39       		.uleb128 0x39
 3124 01b7 0B       		.uleb128 0xb
 3125 01b8 49       		.uleb128 0x49
 3126 01b9 13       		.uleb128 0x13
 3127 01ba 02       		.uleb128 0x2
 3128 01bb 17       		.uleb128 0x17
 3129 01bc B742     		.uleb128 0x2137
 3130 01be 17       		.uleb128 0x17
 3131 01bf 00       		.byte	0
 3132 01c0 00       		.byte	0
 3133 01c1 20       		.uleb128 0x20
 3134 01c2 05       		.uleb128 0x5
 3135 01c3 00       		.byte	0
ARM GAS  C:\Users\USER\AppData\Local\Temp\cciSBp8j.s 			page 56


 3136 01c4 03       		.uleb128 0x3
 3137 01c5 0E       		.uleb128 0xe
 3138 01c6 3A       		.uleb128 0x3a
 3139 01c7 0B       		.uleb128 0xb
 3140 01c8 3B       		.uleb128 0x3b
 3141 01c9 0B       		.uleb128 0xb
 3142 01ca 39       		.uleb128 0x39
 3143 01cb 0B       		.uleb128 0xb
 3144 01cc 49       		.uleb128 0x49
 3145 01cd 13       		.uleb128 0x13
 3146 01ce 02       		.uleb128 0x2
 3147 01cf 17       		.uleb128 0x17
 3148 01d0 B742     		.uleb128 0x2137
 3149 01d2 17       		.uleb128 0x17
 3150 01d3 00       		.byte	0
 3151 01d4 00       		.byte	0
 3152 01d5 21       		.uleb128 0x21
 3153 01d6 34       		.uleb128 0x34
 3154 01d7 00       		.byte	0
 3155 01d8 03       		.uleb128 0x3
 3156 01d9 08       		.uleb128 0x8
 3157 01da 3A       		.uleb128 0x3a
 3158 01db 0B       		.uleb128 0xb
 3159 01dc 3B       		.uleb128 0x3b
 3160 01dd 0B       		.uleb128 0xb
 3161 01de 39       		.uleb128 0x39
 3162 01df 0B       		.uleb128 0xb
 3163 01e0 49       		.uleb128 0x49
 3164 01e1 13       		.uleb128 0x13
 3165 01e2 02       		.uleb128 0x2
 3166 01e3 17       		.uleb128 0x17
 3167 01e4 B742     		.uleb128 0x2137
 3168 01e6 17       		.uleb128 0x17
 3169 01e7 00       		.byte	0
 3170 01e8 00       		.byte	0
 3171 01e9 22       		.uleb128 0x22
 3172 01ea 34       		.uleb128 0x34
 3173 01eb 00       		.byte	0
 3174 01ec 03       		.uleb128 0x3
 3175 01ed 0E       		.uleb128 0xe
 3176 01ee 49       		.uleb128 0x49
 3177 01ef 13       		.uleb128 0x13
 3178 01f0 34       		.uleb128 0x34
 3179 01f1 19       		.uleb128 0x19
 3180 01f2 00       		.byte	0
 3181 01f3 00       		.byte	0
 3182 01f4 23       		.uleb128 0x23
 3183 01f5 1D       		.uleb128 0x1d
 3184 01f6 01       		.byte	0x1
 3185 01f7 31       		.uleb128 0x31
 3186 01f8 13       		.uleb128 0x13
 3187 01f9 52       		.uleb128 0x52
 3188 01fa 01       		.uleb128 0x1
 3189 01fb B842     		.uleb128 0x2138
 3190 01fd 0B       		.uleb128 0xb
 3191 01fe 55       		.uleb128 0x55
 3192 01ff 17       		.uleb128 0x17
ARM GAS  C:\Users\USER\AppData\Local\Temp\cciSBp8j.s 			page 57


 3193 0200 58       		.uleb128 0x58
 3194 0201 0B       		.uleb128 0xb
 3195 0202 59       		.uleb128 0x59
 3196 0203 0B       		.uleb128 0xb
 3197 0204 57       		.uleb128 0x57
 3198 0205 0B       		.uleb128 0xb
 3199 0206 01       		.uleb128 0x1
 3200 0207 13       		.uleb128 0x13
 3201 0208 00       		.byte	0
 3202 0209 00       		.byte	0
 3203 020a 24       		.uleb128 0x24
 3204 020b 1D       		.uleb128 0x1d
 3205 020c 01       		.byte	0x1
 3206 020d 31       		.uleb128 0x31
 3207 020e 13       		.uleb128 0x13
 3208 020f 52       		.uleb128 0x52
 3209 0210 01       		.uleb128 0x1
 3210 0211 B842     		.uleb128 0x2138
 3211 0213 0B       		.uleb128 0xb
 3212 0214 55       		.uleb128 0x55
 3213 0215 17       		.uleb128 0x17
 3214 0216 58       		.uleb128 0x58
 3215 0217 0B       		.uleb128 0xb
 3216 0218 59       		.uleb128 0x59
 3217 0219 05       		.uleb128 0x5
 3218 021a 57       		.uleb128 0x57
 3219 021b 0B       		.uleb128 0xb
 3220 021c 00       		.byte	0
 3221 021d 00       		.byte	0
 3222 021e 25       		.uleb128 0x25
 3223 021f 1D       		.uleb128 0x1d
 3224 0220 01       		.byte	0x1
 3225 0221 31       		.uleb128 0x31
 3226 0222 13       		.uleb128 0x13
 3227 0223 52       		.uleb128 0x52
 3228 0224 01       		.uleb128 0x1
 3229 0225 B842     		.uleb128 0x2138
 3230 0227 0B       		.uleb128 0xb
 3231 0228 11       		.uleb128 0x11
 3232 0229 01       		.uleb128 0x1
 3233 022a 12       		.uleb128 0x12
 3234 022b 06       		.uleb128 0x6
 3235 022c 58       		.uleb128 0x58
 3236 022d 0B       		.uleb128 0xb
 3237 022e 59       		.uleb128 0x59
 3238 022f 05       		.uleb128 0x5
 3239 0230 57       		.uleb128 0x57
 3240 0231 0B       		.uleb128 0xb
 3241 0232 00       		.byte	0
 3242 0233 00       		.byte	0
 3243 0234 26       		.uleb128 0x26
 3244 0235 05       		.uleb128 0x5
 3245 0236 00       		.byte	0
 3246 0237 31       		.uleb128 0x31
 3247 0238 13       		.uleb128 0x13
 3248 0239 02       		.uleb128 0x2
 3249 023a 17       		.uleb128 0x17
ARM GAS  C:\Users\USER\AppData\Local\Temp\cciSBp8j.s 			page 58


 3250 023b B742     		.uleb128 0x2137
 3251 023d 17       		.uleb128 0x17
 3252 023e 00       		.byte	0
 3253 023f 00       		.byte	0
 3254 0240 27       		.uleb128 0x27
 3255 0241 0B       		.uleb128 0xb
 3256 0242 01       		.byte	0x1
 3257 0243 55       		.uleb128 0x55
 3258 0244 17       		.uleb128 0x17
 3259 0245 00       		.byte	0
 3260 0246 00       		.byte	0
 3261 0247 28       		.uleb128 0x28
 3262 0248 898201   		.uleb128 0x4109
 3263 024b 01       		.byte	0x1
 3264 024c 11       		.uleb128 0x11
 3265 024d 01       		.uleb128 0x1
 3266 024e 31       		.uleb128 0x31
 3267 024f 13       		.uleb128 0x13
 3268 0250 01       		.uleb128 0x1
 3269 0251 13       		.uleb128 0x13
 3270 0252 00       		.byte	0
 3271 0253 00       		.byte	0
 3272 0254 29       		.uleb128 0x29
 3273 0255 8A8201   		.uleb128 0x410a
 3274 0258 00       		.byte	0
 3275 0259 02       		.uleb128 0x2
 3276 025a 18       		.uleb128 0x18
 3277 025b 9142     		.uleb128 0x2111
 3278 025d 18       		.uleb128 0x18
 3279 025e 00       		.byte	0
 3280 025f 00       		.byte	0
 3281 0260 2A       		.uleb128 0x2a
 3282 0261 898201   		.uleb128 0x4109
 3283 0264 01       		.byte	0x1
 3284 0265 11       		.uleb128 0x11
 3285 0266 01       		.uleb128 0x1
 3286 0267 31       		.uleb128 0x31
 3287 0268 13       		.uleb128 0x13
 3288 0269 00       		.byte	0
 3289 026a 00       		.byte	0
 3290 026b 2B       		.uleb128 0x2b
 3291 026c 2E       		.uleb128 0x2e
 3292 026d 01       		.byte	0x1
 3293 026e 3F       		.uleb128 0x3f
 3294 026f 19       		.uleb128 0x19
 3295 0270 03       		.uleb128 0x3
 3296 0271 0E       		.uleb128 0xe
 3297 0272 3A       		.uleb128 0x3a
 3298 0273 0B       		.uleb128 0xb
 3299 0274 3B       		.uleb128 0x3b
 3300 0275 0B       		.uleb128 0xb
 3301 0276 39       		.uleb128 0x39
 3302 0277 0B       		.uleb128 0xb
 3303 0278 27       		.uleb128 0x27
 3304 0279 19       		.uleb128 0x19
 3305 027a 11       		.uleb128 0x11
 3306 027b 01       		.uleb128 0x1
ARM GAS  C:\Users\USER\AppData\Local\Temp\cciSBp8j.s 			page 59


 3307 027c 12       		.uleb128 0x12
 3308 027d 06       		.uleb128 0x6
 3309 027e 40       		.uleb128 0x40
 3310 027f 18       		.uleb128 0x18
 3311 0280 9742     		.uleb128 0x2117
 3312 0282 19       		.uleb128 0x19
 3313 0283 01       		.uleb128 0x1
 3314 0284 13       		.uleb128 0x13
 3315 0285 00       		.byte	0
 3316 0286 00       		.byte	0
 3317 0287 2C       		.uleb128 0x2c
 3318 0288 34       		.uleb128 0x34
 3319 0289 00       		.byte	0
 3320 028a 03       		.uleb128 0x3
 3321 028b 0E       		.uleb128 0xe
 3322 028c 3A       		.uleb128 0x3a
 3323 028d 0B       		.uleb128 0xb
 3324 028e 3B       		.uleb128 0x3b
 3325 028f 0B       		.uleb128 0xb
 3326 0290 39       		.uleb128 0x39
 3327 0291 0B       		.uleb128 0xb
 3328 0292 49       		.uleb128 0x49
 3329 0293 13       		.uleb128 0x13
 3330 0294 02       		.uleb128 0x2
 3331 0295 17       		.uleb128 0x17
 3332 0296 B742     		.uleb128 0x2137
 3333 0298 17       		.uleb128 0x17
 3334 0299 00       		.byte	0
 3335 029a 00       		.byte	0
 3336 029b 2D       		.uleb128 0x2d
 3337 029c 898201   		.uleb128 0x4109
 3338 029f 00       		.byte	0
 3339 02a0 11       		.uleb128 0x11
 3340 02a1 01       		.uleb128 0x1
 3341 02a2 9542     		.uleb128 0x2115
 3342 02a4 19       		.uleb128 0x19
 3343 02a5 31       		.uleb128 0x31
 3344 02a6 13       		.uleb128 0x13
 3345 02a7 00       		.byte	0
 3346 02a8 00       		.byte	0
 3347 02a9 2E       		.uleb128 0x2e
 3348 02aa 898201   		.uleb128 0x4109
 3349 02ad 01       		.byte	0x1
 3350 02ae 11       		.uleb128 0x11
 3351 02af 01       		.uleb128 0x1
 3352 02b0 9542     		.uleb128 0x2115
 3353 02b2 19       		.uleb128 0x19
 3354 02b3 31       		.uleb128 0x31
 3355 02b4 13       		.uleb128 0x13
 3356 02b5 00       		.byte	0
 3357 02b6 00       		.byte	0
 3358 02b7 2F       		.uleb128 0x2f
 3359 02b8 05       		.uleb128 0x5
 3360 02b9 00       		.byte	0
 3361 02ba 03       		.uleb128 0x3
 3362 02bb 08       		.uleb128 0x8
 3363 02bc 3A       		.uleb128 0x3a
ARM GAS  C:\Users\USER\AppData\Local\Temp\cciSBp8j.s 			page 60


 3364 02bd 0B       		.uleb128 0xb
 3365 02be 3B       		.uleb128 0x3b
 3366 02bf 0B       		.uleb128 0xb
 3367 02c0 39       		.uleb128 0x39
 3368 02c1 0B       		.uleb128 0xb
 3369 02c2 49       		.uleb128 0x49
 3370 02c3 13       		.uleb128 0x13
 3371 02c4 02       		.uleb128 0x2
 3372 02c5 18       		.uleb128 0x18
 3373 02c6 00       		.byte	0
 3374 02c7 00       		.byte	0
 3375 02c8 30       		.uleb128 0x30
 3376 02c9 1D       		.uleb128 0x1d
 3377 02ca 01       		.byte	0x1
 3378 02cb 31       		.uleb128 0x31
 3379 02cc 13       		.uleb128 0x13
 3380 02cd 52       		.uleb128 0x52
 3381 02ce 01       		.uleb128 0x1
 3382 02cf B842     		.uleb128 0x2138
 3383 02d1 0B       		.uleb128 0xb
 3384 02d2 55       		.uleb128 0x55
 3385 02d3 17       		.uleb128 0x17
 3386 02d4 58       		.uleb128 0x58
 3387 02d5 0B       		.uleb128 0xb
 3388 02d6 59       		.uleb128 0x59
 3389 02d7 0B       		.uleb128 0xb
 3390 02d8 57       		.uleb128 0x57
 3391 02d9 0B       		.uleb128 0xb
 3392 02da 00       		.byte	0
 3393 02db 00       		.byte	0
 3394 02dc 31       		.uleb128 0x31
 3395 02dd 2E       		.uleb128 0x2e
 3396 02de 01       		.byte	0x1
 3397 02df 03       		.uleb128 0x3
 3398 02e0 0E       		.uleb128 0xe
 3399 02e1 3A       		.uleb128 0x3a
 3400 02e2 0B       		.uleb128 0xb
 3401 02e3 3B       		.uleb128 0x3b
 3402 02e4 05       		.uleb128 0x5
 3403 02e5 39       		.uleb128 0x39
 3404 02e6 0B       		.uleb128 0xb
 3405 02e7 27       		.uleb128 0x27
 3406 02e8 19       		.uleb128 0x19
 3407 02e9 20       		.uleb128 0x20
 3408 02ea 0B       		.uleb128 0xb
 3409 02eb 01       		.uleb128 0x1
 3410 02ec 13       		.uleb128 0x13
 3411 02ed 00       		.byte	0
 3412 02ee 00       		.byte	0
 3413 02ef 32       		.uleb128 0x32
 3414 02f0 2E       		.uleb128 0x2e
 3415 02f1 00       		.byte	0
 3416 02f2 03       		.uleb128 0x3
 3417 02f3 0E       		.uleb128 0xe
 3418 02f4 3A       		.uleb128 0x3a
 3419 02f5 0B       		.uleb128 0xb
 3420 02f6 3B       		.uleb128 0x3b
ARM GAS  C:\Users\USER\AppData\Local\Temp\cciSBp8j.s 			page 61


 3421 02f7 05       		.uleb128 0x5
 3422 02f8 39       		.uleb128 0x39
 3423 02f9 0B       		.uleb128 0xb
 3424 02fa 27       		.uleb128 0x27
 3425 02fb 19       		.uleb128 0x19
 3426 02fc 20       		.uleb128 0x20
 3427 02fd 0B       		.uleb128 0xb
 3428 02fe 00       		.byte	0
 3429 02ff 00       		.byte	0
 3430 0300 33       		.uleb128 0x33
 3431 0301 05       		.uleb128 0x5
 3432 0302 00       		.byte	0
 3433 0303 03       		.uleb128 0x3
 3434 0304 0E       		.uleb128 0xe
 3435 0305 3A       		.uleb128 0x3a
 3436 0306 0B       		.uleb128 0xb
 3437 0307 3B       		.uleb128 0x3b
 3438 0308 05       		.uleb128 0x5
 3439 0309 39       		.uleb128 0x39
 3440 030a 0B       		.uleb128 0xb
 3441 030b 49       		.uleb128 0x49
 3442 030c 13       		.uleb128 0x13
 3443 030d 00       		.byte	0
 3444 030e 00       		.byte	0
 3445 030f 34       		.uleb128 0x34
 3446 0310 2E       		.uleb128 0x2e
 3447 0311 00       		.byte	0
 3448 0312 3F       		.uleb128 0x3f
 3449 0313 19       		.uleb128 0x19
 3450 0314 3C       		.uleb128 0x3c
 3451 0315 19       		.uleb128 0x19
 3452 0316 6E       		.uleb128 0x6e
 3453 0317 0E       		.uleb128 0xe
 3454 0318 03       		.uleb128 0x3
 3455 0319 0E       		.uleb128 0xe
 3456 031a 3A       		.uleb128 0x3a
 3457 031b 0B       		.uleb128 0xb
 3458 031c 3B       		.uleb128 0x3b
 3459 031d 0B       		.uleb128 0xb
 3460 031e 39       		.uleb128 0x39
 3461 031f 0B       		.uleb128 0xb
 3462 0320 00       		.byte	0
 3463 0321 00       		.byte	0
 3464 0322 35       		.uleb128 0x35
 3465 0323 2E       		.uleb128 0x2e
 3466 0324 00       		.byte	0
 3467 0325 3F       		.uleb128 0x3f
 3468 0326 19       		.uleb128 0x19
 3469 0327 3C       		.uleb128 0x3c
 3470 0328 19       		.uleb128 0x19
 3471 0329 6E       		.uleb128 0x6e
 3472 032a 0E       		.uleb128 0xe
 3473 032b 03       		.uleb128 0x3
 3474 032c 0E       		.uleb128 0xe
 3475 032d 3A       		.uleb128 0x3a
 3476 032e 0B       		.uleb128 0xb
 3477 032f 3B       		.uleb128 0x3b
ARM GAS  C:\Users\USER\AppData\Local\Temp\cciSBp8j.s 			page 62


 3478 0330 05       		.uleb128 0x5
 3479 0331 39       		.uleb128 0x39
 3480 0332 0B       		.uleb128 0xb
 3481 0333 00       		.byte	0
 3482 0334 00       		.byte	0
 3483 0335 00       		.byte	0
 3484              		.section	.debug_loc,"",%progbits
 3485              	.Ldebug_loc0:
 3486              	.LVUS15:
 3487 0000 00       		.uleb128 0
 3488 0001 00       		.uleb128 .LVU130
 3489 0002 00       		.uleb128 .LVU130
 3490 0003 00       		.uleb128 0
 3491              	.LLST15:
 3492 0004 00000000 		.4byte	.LVL23
 3493 0008 11000000 		.4byte	.LVL24-1
 3494 000c 0100     		.2byte	0x1
 3495 000e 50       		.byte	0x50
 3496 000f 11000000 		.4byte	.LVL24-1
 3497 0013 4E000000 		.4byte	.LFE222
 3498 0017 0100     		.2byte	0x1
 3499 0019 55       		.byte	0x55
 3500 001a 00000000 		.4byte	0
 3501 001e 00000000 		.4byte	0
 3502              	.LVUS16:
 3503 0022 00       		.uleb128 0
 3504 0023 00       		.uleb128 .LVU130
 3505 0024 00       		.uleb128 .LVU130
 3506 0025 00       		.uleb128 0
 3507              	.LLST16:
 3508 0026 00000000 		.4byte	.LVL23
 3509 002a 11000000 		.4byte	.LVL24-1
 3510 002e 0100     		.2byte	0x1
 3511 0030 51       		.byte	0x51
 3512 0031 11000000 		.4byte	.LVL24-1
 3513 0035 4E000000 		.4byte	.LFE222
 3514 0039 0100     		.2byte	0x1
 3515 003b 56       		.byte	0x56
 3516 003c 00000000 		.4byte	0
 3517 0040 00000000 		.4byte	0
 3518              	.LVUS17:
 3519 0044 00       		.uleb128 0
 3520 0045 00       		.uleb128 .LVU130
 3521 0046 00       		.uleb128 .LVU130
 3522 0047 00       		.uleb128 0
 3523              	.LLST17:
 3524 0048 00000000 		.4byte	.LVL23
 3525 004c 11000000 		.4byte	.LVL24-1
 3526 0050 0100     		.2byte	0x1
 3527 0052 52       		.byte	0x52
 3528 0053 11000000 		.4byte	.LVL24-1
 3529 0057 4E000000 		.4byte	.LFE222
 3530 005b 0100     		.2byte	0x1
 3531 005d 57       		.byte	0x57
 3532 005e 00000000 		.4byte	0
 3533 0062 00000000 		.4byte	0
 3534              	.LVUS18:
ARM GAS  C:\Users\USER\AppData\Local\Temp\cciSBp8j.s 			page 63


 3535 0066 00       		.uleb128 0
 3536 0067 00       		.uleb128 .LVU130
 3537 0068 00       		.uleb128 .LVU130
 3538 0069 00       		.uleb128 0
 3539              	.LLST18:
 3540 006a 00000000 		.4byte	.LVL23
 3541 006e 11000000 		.4byte	.LVL24-1
 3542 0072 0100     		.2byte	0x1
 3543 0074 53       		.byte	0x53
 3544 0075 11000000 		.4byte	.LVL24-1
 3545 0079 4E000000 		.4byte	.LFE222
 3546 007d 0100     		.2byte	0x1
 3547 007f 58       		.byte	0x58
 3548 0080 00000000 		.4byte	0
 3549 0084 00000000 		.4byte	0
 3550              	.LVUS19:
 3551 0088 00       		.uleb128 .LVU130
 3552 0089 00       		.uleb128 .LVU144
 3553 008a 00       		.uleb128 .LVU165
 3554 008b 00       		.uleb128 0
 3555              	.LLST19:
 3556 008c 12000000 		.4byte	.LVL24
 3557 0090 27000000 		.4byte	.LVL27-1
 3558 0094 0100     		.2byte	0x1
 3559 0096 50       		.byte	0x50
 3560 0097 44000000 		.4byte	.LVL31
 3561 009b 4E000000 		.4byte	.LFE222
 3562 009f 0100     		.2byte	0x1
 3563 00a1 50       		.byte	0x50
 3564 00a2 00000000 		.4byte	0
 3565 00a6 00000000 		.4byte	0
 3566              	.LVUS20:
 3567 00aa 00       		.uleb128 .LVU148
 3568 00ab 00       		.uleb128 .LVU151
 3569 00ac 00       		.uleb128 .LVU151
 3570 00ad 00       		.uleb128 .LVU165
 3571              	.LLST20:
 3572 00ae 32000000 		.4byte	.LVL28
 3573 00b2 35000000 		.4byte	.LVL29-1
 3574 00b6 0100     		.2byte	0x1
 3575 00b8 50       		.byte	0x50
 3576 00b9 35000000 		.4byte	.LVL29-1
 3577 00bd 44000000 		.4byte	.LVL31
 3578 00c1 0100     		.2byte	0x1
 3579 00c3 54       		.byte	0x54
 3580 00c4 00000000 		.4byte	0
 3581 00c8 00000000 		.4byte	0
 3582              	.LVUS21:
 3583 00cc 05       		.uleb128 .LVU137
 3584 00cd 00       		.uleb128 .LVU139
 3585              	.LLST21:
 3586 00ce 14000000 		.4byte	.LVL25
 3587 00d2 1A000000 		.4byte	.LVL26
 3588 00d6 0300     		.2byte	0x3
 3589 00d8 08       		.byte	0x8
 3590 00d9 20       		.byte	0x20
 3591 00da 9F       		.byte	0x9f
ARM GAS  C:\Users\USER\AppData\Local\Temp\cciSBp8j.s 			page 64


 3592 00db 00000000 		.4byte	0
 3593 00df 00000000 		.4byte	0
 3594              	.LVUS22:
 3595 00e3 09       		.uleb128 .LVU160
 3596 00e4 00       		.uleb128 .LVU162
 3597              	.LLST22:
 3598 00e5 36000000 		.4byte	.LVL29
 3599 00e9 3C000000 		.4byte	.LVL30
 3600 00ed 0200     		.2byte	0x2
 3601 00ef 30       		.byte	0x30
 3602 00f0 9F       		.byte	0x9f
 3603 00f1 00000000 		.4byte	0
 3604 00f5 00000000 		.4byte	0
 3605              	.LVUS6:
 3606 00f9 00       		.uleb128 0
 3607 00fa 00       		.uleb128 .LVU85
 3608 00fb 00       		.uleb128 .LVU85
 3609 00fc 00       		.uleb128 0
 3610              	.LLST6:
 3611 00fd 00000000 		.4byte	.LVL14
 3612 0101 0D000000 		.4byte	.LVL15-1
 3613 0105 0100     		.2byte	0x1
 3614 0107 50       		.byte	0x50
 3615 0108 0D000000 		.4byte	.LVL15-1
 3616 010c 44000000 		.4byte	.LFE221
 3617 0110 0400     		.2byte	0x4
 3618 0112 F3       		.byte	0xf3
 3619 0113 01       		.uleb128 0x1
 3620 0114 50       		.byte	0x50
 3621 0115 9F       		.byte	0x9f
 3622 0116 00000000 		.4byte	0
 3623 011a 00000000 		.4byte	0
 3624              	.LVUS7:
 3625 011e 00       		.uleb128 0
 3626 011f 00       		.uleb128 .LVU85
 3627 0120 00       		.uleb128 .LVU85
 3628 0121 00       		.uleb128 0
 3629              	.LLST7:
 3630 0122 00000000 		.4byte	.LVL14
 3631 0126 0D000000 		.4byte	.LVL15-1
 3632 012a 0100     		.2byte	0x1
 3633 012c 51       		.byte	0x51
 3634 012d 0D000000 		.4byte	.LVL15-1
 3635 0131 44000000 		.4byte	.LFE221
 3636 0135 0100     		.2byte	0x1
 3637 0137 55       		.byte	0x55
 3638 0138 00000000 		.4byte	0
 3639 013c 00000000 		.4byte	0
 3640              	.LVUS8:
 3641 0140 00       		.uleb128 0
 3642 0141 00       		.uleb128 .LVU85
 3643 0142 00       		.uleb128 .LVU85
 3644 0143 00       		.uleb128 0
 3645              	.LLST8:
 3646 0144 00000000 		.4byte	.LVL14
 3647 0148 0D000000 		.4byte	.LVL15-1
 3648 014c 0100     		.2byte	0x1
ARM GAS  C:\Users\USER\AppData\Local\Temp\cciSBp8j.s 			page 65


 3649 014e 52       		.byte	0x52
 3650 014f 0D000000 		.4byte	.LVL15-1
 3651 0153 44000000 		.4byte	.LFE221
 3652 0157 0100     		.2byte	0x1
 3653 0159 56       		.byte	0x56
 3654 015a 00000000 		.4byte	0
 3655 015e 00000000 		.4byte	0
 3656              	.LVUS9:
 3657 0162 00       		.uleb128 0
 3658 0163 00       		.uleb128 .LVU85
 3659 0164 00       		.uleb128 .LVU85
 3660 0165 00       		.uleb128 0
 3661              	.LLST9:
 3662 0166 00000000 		.4byte	.LVL14
 3663 016a 0D000000 		.4byte	.LVL15-1
 3664 016e 0100     		.2byte	0x1
 3665 0170 53       		.byte	0x53
 3666 0171 0D000000 		.4byte	.LVL15-1
 3667 0175 44000000 		.4byte	.LFE221
 3668 0179 0100     		.2byte	0x1
 3669 017b 57       		.byte	0x57
 3670 017c 00000000 		.4byte	0
 3671 0180 00000000 		.4byte	0
 3672              	.LVUS10:
 3673 0184 00       		.uleb128 0
 3674 0185 00       		.uleb128 .LVU118
 3675 0186 00       		.uleb128 .LVU118
 3676 0187 00       		.uleb128 0
 3677              	.LLST10:
 3678 0188 00000000 		.4byte	.LVL14
 3679 018c 3C000000 		.4byte	.LVL22
 3680 0190 0200     		.2byte	0x2
 3681 0192 91       		.byte	0x91
 3682 0193 00       		.sleb128 0
 3683 0194 3C000000 		.4byte	.LVL22
 3684 0198 44000000 		.4byte	.LFE221
 3685 019c 0200     		.2byte	0x2
 3686 019e 91       		.byte	0x91
 3687 019f 00       		.sleb128 0
 3688 01a0 00000000 		.4byte	0
 3689 01a4 00000000 		.4byte	0
 3690              	.LVUS11:
 3691 01a8 00       		.uleb128 .LVU85
 3692 01a9 00       		.uleb128 .LVU99
 3693 01aa 00       		.uleb128 .LVU118
 3694 01ab 00       		.uleb128 0
 3695              	.LLST11:
 3696 01ac 0E000000 		.4byte	.LVL15
 3697 01b0 23000000 		.4byte	.LVL18-1
 3698 01b4 0100     		.2byte	0x1
 3699 01b6 50       		.byte	0x50
 3700 01b7 3C000000 		.4byte	.LVL22
 3701 01bb 44000000 		.4byte	.LFE221
 3702 01bf 0100     		.2byte	0x1
 3703 01c1 50       		.byte	0x50
 3704 01c2 00000000 		.4byte	0
 3705 01c6 00000000 		.4byte	0
ARM GAS  C:\Users\USER\AppData\Local\Temp\cciSBp8j.s 			page 66


 3706              	.LVUS12:
 3707 01ca 00       		.uleb128 .LVU102
 3708 01cb 00       		.uleb128 .LVU104
 3709 01cc 00       		.uleb128 .LVU104
 3710 01cd 00       		.uleb128 .LVU118
 3711              	.LLST12:
 3712 01ce 2C000000 		.4byte	.LVL19
 3713 01d2 2F000000 		.4byte	.LVL20-1
 3714 01d6 0100     		.2byte	0x1
 3715 01d8 50       		.byte	0x50
 3716 01d9 2F000000 		.4byte	.LVL20-1
 3717 01dd 3C000000 		.4byte	.LVL22
 3718 01e1 0100     		.2byte	0x1
 3719 01e3 54       		.byte	0x54
 3720 01e4 00000000 		.4byte	0
 3721 01e8 00000000 		.4byte	0
 3722              	.LVUS13:
 3723 01ec 05       		.uleb128 .LVU92
 3724 01ed 00       		.uleb128 .LVU94
 3725              	.LLST13:
 3726 01ee 10000000 		.4byte	.LVL16
 3727 01f2 16000000 		.4byte	.LVL17
 3728 01f6 0300     		.2byte	0x3
 3729 01f8 08       		.byte	0x8
 3730 01f9 20       		.byte	0x20
 3731 01fa 9F       		.byte	0x9f
 3732 01fb 00000000 		.4byte	0
 3733 01ff 00000000 		.4byte	0
 3734              	.LVUS14:
 3735 0203 09       		.uleb128 .LVU113
 3736 0204 00       		.uleb128 .LVU115
 3737              	.LLST14:
 3738 0205 30000000 		.4byte	.LVL20
 3739 0209 36000000 		.4byte	.LVL21
 3740 020d 0200     		.2byte	0x2
 3741 020f 30       		.byte	0x30
 3742 0210 9F       		.byte	0x9f
 3743 0211 00000000 		.4byte	0
 3744 0215 00000000 		.4byte	0
 3745              	.LVUS2:
 3746 0219 00       		.uleb128 0
 3747 021a 00       		.uleb128 .LVU68
 3748 021b 00       		.uleb128 .LVU68
 3749 021c 00       		.uleb128 .LVU72
 3750 021d 00       		.uleb128 .LVU72
 3751 021e 00       		.uleb128 .LVU72
 3752 021f 00       		.uleb128 .LVU72
 3753 0220 00       		.uleb128 .LVU77
 3754 0221 00       		.uleb128 .LVU77
 3755 0222 00       		.uleb128 0
 3756              	.LLST2:
 3757 0223 00000000 		.4byte	.LVL4
 3758 0227 34000000 		.4byte	.LVL9
 3759 022b 0100     		.2byte	0x1
 3760 022d 50       		.byte	0x50
 3761 022e 34000000 		.4byte	.LVL9
 3762 0232 3B000000 		.4byte	.LVL11-1
ARM GAS  C:\Users\USER\AppData\Local\Temp\cciSBp8j.s 			page 67


 3763 0236 0100     		.2byte	0x1
 3764 0238 51       		.byte	0x51
 3765 0239 3B000000 		.4byte	.LVL11-1
 3766 023d 3C000000 		.4byte	.LVL11
 3767 0241 0400     		.2byte	0x4
 3768 0243 F3       		.byte	0xf3
 3769 0244 01       		.uleb128 0x1
 3770 0245 50       		.byte	0x50
 3771 0246 9F       		.byte	0x9f
 3772 0247 3C000000 		.4byte	.LVL11
 3773 024b 4B000000 		.4byte	.LVL13-1
 3774 024f 0100     		.2byte	0x1
 3775 0251 50       		.byte	0x50
 3776 0252 4B000000 		.4byte	.LVL13-1
 3777 0256 4C000000 		.4byte	.LFE220
 3778 025a 0400     		.2byte	0x4
 3779 025c F3       		.byte	0xf3
 3780 025d 01       		.uleb128 0x1
 3781 025e 50       		.byte	0x50
 3782 025f 9F       		.byte	0x9f
 3783 0260 00000000 		.4byte	0
 3784 0264 00000000 		.4byte	0
 3785              	.LVUS3:
 3786 0268 01       		.uleb128 .LVU48
 3787 0269 00       		.uleb128 .LVU63
 3788 026a 00       		.uleb128 .LVU63
 3789 026b 00       		.uleb128 .LVU68
 3790 026c 00       		.uleb128 .LVU68
 3791 026d 00       		.uleb128 .LVU69
 3792 026e 00       		.uleb128 .LVU72
 3793 026f 00       		.uleb128 .LVU74
 3794              	.LLST3:
 3795 0270 10000000 		.4byte	.LVL6
 3796 0274 1A000000 		.4byte	.LVL8
 3797 0278 0100     		.2byte	0x1
 3798 027a 53       		.byte	0x53
 3799 027b 1A000000 		.4byte	.LVL8
 3800 027f 34000000 		.4byte	.LVL9
 3801 0283 0200     		.2byte	0x2
 3802 0285 70       		.byte	0x70
 3803 0286 1E       		.sleb128 30
 3804 0287 34000000 		.4byte	.LVL9
 3805 028b 36000000 		.4byte	.LVL10
 3806 028f 0200     		.2byte	0x2
 3807 0291 71       		.byte	0x71
 3808 0292 1E       		.sleb128 30
 3809 0293 3C000000 		.4byte	.LVL11
 3810 0297 44000000 		.4byte	.LVL12
 3811 029b 0200     		.2byte	0x2
 3812 029d 70       		.byte	0x70
 3813 029e 1E       		.sleb128 30
 3814 029f 00000000 		.4byte	0
 3815 02a3 00000000 		.4byte	0
 3816              	.LVUS4:
 3817 02a7 07       		.uleb128 .LVU36
 3818 02a8 00       		.uleb128 .LVU40
 3819              	.LLST4:
ARM GAS  C:\Users\USER\AppData\Local\Temp\cciSBp8j.s 			page 68


 3820 02a9 00000000 		.4byte	.LVL4
 3821 02ad 08000000 		.4byte	.LVL5
 3822 02b1 0300     		.2byte	0x3
 3823 02b3 08       		.byte	0x8
 3824 02b4 20       		.byte	0x20
 3825 02b5 9F       		.byte	0x9f
 3826 02b6 00000000 		.4byte	0
 3827 02ba 00000000 		.4byte	0
 3828              	.LVUS5:
 3829 02be 0A       		.uleb128 .LVU57
 3830 02bf 00       		.uleb128 .LVU59
 3831              	.LLST5:
 3832 02c0 10000000 		.4byte	.LVL6
 3833 02c4 16000000 		.4byte	.LVL7
 3834 02c8 0200     		.2byte	0x2
 3835 02ca 30       		.byte	0x30
 3836 02cb 9F       		.byte	0x9f
 3837 02cc 00000000 		.4byte	0
 3838 02d0 00000000 		.4byte	0
 3839              	.LVUS0:
 3840 02d4 06       		.uleb128 .LVU6
 3841 02d5 00       		.uleb128 .LVU8
 3842              	.LLST0:
 3843 02d6 00000000 		.4byte	.LVL0
 3844 02da 06000000 		.4byte	.LVL1
 3845 02de 0300     		.2byte	0x3
 3846 02e0 08       		.byte	0x8
 3847 02e1 20       		.byte	0x20
 3848 02e2 9F       		.byte	0x9f
 3849 02e3 00000000 		.4byte	0
 3850 02e7 00000000 		.4byte	0
 3851              	.LVUS1:
 3852 02eb 09       		.uleb128 .LVU24
 3853 02ec 00       		.uleb128 .LVU26
 3854              	.LLST1:
 3855 02ed 0C000000 		.4byte	.LVL2
 3856 02f1 12000000 		.4byte	.LVL3
 3857 02f5 0200     		.2byte	0x2
 3858 02f7 30       		.byte	0x30
 3859 02f8 9F       		.byte	0x9f
 3860 02f9 00000000 		.4byte	0
 3861 02fd 00000000 		.4byte	0
 3862              		.section	.debug_aranges,"",%progbits
 3863 0000 34000000 		.4byte	0x34
 3864 0004 0200     		.2byte	0x2
 3865 0006 00000000 		.4byte	.Ldebug_info0
 3866 000a 04       		.byte	0x4
 3867 000b 00       		.byte	0
 3868 000c 0000     		.2byte	0
 3869 000e 0000     		.2byte	0
 3870 0010 00000000 		.4byte	.LFB219
 3871 0014 14000000 		.4byte	.LFE219-.LFB219
 3872 0018 00000000 		.4byte	.LFB220
 3873 001c 4C000000 		.4byte	.LFE220-.LFB220
 3874 0020 00000000 		.4byte	.LFB221
 3875 0024 44000000 		.4byte	.LFE221-.LFB221
 3876 0028 00000000 		.4byte	.LFB222
ARM GAS  C:\Users\USER\AppData\Local\Temp\cciSBp8j.s 			page 69


 3877 002c 4E000000 		.4byte	.LFE222-.LFB222
 3878 0030 00000000 		.4byte	0
 3879 0034 00000000 		.4byte	0
 3880              		.section	.debug_ranges,"",%progbits
 3881              	.Ldebug_ranges0:
 3882 0000 00000000 		.4byte	.LBB54
 3883 0004 00000000 		.4byte	.LBE54
 3884 0008 00000000 		.4byte	.LBB59
 3885 000c 00000000 		.4byte	.LBE59
 3886 0010 00000000 		.4byte	.LBB60
 3887 0014 06000000 		.4byte	.LBE60
 3888 0018 00000000 		.4byte	0
 3889 001c 00000000 		.4byte	0
 3890 0020 0C000000 		.4byte	.LBB61
 3891 0024 0C000000 		.4byte	.LBE61
 3892 0028 0C000000 		.4byte	.LBB68
 3893 002c 12000000 		.4byte	.LBE68
 3894 0030 00000000 		.4byte	0
 3895 0034 00000000 		.4byte	0
 3896 0038 00000000 		.4byte	.LBB69
 3897 003c 00000000 		.4byte	.LBE69
 3898 0040 00000000 		.4byte	.LBB77
 3899 0044 00000000 		.4byte	.LBE77
 3900 0048 00000000 		.4byte	.LBB78
 3901 004c 00000000 		.4byte	.LBE78
 3902 0050 02000000 		.4byte	.LBB79
 3903 0054 08000000 		.4byte	.LBE79
 3904 0058 00000000 		.4byte	0
 3905 005c 00000000 		.4byte	0
 3906 0060 10000000 		.4byte	.LBB80
 3907 0064 10000000 		.4byte	.LBE80
 3908 0068 10000000 		.4byte	.LBB87
 3909 006c 16000000 		.4byte	.LBE87
 3910 0070 00000000 		.4byte	0
 3911 0074 00000000 		.4byte	0
 3912 0078 10000000 		.4byte	.LBB88
 3913 007c 10000000 		.4byte	.LBE88
 3914 0080 10000000 		.4byte	.LBB93
 3915 0084 10000000 		.4byte	.LBE93
 3916 0088 10000000 		.4byte	.LBB94
 3917 008c 16000000 		.4byte	.LBE94
 3918 0090 00000000 		.4byte	0
 3919 0094 00000000 		.4byte	0
 3920 0098 30000000 		.4byte	.LBB95
 3921 009c 30000000 		.4byte	.LBE95
 3922 00a0 30000000 		.4byte	.LBB102
 3923 00a4 36000000 		.4byte	.LBE102
 3924 00a8 00000000 		.4byte	0
 3925 00ac 00000000 		.4byte	0
 3926 00b0 14000000 		.4byte	.LBB103
 3927 00b4 14000000 		.4byte	.LBE103
 3928 00b8 14000000 		.4byte	.LBB108
 3929 00bc 14000000 		.4byte	.LBE108
 3930 00c0 14000000 		.4byte	.LBB109
 3931 00c4 1A000000 		.4byte	.LBE109
 3932 00c8 00000000 		.4byte	0
 3933 00cc 00000000 		.4byte	0
ARM GAS  C:\Users\USER\AppData\Local\Temp\cciSBp8j.s 			page 70


 3934 00d0 36000000 		.4byte	.LBB110
 3935 00d4 36000000 		.4byte	.LBE110
 3936 00d8 36000000 		.4byte	.LBB117
 3937 00dc 3C000000 		.4byte	.LBE117
 3938 00e0 00000000 		.4byte	0
 3939 00e4 00000000 		.4byte	0
 3940 00e8 00000000 		.4byte	.LFB219
 3941 00ec 14000000 		.4byte	.LFE219
 3942 00f0 00000000 		.4byte	.LFB220
 3943 00f4 4C000000 		.4byte	.LFE220
 3944 00f8 00000000 		.4byte	.LFB221
 3945 00fc 44000000 		.4byte	.LFE221
 3946 0100 00000000 		.4byte	.LFB222
 3947 0104 4E000000 		.4byte	.LFE222
 3948 0108 00000000 		.4byte	0
 3949 010c 00000000 		.4byte	0
 3950              		.section	.debug_line,"",%progbits
 3951              	.Ldebug_line0:
 3952 0000 FD050000 		.section	.debug_str,"MS",%progbits,1
 3952      03003103 
 3952      00000201 
 3952      FB0E0D00 
 3952      01010101 
 3953              	.LASF107:
 3954 0000 7466756E 		.ascii	"tfunc_t\000"
 3954      635F7400 
 3955              	.LASF56:
 3956 0008 72656164 		.ascii	"ready_list_t\000"
 3956      795F6C69 
 3956      73745F74 
 3956      00
 3957              	.LASF2:
 3958 0015 73697A65 		.ascii	"size_t\000"
 3958      5F7400
 3959              	.LASF92:
 3960 001c 7264796D 		.ascii	"rdymsg\000"
 3960      736700
 3961              	.LASF19:
 3962 0023 75696E74 		.ascii	"uint64_t\000"
 3962      36345F74 
 3962      00
 3963              	.LASF3:
 3964 002c 5F5F7569 		.ascii	"__uint8_t\000"
 3964      6E74385F 
 3964      7400
 3965              	.LASF89:
 3966 0036 706F7274 		.ascii	"port_intctx\000"
 3966      5F696E74 
 3966      63747800 
 3967              	.LASF75:
 3968 0042 73797374 		.ascii	"system_debug_t\000"
 3968      656D5F64 
 3968      65627567 
 3968      5F7400
 3969              	.LASF154:
 3970 0051 706F7274 		.ascii	"port_lock\000"
 3970      5F6C6F63 
ARM GAS  C:\Users\USER\AppData\Local\Temp\cciSBp8j.s 			page 71


 3970      6B00
 3971              	.LASF129:
 3972 005b 6D656D67 		.ascii	"memgetfunc_t\000"
 3972      65746675 
 3972      6E635F74 
 3972      00
 3973              	.LASF14:
 3974 0068 6C6F6E67 		.ascii	"long long unsigned int\000"
 3974      206C6F6E 
 3974      6720756E 
 3974      7369676E 
 3974      65642069 
 3975              	.LASF114:
 3976 007f 63685F74 		.ascii	"ch_threadsize\000"
 3976      68726561 
 3976      6473697A 
 3976      6500
 3977              	.LASF93:
 3978 008d 65786974 		.ascii	"exitcode\000"
 3978      636F6465 
 3978      00
 3979              	.LASF133:
 3980 0096 685F6672 		.ascii	"h_free\000"
 3980      656500
 3981              	.LASF72:
 3982 009d 76697274 		.ascii	"virtual_timers_list_t\000"
 3982      75616C5F 
 3982      74696D65 
 3982      72735F6C 
 3982      6973745F 
 3983              	.LASF84:
 3984 00b3 49544D5F 		.ascii	"ITM_RxBuffer\000"
 3984      52784275 
 3984      66666572 
 3984      00
 3985              	.LASF148:
 3986 00c0 68656170 		.ascii	"heapp\000"
 3986      7000
 3987              	.LASF135:
 3988 00c6 6E657874 		.ascii	"next\000"
 3988      00
 3989              	.LASF55:
 3990 00cb 63685F74 		.ascii	"ch_threads_queue\000"
 3990      68726561 
 3990      64735F71 
 3990      75657565 
 3990      00
 3991              	.LASF33:
 3992 00dc 705F7072 		.ascii	"p_prio\000"
 3992      696F00
 3993              	.LASF121:
 3994 00e3 63665F6F 		.ascii	"cf_off_state\000"
 3994      66665F73 
 3994      74617465 
 3994      00
 3995              	.LASF12:
 3996 00f0 6C6F6E67 		.ascii	"long long int\000"
ARM GAS  C:\Users\USER\AppData\Local\Temp\cciSBp8j.s 			page 72


 3996      206C6F6E 
 3996      6720696E 
 3996      7400
 3997              	.LASF1:
 3998 00fe 7369676E 		.ascii	"signed char\000"
 3998      65642063 
 3998      68617200 
 3999              	.LASF134:
 4000 010a 685F6D74 		.ascii	"h_mtx\000"
 4000      7800
 4001              	.LASF120:
 4002 0110 63665F6F 		.ascii	"cf_off_stklimit\000"
 4002      66665F73 
 4002      746B6C69 
 4002      6D697400 
 4003              	.LASF122:
 4004 0120 63665F6F 		.ascii	"cf_off_flags\000"
 4004      66665F66 
 4004      6C616773 
 4004      00
 4005              	.LASF49:
 4006 012d 705F6D70 		.ascii	"p_mpool\000"
 4006      6F6F6C00 
 4007              	.LASF103:
 4008 0135 6D5F7175 		.ascii	"m_queue\000"
 4008      65756500 
 4009              	.LASF162:
 4010 013d 63684865 		.ascii	"chHeapFree\000"
 4010      61704672 
 4010      656500
 4011              	.LASF81:
 4012 0148 76746C69 		.ascii	"vtlist\000"
 4012      737400
 4013              	.LASF153:
 4014 014f 706F7274 		.ascii	"port_unlock\000"
 4014      5F756E6C 
 4014      6F636B00 
 4015              	.LASF24:
 4016 015b 74736C69 		.ascii	"tslices_t\000"
 4016      6365735F 
 4016      7400
 4017              	.LASF158:
 4018 0165 63685468 		.ascii	"chThdCreateI\000"
 4018      64437265 
 4018      61746549 
 4018      00
 4019              	.LASF95:
 4020 0172 77747472 		.ascii	"wttrp\000"
 4020      7000
 4021              	.LASF79:
 4022 0178 63685F73 		.ascii	"ch_system\000"
 4022      79737465 
 4022      6D00
 4023              	.LASF9:
 4024 0182 6C6F6E67 		.ascii	"long int\000"
 4024      20696E74 
 4024      00
ARM GAS  C:\Users\USER\AppData\Local\Temp\cciSBp8j.s 			page 73


 4025              	.LASF147:
 4026 018b 63685468 		.ascii	"chThdCreateFromHeap\000"
 4026      64437265 
 4026      61746546 
 4026      726F6D48 
 4026      65617000 
 4027              	.LASF22:
 4028 019f 74737461 		.ascii	"tstate_t\000"
 4028      74655F74 
 4028      00
 4029              	.LASF130:
 4030 01a8 6D656D6F 		.ascii	"memory_heap_t\000"
 4030      72795F68 
 4030      6561705F 
 4030      7400
 4031              	.LASF126:
 4032 01b6 63686465 		.ascii	"chdebug_t\000"
 4032      6275675F 
 4032      7400
 4033              	.LASF35:
 4034 01c0 705F6E65 		.ascii	"p_newer\000"
 4034      77657200 
 4035              	.LASF100:
 4036 01c8 735F7175 		.ascii	"s_queue\000"
 4036      65756500 
 4037              	.LASF146:
 4038 01d0 63685468 		.ascii	"chThdCreateFromMemoryPool\000"
 4038      64437265 
 4038      61746546 
 4038      726F6D4D 
 4038      656D6F72 
 4039              	.LASF61:
 4040 01ea 725F6E65 		.ascii	"r_newer\000"
 4040      77657200 
 4041              	.LASF143:
 4042 01f2 6D705F70 		.ascii	"mp_provider\000"
 4042      726F7669 
 4042      64657200 
 4043              	.LASF86:
 4044 01fe 72656761 		.ascii	"regarm_t\000"
 4044      726D5F74 
 4044      00
 4045              	.LASF68:
 4046 0207 76745F70 		.ascii	"vt_prev\000"
 4046      72657600 
 4047              	.LASF163:
 4048 020f 474E5520 		.ascii	"GNU C99 8.2.1 20181213 (release) [gcc-8-branch revi"
 4048      43393920 
 4048      382E322E 
 4048      31203230 
 4048      31383132 
 4049 0242 73696F6E 		.ascii	"sion 267074] -mcpu=cortex-m4 -mfloat-abi=hard -mfpu"
 4049      20323637 
 4049      3037345D 
 4049      202D6D63 
 4049      70753D63 
 4050 0275 3D667076 		.ascii	"=fpv4-sp-d16 -mno-thumb-interwork -mthumb -march=ar"
ARM GAS  C:\Users\USER\AppData\Local\Temp\cciSBp8j.s 			page 74


 4050      342D7370 
 4050      2D643136 
 4050      202D6D6E 
 4050      6F2D7468 
 4051 02a8 6D763765 		.ascii	"mv7e-m+fp -ggdb -O2 -std=gnu99 -fomit-frame-pointer"
 4051      2D6D2B66 
 4051      70202D67 
 4051      67646220 
 4051      2D4F3220 
 4052 02db 202D6661 		.ascii	" -falign-functions=16 -ffunction-sections -fdata-se"
 4052      6C69676E 
 4052      2D66756E 
 4052      6374696F 
 4052      6E733D31 
 4053 030e 6374696F 		.ascii	"ctions -fno-common -fsingle-precision-constant\000"
 4053      6E73202D 
 4053      666E6F2D 
 4053      636F6D6D 
 4053      6F6E202D 
 4054              	.LASF128:
 4055 033d 6D757465 		.ascii	"mutex_t\000"
 4055      785F7400 
 4056              	.LASF168:
 4057 0345 76616C75 		.ascii	"value\000"
 4057      6500
 4058              	.LASF137:
 4059 034b 616C6967 		.ascii	"align\000"
 4059      6E00
 4060              	.LASF83:
 4061 0351 69646C65 		.ascii	"idle_thread_wa\000"
 4061      5F746872 
 4061      6561645F 
 4061      776100
 4062              	.LASF28:
 4063 0360 636E745F 		.ascii	"cnt_t\000"
 4063      7400
 4064              	.LASF0:
 4065 0366 756E7369 		.ascii	"unsigned int\000"
 4065      676E6564 
 4065      20696E74 
 4065      00
 4066              	.LASF67:
 4067 0373 76745F6E 		.ascii	"vt_next\000"
 4067      65787400 
 4068              	.LASF16:
 4069 037b 75696E74 		.ascii	"uint16_t\000"
 4069      31365F74 
 4069      00
 4070              	.LASF85:
 4071 0384 53797374 		.ascii	"SystemCoreClock\000"
 4071      656D436F 
 4071      7265436C 
 4071      6F636B00 
 4072              	.LASF42:
 4073 0394 705F7469 		.ascii	"p_time\000"
 4073      6D6500
 4074              	.LASF96:
ARM GAS  C:\Users\USER\AppData\Local\Temp\cciSBp8j.s 			page 75


 4075 039b 77747365 		.ascii	"wtsemp\000"
 4075      6D7000
 4076              	.LASF118:
 4077 03a2 63665F6F 		.ascii	"cf_off_older\000"
 4077      66665F6F 
 4077      6C646572 
 4077      00
 4078              	.LASF69:
 4079 03af 76745F64 		.ascii	"vt_delta\000"
 4079      656C7461 
 4079      00
 4080              	.LASF44:
 4081 03b8 705F6D73 		.ascii	"p_msgqueue\000"
 4081      67717565 
 4081      756500
 4082              	.LASF127:
 4083 03c3 63685F64 		.ascii	"ch_debug\000"
 4083      65627567 
 4083      00
 4084              	.LASF144:
 4085 03cc 6D656D6F 		.ascii	"memory_pool_t\000"
 4085      72795F70 
 4085      6F6F6C5F 
 4085      7400
 4086              	.LASF101:
 4087 03da 735F636E 		.ascii	"s_cnt\000"
 4087      7400
 4088              	.LASF7:
 4089 03e0 73686F72 		.ascii	"short unsigned int\000"
 4089      7420756E 
 4089      7369676E 
 4089      65642069 
 4089      6E7400
 4090              	.LASF52:
 4091 03f3 63685F74 		.ascii	"ch_thread\000"
 4091      68726561 
 4091      6400
 4092              	.LASF159:
 4093 03fd 63685363 		.ascii	"chSchWakeupS\000"
 4093      6857616B 
 4093      65757053 
 4093      00
 4094              	.LASF82:
 4095 040a 6D61696E 		.ascii	"mainthread\000"
 4095      74687265 
 4095      616400
 4096              	.LASF26:
 4097 0415 6D73675F 		.ascii	"msg_t\000"
 4097      7400
 4098              	.LASF78:
 4099 041b 63685F73 		.ascii	"ch_system_t\000"
 4099      79737465 
 4099      6D5F7400 
 4100              	.LASF125:
 4101 0427 63665F6F 		.ascii	"cf_off_time\000"
 4101      66665F74 
 4101      696D6500 
ARM GAS  C:\Users\USER\AppData\Local\Temp\cciSBp8j.s 			page 76


 4102              	.LASF57:
 4103 0433 63685F72 		.ascii	"ch_ready_list\000"
 4103      65616479 
 4103      5F6C6973 
 4103      7400
 4104              	.LASF27:
 4105 0441 6576656E 		.ascii	"eventmask_t\000"
 4105      746D6173 
 4105      6B5F7400 
 4106              	.LASF8:
 4107 044d 5F5F696E 		.ascii	"__int32_t\000"
 4107      7433325F 
 4107      7400
 4108              	.LASF151:
 4109 0457 63685468 		.ascii	"chThdAddRef\000"
 4109      64416464 
 4109      52656600 
 4110              	.LASF87:
 4111 0463 73746B61 		.ascii	"stkalign_t\000"
 4111      6C69676E 
 4111      5F7400
 4112              	.LASF109:
 4113 046e 63685F7A 		.ascii	"ch_zero\000"
 4113      65726F00 
 4114              	.LASF123:
 4115 0476 63665F6F 		.ascii	"cf_off_refs\000"
 4115      66665F72 
 4115      65667300 
 4116              	.LASF43:
 4117 0482 705F7761 		.ascii	"p_waiting\000"
 4117      6974696E 
 4117      6700
 4118              	.LASF20:
 4119 048c 7274636E 		.ascii	"rtcnt_t\000"
 4119      745F7400 
 4120              	.LASF73:
 4121 0494 63685F76 		.ascii	"ch_virtual_timers_list\000"
 4121      69727475 
 4121      616C5F74 
 4121      696D6572 
 4121      735F6C69 
 4122              	.LASF113:
 4123 04ab 63685F74 		.ascii	"ch_timesize\000"
 4123      696D6573 
 4123      697A6500 
 4124              	.LASF119:
 4125 04b7 63665F6F 		.ascii	"cf_off_name\000"
 4125      66665F6E 
 4125      616D6500 
 4126              	.LASF51:
 4127 04c3 74687265 		.ascii	"threads_list_t\000"
 4127      6164735F 
 4127      6C697374 
 4127      5F7400
 4128              	.LASF36:
 4129 04d2 705F6F6C 		.ascii	"p_older\000"
 4129      64657200 
ARM GAS  C:\Users\USER\AppData\Local\Temp\cciSBp8j.s 			page 77


 4130              	.LASF60:
 4131 04da 725F6374 		.ascii	"r_ctx\000"
 4131      7800
 4132              	.LASF34:
 4133 04e0 705F6374 		.ascii	"p_ctx\000"
 4133      7800
 4134              	.LASF142:
 4135 04e6 6D705F6F 		.ascii	"mp_object_size\000"
 4135      626A6563 
 4135      745F7369 
 4135      7A6500
 4136              	.LASF91:
 4137 04f5 746D5F63 		.ascii	"tm_calibration_t\000"
 4137      616C6962 
 4137      72617469 
 4137      6F6E5F74 
 4137      00
 4138              	.LASF145:
 4139 0506 7072696F 		.ascii	"prio\000"
 4139      00
 4140              	.LASF62:
 4141 050b 725F6F6C 		.ascii	"r_older\000"
 4141      64657200 
 4142              	.LASF13:
 4143 0513 5F5F7569 		.ascii	"__uint64_t\000"
 4143      6E743634 
 4143      5F7400
 4144              	.LASF140:
 4145 051e 70685F6E 		.ascii	"ph_next\000"
 4145      65787400 
 4146              	.LASF23:
 4147 0526 74726566 		.ascii	"trefs_t\000"
 4147      735F7400 
 4148              	.LASF112:
 4149 052e 63685F70 		.ascii	"ch_ptrsize\000"
 4149      74727369 
 4149      7A6500
 4150              	.LASF149:
 4151 0539 72656673 		.ascii	"refs\000"
 4151      00
 4152              	.LASF65:
 4153 053e 76697274 		.ascii	"virtual_timer_t\000"
 4153      75616C5F 
 4153      74696D65 
 4153      725F7400 
 4154              	.LASF32:
 4155 054e 705F7072 		.ascii	"p_prev\000"
 4155      657600
 4156              	.LASF25:
 4157 0555 74707269 		.ascii	"tprio_t\000"
 4157      6F5F7400 
 4158              	.LASF164:
 4159 055d 7372632F 		.ascii	"src/ChibiOS_3.0.2/os/rt/src/chdynamic.c\000"
 4159      43686962 
 4159      694F535F 
 4159      332E302E 
 4159      322F6F73 
ARM GAS  C:\Users\USER\AppData\Local\Temp\cciSBp8j.s 			page 78


 4160              	.LASF76:
 4161 0585 63685F73 		.ascii	"ch_system_debug\000"
 4161      79737465 
 4161      6D5F6465 
 4161      62756700 
 4162              	.LASF17:
 4163 0595 696E7433 		.ascii	"int32_t\000"
 4163      325F7400 
 4164              	.LASF4:
 4165 059d 756E7369 		.ascii	"unsigned char\000"
 4165      676E6564 
 4165      20636861 
 4165      7200
 4166              	.LASF166:
 4167 05ab 68656170 		.ascii	"heap_header\000"
 4167      5F686561 
 4167      64657200 
 4168              	.LASF47:
 4169 05b7 705F6D74 		.ascii	"p_mtxlist\000"
 4169      786C6973 
 4169      7400
 4170              	.LASF5:
 4171 05c1 73686F72 		.ascii	"short int\000"
 4171      7420696E 
 4171      7400
 4172              	.LASF38:
 4173 05cb 705F7374 		.ascii	"p_state\000"
 4173      61746500 
 4174              	.LASF41:
 4175 05d3 705F7072 		.ascii	"p_preempt\000"
 4175      65656D70 
 4175      7400
 4176              	.LASF59:
 4177 05dd 725F7072 		.ascii	"r_prio\000"
 4177      696F00
 4178              	.LASF98:
 4179 05e4 65776D61 		.ascii	"ewmask\000"
 4179      736B00
 4180              	.LASF31:
 4181 05eb 705F6E65 		.ascii	"p_next\000"
 4181      787400
 4182              	.LASF21:
 4183 05f2 746D6F64 		.ascii	"tmode_t\000"
 4183      655F7400 
 4184              	.LASF124:
 4185 05fa 63665F6F 		.ascii	"cf_off_preempt\000"
 4185      66665F70 
 4185      7265656D 
 4185      707400
 4186              	.LASF39:
 4187 0609 705F666C 		.ascii	"p_flags\000"
 4187      61677300 
 4188              	.LASF150:
 4189 0611 5F5F6675 		.ascii	"__func__\000"
 4189      6E635F5F 
 4189      00
 4190              	.LASF152:
ARM GAS  C:\Users\USER\AppData\Local\Temp\cciSBp8j.s 			page 79


 4191 061a 63685379 		.ascii	"chSysLock\000"
 4191      734C6F63 
 4191      6B00
 4192              	.LASF167:
 4193 0624 63685468 		.ascii	"chThdRelease\000"
 4193      6452656C 
 4193      65617365 
 4193      00
 4194              	.LASF54:
 4195 0631 74687265 		.ascii	"threads_queue_t\000"
 4195      6164735F 
 4195      71756575 
 4195      655F7400 
 4196              	.LASF160:
 4197 0641 63684865 		.ascii	"chHeapAlloc\000"
 4197      6170416C 
 4197      6C6F6300 
 4198              	.LASF117:
 4199 064d 63665F6F 		.ascii	"cf_off_newer\000"
 4199      66665F6E 
 4199      65776572 
 4199      00
 4200              	.LASF99:
 4201 065a 63685F73 		.ascii	"ch_semaphore\000"
 4201      656D6170 
 4201      686F7265 
 4201      00
 4202              	.LASF46:
 4203 0667 705F6570 		.ascii	"p_epending\000"
 4203      656E6469 
 4203      6E6700
 4204              	.LASF18:
 4205 0672 75696E74 		.ascii	"uint32_t\000"
 4205      33325F74 
 4205      00
 4206              	.LASF115:
 4207 067b 63665F6F 		.ascii	"cf_off_prio\000"
 4207      66665F70 
 4207      72696F00 
 4208              	.LASF58:
 4209 0687 725F7175 		.ascii	"r_queue\000"
 4209      65756500 
 4210              	.LASF53:
 4211 068f 63685F74 		.ascii	"ch_threads_list\000"
 4211      68726561 
 4211      64735F6C 
 4211      69737400 
 4212              	.LASF110:
 4213 069f 63685F73 		.ascii	"ch_size\000"
 4213      697A6500 
 4214              	.LASF136:
 4215 06a7 68656170 		.ascii	"heap\000"
 4215      00
 4216              	.LASF11:
 4217 06ac 6C6F6E67 		.ascii	"long unsigned int\000"
 4217      20756E73 
 4217      69676E65 
ARM GAS  C:\Users\USER\AppData\Local\Temp\cciSBp8j.s 			page 80


 4217      6420696E 
 4217      7400
 4218              	.LASF63:
 4219 06be 725F6375 		.ascii	"r_current\000"
 4219      7272656E 
 4219      7400
 4220              	.LASF106:
 4221 06c8 63686172 		.ascii	"char\000"
 4221      00
 4222              	.LASF97:
 4223 06cd 77746D74 		.ascii	"wtmtxp\000"
 4223      787000
 4224              	.LASF45:
 4225 06d4 705F6D73 		.ascii	"p_msg\000"
 4225      6700
 4226              	.LASF6:
 4227 06da 5F5F7569 		.ascii	"__uint16_t\000"
 4227      6E743136 
 4227      5F7400
 4228              	.LASF30:
 4229 06e5 74687265 		.ascii	"thread_t\000"
 4229      61645F74 
 4229      00
 4230              	.LASF105:
 4231 06ee 6D5F6E65 		.ascii	"m_next\000"
 4231      787400
 4232              	.LASF29:
 4233 06f5 73797374 		.ascii	"systime_t\000"
 4233      696D655F 
 4233      7400
 4234              	.LASF48:
 4235 06ff 705F7265 		.ascii	"p_realprio\000"
 4235      616C7072 
 4235      696F00
 4236              	.LASF64:
 4237 070a 76746675 		.ascii	"vtfunc_t\000"
 4237      6E635F74 
 4237      00
 4238              	.LASF10:
 4239 0713 5F5F7569 		.ascii	"__uint32_t\000"
 4239      6E743332 
 4239      5F7400
 4240              	.LASF156:
 4241 071e 5F5F7365 		.ascii	"__set_BASEPRI\000"
 4241      745F4241 
 4241      53455052 
 4241      4900
 4242              	.LASF77:
 4243 072c 70616E69 		.ascii	"panic_msg\000"
 4243      635F6D73 
 4243      6700
 4244              	.LASF90:
 4245 0736 6F666673 		.ascii	"offset\000"
 4245      657400
 4246              	.LASF102:
 4247 073d 63685F6D 		.ascii	"ch_mutex\000"
 4247      75746578 
ARM GAS  C:\Users\USER\AppData\Local\Temp\cciSBp8j.s 			page 81


 4247      00
 4248              	.LASF141:
 4249 0746 6D705F6E 		.ascii	"mp_next\000"
 4249      65787400 
 4250              	.LASF88:
 4251 074e 636F6E74 		.ascii	"context\000"
 4251      65787400 
 4252              	.LASF66:
 4253 0756 63685F76 		.ascii	"ch_virtual_timer\000"
 4253      69727475 
 4253      616C5F74 
 4253      696D6572 
 4253      00
 4254              	.LASF71:
 4255 0767 76745F70 		.ascii	"vt_par\000"
 4255      617200
 4256              	.LASF116:
 4257 076e 63665F6F 		.ascii	"cf_off_ctx\000"
 4257      66665F63 
 4257      747800
 4258              	.LASF139:
 4259 0779 706F6F6C 		.ascii	"pool_header\000"
 4259      5F686561 
 4259      64657200 
 4260              	.LASF40:
 4261 0785 705F7265 		.ascii	"p_refs\000"
 4261      667300
 4262              	.LASF165:
 4263 078c 443A5C67 		.ascii	"D:\\git\\oroca_bldc_dev\\oroca_bldc_FW\\oroca_bldc_"
 4263      69745C6F 
 4263      726F6361 
 4263      5F626C64 
 4263      635F6465 
 4264 07bb 63686962 		.ascii	"chibios\000"
 4264      696F7300 
 4265              	.LASF80:
 4266 07c3 726C6973 		.ascii	"rlist\000"
 4266      7400
 4267              	.LASF15:
 4268 07c9 75696E74 		.ascii	"uint8_t\000"
 4268      385F7400 
 4269              	.LASF157:
 4270 07d1 6368506F 		.ascii	"chPoolAlloc\000"
 4270      6F6C416C 
 4270      6C6F6300 
 4271              	.LASF161:
 4272 07dd 6368506F 		.ascii	"chPoolFree\000"
 4272      6F6C4672 
 4272      656500
 4273              	.LASF132:
 4274 07e8 685F7072 		.ascii	"h_provider\000"
 4274      6F766964 
 4274      657200
 4275              	.LASF50:
 4276 07f3 74687265 		.ascii	"thread_reference_t\000"
 4276      61645F72 
 4276      65666572 
ARM GAS  C:\Users\USER\AppData\Local\Temp\cciSBp8j.s 			page 82


 4276      656E6365 
 4276      5F7400
 4277              	.LASF94:
 4278 0806 77746F62 		.ascii	"wtobjp\000"
 4278      6A7000
 4279              	.LASF37:
 4280 080d 705F6E61 		.ascii	"p_name\000"
 4280      6D6500
 4281              	.LASF138:
 4282 0814 73697A65 		.ascii	"size\000"
 4282      00
 4283              	.LASF74:
 4284 0819 76745F73 		.ascii	"vt_systime\000"
 4284      79737469 
 4284      6D6500
 4285              	.LASF155:
 4286 0824 63685379 		.ascii	"chSysUnlock\000"
 4286      73556E6C 
 4286      6F636B00 
 4287              	.LASF111:
 4288 0830 63685F76 		.ascii	"ch_version\000"
 4288      65727369 
 4288      6F6E00
 4289              	.LASF104:
 4290 083b 6D5F6F77 		.ascii	"m_owner\000"
 4290      6E657200 
 4291              	.LASF108:
 4292 0843 63685F69 		.ascii	"ch_identifier\000"
 4292      64656E74 
 4292      69666965 
 4292      7200
 4293              	.LASF70:
 4294 0851 76745F66 		.ascii	"vt_func\000"
 4294      756E6300 
 4295              	.LASF131:
 4296 0859 6D656D6F 		.ascii	"memory_heap\000"
 4296      72795F68 
 4296      65617000 
 4297              		.ident	"GCC: (GNU Tools for Arm Embedded Processors 8-2018-q4-major) 8.2.1 20181213 (release) [gcc
ARM GAS  C:\Users\USER\AppData\Local\Temp\cciSBp8j.s 			page 83


DEFINED SYMBOLS
                            *ABS*:00000000 chdynamic.c
C:\Users\USER\AppData\Local\Temp\cciSBp8j.s:18     .text.chThdAddRef:00000000 $t
C:\Users\USER\AppData\Local\Temp\cciSBp8j.s:27     .text.chThdAddRef:00000000 chThdAddRef
C:\Users\USER\AppData\Local\Temp\cciSBp8j.s:128    .text.chThdRelease:00000000 $t
C:\Users\USER\AppData\Local\Temp\cciSBp8j.s:136    .text.chThdRelease:00000000 chThdRelease
C:\Users\USER\AppData\Local\Temp\cciSBp8j.s:294    .text.chThdCreateFromHeap:00000000 $t
C:\Users\USER\AppData\Local\Temp\cciSBp8j.s:302    .text.chThdCreateFromHeap:00000000 chThdCreateFromHeap
C:\Users\USER\AppData\Local\Temp\cciSBp8j.s:452    .text.chThdCreateFromMemoryPool:00000000 $t
C:\Users\USER\AppData\Local\Temp\cciSBp8j.s:460    .text.chThdCreateFromMemoryPool:00000000 chThdCreateFromMemoryPool

UNDEFINED SYMBOLS
chPoolFree
chHeapFree
chHeapAlloc
chThdCreateI
chSchWakeupS
chPoolAlloc
